---
triple:          'arm64-apple-darwin'
binary-path:     '/Users/tyler/fall25/cse380/final_project/final_project_sqlite/target/debug/deps/libtokio_macros-ddb048d52fa44934.dylib'
relocations:
  - { offset: 0x1E, size: 0x8, addend: 0x0, symName: __RINvMNtCsaNl6UpbT7bw_4core6resultINtB3_6ResultINtNtCsc29TF2YcYso_3syn10punctuated10PunctuatedNtNtBN_4attr4MetaNtNtBN_5token5CommaENtNtBN_5error5ErrorE8and_thenNtNtCsaeTzLhAkejc_12tokio_macros5entry11FinalConfigNCNvB2z_4main0EB2B_, symObjAddr: 0x0, symBinAddr: 0xC50, symSize: 0xBC }
  - { offset: 0x21AC, size: 0x8, addend: 0x0, symName: __RNvXsp_NtCsaNl6UpbT7bw_4core6resultINtB5_6ResultINtNtCsc29TF2YcYso_3syn10punctuated10PunctuatedNtNtBP_4attr4MetaNtNtBP_5token5CommaENtNtBP_5error5ErrorENtNtNtB7_3ops9try_trait3Try6branchCsaeTzLhAkejc_12tokio_macros, symObjAddr: 0x53E8, symBinAddr: 0x6038, symSize: 0xA0 }
  - { offset: 0x2229, size: 0x8, addend: 0x0, symName: __RNvXsp_NtCsaNl6UpbT7bw_4core6resultINtB5_6ResultNtCshnvkK9b4wzu_11proc_macro29TokenTreeNtNtCsc29TF2YcYso_3syn5error5ErrorENtNtNtB7_3ops9try_trait3Try6branchCsaeTzLhAkejc_12tokio_macros, symObjAddr: 0x5488, symBinAddr: 0x60D8, symSize: 0x9C }
  - { offset: 0x22A6, size: 0x8, addend: 0x0, symName: __RNvXsp_NtCsaNl6UpbT7bw_4core6resultINtB5_6ResultNtNtCsaeTzLhAkejc_12tokio_macros5entry13RuntimeFlavorNtNtCsc29TF2YcYso_3syn5error5ErrorENtNtNtB7_3ops9try_trait3Try6branchBO_, symObjAddr: 0x5524, symBinAddr: 0x6174, symSize: 0x88 }
  - { offset: 0x2324, size: 0x8, addend: 0x0, symName: __RNvXsp_NtCsaNl6UpbT7bw_4core6resultINtB5_6ResultNtNtCsaeTzLhAkejc_12tokio_macros5entry14UnhandledPanicNtNtCsc29TF2YcYso_3syn5error5ErrorENtNtNtB7_3ops9try_trait3Try6branchBO_, symObjAddr: 0x55AC, symBinAddr: 0x61FC, symSize: 0x94 }
  - { offset: 0x23A2, size: 0x8, addend: 0x0, symName: __RNvXsp_NtCsaNl6UpbT7bw_4core6resultINtB5_6ResultNtNtCsaeTzLhAkejc_12tokio_macros5entry6ItemFnNtNtCsc29TF2YcYso_3syn5error5ErrorENtNtNtB7_3ops9try_trait3Try6branchBO_, symObjAddr: 0x5640, symBinAddr: 0x6290, symSize: 0xC0 }
  - { offset: 0x2420, size: 0x8, addend: 0x0, symName: __RNvXsp_NtCsaNl6UpbT7bw_4core6resultINtB5_6ResultNtNtCsiTraAjBDcu4_5alloc6string6StringNtNtCsc29TF2YcYso_3syn5error5ErrorENtNtNtB7_3ops9try_trait3Try6branchCsaeTzLhAkejc_12tokio_macros, symObjAddr: 0x5700, symBinAddr: 0x6350, symSize: 0x94 }
  - { offset: 0x249D, size: 0x8, addend: 0x0, symName: __RNvXsp_NtCsaNl6UpbT7bw_4core6resultINtB5_6ResultRNtCshnvkK9b4wzu_11proc_macro25IdentNtNtCsc29TF2YcYso_3syn5error5ErrorENtNtNtB7_3ops9try_trait3Try6branchCsaeTzLhAkejc_12tokio_macros, symObjAddr: 0x5794, symBinAddr: 0x63E4, symSize: 0x88 }
  - { offset: 0x251B, size: 0x8, addend: 0x0, symName: __RNvXsp_NtCsaNl6UpbT7bw_4core6resultINtB5_6ResultjNtNtCsc29TF2YcYso_3syn5error5ErrorENtNtNtB7_3ops9try_trait3Try6branchCsaeTzLhAkejc_12tokio_macros, symObjAddr: 0x581C, symBinAddr: 0x646C, symSize: 0x88 }
  - { offset: 0x259F, size: 0x8, addend: 0x0, symName: __RNvXsq_NtCsaNl6UpbT7bw_4core6resultINtB5_6ResultINtNtCsc29TF2YcYso_3syn10punctuated10PunctuatedNtNtBP_4attr4MetaNtNtBP_5token5CommaENtNtBP_5error5ErrorEINtNtNtB7_3ops9try_trait12FromResidualIBy_NtNtB7_7convert10InfallibleB26_EE13from_residualCsaeTzLhAkejc_12tokio_macros, symObjAddr: 0x58A4, symBinAddr: 0x64F4, symSize: 0x48 }
  - { offset: 0x2624, size: 0x8, addend: 0x0, symName: __RNvXsq_NtCsaNl6UpbT7bw_4core6resultINtB5_6ResultNtNtCsaeTzLhAkejc_12tokio_macros5entry11FinalConfigNtNtCsc29TF2YcYso_3syn5error5ErrorEINtNtNtB7_3ops9try_trait12FromResidualIBy_NtNtB7_7convert10InfallibleB1z_EE13from_residualBO_, symObjAddr: 0x58EC, symBinAddr: 0x653C, symSize: 0x48 }
  - { offset: 0x26A9, size: 0x8, addend: 0x0, symName: __RNvXsq_NtCsaNl6UpbT7bw_4core6resultINtB5_6ResultNtNtCsaeTzLhAkejc_12tokio_macros5entry6ItemFnNtNtCsc29TF2YcYso_3syn5error5ErrorEINtNtNtB7_3ops9try_trait12FromResidualIBy_NtNtB7_7convert10InfallibleB1t_EE13from_residualBO_, symObjAddr: 0x5934, symBinAddr: 0x6584, symSize: 0x48 }
  - { offset: 0x272E, size: 0x8, addend: 0x0, symName: __RNvXsq_NtCsaNl6UpbT7bw_4core6resultINtB5_6ResultNtNtCsc29TF2YcYso_3syn4path4PathNtNtBO_5error5ErrorEINtNtNtB7_3ops9try_trait12FromResidualIBy_NtNtB7_7convert10InfallibleNtCshnvkK9b4wzu_11proc_macro28LexErrorEE13from_residualCsaeTzLhAkejc_12tokio_macros, symObjAddr: 0x597C, symBinAddr: 0x65CC, symSize: 0x4C }
  - { offset: 0x59EF, size: 0x8, addend: 0x0, symName: __RINvXs2V_NtNtCsaNl6UpbT7bw_4core5slice4iterINtB7_4IterNtNtCsc29TF2YcYso_3syn4attr9AttributeENtNtNtNtBb_4iter6traits8iterator8Iterator4findNCNvNtCsaeTzLhAkejc_12tokio_macros5entry4test0EB2i_, symObjAddr: 0x112C, symBinAddr: 0x1D7C, symSize: 0xAC }
  - { offset: 0x5A54, size: 0x8, addend: 0x0, symName: __RINvXs2V_NtNtCsaNl6UpbT7bw_4core5slice4iterINtB7_4IterNtNtCsc29TF2YcYso_3syn4attr9AttributeENtNtNtNtBb_4iter6traits8iterator8Iterator4findQNCNvNtCsaeTzLhAkejc_12tokio_macros5entry4test0EB2j_, symObjAddr: 0x11D8, symBinAddr: 0x1E28, symSize: 0xB0 }
  - { offset: 0x5AB9, size: 0x8, addend: 0x0, symName: __RNvXs2V_NtNtCsaNl6UpbT7bw_4core5slice4iterINtB6_4IterNtCshnvkK9b4wzu_11proc_macro211TokenStreamENtNtNtNtBa_4iter6traits8iterator8Iterator24___iterator_get_uncheckedCsaeTzLhAkejc_12tokio_macros, symObjAddr: 0x3028, symBinAddr: 0x3C78, symSize: 0x20 }
  - { offset: 0x5B14, size: 0x8, addend: 0x0, symName: __RNvXs2V_NtNtCsaNl6UpbT7bw_4core5slice4iterINtB6_4IterNtCshnvkK9b4wzu_11proc_macro211TokenStreamENtNtNtNtBa_4iter6traits8iterator8Iterator4nextCsaeTzLhAkejc_12tokio_macros, symObjAddr: 0x3048, symBinAddr: 0x3C98, symSize: 0xB0 }
  - { offset: 0x5C4E, size: 0x8, addend: 0x0, symName: __RNvXs2V_NtNtCsaNl6UpbT7bw_4core5slice4iterINtB6_4IterNtCshnvkK9b4wzu_11proc_macro211TokenStreamENtNtNtNtBa_4iter6traits8iterator8Iterator9size_hintCsaeTzLhAkejc_12tokio_macros, symObjAddr: 0x30F8, symBinAddr: 0x3D48, symSize: 0x70 }
  - { offset: 0x5CBD, size: 0x8, addend: 0x0, symName: __RNvXs2V_NtNtCsaNl6UpbT7bw_4core5slice4iterINtB6_4IterNtCshnvkK9b4wzu_11proc_macro25IdentENtNtNtNtBa_4iter6traits8iterator8Iterator4nextCsaeTzLhAkejc_12tokio_macros, symObjAddr: 0x3168, symBinAddr: 0x3DB8, symSize: 0xB0 }
  - { offset: 0x5DF7, size: 0x8, addend: 0x0, symName: __RNvXs2V_NtNtCsaNl6UpbT7bw_4core5slice4iterINtB6_4IterReENtNtNtNtBa_4iter6traits8iterator8Iterator24___iterator_get_uncheckedCsaeTzLhAkejc_12tokio_macros, symObjAddr: 0x3218, symBinAddr: 0x3E68, symSize: 0x20 }
  - { offset: 0x5E52, size: 0x8, addend: 0x0, symName: __RNvXs2V_NtNtCsaNl6UpbT7bw_4core5slice4iterINtB6_4IterReENtNtNtNtBa_4iter6traits8iterator8Iterator9size_hintCsaeTzLhAkejc_12tokio_macros, symObjAddr: 0x3238, symBinAddr: 0x3E88, symSize: 0x70 }
  - { offset: 0x6164, size: 0x8, addend: 0x0, symName: __RNvXs33_NtNtCsaNl6UpbT7bw_4core5slice4iterINtB6_7IterMutTNtNtCsc29TF2YcYso_3syn3pat3PatNtNtBX_5token2OrEENtNtNtNtBa_4iter6traits8iterator8Iterator4nextCsaeTzLhAkejc_12tokio_macros, symObjAddr: 0x32A8, symBinAddr: 0x3EF8, symSize: 0xB0 }
  - { offset: 0x6289, size: 0x8, addend: 0x0, symName: __RNvXs33_NtNtCsaNl6UpbT7bw_4core5slice4iterINtB6_7IterMutTNtNtCsc29TF2YcYso_3syn3pat3PatNtNtBX_5token5CommaEENtNtNtNtBa_4iter6traits8iterator8Iterator4nextCsaeTzLhAkejc_12tokio_macros, symObjAddr: 0x3358, symBinAddr: 0x3FA8, symSize: 0xB0 }
  - { offset: 0x63AE, size: 0x8, addend: 0x0, symName: __RNvXs33_NtNtCsaNl6UpbT7bw_4core5slice4iterINtB6_7IterMutTNtNtCsc29TF2YcYso_3syn3pat8FieldPatNtNtBX_5token5CommaEENtNtNtNtBa_4iter6traits8iterator8Iterator4nextCsaeTzLhAkejc_12tokio_macros, symObjAddr: 0x3408, symBinAddr: 0x4058, symSize: 0xB0 }
  - { offset: 0x64D9, size: 0x8, addend: 0x0, symName: __RNvXs34_NtNtCsaNl6UpbT7bw_4core5slice4iterINtB6_7IterMutTNtNtCsc29TF2YcYso_3syn3pat3PatNtNtBX_5token2OrEENtNtNtNtBa_4iter6traits12double_ended19DoubleEndedIterator9next_backCsaeTzLhAkejc_12tokio_macros, symObjAddr: 0x34B8, symBinAddr: 0x4108, symSize: 0x108 }
  - { offset: 0x6635, size: 0x8, addend: 0x0, symName: __RNvXs34_NtNtCsaNl6UpbT7bw_4core5slice4iterINtB6_7IterMutTNtNtCsc29TF2YcYso_3syn3pat3PatNtNtBX_5token5CommaEENtNtNtNtBa_4iter6traits12double_ended19DoubleEndedIterator9next_backCsaeTzLhAkejc_12tokio_macros, symObjAddr: 0x35C0, symBinAddr: 0x4210, symSize: 0x108 }
  - { offset: 0x6791, size: 0x8, addend: 0x0, symName: __RNvXs34_NtNtCsaNl6UpbT7bw_4core5slice4iterINtB6_7IterMutTNtNtCsc29TF2YcYso_3syn3pat8FieldPatNtNtBX_5token5CommaEENtNtNtNtBa_4iter6traits12double_ended19DoubleEndedIterator9next_backCsaeTzLhAkejc_12tokio_macros, symObjAddr: 0x36C8, symBinAddr: 0x4318, symSize: 0x108 }
  - { offset: 0x6942, size: 0x8, addend: 0x0, symName: __RNvMNtCsaNl6UpbT7bw_4core5sliceSh15copy_from_sliceCsaeTzLhAkejc_12tokio_macros, symObjAddr: 0x2604, symBinAddr: 0x3254, symSize: 0xAC }
  - { offset: 0x7157, size: 0x8, addend: 0x0, symName: __RNCINvMNtNtCsaNl6UpbT7bw_4core3ops9try_traitINtB5_17NeverShortCircuituE10wrap_mut_2uNtCshnvkK9b4wzu_11proc_macro29TokenTreeNCINvNvNtNtNtNtB9_4iter6traits8iterator8Iterator8for_each4callB1k_NCINvXsa_NtB1m_8fallbackNtB3a_11TokenStreamINtNtB28_7collect6ExtendB1k_E6extendAB1k_j1_E0E0E0CsaeTzLhAkejc_12tokio_macros, symObjAddr: 0x1D2C, symBinAddr: 0x297C, symSize: 0x3C }
  - { offset: 0x736F, size: 0x8, addend: 0x0, symName: __RINvNtNtNtCsaNl6UpbT7bw_4core4iter8adapters5chain17and_then_or_clearINtNtNtB8_5slice4iter4IterNtNtCsc29TF2YcYso_3syn4attr9AttributeERB1u_NCINvXs_B2_INtB2_5ChainB14_B14_ENtNtNtB6_6traits8iterator8Iterator4findNCNvNtCsaeTzLhAkejc_12tokio_macros5entry4test0E0EB3q_, symObjAddr: 0xC10, symBinAddr: 0x1860, symSize: 0xD0 }
  - { offset: 0x74B4, size: 0x8, addend: 0x0, symName: __RINvXs_NtNtNtCsaNl6UpbT7bw_4core4iter8adapters5chainINtB5_5ChainINtNtNtBb_5slice4iter4IterNtNtCsc29TF2YcYso_3syn4attr9AttributeEB10_ENtNtNtB9_6traits8iterator8Iterator4findNCNvNtCsaeTzLhAkejc_12tokio_macros5entry4test0EB2Q_, symObjAddr: 0x17B4, symBinAddr: 0x2404, symSize: 0x80 }
  - { offset: 0x750E, size: 0x8, addend: 0x0, symName: __RNCINvXs_NtNtNtCsaNl6UpbT7bw_4core4iter8adapters5chainINtB7_5ChainINtNtNtBd_5slice4iter4IterNtNtCsc29TF2YcYso_3syn4attr9AttributeEB12_ENtNtNtBb_6traits8iterator8Iterator4findNCNvNtCsaeTzLhAkejc_12tokio_macros5entry4test0E0B2S_, symObjAddr: 0x2490, symBinAddr: 0x30E0, symSize: 0x38 }
  - { offset: 0x7565, size: 0x8, addend: 0x0, symName: __RNCINvXs_NtNtNtCsaNl6UpbT7bw_4core4iter8adapters5chainINtB7_5ChainINtNtNtBd_5slice4iter4IterNtNtCsc29TF2YcYso_3syn4attr9AttributeEB12_ENtNtNtBb_6traits8iterator8Iterator4findNCNvNtCsaeTzLhAkejc_12tokio_macros5entry4test0Es_0B2S_, symObjAddr: 0x24C8, symBinAddr: 0x3118, symSize: 0x80 }
  - { offset: 0x76CE, size: 0x8, addend: 0x0, symName: __RINvXs0_NtNtNtCsaNl6UpbT7bw_4core4iter8adapters3mapINtB6_3MapIBO_IBO_INtNtB8_3zip3ZipINtNtNtBc_5slice4iter4IterNtCshnvkK9b4wzu_11proc_macro211TokenStreamEIB1m_ReEENCNvNtCsaeTzLhAkejc_12tokio_macros5entry11parse_knobss1_0ENCINvXs7_B1N_B1L_INtNtNtBa_6traits7collect12FromIteratorB1L_E9from_iterB11_E0ENCINvXs6_NtB1N_3impNtB4W_11TokenStreamIB3P_B56_E9from_iterBX_E0ENtNtB3T_8iterator8Iterator4folduNCINvNvB5P_8for_each4callNtCs7yrEGia95Wz_10proc_macro11TokenStreamNCINvXsj_B6M_B6K_INtB3R_6ExtendB6K_E6extendBN_E0E0EB2H_, symObjAddr: 0xFC0, symBinAddr: 0x1C10, symSize: 0x4C }
  - { offset: 0x7740, size: 0x8, addend: 0x0, symName: __RINvXs0_NtNtNtCsaNl6UpbT7bw_4core4iter8adapters3mapINtB6_3MapIBO_INtNtB8_3zip3ZipINtNtNtBc_5slice4iter4IterNtCshnvkK9b4wzu_11proc_macro211TokenStreamEIB1i_ReEENCNvNtCsaeTzLhAkejc_12tokio_macros5entry11parse_knobss1_0ENCINvXs7_B1J_B1H_INtNtNtBa_6traits7collect12FromIteratorB1H_E9from_iterBX_E0ENtNtB3P_8iterator8Iterator4folduNCINvB6_8map_foldNtNtB1J_3imp11TokenStreamNtCs7yrEGia95Wz_10proc_macro11TokenStreamuNCINvXs6_B5x_B5v_IB3L_B5v_E9from_iterBN_E0NCINvNvB4I_8for_each4callB5U_NCINvXsj_B5W_B5U_INtB3N_6ExtendB5U_E6extendIBO_BN_B6A_EE0E0E0EB2D_, symObjAddr: 0x100C, symBinAddr: 0x1C5C, symSize: 0x4C }
  - { offset: 0x77B2, size: 0x8, addend: 0x0, symName: __RINvXs0_NtNtNtCsaNl6UpbT7bw_4core4iter8adapters3mapINtB6_3MapINtNtB8_3zip3ZipINtNtNtBc_5slice4iter4IterNtCshnvkK9b4wzu_11proc_macro211TokenStreamEIB1e_ReEENCNvNtCsaeTzLhAkejc_12tokio_macros5entry11parse_knobss1_0ENtNtNtBa_6traits8iterator8Iterator4folduNCINvB6_8map_foldB1D_NtNtB1F_3imp11TokenStreamuNCINvXs7_B1F_B1D_INtNtB3t_7collect12FromIteratorB1D_E9from_iterBN_E0NCIB46_B4o_NtCs7yrEGia95Wz_10proc_macro11TokenStreamuNCINvXs6_B4q_B4o_IB56_B4o_E9from_iterIBO_BN_B4O_EE0NCINvNvB3p_8for_each4callB65_NCINvXsj_B67_B65_INtB58_6ExtendB65_E6extendIBO_B7m_B6L_EE0E0E0E0EB2z_, symObjAddr: 0x1058, symBinAddr: 0x1CA8, symSize: 0x4C }
  - { offset: 0x7824, size: 0x8, addend: 0x0, symName: __RINvXs0_NtNtNtCsaNl6UpbT7bw_4core4iter8adapters3mapINtB6_3MapINtNtNtBc_3ops5range5RangejENCNvNtCsaeTzLhAkejc_12tokio_macros6select19declare_output_enum0ENtNtNtBa_6traits8iterator8Iterator4folduNCINvNvB2r_8for_each4callNtCshnvkK9b4wzu_11proc_macro25IdentNCINvMsi_NtCsiTraAjBDcu4_5alloc3vecINtB4c_3VecB3u_E14extend_trustedBN_E0E0EB1v_, symObjAddr: 0x10A4, symBinAddr: 0x1CF4, symSize: 0x3C }
  - { offset: 0x78BC, size: 0x8, addend: 0x0, symName: __RINvXs0_NtNtNtCsaNl6UpbT7bw_4core4iter8adapters3mapINtB6_3MapINtNtNtCsiTraAjBDcu4_5alloc3vec9into_iter8IntoIterTNtNtCsc29TF2YcYso_3syn4attr4MetaNtNtB1Q_5token5CommaEENCNvXs8_NtB1Q_10punctuatedINtB2M_10PunctuatedB1M_B2i_ENtNtNtBa_6traits7collect12IntoIterator9into_iter0ENtNtB3A_8iterator8Iterator4folduNCINvNvB4k_8for_each4callB1M_NCINvMsi_B12_INtB12_3VecB1M_E14extend_trustedBN_E0E0ECsaeTzLhAkejc_12tokio_macros, symObjAddr: 0x10E0, symBinAddr: 0x1D30, symSize: 0x4C }
  - { offset: 0x7955, size: 0x8, addend: 0x0, symName: __RNvXs0_NtNtNtCsaNl6UpbT7bw_4core4iter8adapters3mapINtB5_3MapIBN_IBN_INtNtB7_3zip3ZipINtNtNtBb_5slice4iter4IterNtCshnvkK9b4wzu_11proc_macro211TokenStreamEIB1l_ReEENCNvNtCsaeTzLhAkejc_12tokio_macros5entry11parse_knobss1_0ENCINvXs7_B1M_B1K_INtNtNtB9_6traits7collect12FromIteratorB1K_E9from_iterB10_E0ENCINvXs6_NtB1M_3impNtB4V_11TokenStreamIB3O_B55_E9from_iterBW_E0ENtNtB3S_8iterator8Iterator9size_hintB2G_, symObjAddr: 0x2CA0, symBinAddr: 0x38F0, symSize: 0x24 }
  - { offset: 0x799C, size: 0x8, addend: 0x0, symName: __RNvXs0_NtNtNtCsaNl6UpbT7bw_4core4iter8adapters3mapINtB5_3MapIBN_IBN_INtNtB7_3zip3ZipINtNtNtBb_5slice4iter4IterNtCshnvkK9b4wzu_11proc_macro211TokenStreamEIB1l_ReEENCNvNtCsaeTzLhAkejc_12tokio_macros5entry11parse_knobss1_0ENCINvXs7_B1M_B1K_INtNtNtB9_6traits7collect12FromIteratorB1K_E9from_iterB10_E0ENCINvXs6_NtB1M_3impNtB4V_11TokenStreamIB3O_B55_E9from_iterBW_Es_0ENtNtB3S_8iterator8Iterator4nextB2G_, symObjAddr: 0x2CC4, symBinAddr: 0x3914, symSize: 0x90 }
  - { offset: 0x7A34, size: 0x8, addend: 0x0, symName: __RNvXs0_NtNtNtCsaNl6UpbT7bw_4core4iter8adapters3mapINtB5_3MapIBN_IBN_INtNtB7_3zip3ZipINtNtNtBb_5slice4iter4IterNtCshnvkK9b4wzu_11proc_macro211TokenStreamEIB1l_ReEENCNvNtCsaeTzLhAkejc_12tokio_macros5entry11parse_knobss1_0ENCINvXs7_B1M_B1K_INtNtNtB9_6traits7collect12FromIteratorB1K_E9from_iterB10_E0ENCINvXs6_NtB1M_3impNtB4V_11TokenStreamIB3O_B55_E9from_iterBW_Es_0ENtNtB3S_8iterator8Iterator9size_hintB2G_, symObjAddr: 0x2D54, symBinAddr: 0x39A4, symSize: 0x24 }
  - { offset: 0x7A7B, size: 0x8, addend: 0x0, symName: __RNvXs0_NtNtNtCsaNl6UpbT7bw_4core4iter8adapters3mapINtB5_3MapIBN_INtNtB7_3zip3ZipINtNtNtBb_5slice4iter4IterNtCshnvkK9b4wzu_11proc_macro211TokenStreamEIB1h_ReEENCNvNtCsaeTzLhAkejc_12tokio_macros5entry11parse_knobss1_0ENCINvXs7_B1I_B1G_INtNtNtB9_6traits7collect12FromIteratorB1G_E9from_iterBW_E0ENtNtB3O_8iterator8Iterator4nextB2C_, symObjAddr: 0x2D78, symBinAddr: 0x39C8, symSize: 0xAC }
  - { offset: 0x7B13, size: 0x8, addend: 0x0, symName: __RNvXs0_NtNtNtCsaNl6UpbT7bw_4core4iter8adapters3mapINtB5_3MapIBN_INtNtB7_3zip3ZipINtNtNtBb_5slice4iter4IterNtCshnvkK9b4wzu_11proc_macro211TokenStreamEIB1h_ReEENCNvNtCsaeTzLhAkejc_12tokio_macros5entry11parse_knobss1_0ENCINvXs7_B1I_B1G_INtNtNtB9_6traits7collect12FromIteratorB1G_E9from_iterBW_E0ENtNtB3O_8iterator8Iterator9size_hintB2C_, symObjAddr: 0x2E24, symBinAddr: 0x3A74, symSize: 0x24 }
  - { offset: 0x7B5A, size: 0x8, addend: 0x0, symName: __RNvXs0_NtNtNtCsaNl6UpbT7bw_4core4iter8adapters3mapINtB5_3MapINtNtB7_3zip3ZipINtNtNtBb_5slice4iter4IterNtCshnvkK9b4wzu_11proc_macro211TokenStreamEIB1d_ReEENCNvNtCsaeTzLhAkejc_12tokio_macros5entry11parse_knobss1_0ENtNtNtB9_6traits8iterator8Iterator4nextB2y_, symObjAddr: 0x2E48, symBinAddr: 0x3A98, symSize: 0xA4 }
  - { offset: 0x7BF2, size: 0x8, addend: 0x0, symName: __RNvXs0_NtNtNtCsaNl6UpbT7bw_4core4iter8adapters3mapINtB5_3MapINtNtB7_3zip3ZipINtNtNtBb_5slice4iter4IterNtCshnvkK9b4wzu_11proc_macro211TokenStreamEIB1d_ReEENCNvNtCsaeTzLhAkejc_12tokio_macros5entry11parse_knobss1_0ENtNtNtB9_6traits8iterator8Iterator9size_hintB2y_, symObjAddr: 0x2EEC, symBinAddr: 0x3B3C, symSize: 0x24 }
  - { offset: 0x7C39, size: 0x8, addend: 0x0, symName: __RNvXs0_NtNtNtCsaNl6UpbT7bw_4core4iter8adapters3mapINtB5_3MapINtNtNtBb_3ops5range5RangejENCNvNtCsaeTzLhAkejc_12tokio_macros6select19declare_output_enum0ENtNtNtB9_6traits8iterator8Iterator9size_hintB1u_, symObjAddr: 0x2F10, symBinAddr: 0x3B60, symSize: 0x24 }
  - { offset: 0x7C80, size: 0x8, addend: 0x0, symName: __RNvXs0_NtNtNtCsaNl6UpbT7bw_4core4iter8adapters3mapINtB5_3MapINtNtNtCsiTraAjBDcu4_5alloc3vec9into_iter8IntoIterTNtNtCsc29TF2YcYso_3syn4attr4MetaNtNtB1P_5token5CommaEENCNvXs8_NtB1P_10punctuatedINtB2L_10PunctuatedB1L_B2h_ENtNtNtB9_6traits7collect12IntoIterator9into_iter0ENtNtB3z_8iterator8Iterator9size_hintCsaeTzLhAkejc_12tokio_macros, symObjAddr: 0x2F34, symBinAddr: 0x3B84, symSize: 0x24 }
  - { offset: 0x7D5D, size: 0x8, addend: 0x0, symName: __RNCINvNtNtNtCsaNl6UpbT7bw_4core4iter8adapters3map8map_foldNtCshnvkK9b4wzu_11proc_macro211TokenStreamNtNtBW_3imp11TokenStreamuNCINvXs7_BW_BU_INtNtNtB8_6traits7collect12FromIteratorBU_E9from_iterINtB4_3MapINtNtB6_3zip3ZipINtNtNtBa_5slice4iter4IterBU_EIB3w_ReEENCNvNtCsaeTzLhAkejc_12tokio_macros5entry11parse_knobss1_0EE0NCIB2_B1A_NtCs7yrEGia95Wz_10proc_macro11TokenStreamuNCINvXs6_B1C_B1A_IB2f_B1A_E9from_iterIB36_B35_B1Z_EE0NCINvNvNtNtB2j_8iterator8Iterator8for_each4callB5g_NCINvXsj_B5i_B5g_INtB2h_6ExtendB5g_E6extendIB36_B6x_B5W_EE0E0E0E0B4e_, symObjAddr: 0x1D68, symBinAddr: 0x29B8, symSize: 0x9C }
  - { offset: 0x7DE3, size: 0x8, addend: 0x0, symName: __RNCINvNtNtNtCsaNl6UpbT7bw_4core4iter8adapters3map8map_foldNtNtCshnvkK9b4wzu_11proc_macro23imp11TokenStreamNtCs7yrEGia95Wz_10proc_macro11TokenStreamuNCINvXs6_BW_BU_INtNtNtB8_6traits7collect12FromIteratorBU_E9from_iterINtB4_3MapIB3t_INtNtB6_3zip3ZipINtNtNtBa_5slice4iter4IterNtBY_11TokenStreamEIB3Y_ReEENCNvNtCsaeTzLhAkejc_12tokio_macros5entry11parse_knobss1_0ENCINvXs7_BY_B4n_IB2C_B4n_E9from_iterB3C_E0EE0NCINvNvNtNtB2G_8iterator8Iterator8for_each4callB1G_NCINvXsj_B1I_B1G_INtB2E_6ExtendB1G_E6extendIB3t_B3s_B2m_EE0E0E0B4V_, symObjAddr: 0x1E04, symBinAddr: 0x2A54, symSize: 0x8C }
  - { offset: 0x7E69, size: 0x8, addend: 0x0, symName: __RNCINvNtNtNtCsaNl6UpbT7bw_4core4iter8adapters3map8map_foldTNtNtCsc29TF2YcYso_3syn4attr4MetaNtNtBZ_5token5CommaEBV_uNCNvXs8_NtBZ_10punctuatedINtB1X_10PunctuatedBV_B1r_ENtNtNtB8_6traits7collect12IntoIterator9into_iter0NCINvNvNtNtB2J_8iterator8Iterator8for_each4callBV_NCINvMsi_NtCsiTraAjBDcu4_5alloc3vecINtB4p_3VecBV_E14extend_trustedINtB4_3MapINtNtB4p_9into_iter8IntoIterBU_EB1P_EE0E0E0CsaeTzLhAkejc_12tokio_macros, symObjAddr: 0x1E90, symBinAddr: 0x2AE0, symSize: 0xB0 }
  - { offset: 0x7EEF, size: 0x8, addend: 0x0, symName: __RNCINvNtNtNtCsaNl6UpbT7bw_4core4iter8adapters3map8map_foldTRNtCshnvkK9b4wzu_11proc_macro211TokenStreamRReEBW_uNCNvNtCsaeTzLhAkejc_12tokio_macros5entry11parse_knobss1_0NCIB2_BW_NtNtBY_3imp11TokenStreamuNCINvXs7_BY_BW_INtNtNtB8_6traits7collect12FromIteratorBW_E9from_iterINtB4_3MapINtNtB6_3zip3ZipINtNtNtBa_5slice4iter4IterBW_EIB4K_B1D_EEB1K_EE0NCIB2_B2O_NtCs7yrEGia95Wz_10proc_macro11TokenStreamuNCINvXs6_B2Q_B2O_IB3t_B2O_E9from_iterIB4k_B4j_B3d_EE0NCINvNvNtNtB3x_8iterator8Iterator8for_each4callB5F_NCINvXsj_B5H_B5F_INtB3v_6ExtendB5F_E6extendIB4k_B6W_B6l_EE0E0E0E0E0B1Q_, symObjAddr: 0x1F40, symBinAddr: 0x2B90, symSize: 0x94 }
  - { offset: 0x7F74, size: 0x8, addend: 0x0, symName: __RNCINvNtNtNtCsaNl6UpbT7bw_4core4iter8adapters3map8map_foldjNtCshnvkK9b4wzu_11proc_macro25IdentuNCNvNtCsaeTzLhAkejc_12tokio_macros6select19declare_output_enum0NCINvNvNtNtNtB8_6traits8iterator8Iterator8for_each4callBV_NCINvMsi_NtCsiTraAjBDcu4_5alloc3vecINtB3B_3VecBV_E14extend_trustedINtB4_3MapINtNtNtBa_3ops5range5RangejEB1v_EE0E0E0B1B_, symObjAddr: 0x1FD4, symBinAddr: 0x2C24, symSize: 0x88 }
  - { offset: 0x82CE, size: 0x8, addend: 0x0, symName: __RNvYINtNtNtCsaNl6UpbT7bw_4core5slice4iter4IterNtCshnvkK9b4wzu_11proc_macro211TokenStreamENtNtNtNtB9_4iter8adapters3zip27TrustedRandomAccessNoCoerce4sizeCsaeTzLhAkejc_12tokio_macros, symObjAddr: 0x5A60, symBinAddr: 0x66B0, symSize: 0x2C }
  - { offset: 0x8305, size: 0x8, addend: 0x0, symName: __RNvYINtNtNtCsaNl6UpbT7bw_4core5slice4iter4IterReENtNtNtNtB9_4iter8adapters3zip27TrustedRandomAccessNoCoerce4sizeCsaeTzLhAkejc_12tokio_macros, symObjAddr: 0x5AB8, symBinAddr: 0x6708, symSize: 0x2C }
  - { offset: 0x8348, size: 0x8, addend: 0x0, symName: __RNvXs9_NtNtNtCsaNl6UpbT7bw_4core4iter8adapters4fuseINtB5_4FuseINtNtB7_3map3MapIBZ_IBZ_INtNtB7_3zip3ZipINtNtNtBb_5slice4iter4IterNtCshnvkK9b4wzu_11proc_macro211TokenStreamEIB1D_ReEENCNvNtCsaeTzLhAkejc_12tokio_macros5entry11parse_knobss1_0ENCINvXs7_B24_B22_INtNtNtB9_6traits7collect12FromIteratorB22_E9from_iterB1i_E0ENCINvXs6_NtB24_3impNtB5d_11TokenStreamIB46_B5n_E9from_iterB1e_Es_0EEINtB5_8FuseImplBY_E4nextB2Y_, symObjAddr: 0x37D0, symBinAddr: 0x4420, symSize: 0x80 }
  - { offset: 0x84C7, size: 0x8, addend: 0x0, symName: __RNvXs9_NtNtNtCsaNl6UpbT7bw_4core4iter8adapters7flattenINtB5_7FlattenINtNtB7_3map3MapIB15_IB15_INtNtB7_3zip3ZipINtNtNtBb_5slice4iter4IterNtCshnvkK9b4wzu_11proc_macro211TokenStreamEIB1L_ReEENCNvNtCsaeTzLhAkejc_12tokio_macros5entry11parse_knobss1_0ENCINvXs7_B2c_B2a_INtNtNtB9_6traits7collect12FromIteratorB2a_E9from_iterB1p_E0ENCINvXs6_NtB2c_3impNtB5l_11TokenStreamIB4e_B5v_E9from_iterB1k_Es_0EENtNtB4i_8iterator8Iterator4nextB36_, symObjAddr: 0x3850, symBinAddr: 0x44A0, symSize: 0x24 }
  - { offset: 0x8505, size: 0x8, addend: 0x0, symName: __RNvXs9_NtNtNtCsaNl6UpbT7bw_4core4iter8adapters7flattenINtB5_7FlattenINtNtB7_3map3MapIB15_IB15_INtNtB7_3zip3ZipINtNtNtBb_5slice4iter4IterNtCshnvkK9b4wzu_11proc_macro211TokenStreamEIB1L_ReEENCNvNtCsaeTzLhAkejc_12tokio_macros5entry11parse_knobss1_0ENCINvXs7_B2c_B2a_INtNtNtB9_6traits7collect12FromIteratorB2a_E9from_iterB1p_E0ENCINvXs6_NtB2c_3impNtB5l_11TokenStreamIB4e_B5v_E9from_iterB1k_Es_0EENtNtB4i_8iterator8Iterator9size_hintB36_, symObjAddr: 0x3874, symBinAddr: 0x44C4, symSize: 0x24 }
  - { offset: 0x8549, size: 0x8, addend: 0x0, symName: __RNvXsi_NtNtNtCsaNl6UpbT7bw_4core4iter8adapters7flattenINtB5_13FlattenCompatINtNtB7_3map3MapIB1c_IB1c_INtNtB7_3zip3ZipINtNtNtBb_5slice4iter4IterNtCshnvkK9b4wzu_11proc_macro211TokenStreamEIB1S_ReEENCNvNtCsaeTzLhAkejc_12tokio_macros5entry11parse_knobss1_0ENCINvXs7_B2j_B2h_INtNtNtB9_6traits7collect12FromIteratorB2h_E9from_iterB1w_E0ENCINvXs6_NtB2j_3impNtB5s_11TokenStreamIB4l_B5C_E9from_iterB1r_Es_0EINtNtB2j_5rcvec13RcVecIntoIterNtB2j_9TokenTreeEENtNtB4p_8iterator8Iterator4nextB3d_, symObjAddr: 0x4768, symBinAddr: 0x53B8, symSize: 0x128 }
  - { offset: 0x85DB, size: 0x8, addend: 0x0, symName: __RNvXsi_NtNtNtCsaNl6UpbT7bw_4core4iter8adapters7flattenINtB5_13FlattenCompatINtNtB7_3map3MapIB1c_IB1c_INtNtB7_3zip3ZipINtNtNtBb_5slice4iter4IterNtCshnvkK9b4wzu_11proc_macro211TokenStreamEIB1S_ReEENCNvNtCsaeTzLhAkejc_12tokio_macros5entry11parse_knobss1_0ENCINvXs7_B2j_B2h_INtNtNtB9_6traits7collect12FromIteratorB2h_E9from_iterB1w_E0ENCINvXs6_NtB2j_3impNtB5s_11TokenStreamIB4l_B5C_E9from_iterB1r_Es_0EINtNtB2j_5rcvec13RcVecIntoIterNtB2j_9TokenTreeEENtNtB4p_8iterator8Iterator9size_hintB3d_, symObjAddr: 0x4890, symBinAddr: 0x54E0, symSize: 0x768 }
  - { offset: 0x8DE7, size: 0x8, addend: 0x0, symName: __RNCINvNvNtNtNtNtCsaNl6UpbT7bw_4core4iter6traits8iterator8Iterator8for_each4callNtCs7yrEGia95Wz_10proc_macro11TokenStreamNCINvXsj_B1h_B1f_INtNtBa_7collect6ExtendB1f_E6extendINtNtNtBc_8adapters3map3MapIB2L_IB2L_INtNtB2P_3zip3ZipINtNtNtBe_5slice4iter4IterNtCshnvkK9b4wzu_11proc_macro211TokenStreamEIB3D_ReEENCNvNtCsaeTzLhAkejc_12tokio_macros5entry11parse_knobss1_0ENCINvXs7_B44_B42_INtB2e_12FromIteratorB42_E9from_iterB3g_E0ENCINvXs6_NtB44_3impNtB6V_11TokenStreamIB66_B75_E9from_iterB3b_E0EE0E0B4Y_, symObjAddr: 0x2120, symBinAddr: 0x2D70, symSize: 0x28 }
  - { offset: 0x8E3F, size: 0x8, addend: 0x0, symName: __RNCINvNvNtNtNtNtCsaNl6UpbT7bw_4core4iter6traits8iterator8Iterator8for_each4callNtCshnvkK9b4wzu_11proc_macro25IdentNCINvMsi_NtCsiTraAjBDcu4_5alloc3vecINtB1X_3VecB1f_E14extend_trustedINtNtNtBc_8adapters3map3MapINtNtNtBe_3ops5range5RangejENCNvNtCsaeTzLhAkejc_12tokio_macros6select19declare_output_enum0EE0E0B3S_, symObjAddr: 0x2148, symBinAddr: 0x2D98, symSize: 0x3C }
  - { offset: 0x8E98, size: 0x8, addend: 0x0, symName: __RNCINvNvNtNtNtNtCsaNl6UpbT7bw_4core4iter6traits8iterator8Iterator8for_each4callNtCshnvkK9b4wzu_11proc_macro29TokenTreeNCINvXsa_NtB1h_8fallbackNtB21_11TokenStreamINtNtBa_7collect6ExtendB1f_E6extendAB1f_j1_E0E0CsaeTzLhAkejc_12tokio_macros, symObjAddr: 0x2184, symBinAddr: 0x2DD4, symSize: 0x3C }
  - { offset: 0x8EF1, size: 0x8, addend: 0x0, symName: __RNCINvNvNtNtNtNtCsaNl6UpbT7bw_4core4iter6traits8iterator8Iterator8for_each4callNtCshnvkK9b4wzu_11proc_macro29TokenTreeNCINvXsa_NtB1h_8fallbackNtB21_11TokenStreamINtNtBa_7collect6ExtendB1f_E6extendNtB1h_11TokenStreamE0E0CsaeTzLhAkejc_12tokio_macros, symObjAddr: 0x21C0, symBinAddr: 0x2E10, symSize: 0x3C }
  - { offset: 0x8F4A, size: 0x8, addend: 0x0, symName: __RNCINvNvNtNtNtNtCsaNl6UpbT7bw_4core4iter6traits8iterator8Iterator8for_each4callNtNtCsc29TF2YcYso_3syn4attr4MetaNCINvMsi_NtCsiTraAjBDcu4_5alloc3vecINtB1U_3VecB1f_E14extend_trustedINtNtBe_6option8IntoIterB1f_EE0E0CsaeTzLhAkejc_12tokio_macros, symObjAddr: 0x21FC, symBinAddr: 0x2E4C, symSize: 0x48 }
  - { offset: 0x8FA3, size: 0x8, addend: 0x0, symName: __RNCINvNvNtNtNtNtCsaNl6UpbT7bw_4core4iter6traits8iterator8Iterator8for_each4callNtNtCsc29TF2YcYso_3syn4attr4MetaNCINvMsi_NtCsiTraAjBDcu4_5alloc3vecINtB1U_3VecB1f_E14extend_trustedINtNtNtBc_8adapters3map3MapINtNtB1U_9into_iter8IntoIterTB1f_NtNtB1j_5token5CommaEENCNvXs8_NtB1j_10punctuatedINtB4i_10PunctuatedB1f_B3O_ENtNtBa_7collect12IntoIterator9into_iter0EE0E0CsaeTzLhAkejc_12tokio_macros, symObjAddr: 0x2244, symBinAddr: 0x2E94, symSize: 0x48 }
  - { offset: 0x9084, size: 0x8, addend: 0x0, symName: __RINvYINtNtNtCsaNl6UpbT7bw_4core5slice4iter4IterNtCshnvkK9b4wzu_11proc_macro211TokenStreamENtNtNtNtBa_4iter6traits8iterator8Iterator3zipRINtNtCsiTraAjBDcu4_5alloc3vec3VecReEECsaeTzLhAkejc_12tokio_macros, symObjAddr: 0x1944, symBinAddr: 0x2594, symSize: 0xBC }
  - { offset: 0x90F9, size: 0x8, addend: 0x0, symName: __RINvYINtNtNtCsaNl6UpbT7bw_4core5slice4iter4IterNtNtCsc29TF2YcYso_3syn4attr9AttributeENtNtNtNtBa_4iter6traits8iterator8Iterator5chainB3_ECsaeTzLhAkejc_12tokio_macros, symObjAddr: 0x1A00, symBinAddr: 0x2650, symSize: 0xD8 }
  - { offset: 0x916F, size: 0x8, addend: 0x0, symName: __RINvYINtNtNtNtCsaNl6UpbT7bw_4core4iter8adapters3map3MapIB4_IB4_INtNtB8_3zip3ZipINtNtNtBc_5slice4iter4IterNtCshnvkK9b4wzu_11proc_macro211TokenStreamEIB1g_ReEENCNvNtCsaeTzLhAkejc_12tokio_macros5entry11parse_knobss1_0ENCINvXs7_B1H_B1F_INtNtNtBa_6traits7collect12FromIteratorB1F_E9from_iterBV_E0ENCINvXs6_NtB1H_3impNtB4P_11TokenStreamIB3J_B4Z_E9from_iterBR_E0ENtNtB3N_8iterator8Iterator8for_eachNCINvXsj_Cs7yrEGia95Wz_10proc_macroNtB6q_11TokenStreamINtB3L_6ExtendB6Q_E6extendB3_E0EB2B_, symObjAddr: 0x1AD8, symBinAddr: 0x2728, symSize: 0x24 }
  - { offset: 0x91BB, size: 0x8, addend: 0x0, symName: __RINvYINtNtNtNtCsaNl6UpbT7bw_4core4iter8adapters3map3MapIB4_INtNtB8_3zip3ZipINtNtNtBc_5slice4iter4IterNtCshnvkK9b4wzu_11proc_macro211TokenStreamEIB1c_ReEENCNvNtCsaeTzLhAkejc_12tokio_macros5entry11parse_knobss1_0ENCINvXs7_B1D_B1B_INtNtNtBa_6traits7collect12FromIteratorB1B_E9from_iterBR_E0ENtNtB3J_8iterator8Iterator3mapNtCs7yrEGia95Wz_10proc_macro11TokenStreamNCINvXs6_NtB1D_3impNtB5U_11TokenStreamIB3F_B64_E9from_iterB3_E0EB2x_, symObjAddr: 0x1AFC, symBinAddr: 0x274C, symSize: 0x30 }
  - { offset: 0x9229, size: 0x8, addend: 0x0, symName: __RINvYINtNtNtNtCsaNl6UpbT7bw_4core4iter8adapters3map3MapIB4_INtNtB8_3zip3ZipINtNtNtBc_5slice4iter4IterNtCshnvkK9b4wzu_11proc_macro211TokenStreamEIB1c_ReEENCNvNtCsaeTzLhAkejc_12tokio_macros5entry11parse_knobss1_0ENCINvXs7_B1D_B1B_INtNtNtBa_6traits7collect12FromIteratorB1B_E9from_iterBR_E0ENtNtB3J_8iterator8Iterator3mapNtNtB1D_8fallback11TokenStreamNCINvXs6_NtB1D_3impNtB5J_11TokenStreamIB3F_B5T_E9from_iterB3_Es_0EB2x_, symObjAddr: 0x1B2C, symBinAddr: 0x277C, symSize: 0x30 }
  - { offset: 0x9297, size: 0x8, addend: 0x0, symName: __RINvYINtNtNtNtCsaNl6UpbT7bw_4core4iter8adapters3map3MapIB4_INtNtB8_3zip3ZipINtNtNtBc_5slice4iter4IterNtCshnvkK9b4wzu_11proc_macro211TokenStreamEIB1c_ReEENCNvNtCsaeTzLhAkejc_12tokio_macros5entry11parse_knobss1_0ENCINvXs7_B1D_B1B_INtNtNtBa_6traits7collect12FromIteratorB1B_E9from_iterBR_E0ENtNtB3J_8iterator8Iterator7collectNtNtB1D_3imp11TokenStreamEB2x_, symObjAddr: 0x1B5C, symBinAddr: 0x27AC, symSize: 0x6C }
  - { offset: 0x932D, size: 0x8, addend: 0x0, symName: __RINvYINtNtNtNtCsaNl6UpbT7bw_4core4iter8adapters3map3MapINtNtB8_3zip3ZipINtNtNtBc_5slice4iter4IterNtCshnvkK9b4wzu_11proc_macro211TokenStreamEIB18_ReEENCNvNtCsaeTzLhAkejc_12tokio_macros5entry11parse_knobss1_0ENtNtNtBa_6traits8iterator8Iterator3mapNtNtB1z_3imp11TokenStreamNCINvXs7_B1z_B1x_INtNtB3n_7collect12FromIteratorB1x_E9from_iterB3_E0EB2t_, symObjAddr: 0x1BC8, symBinAddr: 0x2818, symSize: 0x30 }
  - { offset: 0x939B, size: 0x8, addend: 0x0, symName: __RINvYINtNtNtNtCsaNl6UpbT7bw_4core4iter8adapters3map3MapINtNtB8_3zip3ZipINtNtNtBc_5slice4iter4IterNtCshnvkK9b4wzu_11proc_macro211TokenStreamEIB18_ReEENCNvNtCsaeTzLhAkejc_12tokio_macros5entry11parse_knobss1_0ENtNtNtBa_6traits8iterator8Iterator7collectB1x_EB2t_, symObjAddr: 0x1BF8, symBinAddr: 0x2848, symSize: 0x6C }
  - { offset: 0x9431, size: 0x8, addend: 0x0, symName: __RINvYINtNtNtNtCsaNl6UpbT7bw_4core4iter8adapters3map3MapINtNtNtBc_3ops5range5RangejENCNvNtCsaeTzLhAkejc_12tokio_macros6select19declare_output_enum0ENtNtNtBa_6traits8iterator8Iterator7collectINtNtCsiTraAjBDcu4_5alloc3vec3VecNtCshnvkK9b4wzu_11proc_macro25IdentEEB1p_, symObjAddr: 0x1C64, symBinAddr: 0x28B4, symSize: 0x58 }
  - { offset: 0x94C6, size: 0x8, addend: 0x0, symName: __RINvYINtNtNtNtCsaNl6UpbT7bw_4core4iter8adapters3map3MapINtNtNtBc_3ops5range5RangejENCNvNtCsaeTzLhAkejc_12tokio_macros6select19declare_output_enum0ENtNtNtBa_6traits8iterator8Iterator8for_eachNCINvMsi_NtCsiTraAjBDcu4_5alloc3vecINtB3b_3VecNtCshnvkK9b4wzu_11proc_macro25IdentE14extend_trustedB3_E0EB1p_, symObjAddr: 0x1CBC, symBinAddr: 0x290C, symSize: 0x3C }
  - { offset: 0x9531, size: 0x8, addend: 0x0, symName: __RINvYINtNtNtNtCsaNl6UpbT7bw_4core4iter8adapters3map3MapINtNtNtCsiTraAjBDcu4_5alloc3vec9into_iter8IntoIterTNtNtCsc29TF2YcYso_3syn4attr4MetaNtNtB1K_5token5CommaEENCNvXs8_NtB1K_10punctuatedINtB2G_10PunctuatedB1G_B2c_ENtNtNtBa_6traits7collect12IntoIterator9into_iter0ENtNtB3u_8iterator8Iterator8for_eachNCINvMsi_BW_INtBW_3VecB1G_E14extend_trustedB3_E0ECsaeTzLhAkejc_12tokio_macros, symObjAddr: 0x1CF8, symBinAddr: 0x2948, symSize: 0x34 }
  - { offset: 0x95A7, size: 0x8, addend: 0x0, symName: __RNCINvNvNtNtNtNtCsaNl6UpbT7bw_4core4iter6traits8iterator8Iterator3all5checkTRNtNtCsc29TF2YcYso_3syn4path11PathSegmentReENCNCNvNtCsaeTzLhAkejc_12tokio_macros5entry17is_test_attribute00E0B22_, symObjAddr: 0x205C, symBinAddr: 0x2CAC, symSize: 0x60 }
  - { offset: 0x9610, size: 0x8, addend: 0x0, symName: __RNCINvNvNtNtNtNtCsaNl6UpbT7bw_4core4iter6traits8iterator8Iterator3any5checkARej4_NCNvNtCsaeTzLhAkejc_12tokio_macros5entry17is_test_attribute0E0B1n_, symObjAddr: 0x20BC, symBinAddr: 0x2D0C, symSize: 0x64 }
  - { offset: 0x967E, size: 0x8, addend: 0x0, symName: __RNCNvXs_NvNtNtNtNtCsaNl6UpbT7bw_4core4iter6traits8iterator8Iterator10advance_byINtNtCsc29TF2YcYso_3syn10punctuated14PrivateIterMutNtNtB1k_3pat3PatNtNtB1k_5token2OrENtB6_13SpecAdvanceBy15spec_advance_by0CsaeTzLhAkejc_12tokio_macros, symObjAddr: 0x25A4, symBinAddr: 0x31F4, symSize: 0x20 }
  - { offset: 0x96CB, size: 0x8, addend: 0x0, symName: __RNCNvXs_NvNtNtNtNtCsaNl6UpbT7bw_4core4iter6traits8iterator8Iterator10advance_byINtNtCsc29TF2YcYso_3syn10punctuated14PrivateIterMutNtNtB1k_3pat3PatNtNtB1k_5token5CommaENtB6_13SpecAdvanceBy15spec_advance_by0CsaeTzLhAkejc_12tokio_macros, symObjAddr: 0x25C4, symBinAddr: 0x3214, symSize: 0x20 }
  - { offset: 0x9718, size: 0x8, addend: 0x0, symName: __RNCNvXs_NvNtNtNtNtCsaNl6UpbT7bw_4core4iter6traits8iterator8Iterator10advance_byINtNtCsc29TF2YcYso_3syn10punctuated14PrivateIterMutNtNtB1k_3pat8FieldPatNtNtB1k_5token5CommaENtB6_13SpecAdvanceBy15spec_advance_by0CsaeTzLhAkejc_12tokio_macros, symObjAddr: 0x25E4, symBinAddr: 0x3234, symSize: 0x20 }
  - { offset: 0x977D, size: 0x8, addend: 0x0, symName: __RNvYINtNtNtNtCsaNl6UpbT7bw_4core4iter8adapters3map3MapIB3_IB3_INtNtB7_3zip3ZipINtNtNtBb_5slice4iter4IterNtCshnvkK9b4wzu_11proc_macro211TokenStreamEIB1f_ReEENCNvNtCsaeTzLhAkejc_12tokio_macros5entry11parse_knobss1_0ENCINvXs7_B1G_B1E_INtNtNtB9_6traits7collect12FromIteratorB1E_E9from_iterBU_E0ENCINvXs6_NtB1G_3impNtB4O_11TokenStreamIB3I_B4Y_E9from_iterBQ_Es_0ENtNtB3M_8iterator8Iterator4fuseB2A_, symObjAddr: 0x5AE4, symBinAddr: 0x6734, symSize: 0x48 }
  - { offset: 0x97CA, size: 0x8, addend: 0x0, symName: __RNvYINtNtNtNtCsaNl6UpbT7bw_4core4iter8adapters3map3MapIB3_IB3_INtNtB7_3zip3ZipINtNtNtBb_5slice4iter4IterNtCshnvkK9b4wzu_11proc_macro211TokenStreamEIB1f_ReEENCNvNtCsaeTzLhAkejc_12tokio_macros5entry11parse_knobss1_0ENCINvXs7_B1G_B1E_INtNtNtB9_6traits7collect12FromIteratorB1E_E9from_iterBU_E0ENCINvXs6_NtB1G_3impNtB4O_11TokenStreamIB3I_B4Y_E9from_iterBQ_Es_0ENtNtB3M_8iterator8Iterator7flattenB2A_, symObjAddr: 0x5B2C, symBinAddr: 0x677C, symSize: 0x84 }
  - { offset: 0x984B, size: 0x8, addend: 0x0, symName: __RNvXNtNtNtCsaNl6UpbT7bw_4core4iter6traits7collectINtNtNtB6_8adapters3map3MapIBM_IBM_INtNtBQ_3zip3ZipINtNtNtB8_5slice4iter4IterNtCshnvkK9b4wzu_11proc_macro211TokenStreamEIB1B_ReEENCNvNtCsaeTzLhAkejc_12tokio_macros5entry11parse_knobss1_0ENCINvXs7_B22_B20_INtB2_12FromIteratorB20_E9from_iterB1g_E0ENCINvXs6_NtB22_3impNtB4S_11TokenStreamIB44_B52_E9from_iterB1c_E0ENtB2_12IntoIterator9into_iterB2W_, symObjAddr: 0x2B10, symBinAddr: 0x3760, symSize: 0x30 }
  - { offset: 0x9883, size: 0x8, addend: 0x0, symName: __RNvXNtNtNtCsaNl6UpbT7bw_4core4iter6traits7collectINtNtNtB6_8adapters3map3MapIBM_IBM_INtNtBQ_3zip3ZipINtNtNtB8_5slice4iter4IterNtCshnvkK9b4wzu_11proc_macro211TokenStreamEIB1B_ReEENCNvNtCsaeTzLhAkejc_12tokio_macros5entry11parse_knobss1_0ENCINvXs7_B22_B20_INtB2_12FromIteratorB20_E9from_iterB1g_E0ENCINvXs6_NtB22_3impNtB4S_11TokenStreamIB44_B52_E9from_iterB1c_Es_0ENtB2_12IntoIterator9into_iterB2W_, symObjAddr: 0x2B40, symBinAddr: 0x3790, symSize: 0x30 }
  - { offset: 0x98BB, size: 0x8, addend: 0x0, symName: __RNvXNtNtNtCsaNl6UpbT7bw_4core4iter6traits7collectINtNtNtB6_8adapters3map3MapIBM_INtNtBQ_3zip3ZipINtNtNtB8_5slice4iter4IterNtCshnvkK9b4wzu_11proc_macro211TokenStreamEIB1x_ReEENCNvNtCsaeTzLhAkejc_12tokio_macros5entry11parse_knobss1_0ENCINvXs7_B1Y_B1W_INtB2_12FromIteratorB1W_E9from_iterB1c_E0ENtB2_12IntoIterator9into_iterB2S_, symObjAddr: 0x2B70, symBinAddr: 0x37C0, symSize: 0x30 }
  - { offset: 0x98F3, size: 0x8, addend: 0x0, symName: __RNvXNtNtNtCsaNl6UpbT7bw_4core4iter6traits7collectINtNtNtB6_8adapters3map3MapINtNtBQ_3zip3ZipINtNtNtB8_5slice4iter4IterNtCshnvkK9b4wzu_11proc_macro211TokenStreamEIB1t_ReEENCNvNtCsaeTzLhAkejc_12tokio_macros5entry11parse_knobss1_0ENtB2_12IntoIterator9into_iterB2O_, symObjAddr: 0x2BA0, symBinAddr: 0x37F0, symSize: 0x30 }
  - { offset: 0x992B, size: 0x8, addend: 0x0, symName: __RNvXNtNtNtCsaNl6UpbT7bw_4core4iter6traits7collectINtNtNtB6_8adapters3map3MapINtNtNtB8_3ops5range5RangejENCNvNtCsaeTzLhAkejc_12tokio_macros6select19declare_output_enum0ENtB2_12IntoIterator9into_iterB1K_, symObjAddr: 0x2BD0, symBinAddr: 0x3820, symSize: 0x14 }
  - { offset: 0x9962, size: 0x8, addend: 0x0, symName: __RNvXNtNtNtCsaNl6UpbT7bw_4core4iter6traits7collectINtNtNtB6_8adapters3map3MapINtNtNtCsiTraAjBDcu4_5alloc3vec9into_iter8IntoIterTNtNtCsc29TF2YcYso_3syn4attr4MetaNtNtB25_5token5CommaEENCNvXs8_NtB25_10punctuatedINtB31_10PunctuatedB21_B2x_ENtB2_12IntoIterator9into_iter0EB3L_9into_iterCsaeTzLhAkejc_12tokio_macros, symObjAddr: 0x2BE4, symBinAddr: 0x3834, symSize: 0x14 }
  - { offset: 0x9999, size: 0x8, addend: 0x0, symName: __RNvXNtNtNtCsaNl6UpbT7bw_4core4iter6traits7collectINtNtNtB6_8adapters7flatten7FlattenINtNtBQ_3map3MapIB1l_IB1l_INtNtBQ_3zip3ZipINtNtNtB8_5slice4iter4IterNtCshnvkK9b4wzu_11proc_macro211TokenStreamEIB21_ReEENCNvNtCsaeTzLhAkejc_12tokio_macros5entry11parse_knobss1_0ENCINvXs7_B2s_B2q_INtB2_12FromIteratorB2q_E9from_iterB1F_E0ENCINvXs6_NtB2s_3impNtB5i_11TokenStreamIB4u_B5s_E9from_iterB1A_Es_0EENtB2_12IntoIterator9into_iterB3m_, symObjAddr: 0x2BF8, symBinAddr: 0x3848, symSize: 0x30 }
  - { offset: 0x9B6F, size: 0x8, addend: 0x0, symName: __RNvNvMNtNtCsaNl6UpbT7bw_4core5alloc6layoutNtB4_6Layout25from_size_align_unchecked18precondition_checkCsaeTzLhAkejc_12tokio_macros, symObjAddr: 0x2A40, symBinAddr: 0x3690, symSize: 0xBC }
  - { offset: 0x9C1D, size: 0x8, addend: 0x0, symName: __RNvXsn_NtNtCsaNl6UpbT7bw_4core5panic11unwind_safeINtB5_16AssertUnwindSafeNCINvNtNtCs7yrEGia95Wz_10proc_macro6bridge6client10run_clientNtB1e_11TokenStreamINtNtB9_6option6OptionB28_ENCNCINvMs6_B1e_INtB1e_6ClientNtB1i_11TokenStreamB3l_E7expand1NvCsaeTzLhAkejc_12tokio_macros25select_priv_clean_patternE00E0EINtNtNtB9_3ops8function6FnOnceuE9call_onceB3T_, symObjAddr: 0x5120, symBinAddr: 0x5D70, symSize: 0x38 }
  - { offset: 0x9C75, size: 0x8, addend: 0x0, symName: __RNvXsn_NtNtCsaNl6UpbT7bw_4core5panic11unwind_safeINtB5_16AssertUnwindSafeNCINvNtNtCs7yrEGia95Wz_10proc_macro6bridge6client10run_clientNtB1e_11TokenStreamINtNtB9_6option6OptionB28_ENCNCINvMs6_B1e_INtB1e_6ClientNtB1i_11TokenStreamB3l_E7expand1NvCsaeTzLhAkejc_12tokio_macros31select_priv_declare_output_enumE00E0EINtNtNtB9_3ops8function6FnOnceuE9call_onceB3T_, symObjAddr: 0x5158, symBinAddr: 0x5DA8, symSize: 0x38 }
  - { offset: 0x9CCD, size: 0x8, addend: 0x0, symName: __RNvXsn_NtNtCsaNl6UpbT7bw_4core5panic11unwind_safeINtB5_16AssertUnwindSafeNCINvNtNtCs7yrEGia95Wz_10proc_macro6bridge6client10run_clientTNtB1e_11TokenStreamB29_EINtNtB9_6option6OptionB29_ENCNCINvMs7_B1e_INtB1e_6ClientTNtB1i_11TokenStreamB3s_EB3s_E7expand2NvCsaeTzLhAkejc_12tokio_macros4mainE00E0EINtNtNtB9_3ops8function6FnOnceuE9call_onceB45_, symObjAddr: 0x5190, symBinAddr: 0x5DE0, symSize: 0x38 }
  - { offset: 0x9D25, size: 0x8, addend: 0x0, symName: __RNvXsn_NtNtCsaNl6UpbT7bw_4core5panic11unwind_safeINtB5_16AssertUnwindSafeNCINvNtNtCs7yrEGia95Wz_10proc_macro6bridge6client10run_clientTNtB1e_11TokenStreamB29_EINtNtB9_6option6OptionB29_ENCNCINvMs7_B1e_INtB1e_6ClientTNtB1i_11TokenStreamB3s_EB3s_E7expand2NvCsaeTzLhAkejc_12tokio_macros4testE00E0EINtNtNtB9_3ops8function6FnOnceuE9call_onceB45_, symObjAddr: 0x51C8, symBinAddr: 0x5E18, symSize: 0x38 }
  - { offset: 0x9D7D, size: 0x8, addend: 0x0, symName: __RNvXsn_NtNtCsaNl6UpbT7bw_4core5panic11unwind_safeINtB5_16AssertUnwindSafeNCINvNtNtCs7yrEGia95Wz_10proc_macro6bridge6client10run_clientTNtB1e_11TokenStreamB29_EINtNtB9_6option6OptionB29_ENCNCINvMs7_B1e_INtB1e_6ClientTNtB1i_11TokenStreamB3s_EB3s_E7expand2NvCsaeTzLhAkejc_12tokio_macros7main_rtE00E0EINtNtNtB9_3ops8function6FnOnceuE9call_onceB45_, symObjAddr: 0x5200, symBinAddr: 0x5E50, symSize: 0x38 }
  - { offset: 0x9DD5, size: 0x8, addend: 0x0, symName: __RNvXsn_NtNtCsaNl6UpbT7bw_4core5panic11unwind_safeINtB5_16AssertUnwindSafeNCINvNtNtCs7yrEGia95Wz_10proc_macro6bridge6client10run_clientTNtB1e_11TokenStreamB29_EINtNtB9_6option6OptionB29_ENCNCINvMs7_B1e_INtB1e_6ClientTNtB1i_11TokenStreamB3s_EB3s_E7expand2NvCsaeTzLhAkejc_12tokio_macros7test_rtE00E0EINtNtNtB9_3ops8function6FnOnceuE9call_onceB45_, symObjAddr: 0x5238, symBinAddr: 0x5E88, symSize: 0x38 }
  - { offset: 0x9E2D, size: 0x8, addend: 0x0, symName: __RNvXsn_NtNtCsaNl6UpbT7bw_4core5panic11unwind_safeINtB5_16AssertUnwindSafeNCINvNtNtCs7yrEGia95Wz_10proc_macro6bridge6client10run_clientTNtB1e_11TokenStreamB29_EINtNtB9_6option6OptionB29_ENCNCINvMs7_B1e_INtB1e_6ClientTNtB1i_11TokenStreamB3s_EB3s_E7expand2NvCsaeTzLhAkejc_12tokio_macros9main_failE00E0EINtNtNtB9_3ops8function6FnOnceuE9call_onceB45_, symObjAddr: 0x5270, symBinAddr: 0x5EC0, symSize: 0x38 }
  - { offset: 0x9E85, size: 0x8, addend: 0x0, symName: __RNvXsn_NtNtCsaNl6UpbT7bw_4core5panic11unwind_safeINtB5_16AssertUnwindSafeNCINvNtNtCs7yrEGia95Wz_10proc_macro6bridge6client10run_clientTNtB1e_11TokenStreamB29_EINtNtB9_6option6OptionB29_ENCNCINvMs7_B1e_INtB1e_6ClientTNtB1i_11TokenStreamB3s_EB3s_E7expand2NvCsaeTzLhAkejc_12tokio_macros9test_failE00E0EINtNtNtB9_3ops8function6FnOnceuE9call_onceB45_, symObjAddr: 0x52A8, symBinAddr: 0x5EF8, symSize: 0x38 }
  - { offset: 0xA1A9, size: 0x8, addend: 0x0, symName: __RINvNtNtNtCs7yrEGia95Wz_10proc_macro6bridge6client5state3setINtNtCsaNl6UpbT7bw_4core6option6OptionNtB4_11TokenStreamENCNCINvB4_10run_clientB1y_BW_NCNCINvMs6_B4_INtB4_6ClientNtB8_11TokenStreamB2L_E7expand1NvCsaeTzLhAkejc_12tokio_macros25select_priv_clean_patternE00E00EB3i_, symObjAddr: 0x4B8, symBinAddr: 0x1108, symSize: 0xE8 }
  - { offset: 0xA27E, size: 0x8, addend: 0x0, symName: __RINvNtNtNtCs7yrEGia95Wz_10proc_macro6bridge6client5state3setINtNtCsaNl6UpbT7bw_4core6option6OptionNtB4_11TokenStreamENCNCINvB4_10run_clientB1y_BW_NCNCINvMs6_B4_INtB4_6ClientNtB8_11TokenStreamB2L_E7expand1NvCsaeTzLhAkejc_12tokio_macros31select_priv_declare_output_enumE00E00EB3i_, symObjAddr: 0x5A0, symBinAddr: 0x11F0, symSize: 0xE8 }
  - { offset: 0xA353, size: 0x8, addend: 0x0, symName: __RINvNtNtNtCs7yrEGia95Wz_10proc_macro6bridge6client5state3setINtNtCsaNl6UpbT7bw_4core6option6OptionNtB4_11TokenStreamENCNCINvB4_10run_clientTB1y_B1y_EBW_NCNCINvMs7_B4_INtB4_6ClientTNtB8_11TokenStreamB2S_EB2S_E7expand2NvCsaeTzLhAkejc_12tokio_macros4mainE00E00EB3u_, symObjAddr: 0x688, symBinAddr: 0x12D8, symSize: 0xEC }
  - { offset: 0xA429, size: 0x8, addend: 0x0, symName: __RINvNtNtNtCs7yrEGia95Wz_10proc_macro6bridge6client5state3setINtNtCsaNl6UpbT7bw_4core6option6OptionNtB4_11TokenStreamENCNCINvB4_10run_clientTB1y_B1y_EBW_NCNCINvMs7_B4_INtB4_6ClientTNtB8_11TokenStreamB2S_EB2S_E7expand2NvCsaeTzLhAkejc_12tokio_macros4testE00E00EB3u_, symObjAddr: 0x774, symBinAddr: 0x13C4, symSize: 0xEC }
  - { offset: 0xA4FF, size: 0x8, addend: 0x0, symName: __RINvNtNtNtCs7yrEGia95Wz_10proc_macro6bridge6client5state3setINtNtCsaNl6UpbT7bw_4core6option6OptionNtB4_11TokenStreamENCNCINvB4_10run_clientTB1y_B1y_EBW_NCNCINvMs7_B4_INtB4_6ClientTNtB8_11TokenStreamB2S_EB2S_E7expand2NvCsaeTzLhAkejc_12tokio_macros7main_rtE00E00EB3u_, symObjAddr: 0x860, symBinAddr: 0x14B0, symSize: 0xEC }
  - { offset: 0xA5D5, size: 0x8, addend: 0x0, symName: __RINvNtNtNtCs7yrEGia95Wz_10proc_macro6bridge6client5state3setINtNtCsaNl6UpbT7bw_4core6option6OptionNtB4_11TokenStreamENCNCINvB4_10run_clientTB1y_B1y_EBW_NCNCINvMs7_B4_INtB4_6ClientTNtB8_11TokenStreamB2S_EB2S_E7expand2NvCsaeTzLhAkejc_12tokio_macros7test_rtE00E00EB3u_, symObjAddr: 0x94C, symBinAddr: 0x159C, symSize: 0xEC }
  - { offset: 0xA6AB, size: 0x8, addend: 0x0, symName: __RINvNtNtNtCs7yrEGia95Wz_10proc_macro6bridge6client5state3setINtNtCsaNl6UpbT7bw_4core6option6OptionNtB4_11TokenStreamENCNCINvB4_10run_clientTB1y_B1y_EBW_NCNCINvMs7_B4_INtB4_6ClientTNtB8_11TokenStreamB2S_EB2S_E7expand2NvCsaeTzLhAkejc_12tokio_macros9main_failE00E00EB3u_, symObjAddr: 0xA38, symBinAddr: 0x1688, symSize: 0xEC }
  - { offset: 0xA781, size: 0x8, addend: 0x0, symName: __RINvNtNtNtCs7yrEGia95Wz_10proc_macro6bridge6client5state3setINtNtCsaNl6UpbT7bw_4core6option6OptionNtB4_11TokenStreamENCNCINvB4_10run_clientTB1y_B1y_EBW_NCNCINvMs7_B4_INtB4_6ClientTNtB8_11TokenStreamB2S_EB2S_E7expand2NvCsaeTzLhAkejc_12tokio_macros9test_failE00E00EB3u_, symObjAddr: 0xB24, symBinAddr: 0x1774, symSize: 0xEC }
  - { offset: 0xA861, size: 0x8, addend: 0x0, symName: __RNCNkNvNtNtNtCs7yrEGia95Wz_10proc_macro6bridge6client5state12BRIDGE_STATE0s_0CsaeTzLhAkejc_12tokio_macros, symObjAddr: 0x2574, symBinAddr: 0x31C4, symSize: 0x30 }
  - { offset: 0xB02D, size: 0x8, addend: 0x0, symName: __RINvNvNtNtCs7yrEGia95Wz_10proc_macro6bridge14selfless_reify31reify_to_extern_c_fn_hrt_bridge7wrapperNtNtB6_6buffer6BufferNCINvMs6_NtB6_6clientINtB24_6ClientNtB8_11TokenStreamB2u_E7expand1NvCsaeTzLhAkejc_12tokio_macros25select_priv_clean_patternE0EB31_, symObjAddr: 0xCE0, symBinAddr: 0x1930, symSize: 0x5C }
  - { offset: 0xB089, size: 0x8, addend: 0x0, symName: __RINvNvNtNtCs7yrEGia95Wz_10proc_macro6bridge14selfless_reify31reify_to_extern_c_fn_hrt_bridge7wrapperNtNtB6_6buffer6BufferNCINvMs6_NtB6_6clientINtB24_6ClientNtB8_11TokenStreamB2u_E7expand1NvCsaeTzLhAkejc_12tokio_macros31select_priv_declare_output_enumE0EB31_, symObjAddr: 0xD3C, symBinAddr: 0x198C, symSize: 0x5C }
  - { offset: 0xB0E5, size: 0x8, addend: 0x0, symName: __RINvNvNtNtCs7yrEGia95Wz_10proc_macro6bridge14selfless_reify31reify_to_extern_c_fn_hrt_bridge7wrapperNtNtB6_6buffer6BufferNCINvMs7_NtB6_6clientINtB24_6ClientTNtB8_11TokenStreamB2v_EB2v_E7expand2NvCsaeTzLhAkejc_12tokio_macros4mainE0EB37_, symObjAddr: 0xD98, symBinAddr: 0x19E8, symSize: 0x5C }
  - { offset: 0xB141, size: 0x8, addend: 0x0, symName: __RINvNvNtNtCs7yrEGia95Wz_10proc_macro6bridge14selfless_reify31reify_to_extern_c_fn_hrt_bridge7wrapperNtNtB6_6buffer6BufferNCINvMs7_NtB6_6clientINtB24_6ClientTNtB8_11TokenStreamB2v_EB2v_E7expand2NvCsaeTzLhAkejc_12tokio_macros4testE0EB37_, symObjAddr: 0xDF4, symBinAddr: 0x1A44, symSize: 0x5C }
  - { offset: 0xB19D, size: 0x8, addend: 0x0, symName: __RINvNvNtNtCs7yrEGia95Wz_10proc_macro6bridge14selfless_reify31reify_to_extern_c_fn_hrt_bridge7wrapperNtNtB6_6buffer6BufferNCINvMs7_NtB6_6clientINtB24_6ClientTNtB8_11TokenStreamB2v_EB2v_E7expand2NvCsaeTzLhAkejc_12tokio_macros7main_rtE0EB37_, symObjAddr: 0xE50, symBinAddr: 0x1AA0, symSize: 0x5C }
  - { offset: 0xB1F9, size: 0x8, addend: 0x0, symName: __RINvNvNtNtCs7yrEGia95Wz_10proc_macro6bridge14selfless_reify31reify_to_extern_c_fn_hrt_bridge7wrapperNtNtB6_6buffer6BufferNCINvMs7_NtB6_6clientINtB24_6ClientTNtB8_11TokenStreamB2v_EB2v_E7expand2NvCsaeTzLhAkejc_12tokio_macros7test_rtE0EB37_, symObjAddr: 0xEAC, symBinAddr: 0x1AFC, symSize: 0x5C }
  - { offset: 0xB255, size: 0x8, addend: 0x0, symName: __RINvNvNtNtCs7yrEGia95Wz_10proc_macro6bridge14selfless_reify31reify_to_extern_c_fn_hrt_bridge7wrapperNtNtB6_6buffer6BufferNCINvMs7_NtB6_6clientINtB24_6ClientTNtB8_11TokenStreamB2v_EB2v_E7expand2NvCsaeTzLhAkejc_12tokio_macros9main_failE0EB37_, symObjAddr: 0xF08, symBinAddr: 0x1B58, symSize: 0x5C }
  - { offset: 0xB2B1, size: 0x8, addend: 0x0, symName: __RINvNvNtNtCs7yrEGia95Wz_10proc_macro6bridge14selfless_reify31reify_to_extern_c_fn_hrt_bridge7wrapperNtNtB6_6buffer6BufferNCINvMs7_NtB6_6clientINtB24_6ClientTNtB8_11TokenStreamB2v_EB2v_E7expand2NvCsaeTzLhAkejc_12tokio_macros9test_failE0EB37_, symObjAddr: 0xF64, symBinAddr: 0x1BB4, symSize: 0x5C }
  - { offset: 0xB319, size: 0x8, addend: 0x0, symName: __RNvXNtNtCs7yrEGia95Wz_10proc_macro6bridge3rpcuINtB2_6EncodeuE6encodeCsaeTzLhAkejc_12tokio_macros, symObjAddr: 0x2AFC, symBinAddr: 0x374C, symSize: 0x14 }
  - { offset: 0xB3F2, size: 0x8, addend: 0x0, symName: __RNvXsa_NtNtCs7yrEGia95Wz_10proc_macro6bridge3rpcRShINtB5_6EncodeuE6encodeCsaeTzLhAkejc_12tokio_macros, symObjAddr: 0x3BC8, symBinAddr: 0x4818, symSize: 0xD8 }
  - { offset: 0xB4F4, size: 0x8, addend: 0x0, symName: __RNvXsc_NtNtCs7yrEGia95Wz_10proc_macro6bridge3rpcReINtB5_6EncodeuE6encodeCsaeTzLhAkejc_12tokio_macros, symObjAddr: 0x3CA0, symBinAddr: 0x48F0, symSize: 0x38 }
  - { offset: 0xB5DC, size: 0x8, addend: 0x0, symName: __RNvXsl_NtNtCs7yrEGia95Wz_10proc_macro6bridge3rpcNtB5_12PanicMessageINtB5_6EncodeuE6encodeCsaeTzLhAkejc_12tokio_macros, symObjAddr: 0x4FF8, symBinAddr: 0x5C48, symSize: 0x128 }
  - { offset: 0xB7A2, size: 0x8, addend: 0x0, symName: __RNvXso_NtNtCs7yrEGia95Wz_10proc_macro6bridge3rpcmINtB5_9DecodeMutuE6decodeCsaeTzLhAkejc_12tokio_macros, symObjAddr: 0x52E0, symBinAddr: 0x5F30, symSize: 0x108 }
  - { offset: 0xB8F0, size: 0x8, addend: 0x0, symName: __RNvXsV_NtCs7yrEGia95Wz_10proc_macro6bridgeINtNtCsaNl6UpbT7bw_4core6result6ResultINtNtBJ_6option6OptionNtNtB5_6client11TokenStreamEuEINtNtB5_3rpc6EncodeuE6encodeCsaeTzLhAkejc_12tokio_macros, symObjAddr: 0x398C, symBinAddr: 0x45DC, symSize: 0x110 }
  - { offset: 0xB9B4, size: 0x8, addend: 0x0, symName: __RNvXsV_NtCs7yrEGia95Wz_10proc_macro6bridgeINtNtCsaNl6UpbT7bw_4core6result6ResultuNtNtB5_3rpc12PanicMessageEINtB1j_6EncodeuE6encodeCsaeTzLhAkejc_12tokio_macros, symObjAddr: 0x3A9C, symBinAddr: 0x46EC, symSize: 0x12C }
  - { offset: 0xBCD0, size: 0x8, addend: 0x0, symName: __RINvXsj_Cs7yrEGia95Wz_10proc_macroNtB6_11TokenStreamINtNtNtNtCsaNl6UpbT7bw_4core4iter6traits7collect6ExtendBw_E6extendINtNtNtBV_8adapters3map3MapIB1T_IB1T_INtNtB1X_3zip3ZipINtNtNtBX_5slice4iter4IterNtCshnvkK9b4wzu_11proc_macro211TokenStreamEIB2L_ReEENCNvNtCsaeTzLhAkejc_12tokio_macros5entry11parse_knobss1_0ENCINvXs7_B3c_B3a_INtBR_12FromIteratorB3a_E9from_iterB2o_E0ENCINvXs6_NtB3c_3impNtB62_11TokenStreamIB5e_B6c_E9from_iterB2j_E0EEB46_, symObjAddr: 0x1834, symBinAddr: 0x2484, symSize: 0x110 }
  - { offset: 0xBD45, size: 0x8, addend: 0x0, symName: __RNCINvXsj_Cs7yrEGia95Wz_10proc_macroNtB8_11TokenStreamINtNtNtNtCsaNl6UpbT7bw_4core4iter6traits7collect6ExtendBy_E6extendINtNtNtBX_8adapters3map3MapIB1V_IB1V_INtNtB1Z_3zip3ZipINtNtNtBZ_5slice4iter4IterNtCshnvkK9b4wzu_11proc_macro211TokenStreamEIB2N_ReEENCNvNtCsaeTzLhAkejc_12tokio_macros5entry11parse_knobss1_0ENCINvXs7_B3e_B3c_INtBT_12FromIteratorB3c_E9from_iterB2q_E0ENCINvXs6_NtB3e_3impNtB64_11TokenStreamIB5g_B6e_E9from_iterB2l_E0EE0B48_, symObjAddr: 0x2548, symBinAddr: 0x3198, symSize: 0x2C }
  - { offset: 0xBDA4, size: 0x8, addend: 0x0, symName: __RNvXsU_Cs7yrEGia95Wz_10proc_macroNtB5_11TokenStreamNtNtCsaNl6UpbT7bw_4core5clone5Clone5cloneCsaeTzLhAkejc_12tokio_macros, symObjAddr: 0x3928, symBinAddr: 0x4578, symSize: 0x64 }
  - { offset: 0xC0A0, size: 0x8, addend: 0x0, symName: __RINvXs6_NtCshnvkK9b4wzu_11proc_macro23impNtB6_11TokenStreamINtNtNtNtCsaNl6UpbT7bw_4core4iter6traits7collect12FromIteratorBD_E9from_iterINtNtNtB12_8adapters3map3MapIB2a_INtNtB2e_3zip3ZipINtNtNtB14_5slice4iter4IterNtB8_11TokenStreamEIB2Y_ReEENCNvNtCsaeTzLhAkejc_12tokio_macros5entry11parse_knobss1_0ENCINvXs7_B8_B3o_IBW_B3o_E9from_iterB2B_E0EEB3W_, symObjAddr: 0x1288, symBinAddr: 0x1ED8, symSize: 0x264 }
  - { offset: 0xC12A, size: 0x8, addend: 0x0, symName: __RNCINvXs6_NtCshnvkK9b4wzu_11proc_macro23impNtB8_11TokenStreamINtNtNtNtCsaNl6UpbT7bw_4core4iter6traits7collect12FromIteratorBF_E9from_iterINtNtNtB14_8adapters3map3MapIB2c_INtNtB2g_3zip3ZipINtNtNtB16_5slice4iter4IterNtBa_11TokenStreamEIB30_ReEENCNvNtCsaeTzLhAkejc_12tokio_macros5entry11parse_knobss1_0ENCINvXs7_Ba_B3q_IBY_B3q_E9from_iterB2D_E0EE0B3Y_, symObjAddr: 0x228C, symBinAddr: 0x2EDC, symSize: 0x10C }
  - { offset: 0xC187, size: 0x8, addend: 0x0, symName: __RNCINvXs6_NtCshnvkK9b4wzu_11proc_macro23impNtB8_11TokenStreamINtNtNtNtCsaNl6UpbT7bw_4core4iter6traits7collect12FromIteratorBF_E9from_iterINtNtNtB14_8adapters3map3MapIB2c_INtNtB2g_3zip3ZipINtNtNtB16_5slice4iter4IterNtBa_11TokenStreamEIB30_ReEENCNvNtCsaeTzLhAkejc_12tokio_macros5entry11parse_knobss1_0ENCINvXs7_Ba_B3q_IBY_B3q_E9from_iterB2D_E0EEs_0B3Y_, symObjAddr: 0x2398, symBinAddr: 0x2FE8, symSize: 0xF8 }
  - { offset: 0xC1CE, size: 0x8, addend: 0x0, symName: __RINvXs7_NtCshnvkK9b4wzu_11proc_macro23impNtB6_11TokenStreamINtNtNtNtCsaNl6UpbT7bw_4core4iter6traits7collect6ExtendNtB8_9TokenTreeE6extendAB1O_j1_ECsaeTzLhAkejc_12tokio_macros, symObjAddr: 0x14EC, symBinAddr: 0x213C, symSize: 0x164 }
  - { offset: 0xC264, size: 0x8, addend: 0x0, symName: __RINvXs7_NtCshnvkK9b4wzu_11proc_macro23impNtB6_11TokenStreamINtNtNtNtCsaNl6UpbT7bw_4core4iter6traits7collect6ExtendNtB8_9TokenTreeE6extendNtB8_11TokenStreamECsaeTzLhAkejc_12tokio_macros, symObjAddr: 0x1650, symBinAddr: 0x22A0, symSize: 0x164 }
  - { offset: 0xC300, size: 0x8, addend: 0x0, symName: __RNvXsA_NtCshnvkK9b4wzu_11proc_macro23impNtB5_19DeferredTokenStreamNtNtCsaNl6UpbT7bw_4core5clone5Clone5cloneCsaeTzLhAkejc_12tokio_macros, symObjAddr: 0x3898, symBinAddr: 0x44E8, symSize: 0x90 }
  - { offset: 0xC332, size: 0x8, addend: 0x0, symName: __RNvXsz_NtCshnvkK9b4wzu_11proc_macro23impNtB5_11TokenStreamNtNtCsaNl6UpbT7bw_4core5clone5Clone5cloneCsaeTzLhAkejc_12tokio_macros, symObjAddr: 0x59C8, symBinAddr: 0x6618, symSize: 0x98 }
  - { offset: 0x11854, size: 0x8, addend: 0x0, symName: __RINvNtCsc29TF2YcYso_3syn5parse12parse_scopedNvYNtNtB4_4path4PathNtB2_5Parse5parseECsaeTzLhAkejc_12tokio_macros, symObjAddr: 0x488, symBinAddr: 0x10D8, symSize: 0x30 }
  - { offset: 0x118AF, size: 0x8, addend: 0x0, symName: __RNvXsh_NtCsc29TF2YcYso_3syn5parseNvMNtNtB7_3pat7parsingNtBA_3Pat12parse_singleNtB5_6Parser6parse2CsaeTzLhAkejc_12tokio_macros, symObjAddr: 0x3CD8, symBinAddr: 0x4928, symSize: 0x370 }
  - { offset: 0x119BF, size: 0x8, addend: 0x0, symName: __RNvXsh_NtCsc29TF2YcYso_3syn5parseNvYNtNtB7_4path4PathNtB5_5Parse5parseNtB5_6Parser14___parse_scopedCsaeTzLhAkejc_12tokio_macros, symObjAddr: 0x4048, symBinAddr: 0x4C98, symSize: 0x3BC }
  - { offset: 0x11B0C, size: 0x8, addend: 0x0, symName: __RNvXsh_NtCsc29TF2YcYso_3syn5parseNvYNtNtCsaeTzLhAkejc_12tokio_macros5entry6ItemFnNtB5_5Parse5parseNtB5_6Parser6parse2BC_, symObjAddr: 0x4404, symBinAddr: 0x5054, symSize: 0x364 }
  - { offset: 0x11C22, size: 0x8, addend: 0x0, symName: __RNvYNvMNtNtCsc29TF2YcYso_3syn3pat7parsingNtB7_3Pat12parse_singleNtNtB9_5parse6Parser5parseCsaeTzLhAkejc_12tokio_macros, symObjAddr: 0x5BB0, symBinAddr: 0x6800, symSize: 0x88 }
  - { offset: 0x11E4C, size: 0x8, addend: 0x0, symName: __RNvXs0_NtCsc29TF2YcYso_3syn5dropsINtB5_6NoDropDINtNtB7_10punctuated12IterMutTraitNtNtB7_3pat3PatEp4ItemQB1h_EL_ENtNtNtCsaNl6UpbT7bw_4core3ops5deref8DerefMut9deref_mutCsaeTzLhAkejc_12tokio_macros, symObjAddr: 0x2C28, symBinAddr: 0x3878, symSize: 0x3C }
  - { offset: 0x11E81, size: 0x8, addend: 0x0, symName: __RNvXs0_NtCsc29TF2YcYso_3syn5dropsINtB5_6NoDropDINtNtB7_10punctuated12IterMutTraitNtNtB7_3pat8FieldPatEp4ItemQB1h_EL_ENtNtNtCsaNl6UpbT7bw_4core3ops5deref8DerefMut9deref_mutCsaeTzLhAkejc_12tokio_macros, symObjAddr: 0x2C64, symBinAddr: 0x38B4, symSize: 0x3C }
  - { offset: 0x130C2, size: 0x8, addend: 0x0, symName: __RNvXs1_NtCsiTraAjBDcu4_5alloc7raw_vecINtB5_6RawVecNtCshnvkK9b4wzu_11proc_macro211TokenStreamENtNtNtCsaNl6UpbT7bw_4core3ops4drop4Drop4dropCsaeTzLhAkejc_12tokio_macros, symObjAddr: 0x2F58, symBinAddr: 0x3BA8, symSize: 0x34 }
  - { offset: 0x130FE, size: 0x8, addend: 0x0, symName: __RNvXs1_NtCsiTraAjBDcu4_5alloc7raw_vecINtB5_6RawVecNtCshnvkK9b4wzu_11proc_macro25IdentENtNtNtCsaNl6UpbT7bw_4core3ops4drop4Drop4dropCsaeTzLhAkejc_12tokio_macros, symObjAddr: 0x2F8C, symBinAddr: 0x3BDC, symSize: 0x34 }
  - { offset: 0x1313A, size: 0x8, addend: 0x0, symName: __RNvXs1_NtCsiTraAjBDcu4_5alloc7raw_vecINtB5_6RawVecNtNtCsc29TF2YcYso_3syn4attr4MetaENtNtNtCsaNl6UpbT7bw_4core3ops4drop4Drop4dropCsaeTzLhAkejc_12tokio_macros, symObjAddr: 0x2FC0, symBinAddr: 0x3C10, symSize: 0x34 }
  - { offset: 0x13176, size: 0x8, addend: 0x0, symName: __RNvXs1_NtCsiTraAjBDcu4_5alloc7raw_vecINtB5_6RawVecTNtNtCsc29TF2YcYso_3syn4attr4MetaNtNtBR_5token5CommaEENtNtNtCsaNl6UpbT7bw_4core3ops4drop4Drop4dropCsaeTzLhAkejc_12tokio_macros, symObjAddr: 0x2FF4, symBinAddr: 0x3C44, symSize: 0x34 }
  - { offset: 0x13898, size: 0x8, addend: 0x0, symName: __RINvMNtCsaNl6UpbT7bw_4core6resultINtB3_6ResultINtNtCsc29TF2YcYso_3syn10punctuated10PunctuatedNtNtBN_4attr4MetaNtNtBN_5token5CommaENtNtBN_5error5ErrorE8and_thenNtNtCsaeTzLhAkejc_12tokio_macros5entry11FinalConfigNCNvB2z_4main0EB2B_, symObjAddr: 0x0, symBinAddr: 0xC50, symSize: 0xBC }
  - { offset: 0x1392B, size: 0x8, addend: 0x0, symName: __RINvMNtCsaNl6UpbT7bw_4core6resultINtB3_6ResultINtNtCsc29TF2YcYso_3syn10punctuated10PunctuatedNtNtBN_4attr4MetaNtNtBN_5token5CommaENtNtBN_5error5ErrorE8and_thenNtNtCsaeTzLhAkejc_12tokio_macros5entry11FinalConfigNCNvB2z_4tests_0EB2B_, symObjAddr: 0xBC, symBinAddr: 0xD0C, symSize: 0xBC }
  - { offset: 0x139CB, size: 0x8, addend: 0x0, symName: __RINvMNtCsaNl6UpbT7bw_4core6resultINtB3_6ResultNtNtCsaeTzLhAkejc_12tokio_macros5entry13RuntimeFlavorNtNtCsiTraAjBDcu4_5alloc6string6StringE7map_errNtNtCsc29TF2YcYso_3syn5error5ErrorNCNvMs0_BK_NtBK_13Configuration10set_flavor0EBM_, symObjAddr: 0x178, symBinAddr: 0xDC8, symSize: 0xAC }
  - { offset: 0x13A5E, size: 0x8, addend: 0x0, symName: __RINvMNtCsaNl6UpbT7bw_4core6resultINtB3_6ResultNtNtCsaeTzLhAkejc_12tokio_macros5entry14UnhandledPanicNtNtCsiTraAjBDcu4_5alloc6string6StringE7map_errNtNtCsc29TF2YcYso_3syn5error5ErrorNCNvMs0_BK_NtBK_13Configuration19set_unhandled_panic0EBM_, symObjAddr: 0x224, symBinAddr: 0xE74, symSize: 0xB8 }
  - { offset: 0x13AFE, size: 0x8, addend: 0x0, symName: __RINvMNtCsaNl6UpbT7bw_4core6resultINtB3_6ResultNtNtCsc29TF2YcYso_3syn4path4PathNtNtBM_5error5ErrorE7map_errB1e_NCNvNtCsaeTzLhAkejc_12tokio_macros5entry10parse_path0EB1Q_, symObjAddr: 0x2DC, symBinAddr: 0xF2C, symSize: 0xC8 }
  - { offset: 0x13B9F, size: 0x8, addend: 0x0, symName: __RINvMNtCsaNl6UpbT7bw_4core6resultINtB3_6ResultjNtNtNtB5_3num5error13ParseIntErrorE7map_errNtNtCsc29TF2YcYso_3syn5error5ErrorNCINvMs3_NtB1u_3litNtB27_6LitInt12base10_parsejE0ECsaeTzLhAkejc_12tokio_macros, symObjAddr: 0x3A4, symBinAddr: 0xFF4, symSize: 0x84 }
  - { offset: 0x13CB8, size: 0x8, addend: 0x0, symName: __RINvMNtNtCsaNl6UpbT7bw_4core3fmt2rtNtB3_8Argument11new_displayNtNtCsc29TF2YcYso_3syn5error5ErrorECsaeTzLhAkejc_12tokio_macros, symObjAddr: 0x428, symBinAddr: 0x1078, symSize: 0x2C }
  - { offset: 0x13D1E, size: 0x8, addend: 0x0, symName: __RINvMs9_NtCsc29TF2YcYso_3syn5parseNtB6_11ParseBuffer5parseNtCshnvkK9b4wzu_11proc_macro29TokenTreeECsaeTzLhAkejc_12tokio_macros, symObjAddr: 0x454, symBinAddr: 0x10A4, symSize: 0x34 }
  - { offset: 0x142C1, size: 0x8, addend: 0x0, symName: __RNvMNtCsc29TF2YcYso_3syn5dropsINtB2_6NoDropINtNtB4_10punctuated14PrivateIterMutNtNtB4_3pat3PatNtNtB4_5token2OrEE3newCsaeTzLhAkejc_12tokio_macros, symObjAddr: 0x26B0, symBinAddr: 0x3300, symSize: 0x40 }
  - { offset: 0x1434B, size: 0x8, addend: 0x0, symName: __RNvMNtCsc29TF2YcYso_3syn5dropsINtB2_6NoDropINtNtB4_10punctuated14PrivateIterMutNtNtB4_3pat3PatNtNtB4_5token5CommaEE3newCsaeTzLhAkejc_12tokio_macros, symObjAddr: 0x26F0, symBinAddr: 0x3340, symSize: 0x40 }
  - { offset: 0x143E2, size: 0x8, addend: 0x0, symName: __RNvMNtCsc29TF2YcYso_3syn5dropsINtB2_6NoDropINtNtB4_10punctuated14PrivateIterMutNtNtB4_3pat8FieldPatNtNtB4_5token5CommaEE3newCsaeTzLhAkejc_12tokio_macros, symObjAddr: 0x2730, symBinAddr: 0x3380, symSize: 0x40 }
  - { offset: 0x14489, size: 0x8, addend: 0x0, symName: __RNvMs0_NtCsiTraAjBDcu4_5alloc7raw_vecINtB5_6RawVecNtCshnvkK9b4wzu_11proc_macro211TokenStreamE8grow_oneCsaeTzLhAkejc_12tokio_macros, symObjAddr: 0x2770, symBinAddr: 0x33C0, symSize: 0x90 }
  - { offset: 0x14537, size: 0x8, addend: 0x0, symName: __RNvMs0_NtCsiTraAjBDcu4_5alloc7raw_vecINtB5_6RawVecTNtNtCsc29TF2YcYso_3syn4attr4MetaNtNtBR_5token5CommaEE8grow_oneCsaeTzLhAkejc_12tokio_macros, symObjAddr: 0x2800, symBinAddr: 0x3450, symSize: 0x90 }
  - { offset: 0x1464F, size: 0x8, addend: 0x0, symName: __RNvMs4_NtNtCsaNl6UpbT7bw_4core5slice4iterINtB5_4IterNtCshnvkK9b4wzu_11proc_macro211TokenStreamE3newCsaeTzLhAkejc_12tokio_macros, symObjAddr: 0x2890, symBinAddr: 0x34E0, symSize: 0x50 }
  - { offset: 0x1480C, size: 0x8, addend: 0x0, symName: __RNvMs4_NtNtCsaNl6UpbT7bw_4core5slice4iterINtB5_4IterNtCshnvkK9b4wzu_11proc_macro25IdentE3newCsaeTzLhAkejc_12tokio_macros, symObjAddr: 0x28E0, symBinAddr: 0x3530, symSize: 0x58 }
  - { offset: 0x149AF, size: 0x8, addend: 0x0, symName: __RNvMsa_NtNtCsaNl6UpbT7bw_4core5slice4iterINtB5_7IterMutTNtNtCsc29TF2YcYso_3syn3pat3PatNtNtBW_5token2OrEE3newCsaeTzLhAkejc_12tokio_macros, symObjAddr: 0x2938, symBinAddr: 0x3588, symSize: 0x58 }
  - { offset: 0x14B52, size: 0x8, addend: 0x0, symName: __RNvMsa_NtNtCsaNl6UpbT7bw_4core5slice4iterINtB5_7IterMutTNtNtCsc29TF2YcYso_3syn3pat3PatNtNtBW_5token5CommaEE3newCsaeTzLhAkejc_12tokio_macros, symObjAddr: 0x2990, symBinAddr: 0x35E0, symSize: 0x58 }
  - { offset: 0x14CF5, size: 0x8, addend: 0x0, symName: __RNvMsa_NtNtCsaNl6UpbT7bw_4core5slice4iterINtB5_7IterMutTNtNtCsc29TF2YcYso_3syn3pat8FieldPatNtNtBW_5token5CommaEE3newCsaeTzLhAkejc_12tokio_macros, symObjAddr: 0x29E8, symBinAddr: 0x3638, symSize: 0x58 }
  - { offset: 0x1576E, size: 0x8, addend: 0x0, symName: __RNvYINtNtNtCsaNl6UpbT7bw_4core5slice4iter4IterNtCshnvkK9b4wzu_11proc_macro25IdentENtNtNtCs4EAaWzSXu1l_5quote9___private3ext14RepIteratorExt15quote_into_iterCsaeTzLhAkejc_12tokio_macros, symObjAddr: 0x5A8C, symBinAddr: 0x66DC, symSize: 0x2C }
  - { offset: 0x157B8, size: 0x8, addend: 0x0, symName: __RNvYRNtNtCsc29TF2YcYso_3syn4expr4ExprNtNtCs4EAaWzSXu1l_5quote9to_tokens8ToTokens15to_token_streamCsaeTzLhAkejc_12tokio_macros, symObjAddr: 0x5C38, symBinAddr: 0x6888, symSize: 0x8C }
  - { offset: 0x15802, size: 0x8, addend: 0x0, symName: __RNvYRNtNtCsc29TF2YcYso_3syn4expr4ExprNtNtCs4EAaWzSXu1l_5quote9to_tokens8ToTokens17into_token_streamCsaeTzLhAkejc_12tokio_macros, symObjAddr: 0x5CC4, symBinAddr: 0x6914, symSize: 0x54 }
  - { offset: 0x15CE7, size: 0x8, addend: 0x0, symName: __RINvMNtCsaNl6UpbT7bw_4core3stre5parsejECsaeTzLhAkejc_12tokio_macros, symObjAddr: 0x0, symBinAddr: 0x6968, symSize: 0x28 }
  - { offset: 0x15D09, size: 0x8, addend: 0x0, symName: ___rustc_proc_macro_decls_77465261ae3b03a0__, symObjAddr: 0x85B8, symBinAddr: 0x2146C8, symSize: 0x0 }
  - { offset: 0x15ED4, size: 0x8, addend: 0x0, symName: __RNvNtCsaeTzLhAkejc_12tokio_macros6select19declare_output_enum, symObjAddr: 0x5698, symBinAddr: 0xBFB8, symSize: 0x960 }
  - { offset: 0x16159, size: 0x8, addend: 0x0, symName: __RNCNvNtCsaeTzLhAkejc_12tokio_macros6select19declare_output_enum0B5_, symObjAddr: 0x5FF8, symBinAddr: 0xC918, symSize: 0xF0 }
  - { offset: 0x161D2, size: 0x8, addend: 0x0, symName: __RNvNtCsaeTzLhAkejc_12tokio_macros6select19clean_pattern_macro, symObjAddr: 0x60E8, symBinAddr: 0xCA08, symSize: 0x204 }
  - { offset: 0x16231, size: 0x8, addend: 0x0, symName: __RNvNtCsaeTzLhAkejc_12tokio_macros6select13clean_pattern, symObjAddr: 0x62EC, symBinAddr: 0xCC0C, symSize: 0x744 }
  - { offset: 0x16409, size: 0x8, addend: 0x0, symName: __RNvCsaeTzLhAkejc_12tokio_macros4main, symObjAddr: 0x6A30, symBinAddr: 0xD350, symSize: 0x114 }
  - { offset: 0x16446, size: 0x8, addend: 0x0, symName: __RNvCsaeTzLhAkejc_12tokio_macros7main_rt, symObjAddr: 0x6B44, symBinAddr: 0xD464, symSize: 0x114 }
  - { offset: 0x16483, size: 0x8, addend: 0x0, symName: __RNvCsaeTzLhAkejc_12tokio_macros4test, symObjAddr: 0x6C58, symBinAddr: 0xD578, symSize: 0x114 }
  - { offset: 0x164C0, size: 0x8, addend: 0x0, symName: __RNvCsaeTzLhAkejc_12tokio_macros7test_rt, symObjAddr: 0x6D6C, symBinAddr: 0xD68C, symSize: 0x114 }
  - { offset: 0x164FD, size: 0x8, addend: 0x0, symName: __RNvCsaeTzLhAkejc_12tokio_macros9main_fail, symObjAddr: 0x6E80, symBinAddr: 0xD7A0, symSize: 0x108 }
  - { offset: 0x1653A, size: 0x8, addend: 0x0, symName: __RNvCsaeTzLhAkejc_12tokio_macros9test_fail, symObjAddr: 0x6F88, symBinAddr: 0xD8A8, symSize: 0x108 }
  - { offset: 0x16577, size: 0x8, addend: 0x0, symName: __RNvCsaeTzLhAkejc_12tokio_macros31select_priv_declare_output_enum, symObjAddr: 0x7090, symBinAddr: 0xD9B0, symSize: 0x30 }
  - { offset: 0x165A5, size: 0x8, addend: 0x0, symName: __RNvCsaeTzLhAkejc_12tokio_macros25select_priv_clean_pattern, symObjAddr: 0x70C0, symBinAddr: 0xD9E0, symSize: 0x30 }
  - { offset: 0x16EBA, size: 0x8, addend: 0x0, symName: __RNvXs7_NtNtCs7yrEGia95Wz_10proc_macro6bridge3rpcINtNtNtCsaNl6UpbT7bw_4core3num7nonzero7NonZeromEINtB5_9DecodeMutuE6decodeCsaeTzLhAkejc_12tokio_macros, symObjAddr: 0x4438, symBinAddr: 0xAD58, symSize: 0x5C }
  - { offset: 0x196E0, size: 0x8, addend: 0x0, symName: __RNvNvMsd_NtNtCsaNl6UpbT7bw_4core3num7nonzeroINtB7_7NonZeropE13new_unchecked18precondition_checkCsaeTzLhAkejc_12tokio_macros, symObjAddr: 0x32CC, symBinAddr: 0x9BEC, symSize: 0x84 }
  - { offset: 0x1A961, size: 0x8, addend: 0x0, symName: __RINvNtCsaNl6UpbT7bw_4core3ptr13drop_in_placeANtCshnvkK9b4wzu_11proc_macro29TokenTreej1_ECsaeTzLhAkejc_12tokio_macros, symObjAddr: 0x75C, symBinAddr: 0x70C4, symSize: 0xA4 }
  - { offset: 0x1A990, size: 0x8, addend: 0x0, symName: __RINvNtCsaNl6UpbT7bw_4core3ptr13drop_in_placeINtNtB4_4cell10UnsafeCellNtNtNtCs7yrEGia95Wz_10proc_macro6bridge6client6BridgeEECsaeTzLhAkejc_12tokio_macros, symObjAddr: 0x848, symBinAddr: 0x7168, symSize: 0x24 }
  - { offset: 0x1A9BF, size: 0x8, addend: 0x0, symName: __RINvNtCsaNl6UpbT7bw_4core3ptr13drop_in_placeINtNtB4_4cell7RefCellNtNtNtCs7yrEGia95Wz_10proc_macro6bridge6client6BridgeEECsaeTzLhAkejc_12tokio_macros, symObjAddr: 0x86C, symBinAddr: 0x718C, symSize: 0x24 }
  - { offset: 0x1A9EE, size: 0x8, addend: 0x0, symName: __RINvNtCsaNl6UpbT7bw_4core3ptr13drop_in_placeINtNtB4_6option4ItemNtNtCsc29TF2YcYso_3syn4attr4MetaEECsaeTzLhAkejc_12tokio_macros, symObjAddr: 0x890, symBinAddr: 0x71B0, symSize: 0x24 }
  - { offset: 0x1AA1D, size: 0x8, addend: 0x0, symName: __RINvNtCsaNl6UpbT7bw_4core3ptr13drop_in_placeINtNtB4_6option6OptionINtNtCsiTraAjBDcu4_5alloc5boxed3BoxNtNtCsc29TF2YcYso_3syn4attr4MetaEEECsaeTzLhAkejc_12tokio_macros, symObjAddr: 0x8B4, symBinAddr: 0x71D4, symSize: 0x44 }
  - { offset: 0x1AA4C, size: 0x8, addend: 0x0, symName: __RINvNtCsaNl6UpbT7bw_4core3ptr13drop_in_placeINtNtB4_6option6OptionNtNtCsc29TF2YcYso_3syn4attr4MetaEECsaeTzLhAkejc_12tokio_macros, symObjAddr: 0x8F8, symBinAddr: 0x7218, symSize: 0x44 }
  - { offset: 0x1AA7B, size: 0x8, addend: 0x0, symName: __RINvNtCsaNl6UpbT7bw_4core3ptr13drop_in_placeINtNtB4_6option6OptionNtNtCsc29TF2YcYso_3syn4path4PathEECsaeTzLhAkejc_12tokio_macros, symObjAddr: 0x93C, symBinAddr: 0x725C, symSize: 0x48 }
  - { offset: 0x1AAAA, size: 0x8, addend: 0x0, symName: __RINvNtCsaNl6UpbT7bw_4core3ptr13drop_in_placeINtNtB4_6option8IntoIterNtNtCsc29TF2YcYso_3syn4attr4MetaEECsaeTzLhAkejc_12tokio_macros, symObjAddr: 0x984, symBinAddr: 0x72A4, symSize: 0x24 }
  - { offset: 0x1AAD9, size: 0x8, addend: 0x0, symName: __RINvNtCsaNl6UpbT7bw_4core3ptr13drop_in_placeINtNtB4_6result6ResultNtNtCsc29TF2YcYso_3syn3pat3PatNtNtB16_5error5ErrorEECsaeTzLhAkejc_12tokio_macros, symObjAddr: 0x9A8, symBinAddr: 0x72C8, symSize: 0x60 }
  - { offset: 0x1AB08, size: 0x8, addend: 0x0, symName: __RINvNtCsaNl6UpbT7bw_4core3ptr13drop_in_placeINtNtCsc29TF2YcYso_3syn10punctuated10PunctuatedNtNtBL_4attr4MetaNtNtBL_5token5CommaEECsaeTzLhAkejc_12tokio_macros, symObjAddr: 0xA08, symBinAddr: 0x7328, symSize: 0x60 }
  - { offset: 0x1AB37, size: 0x8, addend: 0x0, symName: __RINvNtCsaNl6UpbT7bw_4core3ptr13drop_in_placeINtNtCsc29TF2YcYso_3syn10punctuated7IterMutNtNtBL_3pat3PatEECsaeTzLhAkejc_12tokio_macros, symObjAddr: 0xA68, symBinAddr: 0x7388, symSize: 0x24 }
  - { offset: 0x1AB66, size: 0x8, addend: 0x0, symName: __RINvNtCsaNl6UpbT7bw_4core3ptr13drop_in_placeINtNtCsc29TF2YcYso_3syn10punctuated7IterMutNtNtBL_3pat8FieldPatEECsaeTzLhAkejc_12tokio_macros, symObjAddr: 0xA8C, symBinAddr: 0x73AC, symSize: 0x24 }
  - { offset: 0x1AB95, size: 0x8, addend: 0x0, symName: __RINvNtCsaNl6UpbT7bw_4core3ptr13drop_in_placeINtNtCsc29TF2YcYso_3syn10punctuated8IntoIterNtNtBL_4attr4MetaEECsaeTzLhAkejc_12tokio_macros, symObjAddr: 0xAB0, symBinAddr: 0x73D0, symSize: 0x24 }
  - { offset: 0x1ABC4, size: 0x8, addend: 0x0, symName: __RINvNtCsaNl6UpbT7bw_4core3ptr13drop_in_placeINtNtCsiTraAjBDcu4_5alloc3vec3VecNtCshnvkK9b4wzu_11proc_macro211TokenStreamEECsaeTzLhAkejc_12tokio_macros, symObjAddr: 0xAD4, symBinAddr: 0x73F4, symSize: 0x5C }
  - { offset: 0x1ABF3, size: 0x8, addend: 0x0, symName: __RINvNtCsaNl6UpbT7bw_4core3ptr13drop_in_placeINtNtCsiTraAjBDcu4_5alloc3vec3VecNtCshnvkK9b4wzu_11proc_macro25IdentEECsaeTzLhAkejc_12tokio_macros, symObjAddr: 0xB30, symBinAddr: 0x7450, symSize: 0x5C }
  - { offset: 0x1AC22, size: 0x8, addend: 0x0, symName: __RINvNtCsaNl6UpbT7bw_4core3ptr13drop_in_placeINtNtCsiTraAjBDcu4_5alloc3vec3VecNtNtCsc29TF2YcYso_3syn4attr4MetaEECsaeTzLhAkejc_12tokio_macros, symObjAddr: 0xB8C, symBinAddr: 0x74AC, symSize: 0x5C }
  - { offset: 0x1AC51, size: 0x8, addend: 0x0, symName: __RINvNtCsaNl6UpbT7bw_4core3ptr13drop_in_placeINtNtCsiTraAjBDcu4_5alloc3vec3VecTNtNtCsc29TF2YcYso_3syn4attr4MetaNtNtB1i_5token5CommaEEECsaeTzLhAkejc_12tokio_macros, symObjAddr: 0xBE8, symBinAddr: 0x7508, symSize: 0x5C }
  - { offset: 0x1AC80, size: 0x8, addend: 0x0, symName: __RINvNtCsaNl6UpbT7bw_4core3ptr13drop_in_placeINtNtCsiTraAjBDcu4_5alloc5boxed3BoxDNtNtB4_5error5ErrorNtNtB4_6marker4SyncNtB1B_4SendEL_EECsaeTzLhAkejc_12tokio_macros, symObjAddr: 0xC44, symBinAddr: 0x7564, symSize: 0x80 }
  - { offset: 0x1ACAF, size: 0x8, addend: 0x0, symName: __RINvNtCsaNl6UpbT7bw_4core3ptr13drop_in_placeINtNtCsiTraAjBDcu4_5alloc5boxed3BoxINtNtCsc29TF2YcYso_3syn5drops6NoDropDINtNtB1k_10punctuated12IterMutTraitNtNtB1k_3pat3PatEp4ItemQB2p_EL_EEECsaeTzLhAkejc_12tokio_macros, symObjAddr: 0xCC4, symBinAddr: 0x75E4, symSize: 0x2C }
  - { offset: 0x1ACDE, size: 0x8, addend: 0x0, symName: __RINvNtCsaNl6UpbT7bw_4core3ptr13drop_in_placeINtNtCsiTraAjBDcu4_5alloc5boxed3BoxINtNtCsc29TF2YcYso_3syn5drops6NoDropDINtNtB1k_10punctuated12IterMutTraitNtNtB1k_3pat8FieldPatEp4ItemQB2p_EL_EEECsaeTzLhAkejc_12tokio_macros, symObjAddr: 0xCF0, symBinAddr: 0x7610, symSize: 0x2C }
  - { offset: 0x1AD0D, size: 0x8, addend: 0x0, symName: __RINvNtCsaNl6UpbT7bw_4core3ptr13drop_in_placeINtNtCsiTraAjBDcu4_5alloc5boxed3BoxNtNtCsc29TF2YcYso_3syn4attr4MetaEECsaeTzLhAkejc_12tokio_macros, symObjAddr: 0xD1C, symBinAddr: 0x763C, symSize: 0x60 }
  - { offset: 0x1AD3C, size: 0x8, addend: 0x0, symName: __RINvNtCsaNl6UpbT7bw_4core3ptr13drop_in_placeINtNtCsiTraAjBDcu4_5alloc5boxed3BoxNtNtNtCsht3nMU9UgFu_3std2io5error6CustomEECsaeTzLhAkejc_12tokio_macros, symObjAddr: 0xD7C, symBinAddr: 0x769C, symSize: 0x60 }
  - { offset: 0x1AD6B, size: 0x8, addend: 0x0, symName: __RINvNtCsaNl6UpbT7bw_4core3ptr13drop_in_placeINtNtCsiTraAjBDcu4_5alloc7raw_vec6RawVecNtCshnvkK9b4wzu_11proc_macro211TokenStreamEECsaeTzLhAkejc_12tokio_macros, symObjAddr: 0xDDC, symBinAddr: 0x76FC, symSize: 0x24 }
  - { offset: 0x1AD9A, size: 0x8, addend: 0x0, symName: __RINvNtCsaNl6UpbT7bw_4core3ptr13drop_in_placeINtNtCsiTraAjBDcu4_5alloc7raw_vec6RawVecNtCshnvkK9b4wzu_11proc_macro25IdentEECsaeTzLhAkejc_12tokio_macros, symObjAddr: 0xE00, symBinAddr: 0x7720, symSize: 0x24 }
  - { offset: 0x1ADC9, size: 0x8, addend: 0x0, symName: __RINvNtCsaNl6UpbT7bw_4core3ptr13drop_in_placeINtNtCsiTraAjBDcu4_5alloc7raw_vec6RawVecNtNtCsc29TF2YcYso_3syn4attr4MetaEECsaeTzLhAkejc_12tokio_macros, symObjAddr: 0xE24, symBinAddr: 0x7744, symSize: 0x24 }
  - { offset: 0x1ADF8, size: 0x8, addend: 0x0, symName: __RINvNtCsaNl6UpbT7bw_4core3ptr13drop_in_placeINtNtCsiTraAjBDcu4_5alloc7raw_vec6RawVecTNtNtCsc29TF2YcYso_3syn4attr4MetaNtNtB1p_5token5CommaEEECsaeTzLhAkejc_12tokio_macros, symObjAddr: 0xE48, symBinAddr: 0x7768, symSize: 0x24 }
  - { offset: 0x1AE27, size: 0x8, addend: 0x0, symName: __RINvNtCsaNl6UpbT7bw_4core3ptr13drop_in_placeINtNtNtB4_5array4iter8IntoIterARej4_Kj2_EECsaeTzLhAkejc_12tokio_macros, symObjAddr: 0xE6C, symBinAddr: 0x778C, symSize: 0x5C }
  - { offset: 0x1AE56, size: 0x8, addend: 0x0, symName: __RINvNtCsaNl6UpbT7bw_4core3ptr13drop_in_placeINtNtNtB4_5array4iter8IntoIterReKj4_EECsaeTzLhAkejc_12tokio_macros, symObjAddr: 0xEC8, symBinAddr: 0x77E8, symSize: 0x5C }
  - { offset: 0x1AE85, size: 0x8, addend: 0x0, symName: __RINvNtCsaNl6UpbT7bw_4core3ptr13drop_in_placeINtNtNtCsht3nMU9UgFu_3std2io5error9ErrorDataINtNtCsiTraAjBDcu4_5alloc5boxed3BoxNtBJ_6CustomEEECsaeTzLhAkejc_12tokio_macros, symObjAddr: 0xF24, symBinAddr: 0x7844, symSize: 0x48 }
  - { offset: 0x1AEB4, size: 0x8, addend: 0x0, symName: __RINvNtCsaNl6UpbT7bw_4core3ptr13drop_in_placeINtNtNtCsiTraAjBDcu4_5alloc3vec9into_iter8IntoIterNtNtCsc29TF2YcYso_3syn4attr4MetaEECsaeTzLhAkejc_12tokio_macros, symObjAddr: 0xF6C, symBinAddr: 0x788C, symSize: 0x24 }
  - { offset: 0x1AEE3, size: 0x8, addend: 0x0, symName: __RINvNtCsaNl6UpbT7bw_4core3ptr13drop_in_placeINtNtNtCsiTraAjBDcu4_5alloc3vec9into_iter8IntoIterTNtNtCsc29TF2YcYso_3syn4attr4MetaNtNtB1z_5token5CommaEEECsaeTzLhAkejc_12tokio_macros, symObjAddr: 0xF90, symBinAddr: 0x78B0, symSize: 0x24 }
  - { offset: 0x1AF12, size: 0x8, addend: 0x0, symName: __RINvNtCsaNl6UpbT7bw_4core3ptr13drop_in_placeINtNtNtNtB4_4iter8adapters3map3MapINtNtNtCsiTraAjBDcu4_5alloc3vec9into_iter8IntoIterTNtNtCsc29TF2YcYso_3syn4attr4MetaNtNtB27_5token5CommaEENCNvXs8_NtB27_10punctuatedINtB33_10PunctuatedB23_B2z_ENtNtNtBN_6traits7collect12IntoIterator9into_iter0EECsaeTzLhAkejc_12tokio_macros, symObjAddr: 0xFB4, symBinAddr: 0x78D4, symSize: 0x24 }
  - { offset: 0x1AF41, size: 0x8, addend: 0x0, symName: __RINvNtCsaNl6UpbT7bw_4core3ptr13drop_in_placeINtNtNtNtB4_4iter8adapters3zip3ZipINtNtCsc29TF2YcYso_3syn10punctuated4IterNtNtB1j_4path11PathSegmentEINtNtNtB4_5array4iter8IntoIterReKj4_EEECsaeTzLhAkejc_12tokio_macros, symObjAddr: 0xFD8, symBinAddr: 0x78F8, symSize: 0x60 }
  - { offset: 0x1AF70, size: 0x8, addend: 0x0, symName: __RINvNtCsaNl6UpbT7bw_4core3ptr13drop_in_placeINtNtNtNtB4_4iter8adapters7flatten13FlattenCompatINtNtBL_3map3MapIB1u_IB1u_INtNtBL_3zip3ZipINtNtNtB4_5slice4iter4IterNtCshnvkK9b4wzu_11proc_macro211TokenStreamEIB2a_ReEENCNvNtCsaeTzLhAkejc_12tokio_macros5entry11parse_knobss1_0ENCINvXs7_B2B_B2z_INtNtNtBN_6traits7collect12FromIteratorB2z_E9from_iterB1O_E0ENCINvXs6_NtB2B_3impNtB5K_11TokenStreamIB4D_B5U_E9from_iterB1J_Es_0EINtNtB2B_5rcvec13RcVecIntoIterNtB2B_9TokenTreeEEEB3v_, symObjAddr: 0x1038, symBinAddr: 0x7958, symSize: 0x60 }
  - { offset: 0x1AF9F, size: 0x8, addend: 0x0, symName: __RINvNtCsaNl6UpbT7bw_4core3ptr13drop_in_placeINtNtNtNtB4_4iter8adapters7flatten7FlattenINtNtBL_3map3MapIB1n_IB1n_INtNtBL_3zip3ZipINtNtNtB4_5slice4iter4IterNtCshnvkK9b4wzu_11proc_macro211TokenStreamEIB23_ReEENCNvNtCsaeTzLhAkejc_12tokio_macros5entry11parse_knobss1_0ENCINvXs7_B2u_B2s_INtNtNtBN_6traits7collect12FromIteratorB2s_E9from_iterB1H_E0ENCINvXs6_NtB2u_3impNtB5D_11TokenStreamIB4w_B5N_E9from_iterB1C_Es_0EEEB3o_, symObjAddr: 0x1098, symBinAddr: 0x79B8, symSize: 0x24 }
  - { offset: 0x1AFCE, size: 0x8, addend: 0x0, symName: __RINvNtCsaNl6UpbT7bw_4core3ptr13drop_in_placeINtNtNtNtB4_5array4iter10iter_inner15PolymorphicIterAINtNtNtB4_3mem12maybe_uninit11MaybeUninitARej4_Ej2_EECsaeTzLhAkejc_12tokio_macros, symObjAddr: 0x10BC, symBinAddr: 0x79DC, symSize: 0x24 }
  - { offset: 0x1AFFD, size: 0x8, addend: 0x0, symName: __RINvNtCsaNl6UpbT7bw_4core3ptr13drop_in_placeINtNtNtNtB4_5array4iter10iter_inner15PolymorphicIterAINtNtNtB4_3mem12maybe_uninit11MaybeUninitReEj4_EECsaeTzLhAkejc_12tokio_macros, symObjAddr: 0x10E0, symBinAddr: 0x7A00, symSize: 0x24 }
  - { offset: 0x1B02C, size: 0x8, addend: 0x0, symName: __RINvNtCsaNl6UpbT7bw_4core3ptr13drop_in_placeINtNvXsd_NtNtCsiTraAjBDcu4_5alloc3vec9into_iterINtBP_8IntoIterppENtNtNtB4_3ops4drop4Drop4drop9DropGuardNtNtCsc29TF2YcYso_3syn4attr4MetaNtNtBT_5alloc6GlobalEECsaeTzLhAkejc_12tokio_macros, symObjAddr: 0x1104, symBinAddr: 0x7A24, symSize: 0x24 }
  - { offset: 0x1B05B, size: 0x8, addend: 0x0, symName: __RINvNtCsaNl6UpbT7bw_4core3ptr13drop_in_placeINtNvXsd_NtNtCsiTraAjBDcu4_5alloc3vec9into_iterINtBP_8IntoIterppENtNtNtB4_3ops4drop4Drop4drop9DropGuardTNtNtCsc29TF2YcYso_3syn4attr4MetaNtNtB2q_5token5CommaENtNtBT_5alloc6GlobalEECsaeTzLhAkejc_12tokio_macros, symObjAddr: 0x1128, symBinAddr: 0x7A48, symSize: 0x24 }
  - { offset: 0x1B08A, size: 0x8, addend: 0x0, symName: __RINvNtCsaNl6UpbT7bw_4core3ptr13drop_in_placeNCINvMsi_NtCsiTraAjBDcu4_5alloc3vecINtBP_3VecNtCshnvkK9b4wzu_11proc_macro25IdentE14extend_trustedINtNtNtNtB4_4iter8adapters3map3MapINtNtNtB4_3ops5range5RangejENCNvNtCsaeTzLhAkejc_12tokio_macros6select19declare_output_enum0EE0EB3l_, symObjAddr: 0x114C, symBinAddr: 0x7A6C, symSize: 0x24 }
  - { offset: 0x1B0B9, size: 0x8, addend: 0x0, symName: __RINvNtCsaNl6UpbT7bw_4core3ptr13drop_in_placeNCINvMsi_NtCsiTraAjBDcu4_5alloc3vecINtBP_3VecNtNtCsc29TF2YcYso_3syn4attr4MetaE14extend_trustedINtNtB4_6option8IntoIterB1p_EE0ECsaeTzLhAkejc_12tokio_macros, symObjAddr: 0x1170, symBinAddr: 0x7A90, symSize: 0x24 }
  - { offset: 0x1B0E8, size: 0x8, addend: 0x0, symName: __RINvNtCsaNl6UpbT7bw_4core3ptr13drop_in_placeNCINvMsi_NtCsiTraAjBDcu4_5alloc3vecINtBP_3VecNtNtCsc29TF2YcYso_3syn4attr4MetaE14extend_trustedINtNtNtNtB4_4iter8adapters3map3MapINtNtBP_9into_iter8IntoIterTB1p_NtNtB1t_5token5CommaEENCNvXs8_NtB1t_10punctuatedINtB3K_10PunctuatedB1p_B3g_ENtNtNtB2j_6traits7collect12IntoIterator9into_iter0EE0ECsaeTzLhAkejc_12tokio_macros, symObjAddr: 0x1194, symBinAddr: 0x7AB4, symSize: 0x24 }
  - { offset: 0x1B117, size: 0x8, addend: 0x0, symName: __RINvNtCsaNl6UpbT7bw_4core3ptr13drop_in_placeNCINvNtNtNtB4_4iter8adapters3map8map_foldTNtNtCsc29TF2YcYso_3syn4attr4MetaNtNtB1q_5token5CommaEB1m_uNCNvXs8_NtB1q_10punctuatedINtB2q_10PunctuatedB1m_B1S_ENtNtNtBP_6traits7collect12IntoIterator9into_iter0NCINvNvNtNtB3e_8iterator8Iterator8for_each4callB1m_NCINvMsi_NtCsiTraAjBDcu4_5alloc3vecINtB4V_3VecB1m_E14extend_trustedINtBL_3MapINtNtB4V_9into_iter8IntoIterB1l_EB2i_EE0E0E0ECsaeTzLhAkejc_12tokio_macros, symObjAddr: 0x11B8, symBinAddr: 0x7AD8, symSize: 0x24 }
  - { offset: 0x1B146, size: 0x8, addend: 0x0, symName: __RINvNtCsaNl6UpbT7bw_4core3ptr13drop_in_placeNCINvNtNtNtB4_4iter8adapters3map8map_foldjNtCshnvkK9b4wzu_11proc_macro25IdentuNCNvNtCsaeTzLhAkejc_12tokio_macros6select19declare_output_enum0NCINvNvNtNtNtBP_6traits8iterator8Iterator8for_each4callB1m_NCINvMsi_NtCsiTraAjBDcu4_5alloc3vecINtB43_3VecB1m_E14extend_trustedINtBL_3MapINtNtNtB4_3ops5range5RangejEB1W_EE0E0E0EB22_, symObjAddr: 0x11DC, symBinAddr: 0x7AFC, symSize: 0x24 }
  - { offset: 0x1B175, size: 0x8, addend: 0x0, symName: __RINvNtCsaNl6UpbT7bw_4core3ptr13drop_in_placeNCINvNvNtNtNtNtB4_4iter6traits8iterator8Iterator8for_each4callNtCshnvkK9b4wzu_11proc_macro25IdentNCINvMsi_NtCsiTraAjBDcu4_5alloc3vecINtB2o_3VecB1G_E14extend_trustedINtNtNtBT_8adapters3map3MapINtNtNtB4_3ops5range5RangejENCNvNtCsaeTzLhAkejc_12tokio_macros6select19declare_output_enum0EE0E0EB4j_, symObjAddr: 0x1200, symBinAddr: 0x7B20, symSize: 0x24 }
  - { offset: 0x1B1A4, size: 0x8, addend: 0x0, symName: __RINvNtCsaNl6UpbT7bw_4core3ptr13drop_in_placeNCINvNvNtNtNtNtB4_4iter6traits8iterator8Iterator8for_each4callNtNtCsc29TF2YcYso_3syn4attr4MetaNCINvMsi_NtCsiTraAjBDcu4_5alloc3vecINtB2l_3VecB1G_E14extend_trustedINtNtB4_6option8IntoIterB1G_EE0E0ECsaeTzLhAkejc_12tokio_macros, symObjAddr: 0x1224, symBinAddr: 0x7B44, symSize: 0x24 }
  - { offset: 0x1B1D3, size: 0x8, addend: 0x0, symName: __RINvNtCsaNl6UpbT7bw_4core3ptr13drop_in_placeNCINvNvNtNtNtNtB4_4iter6traits8iterator8Iterator8for_each4callNtNtCsc29TF2YcYso_3syn4attr4MetaNCINvMsi_NtCsiTraAjBDcu4_5alloc3vecINtB2l_3VecB1G_E14extend_trustedINtNtNtBT_8adapters3map3MapINtNtB2l_9into_iter8IntoIterTB1G_NtNtB1K_5token5CommaEENCNvXs8_NtB1K_10punctuatedINtB4J_10PunctuatedB1G_B4f_ENtNtBR_7collect12IntoIterator9into_iter0EE0E0ECsaeTzLhAkejc_12tokio_macros, symObjAddr: 0x1248, symBinAddr: 0x7B68, symSize: 0x24 }
  - { offset: 0x1B202, size: 0x8, addend: 0x0, symName: __RINvNtCsaNl6UpbT7bw_4core3ptr13drop_in_placeNCNCINvNtNtCs7yrEGia95Wz_10proc_macro6bridge6client10run_clientNtBN_11TokenStreamINtNtB4_6option6OptionB1H_ENCNCINvMs6_BN_INtBN_6ClientNtBR_11TokenStreamB2R_E7expand1NvCsaeTzLhAkejc_12tokio_macros25select_priv_clean_patternE00E00EB3o_, symObjAddr: 0x126C, symBinAddr: 0x7B8C, symSize: 0x24 }
  - { offset: 0x1B231, size: 0x8, addend: 0x0, symName: __RINvNtCsaNl6UpbT7bw_4core3ptr13drop_in_placeNCNCINvNtNtCs7yrEGia95Wz_10proc_macro6bridge6client10run_clientNtBN_11TokenStreamINtNtB4_6option6OptionB1H_ENCNCINvMs6_BN_INtBN_6ClientNtBR_11TokenStreamB2R_E7expand1NvCsaeTzLhAkejc_12tokio_macros31select_priv_declare_output_enumE00E00EB3o_, symObjAddr: 0x1290, symBinAddr: 0x7BB0, symSize: 0x24 }
  - { offset: 0x1B260, size: 0x8, addend: 0x0, symName: __RINvNtCsaNl6UpbT7bw_4core3ptr13drop_in_placeNCNCINvNtNtCs7yrEGia95Wz_10proc_macro6bridge6client10run_clientTNtBN_11TokenStreamB1I_EINtNtB4_6option6OptionB1I_ENCNCINvMs7_BN_INtBN_6ClientTNtBR_11TokenStreamB2Y_EB2Y_E7expand2NvCsaeTzLhAkejc_12tokio_macros4mainE00E00EB3A_, symObjAddr: 0x12B4, symBinAddr: 0x7BD4, symSize: 0x24 }
  - { offset: 0x1B28F, size: 0x8, addend: 0x0, symName: __RINvNtCsaNl6UpbT7bw_4core3ptr13drop_in_placeNCNCINvNtNtCs7yrEGia95Wz_10proc_macro6bridge6client10run_clientTNtBN_11TokenStreamB1I_EINtNtB4_6option6OptionB1I_ENCNCINvMs7_BN_INtBN_6ClientTNtBR_11TokenStreamB2Y_EB2Y_E7expand2NvCsaeTzLhAkejc_12tokio_macros4testE00E00EB3A_, symObjAddr: 0x12D8, symBinAddr: 0x7BF8, symSize: 0x24 }
  - { offset: 0x1B2BE, size: 0x8, addend: 0x0, symName: __RINvNtCsaNl6UpbT7bw_4core3ptr13drop_in_placeNCNCINvNtNtCs7yrEGia95Wz_10proc_macro6bridge6client10run_clientTNtBN_11TokenStreamB1I_EINtNtB4_6option6OptionB1I_ENCNCINvMs7_BN_INtBN_6ClientTNtBR_11TokenStreamB2Y_EB2Y_E7expand2NvCsaeTzLhAkejc_12tokio_macros7main_rtE00E00EB3A_, symObjAddr: 0x12FC, symBinAddr: 0x7C1C, symSize: 0x24 }
  - { offset: 0x1B2ED, size: 0x8, addend: 0x0, symName: __RINvNtCsaNl6UpbT7bw_4core3ptr13drop_in_placeNCNCINvNtNtCs7yrEGia95Wz_10proc_macro6bridge6client10run_clientTNtBN_11TokenStreamB1I_EINtNtB4_6option6OptionB1I_ENCNCINvMs7_BN_INtBN_6ClientTNtBR_11TokenStreamB2Y_EB2Y_E7expand2NvCsaeTzLhAkejc_12tokio_macros7test_rtE00E00EB3A_, symObjAddr: 0x1320, symBinAddr: 0x7C40, symSize: 0x24 }
  - { offset: 0x1B31C, size: 0x8, addend: 0x0, symName: __RINvNtCsaNl6UpbT7bw_4core3ptr13drop_in_placeNCNCINvNtNtCs7yrEGia95Wz_10proc_macro6bridge6client10run_clientTNtBN_11TokenStreamB1I_EINtNtB4_6option6OptionB1I_ENCNCINvMs7_BN_INtBN_6ClientTNtBR_11TokenStreamB2Y_EB2Y_E7expand2NvCsaeTzLhAkejc_12tokio_macros9main_failE00E00EB3A_, symObjAddr: 0x1344, symBinAddr: 0x7C64, symSize: 0x24 }
  - { offset: 0x1B34B, size: 0x8, addend: 0x0, symName: __RINvNtCsaNl6UpbT7bw_4core3ptr13drop_in_placeNCNCINvNtNtCs7yrEGia95Wz_10proc_macro6bridge6client10run_clientTNtBN_11TokenStreamB1I_EINtNtB4_6option6OptionB1I_ENCNCINvMs7_BN_INtBN_6ClientTNtBR_11TokenStreamB2Y_EB2Y_E7expand2NvCsaeTzLhAkejc_12tokio_macros9test_failE00E00EB3A_, symObjAddr: 0x1368, symBinAddr: 0x7C88, symSize: 0x24 }
  - { offset: 0x1B37A, size: 0x8, addend: 0x0, symName: __RINvNtCsaNl6UpbT7bw_4core3ptr13drop_in_placeNtNtCsaeTzLhAkejc_12tokio_macros5entry11FinalConfigEBK_, symObjAddr: 0x138C, symBinAddr: 0x7CAC, symSize: 0x24 }
  - { offset: 0x1B3A9, size: 0x8, addend: 0x0, symName: __RINvNtCsaNl6UpbT7bw_4core3ptr13drop_in_placeNtNtCsaeTzLhAkejc_12tokio_macros5entry13ConfigurationEBK_, symObjAddr: 0x13B0, symBinAddr: 0x7CD0, symSize: 0x24 }
  - { offset: 0x1B3D8, size: 0x8, addend: 0x0, symName: __RINvNtCsaNl6UpbT7bw_4core3ptr13drop_in_placeNtNtCsaeTzLhAkejc_12tokio_macros5entry6ItemFnEBK_, symObjAddr: 0x13D4, symBinAddr: 0x7CF4, symSize: 0xEC }
  - { offset: 0x1B407, size: 0x8, addend: 0x0, symName: __RINvNtCsaNl6UpbT7bw_4core3ptr13drop_in_placeNtNtNtCs7yrEGia95Wz_10proc_macro6bridge3rpc12PanicMessageECsaeTzLhAkejc_12tokio_macros, symObjAddr: 0x14C0, symBinAddr: 0x7DE0, symSize: 0x50 }
  - { offset: 0x1B436, size: 0x8, addend: 0x0, symName: __RINvNtCsaNl6UpbT7bw_4core3ptr13drop_in_placeNtNtNtCs7yrEGia95Wz_10proc_macro6bridge6buffer6BufferECsaeTzLhAkejc_12tokio_macros, symObjAddr: 0x1510, symBinAddr: 0x7E30, symSize: 0x24 }
  - { offset: 0x1B465, size: 0x8, addend: 0x0, symName: __RINvNtCsaNl6UpbT7bw_4core3ptr13drop_in_placeNtNtNtCs7yrEGia95Wz_10proc_macro6bridge6client6BridgeECsaeTzLhAkejc_12tokio_macros, symObjAddr: 0x1534, symBinAddr: 0x7E54, symSize: 0x24 }
  - { offset: 0x1B494, size: 0x8, addend: 0x0, symName: __RINvNtCsaNl6UpbT7bw_4core3ptr13drop_in_placeNtNtNtCsht3nMU9UgFu_3std2io5error5ErrorECsaeTzLhAkejc_12tokio_macros, symObjAddr: 0x1558, symBinAddr: 0x7E78, symSize: 0x24 }
  - { offset: 0x1B4C3, size: 0x8, addend: 0x0, symName: __RINvNtCsaNl6UpbT7bw_4core3ptr13drop_in_placeNtNtNtCsht3nMU9UgFu_3std2io5error6CustomECsaeTzLhAkejc_12tokio_macros, symObjAddr: 0x157C, symBinAddr: 0x7E9C, symSize: 0x24 }
  - { offset: 0x1B4F2, size: 0x8, addend: 0x0, symName: __RINvNtCsaNl6UpbT7bw_4core3ptr13drop_in_placeNtNtNtNtCsht3nMU9UgFu_3std2io5error14repr_bitpacked4ReprECsaeTzLhAkejc_12tokio_macros, symObjAddr: 0x15A0, symBinAddr: 0x7EC0, symSize: 0x24 }
  - { offset: 0x1B521, size: 0x8, addend: 0x0, symName: __RINvNtCsaNl6UpbT7bw_4core3ptr13drop_in_placeNtNvNtNtNtCs7yrEGia95Wz_10proc_macro6bridge6client5state3set13RestoreOnDropECsaeTzLhAkejc_12tokio_macros, symObjAddr: 0x15C4, symBinAddr: 0x7EE4, symSize: 0x24 }
  - { offset: 0x1B550, size: 0x8, addend: 0x0, symName: __RINvNtCsaNl6UpbT7bw_4core3ptr13drop_in_placeSNtCshnvkK9b4wzu_11proc_macro211TokenStreamECsaeTzLhAkejc_12tokio_macros, symObjAddr: 0x15E8, symBinAddr: 0x7F08, symSize: 0xB4 }
  - { offset: 0x1B57F, size: 0x8, addend: 0x0, symName: __RINvNtCsaNl6UpbT7bw_4core3ptr13drop_in_placeSNtCshnvkK9b4wzu_11proc_macro25IdentECsaeTzLhAkejc_12tokio_macros, symObjAddr: 0x169C, symBinAddr: 0x7FBC, symSize: 0xC4 }
  - { offset: 0x1B5AE, size: 0x8, addend: 0x0, symName: __RINvNtCsaNl6UpbT7bw_4core3ptr13drop_in_placeSNtNtCsc29TF2YcYso_3syn4attr4MetaECsaeTzLhAkejc_12tokio_macros, symObjAddr: 0x1760, symBinAddr: 0x8080, symSize: 0xC4 }
  - { offset: 0x1B5DD, size: 0x8, addend: 0x0, symName: __RINvNtCsaNl6UpbT7bw_4core3ptr13drop_in_placeSTNtNtCsc29TF2YcYso_3syn4attr4MetaNtNtBM_5token5CommaEECsaeTzLhAkejc_12tokio_macros, symObjAddr: 0x1824, symBinAddr: 0x8144, symSize: 0xC4 }
  - { offset: 0x1B60C, size: 0x8, addend: 0x0, symName: __RINvNtCsaNl6UpbT7bw_4core3ptr13drop_in_placeTNtNtCsc29TF2YcYso_3syn4attr4MetaNtNtBL_5token5CommaEECsaeTzLhAkejc_12tokio_macros, symObjAddr: 0x18E8, symBinAddr: 0x8208, symSize: 0x24 }
  - { offset: 0x1B63B, size: 0x8, addend: 0x0, symName: __RINvNtCsaNl6UpbT7bw_4core3ptr13drop_in_placeTNtNtNtCs7yrEGia95Wz_10proc_macro6bridge6client11TokenStreamBH_EECsaeTzLhAkejc_12tokio_macros, symObjAddr: 0x190C, symBinAddr: 0x822C, symSize: 0x60 }
  - { offset: 0x1BB6B, size: 0x8, addend: 0x0, symName: __RNvNvNtCsaNl6UpbT7bw_4core3ptr19copy_nonoverlapping18precondition_checkCsaeTzLhAkejc_12tokio_macros, symObjAddr: 0x3350, symBinAddr: 0x9C70, symSize: 0x36C }
  - { offset: 0x1BE7E, size: 0x8, addend: 0x0, symName: __RINvMNtCsaNl6UpbT7bw_4core3stre5parsejECsaeTzLhAkejc_12tokio_macros, symObjAddr: 0x0, symBinAddr: 0x6968, symSize: 0x28 }
  - { offset: 0x1BEB5, size: 0x8, addend: 0x0, symName: __RNvMNtCsaNl6UpbT7bw_4core3stre8is_emptyCsaeTzLhAkejc_12tokio_macros, symObjAddr: 0x2A40, symBinAddr: 0x9360, symSize: 0x1C }
  - { offset: 0x1BF0A, size: 0x8, addend: 0x0, symName: __RNvXs_NtNtCsaNl6UpbT7bw_4core3str6traitseNtNtB8_3cmp9PartialEq2eqCsaeTzLhAkejc_12tokio_macros, symObjAddr: 0x4628, symBinAddr: 0xAF48, symSize: 0x64 }
  - { offset: 0x1CD8F, size: 0x8, addend: 0x0, symName: __RINvYINtNtNtCsaNl6UpbT7bw_4core3ops5range5RangejENtNtNtNtBa_4iter6traits8iterator8Iterator3mapNtCshnvkK9b4wzu_11proc_macro25IdentNCNvNtCsaeTzLhAkejc_12tokio_macros6select19declare_output_enum0EB29_, symObjAddr: 0x25B0, symBinAddr: 0x8ED0, symSize: 0x14 }
  - { offset: 0x1CDE7, size: 0x8, addend: 0x0, symName: __RINvYINtNtNtCsaNl6UpbT7bw_4core3ops5range5RangejENtNtNtNtBa_4iter6traits8iterator8Iterator4folduNCINvNtNtBR_8adapters3map8map_foldjNtCshnvkK9b4wzu_11proc_macro25IdentuNCNvNtCsaeTzLhAkejc_12tokio_macros6select19declare_output_enum0NCINvNvBL_8for_each4callB25_NCINvMsi_NtCsiTraAjBDcu4_5alloc3vecINtB4h_3VecB25_E14extend_trustedINtB1B_3MapB3_B2F_EE0E0E0EB2L_, symObjAddr: 0x25C4, symBinAddr: 0x8EE4, symSize: 0xDC }
  - { offset: 0x1CE77, size: 0x8, addend: 0x0, symName: __RINvYINtNtNtCsiTraAjBDcu4_5alloc3vec9into_iter8IntoIterTNtNtCsc29TF2YcYso_3syn4attr4MetaNtNtBW_5token5CommaEENtNtNtNtCsaNl6UpbT7bw_4core4iter6traits8iterator8Iterator3mapBS_NCNvXs8_NtBW_10punctuatedINtB2T_10PunctuatedBS_B1o_ENtNtB1N_7collect12IntoIterator9into_iter0ECsaeTzLhAkejc_12tokio_macros, symObjAddr: 0x26A0, symBinAddr: 0x8FC0, symSize: 0x1C }
  - { offset: 0x1CEE4, size: 0x8, addend: 0x0, symName: __RINvYNtNtCshnvkK9b4wzu_11proc_macro212token_stream8IntoIterNtNtNtNtCsaNl6UpbT7bw_4core4iter6traits8iterator8Iterator4folduNCINvNvBV_8for_each4callNtB7_9TokenTreeNCINvXsa_NtB7_8fallbackNtB2I_11TokenStreamINtNtBZ_7collect6ExtendB2k_E6extendNtB7_11TokenStreamE0E0ECsaeTzLhAkejc_12tokio_macros, symObjAddr: 0x26BC, symBinAddr: 0x8FDC, symSize: 0x108 }
  - { offset: 0x1CF75, size: 0x8, addend: 0x0, symName: __RINvYNtNtCshnvkK9b4wzu_11proc_macro212token_stream8IntoIterNtNtNtNtCsaNl6UpbT7bw_4core4iter6traits8iterator8Iterator8for_eachNCINvXsa_NtB7_8fallbackNtB28_11TokenStreamINtNtBZ_7collect6ExtendNtB7_9TokenTreeE6extendNtB7_11TokenStreamE0ECsaeTzLhAkejc_12tokio_macros, symObjAddr: 0x27C4, symBinAddr: 0x90E4, symSize: 0x24 }
  - { offset: 0x1D075, size: 0x8, addend: 0x0, symName: __RNvYINtNtNtCsiTraAjBDcu4_5alloc3vec9into_iter8IntoIterNtNtCsc29TF2YcYso_3syn4attr4MetaENtNtNtNtCsaNl6UpbT7bw_4core4iter6traits10exact_size17ExactSizeIterator3lenCsaeTzLhAkejc_12tokio_macros, symObjAddr: 0x4830, symBinAddr: 0xB150, symSize: 0xC4 }
  - { offset: 0x1D170, size: 0x8, addend: 0x0, symName: __RNvYINtNtNtCsiTraAjBDcu4_5alloc3vec9into_iter8IntoIterTNtNtCsc29TF2YcYso_3syn4attr4MetaNtNtBV_5token5CommaEENtNtNtNtCsaNl6UpbT7bw_4core4iter6traits10exact_size17ExactSizeIterator3lenCsaeTzLhAkejc_12tokio_macros, symObjAddr: 0x48F4, symBinAddr: 0xB214, symSize: 0xC4 }
  - { offset: 0x1D52C, size: 0x8, addend: 0x0, symName: __RNvXs3_NtNtCsaNl6UpbT7bw_4core4iter5rangeINtNtNtB9_3ops5range5RangejENtB5_17RangeIteratorImpl9spec_nextCsaeTzLhAkejc_12tokio_macros, symObjAddr: 0x3BDC, symBinAddr: 0xA4FC, symSize: 0x94 }
  - { offset: 0x1D5AD, size: 0x8, addend: 0x0, symName: __RNvXs4_NtNtCsaNl6UpbT7bw_4core4iter5rangeINtNtNtB9_3ops5range5RangejENtNtNtB7_6traits8iterator8Iterator4nextCsaeTzLhAkejc_12tokio_macros, symObjAddr: 0x3F10, symBinAddr: 0xA830, symSize: 0x24 }
  - { offset: 0x1D5E4, size: 0x8, addend: 0x0, symName: __RNvXs4_NtNtCsaNl6UpbT7bw_4core4iter5rangeINtNtNtB9_3ops5range5RangejENtNtNtB7_6traits8iterator8Iterator9size_hintCsaeTzLhAkejc_12tokio_macros, symObjAddr: 0x3F34, symBinAddr: 0xA854, symSize: 0x88 }
  - { offset: 0x1D647, size: 0x8, addend: 0x0, symName: __RNvXsF_NtNtCsaNl6UpbT7bw_4core4iter5rangejNtB5_4Step13steps_betweenCsaeTzLhAkejc_12tokio_macros, symObjAddr: 0x44C4, symBinAddr: 0xADE4, symSize: 0x9C }
  - { offset: 0x1D6A2, size: 0x8, addend: 0x0, symName: __RNvXsF_NtNtCsaNl6UpbT7bw_4core4iter5rangejNtB5_4Step17forward_uncheckedCsaeTzLhAkejc_12tokio_macros, symObjAddr: 0x4560, symBinAddr: 0xAE80, symSize: 0x50 }
  - { offset: 0x1D70E, size: 0x8, addend: 0x0, symName: __RNvMNtCsaNl6UpbT7bw_4core5sliceSNtCshnvkK9b4wzu_11proc_macro211TokenStream4iterCsaeTzLhAkejc_12tokio_macros, symObjAddr: 0x2A5C, symBinAddr: 0x937C, symSize: 0x28 }
  - { offset: 0x1D745, size: 0x8, addend: 0x0, symName: __RNvMNtCsaNl6UpbT7bw_4core5sliceSNtCshnvkK9b4wzu_11proc_macro211TokenStream4lastCsaeTzLhAkejc_12tokio_macros, symObjAddr: 0x2A84, symBinAddr: 0x93A4, symSize: 0x50 }
  - { offset: 0x1D792, size: 0x8, addend: 0x0, symName: __RNvMNtCsaNl6UpbT7bw_4core5sliceSNtCshnvkK9b4wzu_11proc_macro25Ident4iterCsaeTzLhAkejc_12tokio_macros, symObjAddr: 0x2AD4, symBinAddr: 0x93F4, symSize: 0x28 }
  - { offset: 0x1D7C9, size: 0x8, addend: 0x0, symName: __RNvMNtCsaNl6UpbT7bw_4core5sliceSTNtNtCsc29TF2YcYso_3syn3pat3PatNtNtBz_5token2OrE8iter_mutCsaeTzLhAkejc_12tokio_macros, symObjAddr: 0x2AFC, symBinAddr: 0x941C, symSize: 0x28 }
  - { offset: 0x1D800, size: 0x8, addend: 0x0, symName: __RNvMNtCsaNl6UpbT7bw_4core5sliceSTNtNtCsc29TF2YcYso_3syn3pat3PatNtNtBz_5token5CommaE8iter_mutCsaeTzLhAkejc_12tokio_macros, symObjAddr: 0x2B24, symBinAddr: 0x9444, symSize: 0x28 }
  - { offset: 0x1D837, size: 0x8, addend: 0x0, symName: __RNvMNtCsaNl6UpbT7bw_4core5sliceSTNtNtCsc29TF2YcYso_3syn3pat8FieldPatNtNtBz_5token5CommaE8iter_mutCsaeTzLhAkejc_12tokio_macros, symObjAddr: 0x2B4C, symBinAddr: 0x946C, symSize: 0x28 }
  - { offset: 0x1D8A5, size: 0x8, addend: 0x0, symName: __RNvNvXs0_NtNtCsaNl6UpbT7bw_4core5slice5indexjINtB7_10SliceIndexSpE13get_unchecked18precondition_checkCsaeTzLhAkejc_12tokio_macros, symObjAddr: 0x36BC, symBinAddr: 0x9FDC, symSize: 0xAC }
  - { offset: 0x1D919, size: 0x8, addend: 0x0, symName: __RNvNvXs1_NtNtCsaNl6UpbT7bw_4core5slice5indexNtNtNtBb_3ops11index_range10IndexRangeINtB7_10SliceIndexSpE17get_unchecked_mut18precondition_checkCsaeTzLhAkejc_12tokio_macros, symObjAddr: 0x3768, symBinAddr: 0xA088, symSize: 0xAC }
  - { offset: 0x1DA27, size: 0x8, addend: 0x0, symName: __RNvXs_NtNtCsaNl6UpbT7bw_4core5slice4iterRSNtCshnvkK9b4wzu_11proc_macro211TokenStreamNtNtNtNtB8_4iter6traits7collect12IntoIterator9into_iterCsaeTzLhAkejc_12tokio_macros, symObjAddr: 0x468C, symBinAddr: 0xAFAC, symSize: 0x50 }
  - { offset: 0x1DD24, size: 0x8, addend: 0x0, symName: __RNvXs1_NtCsaNl6UpbT7bw_4core7convertNtCshnvkK9b4wzu_11proc_macro211TokenStreamINtB5_4IntoNtCs7yrEGia95Wz_10proc_macro11TokenStreamE4intoCsaeTzLhAkejc_12tokio_macros, symObjAddr: 0x3B90, symBinAddr: 0xA4B0, symSize: 0x14 }
  - { offset: 0x1DE62, size: 0x8, addend: 0x0, symName: __RNvYNCNkNvNtNtNtCs7yrEGia95Wz_10proc_macro6bridge6client5state12BRIDGE_STATE0s_0INtNtNtCsaNl6UpbT7bw_4core3ops8function6FnOnceTINtNtB1n_6option6OptionQIB22_INtNtB1n_4cell4CellPuEEEEE9call_onceCsaeTzLhAkejc_12tokio_macros, symObjAddr: 0x49B8, symBinAddr: 0xB2D8, symSize: 0x4C }
  - { offset: 0x1DEA6, size: 0x8, addend: 0x0, symName: __RNvYNvMNtCsc29TF2YcYso_3syn10punctuatedINtB5_10PunctuatedNtNtB7_4attr4MetaNtNtB7_5token5CommaE16parse_terminatedINtNtNtCsaNl6UpbT7bw_4core3ops8function6FnOnceTRNtNtB7_5parse11ParseBufferEE9call_onceCsaeTzLhAkejc_12tokio_macros, symObjAddr: 0x5104, symBinAddr: 0xBA24, symSize: 0x24 }
  - { offset: 0x1DEEA, size: 0x8, addend: 0x0, symName: __RNvYNvMNtNtCsc29TF2YcYso_3syn3pat7parsingNtB7_3Pat12parse_singleINtNtNtCsaNl6UpbT7bw_4core3ops8function6FnOnceTRNtNtB9_5parse11ParseBufferEE9call_onceCsaeTzLhAkejc_12tokio_macros, symObjAddr: 0x5128, symBinAddr: 0xBA48, symSize: 0x24 }
  - { offset: 0x1DF2E, size: 0x8, addend: 0x0, symName: __RNvYNvMse_CshnvkK9b4wzu_11proc_macro2NtB8_4Span9call_siteINtNtNtCsaNl6UpbT7bw_4core3ops8function6FnOnceuE9call_onceCsaeTzLhAkejc_12tokio_macros, symObjAddr: 0x514C, symBinAddr: 0xBA6C, symSize: 0x1C }
  - { offset: 0x1DF72, size: 0x8, addend: 0x0, symName: __RNvYNvYINtNtCsiTraAjBDcu4_5alloc5boxed3BoxNtNtCsc29TF2YcYso_3syn3pat3PatEINtNtCsaNl6UpbT7bw_4core7convert5AsMutBE_E6as_mutINtNtNtB1e_3ops8function6FnOnceTQB5_EE9call_onceCsaeTzLhAkejc_12tokio_macros, symObjAddr: 0x5168, symBinAddr: 0xBA88, symSize: 0x24 }
  - { offset: 0x1DFB6, size: 0x8, addend: 0x0, symName: __RNvYNvYINtNtCsiTraAjBDcu4_5alloc5boxed3BoxNtNtCsc29TF2YcYso_3syn3pat8FieldPatEINtNtCsaNl6UpbT7bw_4core7convert5AsMutBE_E6as_mutINtNtNtB1j_3ops8function6FnOnceTQB5_EE9call_onceCsaeTzLhAkejc_12tokio_macros, symObjAddr: 0x518C, symBinAddr: 0xBAAC, symSize: 0x24 }
  - { offset: 0x1DFFA, size: 0x8, addend: 0x0, symName: __RNvYNvYNtNtCsaeTzLhAkejc_12tokio_macros5entry6ItemFnNtNtCsc29TF2YcYso_3syn5parse5Parse5parseINtNtNtCsaNl6UpbT7bw_4core3ops8function6FnOnceTRNtBQ_11ParseBufferEE9call_onceB9_, symObjAddr: 0x51B0, symBinAddr: 0xBAD0, symSize: 0x24 }
  - { offset: 0x1E03E, size: 0x8, addend: 0x0, symName: __RNvYNvYNtNtCsc29TF2YcYso_3syn4path4PathNtNtB9_5parse5Parse5parseINtNtNtCsaNl6UpbT7bw_4core3ops8function6FnOnceTRNtBD_11ParseBufferEE9call_onceCsaeTzLhAkejc_12tokio_macros, symObjAddr: 0x51D4, symBinAddr: 0xBAF4, symSize: 0x24 }
  - { offset: 0x1E082, size: 0x8, addend: 0x0, symName: __RNvYNvYNtNtCsc29TF2YcYso_3syn4path4PathNtNtCs4EAaWzSXu1l_5quote9to_tokens8ToTokens17into_token_streamINtNtNtCsaNl6UpbT7bw_4core3ops8function6FnOnceTB5_EE9call_onceCsaeTzLhAkejc_12tokio_macros, symObjAddr: 0x51F8, symBinAddr: 0xBB18, symSize: 0x40 }
  - { offset: 0x1E0CC, size: 0x8, addend: 0x0, symName: __RNvYNvCsaeTzLhAkejc_12tokio_macros25select_priv_clean_patternINtNtNtCsaNl6UpbT7bw_4core3ops8function2FnTNtCs7yrEGia95Wz_10proc_macro11TokenStreamEE4callB4_, symObjAddr: 0x4F94, symBinAddr: 0xB8B4, symSize: 0x28 }
  - { offset: 0x1E110, size: 0x8, addend: 0x0, symName: __RNvYNvCsaeTzLhAkejc_12tokio_macros31select_priv_declare_output_enumINtNtNtCsaNl6UpbT7bw_4core3ops8function2FnTNtCs7yrEGia95Wz_10proc_macro11TokenStreamEE4callB4_, symObjAddr: 0x4FBC, symBinAddr: 0xB8DC, symSize: 0x28 }
  - { offset: 0x1E154, size: 0x8, addend: 0x0, symName: __RNvYNvCsaeTzLhAkejc_12tokio_macros4mainINtNtNtCsaNl6UpbT7bw_4core3ops8function2FnTNtCs7yrEGia95Wz_10proc_macro11TokenStreamB1i_EE4callB4_, symObjAddr: 0x4FE4, symBinAddr: 0xB904, symSize: 0x30 }
  - { offset: 0x1E198, size: 0x8, addend: 0x0, symName: __RNvYNvCsaeTzLhAkejc_12tokio_macros4testINtNtNtCsaNl6UpbT7bw_4core3ops8function2FnTNtCs7yrEGia95Wz_10proc_macro11TokenStreamB1i_EE4callB4_, symObjAddr: 0x5014, symBinAddr: 0xB934, symSize: 0x30 }
  - { offset: 0x1E1DC, size: 0x8, addend: 0x0, symName: __RNvYNvCsaeTzLhAkejc_12tokio_macros7main_rtINtNtNtCsaNl6UpbT7bw_4core3ops8function2FnTNtCs7yrEGia95Wz_10proc_macro11TokenStreamB1l_EE4callB4_, symObjAddr: 0x5044, symBinAddr: 0xB964, symSize: 0x30 }
  - { offset: 0x1E220, size: 0x8, addend: 0x0, symName: __RNvYNvCsaeTzLhAkejc_12tokio_macros7test_rtINtNtNtCsaNl6UpbT7bw_4core3ops8function2FnTNtCs7yrEGia95Wz_10proc_macro11TokenStreamB1l_EE4callB4_, symObjAddr: 0x5074, symBinAddr: 0xB994, symSize: 0x30 }
  - { offset: 0x1E264, size: 0x8, addend: 0x0, symName: __RNvYNvCsaeTzLhAkejc_12tokio_macros9main_failINtNtNtCsaNl6UpbT7bw_4core3ops8function2FnTNtCs7yrEGia95Wz_10proc_macro11TokenStreamB1n_EE4callB4_, symObjAddr: 0x50A4, symBinAddr: 0xB9C4, symSize: 0x30 }
  - { offset: 0x1E2A8, size: 0x8, addend: 0x0, symName: __RNvYNvCsaeTzLhAkejc_12tokio_macros9test_failINtNtNtCsaNl6UpbT7bw_4core3ops8function2FnTNtCs7yrEGia95Wz_10proc_macro11TokenStreamB1n_EE4callB4_, symObjAddr: 0x50D4, symBinAddr: 0xB9F4, symSize: 0x30 }
  - { offset: 0x1E8DB, size: 0x8, addend: 0x0, symName: __RINvXsa_NtCshnvkK9b4wzu_11proc_macro28fallbackNtB6_11TokenStreamINtNtNtNtCsaNl6UpbT7bw_4core4iter6traits7collect6ExtendNtB8_9TokenTreeE6extendAB1T_j1_ECsaeTzLhAkejc_12tokio_macros, symObjAddr: 0x2360, symBinAddr: 0x8C80, symSize: 0xC0 }
  - { offset: 0x1E93C, size: 0x8, addend: 0x0, symName: __RINvXsa_NtCshnvkK9b4wzu_11proc_macro28fallbackNtB6_11TokenStreamINtNtNtNtCsaNl6UpbT7bw_4core4iter6traits7collect6ExtendNtB8_9TokenTreeE6extendNtB8_11TokenStreamECsaeTzLhAkejc_12tokio_macros, symObjAddr: 0x2420, symBinAddr: 0x8D40, symSize: 0xC0 }
  - { offset: 0x1E9A2, size: 0x8, addend: 0x0, symName: __RNCINvXsa_NtCshnvkK9b4wzu_11proc_macro28fallbackNtB8_11TokenStreamINtNtNtNtCsaNl6UpbT7bw_4core4iter6traits7collect6ExtendNtBa_9TokenTreeE6extendAB1V_j1_E0CsaeTzLhAkejc_12tokio_macros, symObjAddr: 0x28AC, symBinAddr: 0x91CC, symSize: 0xAC }
  - { offset: 0x1E9E8, size: 0x8, addend: 0x0, symName: __RNCINvXsa_NtCshnvkK9b4wzu_11proc_macro28fallbackNtB8_11TokenStreamINtNtNtNtCsaNl6UpbT7bw_4core4iter6traits7collect6ExtendNtBa_9TokenTreeE6extendNtBa_11TokenStreamE0CsaeTzLhAkejc_12tokio_macros, symObjAddr: 0x2958, symBinAddr: 0x9278, symSize: 0xAC }
  - { offset: 0x1EA48, size: 0x8, addend: 0x0, symName: __RINvXsb_NtCshnvkK9b4wzu_11proc_macro28fallbackNtB6_11TokenStreamINtNtNtNtCsaNl6UpbT7bw_4core4iter6traits7collect6ExtendBI_E6extendINtNtNtB17_8adapters3map3MapIB25_IB25_INtNtB29_3zip3ZipINtNtNtB19_5slice4iter4IterNtB8_11TokenStreamEIB2Y_ReEENCNvNtCsaeTzLhAkejc_12tokio_macros5entry11parse_knobss1_0ENCINvXs7_B8_B3o_INtB13_12FromIteratorB3o_E9from_iterB2B_E0ENCINvXs6_NtB8_3impNtB5S_11TokenStreamIB53_B61_E9from_iterB2w_Es_0EEB3W_, symObjAddr: 0x24E0, symBinAddr: 0x8E00, symSize: 0xD0 }
  - { offset: 0x1EA91, size: 0x8, addend: 0x0, symName: __RNvXss_NtCshnvkK9b4wzu_11proc_macro28fallbackNtB5_11TokenStreamNtNtCsaNl6UpbT7bw_4core5clone5Clone5cloneCsaeTzLhAkejc_12tokio_macros, symObjAddr: 0x480C, symBinAddr: 0xB12C, symSize: 0x24 }
  - { offset: 0x1ED35, size: 0x8, addend: 0x0, symName: __RINvXs4_CshnvkK9b4wzu_11proc_macro2NtB6_11TokenStreamINtNtNtNtCsaNl6UpbT7bw_4core4iter6traits7collect6ExtendNtB6_9TokenTreeE6extendAB1I_j1_ECsaeTzLhAkejc_12tokio_macros, symObjAddr: 0x2294, symBinAddr: 0x8BB4, symSize: 0x34 }
  - { offset: 0x1ED78, size: 0x8, addend: 0x0, symName: __RINvXs4_CshnvkK9b4wzu_11proc_macro2NtB6_11TokenStreamINtNtNtNtCsaNl6UpbT7bw_4core4iter6traits7collect6ExtendNtB6_9TokenTreeE6extendBx_ECsaeTzLhAkejc_12tokio_macros, symObjAddr: 0x22C8, symBinAddr: 0x8BE8, symSize: 0x34 }
  - { offset: 0x1EDC1, size: 0x8, addend: 0x0, symName: __RINvXs7_CshnvkK9b4wzu_11proc_macro2NtB6_11TokenStreamINtNtNtNtCsaNl6UpbT7bw_4core4iter6traits7collect12FromIteratorBx_E9from_iterINtNtNtBW_8adapters3map3MapINtNtB28_3zip3ZipINtNtNtBY_5slice4iter4IterBx_EIB2M_ReEENCNvNtCsaeTzLhAkejc_12tokio_macros5entry11parse_knobss1_0EEB3u_, symObjAddr: 0x22FC, symBinAddr: 0x8C1C, symSize: 0x64 }
  - { offset: 0x1EDFE, size: 0x8, addend: 0x0, symName: __RNCINvXs7_CshnvkK9b4wzu_11proc_macro2NtB8_11TokenStreamINtNtNtNtCsaNl6UpbT7bw_4core4iter6traits7collect12FromIteratorBz_E9from_iterINtNtNtBY_8adapters3map3MapINtNtB2a_3zip3ZipINtNtNtB10_5slice4iter4IterBz_EIB2O_ReEENCNvNtCsaeTzLhAkejc_12tokio_macros5entry11parse_knobss1_0EE0B3x_, symObjAddr: 0x287C, symBinAddr: 0x919C, symSize: 0x30 }
  - { offset: 0x1EE4E, size: 0x8, addend: 0x0, symName: __RNvXsG_CshnvkK9b4wzu_11proc_macro2NtB5_11TokenStreamNtNtCsaNl6UpbT7bw_4core5clone5Clone5cloneCsaeTzLhAkejc_12tokio_macros, symObjAddr: 0x45B0, symBinAddr: 0xAED0, symSize: 0x78 }
  - { offset: 0x1F08C, size: 0x8, addend: 0x0, symName: __RNCNvXs1_NtNtNtCsht3nMU9UgFu_3std2io5error14repr_bitpackedNtB7_4ReprNtNtNtCsaNl6UpbT7bw_4core3ops4drop4Drop4drop0CsaeTzLhAkejc_12tokio_macros, symObjAddr: 0x2A04, symBinAddr: 0x9324, symSize: 0x3C }
  - { offset: 0x1F141, size: 0x8, addend: 0x0, symName: __RNvXs1_NtNtNtCsht3nMU9UgFu_3std2io5error14repr_bitpackedNtB5_4ReprNtNtNtCsaNl6UpbT7bw_4core3ops4drop4Drop4dropCsaeTzLhAkejc_12tokio_macros, symObjAddr: 0x3BA4, symBinAddr: 0xA4C4, symSize: 0x38 }
  - { offset: 0x1F16A, size: 0x8, addend: 0x0, symName: __RINvNtNtNtCsht3nMU9UgFu_3std2io5error14repr_bitpacked11decode_reprINtNtCsiTraAjBDcu4_5alloc5boxed3BoxNtB4_6CustomENCNvXs1_B2_NtB2_4ReprNtNtNtCsaNl6UpbT7bw_4core3ops4drop4Drop4drop0ECsaeTzLhAkejc_12tokio_macros, symObjAddr: 0x196C, symBinAddr: 0x828C, symSize: 0x1DC }
  - { offset: 0x1F3C6, size: 0x8, addend: 0x0, symName: __RNvNtNtNtCsht3nMU9UgFu_3std2io5error14repr_bitpacked14kind_from_primCsaeTzLhAkejc_12tokio_macros, symObjAddr: 0x2B74, symBinAddr: 0x9494, symSize: 0x758 }
  - { offset: 0x1FCF2, size: 0x8, addend: 0x0, symName: __RINvNvNtCsht3nMU9UgFu_3std9panicking12catch_unwind7do_callINtNtNtCsaNl6UpbT7bw_4core5panic11unwind_safe16AssertUnwindSafeNCINvNtNtCs7yrEGia95Wz_10proc_macro6bridge6client10run_clientNtB20_11TokenStreamINtNtB11_6option6OptionB2U_ENCNCINvMs6_B20_INtB20_6ClientNtB24_11TokenStreamB48_E7expand1NvCsaeTzLhAkejc_12tokio_macros25select_priv_clean_patternE00E0EuEB4G_, symObjAddr: 0x1B48, symBinAddr: 0x8468, symSize: 0x50 }
  - { offset: 0x1FDBA, size: 0x8, addend: 0x0, symName: __RINvNvNtCsht3nMU9UgFu_3std9panicking12catch_unwind7do_callINtNtNtCsaNl6UpbT7bw_4core5panic11unwind_safe16AssertUnwindSafeNCINvNtNtCs7yrEGia95Wz_10proc_macro6bridge6client10run_clientNtB20_11TokenStreamINtNtB11_6option6OptionB2U_ENCNCINvMs6_B20_INtB20_6ClientNtB24_11TokenStreamB48_E7expand1NvCsaeTzLhAkejc_12tokio_macros31select_priv_declare_output_enumE00E0EuEB4G_, symObjAddr: 0x1B98, symBinAddr: 0x84B8, symSize: 0x50 }
  - { offset: 0x1FE82, size: 0x8, addend: 0x0, symName: __RINvNvNtCsht3nMU9UgFu_3std9panicking12catch_unwind7do_callINtNtNtCsaNl6UpbT7bw_4core5panic11unwind_safe16AssertUnwindSafeNCINvNtNtCs7yrEGia95Wz_10proc_macro6bridge6client10run_clientTNtB20_11TokenStreamB2V_EINtNtB11_6option6OptionB2V_ENCNCINvMs7_B20_INtB20_6ClientTNtB24_11TokenStreamB4f_EB4f_E7expand2NvCsaeTzLhAkejc_12tokio_macros4mainE00E0EuEB4S_, symObjAddr: 0x1BE8, symBinAddr: 0x8508, symSize: 0x50 }
  - { offset: 0x1FF4A, size: 0x8, addend: 0x0, symName: __RINvNvNtCsht3nMU9UgFu_3std9panicking12catch_unwind7do_callINtNtNtCsaNl6UpbT7bw_4core5panic11unwind_safe16AssertUnwindSafeNCINvNtNtCs7yrEGia95Wz_10proc_macro6bridge6client10run_clientTNtB20_11TokenStreamB2V_EINtNtB11_6option6OptionB2V_ENCNCINvMs7_B20_INtB20_6ClientTNtB24_11TokenStreamB4f_EB4f_E7expand2NvCsaeTzLhAkejc_12tokio_macros4testE00E0EuEB4S_, symObjAddr: 0x1C38, symBinAddr: 0x8558, symSize: 0x50 }
  - { offset: 0x20012, size: 0x8, addend: 0x0, symName: __RINvNvNtCsht3nMU9UgFu_3std9panicking12catch_unwind7do_callINtNtNtCsaNl6UpbT7bw_4core5panic11unwind_safe16AssertUnwindSafeNCINvNtNtCs7yrEGia95Wz_10proc_macro6bridge6client10run_clientTNtB20_11TokenStreamB2V_EINtNtB11_6option6OptionB2V_ENCNCINvMs7_B20_INtB20_6ClientTNtB24_11TokenStreamB4f_EB4f_E7expand2NvCsaeTzLhAkejc_12tokio_macros7main_rtE00E0EuEB4S_, symObjAddr: 0x1C88, symBinAddr: 0x85A8, symSize: 0x50 }
  - { offset: 0x200DA, size: 0x8, addend: 0x0, symName: __RINvNvNtCsht3nMU9UgFu_3std9panicking12catch_unwind7do_callINtNtNtCsaNl6UpbT7bw_4core5panic11unwind_safe16AssertUnwindSafeNCINvNtNtCs7yrEGia95Wz_10proc_macro6bridge6client10run_clientTNtB20_11TokenStreamB2V_EINtNtB11_6option6OptionB2V_ENCNCINvMs7_B20_INtB20_6ClientTNtB24_11TokenStreamB4f_EB4f_E7expand2NvCsaeTzLhAkejc_12tokio_macros7test_rtE00E0EuEB4S_, symObjAddr: 0x1CD8, symBinAddr: 0x85F8, symSize: 0x50 }
  - { offset: 0x201A2, size: 0x8, addend: 0x0, symName: __RINvNvNtCsht3nMU9UgFu_3std9panicking12catch_unwind7do_callINtNtNtCsaNl6UpbT7bw_4core5panic11unwind_safe16AssertUnwindSafeNCINvNtNtCs7yrEGia95Wz_10proc_macro6bridge6client10run_clientTNtB20_11TokenStreamB2V_EINtNtB11_6option6OptionB2V_ENCNCINvMs7_B20_INtB20_6ClientTNtB24_11TokenStreamB4f_EB4f_E7expand2NvCsaeTzLhAkejc_12tokio_macros9main_failE00E0EuEB4S_, symObjAddr: 0x1D28, symBinAddr: 0x8648, symSize: 0x50 }
  - { offset: 0x2026A, size: 0x8, addend: 0x0, symName: __RINvNvNtCsht3nMU9UgFu_3std9panicking12catch_unwind7do_callINtNtNtCsaNl6UpbT7bw_4core5panic11unwind_safe16AssertUnwindSafeNCINvNtNtCs7yrEGia95Wz_10proc_macro6bridge6client10run_clientTNtB20_11TokenStreamB2V_EINtNtB11_6option6OptionB2V_ENCNCINvMs7_B20_INtB20_6ClientTNtB24_11TokenStreamB4f_EB4f_E7expand2NvCsaeTzLhAkejc_12tokio_macros9test_failE00E0EuEB4S_, symObjAddr: 0x1D78, symBinAddr: 0x8698, symSize: 0x50 }
  - { offset: 0x20332, size: 0x8, addend: 0x0, symName: __RINvNvNtCsht3nMU9UgFu_3std9panicking12catch_unwind8do_catchINtNtNtCsaNl6UpbT7bw_4core5panic11unwind_safe16AssertUnwindSafeNCINvNtNtCs7yrEGia95Wz_10proc_macro6bridge6client10run_clientNtB21_11TokenStreamINtNtB12_6option6OptionB2V_ENCNCINvMs6_B21_INtB21_6ClientNtB25_11TokenStreamB49_E7expand1NvCsaeTzLhAkejc_12tokio_macros25select_priv_clean_patternE00E0EuEB4H_, symObjAddr: 0x1DC8, symBinAddr: 0x86E8, symSize: 0x70 }
  - { offset: 0x203C7, size: 0x8, addend: 0x0, symName: __RINvNvNtCsht3nMU9UgFu_3std9panicking12catch_unwind8do_catchINtNtNtCsaNl6UpbT7bw_4core5panic11unwind_safe16AssertUnwindSafeNCINvNtNtCs7yrEGia95Wz_10proc_macro6bridge6client10run_clientNtB21_11TokenStreamINtNtB12_6option6OptionB2V_ENCNCINvMs6_B21_INtB21_6ClientNtB25_11TokenStreamB49_E7expand1NvCsaeTzLhAkejc_12tokio_macros31select_priv_declare_output_enumE00E0EuEB4H_, symObjAddr: 0x1E38, symBinAddr: 0x8758, symSize: 0x70 }
  - { offset: 0x2045C, size: 0x8, addend: 0x0, symName: __RINvNvNtCsht3nMU9UgFu_3std9panicking12catch_unwind8do_catchINtNtNtCsaNl6UpbT7bw_4core5panic11unwind_safe16AssertUnwindSafeNCINvNtNtCs7yrEGia95Wz_10proc_macro6bridge6client10run_clientTNtB21_11TokenStreamB2W_EINtNtB12_6option6OptionB2W_ENCNCINvMs7_B21_INtB21_6ClientTNtB25_11TokenStreamB4g_EB4g_E7expand2NvCsaeTzLhAkejc_12tokio_macros4mainE00E0EuEB4T_, symObjAddr: 0x1EA8, symBinAddr: 0x87C8, symSize: 0x70 }
  - { offset: 0x204F1, size: 0x8, addend: 0x0, symName: __RINvNvNtCsht3nMU9UgFu_3std9panicking12catch_unwind8do_catchINtNtNtCsaNl6UpbT7bw_4core5panic11unwind_safe16AssertUnwindSafeNCINvNtNtCs7yrEGia95Wz_10proc_macro6bridge6client10run_clientTNtB21_11TokenStreamB2W_EINtNtB12_6option6OptionB2W_ENCNCINvMs7_B21_INtB21_6ClientTNtB25_11TokenStreamB4g_EB4g_E7expand2NvCsaeTzLhAkejc_12tokio_macros4testE00E0EuEB4T_, symObjAddr: 0x1F18, symBinAddr: 0x8838, symSize: 0x70 }
  - { offset: 0x20586, size: 0x8, addend: 0x0, symName: __RINvNvNtCsht3nMU9UgFu_3std9panicking12catch_unwind8do_catchINtNtNtCsaNl6UpbT7bw_4core5panic11unwind_safe16AssertUnwindSafeNCINvNtNtCs7yrEGia95Wz_10proc_macro6bridge6client10run_clientTNtB21_11TokenStreamB2W_EINtNtB12_6option6OptionB2W_ENCNCINvMs7_B21_INtB21_6ClientTNtB25_11TokenStreamB4g_EB4g_E7expand2NvCsaeTzLhAkejc_12tokio_macros7main_rtE00E0EuEB4T_, symObjAddr: 0x1F88, symBinAddr: 0x88A8, symSize: 0x70 }
  - { offset: 0x2061B, size: 0x8, addend: 0x0, symName: __RINvNvNtCsht3nMU9UgFu_3std9panicking12catch_unwind8do_catchINtNtNtCsaNl6UpbT7bw_4core5panic11unwind_safe16AssertUnwindSafeNCINvNtNtCs7yrEGia95Wz_10proc_macro6bridge6client10run_clientTNtB21_11TokenStreamB2W_EINtNtB12_6option6OptionB2W_ENCNCINvMs7_B21_INtB21_6ClientTNtB25_11TokenStreamB4g_EB4g_E7expand2NvCsaeTzLhAkejc_12tokio_macros7test_rtE00E0EuEB4T_, symObjAddr: 0x1FF8, symBinAddr: 0x8918, symSize: 0x70 }
  - { offset: 0x206B0, size: 0x8, addend: 0x0, symName: __RINvNvNtCsht3nMU9UgFu_3std9panicking12catch_unwind8do_catchINtNtNtCsaNl6UpbT7bw_4core5panic11unwind_safe16AssertUnwindSafeNCINvNtNtCs7yrEGia95Wz_10proc_macro6bridge6client10run_clientTNtB21_11TokenStreamB2W_EINtNtB12_6option6OptionB2W_ENCNCINvMs7_B21_INtB21_6ClientTNtB25_11TokenStreamB4g_EB4g_E7expand2NvCsaeTzLhAkejc_12tokio_macros9main_failE00E0EuEB4T_, symObjAddr: 0x2068, symBinAddr: 0x8988, symSize: 0x70 }
  - { offset: 0x20745, size: 0x8, addend: 0x0, symName: __RINvNvNtCsht3nMU9UgFu_3std9panicking12catch_unwind8do_catchINtNtNtCsaNl6UpbT7bw_4core5panic11unwind_safe16AssertUnwindSafeNCINvNtNtCs7yrEGia95Wz_10proc_macro6bridge6client10run_clientTNtB21_11TokenStreamB2W_EINtNtB12_6option6OptionB2W_ENCNCINvMs7_B21_INtB21_6ClientTNtB25_11TokenStreamB4g_EB4g_E7expand2NvCsaeTzLhAkejc_12tokio_macros9test_failE00E0EuEB4T_, symObjAddr: 0x20D8, symBinAddr: 0x89F8, symSize: 0x70 }
  - { offset: 0x20FB2, size: 0x8, addend: 0x0, symName: __RINvXs3_NtNtCsiTraAjBDcu4_5alloc3vec9into_iterINtB6_8IntoIterTNtNtCsc29TF2YcYso_3syn4attr4MetaNtNtB12_5token5CommaEENtNtNtNtCsaNl6UpbT7bw_4core4iter6traits8iterator8Iterator4folduNCINvNtNtB1W_8adapters3map8map_foldBX_BY_uNCNvXs8_NtB12_10punctuatedINtB3F_10PunctuatedBY_B1u_ENtNtB1U_7collect12IntoIterator9into_iter0NCINvNvB1Q_8for_each4callBY_NCINvMsi_B8_INtB8_3VecBY_E14extend_trustedINtB2W_3MapBI_B3x_EE0E0E0ECsaeTzLhAkejc_12tokio_macros, symObjAddr: 0x2148, symBinAddr: 0x8A68, symSize: 0x14C }
  - { offset: 0x21182, size: 0x8, addend: 0x0, symName: __RNvXs3_NtNtCsiTraAjBDcu4_5alloc3vec9into_iterINtB5_8IntoIterNtNtCsc29TF2YcYso_3syn4attr4MetaENtNtNtNtCsaNl6UpbT7bw_4core4iter6traits8iterator8Iterator4nextCsaeTzLhAkejc_12tokio_macros, symObjAddr: 0x3C70, symBinAddr: 0xA590, symSize: 0xE4 }
  - { offset: 0x212F6, size: 0x8, addend: 0x0, symName: __RNvXs3_NtNtCsiTraAjBDcu4_5alloc3vec9into_iterINtB5_8IntoIterNtNtCsc29TF2YcYso_3syn4attr4MetaENtNtNtNtCsaNl6UpbT7bw_4core4iter6traits8iterator8Iterator9size_hintCsaeTzLhAkejc_12tokio_macros, symObjAddr: 0x3D54, symBinAddr: 0xA674, symSize: 0x6C }
  - { offset: 0x21351, size: 0x8, addend: 0x0, symName: __RNvXs3_NtNtCsiTraAjBDcu4_5alloc3vec9into_iterINtB5_8IntoIterNtNtCsc29TF2YcYso_3syn4attr9AttributeENtNtNtNtCsaNl6UpbT7bw_4core4iter6traits8iterator8Iterator4nextCsaeTzLhAkejc_12tokio_macros, symObjAddr: 0x3DC0, symBinAddr: 0xA6E0, symSize: 0xE4 }
  - { offset: 0x214C5, size: 0x8, addend: 0x0, symName: __RNvXs3_NtNtCsiTraAjBDcu4_5alloc3vec9into_iterINtB5_8IntoIterTNtNtCsc29TF2YcYso_3syn4attr4MetaNtNtB11_5token5CommaEENtNtNtNtCsaNl6UpbT7bw_4core4iter6traits8iterator8Iterator9size_hintCsaeTzLhAkejc_12tokio_macros, symObjAddr: 0x3EA4, symBinAddr: 0xA7C4, symSize: 0x6C }
  - { offset: 0x215BA, size: 0x8, addend: 0x0, symName: __RNvXNvXsd_NtNtCsiTraAjBDcu4_5alloc3vec9into_iterINtB8_8IntoIterppENtNtNtCsaNl6UpbT7bw_4core3ops4drop4Drop4dropINtB2_9DropGuardNtNtCsc29TF2YcYso_3syn4attr4MetaNtNtBc_5alloc6GlobalEB12_4dropCsaeTzLhAkejc_12tokio_macros, symObjAddr: 0x3A54, symBinAddr: 0xA374, symSize: 0x7C }
  - { offset: 0x216C7, size: 0x8, addend: 0x0, symName: __RNvXNvXsd_NtNtCsiTraAjBDcu4_5alloc3vec9into_iterINtB8_8IntoIterppENtNtNtCsaNl6UpbT7bw_4core3ops4drop4Drop4dropINtB2_9DropGuardTNtNtCsc29TF2YcYso_3syn4attr4MetaNtNtB25_5token5CommaENtNtBc_5alloc6GlobalEB12_4dropCsaeTzLhAkejc_12tokio_macros, symObjAddr: 0x3AD0, symBinAddr: 0xA3F0, symSize: 0x7C }
  - { offset: 0x21824, size: 0x8, addend: 0x0, symName: __RNvXsd_NtNtCsiTraAjBDcu4_5alloc3vec9into_iterINtB5_8IntoIterNtNtCsc29TF2YcYso_3syn4attr4MetaENtNtNtCsaNl6UpbT7bw_4core3ops4drop4Drop4dropCsaeTzLhAkejc_12tokio_macros, symObjAddr: 0x46DC, symBinAddr: 0xAFFC, symSize: 0x98 }
  - { offset: 0x218BE, size: 0x8, addend: 0x0, symName: __RNvXsd_NtNtCsiTraAjBDcu4_5alloc3vec9into_iterINtB5_8IntoIterTNtNtCsc29TF2YcYso_3syn4attr4MetaNtNtB11_5token5CommaEENtNtNtCsaNl6UpbT7bw_4core3ops4drop4Drop4dropCsaeTzLhAkejc_12tokio_macros, symObjAddr: 0x4774, symBinAddr: 0xB094, symSize: 0x98 }
  - { offset: 0x225D1, size: 0x8, addend: 0x0, symName: __RNvXs6_NtCsiTraAjBDcu4_5alloc5boxedINtB5_3BoxDNtNtCsaNl6UpbT7bw_4core5error5ErrorNtNtBM_6marker4SyncNtB1j_4SendEL_ENtNtNtBM_3ops4drop4Drop4dropCsaeTzLhAkejc_12tokio_macros, symObjAddr: 0x3FBC, symBinAddr: 0xA8DC, symSize: 0xCC }
  - { offset: 0x22708, size: 0x8, addend: 0x0, symName: __RNvXs6_NtCsiTraAjBDcu4_5alloc5boxedINtB5_3BoxINtNtCsc29TF2YcYso_3syn5drops6NoDropDINtNtBM_10punctuated12IterMutTraitNtNtBM_3pat3PatEp4ItemQB1Q_EL_EENtNtNtCsaNl6UpbT7bw_4core3ops4drop4Drop4dropCsaeTzLhAkejc_12tokio_macros, symObjAddr: 0x4088, symBinAddr: 0xA9A8, symSize: 0x120 }
  - { offset: 0x2283F, size: 0x8, addend: 0x0, symName: __RNvXs6_NtCsiTraAjBDcu4_5alloc5boxedINtB5_3BoxINtNtCsc29TF2YcYso_3syn5drops6NoDropDINtNtBM_10punctuated12IterMutTraitNtNtBM_3pat8FieldPatEp4ItemQB1Q_EL_EENtNtNtCsaNl6UpbT7bw_4core3ops4drop4Drop4dropCsaeTzLhAkejc_12tokio_macros, symObjAddr: 0x41A8, symBinAddr: 0xAAC8, symSize: 0x120 }
  - { offset: 0x22976, size: 0x8, addend: 0x0, symName: __RNvXs6_NtCsiTraAjBDcu4_5alloc5boxedINtB5_3BoxNtNtCsc29TF2YcYso_3syn4attr4MetaENtNtNtCsaNl6UpbT7bw_4core3ops4drop4Drop4dropCsaeTzLhAkejc_12tokio_macros, symObjAddr: 0x42C8, symBinAddr: 0xABE8, symSize: 0xB8 }
  - { offset: 0x22AAD, size: 0x8, addend: 0x0, symName: __RNvXs6_NtCsiTraAjBDcu4_5alloc5boxedINtB5_3BoxNtNtNtCsht3nMU9UgFu_3std2io5error6CustomENtNtNtCsaNl6UpbT7bw_4core3ops4drop4Drop4dropCsaeTzLhAkejc_12tokio_macros, symObjAddr: 0x4380, symBinAddr: 0xACA0, symSize: 0xB8 }
  - { offset: 0x22BEA, size: 0x8, addend: 0x0, symName: __RNvXsC_NtCsiTraAjBDcu4_5alloc5boxedINtB5_3BoxNtNtCsc29TF2YcYso_3syn3pat3PatEINtNtCsaNl6UpbT7bw_4core7convert5AsMutBH_E6as_mutCsaeTzLhAkejc_12tokio_macros, symObjAddr: 0x4494, symBinAddr: 0xADB4, symSize: 0x18 }
  - { offset: 0x22C2A, size: 0x8, addend: 0x0, symName: __RNvXsC_NtCsiTraAjBDcu4_5alloc5boxedINtB5_3BoxNtNtCsc29TF2YcYso_3syn3pat8FieldPatEINtNtCsaNl6UpbT7bw_4core7convert5AsMutBH_E6as_mutCsaeTzLhAkejc_12tokio_macros, symObjAddr: 0x44AC, symBinAddr: 0xADCC, symSize: 0x18 }
  - { offset: 0x22FA5, size: 0x8, addend: 0x0, symName: __RNCINvMs3_NtCsc29TF2YcYso_3syn3litNtB8_6LitInt12base10_parsejE0CsaeTzLhAkejc_12tokio_macros, symObjAddr: 0x27E8, symBinAddr: 0x9108, symSize: 0x94 }
  - { offset: 0x27CB7, size: 0x8, addend: 0x0, symName: __RNvXNtCsc29TF2YcYso_3syn7spannedNtNtB4_3lit3LitNtB2_7Spanned4spanCsaeTzLhAkejc_12tokio_macros, symObjAddr: 0x3A20, symBinAddr: 0xA340, symSize: 0x34 }
  - { offset: 0x282B7, size: 0x8, addend: 0x0, symName: __RINvMNtCsc29TF2YcYso_3syn3litNtB3_6LitStr10parse_withNvYNtNtB5_4path4PathNtNtB5_5parse5Parse5parseECsaeTzLhAkejc_12tokio_macros, symObjAddr: 0x28, symBinAddr: 0x6990, symSize: 0x420 }
  - { offset: 0x283F2, size: 0x8, addend: 0x0, symName: __RINvMNtCsc29TF2YcYso_3syn3litNtB3_6LitStr5parseNtNtB5_4path4PathECsaeTzLhAkejc_12tokio_macros, symObjAddr: 0x448, symBinAddr: 0x6DB0, symSize: 0x34 }
  - { offset: 0x2842A, size: 0x8, addend: 0x0, symName: __RINvMs3_NtCsc29TF2YcYso_3syn3litNtB6_6LitInt12base10_parsejECsaeTzLhAkejc_12tokio_macros, symObjAddr: 0x47C, symBinAddr: 0x6DE4, symSize: 0x58 }
  - { offset: 0x2856B, size: 0x8, addend: 0x0, symName: __RINvMs_NtNtCsaNl6UpbT7bw_4core3fmt2rtNtB7_9Arguments6new_v1Kj3_Kj2_ECsaeTzLhAkejc_12tokio_macros, symObjAddr: 0x4D4, symBinAddr: 0x6E3C, symSize: 0x54 }
  - { offset: 0x285C2, size: 0x8, addend: 0x0, symName: __RINvMsiX_NtCsc29TF2YcYso_3syn5tokenNtB7_5Brace8surroundNCNvMs1_NtCsaeTzLhAkejc_12tokio_macros5entryNtBZ_6ItemFn11into_tokens0EB11_, symObjAddr: 0x528, symBinAddr: 0x6E90, symSize: 0x120 }
  - { offset: 0x28656, size: 0x8, addend: 0x0, symName: __RINvMsiX_NtCsc29TF2YcYso_3syn5tokenNtB7_5Brace8surroundNCNvXs3_NtCsaeTzLhAkejc_12tokio_macros5entryNtBZ_4BodyNtNtCs4EAaWzSXu1l_5quote9to_tokens8ToTokens9to_tokens0EB11_, symObjAddr: 0x648, symBinAddr: 0x6FB0, symSize: 0x114 }
  - { offset: 0x28B09, size: 0x8, addend: 0x0, symName: __RNvXNtCs4EAaWzSXu1l_5quote9to_tokensRINtNtCsiTraAjBDcu4_5alloc5boxed3BoxNtNtCsc29TF2YcYso_3syn2ty4TypeENtB2_8ToTokens9to_tokensCsaeTzLhAkejc_12tokio_macros, symObjAddr: 0x3814, symBinAddr: 0xA134, symSize: 0x40 }
  - { offset: 0x28B48, size: 0x8, addend: 0x0, symName: __RNvXNtCs4EAaWzSXu1l_5quote9to_tokensRNtCshnvkK9b4wzu_11proc_macro211TokenStreamNtB2_8ToTokens9to_tokensCsaeTzLhAkejc_12tokio_macros, symObjAddr: 0x3854, symBinAddr: 0xA174, symSize: 0x40 }
  - { offset: 0x28B87, size: 0x8, addend: 0x0, symName: __RNvXNtCs4EAaWzSXu1l_5quote9to_tokensRNtCshnvkK9b4wzu_11proc_macro25IdentNtB2_8ToTokens9to_tokensCsaeTzLhAkejc_12tokio_macros, symObjAddr: 0x3894, symBinAddr: 0xA1B4, symSize: 0x40 }
  - { offset: 0x28BC6, size: 0x8, addend: 0x0, symName: __RNvXNtCs4EAaWzSXu1l_5quote9to_tokensRNtNtCsc29TF2YcYso_3syn3lit3LitNtB2_8ToTokens9to_tokensCsaeTzLhAkejc_12tokio_macros, symObjAddr: 0x38D4, symBinAddr: 0xA1F4, symSize: 0x40 }
  - { offset: 0x28C05, size: 0x8, addend: 0x0, symName: __RNvXNtCs4EAaWzSXu1l_5quote9to_tokensRNtNtCsc29TF2YcYso_3syn4attr13MetaNameValueNtB2_8ToTokens9to_tokensCsaeTzLhAkejc_12tokio_macros, symObjAddr: 0x3914, symBinAddr: 0xA234, symSize: 0x40 }
  - { offset: 0x28C44, size: 0x8, addend: 0x0, symName: __RNvXNtCs4EAaWzSXu1l_5quote9to_tokensRNtNtCsc29TF2YcYso_3syn4path4PathNtB2_8ToTokens9to_tokensCsaeTzLhAkejc_12tokio_macros, symObjAddr: 0x3954, symBinAddr: 0xA274, symSize: 0x40 }
  - { offset: 0x28C83, size: 0x8, addend: 0x0, symName: __RNvXNtCs4EAaWzSXu1l_5quote9to_tokensRReNtB2_8ToTokens9to_tokensCsaeTzLhAkejc_12tokio_macros, symObjAddr: 0x3994, symBinAddr: 0xA2B4, symSize: 0x40 }
  - { offset: 0x28CC2, size: 0x8, addend: 0x0, symName: __RNvXNtCs4EAaWzSXu1l_5quote9to_tokensReNtB2_8ToTokens9to_tokensCsaeTzLhAkejc_12tokio_macros, symObjAddr: 0x39D4, symBinAddr: 0xA2F4, symSize: 0x4C }
  - { offset: 0x28D07, size: 0x8, addend: 0x0, symName: __RNvYNtCshnvkK9b4wzu_11proc_macro25IdentNtNtCs4EAaWzSXu1l_5quote9to_tokens8ToTokens15to_token_streamCsaeTzLhAkejc_12tokio_macros, symObjAddr: 0x4A04, symBinAddr: 0xB324, symSize: 0x8C }
  - { offset: 0x28D51, size: 0x8, addend: 0x0, symName: __RNvYNtCshnvkK9b4wzu_11proc_macro25IdentNtNtCs4EAaWzSXu1l_5quote9to_tokens8ToTokens17into_token_streamCsaeTzLhAkejc_12tokio_macros, symObjAddr: 0x4A90, symBinAddr: 0xB3B0, symSize: 0x64 }
  - { offset: 0x28D87, size: 0x8, addend: 0x0, symName: __RNvYNtNtCsc29TF2YcYso_3syn3pat3PatNtNtCs4EAaWzSXu1l_5quote9to_tokens8ToTokens15to_token_streamCsaeTzLhAkejc_12tokio_macros, symObjAddr: 0x4AF4, symBinAddr: 0xB414, symSize: 0x8C }
  - { offset: 0x28DD1, size: 0x8, addend: 0x0, symName: __RNvYNtNtCsc29TF2YcYso_3syn3pat3PatNtNtCs4EAaWzSXu1l_5quote9to_tokens8ToTokens17into_token_streamCsaeTzLhAkejc_12tokio_macros, symObjAddr: 0x4B80, symBinAddr: 0xB4A0, symSize: 0x64 }
  - { offset: 0x28E07, size: 0x8, addend: 0x0, symName: __RNvYNtNtCsc29TF2YcYso_3syn4attr13MetaNameValueNtNtCs4EAaWzSXu1l_5quote9to_tokens8ToTokens15to_token_streamCsaeTzLhAkejc_12tokio_macros, symObjAddr: 0x4BE4, symBinAddr: 0xB504, symSize: 0x8C }
  - { offset: 0x28E51, size: 0x8, addend: 0x0, symName: __RNvYNtNtCsc29TF2YcYso_3syn4attr13MetaNameValueNtNtCs4EAaWzSXu1l_5quote9to_tokens8ToTokens17into_token_streamCsaeTzLhAkejc_12tokio_macros, symObjAddr: 0x4C70, symBinAddr: 0xB590, symSize: 0x64 }
  - { offset: 0x28E87, size: 0x8, addend: 0x0, symName: __RNvYNtNtCsc29TF2YcYso_3syn4attr4MetaNtNtCs4EAaWzSXu1l_5quote9to_tokens8ToTokens15to_token_streamCsaeTzLhAkejc_12tokio_macros, symObjAddr: 0x4CD4, symBinAddr: 0xB5F4, symSize: 0x8C }
  - { offset: 0x28ED1, size: 0x8, addend: 0x0, symName: __RNvYNtNtCsc29TF2YcYso_3syn4attr4MetaNtNtCs4EAaWzSXu1l_5quote9to_tokens8ToTokens17into_token_streamCsaeTzLhAkejc_12tokio_macros, symObjAddr: 0x4D60, symBinAddr: 0xB680, symSize: 0x64 }
  - { offset: 0x28F07, size: 0x8, addend: 0x0, symName: __RNvYNtNtCsc29TF2YcYso_3syn4path4PathNtNtCs4EAaWzSXu1l_5quote9to_tokens8ToTokens15to_token_streamCsaeTzLhAkejc_12tokio_macros, symObjAddr: 0x4DC4, symBinAddr: 0xB6E4, symSize: 0x8C }
  - { offset: 0x28F51, size: 0x8, addend: 0x0, symName: __RNvYNtNtCsc29TF2YcYso_3syn4path4PathNtNtCs4EAaWzSXu1l_5quote9to_tokens8ToTokens17into_token_streamCsaeTzLhAkejc_12tokio_macros, symObjAddr: 0x4E50, symBinAddr: 0xB770, symSize: 0x64 }
  - { offset: 0x28F87, size: 0x8, addend: 0x0, symName: __RNvYNtNtCsc29TF2YcYso_3syn5token2FnNtNtCs4EAaWzSXu1l_5quote9to_tokens8ToTokens15to_token_streamCsaeTzLhAkejc_12tokio_macros, symObjAddr: 0x4EB4, symBinAddr: 0xB7D4, symSize: 0x8C }
  - { offset: 0x28FD1, size: 0x8, addend: 0x0, symName: __RNvYNtNtCsc29TF2YcYso_3syn5token2FnNtNtCs4EAaWzSXu1l_5quote9to_tokens8ToTokens17into_token_streamCsaeTzLhAkejc_12tokio_macros, symObjAddr: 0x4F40, symBinAddr: 0xB860, symSize: 0x54 }
  - { offset: 0x29006, size: 0x8, addend: 0x0, symName: __RNvYRNtCshnvkK9b4wzu_11proc_macro25IdentNtNtCs4EAaWzSXu1l_5quote9to_tokens8ToTokens15to_token_streamCsaeTzLhAkejc_12tokio_macros, symObjAddr: 0x5238, symBinAddr: 0xBB58, symSize: 0x8C }
  - { offset: 0x29050, size: 0x8, addend: 0x0, symName: __RNvYRNtCshnvkK9b4wzu_11proc_macro25IdentNtNtCs4EAaWzSXu1l_5quote9to_tokens8ToTokens17into_token_streamCsaeTzLhAkejc_12tokio_macros, symObjAddr: 0x52C4, symBinAddr: 0xBBE4, symSize: 0x54 }
  - { offset: 0x29085, size: 0x8, addend: 0x0, symName: __RNvYRNtNtCsc29TF2YcYso_3syn3lit3LitNtNtCs4EAaWzSXu1l_5quote9to_tokens8ToTokens15to_token_streamCsaeTzLhAkejc_12tokio_macros, symObjAddr: 0x5318, symBinAddr: 0xBC38, symSize: 0x8C }
  - { offset: 0x290CF, size: 0x8, addend: 0x0, symName: __RNvYRNtNtCsc29TF2YcYso_3syn3lit3LitNtNtCs4EAaWzSXu1l_5quote9to_tokens8ToTokens17into_token_streamCsaeTzLhAkejc_12tokio_macros, symObjAddr: 0x53A4, symBinAddr: 0xBCC4, symSize: 0x54 }
  - { offset: 0x29104, size: 0x8, addend: 0x0, symName: __RNvYRNtNtCsc29TF2YcYso_3syn4attr13MetaNameValueNtNtCs4EAaWzSXu1l_5quote9to_tokens8ToTokens15to_token_streamCsaeTzLhAkejc_12tokio_macros, symObjAddr: 0x53F8, symBinAddr: 0xBD18, symSize: 0x8C }
  - { offset: 0x2914E, size: 0x8, addend: 0x0, symName: __RNvYRNtNtCsc29TF2YcYso_3syn4attr13MetaNameValueNtNtCs4EAaWzSXu1l_5quote9to_tokens8ToTokens17into_token_streamCsaeTzLhAkejc_12tokio_macros, symObjAddr: 0x5484, symBinAddr: 0xBDA4, symSize: 0x54 }
  - { offset: 0x29183, size: 0x8, addend: 0x0, symName: __RNvYRNtNtCsc29TF2YcYso_3syn4attr9AttributeNtNtCs4EAaWzSXu1l_5quote9to_tokens8ToTokens15to_token_streamCsaeTzLhAkejc_12tokio_macros, symObjAddr: 0x54D8, symBinAddr: 0xBDF8, symSize: 0x8C }
  - { offset: 0x291CD, size: 0x8, addend: 0x0, symName: __RNvYRNtNtCsc29TF2YcYso_3syn4attr9AttributeNtNtCs4EAaWzSXu1l_5quote9to_tokens8ToTokens17into_token_streamCsaeTzLhAkejc_12tokio_macros, symObjAddr: 0x5564, symBinAddr: 0xBE84, symSize: 0x54 }
  - { offset: 0x29202, size: 0x8, addend: 0x0, symName: __RNvYRNtNtCsc29TF2YcYso_3syn4path4PathNtNtCs4EAaWzSXu1l_5quote9to_tokens8ToTokens15to_token_streamCsaeTzLhAkejc_12tokio_macros, symObjAddr: 0x55B8, symBinAddr: 0xBED8, symSize: 0x8C }
  - { offset: 0x2924C, size: 0x8, addend: 0x0, symName: __RNvYRNtNtCsc29TF2YcYso_3syn4path4PathNtNtCs4EAaWzSXu1l_5quote9to_tokens8ToTokens17into_token_streamCsaeTzLhAkejc_12tokio_macros, symObjAddr: 0x5644, symBinAddr: 0xBF64, symSize: 0x54 }
  - { offset: 0x2928D, size: 0x8, addend: 0x0, symName: __RNvXs0_NtCs4EAaWzSXu1l_5quote7spannedNtNtCsc29TF2YcYso_3syn3lit3LitNtB5_7Spanned6___spanCsaeTzLhAkejc_12tokio_macros, symObjAddr: 0x3B4C, symBinAddr: 0xA46C, symSize: 0x44 }
  - { offset: 0x2A5C5, size: 0x8, addend: 0x0, symName: __RINvCsc29TF2YcYso_3syn6parse2NtNtCsaeTzLhAkejc_12tokio_macros5entry6ItemFnEBv_, symObjAddr: 0x0, symBinAddr: 0xDA10, symSize: 0x24 }
  - { offset: 0x2AA44, size: 0x8, addend: 0x0, symName: __RNvXs5_NtNtCs7yrEGia95Wz_10proc_macro6bridge6bufferNtB5_6BufferNtNtNtCsaNl6UpbT7bw_4core3ops4drop4Drop4dropCsaeTzLhAkejc_12tokio_macros, symObjAddr: 0x47B4, symBinAddr: 0x121C0, symSize: 0x8C }
  - { offset: 0x2AB12, size: 0x8, addend: 0x0, symName: __RNvXs1J_NtCs7yrEGia95Wz_10proc_macro6bridgeINtB6_11ExpnGlobalsNtNtB6_6client4SpanEINtNtB6_3rpc9DecodeMutuE6decodeCsaeTzLhAkejc_12tokio_macros, symObjAddr: 0x4160, symBinAddr: 0x11B6C, symSize: 0xB0 }
  - { offset: 0x2AB69, size: 0x8, addend: 0x0, symName: __RNvXs9_NtNtCs7yrEGia95Wz_10proc_macro6bridge3rpcTINtB7_11ExpnGlobalsNtNtB7_6client4SpanENtB16_11TokenStreamEINtB5_9DecodeMutuE6decodeCsaeTzLhAkejc_12tokio_macros, symObjAddr: 0x48B8, symBinAddr: 0x122C4, symSize: 0x84 }
  - { offset: 0x2ABBE, size: 0x8, addend: 0x0, symName: __RNvXs9_NtNtCs7yrEGia95Wz_10proc_macro6bridge3rpcTINtB7_11ExpnGlobalsNtNtB7_6client4SpanETNtB16_11TokenStreamB1p_EEINtB5_9DecodeMutuE6decodeCsaeTzLhAkejc_12tokio_macros, symObjAddr: 0x493C, symBinAddr: 0x12348, symSize: 0x90 }
  - { offset: 0x2AC7A, size: 0x8, addend: 0x0, symName: __RNvXsR_NtCs7yrEGia95Wz_10proc_macro6bridgeINtNtCsaNl6UpbT7bw_4core6option6OptionNtNtB5_6client11TokenStreamEINtNtB5_3rpc6EncodeuE6encodeCsaeTzLhAkejc_12tokio_macros, symObjAddr: 0x49CC, symBinAddr: 0x123D8, symSize: 0xCC }
  - { offset: 0x2AD20, size: 0x8, addend: 0x0, symName: __RNvXsR_NtCs7yrEGia95Wz_10proc_macro6bridgeINtNtCsaNl6UpbT7bw_4core6option6OptionReEINtNtB5_3rpc6EncodeuE6encodeCsaeTzLhAkejc_12tokio_macros, symObjAddr: 0x4A98, symBinAddr: 0x124A4, symSize: 0xD8 }
  - { offset: 0x2B299, size: 0x8, addend: 0x0, symName: __RNvXs1_NtCshnvkK9b4wzu_11proc_macro26markerNtB5_19ProcMacroAutoTraitsNtNtCsaNl6UpbT7bw_4core5clone5Clone5cloneCsaeTzLhAkejc_12tokio_macros, symObjAddr: 0x4210, symBinAddr: 0x11C1C, symSize: 0x10 }
  - { offset: 0x2BC01, size: 0x8, addend: 0x0, symName: __RNvNvMs1_NtNtCsaNl6UpbT7bw_4core3ptr8non_nullINtB7_7NonNullpE13new_unchecked18precondition_checkCsaeTzLhAkejc_12tokio_macros, symObjAddr: 0x3844, symBinAddr: 0x11250, symSize: 0xA4 }
  - { offset: 0x2BF78, size: 0x8, addend: 0x0, symName: __RNvNvMNtNtCsaNl6UpbT7bw_4core3ptr9const_ptrPp20offset_from_unsigned18precondition_checkCsaeTzLhAkejc_12tokio_macros, symObjAddr: 0x3798, symBinAddr: 0x111A4, symSize: 0xAC }
  - { offset: 0x2C73F, size: 0x8, addend: 0x0, symName: __RNvNvMs9_NtCsaNl6UpbT7bw_4core3numj13unchecked_add18precondition_checkCsaeTzLhAkejc_12tokio_macros, symObjAddr: 0x39A0, symBinAddr: 0x113AC, symSize: 0xB0 }
  - { offset: 0x2C953, size: 0x8, addend: 0x0, symName: __RNvMsu_NtCsaNl6UpbT7bw_4core3numj16from_ascii_radixCsaeTzLhAkejc_12tokio_macros, symObjAddr: 0x30A0, symBinAddr: 0x10AB0, symSize: 0x574 }
  - { offset: 0x2CBEB, size: 0x8, addend: 0x0, symName: __RNvNvMs3_NtCsaNl6UpbT7bw_4core3numi13unchecked_neg18precondition_checkCsaeTzLhAkejc_12tokio_macros, symObjAddr: 0x38E8, symBinAddr: 0x112F4, symSize: 0xB8 }
  - { offset: 0x2CC88, size: 0x8, addend: 0x0, symName: __RNvXst_NtCsaNl6UpbT7bw_4core3numjNtNtNtB7_3str6traits7FromStr8from_strCsaeTzLhAkejc_12tokio_macros, symObjAddr: 0x4E00, symBinAddr: 0x1280C, symSize: 0x30 }
  - { offset: 0x2FCF6, size: 0x8, addend: 0x0, symName: __RNvXs3_NtCsaNl6UpbT7bw_4core6optionINtB5_6OptionNtNtCsc29TF2YcYso_3syn4path4PathENtNtB7_5clone5Clone5cloneCsaeTzLhAkejc_12tokio_macros, symObjAddr: 0x44DC, symBinAddr: 0x11EE8, symSize: 0x80 }
  - { offset: 0x2FD51, size: 0x8, addend: 0x0, symName: __RNvXs6_NtCsaNl6UpbT7bw_4core6optionINtB5_6OptionNtNtCsc29TF2YcYso_3syn4attr4MetaENtNtNtNtB7_4iter6traits7collect12IntoIterator9into_iterCsaeTzLhAkejc_12tokio_macros, symObjAddr: 0x4840, symBinAddr: 0x1224C, symSize: 0x50 }
  - { offset: 0x2FD89, size: 0x8, addend: 0x0, symName: __RNvXs6_NtCsaNl6UpbT7bw_4core6optionINtB5_6OptionQNtNtCsc29TF2YcYso_3syn3pat3PatENtNtNtNtB7_4iter6traits7collect12IntoIterator9into_iterCsaeTzLhAkejc_12tokio_macros, symObjAddr: 0x4890, symBinAddr: 0x1229C, symSize: 0x14 }
  - { offset: 0x2FDC0, size: 0x8, addend: 0x0, symName: __RNvXs6_NtCsaNl6UpbT7bw_4core6optionINtB5_6OptionQNtNtCsc29TF2YcYso_3syn3pat8FieldPatENtNtNtNtB7_4iter6traits7collect12IntoIterator9into_iterCsaeTzLhAkejc_12tokio_macros, symObjAddr: 0x48A4, symBinAddr: 0x122B0, symSize: 0x14 }
  - { offset: 0x2FEA5, size: 0x8, addend: 0x0, symName: __RNvXsw_NtCsaNl6UpbT7bw_4core6optionINtB5_8IntoIterNtNtCsc29TF2YcYso_3syn4attr4MetaENtNtNtNtB7_4iter6traits8iterator8Iterator4nextCsaeTzLhAkejc_12tokio_macros, symObjAddr: 0x4E30, symBinAddr: 0x1283C, symSize: 0x68 }
  - { offset: 0x2FF1D, size: 0x8, addend: 0x0, symName: __RNvXsw_NtCsaNl6UpbT7bw_4core6optionINtB5_8IntoIterNtNtCsc29TF2YcYso_3syn4attr4MetaENtNtNtNtB7_4iter6traits8iterator8Iterator9size_hintCsaeTzLhAkejc_12tokio_macros, symObjAddr: 0x4E98, symBinAddr: 0x128A4, symSize: 0x44 }
  - { offset: 0x2FF95, size: 0x8, addend: 0x0, symName: __RNvXsw_NtCsaNl6UpbT7bw_4core6optionINtB5_8IntoIterQNtNtCsc29TF2YcYso_3syn3pat3PatENtNtNtNtB7_4iter6traits8iterator8Iterator4nextCsaeTzLhAkejc_12tokio_macros, symObjAddr: 0x4EDC, symBinAddr: 0x128E8, symSize: 0x28 }
  - { offset: 0x3000D, size: 0x8, addend: 0x0, symName: __RNvXsw_NtCsaNl6UpbT7bw_4core6optionINtB5_8IntoIterQNtNtCsc29TF2YcYso_3syn3pat3PatENtNtNtNtB7_4iter6traits8iterator8Iterator9size_hintCsaeTzLhAkejc_12tokio_macros, symObjAddr: 0x4F04, symBinAddr: 0x12910, symSize: 0x44 }
  - { offset: 0x30085, size: 0x8, addend: 0x0, symName: __RNvXsw_NtCsaNl6UpbT7bw_4core6optionINtB5_8IntoIterQNtNtCsc29TF2YcYso_3syn3pat8FieldPatENtNtNtNtB7_4iter6traits8iterator8Iterator4nextCsaeTzLhAkejc_12tokio_macros, symObjAddr: 0x4F48, symBinAddr: 0x12954, symSize: 0x28 }
  - { offset: 0x300FD, size: 0x8, addend: 0x0, symName: __RNvXsw_NtCsaNl6UpbT7bw_4core6optionINtB5_8IntoIterQNtNtCsc29TF2YcYso_3syn3pat8FieldPatENtNtNtNtB7_4iter6traits8iterator8Iterator9size_hintCsaeTzLhAkejc_12tokio_macros, symObjAddr: 0x4F70, symBinAddr: 0x1297C, symSize: 0x44 }
  - { offset: 0x30BF4, size: 0x8, addend: 0x0, symName: __RNvNvNtNtCsaNl6UpbT7bw_4core5slice3raw14from_raw_parts18precondition_checkCsaeTzLhAkejc_12tokio_macros, symObjAddr: 0x3C50, symBinAddr: 0x1165C, symSize: 0x1DC }
  - { offset: 0x30D78, size: 0x8, addend: 0x0, symName: __RNvNvNtNtCsaNl6UpbT7bw_4core5slice3raw18from_raw_parts_mut18precondition_checkCsaeTzLhAkejc_12tokio_macros, symObjAddr: 0x3E2C, symBinAddr: 0x11838, symSize: 0x1DC }
  - { offset: 0x3174D, size: 0x8, addend: 0x0, symName: __RINvXs2_NtNtNtCsaNl6UpbT7bw_4core4iter8adapters3zipINtB6_3ZipINtNtNtBc_5slice4iter4IterNtCshnvkK9b4wzu_11proc_macro211TokenStreamEIBY_ReEEINtB6_7ZipImplBX_B24_E4folduNCINvNtB8_3map8map_foldTRB1n_RB28_EB1n_uNCNvNtCsaeTzLhAkejc_12tokio_macros5entry11parse_knobss1_0NCIB2H_B1n_NtNtB1p_3imp11TokenStreamuNCINvXs7_B1p_B1n_INtNtNtBa_6traits7collect12FromIteratorB1n_E9from_iterINtB2J_3MapBN_B3i_EE0NCIB2H_B4o_NtCs7yrEGia95Wz_10proc_macro11TokenStreamuNCINvXs6_B4q_B4o_IB56_B4o_E9from_iterIB5Y_B5X_B4O_EE0NCINvNvNtNtB5a_8iterator8Iterator8for_each4callB6t_NCINvXsj_B6v_B6t_INtB58_6ExtendB6t_E6extendIB5Y_B7K_B79_EE0E0E0E0E0EB3o_, symObjAddr: 0x18DC, symBinAddr: 0xF2EC, symSize: 0x164 }
  - { offset: 0x318B3, size: 0x8, addend: 0x0, symName: __RNvXs2_NtNtNtCsaNl6UpbT7bw_4core4iter8adapters3zipINtB5_3ZipINtNtNtBb_5slice4iter4IterNtCshnvkK9b4wzu_11proc_macro211TokenStreamEIBX_ReEEINtB5_7ZipImplBW_B23_E13get_uncheckedCsaeTzLhAkejc_12tokio_macros, symObjAddr: 0x4460, symBinAddr: 0x11E6C, symSize: 0x7C }
  - { offset: 0x31926, size: 0x8, addend: 0x0, symName: __RINvXs_NtNtNtCsaNl6UpbT7bw_4core4iter8adapters3zipINtB5_3ZipINtNtNtBb_5slice4iter4IterNtCshnvkK9b4wzu_11proc_macro211TokenStreamEIBX_ReEENtNtNtB9_6traits8iterator8Iterator4folduNCINvNtB7_3map8map_foldTRB1m_RB27_EB1m_uNCNvNtCsaeTzLhAkejc_12tokio_macros5entry11parse_knobss1_0NCIB2S_B1m_NtNtB1o_3imp11TokenStreamuNCINvXs7_B1o_B1m_INtNtB2f_7collect12FromIteratorB1m_E9from_iterINtB2U_3MapBM_B3t_EE0NCIB2S_B4z_NtCs7yrEGia95Wz_10proc_macro11TokenStreamuNCINvXs6_B4B_B4z_IB5h_B4z_E9from_iterIB61_B60_B4Z_EE0NCINvNvB2b_8for_each4callB6w_NCINvXsj_B6y_B6w_INtB5j_6ExtendB6w_E6extendIB61_B7N_B7c_EE0E0E0E0E0EB3z_, symObjAddr: 0x1CF8, symBinAddr: 0xF708, symSize: 0x24 }
  - { offset: 0x3198F, size: 0x8, addend: 0x0, symName: __RNvXs_NtNtNtCsaNl6UpbT7bw_4core4iter8adapters3zipINtB4_3ZipINtNtCsc29TF2YcYso_3syn10punctuated4IterNtNtB10_4path11PathSegmentEINtNtNtBa_5array4iter8IntoIterReKj4_EENtNtNtB8_6traits8iterator8Iterator4nextCsaeTzLhAkejc_12tokio_macros, symObjAddr: 0x4CD8, symBinAddr: 0x126E4, symSize: 0x24 }
  - { offset: 0x319CD, size: 0x8, addend: 0x0, symName: __RNvXs_NtNtNtCsaNl6UpbT7bw_4core4iter8adapters3zipINtB4_3ZipINtNtNtBa_5slice4iter4IterNtCshnvkK9b4wzu_11proc_macro211TokenStreamEIBW_ReEENtNtNtB8_6traits8iterator8Iterator4nextCsaeTzLhAkejc_12tokio_macros, symObjAddr: 0x4CFC, symBinAddr: 0x12708, symSize: 0x24 }
  - { offset: 0x31A0B, size: 0x8, addend: 0x0, symName: __RNvXs_NtNtNtCsaNl6UpbT7bw_4core4iter8adapters3zipINtB4_3ZipINtNtNtBa_5slice4iter4IterNtCshnvkK9b4wzu_11proc_macro211TokenStreamEIBW_ReEENtNtNtB8_6traits8iterator8Iterator9size_hintCsaeTzLhAkejc_12tokio_macros, symObjAddr: 0x4D20, symBinAddr: 0x1272C, symSize: 0x24 }
  - { offset: 0x31A4F, size: 0x8, addend: 0x0, symName: __RNvXs1_NtNtNtCsaNl6UpbT7bw_4core4iter8adapters3zipINtB5_3ZipINtNtCsc29TF2YcYso_3syn10punctuated4IterNtNtB11_4path11PathSegmentEINtNtNtBb_5array4iter8IntoIterReKj4_EEINtB5_7ZipImplBW_B21_E3newCsaeTzLhAkejc_12tokio_macros, symObjAddr: 0x4220, symBinAddr: 0x11C2C, symSize: 0x5C }
  - { offset: 0x31A9C, size: 0x8, addend: 0x0, symName: __RNvXs1_NtNtNtCsaNl6UpbT7bw_4core4iter8adapters3zipINtB5_3ZipINtNtCsc29TF2YcYso_3syn10punctuated4IterNtNtB11_4path11PathSegmentEINtNtNtBb_5array4iter8IntoIterReKj4_EEINtB5_7ZipImplBW_B21_E4nextCsaeTzLhAkejc_12tokio_macros, symObjAddr: 0x427C, symBinAddr: 0x11C88, symSize: 0x11C }
  - { offset: 0x31BFE, size: 0x8, addend: 0x0, symName: __RNvXs3_NtNtNtCsaNl6UpbT7bw_4core4iter8adapters3zipINtB5_3ZipINtNtNtBb_5slice4iter4IterNtCshnvkK9b4wzu_11proc_macro211TokenStreamEIBX_ReEEINtB5_7ZipImplBW_B23_E3newCsaeTzLhAkejc_12tokio_macros, symObjAddr: 0x455C, symBinAddr: 0x11F68, symSize: 0xC4 }
  - { offset: 0x31CAF, size: 0x8, addend: 0x0, symName: __RNvXs3_NtNtNtCsaNl6UpbT7bw_4core4iter8adapters3zipINtB5_3ZipINtNtNtBb_5slice4iter4IterNtCshnvkK9b4wzu_11proc_macro211TokenStreamEIBX_ReEEINtB5_7ZipImplBW_B23_E4nextCsaeTzLhAkejc_12tokio_macros, symObjAddr: 0x4620, symBinAddr: 0x1202C, symSize: 0xB8 }
  - { offset: 0x31D05, size: 0x8, addend: 0x0, symName: __RNvXs3_NtNtNtCsaNl6UpbT7bw_4core4iter8adapters3zipINtB5_3ZipINtNtNtBb_5slice4iter4IterNtCshnvkK9b4wzu_11proc_macro211TokenStreamEIBX_ReEEINtB5_7ZipImplBW_B23_E9size_hintCsaeTzLhAkejc_12tokio_macros, symObjAddr: 0x46D8, symBinAddr: 0x120E4, symSize: 0x44 }
  - { offset: 0x31E66, size: 0x8, addend: 0x0, symName: __RINvYINtNtCsaNl6UpbT7bw_4core6option8IntoIterNtNtCsc29TF2YcYso_3syn4attr4MetaENtNtNtNtB8_4iter6traits8iterator8Iterator4folduNCINvNvB1e_8for_each4callBH_NCINvMsi_NtCsiTraAjBDcu4_5alloc3vecINtB2A_3VecBH_E14extend_trustedB3_E0E0ECsaeTzLhAkejc_12tokio_macros, symObjAddr: 0x1D1C, symBinAddr: 0xF72C, symSize: 0x140 }
  - { offset: 0x31EF8, size: 0x8, addend: 0x0, symName: __RINvYINtNtCsaNl6UpbT7bw_4core6option8IntoIterNtNtCsc29TF2YcYso_3syn4attr4MetaENtNtNtNtB8_4iter6traits8iterator8Iterator8for_eachNCINvMsi_NtCsiTraAjBDcu4_5alloc3vecINtB2b_3VecBH_E14extend_trustedB3_E0ECsaeTzLhAkejc_12tokio_macros, symObjAddr: 0x1E5C, symBinAddr: 0xF86C, symSize: 0x34 }
  - { offset: 0x31F64, size: 0x8, addend: 0x0, symName: __RINvYINtNtNtCsaNl6UpbT7bw_4core5array4iter8IntoIterARej4_Kj2_ENtNtNtNtBa_4iter6traits8iterator8Iterator3anyNCNvNtCsaeTzLhAkejc_12tokio_macros5entry17is_test_attribute0EB1N_, symObjAddr: 0x1E90, symBinAddr: 0xF8A0, symSize: 0x44 }
  - { offset: 0x31FB3, size: 0x8, addend: 0x0, symName: __RINvYINtNtNtCsaNl6UpbT7bw_4core5array4iter8IntoIterNtCshnvkK9b4wzu_11proc_macro29TokenTreeKj1_ENtNtNtNtBa_4iter6traits8iterator8Iterator8for_eachNCINvXsa_NtBP_8fallbackNtB2s_11TokenStreamINtNtB1z_7collect6ExtendBN_E6extendABN_B1r_E0ECsaeTzLhAkejc_12tokio_macros, symObjAddr: 0x1ED4, symBinAddr: 0xF8E4, symSize: 0x24 }
  - { offset: 0x31FFF, size: 0x8, addend: 0x0, symName: __RINvYINtNtNtNtCsaNl6UpbT7bw_4core4iter8adapters3zip3ZipINtNtCsc29TF2YcYso_3syn10punctuated4IterNtNtBW_4path11PathSegmentEINtNtNtBc_5array4iter8IntoIterReKj4_EENtNtNtBa_6traits8iterator8Iterator3allNCNCNvNtCsaeTzLhAkejc_12tokio_macros5entry17is_test_attribute00EB3h_, symObjAddr: 0x1EF8, symBinAddr: 0xF908, symSize: 0x3C }
  - { offset: 0x3204E, size: 0x8, addend: 0x0, symName: __RINvYINtNtNtNtCsaNl6UpbT7bw_4core4iter8adapters3zip3ZipINtNtCsc29TF2YcYso_3syn10punctuated4IterNtNtBW_4path11PathSegmentEINtNtNtBc_5array4iter8IntoIterReKj4_EENtNtNtBa_6traits8iterator8Iterator8try_folduNCINvNvB2x_3all5checkTRB1v_B2p_ENCNCNvNtCsaeTzLhAkejc_12tokio_macros5entry17is_test_attribute00E0INtNtNtBc_3ops12control_flow11ControlFlowuEEB3T_, symObjAddr: 0x1F34, symBinAddr: 0xF944, symSize: 0x13C }
  - { offset: 0x32101, size: 0x8, addend: 0x0, symName: __RINvYINtNtNtNtCsaNl6UpbT7bw_4core4iter8adapters3zip3ZipINtNtNtBc_5slice4iter4IterNtCshnvkK9b4wzu_11proc_macro211TokenStreamEIBS_ReEENtNtNtBa_6traits8iterator8Iterator3mapB1h_NCNvNtCsaeTzLhAkejc_12tokio_macros5entry11parse_knobss1_0EB2S_, symObjAddr: 0x2070, symBinAddr: 0xFA80, symSize: 0x30 }
  - { offset: 0x321C5, size: 0x8, addend: 0x0, symName: __RNvYINtNtCsaNl6UpbT7bw_4core6option8IntoIterQNtNtCsc29TF2YcYso_3syn3pat3PatENtNtNtNtB7_4iter6traits10exact_size17ExactSizeIterator3lenCsaeTzLhAkejc_12tokio_macros, symObjAddr: 0x4FD0, symBinAddr: 0x129DC, symSize: 0xC4 }
  - { offset: 0x322C0, size: 0x8, addend: 0x0, symName: __RNvYINtNtCsaNl6UpbT7bw_4core6option8IntoIterQNtNtCsc29TF2YcYso_3syn3pat8FieldPatENtNtNtNtB7_4iter6traits10exact_size17ExactSizeIterator3lenCsaeTzLhAkejc_12tokio_macros, symObjAddr: 0x5094, symBinAddr: 0x12AA0, symSize: 0xC4 }
  - { offset: 0x32CCE, size: 0x8, addend: 0x0, symName: __RINvXs_NtNtCsaNl6UpbT7bw_4core3ops11index_rangeNtB5_10IndexRangeNtNtNtNtB9_4iter6traits8iterator8Iterator8try_folduNCINvMs6_NtNtNtB9_5array4iter10iter_innerINtB1Y_15PolymorphicIterSINtNtNtB9_3mem12maybe_uninit11MaybeUninitARej4_EE8try_folduNCINvNvB10_3any5checkB3y_NCNvNtCsaeTzLhAkejc_12tokio_macros5entry17is_test_attribute0E0INtNtB7_12control_flow11ControlFlowuEE0B5f_EB4l_, symObjAddr: 0x1A40, symBinAddr: 0xF450, symSize: 0x17C }
  - { offset: 0x32DD6, size: 0x8, addend: 0x0, symName: __RINvXs_NtNtCsaNl6UpbT7bw_4core3ops11index_rangeNtB5_10IndexRangeNtNtNtNtB9_4iter6traits8iterator8Iterator8try_folduNCINvMs6_NtNtNtB9_5array4iter10iter_innerINtB1Y_15PolymorphicIterSINtNtNtB9_3mem12maybe_uninit11MaybeUninitNtCshnvkK9b4wzu_11proc_macro29TokenTreeEE8try_folduNCINvMNtB7_9try_traitINtB4t_17NeverShortCircuituE10wrap_mut_2uB3y_NCINvNvB10_8for_each4callB3y_NCINvXsa_NtB3A_8fallbackNtB63_11TokenStreamINtNtB14_7collect6ExtendB3y_E6extendAB3y_j1_E0E0E0B4I_E0B4I_ECsaeTzLhAkejc_12tokio_macros, symObjAddr: 0x1BBC, symBinAddr: 0xF5CC, symSize: 0x13C }
  - { offset: 0x331D1, size: 0x8, addend: 0x0, symName: __RNCINvMs6_NtNtNtCsaNl6UpbT7bw_4core5array4iter10iter_innerINtB8_15PolymorphicIterSINtNtNtBe_3mem12maybe_uninit11MaybeUninitARej4_EE8try_folduNCINvNvNtNtNtNtBe_4iter6traits8iterator8Iterator3any5checkB1X_NCNvNtCsaeTzLhAkejc_12tokio_macros5entry17is_test_attribute0E0INtNtNtBe_3ops12control_flow11ControlFlowuEE0B3l_, symObjAddr: 0x20A0, symBinAddr: 0xFAB0, symSize: 0xC0 }
  - { offset: 0x33333, size: 0x8, addend: 0x0, symName: __RNCINvMs6_NtNtNtCsaNl6UpbT7bw_4core5array4iter10iter_innerINtB8_15PolymorphicIterSINtNtNtBe_3mem12maybe_uninit11MaybeUninitNtCshnvkK9b4wzu_11proc_macro29TokenTreeEE8try_folduNCINvMNtNtBe_3ops9try_traitINtB2S_17NeverShortCircuituE10wrap_mut_2uB1X_NCINvNvNtNtNtNtBe_4iter6traits8iterator8Iterator8for_each4callB1X_NCINvXsa_NtB1Z_8fallbackNtB59_11TokenStreamINtNtB47_7collect6ExtendB1X_E6extendAB1X_j1_E0E0E0B3d_E0CsaeTzLhAkejc_12tokio_macros, symObjAddr: 0x2160, symBinAddr: 0xFB70, symSize: 0xAC }
  - { offset: 0x33563, size: 0x8, addend: 0x0, symName: __RNvXNtNtNtCsaNl6UpbT7bw_4core5array4iter10iter_innerSINtNtNtB8_3mem12maybe_uninit11MaybeUninitARej4_ENtB2_11PartialDrop12partial_dropCsaeTzLhAkejc_12tokio_macros, symObjAddr: 0x4008, symBinAddr: 0x11A14, symSize: 0xAC }
  - { offset: 0x3366F, size: 0x8, addend: 0x0, symName: __RNvXNtNtNtCsaNl6UpbT7bw_4core5array4iter10iter_innerSINtNtNtB8_3mem12maybe_uninit11MaybeUninitReENtB2_11PartialDrop12partial_dropCsaeTzLhAkejc_12tokio_macros, symObjAddr: 0x40B4, symBinAddr: 0x11AC0, symSize: 0xAC }
  - { offset: 0x33781, size: 0x8, addend: 0x0, symName: __RNvXs1_NtNtNtCsaNl6UpbT7bw_4core5array4iter10iter_innerINtB5_15PolymorphicIterAINtNtNtBb_3mem12maybe_uninit11MaybeUninitARej4_Ej2_ENtNtNtBb_3ops4drop4Drop4dropCsaeTzLhAkejc_12tokio_macros, symObjAddr: 0x4398, symBinAddr: 0x11DA4, symSize: 0x38 }
  - { offset: 0x337CF, size: 0x8, addend: 0x0, symName: __RNvXs1_NtNtNtCsaNl6UpbT7bw_4core5array4iter10iter_innerINtB5_15PolymorphicIterAINtNtNtBb_3mem12maybe_uninit11MaybeUninitReEj4_ENtNtNtBb_3ops4drop4Drop4dropCsaeTzLhAkejc_12tokio_macros, symObjAddr: 0x43D0, symBinAddr: 0x11DDC, symSize: 0x38 }
  - { offset: 0x33870, size: 0x8, addend: 0x0, symName: __RNvXs_NtNtNtCsaNl6UpbT7bw_4core5array4iter10iter_innerAINtNtNtBa_3mem12maybe_uninit11MaybeUninitARej4_Ej2_NtB4_11PartialDrop12partial_dropCsaeTzLhAkejc_12tokio_macros, symObjAddr: 0x4D44, symBinAddr: 0x12750, symSize: 0x4C }
  - { offset: 0x338CC, size: 0x8, addend: 0x0, symName: __RNvXs_NtNtNtCsaNl6UpbT7bw_4core5array4iter10iter_innerAINtNtNtBa_3mem12maybe_uninit11MaybeUninitReEj4_NtB4_11PartialDrop12partial_dropCsaeTzLhAkejc_12tokio_macros, symObjAddr: 0x4D90, symBinAddr: 0x1279C, symSize: 0x4C }
  - { offset: 0x3392F, size: 0x8, addend: 0x0, symName: __RINvXs2_NtNtCsaNl6UpbT7bw_4core5array4iterINtB6_8IntoIterARej4_Kj2_ENtNtNtNtBa_4iter6traits8iterator8Iterator8try_folduNCINvNvB14_3any5checkBT_NCNvNtCsaeTzLhAkejc_12tokio_macros5entry17is_test_attribute0E0INtNtNtBa_3ops12control_flow11ControlFlowuEEB2n_, symObjAddr: 0x17E4, symBinAddr: 0xF1F4, symSize: 0x5C }
  - { offset: 0x33A01, size: 0x8, addend: 0x0, symName: __RINvXs2_NtNtCsaNl6UpbT7bw_4core5array4iterINtB6_8IntoIterNtCshnvkK9b4wzu_11proc_macro29TokenTreeKj1_ENtNtNtNtBa_4iter6traits8iterator8Iterator4folduNCINvNvB1B_8for_each4callBT_NCINvXsa_NtBV_8fallbackNtB2X_11TokenStreamINtNtB1F_7collect6ExtendBT_E6extendABT_B1x_E0E0ECsaeTzLhAkejc_12tokio_macros, symObjAddr: 0x1840, symBinAddr: 0xF250, symSize: 0x9C }
  - { offset: 0x33B0B, size: 0x8, addend: 0x0, symName: __RNvXs2_NtNtCsaNl6UpbT7bw_4core5array4iterINtB5_8IntoIterNtCshnvkK9b4wzu_11proc_macro29TokenTreeKj1_ENtNtNtNtB9_4iter6traits8iterator8Iterator4nextCsaeTzLhAkejc_12tokio_macros, symObjAddr: 0x4408, symBinAddr: 0x11E14, symSize: 0x2C }
  - { offset: 0x33B40, size: 0x8, addend: 0x0, symName: __RNvXs2_NtNtCsaNl6UpbT7bw_4core5array4iterINtB5_8IntoIterReKj4_ENtNtNtNtB9_4iter6traits8iterator8Iterator4nextCsaeTzLhAkejc_12tokio_macros, symObjAddr: 0x4434, symBinAddr: 0x11E40, symSize: 0x2C }
  - { offset: 0x33BB7, size: 0x8, addend: 0x0, symName: __RNvXs4_NtNtCsaNl6UpbT7bw_4core5array4iterINtB5_8IntoIterARej4_Kj2_ENtNtNtB9_3ops4drop4Drop4dropCsaeTzLhAkejc_12tokio_macros, symObjAddr: 0x471C, symBinAddr: 0x12128, symSize: 0x10 }
  - { offset: 0x33BEA, size: 0x8, addend: 0x0, symName: __RNvXs4_NtNtCsaNl6UpbT7bw_4core5array4iterINtB5_8IntoIterReKj4_ENtNtNtB9_3ops4drop4Drop4dropCsaeTzLhAkejc_12tokio_macros, symObjAddr: 0x472C, symBinAddr: 0x12138, symSize: 0x10 }
  - { offset: 0x33C23, size: 0x8, addend: 0x0, symName: __RNvXs_NtNtCsaNl6UpbT7bw_4core5array4iterAARej4_j2_NtNtNtNtB8_4iter6traits7collect12IntoIterator9into_iterCsaeTzLhAkejc_12tokio_macros, symObjAddr: 0x4BF0, symBinAddr: 0x125FC, symSize: 0x78 }
  - { offset: 0x33C6D, size: 0x8, addend: 0x0, symName: __RNvXs_NtNtCsaNl6UpbT7bw_4core5array4iterARej4_NtNtNtNtB8_4iter6traits7collect12IntoIterator9into_iterCsaeTzLhAkejc_12tokio_macros, symObjAddr: 0x4C68, symBinAddr: 0x12674, symSize: 0x70 }
  - { offset: 0x33DDB, size: 0x8, addend: 0x0, symName: __RNvNvNtCsaNl6UpbT7bw_4core4hint16assert_unchecked18precondition_checkCsaeTzLhAkejc_12tokio_macros, symObjAddr: 0x3A50, symBinAddr: 0x1145C, symSize: 0xA4 }
  - { offset: 0x33E3B, size: 0x8, addend: 0x0, symName: __RNvNvNtCsaNl6UpbT7bw_4core4hint21unreachable_unchecked18precondition_checkCsaeTzLhAkejc_12tokio_macros, symObjAddr: 0x3AF4, symBinAddr: 0x11500, symSize: 0x84 }
  - { offset: 0x34120, size: 0x8, addend: 0x0, symName: __RNvMNtNtCsaNl6UpbT7bw_4core4char7methodsc8to_digitCsaeTzLhAkejc_12tokio_macros, symObjAddr: 0x27A8, symBinAddr: 0x101B8, symSize: 0x14C }
  - { offset: 0x3423A, size: 0x8, addend: 0x0, symName: __RNvNvNtCsaNl6UpbT7bw_4core9ub_checks23maybe_is_nonoverlapping7runtimeCsaeTzLhAkejc_12tokio_macros, symObjAddr: 0x3B78, symBinAddr: 0x11584, symSize: 0xD8 }
  - { offset: 0x3466D, size: 0x8, addend: 0x0, symName: __RINvCsc29TF2YcYso_3syn6parse2NtNtCsaeTzLhAkejc_12tokio_macros5entry6ItemFnEBv_, symObjAddr: 0x0, symBinAddr: 0xDA10, symSize: 0x24 }
  - { offset: 0x397CF, size: 0x8, addend: 0x0, symName: __RNvXs_NtCsiTraAjBDcu4_5alloc5allocNtB4_6GlobalNtNtCsaNl6UpbT7bw_4core5alloc9Allocator10deallocateCsaeTzLhAkejc_12tokio_macros, symObjAddr: 0x4B70, symBinAddr: 0x1257C, symSize: 0x80 }
  - { offset: 0x39897, size: 0x8, addend: 0x0, symName: __RNvNtCsiTraAjBDcu4_5alloc5alloc15exchange_mallocCsaeTzLhAkejc_12tokio_macros, symObjAddr: 0x36EC, symBinAddr: 0x110F8, symSize: 0xAC }
  - { offset: 0x3A7A5, size: 0x8, addend: 0x0, symName: __RNvXss_NtCsiTraAjBDcu4_5alloc6stringNtB5_6StringNtNtNtCsaNl6UpbT7bw_4core3ops5deref5Deref5derefCsaeTzLhAkejc_12tokio_macros, symObjAddr: 0x4DDC, symBinAddr: 0x127E8, symSize: 0x24 }
  - { offset: 0x3A7DA, size: 0x8, addend: 0x0, symName: __RNvNtCsiTraAjBDcu4_5alloc3fmt6formatCsaeTzLhAkejc_12tokio_macros, symObjAddr: 0x3618, symBinAddr: 0x11024, symSize: 0xD4 }
  - { offset: 0x3AD56, size: 0x8, addend: 0x0, symName: __RINvMNtCsaNl6UpbT7bw_4core6optionINtB3_6OptionINtNtCsiTraAjBDcu4_5alloc5boxed3BoxNtNtCsc29TF2YcYso_3syn4attr4MetaEE3mapB1h_NCNvXs8_NtB1l_10punctuatedINtB25_10PunctuatedB1h_NtNtB1l_5token5CommaENtNtNtNtB5_4iter6traits7collect12IntoIterator9into_iters_0ECsaeTzLhAkejc_12tokio_macros, symObjAddr: 0x24, symBinAddr: 0xDA34, symSize: 0x78 }
  - { offset: 0x3ADF9, size: 0x8, addend: 0x0, symName: __RINvMNtCsaNl6UpbT7bw_4core6optionINtB3_6OptionNtCshnvkK9b4wzu_11proc_macro211TokenStreamE14unwrap_or_elseNCNvNtCsaeTzLhAkejc_12tokio_macros5entry11parse_knobss0_0EB1L_, symObjAddr: 0x9C, symBinAddr: 0xDAAC, symSize: 0x7C }
  - { offset: 0x3AE6E, size: 0x8, addend: 0x0, symName: __RINvMNtCsaNl6UpbT7bw_4core6optionINtB3_6OptionNtCshnvkK9b4wzu_11proc_macro29TokenTreeE11map_or_elseNtBK_4SpanNvMse_BK_B1z_9call_siteNCNvNtCsaeTzLhAkejc_12tokio_macros5entry11parse_knobs0EB2c_, symObjAddr: 0x118, symBinAddr: 0xDB28, symSize: 0xE4 }
  - { offset: 0x3AEEA, size: 0x8, addend: 0x0, symName: __RINvMNtCsaNl6UpbT7bw_4core6optionINtB3_6OptionNtCshnvkK9b4wzu_11proc_macro29TokenTreeE6map_orNtBK_4SpanNCNvNtCsaeTzLhAkejc_12tokio_macros5entry11parse_knobss_0EB1J_, symObjAddr: 0x1FC, symBinAddr: 0xDC0C, symSize: 0xC8 }
  - { offset: 0x3AF75, size: 0x8, addend: 0x0, symName: __RINvMNtCsaNl6UpbT7bw_4core6optionINtB3_6OptionNtNtCsc29TF2YcYso_3syn4path4PathE3mapNtCshnvkK9b4wzu_11proc_macro211TokenStreamNvYBI_NtNtCs4EAaWzSXu1l_5quote9to_tokens8ToTokens17into_token_streamECsaeTzLhAkejc_12tokio_macros, symObjAddr: 0x2C4, symBinAddr: 0xDCD4, symSize: 0x9C }
  - { offset: 0x3B013, size: 0x8, addend: 0x0, symName: __RINvMNtCsaNl6UpbT7bw_4core6optionINtB3_6OptionQINtNtCsiTraAjBDcu4_5alloc5boxed3BoxNtNtCsc29TF2YcYso_3syn3pat3PatEE3mapQB1i_NvYBJ_INtNtB5_7convert5AsMutB1i_E6as_mutECsaeTzLhAkejc_12tokio_macros, symObjAddr: 0x360, symBinAddr: 0xDD70, symSize: 0x50 }
  - { offset: 0x3B0B0, size: 0x8, addend: 0x0, symName: __RINvMNtCsaNl6UpbT7bw_4core6optionINtB3_6OptionQINtNtCsiTraAjBDcu4_5alloc5boxed3BoxNtNtCsc29TF2YcYso_3syn3pat8FieldPatEE3mapQB1i_NvYBJ_INtNtB5_7convert5AsMutB1i_E6as_mutECsaeTzLhAkejc_12tokio_macros, symObjAddr: 0x3B0, symBinAddr: 0xDDC0, symSize: 0x50 }
  - { offset: 0x3B128, size: 0x8, addend: 0x0, symName: __RINvMNtCsaNl6UpbT7bw_4core6optionINtB3_6OptionQNtNtCsc29TF2YcYso_3syn3pat3PatE7or_elseNCNvXsF_NtBN_10punctuatedINtB1u_14PrivateIterMutBJ_NtNtBN_5token2OrENtNtNtNtB5_4iter6traits8iterator8Iterator4nexts_0ECsaeTzLhAkejc_12tokio_macros, symObjAddr: 0x400, symBinAddr: 0xDE10, symSize: 0xA8 }
  - { offset: 0x3B18A, size: 0x8, addend: 0x0, symName: __RINvMNtCsaNl6UpbT7bw_4core6optionINtB3_6OptionQNtNtCsc29TF2YcYso_3syn3pat3PatE7or_elseNCNvXsF_NtBN_10punctuatedINtB1u_14PrivateIterMutBJ_NtNtBN_5token5CommaENtNtNtNtB5_4iter6traits8iterator8Iterator4nexts_0ECsaeTzLhAkejc_12tokio_macros, symObjAddr: 0x4A8, symBinAddr: 0xDEB8, symSize: 0xA8 }
  - { offset: 0x3B220, size: 0x8, addend: 0x0, symName: __RINvMNtCsaNl6UpbT7bw_4core6optionINtB3_6OptionQNtNtCsc29TF2YcYso_3syn3pat3PatE7or_elseNCNvXsG_NtBN_10punctuatedINtB1u_14PrivateIterMutBJ_NtNtBN_5token2OrENtNtNtNtB5_4iter6traits12double_ended19DoubleEndedIterator9next_back0ECsaeTzLhAkejc_12tokio_macros, symObjAddr: 0x550, symBinAddr: 0xDF60, symSize: 0xA8 }
  - { offset: 0x3B2B6, size: 0x8, addend: 0x0, symName: __RINvMNtCsaNl6UpbT7bw_4core6optionINtB3_6OptionQNtNtCsc29TF2YcYso_3syn3pat3PatE7or_elseNCNvXsG_NtBN_10punctuatedINtB1u_14PrivateIterMutBJ_NtNtBN_5token5CommaENtNtNtNtB5_4iter6traits12double_ended19DoubleEndedIterator9next_back0ECsaeTzLhAkejc_12tokio_macros, symObjAddr: 0x5F8, symBinAddr: 0xE008, symSize: 0xA8 }
  - { offset: 0x3B325, size: 0x8, addend: 0x0, symName: __RINvMNtCsaNl6UpbT7bw_4core6optionINtB3_6OptionQNtNtCsc29TF2YcYso_3syn3pat8FieldPatE7or_elseNCNvXsF_NtBN_10punctuatedINtB1z_14PrivateIterMutBJ_NtNtBN_5token5CommaENtNtNtNtB5_4iter6traits8iterator8Iterator4nexts_0ECsaeTzLhAkejc_12tokio_macros, symObjAddr: 0x6A0, symBinAddr: 0xE0B0, symSize: 0xA8 }
  - { offset: 0x3B3BB, size: 0x8, addend: 0x0, symName: __RINvMNtCsaNl6UpbT7bw_4core6optionINtB3_6OptionQNtNtCsc29TF2YcYso_3syn3pat8FieldPatE7or_elseNCNvXsG_NtBN_10punctuatedINtB1z_14PrivateIterMutBJ_NtNtBN_5token5CommaENtNtNtNtB5_4iter6traits12double_ended19DoubleEndedIterator9next_back0ECsaeTzLhAkejc_12tokio_macros, symObjAddr: 0x748, symBinAddr: 0xE158, symSize: 0xA8 }
  - { offset: 0x3B41D, size: 0x8, addend: 0x0, symName: __RINvMNtCsaNl6UpbT7bw_4core6optionINtB3_6OptionQTNtNtCsc29TF2YcYso_3syn3pat3PatNtNtBO_5token2OrEE3mapQBK_NCNCNvXsG_NtBO_10punctuatedINtB1O_14PrivateIterMutBK_B1e_ENtNtNtNtB5_4iter6traits12double_ended19DoubleEndedIterator9next_back00ECsaeTzLhAkejc_12tokio_macros, symObjAddr: 0x7F0, symBinAddr: 0xE200, symSize: 0x50 }
  - { offset: 0x3B488, size: 0x8, addend: 0x0, symName: __RINvMNtCsaNl6UpbT7bw_4core6optionINtB3_6OptionQTNtNtCsc29TF2YcYso_3syn3pat3PatNtNtBO_5token2OrEE3mapQBK_NCNvXsF_NtBO_10punctuatedINtB1M_14PrivateIterMutBK_B1e_ENtNtNtNtB5_4iter6traits8iterator8Iterator4next0ECsaeTzLhAkejc_12tokio_macros, symObjAddr: 0x840, symBinAddr: 0xE250, symSize: 0x50 }
  - { offset: 0x3B4F3, size: 0x8, addend: 0x0, symName: __RINvMNtCsaNl6UpbT7bw_4core6optionINtB3_6OptionQTNtNtCsc29TF2YcYso_3syn3pat3PatNtNtBO_5token5CommaEE3mapQBK_NCNCNvXsG_NtBO_10punctuatedINtB1R_14PrivateIterMutBK_B1e_ENtNtNtNtB5_4iter6traits12double_ended19DoubleEndedIterator9next_back00ECsaeTzLhAkejc_12tokio_macros, symObjAddr: 0x890, symBinAddr: 0xE2A0, symSize: 0x50 }
  - { offset: 0x3B55E, size: 0x8, addend: 0x0, symName: __RINvMNtCsaNl6UpbT7bw_4core6optionINtB3_6OptionQTNtNtCsc29TF2YcYso_3syn3pat3PatNtNtBO_5token5CommaEE3mapQBK_NCNvXsF_NtBO_10punctuatedINtB1P_14PrivateIterMutBK_B1e_ENtNtNtNtB5_4iter6traits8iterator8Iterator4next0ECsaeTzLhAkejc_12tokio_macros, symObjAddr: 0x8E0, symBinAddr: 0xE2F0, symSize: 0x50 }
  - { offset: 0x3B5C9, size: 0x8, addend: 0x0, symName: __RINvMNtCsaNl6UpbT7bw_4core6optionINtB3_6OptionQTNtNtCsc29TF2YcYso_3syn3pat8FieldPatNtNtBO_5token5CommaEE3mapQBK_NCNCNvXsG_NtBO_10punctuatedINtB1W_14PrivateIterMutBK_B1j_ENtNtNtNtB5_4iter6traits12double_ended19DoubleEndedIterator9next_back00ECsaeTzLhAkejc_12tokio_macros, symObjAddr: 0x930, symBinAddr: 0xE340, symSize: 0x50 }
  - { offset: 0x3B634, size: 0x8, addend: 0x0, symName: __RINvMNtCsaNl6UpbT7bw_4core6optionINtB3_6OptionQTNtNtCsc29TF2YcYso_3syn3pat8FieldPatNtNtBO_5token5CommaEE3mapQBK_NCNvXsF_NtBO_10punctuatedINtB1U_14PrivateIterMutBK_B1j_ENtNtNtNtB5_4iter6traits8iterator8Iterator4next0ECsaeTzLhAkejc_12tokio_macros, symObjAddr: 0x980, symBinAddr: 0xE390, symSize: 0x50 }
  - { offset: 0x3B777, size: 0x8, addend: 0x0, symName: __RNCNvMs3_NtNtCsht3nMU9UgFu_3std6thread5localINtB7_8LocalKeyINtNtCsaNl6UpbT7bw_4core4cell4CellPuEE7replace0CsaeTzLhAkejc_12tokio_macros, symObjAddr: 0x220C, symBinAddr: 0xFC1C, symSize: 0x28 }
  - { offset: 0x3B80B, size: 0x8, addend: 0x0, symName: __RINvMNtCsaNl6UpbT7bw_4core6optionINtB3_6OptionRNtCshnvkK9b4wzu_11proc_macro25IdentE10ok_or_elseNtNtCsc29TF2YcYso_3syn5error5ErrorNCNvNtCsaeTzLhAkejc_12tokio_macros5entry12build_config0EB29_, symObjAddr: 0x9D0, symBinAddr: 0xE3E0, symSize: 0x7C }
  - { offset: 0x3B883, size: 0x8, addend: 0x0, symName: __RINvMNtCsaNl6UpbT7bw_4core6optionINtB3_6OptionRNtCshnvkK9b4wzu_11proc_macro25IdentE10ok_or_elseNtNtCsc29TF2YcYso_3syn5error5ErrorNCNvNtCsaeTzLhAkejc_12tokio_macros5entry12build_configs_0EB29_, symObjAddr: 0xA4C, symBinAddr: 0xE45C, symSize: 0x7C }
  - { offset: 0x3B915, size: 0x8, addend: 0x0, symName: __RINvMNtCsaNl6UpbT7bw_4core6optionINtB3_6OptionRNtNtCsc29TF2YcYso_3syn4attr9AttributeE7or_elseNCINvXs_NtNtNtB5_4iter8adapters5chainINtB1B_5ChainINtNtNtB5_5slice4iter4IterBJ_EB2h_ENtNtNtB1F_6traits8iterator8Iterator4findNCNvNtCsaeTzLhAkejc_12tokio_macros5entry4test0Es_0EB3A_, symObjAddr: 0xAC8, symBinAddr: 0xE4D8, symSize: 0xA8 }
  - { offset: 0x3B995, size: 0x8, addend: 0x0, symName: __RINvMNtCsaNl6UpbT7bw_4core6optionINtB3_6OptionTjNtCshnvkK9b4wzu_11proc_macro24SpanEE3mapjNCNvMs0_NtCsaeTzLhAkejc_12tokio_macros5entryNtB1x_13Configuration5build0EB1z_, symObjAddr: 0xB70, symBinAddr: 0xE580, symSize: 0x60 }
  - { offset: 0x3BA01, size: 0x8, addend: 0x0, symName: __RINvMNtCsc29TF2YcYso_3syn5errorNtB3_5Error11new_spannedNtNtB5_4attr13MetaNameValueNtNtCsiTraAjBDcu4_5alloc6string6StringECsaeTzLhAkejc_12tokio_macros, symObjAddr: 0xBD0, symBinAddr: 0xE5E0, symSize: 0xCC }
  - { offset: 0x3BA63, size: 0x8, addend: 0x0, symName: __RINvMNtCsc29TF2YcYso_3syn5errorNtB3_5Error11new_spannedNtNtB5_4attr13MetaNameValueReECsaeTzLhAkejc_12tokio_macros, symObjAddr: 0xC9C, symBinAddr: 0xE6AC, symSize: 0xBC }
  - { offset: 0x3BAA6, size: 0x8, addend: 0x0, symName: __RINvMNtCsc29TF2YcYso_3syn5errorNtB3_5Error11new_spannedNtNtB5_4attr4MetaReECsaeTzLhAkejc_12tokio_macros, symObjAddr: 0xD58, symBinAddr: 0xE768, symSize: 0xBC }
  - { offset: 0x3BAE9, size: 0x8, addend: 0x0, symName: __RINvMNtCsc29TF2YcYso_3syn5errorNtB3_5Error11new_spannedNtNtB5_4path4PathNtNtCsiTraAjBDcu4_5alloc6string6StringECsaeTzLhAkejc_12tokio_macros, symObjAddr: 0xE14, symBinAddr: 0xE824, symSize: 0xCC }
  - { offset: 0x3BB2D, size: 0x8, addend: 0x0, symName: __RINvMNtCsc29TF2YcYso_3syn5errorNtB3_5Error11new_spannedNtNtB5_5token2FnReECsaeTzLhAkejc_12tokio_macros, symObjAddr: 0xEE0, symBinAddr: 0xE8F0, symSize: 0xC0 }
  - { offset: 0x3BB6F, size: 0x8, addend: 0x0, symName: __RINvMNtCsc29TF2YcYso_3syn5errorNtB3_5Error11new_spannedRNtCshnvkK9b4wzu_11proc_macro25IdentReECsaeTzLhAkejc_12tokio_macros, symObjAddr: 0xFA0, symBinAddr: 0xE9B0, symSize: 0xC4 }
  - { offset: 0x3BBB1, size: 0x8, addend: 0x0, symName: __RINvMNtCsc29TF2YcYso_3syn5errorNtB3_5Error11new_spannedRNtNtB5_4attr13MetaNameValueReECsaeTzLhAkejc_12tokio_macros, symObjAddr: 0x1064, symBinAddr: 0xEA74, symSize: 0xC4 }
  - { offset: 0x3BBF3, size: 0x8, addend: 0x0, symName: __RINvMNtCsc29TF2YcYso_3syn5errorNtB3_5Error11new_spannedRNtNtB5_4attr9AttributeReECsaeTzLhAkejc_12tokio_macros, symObjAddr: 0x1128, symBinAddr: 0xEB38, symSize: 0xC4 }
  - { offset: 0x3BC42, size: 0x8, addend: 0x0, symName: __RINvMNtCsc29TF2YcYso_3syn5errorNtB3_5Error11new_spannedRNtNtB5_4expr4ExprReECsaeTzLhAkejc_12tokio_macros, symObjAddr: 0x11EC, symBinAddr: 0xEBFC, symSize: 0xC4 }
  - { offset: 0x3BC84, size: 0x8, addend: 0x0, symName: __RINvMNtCsc29TF2YcYso_3syn5errorNtB3_5Error11new_spannedRNtNtB5_4path4PathReECsaeTzLhAkejc_12tokio_macros, symObjAddr: 0x12B0, symBinAddr: 0xECC0, symSize: 0xC4 }
  - { offset: 0x3BD21, size: 0x8, addend: 0x0, symName: __RINvMs0_NtCshnvkK9b4wzu_11proc_macro25rcvecINtB6_8RcVecMutNtB8_9TokenTreeE6extendINtNtNtNtCsaNl6UpbT7bw_4core4iter8adapters7flatten7FlattenINtNtB1m_3map3MapIB2e_IB2e_INtNtB1m_3zip3ZipINtNtNtB1q_5slice4iter4IterNtB8_11TokenStreamEIB2W_ReEENCNvNtCsaeTzLhAkejc_12tokio_macros5entry11parse_knobss1_0ENCINvXs7_B8_B3m_INtNtNtB1o_6traits7collect12FromIteratorB3m_E9from_iterB2z_E0ENCINvXs6_NtB8_3impNtB69_11TokenStreamIB51_B6i_E9from_iterB2u_Es_0EEEB3U_, symObjAddr: 0x1374, symBinAddr: 0xED84, symSize: 0x40 }
  - { offset: 0x3BDB0, size: 0x8, addend: 0x0, symName: __RINvMs2_NtNtCsht3nMU9UgFu_3std6thread5localINtB6_8LocalKeyINtNtCsaNl6UpbT7bw_4core4cell4CellPuEE4withNCNvMs3_B6_BF_7replace0B1s_ECsaeTzLhAkejc_12tokio_macros, symObjAddr: 0x13B4, symBinAddr: 0xEDC4, symSize: 0x54 }
  - { offset: 0x3BE69, size: 0x8, addend: 0x0, symName: __RINvMs2_NtNtCsht3nMU9UgFu_3std6thread5localINtB6_8LocalKeyINtNtCsaNl6UpbT7bw_4core4cell4CellPuEE8try_withNCNvMs3_B6_BF_7replace0B1s_ECsaeTzLhAkejc_12tokio_macros, symObjAddr: 0x1408, symBinAddr: 0xEE18, symSize: 0xE4 }
  - { offset: 0x3C015, size: 0x8, addend: 0x0, symName: __RINvMs3_NtNtCs7yrEGia95Wz_10proc_macro6bridge6bufferNtB6_6Buffer17extend_from_arrayKj4_ECsaeTzLhAkejc_12tokio_macros, symObjAddr: 0x14EC, symBinAddr: 0xEEFC, symSize: 0x16C }
  - { offset: 0x3C19D, size: 0x8, addend: 0x0, symName: __RINvMs3_NtNtCs7yrEGia95Wz_10proc_macro6bridge6bufferNtB6_6Buffer17extend_from_arrayKj8_ECsaeTzLhAkejc_12tokio_macros, symObjAddr: 0x1658, symBinAddr: 0xF068, symSize: 0x16C }
  - { offset: 0x3C303, size: 0x8, addend: 0x0, symName: __RINvNtCs4EAaWzSXu1l_5quote9___private8get_spanNtCshnvkK9b4wzu_11proc_macro24SpanECsaeTzLhAkejc_12tokio_macros, symObjAddr: 0x17C4, symBinAddr: 0xF1D4, symSize: 0x20 }
  - { offset: 0x3C3EE, size: 0x8, addend: 0x0, symName: __RNvXs5_NtCs4EAaWzSXu1l_5quote9___privateINtB5_9RepInterpRNtCshnvkK9b4wzu_11proc_macro211TokenStreamENtNtB7_9to_tokens8ToTokens9to_tokensCsaeTzLhAkejc_12tokio_macros, symObjAddr: 0x473C, symBinAddr: 0x12148, symSize: 0x3C }
  - { offset: 0x3C42D, size: 0x8, addend: 0x0, symName: __RNvXs5_NtCs4EAaWzSXu1l_5quote9___privateINtB5_9RepInterpRNtCshnvkK9b4wzu_11proc_macro25IdentENtNtB7_9to_tokens8ToTokens9to_tokensCsaeTzLhAkejc_12tokio_macros, symObjAddr: 0x4778, symBinAddr: 0x12184, symSize: 0x3C }
  - { offset: 0x3C472, size: 0x8, addend: 0x0, symName: __RNvYINtNtCs4EAaWzSXu1l_5quote9___private11HasIteratorKb1_EINtB5_16CheckHasIteratorKBQ_E5checkCsaeTzLhAkejc_12tokio_macros, symObjAddr: 0x4FB4, symBinAddr: 0x129C0, symSize: 0x1C }
  - { offset: 0x3C8B2, size: 0x8, addend: 0x0, symName: __RNvMNtCsaNl6UpbT7bw_4core6optionINtB2_6OptionINtNtCsiTraAjBDcu4_5alloc5boxed3BoxNtNtCsc29TF2YcYso_3syn3pat3PatEE6as_mutCsaeTzLhAkejc_12tokio_macros, symObjAddr: 0x2234, symBinAddr: 0xFC44, symSize: 0x4C }
  - { offset: 0x3C909, size: 0x8, addend: 0x0, symName: __RNvMNtCsaNl6UpbT7bw_4core6optionINtB2_6OptionINtNtCsiTraAjBDcu4_5alloc5boxed3BoxNtNtCsc29TF2YcYso_3syn3pat8FieldPatEE6as_mutCsaeTzLhAkejc_12tokio_macros, symObjAddr: 0x2280, symBinAddr: 0xFC90, symSize: 0x4C }
  - { offset: 0x3C960, size: 0x8, addend: 0x0, symName: __RNvMNtCsaNl6UpbT7bw_4core6optionINtB2_6OptionINtNtCsiTraAjBDcu4_5alloc5boxed3BoxNtNtCsc29TF2YcYso_3syn4attr4MetaEE4takeCsaeTzLhAkejc_12tokio_macros, symObjAddr: 0x22CC, symBinAddr: 0xFCDC, symSize: 0x28 }
  - { offset: 0x3C9D3, size: 0x8, addend: 0x0, symName: __RNvMNtCsaNl6UpbT7bw_4core6optionINtB2_6OptionINtNtCsiTraAjBDcu4_5alloc5boxed3BoxNtNtCsc29TF2YcYso_3syn4attr4MetaEE7is_noneCsaeTzLhAkejc_12tokio_macros, symObjAddr: 0x22F4, symBinAddr: 0xFD04, symSize: 0x28 }
  - { offset: 0x3CA1D, size: 0x8, addend: 0x0, symName: __RNvMNtCsaNl6UpbT7bw_4core6optionINtB2_6OptionINtNtCsiTraAjBDcu4_5alloc5boxed3BoxNtNtCsc29TF2YcYso_3syn4attr4MetaEE7is_someCsaeTzLhAkejc_12tokio_macros, symObjAddr: 0x231C, symBinAddr: 0xFD2C, symSize: 0x28 }
  - { offset: 0x3CA49, size: 0x8, addend: 0x0, symName: __RNvMNtCsaNl6UpbT7bw_4core6optionINtB2_6OptionNtCshnvkK9b4wzu_11proc_macro211TokenStreamE17unwrap_or_defaultCsaeTzLhAkejc_12tokio_macros, symObjAddr: 0x2344, symBinAddr: 0xFD54, symSize: 0x70 }
  - { offset: 0x3CABD, size: 0x8, addend: 0x0, symName: __RNvMNtCsaNl6UpbT7bw_4core6optionINtB2_6OptionNtNtCsaeTzLhAkejc_12tokio_macros5entry13RuntimeFlavorE7is_noneBL_, symObjAddr: 0x23B4, symBinAddr: 0xFDC4, symSize: 0x28 }
  - { offset: 0x3CB07, size: 0x8, addend: 0x0, symName: __RNvMNtCsaNl6UpbT7bw_4core6optionINtB2_6OptionNtNtCsaeTzLhAkejc_12tokio_macros5entry13RuntimeFlavorE7is_someBL_, symObjAddr: 0x23DC, symBinAddr: 0xFDEC, symSize: 0x28 }
  - { offset: 0x3CB33, size: 0x8, addend: 0x0, symName: __RNvMNtCsaNl6UpbT7bw_4core6optionINtB2_6OptionNtNtCsaeTzLhAkejc_12tokio_macros5entry13RuntimeFlavorE9unwrap_orBL_, symObjAddr: 0x2404, symBinAddr: 0xFE14, symSize: 0x4C }
  - { offset: 0x3CB99, size: 0x8, addend: 0x0, symName: __RNvMNtCsaNl6UpbT7bw_4core6optionINtB2_6OptionNtNtCsc29TF2YcYso_3syn4path4PathE7is_someCsaeTzLhAkejc_12tokio_macros, symObjAddr: 0x2450, symBinAddr: 0xFE60, symSize: 0x2C }
  - { offset: 0x3CBEE, size: 0x8, addend: 0x0, symName: __RNvMNtCsaNl6UpbT7bw_4core6optionINtB2_6OptionNtNtCsc29TF2YcYso_3syn5token5AsyncE7is_noneCsaeTzLhAkejc_12tokio_macros, symObjAddr: 0x247C, symBinAddr: 0xFE8C, symSize: 0x20 }
  - { offset: 0x3CC63, size: 0x8, addend: 0x0, symName: __RNvMNtCsaNl6UpbT7bw_4core6optionINtB2_6OptionTNtNtCsaeTzLhAkejc_12tokio_macros5entry14UnhandledPanicNtCshnvkK9b4wzu_11proc_macro24SpanEE7is_someBM_, symObjAddr: 0x249C, symBinAddr: 0xFEAC, symSize: 0x28 }
  - { offset: 0x3CCBA, size: 0x8, addend: 0x0, symName: __RNvMNtCsaNl6UpbT7bw_4core6optionINtB2_6OptionTbNtCshnvkK9b4wzu_11proc_macro24SpanEE7is_someCsaeTzLhAkejc_12tokio_macros, symObjAddr: 0x24C4, symBinAddr: 0xFED4, symSize: 0x28 }
  - { offset: 0x3CCF3, size: 0x8, addend: 0x0, symName: __RNvMNtCsaNl6UpbT7bw_4core6optionINtB2_6OptionTjNtCshnvkK9b4wzu_11proc_macro24SpanEE7is_someCsaeTzLhAkejc_12tokio_macros, symObjAddr: 0x24EC, symBinAddr: 0xFEFC, symSize: 0x20 }
  - { offset: 0x3CE9F, size: 0x8, addend: 0x0, symName: __RNvMNtCsiTraAjBDcu4_5alloc5allocNtB2_6Global10alloc_implCsaeTzLhAkejc_12tokio_macros, symObjAddr: 0x250C, symBinAddr: 0xFF1C, symSize: 0x204 }
  - { offset: 0x3D2EE, size: 0x8, addend: 0x0, symName: __RNvMNtCsiTraAjBDcu4_5alloc6stringNtB2_6String6as_strCsaeTzLhAkejc_12tokio_macros, symObjAddr: 0x2710, symBinAddr: 0x10120, symSize: 0x78 }
  - { offset: 0x3D3F7, size: 0x8, addend: 0x0, symName: __RNvMNtNtCs4EAaWzSXu1l_5quote9___private8get_spanINtB2_7GetSpanNtCshnvkK9b4wzu_11proc_macro24SpanE11___into_spanCsaeTzLhAkejc_12tokio_macros, symObjAddr: 0x2788, symBinAddr: 0x10198, symSize: 0x20 }
  - { offset: 0x3D541, size: 0x8, addend: 0x0, symName: __RNvMs0_NtCsaNl6UpbT7bw_4core6optionINtB5_6OptionRNtCshnvkK9b4wzu_11proc_macro211TokenStreamE6clonedCsaeTzLhAkejc_12tokio_macros, symObjAddr: 0x28F4, symBinAddr: 0x10304, symSize: 0x6C }
  - { offset: 0x3D5B4, size: 0x8, addend: 0x0, symName: __RNvMs1_NtNtCsaNl6UpbT7bw_4core3ptr8non_nullINtB5_7NonNullNtCshnvkK9b4wzu_11proc_macro211TokenStreamE20offset_from_unsignedCsaeTzLhAkejc_12tokio_macros, symObjAddr: 0x2960, symBinAddr: 0x10370, symSize: 0x7C }
  - { offset: 0x3D6AD, size: 0x8, addend: 0x0, symName: __RNvMs1_NtNtCsaNl6UpbT7bw_4core3ptr8non_nullINtB5_7NonNullNtNtCsc29TF2YcYso_3syn4attr4MetaE20offset_from_unsignedCsaeTzLhAkejc_12tokio_macros, symObjAddr: 0x29DC, symBinAddr: 0x103EC, symSize: 0x7C }
  - { offset: 0x3D799, size: 0x8, addend: 0x0, symName: __RNvMs1_NtNtCsaNl6UpbT7bw_4core3ptr8non_nullINtB5_7NonNullTNtNtCsc29TF2YcYso_3syn3pat3PatNtNtBY_5token2OrEE20offset_from_unsignedCsaeTzLhAkejc_12tokio_macros, symObjAddr: 0x2A58, symBinAddr: 0x10468, symSize: 0x7C }
  - { offset: 0x3D885, size: 0x8, addend: 0x0, symName: __RNvMs1_NtNtCsaNl6UpbT7bw_4core3ptr8non_nullINtB5_7NonNullTNtNtCsc29TF2YcYso_3syn3pat3PatNtNtBY_5token5CommaEE20offset_from_unsignedCsaeTzLhAkejc_12tokio_macros, symObjAddr: 0x2AD4, symBinAddr: 0x104E4, symSize: 0x7C }
  - { offset: 0x3D971, size: 0x8, addend: 0x0, symName: __RNvMs1_NtNtCsaNl6UpbT7bw_4core3ptr8non_nullINtB5_7NonNullTNtNtCsc29TF2YcYso_3syn3pat8FieldPatNtNtBY_5token5CommaEE20offset_from_unsignedCsaeTzLhAkejc_12tokio_macros, symObjAddr: 0x2B50, symBinAddr: 0x10560, symSize: 0x7C }
  - { offset: 0x3DA95, size: 0x8, addend: 0x0, symName: __RNvMs1_NtNtCsaNl6UpbT7bw_4core3ptr8non_nullINtB5_7NonNullTNtNtCsc29TF2YcYso_3syn4attr4MetaNtNtBY_5token5CommaEE20offset_from_unsignedCsaeTzLhAkejc_12tokio_macros, symObjAddr: 0x2BCC, symBinAddr: 0x105DC, symSize: 0x7C }
  - { offset: 0x3DB65, size: 0x8, addend: 0x0, symName: __RNvMs3_NtCs4EAaWzSXu1l_5quote9___privateINtB5_9RepInterpRNtCshnvkK9b4wzu_11proc_macro25IdentE4nextCsaeTzLhAkejc_12tokio_macros, symObjAddr: 0x2C48, symBinAddr: 0x10658, symSize: 0x2C }
  - { offset: 0x3DBA2, size: 0x8, addend: 0x0, symName: __RNvMs3_NtNtCs7yrEGia95Wz_10proc_macro6bridge6bufferNtB5_6Buffer17extend_from_sliceCsaeTzLhAkejc_12tokio_macros, symObjAddr: 0x2C74, symBinAddr: 0x10684, symSize: 0x164 }
  - { offset: 0x3DD20, size: 0x8, addend: 0x0, symName: __RNvMs3_NtNtCs7yrEGia95Wz_10proc_macro6bridge6bufferNtB5_6Buffer4pushCsaeTzLhAkejc_12tokio_macros, symObjAddr: 0x2DD8, symBinAddr: 0x107E8, symSize: 0x134 }
  - { offset: 0x3DF10, size: 0x8, addend: 0x0, symName: __RNvMs6_NtNtNtCsaNl6UpbT7bw_4core5array4iter10iter_innerINtB5_15PolymorphicIterSINtNtNtBb_3mem12maybe_uninit11MaybeUninitReEE4nextCsaeTzLhAkejc_12tokio_macros, symObjAddr: 0x2F0C, symBinAddr: 0x1091C, symSize: 0x194 }
  - { offset: 0x3E691, size: 0x8, addend: 0x0, symName: __RNvXs1_NtNtNtCsaNl6UpbT7bw_4core3ops8function5implsQNCNvNtCsaeTzLhAkejc_12tokio_macros5entry4test0INtB7_5FnMutTRRNtNtCsc29TF2YcYso_3syn4attr9AttributeEE8call_mutBU_, symObjAddr: 0x0, symBinAddr: 0x12B64, symSize: 0x30 }
  - { offset: 0x3F378, size: 0x8, addend: 0x0, symName: __RNCNvMs0_NtCsaeTzLhAkejc_12tokio_macros5entryNtB7_13Configuration10set_flavor0B9_, symObjAddr: 0xA2C, symBinAddr: 0x13590, symSize: 0x38 }
  - { offset: 0x3F3BB, size: 0x8, addend: 0x0, symName: __RNCNvMs0_NtCsaeTzLhAkejc_12tokio_macros5entryNtB7_13Configuration19set_unhandled_panic0B9_, symObjAddr: 0x144C, symBinAddr: 0x13FB0, symSize: 0x38 }
  - { offset: 0x3F3FE, size: 0x8, addend: 0x0, symName: __RNCNvMs0_NtCsaeTzLhAkejc_12tokio_macros5entryNtB7_13Configuration5build0B9_, symObjAddr: 0x1AE8, symBinAddr: 0x1464C, symSize: 0x2C }
  - { offset: 0x3F47E, size: 0x8, addend: 0x0, symName: __RNvNtCsaeTzLhAkejc_12tokio_macros5entry9parse_int, symObjAddr: 0x1B14, symBinAddr: 0x14678, symSize: 0x34C }
  - { offset: 0x3F59D, size: 0x8, addend: 0x0, symName: __RNvNtCsaeTzLhAkejc_12tokio_macros5entry12parse_string, symObjAddr: 0x1E60, symBinAddr: 0x149C4, symSize: 0x328 }
  - { offset: 0x3F653, size: 0x8, addend: 0x0, symName: __RNvNtCsaeTzLhAkejc_12tokio_macros5entry10parse_path, symObjAddr: 0x2188, symBinAddr: 0x14CEC, symSize: 0x32C }
  - { offset: 0x3F764, size: 0x8, addend: 0x0, symName: __RNCNvNtCsaeTzLhAkejc_12tokio_macros5entry10parse_path0B5_, symObjAddr: 0x24B4, symBinAddr: 0x15018, symSize: 0x6C }
  - { offset: 0x3F7A1, size: 0x8, addend: 0x0, symName: __RNvNtCsaeTzLhAkejc_12tokio_macros5entry10parse_bool, symObjAddr: 0x2520, symBinAddr: 0x15084, symSize: 0x174 }
  - { offset: 0x3F84A, size: 0x8, addend: 0x0, symName: __RNvNtCsaeTzLhAkejc_12tokio_macros5entry12build_config, symObjAddr: 0x2694, symBinAddr: 0x151F8, symSize: 0x14FC }
  - { offset: 0x3FC22, size: 0x8, addend: 0x0, symName: __RNCNvNtCsaeTzLhAkejc_12tokio_macros5entry12build_config0B5_, symObjAddr: 0x3B90, symBinAddr: 0x166F4, symSize: 0x44 }
  - { offset: 0x3FC52, size: 0x8, addend: 0x0, symName: __RNCNvNtCsaeTzLhAkejc_12tokio_macros5entry12build_configs_0B5_, symObjAddr: 0x3BD4, symBinAddr: 0x16738, symSize: 0x44 }
  - { offset: 0x3FC83, size: 0x8, addend: 0x0, symName: __RNvNtCsaeTzLhAkejc_12tokio_macros5entry11parse_knobs, symObjAddr: 0x3C18, symBinAddr: 0x1677C, symSize: 0x26D0 }
  - { offset: 0x40597, size: 0x8, addend: 0x0, symName: __RNCNvNtCsaeTzLhAkejc_12tokio_macros5entry11parse_knobs0B5_, symObjAddr: 0x62E8, symBinAddr: 0x18E4C, symSize: 0x6C }
  - { offset: 0x405D1, size: 0x8, addend: 0x0, symName: __RNCNvNtCsaeTzLhAkejc_12tokio_macros5entry11parse_knobss_0B5_, symObjAddr: 0x6354, symBinAddr: 0x18EB8, symSize: 0x6C }
  - { offset: 0x4060B, size: 0x8, addend: 0x0, symName: __RNCNvNtCsaeTzLhAkejc_12tokio_macros5entry11parse_knobss0_0B5_, symObjAddr: 0x63C0, symBinAddr: 0x18F24, symSize: 0x68 }
  - { offset: 0x4063B, size: 0x8, addend: 0x0, symName: __RNCNvNtCsaeTzLhAkejc_12tokio_macros5entry11parse_knobss1_0B5_, symObjAddr: 0x6428, symBinAddr: 0x18F8C, symSize: 0x288 }
  - { offset: 0x4071E, size: 0x8, addend: 0x0, symName: __RNvNtCsaeTzLhAkejc_12tokio_macros5entry23token_stream_with_error, symObjAddr: 0x66B0, symBinAddr: 0x19214, symSize: 0x90 }
  - { offset: 0x4075D, size: 0x8, addend: 0x0, symName: __RNvNtCsaeTzLhAkejc_12tokio_macros5entry4main, symObjAddr: 0x6740, symBinAddr: 0x192A4, symSize: 0x48C }
  - { offset: 0x40862, size: 0x8, addend: 0x0, symName: __RNCNvNtCsaeTzLhAkejc_12tokio_macros5entry4main0B5_, symObjAddr: 0x6BCC, symBinAddr: 0x19730, symSize: 0x54 }
  - { offset: 0x408B4, size: 0x8, addend: 0x0, symName: __RNvNtCsaeTzLhAkejc_12tokio_macros5entry17is_test_attribute, symObjAddr: 0x6C20, symBinAddr: 0x19784, symSize: 0x2F4 }
  - { offset: 0x40914, size: 0x8, addend: 0x0, symName: __RNCNvNtCsaeTzLhAkejc_12tokio_macros5entry17is_test_attribute0B5_, symObjAddr: 0x6F14, symBinAddr: 0x19A78, symSize: 0xC4 }
  - { offset: 0x4095B, size: 0x8, addend: 0x0, symName: __RNCNCNvNtCsaeTzLhAkejc_12tokio_macros5entry17is_test_attribute00B7_, symObjAddr: 0x6FD8, symBinAddr: 0x19B3C, symSize: 0xCC }
  - { offset: 0x409C0, size: 0x8, addend: 0x0, symName: __RNvNtCsaeTzLhAkejc_12tokio_macros5entry4test, symObjAddr: 0x70A4, symBinAddr: 0x19C08, symSize: 0x504 }
  - { offset: 0x40AD4, size: 0x8, addend: 0x0, symName: __RNCNvNtCsaeTzLhAkejc_12tokio_macros5entry4test0B5_, symObjAddr: 0x75A8, symBinAddr: 0x1A10C, symSize: 0x3C }
  - { offset: 0x40B0D, size: 0x8, addend: 0x0, symName: __RNCNvNtCsaeTzLhAkejc_12tokio_macros5entry4tests_0B5_, symObjAddr: 0x75E4, symBinAddr: 0x1A148, symSize: 0x54 }
  - { offset: 0x40C39, size: 0x8, addend: 0x0, symName: __RNCNvMs1_NtCsaeTzLhAkejc_12tokio_macros5entryNtB7_6ItemFn11into_tokens0B9_, symObjAddr: 0x7B40, symBinAddr: 0x1A6A4, symSize: 0x58 }
  - { offset: 0x40C8E, size: 0x8, addend: 0x0, symName: __RNvXs2_NtCsaeTzLhAkejc_12tokio_macros5entryNtB5_6ItemFnNtNtCsc29TF2YcYso_3syn5parse5Parse5parseB7_, symObjAddr: 0x7B98, symBinAddr: 0x1A6FC, symSize: 0x954 }
  - { offset: 0x40ED6, size: 0x8, addend: 0x0, symName: __RNvXs3_NtCsaeTzLhAkejc_12tokio_macros5entryNtB5_4BodyNtNtCs4EAaWzSXu1l_5quote9to_tokens8ToTokens9to_tokens, symObjAddr: 0x84EC, symBinAddr: 0x1B050, symSize: 0x44 }
  - { offset: 0x40F14, size: 0x8, addend: 0x0, symName: __RNCNvXs3_NtCsaeTzLhAkejc_12tokio_macros5entryNtB7_4BodyNtNtCs4EAaWzSXu1l_5quote9to_tokens8ToTokens9to_tokens0B9_, symObjAddr: 0x8530, symBinAddr: 0x1B094, symSize: 0x98 }
  - { offset: 0x40FA8, size: 0x8, addend: 0x0, symName: __RNvXs1_NtNtNtCsaNl6UpbT7bw_4core3ops8function5implsQNCNvNtCsaeTzLhAkejc_12tokio_macros5entry4test0INtB7_5FnMutTRRNtNtCsc29TF2YcYso_3syn4attr9AttributeEE8call_mutBU_, symObjAddr: 0x0, symBinAddr: 0x12B64, symSize: 0x30 }
  - { offset: 0x44D26, size: 0x8, addend: 0x0, symName: __RNvMNtCsaeTzLhAkejc_12tokio_macros5entryNtB2_13RuntimeFlavor8from_str, symObjAddr: 0x30, symBinAddr: 0x12B94, symSize: 0x2D8 }
  - { offset: 0x44D83, size: 0x8, addend: 0x0, symName: __RNvMs_NtCsaeTzLhAkejc_12tokio_macros5entryNtB4_14UnhandledPanic8from_str, symObjAddr: 0x308, symBinAddr: 0x12E6C, symSize: 0x148 }
  - { offset: 0x44E4E, size: 0x8, addend: 0x0, symName: __RNvMs_NtCsaeTzLhAkejc_12tokio_macros5entryNtB4_14UnhandledPanic11into_tokens, symObjAddr: 0x450, symBinAddr: 0x12FB4, symSize: 0x1F8 }
  - { offset: 0x4A2BB, size: 0x8, addend: 0x0, symName: __RNvMs0_NtCsaeTzLhAkejc_12tokio_macros5entryNtB5_13Configuration3new, symObjAddr: 0x648, symBinAddr: 0x131AC, symSize: 0xF8 }
  - { offset: 0x4A319, size: 0x8, addend: 0x0, symName: __RNvMs0_NtCsaeTzLhAkejc_12tokio_macros5entryNtB5_13Configuration10set_flavor, symObjAddr: 0x740, symBinAddr: 0x132A4, symSize: 0x2EC }
  - { offset: 0x4A3DD, size: 0x8, addend: 0x0, symName: __RNvMs0_NtCsaeTzLhAkejc_12tokio_macros5entryNtB5_13Configuration18set_worker_threads, symObjAddr: 0xA64, symBinAddr: 0x135C8, symSize: 0x24C }
  - { offset: 0x4A447, size: 0x8, addend: 0x0, symName: __RNvMs0_NtCsaeTzLhAkejc_12tokio_macros5entryNtB5_13Configuration16set_start_paused, symObjAddr: 0xCB0, symBinAddr: 0x13814, symSize: 0x1EC }
  - { offset: 0x4A4B9, size: 0x8, addend: 0x0, symName: __RNvMs0_NtCsaeTzLhAkejc_12tokio_macros5entryNtB5_13Configuration14set_crate_name, symObjAddr: 0xE9C, symBinAddr: 0x13A00, symSize: 0x2A8 }
  - { offset: 0x4A54A, size: 0x8, addend: 0x0, symName: __RNvMs0_NtCsaeTzLhAkejc_12tokio_macros5entryNtB5_13Configuration19set_unhandled_panic, symObjAddr: 0x1144, symBinAddr: 0x13CA8, symSize: 0x308 }
  - { offset: 0x4A61B, size: 0x8, addend: 0x0, symName: __RNvMs0_NtCsaeTzLhAkejc_12tokio_macros5entryNtB5_13Configuration10macro_name, symObjAddr: 0x1484, symBinAddr: 0x13FE8, symSize: 0x7C }
  - { offset: 0x4A63D, size: 0x8, addend: 0x0, symName: __RNvMs0_NtCsaeTzLhAkejc_12tokio_macros5entryNtB5_13Configuration5build, symObjAddr: 0x1500, symBinAddr: 0x14064, symSize: 0x5E8 }
  - { offset: 0x4A8CB, size: 0x8, addend: 0x0, symName: __RNvMs1_NtCsaeTzLhAkejc_12tokio_macros5entryNtB5_6ItemFn5attrs, symObjAddr: 0x7638, symBinAddr: 0x1A19C, symSize: 0x74 }
  - { offset: 0x4A915, size: 0x8, addend: 0x0, symName: __RNvMs1_NtCsaeTzLhAkejc_12tokio_macros5entryNtB5_6ItemFn4body, symObjAddr: 0x76AC, symBinAddr: 0x1A210, symSize: 0x68 }
  - { offset: 0x4A938, size: 0x8, addend: 0x0, symName: __RNvMs1_NtCsaeTzLhAkejc_12tokio_macros5entryNtB5_6ItemFn11into_tokens, symObjAddr: 0x7714, symBinAddr: 0x1A278, symSize: 0x42C }
  - { offset: 0x4AD23, size: 0x8, addend: 0x0, symName: __RINvMsi_NtCsiTraAjBDcu4_5alloc3vecINtB6_3VecNtCshnvkK9b4wzu_11proc_macro25IdentE14extend_trustedINtNtNtNtCsaNl6UpbT7bw_4core4iter8adapters3map3MapINtNtNtB1F_3ops5range5RangejENCNvNtCsaeTzLhAkejc_12tokio_macros6select19declare_output_enum0EEB2T_, symObjAddr: 0x0, symBinAddr: 0x1B12C, symSize: 0x16C }
  - { offset: 0x4B20A, size: 0x8, addend: 0x0, symName: __RNCNvXs8_NtCsc29TF2YcYso_3syn10punctuatedINtB7_10PunctuatedNtNtB9_4attr4MetaNtNtB9_5token5CommaENtNtNtNtCsaNl6UpbT7bw_4core4iter6traits7collect12IntoIterator9into_iter0CsaeTzLhAkejc_12tokio_macros, symObjAddr: 0xD68, symBinAddr: 0x1BE94, symSize: 0x44 }
  - { offset: 0x4B256, size: 0x8, addend: 0x0, symName: __RNCNvXs8_NtCsc29TF2YcYso_3syn10punctuatedINtB7_10PunctuatedNtNtB9_4attr4MetaNtNtB9_5token5CommaENtNtNtNtCsaNl6UpbT7bw_4core4iter6traits7collect12IntoIterator9into_iters_0CsaeTzLhAkejc_12tokio_macros, symObjAddr: 0xDAC, symBinAddr: 0x1BED8, symSize: 0x98 }
  - { offset: 0x4B2A9, size: 0x8, addend: 0x0, symName: __RNvXs8_NtCsc29TF2YcYso_3syn10punctuatedINtB5_10PunctuatedNtNtB7_4attr4MetaNtNtB7_5token5CommaENtNtNtNtCsaNl6UpbT7bw_4core4iter6traits7collect12IntoIterator9into_iterCsaeTzLhAkejc_12tokio_macros, symObjAddr: 0x229C, symBinAddr: 0x1D3C8, symSize: 0x1C0 }
  - { offset: 0x4B32E, size: 0x8, addend: 0x0, symName: __RNCNCNvXsG_NtCsc29TF2YcYso_3syn10punctuatedINtB9_14PrivateIterMutNtNtBb_3pat3PatNtNtBb_5token2OrENtNtNtNtCsaNl6UpbT7bw_4core4iter6traits12double_ended19DoubleEndedIterator9next_back00CsaeTzLhAkejc_12tokio_macros, symObjAddr: 0xCFC, symBinAddr: 0x1BE28, symSize: 0x24 }
  - { offset: 0x4B379, size: 0x8, addend: 0x0, symName: __RNCNCNvXsG_NtCsc29TF2YcYso_3syn10punctuatedINtB9_14PrivateIterMutNtNtBb_3pat3PatNtNtBb_5token5CommaENtNtNtNtCsaNl6UpbT7bw_4core4iter6traits12double_ended19DoubleEndedIterator9next_back00CsaeTzLhAkejc_12tokio_macros, symObjAddr: 0xD20, symBinAddr: 0x1BE4C, symSize: 0x24 }
  - { offset: 0x4B3C4, size: 0x8, addend: 0x0, symName: __RNCNCNvXsG_NtCsc29TF2YcYso_3syn10punctuatedINtB9_14PrivateIterMutNtNtBb_3pat8FieldPatNtNtBb_5token5CommaENtNtNtNtCsaNl6UpbT7bw_4core4iter6traits12double_ended19DoubleEndedIterator9next_back00CsaeTzLhAkejc_12tokio_macros, symObjAddr: 0xD44, symBinAddr: 0x1BE70, symSize: 0x24 }
  - { offset: 0x4B425, size: 0x8, addend: 0x0, symName: __RNCNvXsG_NtCsc29TF2YcYso_3syn10punctuatedINtB7_14PrivateIterMutNtNtB9_3pat3PatNtNtB9_5token2OrENtNtNtNtCsaNl6UpbT7bw_4core4iter6traits12double_ended19DoubleEndedIterator9next_back0CsaeTzLhAkejc_12tokio_macros, symObjAddr: 0xF4C, symBinAddr: 0x1C078, symSize: 0x38 }
  - { offset: 0x4B467, size: 0x8, addend: 0x0, symName: __RNCNvXsG_NtCsc29TF2YcYso_3syn10punctuatedINtB7_14PrivateIterMutNtNtB9_3pat3PatNtNtB9_5token5CommaENtNtNtNtCsaNl6UpbT7bw_4core4iter6traits12double_ended19DoubleEndedIterator9next_back0CsaeTzLhAkejc_12tokio_macros, symObjAddr: 0xF84, symBinAddr: 0x1C0B0, symSize: 0x38 }
  - { offset: 0x4B4A9, size: 0x8, addend: 0x0, symName: __RNCNvXsG_NtCsc29TF2YcYso_3syn10punctuatedINtB7_14PrivateIterMutNtNtB9_3pat8FieldPatNtNtB9_5token5CommaENtNtNtNtCsaNl6UpbT7bw_4core4iter6traits12double_ended19DoubleEndedIterator9next_back0CsaeTzLhAkejc_12tokio_macros, symObjAddr: 0xFBC, symBinAddr: 0x1C0E8, symSize: 0x38 }
  - { offset: 0x4B4EC, size: 0x8, addend: 0x0, symName: __RNvXsG_NtCsc29TF2YcYso_3syn10punctuatedINtB5_14PrivateIterMutNtNtB7_3pat3PatNtNtB7_5token2OrENtNtNtNtCsaNl6UpbT7bw_4core4iter6traits12double_ended19DoubleEndedIterator9next_backCsaeTzLhAkejc_12tokio_macros, symObjAddr: 0x25B8, symBinAddr: 0x1D6E4, symSize: 0x40 }
  - { offset: 0x4B52C, size: 0x8, addend: 0x0, symName: __RNvXsG_NtCsc29TF2YcYso_3syn10punctuatedINtB5_14PrivateIterMutNtNtB7_3pat3PatNtNtB7_5token5CommaENtNtNtNtCsaNl6UpbT7bw_4core4iter6traits12double_ended19DoubleEndedIterator9next_backCsaeTzLhAkejc_12tokio_macros, symObjAddr: 0x25F8, symBinAddr: 0x1D724, symSize: 0x40 }
  - { offset: 0x4B56C, size: 0x8, addend: 0x0, symName: __RNvXsG_NtCsc29TF2YcYso_3syn10punctuatedINtB5_14PrivateIterMutNtNtB7_3pat8FieldPatNtNtB7_5token5CommaENtNtNtNtCsaNl6UpbT7bw_4core4iter6traits12double_ended19DoubleEndedIterator9next_backCsaeTzLhAkejc_12tokio_macros, symObjAddr: 0x2638, symBinAddr: 0x1D764, symSize: 0x40 }
  - { offset: 0x4B5B7, size: 0x8, addend: 0x0, symName: __RNCNvXsF_NtCsc29TF2YcYso_3syn10punctuatedINtB7_14PrivateIterMutNtNtB9_3pat3PatNtNtB9_5token2OrENtNtNtNtCsaNl6UpbT7bw_4core4iter6traits8iterator8Iterator4next0CsaeTzLhAkejc_12tokio_macros, symObjAddr: 0xE44, symBinAddr: 0x1BF70, symSize: 0x24 }
  - { offset: 0x4B602, size: 0x8, addend: 0x0, symName: __RNCNvXsF_NtCsc29TF2YcYso_3syn10punctuatedINtB7_14PrivateIterMutNtNtB9_3pat3PatNtNtB9_5token2OrENtNtNtNtCsaNl6UpbT7bw_4core4iter6traits8iterator8Iterator4nexts_0CsaeTzLhAkejc_12tokio_macros, symObjAddr: 0xE68, symBinAddr: 0x1BF94, symSize: 0x34 }
  - { offset: 0x4B644, size: 0x8, addend: 0x0, symName: __RNCNvXsF_NtCsc29TF2YcYso_3syn10punctuatedINtB7_14PrivateIterMutNtNtB9_3pat3PatNtNtB9_5token5CommaENtNtNtNtCsaNl6UpbT7bw_4core4iter6traits8iterator8Iterator4next0CsaeTzLhAkejc_12tokio_macros, symObjAddr: 0xE9C, symBinAddr: 0x1BFC8, symSize: 0x24 }
  - { offset: 0x4B68F, size: 0x8, addend: 0x0, symName: __RNCNvXsF_NtCsc29TF2YcYso_3syn10punctuatedINtB7_14PrivateIterMutNtNtB9_3pat3PatNtNtB9_5token5CommaENtNtNtNtCsaNl6UpbT7bw_4core4iter6traits8iterator8Iterator4nexts_0CsaeTzLhAkejc_12tokio_macros, symObjAddr: 0xEC0, symBinAddr: 0x1BFEC, symSize: 0x34 }
  - { offset: 0x4B6D1, size: 0x8, addend: 0x0, symName: __RNCNvXsF_NtCsc29TF2YcYso_3syn10punctuatedINtB7_14PrivateIterMutNtNtB9_3pat8FieldPatNtNtB9_5token5CommaENtNtNtNtCsaNl6UpbT7bw_4core4iter6traits8iterator8Iterator4next0CsaeTzLhAkejc_12tokio_macros, symObjAddr: 0xEF4, symBinAddr: 0x1C020, symSize: 0x24 }
  - { offset: 0x4B71C, size: 0x8, addend: 0x0, symName: __RNCNvXsF_NtCsc29TF2YcYso_3syn10punctuatedINtB7_14PrivateIterMutNtNtB9_3pat8FieldPatNtNtB9_5token5CommaENtNtNtNtCsaNl6UpbT7bw_4core4iter6traits8iterator8Iterator4nexts_0CsaeTzLhAkejc_12tokio_macros, symObjAddr: 0xF18, symBinAddr: 0x1C044, symSize: 0x34 }
  - { offset: 0x4B774, size: 0x8, addend: 0x0, symName: __RNvXsF_NtCsc29TF2YcYso_3syn10punctuatedINtB5_14PrivateIterMutNtNtB7_3pat3PatNtNtB7_5token2OrENtNtNtNtCsaNl6UpbT7bw_4core4iter6traits8iterator8Iterator4nextCsaeTzLhAkejc_12tokio_macros, symObjAddr: 0x24EC, symBinAddr: 0x1D618, symSize: 0x44 }
  - { offset: 0x4B7B4, size: 0x8, addend: 0x0, symName: __RNvXsF_NtCsc29TF2YcYso_3syn10punctuatedINtB5_14PrivateIterMutNtNtB7_3pat3PatNtNtB7_5token5CommaENtNtNtNtCsaNl6UpbT7bw_4core4iter6traits8iterator8Iterator4nextCsaeTzLhAkejc_12tokio_macros, symObjAddr: 0x2530, symBinAddr: 0x1D65C, symSize: 0x44 }
  - { offset: 0x4B7F4, size: 0x8, addend: 0x0, symName: __RNvXsF_NtCsc29TF2YcYso_3syn10punctuatedINtB5_14PrivateIterMutNtNtB7_3pat8FieldPatNtNtB7_5token5CommaENtNtNtNtCsaNl6UpbT7bw_4core4iter6traits8iterator8Iterator4nextCsaeTzLhAkejc_12tokio_macros, symObjAddr: 0x2574, symBinAddr: 0x1D6A0, symSize: 0x44 }
  - { offset: 0x4B9BE, size: 0x8, addend: 0x0, symName: __RNvXsC_NtCsc29TF2YcYso_3syn10punctuatedINtB5_7IterMutNtNtB7_3pat3PatENtNtNtNtCsaNl6UpbT7bw_4core4iter6traits8iterator8Iterator4nextCsaeTzLhAkejc_12tokio_macros, symObjAddr: 0x245C, symBinAddr: 0x1D588, symSize: 0x48 }
  - { offset: 0x4B9F5, size: 0x8, addend: 0x0, symName: __RNvXsC_NtCsc29TF2YcYso_3syn10punctuatedINtB5_7IterMutNtNtB7_3pat8FieldPatENtNtNtNtCsaNl6UpbT7bw_4core4iter6traits8iterator8Iterator4nextCsaeTzLhAkejc_12tokio_macros, symObjAddr: 0x24A4, symBinAddr: 0x1D5D0, symSize: 0x48 }
  - { offset: 0x4BA32, size: 0x8, addend: 0x0, symName: __RNvXsH_NtCsc29TF2YcYso_3syn10punctuatedINtB5_14PrivateIterMutNtNtB7_3pat3PatNtNtB7_5token2OrENtNtNtNtCsaNl6UpbT7bw_4core4iter6traits10exact_size17ExactSizeIterator3lenCsaeTzLhAkejc_12tokio_macros, symObjAddr: 0x2678, symBinAddr: 0x1D7A4, symSize: 0x94 }
  - { offset: 0x4BAA6, size: 0x8, addend: 0x0, symName: __RNvXsH_NtCsc29TF2YcYso_3syn10punctuatedINtB5_14PrivateIterMutNtNtB7_3pat3PatNtNtB7_5token5CommaENtNtNtNtCsaNl6UpbT7bw_4core4iter6traits10exact_size17ExactSizeIterator3lenCsaeTzLhAkejc_12tokio_macros, symObjAddr: 0x270C, symBinAddr: 0x1D838, symSize: 0x94 }
  - { offset: 0x4BB1A, size: 0x8, addend: 0x0, symName: __RNvXsH_NtCsc29TF2YcYso_3syn10punctuatedINtB5_14PrivateIterMutNtNtB7_3pat8FieldPatNtNtB7_5token5CommaENtNtNtNtCsaNl6UpbT7bw_4core4iter6traits10exact_size17ExactSizeIterator3lenCsaeTzLhAkejc_12tokio_macros, symObjAddr: 0x27A0, symBinAddr: 0x1D8CC, symSize: 0x94 }
  - { offset: 0x4BB94, size: 0x8, addend: 0x0, symName: __RNvXsa_NtCsc29TF2YcYso_3syn10punctuatedQINtB5_10PunctuatedNtNtB7_3pat3PatNtNtB7_5token2OrENtNtNtNtCsaNl6UpbT7bw_4core4iter6traits7collect12IntoIterator9into_iterCsaeTzLhAkejc_12tokio_macros, symObjAddr: 0x2BB0, symBinAddr: 0x1DCDC, symSize: 0x34 }
  - { offset: 0x4BBD4, size: 0x8, addend: 0x0, symName: __RNvXsa_NtCsc29TF2YcYso_3syn10punctuatedQINtB5_10PunctuatedNtNtB7_3pat3PatNtNtB7_5token5CommaENtNtNtNtCsaNl6UpbT7bw_4core4iter6traits7collect12IntoIterator9into_iterCsaeTzLhAkejc_12tokio_macros, symObjAddr: 0x2BE4, symBinAddr: 0x1DD10, symSize: 0x34 }
  - { offset: 0x4BC14, size: 0x8, addend: 0x0, symName: __RNvXsa_NtCsc29TF2YcYso_3syn10punctuatedQINtB5_10PunctuatedNtNtB7_3pat8FieldPatNtNtB7_5token5CommaENtNtNtNtCsaNl6UpbT7bw_4core4iter6traits7collect12IntoIterator9into_iterCsaeTzLhAkejc_12tokio_macros, symObjAddr: 0x2C18, symBinAddr: 0x1DD44, symSize: 0x34 }
  - { offset: 0x4BC5A, size: 0x8, addend: 0x0, symName: __RNvXsn_NtCsc29TF2YcYso_3syn10punctuatedINtB5_8IntoIterNtNtB7_4attr4MetaENtNtNtNtCsaNl6UpbT7bw_4core4iter6traits8iterator8Iterator4nextCsaeTzLhAkejc_12tokio_macros, symObjAddr: 0x31F4, symBinAddr: 0x1E320, symSize: 0x34 }
  - { offset: 0x50736, size: 0x8, addend: 0x0, symName: __RNvXsh_NtCsc29TF2YcYso_3syn5parseNvMNtB7_10punctuatedINtBy_10PunctuatedNtNtB7_4attr4MetaNtNtB7_5token5CommaE16parse_terminatedNtB5_6Parser6parse2CsaeTzLhAkejc_12tokio_macros, symObjAddr: 0x2EB8, symBinAddr: 0x1DFE4, symSize: 0x33C }
  - { offset: 0x5154F, size: 0x8, addend: 0x0, symName: __RINvXsd_NtCsiTraAjBDcu4_5alloc3vecINtB6_3VecNtCshnvkK9b4wzu_11proc_macro25IdentEINtNtNtNtCsaNl6UpbT7bw_4core4iter6traits7collect12FromIteratorBG_E9from_iterINtNtNtB1n_8adapters3map3MapINtNtNtB1p_3ops5range5RangejENCNvNtCsaeTzLhAkejc_12tokio_macros6select19declare_output_enum0EEB3v_, symObjAddr: 0x65C, symBinAddr: 0x1B788, symSize: 0x38 }
  - { offset: 0x51595, size: 0x8, addend: 0x0, symName: __RINvXsh_NtCsiTraAjBDcu4_5alloc3vecINtB6_3VecNtCshnvkK9b4wzu_11proc_macro29TokenTreeEINtNtNtNtCsaNl6UpbT7bw_4core4iter6traits7collect6ExtendBG_E6extendINtNtNtB1r_8adapters7flatten7FlattenINtNtB2t_3map3MapIB2Z_IB2Z_INtNtB2t_3zip3ZipINtNtNtB1t_5slice4iter4IterNtBI_11TokenStreamEIB3H_ReEENCNvNtCsaeTzLhAkejc_12tokio_macros5entry11parse_knobss1_0ENCINvXs7_BI_B47_INtB1n_12FromIteratorB47_E9from_iterB3k_E0ENCINvXs6_NtBI_3impNtB6B_11TokenStreamIB5M_B6K_E9from_iterB3f_Es_0EEEB4F_, symObjAddr: 0x694, symBinAddr: 0x1B7C0, symSize: 0x48 }
  - { offset: 0x515EA, size: 0x8, addend: 0x0, symName: __RINvXsh_NtCsiTraAjBDcu4_5alloc3vecINtB6_3VecNtNtCsc29TF2YcYso_3syn4attr4MetaEINtNtNtNtCsaNl6UpbT7bw_4core4iter6traits7collect6ExtendBG_E6extendINtNtB1m_6option6OptionBG_EECsaeTzLhAkejc_12tokio_macros, symObjAddr: 0x6DC, symBinAddr: 0x1B808, symSize: 0x50 }
  - { offset: 0x5163F, size: 0x8, addend: 0x0, symName: __RINvXsh_NtCsiTraAjBDcu4_5alloc3vecINtB6_3VecNtNtCsc29TF2YcYso_3syn4attr4MetaEINtNtNtNtCsaNl6UpbT7bw_4core4iter6traits7collect6ExtendBG_E6extendINtNtNtB1k_8adapters3map3MapINtNtB6_9into_iter8IntoIterTBG_NtNtBK_5token5CommaEENCNvXs8_NtBK_10punctuatedINtB3H_10PunctuatedBG_B3e_ENtB1g_12IntoIterator9into_iter0EECsaeTzLhAkejc_12tokio_macros, symObjAddr: 0x72C, symBinAddr: 0x1B858, symSize: 0x48 }
  - { offset: 0x5169F, size: 0x8, addend: 0x0, symName: __RNCINvMsi_NtCsiTraAjBDcu4_5alloc3vecINtB8_3VecNtCshnvkK9b4wzu_11proc_macro25IdentE14extend_trustedINtNtNtNtCsaNl6UpbT7bw_4core4iter8adapters3map3MapINtNtNtB1H_3ops5range5RangejENCNvNtCsaeTzLhAkejc_12tokio_macros6select19declare_output_enum0EE0B2V_, symObjAddr: 0xC10, symBinAddr: 0x1BD3C, symSize: 0x44 }
  - { offset: 0x5174C, size: 0x8, addend: 0x0, symName: __RNCINvMsi_NtCsiTraAjBDcu4_5alloc3vecINtB8_3VecNtNtCsc29TF2YcYso_3syn4attr4MetaE14extend_trustedINtNtCsaNl6UpbT7bw_4core6option8IntoIterBI_EE0CsaeTzLhAkejc_12tokio_macros, symObjAddr: 0xC54, symBinAddr: 0x1BD80, symSize: 0x54 }
  - { offset: 0x5180A, size: 0x8, addend: 0x0, symName: __RNCINvMsi_NtCsiTraAjBDcu4_5alloc3vecINtB8_3VecNtNtCsc29TF2YcYso_3syn4attr4MetaE14extend_trustedINtNtNtNtCsaNl6UpbT7bw_4core4iter8adapters3map3MapINtNtB8_9into_iter8IntoIterTBI_NtNtBM_5token5CommaEENCNvXs8_NtBM_10punctuatedINtB3h_10PunctuatedBI_B2O_ENtNtNtB1C_6traits7collect12IntoIterator9into_iter0EE0CsaeTzLhAkejc_12tokio_macros, symObjAddr: 0xCA8, symBinAddr: 0x1BDD4, symSize: 0x54 }
  - { offset: 0x51AC5, size: 0x8, addend: 0x0, symName: __RNvXNtNtCsiTraAjBDcu4_5alloc3vec11spec_extendINtB4_3VecNtCshnvkK9b4wzu_11proc_macro29TokenTreeEINtB2_10SpecExtendBR_INtNtNtNtCsaNl6UpbT7bw_4core4iter8adapters7flatten7FlattenINtNtB1V_3map3MapIB2N_IB2N_INtNtB1V_3zip3ZipINtNtNtB1Z_5slice4iter4IterNtBT_11TokenStreamEIB3v_ReEENCNvNtCsaeTzLhAkejc_12tokio_macros5entry11parse_knobss1_0ENCINvXs7_BT_B3V_INtNtNtB1X_6traits7collect12FromIteratorB3V_E9from_iterB38_E0ENCINvXs6_NtBT_3impNtB6I_11TokenStreamIB5A_B6R_E9from_iterB33_Es_0EEE11spec_extendB4t_, symObjAddr: 0x2130, symBinAddr: 0x1D25C, symSize: 0x24 }
  - { offset: 0x51B1D, size: 0x8, addend: 0x0, symName: __RNvXs_NtNtCsiTraAjBDcu4_5alloc3vec11spec_extendINtB6_3VecNtCshnvkK9b4wzu_11proc_macro25IdentEINtB4_10SpecExtendBT_INtNtNtNtCsaNl6UpbT7bw_4core4iter8adapters3map3MapINtNtNtB1X_3ops5range5RangejENCNvNtCsaeTzLhAkejc_12tokio_macros6select19declare_output_enum0EE11spec_extendB3b_, symObjAddr: 0x2834, symBinAddr: 0x1D960, symSize: 0x2C }
  - { offset: 0x51B6E, size: 0x8, addend: 0x0, symName: __RNvXs_NtNtCsiTraAjBDcu4_5alloc3vec11spec_extendINtB6_3VecNtNtCsc29TF2YcYso_3syn4attr4MetaEINtB4_10SpecExtendBT_INtNtCsaNl6UpbT7bw_4core6option8IntoIterBT_EE11spec_extendCsaeTzLhAkejc_12tokio_macros, symObjAddr: 0x2860, symBinAddr: 0x1D98C, symSize: 0x24 }
  - { offset: 0x51BC0, size: 0x8, addend: 0x0, symName: __RNvXs_NtNtCsiTraAjBDcu4_5alloc3vec11spec_extendINtB6_3VecNtNtCsc29TF2YcYso_3syn4attr4MetaEINtB4_10SpecExtendBT_INtNtNtNtCsaNl6UpbT7bw_4core4iter8adapters3map3MapINtNtB6_9into_iter8IntoIterTBT_NtNtBX_5token5CommaEENCNvXs8_NtBX_10punctuatedINtB3x_10PunctuatedBT_B34_ENtNtNtB1S_6traits7collect12IntoIterator9into_iter0EE11spec_extendCsaeTzLhAkejc_12tokio_macros, symObjAddr: 0x2884, symBinAddr: 0x1D9B0, symSize: 0x24 }
  - { offset: 0x51C1E, size: 0x8, addend: 0x0, symName: __RNvXNtNtCsiTraAjBDcu4_5alloc3vec14spec_from_iterINtB4_3VecNtCshnvkK9b4wzu_11proc_macro25IdentEINtB2_12SpecFromIterBU_INtNtNtNtCsaNl6UpbT7bw_4core4iter8adapters3map3MapINtNtNtB20_3ops5range5RangejENCNvNtCsaeTzLhAkejc_12tokio_macros6select19declare_output_enum0EE9from_iterB3e_, symObjAddr: 0x2154, symBinAddr: 0x1D280, symSize: 0x24 }
  - { offset: 0x51C63, size: 0x8, addend: 0x0, symName: __RNvXs6_NtCsiTraAjBDcu4_5alloc3vecINtB5_3VecNtCshnvkK9b4wzu_11proc_macro211TokenStreamENtNtNtCsaNl6UpbT7bw_4core3ops5deref5Deref5derefCsaeTzLhAkejc_12tokio_macros, symObjAddr: 0x21E8, symBinAddr: 0x1D314, symSize: 0x24 }
  - { offset: 0x51CA3, size: 0x8, addend: 0x0, symName: __RNvXs6_NtCsiTraAjBDcu4_5alloc3vecINtB5_3VecNtCshnvkK9b4wzu_11proc_macro25IdentENtNtNtCsaNl6UpbT7bw_4core3ops5deref5Deref5derefCsaeTzLhAkejc_12tokio_macros, symObjAddr: 0x220C, symBinAddr: 0x1D338, symSize: 0x24 }
  - { offset: 0x51D19, size: 0x8, addend: 0x0, symName: __RNvXs7_NtCsiTraAjBDcu4_5alloc3vecINtB5_3VecTNtNtCsc29TF2YcYso_3syn3pat3PatNtNtBK_5token2OrEENtNtNtCsaNl6UpbT7bw_4core3ops5deref8DerefMut9deref_mutCsaeTzLhAkejc_12tokio_macros, symObjAddr: 0x2230, symBinAddr: 0x1D35C, symSize: 0x24 }
  - { offset: 0x51D59, size: 0x8, addend: 0x0, symName: __RNvXs7_NtCsiTraAjBDcu4_5alloc3vecINtB5_3VecTNtNtCsc29TF2YcYso_3syn3pat3PatNtNtBK_5token5CommaEENtNtNtCsaNl6UpbT7bw_4core3ops5deref8DerefMut9deref_mutCsaeTzLhAkejc_12tokio_macros, symObjAddr: 0x2254, symBinAddr: 0x1D380, symSize: 0x24 }
  - { offset: 0x51D99, size: 0x8, addend: 0x0, symName: __RNvXs7_NtCsiTraAjBDcu4_5alloc3vecINtB5_3VecTNtNtCsc29TF2YcYso_3syn3pat8FieldPatNtNtBK_5token5CommaEENtNtNtCsaNl6UpbT7bw_4core3ops5deref8DerefMut9deref_mutCsaeTzLhAkejc_12tokio_macros, symObjAddr: 0x2278, symBinAddr: 0x1D3A4, symSize: 0x24 }
  - { offset: 0x51DE4, size: 0x8, addend: 0x0, symName: __RNvXs_NtNtCsiTraAjBDcu4_5alloc3vec21spec_from_iter_nestedINtB6_3VecNtCshnvkK9b4wzu_11proc_macro25IdentEINtB4_18SpecFromIterNestedB13_INtNtNtNtCsaNl6UpbT7bw_4core4iter8adapters3map3MapINtNtNtB2g_3ops5range5RangejENCNvNtCsaeTzLhAkejc_12tokio_macros6select19declare_output_enum0EE9from_iterB3u_, symObjAddr: 0x28A8, symBinAddr: 0x1D9D4, symSize: 0x164 }
  - { offset: 0x51EC1, size: 0x8, addend: 0x0, symName: __RNvXse_NtCsiTraAjBDcu4_5alloc3vecINtB5_3VecNtNtCsc29TF2YcYso_3syn4attr4MetaENtNtNtNtCsaNl6UpbT7bw_4core4iter6traits7collect12IntoIterator9into_iterCsaeTzLhAkejc_12tokio_macros, symObjAddr: 0x2C4C, symBinAddr: 0x1DD78, symSize: 0xE4 }
  - { offset: 0x52153, size: 0x8, addend: 0x0, symName: __RNvXse_NtCsiTraAjBDcu4_5alloc3vecINtB5_3VecTNtNtCsc29TF2YcYso_3syn4attr4MetaNtNtBK_5token5CommaEENtNtNtNtCsaNl6UpbT7bw_4core4iter6traits7collect12IntoIterator9into_iterCsaeTzLhAkejc_12tokio_macros, symObjAddr: 0x2D30, symBinAddr: 0x1DE5C, symSize: 0xE4 }
  - { offset: 0x5246E, size: 0x8, addend: 0x0, symName: __RNvXsf_NtCsiTraAjBDcu4_5alloc3vecRINtB5_3VecReENtNtNtNtCsaNl6UpbT7bw_4core4iter6traits7collect12IntoIterator9into_iterCsaeTzLhAkejc_12tokio_macros, symObjAddr: 0x2E14, symBinAddr: 0x1DF40, symSize: 0xA4 }
  - { offset: 0x526B2, size: 0x8, addend: 0x0, symName: __RNvXsn_NtCsiTraAjBDcu4_5alloc3vecINtB5_3VecNtCshnvkK9b4wzu_11proc_macro211TokenStreamENtNtNtCsaNl6UpbT7bw_4core3ops4drop4Drop4dropCsaeTzLhAkejc_12tokio_macros, symObjAddr: 0x3228, symBinAddr: 0x1E354, symSize: 0x38 }
  - { offset: 0x52762, size: 0x8, addend: 0x0, symName: __RNvXsn_NtCsiTraAjBDcu4_5alloc3vecINtB5_3VecNtCshnvkK9b4wzu_11proc_macro25IdentENtNtNtCsaNl6UpbT7bw_4core3ops4drop4Drop4dropCsaeTzLhAkejc_12tokio_macros, symObjAddr: 0x3260, symBinAddr: 0x1E38C, symSize: 0x38 }
  - { offset: 0x52812, size: 0x8, addend: 0x0, symName: __RNvXsn_NtCsiTraAjBDcu4_5alloc3vecINtB5_3VecNtNtCsc29TF2YcYso_3syn4attr4MetaENtNtNtCsaNl6UpbT7bw_4core3ops4drop4Drop4dropCsaeTzLhAkejc_12tokio_macros, symObjAddr: 0x3298, symBinAddr: 0x1E3C4, symSize: 0x38 }
  - { offset: 0x528C2, size: 0x8, addend: 0x0, symName: __RNvXsn_NtCsiTraAjBDcu4_5alloc3vecINtB5_3VecTNtNtCsc29TF2YcYso_3syn4attr4MetaNtNtBK_5token5CommaEENtNtNtCsaNl6UpbT7bw_4core3ops4drop4Drop4dropCsaeTzLhAkejc_12tokio_macros, symObjAddr: 0x32D0, symBinAddr: 0x1E3FC, symSize: 0x38 }
  - { offset: 0x57FA7, size: 0x8, addend: 0x0, symName: __RINvYINtNtCsc29TF2YcYso_3syn10punctuated14PrivateIterMutNtNtB8_3pat3PatNtNtB8_5token2OrENtNtNtNtCsaNl6UpbT7bw_4core4iter6traits8iterator8Iterator8try_foldINtNtNtB1w_3num7nonzero7NonZerojENCNvXs_NvB1o_10advance_byB3_NtB36_13SpecAdvanceBy15spec_advance_by0INtNtB1w_6option6OptionB2s_EECsaeTzLhAkejc_12tokio_macros, symObjAddr: 0x774, symBinAddr: 0x1B8A0, symSize: 0x154 }
  - { offset: 0x5805B, size: 0x8, addend: 0x0, symName: __RINvYINtNtCsc29TF2YcYso_3syn10punctuated14PrivateIterMutNtNtB8_3pat3PatNtNtB8_5token5CommaENtNtNtNtCsaNl6UpbT7bw_4core4iter6traits8iterator8Iterator8try_foldINtNtNtB1z_3num7nonzero7NonZerojENCNvXs_NvB1r_10advance_byB3_NtB39_13SpecAdvanceBy15spec_advance_by0INtNtB1z_6option6OptionB2v_EECsaeTzLhAkejc_12tokio_macros, symObjAddr: 0x8C8, symBinAddr: 0x1B9F4, symSize: 0x154 }
  - { offset: 0x5810F, size: 0x8, addend: 0x0, symName: __RINvYINtNtCsc29TF2YcYso_3syn10punctuated14PrivateIterMutNtNtB8_3pat8FieldPatNtNtB8_5token5CommaENtNtNtNtCsaNl6UpbT7bw_4core4iter6traits8iterator8Iterator8try_foldINtNtNtB1E_3num7nonzero7NonZerojENCNvXs_NvB1w_10advance_byB3_NtB3e_13SpecAdvanceBy15spec_advance_by0INtNtB1E_6option6OptionB2A_EECsaeTzLhAkejc_12tokio_macros, symObjAddr: 0xA1C, symBinAddr: 0x1BB48, symSize: 0x154 }
  - { offset: 0x581C3, size: 0x8, addend: 0x0, symName: __RINvYINtNtCsc29TF2YcYso_3syn10punctuated4IterNtNtB8_4path11PathSegmentENtNtNtNtCsaNl6UpbT7bw_4core4iter6traits8iterator8Iterator3zipARej4_ECsaeTzLhAkejc_12tokio_macros, symObjAddr: 0xB70, symBinAddr: 0x1BC9C, symSize: 0xA0 }
  - { offset: 0x58243, size: 0x8, addend: 0x0, symName: __RNvXs_NvNtNtNtNtCsaNl6UpbT7bw_4core4iter6traits8iterator8Iterator10advance_byINtNtCsc29TF2YcYso_3syn10punctuated14PrivateIterMutNtNtB1i_3pat3PatNtNtB1i_5token2OrENtB4_13SpecAdvanceBy15spec_advance_byCsaeTzLhAkejc_12tokio_macros, symObjAddr: 0x2A0C, symBinAddr: 0x1DB38, symSize: 0x8C }
  - { offset: 0x582F1, size: 0x8, addend: 0x0, symName: __RNvXs_NvNtNtNtNtCsaNl6UpbT7bw_4core4iter6traits8iterator8Iterator10advance_byINtNtCsc29TF2YcYso_3syn10punctuated14PrivateIterMutNtNtB1i_3pat3PatNtNtB1i_5token5CommaENtB4_13SpecAdvanceBy15spec_advance_byCsaeTzLhAkejc_12tokio_macros, symObjAddr: 0x2A98, symBinAddr: 0x1DBC4, symSize: 0x8C }
  - { offset: 0x5839F, size: 0x8, addend: 0x0, symName: __RNvXs_NvNtNtNtNtCsaNl6UpbT7bw_4core4iter6traits8iterator8Iterator10advance_byINtNtCsc29TF2YcYso_3syn10punctuated14PrivateIterMutNtNtB1i_3pat8FieldPatNtNtB1i_5token5CommaENtB4_13SpecAdvanceBy15spec_advance_byCsaeTzLhAkejc_12tokio_macros, symObjAddr: 0x2B24, symBinAddr: 0x1DC50, symSize: 0x8C }
  - { offset: 0x5846A, size: 0x8, addend: 0x0, symName: __RNvYINtNtCsc29TF2YcYso_3syn10punctuated14PrivateIterMutNtNtB7_3pat3PatNtNtB7_5token2OrENtNtNtNtCsaNl6UpbT7bw_4core4iter6traits8iterator8Iterator10advance_byCsaeTzLhAkejc_12tokio_macros, symObjAddr: 0x34F4, symBinAddr: 0x1E620, symSize: 0x28 }
  - { offset: 0x584B0, size: 0x8, addend: 0x0, symName: __RNvYINtNtCsc29TF2YcYso_3syn10punctuated14PrivateIterMutNtNtB7_3pat3PatNtNtB7_5token2OrENtNtNtNtCsaNl6UpbT7bw_4core4iter6traits8iterator8Iterator3nthCsaeTzLhAkejc_12tokio_macros, symObjAddr: 0x351C, symBinAddr: 0x1E648, symSize: 0x7C }
  - { offset: 0x5857C, size: 0x8, addend: 0x0, symName: __RNvYINtNtCsc29TF2YcYso_3syn10punctuated14PrivateIterMutNtNtB7_3pat3PatNtNtB7_5token2OrENtNtNtNtCsaNl6UpbT7bw_4core4iter6traits8iterator8Iterator9size_hintCsaeTzLhAkejc_12tokio_macros, symObjAddr: 0x3598, symBinAddr: 0x1E6C4, symSize: 0x34 }
  - { offset: 0x585B1, size: 0x8, addend: 0x0, symName: __RNvYINtNtCsc29TF2YcYso_3syn10punctuated14PrivateIterMutNtNtB7_3pat3PatNtNtB7_5token5CommaENtNtNtNtCsaNl6UpbT7bw_4core4iter6traits8iterator8Iterator10advance_byCsaeTzLhAkejc_12tokio_macros, symObjAddr: 0x37B8, symBinAddr: 0x1E8E4, symSize: 0x28 }
  - { offset: 0x585F7, size: 0x8, addend: 0x0, symName: __RNvYINtNtCsc29TF2YcYso_3syn10punctuated14PrivateIterMutNtNtB7_3pat3PatNtNtB7_5token5CommaENtNtNtNtCsaNl6UpbT7bw_4core4iter6traits8iterator8Iterator3nthCsaeTzLhAkejc_12tokio_macros, symObjAddr: 0x37E0, symBinAddr: 0x1E90C, symSize: 0x7C }
  - { offset: 0x586C3, size: 0x8, addend: 0x0, symName: __RNvYINtNtCsc29TF2YcYso_3syn10punctuated14PrivateIterMutNtNtB7_3pat3PatNtNtB7_5token5CommaENtNtNtNtCsaNl6UpbT7bw_4core4iter6traits8iterator8Iterator9size_hintCsaeTzLhAkejc_12tokio_macros, symObjAddr: 0x385C, symBinAddr: 0x1E988, symSize: 0x34 }
  - { offset: 0x586F8, size: 0x8, addend: 0x0, symName: __RNvYINtNtCsc29TF2YcYso_3syn10punctuated14PrivateIterMutNtNtB7_3pat8FieldPatNtNtB7_5token5CommaENtNtNtNtCsaNl6UpbT7bw_4core4iter6traits8iterator8Iterator10advance_byCsaeTzLhAkejc_12tokio_macros, symObjAddr: 0x3A7C, symBinAddr: 0x1EBA8, symSize: 0x28 }
  - { offset: 0x5873E, size: 0x8, addend: 0x0, symName: __RNvYINtNtCsc29TF2YcYso_3syn10punctuated14PrivateIterMutNtNtB7_3pat8FieldPatNtNtB7_5token5CommaENtNtNtNtCsaNl6UpbT7bw_4core4iter6traits8iterator8Iterator3nthCsaeTzLhAkejc_12tokio_macros, symObjAddr: 0x3AA4, symBinAddr: 0x1EBD0, symSize: 0x7C }
  - { offset: 0x5880A, size: 0x8, addend: 0x0, symName: __RNvYINtNtCsc29TF2YcYso_3syn10punctuated14PrivateIterMutNtNtB7_3pat8FieldPatNtNtB7_5token5CommaENtNtNtNtCsaNl6UpbT7bw_4core4iter6traits8iterator8Iterator9size_hintCsaeTzLhAkejc_12tokio_macros, symObjAddr: 0x3B20, symBinAddr: 0x1EC4C, symSize: 0x34 }
  - { offset: 0x5884B, size: 0x8, addend: 0x0, symName: __RNvYINtNtCsc29TF2YcYso_3syn10punctuated14PrivateIterMutNtNtB7_3pat3PatNtNtB7_5token2OrENtNtNtNtCsaNl6UpbT7bw_4core4iter6traits10exact_size17ExactSizeIterator8is_emptyCsaeTzLhAkejc_12tokio_macros, symObjAddr: 0x3308, symBinAddr: 0x1E434, symSize: 0x2C }
  - { offset: 0x58880, size: 0x8, addend: 0x0, symName: __RNvYINtNtCsc29TF2YcYso_3syn10punctuated14PrivateIterMutNtNtB7_3pat3PatNtNtB7_5token5CommaENtNtNtNtCsaNl6UpbT7bw_4core4iter6traits10exact_size17ExactSizeIterator8is_emptyCsaeTzLhAkejc_12tokio_macros, symObjAddr: 0x35CC, symBinAddr: 0x1E6F8, symSize: 0x2C }
  - { offset: 0x588B5, size: 0x8, addend: 0x0, symName: __RNvYINtNtCsc29TF2YcYso_3syn10punctuated14PrivateIterMutNtNtB7_3pat8FieldPatNtNtB7_5token5CommaENtNtNtNtCsaNl6UpbT7bw_4core4iter6traits10exact_size17ExactSizeIterator8is_emptyCsaeTzLhAkejc_12tokio_macros, symObjAddr: 0x3890, symBinAddr: 0x1E9BC, symSize: 0x2C }
  - { offset: 0x588F6, size: 0x8, addend: 0x0, symName: __RNvYINtNtCsc29TF2YcYso_3syn10punctuated14PrivateIterMutNtNtB7_3pat3PatNtNtB7_5token2OrENtNtNtNtCsaNl6UpbT7bw_4core4iter6traits12double_ended19DoubleEndedIterator15advance_back_byCsaeTzLhAkejc_12tokio_macros, symObjAddr: 0x3334, symBinAddr: 0x1E460, symSize: 0x158 }
  - { offset: 0x58A70, size: 0x8, addend: 0x0, symName: __RNvYINtNtCsc29TF2YcYso_3syn10punctuated14PrivateIterMutNtNtB7_3pat3PatNtNtB7_5token2OrENtNtNtNtCsaNl6UpbT7bw_4core4iter6traits12double_ended19DoubleEndedIterator8nth_backCsaeTzLhAkejc_12tokio_macros, symObjAddr: 0x348C, symBinAddr: 0x1E5B8, symSize: 0x68 }
  - { offset: 0x58AEE, size: 0x8, addend: 0x0, symName: __RNvYINtNtCsc29TF2YcYso_3syn10punctuated14PrivateIterMutNtNtB7_3pat3PatNtNtB7_5token5CommaENtNtNtNtCsaNl6UpbT7bw_4core4iter6traits12double_ended19DoubleEndedIterator15advance_back_byCsaeTzLhAkejc_12tokio_macros, symObjAddr: 0x35F8, symBinAddr: 0x1E724, symSize: 0x158 }
  - { offset: 0x58C68, size: 0x8, addend: 0x0, symName: __RNvYINtNtCsc29TF2YcYso_3syn10punctuated14PrivateIterMutNtNtB7_3pat3PatNtNtB7_5token5CommaENtNtNtNtCsaNl6UpbT7bw_4core4iter6traits12double_ended19DoubleEndedIterator8nth_backCsaeTzLhAkejc_12tokio_macros, symObjAddr: 0x3750, symBinAddr: 0x1E87C, symSize: 0x68 }
  - { offset: 0x58CE6, size: 0x8, addend: 0x0, symName: __RNvYINtNtCsc29TF2YcYso_3syn10punctuated14PrivateIterMutNtNtB7_3pat8FieldPatNtNtB7_5token5CommaENtNtNtNtCsaNl6UpbT7bw_4core4iter6traits12double_ended19DoubleEndedIterator15advance_back_byCsaeTzLhAkejc_12tokio_macros, symObjAddr: 0x38BC, symBinAddr: 0x1E9E8, symSize: 0x158 }
  - { offset: 0x58E60, size: 0x8, addend: 0x0, symName: __RNvYINtNtCsc29TF2YcYso_3syn10punctuated14PrivateIterMutNtNtB7_3pat8FieldPatNtNtB7_5token5CommaENtNtNtNtCsaNl6UpbT7bw_4core4iter6traits12double_ended19DoubleEndedIterator8nth_backCsaeTzLhAkejc_12tokio_macros, symObjAddr: 0x3A14, symBinAddr: 0x1EB40, symSize: 0x68 }
  - { offset: 0x59DCE, size: 0x8, addend: 0x0, symName: __RINvMsi_NtCsiTraAjBDcu4_5alloc3vecINtB6_3VecNtCshnvkK9b4wzu_11proc_macro25IdentE14extend_trustedINtNtNtNtCsaNl6UpbT7bw_4core4iter8adapters3map3MapINtNtNtB1F_3ops5range5RangejENCNvNtCsaeTzLhAkejc_12tokio_macros6select19declare_output_enum0EEB2T_, symObjAddr: 0x0, symBinAddr: 0x1B12C, symSize: 0x16C }
  - { offset: 0x5A18F, size: 0x8, addend: 0x0, symName: __RINvMsi_NtCsiTraAjBDcu4_5alloc3vecINtB6_3VecNtCshnvkK9b4wzu_11proc_macro29TokenTreeE16extend_desugaredINtNtNtNtCsaNl6UpbT7bw_4core4iter8adapters7flatten7FlattenINtNtB1H_3map3MapIB2z_IB2z_INtNtB1H_3zip3ZipINtNtNtB1L_5slice4iter4IterNtBI_11TokenStreamEIB3h_ReEENCNvNtCsaeTzLhAkejc_12tokio_macros5entry11parse_knobss1_0ENCINvXs7_BI_B3H_INtNtNtB1J_6traits7collect12FromIteratorB3H_E9from_iterB2U_E0ENCINvXs6_NtBI_3impNtB6u_11TokenStreamIB5m_B6D_E9from_iterB2P_Es_0EEEB4f_, symObjAddr: 0x16C, symBinAddr: 0x1B298, symSize: 0x1D0 }
  - { offset: 0x5A4C2, size: 0x8, addend: 0x0, symName: __RINvMsi_NtCsiTraAjBDcu4_5alloc3vecINtB6_3VecNtNtCsc29TF2YcYso_3syn4attr4MetaE14extend_trustedINtNtCsaNl6UpbT7bw_4core6option8IntoIterBG_EECsaeTzLhAkejc_12tokio_macros, symObjAddr: 0x33C, symBinAddr: 0x1B468, symSize: 0x19C }
  - { offset: 0x5A7A4, size: 0x8, addend: 0x0, symName: __RINvMsi_NtCsiTraAjBDcu4_5alloc3vecINtB6_3VecNtNtCsc29TF2YcYso_3syn4attr4MetaE14extend_trustedINtNtNtNtCsaNl6UpbT7bw_4core4iter8adapters3map3MapINtNtB6_9into_iter8IntoIterTBG_NtNtBK_5token5CommaEENCNvXs8_NtBK_10punctuatedINtB3f_10PunctuatedBG_B2M_ENtNtNtB1A_6traits7collect12IntoIterator9into_iter0EECsaeTzLhAkejc_12tokio_macros, symObjAddr: 0x4D8, symBinAddr: 0x1B604, symSize: 0x184 }
  - { offset: 0x5AABB, size: 0x8, addend: 0x0, symName: __RNvMNtCsc29TF2YcYso_3syn10punctuatedINtB2_10PunctuatedNtNtB4_3pat3PatNtNtB4_5token2OrE8iter_mutCsaeTzLhAkejc_12tokio_macros, symObjAddr: 0xFF4, symBinAddr: 0x1C120, symSize: 0xC8 }
  - { offset: 0x5AB26, size: 0x8, addend: 0x0, symName: __RNvMNtCsc29TF2YcYso_3syn10punctuatedINtB2_10PunctuatedNtNtB4_3pat3PatNtNtB4_5token5CommaE8iter_mutCsaeTzLhAkejc_12tokio_macros, symObjAddr: 0x10BC, symBinAddr: 0x1C1E8, symSize: 0xC8 }
  - { offset: 0x5ABBF, size: 0x8, addend: 0x0, symName: __RNvMNtCsc29TF2YcYso_3syn10punctuatedINtB2_10PunctuatedNtNtB4_3pat8FieldPatNtNtB4_5token5CommaE8iter_mutCsaeTzLhAkejc_12tokio_macros, symObjAddr: 0x1184, symBinAddr: 0x1C2B0, symSize: 0xC8 }
  - { offset: 0x5AC55, size: 0x8, addend: 0x0, symName: __RNvMNtCsc29TF2YcYso_3syn10punctuatedINtB2_10PunctuatedNtNtB4_4attr4MetaNtNtB4_5token5CommaE10push_punctCsaeTzLhAkejc_12tokio_macros, symObjAddr: 0x124C, symBinAddr: 0x1C378, symSize: 0x208 }
  - { offset: 0x5ACD3, size: 0x8, addend: 0x0, symName: __RNvMNtCsc29TF2YcYso_3syn10punctuatedINtB2_10PunctuatedNtNtB4_4attr4MetaNtNtB4_5token5CommaE10push_valueCsaeTzLhAkejc_12tokio_macros, symObjAddr: 0x1454, symBinAddr: 0x1C580, symSize: 0x1B4 }
  - { offset: 0x5AD90, size: 0x8, addend: 0x0, symName: __RNvMNtCsc29TF2YcYso_3syn10punctuatedINtB2_10PunctuatedNtNtB4_4attr4MetaNtNtB4_5token5CommaE16parse_terminatedCsaeTzLhAkejc_12tokio_macros, symObjAddr: 0x1608, symBinAddr: 0x1C734, symSize: 0x3C }
  - { offset: 0x5ADD2, size: 0x8, addend: 0x0, symName: __RNvMNtCsc29TF2YcYso_3syn10punctuatedINtB2_10PunctuatedNtNtB4_4attr4MetaNtNtB4_5token5CommaE17empty_or_trailingCsaeTzLhAkejc_12tokio_macros, symObjAddr: 0x1644, symBinAddr: 0x1C770, symSize: 0x34 }
  - { offset: 0x5AE1E, size: 0x8, addend: 0x0, symName: __RNvMNtCsc29TF2YcYso_3syn10punctuatedINtB2_10PunctuatedNtNtB4_4attr4MetaNtNtB4_5token5CommaE21parse_terminated_withCsaeTzLhAkejc_12tokio_macros, symObjAddr: 0x1678, symBinAddr: 0x1C7A4, symSize: 0x370 }
  - { offset: 0x5AF23, size: 0x8, addend: 0x0, symName: __RNvMNtCsc29TF2YcYso_3syn10punctuatedINtB2_10PunctuatedNtNtB4_4attr4MetaNtNtB4_5token5CommaE3lenCsaeTzLhAkejc_12tokio_macros, symObjAddr: 0x19E8, symBinAddr: 0x1CB14, symSize: 0xA0 }
  - { offset: 0x5AF57, size: 0x8, addend: 0x0, symName: __RNvMNtCsc29TF2YcYso_3syn10punctuatedINtB2_10PunctuatedNtNtB4_4attr4MetaNtNtB4_5token5CommaE3newCsaeTzLhAkejc_12tokio_macros, symObjAddr: 0x1A88, symBinAddr: 0x1CBB4, symSize: 0x54 }
  - { offset: 0x5AF7D, size: 0x8, addend: 0x0, symName: __RNvMNtCsiTraAjBDcu4_5alloc3vecINtB2_3VecNtCshnvkK9b4wzu_11proc_macro211TokenStreamE3newCsaeTzLhAkejc_12tokio_macros, symObjAddr: 0x1ADC, symBinAddr: 0x1CC08, symSize: 0x14 }
  - { offset: 0x5AFFC, size: 0x8, addend: 0x0, symName: __RNvMNtCsiTraAjBDcu4_5alloc3vecINtB2_3VecNtNtCsc29TF2YcYso_3syn4attr4MetaE13with_capacityCsaeTzLhAkejc_12tokio_macros, symObjAddr: 0x1AF0, symBinAddr: 0x1CC1C, symSize: 0x48 }
  - { offset: 0x5B074, size: 0x8, addend: 0x0, symName: __RNvMNtCsiTraAjBDcu4_5alloc3vecINtB2_3VecTNtNtCsc29TF2YcYso_3syn4attr4MetaNtNtBH_5token5CommaEE3newCsaeTzLhAkejc_12tokio_macros, symObjAddr: 0x1B38, symBinAddr: 0x1CC64, symSize: 0x14 }
  - { offset: 0x5B197, size: 0x8, addend: 0x0, symName: __RNvMs_NtCsiTraAjBDcu4_5alloc3vecINtB4_3VecNtCshnvkK9b4wzu_11proc_macro211TokenStreamE4pushCsaeTzLhAkejc_12tokio_macros, symObjAddr: 0x1B4C, symBinAddr: 0x1CC78, symSize: 0x100 }
  - { offset: 0x5B3EF, size: 0x8, addend: 0x0, symName: __RNvMs_NtCsiTraAjBDcu4_5alloc3vecINtB4_3VecNtCshnvkK9b4wzu_11proc_macro211TokenStreamE8as_sliceCsaeTzLhAkejc_12tokio_macros, symObjAddr: 0x1C4C, symBinAddr: 0x1CD78, symSize: 0x6C }
  - { offset: 0x5B5D9, size: 0x8, addend: 0x0, symName: __RNvMs_NtCsiTraAjBDcu4_5alloc3vecINtB4_3VecNtCshnvkK9b4wzu_11proc_macro25IdentE7reserveCsaeTzLhAkejc_12tokio_macros, symObjAddr: 0x1CB8, symBinAddr: 0x1CDE4, symSize: 0xC8 }
  - { offset: 0x5B7E4, size: 0x8, addend: 0x0, symName: __RNvMs_NtCsiTraAjBDcu4_5alloc3vecINtB4_3VecNtCshnvkK9b4wzu_11proc_macro25IdentE8as_sliceCsaeTzLhAkejc_12tokio_macros, symObjAddr: 0x1D80, symBinAddr: 0x1CEAC, symSize: 0x6C }
  - { offset: 0x5B9B4, size: 0x8, addend: 0x0, symName: __RNvMs_NtCsiTraAjBDcu4_5alloc3vecINtB4_3VecNtNtCsc29TF2YcYso_3syn4attr4MetaE7reserveCsaeTzLhAkejc_12tokio_macros, symObjAddr: 0x1DEC, symBinAddr: 0x1CF18, symSize: 0xC8 }
  - { offset: 0x5BBDC, size: 0x8, addend: 0x0, symName: __RNvMs_NtCsiTraAjBDcu4_5alloc3vecINtB4_3VecTNtNtCsc29TF2YcYso_3syn3pat3PatNtNtBJ_5token2OrEE12as_mut_sliceCsaeTzLhAkejc_12tokio_macros, symObjAddr: 0x1EB4, symBinAddr: 0x1CFE0, symSize: 0x6C }
  - { offset: 0x5BD6C, size: 0x8, addend: 0x0, symName: __RNvMs_NtCsiTraAjBDcu4_5alloc3vecINtB4_3VecTNtNtCsc29TF2YcYso_3syn3pat3PatNtNtBJ_5token5CommaEE12as_mut_sliceCsaeTzLhAkejc_12tokio_macros, symObjAddr: 0x1F20, symBinAddr: 0x1D04C, symSize: 0x6C }
  - { offset: 0x5BEFC, size: 0x8, addend: 0x0, symName: __RNvMs_NtCsiTraAjBDcu4_5alloc3vecINtB4_3VecTNtNtCsc29TF2YcYso_3syn3pat8FieldPatNtNtBJ_5token5CommaEE12as_mut_sliceCsaeTzLhAkejc_12tokio_macros, symObjAddr: 0x1F8C, symBinAddr: 0x1D0B8, symSize: 0x6C }
  - { offset: 0x5BFD8, size: 0x8, addend: 0x0, symName: __RNvMs_NtCsiTraAjBDcu4_5alloc3vecINtB4_3VecTNtNtCsc29TF2YcYso_3syn4attr4MetaNtNtBJ_5token5CommaEE3lenCsaeTzLhAkejc_12tokio_macros, symObjAddr: 0x1FF8, symBinAddr: 0x1D124, symSize: 0x18 }
  - { offset: 0x5C113, size: 0x8, addend: 0x0, symName: __RNvMs_NtCsiTraAjBDcu4_5alloc3vecINtB4_3VecTNtNtCsc29TF2YcYso_3syn4attr4MetaNtNtBJ_5token5CommaEE4pushCsaeTzLhAkejc_12tokio_macros, symObjAddr: 0x2010, symBinAddr: 0x1D13C, symSize: 0x120 }
  - { offset: 0x5C2DE, size: 0x8, addend: 0x0, symName: __RNvXs4_NtNtCs4EAaWzSXu1l_5quote9___private3extINtNtCsiTraAjBDcu4_5alloc3vec3VecNtCshnvkK9b4wzu_11proc_macro211TokenStreamENtB5_16RepAsIteratorExt15quote_into_iterCsaeTzLhAkejc_12tokio_macros, symObjAddr: 0x2178, symBinAddr: 0x1D2A4, symSize: 0x38 }
  - { offset: 0x5C313, size: 0x8, addend: 0x0, symName: __RNvXs4_NtNtCs4EAaWzSXu1l_5quote9___private3extINtNtCsiTraAjBDcu4_5alloc3vec3VecNtCshnvkK9b4wzu_11proc_macro25IdentENtB5_16RepAsIteratorExt15quote_into_iterCsaeTzLhAkejc_12tokio_macros, symObjAddr: 0x21B0, symBinAddr: 0x1D2DC, symSize: 0x38 }
  - { offset: 0x5CEE4, size: 0x8, addend: 0x0, symName: __RINvNtNtCs7yrEGia95Wz_10proc_macro6bridge6client10run_clientNtB2_11TokenStreamINtNtCsaNl6UpbT7bw_4core6option6OptionBW_ENCNCINvMs6_B2_INtB2_6ClientNtB6_11TokenStreamB2l_E7expand1NvCsaeTzLhAkejc_12tokio_macros25select_priv_clean_patternE00EB2S_, symObjAddr: 0x0, symBinAddr: 0x1EC80, symSize: 0x21C }
  - { offset: 0x5E2CE, size: 0x8, addend: 0x0, symName: __RNCINvNtNtCs7yrEGia95Wz_10proc_macro6bridge6client10run_clientNtB4_11TokenStreamINtNtCsaNl6UpbT7bw_4core6option6OptionBY_ENCNCINvMs6_B4_INtB4_6ClientNtB8_11TokenStreamB2n_E7expand1NvCsaeTzLhAkejc_12tokio_macros25select_priv_clean_patternE00E0B2U_, symObjAddr: 0x1260, symBinAddr: 0x1FEE0, symSize: 0x324 }
  - { offset: 0x5E4F3, size: 0x8, addend: 0x0, symName: __RNCINvNtNtCs7yrEGia95Wz_10proc_macro6bridge6client10run_clientNtB4_11TokenStreamINtNtCsaNl6UpbT7bw_4core6option6OptionBY_ENCNCINvMs6_B4_INtB4_6ClientNtB8_11TokenStreamB2n_E7expand1NvCsaeTzLhAkejc_12tokio_macros31select_priv_declare_output_enumE00E0B2U_, symObjAddr: 0x1584, symBinAddr: 0x20204, symSize: 0x324 }
  - { offset: 0x5E718, size: 0x8, addend: 0x0, symName: __RNCINvNtNtCs7yrEGia95Wz_10proc_macro6bridge6client10run_clientTNtB4_11TokenStreamBZ_EINtNtCsaNl6UpbT7bw_4core6option6OptionBZ_ENCNCINvMs7_B4_INtB4_6ClientTNtB8_11TokenStreamB2t_EB2t_E7expand2NvCsaeTzLhAkejc_12tokio_macros4mainE00E0B35_, symObjAddr: 0x18A8, symBinAddr: 0x20528, symSize: 0x344 }
  - { offset: 0x5E93D, size: 0x8, addend: 0x0, symName: __RNCINvNtNtCs7yrEGia95Wz_10proc_macro6bridge6client10run_clientTNtB4_11TokenStreamBZ_EINtNtCsaNl6UpbT7bw_4core6option6OptionBZ_ENCNCINvMs7_B4_INtB4_6ClientTNtB8_11TokenStreamB2t_EB2t_E7expand2NvCsaeTzLhAkejc_12tokio_macros4testE00E0B35_, symObjAddr: 0x1BEC, symBinAddr: 0x2086C, symSize: 0x344 }
  - { offset: 0x5EB62, size: 0x8, addend: 0x0, symName: __RNCINvNtNtCs7yrEGia95Wz_10proc_macro6bridge6client10run_clientTNtB4_11TokenStreamBZ_EINtNtCsaNl6UpbT7bw_4core6option6OptionBZ_ENCNCINvMs7_B4_INtB4_6ClientTNtB8_11TokenStreamB2t_EB2t_E7expand2NvCsaeTzLhAkejc_12tokio_macros7main_rtE00E0B35_, symObjAddr: 0x1F30, symBinAddr: 0x20BB0, symSize: 0x344 }
  - { offset: 0x5ED87, size: 0x8, addend: 0x0, symName: __RNCINvNtNtCs7yrEGia95Wz_10proc_macro6bridge6client10run_clientTNtB4_11TokenStreamBZ_EINtNtCsaNl6UpbT7bw_4core6option6OptionBZ_ENCNCINvMs7_B4_INtB4_6ClientTNtB8_11TokenStreamB2t_EB2t_E7expand2NvCsaeTzLhAkejc_12tokio_macros7test_rtE00E0B35_, symObjAddr: 0x2274, symBinAddr: 0x20EF4, symSize: 0x344 }
  - { offset: 0x5EFAC, size: 0x8, addend: 0x0, symName: __RNCINvNtNtCs7yrEGia95Wz_10proc_macro6bridge6client10run_clientTNtB4_11TokenStreamBZ_EINtNtCsaNl6UpbT7bw_4core6option6OptionBZ_ENCNCINvMs7_B4_INtB4_6ClientTNtB8_11TokenStreamB2t_EB2t_E7expand2NvCsaeTzLhAkejc_12tokio_macros9main_failE00E0B35_, symObjAddr: 0x25B8, symBinAddr: 0x21238, symSize: 0x344 }
  - { offset: 0x5F1D1, size: 0x8, addend: 0x0, symName: __RNCINvNtNtCs7yrEGia95Wz_10proc_macro6bridge6client10run_clientTNtB4_11TokenStreamBZ_EINtNtCsaNl6UpbT7bw_4core6option6OptionBZ_ENCNCINvMs7_B4_INtB4_6ClientTNtB8_11TokenStreamB2t_EB2t_E7expand2NvCsaeTzLhAkejc_12tokio_macros9test_failE00E0B35_, symObjAddr: 0x28FC, symBinAddr: 0x2157C, symSize: 0x344 }
  - { offset: 0x5F3FB, size: 0x8, addend: 0x0, symName: __RNCNCINvNtNtCs7yrEGia95Wz_10proc_macro6bridge6client10run_clientNtB6_11TokenStreamINtNtCsaNl6UpbT7bw_4core6option6OptionB10_ENCNCINvMs6_B6_INtB6_6ClientNtBa_11TokenStreamB2q_E7expand1NvCsaeTzLhAkejc_12tokio_macros25select_priv_clean_patternE00E00B2X_, symObjAddr: 0x2E38, symBinAddr: 0x21AB8, symSize: 0x28 }
  - { offset: 0x5F455, size: 0x8, addend: 0x0, symName: __RNCNCINvNtNtCs7yrEGia95Wz_10proc_macro6bridge6client10run_clientNtB6_11TokenStreamINtNtCsaNl6UpbT7bw_4core6option6OptionB10_ENCNCINvMs6_B6_INtB6_6ClientNtBa_11TokenStreamB2q_E7expand1NvCsaeTzLhAkejc_12tokio_macros31select_priv_declare_output_enumE00E00B2X_, symObjAddr: 0x2E60, symBinAddr: 0x21AE0, symSize: 0x28 }
  - { offset: 0x5F4AF, size: 0x8, addend: 0x0, symName: __RNCNCINvNtNtCs7yrEGia95Wz_10proc_macro6bridge6client10run_clientTNtB6_11TokenStreamB11_EINtNtCsaNl6UpbT7bw_4core6option6OptionB11_ENCNCINvMs7_B6_INtB6_6ClientTNtBa_11TokenStreamB2x_EB2x_E7expand2NvCsaeTzLhAkejc_12tokio_macros4mainE00E00B39_, symObjAddr: 0x2E88, symBinAddr: 0x21B08, symSize: 0x24 }
  - { offset: 0x5F50B, size: 0x8, addend: 0x0, symName: __RNCNCINvNtNtCs7yrEGia95Wz_10proc_macro6bridge6client10run_clientTNtB6_11TokenStreamB11_EINtNtCsaNl6UpbT7bw_4core6option6OptionB11_ENCNCINvMs7_B6_INtB6_6ClientTNtBa_11TokenStreamB2x_EB2x_E7expand2NvCsaeTzLhAkejc_12tokio_macros4testE00E00B39_, symObjAddr: 0x2EAC, symBinAddr: 0x21B2C, symSize: 0x24 }
  - { offset: 0x5F567, size: 0x8, addend: 0x0, symName: __RNCNCINvNtNtCs7yrEGia95Wz_10proc_macro6bridge6client10run_clientTNtB6_11TokenStreamB11_EINtNtCsaNl6UpbT7bw_4core6option6OptionB11_ENCNCINvMs7_B6_INtB6_6ClientTNtBa_11TokenStreamB2x_EB2x_E7expand2NvCsaeTzLhAkejc_12tokio_macros7main_rtE00E00B39_, symObjAddr: 0x2ED0, symBinAddr: 0x21B50, symSize: 0x24 }
  - { offset: 0x5F5C3, size: 0x8, addend: 0x0, symName: __RNCNCINvNtNtCs7yrEGia95Wz_10proc_macro6bridge6client10run_clientTNtB6_11TokenStreamB11_EINtNtCsaNl6UpbT7bw_4core6option6OptionB11_ENCNCINvMs7_B6_INtB6_6ClientTNtBa_11TokenStreamB2x_EB2x_E7expand2NvCsaeTzLhAkejc_12tokio_macros7test_rtE00E00B39_, symObjAddr: 0x2EF4, symBinAddr: 0x21B74, symSize: 0x24 }
  - { offset: 0x5F61F, size: 0x8, addend: 0x0, symName: __RNCNCINvNtNtCs7yrEGia95Wz_10proc_macro6bridge6client10run_clientTNtB6_11TokenStreamB11_EINtNtCsaNl6UpbT7bw_4core6option6OptionB11_ENCNCINvMs7_B6_INtB6_6ClientTNtBa_11TokenStreamB2x_EB2x_E7expand2NvCsaeTzLhAkejc_12tokio_macros9main_failE00E00B39_, symObjAddr: 0x2F18, symBinAddr: 0x21B98, symSize: 0x24 }
  - { offset: 0x5F67B, size: 0x8, addend: 0x0, symName: __RNCNCINvNtNtCs7yrEGia95Wz_10proc_macro6bridge6client10run_clientTNtB6_11TokenStreamB11_EINtNtCsaNl6UpbT7bw_4core6option6OptionB11_ENCNCINvMs7_B6_INtB6_6ClientTNtBa_11TokenStreamB2x_EB2x_E7expand2NvCsaeTzLhAkejc_12tokio_macros9test_failE00E00B39_, symObjAddr: 0x2F3C, symBinAddr: 0x21BBC, symSize: 0x24 }
  - { offset: 0x5F70E, size: 0x8, addend: 0x0, symName: __RNCNCINvMs6_NtNtCs7yrEGia95Wz_10proc_macro6bridge6clientINtBa_6ClientNtBe_11TokenStreamB15_E7expand1NvCsaeTzLhAkejc_12tokio_macros25select_priv_clean_patternE00B1C_, symObjAddr: 0x2C40, symBinAddr: 0x218C0, symSize: 0x30 }
  - { offset: 0x5F756, size: 0x8, addend: 0x0, symName: __RNCNCINvMs6_NtNtCs7yrEGia95Wz_10proc_macro6bridge6clientINtBa_6ClientNtBe_11TokenStreamB15_E7expand1NvCsaeTzLhAkejc_12tokio_macros31select_priv_declare_output_enumE00B1C_, symObjAddr: 0x2C70, symBinAddr: 0x218F0, symSize: 0x30 }
  - { offset: 0x5F79F, size: 0x8, addend: 0x0, symName: __RNCINvMs6_NtNtCs7yrEGia95Wz_10proc_macro6bridge6clientINtB8_6ClientNtBc_11TokenStreamB13_E7expand1NvCsaeTzLhAkejc_12tokio_macros25select_priv_clean_patternE0B1A_, symObjAddr: 0x10E0, symBinAddr: 0x1FD60, symSize: 0x30 }
  - { offset: 0x5F7E8, size: 0x8, addend: 0x0, symName: __RNCINvMs6_NtNtCs7yrEGia95Wz_10proc_macro6bridge6clientINtB8_6ClientNtBc_11TokenStreamB13_E7expand1NvCsaeTzLhAkejc_12tokio_macros31select_priv_declare_output_enumE0B1A_, symObjAddr: 0x1110, symBinAddr: 0x1FD90, symSize: 0x30 }
  - { offset: 0x5F854, size: 0x8, addend: 0x0, symName: __RINvNtNtCs7yrEGia95Wz_10proc_macro6bridge6client10run_clientNtB2_11TokenStreamINtNtCsaNl6UpbT7bw_4core6option6OptionBW_ENCNCINvMs6_B2_INtB2_6ClientNtB6_11TokenStreamB2l_E7expand1NvCsaeTzLhAkejc_12tokio_macros25select_priv_clean_patternE00EB2S_, symObjAddr: 0x0, symBinAddr: 0x1EC80, symSize: 0x21C }
  - { offset: 0x5FA29, size: 0x8, addend: 0x0, symName: __RINvNtNtCs7yrEGia95Wz_10proc_macro6bridge6client10run_clientNtB2_11TokenStreamINtNtCsaNl6UpbT7bw_4core6option6OptionBW_ENCNCINvMs6_B2_INtB2_6ClientNtB6_11TokenStreamB2l_E7expand1NvCsaeTzLhAkejc_12tokio_macros31select_priv_declare_output_enumE00EB2S_, symObjAddr: 0x21C, symBinAddr: 0x1EE9C, symSize: 0x21C }
  - { offset: 0x5FC7F, size: 0x8, addend: 0x0, symName: __RNCNCINvMs7_NtNtCs7yrEGia95Wz_10proc_macro6bridge6clientINtBa_6ClientTNtBe_11TokenStreamB16_EB16_E7expand2NvCsaeTzLhAkejc_12tokio_macros4mainE00B1I_, symObjAddr: 0x2CA0, symBinAddr: 0x21920, symSize: 0x44 }
  - { offset: 0x5FCF1, size: 0x8, addend: 0x0, symName: __RNCNCINvMs7_NtNtCs7yrEGia95Wz_10proc_macro6bridge6clientINtBa_6ClientTNtBe_11TokenStreamB16_EB16_E7expand2NvCsaeTzLhAkejc_12tokio_macros4testE00B1I_, symObjAddr: 0x2CE4, symBinAddr: 0x21964, symSize: 0x44 }
  - { offset: 0x5FD63, size: 0x8, addend: 0x0, symName: __RNCNCINvMs7_NtNtCs7yrEGia95Wz_10proc_macro6bridge6clientINtBa_6ClientTNtBe_11TokenStreamB16_EB16_E7expand2NvCsaeTzLhAkejc_12tokio_macros7main_rtE00B1I_, symObjAddr: 0x2D28, symBinAddr: 0x219A8, symSize: 0x44 }
  - { offset: 0x5FDD5, size: 0x8, addend: 0x0, symName: __RNCNCINvMs7_NtNtCs7yrEGia95Wz_10proc_macro6bridge6clientINtBa_6ClientTNtBe_11TokenStreamB16_EB16_E7expand2NvCsaeTzLhAkejc_12tokio_macros7test_rtE00B1I_, symObjAddr: 0x2D6C, symBinAddr: 0x219EC, symSize: 0x44 }
  - { offset: 0x5FE47, size: 0x8, addend: 0x0, symName: __RNCNCINvMs7_NtNtCs7yrEGia95Wz_10proc_macro6bridge6clientINtBa_6ClientTNtBe_11TokenStreamB16_EB16_E7expand2NvCsaeTzLhAkejc_12tokio_macros9main_failE00B1I_, symObjAddr: 0x2DB0, symBinAddr: 0x21A30, symSize: 0x44 }
  - { offset: 0x5FEB9, size: 0x8, addend: 0x0, symName: __RNCNCINvMs7_NtNtCs7yrEGia95Wz_10proc_macro6bridge6clientINtBa_6ClientTNtBe_11TokenStreamB16_EB16_E7expand2NvCsaeTzLhAkejc_12tokio_macros9test_failE00B1I_, symObjAddr: 0x2DF4, symBinAddr: 0x21A74, symSize: 0x44 }
  - { offset: 0x5FF2C, size: 0x8, addend: 0x0, symName: __RNCINvMs7_NtNtCs7yrEGia95Wz_10proc_macro6bridge6clientINtB8_6ClientTNtBc_11TokenStreamB14_EB14_E7expand2NvCsaeTzLhAkejc_12tokio_macros4mainE0B1G_, symObjAddr: 0x1140, symBinAddr: 0x1FDC0, symSize: 0x30 }
  - { offset: 0x5FF75, size: 0x8, addend: 0x0, symName: __RNCINvMs7_NtNtCs7yrEGia95Wz_10proc_macro6bridge6clientINtB8_6ClientTNtBc_11TokenStreamB14_EB14_E7expand2NvCsaeTzLhAkejc_12tokio_macros4testE0B1G_, symObjAddr: 0x1170, symBinAddr: 0x1FDF0, symSize: 0x30 }
  - { offset: 0x5FFBE, size: 0x8, addend: 0x0, symName: __RNCINvMs7_NtNtCs7yrEGia95Wz_10proc_macro6bridge6clientINtB8_6ClientTNtBc_11TokenStreamB14_EB14_E7expand2NvCsaeTzLhAkejc_12tokio_macros7main_rtE0B1G_, symObjAddr: 0x11A0, symBinAddr: 0x1FE20, symSize: 0x30 }
  - { offset: 0x60007, size: 0x8, addend: 0x0, symName: __RNCINvMs7_NtNtCs7yrEGia95Wz_10proc_macro6bridge6clientINtB8_6ClientTNtBc_11TokenStreamB14_EB14_E7expand2NvCsaeTzLhAkejc_12tokio_macros7test_rtE0B1G_, symObjAddr: 0x11D0, symBinAddr: 0x1FE50, symSize: 0x30 }
  - { offset: 0x60050, size: 0x8, addend: 0x0, symName: __RNCINvMs7_NtNtCs7yrEGia95Wz_10proc_macro6bridge6clientINtB8_6ClientTNtBc_11TokenStreamB14_EB14_E7expand2NvCsaeTzLhAkejc_12tokio_macros9main_failE0B1G_, symObjAddr: 0x1200, symBinAddr: 0x1FE80, symSize: 0x30 }
  - { offset: 0x60099, size: 0x8, addend: 0x0, symName: __RNCINvMs7_NtNtCs7yrEGia95Wz_10proc_macro6bridge6clientINtB8_6ClientTNtBc_11TokenStreamB14_EB14_E7expand2NvCsaeTzLhAkejc_12tokio_macros9test_failE0B1G_, symObjAddr: 0x1230, symBinAddr: 0x1FEB0, symSize: 0x30 }
  - { offset: 0x600E4, size: 0x8, addend: 0x0, symName: __RINvNtNtCs7yrEGia95Wz_10proc_macro6bridge6client10run_clientTNtB2_11TokenStreamBX_EINtNtCsaNl6UpbT7bw_4core6option6OptionBX_ENCNCINvMs7_B2_INtB2_6ClientTNtB6_11TokenStreamB2r_EB2r_E7expand2NvCsaeTzLhAkejc_12tokio_macros4mainE00EB33_, symObjAddr: 0x438, symBinAddr: 0x1F0B8, symSize: 0x21C }
  - { offset: 0x602B9, size: 0x8, addend: 0x0, symName: __RINvNtNtCs7yrEGia95Wz_10proc_macro6bridge6client10run_clientTNtB2_11TokenStreamBX_EINtNtCsaNl6UpbT7bw_4core6option6OptionBX_ENCNCINvMs7_B2_INtB2_6ClientTNtB6_11TokenStreamB2r_EB2r_E7expand2NvCsaeTzLhAkejc_12tokio_macros4testE00EB33_, symObjAddr: 0x654, symBinAddr: 0x1F2D4, symSize: 0x21C }
  - { offset: 0x6048E, size: 0x8, addend: 0x0, symName: __RINvNtNtCs7yrEGia95Wz_10proc_macro6bridge6client10run_clientTNtB2_11TokenStreamBX_EINtNtCsaNl6UpbT7bw_4core6option6OptionBX_ENCNCINvMs7_B2_INtB2_6ClientTNtB6_11TokenStreamB2r_EB2r_E7expand2NvCsaeTzLhAkejc_12tokio_macros7main_rtE00EB33_, symObjAddr: 0x870, symBinAddr: 0x1F4F0, symSize: 0x21C }
  - { offset: 0x60663, size: 0x8, addend: 0x0, symName: __RINvNtNtCs7yrEGia95Wz_10proc_macro6bridge6client10run_clientTNtB2_11TokenStreamBX_EINtNtCsaNl6UpbT7bw_4core6option6OptionBX_ENCNCINvMs7_B2_INtB2_6ClientTNtB6_11TokenStreamB2r_EB2r_E7expand2NvCsaeTzLhAkejc_12tokio_macros7test_rtE00EB33_, symObjAddr: 0xA8C, symBinAddr: 0x1F70C, symSize: 0x21C }
  - { offset: 0x60838, size: 0x8, addend: 0x0, symName: __RINvNtNtCs7yrEGia95Wz_10proc_macro6bridge6client10run_clientTNtB2_11TokenStreamBX_EINtNtCsaNl6UpbT7bw_4core6option6OptionBX_ENCNCINvMs7_B2_INtB2_6ClientTNtB6_11TokenStreamB2r_EB2r_E7expand2NvCsaeTzLhAkejc_12tokio_macros9main_failE00EB33_, symObjAddr: 0xCA8, symBinAddr: 0x1F928, symSize: 0x21C }
  - { offset: 0x60A0D, size: 0x8, addend: 0x0, symName: __RINvNtNtCs7yrEGia95Wz_10proc_macro6bridge6client10run_clientTNtB2_11TokenStreamBX_EINtNtCsaNl6UpbT7bw_4core6option6OptionBX_ENCNCINvMs7_B2_INtB2_6ClientTNtB6_11TokenStreamB2r_EB2r_E7expand2NvCsaeTzLhAkejc_12tokio_macros9test_failE00EB33_, symObjAddr: 0xEC4, symBinAddr: 0x1FB44, symSize: 0x21C }
  - { offset: 0x60C35, size: 0x8, addend: 0x0, symName: __RNvXsf_NtNtCs7yrEGia95Wz_10proc_macro6bridge6clientNtB5_11TokenStreamINtNtB7_3rpc6EncodeuE6encodeCsaeTzLhAkejc_12tokio_macros, symObjAddr: 0x2FE0, symBinAddr: 0x21C60, symSize: 0x50 }
  - { offset: 0x60D46, size: 0x8, addend: 0x0, symName: __RNvXsi_NtNtCs7yrEGia95Wz_10proc_macro6bridge6clientNtB5_11TokenStreamINtNtB7_3rpc9DecodeMutuE6decodeCsaeTzLhAkejc_12tokio_macros, symObjAddr: 0x3030, symBinAddr: 0x21CB0, symSize: 0x2C }
  - { offset: 0x60D8F, size: 0x8, addend: 0x0, symName: __RNvXsk_NtNtCs7yrEGia95Wz_10proc_macro6bridge6clientNtB5_4SpanINtNtB7_3rpc9DecodeMutuE6decodeCsaeTzLhAkejc_12tokio_macros, symObjAddr: 0x305C, symBinAddr: 0x21CDC, symSize: 0x2C }
  - { offset: 0x6110D, size: 0x8, addend: 0x0, symName: __RNvXs9_NtNtCs7yrEGia95Wz_10proc_macro6bridge3rpcTNtNtB7_6client11TokenStreamBL_EINtB5_9DecodeMutuE6decodeCsaeTzLhAkejc_12tokio_macros, symObjAddr: 0x2F60, symBinAddr: 0x21BE0, symSize: 0x80 }
  - { offset: 0x62576, size: 0x8, addend: 0x0, symName: __RINvXNvMNtCsiTraAjBDcu4_5alloc5sliceSp9to_vec_inNtNtCsc29TF2YcYso_3syn4item11ForeignItemNtB3_10ConvertVec6to_vecNtNtB8_5alloc6GlobalEBO_, symObjAddr: 0x0, symBinAddr: 0x21D74, symSize: 0x374 }
  - { offset: 0x63AED, size: 0x8, addend: 0x0, symName: __RNvXNtNtCsc29TF2YcYso_3syn4item7parsingNtB4_4ItemNtNtB6_5parse5Parse5parse, symObjAddr: 0x35A4, symBinAddr: 0x237AC, symSize: 0x1B4 }
  - { offset: 0x63B93, size: 0x8, addend: 0x0, symName: __RNvXs0_NtNtCsc29TF2YcYso_3syn4item7parsingNtB7_9ItemMacroNtNtB9_5parse5Parse5parse, symObjAddr: 0x3758, symBinAddr: 0x23960, symSize: 0x628 }
  - { offset: 0x63D61, size: 0x8, addend: 0x0, symName: __RNvXs1_NtNtCsc29TF2YcYso_3syn4item7parsingNtB7_15ItemExternCrateNtNtB9_5parse5Parse5parse, symObjAddr: 0x3D80, symBinAddr: 0x23F88, symSize: 0x93C }
  - { offset: 0x63F6B, size: 0x8, addend: 0x0, symName: __RNvXs3_NtNtCsc29TF2YcYso_3syn4item7parsingNtB7_7UseTreeNtNtB9_5parse5Parse5parse, symObjAddr: 0x4714, symBinAddr: 0x248C4, symSize: 0x58 }
  - { offset: 0x63FBD, size: 0x8, addend: 0x0, symName: __RNvXs6_NtNtCsc29TF2YcYso_3syn4item7parsingNtB7_9SignatureNtNtB9_5parse5Parse5parse, symObjAddr: 0x5C94, symBinAddr: 0x2491C, symSize: 0x60 }
  - { offset: 0x6400F, size: 0x8, addend: 0x0, symName: __RNvXs9_NtNtCsc29TF2YcYso_3syn4item7parsingNtB7_8ReceiverNtNtB9_5parse5Parse5parse, symObjAddr: 0x6324, symBinAddr: 0x2497C, symSize: 0x94C }
  - { offset: 0x64270, size: 0x8, addend: 0x0, symName: __RNvXsa_NtNtCsc29TF2YcYso_3syn4item7parsingNtB7_7ItemModNtNtB9_5parse5Parse5parse, symObjAddr: 0x6C70, symBinAddr: 0x252C8, symSize: 0xC34 }
  - { offset: 0x644D3, size: 0x8, addend: 0x0, symName: __RNvXsb_NtNtCsc29TF2YcYso_3syn4item7parsingNtB7_14ItemForeignModNtNtB9_5parse5Parse5parse, symObjAddr: 0x78A4, symBinAddr: 0x25EFC, symSize: 0x610 }
  - { offset: 0x64684, size: 0x8, addend: 0x0, symName: __RNvXsc_NtNtCsc29TF2YcYso_3syn4item7parsingNtB7_11ForeignItemNtNtB9_5parse5Parse5parse, symObjAddr: 0x7EB4, symBinAddr: 0x2650C, symSize: 0x1D8C }
  - { offset: 0x64CF4, size: 0x8, addend: 0x0, symName: __RNvXsg_NtNtCsc29TF2YcYso_3syn4item7parsingNtB7_16ForeignItemMacroNtNtB9_5parse5Parse5parse, symObjAddr: 0xAF68, symBinAddr: 0x28298, symSize: 0x32C }
  - { offset: 0x64E08, size: 0x8, addend: 0x0, symName: __RNvXsi_NtNtCsc29TF2YcYso_3syn4item7parsingNtB7_10ItemStructNtNtB9_5parse5Parse5parse, symObjAddr: 0xBC6C, symBinAddr: 0x285C4, symSize: 0x638 }
  - { offset: 0x65005, size: 0x8, addend: 0x0, symName: __RNvXsj_NtNtCsc29TF2YcYso_3syn4item7parsingNtB7_8ItemEnumNtNtB9_5parse5Parse5parse, symObjAddr: 0xC2A4, symBinAddr: 0x28BFC, symSize: 0x63C }
  - { offset: 0x65202, size: 0x8, addend: 0x0, symName: __RNvXsk_NtNtCsc29TF2YcYso_3syn4item7parsingNtB7_9ItemUnionNtNtB9_5parse5Parse5parse, symObjAddr: 0xC8E0, symBinAddr: 0x29238, symSize: 0x62C }
  - { offset: 0x653EE, size: 0x8, addend: 0x0, symName: __RNvXsl_NtNtCsc29TF2YcYso_3syn4item7parsingNtB7_9ItemTraitNtNtB9_5parse5Parse5parse, symObjAddr: 0xCF0C, symBinAddr: 0x29864, symSize: 0x634 }
  - { offset: 0x655F5, size: 0x8, addend: 0x0, symName: __RNvXsn_NtNtCsc29TF2YcYso_3syn4item7parsingNtB7_9TraitItemNtNtB9_5parse5Parse5parse, symObjAddr: 0xD7B0, symBinAddr: 0x29E98, symSize: 0x1648 }
  - { offset: 0x65A69, size: 0x8, addend: 0x0, symName: __RNvXsp_NtNtCsc29TF2YcYso_3syn4item7parsingNtB7_11TraitItemFnNtNtB9_5parse5Parse5parse, symObjAddr: 0xF66C, symBinAddr: 0x2B4E0, symSize: 0x7DC }
  - { offset: 0x65C75, size: 0x8, addend: 0x0, symName: __RNvXsr_NtNtCsc29TF2YcYso_3syn4item7parsingNtB7_14TraitItemMacroNtNtB9_5parse5Parse5parse, symObjAddr: 0x1056C, symBinAddr: 0x2BCBC, symSize: 0x32C }
  - { offset: 0x65D89, size: 0x8, addend: 0x0, symName: __RNvXst_NtNtCsc29TF2YcYso_3syn4item7parsingNtB7_8ImplItemNtNtB9_5parse5Parse5parse, symObjAddr: 0x108F8, symBinAddr: 0x2BFE8, symSize: 0x1A6C }
  - { offset: 0x662B3, size: 0x8, addend: 0x0, symName: __RNvXsx_NtNtCsc29TF2YcYso_3syn4item7parsingNtB7_13ImplItemMacroNtNtB9_5parse5Parse5parse, symObjAddr: 0x135D4, symBinAddr: 0x2DA54, symSize: 0x32C }
  - { offset: 0x663C7, size: 0x8, addend: 0x0, symName: __RNvXsz_NtNtCsc29TF2YcYso_3syn4item7parsingNtB7_16StaticMutabilityNtNtB9_5parse5Parse5parse, symObjAddr: 0x13900, symBinAddr: 0x2DD80, symSize: 0xDC }
  - { offset: 0x6643D, size: 0x8, addend: 0x0, symName: __RNvXNtNtCsc29TF2YcYso_3syn4item8printingNtB4_15ItemExternCrateNtNtCs4EAaWzSXu1l_5quote9to_tokens8ToTokens9to_tokens, symObjAddr: 0x139DC, symBinAddr: 0x2DE5C, symSize: 0x10C }
  - { offset: 0x664AA, size: 0x8, addend: 0x0, symName: __RNvXs_NtNtCsc29TF2YcYso_3syn4item8printingNtB6_7ItemUseNtNtCs4EAaWzSXu1l_5quote9to_tokens8ToTokens9to_tokens, symObjAddr: 0x13AE8, symBinAddr: 0x2DF68, symSize: 0xA4 }
  - { offset: 0x664E9, size: 0x8, addend: 0x0, symName: __RNvXs0_NtNtCsc29TF2YcYso_3syn4item8printingNtB7_10ItemStaticNtNtCs4EAaWzSXu1l_5quote9to_tokens8ToTokens9to_tokens, symObjAddr: 0x13B8C, symBinAddr: 0x2E00C, symSize: 0xE4 }
  - { offset: 0x66528, size: 0x8, addend: 0x0, symName: __RNvXs1_NtNtCsc29TF2YcYso_3syn4item8printingNtB7_9ItemConstNtNtCs4EAaWzSXu1l_5quote9to_tokens8ToTokens9to_tokens, symObjAddr: 0x13C70, symBinAddr: 0x2E0F0, symSize: 0xD4 }
  - { offset: 0x66567, size: 0x8, addend: 0x0, symName: __RNvXs2_NtNtCsc29TF2YcYso_3syn4item8printingNtB7_6ItemFnNtNtCs4EAaWzSXu1l_5quote9to_tokens8ToTokens9to_tokens, symObjAddr: 0x13D44, symBinAddr: 0x2E1C4, symSize: 0xDC }
  - { offset: 0x665A6, size: 0x8, addend: 0x0, symName: __RNvXs3_NtNtCsc29TF2YcYso_3syn4item8printingNtB7_7ItemModNtNtCs4EAaWzSXu1l_5quote9to_tokens8ToTokens9to_tokens, symObjAddr: 0x13E20, symBinAddr: 0x2E2A0, symSize: 0x10C }
  - { offset: 0x66613, size: 0x8, addend: 0x0, symName: __RNvXs4_NtNtCsc29TF2YcYso_3syn4item8printingNtB7_14ItemForeignModNtNtCs4EAaWzSXu1l_5quote9to_tokens8ToTokens9to_tokens, symObjAddr: 0x13F2C, symBinAddr: 0x2E3AC, symSize: 0x88 }
  - { offset: 0x66652, size: 0x8, addend: 0x0, symName: __RNvXs5_NtNtCsc29TF2YcYso_3syn4item8printingNtB7_8ItemTypeNtNtCs4EAaWzSXu1l_5quote9to_tokens8ToTokens9to_tokens, symObjAddr: 0x13FB4, symBinAddr: 0x2E434, symSize: 0xD4 }
  - { offset: 0x66691, size: 0x8, addend: 0x0, symName: __RNvXs6_NtNtCsc29TF2YcYso_3syn4item8printingNtB7_8ItemEnumNtNtCs4EAaWzSXu1l_5quote9to_tokens8ToTokens9to_tokens, symObjAddr: 0x14088, symBinAddr: 0x2E508, symSize: 0xB8 }
  - { offset: 0x666D0, size: 0x8, addend: 0x0, symName: __RNvXs7_NtNtCsc29TF2YcYso_3syn4item8printingNtB7_10ItemStructNtNtCs4EAaWzSXu1l_5quote9to_tokens8ToTokens9to_tokens, symObjAddr: 0x14140, symBinAddr: 0x2E5C0, symSize: 0x188 }
  - { offset: 0x6674B, size: 0x8, addend: 0x0, symName: __RNvXs8_NtNtCsc29TF2YcYso_3syn4item8printingNtB7_9ItemUnionNtNtCs4EAaWzSXu1l_5quote9to_tokens8ToTokens9to_tokens, symObjAddr: 0x142C8, symBinAddr: 0x2E748, symSize: 0xB4 }
  - { offset: 0x6678A, size: 0x8, addend: 0x0, symName: __RNvXs9_NtNtCsc29TF2YcYso_3syn4item8printingNtB7_9ItemTraitNtNtCs4EAaWzSXu1l_5quote9to_tokens8ToTokens9to_tokens, symObjAddr: 0x1437C, symBinAddr: 0x2E7FC, symSize: 0x130 }
  - { offset: 0x667C9, size: 0x8, addend: 0x0, symName: __RNvXsa_NtNtCsc29TF2YcYso_3syn4item8printingNtB7_14ItemTraitAliasNtNtCs4EAaWzSXu1l_5quote9to_tokens8ToTokens9to_tokens, symObjAddr: 0x144AC, symBinAddr: 0x2E92C, symSize: 0xD4 }
  - { offset: 0x66808, size: 0x8, addend: 0x0, symName: __RNvXsb_NtNtCsc29TF2YcYso_3syn4item8printingNtB7_8ItemImplNtNtCs4EAaWzSXu1l_5quote9to_tokens8ToTokens9to_tokens, symObjAddr: 0x14580, symBinAddr: 0x2EA00, symSize: 0x148 }
  - { offset: 0x66885, size: 0x8, addend: 0x0, symName: __RNvXsc_NtNtCsc29TF2YcYso_3syn4item8printingNtB7_9ItemMacroNtNtCs4EAaWzSXu1l_5quote9to_tokens8ToTokens9to_tokens, symObjAddr: 0x146C8, symBinAddr: 0x2EB48, symSize: 0x148 }
  - { offset: 0x66916, size: 0x8, addend: 0x0, symName: __RNvXsd_NtNtCsc29TF2YcYso_3syn4item8printingNtB7_7UsePathNtNtCs4EAaWzSXu1l_5quote9to_tokens8ToTokens9to_tokens, symObjAddr: 0x14810, symBinAddr: 0x2EC90, symSize: 0x60 }
  - { offset: 0x66955, size: 0x8, addend: 0x0, symName: __RNvXse_NtNtCsc29TF2YcYso_3syn4item8printingNtB7_7UseNameNtNtCs4EAaWzSXu1l_5quote9to_tokens8ToTokens9to_tokens, symObjAddr: 0x14870, symBinAddr: 0x2ECF0, symSize: 0x3C }
  - { offset: 0x66994, size: 0x8, addend: 0x0, symName: __RNvXsf_NtNtCsc29TF2YcYso_3syn4item8printingNtB7_9UseRenameNtNtCs4EAaWzSXu1l_5quote9to_tokens8ToTokens9to_tokens, symObjAddr: 0x148AC, symBinAddr: 0x2ED2C, symSize: 0x60 }
  - { offset: 0x669D3, size: 0x8, addend: 0x0, symName: __RNvXsg_NtNtCsc29TF2YcYso_3syn4item8printingNtB7_7UseGlobNtNtCs4EAaWzSXu1l_5quote9to_tokens8ToTokens9to_tokens, symObjAddr: 0x1490C, symBinAddr: 0x2ED8C, symSize: 0x3C }
  - { offset: 0x66A12, size: 0x8, addend: 0x0, symName: __RNvXsh_NtNtCsc29TF2YcYso_3syn4item8printingNtB7_8UseGroupNtNtCs4EAaWzSXu1l_5quote9to_tokens8ToTokens9to_tokens, symObjAddr: 0x14948, symBinAddr: 0x2EDC8, symSize: 0x44 }
  - { offset: 0x66A51, size: 0x8, addend: 0x0, symName: __RNvXsi_NtNtCsc29TF2YcYso_3syn4item8printingNtB7_14TraitItemConstNtNtCs4EAaWzSXu1l_5quote9to_tokens8ToTokens9to_tokens, symObjAddr: 0x1498C, symBinAddr: 0x2EE0C, symSize: 0x10C }
  - { offset: 0x66ABE, size: 0x8, addend: 0x0, symName: __RNvXsj_NtNtCsc29TF2YcYso_3syn4item8printingNtB7_11TraitItemFnNtNtCs4EAaWzSXu1l_5quote9to_tokens8ToTokens9to_tokens, symObjAddr: 0x14A98, symBinAddr: 0x2EF18, symSize: 0xD4 }
  - { offset: 0x66B1B, size: 0x8, addend: 0x0, symName: __RNvXsk_NtNtCsc29TF2YcYso_3syn4item8printingNtB7_13TraitItemTypeNtNtCs4EAaWzSXu1l_5quote9to_tokens8ToTokens9to_tokens, symObjAddr: 0x14B6C, symBinAddr: 0x2EFEC, symSize: 0x164 }
  - { offset: 0x66B88, size: 0x8, addend: 0x0, symName: __RNvXsl_NtNtCsc29TF2YcYso_3syn4item8printingNtB7_14TraitItemMacroNtNtCs4EAaWzSXu1l_5quote9to_tokens8ToTokens9to_tokens, symObjAddr: 0x14CD0, symBinAddr: 0x2F150, symSize: 0x74 }
  - { offset: 0x66BC7, size: 0x8, addend: 0x0, symName: __RNvXsm_NtNtCsc29TF2YcYso_3syn4item8printingNtB7_13ImplItemConstNtNtCs4EAaWzSXu1l_5quote9to_tokens8ToTokens9to_tokens, symObjAddr: 0x14D44, symBinAddr: 0x2F1C4, symSize: 0xE4 }
  - { offset: 0x66C06, size: 0x8, addend: 0x0, symName: __RNvXsn_NtNtCsc29TF2YcYso_3syn4item8printingNtB7_10ImplItemFnNtNtCs4EAaWzSXu1l_5quote9to_tokens8ToTokens9to_tokens, symObjAddr: 0x14E28, symBinAddr: 0x2F2A8, symSize: 0x98 }
  - { offset: 0x66C45, size: 0x8, addend: 0x0, symName: __RNvXso_NtNtCsc29TF2YcYso_3syn4item8printingNtB7_12ImplItemTypeNtNtCs4EAaWzSXu1l_5quote9to_tokens8ToTokens9to_tokens, symObjAddr: 0x14EC0, symBinAddr: 0x2F340, symSize: 0xE4 }
  - { offset: 0x66C84, size: 0x8, addend: 0x0, symName: __RNvXsp_NtNtCsc29TF2YcYso_3syn4item8printingNtB7_13ImplItemMacroNtNtCs4EAaWzSXu1l_5quote9to_tokens8ToTokens9to_tokens, symObjAddr: 0x14FA4, symBinAddr: 0x2F424, symSize: 0x74 }
  - { offset: 0x66CC3, size: 0x8, addend: 0x0, symName: __RNvXsq_NtNtCsc29TF2YcYso_3syn4item8printingNtB7_13ForeignItemFnNtNtCs4EAaWzSXu1l_5quote9to_tokens8ToTokens9to_tokens, symObjAddr: 0x15018, symBinAddr: 0x2F498, symSize: 0x84 }
  - { offset: 0x66D02, size: 0x8, addend: 0x0, symName: __RNvXsr_NtNtCsc29TF2YcYso_3syn4item8printingNtB7_17ForeignItemStaticNtNtCs4EAaWzSXu1l_5quote9to_tokens8ToTokens9to_tokens, symObjAddr: 0x1509C, symBinAddr: 0x2F51C, symSize: 0xC4 }
  - { offset: 0x66D41, size: 0x8, addend: 0x0, symName: __RNvXss_NtNtCsc29TF2YcYso_3syn4item8printingNtB7_15ForeignItemTypeNtNtCs4EAaWzSXu1l_5quote9to_tokens8ToTokens9to_tokens, symObjAddr: 0x15160, symBinAddr: 0x2F5E0, symSize: 0xB4 }
  - { offset: 0x66D80, size: 0x8, addend: 0x0, symName: __RNvXst_NtNtCsc29TF2YcYso_3syn4item8printingNtB7_16ForeignItemMacroNtNtCs4EAaWzSXu1l_5quote9to_tokens8ToTokens9to_tokens, symObjAddr: 0x15214, symBinAddr: 0x2F694, symSize: 0x74 }
  - { offset: 0x66DBF, size: 0x8, addend: 0x0, symName: __RNvXsu_NtNtCsc29TF2YcYso_3syn4item8printingNtB7_9SignatureNtNtCs4EAaWzSXu1l_5quote9to_tokens8ToTokens9to_tokens, symObjAddr: 0x15288, symBinAddr: 0x2F708, symSize: 0xD4 }
  - { offset: 0x66DFE, size: 0x8, addend: 0x0, symName: __RNvXsv_NtNtCsc29TF2YcYso_3syn4item8printingNtB7_8ReceiverNtNtCs4EAaWzSXu1l_5quote9to_tokens8ToTokens9to_tokens, symObjAddr: 0x1535C, symBinAddr: 0x2F7DC, symSize: 0x450 }
  - { offset: 0x66EF6, size: 0x8, addend: 0x0, symName: __RNvXsw_NtNtCsc29TF2YcYso_3syn4item8printingNtB7_8VariadicNtNtCs4EAaWzSXu1l_5quote9to_tokens8ToTokens9to_tokens, symObjAddr: 0x157AC, symBinAddr: 0x2FC2C, symSize: 0xDC }
  - { offset: 0x66F63, size: 0x8, addend: 0x0, symName: __RNvXsx_NtNtCsc29TF2YcYso_3syn4item8printingNtB7_16StaticMutabilityNtNtCs4EAaWzSXu1l_5quote9to_tokens8ToTokens9to_tokens, symObjAddr: 0x15888, symBinAddr: 0x2FD08, symSize: 0x84 }
  - { offset: 0x66FC6, size: 0x8, addend: 0x0, symName: __RNcNtNtNtCsc29TF2YcYso_3syn4item4Item4Enum0B7_, symObjAddr: 0x1590C, symBinAddr: 0x2FD8C, symSize: 0x3C }
  - { offset: 0x66FF5, size: 0x8, addend: 0x0, symName: __RNcNtNtNtCsc29TF2YcYso_3syn4item4Item11ExternCrate0B7_, symObjAddr: 0x15948, symBinAddr: 0x2FDC8, symSize: 0x3C }
  - { offset: 0x67024, size: 0x8, addend: 0x0, symName: __RNcNtNtNtCsc29TF2YcYso_3syn4item4Item2Fn0B7_, symObjAddr: 0x15984, symBinAddr: 0x2FE04, symSize: 0x30 }
  - { offset: 0x67053, size: 0x8, addend: 0x0, symName: __RNcNtNtNtCsc29TF2YcYso_3syn4item4Item10ForeignMod0B7_, symObjAddr: 0x159B4, symBinAddr: 0x2FE34, symSize: 0x3C }
  - { offset: 0x67082, size: 0x8, addend: 0x0, symName: __RNcNtNtNtCsc29TF2YcYso_3syn4item4Item5Macro0B7_, symObjAddr: 0x159F0, symBinAddr: 0x2FE70, symSize: 0x3C }
  - { offset: 0x670B1, size: 0x8, addend: 0x0, symName: __RNcNtNtNtCsc29TF2YcYso_3syn4item4Item3Mod0B7_, symObjAddr: 0x15A2C, symBinAddr: 0x2FEAC, symSize: 0x3C }
  - { offset: 0x670E0, size: 0x8, addend: 0x0, symName: __RNcNtNtNtCsc29TF2YcYso_3syn4item4Item6Struct0B7_, symObjAddr: 0x15A68, symBinAddr: 0x2FEE8, symSize: 0x3C }
  - { offset: 0x6710F, size: 0x8, addend: 0x0, symName: __RNcNtNtNtCsc29TF2YcYso_3syn4item4Item5Trait0B7_, symObjAddr: 0x15AA4, symBinAddr: 0x2FF24, symSize: 0x3C }
  - { offset: 0x6713E, size: 0x8, addend: 0x0, symName: __RNcNtNtNtCsc29TF2YcYso_3syn4item4Item10TraitAlias0B7_, symObjAddr: 0x15AE0, symBinAddr: 0x2FF60, symSize: 0x3C }
  - { offset: 0x6716D, size: 0x8, addend: 0x0, symName: __RNcNtNtNtCsc29TF2YcYso_3syn4item4Item5Union0B7_, symObjAddr: 0x15B1C, symBinAddr: 0x2FF9C, symSize: 0x3C }
  - { offset: 0x6719D, size: 0x8, addend: 0x0, symName: __RNvXsk_NtCsc29TF2YcYso_3syn4itemNtB5_4ItemNtNtCs4EAaWzSXu1l_5quote9to_tokens8ToTokens9to_tokens, symObjAddr: 0x15FC0, symBinAddr: 0x2FFD8, symSize: 0x230 }
  - { offset: 0x673AF, size: 0x8, addend: 0x0, symName: __RNvXsq_NtCsc29TF2YcYso_3syn4itemNtB5_7UseTreeNtNtCs4EAaWzSXu1l_5quote9to_tokens8ToTokens9to_tokens, symObjAddr: 0x1633C, symBinAddr: 0x30208, symSize: 0x10C }
  - { offset: 0x67481, size: 0x8, addend: 0x0, symName: __RNcNtNtNtCsc29TF2YcYso_3syn4item11ForeignItem5Macro0B7_, symObjAddr: 0x16448, symBinAddr: 0x30314, symSize: 0x3C }
  - { offset: 0x674B3, size: 0x8, addend: 0x0, symName: __RNvXsv_NtCsc29TF2YcYso_3syn4itemNtB5_11ForeignItemNtNtCs4EAaWzSXu1l_5quote9to_tokens8ToTokens9to_tokens, symObjAddr: 0x165A8, symBinAddr: 0x30350, symSize: 0x118 }
  - { offset: 0x67585, size: 0x8, addend: 0x0, symName: __RNcNtNtNtCsc29TF2YcYso_3syn4item9TraitItem2Fn0B7_, symObjAddr: 0x166C0, symBinAddr: 0x30468, symSize: 0x3C }
  - { offset: 0x675B6, size: 0x8, addend: 0x0, symName: __RNcNtNtNtCsc29TF2YcYso_3syn4item9TraitItem5Macro0B7_, symObjAddr: 0x166FC, symBinAddr: 0x304A4, symSize: 0x3C }
  - { offset: 0x675E8, size: 0x8, addend: 0x0, symName: __RNvXsA_NtCsc29TF2YcYso_3syn4itemNtB5_9TraitItemNtNtCs4EAaWzSXu1l_5quote9to_tokens8ToTokens9to_tokens, symObjAddr: 0x1685C, symBinAddr: 0x304E0, symSize: 0x118 }
  - { offset: 0x676BA, size: 0x8, addend: 0x0, symName: __RNcNtNtNtCsc29TF2YcYso_3syn4item8ImplItem5Macro0B7_, symObjAddr: 0x16974, symBinAddr: 0x305F8, symSize: 0x3C }
  - { offset: 0x676EC, size: 0x8, addend: 0x0, symName: __RNvXsF_NtCsc29TF2YcYso_3syn4itemNtB5_8ImplItemNtNtCs4EAaWzSXu1l_5quote9to_tokens8ToTokens9to_tokens, symObjAddr: 0x16AD4, symBinAddr: 0x30634, symSize: 0x118 }
  - { offset: 0x677B9, size: 0x8, addend: 0x0, symName: __RNvXsI_NtCsc29TF2YcYso_3syn4itemNtB5_5FnArgNtNtCs4EAaWzSXu1l_5quote9to_tokens8ToTokens9to_tokens, symObjAddr: 0x16C78, symBinAddr: 0x3074C, symSize: 0x8C }
  - { offset: 0x67834, size: 0x8, addend: 0x0, symName: __RNcNtNtNtCsc29TF2YcYso_3syn4item16StaticMutability3Mut0B7_, symObjAddr: 0x16D04, symBinAddr: 0x307D8, symSize: 0x20 }
  - { offset: 0x6B2E2, size: 0x8, addend: 0x0, symName: __RNvXs16_NtNtCsc29TF2YcYso_3syn3gen5cloneNtNtBa_4item5FnArgNtNtCsaNl6UpbT7bw_4core5clone5Clone5clone, symObjAddr: 0x16D24, symBinAddr: 0x307F8, symSize: 0xDC }
  - { offset: 0x6B34A, size: 0x8, addend: 0x0, symName: __RNvXs17_NtNtCsc29TF2YcYso_3syn3gen5cloneNtNtBa_4item11ForeignItemNtNtCsaNl6UpbT7bw_4core5clone5Clone5clone, symObjAddr: 0x16E00, symBinAddr: 0x308D4, symSize: 0x224 }
  - { offset: 0x6B40C, size: 0x8, addend: 0x0, symName: __RNvXs18_NtNtCsc29TF2YcYso_3syn3gen5cloneNtNtBa_4item13ForeignItemFnNtNtCsaNl6UpbT7bw_4core5clone5Clone5clone, symObjAddr: 0x17024, symBinAddr: 0x30AF8, symSize: 0x13C }
  - { offset: 0x6B440, size: 0x8, addend: 0x0, symName: __RNvXs19_NtNtCsc29TF2YcYso_3syn3gen5cloneNtNtBa_4item16ForeignItemMacroNtNtCsaNl6UpbT7bw_4core5clone5Clone5clone, symObjAddr: 0x17160, symBinAddr: 0x30C34, symSize: 0xF4 }
  - { offset: 0x6B474, size: 0x8, addend: 0x0, symName: __RNvXs1a_NtNtCsc29TF2YcYso_3syn3gen5cloneNtNtBa_4item17ForeignItemStaticNtNtCsaNl6UpbT7bw_4core5clone5Clone5clone, symObjAddr: 0x17254, symBinAddr: 0x30D28, symSize: 0x1DC }
  - { offset: 0x6B4A8, size: 0x8, addend: 0x0, symName: __RNvXs1b_NtNtCsc29TF2YcYso_3syn3gen5cloneNtNtBa_4item15ForeignItemTypeNtNtCsaNl6UpbT7bw_4core5clone5Clone5clone, symObjAddr: 0x17430, symBinAddr: 0x30F04, symSize: 0x198 }
  - { offset: 0x6B4DC, size: 0x8, addend: 0x0, symName: __RNvXs1f_NtNtCsc29TF2YcYso_3syn3gen5cloneNtNtBa_4item8ImplItemNtNtCsaNl6UpbT7bw_4core5clone5Clone5clone, symObjAddr: 0x175C8, symBinAddr: 0x3109C, symSize: 0x21C }
  - { offset: 0x6B59E, size: 0x8, addend: 0x0, symName: __RNvXs1g_NtNtCsc29TF2YcYso_3syn3gen5cloneNtNtBa_4item13ImplItemConstNtNtCsaNl6UpbT7bw_4core5clone5Clone5clone, symObjAddr: 0x177E4, symBinAddr: 0x312B8, symSize: 0x2AC }
  - { offset: 0x6B5D2, size: 0x8, addend: 0x0, symName: __RNvXs1h_NtNtCsc29TF2YcYso_3syn3gen5cloneNtNtBa_4item10ImplItemFnNtNtCsaNl6UpbT7bw_4core5clone5Clone5clone, symObjAddr: 0x17A90, symBinAddr: 0x31564, symSize: 0x160 }
  - { offset: 0x6B606, size: 0x8, addend: 0x0, symName: __RNvXs1i_NtNtCsc29TF2YcYso_3syn3gen5cloneNtNtBa_4item13ImplItemMacroNtNtCsaNl6UpbT7bw_4core5clone5Clone5clone, symObjAddr: 0x17BF0, symBinAddr: 0x316C4, symSize: 0xF4 }
  - { offset: 0x6B63A, size: 0x8, addend: 0x0, symName: __RNvXs1j_NtNtCsc29TF2YcYso_3syn3gen5cloneNtNtBa_4item12ImplItemTypeNtNtCsaNl6UpbT7bw_4core5clone5Clone5clone, symObjAddr: 0x17CE4, symBinAddr: 0x317B8, symSize: 0x238 }
  - { offset: 0x6B66E, size: 0x8, addend: 0x0, symName: __RNvXs1m_NtNtCsc29TF2YcYso_3syn3gen5cloneNtNtBa_4item4ItemNtNtCsaNl6UpbT7bw_4core5clone5Clone5clone, symObjAddr: 0x17F28, symBinAddr: 0x319F0, symSize: 0x5D0 }
  - { offset: 0x6B885, size: 0x8, addend: 0x0, symName: __RNvXs1n_NtNtCsc29TF2YcYso_3syn3gen5cloneNtNtBa_4item9ItemConstNtNtCsaNl6UpbT7bw_4core5clone5Clone5clone, symObjAddr: 0x184F8, symBinAddr: 0x31FC0, symSize: 0x270 }
  - { offset: 0x6B8B9, size: 0x8, addend: 0x0, symName: __RNvXs1o_NtNtCsc29TF2YcYso_3syn3gen5cloneNtNtBa_4item8ItemEnumNtNtCsaNl6UpbT7bw_4core5clone5Clone5clone, symObjAddr: 0x18768, symBinAddr: 0x32230, symSize: 0x1C0 }
  - { offset: 0x6B8ED, size: 0x8, addend: 0x0, symName: __RNvXs1p_NtNtCsc29TF2YcYso_3syn3gen5cloneNtNtBa_4item15ItemExternCrateNtNtCsaNl6UpbT7bw_4core5clone5Clone5clone, symObjAddr: 0x18928, symBinAddr: 0x323F0, symSize: 0x1A4 }
  - { offset: 0x6B921, size: 0x8, addend: 0x0, symName: __RNvXs1q_NtNtCsc29TF2YcYso_3syn3gen5cloneNtNtBa_4item6ItemFnNtNtCsaNl6UpbT7bw_4core5clone5Clone5clone, symObjAddr: 0x18ACC, symBinAddr: 0x32594, symSize: 0x12C }
  - { offset: 0x6B955, size: 0x8, addend: 0x0, symName: __RNvXs1r_NtNtCsc29TF2YcYso_3syn3gen5cloneNtNtBa_4item14ItemForeignModNtNtCsaNl6UpbT7bw_4core5clone5Clone5clone, symObjAddr: 0x18BF8, symBinAddr: 0x326C0, symSize: 0x14C }
  - { offset: 0x6B989, size: 0x8, addend: 0x0, symName: __RNvXs1s_NtNtCsc29TF2YcYso_3syn3gen5cloneNtNtBa_4item8ItemImplNtNtCsaNl6UpbT7bw_4core5clone5Clone5clone, symObjAddr: 0x18D44, symBinAddr: 0x3280C, symSize: 0x220 }
  - { offset: 0x6B9BD, size: 0x8, addend: 0x0, symName: __RNvXs1t_NtNtCsc29TF2YcYso_3syn3gen5cloneNtNtBa_4item9ItemMacroNtNtCsaNl6UpbT7bw_4core5clone5Clone5clone, symObjAddr: 0x18F64, symBinAddr: 0x32A2C, symSize: 0x134 }
  - { offset: 0x6B9F1, size: 0x8, addend: 0x0, symName: __RNvXs1u_NtNtCsc29TF2YcYso_3syn3gen5cloneNtNtBa_4item7ItemModNtNtCsaNl6UpbT7bw_4core5clone5Clone5clone, symObjAddr: 0x19098, symBinAddr: 0x32B60, symSize: 0x1B8 }
  - { offset: 0x6BA25, size: 0x8, addend: 0x0, symName: __RNvXs1v_NtNtCsc29TF2YcYso_3syn3gen5cloneNtNtBa_4item10ItemStaticNtNtCsaNl6UpbT7bw_4core5clone5Clone5clone, symObjAddr: 0x19250, symBinAddr: 0x32D18, symSize: 0x248 }
  - { offset: 0x6BA59, size: 0x8, addend: 0x0, symName: __RNvXs1w_NtNtCsc29TF2YcYso_3syn3gen5cloneNtNtBa_4item10ItemStructNtNtCsaNl6UpbT7bw_4core5clone5Clone5clone, symObjAddr: 0x19498, symBinAddr: 0x32F60, symSize: 0x1DC }
  - { offset: 0x6BA8D, size: 0x8, addend: 0x0, symName: __RNvXs1x_NtNtCsc29TF2YcYso_3syn3gen5cloneNtNtBa_4item9ItemTraitNtNtCsaNl6UpbT7bw_4core5clone5Clone5clone, symObjAddr: 0x19674, symBinAddr: 0x3313C, symSize: 0x288 }
  - { offset: 0x6BAC1, size: 0x8, addend: 0x0, symName: __RNvXs1y_NtNtCsc29TF2YcYso_3syn3gen5cloneNtNtBa_4item14ItemTraitAliasNtNtCsaNl6UpbT7bw_4core5clone5Clone5clone, symObjAddr: 0x198FC, symBinAddr: 0x333C4, symSize: 0x204 }
  - { offset: 0x6BAF5, size: 0x8, addend: 0x0, symName: __RNvXs1z_NtNtCsc29TF2YcYso_3syn3gen5cloneNtNtBa_4item8ItemTypeNtNtCsaNl6UpbT7bw_4core5clone5Clone5clone, symObjAddr: 0x19B00, symBinAddr: 0x335C8, symSize: 0x204 }
  - { offset: 0x6BB29, size: 0x8, addend: 0x0, symName: __RNvXs1A_NtNtCsc29TF2YcYso_3syn3gen5cloneNtNtBa_4item9ItemUnionNtNtCsaNl6UpbT7bw_4core5clone5Clone5clone, symObjAddr: 0x19D04, symBinAddr: 0x337CC, symSize: 0x194 }
  - { offset: 0x6BB5D, size: 0x8, addend: 0x0, symName: __RNvXs1B_NtNtCsc29TF2YcYso_3syn3gen5cloneNtNtBa_4item7ItemUseNtNtCsaNl6UpbT7bw_4core5clone5Clone5clone, symObjAddr: 0x19E98, symBinAddr: 0x33960, symSize: 0x174 }
  - { offset: 0x6BB91, size: 0x8, addend: 0x0, symName: __RNvXs2b_NtNtCsc29TF2YcYso_3syn3gen5cloneNtNtBa_4item8ReceiverNtNtCsaNl6UpbT7bw_4core5clone5Clone5clone, symObjAddr: 0x1A00C, symBinAddr: 0x33AD4, symSize: 0x154 }
  - { offset: 0x6BBC5, size: 0x8, addend: 0x0, symName: __RNvXs2d_NtNtCsc29TF2YcYso_3syn3gen5cloneNtNtBa_4item9SignatureNtNtCsaNl6UpbT7bw_4core5clone5Clone5clone, symObjAddr: 0x1A160, symBinAddr: 0x33C28, symSize: 0x278 }
  - { offset: 0x6BBF9, size: 0x8, addend: 0x0, symName: __RNvXs2e_NtNtCsc29TF2YcYso_3syn3gen5cloneNtNtBa_4item16StaticMutabilityNtNtCsaNl6UpbT7bw_4core5clone5Clone5clone, symObjAddr: 0x1A3D8, symBinAddr: 0x33EA0, symSize: 0x90 }
  - { offset: 0x6BC4B, size: 0x8, addend: 0x0, symName: __RNvXs2k_NtNtCsc29TF2YcYso_3syn3gen5cloneNtNtBa_4item9TraitItemNtNtCsaNl6UpbT7bw_4core5clone5Clone5clone, symObjAddr: 0x1A468, symBinAddr: 0x33F30, symSize: 0x21C }
  - { offset: 0x6BD0D, size: 0x8, addend: 0x0, symName: __RNvXs2l_NtNtCsc29TF2YcYso_3syn3gen5cloneNtNtBa_4item14TraitItemConstNtNtCsaNl6UpbT7bw_4core5clone5Clone5clone, symObjAddr: 0x1A684, symBinAddr: 0x3414C, symSize: 0x218 }
  - { offset: 0x6BD41, size: 0x8, addend: 0x0, symName: __RNvXs2m_NtNtCsc29TF2YcYso_3syn3gen5cloneNtNtBa_4item11TraitItemFnNtNtCsaNl6UpbT7bw_4core5clone5Clone5clone, symObjAddr: 0x1A89C, symBinAddr: 0x34364, symSize: 0x140 }
  - { offset: 0x6BD75, size: 0x8, addend: 0x0, symName: __RNvXs2n_NtNtCsc29TF2YcYso_3syn3gen5cloneNtNtBa_4item14TraitItemMacroNtNtCsaNl6UpbT7bw_4core5clone5Clone5clone, symObjAddr: 0x1A9DC, symBinAddr: 0x344A4, symSize: 0xF4 }
  - { offset: 0x6BDA9, size: 0x8, addend: 0x0, symName: __RNvXs2o_NtNtCsc29TF2YcYso_3syn3gen5cloneNtNtBa_4item13TraitItemTypeNtNtCsaNl6UpbT7bw_4core5clone5Clone5clone, symObjAddr: 0x1AAD0, symBinAddr: 0x34598, symSize: 0x20C }
  - { offset: 0x6BDDD, size: 0x8, addend: 0x0, symName: __RNvXs2I_NtNtCsc29TF2YcYso_3syn3gen5cloneNtNtBa_4item7UseGlobNtNtCsaNl6UpbT7bw_4core5clone5Clone5clone, symObjAddr: 0x1ACDC, symBinAddr: 0x347A4, symSize: 0x4C }
  - { offset: 0x6BE11, size: 0x8, addend: 0x0, symName: __RNvXs2J_NtNtCsc29TF2YcYso_3syn3gen5cloneNtNtBa_4item8UseGroupNtNtCsaNl6UpbT7bw_4core5clone5Clone5clone, symObjAddr: 0x1AD28, symBinAddr: 0x347F0, symSize: 0x70 }
  - { offset: 0x6BE45, size: 0x8, addend: 0x0, symName: __RNvXs2K_NtNtCsc29TF2YcYso_3syn3gen5cloneNtNtBa_4item7UseNameNtNtCsaNl6UpbT7bw_4core5clone5Clone5clone, symObjAddr: 0x1AD98, symBinAddr: 0x34860, symSize: 0x50 }
  - { offset: 0x6BE79, size: 0x8, addend: 0x0, symName: __RNvXs2L_NtNtCsc29TF2YcYso_3syn3gen5cloneNtNtBa_4item7UsePathNtNtCsaNl6UpbT7bw_4core5clone5Clone5clone, symObjAddr: 0x1ADE8, symBinAddr: 0x348B0, symSize: 0xC0 }
  - { offset: 0x6BEAD, size: 0x8, addend: 0x0, symName: __RNvXs2M_NtNtCsc29TF2YcYso_3syn3gen5cloneNtNtBa_4item9UseRenameNtNtCsaNl6UpbT7bw_4core5clone5Clone5clone, symObjAddr: 0x1AEA8, symBinAddr: 0x34970, symSize: 0xB8 }
  - { offset: 0x6BEE1, size: 0x8, addend: 0x0, symName: __RNvXs2N_NtNtCsc29TF2YcYso_3syn3gen5cloneNtNtBa_4item7UseTreeNtNtCsaNl6UpbT7bw_4core5clone5Clone5clone, symObjAddr: 0x1AF60, symBinAddr: 0x34A28, symSize: 0x20C }
  - { offset: 0x6BFA4, size: 0x8, addend: 0x0, symName: __RNvXs2O_NtNtCsc29TF2YcYso_3syn3gen5cloneNtNtBa_4item8VariadicNtNtCsaNl6UpbT7bw_4core5clone5Clone5clone, symObjAddr: 0x1B16C, symBinAddr: 0x34C34, symSize: 0x108 }
  - { offset: 0x6D972, size: 0x8, addend: 0x0, symName: __RINvXNvMNtCsiTraAjBDcu4_5alloc5sliceSp9to_vec_inNtNtCsc29TF2YcYso_3syn4item11ForeignItemNtB3_10ConvertVec6to_vecNtNtB8_5alloc6GlobalEBO_, symObjAddr: 0x0, symBinAddr: 0x21D74, symSize: 0x374 }
  - { offset: 0x6DE27, size: 0x8, addend: 0x0, symName: __RINvXNvMNtCsiTraAjBDcu4_5alloc5sliceSp9to_vec_inNtNtCsc29TF2YcYso_3syn4item4ItemNtB3_10ConvertVec6to_vecNtNtB8_5alloc6GlobalEBO_, symObjAddr: 0x374, symBinAddr: 0x220E8, symSize: 0x374 }
  - { offset: 0x6E2DC, size: 0x8, addend: 0x0, symName: __RINvXNvMNtCsiTraAjBDcu4_5alloc5sliceSp9to_vec_inNtNtCsc29TF2YcYso_3syn4item8ImplItemNtB3_10ConvertVec6to_vecNtNtB8_5alloc6GlobalEBO_, symObjAddr: 0x6E8, symBinAddr: 0x2245C, symSize: 0x374 }
  - { offset: 0x6E791, size: 0x8, addend: 0x0, symName: __RINvXNvMNtCsiTraAjBDcu4_5alloc5sliceSp9to_vec_inNtNtCsc29TF2YcYso_3syn4item9TraitItemNtB3_10ConvertVec6to_vecNtNtB8_5alloc6GlobalEBO_, symObjAddr: 0xA5C, symBinAddr: 0x227D0, symSize: 0x374 }
  - { offset: 0x6EC46, size: 0x8, addend: 0x0, symName: __RINvXNvMNtCsiTraAjBDcu4_5alloc5sliceSp9to_vec_inTNtNtCsc29TF2YcYso_3syn4item5FnArgNtNtBP_5token5CommaENtB3_10ConvertVec6to_vecNtNtB8_5alloc6GlobalEBP_, symObjAddr: 0xDD0, symBinAddr: 0x22B44, symSize: 0x370 }
  - { offset: 0x6F0FB, size: 0x8, addend: 0x0, symName: __RINvXNvMNtCsiTraAjBDcu4_5alloc5sliceSp9to_vec_inTNtNtCsc29TF2YcYso_3syn4item7UseTreeNtNtBP_5token5CommaENtB3_10ConvertVec6to_vecNtNtB8_5alloc6GlobalEBP_, symObjAddr: 0x1140, symBinAddr: 0x22EB4, symSize: 0x370 }
  - { offset: 0x7365E, size: 0x8, addend: 0x0, symName: __RNvMNtCsaNl6UpbT7bw_4core5sliceSTNtNtCsc29TF2YcYso_3syn4item5FnArgNtNtBz_5token5CommaE4iterBz_, symObjAddr: 0x14B0, symBinAddr: 0x23224, symSize: 0x28 }
  - { offset: 0x73695, size: 0x8, addend: 0x0, symName: __RNvMNtCsaNl6UpbT7bw_4core5sliceSTNtNtCsc29TF2YcYso_3syn4item7UseTreeNtNtBz_5token5CommaE4iterBz_, symObjAddr: 0x14D8, symBinAddr: 0x2324C, symSize: 0x28 }
  - { offset: 0x73D85, size: 0x8, addend: 0x0, symName: __RNvXNtNtCsaNl6UpbT7bw_4core5clone6uninitNtNtCsc29TF2YcYso_3syn4item5FnArgNtB2_8CopySpec9clone_oneBG_, symObjAddr: 0x1680, symBinAddr: 0x233F4, symSize: 0x48 }
  - { offset: 0x73DE9, size: 0x8, addend: 0x0, symName: __RNvXNtNtCsaNl6UpbT7bw_4core5clone6uninitNtNtCsc29TF2YcYso_3syn4item7UseTreeNtB2_8CopySpec9clone_oneBG_, symObjAddr: 0x16C8, symBinAddr: 0x2343C, symSize: 0x48 }
  - { offset: 0x765D5, size: 0x8, addend: 0x0, symName: __RNvXNtCs4EAaWzSXu1l_5quote9to_tokensRNtNtCsc29TF2YcYso_3syn4item11ForeignItemNtB2_8ToTokens9to_tokensBD_, symObjAddr: 0x1500, symBinAddr: 0x23274, symSize: 0x40 }
  - { offset: 0x76614, size: 0x8, addend: 0x0, symName: __RNvXNtCs4EAaWzSXu1l_5quote9to_tokensRNtNtCsc29TF2YcYso_3syn4item4ItemNtB2_8ToTokens9to_tokensBD_, symObjAddr: 0x1540, symBinAddr: 0x232B4, symSize: 0x40 }
  - { offset: 0x76653, size: 0x8, addend: 0x0, symName: __RNvXNtCs4EAaWzSXu1l_5quote9to_tokensRNtNtCsc29TF2YcYso_3syn4item5FnArgNtB2_8ToTokens9to_tokensBD_, symObjAddr: 0x1580, symBinAddr: 0x232F4, symSize: 0x40 }
  - { offset: 0x76692, size: 0x8, addend: 0x0, symName: __RNvXNtCs4EAaWzSXu1l_5quote9to_tokensRNtNtCsc29TF2YcYso_3syn4item7UseTreeNtB2_8ToTokens9to_tokensBD_, symObjAddr: 0x15C0, symBinAddr: 0x23334, symSize: 0x40 }
  - { offset: 0x766D1, size: 0x8, addend: 0x0, symName: __RNvXNtCs4EAaWzSXu1l_5quote9to_tokensRNtNtCsc29TF2YcYso_3syn4item8ImplItemNtB2_8ToTokens9to_tokensBD_, symObjAddr: 0x1600, symBinAddr: 0x23374, symSize: 0x40 }
  - { offset: 0x76710, size: 0x8, addend: 0x0, symName: __RNvXNtCs4EAaWzSXu1l_5quote9to_tokensRNtNtCsc29TF2YcYso_3syn4item9TraitItemNtB2_8ToTokens9to_tokensBD_, symObjAddr: 0x1640, symBinAddr: 0x233B4, symSize: 0x40 }
  - { offset: 0x7676C, size: 0x8, addend: 0x0, symName: __RNvMNtCsc29TF2YcYso_3syn4itemNtB2_4Item13replace_attrs, symObjAddr: 0x2CE8, symBinAddr: 0x23484, symSize: 0x328 }
  - { offset: 0x76D43, size: 0x8, addend: 0x0, symName: __RINvMs_NtCsiTraAjBDcu4_5alloc3vecINtB5_3VecReE10retain_mutNCNvMNtCsc29TF2YcYso_3syn9lookaheadNtBZ_10Lookahead15error0EB11_, symObjAddr: 0x0, symBinAddr: 0x34D3C, symSize: 0xE4 }
  - { offset: 0x7F11C, size: 0x8, addend: 0x0, symName: __RNvXs1_NtCsaNl6UpbT7bw_4core7convertINtNtCsiTraAjBDcu4_5alloc3vec3VechEINtB5_4IntoBy_E4intoCsc29TF2YcYso_3syn, symObjAddr: 0x6F84, symBinAddr: 0x3969C, symSize: 0x18 }
  - { offset: 0x7F359, size: 0x8, addend: 0x0, symName: __RINvNvMs_NtCsiTraAjBDcu4_5alloc3vecINtB7_3VecppE10retain_mut12process_loopNCNvMNtCsc29TF2YcYso_3syn9lookaheadNtB1f_10Lookahead15error0ReNtNtB9_5alloc6GlobalKb0_EB1h_, symObjAddr: 0xC48, symBinAddr: 0x35310, symSize: 0xCC }
  - { offset: 0x7F4AD, size: 0x8, addend: 0x0, symName: __RINvNvMs_NtCsiTraAjBDcu4_5alloc3vecINtB7_3VecppE10retain_mut12process_loopNCNvMNtCsc29TF2YcYso_3syn9lookaheadNtB1f_10Lookahead15error0ReNtNtB9_5alloc6GlobalKb1_EB1h_, symObjAddr: 0xD14, symBinAddr: 0x353DC, symSize: 0x170 }
  - { offset: 0x7F6A3, size: 0x8, addend: 0x0, symName: __RNvXNvMs_NtCsiTraAjBDcu4_5alloc3vecINtB7_3VecppE10retain_mutINtB2_15BackshiftOnDropReNtNtB9_5alloc6GlobalENtNtNtCsaNl6UpbT7bw_4core3ops4drop4Drop4dropCsc29TF2YcYso_3syn, symObjAddr: 0x6B78, symBinAddr: 0x39358, symSize: 0x12C }
  - { offset: 0x82112, size: 0x8, addend: 0x0, symName: __RINvXsh_NtCsiTraAjBDcu4_5alloc3vecINtB6_3VecNtCshnvkK9b4wzu_11proc_macro29TokenTreeEINtNtNtNtCsaNl6UpbT7bw_4core4iter6traits7collect6ExtendBG_E6extendINtNtNtB1r_8adapters7flatten7FlattenINtNtB2t_3map3MapIB2Z_IB2Z_INtNtNtB1t_5slice4iter4IterNtNtCsc29TF2YcYso_3syn5error12ErrorMessageENvMs_B3S_B3Q_16to_compile_errorENCINvXs7_BI_NtBI_11TokenStreamINtB1n_12FromIteratorB5f_E9from_iterB3k_E0ENCINvXs6_NtBI_3impNtB6n_11TokenStreamIB5y_B6w_E9from_iterB3f_Es_0EEEB3U_, symObjAddr: 0xEC0, symBinAddr: 0x3554C, symSize: 0x48 }
  - { offset: 0x82167, size: 0x8, addend: 0x0, symName: __RINvXsh_NtCsiTraAjBDcu4_5alloc3vecINtB6_3VecNtNtCsc29TF2YcYso_3syn4attr9AttributeEINtNtNtNtCsaNl6UpbT7bw_4core4iter6traits7collect6ExtendBG_E6extendBw_EBK_, symObjAddr: 0xF08, symBinAddr: 0x35594, symSize: 0x48 }
  - { offset: 0x821BC, size: 0x8, addend: 0x0, symName: __RINvXsh_NtCsiTraAjBDcu4_5alloc3vecINtB6_3VecNtNtCsc29TF2YcYso_3syn8generics14TypeParamBoundEINtNtNtNtCsaNl6UpbT7bw_4core4iter6traits7collect6ExtendBG_E6extendINtNtB1B_6option6OptionBG_EEBK_, symObjAddr: 0x1078, symBinAddr: 0x355DC, symSize: 0x48 }
  - { offset: 0x82211, size: 0x8, addend: 0x0, symName: __RINvXsh_NtCsiTraAjBDcu4_5alloc3vecINtB6_3VecNtNtCsc29TF2YcYso_3syn8generics14TypeParamBoundEINtNtNtNtCsaNl6UpbT7bw_4core4iter6traits7collect6ExtendBG_E6extendINtNtNtB1z_8adapters3map3MapINtNtB6_9into_iter8IntoIterTBG_NtNtBK_5token4PlusEENCNvXs8_NtBK_10punctuatedINtB3V_10PunctuatedBG_B3t_ENtB1v_12IntoIterator9into_iter0EEBK_, symObjAddr: 0x10C0, symBinAddr: 0x35624, symSize: 0x48 }
  - { offset: 0x82271, size: 0x8, addend: 0x0, symName: __RNCINvMsi_NtCsiTraAjBDcu4_5alloc3vecINtB8_3VecNtNtCsc29TF2YcYso_3syn8generics14TypeParamBoundE14extend_trustedINtNtCsaNl6UpbT7bw_4core6option8IntoIterBI_EE0BM_, symObjAddr: 0x1204, symBinAddr: 0x3566C, symSize: 0x54 }
  - { offset: 0x8232F, size: 0x8, addend: 0x0, symName: __RNCINvMsi_NtCsiTraAjBDcu4_5alloc3vecINtB8_3VecNtNtCsc29TF2YcYso_3syn8generics14TypeParamBoundE14extend_trustedINtNtNtNtCsaNl6UpbT7bw_4core4iter8adapters3map3MapINtNtB8_9into_iter8IntoIterTBI_NtNtBM_5token4PlusEENCNvXs8_NtBM_10punctuatedINtB3v_10PunctuatedBI_B33_ENtNtNtB1R_6traits7collect12IntoIterator9into_iter0EE0BM_, symObjAddr: 0x1258, symBinAddr: 0x356C0, symSize: 0x54 }
  - { offset: 0x8282F, size: 0x8, addend: 0x0, symName: __RNvXs6_NtCsiTraAjBDcu4_5alloc3vecINtB5_3VecNtNtCsc29TF2YcYso_3syn4attr9AttributeENtNtNtCsaNl6UpbT7bw_4core3ops5deref5Deref5derefBJ_, symObjAddr: 0x6F9C, symBinAddr: 0x396B4, symSize: 0x24 }
  - { offset: 0x8286F, size: 0x8, addend: 0x0, symName: __RNvXs6_NtCsiTraAjBDcu4_5alloc3vecINtB5_3VecNtNtCsc29TF2YcYso_3syn4expr3ArmENtNtNtCsaNl6UpbT7bw_4core3ops5deref5Deref5derefBJ_, symObjAddr: 0x6FC0, symBinAddr: 0x396D8, symSize: 0x24 }
  - { offset: 0x828AF, size: 0x8, addend: 0x0, symName: __RNvXs6_NtCsiTraAjBDcu4_5alloc3vecINtB5_3VecNtNtCsc29TF2YcYso_3syn5error12ErrorMessageENtNtNtCsaNl6UpbT7bw_4core3ops5deref5Deref5derefBJ_, symObjAddr: 0x6FE4, symBinAddr: 0x396FC, symSize: 0x24 }
  - { offset: 0x828EF, size: 0x8, addend: 0x0, symName: __RNvXs6_NtCsiTraAjBDcu4_5alloc3vecINtB5_3VecReENtNtNtCsaNl6UpbT7bw_4core3ops5deref5Deref5derefCsc29TF2YcYso_3syn, symObjAddr: 0x7008, symBinAddr: 0x39720, symSize: 0x24 }
  - { offset: 0x8292F, size: 0x8, addend: 0x0, symName: __RNvXs6_NtCsiTraAjBDcu4_5alloc3vecINtB5_3VecTNtNtCsc29TF2YcYso_3syn2ty4TypeNtNtBK_5token5CommaEENtNtNtCsaNl6UpbT7bw_4core3ops5deref5Deref5derefBK_, symObjAddr: 0x702C, symBinAddr: 0x39744, symSize: 0x24 }
  - { offset: 0x8296F, size: 0x8, addend: 0x0, symName: __RNvXs6_NtCsiTraAjBDcu4_5alloc3vecINtB5_3VecTNtNtCsc29TF2YcYso_3syn2ty9BareFnArgNtNtBK_5token5CommaEENtNtNtCsaNl6UpbT7bw_4core3ops5deref5Deref5derefBK_, symObjAddr: 0x7050, symBinAddr: 0x39768, symSize: 0x24 }
  - { offset: 0x829AF, size: 0x8, addend: 0x0, symName: __RNvXs6_NtCsiTraAjBDcu4_5alloc3vecINtB5_3VecTNtNtCsc29TF2YcYso_3syn3pat3PatNtNtBK_5token2OrEENtNtNtCsaNl6UpbT7bw_4core3ops5deref5Deref5derefBK_, symObjAddr: 0x7074, symBinAddr: 0x3978C, symSize: 0x24 }
  - { offset: 0x829EF, size: 0x8, addend: 0x0, symName: __RNvXs6_NtCsiTraAjBDcu4_5alloc3vecINtB5_3VecTNtNtCsc29TF2YcYso_3syn3pat3PatNtNtBK_5token5CommaEENtNtNtCsaNl6UpbT7bw_4core3ops5deref5Deref5derefBK_, symObjAddr: 0x7098, symBinAddr: 0x397B0, symSize: 0x24 }
  - { offset: 0x82A2F, size: 0x8, addend: 0x0, symName: __RNvXs6_NtCsiTraAjBDcu4_5alloc3vecINtB5_3VecTNtNtCsc29TF2YcYso_3syn3pat8FieldPatNtNtBK_5token5CommaEENtNtNtCsaNl6UpbT7bw_4core3ops5deref5Deref5derefBK_, symObjAddr: 0x70BC, symBinAddr: 0x397D4, symSize: 0x24 }
  - { offset: 0x82A6F, size: 0x8, addend: 0x0, symName: __RNvXs6_NtCsiTraAjBDcu4_5alloc3vecINtB5_3VecTNtNtCsc29TF2YcYso_3syn4data5FieldNtNtBK_5token5CommaEENtNtNtCsaNl6UpbT7bw_4core3ops5deref5Deref5derefBK_, symObjAddr: 0x70E0, symBinAddr: 0x397F8, symSize: 0x24 }
  - { offset: 0x82AAF, size: 0x8, addend: 0x0, symName: __RNvXs6_NtCsiTraAjBDcu4_5alloc3vecINtB5_3VecTNtNtCsc29TF2YcYso_3syn4data7VariantNtNtBK_5token5CommaEENtNtNtCsaNl6UpbT7bw_4core3ops5deref5Deref5derefBK_, symObjAddr: 0x7104, symBinAddr: 0x3981C, symSize: 0x24 }
  - { offset: 0x82AEF, size: 0x8, addend: 0x0, symName: __RNvXs6_NtCsiTraAjBDcu4_5alloc3vecINtB5_3VecTNtNtCsc29TF2YcYso_3syn4expr10FieldValueNtNtBK_5token5CommaEENtNtNtCsaNl6UpbT7bw_4core3ops5deref5Deref5derefBK_, symObjAddr: 0x7128, symBinAddr: 0x39840, symSize: 0x24 }
  - { offset: 0x82B2F, size: 0x8, addend: 0x0, symName: __RNvXs6_NtCsiTraAjBDcu4_5alloc3vecINtB5_3VecTNtNtCsc29TF2YcYso_3syn4expr4ExprNtNtBK_5token5CommaEENtNtNtCsaNl6UpbT7bw_4core3ops5deref5Deref5derefBK_, symObjAddr: 0x714C, symBinAddr: 0x39864, symSize: 0x24 }
  - { offset: 0x82B6F, size: 0x8, addend: 0x0, symName: __RNvXs6_NtCsiTraAjBDcu4_5alloc3vecINtB5_3VecTNtNtCsc29TF2YcYso_3syn4item5FnArgNtNtBK_5token5CommaEENtNtNtCsaNl6UpbT7bw_4core3ops5deref5Deref5derefBK_, symObjAddr: 0x7170, symBinAddr: 0x39888, symSize: 0x24 }
  - { offset: 0x82BAF, size: 0x8, addend: 0x0, symName: __RNvXs6_NtCsiTraAjBDcu4_5alloc3vecINtB5_3VecTNtNtCsc29TF2YcYso_3syn4item7UseTreeNtNtBK_5token5CommaEENtNtNtCsaNl6UpbT7bw_4core3ops5deref5Deref5derefBK_, symObjAddr: 0x7194, symBinAddr: 0x398AC, symSize: 0x24 }
  - { offset: 0x82BEF, size: 0x8, addend: 0x0, symName: __RNvXs6_NtCsiTraAjBDcu4_5alloc3vecINtB5_3VecTNtNtCsc29TF2YcYso_3syn4path11PathSegmentNtNtBK_5token7PathSepEENtNtNtCsaNl6UpbT7bw_4core3ops5deref5Deref5derefBK_, symObjAddr: 0x71B8, symBinAddr: 0x398D0, symSize: 0x24 }
  - { offset: 0x82C2F, size: 0x8, addend: 0x0, symName: __RNvXs6_NtCsiTraAjBDcu4_5alloc3vecINtB5_3VecTNtNtCsc29TF2YcYso_3syn4path15GenericArgumentNtNtBK_5token5CommaEENtNtNtCsaNl6UpbT7bw_4core3ops5deref5Deref5derefBK_, symObjAddr: 0x71DC, symBinAddr: 0x398F4, symSize: 0x24 }
  - { offset: 0x82C6F, size: 0x8, addend: 0x0, symName: __RNvXs6_NtCsiTraAjBDcu4_5alloc3vecINtB5_3VecTNtNtCsc29TF2YcYso_3syn8generics12GenericParamNtNtBK_5token5CommaEENtNtNtCsaNl6UpbT7bw_4core3ops5deref5Deref5derefBK_, symObjAddr: 0x7200, symBinAddr: 0x39918, symSize: 0x24 }
  - { offset: 0x82CAF, size: 0x8, addend: 0x0, symName: __RNvXs6_NtCsiTraAjBDcu4_5alloc3vecINtB5_3VecTNtNtCsc29TF2YcYso_3syn8generics13CapturedParamNtNtBK_5token5CommaEENtNtNtCsaNl6UpbT7bw_4core3ops5deref5Deref5derefBK_, symObjAddr: 0x7224, symBinAddr: 0x3993C, symSize: 0x24 }
  - { offset: 0x82CEF, size: 0x8, addend: 0x0, symName: __RNvXs6_NtCsiTraAjBDcu4_5alloc3vecINtB5_3VecTNtNtCsc29TF2YcYso_3syn8generics14TypeParamBoundNtNtBK_5token4PlusEENtNtNtCsaNl6UpbT7bw_4core3ops5deref5Deref5derefBK_, symObjAddr: 0x7248, symBinAddr: 0x39960, symSize: 0x24 }
  - { offset: 0x82D2F, size: 0x8, addend: 0x0, symName: __RNvXs6_NtCsiTraAjBDcu4_5alloc3vecINtB5_3VecTNtNtCsc29TF2YcYso_3syn8generics14WherePredicateNtNtBK_5token5CommaEENtNtNtCsaNl6UpbT7bw_4core3ops5deref5Deref5derefBK_, symObjAddr: 0x726C, symBinAddr: 0x39984, symSize: 0x24 }
  - { offset: 0x82D6F, size: 0x8, addend: 0x0, symName: __RNvXs6_NtCsiTraAjBDcu4_5alloc3vecINtB5_3VecTNtNtCsc29TF2YcYso_3syn8lifetime8LifetimeNtNtBK_5token4PlusEENtNtNtCsaNl6UpbT7bw_4core3ops5deref5Deref5derefBK_, symObjAddr: 0x7290, symBinAddr: 0x399A8, symSize: 0x24 }
  - { offset: 0x82DAF, size: 0x8, addend: 0x0, symName: __RNvXs6_NtCsiTraAjBDcu4_5alloc3vecINtB5_3VechENtNtNtCsaNl6UpbT7bw_4core3ops5deref5Deref5derefCsc29TF2YcYso_3syn, symObjAddr: 0x72B4, symBinAddr: 0x399CC, symSize: 0x24 }
  - { offset: 0x83575, size: 0x8, addend: 0x0, symName: __RNvXsb_NtCsiTraAjBDcu4_5alloc3vecINtB5_3VecNtNtCsc29TF2YcYso_3syn5error12ErrorMessageEINtNtNtCsaNl6UpbT7bw_4core3ops5index5IndexjE5indexBJ_, symObjAddr: 0x82B0, symBinAddr: 0x3A914, symSize: 0x8C }
  - { offset: 0x836F7, size: 0x8, addend: 0x0, symName: __RNvXsb_NtCsiTraAjBDcu4_5alloc3vecINtB5_3VecReEINtNtNtCsaNl6UpbT7bw_4core3ops5index5IndexjE5indexCsc29TF2YcYso_3syn, symObjAddr: 0x833C, symBinAddr: 0x3A9A0, symSize: 0x8C }
  - { offset: 0x83879, size: 0x8, addend: 0x0, symName: __RNvXsb_NtCsiTraAjBDcu4_5alloc3vecINtB5_3VecTNtNtCsc29TF2YcYso_3syn3pat3PatNtNtBK_5token5CommaEEINtNtNtCsaNl6UpbT7bw_4core3ops5index5IndexjE5indexBK_, symObjAddr: 0x83C8, symBinAddr: 0x3AA2C, symSize: 0x8C }
  - { offset: 0x839FB, size: 0x8, addend: 0x0, symName: __RNvXsb_NtCsiTraAjBDcu4_5alloc3vecINtB5_3VecTNtNtCsc29TF2YcYso_3syn4path11PathSegmentNtNtBK_5token7PathSepEEINtNtNtCsaNl6UpbT7bw_4core3ops5index5IndexjE5indexBK_, symObjAddr: 0x8454, symBinAddr: 0x3AAB8, symSize: 0x8C }
  - { offset: 0x83B7D, size: 0x8, addend: 0x0, symName: __RNvXsb_NtCsiTraAjBDcu4_5alloc3vecINtB5_3VechEINtNtNtCsaNl6UpbT7bw_4core3ops5index5IndexINtNtBM_5range9RangeFromjEE5indexCsc29TF2YcYso_3syn, symObjAddr: 0x84E0, symBinAddr: 0x3AB44, symSize: 0x88 }
  - { offset: 0x83CFF, size: 0x8, addend: 0x0, symName: __RNvXsb_NtCsiTraAjBDcu4_5alloc3vecINtB5_3VechEINtNtNtCsaNl6UpbT7bw_4core3ops5index5IndexjE5indexCsc29TF2YcYso_3syn, symObjAddr: 0x8568, symBinAddr: 0x3ABCC, symSize: 0x88 }
  - { offset: 0x83E8C, size: 0x8, addend: 0x0, symName: __RNvXNtNtCsiTraAjBDcu4_5alloc3vec11spec_extendINtB4_3VecNtCshnvkK9b4wzu_11proc_macro29TokenTreeEINtB2_10SpecExtendBR_INtNtNtNtCsaNl6UpbT7bw_4core4iter8adapters7flatten7FlattenINtNtB1V_3map3MapIB2N_IB2N_INtNtNtB1Z_5slice4iter4IterNtNtCsc29TF2YcYso_3syn5error12ErrorMessageENvMs_B3G_B3E_16to_compile_errorENCINvXs7_BT_NtBT_11TokenStreamINtNtNtB1X_6traits7collect12FromIteratorB53_E9from_iterB38_E0ENCINvXs6_NtBT_3impNtB6u_11TokenStreamIB5m_B6D_E9from_iterB33_Es_0EEE11spec_extendB3I_, symObjAddr: 0x68EC, symBinAddr: 0x39334, symSize: 0x24 }
  - { offset: 0x83EE4, size: 0x8, addend: 0x0, symName: __RNvXs0_NtNtCsiTraAjBDcu4_5alloc3vec11spec_extendINtB7_3VecNtNtCsc29TF2YcYso_3syn4attr9AttributeEINtB5_10SpecExtendBU_INtNtB7_9into_iter8IntoIterBU_EE11spec_extendBY_, symObjAddr: 0x6E24, symBinAddr: 0x39604, symSize: 0x98 }
  - { offset: 0x83F50, size: 0x8, addend: 0x0, symName: __RNvXs_NtNtCsiTraAjBDcu4_5alloc3vec11spec_extendINtB6_3VecNtNtCsc29TF2YcYso_3syn8generics14TypeParamBoundEINtB4_10SpecExtendBT_INtNtCsaNl6UpbT7bw_4core6option8IntoIterBT_EE11spec_extendBX_, symObjAddr: 0x8268, symBinAddr: 0x3A8CC, symSize: 0x24 }
  - { offset: 0x83FA2, size: 0x8, addend: 0x0, symName: __RNvXs_NtNtCsiTraAjBDcu4_5alloc3vec11spec_extendINtB6_3VecNtNtCsc29TF2YcYso_3syn8generics14TypeParamBoundEINtB4_10SpecExtendBT_INtNtNtNtCsaNl6UpbT7bw_4core4iter8adapters3map3MapINtNtB6_9into_iter8IntoIterTBT_NtNtBX_5token4PlusEENCNvXs8_NtBX_10punctuatedINtB3L_10PunctuatedBT_B3j_ENtNtNtB27_6traits7collect12IntoIterator9into_iter0EE11spec_extendBX_, symObjAddr: 0x828C, symBinAddr: 0x3A8F0, symSize: 0x24 }
  - { offset: 0x83FFB, size: 0x8, addend: 0x0, symName: __RNvXs7_NtCsiTraAjBDcu4_5alloc3vecINtB5_3VecTNtNtCsc29TF2YcYso_3syn4path11PathSegmentNtNtBK_5token7PathSepEENtNtNtCsaNl6UpbT7bw_4core3ops5deref8DerefMut9deref_mutBK_, symObjAddr: 0x72FC, symBinAddr: 0x399F0, symSize: 0x24 }
  - { offset: 0x840D1, size: 0x8, addend: 0x0, symName: __RNvXs9_NtCsiTraAjBDcu4_5alloc3vecINtB5_3VecNtNtCsc29TF2YcYso_3syn4attr9AttributeENtNtCsaNl6UpbT7bw_4core5clone5Clone5cloneBJ_, symObjAddr: 0x7344, symBinAddr: 0x39A14, symSize: 0x90 }
  - { offset: 0x842A2, size: 0x8, addend: 0x0, symName: __RNvXs9_NtCsiTraAjBDcu4_5alloc3vecINtB5_3VecNtNtCsc29TF2YcYso_3syn4expr3ArmENtNtCsaNl6UpbT7bw_4core5clone5Clone5cloneBJ_, symObjAddr: 0x73D4, symBinAddr: 0x39AA4, symSize: 0x90 }
  - { offset: 0x84473, size: 0x8, addend: 0x0, symName: __RNvXs9_NtCsiTraAjBDcu4_5alloc3vecINtB5_3VecNtNtCsc29TF2YcYso_3syn4item11ForeignItemENtNtCsaNl6UpbT7bw_4core5clone5Clone5cloneBJ_, symObjAddr: 0x7464, symBinAddr: 0x39B34, symSize: 0x90 }
  - { offset: 0x84644, size: 0x8, addend: 0x0, symName: __RNvXs9_NtCsiTraAjBDcu4_5alloc3vecINtB5_3VecNtNtCsc29TF2YcYso_3syn4item4ItemENtNtCsaNl6UpbT7bw_4core5clone5Clone5cloneBJ_, symObjAddr: 0x74F4, symBinAddr: 0x39BC4, symSize: 0x90 }
  - { offset: 0x84815, size: 0x8, addend: 0x0, symName: __RNvXs9_NtCsiTraAjBDcu4_5alloc3vecINtB5_3VecNtNtCsc29TF2YcYso_3syn4item8ImplItemENtNtCsaNl6UpbT7bw_4core5clone5Clone5cloneBJ_, symObjAddr: 0x7584, symBinAddr: 0x39C54, symSize: 0x90 }
  - { offset: 0x849E6, size: 0x8, addend: 0x0, symName: __RNvXs9_NtCsiTraAjBDcu4_5alloc3vecINtB5_3VecNtNtCsc29TF2YcYso_3syn4item9TraitItemENtNtCsaNl6UpbT7bw_4core5clone5Clone5cloneBJ_, symObjAddr: 0x7614, symBinAddr: 0x39CE4, symSize: 0x90 }
  - { offset: 0x84BB7, size: 0x8, addend: 0x0, symName: __RNvXs9_NtCsiTraAjBDcu4_5alloc3vecINtB5_3VecNtNtCsc29TF2YcYso_3syn4stmt4StmtENtNtCsaNl6UpbT7bw_4core5clone5Clone5cloneBJ_, symObjAddr: 0x76A4, symBinAddr: 0x39D74, symSize: 0x90 }
  - { offset: 0x84D88, size: 0x8, addend: 0x0, symName: __RNvXs9_NtCsiTraAjBDcu4_5alloc3vecINtB5_3VecNtNtCsc29TF2YcYso_3syn5error12ErrorMessageENtNtCsaNl6UpbT7bw_4core5clone5Clone5cloneBJ_, symObjAddr: 0x7734, symBinAddr: 0x39E04, symSize: 0x90 }
  - { offset: 0x84F59, size: 0x8, addend: 0x0, symName: __RNvXs9_NtCsiTraAjBDcu4_5alloc3vecINtB5_3VecTNtNtCsc29TF2YcYso_3syn2ty4TypeNtNtBK_5token5CommaEENtNtCsaNl6UpbT7bw_4core5clone5Clone5cloneBK_, symObjAddr: 0x77C4, symBinAddr: 0x39E94, symSize: 0x90 }
  - { offset: 0x8512A, size: 0x8, addend: 0x0, symName: __RNvXs9_NtCsiTraAjBDcu4_5alloc3vecINtB5_3VecTNtNtCsc29TF2YcYso_3syn2ty9BareFnArgNtNtBK_5token5CommaEENtNtCsaNl6UpbT7bw_4core5clone5Clone5cloneBK_, symObjAddr: 0x7854, symBinAddr: 0x39F24, symSize: 0x90 }
  - { offset: 0x852FB, size: 0x8, addend: 0x0, symName: __RNvXs9_NtCsiTraAjBDcu4_5alloc3vecINtB5_3VecTNtNtCsc29TF2YcYso_3syn3pat3PatNtNtBK_5token2OrEENtNtCsaNl6UpbT7bw_4core5clone5Clone5cloneBK_, symObjAddr: 0x78E4, symBinAddr: 0x39FB4, symSize: 0x90 }
  - { offset: 0x854CC, size: 0x8, addend: 0x0, symName: __RNvXs9_NtCsiTraAjBDcu4_5alloc3vecINtB5_3VecTNtNtCsc29TF2YcYso_3syn3pat3PatNtNtBK_5token5CommaEENtNtCsaNl6UpbT7bw_4core5clone5Clone5cloneBK_, symObjAddr: 0x7974, symBinAddr: 0x3A044, symSize: 0x90 }
  - { offset: 0x8569D, size: 0x8, addend: 0x0, symName: __RNvXs9_NtCsiTraAjBDcu4_5alloc3vecINtB5_3VecTNtNtCsc29TF2YcYso_3syn3pat8FieldPatNtNtBK_5token5CommaEENtNtCsaNl6UpbT7bw_4core5clone5Clone5cloneBK_, symObjAddr: 0x7A04, symBinAddr: 0x3A0D4, symSize: 0x90 }
  - { offset: 0x8586E, size: 0x8, addend: 0x0, symName: __RNvXs9_NtCsiTraAjBDcu4_5alloc3vecINtB5_3VecTNtNtCsc29TF2YcYso_3syn4data5FieldNtNtBK_5token5CommaEENtNtCsaNl6UpbT7bw_4core5clone5Clone5cloneBK_, symObjAddr: 0x7A94, symBinAddr: 0x3A164, symSize: 0x90 }
  - { offset: 0x85A3F, size: 0x8, addend: 0x0, symName: __RNvXs9_NtCsiTraAjBDcu4_5alloc3vecINtB5_3VecTNtNtCsc29TF2YcYso_3syn4data7VariantNtNtBK_5token5CommaEENtNtCsaNl6UpbT7bw_4core5clone5Clone5cloneBK_, symObjAddr: 0x7B24, symBinAddr: 0x3A1F4, symSize: 0x90 }
  - { offset: 0x85C10, size: 0x8, addend: 0x0, symName: __RNvXs9_NtCsiTraAjBDcu4_5alloc3vecINtB5_3VecTNtNtCsc29TF2YcYso_3syn4expr10FieldValueNtNtBK_5token5CommaEENtNtCsaNl6UpbT7bw_4core5clone5Clone5cloneBK_, symObjAddr: 0x7BB4, symBinAddr: 0x3A284, symSize: 0x90 }
  - { offset: 0x85DE1, size: 0x8, addend: 0x0, symName: __RNvXs9_NtCsiTraAjBDcu4_5alloc3vecINtB5_3VecTNtNtCsc29TF2YcYso_3syn4expr4ExprNtNtBK_5token5CommaEENtNtCsaNl6UpbT7bw_4core5clone5Clone5cloneBK_, symObjAddr: 0x7C44, symBinAddr: 0x3A314, symSize: 0x90 }
  - { offset: 0x85FB2, size: 0x8, addend: 0x0, symName: __RNvXs9_NtCsiTraAjBDcu4_5alloc3vecINtB5_3VecTNtNtCsc29TF2YcYso_3syn4item5FnArgNtNtBK_5token5CommaEENtNtCsaNl6UpbT7bw_4core5clone5Clone5cloneBK_, symObjAddr: 0x7CD4, symBinAddr: 0x3A3A4, symSize: 0x90 }
  - { offset: 0x86183, size: 0x8, addend: 0x0, symName: __RNvXs9_NtCsiTraAjBDcu4_5alloc3vecINtB5_3VecTNtNtCsc29TF2YcYso_3syn4item7UseTreeNtNtBK_5token5CommaEENtNtCsaNl6UpbT7bw_4core5clone5Clone5cloneBK_, symObjAddr: 0x7D64, symBinAddr: 0x3A434, symSize: 0x90 }
  - { offset: 0x86354, size: 0x8, addend: 0x0, symName: __RNvXs9_NtCsiTraAjBDcu4_5alloc3vecINtB5_3VecTNtNtCsc29TF2YcYso_3syn4path11PathSegmentNtNtBK_5token7PathSepEENtNtCsaNl6UpbT7bw_4core5clone5Clone5cloneBK_, symObjAddr: 0x7DF4, symBinAddr: 0x3A4C4, symSize: 0x90 }
  - { offset: 0x86525, size: 0x8, addend: 0x0, symName: __RNvXs9_NtCsiTraAjBDcu4_5alloc3vecINtB5_3VecTNtNtCsc29TF2YcYso_3syn4path15GenericArgumentNtNtBK_5token5CommaEENtNtCsaNl6UpbT7bw_4core5clone5Clone5cloneBK_, symObjAddr: 0x7E84, symBinAddr: 0x3A554, symSize: 0x90 }
  - { offset: 0x866F6, size: 0x8, addend: 0x0, symName: __RNvXs9_NtCsiTraAjBDcu4_5alloc3vecINtB5_3VecTNtNtCsc29TF2YcYso_3syn8generics12GenericParamNtNtBK_5token5CommaEENtNtCsaNl6UpbT7bw_4core5clone5Clone5cloneBK_, symObjAddr: 0x7F14, symBinAddr: 0x3A5E4, symSize: 0x90 }
  - { offset: 0x868C7, size: 0x8, addend: 0x0, symName: __RNvXs9_NtCsiTraAjBDcu4_5alloc3vecINtB5_3VecTNtNtCsc29TF2YcYso_3syn8generics13CapturedParamNtNtBK_5token5CommaEENtNtCsaNl6UpbT7bw_4core5clone5Clone5cloneBK_, symObjAddr: 0x7FA4, symBinAddr: 0x3A674, symSize: 0x90 }
  - { offset: 0x86A98, size: 0x8, addend: 0x0, symName: __RNvXs9_NtCsiTraAjBDcu4_5alloc3vecINtB5_3VecTNtNtCsc29TF2YcYso_3syn8generics14TypeParamBoundNtNtBK_5token4PlusEENtNtCsaNl6UpbT7bw_4core5clone5Clone5cloneBK_, symObjAddr: 0x8034, symBinAddr: 0x3A704, symSize: 0x90 }
  - { offset: 0x86C69, size: 0x8, addend: 0x0, symName: __RNvXs9_NtCsiTraAjBDcu4_5alloc3vecINtB5_3VecTNtNtCsc29TF2YcYso_3syn8generics14WherePredicateNtNtBK_5token5CommaEENtNtCsaNl6UpbT7bw_4core5clone5Clone5cloneBK_, symObjAddr: 0x80C4, symBinAddr: 0x3A794, symSize: 0x90 }
  - { offset: 0x86E3A, size: 0x8, addend: 0x0, symName: __RNvXs9_NtCsiTraAjBDcu4_5alloc3vecINtB5_3VecTNtNtCsc29TF2YcYso_3syn8lifetime8LifetimeNtNtBK_5token4PlusEENtNtCsaNl6UpbT7bw_4core5clone5Clone5cloneBK_, symObjAddr: 0x8154, symBinAddr: 0x3A824, symSize: 0x90 }
  - { offset: 0x87011, size: 0x8, addend: 0x0, symName: __RNvXsc_NtCsiTraAjBDcu4_5alloc3vecINtB5_3VecNtNtCsc29TF2YcYso_3syn6buffer5EntryEINtNtNtCsaNl6UpbT7bw_4core3ops5index8IndexMutjE9index_mutBJ_, symObjAddr: 0x85F0, symBinAddr: 0x3AC54, symSize: 0x8C }
  - { offset: 0x87165, size: 0x8, addend: 0x0, symName: __RNvXsc_NtCsiTraAjBDcu4_5alloc3vecINtB5_3VechEINtNtNtCsaNl6UpbT7bw_4core3ops5index8IndexMutjE9index_mutCsc29TF2YcYso_3syn, symObjAddr: 0x867C, symBinAddr: 0x3ACE0, symSize: 0x88 }
  - { offset: 0x872BF, size: 0x8, addend: 0x0, symName: __RNvXse_NtCsiTraAjBDcu4_5alloc3vecINtB5_3VecNtNtCsc29TF2YcYso_3syn4attr9AttributeENtNtNtNtCsaNl6UpbT7bw_4core4iter6traits7collect12IntoIterator9into_iterBJ_, symObjAddr: 0x8704, symBinAddr: 0x3AD68, symSize: 0xDC }
  - { offset: 0x87551, size: 0x8, addend: 0x0, symName: __RNvXse_NtCsiTraAjBDcu4_5alloc3vecINtB5_3VecNtNtCsc29TF2YcYso_3syn8generics14TypeParamBoundENtNtNtNtCsaNl6UpbT7bw_4core4iter6traits7collect12IntoIterator9into_iterBJ_, symObjAddr: 0x89A8, symBinAddr: 0x3AE44, symSize: 0xE4 }
  - { offset: 0x877E3, size: 0x8, addend: 0x0, symName: __RNvXse_NtCsiTraAjBDcu4_5alloc3vecINtB5_3VecTNtNtCsc29TF2YcYso_3syn4path11PathSegmentNtNtBK_5token7PathSepEENtNtNtNtCsaNl6UpbT7bw_4core4iter6traits7collect12IntoIterator9into_iterBK_, symObjAddr: 0x8C54, symBinAddr: 0x3AF28, symSize: 0xE4 }
  - { offset: 0x87A75, size: 0x8, addend: 0x0, symName: __RNvXse_NtCsiTraAjBDcu4_5alloc3vecINtB5_3VecTNtNtCsc29TF2YcYso_3syn8generics14TypeParamBoundNtNtBK_5token4PlusEENtNtNtNtCsaNl6UpbT7bw_4core4iter6traits7collect12IntoIterator9into_iterBK_, symObjAddr: 0x8D38, symBinAddr: 0x3B00C, symSize: 0xDC }
  - { offset: 0x87D0D, size: 0x8, addend: 0x0, symName: __RNvXsf_NtCsiTraAjBDcu4_5alloc3vecRINtB5_3VecNtNtCsc29TF2YcYso_3syn4attr9AttributeENtNtNtNtCsaNl6UpbT7bw_4core4iter6traits7collect12IntoIterator9into_iterBK_, symObjAddr: 0x8E14, symBinAddr: 0x3B0E8, symSize: 0xA4 }
  - { offset: 0x87F4B, size: 0x8, addend: 0x0, symName: __RNvXsf_NtCsiTraAjBDcu4_5alloc3vecRINtB5_3VecNtNtCsc29TF2YcYso_3syn4item11ForeignItemENtNtNtNtCsaNl6UpbT7bw_4core4iter6traits7collect12IntoIterator9into_iterBK_, symObjAddr: 0x8EB8, symBinAddr: 0x3B18C, symSize: 0xAC }
  - { offset: 0x88189, size: 0x8, addend: 0x0, symName: __RNvXsf_NtCsiTraAjBDcu4_5alloc3vecRINtB5_3VecNtNtCsc29TF2YcYso_3syn4item4ItemENtNtNtNtCsaNl6UpbT7bw_4core4iter6traits7collect12IntoIterator9into_iterBK_, symObjAddr: 0x8F64, symBinAddr: 0x3B238, symSize: 0xAC }
  - { offset: 0x883C7, size: 0x8, addend: 0x0, symName: __RNvXsf_NtCsiTraAjBDcu4_5alloc3vecRINtB5_3VecNtNtCsc29TF2YcYso_3syn4item8ImplItemENtNtNtNtCsaNl6UpbT7bw_4core4iter6traits7collect12IntoIterator9into_iterBK_, symObjAddr: 0x9010, symBinAddr: 0x3B2E4, symSize: 0xAC }
  - { offset: 0x88605, size: 0x8, addend: 0x0, symName: __RNvXsf_NtCsiTraAjBDcu4_5alloc3vecRINtB5_3VecNtNtCsc29TF2YcYso_3syn4item9TraitItemENtNtNtNtCsaNl6UpbT7bw_4core4iter6traits7collect12IntoIterator9into_iterBK_, symObjAddr: 0x90BC, symBinAddr: 0x3B390, symSize: 0xAC }
  - { offset: 0x88843, size: 0x8, addend: 0x0, symName: __RNvXsf_NtCsiTraAjBDcu4_5alloc3vecRINtB5_3VecNtNtCsc29TF2YcYso_3syn4stmt4StmtENtNtNtNtCsaNl6UpbT7bw_4core4iter6traits7collect12IntoIterator9into_iterBK_, symObjAddr: 0x9168, symBinAddr: 0x3B43C, symSize: 0xAC }
  - { offset: 0x88A87, size: 0x8, addend: 0x0, symName: __RNvXsg_NtCsiTraAjBDcu4_5alloc3vecQINtB5_3VechENtNtNtNtCsaNl6UpbT7bw_4core4iter6traits7collect12IntoIterator9into_iterCsc29TF2YcYso_3syn, symObjAddr: 0x9E24, symBinAddr: 0x3B4E8, symSize: 0xA0 }
  - { offset: 0x88C9D, size: 0x8, addend: 0x0, symName: __RNvXsn_NtCsiTraAjBDcu4_5alloc3vecINtB5_3VecNtNtCsc29TF2YcYso_3syn4attr9AttributeENtNtNtCsaNl6UpbT7bw_4core3ops4drop4Drop4dropBJ_, symObjAddr: 0x9EC4, symBinAddr: 0x3B588, symSize: 0x38 }
  - { offset: 0x88D4D, size: 0x8, addend: 0x0, symName: __RNvXsn_NtCsiTraAjBDcu4_5alloc3vecINtB5_3VecNtNtCsc29TF2YcYso_3syn4expr3ArmENtNtNtCsaNl6UpbT7bw_4core3ops4drop4Drop4dropBJ_, symObjAddr: 0x9F34, symBinAddr: 0x3B5C0, symSize: 0x38 }
  - { offset: 0x88DFD, size: 0x8, addend: 0x0, symName: __RNvXsn_NtCsiTraAjBDcu4_5alloc3vecINtB5_3VecNtNtCsc29TF2YcYso_3syn4expr6ExprIfENtNtNtCsaNl6UpbT7bw_4core3ops4drop4Drop4dropBJ_, symObjAddr: 0x9F6C, symBinAddr: 0x3B5F8, symSize: 0x38 }
  - { offset: 0x88EAD, size: 0x8, addend: 0x0, symName: __RNvXsn_NtCsiTraAjBDcu4_5alloc3vecINtB5_3VecNtNtCsc29TF2YcYso_3syn4item11ForeignItemENtNtNtCsaNl6UpbT7bw_4core3ops4drop4Drop4dropBJ_, symObjAddr: 0x9FA4, symBinAddr: 0x3B630, symSize: 0x38 }
  - { offset: 0x88F5D, size: 0x8, addend: 0x0, symName: __RNvXsn_NtCsiTraAjBDcu4_5alloc3vecINtB5_3VecNtNtCsc29TF2YcYso_3syn4item4ItemENtNtNtCsaNl6UpbT7bw_4core3ops4drop4Drop4dropBJ_, symObjAddr: 0x9FDC, symBinAddr: 0x3B668, symSize: 0x38 }
  - { offset: 0x8900D, size: 0x8, addend: 0x0, symName: __RNvXsn_NtCsiTraAjBDcu4_5alloc3vecINtB5_3VecNtNtCsc29TF2YcYso_3syn4item8ImplItemENtNtNtCsaNl6UpbT7bw_4core3ops4drop4Drop4dropBJ_, symObjAddr: 0xA014, symBinAddr: 0x3B6A0, symSize: 0x38 }
  - { offset: 0x890BD, size: 0x8, addend: 0x0, symName: __RNvXsn_NtCsiTraAjBDcu4_5alloc3vecINtB5_3VecNtNtCsc29TF2YcYso_3syn4item9TraitItemENtNtNtCsaNl6UpbT7bw_4core3ops4drop4Drop4dropBJ_, symObjAddr: 0xA04C, symBinAddr: 0x3B6D8, symSize: 0x38 }
  - { offset: 0x8916D, size: 0x8, addend: 0x0, symName: __RNvXsn_NtCsiTraAjBDcu4_5alloc3vecINtB5_3VecNtNtCsc29TF2YcYso_3syn4stmt4StmtENtNtNtCsaNl6UpbT7bw_4core3ops4drop4Drop4dropBJ_, symObjAddr: 0xA084, symBinAddr: 0x3B710, symSize: 0x38 }
  - { offset: 0x8921D, size: 0x8, addend: 0x0, symName: __RNvXsn_NtCsiTraAjBDcu4_5alloc3vecINtB5_3VecNtNtCsc29TF2YcYso_3syn5error12ErrorMessageENtNtNtCsaNl6UpbT7bw_4core3ops4drop4Drop4dropBJ_, symObjAddr: 0xA0BC, symBinAddr: 0x3B748, symSize: 0x38 }
  - { offset: 0x892CD, size: 0x8, addend: 0x0, symName: __RNvXsn_NtCsiTraAjBDcu4_5alloc3vecINtB5_3VecNtNtCsc29TF2YcYso_3syn6buffer5EntryENtNtNtCsaNl6UpbT7bw_4core3ops4drop4Drop4dropBJ_, symObjAddr: 0xA0F4, symBinAddr: 0x3B780, symSize: 0x38 }
  - { offset: 0x8937D, size: 0x8, addend: 0x0, symName: __RNvXsn_NtCsiTraAjBDcu4_5alloc3vecINtB5_3VecNtNtCsc29TF2YcYso_3syn8generics14TypeParamBoundENtNtNtCsaNl6UpbT7bw_4core3ops4drop4Drop4dropBJ_, symObjAddr: 0xA12C, symBinAddr: 0x3B7B8, symSize: 0x38 }
  - { offset: 0x8942D, size: 0x8, addend: 0x0, symName: __RNvXsn_NtCsiTraAjBDcu4_5alloc3vecINtB5_3VecReENtNtNtCsaNl6UpbT7bw_4core3ops4drop4Drop4dropCsc29TF2YcYso_3syn, symObjAddr: 0xA164, symBinAddr: 0x3B7F0, symSize: 0x24 }
  - { offset: 0x894DD, size: 0x8, addend: 0x0, symName: __RNvXsn_NtCsiTraAjBDcu4_5alloc3vecINtB5_3VecTNtNtCsc29TF2YcYso_3syn2ty4TypeNtNtBK_5token5CommaEENtNtNtCsaNl6UpbT7bw_4core3ops4drop4Drop4dropBK_, symObjAddr: 0xA188, symBinAddr: 0x3B814, symSize: 0x38 }
  - { offset: 0x8958D, size: 0x8, addend: 0x0, symName: __RNvXsn_NtCsiTraAjBDcu4_5alloc3vecINtB5_3VecTNtNtCsc29TF2YcYso_3syn2ty9BareFnArgNtNtBK_5token5CommaEENtNtNtCsaNl6UpbT7bw_4core3ops4drop4Drop4dropBK_, symObjAddr: 0xA1C0, symBinAddr: 0x3B84C, symSize: 0x38 }
  - { offset: 0x8963D, size: 0x8, addend: 0x0, symName: __RNvXsn_NtCsiTraAjBDcu4_5alloc3vecINtB5_3VecTNtNtCsc29TF2YcYso_3syn3pat3PatNtNtBK_5token2OrEENtNtNtCsaNl6UpbT7bw_4core3ops4drop4Drop4dropBK_, symObjAddr: 0xA1F8, symBinAddr: 0x3B884, symSize: 0x38 }
  - { offset: 0x896ED, size: 0x8, addend: 0x0, symName: __RNvXsn_NtCsiTraAjBDcu4_5alloc3vecINtB5_3VecTNtNtCsc29TF2YcYso_3syn3pat3PatNtNtBK_5token5CommaEENtNtNtCsaNl6UpbT7bw_4core3ops4drop4Drop4dropBK_, symObjAddr: 0xA230, symBinAddr: 0x3B8BC, symSize: 0x38 }
  - { offset: 0x8979D, size: 0x8, addend: 0x0, symName: __RNvXsn_NtCsiTraAjBDcu4_5alloc3vecINtB5_3VecTNtNtCsc29TF2YcYso_3syn3pat8FieldPatNtNtBK_5token5CommaEENtNtNtCsaNl6UpbT7bw_4core3ops4drop4Drop4dropBK_, symObjAddr: 0xA268, symBinAddr: 0x3B8F4, symSize: 0x38 }
  - { offset: 0x8984D, size: 0x8, addend: 0x0, symName: __RNvXsn_NtCsiTraAjBDcu4_5alloc3vecINtB5_3VecTNtNtCsc29TF2YcYso_3syn4data5FieldNtNtBK_5token5CommaEENtNtNtCsaNl6UpbT7bw_4core3ops4drop4Drop4dropBK_, symObjAddr: 0xA2A0, symBinAddr: 0x3B92C, symSize: 0x38 }
  - { offset: 0x898FD, size: 0x8, addend: 0x0, symName: __RNvXsn_NtCsiTraAjBDcu4_5alloc3vecINtB5_3VecTNtNtCsc29TF2YcYso_3syn4data7VariantNtNtBK_5token5CommaEENtNtNtCsaNl6UpbT7bw_4core3ops4drop4Drop4dropBK_, symObjAddr: 0xA310, symBinAddr: 0x3B964, symSize: 0x38 }
  - { offset: 0x899AD, size: 0x8, addend: 0x0, symName: __RNvXsn_NtCsiTraAjBDcu4_5alloc3vecINtB5_3VecTNtNtCsc29TF2YcYso_3syn4expr10FieldValueNtNtBK_5token5CommaEENtNtNtCsaNl6UpbT7bw_4core3ops4drop4Drop4dropBK_, symObjAddr: 0xA348, symBinAddr: 0x3B99C, symSize: 0x38 }
  - { offset: 0x89A5D, size: 0x8, addend: 0x0, symName: __RNvXsn_NtCsiTraAjBDcu4_5alloc3vecINtB5_3VecTNtNtCsc29TF2YcYso_3syn4expr4ExprNtNtBK_5token5CommaEENtNtNtCsaNl6UpbT7bw_4core3ops4drop4Drop4dropBK_, symObjAddr: 0xA380, symBinAddr: 0x3B9D4, symSize: 0x38 }
  - { offset: 0x89B0D, size: 0x8, addend: 0x0, symName: __RNvXsn_NtCsiTraAjBDcu4_5alloc3vecINtB5_3VecTNtNtCsc29TF2YcYso_3syn4item5FnArgNtNtBK_5token5CommaEENtNtNtCsaNl6UpbT7bw_4core3ops4drop4Drop4dropBK_, symObjAddr: 0xA3B8, symBinAddr: 0x3BA0C, symSize: 0x38 }
  - { offset: 0x89BBD, size: 0x8, addend: 0x0, symName: __RNvXsn_NtCsiTraAjBDcu4_5alloc3vecINtB5_3VecTNtNtCsc29TF2YcYso_3syn4item7UseTreeNtNtBK_5token5CommaEENtNtNtCsaNl6UpbT7bw_4core3ops4drop4Drop4dropBK_, symObjAddr: 0xA3F0, symBinAddr: 0x3BA44, symSize: 0x38 }
  - { offset: 0x89C6D, size: 0x8, addend: 0x0, symName: __RNvXsn_NtCsiTraAjBDcu4_5alloc3vecINtB5_3VecTNtNtCsc29TF2YcYso_3syn4path11PathSegmentNtNtBK_5token7PathSepEENtNtNtCsaNl6UpbT7bw_4core3ops4drop4Drop4dropBK_, symObjAddr: 0xA428, symBinAddr: 0x3BA7C, symSize: 0x38 }
  - { offset: 0x89D1D, size: 0x8, addend: 0x0, symName: __RNvXsn_NtCsiTraAjBDcu4_5alloc3vecINtB5_3VecTNtNtCsc29TF2YcYso_3syn4path15GenericArgumentNtNtBK_5token5CommaEENtNtNtCsaNl6UpbT7bw_4core3ops4drop4Drop4dropBK_, symObjAddr: 0xA460, symBinAddr: 0x3BAB4, symSize: 0x38 }
  - { offset: 0x89DCD, size: 0x8, addend: 0x0, symName: __RNvXsn_NtCsiTraAjBDcu4_5alloc3vecINtB5_3VecTNtNtCsc29TF2YcYso_3syn8generics12GenericParamNtNtBK_5token5CommaEENtNtNtCsaNl6UpbT7bw_4core3ops4drop4Drop4dropBK_, symObjAddr: 0xA498, symBinAddr: 0x3BAEC, symSize: 0x38 }
  - { offset: 0x89E7D, size: 0x8, addend: 0x0, symName: __RNvXsn_NtCsiTraAjBDcu4_5alloc3vecINtB5_3VecTNtNtCsc29TF2YcYso_3syn8generics13CapturedParamNtNtBK_5token5CommaEENtNtNtCsaNl6UpbT7bw_4core3ops4drop4Drop4dropBK_, symObjAddr: 0xA4D0, symBinAddr: 0x3BB24, symSize: 0x38 }
  - { offset: 0x89F2D, size: 0x8, addend: 0x0, symName: __RNvXsn_NtCsiTraAjBDcu4_5alloc3vecINtB5_3VecTNtNtCsc29TF2YcYso_3syn8generics14TypeParamBoundNtNtBK_5token4PlusEENtNtNtCsaNl6UpbT7bw_4core3ops4drop4Drop4dropBK_, symObjAddr: 0xA508, symBinAddr: 0x3BB5C, symSize: 0x38 }
  - { offset: 0x89FDD, size: 0x8, addend: 0x0, symName: __RNvXsn_NtCsiTraAjBDcu4_5alloc3vecINtB5_3VecTNtNtCsc29TF2YcYso_3syn8generics14WherePredicateNtNtBK_5token5CommaEENtNtNtCsaNl6UpbT7bw_4core3ops4drop4Drop4dropBK_, symObjAddr: 0xA540, symBinAddr: 0x3BB94, symSize: 0x38 }
  - { offset: 0x8A08D, size: 0x8, addend: 0x0, symName: __RNvXsn_NtCsiTraAjBDcu4_5alloc3vecINtB5_3VecTNtNtCsc29TF2YcYso_3syn8lifetime8LifetimeNtNtBK_5token4PlusEENtNtNtCsaNl6UpbT7bw_4core3ops4drop4Drop4dropBK_, symObjAddr: 0xA578, symBinAddr: 0x3BBCC, symSize: 0x38 }
  - { offset: 0x8A143, size: 0x8, addend: 0x0, symName: __RNvXsp_NtCsiTraAjBDcu4_5alloc3vecINtB5_3VecNtNtCsc29TF2YcYso_3syn5error12ErrorMessageENtNtCsaNl6UpbT7bw_4core3fmt5Debug3fmtBJ_, symObjAddr: 0xA914, symBinAddr: 0x3BC04, symSize: 0x7C }
  - { offset: 0x8A253, size: 0x8, addend: 0x0, symName: __RNvXsp_NtCsiTraAjBDcu4_5alloc3vecINtB5_3VechENtNtCsaNl6UpbT7bw_4core3fmt5Debug3fmtCsc29TF2YcYso_3syn, symObjAddr: 0xA990, symBinAddr: 0x3BC80, symSize: 0x78 }
  - { offset: 0x8C781, size: 0x8, addend: 0x0, symName: __RNvXsT_NtCsiTraAjBDcu4_5alloc6stringINtNtB7_3vec3VechEINtNtCsaNl6UpbT7bw_4core7convert4FromNtB5_6StringE4fromCsc29TF2YcYso_3syn, symObjAddr: 0x81E4, symBinAddr: 0x3A8B4, symSize: 0x18 }
  - { offset: 0x8C9D6, size: 0x8, addend: 0x0, symName: __RNvXNvMs_NtNtCsiTraAjBDcu4_5alloc3ffi5c_strNtB7_7CString3newINtNtBb_3vec3VechENtB2_11SpecNewImpl13spec_new_implCsc29TF2YcYso_3syn, symObjAddr: 0x6CA4, symBinAddr: 0x39484, symSize: 0x180 }
  - { offset: 0x9207D, size: 0x8, addend: 0x0, symName: __RINvMs_NtCsiTraAjBDcu4_5alloc3vecINtB5_3VecReE10retain_mutNCNvMNtCsc29TF2YcYso_3syn9lookaheadNtBZ_10Lookahead15error0EB11_, symObjAddr: 0x0, symBinAddr: 0x34D3C, symSize: 0xE4 }
  - { offset: 0x92377, size: 0x8, addend: 0x0, symName: __RINvMsi_NtCsiTraAjBDcu4_5alloc3vecINtB6_3VecNtCshnvkK9b4wzu_11proc_macro29TokenTreeE16extend_desugaredINtNtNtNtCsaNl6UpbT7bw_4core4iter8adapters7flatten7FlattenINtNtB1H_3map3MapIB2z_IB2z_INtNtNtB1L_5slice4iter4IterNtNtCsc29TF2YcYso_3syn5error12ErrorMessageENvMs_B3s_B3q_16to_compile_errorENCINvXs7_BI_NtBI_11TokenStreamINtNtNtB1J_6traits7collect12FromIteratorB4P_E9from_iterB2U_E0ENCINvXs6_NtBI_3impNtB6g_11TokenStreamIB58_B6p_E9from_iterB2P_Es_0EEEB3u_, symObjAddr: 0xE4, symBinAddr: 0x34E20, symSize: 0x1D0 }
  - { offset: 0x92D1D, size: 0x8, addend: 0x0, symName: __RINvMsi_NtCsiTraAjBDcu4_5alloc3vecINtB6_3VecNtNtCsc29TF2YcYso_3syn8generics14TypeParamBoundE14extend_trustedINtNtCsaNl6UpbT7bw_4core6option8IntoIterBG_EEBK_, symObjAddr: 0x928, symBinAddr: 0x34FF0, symSize: 0x19C }
  - { offset: 0x92FE1, size: 0x8, addend: 0x0, symName: __RINvMsi_NtCsiTraAjBDcu4_5alloc3vecINtB6_3VecNtNtCsc29TF2YcYso_3syn8generics14TypeParamBoundE14extend_trustedINtNtNtNtCsaNl6UpbT7bw_4core4iter8adapters3map3MapINtNtB6_9into_iter8IntoIterTBG_NtNtBK_5token4PlusEENCNvXs8_NtBK_10punctuatedINtB3t_10PunctuatedBG_B31_ENtNtNtB1P_6traits7collect12IntoIterator9into_iter0EEBK_, symObjAddr: 0xAC4, symBinAddr: 0x3518C, symSize: 0x184 }
  - { offset: 0x9333A, size: 0x8, addend: 0x0, symName: __RNvMNtCsiTraAjBDcu4_5alloc3vecINtB2_3VecNtNtCsc29TF2YcYso_3syn4attr9AttributeE3newBG_, symObjAddr: 0x12AC, symBinAddr: 0x35714, symSize: 0x14 }
  - { offset: 0x93357, size: 0x8, addend: 0x0, symName: __RNvMNtCsiTraAjBDcu4_5alloc3vecINtB2_3VecNtNtCsc29TF2YcYso_3syn4expr3ArmE3newBG_, symObjAddr: 0x1308, symBinAddr: 0x35728, symSize: 0x14 }
  - { offset: 0x93374, size: 0x8, addend: 0x0, symName: __RNvMNtCsiTraAjBDcu4_5alloc3vecINtB2_3VecNtNtCsc29TF2YcYso_3syn4expr6ExprIfE3newBG_, symObjAddr: 0x131C, symBinAddr: 0x3573C, symSize: 0x14 }
  - { offset: 0x93391, size: 0x8, addend: 0x0, symName: __RNvMNtCsiTraAjBDcu4_5alloc3vecINtB2_3VecNtNtCsc29TF2YcYso_3syn4item11ForeignItemE3newBG_, symObjAddr: 0x1330, symBinAddr: 0x35750, symSize: 0x14 }
  - { offset: 0x933AE, size: 0x8, addend: 0x0, symName: __RNvMNtCsiTraAjBDcu4_5alloc3vecINtB2_3VecNtNtCsc29TF2YcYso_3syn4item4ItemE3newBG_, symObjAddr: 0x1344, symBinAddr: 0x35764, symSize: 0x14 }
  - { offset: 0x933CB, size: 0x8, addend: 0x0, symName: __RNvMNtCsiTraAjBDcu4_5alloc3vecINtB2_3VecNtNtCsc29TF2YcYso_3syn4item8ImplItemE3newBG_, symObjAddr: 0x1358, symBinAddr: 0x35778, symSize: 0x14 }
  - { offset: 0x933E8, size: 0x8, addend: 0x0, symName: __RNvMNtCsiTraAjBDcu4_5alloc3vecINtB2_3VecNtNtCsc29TF2YcYso_3syn4item9TraitItemE3newBG_, symObjAddr: 0x136C, symBinAddr: 0x3578C, symSize: 0x14 }
  - { offset: 0x93405, size: 0x8, addend: 0x0, symName: __RNvMNtCsiTraAjBDcu4_5alloc3vecINtB2_3VecNtNtCsc29TF2YcYso_3syn4stmt4StmtE3newBG_, symObjAddr: 0x1380, symBinAddr: 0x357A0, symSize: 0x14 }
  - { offset: 0x93422, size: 0x8, addend: 0x0, symName: __RNvMNtCsiTraAjBDcu4_5alloc3vecINtB2_3VecNtNtCsc29TF2YcYso_3syn6buffer5EntryE3newBG_, symObjAddr: 0x1394, symBinAddr: 0x357B4, symSize: 0x14 }
  - { offset: 0x934A1, size: 0x8, addend: 0x0, symName: __RNvMNtCsiTraAjBDcu4_5alloc3vecINtB2_3VecNtNtCsc29TF2YcYso_3syn8generics14TypeParamBoundE13with_capacityBG_, symObjAddr: 0x13A8, symBinAddr: 0x357C8, symSize: 0x48 }
  - { offset: 0x93519, size: 0x8, addend: 0x0, symName: __RNvMNtCsiTraAjBDcu4_5alloc3vecINtB2_3VecReE3newCsc29TF2YcYso_3syn, symObjAddr: 0x13F0, symBinAddr: 0x35810, symSize: 0x14 }
  - { offset: 0x93536, size: 0x8, addend: 0x0, symName: __RNvMNtCsiTraAjBDcu4_5alloc3vecINtB2_3VecTNtNtCsc29TF2YcYso_3syn2ty4TypeNtNtBH_5token5CommaEE3newBH_, symObjAddr: 0x1404, symBinAddr: 0x35824, symSize: 0x14 }
  - { offset: 0x93553, size: 0x8, addend: 0x0, symName: __RNvMNtCsiTraAjBDcu4_5alloc3vecINtB2_3VecTNtNtCsc29TF2YcYso_3syn2ty9BareFnArgNtNtBH_5token5CommaEE3newBH_, symObjAddr: 0x1418, symBinAddr: 0x35838, symSize: 0x14 }
  - { offset: 0x93570, size: 0x8, addend: 0x0, symName: __RNvMNtCsiTraAjBDcu4_5alloc3vecINtB2_3VecTNtNtCsc29TF2YcYso_3syn3pat3PatNtNtBH_5token2OrEE3newBH_, symObjAddr: 0x142C, symBinAddr: 0x3584C, symSize: 0x14 }
  - { offset: 0x9358D, size: 0x8, addend: 0x0, symName: __RNvMNtCsiTraAjBDcu4_5alloc3vecINtB2_3VecTNtNtCsc29TF2YcYso_3syn3pat3PatNtNtBH_5token5CommaEE3newBH_, symObjAddr: 0x1440, symBinAddr: 0x35860, symSize: 0x14 }
  - { offset: 0x935AA, size: 0x8, addend: 0x0, symName: __RNvMNtCsiTraAjBDcu4_5alloc3vecINtB2_3VecTNtNtCsc29TF2YcYso_3syn3pat8FieldPatNtNtBH_5token5CommaEE3newBH_, symObjAddr: 0x1454, symBinAddr: 0x35874, symSize: 0x14 }
  - { offset: 0x935C7, size: 0x8, addend: 0x0, symName: __RNvMNtCsiTraAjBDcu4_5alloc3vecINtB2_3VecTNtNtCsc29TF2YcYso_3syn4data5FieldNtNtBH_5token5CommaEE3newBH_, symObjAddr: 0x1468, symBinAddr: 0x35888, symSize: 0x14 }
  - { offset: 0x935E4, size: 0x8, addend: 0x0, symName: __RNvMNtCsiTraAjBDcu4_5alloc3vecINtB2_3VecTNtNtCsc29TF2YcYso_3syn4data7VariantNtNtBH_5token5CommaEE3newBH_, symObjAddr: 0x1490, symBinAddr: 0x3589C, symSize: 0x14 }
  - { offset: 0x93601, size: 0x8, addend: 0x0, symName: __RNvMNtCsiTraAjBDcu4_5alloc3vecINtB2_3VecTNtNtCsc29TF2YcYso_3syn4expr10FieldValueNtNtBH_5token5CommaEE3newBH_, symObjAddr: 0x14A4, symBinAddr: 0x358B0, symSize: 0x14 }
  - { offset: 0x9361E, size: 0x8, addend: 0x0, symName: __RNvMNtCsiTraAjBDcu4_5alloc3vecINtB2_3VecTNtNtCsc29TF2YcYso_3syn4expr4ExprNtNtBH_5token5CommaEE3newBH_, symObjAddr: 0x14B8, symBinAddr: 0x358C4, symSize: 0x14 }
  - { offset: 0x9363B, size: 0x8, addend: 0x0, symName: __RNvMNtCsiTraAjBDcu4_5alloc3vecINtB2_3VecTNtNtCsc29TF2YcYso_3syn4item5FnArgNtNtBH_5token5CommaEE3newBH_, symObjAddr: 0x14CC, symBinAddr: 0x358D8, symSize: 0x14 }
  - { offset: 0x93658, size: 0x8, addend: 0x0, symName: __RNvMNtCsiTraAjBDcu4_5alloc3vecINtB2_3VecTNtNtCsc29TF2YcYso_3syn4item7UseTreeNtNtBH_5token5CommaEE3newBH_, symObjAddr: 0x14E0, symBinAddr: 0x358EC, symSize: 0x14 }
  - { offset: 0x93675, size: 0x8, addend: 0x0, symName: __RNvMNtCsiTraAjBDcu4_5alloc3vecINtB2_3VecTNtNtCsc29TF2YcYso_3syn4path11PathSegmentNtNtBH_5token7PathSepEE3newBH_, symObjAddr: 0x14F4, symBinAddr: 0x35900, symSize: 0x14 }
  - { offset: 0x93692, size: 0x8, addend: 0x0, symName: __RNvMNtCsiTraAjBDcu4_5alloc3vecINtB2_3VecTNtNtCsc29TF2YcYso_3syn4path15GenericArgumentNtNtBH_5token5CommaEE3newBH_, symObjAddr: 0x1508, symBinAddr: 0x35914, symSize: 0x14 }
  - { offset: 0x936AF, size: 0x8, addend: 0x0, symName: __RNvMNtCsiTraAjBDcu4_5alloc3vecINtB2_3VecTNtNtCsc29TF2YcYso_3syn8generics12GenericParamNtNtBH_5token5CommaEE3newBH_, symObjAddr: 0x151C, symBinAddr: 0x35928, symSize: 0x14 }
  - { offset: 0x936CC, size: 0x8, addend: 0x0, symName: __RNvMNtCsiTraAjBDcu4_5alloc3vecINtB2_3VecTNtNtCsc29TF2YcYso_3syn8generics13CapturedParamNtNtBH_5token5CommaEE3newBH_, symObjAddr: 0x1530, symBinAddr: 0x3593C, symSize: 0x14 }
  - { offset: 0x936E9, size: 0x8, addend: 0x0, symName: __RNvMNtCsiTraAjBDcu4_5alloc3vecINtB2_3VecTNtNtCsc29TF2YcYso_3syn8generics14TypeParamBoundNtNtBH_5token4PlusEE3newBH_, symObjAddr: 0x1544, symBinAddr: 0x35950, symSize: 0x14 }
  - { offset: 0x93706, size: 0x8, addend: 0x0, symName: __RNvMNtCsiTraAjBDcu4_5alloc3vecINtB2_3VecTNtNtCsc29TF2YcYso_3syn8generics14WherePredicateNtNtBH_5token5CommaEE3newBH_, symObjAddr: 0x1558, symBinAddr: 0x35964, symSize: 0x14 }
  - { offset: 0x93723, size: 0x8, addend: 0x0, symName: __RNvMNtCsiTraAjBDcu4_5alloc3vecINtB2_3VecTNtNtCsc29TF2YcYso_3syn8lifetime8LifetimeNtNtBH_5token4PlusEE3newBH_, symObjAddr: 0x156C, symBinAddr: 0x35978, symSize: 0x14 }
  - { offset: 0x93740, size: 0x8, addend: 0x0, symName: __RNvMNtCsiTraAjBDcu4_5alloc3vecINtB2_3VechE3newCsc29TF2YcYso_3syn, symObjAddr: 0x1580, symBinAddr: 0x3598C, symSize: 0x14 }
  - { offset: 0x93844, size: 0x8, addend: 0x0, symName: __RNvMs0_NtCsiTraAjBDcu4_5alloc3vecINtB5_3VechE17extend_from_sliceCsc29TF2YcYso_3syn, symObjAddr: 0x1594, symBinAddr: 0x359A0, symSize: 0x74 }
  - { offset: 0x93AAE, size: 0x8, addend: 0x0, symName: __RNvMs0_NtCsiTraAjBDcu4_5alloc3vecINtB5_3VechE6resizeCsc29TF2YcYso_3syn, symObjAddr: 0x1608, symBinAddr: 0x35A14, symSize: 0x100 }
  - { offset: 0x93D4F, size: 0x8, addend: 0x0, symName: __RNvMs2_NtCsiTraAjBDcu4_5alloc3vecINtB5_3VechE11extend_withCsc29TF2YcYso_3syn, symObjAddr: 0x1708, symBinAddr: 0x35B14, symSize: 0x22C }
  - { offset: 0x9413D, size: 0x8, addend: 0x0, symName: __RNvMs_NtCsiTraAjBDcu4_5alloc3vecINtB4_3VecNtNtCsc29TF2YcYso_3syn4attr9AttributeE15append_elementsBI_, symObjAddr: 0x1934, symBinAddr: 0x35D40, symSize: 0xE0 }
  - { offset: 0x943AE, size: 0x8, addend: 0x0, symName: __RNvMs_NtCsiTraAjBDcu4_5alloc3vecINtB4_3VecNtNtCsc29TF2YcYso_3syn4attr9AttributeE4pushBI_, symObjAddr: 0x1A14, symBinAddr: 0x35E20, symSize: 0x118 }
  - { offset: 0x9464A, size: 0x8, addend: 0x0, symName: __RNvMs_NtCsiTraAjBDcu4_5alloc3vecINtB4_3VecNtNtCsc29TF2YcYso_3syn4attr9AttributeE6appendBI_, symObjAddr: 0x1B2C, symBinAddr: 0x35F38, symSize: 0x94 }
  - { offset: 0x9487F, size: 0x8, addend: 0x0, symName: __RNvMs_NtCsiTraAjBDcu4_5alloc3vecINtB4_3VecNtNtCsc29TF2YcYso_3syn4attr9AttributeE7reserveBI_, symObjAddr: 0x1BC0, symBinAddr: 0x35FCC, symSize: 0xC8 }
  - { offset: 0x94A56, size: 0x8, addend: 0x0, symName: __RNvMs_NtCsiTraAjBDcu4_5alloc3vecINtB4_3VecNtNtCsc29TF2YcYso_3syn4attr9AttributeE8as_sliceBI_, symObjAddr: 0x1C88, symBinAddr: 0x36094, symSize: 0x6C }
  - { offset: 0x94B35, size: 0x8, addend: 0x0, symName: __RNvMs_NtCsiTraAjBDcu4_5alloc3vecINtB4_3VecNtNtCsc29TF2YcYso_3syn4attr9AttributeE8is_emptyBI_, symObjAddr: 0x1CF4, symBinAddr: 0x36100, symSize: 0x20 }
  - { offset: 0x94B95, size: 0x8, addend: 0x0, symName: __RNvMs_NtCsiTraAjBDcu4_5alloc3vecINtB4_3VecNtNtCsc29TF2YcYso_3syn4expr3ArmE3lenBI_, symObjAddr: 0x1DDC, symBinAddr: 0x36120, symSize: 0x18 }
  - { offset: 0x94CDD, size: 0x8, addend: 0x0, symName: __RNvMs_NtCsiTraAjBDcu4_5alloc3vecINtB4_3VecNtNtCsc29TF2YcYso_3syn4expr3ArmE4pushBI_, symObjAddr: 0x1DF4, symBinAddr: 0x36138, symSize: 0x120 }
  - { offset: 0x94F2B, size: 0x8, addend: 0x0, symName: __RNvMs_NtCsiTraAjBDcu4_5alloc3vecINtB4_3VecNtNtCsc29TF2YcYso_3syn4expr3ArmE8as_sliceBI_, symObjAddr: 0x1F14, symBinAddr: 0x36258, symSize: 0x6C }
  - { offset: 0x9513F, size: 0x8, addend: 0x0, symName: __RNvMs_NtCsiTraAjBDcu4_5alloc3vecINtB4_3VecNtNtCsc29TF2YcYso_3syn4expr6ExprIfE3popBI_, symObjAddr: 0x1F80, symBinAddr: 0x362C4, symSize: 0x108 }
  - { offset: 0x953B3, size: 0x8, addend: 0x0, symName: __RNvMs_NtCsiTraAjBDcu4_5alloc3vecINtB4_3VecNtNtCsc29TF2YcYso_3syn4expr6ExprIfE4pushBI_, symObjAddr: 0x2088, symBinAddr: 0x363CC, symSize: 0x120 }
  - { offset: 0x9567D, size: 0x8, addend: 0x0, symName: __RNvMs_NtCsiTraAjBDcu4_5alloc3vecINtB4_3VecNtNtCsc29TF2YcYso_3syn4item11ForeignItemE4pushBI_, symObjAddr: 0x21A8, symBinAddr: 0x364EC, symSize: 0x120 }
  - { offset: 0x95947, size: 0x8, addend: 0x0, symName: __RNvMs_NtCsiTraAjBDcu4_5alloc3vecINtB4_3VecNtNtCsc29TF2YcYso_3syn4item4ItemE4pushBI_, symObjAddr: 0x22C8, symBinAddr: 0x3660C, symSize: 0x120 }
  - { offset: 0x95C11, size: 0x8, addend: 0x0, symName: __RNvMs_NtCsiTraAjBDcu4_5alloc3vecINtB4_3VecNtNtCsc29TF2YcYso_3syn4item8ImplItemE4pushBI_, symObjAddr: 0x23E8, symBinAddr: 0x3672C, symSize: 0x120 }
  - { offset: 0x95EDB, size: 0x8, addend: 0x0, symName: __RNvMs_NtCsiTraAjBDcu4_5alloc3vecINtB4_3VecNtNtCsc29TF2YcYso_3syn4item9TraitItemE4pushBI_, symObjAddr: 0x2508, symBinAddr: 0x3684C, symSize: 0x120 }
  - { offset: 0x961A5, size: 0x8, addend: 0x0, symName: __RNvMs_NtCsiTraAjBDcu4_5alloc3vecINtB4_3VecNtNtCsc29TF2YcYso_3syn4stmt4StmtE4pushBI_, symObjAddr: 0x2628, symBinAddr: 0x3696C, symSize: 0x120 }
  - { offset: 0x963B7, size: 0x8, addend: 0x0, symName: __RNvMs_NtCsiTraAjBDcu4_5alloc3vecINtB4_3VecNtNtCsc29TF2YcYso_3syn5error12ErrorMessageE3lenBI_, symObjAddr: 0x2830, symBinAddr: 0x36A8C, symSize: 0x18 }
  - { offset: 0x96487, size: 0x8, addend: 0x0, symName: __RNvMs_NtCsiTraAjBDcu4_5alloc3vecINtB4_3VecNtNtCsc29TF2YcYso_3syn5error12ErrorMessageE8as_sliceBI_, symObjAddr: 0x2910, symBinAddr: 0x36AA4, symSize: 0x6C }
  - { offset: 0x9666E, size: 0x8, addend: 0x0, symName: __RNvMs_NtCsiTraAjBDcu4_5alloc3vecINtB4_3VecNtNtCsc29TF2YcYso_3syn6buffer5EntryE13shrink_to_fitBI_, symObjAddr: 0x297C, symBinAddr: 0x36B10, symSize: 0xE8 }
  - { offset: 0x968E1, size: 0x8, addend: 0x0, symName: __RNvMs_NtCsiTraAjBDcu4_5alloc3vecINtB4_3VecNtNtCsc29TF2YcYso_3syn6buffer5EntryE16into_boxed_sliceBI_, symObjAddr: 0x2A64, symBinAddr: 0x36BF8, symSize: 0x118 }
  - { offset: 0x96AAA, size: 0x8, addend: 0x0, symName: __RNvMs_NtCsiTraAjBDcu4_5alloc3vecINtB4_3VecNtNtCsc29TF2YcYso_3syn6buffer5EntryE3lenBI_, symObjAddr: 0x2B7C, symBinAddr: 0x36D10, symSize: 0x18 }
  - { offset: 0x96BCB, size: 0x8, addend: 0x0, symName: __RNvMs_NtCsiTraAjBDcu4_5alloc3vecINtB4_3VecNtNtCsc29TF2YcYso_3syn6buffer5EntryE4pushBI_, symObjAddr: 0x2B94, symBinAddr: 0x36D28, symSize: 0x100 }
  - { offset: 0x96E95, size: 0x8, addend: 0x0, symName: __RNvMs_NtCsiTraAjBDcu4_5alloc3vecINtB4_3VecNtNtCsc29TF2YcYso_3syn8generics14TypeParamBoundE7reserveBI_, symObjAddr: 0x2C94, symBinAddr: 0x36E28, symSize: 0xC8 }
  - { offset: 0x96FFC, size: 0x8, addend: 0x0, symName: __RNvMs_NtCsiTraAjBDcu4_5alloc3vecINtB4_3VecReE3lenCsc29TF2YcYso_3syn, symObjAddr: 0x2D5C, symBinAddr: 0x36EF0, symSize: 0x18 }
  - { offset: 0x97110, size: 0x8, addend: 0x0, symName: __RNvMs_NtCsiTraAjBDcu4_5alloc3vecINtB4_3VecReE4pushCsc29TF2YcYso_3syn, symObjAddr: 0x2D74, symBinAddr: 0x36F08, symSize: 0xF4 }
  - { offset: 0x97333, size: 0x8, addend: 0x0, symName: __RNvMs_NtCsiTraAjBDcu4_5alloc3vecINtB4_3VecReE8as_sliceCsc29TF2YcYso_3syn, symObjAddr: 0x2E68, symBinAddr: 0x36FFC, symSize: 0x6C }
  - { offset: 0x973FA, size: 0x8, addend: 0x0, symName: __RNvMs_NtCsiTraAjBDcu4_5alloc3vecINtB4_3VecTNtNtCsc29TF2YcYso_3syn2ty4TypeNtNtBJ_5token5CommaEE3lenBJ_, symObjAddr: 0x2ED4, symBinAddr: 0x37068, symSize: 0x18 }
  - { offset: 0x97542, size: 0x8, addend: 0x0, symName: __RNvMs_NtCsiTraAjBDcu4_5alloc3vecINtB4_3VecTNtNtCsc29TF2YcYso_3syn2ty4TypeNtNtBJ_5token5CommaEE4pushBJ_, symObjAddr: 0x2EEC, symBinAddr: 0x37080, symSize: 0x120 }
  - { offset: 0x97790, size: 0x8, addend: 0x0, symName: __RNvMs_NtCsiTraAjBDcu4_5alloc3vecINtB4_3VecTNtNtCsc29TF2YcYso_3syn2ty4TypeNtNtBJ_5token5CommaEE8as_sliceBJ_, symObjAddr: 0x300C, symBinAddr: 0x371A0, symSize: 0x6C }
  - { offset: 0x97857, size: 0x8, addend: 0x0, symName: __RNvMs_NtCsiTraAjBDcu4_5alloc3vecINtB4_3VecTNtNtCsc29TF2YcYso_3syn2ty9BareFnArgNtNtBJ_5token5CommaEE3lenBJ_, symObjAddr: 0x3078, symBinAddr: 0x3720C, symSize: 0x18 }
  - { offset: 0x9799F, size: 0x8, addend: 0x0, symName: __RNvMs_NtCsiTraAjBDcu4_5alloc3vecINtB4_3VecTNtNtCsc29TF2YcYso_3syn2ty9BareFnArgNtNtBJ_5token5CommaEE4pushBJ_, symObjAddr: 0x3090, symBinAddr: 0x37224, symSize: 0x120 }
  - { offset: 0x97BED, size: 0x8, addend: 0x0, symName: __RNvMs_NtCsiTraAjBDcu4_5alloc3vecINtB4_3VecTNtNtCsc29TF2YcYso_3syn2ty9BareFnArgNtNtBJ_5token5CommaEE8as_sliceBJ_, symObjAddr: 0x31B0, symBinAddr: 0x37344, symSize: 0x6C }
  - { offset: 0x97DBA, size: 0x8, addend: 0x0, symName: __RNvMs_NtCsiTraAjBDcu4_5alloc3vecINtB4_3VecTNtNtCsc29TF2YcYso_3syn3pat3PatNtNtBJ_5token2OrEE4pushBJ_, symObjAddr: 0x321C, symBinAddr: 0x373B0, symSize: 0x120 }
  - { offset: 0x98015, size: 0x8, addend: 0x0, symName: __RNvMs_NtCsiTraAjBDcu4_5alloc3vecINtB4_3VecTNtNtCsc29TF2YcYso_3syn3pat3PatNtNtBJ_5token2OrEE8as_sliceBJ_, symObjAddr: 0x333C, symBinAddr: 0x374D0, symSize: 0x6C }
  - { offset: 0x980DC, size: 0x8, addend: 0x0, symName: __RNvMs_NtCsiTraAjBDcu4_5alloc3vecINtB4_3VecTNtNtCsc29TF2YcYso_3syn3pat3PatNtNtBJ_5token5CommaEE3lenBJ_, symObjAddr: 0x33A8, symBinAddr: 0x3753C, symSize: 0x18 }
  - { offset: 0x98224, size: 0x8, addend: 0x0, symName: __RNvMs_NtCsiTraAjBDcu4_5alloc3vecINtB4_3VecTNtNtCsc29TF2YcYso_3syn3pat3PatNtNtBJ_5token5CommaEE4pushBJ_, symObjAddr: 0x33C0, symBinAddr: 0x37554, symSize: 0x120 }
  - { offset: 0x98472, size: 0x8, addend: 0x0, symName: __RNvMs_NtCsiTraAjBDcu4_5alloc3vecINtB4_3VecTNtNtCsc29TF2YcYso_3syn3pat3PatNtNtBJ_5token5CommaEE8as_sliceBJ_, symObjAddr: 0x34E0, symBinAddr: 0x37674, symSize: 0x6C }
  - { offset: 0x9863F, size: 0x8, addend: 0x0, symName: __RNvMs_NtCsiTraAjBDcu4_5alloc3vecINtB4_3VecTNtNtCsc29TF2YcYso_3syn3pat8FieldPatNtNtBJ_5token5CommaEE4pushBJ_, symObjAddr: 0x354C, symBinAddr: 0x376E0, symSize: 0x118 }
  - { offset: 0x98898, size: 0x8, addend: 0x0, symName: __RNvMs_NtCsiTraAjBDcu4_5alloc3vecINtB4_3VecTNtNtCsc29TF2YcYso_3syn3pat8FieldPatNtNtBJ_5token5CommaEE8as_sliceBJ_, symObjAddr: 0x3664, symBinAddr: 0x377F8, symSize: 0x6C }
  - { offset: 0x98A8C, size: 0x8, addend: 0x0, symName: __RNvMs_NtCsiTraAjBDcu4_5alloc3vecINtB4_3VecTNtNtCsc29TF2YcYso_3syn4data5FieldNtNtBJ_5token5CommaEE4pushBJ_, symObjAddr: 0x3754, symBinAddr: 0x37864, symSize: 0x120 }
  - { offset: 0x98CD1, size: 0x8, addend: 0x0, symName: __RNvMs_NtCsiTraAjBDcu4_5alloc3vecINtB4_3VecTNtNtCsc29TF2YcYso_3syn4data5FieldNtNtBJ_5token5CommaEE8as_sliceBJ_, symObjAddr: 0x3874, symBinAddr: 0x37984, symSize: 0x6C }
  - { offset: 0x98E9E, size: 0x8, addend: 0x0, symName: __RNvMs_NtCsiTraAjBDcu4_5alloc3vecINtB4_3VecTNtNtCsc29TF2YcYso_3syn4data7VariantNtNtBJ_5token5CommaEE4pushBJ_, symObjAddr: 0x38F8, symBinAddr: 0x379F0, symSize: 0x120 }
  - { offset: 0x990F9, size: 0x8, addend: 0x0, symName: __RNvMs_NtCsiTraAjBDcu4_5alloc3vecINtB4_3VecTNtNtCsc29TF2YcYso_3syn4data7VariantNtNtBJ_5token5CommaEE8as_sliceBJ_, symObjAddr: 0x3A18, symBinAddr: 0x37B10, symSize: 0x6C }
  - { offset: 0x992C6, size: 0x8, addend: 0x0, symName: __RNvMs_NtCsiTraAjBDcu4_5alloc3vecINtB4_3VecTNtNtCsc29TF2YcYso_3syn4expr10FieldValueNtNtBJ_5token5CommaEE4pushBJ_, symObjAddr: 0x3A84, symBinAddr: 0x37B7C, symSize: 0x120 }
  - { offset: 0x99521, size: 0x8, addend: 0x0, symName: __RNvMs_NtCsiTraAjBDcu4_5alloc3vecINtB4_3VecTNtNtCsc29TF2YcYso_3syn4expr10FieldValueNtNtBJ_5token5CommaEE8as_sliceBJ_, symObjAddr: 0x3BA4, symBinAddr: 0x37C9C, symSize: 0x6C }
  - { offset: 0x995E8, size: 0x8, addend: 0x0, symName: __RNvMs_NtCsiTraAjBDcu4_5alloc3vecINtB4_3VecTNtNtCsc29TF2YcYso_3syn4expr4ExprNtNtBJ_5token5CommaEE3lenBJ_, symObjAddr: 0x3C10, symBinAddr: 0x37D08, symSize: 0x18 }
  - { offset: 0x99730, size: 0x8, addend: 0x0, symName: __RNvMs_NtCsiTraAjBDcu4_5alloc3vecINtB4_3VecTNtNtCsc29TF2YcYso_3syn4expr4ExprNtNtBJ_5token5CommaEE4pushBJ_, symObjAddr: 0x3C28, symBinAddr: 0x37D20, symSize: 0x120 }
  - { offset: 0x9997E, size: 0x8, addend: 0x0, symName: __RNvMs_NtCsiTraAjBDcu4_5alloc3vecINtB4_3VecTNtNtCsc29TF2YcYso_3syn4expr4ExprNtNtBJ_5token5CommaEE8as_sliceBJ_, symObjAddr: 0x3D48, symBinAddr: 0x37E40, symSize: 0x6C }
  - { offset: 0x99A45, size: 0x8, addend: 0x0, symName: __RNvMs_NtCsiTraAjBDcu4_5alloc3vecINtB4_3VecTNtNtCsc29TF2YcYso_3syn4item5FnArgNtNtBJ_5token5CommaEE3lenBJ_, symObjAddr: 0x3DB4, symBinAddr: 0x37EAC, symSize: 0x18 }
  - { offset: 0x99B8D, size: 0x8, addend: 0x0, symName: __RNvMs_NtCsiTraAjBDcu4_5alloc3vecINtB4_3VecTNtNtCsc29TF2YcYso_3syn4item5FnArgNtNtBJ_5token5CommaEE4pushBJ_, symObjAddr: 0x3DCC, symBinAddr: 0x37EC4, symSize: 0x120 }
  - { offset: 0x99DDB, size: 0x8, addend: 0x0, symName: __RNvMs_NtCsiTraAjBDcu4_5alloc3vecINtB4_3VecTNtNtCsc29TF2YcYso_3syn4item5FnArgNtNtBJ_5token5CommaEE8as_sliceBJ_, symObjAddr: 0x3EEC, symBinAddr: 0x37FE4, symSize: 0x6C }
  - { offset: 0x99FA8, size: 0x8, addend: 0x0, symName: __RNvMs_NtCsiTraAjBDcu4_5alloc3vecINtB4_3VecTNtNtCsc29TF2YcYso_3syn4item7UseTreeNtNtBJ_5token5CommaEE4pushBJ_, symObjAddr: 0x3F58, symBinAddr: 0x38050, symSize: 0x118 }
  - { offset: 0x9A201, size: 0x8, addend: 0x0, symName: __RNvMs_NtCsiTraAjBDcu4_5alloc3vecINtB4_3VecTNtNtCsc29TF2YcYso_3syn4item7UseTreeNtNtBJ_5token5CommaEE8as_sliceBJ_, symObjAddr: 0x4070, symBinAddr: 0x38168, symSize: 0x6C }
  - { offset: 0x9A396, size: 0x8, addend: 0x0, symName: __RNvMs_NtCsiTraAjBDcu4_5alloc3vecINtB4_3VecTNtNtCsc29TF2YcYso_3syn4path11PathSegmentNtNtBJ_5token7PathSepEE12as_mut_sliceBJ_, symObjAddr: 0x40DC, symBinAddr: 0x381D4, symSize: 0x6C }
  - { offset: 0x9A472, size: 0x8, addend: 0x0, symName: __RNvMs_NtCsiTraAjBDcu4_5alloc3vecINtB4_3VecTNtNtCsc29TF2YcYso_3syn4path11PathSegmentNtNtBJ_5token7PathSepEE3lenBJ_, symObjAddr: 0x4148, symBinAddr: 0x38240, symSize: 0x18 }
  - { offset: 0x9A5C0, size: 0x8, addend: 0x0, symName: __RNvMs_NtCsiTraAjBDcu4_5alloc3vecINtB4_3VecTNtNtCsc29TF2YcYso_3syn4path11PathSegmentNtNtBJ_5token7PathSepEE3popBJ_, symObjAddr: 0x4160, symBinAddr: 0x38258, symSize: 0x10C }
  - { offset: 0x9A834, size: 0x8, addend: 0x0, symName: __RNvMs_NtCsiTraAjBDcu4_5alloc3vecINtB4_3VecTNtNtCsc29TF2YcYso_3syn4path11PathSegmentNtNtBJ_5token7PathSepEE4pushBJ_, symObjAddr: 0x426C, symBinAddr: 0x38364, symSize: 0x120 }
  - { offset: 0x9AA79, size: 0x8, addend: 0x0, symName: __RNvMs_NtCsiTraAjBDcu4_5alloc3vecINtB4_3VecTNtNtCsc29TF2YcYso_3syn4path11PathSegmentNtNtBJ_5token7PathSepEE8as_sliceBJ_, symObjAddr: 0x438C, symBinAddr: 0x38484, symSize: 0x6C }
  - { offset: 0x9AB40, size: 0x8, addend: 0x0, symName: __RNvMs_NtCsiTraAjBDcu4_5alloc3vecINtB4_3VecTNtNtCsc29TF2YcYso_3syn4path15GenericArgumentNtNtBJ_5token5CommaEE3lenBJ_, symObjAddr: 0x43F8, symBinAddr: 0x384F0, symSize: 0x18 }
  - { offset: 0x9AC88, size: 0x8, addend: 0x0, symName: __RNvMs_NtCsiTraAjBDcu4_5alloc3vecINtB4_3VecTNtNtCsc29TF2YcYso_3syn4path15GenericArgumentNtNtBJ_5token5CommaEE4pushBJ_, symObjAddr: 0x4410, symBinAddr: 0x38508, symSize: 0x120 }
  - { offset: 0x9AED6, size: 0x8, addend: 0x0, symName: __RNvMs_NtCsiTraAjBDcu4_5alloc3vecINtB4_3VecTNtNtCsc29TF2YcYso_3syn4path15GenericArgumentNtNtBJ_5token5CommaEE8as_sliceBJ_, symObjAddr: 0x4530, symBinAddr: 0x38628, symSize: 0x6C }
  - { offset: 0x9AFF8, size: 0x8, addend: 0x0, symName: __RNvMs_NtCsiTraAjBDcu4_5alloc3vecINtB4_3VecTNtNtCsc29TF2YcYso_3syn8generics12GenericParamNtNtBJ_5token5CommaEE3lenBJ_, symObjAddr: 0x4608, symBinAddr: 0x38694, symSize: 0x18 }
  - { offset: 0x9B10C, size: 0x8, addend: 0x0, symName: __RNvMs_NtCsiTraAjBDcu4_5alloc3vecINtB4_3VecTNtNtCsc29TF2YcYso_3syn8generics12GenericParamNtNtBJ_5token5CommaEE4pushBJ_, symObjAddr: 0x4620, symBinAddr: 0x386AC, symSize: 0x120 }
  - { offset: 0x9B351, size: 0x8, addend: 0x0, symName: __RNvMs_NtCsiTraAjBDcu4_5alloc3vecINtB4_3VecTNtNtCsc29TF2YcYso_3syn8generics12GenericParamNtNtBJ_5token5CommaEE8as_sliceBJ_, symObjAddr: 0x4740, symBinAddr: 0x387CC, symSize: 0x6C }
  - { offset: 0x9B51E, size: 0x8, addend: 0x0, symName: __RNvMs_NtCsiTraAjBDcu4_5alloc3vecINtB4_3VecTNtNtCsc29TF2YcYso_3syn8generics13CapturedParamNtNtBJ_5token5CommaEE4pushBJ_, symObjAddr: 0x47AC, symBinAddr: 0x38838, symSize: 0x118 }
  - { offset: 0x9B777, size: 0x8, addend: 0x0, symName: __RNvMs_NtCsiTraAjBDcu4_5alloc3vecINtB4_3VecTNtNtCsc29TF2YcYso_3syn8generics13CapturedParamNtNtBJ_5token5CommaEE8as_sliceBJ_, symObjAddr: 0x48C4, symBinAddr: 0x38950, symSize: 0x6C }
  - { offset: 0x9B83E, size: 0x8, addend: 0x0, symName: __RNvMs_NtCsiTraAjBDcu4_5alloc3vecINtB4_3VecTNtNtCsc29TF2YcYso_3syn8generics14TypeParamBoundNtNtBJ_5token4PlusEE3lenBJ_, symObjAddr: 0x4930, symBinAddr: 0x389BC, symSize: 0x18 }
  - { offset: 0x9B979, size: 0x8, addend: 0x0, symName: __RNvMs_NtCsiTraAjBDcu4_5alloc3vecINtB4_3VecTNtNtCsc29TF2YcYso_3syn8generics14TypeParamBoundNtNtBJ_5token4PlusEE4pushBJ_, symObjAddr: 0x4948, symBinAddr: 0x389D4, symSize: 0x118 }
  - { offset: 0x9BBC7, size: 0x8, addend: 0x0, symName: __RNvMs_NtCsiTraAjBDcu4_5alloc3vecINtB4_3VecTNtNtCsc29TF2YcYso_3syn8generics14TypeParamBoundNtNtBJ_5token4PlusEE8as_sliceBJ_, symObjAddr: 0x4A60, symBinAddr: 0x38AEC, symSize: 0x6C }
  - { offset: 0x9BC8E, size: 0x8, addend: 0x0, symName: __RNvMs_NtCsiTraAjBDcu4_5alloc3vecINtB4_3VecTNtNtCsc29TF2YcYso_3syn8generics14WherePredicateNtNtBJ_5token5CommaEE3lenBJ_, symObjAddr: 0x4ACC, symBinAddr: 0x38B58, symSize: 0x18 }
  - { offset: 0x9BDD6, size: 0x8, addend: 0x0, symName: __RNvMs_NtCsiTraAjBDcu4_5alloc3vecINtB4_3VecTNtNtCsc29TF2YcYso_3syn8generics14WherePredicateNtNtBJ_5token5CommaEE4pushBJ_, symObjAddr: 0x4AE4, symBinAddr: 0x38B70, symSize: 0x120 }
  - { offset: 0x9C024, size: 0x8, addend: 0x0, symName: __RNvMs_NtCsiTraAjBDcu4_5alloc3vecINtB4_3VecTNtNtCsc29TF2YcYso_3syn8generics14WherePredicateNtNtBJ_5token5CommaEE8as_sliceBJ_, symObjAddr: 0x4C04, symBinAddr: 0x38C90, symSize: 0x6C }
  - { offset: 0x9C0EB, size: 0x8, addend: 0x0, symName: __RNvMs_NtCsiTraAjBDcu4_5alloc3vecINtB4_3VecTNtNtCsc29TF2YcYso_3syn8lifetime8LifetimeNtNtBJ_5token4PlusEE3lenBJ_, symObjAddr: 0x4C70, symBinAddr: 0x38CFC, symSize: 0x18 }
  - { offset: 0x9C233, size: 0x8, addend: 0x0, symName: __RNvMs_NtCsiTraAjBDcu4_5alloc3vecINtB4_3VecTNtNtCsc29TF2YcYso_3syn8lifetime8LifetimeNtNtBJ_5token4PlusEE4pushBJ_, symObjAddr: 0x4C88, symBinAddr: 0x38D14, symSize: 0x118 }
  - { offset: 0x9C47F, size: 0x8, addend: 0x0, symName: __RNvMs_NtCsiTraAjBDcu4_5alloc3vecINtB4_3VecTNtNtCsc29TF2YcYso_3syn8lifetime8LifetimeNtNtBJ_5token4PlusEE8as_sliceBJ_, symObjAddr: 0x4DA0, symBinAddr: 0x38E2C, symSize: 0x6C }
  - { offset: 0x9C63F, size: 0x8, addend: 0x0, symName: __RNvMs_NtCsiTraAjBDcu4_5alloc3vecINtB4_3VechE13shrink_to_fitCsc29TF2YcYso_3syn, symObjAddr: 0x4E0C, symBinAddr: 0x38E98, symSize: 0xE0 }
  - { offset: 0x9C86D, size: 0x8, addend: 0x0, symName: __RNvMs_NtCsiTraAjBDcu4_5alloc3vecINtB4_3VechE16into_boxed_sliceCsc29TF2YcYso_3syn, symObjAddr: 0x4EEC, symBinAddr: 0x38F78, symSize: 0x118 }
  - { offset: 0x9CA36, size: 0x8, addend: 0x0, symName: __RNvMs_NtCsiTraAjBDcu4_5alloc3vecINtB4_3VechE3lenCsc29TF2YcYso_3syn, symObjAddr: 0x5004, symBinAddr: 0x39090, symSize: 0x18 }
  - { offset: 0x9CB4A, size: 0x8, addend: 0x0, symName: __RNvMs_NtCsiTraAjBDcu4_5alloc3vecINtB4_3VechE4pushCsc29TF2YcYso_3syn, symObjAddr: 0x501C, symBinAddr: 0x390A8, symSize: 0xDC }
  - { offset: 0x9CD6C, size: 0x8, addend: 0x0, symName: __RNvMs_NtCsiTraAjBDcu4_5alloc3vecINtB4_3VechE8as_sliceCsc29TF2YcYso_3syn, symObjAddr: 0x50F8, symBinAddr: 0x39184, symSize: 0x68 }
  - { offset: 0x9CFDC, size: 0x8, addend: 0x0, symName: __RNvMs_NtCsiTraAjBDcu4_5alloc3vecINtB4_3VechE9split_offCsc29TF2YcYso_3syn, symObjAddr: 0x5160, symBinAddr: 0x391EC, symSize: 0x148 }
  - { offset: 0xA12C7, size: 0x8, addend: 0x0, symName: __RINvXNvMNtCsiTraAjBDcu4_5alloc5sliceSp9to_vec_inNtNtCsc29TF2YcYso_3syn4expr3ArmNtB3_10ConvertVec6to_vecNtNtB8_5alloc6GlobalEBO_, symObjAddr: 0x0, symBinAddr: 0x3BCF8, symSize: 0x374 }
  - { offset: 0xA25BD, size: 0x8, addend: 0x0, symName: __RINvXNvMNtCsiTraAjBDcu4_5alloc5sliceSp9to_vec_inNtNtCsc29TF2YcYso_3syn4expr3ArmNtB3_10ConvertVec6to_vecNtNtB8_5alloc6GlobalEBO_, symObjAddr: 0x0, symBinAddr: 0x3BCF8, symSize: 0x374 }
  - { offset: 0xA2A72, size: 0x8, addend: 0x0, symName: __RINvXNvMNtCsiTraAjBDcu4_5alloc5sliceSp9to_vec_inTNtNtCsc29TF2YcYso_3syn4expr10FieldValueNtNtBP_5token5CommaENtB3_10ConvertVec6to_vecNtNtB8_5alloc6GlobalEBP_, symObjAddr: 0x374, symBinAddr: 0x3C06C, symSize: 0x374 }
  - { offset: 0xA2F27, size: 0x8, addend: 0x0, symName: __RINvXNvMNtCsiTraAjBDcu4_5alloc5sliceSp9to_vec_inTNtNtCsc29TF2YcYso_3syn4expr4ExprNtNtBP_5token5CommaENtB3_10ConvertVec6to_vecNtNtB8_5alloc6GlobalEBP_, symObjAddr: 0x6E8, symBinAddr: 0x3C3E0, symSize: 0x374 }
  - { offset: 0xA5F5D, size: 0x8, addend: 0x0, symName: __RNvXNtNtCsc29TF2YcYso_3syn4expr7parsingNtB4_4ExprNtNtB6_5parse5Parse5parse, symObjAddr: 0x2C1C, symBinAddr: 0x3D440, symSize: 0x3C }
  - { offset: 0xA5F91, size: 0x8, addend: 0x0, symName: __RNvXs4_NtNtCsc29TF2YcYso_3syn4expr7parsingNtB7_7ExprLitNtNtB9_5parse5Parse5parse, symObjAddr: 0x36BC, symBinAddr: 0x3D47C, symSize: 0x14C }
  - { offset: 0xA5FE4, size: 0x8, addend: 0x0, symName: __RNvXs7_NtNtCsc29TF2YcYso_3syn4expr7parsingNtB7_6ExprIfNtNtB9_5parse5Parse5parse, symObjAddr: 0x3AF0, symBinAddr: 0x3D5C8, symSize: 0x1040 }
  - { offset: 0xA625B, size: 0x8, addend: 0x0, symName: __RNvXs8_NtNtCsc29TF2YcYso_3syn4expr7parsingNtB7_9ExprInferNtNtB9_5parse5Parse5parse, symObjAddr: 0x4B30, symBinAddr: 0x3E608, symSize: 0x1D0 }
  - { offset: 0xA62EC, size: 0x8, addend: 0x0, symName: __RNvXs9_NtNtCsc29TF2YcYso_3syn4expr7parsingNtB7_11ExprForLoopNtNtB9_5parse5Parse5parse, symObjAddr: 0x4D00, symBinAddr: 0x3E7D8, symSize: 0x9A4 }
  - { offset: 0xA65BB, size: 0x8, addend: 0x0, symName: __RNvXsa_NtNtCsc29TF2YcYso_3syn4expr7parsingNtB7_8ExprLoopNtNtB9_5parse5Parse5parse, symObjAddr: 0x56A4, symBinAddr: 0x3F17C, symSize: 0x590 }
  - { offset: 0xA676E, size: 0x8, addend: 0x0, symName: __RNvXsb_NtNtCsc29TF2YcYso_3syn4expr7parsingNtB7_9ExprMatchNtNtB9_5parse5Parse5parse, symObjAddr: 0x5C34, symBinAddr: 0x3F70C, symSize: 0x60C }
  - { offset: 0xA695F, size: 0x8, addend: 0x0, symName: __RNvXsh_NtNtCsc29TF2YcYso_3syn4expr7parsingNtB7_10ExprReturnNtNtB9_5parse5Parse5parse, symObjAddr: 0x6A7C, symBinAddr: 0x3FD18, symSize: 0x210 }
  - { offset: 0xA69C1, size: 0x8, addend: 0x0, symName: __RNvXsi_NtNtCsc29TF2YcYso_3syn4expr7parsingNtB7_12ExprTryBlockNtNtB9_5parse5Parse5parse, symObjAddr: 0x6C8C, symBinAddr: 0x3FF28, symSize: 0x220 }
  - { offset: 0xA6A33, size: 0x8, addend: 0x0, symName: __RNvXsj_NtNtCsc29TF2YcYso_3syn4expr7parsingNtB7_9ExprYieldNtNtB9_5parse5Parse5parse, symObjAddr: 0x6EAC, symBinAddr: 0x40148, symSize: 0x210 }
  - { offset: 0xA6A95, size: 0x8, addend: 0x0, symName: __RNvXsk_NtNtCsc29TF2YcYso_3syn4expr7parsingNtB7_9ExprAsyncNtNtB9_5parse5Parse5parse, symObjAddr: 0x70BC, symBinAddr: 0x40358, symSize: 0x2E8 }
  - { offset: 0xA6B26, size: 0x8, addend: 0x0, symName: __RNvXsl_NtNtCsc29TF2YcYso_3syn4expr7parsingNtB7_9ExprWhileNtNtB9_5parse5Parse5parse, symObjAddr: 0x73A4, symBinAddr: 0x40640, symSize: 0x760 }
  - { offset: 0xA6D5C, size: 0x8, addend: 0x0, symName: __RNvXsm_NtNtCsc29TF2YcYso_3syn4expr7parsingNtB7_9ExprConstNtNtB9_5parse5Parse5parse, symObjAddr: 0x7B04, symBinAddr: 0x40DA0, symSize: 0x3BC }
  - { offset: 0xA6EB2, size: 0x8, addend: 0x0, symName: __RNvXsn_NtNtCsc29TF2YcYso_3syn4expr7parsingNtB7_5LabelNtNtB9_5parse5Parse5parse, symObjAddr: 0x7EC0, symBinAddr: 0x4115C, symSize: 0x1D4 }
  - { offset: 0xA6F43, size: 0x8, addend: 0x0, symName: __RNvXsp_NtNtCsc29TF2YcYso_3syn4expr7parsingNtB7_12ExprContinueNtNtB9_5parse5Parse5parse, symObjAddr: 0x8094, symBinAddr: 0x41330, symSize: 0x200 }
  - { offset: 0xA6FB5, size: 0x8, addend: 0x0, symName: __RNvXsq_NtNtCsc29TF2YcYso_3syn4expr7parsingNtB7_10FieldValueNtNtB9_5parse5Parse5parse, symObjAddr: 0x8294, symBinAddr: 0x41530, symSize: 0x560 }
  - { offset: 0xA7154, size: 0x8, addend: 0x0, symName: __RNvXss_NtNtCsc29TF2YcYso_3syn4expr7parsingNtB7_10ExprUnsafeNtNtB9_5parse5Parse5parse, symObjAddr: 0x89B4, symBinAddr: 0x41A90, symSize: 0x3BC }
  - { offset: 0xA72AA, size: 0x8, addend: 0x0, symName: __RNvXst_NtNtCsc29TF2YcYso_3syn4expr7parsingNtB7_9ExprBlockNtNtB9_5parse5Parse5parse, symObjAddr: 0x8D70, symBinAddr: 0x41E4C, symSize: 0x4FC }
  - { offset: 0xA7430, size: 0x8, addend: 0x0, symName: __RNvXsu_NtNtCsc29TF2YcYso_3syn4expr7parsingNtB7_11RangeLimitsNtNtB9_5parse5Parse5parse, symObjAddr: 0x926C, symBinAddr: 0x42348, symSize: 0x234 }
  - { offset: 0xA74BE, size: 0x8, addend: 0x0, symName: __RNvXsw_NtNtCsc29TF2YcYso_3syn4expr7parsingNtB7_8ExprPathNtNtB9_5parse5Parse5parse, symObjAddr: 0x97D4, symBinAddr: 0x428B0, symSize: 0x238 }
  - { offset: 0xA75AC, size: 0x8, addend: 0x0, symName: __RNvXsx_NtNtCsc29TF2YcYso_3syn4expr7parsingNtB7_6MemberNtNtB9_5parse5Parse5parse, symObjAddr: 0x9A0C, symBinAddr: 0x42AE8, symSize: 0xFC }
  - { offset: 0xA75E0, size: 0x8, addend: 0x0, symName: __RNvXsz_NtNtCsc29TF2YcYso_3syn4expr7parsingNtB7_3ArmNtNtB9_5parse5Parse5parse, symObjAddr: 0x9CCC, symBinAddr: 0x42DA8, symSize: 0x8EC }
  - { offset: 0xA7818, size: 0x8, addend: 0x0, symName: __RNvXsA_NtNtCsc29TF2YcYso_3syn4expr7parsingNtB7_5IndexNtNtB9_5parse5Parse5parse, symObjAddr: 0xA5B8, symBinAddr: 0x43694, symSize: 0x28C }
  - { offset: 0xA78C6, size: 0x8, addend: 0x0, symName: __RNvXNtNtCsc29TF2YcYso_3syn4expr8printingNtB4_9ExprArrayNtNtCs4EAaWzSXu1l_5quote9to_tokens8ToTokens9to_tokens, symObjAddr: 0xAAFC, symBinAddr: 0x43920, symSize: 0x58 }
  - { offset: 0xA7905, size: 0x8, addend: 0x0, symName: __RNvXs_NtNtCsc29TF2YcYso_3syn4expr8printingNtB6_10ExprAssignNtNtCs4EAaWzSXu1l_5quote9to_tokens8ToTokens9to_tokens, symObjAddr: 0xAB54, symBinAddr: 0x43978, symSize: 0x58 }
  - { offset: 0xA7944, size: 0x8, addend: 0x0, symName: __RNvXs0_NtNtCsc29TF2YcYso_3syn4expr8printingNtB7_9ExprAsyncNtNtCs4EAaWzSXu1l_5quote9to_tokens8ToTokens9to_tokens, symObjAddr: 0xABAC, symBinAddr: 0x439D0, symSize: 0x74 }
  - { offset: 0xA7983, size: 0x8, addend: 0x0, symName: __RNvXs1_NtNtCsc29TF2YcYso_3syn4expr8printingNtB7_9ExprAwaitNtNtCs4EAaWzSXu1l_5quote9to_tokens8ToTokens9to_tokens, symObjAddr: 0xAC20, symBinAddr: 0x43A44, symSize: 0x58 }
  - { offset: 0xA79C2, size: 0x8, addend: 0x0, symName: __RNvXs2_NtNtCsc29TF2YcYso_3syn4expr8printingNtB7_10ExprBinaryNtNtCs4EAaWzSXu1l_5quote9to_tokens8ToTokens9to_tokens, symObjAddr: 0xAC78, symBinAddr: 0x43A9C, symSize: 0x58 }
  - { offset: 0xA7A01, size: 0x8, addend: 0x0, symName: __RNvXs3_NtNtCsc29TF2YcYso_3syn4expr8printingNtB7_9ExprBlockNtNtCs4EAaWzSXu1l_5quote9to_tokens8ToTokens9to_tokens, symObjAddr: 0xACD0, symBinAddr: 0x43AF4, symSize: 0x68 }
  - { offset: 0xA7A40, size: 0x8, addend: 0x0, symName: __RNvXs4_NtNtCsc29TF2YcYso_3syn4expr8printingNtB7_9ExprBreakNtNtCs4EAaWzSXu1l_5quote9to_tokens8ToTokens9to_tokens, symObjAddr: 0xAD38, symBinAddr: 0x43B5C, symSize: 0x58 }
  - { offset: 0xA7A7F, size: 0x8, addend: 0x0, symName: __RNvXs5_NtNtCsc29TF2YcYso_3syn4expr8printingNtB7_8ExprCallNtNtCs4EAaWzSXu1l_5quote9to_tokens8ToTokens9to_tokens, symObjAddr: 0xAD90, symBinAddr: 0x43BB4, symSize: 0x58 }
  - { offset: 0xA7ABE, size: 0x8, addend: 0x0, symName: __RNvXs6_NtNtCsc29TF2YcYso_3syn4expr8printingNtB7_8ExprCastNtNtCs4EAaWzSXu1l_5quote9to_tokens8ToTokens9to_tokens, symObjAddr: 0xADE8, symBinAddr: 0x43C0C, symSize: 0x58 }
  - { offset: 0xA7AFD, size: 0x8, addend: 0x0, symName: __RNvXs7_NtNtCsc29TF2YcYso_3syn4expr8printingNtB7_11ExprClosureNtNtCs4EAaWzSXu1l_5quote9to_tokens8ToTokens9to_tokens, symObjAddr: 0xAE40, symBinAddr: 0x43C64, symSize: 0x58 }
  - { offset: 0xA7B3C, size: 0x8, addend: 0x0, symName: __RNvXs8_NtNtCsc29TF2YcYso_3syn4expr8printingNtB7_9ExprConstNtNtCs4EAaWzSXu1l_5quote9to_tokens8ToTokens9to_tokens, symObjAddr: 0xAE98, symBinAddr: 0x43CBC, symSize: 0x68 }
  - { offset: 0xA7B7B, size: 0x8, addend: 0x0, symName: __RNvXs9_NtNtCsc29TF2YcYso_3syn4expr8printingNtB7_12ExprContinueNtNtCs4EAaWzSXu1l_5quote9to_tokens8ToTokens9to_tokens, symObjAddr: 0xAF00, symBinAddr: 0x43D24, symSize: 0x64 }
  - { offset: 0xA7BBA, size: 0x8, addend: 0x0, symName: __RNvXsa_NtNtCsc29TF2YcYso_3syn4expr8printingNtB7_9ExprFieldNtNtCs4EAaWzSXu1l_5quote9to_tokens8ToTokens9to_tokens, symObjAddr: 0xAF64, symBinAddr: 0x43D88, symSize: 0x58 }
  - { offset: 0xA7BF9, size: 0x8, addend: 0x0, symName: __RNvXsb_NtNtCsc29TF2YcYso_3syn4expr8printingNtB7_11ExprForLoopNtNtCs4EAaWzSXu1l_5quote9to_tokens8ToTokens9to_tokens, symObjAddr: 0xAFBC, symBinAddr: 0x43DE0, symSize: 0x104 }
  - { offset: 0xA7C38, size: 0x8, addend: 0x0, symName: __RNvXsc_NtNtCsc29TF2YcYso_3syn4expr8printingNtB7_9ExprGroupNtNtCs4EAaWzSXu1l_5quote9to_tokens8ToTokens9to_tokens, symObjAddr: 0xB0C0, symBinAddr: 0x43EE4, symSize: 0x58 }
  - { offset: 0xA7C77, size: 0x8, addend: 0x0, symName: __RNvXsd_NtNtCsc29TF2YcYso_3syn4expr8printingNtB7_6ExprIfNtNtCs4EAaWzSXu1l_5quote9to_tokens8ToTokens9to_tokens, symObjAddr: 0xB118, symBinAddr: 0x43F3C, symSize: 0x260 }
  - { offset: 0xA7D4D, size: 0x8, addend: 0x0, symName: __RNvXse_NtNtCsc29TF2YcYso_3syn4expr8printingNtB7_9ExprIndexNtNtCs4EAaWzSXu1l_5quote9to_tokens8ToTokens9to_tokens, symObjAddr: 0xB378, symBinAddr: 0x4419C, symSize: 0x58 }
  - { offset: 0xA7D8C, size: 0x8, addend: 0x0, symName: __RNvXsf_NtNtCsc29TF2YcYso_3syn4expr8printingNtB7_9ExprInferNtNtCs4EAaWzSXu1l_5quote9to_tokens8ToTokens9to_tokens, symObjAddr: 0xB3D0, symBinAddr: 0x441F4, symSize: 0x54 }
  - { offset: 0xA7DCB, size: 0x8, addend: 0x0, symName: __RNvXsg_NtNtCsc29TF2YcYso_3syn4expr8printingNtB7_7ExprLetNtNtCs4EAaWzSXu1l_5quote9to_tokens8ToTokens9to_tokens, symObjAddr: 0xB424, symBinAddr: 0x44248, symSize: 0x58 }
  - { offset: 0xA7E0A, size: 0x8, addend: 0x0, symName: __RNvXsh_NtNtCsc29TF2YcYso_3syn4expr8printingNtB7_7ExprLitNtNtCs4EAaWzSXu1l_5quote9to_tokens8ToTokens9to_tokens, symObjAddr: 0xB47C, symBinAddr: 0x442A0, symSize: 0x54 }
  - { offset: 0xA7E49, size: 0x8, addend: 0x0, symName: __RNvXsi_NtNtCsc29TF2YcYso_3syn4expr8printingNtB7_8ExprLoopNtNtCs4EAaWzSXu1l_5quote9to_tokens8ToTokens9to_tokens, symObjAddr: 0xB4D0, symBinAddr: 0x442F4, symSize: 0x78 }
  - { offset: 0xA7E88, size: 0x8, addend: 0x0, symName: __RNvXsj_NtNtCsc29TF2YcYso_3syn4expr8printingNtB7_9ExprMacroNtNtCs4EAaWzSXu1l_5quote9to_tokens8ToTokens9to_tokens, symObjAddr: 0xB548, symBinAddr: 0x4436C, symSize: 0x54 }
  - { offset: 0xA7EC7, size: 0x8, addend: 0x0, symName: __RNvXsk_NtNtCsc29TF2YcYso_3syn4expr8printingNtB7_9ExprMatchNtNtCs4EAaWzSXu1l_5quote9to_tokens8ToTokens9to_tokens, symObjAddr: 0xB59C, symBinAddr: 0x443C0, symSize: 0xD4 }
  - { offset: 0xA7F06, size: 0x8, addend: 0x0, symName: __RNvXsl_NtNtCsc29TF2YcYso_3syn4expr8printingNtB7_14ExprMethodCallNtNtCs4EAaWzSXu1l_5quote9to_tokens8ToTokens9to_tokens, symObjAddr: 0xB670, symBinAddr: 0x44494, symSize: 0x58 }
  - { offset: 0xA7F45, size: 0x8, addend: 0x0, symName: __RNvXsm_NtNtCsc29TF2YcYso_3syn4expr8printingNtB7_9ExprParenNtNtCs4EAaWzSXu1l_5quote9to_tokens8ToTokens9to_tokens, symObjAddr: 0xB6C8, symBinAddr: 0x444EC, symSize: 0x58 }
  - { offset: 0xA7F84, size: 0x8, addend: 0x0, symName: __RNvXsn_NtNtCsc29TF2YcYso_3syn4expr8printingNtB7_8ExprPathNtNtCs4EAaWzSXu1l_5quote9to_tokens8ToTokens9to_tokens, symObjAddr: 0xB720, symBinAddr: 0x44544, symSize: 0x64 }
  - { offset: 0xA7FC3, size: 0x8, addend: 0x0, symName: __RNvXso_NtNtCsc29TF2YcYso_3syn4expr8printingNtB7_9ExprRangeNtNtCs4EAaWzSXu1l_5quote9to_tokens8ToTokens9to_tokens, symObjAddr: 0xB784, symBinAddr: 0x445A8, symSize: 0x58 }
  - { offset: 0xA8002, size: 0x8, addend: 0x0, symName: __RNvXsp_NtNtCsc29TF2YcYso_3syn4expr8printingNtB7_11ExprRawAddrNtNtCs4EAaWzSXu1l_5quote9to_tokens8ToTokens9to_tokens, symObjAddr: 0xB7DC, symBinAddr: 0x44600, symSize: 0x58 }
  - { offset: 0xA8041, size: 0x8, addend: 0x0, symName: __RNvXsq_NtNtCsc29TF2YcYso_3syn4expr8printingNtB7_13ExprReferenceNtNtCs4EAaWzSXu1l_5quote9to_tokens8ToTokens9to_tokens, symObjAddr: 0xB834, symBinAddr: 0x44658, symSize: 0x58 }
  - { offset: 0xA8080, size: 0x8, addend: 0x0, symName: __RNvXsr_NtNtCsc29TF2YcYso_3syn4expr8printingNtB7_10ExprRepeatNtNtCs4EAaWzSXu1l_5quote9to_tokens8ToTokens9to_tokens, symObjAddr: 0xB88C, symBinAddr: 0x446B0, symSize: 0x58 }
  - { offset: 0xA80BF, size: 0x8, addend: 0x0, symName: __RNvXss_NtNtCsc29TF2YcYso_3syn4expr8printingNtB7_10ExprReturnNtNtCs4EAaWzSXu1l_5quote9to_tokens8ToTokens9to_tokens, symObjAddr: 0xB8E4, symBinAddr: 0x44708, symSize: 0x58 }
  - { offset: 0xA80FE, size: 0x8, addend: 0x0, symName: __RNvXst_NtNtCsc29TF2YcYso_3syn4expr8printingNtB7_10ExprStructNtNtCs4EAaWzSXu1l_5quote9to_tokens8ToTokens9to_tokens, symObjAddr: 0xB93C, symBinAddr: 0x44760, symSize: 0x78 }
  - { offset: 0xA813D, size: 0x8, addend: 0x0, symName: __RNvXsu_NtNtCsc29TF2YcYso_3syn4expr8printingNtB7_7ExprTryNtNtCs4EAaWzSXu1l_5quote9to_tokens8ToTokens9to_tokens, symObjAddr: 0xB9B4, symBinAddr: 0x447D8, symSize: 0x58 }
  - { offset: 0xA817C, size: 0x8, addend: 0x0, symName: __RNvXsv_NtNtCsc29TF2YcYso_3syn4expr8printingNtB7_12ExprTryBlockNtNtCs4EAaWzSXu1l_5quote9to_tokens8ToTokens9to_tokens, symObjAddr: 0xBA0C, symBinAddr: 0x44830, symSize: 0x64 }
  - { offset: 0xA81BB, size: 0x8, addend: 0x0, symName: __RNvXsw_NtNtCsc29TF2YcYso_3syn4expr8printingNtB7_9ExprTupleNtNtCs4EAaWzSXu1l_5quote9to_tokens8ToTokens9to_tokens, symObjAddr: 0xBA70, symBinAddr: 0x44894, symSize: 0x58 }
  - { offset: 0xA81FA, size: 0x8, addend: 0x0, symName: __RNvXsx_NtNtCsc29TF2YcYso_3syn4expr8printingNtB7_9ExprUnaryNtNtCs4EAaWzSXu1l_5quote9to_tokens8ToTokens9to_tokens, symObjAddr: 0xBAC8, symBinAddr: 0x448EC, symSize: 0x58 }
  - { offset: 0xA8239, size: 0x8, addend: 0x0, symName: __RNvXsy_NtNtCsc29TF2YcYso_3syn4expr8printingNtB7_10ExprUnsafeNtNtCs4EAaWzSXu1l_5quote9to_tokens8ToTokens9to_tokens, symObjAddr: 0xBB20, symBinAddr: 0x44944, symSize: 0x68 }
  - { offset: 0xA8278, size: 0x8, addend: 0x0, symName: __RNvXsz_NtNtCsc29TF2YcYso_3syn4expr8printingNtB7_9ExprWhileNtNtCs4EAaWzSXu1l_5quote9to_tokens8ToTokens9to_tokens, symObjAddr: 0xBB88, symBinAddr: 0x449AC, symSize: 0xE4 }
  - { offset: 0xA82B7, size: 0x8, addend: 0x0, symName: __RNvXsA_NtNtCsc29TF2YcYso_3syn4expr8printingNtB7_9ExprYieldNtNtCs4EAaWzSXu1l_5quote9to_tokens8ToTokens9to_tokens, symObjAddr: 0xBC6C, symBinAddr: 0x44A90, symSize: 0x58 }
  - { offset: 0xA82F6, size: 0x8, addend: 0x0, symName: __RNvXsB_NtNtCsc29TF2YcYso_3syn4expr8printingNtB7_3ArmNtNtCs4EAaWzSXu1l_5quote9to_tokens8ToTokens9to_tokens, symObjAddr: 0xBCC4, symBinAddr: 0x44AE8, symSize: 0x14C }
  - { offset: 0xA8363, size: 0x8, addend: 0x0, symName: __RNvXsC_NtNtCsc29TF2YcYso_3syn4expr8printingNtB7_10FieldValueNtNtCs4EAaWzSXu1l_5quote9to_tokens8ToTokens9to_tokens, symObjAddr: 0xBE10, symBinAddr: 0x44C34, symSize: 0xB4 }
  - { offset: 0xA83C0, size: 0x8, addend: 0x0, symName: __RNvXsD_NtNtCsc29TF2YcYso_3syn4expr8printingNtB7_5IndexNtNtCs4EAaWzSXu1l_5quote9to_tokens8ToTokens9to_tokens, symObjAddr: 0xBEC4, symBinAddr: 0x44CE8, symSize: 0xD4 }
  - { offset: 0xA8415, size: 0x8, addend: 0x0, symName: __RNvXsE_NtNtCsc29TF2YcYso_3syn4expr8printingNtB7_5LabelNtNtCs4EAaWzSXu1l_5quote9to_tokens8ToTokens9to_tokens, symObjAddr: 0xBF98, symBinAddr: 0x44DBC, symSize: 0x50 }
  - { offset: 0xA8454, size: 0x8, addend: 0x0, symName: __RNvXsF_NtNtCsc29TF2YcYso_3syn4expr8printingNtB7_6MemberNtNtCs4EAaWzSXu1l_5quote9to_tokens8ToTokens9to_tokens, symObjAddr: 0xBFE8, symBinAddr: 0x44E0C, symSize: 0x98 }
  - { offset: 0xA84C7, size: 0x8, addend: 0x0, symName: __RNvXsG_NtNtCsc29TF2YcYso_3syn4expr8printingNtB7_11RangeLimitsNtNtCs4EAaWzSXu1l_5quote9to_tokens8ToTokens9to_tokens, symObjAddr: 0xC080, symBinAddr: 0x44EA4, symSize: 0x9C }
  - { offset: 0xA853A, size: 0x8, addend: 0x0, symName: __RNvXsH_NtNtCsc29TF2YcYso_3syn4expr8printingNtB7_17PointerMutabilityNtNtCs4EAaWzSXu1l_5quote9to_tokens8ToTokens9to_tokens, symObjAddr: 0xC11C, symBinAddr: 0x44F40, symSize: 0x9C }
  - { offset: 0xA85B3, size: 0x8, addend: 0x0, symName: __RNcNtNtNtCsc29TF2YcYso_3syn4expr4Expr5Async0B7_, symObjAddr: 0xC1B8, symBinAddr: 0x44FDC, symSize: 0x3C }
  - { offset: 0xA85E2, size: 0x8, addend: 0x0, symName: __RNcNtNtNtCsc29TF2YcYso_3syn4expr4Expr5Block0B7_, symObjAddr: 0xC1F4, symBinAddr: 0x45018, symSize: 0x3C }
  - { offset: 0xA8611, size: 0x8, addend: 0x0, symName: __RNcNtNtNtCsc29TF2YcYso_3syn4expr4Expr5Break0B7_, symObjAddr: 0xC230, symBinAddr: 0x45054, symSize: 0x3C }
  - { offset: 0xA8640, size: 0x8, addend: 0x0, symName: __RNcNtNtNtCsc29TF2YcYso_3syn4expr4Expr7Closure0B7_, symObjAddr: 0xC26C, symBinAddr: 0x45090, symSize: 0x3C }
  - { offset: 0xA866F, size: 0x8, addend: 0x0, symName: __RNcNtNtNtCsc29TF2YcYso_3syn4expr4Expr5Const0B7_, symObjAddr: 0xC2A8, symBinAddr: 0x450CC, symSize: 0x3C }
  - { offset: 0xA869E, size: 0x8, addend: 0x0, symName: __RNcNtNtNtCsc29TF2YcYso_3syn4expr4Expr8Continue0B7_, symObjAddr: 0xC2E4, symBinAddr: 0x45108, symSize: 0x3C }
  - { offset: 0xA86CD, size: 0x8, addend: 0x0, symName: __RNcNtNtNtCsc29TF2YcYso_3syn4expr4Expr7ForLoop0B7_, symObjAddr: 0xC320, symBinAddr: 0x45144, symSize: 0x3C }
  - { offset: 0xA86FC, size: 0x8, addend: 0x0, symName: __RNcNtNtNtCsc29TF2YcYso_3syn4expr4Expr2If0B7_, symObjAddr: 0xC35C, symBinAddr: 0x45180, symSize: 0x3C }
  - { offset: 0xA872B, size: 0x8, addend: 0x0, symName: __RNcNtNtNtCsc29TF2YcYso_3syn4expr4Expr5Infer0B7_, symObjAddr: 0xC398, symBinAddr: 0x451BC, symSize: 0x20 }
  - { offset: 0xA8759, size: 0x8, addend: 0x0, symName: __RNcNtNtNtCsc29TF2YcYso_3syn4expr4Expr3Let0B7_, symObjAddr: 0xC3B8, symBinAddr: 0x451DC, symSize: 0x3C }
  - { offset: 0xA8788, size: 0x8, addend: 0x0, symName: __RNcNtNtNtCsc29TF2YcYso_3syn4expr4Expr3Lit0B7_, symObjAddr: 0xC3F4, symBinAddr: 0x45218, symSize: 0x3C }
  - { offset: 0xA87B7, size: 0x8, addend: 0x0, symName: __RNcNtNtNtCsc29TF2YcYso_3syn4expr4Expr4Loop0B7_, symObjAddr: 0xC430, symBinAddr: 0x45254, symSize: 0x3C }
  - { offset: 0xA87E6, size: 0x8, addend: 0x0, symName: __RNcNtNtNtCsc29TF2YcYso_3syn4expr4Expr5Match0B7_, symObjAddr: 0xC46C, symBinAddr: 0x45290, symSize: 0x3C }
  - { offset: 0xA8815, size: 0x8, addend: 0x0, symName: __RNcNtNtNtCsc29TF2YcYso_3syn4expr4Expr5Range0B7_, symObjAddr: 0xC4A8, symBinAddr: 0x452CC, symSize: 0x3C }
  - { offset: 0xA8844, size: 0x8, addend: 0x0, symName: __RNcNtNtNtCsc29TF2YcYso_3syn4expr4Expr6Return0B7_, symObjAddr: 0xC4E4, symBinAddr: 0x45308, symSize: 0x3C }
  - { offset: 0xA8873, size: 0x8, addend: 0x0, symName: __RNcNtNtNtCsc29TF2YcYso_3syn4expr4Expr6Struct0B7_, symObjAddr: 0xC520, symBinAddr: 0x45344, symSize: 0x3C }
  - { offset: 0xA88A2, size: 0x8, addend: 0x0, symName: __RNcNtNtNtCsc29TF2YcYso_3syn4expr4Expr8TryBlock0B7_, symObjAddr: 0xC55C, symBinAddr: 0x45380, symSize: 0x3C }
  - { offset: 0xA88D1, size: 0x8, addend: 0x0, symName: __RNcNtNtNtCsc29TF2YcYso_3syn4expr4Expr5Unary0B7_, symObjAddr: 0xC598, symBinAddr: 0x453BC, symSize: 0x3C }
  - { offset: 0xA8900, size: 0x8, addend: 0x0, symName: __RNcNtNtNtCsc29TF2YcYso_3syn4expr4Expr6Unsafe0B7_, symObjAddr: 0xC5D4, symBinAddr: 0x453F8, symSize: 0x3C }
  - { offset: 0xA892F, size: 0x8, addend: 0x0, symName: __RNcNtNtNtCsc29TF2YcYso_3syn4expr4Expr5While0B7_, symObjAddr: 0xC610, symBinAddr: 0x45434, symSize: 0x3C }
  - { offset: 0xA895E, size: 0x8, addend: 0x0, symName: __RNcNtNtNtCsc29TF2YcYso_3syn4expr4Expr5Yield0B7_, symObjAddr: 0xC64C, symBinAddr: 0x45470, symSize: 0x3C }
  - { offset: 0xA898E, size: 0x8, addend: 0x0, symName: __RNvXsP_NtCsc29TF2YcYso_3syn4exprNtB5_4ExprNtNtCs4EAaWzSXu1l_5quote9to_tokens8ToTokens9to_tokens, symObjAddr: 0xD200, symBinAddr: 0x454AC, symSize: 0x4CC }
  - { offset: 0xA8E77, size: 0x8, addend: 0x0, symName: __RNcNtNtNtCsc29TF2YcYso_3syn4expr6Member5Named0B7_, symObjAddr: 0xD6CC, symBinAddr: 0x45978, symSize: 0x18 }
  - { offset: 0xA8EA7, size: 0x8, addend: 0x0, symName: __RNcNtNtNtCsc29TF2YcYso_3syn4expr6Member7Unnamed0B7_, symObjAddr: 0xD6E4, symBinAddr: 0x45990, symSize: 0x28 }
  - { offset: 0xA8EDD, size: 0x8, addend: 0x0, symName: __RNcNtNtNtCsc29TF2YcYso_3syn4expr11RangeLimits8HalfOpen0B7_, symObjAddr: 0xD70C, symBinAddr: 0x459B8, symSize: 0x24 }
  - { offset: 0xA8F0D, size: 0x8, addend: 0x0, symName: __RNcNtNtNtCsc29TF2YcYso_3syn4expr11RangeLimits6Closed0B7_, symObjAddr: 0xD730, symBinAddr: 0x459DC, symSize: 0x20 }
  - { offset: 0xAB8C5, size: 0x8, addend: 0x0, symName: __RNvXs0_NtNtCsc29TF2YcYso_3syn3gen5cloneNtNtB9_4expr3ArmNtNtCsaNl6UpbT7bw_4core5clone5Clone5clone, symObjAddr: 0x10720, symBinAddr: 0x459FC, symSize: 0x1BC }
  - { offset: 0xAB8F7, size: 0x8, addend: 0x0, symName: __RNvXsk_NtNtCsc29TF2YcYso_3syn3gen5cloneNtNtB9_4expr4ExprNtNtCsaNl6UpbT7bw_4core5clone5Clone5clone, symObjAddr: 0x108DC, symBinAddr: 0x45BB8, symSize: 0xE1C }
  - { offset: 0xABDEC, size: 0x8, addend: 0x0, symName: __RNvXsl_NtNtCsc29TF2YcYso_3syn3gen5cloneNtNtB9_4expr9ExprArrayNtNtCsaNl6UpbT7bw_4core5clone5Clone5clone, symObjAddr: 0x116F8, symBinAddr: 0x469D4, symSize: 0xC8 }
  - { offset: 0xABE20, size: 0x8, addend: 0x0, symName: __RNvXsm_NtNtCsc29TF2YcYso_3syn3gen5cloneNtNtB9_4expr10ExprAssignNtNtCsaNl6UpbT7bw_4core5clone5Clone5clone, symObjAddr: 0x117C0, symBinAddr: 0x46A9C, symSize: 0x108 }
  - { offset: 0xABE54, size: 0x8, addend: 0x0, symName: __RNvXsn_NtNtCsc29TF2YcYso_3syn3gen5cloneNtNtB9_4expr9ExprAsyncNtNtCsaNl6UpbT7bw_4core5clone5Clone5clone, symObjAddr: 0x118C8, symBinAddr: 0x46BA4, symSize: 0xEC }
  - { offset: 0xABE88, size: 0x8, addend: 0x0, symName: __RNvXso_NtNtCsc29TF2YcYso_3syn3gen5cloneNtNtB9_4expr9ExprAwaitNtNtCsaNl6UpbT7bw_4core5clone5Clone5clone, symObjAddr: 0x119B4, symBinAddr: 0x46C90, symSize: 0x108 }
  - { offset: 0xABEBC, size: 0x8, addend: 0x0, symName: __RNvXsp_NtNtCsc29TF2YcYso_3syn3gen5cloneNtNtB9_4expr10ExprBinaryNtNtCsaNl6UpbT7bw_4core5clone5Clone5clone, symObjAddr: 0x11ABC, symBinAddr: 0x46D98, symSize: 0xF8 }
  - { offset: 0xABEF0, size: 0x8, addend: 0x0, symName: __RNvXsq_NtNtCsc29TF2YcYso_3syn3gen5cloneNtNtB9_4expr9ExprBlockNtNtCsaNl6UpbT7bw_4core5clone5Clone5clone, symObjAddr: 0x11BB4, symBinAddr: 0x46E90, symSize: 0xF0 }
  - { offset: 0xABF24, size: 0x8, addend: 0x0, symName: __RNvXsr_NtNtCsc29TF2YcYso_3syn3gen5cloneNtNtB9_4expr9ExprBreakNtNtCsaNl6UpbT7bw_4core5clone5Clone5clone, symObjAddr: 0x11CA4, symBinAddr: 0x46F80, symSize: 0xF8 }
  - { offset: 0xABF58, size: 0x8, addend: 0x0, symName: __RNvXss_NtNtCsc29TF2YcYso_3syn3gen5cloneNtNtB9_4expr8ExprCallNtNtCsaNl6UpbT7bw_4core5clone5Clone5clone, symObjAddr: 0x11D9C, symBinAddr: 0x47078, symSize: 0x108 }
  - { offset: 0xABF8C, size: 0x8, addend: 0x0, symName: __RNvXst_NtNtCsc29TF2YcYso_3syn3gen5cloneNtNtB9_4expr8ExprCastNtNtCsaNl6UpbT7bw_4core5clone5Clone5clone, symObjAddr: 0x11EA4, symBinAddr: 0x47180, symSize: 0xF8 }
  - { offset: 0xABFC0, size: 0x8, addend: 0x0, symName: __RNvXsu_NtNtCsc29TF2YcYso_3syn3gen5cloneNtNtB9_4expr11ExprClosureNtNtCsaNl6UpbT7bw_4core5clone5Clone5clone, symObjAddr: 0x11F9C, symBinAddr: 0x47278, symSize: 0x25C }
  - { offset: 0xABFF4, size: 0x8, addend: 0x0, symName: __RNvXsv_NtNtCsc29TF2YcYso_3syn3gen5cloneNtNtB9_4expr9ExprConstNtNtCsaNl6UpbT7bw_4core5clone5Clone5clone, symObjAddr: 0x121F8, symBinAddr: 0x474D4, symSize: 0xC4 }
  - { offset: 0xAC028, size: 0x8, addend: 0x0, symName: __RNvXsw_NtNtCsc29TF2YcYso_3syn3gen5cloneNtNtB9_4expr12ExprContinueNtNtCsaNl6UpbT7bw_4core5clone5Clone5clone, symObjAddr: 0x122BC, symBinAddr: 0x47598, symSize: 0xC0 }
  - { offset: 0xAC05C, size: 0x8, addend: 0x0, symName: __RNvXsx_NtNtCsc29TF2YcYso_3syn3gen5cloneNtNtB9_4expr9ExprFieldNtNtCsaNl6UpbT7bw_4core5clone5Clone5clone, symObjAddr: 0x1237C, symBinAddr: 0x47658, symSize: 0x110 }
  - { offset: 0xAC090, size: 0x8, addend: 0x0, symName: __RNvXsy_NtNtCsc29TF2YcYso_3syn3gen5cloneNtNtB9_4expr11ExprForLoopNtNtCsaNl6UpbT7bw_4core5clone5Clone5clone, symObjAddr: 0x1248C, symBinAddr: 0x47768, symSize: 0x1A8 }
  - { offset: 0xAC0C4, size: 0x8, addend: 0x0, symName: __RNvXsz_NtNtCsc29TF2YcYso_3syn3gen5cloneNtNtB9_4expr9ExprGroupNtNtCsaNl6UpbT7bw_4core5clone5Clone5clone, symObjAddr: 0x12634, symBinAddr: 0x47910, symSize: 0xB8 }
  - { offset: 0xAC0F8, size: 0x8, addend: 0x0, symName: __RNvXsA_NtNtCsc29TF2YcYso_3syn3gen5cloneNtNtB9_4expr6ExprIfNtNtCsaNl6UpbT7bw_4core5clone5Clone5clone, symObjAddr: 0x126EC, symBinAddr: 0x479C8, symSize: 0x14C }
  - { offset: 0xAC12C, size: 0x8, addend: 0x0, symName: __RNvXsB_NtNtCsc29TF2YcYso_3syn3gen5cloneNtNtB9_4expr9ExprIndexNtNtCsaNl6UpbT7bw_4core5clone5Clone5clone, symObjAddr: 0x12838, symBinAddr: 0x47B14, symSize: 0x100 }
  - { offset: 0xAC160, size: 0x8, addend: 0x0, symName: __RNvXsC_NtNtCsc29TF2YcYso_3syn3gen5cloneNtNtB9_4expr9ExprInferNtNtCsaNl6UpbT7bw_4core5clone5Clone5clone, symObjAddr: 0x12938, symBinAddr: 0x47C14, symSize: 0xAC }
  - { offset: 0xAC194, size: 0x8, addend: 0x0, symName: __RNvXsD_NtNtCsc29TF2YcYso_3syn3gen5cloneNtNtB9_4expr7ExprLetNtNtCsaNl6UpbT7bw_4core5clone5Clone5clone, symObjAddr: 0x129E4, symBinAddr: 0x47CC0, symSize: 0x124 }
  - { offset: 0xAC1C8, size: 0x8, addend: 0x0, symName: __RNvXsE_NtNtCsc29TF2YcYso_3syn3gen5cloneNtNtB9_4expr7ExprLitNtNtCsaNl6UpbT7bw_4core5clone5Clone5clone, symObjAddr: 0x12B08, symBinAddr: 0x47DE4, symSize: 0xA4 }
  - { offset: 0xAC1FC, size: 0x8, addend: 0x0, symName: __RNvXsF_NtNtCsc29TF2YcYso_3syn3gen5cloneNtNtB9_4expr8ExprLoopNtNtCsaNl6UpbT7bw_4core5clone5Clone5clone, symObjAddr: 0x12BAC, symBinAddr: 0x47E88, symSize: 0x10C }
  - { offset: 0xAC230, size: 0x8, addend: 0x0, symName: __RNvXsG_NtNtCsc29TF2YcYso_3syn3gen5cloneNtNtB9_4expr9ExprMacroNtNtCsaNl6UpbT7bw_4core5clone5Clone5clone, symObjAddr: 0x12CB8, symBinAddr: 0x47F94, symSize: 0xA8 }
  - { offset: 0xAC264, size: 0x8, addend: 0x0, symName: __RNvXsH_NtNtCsc29TF2YcYso_3syn3gen5cloneNtNtB9_4expr9ExprMatchNtNtCsaNl6UpbT7bw_4core5clone5Clone5clone, symObjAddr: 0x12D60, symBinAddr: 0x4803C, symSize: 0x12C }
  - { offset: 0xAC298, size: 0x8, addend: 0x0, symName: __RNvXsI_NtNtCsc29TF2YcYso_3syn3gen5cloneNtNtB9_4expr14ExprMethodCallNtNtCsaNl6UpbT7bw_4core5clone5Clone5clone, symObjAddr: 0x12E8C, symBinAddr: 0x48168, symSize: 0x1D0 }
  - { offset: 0xAC2CC, size: 0x8, addend: 0x0, symName: __RNvXsJ_NtNtCsc29TF2YcYso_3syn3gen5cloneNtNtB9_4expr9ExprParenNtNtCsaNl6UpbT7bw_4core5clone5Clone5clone, symObjAddr: 0x1305C, symBinAddr: 0x48338, symSize: 0xC0 }
  - { offset: 0xAC300, size: 0x8, addend: 0x0, symName: __RNvXsK_NtNtCsc29TF2YcYso_3syn3gen5cloneNtNtB9_4expr8ExprPathNtNtCsaNl6UpbT7bw_4core5clone5Clone5clone, symObjAddr: 0x1311C, symBinAddr: 0x483F8, symSize: 0xE8 }
  - { offset: 0xAC334, size: 0x8, addend: 0x0, symName: __RNvXsL_NtNtCsc29TF2YcYso_3syn3gen5cloneNtNtB9_4expr9ExprRangeNtNtCsaNl6UpbT7bw_4core5clone5Clone5clone, symObjAddr: 0x13204, symBinAddr: 0x484E0, symSize: 0xF8 }
  - { offset: 0xAC368, size: 0x8, addend: 0x0, symName: __RNvXsM_NtNtCsc29TF2YcYso_3syn3gen5cloneNtNtB9_4expr11ExprRawAddrNtNtCsaNl6UpbT7bw_4core5clone5Clone5clone, symObjAddr: 0x132FC, symBinAddr: 0x485D8, symSize: 0x10C }
  - { offset: 0xAC39C, size: 0x8, addend: 0x0, symName: __RNvXsN_NtNtCsc29TF2YcYso_3syn3gen5cloneNtNtB9_4expr13ExprReferenceNtNtCsaNl6UpbT7bw_4core5clone5Clone5clone, symObjAddr: 0x13408, symBinAddr: 0x486E4, symSize: 0xF0 }
  - { offset: 0xAC3D0, size: 0x8, addend: 0x0, symName: __RNvXsO_NtNtCsc29TF2YcYso_3syn3gen5cloneNtNtB9_4expr10ExprRepeatNtNtCsaNl6UpbT7bw_4core5clone5Clone5clone, symObjAddr: 0x134F8, symBinAddr: 0x487D4, symSize: 0x12C }
  - { offset: 0xAC404, size: 0x8, addend: 0x0, symName: __RNvXsP_NtNtCsc29TF2YcYso_3syn3gen5cloneNtNtB9_4expr10ExprReturnNtNtCsaNl6UpbT7bw_4core5clone5Clone5clone, symObjAddr: 0x13624, symBinAddr: 0x48900, symSize: 0xB8 }
  - { offset: 0xAC438, size: 0x8, addend: 0x0, symName: __RNvXsQ_NtNtCsc29TF2YcYso_3syn3gen5cloneNtNtB9_4expr10ExprStructNtNtCsaNl6UpbT7bw_4core5clone5Clone5clone, symObjAddr: 0x136DC, symBinAddr: 0x489B8, symSize: 0x1B8 }
  - { offset: 0xAC46C, size: 0x8, addend: 0x0, symName: __RNvXsR_NtNtCsc29TF2YcYso_3syn3gen5cloneNtNtB9_4expr7ExprTryNtNtCsaNl6UpbT7bw_4core5clone5Clone5clone, symObjAddr: 0x13894, symBinAddr: 0x48B70, symSize: 0xEC }
  - { offset: 0xAC4A0, size: 0x8, addend: 0x0, symName: __RNvXsS_NtNtCsc29TF2YcYso_3syn3gen5cloneNtNtB9_4expr12ExprTryBlockNtNtCsaNl6UpbT7bw_4core5clone5Clone5clone, symObjAddr: 0x13980, symBinAddr: 0x48C5C, symSize: 0xC4 }
  - { offset: 0xAC4D4, size: 0x8, addend: 0x0, symName: __RNvXsT_NtNtCsc29TF2YcYso_3syn3gen5cloneNtNtB9_4expr9ExprTupleNtNtCsaNl6UpbT7bw_4core5clone5Clone5clone, symObjAddr: 0x13A44, symBinAddr: 0x48D20, symSize: 0xC8 }
  - { offset: 0xAC508, size: 0x8, addend: 0x0, symName: __RNvXsU_NtNtCsc29TF2YcYso_3syn3gen5cloneNtNtB9_4expr9ExprUnaryNtNtCsaNl6UpbT7bw_4core5clone5Clone5clone, symObjAddr: 0x13B0C, symBinAddr: 0x48DE8, symSize: 0xC8 }
  - { offset: 0xAC53C, size: 0x8, addend: 0x0, symName: __RNvXsV_NtNtCsc29TF2YcYso_3syn3gen5cloneNtNtB9_4expr10ExprUnsafeNtNtCsaNl6UpbT7bw_4core5clone5Clone5clone, symObjAddr: 0x13BD4, symBinAddr: 0x48EB0, symSize: 0xC4 }
  - { offset: 0xAC570, size: 0x8, addend: 0x0, symName: __RNvXsW_NtNtCsc29TF2YcYso_3syn3gen5cloneNtNtB9_4expr9ExprWhileNtNtCsaNl6UpbT7bw_4core5clone5Clone5clone, symObjAddr: 0x13C98, symBinAddr: 0x48F74, symSize: 0x14C }
  - { offset: 0xAC5A4, size: 0x8, addend: 0x0, symName: __RNvXsX_NtNtCsc29TF2YcYso_3syn3gen5cloneNtNtB9_4expr9ExprYieldNtNtCsaNl6UpbT7bw_4core5clone5Clone5clone, symObjAddr: 0x13DE4, symBinAddr: 0x490C0, symSize: 0xB8 }
  - { offset: 0xAC5D8, size: 0x8, addend: 0x0, symName: __RNvXs11_NtNtCsc29TF2YcYso_3syn3gen5cloneNtNtBa_4expr10FieldValueNtNtCsaNl6UpbT7bw_4core5clone5Clone5clone, symObjAddr: 0x13E9C, symBinAddr: 0x49178, symSize: 0x118 }
  - { offset: 0xAC60C, size: 0x8, addend: 0x0, symName: __RNvXs1l_NtNtCsc29TF2YcYso_3syn3gen5cloneNtNtBa_4expr5IndexNtNtCsaNl6UpbT7bw_4core5clone5Clone5clone, symObjAddr: 0x13FB4, symBinAddr: 0x49290, symSize: 0x48 }
  - { offset: 0xAC640, size: 0x8, addend: 0x0, symName: __RNvXs1C_NtNtCsc29TF2YcYso_3syn3gen5cloneNtNtBa_4expr5LabelNtNtCsaNl6UpbT7bw_4core5clone5Clone5clone, symObjAddr: 0x13FFC, symBinAddr: 0x492D8, symSize: 0xA4 }
  - { offset: 0xAC674, size: 0x8, addend: 0x0, symName: __RNvXs1K_NtNtCsc29TF2YcYso_3syn3gen5cloneNtNtBa_4expr6MemberNtNtCsaNl6UpbT7bw_4core5clone5Clone5clone, symObjAddr: 0x140A0, symBinAddr: 0x4937C, symSize: 0xB8 }
  - { offset: 0xAC6DC, size: 0x8, addend: 0x0, symName: __RNvXs24_NtNtCsc29TF2YcYso_3syn3gen5cloneNtNtBa_4expr17PointerMutabilityNtNtCsaNl6UpbT7bw_4core5clone5Clone5clone, symObjAddr: 0x14158, symBinAddr: 0x49434, symSize: 0xA8 }
  - { offset: 0xAC744, size: 0x8, addend: 0x0, symName: __RNvXs2a_NtNtCsc29TF2YcYso_3syn3gen5cloneNtNtBa_4expr11RangeLimitsNtNtCsaNl6UpbT7bw_4core5clone5Clone5clone, symObjAddr: 0x14200, symBinAddr: 0x494DC, symSize: 0x2C }
  - { offset: 0xAFC4B, size: 0x8, addend: 0x0, symName: __RNvMNtCsaNl6UpbT7bw_4core5sliceSNtNtCsc29TF2YcYso_3syn4expr3Arm4iterBy_, symObjAddr: 0xA5C, symBinAddr: 0x3C754, symSize: 0x28 }
  - { offset: 0xAFC82, size: 0x8, addend: 0x0, symName: __RNvMNtCsaNl6UpbT7bw_4core5sliceSTNtNtCsc29TF2YcYso_3syn4expr10FieldValueNtNtBz_5token5CommaE4iterBz_, symObjAddr: 0xA84, symBinAddr: 0x3C77C, symSize: 0x28 }
  - { offset: 0xAFCB9, size: 0x8, addend: 0x0, symName: __RNvMNtCsaNl6UpbT7bw_4core5sliceSTNtNtCsc29TF2YcYso_3syn4expr4ExprNtNtBz_5token5CommaE4iterBz_, symObjAddr: 0xAAC, symBinAddr: 0x3C7A4, symSize: 0x28 }
  - { offset: 0xB006D, size: 0x8, addend: 0x0, symName: __RNvXNtNtCsaNl6UpbT7bw_4core5clone6uninitNtNtCsc29TF2YcYso_3syn4expr10FieldValueNtB2_8CopySpec9clone_oneBG_, symObjAddr: 0xB54, symBinAddr: 0x3C84C, symSize: 0x50 }
  - { offset: 0xB00D1, size: 0x8, addend: 0x0, symName: __RNvXNtNtCsaNl6UpbT7bw_4core5clone6uninitNtNtCsc29TF2YcYso_3syn4expr4ExprNtB2_8CopySpec9clone_oneBG_, symObjAddr: 0xBA4, symBinAddr: 0x3C89C, symSize: 0x48 }
  - { offset: 0xB1FB0, size: 0x8, addend: 0x0, symName: __RNvXNtCs4EAaWzSXu1l_5quote9to_tokensRNtNtCsc29TF2YcYso_3syn4expr10FieldValueNtB2_8ToTokens9to_tokensBD_, symObjAddr: 0xAD4, symBinAddr: 0x3C7CC, symSize: 0x40 }
  - { offset: 0xB1FEF, size: 0x8, addend: 0x0, symName: __RNvXNtCs4EAaWzSXu1l_5quote9to_tokensRNtNtCsc29TF2YcYso_3syn4expr4ExprNtB2_8ToTokens9to_tokensBD_, symObjAddr: 0xB14, symBinAddr: 0x3C80C, symSize: 0x40 }
  - { offset: 0xB20A7, size: 0x8, addend: 0x0, symName: __RNvMNtCsc29TF2YcYso_3syn4exprNtB2_4Expr25parse_without_eager_brace, symObjAddr: 0x1C7C, symBinAddr: 0x3C8E4, symSize: 0x3C }
  - { offset: 0xB20CA, size: 0x8, addend: 0x0, symName: __RNvMNtCsc29TF2YcYso_3syn4exprNtB2_4Expr32parse_with_earlier_boundary_rule, symObjAddr: 0x1CB8, symBinAddr: 0x3C920, symSize: 0x34 }
  - { offset: 0xB20ED, size: 0x8, addend: 0x0, symName: __RNvMNtCsc29TF2YcYso_3syn4exprNtB2_4Expr4peek, symObjAddr: 0x1CEC, symBinAddr: 0x3C954, symSize: 0x408 }
  - { offset: 0xB211D, size: 0x8, addend: 0x0, symName: __RNvMNtCsc29TF2YcYso_3syn4exprNtB2_4Expr13replace_attrs, symObjAddr: 0x20F4, symBinAddr: 0x3CD5C, symSize: 0x678 }
  - { offset: 0xB2173, size: 0x8, addend: 0x0, symName: __RNvMs6_NtCsc29TF2YcYso_3syn4exprNtB5_6Member8is_named, symObjAddr: 0x2A78, symBinAddr: 0x3D3D4, symSize: 0x6C }
  - { offset: 0xB21CE, size: 0x8, addend: 0x0, symName: __RNvMsv_NtNtCsc29TF2YcYso_3syn4expr7parsingNtB7_11RangeLimits14parse_obsolete, symObjAddr: 0x94A0, symBinAddr: 0x4257C, symSize: 0x334 }
  - { offset: 0xB2289, size: 0x8, addend: 0x0, symName: __RNvMsy_NtNtCsc29TF2YcYso_3syn4expr7parsingNtB7_3Arm14parse_multiple, symObjAddr: 0x9B08, symBinAddr: 0x42BE4, symSize: 0x1C4 }
  - { offset: 0xB2678, size: 0x8, addend: 0x0, symName: __RINvMsv_NtCshnvkK9b4wzu_11proc_macro23impNtB6_7Literal7subspanINtNtNtCsaNl6UpbT7bw_4core3ops5range5RangejEECsc29TF2YcYso_3syn, symObjAddr: 0x0, symBinAddr: 0x49508, symSize: 0xD4 }
  - { offset: 0xB2E74, size: 0x8, addend: 0x0, symName: __RNvXs0_NtCsc29TF2YcYso_3syn5tokenNtNtNtB7_3ext7private8IdentAnyNtB5_5Token4peekB7_, symObjAddr: 0x5D64, symBinAddr: 0x4E404, symSize: 0x3C }
  - { offset: 0xB3776, size: 0x8, addend: 0x0, symName: __RNvXNtCsc29TF2YcYso_3syn4pathNtB2_4PathINtNtCsaNl6UpbT7bw_4core7convert4FromNtCshnvkK9b4wzu_11proc_macro25IdentE4fromB4_, symObjAddr: 0x7394, symBinAddr: 0x4F9F0, symSize: 0x118 }
  - { offset: 0xB37C7, size: 0x8, addend: 0x0, symName: __RNvXs0_NtCsc29TF2YcYso_3syn4pathNtB5_11PathSegmentINtNtCsaNl6UpbT7bw_4core7convert4FromNtCshnvkK9b4wzu_11proc_macro25IdentE4fromB7_, symObjAddr: 0x773C, symBinAddr: 0x4FC84, symSize: 0x68 }
  - { offset: 0xB3808, size: 0x8, addend: 0x0, symName: __RNvXNtNtCsc29TF2YcYso_3syn4path7parsingNtB4_4PathNtNtB6_5parse5Parse5parse, symObjAddr: 0x7908, symBinAddr: 0x4FE30, symSize: 0x3C }
  - { offset: 0xB383C, size: 0x8, addend: 0x0, symName: __RNvXs_NtNtCsc29TF2YcYso_3syn4path7parsingNtB6_15GenericArgumentNtNtB8_5parse5Parse5parse, symObjAddr: 0x7944, symBinAddr: 0x4FE6C, symSize: 0x13C0 }
  - { offset: 0xB3B0D, size: 0x8, addend: 0x0, symName: __RNvXs1_NtNtCsc29TF2YcYso_3syn4path7parsingNtB7_30AngleBracketedGenericArgumentsNtNtB9_5parse5Parse5parse, symObjAddr: 0x926C, symBinAddr: 0x51794, symSize: 0xD8 }
  - { offset: 0xB3B7D, size: 0x8, addend: 0x0, symName: __RNvXs2_NtNtCsc29TF2YcYso_3syn4path7parsingNtB7_29ParenthesizedGenericArgumentsNtNtB9_5parse5Parse5parse, symObjAddr: 0x9344, symBinAddr: 0x5186C, symSize: 0x338 }
  - { offset: 0xB3C5E, size: 0x8, addend: 0x0, symName: __RNvXs0_NtNtCsc29TF2YcYso_3syn4path8printingNtB7_4PathNtNtCs4EAaWzSXu1l_5quote9to_tokens8ToTokens9to_tokens, symObjAddr: 0xA8AC, symBinAddr: 0x52D98, symSize: 0x54 }
  - { offset: 0xB3C9D, size: 0x8, addend: 0x0, symName: __RNvXs3_NtNtCsc29TF2YcYso_3syn4path8printingNtB7_15GenericArgumentNtNtCs4EAaWzSXu1l_5quote9to_tokens8ToTokens9to_tokens, symObjAddr: 0xA9A8, symBinAddr: 0x52DEC, symSize: 0x1A8 }
  - { offset: 0xB3D88, size: 0x8, addend: 0x0, symName: __RNvXs4_NtNtCsc29TF2YcYso_3syn4path8printingNtB7_30AngleBracketedGenericArgumentsNtNtCs4EAaWzSXu1l_5quote9to_tokens8ToTokens9to_tokens, symObjAddr: 0xAB50, symBinAddr: 0x52F94, symSize: 0x54 }
  - { offset: 0xB3DC7, size: 0x8, addend: 0x0, symName: __RNvXs5_NtNtCsc29TF2YcYso_3syn4path8printingNtB7_9AssocTypeNtNtCs4EAaWzSXu1l_5quote9to_tokens8ToTokens9to_tokens, symObjAddr: 0xABA4, symBinAddr: 0x52FE8, symSize: 0x70 }
  - { offset: 0xB3E06, size: 0x8, addend: 0x0, symName: __RNvXs6_NtNtCsc29TF2YcYso_3syn4path8printingNtB7_10AssocConstNtNtCs4EAaWzSXu1l_5quote9to_tokens8ToTokens9to_tokens, symObjAddr: 0xAC14, symBinAddr: 0x53058, symSize: 0x70 }
  - { offset: 0xB3E45, size: 0x8, addend: 0x0, symName: __RNvXs7_NtNtCsc29TF2YcYso_3syn4path8printingNtB7_10ConstraintNtNtCs4EAaWzSXu1l_5quote9to_tokens8ToTokens9to_tokens, symObjAddr: 0xAC84, symBinAddr: 0x530C8, symSize: 0x70 }
  - { offset: 0xB3E8A, size: 0x8, addend: 0x0, symName: __RNcNtNtNtCsc29TF2YcYso_3syn4path15GenericArgument5Const0B7_, symObjAddr: 0xB2B8, symBinAddr: 0x53668, symSize: 0x3C }
  - { offset: 0xB7768, size: 0x8, addend: 0x0, symName: __RNvNtNtCsc29TF2YcYso_3syn8generics7parsing26choose_generics_over_qpath, symObjAddr: 0x5F9C, symBinAddr: 0x4E5F8, symSize: 0x1F8 }
  - { offset: 0xB7796, size: 0x8, addend: 0x0, symName: __RNvNtNtCsc29TF2YcYso_3syn8generics7parsing40choose_generics_over_qpath_after_keyword, symObjAddr: 0x6194, symBinAddr: 0x4E7F0, symSize: 0x150 }
  - { offset: 0xB7DD4, size: 0x8, addend: 0x0, symName: __RNvXNtNtCsc29TF2YcYso_3syn2op7parsingNtB4_5BinOpNtNtB6_5parse5Parse5parse, symObjAddr: 0x62E4, symBinAddr: 0x4E940, symSize: 0x84C }
  - { offset: 0xB7E06, size: 0x8, addend: 0x0, symName: __RNvXs_NtNtCsc29TF2YcYso_3syn2op7parsingNtB6_4UnOpNtNtB8_5parse5Parse5parse, symObjAddr: 0x6B30, symBinAddr: 0x4F18C, symSize: 0x1F0 }
  - { offset: 0xB7E53, size: 0x8, addend: 0x0, symName: __RNvXNtNtCsc29TF2YcYso_3syn2op8printingNtB4_5BinOpNtNtCs4EAaWzSXu1l_5quote9to_tokens8ToTokens9to_tokens, symObjAddr: 0x6D20, symBinAddr: 0x4F37C, symSize: 0x598 }
  - { offset: 0xB81C7, size: 0x8, addend: 0x0, symName: __RNvXs_NtNtCsc29TF2YcYso_3syn2op8printingNtB6_4UnOpNtNtCs4EAaWzSXu1l_5quote9to_tokens8ToTokens9to_tokens, symObjAddr: 0x72B8, symBinAddr: 0x4F914, symSize: 0xDC }
  - { offset: 0xB8258, size: 0x8, addend: 0x0, symName: __RNcNtNtNtCsc29TF2YcYso_3syn2op5BinOp3Add0B7_, symObjAddr: 0xAD88, symBinAddr: 0x53138, symSize: 0x24 }
  - { offset: 0xB8286, size: 0x8, addend: 0x0, symName: __RNcNtNtNtCsc29TF2YcYso_3syn2op5BinOp3Sub0B7_, symObjAddr: 0xADAC, symBinAddr: 0x5315C, symSize: 0x2C }
  - { offset: 0xB82B4, size: 0x8, addend: 0x0, symName: __RNcNtNtNtCsc29TF2YcYso_3syn2op5BinOp3Mul0B7_, symObjAddr: 0xADD8, symBinAddr: 0x53188, symSize: 0x2C }
  - { offset: 0xB82E2, size: 0x8, addend: 0x0, symName: __RNcNtNtNtCsc29TF2YcYso_3syn2op5BinOp3Div0B7_, symObjAddr: 0xAE04, symBinAddr: 0x531B4, symSize: 0x2C }
  - { offset: 0xB8310, size: 0x8, addend: 0x0, symName: __RNcNtNtNtCsc29TF2YcYso_3syn2op5BinOp3Rem0B7_, symObjAddr: 0xAE30, symBinAddr: 0x531E0, symSize: 0x2C }
  - { offset: 0xB833E, size: 0x8, addend: 0x0, symName: __RNcNtNtNtCsc29TF2YcYso_3syn2op5BinOp3And0B7_, symObjAddr: 0xAE5C, symBinAddr: 0x5320C, symSize: 0x2C }
  - { offset: 0xB836C, size: 0x8, addend: 0x0, symName: __RNcNtNtNtCsc29TF2YcYso_3syn2op5BinOp2Or0B7_, symObjAddr: 0xAE88, symBinAddr: 0x53238, symSize: 0x2C }
  - { offset: 0xB839A, size: 0x8, addend: 0x0, symName: __RNcNtNtNtCsc29TF2YcYso_3syn2op5BinOp6BitXor0B7_, symObjAddr: 0xAEB4, symBinAddr: 0x53264, symSize: 0x2C }
  - { offset: 0xB83C8, size: 0x8, addend: 0x0, symName: __RNcNtNtNtCsc29TF2YcYso_3syn2op5BinOp6BitAnd0B7_, symObjAddr: 0xAEE0, symBinAddr: 0x53290, symSize: 0x2C }
  - { offset: 0xB83F6, size: 0x8, addend: 0x0, symName: __RNcNtNtNtCsc29TF2YcYso_3syn2op5BinOp5BitOr0B7_, symObjAddr: 0xAF0C, symBinAddr: 0x532BC, symSize: 0x2C }
  - { offset: 0xB8424, size: 0x8, addend: 0x0, symName: __RNcNtNtNtCsc29TF2YcYso_3syn2op5BinOp3Shl0B7_, symObjAddr: 0xAF38, symBinAddr: 0x532E8, symSize: 0x2C }
  - { offset: 0xB8452, size: 0x8, addend: 0x0, symName: __RNcNtNtNtCsc29TF2YcYso_3syn2op5BinOp3Shr0B7_, symObjAddr: 0xAF64, symBinAddr: 0x53314, symSize: 0x2C }
  - { offset: 0xB8480, size: 0x8, addend: 0x0, symName: __RNcNtNtNtCsc29TF2YcYso_3syn2op5BinOp2Eq0B7_, symObjAddr: 0xAF90, symBinAddr: 0x53340, symSize: 0x2C }
  - { offset: 0xB84AE, size: 0x8, addend: 0x0, symName: __RNcNtNtNtCsc29TF2YcYso_3syn2op5BinOp2Lt0B7_, symObjAddr: 0xAFBC, symBinAddr: 0x5336C, symSize: 0x2C }
  - { offset: 0xB84DC, size: 0x8, addend: 0x0, symName: __RNcNtNtNtCsc29TF2YcYso_3syn2op5BinOp2Le0B7_, symObjAddr: 0xAFE8, symBinAddr: 0x53398, symSize: 0x2C }
  - { offset: 0xB850A, size: 0x8, addend: 0x0, symName: __RNcNtNtNtCsc29TF2YcYso_3syn2op5BinOp2Ne0B7_, symObjAddr: 0xB014, symBinAddr: 0x533C4, symSize: 0x2C }
  - { offset: 0xB8538, size: 0x8, addend: 0x0, symName: __RNcNtNtNtCsc29TF2YcYso_3syn2op5BinOp2Ge0B7_, symObjAddr: 0xB040, symBinAddr: 0x533F0, symSize: 0x2C }
  - { offset: 0xB8566, size: 0x8, addend: 0x0, symName: __RNcNtNtNtCsc29TF2YcYso_3syn2op5BinOp2Gt0B7_, symObjAddr: 0xB06C, symBinAddr: 0x5341C, symSize: 0x2C }
  - { offset: 0xB8594, size: 0x8, addend: 0x0, symName: __RNcNtNtNtCsc29TF2YcYso_3syn2op5BinOp9AddAssign0B7_, symObjAddr: 0xB098, symBinAddr: 0x53448, symSize: 0x2C }
  - { offset: 0xB85C2, size: 0x8, addend: 0x0, symName: __RNcNtNtNtCsc29TF2YcYso_3syn2op5BinOp9SubAssign0B7_, symObjAddr: 0xB0C4, symBinAddr: 0x53474, symSize: 0x2C }
  - { offset: 0xB85F0, size: 0x8, addend: 0x0, symName: __RNcNtNtNtCsc29TF2YcYso_3syn2op5BinOp9MulAssign0B7_, symObjAddr: 0xB0F0, symBinAddr: 0x534A0, symSize: 0x2C }
  - { offset: 0xB861E, size: 0x8, addend: 0x0, symName: __RNcNtNtNtCsc29TF2YcYso_3syn2op5BinOp9DivAssign0B7_, symObjAddr: 0xB11C, symBinAddr: 0x534CC, symSize: 0x2C }
  - { offset: 0xB864C, size: 0x8, addend: 0x0, symName: __RNcNtNtNtCsc29TF2YcYso_3syn2op5BinOp9RemAssign0B7_, symObjAddr: 0xB148, symBinAddr: 0x534F8, symSize: 0x2C }
  - { offset: 0xB867A, size: 0x8, addend: 0x0, symName: __RNcNtNtNtCsc29TF2YcYso_3syn2op5BinOp12BitXorAssign0B7_, symObjAddr: 0xB174, symBinAddr: 0x53524, symSize: 0x2C }
  - { offset: 0xB86A8, size: 0x8, addend: 0x0, symName: __RNcNtNtNtCsc29TF2YcYso_3syn2op5BinOp12BitAndAssign0B7_, symObjAddr: 0xB1A0, symBinAddr: 0x53550, symSize: 0x2C }
  - { offset: 0xB86D6, size: 0x8, addend: 0x0, symName: __RNcNtNtNtCsc29TF2YcYso_3syn2op5BinOp11BitOrAssign0B7_, symObjAddr: 0xB1CC, symBinAddr: 0x5357C, symSize: 0x2C }
  - { offset: 0xB8704, size: 0x8, addend: 0x0, symName: __RNcNtNtNtCsc29TF2YcYso_3syn2op5BinOp9ShlAssign0B7_, symObjAddr: 0xB1F8, symBinAddr: 0x535A8, symSize: 0x20 }
  - { offset: 0xB8732, size: 0x8, addend: 0x0, symName: __RNcNtNtNtCsc29TF2YcYso_3syn2op5BinOp9ShrAssign0B7_, symObjAddr: 0xB218, symBinAddr: 0x535C8, symSize: 0x20 }
  - { offset: 0xB8766, size: 0x8, addend: 0x0, symName: __RNcNtNtNtCsc29TF2YcYso_3syn2op4UnOp5Deref0B7_, symObjAddr: 0xB238, symBinAddr: 0x535E8, symSize: 0x28 }
  - { offset: 0xB8794, size: 0x8, addend: 0x0, symName: __RNcNtNtNtCsc29TF2YcYso_3syn2op4UnOp3Not0B7_, symObjAddr: 0xB260, symBinAddr: 0x53610, symSize: 0x2C }
  - { offset: 0xB87C2, size: 0x8, addend: 0x0, symName: __RNcNtNtNtCsc29TF2YcYso_3syn2op4UnOp3Neg0B7_, symObjAddr: 0xB28C, symBinAddr: 0x5363C, symSize: 0x2C }
  - { offset: 0xB87FC, size: 0x8, addend: 0x0, symName: __RNCNvXNtCsc29TF2YcYso_3syn3extNtCshnvkK9b4wzu_11proc_macro25IdentNtB4_8IdentExt9parse_any0B6_, symObjAddr: 0x5DA0, symBinAddr: 0x4E440, symSize: 0x130 }
  - { offset: 0xB886E, size: 0x8, addend: 0x0, symName: __RNvXs0_NtCsc29TF2YcYso_3syn3extNtNtB5_7private8IdentAnyNtNtNtB7_5token7private11CustomToken4peek, symObjAddr: 0x5ED0, symBinAddr: 0x4E570, symSize: 0x88 }
  - { offset: 0xB8AB2, size: 0x8, addend: 0x0, symName: __RNvXs_NtNtCsc29TF2YcYso_3syn3gen5cloneNtNtB8_4path30AngleBracketedGenericArgumentsNtNtCsaNl6UpbT7bw_4core5clone5Clone5clone, symObjAddr: 0xB2F4, symBinAddr: 0x536A4, symSize: 0xE8 }
  - { offset: 0xB8AE4, size: 0x8, addend: 0x0, symName: __RNvXs1_NtNtCsc29TF2YcYso_3syn3gen5cloneNtNtB9_4path10AssocConstNtNtCsaNl6UpbT7bw_4core5clone5Clone5clone, symObjAddr: 0xB3DC, symBinAddr: 0x5378C, symSize: 0x118 }
  - { offset: 0xB8B16, size: 0x8, addend: 0x0, symName: __RNvXs2_NtNtCsc29TF2YcYso_3syn3gen5cloneNtNtB9_4path9AssocTypeNtNtCsaNl6UpbT7bw_4core5clone5Clone5clone, symObjAddr: 0xB4F4, symBinAddr: 0x538A4, symSize: 0x11C }
  - { offset: 0xB8B48, size: 0x8, addend: 0x0, symName: __RNvXs9_NtNtCsc29TF2YcYso_3syn3gen5cloneNtNtB9_2op5BinOpNtNtCsaNl6UpbT7bw_4core5clone5Clone5clone, symObjAddr: 0xB610, symBinAddr: 0x539C0, symSize: 0x2C }
  - { offset: 0xB8B7A, size: 0x8, addend: 0x0, symName: __RNvXse_NtNtCsc29TF2YcYso_3syn3gen5cloneNtNtB9_4path10ConstraintNtNtCsaNl6UpbT7bw_4core5clone5Clone5clone, symObjAddr: 0xB63C, symBinAddr: 0x539EC, symSize: 0x110 }
  - { offset: 0xB8BAC, size: 0x8, addend: 0x0, symName: __RNvXs1c_NtNtCsc29TF2YcYso_3syn3gen5cloneNtNtBa_4path15GenericArgumentNtNtCsaNl6UpbT7bw_4core5clone5Clone5clone, symObjAddr: 0xB74C, symBinAddr: 0x53AFC, symSize: 0x284 }
  - { offset: 0xB8C8D, size: 0x8, addend: 0x0, symName: __RNvXs1O_NtNtCsc29TF2YcYso_3syn3gen5cloneNtNtBa_4path29ParenthesizedGenericArgumentsNtNtCsaNl6UpbT7bw_4core5clone5Clone5clone, symObjAddr: 0xB9D0, symBinAddr: 0x53D80, symSize: 0xB4 }
  - { offset: 0xB8CC1, size: 0x8, addend: 0x0, symName: __RNvXs21_NtNtCsc29TF2YcYso_3syn3gen5cloneNtNtBa_4path4PathNtNtCsaNl6UpbT7bw_4core5clone5Clone5clone, symObjAddr: 0xBA84, symBinAddr: 0x53E34, symSize: 0x70 }
  - { offset: 0xB8CF5, size: 0x8, addend: 0x0, symName: __RNvXs22_NtNtCsc29TF2YcYso_3syn3gen5cloneNtNtBa_4path13PathArgumentsNtNtCsaNl6UpbT7bw_4core5clone5Clone5clone, symObjAddr: 0xBAF4, symBinAddr: 0x53EA4, symSize: 0x11C }
  - { offset: 0xB8D5D, size: 0x8, addend: 0x0, symName: __RNvXs23_NtNtCsc29TF2YcYso_3syn3gen5cloneNtNtBa_4path11PathSegmentNtNtCsaNl6UpbT7bw_4core5clone5Clone5clone, symObjAddr: 0xBC10, symBinAddr: 0x53FC0, symSize: 0x9C }
  - { offset: 0xB8D91, size: 0x8, addend: 0x0, symName: __RNvXs28_NtNtCsc29TF2YcYso_3syn3gen5cloneNtNtBa_4path5QSelfNtNtCsaNl6UpbT7bw_4core5clone5Clone5clone, symObjAddr: 0xBCAC, symBinAddr: 0x5405C, symSize: 0x100 }
  - { offset: 0xB8DC5, size: 0x8, addend: 0x0, symName: __RNvXs2H_NtNtCsc29TF2YcYso_3syn3gen5cloneNtNtBa_2op4UnOpNtNtCsaNl6UpbT7bw_4core5clone5Clone5clone, symObjAddr: 0xBDAC, symBinAddr: 0x5415C, symSize: 0x30 }
  - { offset: 0xBA0E2, size: 0x8, addend: 0x0, symName: __RINvXNvMNtCsiTraAjBDcu4_5alloc5sliceSp9to_vec_inTNtNtCsc29TF2YcYso_3syn4path11PathSegmentNtNtBP_5token7PathSepENtB3_10ConvertVec6to_vecNtNtB8_5alloc6GlobalEBP_, symObjAddr: 0xD4, symBinAddr: 0x495DC, symSize: 0x370 }
  - { offset: 0xBA597, size: 0x8, addend: 0x0, symName: __RINvXNvMNtCsiTraAjBDcu4_5alloc5sliceSp9to_vec_inTNtNtCsc29TF2YcYso_3syn4path15GenericArgumentNtNtBP_5token5CommaENtB3_10ConvertVec6to_vecNtNtB8_5alloc6GlobalEBP_, symObjAddr: 0x444, symBinAddr: 0x4994C, symSize: 0x374 }
  - { offset: 0xBAD21, size: 0x8, addend: 0x0, symName: __RINvXs5_NtCshnvkK9b4wzu_11proc_macro23impNtB6_11TokenStreamINtNtNtNtCsaNl6UpbT7bw_4core4iter6traits7collect12FromIteratorNtB8_9TokenTreeE9from_iterINtNtNtB12_8adapters3map3MapNtNtB8_12token_stream8IntoIterNCNvNvMNtCsc29TF2YcYso_3syn3litNtB3o_6LitStr10parse_with19respan_token_stream0EEB3q_, symObjAddr: 0xD18, symBinAddr: 0x4A220, symSize: 0x16C }
  - { offset: 0xBAD57, size: 0x8, addend: 0x0, symName: __RINvXs5_NtCshnvkK9b4wzu_11proc_macro23impNtB6_11TokenStreamINtNtNtNtCsaNl6UpbT7bw_4core4iter6traits7collect12FromIteratorNtB8_9TokenTreeE9from_iterINtNtNtB14_5array4iter8IntoIterB1V_Kj1_EECsc29TF2YcYso_3syn, symObjAddr: 0xE84, symBinAddr: 0x4A38C, symSize: 0x16C }
  - { offset: 0xBAD8D, size: 0x8, addend: 0x0, symName: __RINvXs5_NtCshnvkK9b4wzu_11proc_macro23impNtB6_11TokenStreamINtNtNtNtCsaNl6UpbT7bw_4core4iter6traits7collect12FromIteratorNtB8_9TokenTreeE9from_iterINtNtNtB14_5array4iter8IntoIterB1V_Kj8_EECsc29TF2YcYso_3syn, symObjAddr: 0xFF0, symBinAddr: 0x4A4F8, symSize: 0x170 }
  - { offset: 0xBADC3, size: 0x8, addend: 0x0, symName: __RINvXs5_NtCshnvkK9b4wzu_11proc_macro23impNtB6_11TokenStreamINtNtNtNtCsaNl6UpbT7bw_4core4iter6traits7collect12FromIteratorNtB8_9TokenTreeE9from_iterINtNtNtCsiTraAjBDcu4_5alloc3vec9into_iter8IntoIterB1V_EECsc29TF2YcYso_3syn, symObjAddr: 0x1160, symBinAddr: 0x4A668, symSize: 0x164 }
  - { offset: 0xBADFF, size: 0x8, addend: 0x0, symName: __RINvXs6_NtCshnvkK9b4wzu_11proc_macro23impNtB6_11TokenStreamINtNtNtNtCsaNl6UpbT7bw_4core4iter6traits7collect12FromIteratorBD_E9from_iterINtNtNtB12_8adapters3map3MapIB2a_INtNtNtB14_5slice4iter4IterNtNtCsc29TF2YcYso_3syn5error12ErrorMessageENvMs_B39_B37_16to_compile_errorENCINvXs7_B8_NtB8_11TokenStreamIBW_B4w_E9from_iterB2B_E0EEB3b_, symObjAddr: 0x12C4, symBinAddr: 0x4A7CC, symSize: 0x24C }
  - { offset: 0xBAE79, size: 0x8, addend: 0x0, symName: __RNCINvXs6_NtCshnvkK9b4wzu_11proc_macro23impNtB8_11TokenStreamINtNtNtNtCsaNl6UpbT7bw_4core4iter6traits7collect12FromIteratorBF_E9from_iterINtNtNtB14_8adapters3map3MapIB2c_INtNtNtB16_5slice4iter4IterNtNtCsc29TF2YcYso_3syn5error12ErrorMessageENvMs_B3b_B39_16to_compile_errorENCINvXs7_Ba_NtBa_11TokenStreamIBY_B4y_E9from_iterB2D_E0EE0B3d_, symObjAddr: 0x1940, symBinAddr: 0x4AE48, symSize: 0x10C }
  - { offset: 0xBAED6, size: 0x8, addend: 0x0, symName: __RNCINvXs6_NtCshnvkK9b4wzu_11proc_macro23impNtB8_11TokenStreamINtNtNtNtCsaNl6UpbT7bw_4core4iter6traits7collect12FromIteratorBF_E9from_iterINtNtNtB14_8adapters3map3MapIB2c_INtNtNtB16_5slice4iter4IterNtNtCsc29TF2YcYso_3syn5error12ErrorMessageENvMs_B3b_B39_16to_compile_errorENCINvXs7_Ba_NtBa_11TokenStreamIBY_B4y_E9from_iterB2D_E0EEs_0B3d_, symObjAddr: 0x1A4C, symBinAddr: 0x4AF54, symSize: 0xF8 }
  - { offset: 0xBAF30, size: 0x8, addend: 0x0, symName: __RNcNtNtNtCshnvkK9b4wzu_11proc_macro23imp4Span8Fallback0Csc29TF2YcYso_3syn, symObjAddr: 0x1B44, symBinAddr: 0x4B04C, symSize: 0x14 }
  - { offset: 0xBAF61, size: 0x8, addend: 0x0, symName: __RNvXsA_NtCshnvkK9b4wzu_11proc_macro23impNtB5_19DeferredTokenStreamNtNtCsaNl6UpbT7bw_4core5clone5Clone5cloneCsc29TF2YcYso_3syn, symObjAddr: 0x5414, symBinAddr: 0x4DB14, symSize: 0x90 }
  - { offset: 0xBAF93, size: 0x8, addend: 0x0, symName: __RNvXsE_NtCshnvkK9b4wzu_11proc_macro23impNtB5_5GroupNtNtCsaNl6UpbT7bw_4core5clone5Clone5cloneCsc29TF2YcYso_3syn, symObjAddr: 0x54A4, symBinAddr: 0x4DBA4, symSize: 0x9C }
  - { offset: 0xBB003, size: 0x8, addend: 0x0, symName: __RNvXsF_NtCshnvkK9b4wzu_11proc_macro23impNtB5_5IdentNtNtCsaNl6UpbT7bw_4core5clone5Clone5cloneCsc29TF2YcYso_3syn, symObjAddr: 0x5540, symBinAddr: 0x4DC40, symSize: 0x9C }
  - { offset: 0xBB073, size: 0x8, addend: 0x0, symName: __RNvXsG_NtCshnvkK9b4wzu_11proc_macro23impNtB5_7LiteralNtNtCsaNl6UpbT7bw_4core5clone5Clone5cloneCsc29TF2YcYso_3syn, symObjAddr: 0x55DC, symBinAddr: 0x4DCDC, symSize: 0x9C }
  - { offset: 0xBB0E3, size: 0x8, addend: 0x0, symName: __RNvXss_NtCshnvkK9b4wzu_11proc_macro23impNtB5_5IdentINtNtCsaNl6UpbT7bw_4core3cmp9PartialEqRReE2eqCsc29TF2YcYso_3syn, symObjAddr: 0x5A18, symBinAddr: 0x4E118, symSize: 0x108 }
  - { offset: 0xBB173, size: 0x8, addend: 0x0, symName: __RNvXss_NtCshnvkK9b4wzu_11proc_macro23impNtB5_5IdentINtNtCsaNl6UpbT7bw_4core3cmp9PartialEqReE2eqCsc29TF2YcYso_3syn, symObjAddr: 0x5B20, symBinAddr: 0x4E220, symSize: 0x108 }
  - { offset: 0xBB209, size: 0x8, addend: 0x0, symName: __RNvXsz_NtCshnvkK9b4wzu_11proc_macro23impNtB5_11TokenStreamNtNtCsaNl6UpbT7bw_4core5clone5Clone5cloneCsc29TF2YcYso_3syn, symObjAddr: 0x5C28, symBinAddr: 0x4E328, symSize: 0x98 }
  - { offset: 0xC2642, size: 0x8, addend: 0x0, symName: __RINvXs2V_NtNtCsaNl6UpbT7bw_4core5slice4iterINtB7_4IterNtNtCsc29TF2YcYso_3syn4attr9AttributeENtNtNtNtBb_4iter6traits8iterator8Iterator4findQFG0_RL1_RL0_BQ_EbEBU_, symObjAddr: 0x7B8, symBinAddr: 0x49CC0, symSize: 0xB0 }
  - { offset: 0xC26A7, size: 0x8, addend: 0x0, symName: __RINvXs2V_NtNtCsaNl6UpbT7bw_4core5slice4iterINtB7_4IterNtNtCsc29TF2YcYso_3syn5error12ErrorMessageENtNtNtNtBb_4iter6traits8iterator8Iterator4folduNCINvNtNtB1D_8adapters3map8map_foldRBQ_NtCshnvkK9b4wzu_11proc_macro211TokenStreamuNvMs_BS_BQ_16to_compile_errorNCIB2l_B2V_NtNtB2X_3imp11TokenStreamuNCINvXs7_B2X_B2V_INtNtB1B_7collect12FromIteratorB2V_E9from_iterINtB2n_3MapBF_B3C_EE0NCIB2l_B4g_NtCs7yrEGia95Wz_10proc_macro11TokenStreamuNCINvXs6_B4i_B4g_IB4Y_B4g_E9from_iterIB5I_B5H_B4G_EE0NCINvNvB1x_8for_each4callB6d_NCINvXsj_B6f_B6d_INtB50_6ExtendB6d_E6extendIB5I_B7u_B6T_EE0E0E0E0E0EBU_, symObjAddr: 0x868, symBinAddr: 0x49D70, symSize: 0x194 }
  - { offset: 0xC27FB, size: 0x8, addend: 0x0, symName: __RINvXs2V_NtNtCsaNl6UpbT7bw_4core5slice4iterINtB7_4IterhENtNtNtNtBb_4iter6traits8iterator8Iterator4findNCNvNtNtCsc29TF2YcYso_3syn3lit5value15parse_lit_float0EB1K_, symObjAddr: 0x9FC, symBinAddr: 0x49F04, symSize: 0xAC }
  - { offset: 0xC2860, size: 0x8, addend: 0x0, symName: __RNvXs2V_NtNtCsaNl6UpbT7bw_4core5slice4iterINtB6_4IterNtCshnvkK9b4wzu_11proc_macro24SpanENtNtNtNtBa_4iter6traits8iterator8Iterator4nextCsc29TF2YcYso_3syn, symObjAddr: 0x2BF8, symBinAddr: 0x4BF18, symSize: 0xB0 }
  - { offset: 0xC299A, size: 0x8, addend: 0x0, symName: __RNvXs2V_NtNtCsaNl6UpbT7bw_4core5slice4iterINtB6_4IterNtNtCsc29TF2YcYso_3syn4attr9AttributeENtNtNtNtBa_4iter6traits8iterator8Iterator4nextBT_, symObjAddr: 0x2CA8, symBinAddr: 0x4BFC8, symSize: 0xB0 }
  - { offset: 0xC2AD4, size: 0x8, addend: 0x0, symName: __RNvXs2V_NtNtCsaNl6UpbT7bw_4core5slice4iterINtB6_4IterNtNtCsc29TF2YcYso_3syn4expr3ArmENtNtNtNtBa_4iter6traits8iterator8Iterator4nextBT_, symObjAddr: 0x2D58, symBinAddr: 0x4C078, symSize: 0xB0 }
  - { offset: 0xC2C0E, size: 0x8, addend: 0x0, symName: __RNvXs2V_NtNtCsaNl6UpbT7bw_4core5slice4iterINtB6_4IterNtNtCsc29TF2YcYso_3syn4item11ForeignItemENtNtNtNtBa_4iter6traits8iterator8Iterator4nextBT_, symObjAddr: 0x2E08, symBinAddr: 0x4C128, symSize: 0xB0 }
  - { offset: 0xC2D48, size: 0x8, addend: 0x0, symName: __RNvXs2V_NtNtCsaNl6UpbT7bw_4core5slice4iterINtB6_4IterNtNtCsc29TF2YcYso_3syn4item4ItemENtNtNtNtBa_4iter6traits8iterator8Iterator4nextBT_, symObjAddr: 0x2EB8, symBinAddr: 0x4C1D8, symSize: 0xB0 }
  - { offset: 0xC2E82, size: 0x8, addend: 0x0, symName: __RNvXs2V_NtNtCsaNl6UpbT7bw_4core5slice4iterINtB6_4IterNtNtCsc29TF2YcYso_3syn4item8ImplItemENtNtNtNtBa_4iter6traits8iterator8Iterator4nextBT_, symObjAddr: 0x2F68, symBinAddr: 0x4C288, symSize: 0xB0 }
  - { offset: 0xC2FBC, size: 0x8, addend: 0x0, symName: __RNvXs2V_NtNtCsaNl6UpbT7bw_4core5slice4iterINtB6_4IterNtNtCsc29TF2YcYso_3syn4item9TraitItemENtNtNtNtBa_4iter6traits8iterator8Iterator4nextBT_, symObjAddr: 0x3018, symBinAddr: 0x4C338, symSize: 0xB0 }
  - { offset: 0xC30F6, size: 0x8, addend: 0x0, symName: __RNvXs2V_NtNtCsaNl6UpbT7bw_4core5slice4iterINtB6_4IterNtNtCsc29TF2YcYso_3syn4stmt4StmtENtNtNtNtBa_4iter6traits8iterator8Iterator4nextBT_, symObjAddr: 0x30C8, symBinAddr: 0x4C3E8, symSize: 0xB0 }
  - { offset: 0xC3230, size: 0x8, addend: 0x0, symName: __RNvXs2V_NtNtCsaNl6UpbT7bw_4core5slice4iterINtB6_4IterNtNtCsc29TF2YcYso_3syn5error12ErrorMessageENtNtNtNtBa_4iter6traits8iterator8Iterator4nextBT_, symObjAddr: 0x3178, symBinAddr: 0x4C498, symSize: 0xB0 }
  - { offset: 0xC336A, size: 0x8, addend: 0x0, symName: __RNvXs2V_NtNtCsaNl6UpbT7bw_4core5slice4iterINtB6_4IterNtNtCsc29TF2YcYso_3syn5error12ErrorMessageENtNtNtNtBa_4iter6traits8iterator8Iterator9size_hintBT_, symObjAddr: 0x3228, symBinAddr: 0x4C548, symSize: 0x70 }
  - { offset: 0xC33D9, size: 0x8, addend: 0x0, symName: __RNvXs2V_NtNtCsaNl6UpbT7bw_4core5slice4iterINtB6_4IterTNtNtCsc29TF2YcYso_3syn2ty4TypeNtNtBU_5token5CommaEENtNtNtNtBa_4iter6traits8iterator8Iterator4nextBU_, symObjAddr: 0x3298, symBinAddr: 0x4C5B8, symSize: 0xB0 }
  - { offset: 0xC3513, size: 0x8, addend: 0x0, symName: __RNvXs2V_NtNtCsaNl6UpbT7bw_4core5slice4iterINtB6_4IterTNtNtCsc29TF2YcYso_3syn2ty9BareFnArgNtNtBU_5token5CommaEENtNtNtNtBa_4iter6traits8iterator8Iterator4nextBU_, symObjAddr: 0x3348, symBinAddr: 0x4C668, symSize: 0xB0 }
  - { offset: 0xC364D, size: 0x8, addend: 0x0, symName: __RNvXs2V_NtNtCsaNl6UpbT7bw_4core5slice4iterINtB6_4IterTNtNtCsc29TF2YcYso_3syn3pat3PatNtNtBU_5token2OrEENtNtNtNtBa_4iter6traits8iterator8Iterator4nextBU_, symObjAddr: 0x33F8, symBinAddr: 0x4C718, symSize: 0xB0 }
  - { offset: 0xC3787, size: 0x8, addend: 0x0, symName: __RNvXs2V_NtNtCsaNl6UpbT7bw_4core5slice4iterINtB6_4IterTNtNtCsc29TF2YcYso_3syn3pat3PatNtNtBU_5token5CommaEENtNtNtNtBa_4iter6traits8iterator8Iterator4nextBU_, symObjAddr: 0x34A8, symBinAddr: 0x4C7C8, symSize: 0xB0 }
  - { offset: 0xC38C1, size: 0x8, addend: 0x0, symName: __RNvXs2V_NtNtCsaNl6UpbT7bw_4core5slice4iterINtB6_4IterTNtNtCsc29TF2YcYso_3syn3pat8FieldPatNtNtBU_5token5CommaEENtNtNtNtBa_4iter6traits8iterator8Iterator4nextBU_, symObjAddr: 0x3558, symBinAddr: 0x4C878, symSize: 0xB0 }
  - { offset: 0xC39FB, size: 0x8, addend: 0x0, symName: __RNvXs2V_NtNtCsaNl6UpbT7bw_4core5slice4iterINtB6_4IterTNtNtCsc29TF2YcYso_3syn4data5FieldNtNtBU_5token5CommaEENtNtNtNtBa_4iter6traits8iterator8Iterator4nextBU_, symObjAddr: 0x3608, symBinAddr: 0x4C928, symSize: 0xB0 }
  - { offset: 0xC3B35, size: 0x8, addend: 0x0, symName: __RNvXs2V_NtNtCsaNl6UpbT7bw_4core5slice4iterINtB6_4IterTNtNtCsc29TF2YcYso_3syn4data7VariantNtNtBU_5token5CommaEENtNtNtNtBa_4iter6traits8iterator8Iterator4nextBU_, symObjAddr: 0x36B8, symBinAddr: 0x4C9D8, symSize: 0xB0 }
  - { offset: 0xC3C6F, size: 0x8, addend: 0x0, symName: __RNvXs2V_NtNtCsaNl6UpbT7bw_4core5slice4iterINtB6_4IterTNtNtCsc29TF2YcYso_3syn4expr10FieldValueNtNtBU_5token5CommaEENtNtNtNtBa_4iter6traits8iterator8Iterator4nextBU_, symObjAddr: 0x3768, symBinAddr: 0x4CA88, symSize: 0xB0 }
  - { offset: 0xC3DA9, size: 0x8, addend: 0x0, symName: __RNvXs2V_NtNtCsaNl6UpbT7bw_4core5slice4iterINtB6_4IterTNtNtCsc29TF2YcYso_3syn4expr4ExprNtNtBU_5token5CommaEENtNtNtNtBa_4iter6traits8iterator8Iterator4nextBU_, symObjAddr: 0x3818, symBinAddr: 0x4CB38, symSize: 0xB0 }
  - { offset: 0xC3EE3, size: 0x8, addend: 0x0, symName: __RNvXs2V_NtNtCsaNl6UpbT7bw_4core5slice4iterINtB6_4IterTNtNtCsc29TF2YcYso_3syn4item5FnArgNtNtBU_5token5CommaEENtNtNtNtBa_4iter6traits8iterator8Iterator4nextBU_, symObjAddr: 0x38C8, symBinAddr: 0x4CBE8, symSize: 0xB0 }
  - { offset: 0xC401D, size: 0x8, addend: 0x0, symName: __RNvXs2V_NtNtCsaNl6UpbT7bw_4core5slice4iterINtB6_4IterTNtNtCsc29TF2YcYso_3syn4item7UseTreeNtNtBU_5token5CommaEENtNtNtNtBa_4iter6traits8iterator8Iterator4nextBU_, symObjAddr: 0x3978, symBinAddr: 0x4CC98, symSize: 0xB0 }
  - { offset: 0xC4157, size: 0x8, addend: 0x0, symName: __RNvXs2V_NtNtCsaNl6UpbT7bw_4core5slice4iterINtB6_4IterTNtNtCsc29TF2YcYso_3syn4path11PathSegmentNtNtBU_5token7PathSepEENtNtNtNtBa_4iter6traits8iterator8Iterator4nextBU_, symObjAddr: 0x3A28, symBinAddr: 0x4CD48, symSize: 0xB0 }
  - { offset: 0xC4291, size: 0x8, addend: 0x0, symName: __RNvXs2V_NtNtCsaNl6UpbT7bw_4core5slice4iterINtB6_4IterTNtNtCsc29TF2YcYso_3syn4path15GenericArgumentNtNtBU_5token5CommaEENtNtNtNtBa_4iter6traits8iterator8Iterator4nextBU_, symObjAddr: 0x3AD8, symBinAddr: 0x4CDF8, symSize: 0xB0 }
  - { offset: 0xC43CB, size: 0x8, addend: 0x0, symName: __RNvXs2V_NtNtCsaNl6UpbT7bw_4core5slice4iterINtB6_4IterTNtNtCsc29TF2YcYso_3syn8generics12GenericParamNtNtBU_5token5CommaEENtNtNtNtBa_4iter6traits8iterator8Iterator4nextBU_, symObjAddr: 0x3B88, symBinAddr: 0x4CEA8, symSize: 0xB0 }
  - { offset: 0xC4505, size: 0x8, addend: 0x0, symName: __RNvXs2V_NtNtCsaNl6UpbT7bw_4core5slice4iterINtB6_4IterTNtNtCsc29TF2YcYso_3syn8generics13CapturedParamNtNtBU_5token5CommaEENtNtNtNtBa_4iter6traits8iterator8Iterator4nextBU_, symObjAddr: 0x3C38, symBinAddr: 0x4CF58, symSize: 0xB0 }
  - { offset: 0xC463F, size: 0x8, addend: 0x0, symName: __RNvXs2V_NtNtCsaNl6UpbT7bw_4core5slice4iterINtB6_4IterTNtNtCsc29TF2YcYso_3syn8generics14TypeParamBoundNtNtBU_5token4PlusEENtNtNtNtBa_4iter6traits8iterator8Iterator4nextBU_, symObjAddr: 0x3CE8, symBinAddr: 0x4D008, symSize: 0xB0 }
  - { offset: 0xC4779, size: 0x8, addend: 0x0, symName: __RNvXs2V_NtNtCsaNl6UpbT7bw_4core5slice4iterINtB6_4IterTNtNtCsc29TF2YcYso_3syn8generics14WherePredicateNtNtBU_5token5CommaEENtNtNtNtBa_4iter6traits8iterator8Iterator4nextBU_, symObjAddr: 0x3D98, symBinAddr: 0x4D0B8, symSize: 0xB0 }
  - { offset: 0xC48B3, size: 0x8, addend: 0x0, symName: __RNvXs2V_NtNtCsaNl6UpbT7bw_4core5slice4iterINtB6_4IterTNtNtCsc29TF2YcYso_3syn8lifetime8LifetimeNtNtBU_5token4PlusEENtNtNtNtBa_4iter6traits8iterator8Iterator4nextBU_, symObjAddr: 0x3E48, symBinAddr: 0x4D168, symSize: 0xB0 }
  - { offset: 0xC525D, size: 0x8, addend: 0x0, symName: __RNvXs2W_NtNtCsaNl6UpbT7bw_4core5slice4iterINtB6_4IterNtCshnvkK9b4wzu_11proc_macro24SpanENtNtNtNtBa_4iter6traits12double_ended19DoubleEndedIterator9next_backCsc29TF2YcYso_3syn, symObjAddr: 0x3EF8, symBinAddr: 0x4D218, symSize: 0x108 }
  - { offset: 0xC53B9, size: 0x8, addend: 0x0, symName: __RNvXs2W_NtNtCsaNl6UpbT7bw_4core5slice4iterINtB6_4IterTNtNtCsc29TF2YcYso_3syn4path11PathSegmentNtNtBU_5token7PathSepEENtNtNtNtBa_4iter6traits12double_ended19DoubleEndedIterator9next_backBU_, symObjAddr: 0x4210, symBinAddr: 0x4D320, symSize: 0x108 }
  - { offset: 0xC5515, size: 0x8, addend: 0x0, symName: __RNvXs2W_NtNtCsaNl6UpbT7bw_4core5slice4iterINtB6_4IterTNtNtCsc29TF2YcYso_3syn8generics14TypeParamBoundNtNtBU_5token4PlusEENtNtNtNtBa_4iter6traits12double_ended19DoubleEndedIterator9next_backBU_, symObjAddr: 0x4420, symBinAddr: 0x4D428, symSize: 0x108 }
  - { offset: 0xC5671, size: 0x8, addend: 0x0, symName: __RNvXs2W_NtNtCsaNl6UpbT7bw_4core5slice4iterINtB6_4IterhENtNtNtNtBa_4iter6traits12double_ended19DoubleEndedIterator9next_backCsc29TF2YcYso_3syn, symObjAddr: 0x4528, symBinAddr: 0x4D530, symSize: 0x108 }
  - { offset: 0xC584A, size: 0x8, addend: 0x0, symName: __RNvXs33_NtNtCsaNl6UpbT7bw_4core5slice4iterINtB6_7IterMutTNtNtCsc29TF2YcYso_3syn4path11PathSegmentNtNtBX_5token7PathSepEENtNtNtNtBa_4iter6traits8iterator8Iterator4nextBX_, symObjAddr: 0x4C2C, symBinAddr: 0x4D84C, symSize: 0xB0 }
  - { offset: 0xC596F, size: 0x8, addend: 0x0, symName: __RNvXs33_NtNtCsaNl6UpbT7bw_4core5slice4iterINtB6_7IterMuthENtNtNtNtBa_4iter6traits8iterator8Iterator4nextCsc29TF2YcYso_3syn, symObjAddr: 0x4D8C, symBinAddr: 0x4D8FC, symSize: 0xB0 }
  - { offset: 0xC5A9A, size: 0x8, addend: 0x0, symName: __RNvXs34_NtNtCsaNl6UpbT7bw_4core5slice4iterINtB6_7IterMutTNtNtCsc29TF2YcYso_3syn4path11PathSegmentNtNtBX_5token7PathSepEENtNtNtNtBa_4iter6traits12double_ended19DoubleEndedIterator9next_backBX_, symObjAddr: 0x4F44, symBinAddr: 0x4D9AC, symSize: 0x108 }
  - { offset: 0xC5BFC, size: 0x8, addend: 0x0, symName: __RNvXs5_NtNtCsaNl6UpbT7bw_4core5slice4iterINtB5_4IterTNtNtCsc29TF2YcYso_3syn4path11PathSegmentNtNtBT_5token7PathSepEENtNtB9_5clone5Clone5cloneBT_, symObjAddr: 0x51B4, symBinAddr: 0x4DAD4, symSize: 0x20 }
  - { offset: 0xC5C31, size: 0x8, addend: 0x0, symName: __RNvXs5_NtNtCsaNl6UpbT7bw_4core5slice4iterINtB5_4IterTNtNtCsc29TF2YcYso_3syn8generics14TypeParamBoundNtNtBT_5token4PlusEENtNtB9_5clone5Clone5cloneBT_, symObjAddr: 0x51F4, symBinAddr: 0x4DAF4, symSize: 0x20 }
  - { offset: 0xC5E35, size: 0x8, addend: 0x0, symName: __RNvMNtCsaNl6UpbT7bw_4core5sliceSTNtNtCsc29TF2YcYso_3syn4path11PathSegmentNtNtBz_5token7PathSepE4iterBz_, symObjAddr: 0x1B58, symBinAddr: 0x4B060, symSize: 0x28 }
  - { offset: 0xC5E6C, size: 0x8, addend: 0x0, symName: __RNvMNtCsaNl6UpbT7bw_4core5sliceSTNtNtCsc29TF2YcYso_3syn4path11PathSegmentNtNtBz_5token7PathSepE8iter_mutBz_, symObjAddr: 0x1B80, symBinAddr: 0x4B088, symSize: 0x28 }
  - { offset: 0xC5EA3, size: 0x8, addend: 0x0, symName: __RNvMNtCsaNl6UpbT7bw_4core5sliceSTNtNtCsc29TF2YcYso_3syn4path15GenericArgumentNtNtBz_5token5CommaE4iterBz_, symObjAddr: 0x1BA8, symBinAddr: 0x4B0B0, symSize: 0x28 }
  - { offset: 0xC6007, size: 0x8, addend: 0x0, symName: __RNvNtNtCsaNl6UpbT7bw_4core5slice6memchr6memchrCsc29TF2YcYso_3syn, symObjAddr: 0x2450, symBinAddr: 0x4B8A8, symSize: 0x114 }
  - { offset: 0xC68BF, size: 0x8, addend: 0x0, symName: __RINvYINtNtNtCsaNl6UpbT7bw_4core5array4iter8IntoIterNtCshnvkK9b4wzu_11proc_macro29TokenTreeKj1_ENtNtNtNtBa_4iter6traits8iterator8Iterator3mapNtCs7yrEGia95Wz_10proc_macro9TokenTreeNvNtBP_3imp19into_compiler_tokenECsc29TF2YcYso_3syn, symObjAddr: 0x1510, symBinAddr: 0x4AA18, symSize: 0x30 }
  - { offset: 0xC692D, size: 0x8, addend: 0x0, symName: __RINvYINtNtNtCsaNl6UpbT7bw_4core5array4iter8IntoIterNtCshnvkK9b4wzu_11proc_macro29TokenTreeKj1_ENtNtNtNtBa_4iter6traits8iterator8Iterator7collectNtNtBP_3imp11TokenStreamECsc29TF2YcYso_3syn, symObjAddr: 0x1540, symBinAddr: 0x4AA48, symSize: 0x6C }
  - { offset: 0xC69C3, size: 0x8, addend: 0x0, symName: __RINvYINtNtNtCsaNl6UpbT7bw_4core5array4iter8IntoIterNtCshnvkK9b4wzu_11proc_macro29TokenTreeKj1_ENtNtNtNtBa_4iter6traits8iterator8Iterator7collectNtNtBP_8fallback11TokenStreamECsc29TF2YcYso_3syn, symObjAddr: 0x15AC, symBinAddr: 0x4AAB4, symSize: 0x6C }
  - { offset: 0xC6A59, size: 0x8, addend: 0x0, symName: __RINvYINtNtNtCsaNl6UpbT7bw_4core5array4iter8IntoIterNtCshnvkK9b4wzu_11proc_macro29TokenTreeKj1_ENtNtNtNtBa_4iter6traits8iterator8Iterator8for_eachNCINvXsa_NtBP_8fallbackNtB2s_11TokenStreamINtNtB1z_7collect6ExtendBN_E6extendB3_E0ECsc29TF2YcYso_3syn, symObjAddr: 0x1618, symBinAddr: 0x4AB20, symSize: 0x24 }
  - { offset: 0xC6AA5, size: 0x8, addend: 0x0, symName: __RINvYINtNtNtCsaNl6UpbT7bw_4core5array4iter8IntoIterNtCshnvkK9b4wzu_11proc_macro29TokenTreeKj8_ENtNtNtNtBa_4iter6traits8iterator8Iterator3mapNtCs7yrEGia95Wz_10proc_macro9TokenTreeNvNtBP_3imp19into_compiler_tokenECsc29TF2YcYso_3syn, symObjAddr: 0x163C, symBinAddr: 0x4AB44, symSize: 0x30 }
  - { offset: 0xC6B13, size: 0x8, addend: 0x0, symName: __RINvYINtNtNtCsaNl6UpbT7bw_4core5array4iter8IntoIterNtCshnvkK9b4wzu_11proc_macro29TokenTreeKj8_ENtNtNtNtBa_4iter6traits8iterator8Iterator7collectNtNtBP_3imp11TokenStreamECsc29TF2YcYso_3syn, symObjAddr: 0x166C, symBinAddr: 0x4AB74, symSize: 0x74 }
  - { offset: 0xC6BA9, size: 0x8, addend: 0x0, symName: __RINvYINtNtNtCsaNl6UpbT7bw_4core5array4iter8IntoIterNtCshnvkK9b4wzu_11proc_macro29TokenTreeKj8_ENtNtNtNtBa_4iter6traits8iterator8Iterator7collectNtNtBP_8fallback11TokenStreamECsc29TF2YcYso_3syn, symObjAddr: 0x16E0, symBinAddr: 0x4ABE8, symSize: 0x74 }
  - { offset: 0xC6C3F, size: 0x8, addend: 0x0, symName: __RINvYINtNtNtCsaNl6UpbT7bw_4core5array4iter8IntoIterNtCshnvkK9b4wzu_11proc_macro29TokenTreeKj8_ENtNtNtNtBa_4iter6traits8iterator8Iterator8for_eachNCINvXsa_NtBP_8fallbackNtB2s_11TokenStreamINtNtB1z_7collect6ExtendBN_E6extendB3_E0ECsc29TF2YcYso_3syn, symObjAddr: 0x1754, symBinAddr: 0x4AC5C, symSize: 0x24 }
  - { offset: 0xC6C8B, size: 0x8, addend: 0x0, symName: __RINvYINtNtNtCsaNl6UpbT7bw_4core5slice4iter4IterNtNtCsc29TF2YcYso_3syn4attr9AttributeENtNtNtNtBa_4iter6traits8iterator8Iterator6filterFG0_RL1_RL0_BJ_EbEBN_, symObjAddr: 0x1778, symBinAddr: 0x4AC80, symSize: 0x30 }
  - { offset: 0xC6CEF, size: 0x8, addend: 0x0, symName: __RINvYINtNtNtCsaNl6UpbT7bw_4core5slice4iter4IterNtNtCsc29TF2YcYso_3syn5error12ErrorMessageENtNtNtNtBa_4iter6traits8iterator8Iterator3mapNtCshnvkK9b4wzu_11proc_macro211TokenStreamNvMs_BL_BJ_16to_compile_errorEBN_, symObjAddr: 0x17A8, symBinAddr: 0x4ACB0, symSize: 0x1C }
  - { offset: 0xC6D47, size: 0x8, addend: 0x0, symName: __RINvYINtNtNtCsaNl6UpbT7bw_4core5slice4iter4IterReENtNtNtNtBa_4iter6traits8iterator8Iterator8try_foldjNCINvNtNtBS_8adapters3map12map_try_foldRBJ_jjINtNtBa_6option6OptionjENCNCINvNtCsiTraAjBDcu4_5alloc3str17join_generic_copyehBJ_E00NvMs9_NtBa_3numj11checked_addE0B2k_ECsc29TF2YcYso_3syn, symObjAddr: 0x17C4, symBinAddr: 0x4ACCC, symSize: 0x17C }
  - { offset: 0xC6DFB, size: 0x8, addend: 0x0, symName: __RNvYINtNtNtCsaNl6UpbT7bw_4core5slice4iter4IterNtNtCsc29TF2YcYso_3syn4expr3ArmENtNtNtNtB9_4iter6traits8iterator8Iterator9enumerateBM_, symObjAddr: 0x5CC0, symBinAddr: 0x4E3C0, symSize: 0x28 }
  - { offset: 0xC6E47, size: 0x8, addend: 0x0, symName: __RNvYINtNtNtCsaNl6UpbT7bw_4core5slice4iter4IterhENtNtNtNtB9_4iter6traits8iterator8Iterator3revCsc29TF2YcYso_3syn, symObjAddr: 0x5CE8, symBinAddr: 0x4E3E8, symSize: 0x1C }
  - { offset: 0xC6E8A, size: 0x8, addend: 0x0, symName: __RNvXNtNtNtCsaNl6UpbT7bw_4core4iter6traits7collectINtNtNtB8_5array4iter8IntoIterNtCshnvkK9b4wzu_11proc_macro29TokenTreeKj1_ENtB2_12IntoIterator9into_iterCsc29TF2YcYso_3syn, symObjAddr: 0x2684, symBinAddr: 0x4BADC, symSize: 0x30 }
  - { offset: 0xC6EC2, size: 0x8, addend: 0x0, symName: __RNvXNtNtNtCsaNl6UpbT7bw_4core4iter6traits7collectINtNtNtB8_5array4iter8IntoIterNtCshnvkK9b4wzu_11proc_macro29TokenTreeKj8_ENtB2_12IntoIterator9into_iterCsc29TF2YcYso_3syn, symObjAddr: 0x26B4, symBinAddr: 0x4BB0C, symSize: 0x30 }
  - { offset: 0xC6EFA, size: 0x8, addend: 0x0, symName: __RNvXNtNtNtCsaNl6UpbT7bw_4core4iter6traits7collectINtNtNtB8_5slice4iter4IterNtCshnvkK9b4wzu_11proc_macro24SpanENtB2_12IntoIterator9into_iterCsc29TF2YcYso_3syn, symObjAddr: 0x26E4, symBinAddr: 0x4BB3C, symSize: 0x1C }
  - { offset: 0xC6F31, size: 0x8, addend: 0x0, symName: __RNvXNtNtNtCsaNl6UpbT7bw_4core4iter6traits7collectINtNtNtB8_5slice4iter4IterNtNtCsc29TF2YcYso_3syn4attr9AttributeENtB2_12IntoIterator9into_iterB1f_, symObjAddr: 0x2700, symBinAddr: 0x4BB58, symSize: 0x1C }
  - { offset: 0xC6F68, size: 0x8, addend: 0x0, symName: __RNvXNtNtNtCsaNl6UpbT7bw_4core4iter6traits7collectINtNtNtB8_5slice4iter4IterNtNtCsc29TF2YcYso_3syn5error12ErrorMessageENtB2_12IntoIterator9into_iterB1f_, symObjAddr: 0x27C4, symBinAddr: 0x4BB74, symSize: 0x1C }
  - { offset: 0xC7283, size: 0x8, addend: 0x0, symName: __RINvXs2_NtNtCsaNl6UpbT7bw_4core5array4iterINtB6_8IntoIterNtCshnvkK9b4wzu_11proc_macro29TokenTreeKj1_ENtNtNtNtBa_4iter6traits8iterator8Iterator4folduNCINvNtNtB1H_8adapters3map8map_foldBT_NtCs7yrEGia95Wz_10proc_macro9TokenTreeuNvNtBV_3imp19into_compiler_tokenNCINvNvB1B_8for_each4callB2Y_NCINvXsg_B30_NtB30_11TokenStreamINtNtB1F_7collect12FromIteratorB2Y_E9from_iterINtB2r_3MapBE_B3B_EE0E0E0ECsc29TF2YcYso_3syn, symObjAddr: 0xAA8, symBinAddr: 0x49FB0, symSize: 0x9C }
  - { offset: 0xC738D, size: 0x8, addend: 0x0, symName: __RINvXs2_NtNtCsaNl6UpbT7bw_4core5array4iterINtB6_8IntoIterNtCshnvkK9b4wzu_11proc_macro29TokenTreeKj1_ENtNtNtNtBa_4iter6traits8iterator8Iterator4folduNCINvNvB1B_8for_each4callBT_NCINvXsa_NtBV_8fallbackNtB2X_11TokenStreamINtNtB1F_7collect6ExtendBT_E6extendBE_E0E0ECsc29TF2YcYso_3syn, symObjAddr: 0xB44, symBinAddr: 0x4A04C, symSize: 0x9C }
  - { offset: 0xC7497, size: 0x8, addend: 0x0, symName: __RINvXs2_NtNtCsaNl6UpbT7bw_4core5array4iterINtB6_8IntoIterNtCshnvkK9b4wzu_11proc_macro29TokenTreeKj8_ENtNtNtNtBa_4iter6traits8iterator8Iterator4folduNCINvNtNtB1H_8adapters3map8map_foldBT_NtCs7yrEGia95Wz_10proc_macro9TokenTreeuNvNtBV_3imp19into_compiler_tokenNCINvNvB1B_8for_each4callB2Y_NCINvXsg_B30_NtB30_11TokenStreamINtNtB1F_7collect12FromIteratorB2Y_E9from_iterINtB2r_3MapBE_B3B_EE0E0E0ECsc29TF2YcYso_3syn, symObjAddr: 0xBE0, symBinAddr: 0x4A0E8, symSize: 0x9C }
  - { offset: 0xC75A1, size: 0x8, addend: 0x0, symName: __RINvXs2_NtNtCsaNl6UpbT7bw_4core5array4iterINtB6_8IntoIterNtCshnvkK9b4wzu_11proc_macro29TokenTreeKj8_ENtNtNtNtBa_4iter6traits8iterator8Iterator4folduNCINvNvB1B_8for_each4callBT_NCINvXsa_NtBV_8fallbackNtB2X_11TokenStreamINtNtB1F_7collect6ExtendBT_E6extendBE_E0E0ECsc29TF2YcYso_3syn, symObjAddr: 0xC7C, symBinAddr: 0x4A184, symSize: 0x9C }
  - { offset: 0xC76AB, size: 0x8, addend: 0x0, symName: __RNvXs2_NtNtCsaNl6UpbT7bw_4core5array4iterINtB5_8IntoIterNtCshnvkK9b4wzu_11proc_macro29TokenTreeKj1_ENtNtNtNtB9_4iter6traits8iterator8Iterator9size_hintCsc29TF2YcYso_3syn, symObjAddr: 0x47BC, symBinAddr: 0x4D7C4, symSize: 0x44 }
  - { offset: 0xC771E, size: 0x8, addend: 0x0, symName: __RNvXs2_NtNtCsaNl6UpbT7bw_4core5array4iterINtB5_8IntoIterNtCshnvkK9b4wzu_11proc_macro29TokenTreeKj8_ENtNtNtNtB9_4iter6traits8iterator8Iterator9size_hintCsc29TF2YcYso_3syn, symObjAddr: 0x4800, symBinAddr: 0x4D808, symSize: 0x44 }
  - { offset: 0xC77D4, size: 0x8, addend: 0x0, symName: __RNvXs4_NtNtCsaNl6UpbT7bw_4core5array4iterINtB5_8IntoIterNtCshnvkK9b4wzu_11proc_macro29TokenTreeKj1_ENtNtNtB9_3ops4drop4Drop4dropCsc29TF2YcYso_3syn, symObjAddr: 0x5154, symBinAddr: 0x4DAB4, symSize: 0x10 }
  - { offset: 0xC7807, size: 0x8, addend: 0x0, symName: __RNvXs4_NtNtCsaNl6UpbT7bw_4core5array4iterINtB5_8IntoIterNtCshnvkK9b4wzu_11proc_macro29TokenTreeKj8_ENtNtNtB9_3ops4drop4Drop4dropCsc29TF2YcYso_3syn, symObjAddr: 0x5164, symBinAddr: 0x4DAC4, symSize: 0x10 }
  - { offset: 0xC81FE, size: 0x8, addend: 0x0, symName: __RNvXNtNtCsaNl6UpbT7bw_4core5clone6uninitNtNtCsc29TF2YcYso_3syn4path11PathSegmentNtB2_8CopySpec9clone_oneBG_, symObjAddr: 0x25A4, symBinAddr: 0x4B9FC, symSize: 0x48 }
  - { offset: 0xC8262, size: 0x8, addend: 0x0, symName: __RNvXNtNtCsaNl6UpbT7bw_4core5clone6uninitNtNtCsc29TF2YcYso_3syn4path15GenericArgumentNtB2_8CopySpec9clone_oneBG_, symObjAddr: 0x25EC, symBinAddr: 0x4BA44, symSize: 0x50 }
  - { offset: 0xC82C6, size: 0x8, addend: 0x0, symName: __RNvXNtNtCsaNl6UpbT7bw_4core5clone6uninitNtNtCsc29TF2YcYso_3syn4path4PathNtB2_8CopySpec9clone_oneBG_, symObjAddr: 0x263C, symBinAddr: 0x4BA94, symSize: 0x48 }
  - { offset: 0xC8401, size: 0x8, addend: 0x0, symName: __RNvXs0_NtNtCsaNl6UpbT7bw_4core3str7patternNtB5_12CharSearcherNtB5_15ReverseSearcher15next_match_backCsc29TF2YcYso_3syn, symObjAddr: 0x27E0, symBinAddr: 0x4BB90, symSize: 0x388 }
  - { offset: 0xC8908, size: 0x8, addend: 0x0, symName: __RNvXs2_NtNtCsaNl6UpbT7bw_4core3str7patterncNtB5_7Pattern12is_suffix_ofCsc29TF2YcYso_3syn, symObjAddr: 0x4630, symBinAddr: 0x4D638, symSize: 0x78 }
  - { offset: 0xC89AF, size: 0x8, addend: 0x0, symName: __RNvXs2_NtNtCsaNl6UpbT7bw_4core3str7patterncNtB5_7Pattern13into_searcherCsc29TF2YcYso_3syn, symObjAddr: 0x46A8, symBinAddr: 0x4D6B0, symSize: 0x114 }
  - { offset: 0xC8ACD, size: 0x8, addend: 0x0, symName: __RNvXs_NtNtCsaNl6UpbT7bw_4core3str7patternNtB4_12CharSearcherNtB4_8Searcher10next_matchCsc29TF2YcYso_3syn, symObjAddr: 0x5678, symBinAddr: 0x4DD78, symSize: 0x380 }
  - { offset: 0xC8F31, size: 0x8, addend: 0x0, symName: __RNvXs_NtNtCsaNl6UpbT7bw_4core3str7patternNtB4_12CharSearcherNtB4_8Searcher8haystackCsc29TF2YcYso_3syn, symObjAddr: 0x59F8, symBinAddr: 0x4E0F8, symSize: 0x20 }
  - { offset: 0xC9675, size: 0x8, addend: 0x0, symName: __RINvMsv_NtCshnvkK9b4wzu_11proc_macro23impNtB6_7Literal7subspanINtNtNtCsaNl6UpbT7bw_4core3ops5range5RangejEECsc29TF2YcYso_3syn, symObjAddr: 0x0, symBinAddr: 0x49508, symSize: 0xD4 }
  - { offset: 0xCA68C, size: 0x8, addend: 0x0, symName: __RNvMs4_NtNtCsaNl6UpbT7bw_4core5slice4iterINtB5_4IterNtCshnvkK9b4wzu_11proc_macro24SpanE3newCsc29TF2YcYso_3syn, symObjAddr: 0x1BD0, symBinAddr: 0x4B0D8, symSize: 0x50 }
  - { offset: 0xCA83C, size: 0x8, addend: 0x0, symName: __RNvMs4_NtNtCsaNl6UpbT7bw_4core5slice4iterINtB5_4IterNtNtCsc29TF2YcYso_3syn4attr9AttributeE3newBS_, symObjAddr: 0x1C20, symBinAddr: 0x4B128, symSize: 0x50 }
  - { offset: 0xCAA06, size: 0x8, addend: 0x0, symName: __RNvMs4_NtNtCsaNl6UpbT7bw_4core5slice4iterINtB5_4IterNtNtCsc29TF2YcYso_3syn4expr3ArmE3newBS_, symObjAddr: 0x1C70, symBinAddr: 0x4B178, symSize: 0x58 }
  - { offset: 0xCABB6, size: 0x8, addend: 0x0, symName: __RNvMs4_NtNtCsaNl6UpbT7bw_4core5slice4iterINtB5_4IterNtNtCsc29TF2YcYso_3syn5error12ErrorMessageE3newBS_, symObjAddr: 0x1CC8, symBinAddr: 0x4B1D0, symSize: 0x58 }
  - { offset: 0xCAD80, size: 0x8, addend: 0x0, symName: __RNvMs4_NtNtCsaNl6UpbT7bw_4core5slice4iterINtB5_4IterTNtNtCsc29TF2YcYso_3syn2ty4TypeNtNtBT_5token5CommaEE3newBT_, symObjAddr: 0x1D20, symBinAddr: 0x4B228, symSize: 0x58 }
  - { offset: 0xCAF4A, size: 0x8, addend: 0x0, symName: __RNvMs4_NtNtCsaNl6UpbT7bw_4core5slice4iterINtB5_4IterTNtNtCsc29TF2YcYso_3syn2ty9BareFnArgNtNtBT_5token5CommaEE3newBT_, symObjAddr: 0x1D78, symBinAddr: 0x4B280, symSize: 0x58 }
  - { offset: 0xCB114, size: 0x8, addend: 0x0, symName: __RNvMs4_NtNtCsaNl6UpbT7bw_4core5slice4iterINtB5_4IterTNtNtCsc29TF2YcYso_3syn3pat3PatNtNtBT_5token2OrEE3newBT_, symObjAddr: 0x1DD0, symBinAddr: 0x4B2D8, symSize: 0x58 }
  - { offset: 0xCB2DE, size: 0x8, addend: 0x0, symName: __RNvMs4_NtNtCsaNl6UpbT7bw_4core5slice4iterINtB5_4IterTNtNtCsc29TF2YcYso_3syn3pat3PatNtNtBT_5token5CommaEE3newBT_, symObjAddr: 0x1E28, symBinAddr: 0x4B330, symSize: 0x58 }
  - { offset: 0xCB4A8, size: 0x8, addend: 0x0, symName: __RNvMs4_NtNtCsaNl6UpbT7bw_4core5slice4iterINtB5_4IterTNtNtCsc29TF2YcYso_3syn3pat8FieldPatNtNtBT_5token5CommaEE3newBT_, symObjAddr: 0x1E80, symBinAddr: 0x4B388, symSize: 0x58 }
  - { offset: 0xCB672, size: 0x8, addend: 0x0, symName: __RNvMs4_NtNtCsaNl6UpbT7bw_4core5slice4iterINtB5_4IterTNtNtCsc29TF2YcYso_3syn4data5FieldNtNtBT_5token5CommaEE3newBT_, symObjAddr: 0x1ED8, symBinAddr: 0x4B3E0, symSize: 0x58 }
  - { offset: 0xCB83C, size: 0x8, addend: 0x0, symName: __RNvMs4_NtNtCsaNl6UpbT7bw_4core5slice4iterINtB5_4IterTNtNtCsc29TF2YcYso_3syn4data7VariantNtNtBT_5token5CommaEE3newBT_, symObjAddr: 0x1F30, symBinAddr: 0x4B438, symSize: 0x58 }
  - { offset: 0xCBA06, size: 0x8, addend: 0x0, symName: __RNvMs4_NtNtCsaNl6UpbT7bw_4core5slice4iterINtB5_4IterTNtNtCsc29TF2YcYso_3syn4expr10FieldValueNtNtBT_5token5CommaEE3newBT_, symObjAddr: 0x1F88, symBinAddr: 0x4B490, symSize: 0x58 }
  - { offset: 0xCBBD0, size: 0x8, addend: 0x0, symName: __RNvMs4_NtNtCsaNl6UpbT7bw_4core5slice4iterINtB5_4IterTNtNtCsc29TF2YcYso_3syn4expr4ExprNtNtBT_5token5CommaEE3newBT_, symObjAddr: 0x1FE0, symBinAddr: 0x4B4E8, symSize: 0x58 }
  - { offset: 0xCBD9A, size: 0x8, addend: 0x0, symName: __RNvMs4_NtNtCsaNl6UpbT7bw_4core5slice4iterINtB5_4IterTNtNtCsc29TF2YcYso_3syn4item5FnArgNtNtBT_5token5CommaEE3newBT_, symObjAddr: 0x2038, symBinAddr: 0x4B540, symSize: 0x58 }
  - { offset: 0xCBF64, size: 0x8, addend: 0x0, symName: __RNvMs4_NtNtCsaNl6UpbT7bw_4core5slice4iterINtB5_4IterTNtNtCsc29TF2YcYso_3syn4item7UseTreeNtNtBT_5token5CommaEE3newBT_, symObjAddr: 0x2090, symBinAddr: 0x4B598, symSize: 0x58 }
  - { offset: 0xCC0C2, size: 0x8, addend: 0x0, symName: __RNvMs4_NtNtCsaNl6UpbT7bw_4core5slice4iterINtB5_4IterTNtNtCsc29TF2YcYso_3syn4path11PathSegmentNtNtBT_5token7PathSepEE3newBT_, symObjAddr: 0x20E8, symBinAddr: 0x4B5F0, symSize: 0x58 }
  - { offset: 0xCC220, size: 0x8, addend: 0x0, symName: __RNvMs4_NtNtCsaNl6UpbT7bw_4core5slice4iterINtB5_4IterTNtNtCsc29TF2YcYso_3syn4path15GenericArgumentNtNtBT_5token5CommaEE3newBT_, symObjAddr: 0x2140, symBinAddr: 0x4B648, symSize: 0x58 }
  - { offset: 0xCC3EA, size: 0x8, addend: 0x0, symName: __RNvMs4_NtNtCsaNl6UpbT7bw_4core5slice4iterINtB5_4IterTNtNtCsc29TF2YcYso_3syn8generics12GenericParamNtNtBT_5token5CommaEE3newBT_, symObjAddr: 0x2198, symBinAddr: 0x4B6A0, symSize: 0x58 }
  - { offset: 0xCC5B4, size: 0x8, addend: 0x0, symName: __RNvMs4_NtNtCsaNl6UpbT7bw_4core5slice4iterINtB5_4IterTNtNtCsc29TF2YcYso_3syn8generics13CapturedParamNtNtBT_5token5CommaEE3newBT_, symObjAddr: 0x21F0, symBinAddr: 0x4B6F8, symSize: 0x58 }
  - { offset: 0xCC77E, size: 0x8, addend: 0x0, symName: __RNvMs4_NtNtCsaNl6UpbT7bw_4core5slice4iterINtB5_4IterTNtNtCsc29TF2YcYso_3syn8generics14TypeParamBoundNtNtBT_5token4PlusEE3newBT_, symObjAddr: 0x2248, symBinAddr: 0x4B750, symSize: 0x50 }
  - { offset: 0xCC948, size: 0x8, addend: 0x0, symName: __RNvMs4_NtNtCsaNl6UpbT7bw_4core5slice4iterINtB5_4IterTNtNtCsc29TF2YcYso_3syn8generics14WherePredicateNtNtBT_5token5CommaEE3newBT_, symObjAddr: 0x2298, symBinAddr: 0x4B7A0, symSize: 0x58 }
  - { offset: 0xCCB12, size: 0x8, addend: 0x0, symName: __RNvMs4_NtNtCsaNl6UpbT7bw_4core5slice4iterINtB5_4IterTNtNtCsc29TF2YcYso_3syn8lifetime8LifetimeNtNtBT_5token4PlusEE3newBT_, symObjAddr: 0x22F0, symBinAddr: 0x4B7F8, symSize: 0x58 }
  - { offset: 0xCCCB9, size: 0x8, addend: 0x0, symName: __RNvMsa_NtNtCsaNl6UpbT7bw_4core5slice4iterINtB5_7IterMutTNtNtCsc29TF2YcYso_3syn4path11PathSegmentNtNtBW_5token7PathSepEE3newBW_, symObjAddr: 0x23A0, symBinAddr: 0x4B850, symSize: 0x58 }
  - { offset: 0xCCDF4, size: 0x8, addend: 0x0, symName: __RNvXNtCs4EAaWzSXu1l_5quote9to_tokensRNtNtCsc29TF2YcYso_3syn4path15GenericArgumentNtB2_8ToTokens9to_tokensBD_, symObjAddr: 0x2564, symBinAddr: 0x4B9BC, symSize: 0x40 }
  - { offset: 0xCE1AA, size: 0x8, addend: 0x0, symName: __RINvMs_NtCsc29TF2YcYso_3syn4pathNtB5_4Path8is_identeEB7_, symObjAddr: 0x74AC, symBinAddr: 0x4FB08, symSize: 0x94 }
  - { offset: 0xCE20D, size: 0x8, addend: 0x0, symName: __RNvMs_NtCsc29TF2YcYso_3syn4pathNtB4_4Path9get_ident, symObjAddr: 0x7540, symBinAddr: 0x4FB9C, symSize: 0xE8 }
  - { offset: 0xCE249, size: 0x8, addend: 0x0, symName: __RNvMs2_NtCsc29TF2YcYso_3syn4pathNtB5_13PathArguments8is_empty, symObjAddr: 0x77C4, symBinAddr: 0x4FCEC, symSize: 0xCC }
  - { offset: 0xCE288, size: 0x8, addend: 0x0, symName: __RNvMs2_NtCsc29TF2YcYso_3syn4pathNtB5_13PathArguments7is_none, symObjAddr: 0x7890, symBinAddr: 0x4FDB8, symSize: 0x78 }
  - { offset: 0xCE309, size: 0x8, addend: 0x0, symName: __RNvMs0_NtNtCsc29TF2YcYso_3syn4path7parsingNtB7_30AngleBracketedGenericArguments15parse_turbofish, symObjAddr: 0x8D04, symBinAddr: 0x5122C, symSize: 0xD0 }
  - { offset: 0xCE368, size: 0x8, addend: 0x0, symName: __RNvMs0_NtNtCsc29TF2YcYso_3syn4path7parsingNtB7_30AngleBracketedGenericArguments8do_parse, symObjAddr: 0x8DD4, symBinAddr: 0x512FC, symSize: 0x498 }
  - { offset: 0xCE473, size: 0x8, addend: 0x0, symName: __RNvMs4_NtNtCsc29TF2YcYso_3syn4path7parsingNtB7_11PathSegment12parse_helper, symObjAddr: 0x96B8, symBinAddr: 0x51BA4, symSize: 0x66C }
  - { offset: 0xCE5AC, size: 0x8, addend: 0x0, symName: __RNvMs5_NtNtCsc29TF2YcYso_3syn4path7parsingNtB7_4Path15parse_mod_style, symObjAddr: 0x9D24, symBinAddr: 0x52210, symSize: 0x568 }
  - { offset: 0xCE688, size: 0x8, addend: 0x0, symName: __RNvMs5_NtNtCsc29TF2YcYso_3syn4path7parsingNtB7_4Path12parse_helper, symObjAddr: 0xA28C, symBinAddr: 0x52778, symSize: 0x330 }
  - { offset: 0xCE788, size: 0x8, addend: 0x0, symName: __RNvMs5_NtNtCsc29TF2YcYso_3syn4path7parsingNtB7_4Path10parse_rest, symObjAddr: 0xA5BC, symBinAddr: 0x52AA8, symSize: 0x26C }
  - { offset: 0xCE85D, size: 0x8, addend: 0x0, symName: __RNvMs5_NtNtCsc29TF2YcYso_3syn4path7parsingNtB7_4Path12is_mod_style, symObjAddr: 0xA828, symBinAddr: 0x52D14, symSize: 0x84 }
  - { offset: 0xCF930, size: 0x8, addend: 0x0, symName: __RNvMs9_NtCsaNl6UpbT7bw_4core3numj11checked_addCsc29TF2YcYso_3syn, symObjAddr: 0x6190, symBinAddr: 0x59F10, symSize: 0x74 }
  - { offset: 0xCF9BA, size: 0x8, addend: 0x0, symName: __RNvNvMs9_NtCsaNl6UpbT7bw_4core3numj13unchecked_add18precondition_checkCsc29TF2YcYso_3syn, symObjAddr: 0x699C, symBinAddr: 0x5A5D0, symSize: 0xB0 }
  - { offset: 0xCFA78, size: 0x8, addend: 0x0, symName: __RNvNvMs9_NtCsaNl6UpbT7bw_4core3numj13unchecked_mul18precondition_checkCsc29TF2YcYso_3syn, symObjAddr: 0x6A4C, symBinAddr: 0x5A680, symSize: 0xAC }
  - { offset: 0xCFC09, size: 0x8, addend: 0x0, symName: __RNvMsA_NtCsaNl6UpbT7bw_4core3numm16from_ascii_radixCsc29TF2YcYso_3syn, symObjAddr: 0x6204, symBinAddr: 0x59F84, symSize: 0x594 }
  - { offset: 0xCFEA6, size: 0x8, addend: 0x0, symName: __RNvNvMs3_NtCsaNl6UpbT7bw_4core3numi13unchecked_neg18precondition_checkCsc29TF2YcYso_3syn, symObjAddr: 0x68E4, symBinAddr: 0x5A518, symSize: 0xB8 }
  - { offset: 0xCFF43, size: 0x8, addend: 0x0, symName: __RNvXsz_NtCsaNl6UpbT7bw_4core3nummNtNtNtB7_3str6traits7FromStr8from_strCsc29TF2YcYso_3syn, symObjAddr: 0x14A54, symBinAddr: 0x67348, symSize: 0x40 }
  - { offset: 0xD98C7, size: 0x8, addend: 0x0, symName: __RNvXsp_NtCsaNl6UpbT7bw_4core6resultINtB5_6ResultANtCshnvkK9b4wzu_11proc_macro24Spanj1_NtNtCsc29TF2YcYso_3syn5error5ErrorENtNtNtB7_3ops9try_trait3Try6branchB1q_, symObjAddr: 0x709C, symBinAddr: 0x5AC74, symSize: 0x8C }
  - { offset: 0xD9944, size: 0x8, addend: 0x0, symName: __RNvXsp_NtCsaNl6UpbT7bw_4core6resultINtB5_6ResultANtCshnvkK9b4wzu_11proc_macro24Spanj2_NtNtCsc29TF2YcYso_3syn5error5ErrorENtNtNtB7_3ops9try_trait3Try6branchB1q_, symObjAddr: 0x7128, symBinAddr: 0x5AD00, symSize: 0x8C }
  - { offset: 0xD99C1, size: 0x8, addend: 0x0, symName: __RNvXsp_NtCsaNl6UpbT7bw_4core6resultINtB5_6ResultANtCshnvkK9b4wzu_11proc_macro24Spanj3_NtNtCsc29TF2YcYso_3syn5error5ErrorENtNtNtB7_3ops9try_trait3Try6branchB1q_, symObjAddr: 0x71B4, symBinAddr: 0x5AD8C, symSize: 0x9C }
  - { offset: 0xD9A3E, size: 0x8, addend: 0x0, symName: __RNvXsp_NtCsaNl6UpbT7bw_4core6resultINtB5_6ResultINtNtB7_6option6OptionINtNtCsiTraAjBDcu4_5alloc5boxed3BoxNtNtCsc29TF2YcYso_3syn4expr4ExprEENtNtB1J_5error5ErrorENtNtNtB7_3ops9try_trait3Try6branchB1J_, symObjAddr: 0x7250, symBinAddr: 0x5AE28, symSize: 0x88 }
  - { offset: 0xD9ABC, size: 0x8, addend: 0x0, symName: __RNvXsp_NtCsaNl6UpbT7bw_4core6resultINtB5_6ResultINtNtB7_6option6OptionNtCshnvkK9b4wzu_11proc_macro25IdentENtNtCsc29TF2YcYso_3syn5error5ErrorENtNtNtB7_3ops9try_trait3Try6branchB1K_, symObjAddr: 0x72D8, symBinAddr: 0x5AEB0, symSize: 0x94 }
  - { offset: 0xD9B39, size: 0x8, addend: 0x0, symName: __RNvXsp_NtCsaNl6UpbT7bw_4core6resultINtB5_6ResultINtNtB7_6option6OptionNtNtCsc29TF2YcYso_3syn2ty3AbiENtNtB1a_5error5ErrorENtNtNtB7_3ops9try_trait3Try6branchB1a_, symObjAddr: 0x736C, symBinAddr: 0x5AF44, symSize: 0x94 }
  - { offset: 0xD9BB6, size: 0x8, addend: 0x0, symName: __RNvXsp_NtCsaNl6UpbT7bw_4core6resultINtB5_6ResultINtNtB7_6option6OptionNtNtCsc29TF2YcYso_3syn3lit3LitENtNtB1a_5error5ErrorENtNtNtB7_3ops9try_trait3Try6branchB1a_, symObjAddr: 0x7400, symBinAddr: 0x5AFD8, symSize: 0x94 }
  - { offset: 0xD9C33, size: 0x8, addend: 0x0, symName: __RNvXsp_NtCsaNl6UpbT7bw_4core6resultINtB5_6ResultINtNtB7_6option6OptionNtNtCsc29TF2YcYso_3syn3lit6LitStrENtNtB1a_5error5ErrorENtNtNtB7_3ops9try_trait3Try6branchB1a_, symObjAddr: 0x7494, symBinAddr: 0x5B06C, symSize: 0x88 }
  - { offset: 0xD9CB1, size: 0x8, addend: 0x0, symName: __RNvXsp_NtCsaNl6UpbT7bw_4core6resultINtB5_6ResultINtNtB7_6option6OptionNtNtCsc29TF2YcYso_3syn3lit8LitFloatENtNtB1a_5error5ErrorENtNtNtB7_3ops9try_trait3Try6branchB1a_, symObjAddr: 0x751C, symBinAddr: 0x5B0F4, symSize: 0x88 }
  - { offset: 0xD9D2F, size: 0x8, addend: 0x0, symName: __RNvXsp_NtCsaNl6UpbT7bw_4core6resultINtB5_6ResultINtNtB7_6option6OptionNtNtCsc29TF2YcYso_3syn4expr5LabelENtNtB1a_5error5ErrorENtNtNtB7_3ops9try_trait3Try6branchB1a_, symObjAddr: 0x75A4, symBinAddr: 0x5B17C, symSize: 0xB0 }
  - { offset: 0xD9DAC, size: 0x8, addend: 0x0, symName: __RNvXsp_NtCsaNl6UpbT7bw_4core6resultINtB5_6ResultINtNtB7_6option6OptionNtNtCsc29TF2YcYso_3syn4item10ImplItemFnENtNtB1a_5error5ErrorENtNtNtB7_3ops9try_trait3Try6branchB1a_, symObjAddr: 0x7654, symBinAddr: 0x5B22C, symSize: 0xC0 }
  - { offset: 0xD9E2A, size: 0x8, addend: 0x0, symName: __RNvXsp_NtCsaNl6UpbT7bw_4core6resultINtB5_6ResultINtNtB7_6option6OptionNtNtCsc29TF2YcYso_3syn4item7ItemUseENtNtB1a_5error5ErrorENtNtNtB7_3ops9try_trait3Try6branchB1a_, symObjAddr: 0x7714, symBinAddr: 0x5B2EC, symSize: 0xB8 }
  - { offset: 0xD9EA8, size: 0x8, addend: 0x0, symName: __RNvXsp_NtCsaNl6UpbT7bw_4core6resultINtB5_6ResultINtNtB7_6option6OptionNtNtCsc29TF2YcYso_3syn4item7UseTreeENtNtB1a_5error5ErrorENtNtNtB7_3ops9try_trait3Try6branchB1a_, symObjAddr: 0x77CC, symBinAddr: 0x5B3A4, symSize: 0xAC }
  - { offset: 0xD9F25, size: 0x8, addend: 0x0, symName: __RNvXsp_NtCsaNl6UpbT7bw_4core6resultINtB5_6ResultINtNtB7_6option6OptionNtNtCsc29TF2YcYso_3syn4item8ItemImplENtNtB1a_5error5ErrorENtNtNtB7_3ops9try_trait3Try6branchB1a_, symObjAddr: 0x7878, symBinAddr: 0x5B450, symSize: 0xB8 }
  - { offset: 0xD9FA3, size: 0x8, addend: 0x0, symName: __RNvXsp_NtCsaNl6UpbT7bw_4core6resultINtB5_6ResultINtNtB7_6option6OptionNtNtCsc29TF2YcYso_3syn4item9SignatureENtNtB1a_5error5ErrorENtNtNtB7_3ops9try_trait3Try6branchB1a_, symObjAddr: 0x7930, symBinAddr: 0x5B508, symSize: 0xB4 }
  - { offset: 0xDA021, size: 0x8, addend: 0x0, symName: __RNvXsp_NtCsaNl6UpbT7bw_4core6resultINtB5_6ResultINtNtB7_6option6OptionNtNtCsc29TF2YcYso_3syn5token2EqENtNtB1a_5error5ErrorENtNtNtB7_3ops9try_trait3Try6branchB1a_, symObjAddr: 0x79E4, symBinAddr: 0x5B5BC, symSize: 0x8C }
  - { offset: 0xDA09E, size: 0x8, addend: 0x0, symName: __RNvXsp_NtCsaNl6UpbT7bw_4core6resultINtB5_6ResultINtNtB7_6option6OptionNtNtCsc29TF2YcYso_3syn5token2OrENtNtB1a_5error5ErrorENtNtNtB7_3ops9try_trait3Try6branchB1a_, symObjAddr: 0x7A70, symBinAddr: 0x5B648, symSize: 0x8C }
  - { offset: 0xDA11B, size: 0x8, addend: 0x0, symName: __RNvXsp_NtCsaNl6UpbT7bw_4core6resultINtB5_6ResultINtNtB7_6option6OptionNtNtCsc29TF2YcYso_3syn5token3BoxENtNtB1a_5error5ErrorENtNtNtB7_3ops9try_trait3Try6branchB1a_, symObjAddr: 0x7AFC, symBinAddr: 0x5B6D4, symSize: 0x94 }
  - { offset: 0xDA199, size: 0x8, addend: 0x0, symName: __RNvXsp_NtCsaNl6UpbT7bw_4core6resultINtB5_6ResultINtNtB7_6option6OptionNtNtCsc29TF2YcYso_3syn5token3DynENtNtB1a_5error5ErrorENtNtNtB7_3ops9try_trait3Try6branchB1a_, symObjAddr: 0x7B90, symBinAddr: 0x5B768, symSize: 0x94 }
  - { offset: 0xDA217, size: 0x8, addend: 0x0, symName: __RNvXsp_NtCsaNl6UpbT7bw_4core6resultINtB5_6ResultINtNtB7_6option6OptionNtNtCsc29TF2YcYso_3syn5token3MutENtNtB1a_5error5ErrorENtNtNtB7_3ops9try_trait3Try6branchB1a_, symObjAddr: 0x7C24, symBinAddr: 0x5B7FC, symSize: 0x94 }
  - { offset: 0xDA295, size: 0x8, addend: 0x0, symName: __RNvXsp_NtCsaNl6UpbT7bw_4core6resultINtB5_6ResultINtNtB7_6option6OptionNtNtCsc29TF2YcYso_3syn5token3RefENtNtB1a_5error5ErrorENtNtNtB7_3ops9try_trait3Try6branchB1a_, symObjAddr: 0x7CB8, symBinAddr: 0x5B890, symSize: 0x94 }
  - { offset: 0xDA313, size: 0x8, addend: 0x0, symName: __RNvXsp_NtCsaNl6UpbT7bw_4core6resultINtB5_6ResultINtNtB7_6option6OptionNtNtCsc29TF2YcYso_3syn5token4AutoENtNtB1a_5error5ErrorENtNtNtB7_3ops9try_trait3Try6branchB1a_, symObjAddr: 0x7D4C, symBinAddr: 0x5B924, symSize: 0x94 }
  - { offset: 0xDA391, size: 0x8, addend: 0x0, symName: __RNvXsp_NtCsaNl6UpbT7bw_4core6resultINtB5_6ResultINtNtB7_6option6OptionNtNtCsc29TF2YcYso_3syn5token4MoveENtNtB1a_5error5ErrorENtNtNtB7_3ops9try_trait3Try6branchB1a_, symObjAddr: 0x7DE0, symBinAddr: 0x5B9B8, symSize: 0x94 }
  - { offset: 0xDA40F, size: 0x8, addend: 0x0, symName: __RNvXsp_NtCsaNl6UpbT7bw_4core6resultINtB5_6ResultINtNtB7_6option6OptionNtNtCsc29TF2YcYso_3syn5token4PlusENtNtB1a_5error5ErrorENtNtNtB7_3ops9try_trait3Try6branchB1a_, symObjAddr: 0x7E74, symBinAddr: 0x5BA4C, symSize: 0x8C }
  - { offset: 0xDA48C, size: 0x8, addend: 0x0, symName: __RNvXsp_NtCsaNl6UpbT7bw_4core6resultINtB5_6ResultINtNtB7_6option6OptionNtNtCsc29TF2YcYso_3syn5token4SemiENtNtB1a_5error5ErrorENtNtNtB7_3ops9try_trait3Try6branchB1a_, symObjAddr: 0x7F00, symBinAddr: 0x5BAD8, symSize: 0x8C }
  - { offset: 0xDA509, size: 0x8, addend: 0x0, symName: __RNvXsp_NtCsaNl6UpbT7bw_4core6resultINtB5_6ResultINtNtB7_6option6OptionNtNtCsc29TF2YcYso_3syn5token4StarENtNtB1a_5error5ErrorENtNtNtB7_3ops9try_trait3Try6branchB1a_, symObjAddr: 0x7F8C, symBinAddr: 0x5BB64, symSize: 0x8C }
  - { offset: 0xDA586, size: 0x8, addend: 0x0, symName: __RNvXsp_NtCsaNl6UpbT7bw_4core6resultINtB5_6ResultINtNtB7_6option6OptionNtNtCsc29TF2YcYso_3syn5token5AsyncENtNtB1a_5error5ErrorENtNtNtB7_3ops9try_trait3Try6branchB1a_, symObjAddr: 0x8018, symBinAddr: 0x5BBF0, symSize: 0x94 }
  - { offset: 0xDA604, size: 0x8, addend: 0x0, symName: __RNvXsp_NtCsaNl6UpbT7bw_4core6resultINtB5_6ResultINtNtB7_6option6OptionNtNtCsc29TF2YcYso_3syn5token5AwaitENtNtB1a_5error5ErrorENtNtNtB7_3ops9try_trait3Try6branchB1a_, symObjAddr: 0x80AC, symBinAddr: 0x5BC84, symSize: 0x94 }
  - { offset: 0xDA682, size: 0x8, addend: 0x0, symName: __RNvXsp_NtCsaNl6UpbT7bw_4core6resultINtB5_6ResultINtNtB7_6option6OptionNtNtCsc29TF2YcYso_3syn5token5ColonENtNtB1a_5error5ErrorENtNtNtB7_3ops9try_trait3Try6branchB1a_, symObjAddr: 0x8140, symBinAddr: 0x5BD18, symSize: 0x8C }
  - { offset: 0xDA6FF, size: 0x8, addend: 0x0, symName: __RNvXsp_NtCsaNl6UpbT7bw_4core6resultINtB5_6ResultINtNtB7_6option6OptionNtNtCsc29TF2YcYso_3syn5token5CommaENtNtB1a_5error5ErrorENtNtNtB7_3ops9try_trait3Try6branchB1a_, symObjAddr: 0x81CC, symBinAddr: 0x5BDA4, symSize: 0x8C }
  - { offset: 0xDA77C, size: 0x8, addend: 0x0, symName: __RNvXsp_NtCsaNl6UpbT7bw_4core6resultINtB5_6ResultINtNtB7_6option6OptionNtNtCsc29TF2YcYso_3syn5token5ConstENtNtB1a_5error5ErrorENtNtNtB7_3ops9try_trait3Try6branchB1a_, symObjAddr: 0x8258, symBinAddr: 0x5BE30, symSize: 0x94 }
  - { offset: 0xDA7FA, size: 0x8, addend: 0x0, symName: __RNvXsp_NtCsaNl6UpbT7bw_4core6resultINtB5_6ResultINtNtB7_6option6OptionNtNtCsc29TF2YcYso_3syn5token6StaticENtNtB1a_5error5ErrorENtNtNtB7_3ops9try_trait3Try6branchB1a_, symObjAddr: 0x82EC, symBinAddr: 0x5BEC4, symSize: 0x94 }
  - { offset: 0xDA878, size: 0x8, addend: 0x0, symName: __RNvXsp_NtCsaNl6UpbT7bw_4core6resultINtB5_6ResultINtNtB7_6option6OptionNtNtCsc29TF2YcYso_3syn5token6UnsafeENtNtB1a_5error5ErrorENtNtNtB7_3ops9try_trait3Try6branchB1a_, symObjAddr: 0x8380, symBinAddr: 0x5BF58, symSize: 0x94 }
  - { offset: 0xDA8F6, size: 0x8, addend: 0x0, symName: __RNvXsp_NtCsaNl6UpbT7bw_4core6resultINtB5_6ResultINtNtB7_6option6OptionNtNtCsc29TF2YcYso_3syn5token7DefaultENtNtB1a_5error5ErrorENtNtNtB7_3ops9try_trait3Try6branchB1a_, symObjAddr: 0x8414, symBinAddr: 0x5BFEC, symSize: 0x94 }
  - { offset: 0xDA974, size: 0x8, addend: 0x0, symName: __RNvXsp_NtCsaNl6UpbT7bw_4core6resultINtB5_6ResultINtNtB7_6option6OptionNtNtCsc29TF2YcYso_3syn5token7PathSepENtNtB1a_5error5ErrorENtNtNtB7_3ops9try_trait3Try6branchB1a_, symObjAddr: 0x84A8, symBinAddr: 0x5C080, symSize: 0x9C }
  - { offset: 0xDA9F1, size: 0x8, addend: 0x0, symName: __RNvXsp_NtCsaNl6UpbT7bw_4core6resultINtB5_6ResultINtNtB7_6option6OptionNtNtCsc29TF2YcYso_3syn5token8QuestionENtNtB1a_5error5ErrorENtNtNtB7_3ops9try_trait3Try6branchB1a_, symObjAddr: 0x8544, symBinAddr: 0x5C11C, symSize: 0x8C }
  - { offset: 0xDAA6E, size: 0x8, addend: 0x0, symName: __RNvXsp_NtCsaNl6UpbT7bw_4core6resultINtB5_6ResultINtNtB7_6option6OptionNtNtCsc29TF2YcYso_3syn5token9DotDotDotENtNtB1a_5error5ErrorENtNtNtB7_3ops9try_trait3Try6branchB1a_, symObjAddr: 0x85D0, symBinAddr: 0x5C1A8, symSize: 0x8C }
  - { offset: 0xDAAEB, size: 0x8, addend: 0x0, symName: __RNvXsp_NtCsaNl6UpbT7bw_4core6resultINtB5_6ResultINtNtB7_6option6OptionNtNtCsc29TF2YcYso_3syn8generics10TraitBoundENtNtB1a_5error5ErrorENtNtNtB7_3ops9try_trait3Try6branchB1a_, symObjAddr: 0x865C, symBinAddr: 0x5C234, symSize: 0xBC }
  - { offset: 0xDAB68, size: 0x8, addend: 0x0, symName: __RNvXsp_NtCsaNl6UpbT7bw_4core6resultINtB5_6ResultINtNtB7_6option6OptionNtNtCsc29TF2YcYso_3syn8generics11WhereClauseENtNtB1a_5error5ErrorENtNtNtB7_3ops9try_trait3Try6branchB1a_, symObjAddr: 0x8718, symBinAddr: 0x5C2F0, symSize: 0xB0 }
  - { offset: 0xDABE5, size: 0x8, addend: 0x0, symName: __RNvXsp_NtCsaNl6UpbT7bw_4core6resultINtB5_6ResultINtNtB7_6option6OptionNtNtCsc29TF2YcYso_3syn8generics14BoundLifetimesENtNtB1a_5error5ErrorENtNtNtB7_3ops9try_trait3Try6branchB1a_, symObjAddr: 0x87C8, symBinAddr: 0x5C3A0, symSize: 0xB0 }
  - { offset: 0xDAC62, size: 0x8, addend: 0x0, symName: __RNvXsp_NtCsaNl6UpbT7bw_4core6resultINtB5_6ResultINtNtB7_6option6OptionNtNtCsc29TF2YcYso_3syn8lifetime8LifetimeENtNtB1a_5error5ErrorENtNtNtB7_3ops9try_trait3Try6branchB1a_, symObjAddr: 0x8878, symBinAddr: 0x5C450, symSize: 0x94 }
  - { offset: 0xDACDF, size: 0x8, addend: 0x0, symName: __RNvXsp_NtCsaNl6UpbT7bw_4core6resultINtB5_6ResultINtNtB7_6option6OptionNtNtNtCsc29TF2YcYso_3syn3pat7parsing13PatRangeBoundENtNtB1c_5error5ErrorENtNtNtB7_3ops9try_trait3Try6branchB1c_, symObjAddr: 0x890C, symBinAddr: 0x5C4E4, symSize: 0xBC }
  - { offset: 0xDAD5C, size: 0x8, addend: 0x0, symName: __RNvXsp_NtCsaNl6UpbT7bw_4core6resultINtB5_6ResultINtNtB7_6option6OptionTNtNtCsc29TF2YcYso_3syn5token2EqNtNtB1b_2ty4TypeEENtNtB1b_5error5ErrorENtNtNtB7_3ops9try_trait3Try6branchB1b_, symObjAddr: 0x89C8, symBinAddr: 0x5C5A0, symSize: 0xC0 }
  - { offset: 0xDADDA, size: 0x8, addend: 0x0, symName: __RNvXsp_NtCsaNl6UpbT7bw_4core6resultINtB5_6ResultINtNtCsc29TF2YcYso_3syn10punctuated10PunctuatedNtNtBP_2ty4TypeNtNtBP_5token5CommaENtNtBP_5error5ErrorENtNtNtB7_3ops9try_trait3Try6branchBP_, symObjAddr: 0x8A88, symBinAddr: 0x5C660, symSize: 0xA0 }
  - { offset: 0xDAE57, size: 0x8, addend: 0x0, symName: __RNvXsp_NtCsaNl6UpbT7bw_4core6resultINtB5_6ResultINtNtCsc29TF2YcYso_3syn10punctuated10PunctuatedNtNtBP_4data5FieldNtNtBP_5token5CommaENtNtBP_5error5ErrorENtNtNtB7_3ops9try_trait3Try6branchBP_, symObjAddr: 0x8B28, symBinAddr: 0x5C700, symSize: 0xA0 }
  - { offset: 0xDAED4, size: 0x8, addend: 0x0, symName: __RNvXsp_NtCsaNl6UpbT7bw_4core6resultINtB5_6ResultINtNtCsc29TF2YcYso_3syn10punctuated10PunctuatedNtNtBP_4data7VariantNtNtBP_5token5CommaENtNtBP_5error5ErrorENtNtNtB7_3ops9try_trait3Try6branchBP_, symObjAddr: 0x8BC8, symBinAddr: 0x5C7A0, symSize: 0xA0 }
  - { offset: 0xDAF51, size: 0x8, addend: 0x0, symName: __RNvXsp_NtCsaNl6UpbT7bw_4core6resultINtB5_6ResultINtNtCsc29TF2YcYso_3syn10punctuated10PunctuatedNtNtBP_4expr4ExprNtNtBP_5token5CommaENtNtBP_5error5ErrorENtNtNtB7_3ops9try_trait3Try6branchBP_, symObjAddr: 0x8C68, symBinAddr: 0x5C840, symSize: 0xA0 }
  - { offset: 0xDAFCE, size: 0x8, addend: 0x0, symName: __RNvXsp_NtCsaNl6UpbT7bw_4core6resultINtB5_6ResultINtNtCsc29TF2YcYso_3syn10punctuated10PunctuatedNtNtBP_8generics14TypeParamBoundNtNtBP_5token4PlusENtNtBP_5error5ErrorENtNtNtB7_3ops9try_trait3Try6branchBP_, symObjAddr: 0x8D08, symBinAddr: 0x5C8E0, symSize: 0xA0 }
  - { offset: 0xDB04B, size: 0x8, addend: 0x0, symName: __RNvXsp_NtCsaNl6UpbT7bw_4core6resultINtB5_6ResultINtNtCsiTraAjBDcu4_5alloc3vec3VecNtNtCsc29TF2YcYso_3syn4attr9AttributeENtNtB1l_5error5ErrorENtNtNtB7_3ops9try_trait3Try6branchB1l_, symObjAddr: 0x8DA8, symBinAddr: 0x5C980, symSize: 0x94 }
  - { offset: 0xDB0C8, size: 0x8, addend: 0x0, symName: __RNvXsp_NtCsaNl6UpbT7bw_4core6resultINtB5_6ResultINtNtCsiTraAjBDcu4_5alloc3vec3VecNtNtCsc29TF2YcYso_3syn4expr3ArmENtNtB1l_5error5ErrorENtNtNtB7_3ops9try_trait3Try6branchB1l_, symObjAddr: 0x8E3C, symBinAddr: 0x5CA14, symSize: 0x94 }
  - { offset: 0xDB145, size: 0x8, addend: 0x0, symName: __RNvXsp_NtCsaNl6UpbT7bw_4core6resultINtB5_6ResultINtNtCsiTraAjBDcu4_5alloc3vec3VecNtNtCsc29TF2YcYso_3syn4stmt4StmtENtNtB1l_5error5ErrorENtNtNtB7_3ops9try_trait3Try6branchB1l_, symObjAddr: 0x8ED0, symBinAddr: 0x5CAA8, symSize: 0x94 }
  - { offset: 0xDB1C2, size: 0x8, addend: 0x0, symName: __RNvXsp_NtCsaNl6UpbT7bw_4core6resultINtB5_6ResultINtNtCsiTraAjBDcu4_5alloc5boxed3BoxNtNtCsc29TF2YcYso_3syn2ty4TypeENtNtB1n_5error5ErrorENtNtNtB7_3ops9try_trait3Try6branchB1n_, symObjAddr: 0x8F64, symBinAddr: 0x5CB3C, symSize: 0x88 }
  - { offset: 0xDB240, size: 0x8, addend: 0x0, symName: __RNvXsp_NtCsaNl6UpbT7bw_4core6resultINtB5_6ResultINtNtCsiTraAjBDcu4_5alloc5boxed3BoxNtNtCsc29TF2YcYso_3syn4expr4ExprENtNtB1n_5error5ErrorENtNtNtB7_3ops9try_trait3Try6branchB1n_, symObjAddr: 0x8FEC, symBinAddr: 0x5CBC4, symSize: 0x88 }
  - { offset: 0xDB2BE, size: 0x8, addend: 0x0, symName: __RNvXsp_NtCsaNl6UpbT7bw_4core6resultINtB5_6ResultNtCshnvkK9b4wzu_11proc_macro211TokenStreamNtBM_8LexErrorENtNtNtB7_3ops9try_trait3Try6branchCsc29TF2YcYso_3syn, symObjAddr: 0x9074, symBinAddr: 0x5CC4C, symSize: 0x84 }
  - { offset: 0xDB33B, size: 0x8, addend: 0x0, symName: __RNvXsp_NtCsaNl6UpbT7bw_4core6resultINtB5_6ResultNtCshnvkK9b4wzu_11proc_macro211TokenStreamNtNtCsc29TF2YcYso_3syn5error5ErrorENtNtNtB7_3ops9try_trait3Try6branchB1u_, symObjAddr: 0x90F8, symBinAddr: 0x5CCD0, symSize: 0xA0 }
  - { offset: 0xDB3B8, size: 0x8, addend: 0x0, symName: __RNvXsp_NtCsaNl6UpbT7bw_4core6resultINtB5_6ResultNtCshnvkK9b4wzu_11proc_macro24SpanNtNtCsc29TF2YcYso_3syn5error5ErrorENtNtNtB7_3ops9try_trait3Try6branchB1m_, symObjAddr: 0x9198, symBinAddr: 0x5CD70, symSize: 0x88 }
  - { offset: 0xDB436, size: 0x8, addend: 0x0, symName: __RNvXsp_NtCsaNl6UpbT7bw_4core6resultINtB5_6ResultNtCshnvkK9b4wzu_11proc_macro25IdentNtNtCsc29TF2YcYso_3syn5error5ErrorENtNtNtB7_3ops9try_trait3Try6branchB1n_, symObjAddr: 0x9220, symBinAddr: 0x5CDF8, symSize: 0x94 }
  - { offset: 0xDB4B3, size: 0x8, addend: 0x0, symName: __RNvXsp_NtCsaNl6UpbT7bw_4core6resultINtB5_6ResultNtNtCsc29TF2YcYso_3syn11restriction10VisibilityNtNtBO_5error5ErrorENtNtNtB7_3ops9try_trait3Try6branchBO_, symObjAddr: 0x92B4, symBinAddr: 0x5CE8C, symSize: 0x9C }
  - { offset: 0xDB530, size: 0x8, addend: 0x0, symName: __RNvXsp_NtCsaNl6UpbT7bw_4core6resultINtB5_6ResultNtNtCsc29TF2YcYso_3syn2op4UnOpNtNtBO_5error5ErrorENtNtNtB7_3ops9try_trait3Try6branchBO_, symObjAddr: 0x9350, symBinAddr: 0x5CF28, symSize: 0x8C }
  - { offset: 0xDB5AD, size: 0x8, addend: 0x0, symName: __RNvXsp_NtCsaNl6UpbT7bw_4core6resultINtB5_6ResultNtNtCsc29TF2YcYso_3syn2ty10ReturnTypeNtNtBO_5error5ErrorENtNtNtB7_3ops9try_trait3Try6branchBO_, symObjAddr: 0x93DC, symBinAddr: 0x5CFB4, symSize: 0x8C }
  - { offset: 0xDB62A, size: 0x8, addend: 0x0, symName: __RNvXsp_NtCsaNl6UpbT7bw_4core6resultINtB5_6ResultNtNtCsc29TF2YcYso_3syn2ty10TypeBareFnNtNtBO_5error5ErrorENtNtNtB7_3ops9try_trait3Try6branchBO_, symObjAddr: 0x9468, symBinAddr: 0x5D040, symSize: 0xB4 }
  - { offset: 0xDB6A8, size: 0x8, addend: 0x0, symName: __RNvXsp_NtCsaNl6UpbT7bw_4core6resultINtB5_6ResultNtNtCsc29TF2YcYso_3syn2ty12BareVariadicNtNtBO_5error5ErrorENtNtNtB7_3ops9try_trait3Try6branchBO_, symObjAddr: 0x951C, symBinAddr: 0x5D0F4, symSize: 0xB0 }
  - { offset: 0xDB725, size: 0x8, addend: 0x0, symName: __RNvXsp_NtCsaNl6UpbT7bw_4core6resultINtB5_6ResultNtNtCsc29TF2YcYso_3syn2ty15TypeTraitObjectNtNtBO_5error5ErrorENtNtNtB7_3ops9try_trait3Try6branchBO_, symObjAddr: 0x95CC, symBinAddr: 0x5D1A4, symSize: 0xB0 }
  - { offset: 0xDB7A2, size: 0x8, addend: 0x0, symName: __RNvXsp_NtCsaNl6UpbT7bw_4core6resultINtB5_6ResultNtNtCsc29TF2YcYso_3syn2ty3AbiNtNtBO_5error5ErrorENtNtNtB7_3ops9try_trait3Try6branchBO_, symObjAddr: 0x967C, symBinAddr: 0x5D254, symSize: 0x94 }
  - { offset: 0xDB820, size: 0x8, addend: 0x0, symName: __RNvXsp_NtCsaNl6UpbT7bw_4core6resultINtB5_6ResultNtNtCsc29TF2YcYso_3syn2ty4TypeNtNtBO_5error5ErrorENtNtNtB7_3ops9try_trait3Try6branchBO_, symObjAddr: 0x9710, symBinAddr: 0x5D2E8, symSize: 0xB4 }
  - { offset: 0xDB89E, size: 0x8, addend: 0x0, symName: __RNvXsp_NtCsaNl6UpbT7bw_4core6resultINtB5_6ResultNtNtCsc29TF2YcYso_3syn2ty8TypePathNtNtBO_5error5ErrorENtNtNtB7_3ops9try_trait3Try6branchBO_, symObjAddr: 0x97C4, symBinAddr: 0x5D39C, symSize: 0xB0 }
  - { offset: 0xDB91B, size: 0x8, addend: 0x0, symName: __RNvXsp_NtCsaNl6UpbT7bw_4core6resultINtB5_6ResultNtNtCsc29TF2YcYso_3syn2ty9BareFnArgNtNtBO_5error5ErrorENtNtNtB7_3ops9try_trait3Try6branchBO_, symObjAddr: 0x9874, symBinAddr: 0x5D44C, symSize: 0xC0 }
  - { offset: 0xDB999, size: 0x8, addend: 0x0, symName: __RNvXsp_NtCsaNl6UpbT7bw_4core6resultINtB5_6ResultNtNtCsc29TF2YcYso_3syn2ty9TypeGroupNtNtBO_5error5ErrorENtNtNtB7_3ops9try_trait3Try6branchBO_, symObjAddr: 0x9934, symBinAddr: 0x5D50C, symSize: 0x94 }
  - { offset: 0xDBA17, size: 0x8, addend: 0x0, symName: __RNvXsp_NtCsaNl6UpbT7bw_4core6resultINtB5_6ResultNtNtCsc29TF2YcYso_3syn3lit3LitNtNtBO_5error5ErrorENtNtNtB7_3ops9try_trait3Try6branchBO_, symObjAddr: 0x99C8, symBinAddr: 0x5D5A0, symSize: 0x94 }
  - { offset: 0xDBA94, size: 0x8, addend: 0x0, symName: __RNvXsp_NtCsaNl6UpbT7bw_4core6resultINtB5_6ResultNtNtCsc29TF2YcYso_3syn3lit6LitIntNtNtBO_5error5ErrorENtNtNtB7_3ops9try_trait3Try6branchBO_, symObjAddr: 0x9A5C, symBinAddr: 0x5D634, symSize: 0x88 }
  - { offset: 0xDBB12, size: 0x8, addend: 0x0, symName: __RNvXsp_NtCsaNl6UpbT7bw_4core6resultINtB5_6ResultNtNtCsc29TF2YcYso_3syn3lit6LitStrNtNtBO_5error5ErrorENtNtNtB7_3ops9try_trait3Try6branchBO_, symObjAddr: 0x9AE4, symBinAddr: 0x5D6BC, symSize: 0x88 }
  - { offset: 0xDBB90, size: 0x8, addend: 0x0, symName: __RNvXsp_NtCsaNl6UpbT7bw_4core6resultINtB5_6ResultNtNtCsc29TF2YcYso_3syn3lit8LitFloatNtNtBO_5error5ErrorENtNtNtB7_3ops9try_trait3Try6branchBO_, symObjAddr: 0x9B6C, symBinAddr: 0x5D744, symSize: 0x88 }
  - { offset: 0xDBC0E, size: 0x8, addend: 0x0, symName: __RNvXsp_NtCsaNl6UpbT7bw_4core6resultINtB5_6ResultNtNtCsc29TF2YcYso_3syn3mac5MacroNtNtBO_5error5ErrorENtNtNtB7_3ops9try_trait3Try6branchBO_, symObjAddr: 0x9BF4, symBinAddr: 0x5D7CC, symSize: 0xBC }
  - { offset: 0xDBC8B, size: 0x8, addend: 0x0, symName: __RNvXsp_NtCsaNl6UpbT7bw_4core6resultINtB5_6ResultNtNtCsc29TF2YcYso_3syn3pat3PatNtNtBO_5error5ErrorENtNtNtB7_3ops9try_trait3Try6branchBO_, symObjAddr: 0x9CB0, symBinAddr: 0x5D888, symSize: 0xCC }
  - { offset: 0xDBD09, size: 0x8, addend: 0x0, symName: __RNvXsp_NtCsaNl6UpbT7bw_4core6resultINtB5_6ResultNtNtCsc29TF2YcYso_3syn3pat8FieldPatNtNtBO_5error5ErrorENtNtNtB7_3ops9try_trait3Try6branchBO_, symObjAddr: 0x9D7C, symBinAddr: 0x5D954, symSize: 0xB0 }
  - { offset: 0xDBD86, size: 0x8, addend: 0x0, symName: __RNvXsp_NtCsaNl6UpbT7bw_4core6resultINtB5_6ResultNtNtCsc29TF2YcYso_3syn4attr4MetaNtNtBO_5error5ErrorENtNtNtB7_3ops9try_trait3Try6branchBO_, symObjAddr: 0x9E2C, symBinAddr: 0x5DA04, symSize: 0xC0 }
  - { offset: 0xDBE04, size: 0x8, addend: 0x0, symName: __RNvXsp_NtCsaNl6UpbT7bw_4core6resultINtB5_6ResultNtNtCsc29TF2YcYso_3syn4attr9AttributeNtNtBO_5error5ErrorENtNtNtB7_3ops9try_trait3Try6branchBO_, symObjAddr: 0x9EEC, symBinAddr: 0x5DAC4, symSize: 0xB4 }
  - { offset: 0xDBE82, size: 0x8, addend: 0x0, symName: __RNvXsp_NtCsaNl6UpbT7bw_4core6resultINtB5_6ResultNtNtCsc29TF2YcYso_3syn4data11FieldsNamedNtNtBO_5error5ErrorENtNtNtB7_3ops9try_trait3Try6branchBO_, symObjAddr: 0x9FA0, symBinAddr: 0x5DB78, symSize: 0xB0 }
  - { offset: 0xDBEFF, size: 0x8, addend: 0x0, symName: __RNvXsp_NtCsaNl6UpbT7bw_4core6resultINtB5_6ResultNtNtCsc29TF2YcYso_3syn4data13FieldsUnnamedNtNtBO_5error5ErrorENtNtNtB7_3ops9try_trait3Try6branchBO_, symObjAddr: 0xA050, symBinAddr: 0x5DC28, symSize: 0xB0 }
  - { offset: 0xDBF7C, size: 0x8, addend: 0x0, symName: __RNvXsp_NtCsaNl6UpbT7bw_4core6resultINtB5_6ResultNtNtCsc29TF2YcYso_3syn4data5FieldNtNtBO_5error5ErrorENtNtNtB7_3ops9try_trait3Try6branchBO_, symObjAddr: 0xA100, symBinAddr: 0x5DCD8, symSize: 0xC0 }
  - { offset: 0xDBFFA, size: 0x8, addend: 0x0, symName: __RNvXsp_NtCsaNl6UpbT7bw_4core6resultINtB5_6ResultNtNtCsc29TF2YcYso_3syn4data7VariantNtNtBO_5error5ErrorENtNtNtB7_3ops9try_trait3Try6branchBO_, symObjAddr: 0xA1C0, symBinAddr: 0x5DD98, symSize: 0xB4 }
  - { offset: 0xDC078, size: 0x8, addend: 0x0, symName: __RNvXsp_NtCsaNl6UpbT7bw_4core6resultINtB5_6ResultNtNtCsc29TF2YcYso_3syn4expr10ExprUnsafeNtNtBO_5error5ErrorENtNtNtB7_3ops9try_trait3Try6branchBO_, symObjAddr: 0xA274, symBinAddr: 0x5DE4C, symSize: 0xB0 }
  - { offset: 0xDC0F5, size: 0x8, addend: 0x0, symName: __RNvXsp_NtCsaNl6UpbT7bw_4core6resultINtB5_6ResultNtNtCsc29TF2YcYso_3syn4expr10FieldValueNtNtBO_5error5ErrorENtNtNtB7_3ops9try_trait3Try6branchBO_, symObjAddr: 0xA324, symBinAddr: 0x5DEFC, symSize: 0xC0 }
  - { offset: 0xDC173, size: 0x8, addend: 0x0, symName: __RNvXsp_NtCsaNl6UpbT7bw_4core6resultINtB5_6ResultNtNtCsc29TF2YcYso_3syn4expr11ExprForLoopNtNtBO_5error5ErrorENtNtNtB7_3ops9try_trait3Try6branchBO_, symObjAddr: 0xA3E4, symBinAddr: 0x5DFBC, symSize: 0xB0 }
  - { offset: 0xDC1F0, size: 0x8, addend: 0x0, symName: __RNvXsp_NtCsaNl6UpbT7bw_4core6resultINtB5_6ResultNtNtCsc29TF2YcYso_3syn4expr11RangeLimitsNtNtBO_5error5ErrorENtNtNtB7_3ops9try_trait3Try6branchBO_, symObjAddr: 0xA494, symBinAddr: 0x5E06C, symSize: 0x8C }
  - { offset: 0xDC26D, size: 0x8, addend: 0x0, symName: __RNvXsp_NtCsaNl6UpbT7bw_4core6resultINtB5_6ResultNtNtCsc29TF2YcYso_3syn4expr12ExprTryBlockNtNtBO_5error5ErrorENtNtNtB7_3ops9try_trait3Try6branchBO_, symObjAddr: 0xA520, symBinAddr: 0x5E0F8, symSize: 0xB0 }
  - { offset: 0xDC2EA, size: 0x8, addend: 0x0, symName: __RNvXsp_NtCsaNl6UpbT7bw_4core6resultINtB5_6ResultNtNtCsc29TF2YcYso_3syn4expr3ArmNtNtBO_5error5ErrorENtNtNtB7_3ops9try_trait3Try6branchBO_, symObjAddr: 0xA664, symBinAddr: 0x5E1A8, symSize: 0xC4 }
  - { offset: 0xDC368, size: 0x8, addend: 0x0, symName: __RNvXsp_NtCsaNl6UpbT7bw_4core6resultINtB5_6ResultNtNtCsc29TF2YcYso_3syn4expr4ExprNtNtBO_5error5ErrorENtNtNtB7_3ops9try_trait3Try6branchBO_, symObjAddr: 0xA728, symBinAddr: 0x5E26C, symSize: 0xB4 }
  - { offset: 0xDC3E6, size: 0x8, addend: 0x0, symName: __RNvXsp_NtCsaNl6UpbT7bw_4core6resultINtB5_6ResultNtNtCsc29TF2YcYso_3syn4expr5IndexNtNtBO_5error5ErrorENtNtNtB7_3ops9try_trait3Try6branchBO_, symObjAddr: 0xA7DC, symBinAddr: 0x5E320, symSize: 0x94 }
  - { offset: 0xDC464, size: 0x8, addend: 0x0, symName: __RNvXsp_NtCsaNl6UpbT7bw_4core6resultINtB5_6ResultNtNtCsc29TF2YcYso_3syn4expr5LabelNtNtBO_5error5ErrorENtNtNtB7_3ops9try_trait3Try6branchBO_, symObjAddr: 0xA870, symBinAddr: 0x5E3B4, symSize: 0xB0 }
  - { offset: 0xDC4E1, size: 0x8, addend: 0x0, symName: __RNvXsp_NtCsaNl6UpbT7bw_4core6resultINtB5_6ResultNtNtCsc29TF2YcYso_3syn4expr6ExprIfNtNtBO_5error5ErrorENtNtNtB7_3ops9try_trait3Try6branchBO_, symObjAddr: 0xA920, symBinAddr: 0x5E464, symSize: 0xB0 }
  - { offset: 0xDC55E, size: 0x8, addend: 0x0, symName: __RNvXsp_NtCsaNl6UpbT7bw_4core6resultINtB5_6ResultNtNtCsc29TF2YcYso_3syn4expr6MemberNtNtBO_5error5ErrorENtNtNtB7_3ops9try_trait3Try6branchBO_, symObjAddr: 0xA9D0, symBinAddr: 0x5E514, symSize: 0x94 }
  - { offset: 0xDC5DB, size: 0x8, addend: 0x0, symName: __RNvXsp_NtCsaNl6UpbT7bw_4core6resultINtB5_6ResultNtNtCsc29TF2YcYso_3syn4expr7ExprLitNtNtBO_5error5ErrorENtNtNtB7_3ops9try_trait3Try6branchBO_, symObjAddr: 0xAA64, symBinAddr: 0x5E5A8, symSize: 0xB0 }
  - { offset: 0xDC658, size: 0x8, addend: 0x0, symName: __RNvXsp_NtCsaNl6UpbT7bw_4core6resultINtB5_6ResultNtNtCsc29TF2YcYso_3syn4expr8ExprLoopNtNtBO_5error5ErrorENtNtNtB7_3ops9try_trait3Try6branchBO_, symObjAddr: 0xAB14, symBinAddr: 0x5E658, symSize: 0xB0 }
  - { offset: 0xDC6D5, size: 0x8, addend: 0x0, symName: __RNvXsp_NtCsaNl6UpbT7bw_4core6resultINtB5_6ResultNtNtCsc29TF2YcYso_3syn4expr8ExprPathNtNtBO_5error5ErrorENtNtNtB7_3ops9try_trait3Try6branchBO_, symObjAddr: 0xABC4, symBinAddr: 0x5E708, symSize: 0xBC }
  - { offset: 0xDC752, size: 0x8, addend: 0x0, symName: __RNvXsp_NtCsaNl6UpbT7bw_4core6resultINtB5_6ResultNtNtCsc29TF2YcYso_3syn4expr9ExprBlockNtNtBO_5error5ErrorENtNtNtB7_3ops9try_trait3Try6branchBO_, symObjAddr: 0xAC80, symBinAddr: 0x5E7C4, symSize: 0xBC }
  - { offset: 0xDC7CF, size: 0x8, addend: 0x0, symName: __RNvXsp_NtCsaNl6UpbT7bw_4core6resultINtB5_6ResultNtNtCsc29TF2YcYso_3syn4expr9ExprConstNtNtBO_5error5ErrorENtNtNtB7_3ops9try_trait3Try6branchBO_, symObjAddr: 0xAD3C, symBinAddr: 0x5E880, symSize: 0xB0 }
  - { offset: 0xDC84C, size: 0x8, addend: 0x0, symName: __RNvXsp_NtCsaNl6UpbT7bw_4core6resultINtB5_6ResultNtNtCsc29TF2YcYso_3syn4expr9ExprMatchNtNtBO_5error5ErrorENtNtNtB7_3ops9try_trait3Try6branchBO_, symObjAddr: 0xADEC, symBinAddr: 0x5E930, symSize: 0xB0 }
  - { offset: 0xDC8C9, size: 0x8, addend: 0x0, symName: __RNvXsp_NtCsaNl6UpbT7bw_4core6resultINtB5_6ResultNtNtCsc29TF2YcYso_3syn4expr9ExprWhileNtNtBO_5error5ErrorENtNtNtB7_3ops9try_trait3Try6branchBO_, symObjAddr: 0xAE9C, symBinAddr: 0x5E9E0, symSize: 0xBC }
  - { offset: 0xDC946, size: 0x8, addend: 0x0, symName: __RNvXsp_NtCsaNl6UpbT7bw_4core6resultINtB5_6ResultNtNtCsc29TF2YcYso_3syn4item11ForeignItemNtNtBO_5error5ErrorENtNtNtB7_3ops9try_trait3Try6branchBO_, symObjAddr: 0xB008, symBinAddr: 0x5EA9C, symSize: 0xB4 }
  - { offset: 0xDC9C4, size: 0x8, addend: 0x0, symName: __RNvXsp_NtCsaNl6UpbT7bw_4core6resultINtB5_6ResultNtNtCsc29TF2YcYso_3syn4item16StaticMutabilityNtNtBO_5error5ErrorENtNtNtB7_3ops9try_trait3Try6branchBO_, symObjAddr: 0xB0BC, symBinAddr: 0x5EB50, symSize: 0x94 }
  - { offset: 0xDCA42, size: 0x8, addend: 0x0, symName: __RNvXsp_NtCsaNl6UpbT7bw_4core6resultINtB5_6ResultNtNtCsc29TF2YcYso_3syn4item4ItemNtNtBO_5error5ErrorENtNtNtB7_3ops9try_trait3Try6branchBO_, symObjAddr: 0xB150, symBinAddr: 0x5EBE4, symSize: 0xB4 }
  - { offset: 0xDCAC0, size: 0x8, addend: 0x0, symName: __RNvXsp_NtCsaNl6UpbT7bw_4core6resultINtB5_6ResultNtNtCsc29TF2YcYso_3syn4item7UseTreeNtNtBO_5error5ErrorENtNtNtB7_3ops9try_trait3Try6branchBO_, symObjAddr: 0xB204, symBinAddr: 0x5EC98, symSize: 0xAC }
  - { offset: 0xDCB3D, size: 0x8, addend: 0x0, symName: __RNvXsp_NtCsaNl6UpbT7bw_4core6resultINtB5_6ResultNtNtCsc29TF2YcYso_3syn4item8ImplItemNtNtBO_5error5ErrorENtNtNtB7_3ops9try_trait3Try6branchBO_, symObjAddr: 0xB2B0, symBinAddr: 0x5ED44, symSize: 0xB4 }
  - { offset: 0xDCBBB, size: 0x8, addend: 0x0, symName: __RNvXsp_NtCsaNl6UpbT7bw_4core6resultINtB5_6ResultNtNtCsc29TF2YcYso_3syn4item9SignatureNtNtBO_5error5ErrorENtNtNtB7_3ops9try_trait3Try6branchBO_, symObjAddr: 0xB364, symBinAddr: 0x5EDF8, symSize: 0xB4 }
  - { offset: 0xDCC39, size: 0x8, addend: 0x0, symName: __RNvXsp_NtCsaNl6UpbT7bw_4core6resultINtB5_6ResultNtNtCsc29TF2YcYso_3syn4item9TraitItemNtNtBO_5error5ErrorENtNtNtB7_3ops9try_trait3Try6branchBO_, symObjAddr: 0xB418, symBinAddr: 0x5EEAC, symSize: 0xB4 }
  - { offset: 0xDCCB7, size: 0x8, addend: 0x0, symName: __RNvXsp_NtCsaNl6UpbT7bw_4core6resultINtB5_6ResultNtNtCsc29TF2YcYso_3syn4path11PathSegmentNtNtBO_5error5ErrorENtNtNtB7_3ops9try_trait3Try6branchBO_, symObjAddr: 0xB4CC, symBinAddr: 0x5EF60, symSize: 0xB8 }
  - { offset: 0xDCD34, size: 0x8, addend: 0x0, symName: __RNvXsp_NtCsaNl6UpbT7bw_4core6resultINtB5_6ResultNtNtCsc29TF2YcYso_3syn4path15GenericArgumentNtNtBO_5error5ErrorENtNtNtB7_3ops9try_trait3Try6branchBO_, symObjAddr: 0xB584, symBinAddr: 0x5F018, symSize: 0xC0 }
  - { offset: 0xDCDB2, size: 0x8, addend: 0x0, symName: __RNvXsp_NtCsaNl6UpbT7bw_4core6resultINtB5_6ResultNtNtCsc29TF2YcYso_3syn4path29ParenthesizedGenericArgumentsNtNtBO_5error5ErrorENtNtNtB7_3ops9try_trait3Try6branchBO_, symObjAddr: 0xB644, symBinAddr: 0x5F0D8, symSize: 0xB0 }
  - { offset: 0xDCE2F, size: 0x8, addend: 0x0, symName: __RNvXsp_NtCsaNl6UpbT7bw_4core6resultINtB5_6ResultNtNtCsc29TF2YcYso_3syn4path30AngleBracketedGenericArgumentsNtNtBO_5error5ErrorENtNtNtB7_3ops9try_trait3Try6branchBO_, symObjAddr: 0xB6F4, symBinAddr: 0x5F188, symSize: 0xB0 }
  - { offset: 0xDCEAC, size: 0x8, addend: 0x0, symName: __RNvXsp_NtCsaNl6UpbT7bw_4core6resultINtB5_6ResultNtNtCsc29TF2YcYso_3syn4path4PathNtNtBO_5error5ErrorENtNtNtB7_3ops9try_trait3Try6branchBO_, symObjAddr: 0xB7A4, symBinAddr: 0x5F238, symSize: 0xB0 }
  - { offset: 0xDCF29, size: 0x8, addend: 0x0, symName: __RNvXsp_NtCsaNl6UpbT7bw_4core6resultINtB5_6ResultNtNtCsc29TF2YcYso_3syn4stmt4StmtNtNtBO_5error5ErrorENtNtNtB7_3ops9try_trait3Try6branchBO_, symObjAddr: 0xB854, symBinAddr: 0x5F2E8, symSize: 0xB4 }
  - { offset: 0xDCFA7, size: 0x8, addend: 0x0, symName: __RNvXsp_NtCsaNl6UpbT7bw_4core6resultINtB5_6ResultNtNtCsc29TF2YcYso_3syn4stmt5BlockNtNtBO_5error5ErrorENtNtNtB7_3ops9try_trait3Try6branchBO_, symObjAddr: 0xB908, symBinAddr: 0x5F39C, symSize: 0xB0 }
  - { offset: 0xDD024, size: 0x8, addend: 0x0, symName: __RNvXsp_NtCsaNl6UpbT7bw_4core6resultINtB5_6ResultNtNtCsc29TF2YcYso_3syn5group5GroupNtNtBO_5error5ErrorENtNtNtB7_3ops9try_trait3Try6branchBO_, symObjAddr: 0xB9B8, symBinAddr: 0x5F44C, symSize: 0xB0 }
  - { offset: 0xDD0A1, size: 0x8, addend: 0x0, symName: __RNvXsp_NtCsaNl6UpbT7bw_4core6resultINtB5_6ResultNtNtCsc29TF2YcYso_3syn5token10UnderscoreNtNtBO_5error5ErrorENtNtNtB7_3ops9try_trait3Try6branchBO_, symObjAddr: 0xBA68, symBinAddr: 0x5F4FC, symSize: 0x8C }
  - { offset: 0xDD11E, size: 0x8, addend: 0x0, symName: __RNvXsp_NtCsaNl6UpbT7bw_4core6resultINtB5_6ResultNtNtCsc29TF2YcYso_3syn5token2AsNtNtBO_5error5ErrorENtNtNtB7_3ops9try_trait3Try6branchBO_, symObjAddr: 0xBAF4, symBinAddr: 0x5F588, symSize: 0x88 }
  - { offset: 0xDD19C, size: 0x8, addend: 0x0, symName: __RNvXsp_NtCsaNl6UpbT7bw_4core6resultINtB5_6ResultNtNtCsc29TF2YcYso_3syn5token2AtNtNtBO_5error5ErrorENtNtNtB7_3ops9try_trait3Try6branchBO_, symObjAddr: 0xBB7C, symBinAddr: 0x5F610, symSize: 0x8C }
  - { offset: 0xDD219, size: 0x8, addend: 0x0, symName: __RNvXsp_NtCsaNl6UpbT7bw_4core6resultINtB5_6ResultNtNtCsc29TF2YcYso_3syn5token2EqNtNtBO_5error5ErrorENtNtNtB7_3ops9try_trait3Try6branchBO_, symObjAddr: 0xBC08, symBinAddr: 0x5F69C, symSize: 0x8C }
  - { offset: 0xDD296, size: 0x8, addend: 0x0, symName: __RNvXsp_NtCsaNl6UpbT7bw_4core6resultINtB5_6ResultNtNtCsc29TF2YcYso_3syn5token2FnNtNtBO_5error5ErrorENtNtNtB7_3ops9try_trait3Try6branchBO_, symObjAddr: 0xBC94, symBinAddr: 0x5F728, symSize: 0x88 }
  - { offset: 0xDD314, size: 0x8, addend: 0x0, symName: __RNvXsp_NtCsaNl6UpbT7bw_4core6resultINtB5_6ResultNtNtCsc29TF2YcYso_3syn5token2GtNtNtBO_5error5ErrorENtNtNtB7_3ops9try_trait3Try6branchBO_, symObjAddr: 0xBD1C, symBinAddr: 0x5F7B0, symSize: 0x8C }
  - { offset: 0xDD391, size: 0x8, addend: 0x0, symName: __RNvXsp_NtCsaNl6UpbT7bw_4core6resultINtB5_6ResultNtNtCsc29TF2YcYso_3syn5token2IfNtNtBO_5error5ErrorENtNtNtB7_3ops9try_trait3Try6branchBO_, symObjAddr: 0xBDA8, symBinAddr: 0x5F83C, symSize: 0x88 }
  - { offset: 0xDD40F, size: 0x8, addend: 0x0, symName: __RNvXsp_NtCsaNl6UpbT7bw_4core6resultINtB5_6ResultNtNtCsc29TF2YcYso_3syn5token2InNtNtBO_5error5ErrorENtNtNtB7_3ops9try_trait3Try6branchBO_, symObjAddr: 0xBE30, symBinAddr: 0x5F8C4, symSize: 0x88 }
  - { offset: 0xDD48D, size: 0x8, addend: 0x0, symName: __RNvXsp_NtCsaNl6UpbT7bw_4core6resultINtB5_6ResultNtNtCsc29TF2YcYso_3syn5token2LtNtNtBO_5error5ErrorENtNtNtB7_3ops9try_trait3Try6branchBO_, symObjAddr: 0xBEB8, symBinAddr: 0x5F94C, symSize: 0x8C }
  - { offset: 0xDD50A, size: 0x8, addend: 0x0, symName: __RNvXsp_NtCsaNl6UpbT7bw_4core6resultINtB5_6ResultNtNtCsc29TF2YcYso_3syn5token2OrNtNtBO_5error5ErrorENtNtNtB7_3ops9try_trait3Try6branchBO_, symObjAddr: 0xBF44, symBinAddr: 0x5F9D8, symSize: 0x8C }
  - { offset: 0xDD587, size: 0x8, addend: 0x0, symName: __RNvXsp_NtCsaNl6UpbT7bw_4core6resultINtB5_6ResultNtNtCsc29TF2YcYso_3syn5token3AndNtNtBO_5error5ErrorENtNtNtB7_3ops9try_trait3Try6branchBO_, symObjAddr: 0xBFD0, symBinAddr: 0x5FA64, symSize: 0x8C }
  - { offset: 0xDD604, size: 0x8, addend: 0x0, symName: __RNvXsp_NtCsaNl6UpbT7bw_4core6resultINtB5_6ResultNtNtCsc29TF2YcYso_3syn5token3BoxNtNtBO_5error5ErrorENtNtNtB7_3ops9try_trait3Try6branchBO_, symObjAddr: 0xC05C, symBinAddr: 0x5FAF0, symSize: 0x88 }
  - { offset: 0xDD682, size: 0x8, addend: 0x0, symName: __RNvXsp_NtCsaNl6UpbT7bw_4core6resultINtB5_6ResultNtNtCsc29TF2YcYso_3syn5token3DotNtNtBO_5error5ErrorENtNtNtB7_3ops9try_trait3Try6branchBO_, symObjAddr: 0xC0E4, symBinAddr: 0x5FB78, symSize: 0x8C }
  - { offset: 0xDD6FF, size: 0x8, addend: 0x0, symName: __RNvXsp_NtCsaNl6UpbT7bw_4core6resultINtB5_6ResultNtNtCsc29TF2YcYso_3syn5token3DynNtNtBO_5error5ErrorENtNtNtB7_3ops9try_trait3Try6branchBO_, symObjAddr: 0xC170, symBinAddr: 0x5FC04, symSize: 0x88 }
  - { offset: 0xDD77D, size: 0x8, addend: 0x0, symName: __RNvXsp_NtCsaNl6UpbT7bw_4core6resultINtB5_6ResultNtNtCsc29TF2YcYso_3syn5token3ForNtNtBO_5error5ErrorENtNtNtB7_3ops9try_trait3Try6branchBO_, symObjAddr: 0xC1F8, symBinAddr: 0x5FC8C, symSize: 0x88 }
  - { offset: 0xDD7FB, size: 0x8, addend: 0x0, symName: __RNvXsp_NtCsaNl6UpbT7bw_4core6resultINtB5_6ResultNtNtCsc29TF2YcYso_3syn5token3LetNtNtBO_5error5ErrorENtNtNtB7_3ops9try_trait3Try6branchBO_, symObjAddr: 0xC280, symBinAddr: 0x5FD14, symSize: 0x88 }
  - { offset: 0xDD879, size: 0x8, addend: 0x0, symName: __RNvXsp_NtCsaNl6UpbT7bw_4core6resultINtB5_6ResultNtNtCsc29TF2YcYso_3syn5token3ModNtNtBO_5error5ErrorENtNtNtB7_3ops9try_trait3Try6branchBO_, symObjAddr: 0xC308, symBinAddr: 0x5FD9C, symSize: 0x88 }
  - { offset: 0xDD8F7, size: 0x8, addend: 0x0, symName: __RNvXsp_NtCsaNl6UpbT7bw_4core6resultINtB5_6ResultNtNtCsc29TF2YcYso_3syn5token3MutNtNtBO_5error5ErrorENtNtNtB7_3ops9try_trait3Try6branchBO_, symObjAddr: 0xC390, symBinAddr: 0x5FE24, symSize: 0x88 }
  - { offset: 0xDD975, size: 0x8, addend: 0x0, symName: __RNvXsp_NtCsaNl6UpbT7bw_4core6resultINtB5_6ResultNtNtCsc29TF2YcYso_3syn5token3NotNtNtBO_5error5ErrorENtNtNtB7_3ops9try_trait3Try6branchBO_, symObjAddr: 0xC418, symBinAddr: 0x5FEAC, symSize: 0x8C }
  - { offset: 0xDD9F2, size: 0x8, addend: 0x0, symName: __RNvXsp_NtCsaNl6UpbT7bw_4core6resultINtB5_6ResultNtNtCsc29TF2YcYso_3syn5token3PubNtNtBO_5error5ErrorENtNtNtB7_3ops9try_trait3Try6branchBO_, symObjAddr: 0xC4A4, symBinAddr: 0x5FF38, symSize: 0x88 }
  - { offset: 0xDDA70, size: 0x8, addend: 0x0, symName: __RNvXsp_NtCsaNl6UpbT7bw_4core6resultINtB5_6ResultNtNtCsc29TF2YcYso_3syn5token3RawNtNtBO_5error5ErrorENtNtNtB7_3ops9try_trait3Try6branchBO_, symObjAddr: 0xC52C, symBinAddr: 0x5FFC0, symSize: 0x88 }
  - { offset: 0xDDAEE, size: 0x8, addend: 0x0, symName: __RNvXsp_NtCsaNl6UpbT7bw_4core6resultINtB5_6ResultNtNtCsc29TF2YcYso_3syn5token3RefNtNtBO_5error5ErrorENtNtNtB7_3ops9try_trait3Try6branchBO_, symObjAddr: 0xC5B4, symBinAddr: 0x60048, symSize: 0x88 }
  - { offset: 0xDDB6C, size: 0x8, addend: 0x0, symName: __RNvXsp_NtCsaNl6UpbT7bw_4core6resultINtB5_6ResultNtNtCsc29TF2YcYso_3syn5token3TryNtNtBO_5error5ErrorENtNtNtB7_3ops9try_trait3Try6branchBO_, symObjAddr: 0xC63C, symBinAddr: 0x600D0, symSize: 0x88 }
  - { offset: 0xDDBEA, size: 0x8, addend: 0x0, symName: __RNvXsp_NtCsaNl6UpbT7bw_4core6resultINtB5_6ResultNtNtCsc29TF2YcYso_3syn5token3UseNtNtBO_5error5ErrorENtNtNtB7_3ops9try_trait3Try6branchBO_, symObjAddr: 0xC6C4, symBinAddr: 0x60158, symSize: 0x88 }
  - { offset: 0xDDC68, size: 0x8, addend: 0x0, symName: __RNvXsp_NtCsaNl6UpbT7bw_4core6resultINtB5_6ResultNtNtCsc29TF2YcYso_3syn5token4AutoNtNtBO_5error5ErrorENtNtNtB7_3ops9try_trait3Try6branchBO_, symObjAddr: 0xC74C, symBinAddr: 0x601E0, symSize: 0x88 }
  - { offset: 0xDDCE6, size: 0x8, addend: 0x0, symName: __RNvXsp_NtCsaNl6UpbT7bw_4core6resultINtB5_6ResultNtNtCsc29TF2YcYso_3syn5token4ElseNtNtBO_5error5ErrorENtNtNtB7_3ops9try_trait3Try6branchBO_, symObjAddr: 0xC7D4, symBinAddr: 0x60268, symSize: 0x88 }
  - { offset: 0xDDD64, size: 0x8, addend: 0x0, symName: __RNvXsp_NtCsaNl6UpbT7bw_4core6resultINtB5_6ResultNtNtCsc29TF2YcYso_3syn5token4EnumNtNtBO_5error5ErrorENtNtNtB7_3ops9try_trait3Try6branchBO_, symObjAddr: 0xC85C, symBinAddr: 0x602F0, symSize: 0x88 }
  - { offset: 0xDDDE2, size: 0x8, addend: 0x0, symName: __RNvXsp_NtCsaNl6UpbT7bw_4core6resultINtB5_6ResultNtNtCsc29TF2YcYso_3syn5token4ImplNtNtBO_5error5ErrorENtNtNtB7_3ops9try_trait3Try6branchBO_, symObjAddr: 0xC8E4, symBinAddr: 0x60378, symSize: 0x88 }
  - { offset: 0xDDE60, size: 0x8, addend: 0x0, symName: __RNvXsp_NtCsaNl6UpbT7bw_4core6resultINtB5_6ResultNtNtCsc29TF2YcYso_3syn5token4LoopNtNtBO_5error5ErrorENtNtNtB7_3ops9try_trait3Try6branchBO_, symObjAddr: 0xC96C, symBinAddr: 0x60400, symSize: 0x88 }
  - { offset: 0xDDEDE, size: 0x8, addend: 0x0, symName: __RNvXsp_NtCsaNl6UpbT7bw_4core6resultINtB5_6ResultNtNtCsc29TF2YcYso_3syn5token4MoveNtNtBO_5error5ErrorENtNtNtB7_3ops9try_trait3Try6branchBO_, symObjAddr: 0xC9F4, symBinAddr: 0x60488, symSize: 0x88 }
  - { offset: 0xDDF5C, size: 0x8, addend: 0x0, symName: __RNvXsp_NtCsaNl6UpbT7bw_4core6resultINtB5_6ResultNtNtCsc29TF2YcYso_3syn5token4PlusNtNtBO_5error5ErrorENtNtNtB7_3ops9try_trait3Try6branchBO_, symObjAddr: 0xCA7C, symBinAddr: 0x60510, symSize: 0x8C }
  - { offset: 0xDDFD9, size: 0x8, addend: 0x0, symName: __RNvXsp_NtCsaNl6UpbT7bw_4core6resultINtB5_6ResultNtNtCsc29TF2YcYso_3syn5token4SemiNtNtBO_5error5ErrorENtNtNtB7_3ops9try_trait3Try6branchBO_, symObjAddr: 0xCB08, symBinAddr: 0x6059C, symSize: 0x8C }
  - { offset: 0xDE056, size: 0x8, addend: 0x0, symName: __RNvXsp_NtCsaNl6UpbT7bw_4core6resultINtB5_6ResultNtNtCsc29TF2YcYso_3syn5token4StarNtNtBO_5error5ErrorENtNtNtB7_3ops9try_trait3Try6branchBO_, symObjAddr: 0xCB94, symBinAddr: 0x60628, symSize: 0x8C }
  - { offset: 0xDE0D3, size: 0x8, addend: 0x0, symName: __RNvXsp_NtCsaNl6UpbT7bw_4core6resultINtB5_6ResultNtNtCsc29TF2YcYso_3syn5token4TypeNtNtBO_5error5ErrorENtNtNtB7_3ops9try_trait3Try6branchBO_, symObjAddr: 0xCC20, symBinAddr: 0x606B4, symSize: 0x88 }
  - { offset: 0xDE151, size: 0x8, addend: 0x0, symName: __RNvXsp_NtCsaNl6UpbT7bw_4core6resultINtB5_6ResultNtNtCsc29TF2YcYso_3syn5token5AsyncNtNtBO_5error5ErrorENtNtNtB7_3ops9try_trait3Try6branchBO_, symObjAddr: 0xCCA8, symBinAddr: 0x6073C, symSize: 0x88 }
  - { offset: 0xDE1CF, size: 0x8, addend: 0x0, symName: __RNvXsp_NtCsaNl6UpbT7bw_4core6resultINtB5_6ResultNtNtCsc29TF2YcYso_3syn5token5AwaitNtNtBO_5error5ErrorENtNtNtB7_3ops9try_trait3Try6branchBO_, symObjAddr: 0xCD30, symBinAddr: 0x607C4, symSize: 0x88 }
  - { offset: 0xDE24D, size: 0x8, addend: 0x0, symName: __RNvXsp_NtCsaNl6UpbT7bw_4core6resultINtB5_6ResultNtNtCsc29TF2YcYso_3syn5token5BreakNtNtBO_5error5ErrorENtNtNtB7_3ops9try_trait3Try6branchBO_, symObjAddr: 0xCDB8, symBinAddr: 0x6084C, symSize: 0x88 }
  - { offset: 0xDE2CB, size: 0x8, addend: 0x0, symName: __RNvXsp_NtCsaNl6UpbT7bw_4core6resultINtB5_6ResultNtNtCsc29TF2YcYso_3syn5token5ColonNtNtBO_5error5ErrorENtNtNtB7_3ops9try_trait3Try6branchBO_, symObjAddr: 0xCE40, symBinAddr: 0x608D4, symSize: 0x8C }
  - { offset: 0xDE348, size: 0x8, addend: 0x0, symName: __RNvXsp_NtCsaNl6UpbT7bw_4core6resultINtB5_6ResultNtNtCsc29TF2YcYso_3syn5token5CommaNtNtBO_5error5ErrorENtNtNtB7_3ops9try_trait3Try6branchBO_, symObjAddr: 0xCECC, symBinAddr: 0x60960, symSize: 0x8C }
  - { offset: 0xDE3C5, size: 0x8, addend: 0x0, symName: __RNvXsp_NtCsaNl6UpbT7bw_4core6resultINtB5_6ResultNtNtCsc29TF2YcYso_3syn5token5ConstNtNtBO_5error5ErrorENtNtNtB7_3ops9try_trait3Try6branchBO_, symObjAddr: 0xCF58, symBinAddr: 0x609EC, symSize: 0x88 }
  - { offset: 0xDE443, size: 0x8, addend: 0x0, symName: __RNvXsp_NtCsaNl6UpbT7bw_4core6resultINtB5_6ResultNtNtCsc29TF2YcYso_3syn5token5CrateNtNtBO_5error5ErrorENtNtNtB7_3ops9try_trait3Try6branchBO_, symObjAddr: 0xCFE0, symBinAddr: 0x60A74, symSize: 0x88 }
  - { offset: 0xDE4C1, size: 0x8, addend: 0x0, symName: __RNvXsp_NtCsaNl6UpbT7bw_4core6resultINtB5_6ResultNtNtCsc29TF2YcYso_3syn5token5MacroNtNtBO_5error5ErrorENtNtNtB7_3ops9try_trait3Try6branchBO_, symObjAddr: 0xD068, symBinAddr: 0x60AFC, symSize: 0x88 }
  - { offset: 0xDE53F, size: 0x8, addend: 0x0, symName: __RNvXsp_NtCsaNl6UpbT7bw_4core6resultINtB5_6ResultNtNtCsc29TF2YcYso_3syn5token5MatchNtNtBO_5error5ErrorENtNtNtB7_3ops9try_trait3Try6branchBO_, symObjAddr: 0xD0F0, symBinAddr: 0x60B84, symSize: 0x88 }
  - { offset: 0xDE5BD, size: 0x8, addend: 0x0, symName: __RNvXsp_NtCsaNl6UpbT7bw_4core6resultINtB5_6ResultNtNtCsc29TF2YcYso_3syn5token5PoundNtNtBO_5error5ErrorENtNtNtB7_3ops9try_trait3Try6branchBO_, symObjAddr: 0xD178, symBinAddr: 0x60C0C, symSize: 0x8C }
  - { offset: 0xDE63A, size: 0x8, addend: 0x0, symName: __RNvXsp_NtCsaNl6UpbT7bw_4core6resultINtB5_6ResultNtNtCsc29TF2YcYso_3syn5token5TraitNtNtBO_5error5ErrorENtNtNtB7_3ops9try_trait3Try6branchBO_, symObjAddr: 0xD204, symBinAddr: 0x60C98, symSize: 0x88 }
  - { offset: 0xDE6B8, size: 0x8, addend: 0x0, symName: __RNvXsp_NtCsaNl6UpbT7bw_4core6resultINtB5_6ResultNtNtCsc29TF2YcYso_3syn5token5UnionNtNtBO_5error5ErrorENtNtNtB7_3ops9try_trait3Try6branchBO_, symObjAddr: 0xD28C, symBinAddr: 0x60D20, symSize: 0x88 }
  - { offset: 0xDE736, size: 0x8, addend: 0x0, symName: __RNvXsp_NtCsaNl6UpbT7bw_4core6resultINtB5_6ResultNtNtCsc29TF2YcYso_3syn5token5WhereNtNtBO_5error5ErrorENtNtNtB7_3ops9try_trait3Try6branchBO_, symObjAddr: 0xD314, symBinAddr: 0x60DA8, symSize: 0x88 }
  - { offset: 0xDE7B4, size: 0x8, addend: 0x0, symName: __RNvXsp_NtCsaNl6UpbT7bw_4core6resultINtB5_6ResultNtNtCsc29TF2YcYso_3syn5token5WhileNtNtBO_5error5ErrorENtNtNtB7_3ops9try_trait3Try6branchBO_, symObjAddr: 0xD39C, symBinAddr: 0x60E30, symSize: 0x88 }
  - { offset: 0xDE832, size: 0x8, addend: 0x0, symName: __RNvXsp_NtCsaNl6UpbT7bw_4core6resultINtB5_6ResultNtNtCsc29TF2YcYso_3syn5token5YieldNtNtBO_5error5ErrorENtNtNtB7_3ops9try_trait3Try6branchBO_, symObjAddr: 0xD424, symBinAddr: 0x60EB8, symSize: 0x88 }
  - { offset: 0xDE8B0, size: 0x8, addend: 0x0, symName: __RNvXsp_NtCsaNl6UpbT7bw_4core6resultINtB5_6ResultNtNtCsc29TF2YcYso_3syn5token6BecomeNtNtBO_5error5ErrorENtNtNtB7_3ops9try_trait3Try6branchBO_, symObjAddr: 0xD4AC, symBinAddr: 0x60F40, symSize: 0x88 }
  - { offset: 0xDE92E, size: 0x8, addend: 0x0, symName: __RNvXsp_NtCsaNl6UpbT7bw_4core6resultINtB5_6ResultNtNtCsc29TF2YcYso_3syn5token6DotDotNtNtBO_5error5ErrorENtNtNtB7_3ops9try_trait3Try6branchBO_, symObjAddr: 0xD534, symBinAddr: 0x60FC8, symSize: 0x8C }
  - { offset: 0xDE9AB, size: 0x8, addend: 0x0, symName: __RNvXsp_NtCsaNl6UpbT7bw_4core6resultINtB5_6ResultNtNtCsc29TF2YcYso_3syn5token6ExternNtNtBO_5error5ErrorENtNtNtB7_3ops9try_trait3Try6branchBO_, symObjAddr: 0xD5C0, symBinAddr: 0x61054, symSize: 0x88 }
  - { offset: 0xDEA29, size: 0x8, addend: 0x0, symName: __RNvXsp_NtCsaNl6UpbT7bw_4core6resultINtB5_6ResultNtNtCsc29TF2YcYso_3syn5token6RArrowNtNtBO_5error5ErrorENtNtNtB7_3ops9try_trait3Try6branchBO_, symObjAddr: 0xD648, symBinAddr: 0x610DC, symSize: 0x8C }
  - { offset: 0xDEAA6, size: 0x8, addend: 0x0, symName: __RNvXsp_NtCsaNl6UpbT7bw_4core6resultINtB5_6ResultNtNtCsc29TF2YcYso_3syn5token6ReturnNtNtBO_5error5ErrorENtNtNtB7_3ops9try_trait3Try6branchBO_, symObjAddr: 0xD6D4, symBinAddr: 0x61168, symSize: 0x88 }
  - { offset: 0xDEB24, size: 0x8, addend: 0x0, symName: __RNvXsp_NtCsaNl6UpbT7bw_4core6resultINtB5_6ResultNtNtCsc29TF2YcYso_3syn5token6StaticNtNtBO_5error5ErrorENtNtNtB7_3ops9try_trait3Try6branchBO_, symObjAddr: 0xD75C, symBinAddr: 0x611F0, symSize: 0x88 }
  - { offset: 0xDEBA2, size: 0x8, addend: 0x0, symName: __RNvXsp_NtCsaNl6UpbT7bw_4core6resultINtB5_6ResultNtNtCsc29TF2YcYso_3syn5token6StructNtNtBO_5error5ErrorENtNtNtB7_3ops9try_trait3Try6branchBO_, symObjAddr: 0xD7E4, symBinAddr: 0x61278, symSize: 0x88 }
  - { offset: 0xDEC20, size: 0x8, addend: 0x0, symName: __RNvXsp_NtCsaNl6UpbT7bw_4core6resultINtB5_6ResultNtNtCsc29TF2YcYso_3syn5token6UnsafeNtNtBO_5error5ErrorENtNtNtB7_3ops9try_trait3Try6branchBO_, symObjAddr: 0xD86C, symBinAddr: 0x61300, symSize: 0x88 }
  - { offset: 0xDEC9E, size: 0x8, addend: 0x0, symName: __RNvXsp_NtCsaNl6UpbT7bw_4core6resultINtB5_6ResultNtNtCsc29TF2YcYso_3syn5token7DefaultNtNtBO_5error5ErrorENtNtNtB7_3ops9try_trait3Try6branchBO_, symObjAddr: 0xD8F4, symBinAddr: 0x61388, symSize: 0x88 }
  - { offset: 0xDED1C, size: 0x8, addend: 0x0, symName: __RNvXsp_NtCsaNl6UpbT7bw_4core6resultINtB5_6ResultNtNtCsc29TF2YcYso_3syn5token7PathSepNtNtBO_5error5ErrorENtNtNtB7_3ops9try_trait3Try6branchBO_, symObjAddr: 0xD97C, symBinAddr: 0x61410, symSize: 0x8C }
  - { offset: 0xDED99, size: 0x8, addend: 0x0, symName: __RNvXsp_NtCsaNl6UpbT7bw_4core6resultINtB5_6ResultNtNtCsc29TF2YcYso_3syn5token8ContinueNtNtBO_5error5ErrorENtNtNtB7_3ops9try_trait3Try6branchBO_, symObjAddr: 0xDA08, symBinAddr: 0x6149C, symSize: 0x88 }
  - { offset: 0xDEE17, size: 0x8, addend: 0x0, symName: __RNvXsp_NtCsaNl6UpbT7bw_4core6resultINtB5_6ResultNtNtCsc29TF2YcYso_3syn5token8FatArrowNtNtBO_5error5ErrorENtNtNtB7_3ops9try_trait3Try6branchBO_, symObjAddr: 0xDA90, symBinAddr: 0x61524, symSize: 0x8C }
  - { offset: 0xDEE94, size: 0x8, addend: 0x0, symName: __RNvXsp_NtCsaNl6UpbT7bw_4core6resultINtB5_6ResultNtNtCsc29TF2YcYso_3syn5token8QuestionNtNtBO_5error5ErrorENtNtNtB7_3ops9try_trait3Try6branchBO_, symObjAddr: 0xDB1C, symBinAddr: 0x615B0, symSize: 0x8C }
  - { offset: 0xDEF11, size: 0x8, addend: 0x0, symName: __RNvXsp_NtCsaNl6UpbT7bw_4core6resultINtB5_6ResultNtNtCsc29TF2YcYso_3syn5token9DotDotDotNtNtBO_5error5ErrorENtNtNtB7_3ops9try_trait3Try6branchBO_, symObjAddr: 0xDBA8, symBinAddr: 0x6163C, symSize: 0x9C }
  - { offset: 0xDEF8E, size: 0x8, addend: 0x0, symName: __RNvXsp_NtCsaNl6UpbT7bw_4core6resultINtB5_6ResultNtNtCsc29TF2YcYso_3syn5token9SelfValueNtNtBO_5error5ErrorENtNtNtB7_3ops9try_trait3Try6branchBO_, symObjAddr: 0xDC44, symBinAddr: 0x616D8, symSize: 0x88 }
  - { offset: 0xDF00C, size: 0x8, addend: 0x0, symName: __RNvXsp_NtCsaNl6UpbT7bw_4core6resultINtB5_6ResultNtNtCsc29TF2YcYso_3syn8generics10ConstParamNtNtBO_5error5ErrorENtNtNtB7_3ops9try_trait3Try6branchBO_, symObjAddr: 0xDCCC, symBinAddr: 0x61760, symSize: 0xB4 }
  - { offset: 0xDF08A, size: 0x8, addend: 0x0, symName: __RNvXsp_NtCsaNl6UpbT7bw_4core6resultINtB5_6ResultNtNtCsc29TF2YcYso_3syn8generics10TraitBoundNtNtBO_5error5ErrorENtNtNtB7_3ops9try_trait3Try6branchBO_, symObjAddr: 0xDD80, symBinAddr: 0x61814, symSize: 0xBC }
  - { offset: 0xDF107, size: 0x8, addend: 0x0, symName: __RNvXsp_NtCsaNl6UpbT7bw_4core6resultINtB5_6ResultNtNtCsc29TF2YcYso_3syn8generics11WhereClauseNtNtBO_5error5ErrorENtNtNtB7_3ops9try_trait3Try6branchBO_, symObjAddr: 0xDE3C, symBinAddr: 0x618D0, symSize: 0xB0 }
  - { offset: 0xDF184, size: 0x8, addend: 0x0, symName: __RNvXsp_NtCsaNl6UpbT7bw_4core6resultINtB5_6ResultNtNtCsc29TF2YcYso_3syn8generics12GenericParamNtNtBO_5error5ErrorENtNtNtB7_3ops9try_trait3Try6branchBO_, symObjAddr: 0xDEEC, symBinAddr: 0x61980, symSize: 0xB4 }
  - { offset: 0xDF202, size: 0x8, addend: 0x0, symName: __RNvXsp_NtCsaNl6UpbT7bw_4core6resultINtB5_6ResultNtNtCsc29TF2YcYso_3syn8generics13CapturedParamNtNtBO_5error5ErrorENtNtNtB7_3ops9try_trait3Try6branchBO_, symObjAddr: 0xDFA0, symBinAddr: 0x61A34, symSize: 0xAC }
  - { offset: 0xDF27F, size: 0x8, addend: 0x0, symName: __RNvXsp_NtCsaNl6UpbT7bw_4core6resultINtB5_6ResultNtNtCsc29TF2YcYso_3syn8generics13LifetimeParamNtNtBO_5error5ErrorENtNtNtB7_3ops9try_trait3Try6branchBO_, symObjAddr: 0xE04C, symBinAddr: 0x61AE0, symSize: 0xB0 }
  - { offset: 0xDF2FC, size: 0x8, addend: 0x0, symName: __RNvXsp_NtCsaNl6UpbT7bw_4core6resultINtB5_6ResultNtNtCsc29TF2YcYso_3syn8generics14PreciseCaptureNtNtBO_5error5ErrorENtNtNtB7_3ops9try_trait3Try6branchBO_, symObjAddr: 0xE0FC, symBinAddr: 0x61B90, symSize: 0xB0 }
  - { offset: 0xDF379, size: 0x8, addend: 0x0, symName: __RNvXsp_NtCsaNl6UpbT7bw_4core6resultINtB5_6ResultNtNtCsc29TF2YcYso_3syn8generics14TypeParamBoundNtNtBO_5error5ErrorENtNtNtB7_3ops9try_trait3Try6branchBO_, symObjAddr: 0xE1AC, symBinAddr: 0x61C40, symSize: 0xBC }
  - { offset: 0xDF3F6, size: 0x8, addend: 0x0, symName: __RNvXsp_NtCsaNl6UpbT7bw_4core6resultINtB5_6ResultNtNtCsc29TF2YcYso_3syn8generics14WherePredicateNtNtBO_5error5ErrorENtNtNtB7_3ops9try_trait3Try6branchBO_, symObjAddr: 0xE268, symBinAddr: 0x61CFC, symSize: 0xC0 }
  - { offset: 0xDF474, size: 0x8, addend: 0x0, symName: __RNvXsp_NtCsaNl6UpbT7bw_4core6resultINtB5_6ResultNtNtCsc29TF2YcYso_3syn8generics18TraitBoundModifierNtNtBO_5error5ErrorENtNtNtB7_3ops9try_trait3Try6branchBO_, symObjAddr: 0xE328, symBinAddr: 0x61DBC, symSize: 0x8C }
  - { offset: 0xDF4F1, size: 0x8, addend: 0x0, symName: __RNvXsp_NtCsaNl6UpbT7bw_4core6resultINtB5_6ResultNtNtCsc29TF2YcYso_3syn8generics8GenericsNtNtBO_5error5ErrorENtNtNtB7_3ops9try_trait3Try6branchBO_, symObjAddr: 0xE3B4, symBinAddr: 0x61E48, symSize: 0xB0 }
  - { offset: 0xDF56E, size: 0x8, addend: 0x0, symName: __RNvXsp_NtCsaNl6UpbT7bw_4core6resultINtB5_6ResultNtNtCsc29TF2YcYso_3syn8generics9TypeParamNtNtBO_5error5ErrorENtNtNtB7_3ops9try_trait3Try6branchBO_, symObjAddr: 0xE464, symBinAddr: 0x61EF8, symSize: 0xB4 }
  - { offset: 0xDF5EC, size: 0x8, addend: 0x0, symName: __RNvXsp_NtCsaNl6UpbT7bw_4core6resultINtB5_6ResultNtNtCsc29TF2YcYso_3syn8lifetime8LifetimeNtNtBO_5error5ErrorENtNtNtB7_3ops9try_trait3Try6branchBO_, symObjAddr: 0xE518, symBinAddr: 0x61FAC, symSize: 0x94 }
  - { offset: 0xDF669, size: 0x8, addend: 0x0, symName: __RNvXsp_NtCsaNl6UpbT7bw_4core6resultINtB5_6ResultNtNtNtCsc29TF2YcYso_3syn4item7parsing15FnArgOrVariadicNtNtBQ_5error5ErrorENtNtNtB7_3ops9try_trait3Try6branchBQ_, symObjAddr: 0xE5AC, symBinAddr: 0x62040, symSize: 0xB8 }
  - { offset: 0xDF6E6, size: 0x8, addend: 0x0, symName: __RNvXsp_NtCsaNl6UpbT7bw_4core6resultINtB5_6ResultNtNtNtCsc29TF2YcYso_3syn4item7parsing16FlexibleItemTypeNtNtBQ_5error5ErrorENtNtNtB7_3ops9try_trait3Try6branchBQ_, symObjAddr: 0xE664, symBinAddr: 0x620F8, symSize: 0xB4 }
  - { offset: 0xDF764, size: 0x8, addend: 0x0, symName: __RNvXsp_NtCsaNl6UpbT7bw_4core6resultINtB5_6ResultTINtNtB7_6option6OptionNtNtCsc29TF2YcYso_3syn4path5QSelfENtB19_4PathENtNtB1b_5error5ErrorENtNtNtB7_3ops9try_trait3Try6branchB1b_, symObjAddr: 0xE718, symBinAddr: 0x621AC, symSize: 0xB0 }
  - { offset: 0xDF7E1, size: 0x8, addend: 0x0, symName: __RNvXsp_NtCsaNl6UpbT7bw_4core6resultINtB5_6ResultTINtNtB7_6option6OptionNtNtCsc29TF2YcYso_3syn5token5ColonEINtNtB1b_10punctuated10PunctuatedNtNtB1b_8generics14TypeParamBoundNtB19_4PlusEENtNtB1b_5error5ErrorENtNtNtB7_3ops9try_trait3Try6branchB1b_, symObjAddr: 0xE7C8, symBinAddr: 0x6225C, symSize: 0xB0 }
  - { offset: 0xDF85E, size: 0x8, addend: 0x0, symName: __RNvXsp_NtCsaNl6UpbT7bw_4core6resultINtB5_6ResultTINtNtB7_6option6OptionNtNtCsc29TF2YcYso_3syn8generics11WhereClauseENtNtB1b_4data11FieldsNamedENtNtB1b_5error5ErrorENtNtNtB7_3ops9try_trait3Try6branchB1b_, symObjAddr: 0xE878, symBinAddr: 0x6230C, symSize: 0xB0 }
  - { offset: 0xDF8DB, size: 0x8, addend: 0x0, symName: __RNvXsp_NtCsaNl6UpbT7bw_4core6resultINtB5_6ResultTINtNtB7_6option6OptionNtNtCsc29TF2YcYso_3syn8generics11WhereClauseENtNtB1b_4data6FieldsIBM_NtNtB1b_5token4SemiEENtNtB1b_5error5ErrorENtNtNtB7_3ops9try_trait3Try6branchB1b_, symObjAddr: 0xE928, symBinAddr: 0x623BC, symSize: 0xB8 }
  - { offset: 0xDF958, size: 0x8, addend: 0x0, symName: __RNvXsp_NtCsaNl6UpbT7bw_4core6resultINtB5_6ResultTINtNtB7_6option6OptionNtNtCsc29TF2YcYso_3syn8generics11WhereClauseENtNtB1b_5token5BraceINtNtB1b_10punctuated10PunctuatedNtNtB1b_4data7VariantNtB1S_5CommaEENtNtB1b_5error5ErrorENtNtNtB7_3ops9try_trait3Try6branchB1b_, symObjAddr: 0xE9E0, symBinAddr: 0x62474, symSize: 0xB0 }
  - { offset: 0xDF9D5, size: 0x8, addend: 0x0, symName: __RNvXsp_NtCsaNl6UpbT7bw_4core6resultINtB5_6ResultTINtNtCsc29TF2YcYso_3syn10punctuated10PunctuatedNtNtBQ_4item5FnArgNtNtBQ_5token5CommaEINtNtB7_6option6OptionNtB1y_8VariadicEENtNtBQ_5error5ErrorENtNtNtB7_3ops9try_trait3Try6branchBQ_, symObjAddr: 0xEA90, symBinAddr: 0x62524, symSize: 0xB0 }
  - { offset: 0xDFA52, size: 0x8, addend: 0x0, symName: __RNvXsp_NtCsaNl6UpbT7bw_4core6resultINtB5_6ResultTINtNtCsiTraAjBDcu4_5alloc3vec3VecNtNtCsc29TF2YcYso_3syn4attr9AttributeENtNtB1m_11restriction10VisibilityNtNtB1m_5token5TraitNtCshnvkK9b4wzu_11proc_macro25IdentNtNtB1m_8generics8GenericsENtNtB1m_5error5ErrorENtNtNtB7_3ops9try_trait3Try6branchB1m_, symObjAddr: 0xEB40, symBinAddr: 0x625D4, symSize: 0xB8 }
  - { offset: 0xDFAD0, size: 0x8, addend: 0x0, symName: __RNvXsp_NtCsaNl6UpbT7bw_4core6resultINtB5_6ResultTNtCshnvkK9b4wzu_11proc_macro211TokenStreamNtNtCsc29TF2YcYso_3syn6buffer6CursorENtNtB1v_5error5ErrorENtNtNtB7_3ops9try_trait3Try6branchB1v_, symObjAddr: 0xEBF8, symBinAddr: 0x6268C, symSize: 0xB0 }
  - { offset: 0xDFB4D, size: 0x8, addend: 0x0, symName: __RNvXsp_NtCsaNl6UpbT7bw_4core6resultINtB5_6ResultTNtCshnvkK9b4wzu_11proc_macro24SpanNtNtCsc29TF2YcYso_3syn6buffer6CursorENtNtB1n_5error5ErrorENtNtNtB7_3ops9try_trait3Try6branchB1n_, symObjAddr: 0xECA8, symBinAddr: 0x6273C, symSize: 0x94 }
  - { offset: 0xDFBCA, size: 0x8, addend: 0x0, symName: __RNvXsp_NtCsaNl6UpbT7bw_4core6resultINtB5_6ResultTNtCshnvkK9b4wzu_11proc_macro25IdentNtNtCsc29TF2YcYso_3syn6buffer6CursorENtNtB1o_5error5ErrorENtNtNtB7_3ops9try_trait3Try6branchB1o_, symObjAddr: 0xEDE8, symBinAddr: 0x627D0, symSize: 0xB0 }
  - { offset: 0xDFC47, size: 0x8, addend: 0x0, symName: __RNvXsp_NtCsaNl6UpbT7bw_4core6resultINtB5_6ResultTNtCshnvkK9b4wzu_11proc_macro29TokenTreeNtNtCsc29TF2YcYso_3syn6buffer6CursorENtNtB1s_5error5ErrorENtNtNtB7_3ops9try_trait3Try6branchB1s_, symObjAddr: 0xEFE4, symBinAddr: 0x62880, symSize: 0xAC }
  - { offset: 0xDFCC4, size: 0x8, addend: 0x0, symName: __RNvXsp_NtCsaNl6UpbT7bw_4core6resultINtB5_6ResultTNtNtCsc29TF2YcYso_3syn3lit3LitNtNtBP_6buffer6CursorENtNtBP_5error5ErrorENtNtNtB7_3ops9try_trait3Try6branchBP_, symObjAddr: 0xF090, symBinAddr: 0x6292C, symSize: 0xB8 }
  - { offset: 0xDFD41, size: 0x8, addend: 0x0, symName: __RNvXsp_NtCsaNl6UpbT7bw_4core6resultINtB5_6ResultTNtNtCsc29TF2YcYso_3syn3mac14MacroDelimiterNtCshnvkK9b4wzu_11proc_macro211TokenStreamENtNtBP_5error5ErrorENtNtNtB7_3ops9try_trait3Try6branchBP_, symObjAddr: 0xF148, symBinAddr: 0x629E4, symSize: 0xB0 }
  - { offset: 0xDFDBE, size: 0x8, addend: 0x0, symName: __RNvXsp_NtCsaNl6UpbT7bw_4core6resultINtB5_6ResultTNtNtCsc29TF2YcYso_3syn5token10UnderscoreNtNtBP_6buffer6CursorENtNtBP_5error5ErrorENtNtNtB7_3ops9try_trait3Try6branchBP_, symObjAddr: 0xF1F8, symBinAddr: 0x62A94, symSize: 0x94 }
  - { offset: 0xDFE3B, size: 0x8, addend: 0x0, symName: __RNvXsp_NtCsaNl6UpbT7bw_4core6resultINtB5_6ResultTNtNtCsc29TF2YcYso_3syn8lifetime8LifetimeNtNtBP_6buffer6CursorENtNtBP_5error5ErrorENtNtNtB7_3ops9try_trait3Try6branchBP_, symObjAddr: 0xF28C, symBinAddr: 0x62B28, symSize: 0xAC }
  - { offset: 0xDFEB8, size: 0x8, addend: 0x0, symName: __RNvXsp_NtCsaNl6UpbT7bw_4core6resultINtB5_6ResultTTNtNtCsc29TF2YcYso_3syn3mac14MacroDelimiterNtCshnvkK9b4wzu_11proc_macro211TokenStreamENtNtBQ_6buffer6CursorENtNtBQ_5error5ErrorENtNtNtB7_3ops9try_trait3Try6branchBQ_, symObjAddr: 0xF3E4, symBinAddr: 0x62BD4, symSize: 0xB0 }
  - { offset: 0xDFF35, size: 0x8, addend: 0x0, symName: __RNvXsp_NtCsaNl6UpbT7bw_4core6resultINtB5_6ResultTTNtNtCshnvkK9b4wzu_11proc_macro25extra9DelimSpanNtNtCsc29TF2YcYso_3syn5parse11ParseBufferENtNtB1B_6buffer6CursorENtNtB1B_5error5ErrorENtNtNtB7_3ops9try_trait3Try6branchB1B_, symObjAddr: 0xF494, symBinAddr: 0x62C84, symSize: 0xB0 }
  - { offset: 0xDFFB2, size: 0x8, addend: 0x0, symName: __RNvXsp_NtCsaNl6UpbT7bw_4core6resultINtB5_6ResultTuNtNtCsc29TF2YcYso_3syn6buffer6CursorENtNtBQ_5error5ErrorENtNtNtB7_3ops9try_trait3Try6branchBQ_, symObjAddr: 0xF544, symBinAddr: 0x62D34, symSize: 0x94 }
  - { offset: 0xE0030, size: 0x8, addend: 0x0, symName: __RNvXsp_NtCsaNl6UpbT7bw_4core6resultINtB5_6ResultbNtNtCsc29TF2YcYso_3syn5error5ErrorENtNtNtB7_3ops9try_trait3Try6branchBP_, symObjAddr: 0xF5D8, symBinAddr: 0x62DC8, symSize: 0x94 }
  - { offset: 0xE00AE, size: 0x8, addend: 0x0, symName: __RNvXsp_NtCsaNl6UpbT7bw_4core6resultINtB5_6ResultmNtNtCsc29TF2YcYso_3syn5error5ErrorENtNtNtB7_3ops9try_trait3Try6branchBP_, symObjAddr: 0xF66C, symBinAddr: 0x62E5C, symSize: 0x88 }
  - { offset: 0xE012C, size: 0x8, addend: 0x0, symName: __RNvXsp_NtCsaNl6UpbT7bw_4core6resultINtB5_6ResultuNtNtCsc29TF2YcYso_3syn5error5ErrorENtNtNtB7_3ops9try_trait3Try6branchBP_, symObjAddr: 0xF6F4, symBinAddr: 0x62EE4, symSize: 0x78 }
  - { offset: 0xE01B0, size: 0x8, addend: 0x0, symName: __RNvXsq_NtCsaNl6UpbT7bw_4core6resultINtB5_6ResultANtCshnvkK9b4wzu_11proc_macro24Spanj1_NtNtCsc29TF2YcYso_3syn5error5ErrorEINtNtNtB7_3ops9try_trait12FromResidualIBy_NtNtB7_7convert10InfallibleB1m_EE13from_residualB1q_, symObjAddr: 0xF76C, symBinAddr: 0x62F5C, symSize: 0x40 }
  - { offset: 0xE0235, size: 0x8, addend: 0x0, symName: __RNvXsq_NtCsaNl6UpbT7bw_4core6resultINtB5_6ResultANtCshnvkK9b4wzu_11proc_macro24Spanj2_NtNtCsc29TF2YcYso_3syn5error5ErrorEINtNtNtB7_3ops9try_trait12FromResidualIBy_NtNtB7_7convert10InfallibleB1m_EE13from_residualB1q_, symObjAddr: 0xF7AC, symBinAddr: 0x62F9C, symSize: 0x40 }
  - { offset: 0xE02BA, size: 0x8, addend: 0x0, symName: __RNvXsq_NtCsaNl6UpbT7bw_4core6resultINtB5_6ResultANtCshnvkK9b4wzu_11proc_macro24Spanj3_NtNtCsc29TF2YcYso_3syn5error5ErrorEINtNtNtB7_3ops9try_trait12FromResidualIBy_NtNtB7_7convert10InfallibleB1m_EE13from_residualB1q_, symObjAddr: 0xF7EC, symBinAddr: 0x62FDC, symSize: 0x40 }
  - { offset: 0xE033F, size: 0x8, addend: 0x0, symName: __RNvXsq_NtCsaNl6UpbT7bw_4core6resultINtB5_6ResultINtNtB7_6option6OptionINtNtCsiTraAjBDcu4_5alloc5boxed3BoxNtNtCsc29TF2YcYso_3syn4expr4ExprEENtNtB1J_5error5ErrorEINtNtNtB7_3ops9try_trait12FromResidualIBy_NtNtB7_7convert10InfallibleB2d_EE13from_residualB1J_, symObjAddr: 0xF82C, symBinAddr: 0x6301C, symSize: 0x40 }
  - { offset: 0xE03C4, size: 0x8, addend: 0x0, symName: __RNvXsq_NtCsaNl6UpbT7bw_4core6resultINtB5_6ResultINtNtB7_6option6OptionNtCshnvkK9b4wzu_11proc_macro25IdentENtNtCsc29TF2YcYso_3syn5error5ErrorEINtNtNtB7_3ops9try_trait12FromResidualIBy_NtNtB7_7convert10InfallibleB1G_EE13from_residualB1K_, symObjAddr: 0xF86C, symBinAddr: 0x6305C, symSize: 0x48 }
  - { offset: 0xE0449, size: 0x8, addend: 0x0, symName: __RNvXsq_NtCsaNl6UpbT7bw_4core6resultINtB5_6ResultINtNtB7_6option6OptionNtNtCsc29TF2YcYso_3syn3lit3LitENtNtB1a_5error5ErrorEINtNtNtB7_3ops9try_trait12FromResidualIBy_NtNtB7_7convert10InfallibleB1B_EE13from_residualB1a_, symObjAddr: 0xF8B4, symBinAddr: 0x630A4, symSize: 0x48 }
  - { offset: 0xE04CE, size: 0x8, addend: 0x0, symName: __RNvXsq_NtCsaNl6UpbT7bw_4core6resultINtB5_6ResultINtNtB7_6option6OptionNtNtCsc29TF2YcYso_3syn3lit6LitStrENtNtB1a_5error5ErrorEINtNtNtB7_3ops9try_trait12FromResidualIBy_NtNtB7_7convert10InfallibleB1E_EE13from_residualB1a_, symObjAddr: 0xF8FC, symBinAddr: 0x630EC, symSize: 0x40 }
  - { offset: 0xE0553, size: 0x8, addend: 0x0, symName: __RNvXsq_NtCsaNl6UpbT7bw_4core6resultINtB5_6ResultINtNtB7_6option6OptionNtNtCsc29TF2YcYso_3syn3lit8LitFloatENtNtB1a_5error5ErrorEINtNtNtB7_3ops9try_trait12FromResidualIBy_NtNtB7_7convert10InfallibleB1G_EE13from_residualB1a_, symObjAddr: 0xF93C, symBinAddr: 0x6312C, symSize: 0x40 }
  - { offset: 0xE05D8, size: 0x8, addend: 0x0, symName: __RNvXsq_NtCsaNl6UpbT7bw_4core6resultINtB5_6ResultINtNtB7_6option6OptionNtNtCsc29TF2YcYso_3syn4item10ImplItemFnENtNtB1a_5error5ErrorEINtNtNtB7_3ops9try_trait12FromResidualIBy_NtNtB7_7convert10InfallibleB1K_EE13from_residualB1a_, symObjAddr: 0xF97C, symBinAddr: 0x6316C, symSize: 0x48 }
  - { offset: 0xE065D, size: 0x8, addend: 0x0, symName: __RNvXsq_NtCsaNl6UpbT7bw_4core6resultINtB5_6ResultINtNtB7_6option6OptionNtNtCsc29TF2YcYso_3syn4item7ItemUseENtNtB1a_5error5ErrorEINtNtNtB7_3ops9try_trait12FromResidualIBy_NtNtB7_7convert10InfallibleB1G_EE13from_residualB1a_, symObjAddr: 0xF9C4, symBinAddr: 0x631B4, symSize: 0x48 }
  - { offset: 0xE06E2, size: 0x8, addend: 0x0, symName: __RNvXsq_NtCsaNl6UpbT7bw_4core6resultINtB5_6ResultINtNtB7_6option6OptionNtNtCsc29TF2YcYso_3syn4item7UseTreeENtNtB1a_5error5ErrorEINtNtNtB7_3ops9try_trait12FromResidualIBy_NtNtB7_7convert10InfallibleB1G_EE13from_residualB1a_, symObjAddr: 0xFA0C, symBinAddr: 0x631FC, symSize: 0x48 }
  - { offset: 0xE0767, size: 0x8, addend: 0x0, symName: __RNvXsq_NtCsaNl6UpbT7bw_4core6resultINtB5_6ResultINtNtB7_6option6OptionNtNtCsc29TF2YcYso_3syn4item8ItemImplENtNtB1a_5error5ErrorEINtNtNtB7_3ops9try_trait12FromResidualIBy_NtNtB7_7convert10InfallibleB1H_EE13from_residualB1a_, symObjAddr: 0xFA54, symBinAddr: 0x63244, symSize: 0x48 }
  - { offset: 0xE07EC, size: 0x8, addend: 0x0, symName: __RNvXsq_NtCsaNl6UpbT7bw_4core6resultINtB5_6ResultINtNtB7_6option6OptionNtNtCsc29TF2YcYso_3syn4item9SignatureENtNtB1a_5error5ErrorEINtNtNtB7_3ops9try_trait12FromResidualIBy_NtNtB7_7convert10InfallibleB1I_EE13from_residualB1a_, symObjAddr: 0xFA9C, symBinAddr: 0x6328C, symSize: 0x48 }
  - { offset: 0xE0871, size: 0x8, addend: 0x0, symName: __RNvXsq_NtCsaNl6UpbT7bw_4core6resultINtB5_6ResultINtNtB7_6option6OptionNtNtCsc29TF2YcYso_3syn5token2EqENtNtB1a_5error5ErrorEINtNtNtB7_3ops9try_trait12FromResidualIBy_NtNtB7_7convert10InfallibleB1C_EE13from_residualB1a_, symObjAddr: 0xFAE4, symBinAddr: 0x632D4, symSize: 0x40 }
  - { offset: 0xE08F6, size: 0x8, addend: 0x0, symName: __RNvXsq_NtCsaNl6UpbT7bw_4core6resultINtB5_6ResultINtNtB7_6option6OptionNtNtCsc29TF2YcYso_3syn5token2OrENtNtB1a_5error5ErrorEINtNtNtB7_3ops9try_trait12FromResidualIBy_NtNtB7_7convert10InfallibleB1C_EE13from_residualB1a_, symObjAddr: 0xFB24, symBinAddr: 0x63314, symSize: 0x40 }
  - { offset: 0xE097B, size: 0x8, addend: 0x0, symName: __RNvXsq_NtCsaNl6UpbT7bw_4core6resultINtB5_6ResultINtNtB7_6option6OptionNtNtCsc29TF2YcYso_3syn5token3BoxENtNtB1a_5error5ErrorEINtNtNtB7_3ops9try_trait12FromResidualIBy_NtNtB7_7convert10InfallibleB1D_EE13from_residualB1a_, symObjAddr: 0xFB64, symBinAddr: 0x63354, symSize: 0x40 }
  - { offset: 0xE0A00, size: 0x8, addend: 0x0, symName: __RNvXsq_NtCsaNl6UpbT7bw_4core6resultINtB5_6ResultINtNtB7_6option6OptionNtNtCsc29TF2YcYso_3syn5token3DynENtNtB1a_5error5ErrorEINtNtNtB7_3ops9try_trait12FromResidualIBy_NtNtB7_7convert10InfallibleB1D_EE13from_residualB1a_, symObjAddr: 0xFBA4, symBinAddr: 0x63394, symSize: 0x40 }
  - { offset: 0xE0A85, size: 0x8, addend: 0x0, symName: __RNvXsq_NtCsaNl6UpbT7bw_4core6resultINtB5_6ResultINtNtB7_6option6OptionNtNtCsc29TF2YcYso_3syn5token3MutENtNtB1a_5error5ErrorEINtNtNtB7_3ops9try_trait12FromResidualIBy_NtNtB7_7convert10InfallibleB1D_EE13from_residualB1a_, symObjAddr: 0xFBE4, symBinAddr: 0x633D4, symSize: 0x40 }
  - { offset: 0xE0B0A, size: 0x8, addend: 0x0, symName: __RNvXsq_NtCsaNl6UpbT7bw_4core6resultINtB5_6ResultINtNtB7_6option6OptionNtNtCsc29TF2YcYso_3syn5token3RefENtNtB1a_5error5ErrorEINtNtNtB7_3ops9try_trait12FromResidualIBy_NtNtB7_7convert10InfallibleB1D_EE13from_residualB1a_, symObjAddr: 0xFC24, symBinAddr: 0x63414, symSize: 0x40 }
  - { offset: 0xE0B8F, size: 0x8, addend: 0x0, symName: __RNvXsq_NtCsaNl6UpbT7bw_4core6resultINtB5_6ResultINtNtB7_6option6OptionNtNtCsc29TF2YcYso_3syn5token4AutoENtNtB1a_5error5ErrorEINtNtNtB7_3ops9try_trait12FromResidualIBy_NtNtB7_7convert10InfallibleB1E_EE13from_residualB1a_, symObjAddr: 0xFC64, symBinAddr: 0x63454, symSize: 0x40 }
  - { offset: 0xE0C14, size: 0x8, addend: 0x0, symName: __RNvXsq_NtCsaNl6UpbT7bw_4core6resultINtB5_6ResultINtNtB7_6option6OptionNtNtCsc29TF2YcYso_3syn5token4MoveENtNtB1a_5error5ErrorEINtNtNtB7_3ops9try_trait12FromResidualIBy_NtNtB7_7convert10InfallibleB1E_EE13from_residualB1a_, symObjAddr: 0xFCA4, symBinAddr: 0x63494, symSize: 0x40 }
  - { offset: 0xE0C99, size: 0x8, addend: 0x0, symName: __RNvXsq_NtCsaNl6UpbT7bw_4core6resultINtB5_6ResultINtNtB7_6option6OptionNtNtCsc29TF2YcYso_3syn5token4PlusENtNtB1a_5error5ErrorEINtNtNtB7_3ops9try_trait12FromResidualIBy_NtNtB7_7convert10InfallibleB1E_EE13from_residualB1a_, symObjAddr: 0xFCE4, symBinAddr: 0x634D4, symSize: 0x40 }
  - { offset: 0xE0D1E, size: 0x8, addend: 0x0, symName: __RNvXsq_NtCsaNl6UpbT7bw_4core6resultINtB5_6ResultINtNtB7_6option6OptionNtNtCsc29TF2YcYso_3syn5token4SemiENtNtB1a_5error5ErrorEINtNtNtB7_3ops9try_trait12FromResidualIBy_NtNtB7_7convert10InfallibleB1E_EE13from_residualB1a_, symObjAddr: 0xFD24, symBinAddr: 0x63514, symSize: 0x40 }
  - { offset: 0xE0DA3, size: 0x8, addend: 0x0, symName: __RNvXsq_NtCsaNl6UpbT7bw_4core6resultINtB5_6ResultINtNtB7_6option6OptionNtNtCsc29TF2YcYso_3syn5token4StarENtNtB1a_5error5ErrorEINtNtNtB7_3ops9try_trait12FromResidualIBy_NtNtB7_7convert10InfallibleB1E_EE13from_residualB1a_, symObjAddr: 0xFD64, symBinAddr: 0x63554, symSize: 0x40 }
  - { offset: 0xE0E28, size: 0x8, addend: 0x0, symName: __RNvXsq_NtCsaNl6UpbT7bw_4core6resultINtB5_6ResultINtNtB7_6option6OptionNtNtCsc29TF2YcYso_3syn5token5AsyncENtNtB1a_5error5ErrorEINtNtNtB7_3ops9try_trait12FromResidualIBy_NtNtB7_7convert10InfallibleB1F_EE13from_residualB1a_, symObjAddr: 0xFDA4, symBinAddr: 0x63594, symSize: 0x40 }
  - { offset: 0xE0EAD, size: 0x8, addend: 0x0, symName: __RNvXsq_NtCsaNl6UpbT7bw_4core6resultINtB5_6ResultINtNtB7_6option6OptionNtNtCsc29TF2YcYso_3syn5token5AwaitENtNtB1a_5error5ErrorEINtNtNtB7_3ops9try_trait12FromResidualIBy_NtNtB7_7convert10InfallibleB1F_EE13from_residualB1a_, symObjAddr: 0xFDE4, symBinAddr: 0x635D4, symSize: 0x40 }
  - { offset: 0xE0F32, size: 0x8, addend: 0x0, symName: __RNvXsq_NtCsaNl6UpbT7bw_4core6resultINtB5_6ResultINtNtB7_6option6OptionNtNtCsc29TF2YcYso_3syn5token5ColonENtNtB1a_5error5ErrorEINtNtNtB7_3ops9try_trait12FromResidualIBy_NtNtB7_7convert10InfallibleB1F_EE13from_residualB1a_, symObjAddr: 0xFE24, symBinAddr: 0x63614, symSize: 0x40 }
  - { offset: 0xE0FB7, size: 0x8, addend: 0x0, symName: __RNvXsq_NtCsaNl6UpbT7bw_4core6resultINtB5_6ResultINtNtB7_6option6OptionNtNtCsc29TF2YcYso_3syn5token5CommaENtNtB1a_5error5ErrorEINtNtNtB7_3ops9try_trait12FromResidualIBy_NtNtB7_7convert10InfallibleB1F_EE13from_residualB1a_, symObjAddr: 0xFE64, symBinAddr: 0x63654, symSize: 0x40 }
  - { offset: 0xE103C, size: 0x8, addend: 0x0, symName: __RNvXsq_NtCsaNl6UpbT7bw_4core6resultINtB5_6ResultINtNtB7_6option6OptionNtNtCsc29TF2YcYso_3syn5token5ConstENtNtB1a_5error5ErrorEINtNtNtB7_3ops9try_trait12FromResidualIBy_NtNtB7_7convert10InfallibleB1F_EE13from_residualB1a_, symObjAddr: 0xFEA4, symBinAddr: 0x63694, symSize: 0x40 }
  - { offset: 0xE10C1, size: 0x8, addend: 0x0, symName: __RNvXsq_NtCsaNl6UpbT7bw_4core6resultINtB5_6ResultINtNtB7_6option6OptionNtNtCsc29TF2YcYso_3syn5token6StaticENtNtB1a_5error5ErrorEINtNtNtB7_3ops9try_trait12FromResidualIBy_NtNtB7_7convert10InfallibleB1G_EE13from_residualB1a_, symObjAddr: 0xFEE4, symBinAddr: 0x636D4, symSize: 0x40 }
  - { offset: 0xE1146, size: 0x8, addend: 0x0, symName: __RNvXsq_NtCsaNl6UpbT7bw_4core6resultINtB5_6ResultINtNtB7_6option6OptionNtNtCsc29TF2YcYso_3syn5token6UnsafeENtNtB1a_5error5ErrorEINtNtNtB7_3ops9try_trait12FromResidualIBy_NtNtB7_7convert10InfallibleB1G_EE13from_residualB1a_, symObjAddr: 0xFF24, symBinAddr: 0x63714, symSize: 0x40 }
  - { offset: 0xE11CB, size: 0x8, addend: 0x0, symName: __RNvXsq_NtCsaNl6UpbT7bw_4core6resultINtB5_6ResultINtNtB7_6option6OptionNtNtCsc29TF2YcYso_3syn5token7DefaultENtNtB1a_5error5ErrorEINtNtNtB7_3ops9try_trait12FromResidualIBy_NtNtB7_7convert10InfallibleB1H_EE13from_residualB1a_, symObjAddr: 0xFF64, symBinAddr: 0x63754, symSize: 0x40 }
  - { offset: 0xE1250, size: 0x8, addend: 0x0, symName: __RNvXsq_NtCsaNl6UpbT7bw_4core6resultINtB5_6ResultINtNtB7_6option6OptionNtNtCsc29TF2YcYso_3syn5token7PathSepENtNtB1a_5error5ErrorEINtNtNtB7_3ops9try_trait12FromResidualIBy_NtNtB7_7convert10InfallibleB1H_EE13from_residualB1a_, symObjAddr: 0xFFA4, symBinAddr: 0x63794, symSize: 0x40 }
  - { offset: 0xE12D5, size: 0x8, addend: 0x0, symName: __RNvXsq_NtCsaNl6UpbT7bw_4core6resultINtB5_6ResultINtNtB7_6option6OptionNtNtCsc29TF2YcYso_3syn5token8QuestionENtNtB1a_5error5ErrorEINtNtNtB7_3ops9try_trait12FromResidualIBy_NtNtB7_7convert10InfallibleB1I_EE13from_residualB1a_, symObjAddr: 0xFFE4, symBinAddr: 0x637D4, symSize: 0x40 }
  - { offset: 0xE135A, size: 0x8, addend: 0x0, symName: __RNvXsq_NtCsaNl6UpbT7bw_4core6resultINtB5_6ResultINtNtB7_6option6OptionNtNtCsc29TF2YcYso_3syn5token9DotDotDotENtNtB1a_5error5ErrorEINtNtNtB7_3ops9try_trait12FromResidualIBy_NtNtB7_7convert10InfallibleB1J_EE13from_residualB1a_, symObjAddr: 0x10024, symBinAddr: 0x63814, symSize: 0x40 }
  - { offset: 0xE13DF, size: 0x8, addend: 0x0, symName: __RNvXsq_NtCsaNl6UpbT7bw_4core6resultINtB5_6ResultINtNtB7_6option6OptionNtNtCsc29TF2YcYso_3syn8generics10TraitBoundENtNtB1a_5error5ErrorEINtNtNtB7_3ops9try_trait12FromResidualIBy_NtNtB7_7convert10InfallibleB1O_EE13from_residualB1a_, symObjAddr: 0x10064, symBinAddr: 0x63854, symSize: 0x48 }
  - { offset: 0xE1464, size: 0x8, addend: 0x0, symName: __RNvXsq_NtCsaNl6UpbT7bw_4core6resultINtB5_6ResultINtNtB7_6option6OptionNtNtCsc29TF2YcYso_3syn8lifetime8LifetimeENtNtB1a_5error5ErrorEINtNtNtB7_3ops9try_trait12FromResidualIBy_NtNtB7_7convert10InfallibleB1L_EE13from_residualB1a_, symObjAddr: 0x100AC, symBinAddr: 0x6389C, symSize: 0x48 }
  - { offset: 0xE14E9, size: 0x8, addend: 0x0, symName: __RNvXsq_NtCsaNl6UpbT7bw_4core6resultINtB5_6ResultINtNtB7_6option6OptionNtNtNtCsc29TF2YcYso_3syn3pat7parsing13PatRangeBoundENtNtB1c_5error5ErrorEINtNtNtB7_3ops9try_trait12FromResidualIBy_NtNtB7_7convert10InfallibleB1W_EE13from_residualB1c_, symObjAddr: 0x100F4, symBinAddr: 0x638E4, symSize: 0x48 }
  - { offset: 0xE156E, size: 0x8, addend: 0x0, symName: __RNvXsq_NtCsaNl6UpbT7bw_4core6resultINtB5_6ResultINtNtB7_6option6OptionTNtNtCsc29TF2YcYso_3syn5token2EqNtNtB1b_2ty4TypeEENtNtB1b_5error5ErrorEINtNtNtB7_3ops9try_trait12FromResidualIBy_NtNtB7_7convert10InfallibleB1U_EE13from_residualB1b_, symObjAddr: 0x1013C, symBinAddr: 0x6392C, symSize: 0x48 }
  - { offset: 0xE15F3, size: 0x8, addend: 0x0, symName: __RNvXsq_NtCsaNl6UpbT7bw_4core6resultINtB5_6ResultINtNtCsc29TF2YcYso_3syn10punctuated10PunctuatedNtNtBP_2ty4TypeNtNtBP_5token5CommaENtNtBP_5error5ErrorEINtNtNtB7_3ops9try_trait12FromResidualIBy_NtNtB7_7convert10InfallibleB24_EE13from_residualBP_, symObjAddr: 0x10184, symBinAddr: 0x63974, symSize: 0x48 }
  - { offset: 0xE1678, size: 0x8, addend: 0x0, symName: __RNvXsq_NtCsaNl6UpbT7bw_4core6resultINtB5_6ResultINtNtCsc29TF2YcYso_3syn10punctuated10PunctuatedNtNtBP_4data5FieldNtNtBP_5token5CommaENtNtBP_5error5ErrorEINtNtNtB7_3ops9try_trait12FromResidualIBy_NtNtB7_7convert10InfallibleB27_EE13from_residualBP_, symObjAddr: 0x101CC, symBinAddr: 0x639BC, symSize: 0x48 }
  - { offset: 0xE16FD, size: 0x8, addend: 0x0, symName: __RNvXsq_NtCsaNl6UpbT7bw_4core6resultINtB5_6ResultINtNtCsc29TF2YcYso_3syn10punctuated10PunctuatedNtNtBP_4data7VariantNtNtBP_5token5CommaENtNtBP_5error5ErrorEINtNtNtB7_3ops9try_trait12FromResidualIBy_NtNtB7_7convert10InfallibleB29_EE13from_residualBP_, symObjAddr: 0x10214, symBinAddr: 0x63A04, symSize: 0x48 }
  - { offset: 0xE1782, size: 0x8, addend: 0x0, symName: __RNvXsq_NtCsaNl6UpbT7bw_4core6resultINtB5_6ResultINtNtCsc29TF2YcYso_3syn10punctuated10PunctuatedNtNtBP_4expr4ExprNtNtBP_5token5CommaENtNtBP_5error5ErrorEINtNtNtB7_3ops9try_trait12FromResidualIBy_NtNtB7_7convert10InfallibleB26_EE13from_residualBP_, symObjAddr: 0x1025C, symBinAddr: 0x63A4C, symSize: 0x48 }
  - { offset: 0xE1807, size: 0x8, addend: 0x0, symName: __RNvXsq_NtCsaNl6UpbT7bw_4core6resultINtB5_6ResultINtNtCsc29TF2YcYso_3syn10punctuated10PunctuatedNtNtBP_8generics14TypeParamBoundNtNtBP_5token4PlusENtNtBP_5error5ErrorEINtNtNtB7_3ops9try_trait12FromResidualIBy_NtNtB7_7convert10InfallibleB2k_EE13from_residualBP_, symObjAddr: 0x102A4, symBinAddr: 0x63A94, symSize: 0x48 }
  - { offset: 0xE188C, size: 0x8, addend: 0x0, symName: __RNvXsq_NtCsaNl6UpbT7bw_4core6resultINtB5_6ResultINtNtCsiTraAjBDcu4_5alloc3vec3VecNtNtCsc29TF2YcYso_3syn4attr9AttributeENtNtB1l_5error5ErrorEINtNtNtB7_3ops9try_trait12FromResidualIBy_NtNtB7_7convert10InfallibleB1T_EE13from_residualB1l_, symObjAddr: 0x102EC, symBinAddr: 0x63ADC, symSize: 0x48 }
  - { offset: 0xE1911, size: 0x8, addend: 0x0, symName: __RNvXsq_NtCsaNl6UpbT7bw_4core6resultINtB5_6ResultINtNtCsiTraAjBDcu4_5alloc3vec3VecNtNtCsc29TF2YcYso_3syn4expr3ArmENtNtB1l_5error5ErrorEINtNtNtB7_3ops9try_trait12FromResidualIBy_NtNtB7_7convert10InfallibleB1N_EE13from_residualB1l_, symObjAddr: 0x10334, symBinAddr: 0x63B24, symSize: 0x48 }
  - { offset: 0xE1996, size: 0x8, addend: 0x0, symName: __RNvXsq_NtCsaNl6UpbT7bw_4core6resultINtB5_6ResultINtNtCsiTraAjBDcu4_5alloc3vec3VecNtNtCsc29TF2YcYso_3syn4stmt4StmtENtNtB1l_5error5ErrorEINtNtNtB7_3ops9try_trait12FromResidualIBy_NtNtB7_7convert10InfallibleB1O_EE13from_residualB1l_, symObjAddr: 0x1037C, symBinAddr: 0x63B6C, symSize: 0x48 }
  - { offset: 0xE1A1B, size: 0x8, addend: 0x0, symName: __RNvXsq_NtCsaNl6UpbT7bw_4core6resultINtB5_6ResultINtNtCsiTraAjBDcu4_5alloc5boxed3BoxNtNtCsc29TF2YcYso_3syn4expr4ExprENtNtB1n_5error5ErrorEINtNtNtB7_3ops9try_trait12FromResidualIBy_NtNtB7_7convert10InfallibleB1Q_EE13from_residualB1n_, symObjAddr: 0x103C4, symBinAddr: 0x63BB4, symSize: 0x40 }
  - { offset: 0xE1AA0, size: 0x8, addend: 0x0, symName: __RNvXsq_NtCsaNl6UpbT7bw_4core6resultINtB5_6ResultNtCshnvkK9b4wzu_11proc_macro211TokenStreamNtNtCsc29TF2YcYso_3syn5error5ErrorEINtNtNtB7_3ops9try_trait12FromResidualIBy_NtNtB7_7convert10InfallibleB1q_EE13from_residualB1u_, symObjAddr: 0x10404, symBinAddr: 0x63BF4, symSize: 0x48 }
  - { offset: 0xE1B25, size: 0x8, addend: 0x0, symName: __RNvXsq_NtCsaNl6UpbT7bw_4core6resultINtB5_6ResultNtCshnvkK9b4wzu_11proc_macro24SpanNtNtCsc29TF2YcYso_3syn5error5ErrorEINtNtNtB7_3ops9try_trait12FromResidualIBy_NtNtB7_7convert10InfallibleB1i_EE13from_residualB1m_, symObjAddr: 0x1044C, symBinAddr: 0x63C3C, symSize: 0x40 }
  - { offset: 0xE1BAA, size: 0x8, addend: 0x0, symName: __RNvXsq_NtCsaNl6UpbT7bw_4core6resultINtB5_6ResultNtCshnvkK9b4wzu_11proc_macro25IdentNtNtCsc29TF2YcYso_3syn5error5ErrorEINtNtNtB7_3ops9try_trait12FromResidualIBy_NtNtB7_7convert10InfallibleB1j_EE13from_residualB1n_, symObjAddr: 0x104D4, symBinAddr: 0x63C7C, symSize: 0x48 }
  - { offset: 0xE1C2F, size: 0x8, addend: 0x0, symName: __RNvXsq_NtCsaNl6UpbT7bw_4core6resultINtB5_6ResultNtCshnvkK9b4wzu_11proc_macro29TokenTreeNtNtCsc29TF2YcYso_3syn5error5ErrorEINtNtNtB7_3ops9try_trait12FromResidualIBy_NtNtB7_7convert10InfallibleB1n_EE13from_residualB1r_, symObjAddr: 0x105A4, symBinAddr: 0x63CC4, symSize: 0x48 }
  - { offset: 0xE1CB4, size: 0x8, addend: 0x0, symName: __RNvXsq_NtCsaNl6UpbT7bw_4core6resultINtB5_6ResultNtNtCsc29TF2YcYso_3syn11restriction10VisibilityNtNtBO_5error5ErrorEINtNtNtB7_3ops9try_trait12FromResidualIBy_NtNtB7_7convert10InfallibleB1v_EE13from_residualBO_, symObjAddr: 0x105EC, symBinAddr: 0x63D0C, symSize: 0x48 }
  - { offset: 0xE1D39, size: 0x8, addend: 0x0, symName: __RNvXsq_NtCsaNl6UpbT7bw_4core6resultINtB5_6ResultNtNtCsc29TF2YcYso_3syn2ty10ReturnTypeNtNtBO_5error5ErrorEINtNtNtB7_3ops9try_trait12FromResidualIBy_NtNtB7_7convert10InfallibleB1l_EE13from_residualBO_, symObjAddr: 0x10634, symBinAddr: 0x63D54, symSize: 0x40 }
  - { offset: 0xE1DBE, size: 0x8, addend: 0x0, symName: __RNvXsq_NtCsaNl6UpbT7bw_4core6resultINtB5_6ResultNtNtCsc29TF2YcYso_3syn2ty10TypeBareFnNtNtBO_5error5ErrorEINtNtNtB7_3ops9try_trait12FromResidualIBy_NtNtB7_7convert10InfallibleB1l_EE13from_residualBO_, symObjAddr: 0x10674, symBinAddr: 0x63D94, symSize: 0x48 }
  - { offset: 0xE1E43, size: 0x8, addend: 0x0, symName: __RNvXsq_NtCsaNl6UpbT7bw_4core6resultINtB5_6ResultNtNtCsc29TF2YcYso_3syn2ty12BareVariadicNtNtBO_5error5ErrorEINtNtNtB7_3ops9try_trait12FromResidualIBy_NtNtB7_7convert10InfallibleB1n_EE13from_residualBO_, symObjAddr: 0x106BC, symBinAddr: 0x63DDC, symSize: 0x48 }
  - { offset: 0xE1EC8, size: 0x8, addend: 0x0, symName: __RNvXsq_NtCsaNl6UpbT7bw_4core6resultINtB5_6ResultNtNtCsc29TF2YcYso_3syn2ty13TypeImplTraitNtNtBO_5error5ErrorEINtNtNtB7_3ops9try_trait12FromResidualIBy_NtNtB7_7convert10InfallibleB1o_EE13from_residualBO_, symObjAddr: 0x10704, symBinAddr: 0x63E24, symSize: 0x48 }
  - { offset: 0xE1F4D, size: 0x8, addend: 0x0, symName: __RNvXsq_NtCsaNl6UpbT7bw_4core6resultINtB5_6ResultNtNtCsc29TF2YcYso_3syn2ty13TypeReferenceNtNtBO_5error5ErrorEINtNtNtB7_3ops9try_trait12FromResidualIBy_NtNtB7_7convert10InfallibleB1o_EE13from_residualBO_, symObjAddr: 0x1074C, symBinAddr: 0x63E6C, symSize: 0x48 }
  - { offset: 0xE1FD2, size: 0x8, addend: 0x0, symName: __RNvXsq_NtCsaNl6UpbT7bw_4core6resultINtB5_6ResultNtNtCsc29TF2YcYso_3syn2ty15TypeTraitObjectNtNtBO_5error5ErrorEINtNtNtB7_3ops9try_trait12FromResidualIBy_NtNtB7_7convert10InfallibleB1q_EE13from_residualBO_, symObjAddr: 0x10794, symBinAddr: 0x63EB4, symSize: 0x48 }
  - { offset: 0xE2057, size: 0x8, addend: 0x0, symName: __RNvXsq_NtCsaNl6UpbT7bw_4core6resultINtB5_6ResultNtNtCsc29TF2YcYso_3syn2ty3AbiNtNtBO_5error5ErrorEINtNtNtB7_3ops9try_trait12FromResidualIBy_NtNtB7_7convert10InfallibleB1d_EE13from_residualBO_, symObjAddr: 0x107DC, symBinAddr: 0x63EFC, symSize: 0x40 }
  - { offset: 0xE20DC, size: 0x8, addend: 0x0, symName: __RNvXsq_NtCsaNl6UpbT7bw_4core6resultINtB5_6ResultNtNtCsc29TF2YcYso_3syn2ty4TypeNtNtBO_5error5ErrorEINtNtNtB7_3ops9try_trait12FromResidualIBy_NtNtB7_7convert10InfallibleB1e_EE13from_residualBO_, symObjAddr: 0x1081C, symBinAddr: 0x63F3C, symSize: 0x48 }
  - { offset: 0xE2161, size: 0x8, addend: 0x0, symName: __RNvXsq_NtCsaNl6UpbT7bw_4core6resultINtB5_6ResultNtNtCsc29TF2YcYso_3syn2ty7TypePtrNtNtBO_5error5ErrorEINtNtNtB7_3ops9try_trait12FromResidualIBy_NtNtB7_7convert10InfallibleB1h_EE13from_residualBO_, symObjAddr: 0x10864, symBinAddr: 0x63F84, symSize: 0x48 }
  - { offset: 0xE21E6, size: 0x8, addend: 0x0, symName: __RNvXsq_NtCsaNl6UpbT7bw_4core6resultINtB5_6ResultNtNtCsc29TF2YcYso_3syn2ty8TypePathNtNtBO_5error5ErrorEINtNtNtB7_3ops9try_trait12FromResidualIBy_NtNtB7_7convert10InfallibleB1i_EE13from_residualBO_, symObjAddr: 0x108AC, symBinAddr: 0x63FCC, symSize: 0x48 }
  - { offset: 0xE226B, size: 0x8, addend: 0x0, symName: __RNvXsq_NtCsaNl6UpbT7bw_4core6resultINtB5_6ResultNtNtCsc29TF2YcYso_3syn2ty9BareFnArgNtNtBO_5error5ErrorEINtNtNtB7_3ops9try_trait12FromResidualIBy_NtNtB7_7convert10InfallibleB1j_EE13from_residualBO_, symObjAddr: 0x108F4, symBinAddr: 0x64014, symSize: 0x48 }
  - { offset: 0xE22F0, size: 0x8, addend: 0x0, symName: __RNvXsq_NtCsaNl6UpbT7bw_4core6resultINtB5_6ResultNtNtCsc29TF2YcYso_3syn2ty9TypeGroupNtNtBO_5error5ErrorEINtNtNtB7_3ops9try_trait12FromResidualIBy_NtNtB7_7convert10InfallibleB1j_EE13from_residualBO_, symObjAddr: 0x10984, symBinAddr: 0x6405C, symSize: 0x40 }
  - { offset: 0xE2375, size: 0x8, addend: 0x0, symName: __RNvXsq_NtCsaNl6UpbT7bw_4core6resultINtB5_6ResultNtNtCsc29TF2YcYso_3syn2ty9TypeInferNtNtBO_5error5ErrorEINtNtNtB7_3ops9try_trait12FromResidualIBy_NtNtB7_7convert10InfallibleB1j_EE13from_residualBO_, symObjAddr: 0x109C4, symBinAddr: 0x6409C, symSize: 0x40 }
  - { offset: 0xE23FA, size: 0x8, addend: 0x0, symName: __RNvXsq_NtCsaNl6UpbT7bw_4core6resultINtB5_6ResultNtNtCsc29TF2YcYso_3syn2ty9TypeNeverNtNtBO_5error5ErrorEINtNtNtB7_3ops9try_trait12FromResidualIBy_NtNtB7_7convert10InfallibleB1j_EE13from_residualBO_, symObjAddr: 0x10A4C, symBinAddr: 0x640DC, symSize: 0x40 }
  - { offset: 0xE247F, size: 0x8, addend: 0x0, symName: __RNvXsq_NtCsaNl6UpbT7bw_4core6resultINtB5_6ResultNtNtCsc29TF2YcYso_3syn3lit3LitNtNtBO_5error5ErrorEINtNtNtB7_3ops9try_trait12FromResidualIBy_NtNtB7_7convert10InfallibleB1e_EE13from_residualBO_, symObjAddr: 0x10B64, symBinAddr: 0x6411C, symSize: 0x48 }
  - { offset: 0xE2504, size: 0x8, addend: 0x0, symName: __RNvXsq_NtCsaNl6UpbT7bw_4core6resultINtB5_6ResultNtNtCsc29TF2YcYso_3syn3mac5MacroNtNtBO_5error5ErrorEINtNtNtB7_3ops9try_trait12FromResidualIBy_NtNtB7_7convert10InfallibleB1g_EE13from_residualBO_, symObjAddr: 0x10BAC, symBinAddr: 0x64164, symSize: 0x48 }
  - { offset: 0xE2589, size: 0x8, addend: 0x0, symName: __RNvXsq_NtCsaNl6UpbT7bw_4core6resultINtB5_6ResultNtNtCsc29TF2YcYso_3syn3pat12PatReferenceNtNtBO_5error5ErrorEINtNtNtB7_3ops9try_trait12FromResidualIBy_NtNtB7_7convert10InfallibleB1o_EE13from_residualBO_, symObjAddr: 0x10BF4, symBinAddr: 0x641AC, symSize: 0x48 }
  - { offset: 0xE260E, size: 0x8, addend: 0x0, symName: __RNvXsq_NtCsaNl6UpbT7bw_4core6resultINtB5_6ResultNtNtCsc29TF2YcYso_3syn3pat14PatTupleStructNtNtBO_5error5ErrorEINtNtNtB7_3ops9try_trait12FromResidualIBy_NtNtB7_7convert10InfallibleB1q_EE13from_residualBO_, symObjAddr: 0x10C3C, symBinAddr: 0x641F4, symSize: 0x48 }
  - { offset: 0xE2693, size: 0x8, addend: 0x0, symName: __RNvXsq_NtCsaNl6UpbT7bw_4core6resultINtB5_6ResultNtNtCsc29TF2YcYso_3syn3pat3PatNtNtBO_5error5ErrorEINtNtNtB7_3ops9try_trait12FromResidualIBy_NtNtB7_7convert10InfallibleB1e_EE13from_residualBO_, symObjAddr: 0x10C84, symBinAddr: 0x6423C, symSize: 0x4C }
  - { offset: 0xE2718, size: 0x8, addend: 0x0, symName: __RNvXsq_NtCsaNl6UpbT7bw_4core6resultINtB5_6ResultNtNtCsc29TF2YcYso_3syn3pat7PatWildNtNtBO_5error5ErrorEINtNtNtB7_3ops9try_trait12FromResidualIBy_NtNtB7_7convert10InfallibleB1i_EE13from_residualBO_, symObjAddr: 0x10D18, symBinAddr: 0x64288, symSize: 0x48 }
  - { offset: 0xE279D, size: 0x8, addend: 0x0, symName: __RNvXsq_NtCsaNl6UpbT7bw_4core6resultINtB5_6ResultNtNtCsc29TF2YcYso_3syn3pat8FieldPatNtNtBO_5error5ErrorEINtNtNtB7_3ops9try_trait12FromResidualIBy_NtNtB7_7convert10InfallibleB1j_EE13from_residualBO_, symObjAddr: 0x10D60, symBinAddr: 0x642D0, symSize: 0x48 }
  - { offset: 0xE2822, size: 0x8, addend: 0x0, symName: __RNvXsq_NtCsaNl6UpbT7bw_4core6resultINtB5_6ResultNtNtCsc29TF2YcYso_3syn3pat8PatIdentNtNtBO_5error5ErrorEINtNtNtB7_3ops9try_trait12FromResidualIBy_NtNtB7_7convert10InfallibleB1j_EE13from_residualBO_, symObjAddr: 0x10DA8, symBinAddr: 0x64318, symSize: 0x48 }
  - { offset: 0xE28A7, size: 0x8, addend: 0x0, symName: __RNvXsq_NtCsaNl6UpbT7bw_4core6resultINtB5_6ResultNtNtCsc29TF2YcYso_3syn3pat8PatSliceNtNtBO_5error5ErrorEINtNtNtB7_3ops9try_trait12FromResidualIBy_NtNtB7_7convert10InfallibleB1j_EE13from_residualBO_, symObjAddr: 0x10DF0, symBinAddr: 0x64360, symSize: 0x48 }
  - { offset: 0xE292C, size: 0x8, addend: 0x0, symName: __RNvXsq_NtCsaNl6UpbT7bw_4core6resultINtB5_6ResultNtNtCsc29TF2YcYso_3syn3pat9PatStructNtNtBO_5error5ErrorEINtNtNtB7_3ops9try_trait12FromResidualIBy_NtNtB7_7convert10InfallibleB1k_EE13from_residualBO_, symObjAddr: 0x10E38, symBinAddr: 0x643A8, symSize: 0x48 }
  - { offset: 0xE29B1, size: 0x8, addend: 0x0, symName: __RNvXsq_NtCsaNl6UpbT7bw_4core6resultINtB5_6ResultNtNtCsc29TF2YcYso_3syn4attr13MetaNameValueNtNtBO_5error5ErrorEINtNtNtB7_3ops9try_trait12FromResidualIBy_NtNtB7_7convert10InfallibleB1q_EE13from_residualBO_, symObjAddr: 0x10E80, symBinAddr: 0x643F0, symSize: 0x48 }
  - { offset: 0xE2A36, size: 0x8, addend: 0x0, symName: __RNvXsq_NtCsaNl6UpbT7bw_4core6resultINtB5_6ResultNtNtCsc29TF2YcYso_3syn4attr4MetaNtNtBO_5error5ErrorEINtNtNtB7_3ops9try_trait12FromResidualIBy_NtNtB7_7convert10InfallibleB1g_EE13from_residualBO_, symObjAddr: 0x10EC8, symBinAddr: 0x64438, symSize: 0x48 }
  - { offset: 0xE2ABB, size: 0x8, addend: 0x0, symName: __RNvXsq_NtCsaNl6UpbT7bw_4core6resultINtB5_6ResultNtNtCsc29TF2YcYso_3syn4attr8MetaListNtNtBO_5error5ErrorEINtNtNtB7_3ops9try_trait12FromResidualIBy_NtNtB7_7convert10InfallibleB1k_EE13from_residualBO_, symObjAddr: 0x10F10, symBinAddr: 0x64480, symSize: 0x48 }
  - { offset: 0xE2B40, size: 0x8, addend: 0x0, symName: __RNvXsq_NtCsaNl6UpbT7bw_4core6resultINtB5_6ResultNtNtCsc29TF2YcYso_3syn4attr9AttributeNtNtBO_5error5ErrorEINtNtNtB7_3ops9try_trait12FromResidualIBy_NtNtB7_7convert10InfallibleB1l_EE13from_residualBO_, symObjAddr: 0x10F58, symBinAddr: 0x644C8, symSize: 0x48 }
  - { offset: 0xE2BC5, size: 0x8, addend: 0x0, symName: __RNvXsq_NtCsaNl6UpbT7bw_4core6resultINtB5_6ResultNtNtCsc29TF2YcYso_3syn4data11FieldsNamedNtNtBO_5error5ErrorEINtNtNtB7_3ops9try_trait12FromResidualIBy_NtNtB7_7convert10InfallibleB1o_EE13from_residualBO_, symObjAddr: 0x10FA0, symBinAddr: 0x64510, symSize: 0x48 }
  - { offset: 0xE2C4A, size: 0x8, addend: 0x0, symName: __RNvXsq_NtCsaNl6UpbT7bw_4core6resultINtB5_6ResultNtNtCsc29TF2YcYso_3syn4data13FieldsUnnamedNtNtBO_5error5ErrorEINtNtNtB7_3ops9try_trait12FromResidualIBy_NtNtB7_7convert10InfallibleB1q_EE13from_residualBO_, symObjAddr: 0x10FE8, symBinAddr: 0x64558, symSize: 0x48 }
  - { offset: 0xE2CCF, size: 0x8, addend: 0x0, symName: __RNvXsq_NtCsaNl6UpbT7bw_4core6resultINtB5_6ResultNtNtCsc29TF2YcYso_3syn4data5FieldNtNtBO_5error5ErrorEINtNtNtB7_3ops9try_trait12FromResidualIBy_NtNtB7_7convert10InfallibleB1h_EE13from_residualBO_, symObjAddr: 0x11030, symBinAddr: 0x645A0, symSize: 0x48 }
  - { offset: 0xE2D54, size: 0x8, addend: 0x0, symName: __RNvXsq_NtCsaNl6UpbT7bw_4core6resultINtB5_6ResultNtNtCsc29TF2YcYso_3syn4data7VariantNtNtBO_5error5ErrorEINtNtNtB7_3ops9try_trait12FromResidualIBy_NtNtB7_7convert10InfallibleB1j_EE13from_residualBO_, symObjAddr: 0x11078, symBinAddr: 0x645E8, symSize: 0x48 }
  - { offset: 0xE2DD9, size: 0x8, addend: 0x0, symName: __RNvXsq_NtCsaNl6UpbT7bw_4core6resultINtB5_6ResultNtNtCsc29TF2YcYso_3syn4expr10ExprReturnNtNtBO_5error5ErrorEINtNtNtB7_3ops9try_trait12FromResidualIBy_NtNtB7_7convert10InfallibleB1n_EE13from_residualBO_, symObjAddr: 0x11198, symBinAddr: 0x64630, symSize: 0x48 }
  - { offset: 0xE2E5E, size: 0x8, addend: 0x0, symName: __RNvXsq_NtCsaNl6UpbT7bw_4core6resultINtB5_6ResultNtNtCsc29TF2YcYso_3syn4expr10ExprStructNtNtBO_5error5ErrorEINtNtNtB7_3ops9try_trait12FromResidualIBy_NtNtB7_7convert10InfallibleB1n_EE13from_residualBO_, symObjAddr: 0x111E0, symBinAddr: 0x64678, symSize: 0x48 }
  - { offset: 0xE2EE3, size: 0x8, addend: 0x0, symName: __RNvXsq_NtCsaNl6UpbT7bw_4core6resultINtB5_6ResultNtNtCsc29TF2YcYso_3syn4expr10ExprUnsafeNtNtBO_5error5ErrorEINtNtNtB7_3ops9try_trait12FromResidualIBy_NtNtB7_7convert10InfallibleB1n_EE13from_residualBO_, symObjAddr: 0x11228, symBinAddr: 0x646C0, symSize: 0x48 }
  - { offset: 0xE2F68, size: 0x8, addend: 0x0, symName: __RNvXsq_NtCsaNl6UpbT7bw_4core6resultINtB5_6ResultNtNtCsc29TF2YcYso_3syn4expr10FieldValueNtNtBO_5error5ErrorEINtNtNtB7_3ops9try_trait12FromResidualIBy_NtNtB7_7convert10InfallibleB1n_EE13from_residualBO_, symObjAddr: 0x11270, symBinAddr: 0x64708, symSize: 0x48 }
  - { offset: 0xE2FED, size: 0x8, addend: 0x0, symName: __RNvXsq_NtCsaNl6UpbT7bw_4core6resultINtB5_6ResultNtNtCsc29TF2YcYso_3syn4expr11ExprClosureNtNtBO_5error5ErrorEINtNtNtB7_3ops9try_trait12FromResidualIBy_NtNtB7_7convert10InfallibleB1o_EE13from_residualBO_, symObjAddr: 0x112B8, symBinAddr: 0x64750, symSize: 0x48 }
  - { offset: 0xE3072, size: 0x8, addend: 0x0, symName: __RNvXsq_NtCsaNl6UpbT7bw_4core6resultINtB5_6ResultNtNtCsc29TF2YcYso_3syn4expr11ExprForLoopNtNtBO_5error5ErrorEINtNtNtB7_3ops9try_trait12FromResidualIBy_NtNtB7_7convert10InfallibleB1o_EE13from_residualBO_, symObjAddr: 0x11300, symBinAddr: 0x64798, symSize: 0x48 }
  - { offset: 0xE30F7, size: 0x8, addend: 0x0, symName: __RNvXsq_NtCsaNl6UpbT7bw_4core6resultINtB5_6ResultNtNtCsc29TF2YcYso_3syn4expr11RangeLimitsNtNtBO_5error5ErrorEINtNtNtB7_3ops9try_trait12FromResidualIBy_NtNtB7_7convert10InfallibleB1o_EE13from_residualBO_, symObjAddr: 0x11390, symBinAddr: 0x647E0, symSize: 0x40 }
  - { offset: 0xE317C, size: 0x8, addend: 0x0, symName: __RNvXsq_NtCsaNl6UpbT7bw_4core6resultINtB5_6ResultNtNtCsc29TF2YcYso_3syn4expr12ExprContinueNtNtBO_5error5ErrorEINtNtNtB7_3ops9try_trait12FromResidualIBy_NtNtB7_7convert10InfallibleB1p_EE13from_residualBO_, symObjAddr: 0x113D0, symBinAddr: 0x64820, symSize: 0x48 }
  - { offset: 0xE3201, size: 0x8, addend: 0x0, symName: __RNvXsq_NtCsaNl6UpbT7bw_4core6resultINtB5_6ResultNtNtCsc29TF2YcYso_3syn4expr12ExprTryBlockNtNtBO_5error5ErrorEINtNtNtB7_3ops9try_trait12FromResidualIBy_NtNtB7_7convert10InfallibleB1p_EE13from_residualBO_, symObjAddr: 0x11418, symBinAddr: 0x64868, symSize: 0x48 }
  - { offset: 0xE3286, size: 0x8, addend: 0x0, symName: __RNvXsq_NtCsaNl6UpbT7bw_4core6resultINtB5_6ResultNtNtCsc29TF2YcYso_3syn4expr3ArmNtNtBO_5error5ErrorEINtNtNtB7_3ops9try_trait12FromResidualIBy_NtNtB7_7convert10InfallibleB1f_EE13from_residualBO_, symObjAddr: 0x11530, symBinAddr: 0x648B0, symSize: 0x48 }
  - { offset: 0xE330B, size: 0x8, addend: 0x0, symName: __RNvXsq_NtCsaNl6UpbT7bw_4core6resultINtB5_6ResultNtNtCsc29TF2YcYso_3syn4expr4ExprNtNtBO_5error5ErrorEINtNtNtB7_3ops9try_trait12FromResidualIBy_NtNtB7_7convert10InfallibleB1g_EE13from_residualBO_, symObjAddr: 0x11578, symBinAddr: 0x648F8, symSize: 0x48 }
  - { offset: 0xE3390, size: 0x8, addend: 0x0, symName: __RNvXsq_NtCsaNl6UpbT7bw_4core6resultINtB5_6ResultNtNtCsc29TF2YcYso_3syn4expr5IndexNtNtBO_5error5ErrorEINtNtNtB7_3ops9try_trait12FromResidualIBy_NtNtB7_7convert10InfallibleB1h_EE13from_residualBO_, symObjAddr: 0x115C0, symBinAddr: 0x64940, symSize: 0x40 }
  - { offset: 0xE3415, size: 0x8, addend: 0x0, symName: __RNvXsq_NtCsaNl6UpbT7bw_4core6resultINtB5_6ResultNtNtCsc29TF2YcYso_3syn4expr5IndexNtNtBO_5error5ErrorEINtNtNtB7_3ops9try_trait12FromResidualIBy_NtNtB7_7convert10InfallibleNtCshnvkK9b4wzu_11proc_macro28LexErrorEE13from_residualBO_, symObjAddr: 0x11600, symBinAddr: 0x64980, symSize: 0x44 }
  - { offset: 0xE347C, size: 0x8, addend: 0x0, symName: __RNvXsq_NtCsaNl6UpbT7bw_4core6resultINtB5_6ResultNtNtCsc29TF2YcYso_3syn4expr5LabelNtNtBO_5error5ErrorEINtNtNtB7_3ops9try_trait12FromResidualIBy_NtNtB7_7convert10InfallibleB1h_EE13from_residualBO_, symObjAddr: 0x11644, symBinAddr: 0x649C4, symSize: 0x48 }
  - { offset: 0xE3501, size: 0x8, addend: 0x0, symName: __RNvXsq_NtCsaNl6UpbT7bw_4core6resultINtB5_6ResultNtNtCsc29TF2YcYso_3syn4expr6ExprIfNtNtBO_5error5ErrorEINtNtNtB7_3ops9try_trait12FromResidualIBy_NtNtB7_7convert10InfallibleB1i_EE13from_residualBO_, symObjAddr: 0x1168C, symBinAddr: 0x64A0C, symSize: 0x48 }
  - { offset: 0xE3586, size: 0x8, addend: 0x0, symName: __RNvXsq_NtCsaNl6UpbT7bw_4core6resultINtB5_6ResultNtNtCsc29TF2YcYso_3syn4expr7ExprLetNtNtBO_5error5ErrorEINtNtNtB7_3ops9try_trait12FromResidualIBy_NtNtB7_7convert10InfallibleB1j_EE13from_residualBO_, symObjAddr: 0x116D4, symBinAddr: 0x64A54, symSize: 0x48 }
  - { offset: 0xE360B, size: 0x8, addend: 0x0, symName: __RNvXsq_NtCsaNl6UpbT7bw_4core6resultINtB5_6ResultNtNtCsc29TF2YcYso_3syn4expr7ExprLitNtNtBO_5error5ErrorEINtNtNtB7_3ops9try_trait12FromResidualIBy_NtNtB7_7convert10InfallibleB1j_EE13from_residualBO_, symObjAddr: 0x1171C, symBinAddr: 0x64A9C, symSize: 0x48 }
  - { offset: 0xE3690, size: 0x8, addend: 0x0, symName: __RNvXsq_NtCsaNl6UpbT7bw_4core6resultINtB5_6ResultNtNtCsc29TF2YcYso_3syn4expr8ExprLoopNtNtBO_5error5ErrorEINtNtNtB7_3ops9try_trait12FromResidualIBy_NtNtB7_7convert10InfallibleB1k_EE13from_residualBO_, symObjAddr: 0x1183C, symBinAddr: 0x64AE4, symSize: 0x48 }
  - { offset: 0xE3715, size: 0x8, addend: 0x0, symName: __RNvXsq_NtCsaNl6UpbT7bw_4core6resultINtB5_6ResultNtNtCsc29TF2YcYso_3syn4expr8ExprPathNtNtBO_5error5ErrorEINtNtNtB7_3ops9try_trait12FromResidualIBy_NtNtB7_7convert10InfallibleB1k_EE13from_residualBO_, symObjAddr: 0x11884, symBinAddr: 0x64B2C, symSize: 0x48 }
  - { offset: 0xE379A, size: 0x8, addend: 0x0, symName: __RNvXsq_NtCsaNl6UpbT7bw_4core6resultINtB5_6ResultNtNtCsc29TF2YcYso_3syn4expr9ExprAsyncNtNtBO_5error5ErrorEINtNtNtB7_3ops9try_trait12FromResidualIBy_NtNtB7_7convert10InfallibleB1l_EE13from_residualBO_, symObjAddr: 0x11914, symBinAddr: 0x64B74, symSize: 0x48 }
  - { offset: 0xE381F, size: 0x8, addend: 0x0, symName: __RNvXsq_NtCsaNl6UpbT7bw_4core6resultINtB5_6ResultNtNtCsc29TF2YcYso_3syn4expr9ExprBlockNtNtBO_5error5ErrorEINtNtNtB7_3ops9try_trait12FromResidualIBy_NtNtB7_7convert10InfallibleB1l_EE13from_residualBO_, symObjAddr: 0x119A4, symBinAddr: 0x64BBC, symSize: 0x48 }
  - { offset: 0xE38A4, size: 0x8, addend: 0x0, symName: __RNvXsq_NtCsaNl6UpbT7bw_4core6resultINtB5_6ResultNtNtCsc29TF2YcYso_3syn4expr9ExprBreakNtNtBO_5error5ErrorEINtNtNtB7_3ops9try_trait12FromResidualIBy_NtNtB7_7convert10InfallibleB1l_EE13from_residualBO_, symObjAddr: 0x119EC, symBinAddr: 0x64C04, symSize: 0x48 }
  - { offset: 0xE3929, size: 0x8, addend: 0x0, symName: __RNvXsq_NtCsaNl6UpbT7bw_4core6resultINtB5_6ResultNtNtCsc29TF2YcYso_3syn4expr9ExprConstNtNtBO_5error5ErrorEINtNtNtB7_3ops9try_trait12FromResidualIBy_NtNtB7_7convert10InfallibleB1l_EE13from_residualBO_, symObjAddr: 0x11A34, symBinAddr: 0x64C4C, symSize: 0x48 }
  - { offset: 0xE39AE, size: 0x8, addend: 0x0, symName: __RNvXsq_NtCsaNl6UpbT7bw_4core6resultINtB5_6ResultNtNtCsc29TF2YcYso_3syn4expr9ExprInferNtNtBO_5error5ErrorEINtNtNtB7_3ops9try_trait12FromResidualIBy_NtNtB7_7convert10InfallibleB1l_EE13from_residualBO_, symObjAddr: 0x11B0C, symBinAddr: 0x64C94, symSize: 0x48 }
  - { offset: 0xE3A33, size: 0x8, addend: 0x0, symName: __RNvXsq_NtCsaNl6UpbT7bw_4core6resultINtB5_6ResultNtNtCsc29TF2YcYso_3syn4expr9ExprMatchNtNtBO_5error5ErrorEINtNtNtB7_3ops9try_trait12FromResidualIBy_NtNtB7_7convert10InfallibleB1l_EE13from_residualBO_, symObjAddr: 0x11B9C, symBinAddr: 0x64CDC, symSize: 0x48 }
  - { offset: 0xE3AB8, size: 0x8, addend: 0x0, symName: __RNvXsq_NtCsaNl6UpbT7bw_4core6resultINtB5_6ResultNtNtCsc29TF2YcYso_3syn4expr9ExprRangeNtNtBO_5error5ErrorEINtNtNtB7_3ops9try_trait12FromResidualIBy_NtNtB7_7convert10InfallibleB1l_EE13from_residualBO_, symObjAddr: 0x11C2C, symBinAddr: 0x64D24, symSize: 0x48 }
  - { offset: 0xE3B3D, size: 0x8, addend: 0x0, symName: __RNvXsq_NtCsaNl6UpbT7bw_4core6resultINtB5_6ResultNtNtCsc29TF2YcYso_3syn4expr9ExprUnaryNtNtBO_5error5ErrorEINtNtNtB7_3ops9try_trait12FromResidualIBy_NtNtB7_7convert10InfallibleB1l_EE13from_residualBO_, symObjAddr: 0x11CBC, symBinAddr: 0x64D6C, symSize: 0x48 }
  - { offset: 0xE3BC2, size: 0x8, addend: 0x0, symName: __RNvXsq_NtCsaNl6UpbT7bw_4core6resultINtB5_6ResultNtNtCsc29TF2YcYso_3syn4expr9ExprWhileNtNtBO_5error5ErrorEINtNtNtB7_3ops9try_trait12FromResidualIBy_NtNtB7_7convert10InfallibleB1l_EE13from_residualBO_, symObjAddr: 0x11D04, symBinAddr: 0x64DB4, symSize: 0x48 }
  - { offset: 0xE3C47, size: 0x8, addend: 0x0, symName: __RNvXsq_NtCsaNl6UpbT7bw_4core6resultINtB5_6ResultNtNtCsc29TF2YcYso_3syn4expr9ExprYieldNtNtBO_5error5ErrorEINtNtNtB7_3ops9try_trait12FromResidualIBy_NtNtB7_7convert10InfallibleB1l_EE13from_residualBO_, symObjAddr: 0x11D4C, symBinAddr: 0x64DFC, symSize: 0x48 }
  - { offset: 0xE3CCC, size: 0x8, addend: 0x0, symName: __RNvXsq_NtCsaNl6UpbT7bw_4core6resultINtB5_6ResultNtNtCsc29TF2YcYso_3syn4item10ItemStructNtNtBO_5error5ErrorEINtNtNtB7_3ops9try_trait12FromResidualIBy_NtNtB7_7convert10InfallibleB1n_EE13from_residualBO_, symObjAddr: 0x11E70, symBinAddr: 0x64E44, symSize: 0x48 }
  - { offset: 0xE3D51, size: 0x8, addend: 0x0, symName: __RNvXsq_NtCsaNl6UpbT7bw_4core6resultINtB5_6ResultNtNtCsc29TF2YcYso_3syn4item11ForeignItemNtNtBO_5error5ErrorEINtNtNtB7_3ops9try_trait12FromResidualIBy_NtNtB7_7convert10InfallibleB1o_EE13from_residualBO_, symObjAddr: 0x11EB8, symBinAddr: 0x64E8C, symSize: 0x48 }
  - { offset: 0xE3DD6, size: 0x8, addend: 0x0, symName: __RNvXsq_NtCsaNl6UpbT7bw_4core6resultINtB5_6ResultNtNtCsc29TF2YcYso_3syn4item11TraitItemFnNtNtBO_5error5ErrorEINtNtNtB7_3ops9try_trait12FromResidualIBy_NtNtB7_7convert10InfallibleB1o_EE13from_residualBO_, symObjAddr: 0x11F00, symBinAddr: 0x64ED4, symSize: 0x48 }
  - { offset: 0xE3E5B, size: 0x8, addend: 0x0, symName: __RNvXsq_NtCsaNl6UpbT7bw_4core6resultINtB5_6ResultNtNtCsc29TF2YcYso_3syn4item13ImplItemMacroNtNtBO_5error5ErrorEINtNtNtB7_3ops9try_trait12FromResidualIBy_NtNtB7_7convert10InfallibleB1q_EE13from_residualBO_, symObjAddr: 0x12020, symBinAddr: 0x64F1C, symSize: 0x48 }
  - { offset: 0xE3EE0, size: 0x8, addend: 0x0, symName: __RNvXsq_NtCsaNl6UpbT7bw_4core6resultINtB5_6ResultNtNtCsc29TF2YcYso_3syn4item14ItemForeignModNtNtBO_5error5ErrorEINtNtNtB7_3ops9try_trait12FromResidualIBy_NtNtB7_7convert10InfallibleB1r_EE13from_residualBO_, symObjAddr: 0x120B0, symBinAddr: 0x64F64, symSize: 0x48 }
  - { offset: 0xE3F65, size: 0x8, addend: 0x0, symName: __RNvXsq_NtCsaNl6UpbT7bw_4core6resultINtB5_6ResultNtNtCsc29TF2YcYso_3syn4item14ItemTraitAliasNtNtBO_5error5ErrorEINtNtNtB7_3ops9try_trait12FromResidualIBy_NtNtB7_7convert10InfallibleB1r_EE13from_residualBO_, symObjAddr: 0x120F8, symBinAddr: 0x64FAC, symSize: 0x48 }
  - { offset: 0xE3FEA, size: 0x8, addend: 0x0, symName: __RNvXsq_NtCsaNl6UpbT7bw_4core6resultINtB5_6ResultNtNtCsc29TF2YcYso_3syn4item14TraitItemMacroNtNtBO_5error5ErrorEINtNtNtB7_3ops9try_trait12FromResidualIBy_NtNtB7_7convert10InfallibleB1r_EE13from_residualBO_, symObjAddr: 0x12188, symBinAddr: 0x64FF4, symSize: 0x48 }
  - { offset: 0xE406F, size: 0x8, addend: 0x0, symName: __RNvXsq_NtCsaNl6UpbT7bw_4core6resultINtB5_6ResultNtNtCsc29TF2YcYso_3syn4item15ItemExternCrateNtNtBO_5error5ErrorEINtNtNtB7_3ops9try_trait12FromResidualIBy_NtNtB7_7convert10InfallibleB1s_EE13from_residualBO_, symObjAddr: 0x12218, symBinAddr: 0x6503C, symSize: 0x48 }
  - { offset: 0xE40F4, size: 0x8, addend: 0x0, symName: __RNvXsq_NtCsaNl6UpbT7bw_4core6resultINtB5_6ResultNtNtCsc29TF2YcYso_3syn4item16ForeignItemMacroNtNtBO_5error5ErrorEINtNtNtB7_3ops9try_trait12FromResidualIBy_NtNtB7_7convert10InfallibleB1t_EE13from_residualBO_, symObjAddr: 0x12260, symBinAddr: 0x65084, symSize: 0x48 }
  - { offset: 0xE4179, size: 0x8, addend: 0x0, symName: __RNvXsq_NtCsaNl6UpbT7bw_4core6resultINtB5_6ResultNtNtCsc29TF2YcYso_3syn4item16StaticMutabilityNtNtBO_5error5ErrorEINtNtNtB7_3ops9try_trait12FromResidualIBy_NtNtB7_7convert10InfallibleB1t_EE13from_residualBO_, symObjAddr: 0x122A8, symBinAddr: 0x650CC, symSize: 0x40 }
  - { offset: 0xE41FE, size: 0x8, addend: 0x0, symName: __RNvXsq_NtCsaNl6UpbT7bw_4core6resultINtB5_6ResultNtNtCsc29TF2YcYso_3syn4item4ItemNtNtBO_5error5ErrorEINtNtNtB7_3ops9try_trait12FromResidualIBy_NtNtB7_7convert10InfallibleB1g_EE13from_residualBO_, symObjAddr: 0x12330, symBinAddr: 0x6510C, symSize: 0x48 }
  - { offset: 0xE4283, size: 0x8, addend: 0x0, symName: __RNvXsq_NtCsaNl6UpbT7bw_4core6resultINtB5_6ResultNtNtCsc29TF2YcYso_3syn4item6ItemFnNtNtBO_5error5ErrorEINtNtNtB7_3ops9try_trait12FromResidualIBy_NtNtB7_7convert10InfallibleB1i_EE13from_residualBO_, symObjAddr: 0x123C0, symBinAddr: 0x65154, symSize: 0x48 }
  - { offset: 0xE4308, size: 0x8, addend: 0x0, symName: __RNvXsq_NtCsaNl6UpbT7bw_4core6resultINtB5_6ResultNtNtCsc29TF2YcYso_3syn4item7ItemModNtNtBO_5error5ErrorEINtNtNtB7_3ops9try_trait12FromResidualIBy_NtNtB7_7convert10InfallibleB1j_EE13from_residualBO_, symObjAddr: 0x12408, symBinAddr: 0x6519C, symSize: 0x48 }
  - { offset: 0xE438D, size: 0x8, addend: 0x0, symName: __RNvXsq_NtCsaNl6UpbT7bw_4core6resultINtB5_6ResultNtNtCsc29TF2YcYso_3syn4item8ImplItemNtNtBO_5error5ErrorEINtNtNtB7_3ops9try_trait12FromResidualIBy_NtNtB7_7convert10InfallibleB1k_EE13from_residualBO_, symObjAddr: 0x12450, symBinAddr: 0x651E4, symSize: 0x48 }
  - { offset: 0xE4412, size: 0x8, addend: 0x0, symName: __RNvXsq_NtCsaNl6UpbT7bw_4core6resultINtB5_6ResultNtNtCsc29TF2YcYso_3syn4item8ItemEnumNtNtBO_5error5ErrorEINtNtNtB7_3ops9try_trait12FromResidualIBy_NtNtB7_7convert10InfallibleB1k_EE13from_residualBO_, symObjAddr: 0x12498, symBinAddr: 0x6522C, symSize: 0x48 }
  - { offset: 0xE4497, size: 0x8, addend: 0x0, symName: __RNvXsq_NtCsaNl6UpbT7bw_4core6resultINtB5_6ResultNtNtCsc29TF2YcYso_3syn4item8ReceiverNtNtBO_5error5ErrorEINtNtNtB7_3ops9try_trait12FromResidualIBy_NtNtB7_7convert10InfallibleB1k_EE13from_residualBO_, symObjAddr: 0x12528, symBinAddr: 0x65274, symSize: 0x48 }
  - { offset: 0xE451C, size: 0x8, addend: 0x0, symName: __RNvXsq_NtCsaNl6UpbT7bw_4core6resultINtB5_6ResultNtNtCsc29TF2YcYso_3syn4item9ItemMacroNtNtBO_5error5ErrorEINtNtNtB7_3ops9try_trait12FromResidualIBy_NtNtB7_7convert10InfallibleB1l_EE13from_residualBO_, symObjAddr: 0x125B8, symBinAddr: 0x652BC, symSize: 0x48 }
  - { offset: 0xE45A1, size: 0x8, addend: 0x0, symName: __RNvXsq_NtCsaNl6UpbT7bw_4core6resultINtB5_6ResultNtNtCsc29TF2YcYso_3syn4item9ItemTraitNtNtBO_5error5ErrorEINtNtNtB7_3ops9try_trait12FromResidualIBy_NtNtB7_7convert10InfallibleB1l_EE13from_residualBO_, symObjAddr: 0x12600, symBinAddr: 0x65304, symSize: 0x48 }
  - { offset: 0xE4626, size: 0x8, addend: 0x0, symName: __RNvXsq_NtCsaNl6UpbT7bw_4core6resultINtB5_6ResultNtNtCsc29TF2YcYso_3syn4item9ItemUnionNtNtBO_5error5ErrorEINtNtNtB7_3ops9try_trait12FromResidualIBy_NtNtB7_7convert10InfallibleB1l_EE13from_residualBO_, symObjAddr: 0x12648, symBinAddr: 0x6534C, symSize: 0x48 }
  - { offset: 0xE46AB, size: 0x8, addend: 0x0, symName: __RNvXsq_NtCsaNl6UpbT7bw_4core6resultINtB5_6ResultNtNtCsc29TF2YcYso_3syn4item9TraitItemNtNtBO_5error5ErrorEINtNtNtB7_3ops9try_trait12FromResidualIBy_NtNtB7_7convert10InfallibleB1l_EE13from_residualBO_, symObjAddr: 0x12690, symBinAddr: 0x65394, symSize: 0x48 }
  - { offset: 0xE4730, size: 0x8, addend: 0x0, symName: __RNvXsq_NtCsaNl6UpbT7bw_4core6resultINtB5_6ResultNtNtCsc29TF2YcYso_3syn4path11PathSegmentNtNtBO_5error5ErrorEINtNtNtB7_3ops9try_trait12FromResidualIBy_NtNtB7_7convert10InfallibleB1o_EE13from_residualBO_, symObjAddr: 0x126D8, symBinAddr: 0x653DC, symSize: 0x4C }
  - { offset: 0xE47B5, size: 0x8, addend: 0x0, symName: __RNvXsq_NtCsaNl6UpbT7bw_4core6resultINtB5_6ResultNtNtCsc29TF2YcYso_3syn4path15GenericArgumentNtNtBO_5error5ErrorEINtNtNtB7_3ops9try_trait12FromResidualIBy_NtNtB7_7convert10InfallibleB1s_EE13from_residualBO_, symObjAddr: 0x12724, symBinAddr: 0x65428, symSize: 0x48 }
  - { offset: 0xE483A, size: 0x8, addend: 0x0, symName: __RNvXsq_NtCsaNl6UpbT7bw_4core6resultINtB5_6ResultNtNtCsc29TF2YcYso_3syn4path29ParenthesizedGenericArgumentsNtNtBO_5error5ErrorEINtNtNtB7_3ops9try_trait12FromResidualIBy_NtNtB7_7convert10InfallibleB1G_EE13from_residualBO_, symObjAddr: 0x1276C, symBinAddr: 0x65470, symSize: 0x48 }
  - { offset: 0xE48BF, size: 0x8, addend: 0x0, symName: __RNvXsq_NtCsaNl6UpbT7bw_4core6resultINtB5_6ResultNtNtCsc29TF2YcYso_3syn4path30AngleBracketedGenericArgumentsNtNtBO_5error5ErrorEINtNtNtB7_3ops9try_trait12FromResidualIBy_NtNtB7_7convert10InfallibleB1H_EE13from_residualBO_, symObjAddr: 0x127B4, symBinAddr: 0x654B8, symSize: 0x48 }
  - { offset: 0xE4944, size: 0x8, addend: 0x0, symName: __RNvXsq_NtCsaNl6UpbT7bw_4core6resultINtB5_6ResultNtNtCsc29TF2YcYso_3syn4path4PathNtNtBO_5error5ErrorEINtNtNtB7_3ops9try_trait12FromResidualIBy_NtNtB7_7convert10InfallibleB1g_EE13from_residualBO_, symObjAddr: 0x127FC, symBinAddr: 0x65500, symSize: 0x48 }
  - { offset: 0xE49C9, size: 0x8, addend: 0x0, symName: __RNvXsq_NtCsaNl6UpbT7bw_4core6resultINtB5_6ResultNtNtCsc29TF2YcYso_3syn4stmt4StmtNtNtBO_5error5ErrorEINtNtNtB7_3ops9try_trait12FromResidualIBy_NtNtB7_7convert10InfallibleB1g_EE13from_residualBO_, symObjAddr: 0x12844, symBinAddr: 0x65548, symSize: 0x48 }
  - { offset: 0xE4A4E, size: 0x8, addend: 0x0, symName: __RNvXsq_NtCsaNl6UpbT7bw_4core6resultINtB5_6ResultNtNtCsc29TF2YcYso_3syn4stmt5BlockNtNtBO_5error5ErrorEINtNtNtB7_3ops9try_trait12FromResidualIBy_NtNtB7_7convert10InfallibleB1h_EE13from_residualBO_, symObjAddr: 0x1288C, symBinAddr: 0x65590, symSize: 0x48 }
  - { offset: 0xE4AD3, size: 0x8, addend: 0x0, symName: __RNvXsq_NtCsaNl6UpbT7bw_4core6resultINtB5_6ResultNtNtCsc29TF2YcYso_3syn4stmt5LocalNtNtBO_5error5ErrorEINtNtNtB7_3ops9try_trait12FromResidualIBy_NtNtB7_7convert10InfallibleB1h_EE13from_residualBO_, symObjAddr: 0x128D4, symBinAddr: 0x655D8, symSize: 0x48 }
  - { offset: 0xE4B58, size: 0x8, addend: 0x0, symName: __RNvXsq_NtCsaNl6UpbT7bw_4core6resultINtB5_6ResultNtNtCsc29TF2YcYso_3syn4stmt9StmtMacroNtNtBO_5error5ErrorEINtNtNtB7_3ops9try_trait12FromResidualIBy_NtNtB7_7convert10InfallibleB1l_EE13from_residualBO_, symObjAddr: 0x1291C, symBinAddr: 0x65620, symSize: 0x48 }
  - { offset: 0xE4BDD, size: 0x8, addend: 0x0, symName: __RNvXsq_NtCsaNl6UpbT7bw_4core6resultINtB5_6ResultNtNtCsc29TF2YcYso_3syn5token10UnderscoreNtNtBO_5error5ErrorEINtNtNtB7_3ops9try_trait12FromResidualIBy_NtNtB7_7convert10InfallibleB1o_EE13from_residualBO_, symObjAddr: 0x12964, symBinAddr: 0x65668, symSize: 0x40 }
  - { offset: 0xE4C62, size: 0x8, addend: 0x0, symName: __RNvXsq_NtCsaNl6UpbT7bw_4core6resultINtB5_6ResultNtNtCsc29TF2YcYso_3syn5token2AsNtNtBO_5error5ErrorEINtNtNtB7_3ops9try_trait12FromResidualIBy_NtNtB7_7convert10InfallibleB1f_EE13from_residualBO_, symObjAddr: 0x129A4, symBinAddr: 0x656A8, symSize: 0x40 }
  - { offset: 0xE4CE7, size: 0x8, addend: 0x0, symName: __RNvXsq_NtCsaNl6UpbT7bw_4core6resultINtB5_6ResultNtNtCsc29TF2YcYso_3syn5token2AtNtNtBO_5error5ErrorEINtNtNtB7_3ops9try_trait12FromResidualIBy_NtNtB7_7convert10InfallibleB1f_EE13from_residualBO_, symObjAddr: 0x129E4, symBinAddr: 0x656E8, symSize: 0x40 }
