---
triple:          'arm64-apple-darwin'
binary-path:     '/Users/tyler/fall25/cse380/final_project/final_project_sqlite/target/debug/deps/libdisplaydoc-dab86909339945c1.dylib'
relocations:
  - { offset: 0x1E, size: 0x8, addend: 0x0, symName: __RINvNtCs4EAaWzSXu1l_5quote9___private8get_spanNtCshnvkK9b4wzu_11proc_macro24SpanECs2KWZukAWMkS_10displaydoc, symObjAddr: 0x0, symBinAddr: 0xC50, symSize: 0x20 }
  - { offset: 0x53C, size: 0x8, addend: 0x0, symName: __RNvXs1e_Cs7yrEGia95Wz_10proc_macroNtB6_5IdentNtNtCsaNl6UpbT7bw_4core5clone5Clone5cloneCs2KWZukAWMkS_10displaydoc, symObjAddr: 0x1620, symBinAddr: 0x2270, symSize: 0x40 }
  - { offset: 0x570, size: 0x8, addend: 0x0, symName: __RNvXsU_Cs7yrEGia95Wz_10proc_macroNtB5_11TokenStreamNtNtCsaNl6UpbT7bw_4core5clone5Clone5cloneCs2KWZukAWMkS_10displaydoc, symObjAddr: 0x27E4, symBinAddr: 0x3434, symSize: 0x64 }
  - { offset: 0x8D9, size: 0x8, addend: 0x0, symName: __RINvXsa_NtCshnvkK9b4wzu_11proc_macro28fallbackNtB6_11TokenStreamINtNtNtNtCsaNl6UpbT7bw_4core4iter6traits7collect6ExtendNtB8_9TokenTreeE6extendNtB8_11TokenStreamECs2KWZukAWMkS_10displaydoc, symObjAddr: 0x318, symBinAddr: 0xF68, symSize: 0xC0 }
  - { offset: 0x93F, size: 0x8, addend: 0x0, symName: __RNCINvXsa_NtCshnvkK9b4wzu_11proc_macro28fallbackNtB8_11TokenStreamINtNtNtNtCsaNl6UpbT7bw_4core4iter6traits7collect6ExtendNtBa_9TokenTreeE6extendNtBa_11TokenStreamE0Cs2KWZukAWMkS_10displaydoc, symObjAddr: 0x7D0, symBinAddr: 0x1420, symSize: 0xAC }
  - { offset: 0x98C, size: 0x8, addend: 0x0, symName: __RNvXsA_NtCshnvkK9b4wzu_11proc_macro28fallbackNtB5_5IdentNtNtCsaNl6UpbT7bw_4core5clone5Clone5cloneCs2KWZukAWMkS_10displaydoc, symObjAddr: 0x22A0, symBinAddr: 0x2EF0, symSize: 0x94 }
  - { offset: 0x9C0, size: 0x8, addend: 0x0, symName: __RNvXss_NtCshnvkK9b4wzu_11proc_macro28fallbackNtB5_11TokenStreamNtNtCsaNl6UpbT7bw_4core5clone5Clone5cloneCs2KWZukAWMkS_10displaydoc, symObjAddr: 0x2890, symBinAddr: 0x34E0, symSize: 0x24 }
  - { offset: 0x9F2, size: 0x8, addend: 0x0, symName: __RNvXsu_NtCshnvkK9b4wzu_11proc_macro28fallbackNtB5_4SpanNtNtCsaNl6UpbT7bw_4core5clone5Clone5cloneCs2KWZukAWMkS_10displaydoc, symObjAddr: 0x290C, symBinAddr: 0x355C, symSize: 0x10 }
  - { offset: 0xA3D, size: 0x8, addend: 0x0, symName: __RNvXs1_NtCshnvkK9b4wzu_11proc_macro26markerNtB5_19ProcMacroAutoTraitsNtNtCsaNl6UpbT7bw_4core5clone5Clone5cloneCs2KWZukAWMkS_10displaydoc, symObjAddr: 0x14D8, symBinAddr: 0x2128, symSize: 0x10 }
  - { offset: 0x4257, size: 0x8, addend: 0x0, symName: __RNvXs1_NtNtNtCsaNl6UpbT7bw_4core4iter8adapters7flattenINtB5_7FlatMapINtNtCsc29TF2YcYso_3syn10punctuated4IterNtNtB19_8generics14TypeParamBoundEINtNtBb_6option6OptionRNtB1K_10TraitBoundENCNCNvNtCs2KWZukAWMkS_10displaydoc6expand37extract_trait_constraints_from_source00ENtNtNtB9_6traits8iterator8Iterator4nextB34_, symObjAddr: 0x15B4, symBinAddr: 0x2204, symSize: 0x24 }
  - { offset: 0x429E, size: 0x8, addend: 0x0, symName: __RNvXs1_NtNtNtCsaNl6UpbT7bw_4core4iter8adapters7flattenINtB5_7FlatMapINtNtCsc29TF2YcYso_3syn10punctuated4IterNtNtB19_8generics14TypeParamBoundEINtNtBb_6option6OptionRNtB1K_10TraitBoundENCNCNvNtCs2KWZukAWMkS_10displaydoc6expand37extract_trait_constraints_from_source00ENtNtNtB9_6traits8iterator8Iterator9size_hintB34_, symObjAddr: 0x15D8, symBinAddr: 0x2228, symSize: 0x24 }
  - { offset: 0x42E5, size: 0x8, addend: 0x0, symName: __RNvXs1_NtNtNtCsaNl6UpbT7bw_4core4iter8adapters7flattenINtB5_7FlatMapINtNtCsc29TF2YcYso_3syn10punctuated7IterMutNtNtB19_8generics14WherePredicateEINtNtBb_6option6OptionQNtB1N_13PredicateTypeENCNvNtCs2KWZukAWMkS_10displaydoc6expand39ensure_display_in_where_clause_for_type0ENtNtNtB9_6traits8iterator8Iterator4nextB38_, symObjAddr: 0x15FC, symBinAddr: 0x224C, symSize: 0x24 }
  - { offset: 0x4332, size: 0x8, addend: 0x0, symName: __RNvXsI_NtNtNtCsaNl6UpbT7bw_4core4iter8adapters7flattenINtB5_13FlattenCompatINtNtB7_3map3MapINtNtCsc29TF2YcYso_3syn10punctuated4IterNtNtB1w_8generics14TypeParamBoundENCNCNvNtCs2KWZukAWMkS_10displaydoc6expand37extract_trait_constraints_from_source00EINtNtBb_6option8IntoIterRNtB27_10TraitBoundEENtNtNtB9_6traits8iterator8Iterator4nextB2L_, symObjAddr: 0x2414, symBinAddr: 0x3064, symSize: 0xC8 }
  - { offset: 0x43BC, size: 0x8, addend: 0x0, symName: __RNvXsI_NtNtNtCsaNl6UpbT7bw_4core4iter8adapters7flattenINtB5_13FlattenCompatINtNtB7_3map3MapINtNtCsc29TF2YcYso_3syn10punctuated4IterNtNtB1w_8generics14TypeParamBoundENCNCNvNtCs2KWZukAWMkS_10displaydoc6expand37extract_trait_constraints_from_source00EINtNtBb_6option8IntoIterRNtB27_10TraitBoundEENtNtNtB9_6traits8iterator8Iterator9size_hintB2L_, symObjAddr: 0x24DC, symBinAddr: 0x312C, symSize: 0x144 }
  - { offset: 0x445E, size: 0x8, addend: 0x0, symName: __RNvXsI_NtNtNtCsaNl6UpbT7bw_4core4iter8adapters7flattenINtB5_13FlattenCompatINtNtB7_3map3MapINtNtCsc29TF2YcYso_3syn10punctuated7IterMutNtNtB1w_8generics14WherePredicateENCNvNtCs2KWZukAWMkS_10displaydoc6expand39ensure_display_in_where_clause_for_type0EINtNtBb_6option8IntoIterQNtB2a_13PredicateTypeEENtNtNtB9_6traits8iterator8Iterator4nextB2M_, symObjAddr: 0x2620, symBinAddr: 0x3270, symSize: 0xC8 }
  - { offset: 0x4659, size: 0x8, addend: 0x0, symName: __RINvYINtNtNtNtCsaNl6UpbT7bw_4core4iter8adapters7flatten7FlatMapINtNtCsc29TF2YcYso_3syn10punctuated4IterNtNtB14_8generics14TypeParamBoundEINtNtBc_6option6OptionRNtB1F_10TraitBoundENCNCNvNtCs2KWZukAWMkS_10displaydoc6expand37extract_trait_constraints_from_source00ENtNtNtBa_6traits8iterator8Iterator6clonedB2y_EB2Z_, symObjAddr: 0x3D8, symBinAddr: 0x1028, symSize: 0x30 }
  - { offset: 0x46AF, size: 0x8, addend: 0x0, symName: __RINvYINtNtNtNtCsht3nMU9UgFu_3std11collections4hash3map7IterMutNtCshnvkK9b4wzu_11proc_macro25IdentINtNtCsiTraAjBDcu4_5alloc3vec3VecNtNtCsc29TF2YcYso_3syn8generics10TraitBoundEENtNtNtNtCsaNl6UpbT7bw_4core4iter6traits8iterator8Iterator4findNCNvNtCs2KWZukAWMkS_10displaydoc6expand37extract_trait_constraints_from_sources_0EB3T_, symObjAddr: 0x408, symBinAddr: 0x1058, symSize: 0x8C }
  - { offset: 0x472A, size: 0x8, addend: 0x0, symName: __RINvYINtNtNtNtCsht3nMU9UgFu_3std11collections4hash3map7IterMutNtCshnvkK9b4wzu_11proc_macro25IdentINtNtCsiTraAjBDcu4_5alloc3vec3VecNtNtCsc29TF2YcYso_3syn8generics10TraitBoundEENtNtNtNtCsaNl6UpbT7bw_4core4iter6traits8iterator8Iterator8try_folduNCINvNvB2N_4find5checkTRBY_QB1x_ENCNvNtCs2KWZukAWMkS_10displaydoc6expand37extract_trait_constraints_from_sources_0E0INtNtNtB2V_3ops12control_flow11ControlFlowB4e_EEB4v_, symObjAddr: 0x494, symBinAddr: 0x10E4, symSize: 0x194 }
  - { offset: 0x47E0, size: 0x8, addend: 0x0, symName: __RINvYNtNtCsc29TF2YcYso_3syn8generics10TypeParamsNtNtNtNtCsaNl6UpbT7bw_4core4iter6traits8iterator8Iterator7collectINtNtCsiTraAjBDcu4_5alloc3vec3VecRNtB5_9TypeParamEECs2KWZukAWMkS_10displaydoc, symObjAddr: 0x628, symBinAddr: 0x1278, symSize: 0x60 }
  - { offset: 0x4875, size: 0x8, addend: 0x0, symName: __RINvYNtNtNtCsaNl6UpbT7bw_4core3str4iter5LinesNtNtNtNtB9_4iter6traits8iterator8Iterator3mapReNCNvMs0_NtCs2KWZukAWMkS_10displaydoc4attrNtB1A_11AttrsHelper7displays0_0EB1C_, symObjAddr: 0x688, symBinAddr: 0x12D8, symSize: 0x30 }
  - { offset: 0x48FD, size: 0x8, addend: 0x0, symName: __RNvYNtNtCsc29TF2YcYso_3syn8generics10TypeParamsNtNtNtNtCsaNl6UpbT7bw_4core4iter6traits8iterator8Iterator9size_hintCs2KWZukAWMkS_10displaydoc, symObjAddr: 0x2990, symBinAddr: 0x35E0, symSize: 0x34 }
  - { offset: 0x4962, size: 0x8, addend: 0x0, symName: __RNCINvXsK_NtNtNtCsaNl6UpbT7bw_4core4iter6traits5accumjNtB8_3Sum3sumINtNtNtBc_8adapters3map3MapINtNtNtBe_5slice4iter4IterNtNtCsc29TF2YcYso_3syn4attr9AttributeENCINvNvXs1_NtB18_6filterINtB2H_6FilterppENtNtBa_8iterator8Iterator5count8to_usizeRB1U_NCNvMs0_NtCs2KWZukAWMkS_10displaydoc4attrNtB42_11AttrsHelper7displays_0E0EE0B44_, symObjAddr: 0x788, symBinAddr: 0x13D8, symSize: 0x48 }
  - { offset: 0x49C3, size: 0x8, addend: 0x0, symName: __RNvXNtNtNtCsaNl6UpbT7bw_4core4iter6traits7collectINtNtNtB6_8adapters7flatten7FlatMapINtNtCsc29TF2YcYso_3syn10punctuated7IterMutNtNtB1p_8generics14WherePredicateEINtNtB8_6option6OptionQNtB23_13PredicateTypeENCNvNtCs2KWZukAWMkS_10displaydoc6expand39ensure_display_in_where_clause_for_type0ENtB2_12IntoIterator9into_iterB3o_, symObjAddr: 0x145C, symBinAddr: 0x20AC, symSize: 0x30 }
  - { offset: 0x49FB, size: 0x8, addend: 0x0, symName: __RNvXNtNtNtCsaNl6UpbT7bw_4core4iter6traits7collectINtNtNtNtCsht3nMU9UgFu_3std11collections4hash3map8IntoIterNtCshnvkK9b4wzu_11proc_macro25IdentINtNtCsiTraAjBDcu4_5alloc3vec3VecNtNtCsc29TF2YcYso_3syn8generics10TraitBoundEENtB2_12IntoIterator9into_iterCs2KWZukAWMkS_10displaydoc, symObjAddr: 0x148C, symBinAddr: 0x20DC, symSize: 0x30 }
  - { offset: 0x4A33, size: 0x8, addend: 0x0, symName: __RNvXNtNtNtCsaNl6UpbT7bw_4core4iter6traits7collectNtNtCsc29TF2YcYso_3syn8generics10TypeParamsNtB2_12IntoIterator9into_iterCs2KWZukAWMkS_10displaydoc, symObjAddr: 0x14BC, symBinAddr: 0x210C, symSize: 0x1C }
  - { offset: 0x4C66, size: 0x8, addend: 0x0, symName: __RNvMNtCsaNl6UpbT7bw_4core5sliceSRNtNtCsc29TF2YcYso_3syn8generics9TypeParam4iterCs2KWZukAWMkS_10displaydoc, symObjAddr: 0x87C, symBinAddr: 0x14CC, symSize: 0x28 }
  - { offset: 0x4C9D, size: 0x8, addend: 0x0, symName: __RNvMNtCsaNl6UpbT7bw_4core5sliceSTNtNtCsc29TF2YcYso_3syn8generics14WherePredicateNtNtBz_5token5CommaE8iter_mutCs2KWZukAWMkS_10displaydoc, symObjAddr: 0x8A4, symBinAddr: 0x14F4, symSize: 0x28 }
  - { offset: 0x5500, size: 0x8, addend: 0x0, symName: __RNvXNtNtCsaNl6UpbT7bw_4core3str4iterNtB2_5CharsNtNtNtNtB6_4iter6traits8iterator8Iterator4nextCs2KWZukAWMkS_10displaydoc, symObjAddr: 0x13DC, symBinAddr: 0x202C, symSize: 0x80 }
  - { offset: 0x55CE, size: 0x8, addend: 0x0, symName: __RNvXs3_NtNtCsaNl6UpbT7bw_4core3str4iterNtB5_11CharIndicesNtNtNtNtB9_4iter6traits8iterator8Iterator4nextCs2KWZukAWMkS_10displaydoc, symObjAddr: 0x1660, symBinAddr: 0x22B0, symSize: 0x130 }
  - { offset: 0x5807, size: 0x8, addend: 0x0, symName: __RNvXs4_NtNtCsaNl6UpbT7bw_4core3str4iterNtB5_11CharIndicesNtNtNtNtB9_4iter6traits12double_ended19DoubleEndedIterator9next_backCs2KWZukAWMkS_10displaydoc, symObjAddr: 0x1AEC, symBinAddr: 0x273C, symSize: 0x14C }
  - { offset: 0x595A, size: 0x8, addend: 0x0, symName: __RNvXsH_NtNtCsaNl6UpbT7bw_4core3str4iterINtB5_14SplitInclusivecENtNtNtNtB9_4iter6traits8iterator8Iterator4nextCs2KWZukAWMkS_10displaydoc, symObjAddr: 0x23F0, symBinAddr: 0x3040, symSize: 0x24 }
  - { offset: 0x5997, size: 0x8, addend: 0x0, symName: __RNvXss_NtNtCsaNl6UpbT7bw_4core3str4iterNtB5_5LinesNtNtNtNtB9_4iter6traits8iterator8Iterator4nextCs2KWZukAWMkS_10displaydoc, symObjAddr: 0x28B4, symBinAddr: 0x3504, symSize: 0x24 }
  - { offset: 0x59C5, size: 0x8, addend: 0x0, symName: __RNvXss_NtNtCsaNl6UpbT7bw_4core3str4iterNtB5_5LinesNtNtNtNtB9_4iter6traits8iterator8Iterator9size_hintCs2KWZukAWMkS_10displaydoc, symObjAddr: 0x28D8, symBinAddr: 0x3528, symSize: 0x34 }
  - { offset: 0x5A9B, size: 0x8, addend: 0x0, symName: __RNvXs3_NtNtCsaNl6UpbT7bw_4core3str7patternNvMNtNtB9_4char7methodsc13is_whitespaceNtB5_11MultiCharEq7matchesCs2KWZukAWMkS_10displaydoc, symObjAddr: 0x1790, symBinAddr: 0x23E0, symSize: 0x28 }
  - { offset: 0x5AE7, size: 0x8, addend: 0x0, symName: __RNvXsr_NtNtCsaNl6UpbT7bw_4core3str7patternNvMNtNtB9_4char7methodsc13is_whitespaceNtB5_7Pattern13into_searcherCs2KWZukAWMkS_10displaydoc, symObjAddr: 0x2848, symBinAddr: 0x3498, symSize: 0x48 }
  - { offset: 0x5C25, size: 0x8, addend: 0x0, symName: __RNvMNtNtCsaNl6UpbT7bw_4core4char7methodsc13is_whitespaceCs2KWZukAWMkS_10displaydoc, symObjAddr: 0x8EC, symBinAddr: 0x153C, symSize: 0x90 }
  - { offset: 0x5D10, size: 0x8, addend: 0x0, symName: __RNvNtNtCsaNl6UpbT7bw_4core4char7methods15encode_utf8_rawCs2KWZukAWMkS_10displaydoc, symObjAddr: 0xF40, symBinAddr: 0x1B90, symSize: 0x110 }
  - { offset: 0x5E10, size: 0x8, addend: 0x0, symName: __RNvNtNtCsaNl6UpbT7bw_4core4char7methods25encode_utf8_raw_uncheckedCs2KWZukAWMkS_10displaydoc, symObjAddr: 0x1050, symBinAddr: 0x1CA0, symSize: 0x14C }
  - { offset: 0x60B1, size: 0x8, addend: 0x0, symName: __RNvNtNtCsaNl6UpbT7bw_4core4hash3sip9u8to64_leCs2KWZukAWMkS_10displaydoc, symObjAddr: 0x119C, symBinAddr: 0x1DEC, symSize: 0x240 }
  - { offset: 0x626E, size: 0x8, addend: 0x0, symName: __RNvXs3_NtNtCsaNl6UpbT7bw_4core4hash3sipINtB5_6HasherNtB5_11Sip13RoundsENtB7_6Hasher5writeCs2KWZukAWMkS_10displaydoc, symObjAddr: 0x17B8, symBinAddr: 0x2408, symSize: 0x238 }
  - { offset: 0x63E4, size: 0x8, addend: 0x0, symName: __RNvXs3_NtNtCsaNl6UpbT7bw_4core4hash3sipINtB5_6HasherNtB5_11Sip13RoundsENtB7_6Hasher6finishCs2KWZukAWMkS_10displaydoc, symObjAddr: 0x19F0, symBinAddr: 0x2640, symSize: 0xA0 }
  - { offset: 0x6457, size: 0x8, addend: 0x0, symName: __RNvXs3_NtNtCsaNl6UpbT7bw_4core4hash3sipINtB5_6HasherNtB5_11Sip13RoundsENtB7_6Hasher9write_strCs2KWZukAWMkS_10displaydoc, symObjAddr: 0x1A90, symBinAddr: 0x26E0, symSize: 0x5C }
  - { offset: 0x64BD, size: 0x8, addend: 0x0, symName: __RNvXs6_NtNtCsaNl6UpbT7bw_4core4hash3sipNtB5_11Sip13RoundsNtB5_3Sip8c_roundsCs2KWZukAWMkS_10displaydoc, symObjAddr: 0x1CEC, symBinAddr: 0x293C, symSize: 0x170 }
  - { offset: 0x6633, size: 0x8, addend: 0x0, symName: __RNvXs6_NtNtCsaNl6UpbT7bw_4core4hash3sipNtB5_11Sip13RoundsNtB5_3Sip8d_roundsCs2KWZukAWMkS_10displaydoc, symObjAddr: 0x1E5C, symBinAddr: 0x2AAC, symSize: 0x408 }
  - { offset: 0x6B56, size: 0x8, addend: 0x0, symName: __RNCNCNvNtCs2KWZukAWMkS_10displaydoc6expand37extract_trait_constraints_from_source00B7_, symObjAddr: 0x4C00, symBinAddr: 0x5850, symSize: 0x80 }
  - { offset: 0x6BAA, size: 0x8, addend: 0x0, symName: __RNCNvNtCs2KWZukAWMkS_10displaydoc6expand37extract_trait_constraints_from_source0B5_, symObjAddr: 0x4B14, symBinAddr: 0x5764, symSize: 0xEC }
  - { offset: 0x6BF5, size: 0x8, addend: 0x0, symName: __RNCNvNtCs2KWZukAWMkS_10displaydoc6expand37extract_trait_constraints_from_sources_0B5_, symObjAddr: 0x4C80, symBinAddr: 0x58D0, symSize: 0x50 }
  - { offset: 0x6C66, size: 0x8, addend: 0x0, symName: __RNCNvNtCs2KWZukAWMkS_10displaydoc6expand39ensure_display_in_where_clause_for_type0B5_, symObjAddr: 0x4FD4, symBinAddr: 0x5C24, symSize: 0x74 }
  - { offset: 0x6CBE, size: 0x8, addend: 0x0, symName: __RNvNtCs2KWZukAWMkS_10displaydoc6expand6derive, symObjAddr: 0x29C4, symBinAddr: 0x3614, symSize: 0x47C }
  - { offset: 0x6DE3, size: 0x8, addend: 0x0, symName: __RNvNtCs2KWZukAWMkS_10displaydoc6expand14specialization, symObjAddr: 0x2E40, symBinAddr: 0x3A90, symSize: 0x24 }
  - { offset: 0x6E00, size: 0x8, addend: 0x0, symName: __RNvNtCs2KWZukAWMkS_10displaydoc6expand11impl_struct, symObjAddr: 0x2E64, symBinAddr: 0x3AB4, symSize: 0x294 }
  - { offset: 0x6F08, size: 0x8, addend: 0x0, symName: __RNCNvNtCs2KWZukAWMkS_10displaydoc6expand11impl_struct0B5_, symObjAddr: 0x30F8, symBinAddr: 0x3D48, symSize: 0xB50 }
  - { offset: 0x721F, size: 0x8, addend: 0x0, symName: __RNCNCNvNtCs2KWZukAWMkS_10displaydoc6expand11impl_struct00B7_, symObjAddr: 0x3C48, symBinAddr: 0x4898, symSize: 0x28 }
  - { offset: 0x7255, size: 0x8, addend: 0x0, symName: __RNCNCNvNtCs2KWZukAWMkS_10displaydoc6expand11impl_struct0s_0B7_, symObjAddr: 0x3C70, symBinAddr: 0x48C0, symSize: 0x11C }
  - { offset: 0x72EB, size: 0x8, addend: 0x0, symName: __RNvNtCs2KWZukAWMkS_10displaydoc6expand30new_empty_where_type_predicate, symObjAddr: 0x3D8C, symBinAddr: 0x49DC, symSize: 0x248 }
  - { offset: 0x732D, size: 0x8, addend: 0x0, symName: __RNvNtCs2KWZukAWMkS_10displaydoc6expand22new_empty_where_clause, symObjAddr: 0x3FD4, symBinAddr: 0x4C24, symSize: 0x58 }
  - { offset: 0x734A, size: 0x8, addend: 0x0, symName: __RNvNtCs2KWZukAWMkS_10displaydoc6expand10join_paths, symObjAddr: 0x402C, symBinAddr: 0x4C7C, symSize: 0x3FC }
  - { offset: 0x73EC, size: 0x8, addend: 0x0, symName: __RNvNtCs2KWZukAWMkS_10displaydoc6expand34append_where_clause_type_predicate, symObjAddr: 0x4428, symBinAddr: 0x5078, symSize: 0x12C }
  - { offset: 0x7423, size: 0x8, addend: 0x0, symName: __RNvNtCs2KWZukAWMkS_10displaydoc6expand40add_display_constraint_to_type_predicate, symObjAddr: 0x4554, symBinAddr: 0x51A4, symSize: 0x1C0 }
  - { offset: 0x7477, size: 0x8, addend: 0x0, symName: __RNvNtCs2KWZukAWMkS_10displaydoc6expand37extract_trait_constraints_from_source, symObjAddr: 0x4714, symBinAddr: 0x5364, symSize: 0x400 }
  - { offset: 0x75AB, size: 0x8, addend: 0x0, symName: __RNvNtCs2KWZukAWMkS_10displaydoc6expand39ensure_display_in_where_clause_for_type, symObjAddr: 0x4CD0, symBinAddr: 0x5920, symSize: 0x304 }
  - { offset: 0x766F, size: 0x8, addend: 0x0, symName: __RNvNtCs2KWZukAWMkS_10displaydoc6expand61ensure_where_clause_has_display_for_all_unconstrained_members, symObjAddr: 0x5048, symBinAddr: 0x5C98, symSize: 0x1F4 }
  - { offset: 0x76FD, size: 0x8, addend: 0x0, symName: __RNvNtCs2KWZukAWMkS_10displaydoc6expand21generate_where_clause, symObjAddr: 0x523C, symBinAddr: 0x5E8C, symSize: 0x138 }
  - { offset: 0x7767, size: 0x8, addend: 0x0, symName: __RNvNtCs2KWZukAWMkS_10displaydoc6expand9impl_enum, symObjAddr: 0x5374, symBinAddr: 0x5FC4, symSize: 0xEE8 }
  - { offset: 0x7A5D, size: 0x8, addend: 0x0, symName: __RNCNvNtCs2KWZukAWMkS_10displaydoc6expand9impl_enum0B5_, symObjAddr: 0x625C, symBinAddr: 0x6EAC, symSize: 0x84 }
  - { offset: 0x7AB1, size: 0x8, addend: 0x0, symName: __RNCNvNtCs2KWZukAWMkS_10displaydoc6expand9impl_enums_0B5_, symObjAddr: 0x62E0, symBinAddr: 0x6F30, symSize: 0x8AC }
  - { offset: 0x7DD8, size: 0x8, addend: 0x0, symName: __RNCNCNvNtCs2KWZukAWMkS_10displaydoc6expand9impl_enums_00B7_, symObjAddr: 0x6B8C, symBinAddr: 0x77DC, symSize: 0x48 }
  - { offset: 0x7E08, size: 0x8, addend: 0x0, symName: __RNCNCNvNtCs2KWZukAWMkS_10displaydoc6expand9impl_enums_0s_0B7_, symObjAddr: 0x6BD4, symBinAddr: 0x7824, symSize: 0x28 }
  - { offset: 0x7E41, size: 0x8, addend: 0x0, symName: __RNCNCNvNtCs2KWZukAWMkS_10displaydoc6expand9impl_enums_0s0_0B7_, symObjAddr: 0x6BFC, symBinAddr: 0x784C, symSize: 0x11C }
  - { offset: 0x7F73, size: 0x8, addend: 0x0, symName: __RINvNtCs4EAaWzSXu1l_5quote9___private8get_spanNtCshnvkK9b4wzu_11proc_macro24SpanECs2KWZukAWMkS_10displaydoc, symObjAddr: 0x0, symBinAddr: 0xC50, symSize: 0x20 }
  - { offset: 0x805F, size: 0x8, addend: 0x0, symName: __RNvXs5_NtCs4EAaWzSXu1l_5quote9___privateINtB5_9RepInterpNtCshnvkK9b4wzu_11proc_macro25IdentENtNtB7_9to_tokens8ToTokens9to_tokensCs2KWZukAWMkS_10displaydoc, symObjAddr: 0x1C38, symBinAddr: 0x2888, symSize: 0x3C }
  - { offset: 0x809E, size: 0x8, addend: 0x0, symName: __RNvXs5_NtCs4EAaWzSXu1l_5quote9___privateINtB5_9RepInterpRINtNtCsaNl6UpbT7bw_4core6option6OptionNtCshnvkK9b4wzu_11proc_macro25IdentEENtNtB7_9to_tokens8ToTokens9to_tokensCs2KWZukAWMkS_10displaydoc, symObjAddr: 0x1C74, symBinAddr: 0x28C4, symSize: 0x3C }
  - { offset: 0x80DD, size: 0x8, addend: 0x0, symName: __RNvXs5_NtCs4EAaWzSXu1l_5quote9___privateINtB5_9RepInterpRNtCshnvkK9b4wzu_11proc_macro211TokenStreamENtNtB7_9to_tokens8ToTokens9to_tokensCs2KWZukAWMkS_10displaydoc, symObjAddr: 0x1CB0, symBinAddr: 0x2900, symSize: 0x3C }
  - { offset: 0x8122, size: 0x8, addend: 0x0, symName: __RNvXs7_NtCs4EAaWzSXu1l_5quote9___privateINtB5_20IdentFragmentAdapterRjENtNtCsaNl6UpbT7bw_4core3fmt7Display3fmtCs2KWZukAWMkS_10displaydoc, symObjAddr: 0x2264, symBinAddr: 0x2EB4, symSize: 0x3C }
  - { offset: 0x816E, size: 0x8, addend: 0x0, symName: __RNvYINtNtCs4EAaWzSXu1l_5quote9___private11HasIteratorKb1_EINtB5_16CheckHasIteratorKBQ_E5checkCs2KWZukAWMkS_10displaydoc, symObjAddr: 0x2974, symBinAddr: 0x35C4, symSize: 0x1C }
  - { offset: 0x832D, size: 0x8, addend: 0x0, symName: __RINvNvNtCsht3nMU9UgFu_3std9panicking12catch_unwind7do_callINtNtNtCsaNl6UpbT7bw_4core5panic11unwind_safe16AssertUnwindSafeNCINvNtNtCs7yrEGia95Wz_10proc_macro6bridge6client10run_clientNtB20_11TokenStreamINtNtB11_6option6OptionB2U_ENCNCINvMs6_B20_INtB20_6ClientNtB24_11TokenStreamB48_E7expand1NvCs2KWZukAWMkS_10displaydoc12derive_errorE00E0EuEB4G_, symObjAddr: 0x20, symBinAddr: 0xC70, symSize: 0x50 }
  - { offset: 0x83F5, size: 0x8, addend: 0x0, symName: __RINvNvNtCsht3nMU9UgFu_3std9panicking12catch_unwind8do_catchINtNtNtCsaNl6UpbT7bw_4core5panic11unwind_safe16AssertUnwindSafeNCINvNtNtCs7yrEGia95Wz_10proc_macro6bridge6client10run_clientNtB21_11TokenStreamINtNtB12_6option6OptionB2V_ENCNCINvMs6_B21_INtB21_6ClientNtB25_11TokenStreamB49_E7expand1NvCs2KWZukAWMkS_10displaydoc12derive_errorE00E0EuEB4H_, symObjAddr: 0x70, symBinAddr: 0xCC0, symSize: 0x70 }
  - { offset: 0x85EA, size: 0x8, addend: 0x0, symName: __RINvXs1c_NtNtNtCsht3nMU9UgFu_3std11collections4hash3mapINtB7_7HashMapNtCshnvkK9b4wzu_11proc_macro25IdentINtNtCsiTraAjBDcu4_5alloc3vec3VecNtNtCsc29TF2YcYso_3syn8generics10TraitBoundEEINtNtNtNtCsaNl6UpbT7bw_4core4iter6traits7collect12FromIteratorTB15_B1E_EE9from_iterINtNtNtB31_8adapters3map3MapINtNtNtB33_5slice4iter4IterRNtB2d_9TypeParamENCNvNtCs2KWZukAWMkS_10displaydoc6expand37extract_trait_constraints_from_source0EEB5w_, symObjAddr: 0xE0, symBinAddr: 0xD30, symSize: 0x130 }
  - { offset: 0x86EF, size: 0x8, addend: 0x0, symName: __RNvXsB_NtNtNtCsht3nMU9UgFu_3std11collections4hash3mapINtB5_7IterMutNtCshnvkK9b4wzu_11proc_macro25IdentINtNtCsiTraAjBDcu4_5alloc3vec3VecNtNtCsc29TF2YcYso_3syn8generics10TraitBoundEENtNtNtNtCsaNl6UpbT7bw_4core4iter6traits8iterator8Iterator4nextCs2KWZukAWMkS_10displaydoc, symObjAddr: 0x2334, symBinAddr: 0x2F84, symSize: 0x24 }
  - { offset: 0x8735, size: 0x8, addend: 0x0, symName: __RNvXsF_NtNtNtCsht3nMU9UgFu_3std11collections4hash3mapINtB5_8IntoIterNtCshnvkK9b4wzu_11proc_macro25IdentINtNtCsiTraAjBDcu4_5alloc3vec3VecNtNtCsc29TF2YcYso_3syn8generics10TraitBoundEENtNtNtNtCsaNl6UpbT7bw_4core4iter6traits8iterator8Iterator4nextCs2KWZukAWMkS_10displaydoc, symObjAddr: 0x23C4, symBinAddr: 0x3014, symSize: 0x2C }
  - { offset: 0x8799, size: 0x8, addend: 0x0, symName: __RNvXsx_NtNtNtCsht3nMU9UgFu_3std11collections4hash3mapINtB5_7HashMapNtCshnvkK9b4wzu_11proc_macro25IdentINtNtCsiTraAjBDcu4_5alloc3vec3VecNtNtCsc29TF2YcYso_3syn8generics10TraitBoundEENtNtNtNtCsaNl6UpbT7bw_4core4iter6traits7collect12IntoIterator9into_iterCs2KWZukAWMkS_10displaydoc, symObjAddr: 0x291C, symBinAddr: 0x356C, symSize: 0x58 }
  - { offset: 0x8CE1, size: 0x8, addend: 0x0, symName: __RINvXs1i_NtCsg4dki62PTrg_9hashbrown3mapINtB7_7HashMapNtCshnvkK9b4wzu_11proc_macro25IdentINtNtCsiTraAjBDcu4_5alloc3vec3VecNtNtCsc29TF2YcYso_3syn8generics10TraitBoundENtNtNtCsht3nMU9UgFu_3std4hash6random11RandomStateEINtNtNtNtCsaNl6UpbT7bw_4core4iter6traits7collect6ExtendTBP_B1o_EE6extendINtNtNtB3y_8adapters3map3MapINtNtNtB3A_5slice4iter4IterRNtB1X_9TypeParamENCNvNtCs2KWZukAWMkS_10displaydoc6expand37extract_trait_constraints_from_source0EEB5S_, symObjAddr: 0x210, symBinAddr: 0xE60, symSize: 0x108 }
  - { offset: 0x8DEF, size: 0x8, addend: 0x0, symName: __RNCINvXs1i_NtCsg4dki62PTrg_9hashbrown3mapINtB9_7HashMapNtCshnvkK9b4wzu_11proc_macro25IdentINtNtCsiTraAjBDcu4_5alloc3vec3VecNtNtCsc29TF2YcYso_3syn8generics10TraitBoundENtNtNtCsht3nMU9UgFu_3std4hash6random11RandomStateEINtNtNtNtCsaNl6UpbT7bw_4core4iter6traits7collect6ExtendTBR_B1q_EE6extendINtNtNtB3A_8adapters3map3MapINtNtNtB3C_5slice4iter4IterRNtB1Z_9TypeParamENCNvNtCs2KWZukAWMkS_10displaydoc6expand37extract_trait_constraints_from_source0EE0B5U_, symObjAddr: 0x724, symBinAddr: 0x1374, symSize: 0x64 }
  - { offset: 0x8EC2, size: 0x8, addend: 0x0, symName: __RNCINvNtCsg4dki62PTrg_9hashbrown3map11make_hasherNtCshnvkK9b4wzu_11proc_macro25IdentINtNtCsiTraAjBDcu4_5alloc3vec3VecNtNtCsc29TF2YcYso_3syn8generics10TraitBoundENtNtNtCsht3nMU9UgFu_3std4hash6random11RandomStateE0Cs2KWZukAWMkS_10displaydoc, symObjAddr: 0x6B8, symBinAddr: 0x1308, symSize: 0x3C }
  - { offset: 0x8F44, size: 0x8, addend: 0x0, symName: __RNCINvNtCsg4dki62PTrg_9hashbrown3map14equivalent_keyNtCshnvkK9b4wzu_11proc_macro25IdentBO_INtNtCsiTraAjBDcu4_5alloc3vec3VecNtNtCsc29TF2YcYso_3syn8generics10TraitBoundEE0Cs2KWZukAWMkS_10displaydoc, symObjAddr: 0x6F4, symBinAddr: 0x1344, symSize: 0x30 }
  - { offset: 0x900D, size: 0x8, addend: 0x0, symName: __RNvXsE_NtCsg4dki62PTrg_9hashbrown3mapINtB5_7HashMapNtCshnvkK9b4wzu_11proc_macro25IdentINtNtCsiTraAjBDcu4_5alloc3vec3VecNtNtCsc29TF2YcYso_3syn8generics10TraitBoundENtNtNtCsht3nMU9UgFu_3std4hash6random11RandomStateENtNtNtNtCsaNl6UpbT7bw_4core4iter6traits7collect12IntoIterator9into_iterCs2KWZukAWMkS_10displaydoc, symObjAddr: 0x2358, symBinAddr: 0x2FA8, symSize: 0x6C }
  - { offset: 0x90D5, size: 0x8, addend: 0x0, symName: __RNvXsK_NtCsg4dki62PTrg_9hashbrown3mapINtB5_7IterMutNtCshnvkK9b4wzu_11proc_macro25IdentINtNtCsiTraAjBDcu4_5alloc3vec3VecNtNtCsc29TF2YcYso_3syn8generics10TraitBoundEENtNtNtNtCsaNl6UpbT7bw_4core4iter6traits8iterator8Iterator4nextCs2KWZukAWMkS_10displaydoc, symObjAddr: 0x26E8, symBinAddr: 0x3338, symSize: 0xFC }
  - { offset: 0xA079, size: 0x8, addend: 0x0, symName: __RNvXs1_NtCsiTraAjBDcu4_5alloc7raw_vecINtB5_6RawVecINtNtCsaNl6UpbT7bw_4core6option6OptionNtNtCs2KWZukAWMkS_10displaydoc4attr14VariantDisplayEENtNtNtBR_3ops4drop4Drop4dropB1s_, symObjAddr: 0x14E8, symBinAddr: 0x2138, symSize: 0x34 }
  - { offset: 0xA0B5, size: 0x8, addend: 0x0, symName: __RNvXs1_NtCsiTraAjBDcu4_5alloc7raw_vecINtB5_6RawVecNtCshnvkK9b4wzu_11proc_macro211TokenStreamENtNtNtCsaNl6UpbT7bw_4core3ops4drop4Drop4dropCs2KWZukAWMkS_10displaydoc, symObjAddr: 0x151C, symBinAddr: 0x216C, symSize: 0x34 }
  - { offset: 0xA0F1, size: 0x8, addend: 0x0, symName: __RNvXs1_NtCsiTraAjBDcu4_5alloc7raw_vecINtB5_6RawVecNtNtCsc29TF2YcYso_3syn8generics10TraitBoundENtNtNtCsaNl6UpbT7bw_4core3ops4drop4Drop4dropCs2KWZukAWMkS_10displaydoc, symObjAddr: 0x1550, symBinAddr: 0x21A0, symSize: 0x34 }
  - { offset: 0xA12D, size: 0x8, addend: 0x0, symName: __RNvXs1_NtCsiTraAjBDcu4_5alloc7raw_vecINtB5_6RawVecRNtNtCsc29TF2YcYso_3syn8generics9TypeParamENtNtNtCsaNl6UpbT7bw_4core3ops4drop4Drop4dropCs2KWZukAWMkS_10displaydoc, symObjAddr: 0x1584, symBinAddr: 0x21D4, symSize: 0x30 }
  - { offset: 0xFB1F, size: 0x8, addend: 0x0, symName: __RNvMNtNtCs4EAaWzSXu1l_5quote9___private8get_spanINtB2_7GetSpanNtCshnvkK9b4wzu_11proc_macro24SpanE11___into_spanCs2KWZukAWMkS_10displaydoc, symObjAddr: 0x8CC, symBinAddr: 0x151C, symSize: 0x20 }
  - { offset: 0xFC54, size: 0x8, addend: 0x0, symName: __RNvMs0_NtCsg4dki62PTrg_9hashbrown3mapINtB5_7HashMapNtCshnvkK9b4wzu_11proc_macro25IdentINtNtCsiTraAjBDcu4_5alloc3vec3VecNtNtCsc29TF2YcYso_3syn8generics10TraitBoundENtNtNtCsht3nMU9UgFu_3std4hash6random11RandomStateE8iter_mutCs2KWZukAWMkS_10displaydoc, symObjAddr: 0x97C, symBinAddr: 0x15CC, symSize: 0xC8 }
  - { offset: 0xFE3D, size: 0x8, addend: 0x0, symName: __RNvMs0_NtCsiTraAjBDcu4_5alloc7raw_vecINtB5_6RawVecNtNtCsc29TF2YcYso_3syn8generics10TraitBoundE8grow_oneCs2KWZukAWMkS_10displaydoc, symObjAddr: 0xA44, symBinAddr: 0x1694, symSize: 0x90 }
  - { offset: 0xFEB3, size: 0x8, addend: 0x0, symName: __RNvMs0_NtNtCsaNl6UpbT7bw_4core4hash3sipINtB5_6HasherNtB5_11Sip13RoundsE5resetCs2KWZukAWMkS_10displaydoc, symObjAddr: 0xAD4, symBinAddr: 0x1724, symSize: 0x8C }
  - { offset: 0xFFA4, size: 0x8, addend: 0x0, symName: __RNvMs1_NtCsg4dki62PTrg_9hashbrown3mapINtB5_7HashMapNtCshnvkK9b4wzu_11proc_macro25IdentINtNtCsiTraAjBDcu4_5alloc3vec3VecNtNtCsc29TF2YcYso_3syn8generics10TraitBoundENtNtNtCsht3nMU9UgFu_3std4hash6random11RandomStateE6insertCs2KWZukAWMkS_10displaydoc, symObjAddr: 0xB60, symBinAddr: 0x17B0, symSize: 0x238 }
  - { offset: 0x1014B, size: 0x8, addend: 0x0, symName: __RNvMs6_NtCs4EAaWzSXu1l_5quote9___privateINtB5_20IdentFragmentAdapterRjE4spanCs2KWZukAWMkS_10displaydoc, symObjAddr: 0xD98, symBinAddr: 0x19E8, symSize: 0x34 }
  - { offset: 0x10177, size: 0x8, addend: 0x0, symName: __RNvMs_NtNtNtCsht3nMU9UgFu_3std11collections4hash3mapINtB4_7HashMapNtCshnvkK9b4wzu_11proc_macro25IdentINtNtCsiTraAjBDcu4_5alloc3vec3VecNtNtCsc29TF2YcYso_3syn8generics10TraitBoundEE8iter_mutCs2KWZukAWMkS_10displaydoc, symObjAddr: 0xDCC, symBinAddr: 0x1A1C, symSize: 0x44 }
  - { offset: 0x101FE, size: 0x8, addend: 0x0, symName: __RNvMsf_NtNtCsaNl6UpbT7bw_4core3str4iterINtB5_13SplitInternalcE14next_inclusiveCs2KWZukAWMkS_10displaydoc, symObjAddr: 0xE10, symBinAddr: 0x1A60, symSize: 0x130 }
  - { offset: 0x10B28, size: 0x8, addend: 0x0, symName: __RINvMs6_NtCsg4dki62PTrg_9hashbrown3rawINtB6_8RawTableTNtCshnvkK9b4wzu_11proc_macro25IdentINtNtCsiTraAjBDcu4_5alloc3vec3VecNtNtCsc29TF2YcYso_3syn8generics10TraitBoundEEE14reserve_rehashNCINvNtB8_3map11make_hasherBQ_B1p_NtNtNtCsht3nMU9UgFu_3std4hash6random11RandomStateE0ECs2KWZukAWMkS_10displaydoc, symObjAddr: 0x0, symBinAddr: 0x17B41C, symSize: 0x828 }
  - { offset: 0x10B64, size: 0x8, addend: 0x0, symName: __RNCINvMs6_NtCsg4dki62PTrg_9hashbrown3rawINtB8_8RawTableTNtCshnvkK9b4wzu_11proc_macro25IdentINtNtCsiTraAjBDcu4_5alloc3vec3VecNtNtCsc29TF2YcYso_3syn8generics10TraitBoundEEE14reserve_rehashNCINvNtBa_3map11make_hasherBS_B1r_NtNtNtCsht3nMU9UgFu_3std4hash6random11RandomStateE0E0Cs2KWZukAWMkS_10displaydoc, symObjAddr: 0x12B8, symBinAddr: 0x83F8, symSize: 0xC8 }
  - { offset: 0x10D21, size: 0x8, addend: 0x0, symName: __RNCINvMs6_NtCsg4dki62PTrg_9hashbrown3rawINtB8_8RawTableTNtCshnvkK9b4wzu_11proc_macro25IdentINtNtCsiTraAjBDcu4_5alloc3vec3VecNtNtCsc29TF2YcYso_3syn8generics10TraitBoundEEE14reserve_rehashNCINvNtBa_3map11make_hasherBS_B1r_NtNtNtCsht3nMU9UgFu_3std4hash6random11RandomStateE0Es_0Cs2KWZukAWMkS_10displaydoc, symObjAddr: 0x1380, symBinAddr: 0x84C0, symSize: 0x30 }
  - { offset: 0x10D7E, size: 0x8, addend: 0x0, symName: __RNCINvMs6_NtCsg4dki62PTrg_9hashbrown3rawINtB8_8RawTableTNtCshnvkK9b4wzu_11proc_macro25IdentINtNtCsiTraAjBDcu4_5alloc3vec3VecNtNtCsc29TF2YcYso_3syn8generics10TraitBoundEEE24find_or_find_insert_slotNCINvNtBa_3map14equivalent_keyBS_BS_B1r_E0NCINvB3d_11make_hasherBS_B1r_NtNtNtCsht3nMU9UgFu_3std4hash6random11RandomStateE0E0Cs2KWZukAWMkS_10displaydoc, symObjAddr: 0x13B0, symBinAddr: 0x84F0, symSize: 0xCC }
  - { offset: 0x116C3, size: 0x8, addend: 0x0, symName: __RNCINvMsa_NtCsg4dki62PTrg_9hashbrown3rawNtB8_13RawTableInner14prepare_resizeNtNtCsiTraAjBDcu4_5alloc5alloc6GlobalE0Cs2KWZukAWMkS_10displaydoc, symObjAddr: 0x147C, symBinAddr: 0x85BC, symSize: 0xBC }
  - { offset: 0x118A6, size: 0x8, addend: 0x0, symName: __RNCNvMsa_NtCsg4dki62PTrg_9hashbrown3rawNtB7_13RawTableInner15rehash_in_place0Cs2KWZukAWMkS_10displaydoc, symObjAddr: 0x1538, symBinAddr: 0x8678, symSize: 0x22C }
  - { offset: 0x11F94, size: 0x8, addend: 0x0, symName: __RNvNtCsg4dki62PTrg_9hashbrown3raw19capacity_to_bucketsCs2KWZukAWMkS_10displaydoc, symObjAddr: 0x2C28, symBinAddr: 0x9D68, symSize: 0x218 }
  - { offset: 0x1219D, size: 0x8, addend: 0x0, symName: __RNvXsB_NtCsg4dki62PTrg_9hashbrown3rawINtB5_11RawIntoIterTNtCshnvkK9b4wzu_11proc_macro25IdentINtNtCsiTraAjBDcu4_5alloc3vec3VecNtNtCsc29TF2YcYso_3syn8generics10TraitBoundEEENtNtNtCsaNl6UpbT7bw_4core3ops4drop4Drop4dropCs2KWZukAWMkS_10displaydoc, symObjAddr: 0x2E40, symBinAddr: 0x9F80, symSize: 0x74 }
  - { offset: 0x1221D, size: 0x8, addend: 0x0, symName: __RNvXsD_NtCsg4dki62PTrg_9hashbrown3rawINtB5_11RawIntoIterTNtCshnvkK9b4wzu_11proc_macro25IdentINtNtCsiTraAjBDcu4_5alloc3vec3VecNtNtCsc29TF2YcYso_3syn8generics10TraitBoundEEENtNtNtNtCsaNl6UpbT7bw_4core4iter6traits8iterator8Iterator4nextCs2KWZukAWMkS_10displaydoc, symObjAddr: 0x2EB4, symBinAddr: 0x9FF4, symSize: 0x114 }
  - { offset: 0x123AC, size: 0x8, addend: 0x0, symName: __RNvXsg_NtCsg4dki62PTrg_9hashbrown3rawINtB5_8RawTableTNtCshnvkK9b4wzu_11proc_macro25IdentINtNtCsiTraAjBDcu4_5alloc3vec3VecNtNtCsc29TF2YcYso_3syn8generics10TraitBoundEEENtNtNtCsaNl6UpbT7bw_4core3ops4drop4Drop4dropCs2KWZukAWMkS_10displaydoc, symObjAddr: 0x2FC8, symBinAddr: 0xA108, symSize: 0x3C }
  - { offset: 0x123EE, size: 0x8, addend: 0x0, symName: __RNvXsh_NtCsg4dki62PTrg_9hashbrown3rawINtB5_8RawTableTNtCshnvkK9b4wzu_11proc_macro25IdentINtNtCsiTraAjBDcu4_5alloc3vec3VecNtNtCsc29TF2YcYso_3syn8generics10TraitBoundEEENtNtNtNtCsaNl6UpbT7bw_4core4iter6traits7collect12IntoIterator9into_iterCs2KWZukAWMkS_10displaydoc, symObjAddr: 0x3004, symBinAddr: 0xA144, symSize: 0x11C }
  - { offset: 0x1E2A1, size: 0x8, addend: 0x0, symName: __RINvMs6_NtCsg4dki62PTrg_9hashbrown3rawINtB6_8RawTableTNtCshnvkK9b4wzu_11proc_macro25IdentINtNtCsiTraAjBDcu4_5alloc3vec3VecNtNtCsc29TF2YcYso_3syn8generics10TraitBoundEEE14reserve_rehashNCINvNtB8_3map11make_hasherBQ_B1p_NtNtNtCsht3nMU9UgFu_3std4hash6random11RandomStateE0ECs2KWZukAWMkS_10displaydoc, symObjAddr: 0x0, symBinAddr: 0x17B41C, symSize: 0x828 }
  - { offset: 0x1EC91, size: 0x8, addend: 0x0, symName: __RINvMs6_NtCsg4dki62PTrg_9hashbrown3rawINtB6_8RawTableTNtCshnvkK9b4wzu_11proc_macro25IdentINtNtCsiTraAjBDcu4_5alloc3vec3VecNtNtCsc29TF2YcYso_3syn8generics10TraitBoundEEE24find_or_find_insert_slotNCINvNtB8_3map14equivalent_keyBQ_BQ_B1p_E0NCINvB3b_11make_hasherBQ_B1p_NtNtNtCsht3nMU9UgFu_3std4hash6random11RandomStateE0ECs2KWZukAWMkS_10displaydoc, symObjAddr: 0x828, symBinAddr: 0x7968, symSize: 0x140 }
  - { offset: 0x1EE7D, size: 0x8, addend: 0x0, symName: __RINvMs6_NtCsg4dki62PTrg_9hashbrown3rawINtB6_8RawTableTNtCshnvkK9b4wzu_11proc_macro25IdentINtNtCsiTraAjBDcu4_5alloc3vec3VecNtNtCsc29TF2YcYso_3syn8generics10TraitBoundEEE7reserveNCINvNtB8_3map11make_hasherBQ_B1p_NtNtNtCsht3nMU9UgFu_3std4hash6random11RandomStateE0ECs2KWZukAWMkS_10displaydoc, symObjAddr: 0x968, symBinAddr: 0x7AA8, symSize: 0xCC }
  - { offset: 0x1F061, size: 0x8, addend: 0x0, symName: __RINvMsa_NtCsg4dki62PTrg_9hashbrown3rawNtB6_13RawTableInner13drop_elementsTNtCshnvkK9b4wzu_11proc_macro25IdentINtNtCsiTraAjBDcu4_5alloc3vec3VecNtNtCsc29TF2YcYso_3syn8generics10TraitBoundEEECs2KWZukAWMkS_10displaydoc, symObjAddr: 0xA34, symBinAddr: 0x7B74, symSize: 0x178 }
  - { offset: 0x1F3CC, size: 0x8, addend: 0x0, symName: __RINvMsa_NtCsg4dki62PTrg_9hashbrown3rawNtB6_13RawTableInner16drop_inner_tableTNtCshnvkK9b4wzu_11proc_macro25IdentINtNtCsiTraAjBDcu4_5alloc3vec3VecNtNtCsc29TF2YcYso_3syn8generics10TraitBoundEENtNtB1R_5alloc6GlobalECs2KWZukAWMkS_10displaydoc, symObjAddr: 0xBAC, symBinAddr: 0x7CEC, symSize: 0xBC }
  - { offset: 0x1F5DF, size: 0x8, addend: 0x0, symName: __RINvMsa_NtCsg4dki62PTrg_9hashbrown3rawNtB6_13RawTableInner17new_uninitializedNtNtCsiTraAjBDcu4_5alloc5alloc6GlobalECs2KWZukAWMkS_10displaydoc, symObjAddr: 0xC68, symBinAddr: 0x7DA8, symSize: 0x1B0 }
  - { offset: 0x1F830, size: 0x8, addend: 0x0, symName: __RINvMsa_NtCsg4dki62PTrg_9hashbrown3rawNtB6_13RawTableInner22fallible_with_capacityNtNtCsiTraAjBDcu4_5alloc5alloc6GlobalECs2KWZukAWMkS_10displaydoc, symObjAddr: 0xE18, symBinAddr: 0x7F58, symSize: 0x2B0 }
  - { offset: 0x1FCA6, size: 0x8, addend: 0x0, symName: __RINvMsi_NtCsg4dki62PTrg_9hashbrown3rawINtB6_12RawIterRangeTNtCshnvkK9b4wzu_11proc_macro25IdentINtNtCsiTraAjBDcu4_5alloc3vec3VecNtNtCsc29TF2YcYso_3syn8generics10TraitBoundEEE9next_implKb0_ECs2KWZukAWMkS_10displaydoc, symObjAddr: 0x10C8, symBinAddr: 0x8208, symSize: 0x1F0 }
  - { offset: 0x2043E, size: 0x8, addend: 0x0, symName: __RNvMs1_NtCsg4dki62PTrg_9hashbrown3rawNtB5_11TableLayout20calculate_layout_forCs2KWZukAWMkS_10displaydoc, symObjAddr: 0x1764, symBinAddr: 0x88A4, symSize: 0x210 }
  - { offset: 0x208CB, size: 0x8, addend: 0x0, symName: __RNvMs6_NtCsg4dki62PTrg_9hashbrown3rawINtB5_8RawTableTNtCshnvkK9b4wzu_11proc_macro25IdentINtNtCsiTraAjBDcu4_5alloc3vec3VecNtNtCsc29TF2YcYso_3syn8generics10TraitBoundEEE14insert_in_slotCs2KWZukAWMkS_10displaydoc, symObjAddr: 0x1974, symBinAddr: 0x8AB4, symSize: 0x148 }
  - { offset: 0x20C5D, size: 0x8, addend: 0x0, symName: __RNvMs6_NtCsg4dki62PTrg_9hashbrown3rawINtB5_8RawTableTNtCshnvkK9b4wzu_11proc_macro25IdentINtNtCsiTraAjBDcu4_5alloc3vec3VecNtNtCsc29TF2YcYso_3syn8generics10TraitBoundEEE14into_iter_fromCs2KWZukAWMkS_10displaydoc, symObjAddr: 0x1ABC, symBinAddr: 0x8BFC, symSize: 0x90 }
  - { offset: 0x20D49, size: 0x8, addend: 0x0, symName: __RNvMs6_NtCsg4dki62PTrg_9hashbrown3rawINtB5_8RawTableTNtCshnvkK9b4wzu_11proc_macro25IdentINtNtCsiTraAjBDcu4_5alloc3vec3VecNtNtCsc29TF2YcYso_3syn8generics10TraitBoundEEE15into_allocationCs2KWZukAWMkS_10displaydoc, symObjAddr: 0x1B4C, symBinAddr: 0x8C8C, symSize: 0x13C }
  - { offset: 0x20F7C, size: 0x8, addend: 0x0, symName: __RNvMsa_NtCsg4dki62PTrg_9hashbrown3rawNtB5_13RawTableInner15fix_insert_slotCs2KWZukAWMkS_10displaydoc, symObjAddr: 0x1C88, symBinAddr: 0x8DC8, symSize: 0x12C }
  - { offset: 0x212FC, size: 0x8, addend: 0x0, symName: __RNvMsa_NtCsg4dki62PTrg_9hashbrown3rawNtB5_13RawTableInner15rehash_in_placeCs2KWZukAWMkS_10displaydoc, symObjAddr: 0x1DB4, symBinAddr: 0x8EF4, symSize: 0x4AC }
  - { offset: 0x21B11, size: 0x8, addend: 0x0, symName: __RNvMsa_NtCsg4dki62PTrg_9hashbrown3rawNtB5_13RawTableInner16find_insert_slotCs2KWZukAWMkS_10displaydoc, symObjAddr: 0x2260, symBinAddr: 0x93A0, symSize: 0x11C }
  - { offset: 0x21D0C, size: 0x8, addend: 0x0, symName: __RNvMsa_NtCsg4dki62PTrg_9hashbrown3rawNtB5_13RawTableInner19prepare_insert_slotCs2KWZukAWMkS_10displaydoc, symObjAddr: 0x237C, symBinAddr: 0x94BC, symSize: 0x74 }
  - { offset: 0x21FFD, size: 0x8, addend: 0x0, symName: __RNvMsa_NtCsg4dki62PTrg_9hashbrown3rawNtB5_13RawTableInner23prepare_rehash_in_placeCs2KWZukAWMkS_10displaydoc, symObjAddr: 0x23F0, symBinAddr: 0x9530, symSize: 0x258 }
  - { offset: 0x22709, size: 0x8, addend: 0x0, symName: __RNvMsa_NtCsg4dki62PTrg_9hashbrown3rawNtB5_13RawTableInner25find_insert_slot_in_groupCs2KWZukAWMkS_10displaydoc, symObjAddr: 0x2648, symBinAddr: 0x9788, symSize: 0x15C }
  - { offset: 0x229EF, size: 0x8, addend: 0x0, symName: __RNvMsa_NtCsg4dki62PTrg_9hashbrown3rawNtB5_13RawTableInner30find_or_find_insert_slot_innerCs2KWZukAWMkS_10displaydoc, symObjAddr: 0x27A4, symBinAddr: 0x98E4, symSize: 0x2C0 }
  - { offset: 0x22DE8, size: 0x8, addend: 0x0, symName: __RNvMsi_NtCsg4dki62PTrg_9hashbrown3rawINtB5_12RawIterRangeTNtCshnvkK9b4wzu_11proc_macro25IdentINtNtCsiTraAjBDcu4_5alloc3vec3VecNtNtCsc29TF2YcYso_3syn8generics10TraitBoundEEE3newCs2KWZukAWMkS_10displaydoc, symObjAddr: 0x2A64, symBinAddr: 0x9BA4, symSize: 0xC8 }
  - { offset: 0x2309D, size: 0x8, addend: 0x0, symName: __RNvMso_NtCsg4dki62PTrg_9hashbrown3rawINtB5_7RawIterTNtCshnvkK9b4wzu_11proc_macro25IdentINtNtCsiTraAjBDcu4_5alloc3vec3VecNtNtCsc29TF2YcYso_3syn8generics10TraitBoundEEE13drop_elementsCs2KWZukAWMkS_10displaydoc, symObjAddr: 0x2B2C, symBinAddr: 0x9C6C, symSize: 0xFC }
  - { offset: 0x23344, size: 0x8, addend: 0x0, symName: __RINvMsi_NtCsiTraAjBDcu4_5alloc3vecINtB6_3VecINtNtCsaNl6UpbT7bw_4core6option6OptionNtNtCs2KWZukAWMkS_10displaydoc4attr14VariantDisplayEE16extend_desugaredINtNtNtBL_4iter8adapters12GenericShuntINtNtB2u_3map3MapINtNtCsc29TF2YcYso_3syn10punctuated4IterNtNtB3p_4data7VariantENCNvNtB1m_6expand9impl_enum0EINtNtBL_6result6ResultNtNtBL_7convert10InfallibleNtNtB3p_5error5ErrorEEEB1m_, symObjAddr: 0x0, symBinAddr: 0xA260, symSize: 0x1FC }
  - { offset: 0x238BB, size: 0x8, addend: 0x0, symName: __RNCNCNvXsG_NtCsc29TF2YcYso_3syn10punctuatedINtB9_14PrivateIterMutNtNtBb_8generics14WherePredicateNtNtBb_5token5CommaENtNtNtNtCsaNl6UpbT7bw_4core4iter6traits12double_ended19DoubleEndedIterator9next_back00Cs2KWZukAWMkS_10displaydoc, symObjAddr: 0x11D4, symBinAddr: 0xB434, symSize: 0x24 }
  - { offset: 0x2390E, size: 0x8, addend: 0x0, symName: __RNCNvXsG_NtCsc29TF2YcYso_3syn10punctuatedINtB7_14PrivateIterMutNtNtB9_8generics14WherePredicateNtNtB9_5token5CommaENtNtNtNtCsaNl6UpbT7bw_4core4iter6traits12double_ended19DoubleEndedIterator9next_back0Cs2KWZukAWMkS_10displaydoc, symObjAddr: 0x1298, symBinAddr: 0xB4F8, symSize: 0x38 }
  - { offset: 0x23951, size: 0x8, addend: 0x0, symName: __RNvXsG_NtCsc29TF2YcYso_3syn10punctuatedINtB5_14PrivateIterMutNtNtB7_8generics14WherePredicateNtNtB7_5token5CommaENtNtNtNtCsaNl6UpbT7bw_4core4iter6traits12double_ended19DoubleEndedIterator9next_backCs2KWZukAWMkS_10displaydoc, symObjAddr: 0x2C88, symBinAddr: 0xCEE8, symSize: 0x40 }
  - { offset: 0x239A1, size: 0x8, addend: 0x0, symName: __RNCNCNvXsx_NtCsc29TF2YcYso_3syn10punctuatedINtB9_11PrivateIterNtNtBb_4data7VariantNtNtBb_5token5CommaENtNtNtNtCsaNl6UpbT7bw_4core4iter6traits12double_ended19DoubleEndedIterator9next_back00Cs2KWZukAWMkS_10displaydoc, symObjAddr: 0x11F8, symBinAddr: 0xB458, symSize: 0x24 }
  - { offset: 0x239EC, size: 0x8, addend: 0x0, symName: __RNCNCNvXsx_NtCsc29TF2YcYso_3syn10punctuatedINtB9_11PrivateIterNtNtBb_8generics14WherePredicateNtNtBb_5token5CommaENtNtNtNtCsaNl6UpbT7bw_4core4iter6traits12double_ended19DoubleEndedIterator9next_back00Cs2KWZukAWMkS_10displaydoc, symObjAddr: 0x121C, symBinAddr: 0xB47C, symSize: 0x24 }
  - { offset: 0x23A46, size: 0x8, addend: 0x0, symName: __RNCNvXsx_NtCsc29TF2YcYso_3syn10punctuatedINtB7_11PrivateIterNtNtB9_4data7VariantNtNtB9_5token5CommaENtNtNtNtCsaNl6UpbT7bw_4core4iter6traits12double_ended19DoubleEndedIterator9next_back0Cs2KWZukAWMkS_10displaydoc, symObjAddr: 0x1380, symBinAddr: 0xB5E0, symSize: 0x38 }
  - { offset: 0x23A88, size: 0x8, addend: 0x0, symName: __RNCNvXsx_NtCsc29TF2YcYso_3syn10punctuatedINtB7_11PrivateIterNtNtB9_8generics14WherePredicateNtNtB9_5token5CommaENtNtNtNtCsaNl6UpbT7bw_4core4iter6traits12double_ended19DoubleEndedIterator9next_back0Cs2KWZukAWMkS_10displaydoc, symObjAddr: 0x13B8, symBinAddr: 0xB618, symSize: 0x38 }
  - { offset: 0x23ACB, size: 0x8, addend: 0x0, symName: __RNvXsx_NtCsc29TF2YcYso_3syn10punctuatedINtB5_11PrivateIterNtNtB7_4data7VariantNtNtB7_5token5CommaENtNtNtNtCsaNl6UpbT7bw_4core4iter6traits12double_ended19DoubleEndedIterator9next_backCs2KWZukAWMkS_10displaydoc, symObjAddr: 0x3350, symBinAddr: 0xD5B0, symSize: 0x40 }
  - { offset: 0x23B0B, size: 0x8, addend: 0x0, symName: __RNvXsx_NtCsc29TF2YcYso_3syn10punctuatedINtB5_11PrivateIterNtNtB7_8generics14WherePredicateNtNtB7_5token5CommaENtNtNtNtCsaNl6UpbT7bw_4core4iter6traits12double_ended19DoubleEndedIterator9next_backCs2KWZukAWMkS_10displaydoc, symObjAddr: 0x3390, symBinAddr: 0xD5F0, symSize: 0x40 }
  - { offset: 0x23B56, size: 0x8, addend: 0x0, symName: __RNCNvXsF_NtCsc29TF2YcYso_3syn10punctuatedINtB7_14PrivateIterMutNtNtB9_8generics14WherePredicateNtNtB9_5token5CommaENtNtNtNtCsaNl6UpbT7bw_4core4iter6traits8iterator8Iterator4next0Cs2KWZukAWMkS_10displaydoc, symObjAddr: 0x1240, symBinAddr: 0xB4A0, symSize: 0x24 }
  - { offset: 0x23BA1, size: 0x8, addend: 0x0, symName: __RNCNvXsF_NtCsc29TF2YcYso_3syn10punctuatedINtB7_14PrivateIterMutNtNtB9_8generics14WherePredicateNtNtB9_5token5CommaENtNtNtNtCsaNl6UpbT7bw_4core4iter6traits8iterator8Iterator4nexts_0Cs2KWZukAWMkS_10displaydoc, symObjAddr: 0x1264, symBinAddr: 0xB4C4, symSize: 0x34 }
  - { offset: 0x23BEB, size: 0x8, addend: 0x0, symName: __RNvXsF_NtCsc29TF2YcYso_3syn10punctuatedINtB5_14PrivateIterMutNtNtB7_8generics14WherePredicateNtNtB7_5token5CommaENtNtNtNtCsaNl6UpbT7bw_4core4iter6traits8iterator8Iterator4nextCs2KWZukAWMkS_10displaydoc, symObjAddr: 0x2C44, symBinAddr: 0xCEA4, symSize: 0x44 }
  - { offset: 0x23C36, size: 0x8, addend: 0x0, symName: __RNCNvXsw_NtCsc29TF2YcYso_3syn10punctuatedINtB7_11PrivateIterNtNtB9_4data7VariantNtNtB9_5token5CommaENtNtNtNtCsaNl6UpbT7bw_4core4iter6traits8iterator8Iterator4next0Cs2KWZukAWMkS_10displaydoc, symObjAddr: 0x12D0, symBinAddr: 0xB530, symSize: 0x24 }
  - { offset: 0x23C81, size: 0x8, addend: 0x0, symName: __RNCNvXsw_NtCsc29TF2YcYso_3syn10punctuatedINtB7_11PrivateIterNtNtB9_4data7VariantNtNtB9_5token5CommaENtNtNtNtCsaNl6UpbT7bw_4core4iter6traits8iterator8Iterator4nexts_0Cs2KWZukAWMkS_10displaydoc, symObjAddr: 0x12F4, symBinAddr: 0xB554, symSize: 0x34 }
  - { offset: 0x23CC3, size: 0x8, addend: 0x0, symName: __RNCNvXsw_NtCsc29TF2YcYso_3syn10punctuatedINtB7_11PrivateIterNtNtB9_8generics14WherePredicateNtNtB9_5token5CommaENtNtNtNtCsaNl6UpbT7bw_4core4iter6traits8iterator8Iterator4next0Cs2KWZukAWMkS_10displaydoc, symObjAddr: 0x1328, symBinAddr: 0xB588, symSize: 0x24 }
  - { offset: 0x23D0E, size: 0x8, addend: 0x0, symName: __RNCNvXsw_NtCsc29TF2YcYso_3syn10punctuatedINtB7_11PrivateIterNtNtB9_8generics14WherePredicateNtNtB9_5token5CommaENtNtNtNtCsaNl6UpbT7bw_4core4iter6traits8iterator8Iterator4nexts_0Cs2KWZukAWMkS_10displaydoc, symObjAddr: 0x134C, symBinAddr: 0xB5AC, symSize: 0x34 }
  - { offset: 0x23D5F, size: 0x8, addend: 0x0, symName: __RNvXsw_NtCsc29TF2YcYso_3syn10punctuatedINtB5_11PrivateIterNtNtB7_4data7VariantNtNtB7_5token5CommaENtNtNtNtCsaNl6UpbT7bw_4core4iter6traits8iterator8Iterator4nextCs2KWZukAWMkS_10displaydoc, symObjAddr: 0x32C8, symBinAddr: 0xD528, symSize: 0x44 }
  - { offset: 0x23D9F, size: 0x8, addend: 0x0, symName: __RNvXsw_NtCsc29TF2YcYso_3syn10punctuatedINtB5_11PrivateIterNtNtB7_8generics14WherePredicateNtNtB7_5token5CommaENtNtNtNtCsaNl6UpbT7bw_4core4iter6traits8iterator8Iterator4nextCs2KWZukAWMkS_10displaydoc, symObjAddr: 0x330C, symBinAddr: 0xD56C, symSize: 0x44 }
  - { offset: 0x23E03, size: 0x8, addend: 0x0, symName: __RNvXsA_NtCsc29TF2YcYso_3syn10punctuatedINtB5_11PrivateIterNtNtB7_4data7VariantNtNtB7_5token5CommaEINtB5_9IterTraitBU_E9clone_boxCs2KWZukAWMkS_10displaydoc, symObjAddr: 0x2AD4, symBinAddr: 0xCD34, symSize: 0x94 }
  - { offset: 0x23E61, size: 0x8, addend: 0x0, symName: __RNvXsA_NtCsc29TF2YcYso_3syn10punctuatedINtB5_11PrivateIterNtNtB7_8generics14WherePredicateNtNtB7_5token5CommaEINtB5_9IterTraitBU_E9clone_boxCs2KWZukAWMkS_10displaydoc, symObjAddr: 0x2B68, symBinAddr: 0xCDC8, symSize: 0x94 }
  - { offset: 0x23EC5, size: 0x8, addend: 0x0, symName: __RNvXsC_NtCsc29TF2YcYso_3syn10punctuatedINtB5_7IterMutNtNtB7_8generics14WherePredicateENtNtNtNtCsaNl6UpbT7bw_4core4iter6traits8iterator8Iterator4nextCs2KWZukAWMkS_10displaydoc, symObjAddr: 0x2BFC, symBinAddr: 0xCE5C, symSize: 0x48 }
  - { offset: 0x23F02, size: 0x8, addend: 0x0, symName: __RNvXsH_NtCsc29TF2YcYso_3syn10punctuatedINtB5_14PrivateIterMutNtNtB7_8generics14WherePredicateNtNtB7_5token5CommaENtNtNtNtCsaNl6UpbT7bw_4core4iter6traits10exact_size17ExactSizeIterator3lenCs2KWZukAWMkS_10displaydoc, symObjAddr: 0x2CC8, symBinAddr: 0xCF28, symSize: 0x94 }
  - { offset: 0x23F7C, size: 0x8, addend: 0x0, symName: __RNvXst_NtCsc29TF2YcYso_3syn10punctuatedINtB5_4IterNtNtB7_4data7VariantENtNtNtNtCsaNl6UpbT7bw_4core4iter6traits8iterator8Iterator4nextCs2KWZukAWMkS_10displaydoc, symObjAddr: 0x30B0, symBinAddr: 0xD310, symSize: 0x48 }
  - { offset: 0x23FB3, size: 0x8, addend: 0x0, symName: __RNvXst_NtCsc29TF2YcYso_3syn10punctuatedINtB5_4IterNtNtB7_4data7VariantENtNtNtNtCsaNl6UpbT7bw_4core4iter6traits8iterator8Iterator9size_hintCs2KWZukAWMkS_10displaydoc, symObjAddr: 0x30F8, symBinAddr: 0xD358, symSize: 0x7C }
  - { offset: 0x23FEA, size: 0x8, addend: 0x0, symName: __RNvXst_NtCsc29TF2YcYso_3syn10punctuatedINtB5_4IterNtNtB7_8generics14TypeParamBoundENtNtNtNtCsaNl6UpbT7bw_4core4iter6traits8iterator8Iterator9size_hintCs2KWZukAWMkS_10displaydoc, symObjAddr: 0x3174, symBinAddr: 0xD3D4, symSize: 0x7C }
  - { offset: 0x24021, size: 0x8, addend: 0x0, symName: __RNvXst_NtCsc29TF2YcYso_3syn10punctuatedINtB5_4IterNtNtB7_8generics14WherePredicateENtNtNtNtCsaNl6UpbT7bw_4core4iter6traits8iterator8Iterator4nextCs2KWZukAWMkS_10displaydoc, symObjAddr: 0x31F0, symBinAddr: 0xD450, symSize: 0x48 }
  - { offset: 0x2405E, size: 0x8, addend: 0x0, symName: __RNvXsv_NtCsc29TF2YcYso_3syn10punctuatedINtB5_4IterNtNtB7_4data7VariantENtNtNtNtCsaNl6UpbT7bw_4core4iter6traits10exact_size17ExactSizeIterator3lenCs2KWZukAWMkS_10displaydoc, symObjAddr: 0x3238, symBinAddr: 0xD498, symSize: 0x48 }
  - { offset: 0x24095, size: 0x8, addend: 0x0, symName: __RNvXsv_NtCsc29TF2YcYso_3syn10punctuatedINtB5_4IterNtNtB7_8generics14TypeParamBoundENtNtNtNtCsaNl6UpbT7bw_4core4iter6traits10exact_size17ExactSizeIterator3lenCs2KWZukAWMkS_10displaydoc, symObjAddr: 0x3280, symBinAddr: 0xD4E0, symSize: 0x48 }
  - { offset: 0x240D2, size: 0x8, addend: 0x0, symName: __RNvXsy_NtCsc29TF2YcYso_3syn10punctuatedINtB5_11PrivateIterNtNtB7_4data7VariantNtNtB7_5token5CommaENtNtNtNtCsaNl6UpbT7bw_4core4iter6traits10exact_size17ExactSizeIterator3lenCs2KWZukAWMkS_10displaydoc, symObjAddr: 0x33D0, symBinAddr: 0xD630, symSize: 0x94 }
  - { offset: 0x24146, size: 0x8, addend: 0x0, symName: __RNvXsy_NtCsc29TF2YcYso_3syn10punctuatedINtB5_11PrivateIterNtNtB7_8generics14WherePredicateNtNtB7_5token5CommaENtNtNtNtCsaNl6UpbT7bw_4core4iter6traits10exact_size17ExactSizeIterator3lenCs2KWZukAWMkS_10displaydoc, symObjAddr: 0x3464, symBinAddr: 0xD6C4, symSize: 0x94 }
  - { offset: 0x241C0, size: 0x8, addend: 0x0, symName: __RNvXsz_NtCsc29TF2YcYso_3syn10punctuatedINtB5_11PrivateIterNtNtB7_4data7VariantNtNtB7_5token5CommaENtNtCsaNl6UpbT7bw_4core5clone5Clone5cloneCs2KWZukAWMkS_10displaydoc, symObjAddr: 0x34F8, symBinAddr: 0xD758, symSize: 0x68 }
  - { offset: 0x24200, size: 0x8, addend: 0x0, symName: __RNvXsz_NtCsc29TF2YcYso_3syn10punctuatedINtB5_11PrivateIterNtNtB7_8generics14WherePredicateNtNtB7_5token5CommaENtNtCsaNl6UpbT7bw_4core5clone5Clone5cloneCs2KWZukAWMkS_10displaydoc, symObjAddr: 0x3560, symBinAddr: 0xD7C0, symSize: 0x68 }
  - { offset: 0x29E22, size: 0x8, addend: 0x0, symName: __RINvXsd_NtCsiTraAjBDcu4_5alloc3vecINtB6_3VecINtNtCsaNl6UpbT7bw_4core6option6OptionNtNtCs2KWZukAWMkS_10displaydoc4attr14VariantDisplayEEINtNtNtNtBL_4iter6traits7collect12FromIteratorBG_E9from_iterINtNtB2g_8adapters12GenericShuntINtNtB3a_3map3MapINtNtCsc29TF2YcYso_3syn10punctuated4IterNtNtB3Z_4data7VariantENCNvNtB1m_6expand9impl_enum0EINtNtBL_6result6ResultNtNtBL_7convert10InfallibleNtNtB3Z_5error5ErrorEEEB1m_, symObjAddr: 0x8EC, symBinAddr: 0xAB4C, symSize: 0x3C }
  - { offset: 0x29E63, size: 0x8, addend: 0x0, symName: __RINvXsd_NtCsiTraAjBDcu4_5alloc3vecINtB6_3VecNtCshnvkK9b4wzu_11proc_macro211TokenStreamEINtNtNtNtCsaNl6UpbT7bw_4core4iter6traits7collect12FromIteratorBG_E9from_iterINtNtB1u_8adapters12GenericShuntINtNtB2E_3map3MapINtNtB2E_3zip3ZipINtNtCsc29TF2YcYso_3syn10punctuated4IterNtNtB3K_4data7VariantEINtNtB6_9into_iter8IntoIterINtNtB1w_6option6OptionNtNtCs2KWZukAWMkS_10displaydoc4attr14VariantDisplayEEENCNvNtB5x_6expand9impl_enums_0EINtNtB1w_6result6ResultNtNtB1w_7convert10InfallibleNtNtB3K_5error5ErrorEEEB5x_, symObjAddr: 0x928, symBinAddr: 0xAB88, symSize: 0x3C }
  - { offset: 0x29EA4, size: 0x8, addend: 0x0, symName: __RINvXsd_NtCsiTraAjBDcu4_5alloc3vecINtB6_3VecNtNtCsc29TF2YcYso_3syn8generics10TraitBoundEINtNtNtNtCsaNl6UpbT7bw_4core4iter6traits7collect12FromIteratorBG_E9from_iterINtNtNtB1v_8adapters6cloned6ClonedINtNtB2H_7flatten7FlatMapINtNtBK_10punctuated4IterNtBI_14TypeParamBoundEINtNtB1x_6option6OptionRBG_ENCNCNvNtCs2KWZukAWMkS_10displaydoc6expand37extract_trait_constraints_from_source00EEEB4U_, symObjAddr: 0x964, symBinAddr: 0xABC4, symSize: 0x3C }
  - { offset: 0x29EE5, size: 0x8, addend: 0x0, symName: __RINvXsd_NtCsiTraAjBDcu4_5alloc3vecINtB6_3VecRNtNtCsc29TF2YcYso_3syn8generics9TypeParamEINtNtNtNtCsaNl6UpbT7bw_4core4iter6traits7collect12FromIteratorBG_E9from_iterNtBJ_10TypeParamsECs2KWZukAWMkS_10displaydoc, symObjAddr: 0x9A0, symBinAddr: 0xAC00, symSize: 0x40 }
  - { offset: 0x29F25, size: 0x8, addend: 0x0, symName: __RINvXsd_NtCsiTraAjBDcu4_5alloc3vecINtB6_3VecReEINtNtNtNtCsaNl6UpbT7bw_4core4iter6traits7collect12FromIteratorBG_E9from_iterINtNtNtBQ_8adapters3map3MapNtNtNtBS_3str4iter5LinesNCNvMs0_NtCs2KWZukAWMkS_10displaydoc4attrNtB2U_11AttrsHelper7displays0_0EEB2W_, symObjAddr: 0x9E0, symBinAddr: 0xAC40, symSize: 0x3C }
  - { offset: 0x29F71, size: 0x8, addend: 0x0, symName: __RNvXNtNtCsiTraAjBDcu4_5alloc3vec11spec_extendINtB4_3VecINtNtCsaNl6UpbT7bw_4core6option6OptionNtNtCs2KWZukAWMkS_10displaydoc4attr14VariantDisplayEEINtB2_10SpecExtendBR_INtNtNtBW_4iter8adapters12GenericShuntINtNtB2I_3map3MapINtNtCsc29TF2YcYso_3syn10punctuated4IterNtNtB3D_4data7VariantENCNvNtB1x_6expand9impl_enum0EINtNtBW_6result6ResultNtNtBW_7convert10InfallibleNtNtB3D_5error5ErrorEEE11spec_extendB1x_, symObjAddr: 0x1D9C, symBinAddr: 0xBFFC, symSize: 0x24 }
  - { offset: 0x29FC3, size: 0x8, addend: 0x0, symName: __RNvXNtNtCsiTraAjBDcu4_5alloc3vec11spec_extendINtB4_3VecNtCshnvkK9b4wzu_11proc_macro211TokenStreamEINtB2_10SpecExtendBR_INtNtNtCsaNl6UpbT7bw_4core4iter8adapters12GenericShuntINtNtB1W_3map3MapINtNtB1W_3zip3ZipINtNtCsc29TF2YcYso_3syn10punctuated4IterNtNtB3o_4data7VariantEINtNtB4_9into_iter8IntoIterINtNtB20_6option6OptionNtNtCs2KWZukAWMkS_10displaydoc4attr14VariantDisplayEEENCNvNtB5b_6expand9impl_enums_0EINtNtB20_6result6ResultNtNtB20_7convert10InfallibleNtNtB3o_5error5ErrorEEE11spec_extendB5b_, symObjAddr: 0x1DC0, symBinAddr: 0xC020, symSize: 0x24 }
  - { offset: 0x2A015, size: 0x8, addend: 0x0, symName: __RNvXNtNtCsiTraAjBDcu4_5alloc3vec11spec_extendINtB4_3VecNtNtCsc29TF2YcYso_3syn8generics10TraitBoundEINtB2_10SpecExtendBR_INtNtNtNtCsaNl6UpbT7bw_4core4iter8adapters6cloned6ClonedINtNtB1Z_7flatten7FlatMapINtNtBV_10punctuated4IterNtBT_14TypeParamBoundEINtNtB23_6option6OptionRBR_ENCNCNvNtCs2KWZukAWMkS_10displaydoc6expand37extract_trait_constraints_from_source00EEE11spec_extendB4y_, symObjAddr: 0x1DE4, symBinAddr: 0xC044, symSize: 0x24 }
  - { offset: 0x2A067, size: 0x8, addend: 0x0, symName: __RNvXNtNtCsiTraAjBDcu4_5alloc3vec11spec_extendINtB4_3VecRNtNtCsc29TF2YcYso_3syn8generics9TypeParamEINtB2_10SpecExtendBR_NtBU_10TypeParamsE11spec_extendCs2KWZukAWMkS_10displaydoc, symObjAddr: 0x1E08, symBinAddr: 0xC068, symSize: 0x34 }
  - { offset: 0x2A0B8, size: 0x8, addend: 0x0, symName: __RNvXNtNtCsiTraAjBDcu4_5alloc3vec11spec_extendINtB4_3VecReEINtB2_10SpecExtendBR_INtNtNtNtCsaNl6UpbT7bw_4core4iter8adapters3map3MapNtNtNtB1o_3str4iter5LinesNCNvMs0_NtCs2KWZukAWMkS_10displaydoc4attrNtB2A_11AttrsHelper7displays0_0EE11spec_extendB2C_, symObjAddr: 0x1E3C, symBinAddr: 0xC09C, symSize: 0x24 }
  - { offset: 0x2A116, size: 0x8, addend: 0x0, symName: __RNvXNtNtCsiTraAjBDcu4_5alloc3vec14spec_from_iterINtB4_3VecINtNtCsaNl6UpbT7bw_4core6option6OptionNtNtCs2KWZukAWMkS_10displaydoc4attr14VariantDisplayEEINtB2_12SpecFromIterBU_INtNtNtBZ_4iter8adapters12GenericShuntINtNtB2N_3map3MapINtNtCsc29TF2YcYso_3syn10punctuated4IterNtNtB3I_4data7VariantENCNvNtB1A_6expand9impl_enum0EINtNtBZ_6result6ResultNtNtBZ_7convert10InfallibleNtNtB3I_5error5ErrorEEE9from_iterB1A_, symObjAddr: 0x1E60, symBinAddr: 0xC0C0, symSize: 0x14 }
  - { offset: 0x2A155, size: 0x8, addend: 0x0, symName: __RNvXNtNtCsiTraAjBDcu4_5alloc3vec14spec_from_iterINtB4_3VecNtCshnvkK9b4wzu_11proc_macro211TokenStreamEINtB2_12SpecFromIterBU_INtNtNtCsaNl6UpbT7bw_4core4iter8adapters12GenericShuntINtNtB21_3map3MapINtNtB21_3zip3ZipINtNtCsc29TF2YcYso_3syn10punctuated4IterNtNtB3t_4data7VariantEINtNtB4_9into_iter8IntoIterINtNtB25_6option6OptionNtNtCs2KWZukAWMkS_10displaydoc4attr14VariantDisplayEEENCNvNtB5g_6expand9impl_enums_0EINtNtB25_6result6ResultNtNtB25_7convert10InfallibleNtNtB3t_5error5ErrorEEE9from_iterB5g_, symObjAddr: 0x1E74, symBinAddr: 0xC0D4, symSize: 0x14 }
  - { offset: 0x2A194, size: 0x8, addend: 0x0, symName: __RNvXNtNtCsiTraAjBDcu4_5alloc3vec14spec_from_iterINtB4_3VecNtNtCsc29TF2YcYso_3syn8generics10TraitBoundEINtB2_12SpecFromIterBU_INtNtNtNtCsaNl6UpbT7bw_4core4iter8adapters6cloned6ClonedINtNtB24_7flatten7FlatMapINtNtBY_10punctuated4IterNtBW_14TypeParamBoundEINtNtB28_6option6OptionRBU_ENCNCNvNtCs2KWZukAWMkS_10displaydoc6expand37extract_trait_constraints_from_source00EEE9from_iterB4D_, symObjAddr: 0x1E88, symBinAddr: 0xC0E8, symSize: 0x14 }
  - { offset: 0x2A1D3, size: 0x8, addend: 0x0, symName: __RNvXNtNtCsiTraAjBDcu4_5alloc3vec14spec_from_iterINtB4_3VecRNtNtCsc29TF2YcYso_3syn8generics9TypeParamEINtB2_12SpecFromIterBU_NtBX_10TypeParamsE9from_iterCs2KWZukAWMkS_10displaydoc, symObjAddr: 0x1E9C, symBinAddr: 0xC0FC, symSize: 0x2C }
  - { offset: 0x2A211, size: 0x8, addend: 0x0, symName: __RNvXNtNtCsiTraAjBDcu4_5alloc3vec14spec_from_iterINtB4_3VecReEINtB2_12SpecFromIterBU_INtNtNtNtCsaNl6UpbT7bw_4core4iter8adapters3map3MapNtNtNtB1t_3str4iter5LinesNCNvMs0_NtCs2KWZukAWMkS_10displaydoc4attrNtB2F_11AttrsHelper7displays0_0EE9from_iterB2H_, symObjAddr: 0x1EC8, symBinAddr: 0xC128, symSize: 0x14 }
  - { offset: 0x2A25C, size: 0x8, addend: 0x0, symName: __RNvXNtNtCsiTraAjBDcu4_5alloc3vec21spec_from_iter_nestedINtB4_3VecINtNtCsaNl6UpbT7bw_4core6option6OptionNtNtCs2KWZukAWMkS_10displaydoc4attr14VariantDisplayEEINtB2_18SpecFromIterNestedB11_INtNtNtB16_4iter8adapters12GenericShuntINtNtB31_3map3MapINtNtCsc29TF2YcYso_3syn10punctuated4IterNtNtB3X_4data7VariantENCNvNtB1H_6expand9impl_enum0EINtNtB16_6result6ResultNtNtB16_7convert10InfallibleNtNtB3X_5error5ErrorEEE9from_iterB1H_, symObjAddr: 0x1EDC, symBinAddr: 0xC13C, symSize: 0x24C }
  - { offset: 0x2A47B, size: 0x8, addend: 0x0, symName: __RNvXNtNtCsiTraAjBDcu4_5alloc3vec21spec_from_iter_nestedINtB4_3VecNtCshnvkK9b4wzu_11proc_macro211TokenStreamEINtB2_18SpecFromIterNestedB11_INtNtNtCsaNl6UpbT7bw_4core4iter8adapters12GenericShuntINtNtB2f_3map3MapINtNtB2f_3zip3ZipINtNtCsc29TF2YcYso_3syn10punctuated4IterNtNtB3H_4data7VariantEINtNtB4_9into_iter8IntoIterINtNtB2j_6option6OptionNtNtCs2KWZukAWMkS_10displaydoc4attr14VariantDisplayEEENCNvNtB5u_6expand9impl_enums_0EINtNtB2j_6result6ResultNtNtB2j_7convert10InfallibleNtNtB3H_5error5ErrorEEE9from_iterB5u_, symObjAddr: 0x2128, symBinAddr: 0xC388, symSize: 0x234 }
  - { offset: 0x2A69A, size: 0x8, addend: 0x0, symName: __RNvXNtNtCsiTraAjBDcu4_5alloc3vec21spec_from_iter_nestedINtB4_3VecNtNtCsc29TF2YcYso_3syn8generics10TraitBoundEINtB2_18SpecFromIterNestedB11_INtNtNtNtCsaNl6UpbT7bw_4core4iter8adapters6cloned6ClonedINtNtB2i_7flatten7FlatMapINtNtB15_10punctuated4IterNtB13_14TypeParamBoundEINtNtB2m_6option6OptionRB11_ENCNCNvNtCs2KWZukAWMkS_10displaydoc6expand37extract_trait_constraints_from_source00EEE9from_iterB4U_, symObjAddr: 0x235C, symBinAddr: 0xC5BC, symSize: 0x248 }
  - { offset: 0x2A8B9, size: 0x8, addend: 0x0, symName: __RNvXNtNtCsiTraAjBDcu4_5alloc3vec21spec_from_iter_nestedINtB4_3VecRNtNtCsc29TF2YcYso_3syn8generics9TypeParamEINtB2_18SpecFromIterNestedB11_NtB14_10TypeParamsE9from_iterCs2KWZukAWMkS_10displaydoc, symObjAddr: 0x25A4, symBinAddr: 0xC804, symSize: 0x204 }
  - { offset: 0x2AAD7, size: 0x8, addend: 0x0, symName: __RNvXNtNtCsiTraAjBDcu4_5alloc3vec21spec_from_iter_nestedINtB4_3VecReEINtB2_18SpecFromIterNestedB11_INtNtNtNtCsaNl6UpbT7bw_4core4iter8adapters3map3MapNtNtNtB1H_3str4iter5LinesNCNvMs0_NtCs2KWZukAWMkS_10displaydoc4attrNtB2T_11AttrsHelper7displays0_0EE9from_iterB2V_, symObjAddr: 0x27A8, symBinAddr: 0xCA08, symSize: 0x22C }
  - { offset: 0x2ACFD, size: 0x8, addend: 0x0, symName: __RNvXs6_NtCsiTraAjBDcu4_5alloc3vecINtB5_3VecINtNtCsaNl6UpbT7bw_4core6option6OptionNtNtCs2KWZukAWMkS_10displaydoc4attr14VariantDisplayEENtNtNtBK_3ops5deref5Deref5derefB1l_, symObjAddr: 0x2A44, symBinAddr: 0xCCA4, symSize: 0x24 }
  - { offset: 0x2AD3D, size: 0x8, addend: 0x0, symName: __RNvXs6_NtCsiTraAjBDcu4_5alloc3vecINtB5_3VecNtCshnvkK9b4wzu_11proc_macro211TokenStreamENtNtNtCsaNl6UpbT7bw_4core3ops5deref5Deref5derefCs2KWZukAWMkS_10displaydoc, symObjAddr: 0x2A68, symBinAddr: 0xCCC8, symSize: 0x24 }
  - { offset: 0x2AD7D, size: 0x8, addend: 0x0, symName: __RNvXs6_NtCsiTraAjBDcu4_5alloc3vecINtB5_3VecRNtNtCsc29TF2YcYso_3syn8generics9TypeParamENtNtNtCsaNl6UpbT7bw_4core3ops5deref5Deref5derefCs2KWZukAWMkS_10displaydoc, symObjAddr: 0x2A8C, symBinAddr: 0xCCEC, symSize: 0x24 }
  - { offset: 0x2ADC3, size: 0x8, addend: 0x0, symName: __RNvXs7_NtCsiTraAjBDcu4_5alloc3vecINtB5_3VecTNtNtCsc29TF2YcYso_3syn8generics14WherePredicateNtNtBK_5token5CommaEENtNtNtCsaNl6UpbT7bw_4core3ops5deref8DerefMut9deref_mutCs2KWZukAWMkS_10displaydoc, symObjAddr: 0x2AB0, symBinAddr: 0xCD10, symSize: 0x24 }
  - { offset: 0x2AE09, size: 0x8, addend: 0x0, symName: __RNvXse_NtCsiTraAjBDcu4_5alloc3vecINtB5_3VecINtNtCsaNl6UpbT7bw_4core6option6OptionNtNtCs2KWZukAWMkS_10displaydoc4attr14VariantDisplayEENtNtNtNtBK_4iter6traits7collect12IntoIterator9into_iterB1l_, symObjAddr: 0x2F00, symBinAddr: 0xD160, symSize: 0xE4 }
  - { offset: 0x2B0A1, size: 0x8, addend: 0x0, symName: __RNvXsn_NtCsiTraAjBDcu4_5alloc3vecINtB5_3VecINtNtCsaNl6UpbT7bw_4core6option6OptionNtNtCs2KWZukAWMkS_10displaydoc4attr14VariantDisplayEENtNtNtBK_3ops4drop4Drop4dropB1l_, symObjAddr: 0x2FE4, symBinAddr: 0xD244, symSize: 0x38 }
  - { offset: 0x2B151, size: 0x8, addend: 0x0, symName: __RNvXsn_NtCsiTraAjBDcu4_5alloc3vecINtB5_3VecNtCshnvkK9b4wzu_11proc_macro211TokenStreamENtNtNtCsaNl6UpbT7bw_4core3ops4drop4Drop4dropCs2KWZukAWMkS_10displaydoc, symObjAddr: 0x301C, symBinAddr: 0xD27C, symSize: 0x38 }
  - { offset: 0x2B201, size: 0x8, addend: 0x0, symName: __RNvXsn_NtCsiTraAjBDcu4_5alloc3vecINtB5_3VecNtNtCsc29TF2YcYso_3syn8generics10TraitBoundENtNtNtCsaNl6UpbT7bw_4core3ops4drop4Drop4dropCs2KWZukAWMkS_10displaydoc, symObjAddr: 0x3054, symBinAddr: 0xD2B4, symSize: 0x38 }
  - { offset: 0x2B2B1, size: 0x8, addend: 0x0, symName: __RNvXsn_NtCsiTraAjBDcu4_5alloc3vecINtB5_3VecRNtNtCsc29TF2YcYso_3syn8generics9TypeParamENtNtNtCsaNl6UpbT7bw_4core3ops4drop4Drop4dropCs2KWZukAWMkS_10displaydoc, symObjAddr: 0x308C, symBinAddr: 0xD2EC, symSize: 0x24 }
  - { offset: 0x309AB, size: 0x8, addend: 0x0, symName: __RINvYINtNtCsc29TF2YcYso_3syn10punctuated11PrivateIterNtNtB8_4data7VariantNtNtB8_5token5CommaENtNtNtNtCsaNl6UpbT7bw_4core4iter6traits8iterator8Iterator8try_foldINtNtNtB1B_3num7nonzero7NonZerojENCNvXs_NvB1t_10advance_byB3_NtB3b_13SpecAdvanceBy15spec_advance_by0INtNtB1B_6option6OptionB2x_EECs2KWZukAWMkS_10displaydoc, symObjAddr: 0xA1C, symBinAddr: 0xAC7C, symSize: 0x154 }
  - { offset: 0x30A5F, size: 0x8, addend: 0x0, symName: __RINvYINtNtCsc29TF2YcYso_3syn10punctuated11PrivateIterNtNtB8_8generics14WherePredicateNtNtB8_5token5CommaENtNtNtNtCsaNl6UpbT7bw_4core4iter6traits8iterator8Iterator8try_foldINtNtNtB1N_3num7nonzero7NonZerojENCNvXs_NvB1F_10advance_byB3_NtB3n_13SpecAdvanceBy15spec_advance_by0INtNtB1N_6option6OptionB2J_EECs2KWZukAWMkS_10displaydoc, symObjAddr: 0xB70, symBinAddr: 0xADD0, symSize: 0x154 }
  - { offset: 0x30B13, size: 0x8, addend: 0x0, symName: __RINvYINtNtCsc29TF2YcYso_3syn10punctuated14PrivateIterMutNtNtB8_8generics14WherePredicateNtNtB8_5token5CommaENtNtNtNtCsaNl6UpbT7bw_4core4iter6traits8iterator8Iterator8try_foldINtNtNtB1Q_3num7nonzero7NonZerojENCNvXs_NvB1I_10advance_byB3_NtB3q_13SpecAdvanceBy15spec_advance_by0INtNtB1Q_6option6OptionB2M_EECs2KWZukAWMkS_10displaydoc, symObjAddr: 0xCC4, symBinAddr: 0xAF24, symSize: 0x154 }
  - { offset: 0x30BC7, size: 0x8, addend: 0x0, symName: __RINvYINtNtCsc29TF2YcYso_3syn10punctuated4IterNtNtB8_4data5FieldENtNtNtNtCsaNl6UpbT7bw_4core4iter6traits8iterator8Iterator3mapRINtNtB18_6option6OptionNtCshnvkK9b4wzu_11proc_macro25IdentENCNCNvNtCs2KWZukAWMkS_10displaydoc6expand11impl_struct00EB35_, symObjAddr: 0xE18, symBinAddr: 0xB078, symSize: 0x1C }
  - { offset: 0x30C1F, size: 0x8, addend: 0x0, symName: __RINvYINtNtCsc29TF2YcYso_3syn10punctuated4IterNtNtB8_4data5FieldENtNtNtNtCsaNl6UpbT7bw_4core4iter6traits8iterator8Iterator3mapRINtNtB18_6option6OptionNtCshnvkK9b4wzu_11proc_macro25IdentENCNCNvNtCs2KWZukAWMkS_10displaydoc6expand9impl_enums_0s_0EB35_, symObjAddr: 0xE34, symBinAddr: 0xB094, symSize: 0x1C }
  - { offset: 0x30C77, size: 0x8, addend: 0x0, symName: __RINvYINtNtCsc29TF2YcYso_3syn10punctuated4IterNtNtB8_4data7VariantENtNtNtNtCsaNl6UpbT7bw_4core4iter6traits8iterator8Iterator3mapINtNtB1a_6result6ResultINtNtB1a_6option6OptionNtNtCs2KWZukAWMkS_10displaydoc4attr14VariantDisplayENtNtB8_5error5ErrorENCNvNtB2P_6expand9impl_enum0EB2P_, symObjAddr: 0xE50, symBinAddr: 0xB0B0, symSize: 0x3C }
  - { offset: 0x30CE4, size: 0x8, addend: 0x0, symName: __RINvYINtNtCsc29TF2YcYso_3syn10punctuated4IterNtNtB8_4data7VariantENtNtNtNtCsaNl6UpbT7bw_4core4iter6traits8iterator8Iterator3zipINtNtCsiTraAjBDcu4_5alloc3vec3VecINtNtB1a_6option6OptionNtNtCs2KWZukAWMkS_10displaydoc4attr14VariantDisplayEEEB2Z_, symObjAddr: 0xE8C, symBinAddr: 0xB0EC, symSize: 0xA0 }
  - { offset: 0x30D5A, size: 0x8, addend: 0x0, symName: __RINvYINtNtCsc29TF2YcYso_3syn10punctuated4IterNtNtB8_4data7VariantENtNtNtNtCsaNl6UpbT7bw_4core4iter6traits8iterator8Iterator8try_folduNCINvNtNtB18_8adapters3map12map_try_foldRBH_INtNtB1a_6result6ResultINtNtB1a_6option6OptionNtNtCs2KWZukAWMkS_10displaydoc4attr14VariantDisplayENtNtB8_5error5ErrorEuINtNtNtB1a_3ops12control_flow11ControlFlowIB4L_B3c_EENCNvNtB3D_6expand9impl_enum0NCINvXB2e_INtB2e_12GenericShuntINtB2c_3MapB3_B5B_EIB2Q_NtNtB1a_7convert10InfallibleB4p_EEB12_8try_folduNCINvNvB12_12try_for_each4callB3c_B5q_NcNtB5q_5Break0E0B5q_E0E0B4K_EB3D_, symObjAddr: 0xF2C, symBinAddr: 0xB18C, symSize: 0x148 }
  - { offset: 0x30E16, size: 0x8, addend: 0x0, symName: __RINvYINtNtCsc29TF2YcYso_3syn10punctuated4IterNtNtB8_8generics14TypeParamBoundENtNtNtNtCsaNl6UpbT7bw_4core4iter6traits8iterator8Iterator3mapINtNtB1m_6option6OptionRNtBJ_10TraitBoundENCNCNvNtCs2KWZukAWMkS_10displaydoc6expand37extract_trait_constraints_from_source00EB31_, symObjAddr: 0x1074, symBinAddr: 0xB2D4, symSize: 0x1C }
  - { offset: 0x30E95, size: 0x8, addend: 0x0, symName: __RINvYINtNtCsc29TF2YcYso_3syn10punctuated4IterNtNtB8_8generics14TypeParamBoundENtNtNtNtCsaNl6UpbT7bw_4core4iter6traits8iterator8Iterator8flat_mapINtNtB1m_6option6OptionRNtBJ_10TraitBoundENCNCNvNtCs2KWZukAWMkS_10displaydoc6expand37extract_trait_constraints_from_source00EB36_, symObjAddr: 0x1090, symBinAddr: 0xB2F0, symSize: 0x94 }
  - { offset: 0x30F63, size: 0x8, addend: 0x0, symName: __RINvYINtNtCsc29TF2YcYso_3syn10punctuated7IterMutNtNtB8_8generics14WherePredicateENtNtNtNtCsaNl6UpbT7bw_4core4iter6traits8iterator8Iterator3mapINtNtB1p_6option6OptionQNtBM_13PredicateTypeENCNvNtCs2KWZukAWMkS_10displaydoc6expand39ensure_display_in_where_clause_for_type0EB35_, symObjAddr: 0x1124, symBinAddr: 0xB384, symSize: 0x1C }
  - { offset: 0x30FE2, size: 0x8, addend: 0x0, symName: __RINvYINtNtCsc29TF2YcYso_3syn10punctuated7IterMutNtNtB8_8generics14WherePredicateENtNtNtNtCsaNl6UpbT7bw_4core4iter6traits8iterator8Iterator8flat_mapINtNtB1p_6option6OptionQNtBM_13PredicateTypeENCNvNtCs2KWZukAWMkS_10displaydoc6expand39ensure_display_in_where_clause_for_type0EB3a_, symObjAddr: 0x1140, symBinAddr: 0xB3A0, symSize: 0x94 }
  - { offset: 0x310BA, size: 0x8, addend: 0x0, symName: __RNvXs_NvNtNtNtNtCsaNl6UpbT7bw_4core4iter6traits8iterator8Iterator10advance_byINtNtCsc29TF2YcYso_3syn10punctuated11PrivateIterNtNtB1i_4data7VariantNtNtB1i_5token5CommaENtB4_13SpecAdvanceBy15spec_advance_byCs2KWZukAWMkS_10displaydoc, symObjAddr: 0x2D5C, symBinAddr: 0xCFBC, symSize: 0x8C }
  - { offset: 0x31168, size: 0x8, addend: 0x0, symName: __RNvXs_NvNtNtNtNtCsaNl6UpbT7bw_4core4iter6traits8iterator8Iterator10advance_byINtNtCsc29TF2YcYso_3syn10punctuated11PrivateIterNtNtB1i_8generics14WherePredicateNtNtB1i_5token5CommaENtB4_13SpecAdvanceBy15spec_advance_byCs2KWZukAWMkS_10displaydoc, symObjAddr: 0x2DE8, symBinAddr: 0xD048, symSize: 0x8C }
  - { offset: 0x31216, size: 0x8, addend: 0x0, symName: __RNvXs_NvNtNtNtNtCsaNl6UpbT7bw_4core4iter6traits8iterator8Iterator10advance_byINtNtCsc29TF2YcYso_3syn10punctuated14PrivateIterMutNtNtB1i_8generics14WherePredicateNtNtB1i_5token5CommaENtB4_13SpecAdvanceBy15spec_advance_byCs2KWZukAWMkS_10displaydoc, symObjAddr: 0x2E74, symBinAddr: 0xD0D4, symSize: 0x8C }
  - { offset: 0x312E1, size: 0x8, addend: 0x0, symName: __RNvYINtNtCsc29TF2YcYso_3syn10punctuated11PrivateIterNtNtB7_4data7VariantNtNtB7_5token5CommaENtNtNtNtCsaNl6UpbT7bw_4core4iter6traits8iterator8Iterator10advance_byCs2KWZukAWMkS_10displaydoc, symObjAddr: 0x37B4, symBinAddr: 0xDA14, symSize: 0x28 }
  - { offset: 0x31327, size: 0x8, addend: 0x0, symName: __RNvYINtNtCsc29TF2YcYso_3syn10punctuated11PrivateIterNtNtB7_4data7VariantNtNtB7_5token5CommaENtNtNtNtCsaNl6UpbT7bw_4core4iter6traits8iterator8Iterator3nthCs2KWZukAWMkS_10displaydoc, symObjAddr: 0x37DC, symBinAddr: 0xDA3C, symSize: 0x7C }
  - { offset: 0x313F3, size: 0x8, addend: 0x0, symName: __RNvYINtNtCsc29TF2YcYso_3syn10punctuated11PrivateIterNtNtB7_4data7VariantNtNtB7_5token5CommaENtNtNtNtCsaNl6UpbT7bw_4core4iter6traits8iterator8Iterator9size_hintCs2KWZukAWMkS_10displaydoc, symObjAddr: 0x3858, symBinAddr: 0xDAB8, symSize: 0x34 }
  - { offset: 0x31428, size: 0x8, addend: 0x0, symName: __RNvYINtNtCsc29TF2YcYso_3syn10punctuated11PrivateIterNtNtB7_8generics14WherePredicateNtNtB7_5token5CommaENtNtNtNtCsaNl6UpbT7bw_4core4iter6traits8iterator8Iterator10advance_byCs2KWZukAWMkS_10displaydoc, symObjAddr: 0x3A78, symBinAddr: 0xDCD8, symSize: 0x28 }
  - { offset: 0x3146E, size: 0x8, addend: 0x0, symName: __RNvYINtNtCsc29TF2YcYso_3syn10punctuated11PrivateIterNtNtB7_8generics14WherePredicateNtNtB7_5token5CommaENtNtNtNtCsaNl6UpbT7bw_4core4iter6traits8iterator8Iterator3nthCs2KWZukAWMkS_10displaydoc, symObjAddr: 0x3AA0, symBinAddr: 0xDD00, symSize: 0x7C }
  - { offset: 0x3153A, size: 0x8, addend: 0x0, symName: __RNvYINtNtCsc29TF2YcYso_3syn10punctuated11PrivateIterNtNtB7_8generics14WherePredicateNtNtB7_5token5CommaENtNtNtNtCsaNl6UpbT7bw_4core4iter6traits8iterator8Iterator9size_hintCs2KWZukAWMkS_10displaydoc, symObjAddr: 0x3B1C, symBinAddr: 0xDD7C, symSize: 0x34 }
  - { offset: 0x3156F, size: 0x8, addend: 0x0, symName: __RNvYINtNtCsc29TF2YcYso_3syn10punctuated14PrivateIterMutNtNtB7_8generics14WherePredicateNtNtB7_5token5CommaENtNtNtNtCsaNl6UpbT7bw_4core4iter6traits8iterator8Iterator10advance_byCs2KWZukAWMkS_10displaydoc, symObjAddr: 0x3D3C, symBinAddr: 0xDF9C, symSize: 0x28 }
  - { offset: 0x315B5, size: 0x8, addend: 0x0, symName: __RNvYINtNtCsc29TF2YcYso_3syn10punctuated14PrivateIterMutNtNtB7_8generics14WherePredicateNtNtB7_5token5CommaENtNtNtNtCsaNl6UpbT7bw_4core4iter6traits8iterator8Iterator3nthCs2KWZukAWMkS_10displaydoc, symObjAddr: 0x3D64, symBinAddr: 0xDFC4, symSize: 0x7C }
  - { offset: 0x31681, size: 0x8, addend: 0x0, symName: __RNvYINtNtCsc29TF2YcYso_3syn10punctuated14PrivateIterMutNtNtB7_8generics14WherePredicateNtNtB7_5token5CommaENtNtNtNtCsaNl6UpbT7bw_4core4iter6traits8iterator8Iterator9size_hintCs2KWZukAWMkS_10displaydoc, symObjAddr: 0x3DE0, symBinAddr: 0xE040, symSize: 0x34 }
  - { offset: 0x316E1, size: 0x8, addend: 0x0, symName: __RNvXNtNtNtCsaNl6UpbT7bw_4core4iter6traits7collectINtNtCsc29TF2YcYso_3syn10punctuated4IterNtNtBQ_8generics14TypeParamBoundENtB2_12IntoIterator9into_iterCs2KWZukAWMkS_10displaydoc, symObjAddr: 0x29D4, symBinAddr: 0xCC34, symSize: 0x1C }
  - { offset: 0x31718, size: 0x8, addend: 0x0, symName: __RNvXNtNtNtCsaNl6UpbT7bw_4core4iter6traits7collectINtNtCsc29TF2YcYso_3syn10punctuated4IterNtNtBQ_8generics14WherePredicateENtB2_12IntoIterator9into_iterCs2KWZukAWMkS_10displaydoc, symObjAddr: 0x29F0, symBinAddr: 0xCC50, symSize: 0x1C }
  - { offset: 0x3175B, size: 0x8, addend: 0x0, symName: __RNvYINtNtCsc29TF2YcYso_3syn10punctuated11PrivateIterNtNtB7_4data7VariantNtNtB7_5token5CommaENtNtNtNtCsaNl6UpbT7bw_4core4iter6traits10exact_size17ExactSizeIterator8is_emptyCs2KWZukAWMkS_10displaydoc, symObjAddr: 0x35C8, symBinAddr: 0xD828, symSize: 0x2C }
  - { offset: 0x31790, size: 0x8, addend: 0x0, symName: __RNvYINtNtCsc29TF2YcYso_3syn10punctuated11PrivateIterNtNtB7_8generics14WherePredicateNtNtB7_5token5CommaENtNtNtNtCsaNl6UpbT7bw_4core4iter6traits10exact_size17ExactSizeIterator8is_emptyCs2KWZukAWMkS_10displaydoc, symObjAddr: 0x388C, symBinAddr: 0xDAEC, symSize: 0x2C }
  - { offset: 0x317C5, size: 0x8, addend: 0x0, symName: __RNvYINtNtCsc29TF2YcYso_3syn10punctuated14PrivateIterMutNtNtB7_8generics14WherePredicateNtNtB7_5token5CommaENtNtNtNtCsaNl6UpbT7bw_4core4iter6traits10exact_size17ExactSizeIterator8is_emptyCs2KWZukAWMkS_10displaydoc, symObjAddr: 0x3B50, symBinAddr: 0xDDB0, symSize: 0x2C }
  - { offset: 0x31806, size: 0x8, addend: 0x0, symName: __RNvYINtNtCsc29TF2YcYso_3syn10punctuated11PrivateIterNtNtB7_4data7VariantNtNtB7_5token5CommaENtNtNtNtCsaNl6UpbT7bw_4core4iter6traits12double_ended19DoubleEndedIterator15advance_back_byCs2KWZukAWMkS_10displaydoc, symObjAddr: 0x35F4, symBinAddr: 0xD854, symSize: 0x158 }
  - { offset: 0x31980, size: 0x8, addend: 0x0, symName: __RNvYINtNtCsc29TF2YcYso_3syn10punctuated11PrivateIterNtNtB7_4data7VariantNtNtB7_5token5CommaENtNtNtNtCsaNl6UpbT7bw_4core4iter6traits12double_ended19DoubleEndedIterator8nth_backCs2KWZukAWMkS_10displaydoc, symObjAddr: 0x374C, symBinAddr: 0xD9AC, symSize: 0x68 }
  - { offset: 0x319FE, size: 0x8, addend: 0x0, symName: __RNvYINtNtCsc29TF2YcYso_3syn10punctuated11PrivateIterNtNtB7_8generics14WherePredicateNtNtB7_5token5CommaENtNtNtNtCsaNl6UpbT7bw_4core4iter6traits12double_ended19DoubleEndedIterator15advance_back_byCs2KWZukAWMkS_10displaydoc, symObjAddr: 0x38B8, symBinAddr: 0xDB18, symSize: 0x158 }
  - { offset: 0x31B78, size: 0x8, addend: 0x0, symName: __RNvYINtNtCsc29TF2YcYso_3syn10punctuated11PrivateIterNtNtB7_8generics14WherePredicateNtNtB7_5token5CommaENtNtNtNtCsaNl6UpbT7bw_4core4iter6traits12double_ended19DoubleEndedIterator8nth_backCs2KWZukAWMkS_10displaydoc, symObjAddr: 0x3A10, symBinAddr: 0xDC70, symSize: 0x68 }
  - { offset: 0x31BF6, size: 0x8, addend: 0x0, symName: __RNvYINtNtCsc29TF2YcYso_3syn10punctuated14PrivateIterMutNtNtB7_8generics14WherePredicateNtNtB7_5token5CommaENtNtNtNtCsaNl6UpbT7bw_4core4iter6traits12double_ended19DoubleEndedIterator15advance_back_byCs2KWZukAWMkS_10displaydoc, symObjAddr: 0x3B7C, symBinAddr: 0xDDDC, symSize: 0x158 }
  - { offset: 0x31D70, size: 0x8, addend: 0x0, symName: __RNvYINtNtCsc29TF2YcYso_3syn10punctuated14PrivateIterMutNtNtB7_8generics14WherePredicateNtNtB7_5token5CommaENtNtNtNtCsaNl6UpbT7bw_4core4iter6traits12double_ended19DoubleEndedIterator8nth_backCs2KWZukAWMkS_10displaydoc, symObjAddr: 0x3CD4, symBinAddr: 0xDF34, symSize: 0x68 }
  - { offset: 0x32FD4, size: 0x8, addend: 0x0, symName: __RINvMsi_NtCsiTraAjBDcu4_5alloc3vecINtB6_3VecINtNtCsaNl6UpbT7bw_4core6option6OptionNtNtCs2KWZukAWMkS_10displaydoc4attr14VariantDisplayEE16extend_desugaredINtNtNtBL_4iter8adapters12GenericShuntINtNtB2u_3map3MapINtNtCsc29TF2YcYso_3syn10punctuated4IterNtNtB3p_4data7VariantENCNvNtB1m_6expand9impl_enum0EINtNtBL_6result6ResultNtNtBL_7convert10InfallibleNtNtB3p_5error5ErrorEEEB1m_, symObjAddr: 0x0, symBinAddr: 0xA260, symSize: 0x1FC }
  - { offset: 0x333AB, size: 0x8, addend: 0x0, symName: __RINvMsi_NtCsiTraAjBDcu4_5alloc3vecINtB6_3VecNtCshnvkK9b4wzu_11proc_macro211TokenStreamE16extend_desugaredINtNtNtCsaNl6UpbT7bw_4core4iter8adapters12GenericShuntINtNtB1I_3map3MapINtNtB1I_3zip3ZipINtNtCsc29TF2YcYso_3syn10punctuated4IterNtNtB3a_4data7VariantEINtNtB6_9into_iter8IntoIterINtNtB1M_6option6OptionNtNtCs2KWZukAWMkS_10displaydoc4attr14VariantDisplayEEENCNvNtB4X_6expand9impl_enums_0EINtNtB1M_6result6ResultNtNtB1M_7convert10InfallibleNtNtB3a_5error5ErrorEEEB4X_, symObjAddr: 0x1FC, symBinAddr: 0xA45C, symSize: 0x1D4 }
  - { offset: 0x337BD, size: 0x8, addend: 0x0, symName: __RINvMsi_NtCsiTraAjBDcu4_5alloc3vecINtB6_3VecNtNtCsc29TF2YcYso_3syn8generics10TraitBoundE16extend_desugaredINtNtNtNtCsaNl6UpbT7bw_4core4iter8adapters6cloned6ClonedINtNtB1L_7flatten7FlatMapINtNtBK_10punctuated4IterNtBI_14TypeParamBoundEINtNtB1P_6option6OptionRBG_ENCNCNvNtCs2KWZukAWMkS_10displaydoc6expand37extract_trait_constraints_from_source00EEEB4k_, symObjAddr: 0x3D0, symBinAddr: 0xA630, symSize: 0x1F8 }
  - { offset: 0x33BCF, size: 0x8, addend: 0x0, symName: __RINvMsi_NtCsiTraAjBDcu4_5alloc3vecINtB6_3VecRNtNtCsc29TF2YcYso_3syn8generics9TypeParamE16extend_desugaredNtBJ_10TypeParamsECs2KWZukAWMkS_10displaydoc, symObjAddr: 0x5C8, symBinAddr: 0xA828, symSize: 0x18C }
  - { offset: 0x33FCE, size: 0x8, addend: 0x0, symName: __RINvMsi_NtCsiTraAjBDcu4_5alloc3vecINtB6_3VecReE16extend_desugaredINtNtNtNtCsaNl6UpbT7bw_4core4iter8adapters3map3MapNtNtNtB1a_3str4iter5LinesNCNvMs0_NtCs2KWZukAWMkS_10displaydoc4attrNtB2m_11AttrsHelper7displays0_0EEB2o_, symObjAddr: 0x754, symBinAddr: 0xA9B4, symSize: 0x198 }
  - { offset: 0x3439D, size: 0x8, addend: 0x0, symName: __RNvMNtCsc29TF2YcYso_3syn10punctuatedINtB2_10PunctuatedNtNtB4_4data7VariantNtNtB4_5token5CommaE4iterCs2KWZukAWMkS_10displaydoc, symObjAddr: 0x13F0, symBinAddr: 0xB650, symSize: 0xC8 }
  - { offset: 0x343EE, size: 0x8, addend: 0x0, symName: __RNvMNtCsc29TF2YcYso_3syn10punctuatedINtB2_10PunctuatedNtNtB4_4data7VariantNtNtB4_5token5CommaE8is_emptyCs2KWZukAWMkS_10displaydoc, symObjAddr: 0x14B8, symBinAddr: 0xB718, symSize: 0x74 }
  - { offset: 0x3446A, size: 0x8, addend: 0x0, symName: __RNvMNtCsc29TF2YcYso_3syn10punctuatedINtB2_10PunctuatedNtNtB4_8generics14WherePredicateNtNtB4_5token5CommaE4iterCs2KWZukAWMkS_10displaydoc, symObjAddr: 0x152C, symBinAddr: 0xB78C, symSize: 0xC8 }
  - { offset: 0x344D5, size: 0x8, addend: 0x0, symName: __RNvMNtCsc29TF2YcYso_3syn10punctuatedINtB2_10PunctuatedNtNtB4_8generics14WherePredicateNtNtB4_5token5CommaE8iter_mutCs2KWZukAWMkS_10displaydoc, symObjAddr: 0x15F4, symBinAddr: 0xB854, symSize: 0xC8 }
  - { offset: 0x34656, size: 0x8, addend: 0x0, symName: __RNvMs_NtCsiTraAjBDcu4_5alloc3vecINtB4_3VecINtNtCsaNl6UpbT7bw_4core6option6OptionNtNtCs2KWZukAWMkS_10displaydoc4attr14VariantDisplayEE7reserveB1k_, symObjAddr: 0x16BC, symBinAddr: 0xB91C, symSize: 0xC8 }
  - { offset: 0x34854, size: 0x8, addend: 0x0, symName: __RNvMs_NtCsiTraAjBDcu4_5alloc3vecINtB4_3VecINtNtCsaNl6UpbT7bw_4core6option6OptionNtNtCs2KWZukAWMkS_10displaydoc4attr14VariantDisplayEE8as_sliceB1k_, symObjAddr: 0x1784, symBinAddr: 0xB9E4, symSize: 0x6C }
  - { offset: 0x34A24, size: 0x8, addend: 0x0, symName: __RNvMs_NtCsiTraAjBDcu4_5alloc3vecINtB4_3VecNtCshnvkK9b4wzu_11proc_macro211TokenStreamE7reserveCs2KWZukAWMkS_10displaydoc, symObjAddr: 0x17F0, symBinAddr: 0xBA50, symSize: 0xC8 }
  - { offset: 0x34C22, size: 0x8, addend: 0x0, symName: __RNvMs_NtCsiTraAjBDcu4_5alloc3vecINtB4_3VecNtCshnvkK9b4wzu_11proc_macro211TokenStreamE8as_sliceCs2KWZukAWMkS_10displaydoc, symObjAddr: 0x18B8, symBinAddr: 0xBB18, symSize: 0x6C }
  - { offset: 0x34DBB, size: 0x8, addend: 0x0, symName: __RNvMs_NtCsiTraAjBDcu4_5alloc3vecINtB4_3VecNtNtCsc29TF2YcYso_3syn8generics10TraitBoundE4pushCs2KWZukAWMkS_10displaydoc, symObjAddr: 0x1924, symBinAddr: 0xBB84, symSize: 0x120 }
  - { offset: 0x35088, size: 0x8, addend: 0x0, symName: __RNvMs_NtCsiTraAjBDcu4_5alloc3vecINtB4_3VecNtNtCsc29TF2YcYso_3syn8generics10TraitBoundE7reserveCs2KWZukAWMkS_10displaydoc, symObjAddr: 0x1A44, symBinAddr: 0xBCA4, symSize: 0xC8 }
  - { offset: 0x35214, size: 0x8, addend: 0x0, symName: __RNvMs_NtCsiTraAjBDcu4_5alloc3vecINtB4_3VecNtNtCsc29TF2YcYso_3syn8generics10TraitBoundE8is_emptyCs2KWZukAWMkS_10displaydoc, symObjAddr: 0x1B0C, symBinAddr: 0xBD6C, symSize: 0x20 }
  - { offset: 0x3537D, size: 0x8, addend: 0x0, symName: __RNvMs_NtCsiTraAjBDcu4_5alloc3vecINtB4_3VecRNtNtCsc29TF2YcYso_3syn8generics9TypeParamE7reserveCs2KWZukAWMkS_10displaydoc, symObjAddr: 0x1B2C, symBinAddr: 0xBD8C, symSize: 0xBC }
  - { offset: 0x3557B, size: 0x8, addend: 0x0, symName: __RNvMs_NtCsiTraAjBDcu4_5alloc3vecINtB4_3VecRNtNtCsc29TF2YcYso_3syn8generics9TypeParamE8as_sliceCs2KWZukAWMkS_10displaydoc, symObjAddr: 0x1BE8, symBinAddr: 0xBE48, symSize: 0x68 }
  - { offset: 0x3574B, size: 0x8, addend: 0x0, symName: __RNvMs_NtCsiTraAjBDcu4_5alloc3vecINtB4_3VecReE7reserveCs2KWZukAWMkS_10displaydoc, symObjAddr: 0x1C50, symBinAddr: 0xBEB0, symSize: 0xC8 }
  - { offset: 0x358BF, size: 0x8, addend: 0x0, symName: __RNvMs_NtCsiTraAjBDcu4_5alloc3vecINtB4_3VecTNtNtCsc29TF2YcYso_3syn4data7VariantNtNtBJ_5token5CommaEE3lenCs2KWZukAWMkS_10displaydoc, symObjAddr: 0x1D18, symBinAddr: 0xBF78, symSize: 0x18 }
  - { offset: 0x359B5, size: 0x8, addend: 0x0, symName: __RNvMs_NtCsiTraAjBDcu4_5alloc3vecINtB4_3VecTNtNtCsc29TF2YcYso_3syn8generics14WherePredicateNtNtBJ_5token5CommaEE12as_mut_sliceCs2KWZukAWMkS_10displaydoc, symObjAddr: 0x1D30, symBinAddr: 0xBF90, symSize: 0x6C }
  - { offset: 0x360D8, size: 0x8, addend: 0x0, symName: __RNvXs4_NtNtCs4EAaWzSXu1l_5quote9___private3extINtNtCsiTraAjBDcu4_5alloc3vec3VecNtCshnvkK9b4wzu_11proc_macro211TokenStreamENtB5_16RepAsIteratorExt15quote_into_iterCs2KWZukAWMkS_10displaydoc, symObjAddr: 0x2A0C, symBinAddr: 0xCC6C, symSize: 0x38 }
  - { offset: 0x36974, size: 0x8, addend: 0x0, symName: __RINvMNtCsaNl6UpbT7bw_4core6optionINtB3_6OptionNtNtCs2KWZukAWMkS_10displaydoc4attr14VariantDisplayE10ok_or_elseNtNtCsc29TF2YcYso_3syn5error5ErrorNCNCNvNtBM_6expand9impl_enums_00EBM_, symObjAddr: 0x0, symBinAddr: 0xE074, symSize: 0x9C }
  - { offset: 0x3C24D, size: 0x8, addend: 0x0, symName: __RNvXss_NtCsiTraAjBDcu4_5alloc6stringNtB5_6StringNtNtNtCsaNl6UpbT7bw_4core3ops5deref5Deref5derefCs2KWZukAWMkS_10displaydoc, symObjAddr: 0x32F8, symBinAddr: 0x1136C, symSize: 0x24 }
  - { offset: 0x3C281, size: 0x8, addend: 0x0, symName: __RINvXsn_NtCsiTraAjBDcu4_5alloc6stringNtB6_6StringNtNtCsaNl6UpbT7bw_4core4hash4Hash4hashNtNtNtCsht3nMU9UgFu_3std4hash6random13DefaultHasherECs2KWZukAWMkS_10displaydoc, symObjAddr: 0xB84, symBinAddr: 0xEBF8, symSize: 0x90 }
  - { offset: 0x3C42F, size: 0x8, addend: 0x0, symName: __RNvXsp_NtCsiTraAjBDcu4_5alloc6stringNtB5_6StringINtNtNtCsaNl6UpbT7bw_4core3ops5arith9AddAssignReE10add_assignCs2KWZukAWMkS_10displaydoc, symObjAddr: 0x31A4, symBinAddr: 0x11218, symSize: 0x38 }
  - { offset: 0x3D165, size: 0x8, addend: 0x0, symName: __RNCINvNtNtCs7yrEGia95Wz_10proc_macro6bridge6client10run_clientNtB4_11TokenStreamINtNtCsaNl6UpbT7bw_4core6option6OptionBY_ENCNCINvMs6_B4_INtB4_6ClientNtB8_11TokenStreamB2n_E7expand1NvCs2KWZukAWMkS_10displaydoc12derive_errorE00E0B2U_, symObjAddr: 0xD58, symBinAddr: 0xEDCC, symSize: 0x324 }
  - { offset: 0x3D38F, size: 0x8, addend: 0x0, symName: __RNCNCINvNtNtCs7yrEGia95Wz_10proc_macro6bridge6client10run_clientNtB6_11TokenStreamINtNtCsaNl6UpbT7bw_4core6option6OptionB10_ENCNCINvMs6_B6_INtB6_6ClientNtBa_11TokenStreamB2q_E7expand1NvCs2KWZukAWMkS_10displaydoc12derive_errorE00E00B2X_, symObjAddr: 0x10FC, symBinAddr: 0xF170, symSize: 0x28 }
  - { offset: 0x3D40D, size: 0x8, addend: 0x0, symName: __RNCNCINvMs6_NtNtCs7yrEGia95Wz_10proc_macro6bridge6clientINtBa_6ClientNtBe_11TokenStreamB15_E7expand1NvCs2KWZukAWMkS_10displaydoc12derive_errorE00B1C_, symObjAddr: 0x10CC, symBinAddr: 0xF140, symSize: 0x30 }
  - { offset: 0x3D456, size: 0x8, addend: 0x0, symName: __RNCINvMs6_NtNtCs7yrEGia95Wz_10proc_macro6bridge6clientINtB8_6ClientNtBc_11TokenStreamB13_E7expand1NvCs2KWZukAWMkS_10displaydoc12derive_errorE0B1A_, symObjAddr: 0xD28, symBinAddr: 0xED9C, symSize: 0x30 }
  - { offset: 0x3D4A1, size: 0x8, addend: 0x0, symName: __RINvNtNtCs7yrEGia95Wz_10proc_macro6bridge6client10run_clientNtB2_11TokenStreamINtNtCsaNl6UpbT7bw_4core6option6OptionBW_ENCNCINvMs6_B2_INtB2_6ClientNtB6_11TokenStreamB2l_E7expand1NvCs2KWZukAWMkS_10displaydoc12derive_errorE00EB2S_, symObjAddr: 0x950, symBinAddr: 0xE9C4, symSize: 0x21C }
  - { offset: 0x3D6A8, size: 0x8, addend: 0x0, symName: __RNvXsf_NtNtCs7yrEGia95Wz_10proc_macro6bridge6clientNtB5_11TokenStreamINtNtB7_3rpc6EncodeuE6encodeCs2KWZukAWMkS_10displaydoc, symObjAddr: 0x2B68, symBinAddr: 0x10BDC, symSize: 0x50 }
  - { offset: 0x3D7B9, size: 0x8, addend: 0x0, symName: __RNvXsi_NtNtCs7yrEGia95Wz_10proc_macro6bridge6clientNtB5_11TokenStreamINtNtB7_3rpc9DecodeMutuE6decodeCs2KWZukAWMkS_10displaydoc, symObjAddr: 0x2D08, symBinAddr: 0x10D7C, symSize: 0x2C }
  - { offset: 0x3D802, size: 0x8, addend: 0x0, symName: __RNvXsk_NtNtCs7yrEGia95Wz_10proc_macro6bridge6clientNtB5_4SpanINtNtB7_3rpc9DecodeMutuE6decodeCs2KWZukAWMkS_10displaydoc, symObjAddr: 0x2D34, symBinAddr: 0x10DA8, symSize: 0x2C }
  - { offset: 0x3DC5B, size: 0x8, addend: 0x0, symName: __RNvXs9_NtNtCs7yrEGia95Wz_10proc_macro6bridge3rpcTINtB7_11ExpnGlobalsNtNtB7_6client4SpanENtB16_11TokenStreamEINtB5_9DecodeMutuE6decodeCs2KWZukAWMkS_10displaydoc, symObjAddr: 0x2364, symBinAddr: 0x103D8, symSize: 0x84 }
  - { offset: 0x3DE16, size: 0x8, addend: 0x0, symName: __RNvXs1J_NtCs7yrEGia95Wz_10proc_macro6bridgeINtB6_11ExpnGlobalsNtNtB6_6client4SpanEINtNtB6_3rpc9DecodeMutuE6decodeCs2KWZukAWMkS_10displaydoc, symObjAddr: 0x1E24, symBinAddr: 0xFE98, symSize: 0xB0 }
  - { offset: 0x3DE68, size: 0x8, addend: 0x0, symName: __RNvXsR_NtCs7yrEGia95Wz_10proc_macro6bridgeINtNtCsaNl6UpbT7bw_4core6option6OptionNtNtB5_6client11TokenStreamEINtNtB5_3rpc6EncodeuE6encodeCs2KWZukAWMkS_10displaydoc, symObjAddr: 0x24B8, symBinAddr: 0x1052C, symSize: 0xCC }
  - { offset: 0x3DF0E, size: 0x8, addend: 0x0, symName: __RNvXsR_NtCs7yrEGia95Wz_10proc_macro6bridgeINtNtCsaNl6UpbT7bw_4core6option6OptionReEINtNtB5_3rpc6EncodeuE6encodeCs2KWZukAWMkS_10displaydoc, symObjAddr: 0x2584, symBinAddr: 0x105F8, symSize: 0xD8 }
  - { offset: 0x3DFBA, size: 0x8, addend: 0x0, symName: __RNvXsV_NtCs7yrEGia95Wz_10proc_macro6bridgeINtNtCsaNl6UpbT7bw_4core6result6ResultINtNtBJ_6option6OptionNtNtB5_6client11TokenStreamEuEINtNtB5_3rpc6EncodeuE6encodeCs2KWZukAWMkS_10displaydoc, symObjAddr: 0x265C, symBinAddr: 0x106D0, symSize: 0x110 }
  - { offset: 0x3E07E, size: 0x8, addend: 0x0, symName: __RNvXsV_NtCs7yrEGia95Wz_10proc_macro6bridgeINtNtCsaNl6UpbT7bw_4core6result6ResultuNtNtB5_3rpc12PanicMessageEINtB1j_6EncodeuE6encodeCs2KWZukAWMkS_10displaydoc, symObjAddr: 0x276C, symBinAddr: 0x107E0, symSize: 0x12C }
  - { offset: 0x412D5, size: 0x8, addend: 0x0, symName: __RNvXs6_NtCsaNl6UpbT7bw_4core6optionINtB5_6OptionQNtNtCsc29TF2YcYso_3syn8generics13PredicateTypeENtNtNtNtB7_4iter6traits7collect12IntoIterator9into_iterCs2KWZukAWMkS_10displaydoc, symObjAddr: 0x2328, symBinAddr: 0x1039C, symSize: 0x14 }
  - { offset: 0x4130C, size: 0x8, addend: 0x0, symName: __RNvXs6_NtCsaNl6UpbT7bw_4core6optionINtB5_6OptionQNtNtCsc29TF2YcYso_3syn8generics14WherePredicateENtNtNtNtB7_4iter6traits7collect12IntoIterator9into_iterCs2KWZukAWMkS_10displaydoc, symObjAddr: 0x233C, symBinAddr: 0x103B0, symSize: 0x14 }
  - { offset: 0x41343, size: 0x8, addend: 0x0, symName: __RNvXs6_NtCsaNl6UpbT7bw_4core6optionINtB5_6OptionRNtNtCsc29TF2YcYso_3syn8generics10TraitBoundENtNtNtNtB7_4iter6traits7collect12IntoIterator9into_iterCs2KWZukAWMkS_10displaydoc, symObjAddr: 0x2350, symBinAddr: 0x103C4, symSize: 0x14 }
  - { offset: 0x41446, size: 0x8, addend: 0x0, symName: __RNvXsP_NtCsaNl6UpbT7bw_4core6optionINtB5_8IntoIterRNtNtCsc29TF2YcYso_3syn4data7VariantENtNtB7_5clone5Clone5cloneCs2KWZukAWMkS_10displaydoc, symObjAddr: 0x23E8, symBinAddr: 0x1045C, symSize: 0x68 }
  - { offset: 0x414ED, size: 0x8, addend: 0x0, symName: __RNvXsP_NtCsaNl6UpbT7bw_4core6optionINtB5_8IntoIterRNtNtCsc29TF2YcYso_3syn8generics14WherePredicateENtNtB7_5clone5Clone5cloneCs2KWZukAWMkS_10displaydoc, symObjAddr: 0x2450, symBinAddr: 0x104C4, symSize: 0x68 }
  - { offset: 0x4159A, size: 0x8, addend: 0x0, symName: __RNvXsd_NtCsaNl6UpbT7bw_4core6optionINtB5_6OptionRNtCshnvkK9b4wzu_11proc_macro25IdentENtNtB7_3cmp9PartialEq2eqCs2KWZukAWMkS_10displaydoc, symObjAddr: 0x2A74, symBinAddr: 0x10AE8, symSize: 0xAC }
  - { offset: 0x41829, size: 0x8, addend: 0x0, symName: __RNvXsw_NtCsaNl6UpbT7bw_4core6optionINtB5_8IntoIterQNtNtCsc29TF2YcYso_3syn8generics13PredicateTypeENtNtNtNtB7_4iter6traits8iterator8Iterator4nextCs2KWZukAWMkS_10displaydoc, symObjAddr: 0x331C, symBinAddr: 0x11390, symSize: 0x28 }
  - { offset: 0x418A1, size: 0x8, addend: 0x0, symName: __RNvXsw_NtCsaNl6UpbT7bw_4core6optionINtB5_8IntoIterQNtNtCsc29TF2YcYso_3syn8generics14WherePredicateENtNtNtNtB7_4iter6traits8iterator8Iterator4nextCs2KWZukAWMkS_10displaydoc, symObjAddr: 0x3344, symBinAddr: 0x113B8, symSize: 0x28 }
  - { offset: 0x41919, size: 0x8, addend: 0x0, symName: __RNvXsw_NtCsaNl6UpbT7bw_4core6optionINtB5_8IntoIterQNtNtCsc29TF2YcYso_3syn8generics14WherePredicateENtNtNtNtB7_4iter6traits8iterator8Iterator9size_hintCs2KWZukAWMkS_10displaydoc, symObjAddr: 0x336C, symBinAddr: 0x113E0, symSize: 0x44 }
  - { offset: 0x41991, size: 0x8, addend: 0x0, symName: __RNvXsw_NtCsaNl6UpbT7bw_4core6optionINtB5_8IntoIterRNtNtCsc29TF2YcYso_3syn4data7VariantENtNtNtNtB7_4iter6traits8iterator8Iterator9size_hintCs2KWZukAWMkS_10displaydoc, symObjAddr: 0x33B0, symBinAddr: 0x11424, symSize: 0x44 }
  - { offset: 0x41A09, size: 0x8, addend: 0x0, symName: __RNvXsw_NtCsaNl6UpbT7bw_4core6optionINtB5_8IntoIterRNtNtCsc29TF2YcYso_3syn8generics10TraitBoundENtNtNtNtB7_4iter6traits8iterator8Iterator4nextCs2KWZukAWMkS_10displaydoc, symObjAddr: 0x33F4, symBinAddr: 0x11468, symSize: 0x28 }
  - { offset: 0x41A81, size: 0x8, addend: 0x0, symName: __RNvXsw_NtCsaNl6UpbT7bw_4core6optionINtB5_8IntoIterRNtNtCsc29TF2YcYso_3syn8generics14WherePredicateENtNtNtNtB7_4iter6traits8iterator8Iterator9size_hintCs2KWZukAWMkS_10displaydoc, symObjAddr: 0x341C, symBinAddr: 0x11490, symSize: 0x44 }
  - { offset: 0x42103, size: 0x8, addend: 0x0, symName: __RINvXso_NtCsaNl6UpbT7bw_4core6resultINtB6_6ResultINtNtCsiTraAjBDcu4_5alloc3vec3VecINtNtB8_6option6OptionNtNtCs2KWZukAWMkS_10displaydoc4attr14VariantDisplayEENtNtCsc29TF2YcYso_3syn5error5ErrorEINtNtNtNtB8_4iter6traits7collect12FromIteratorIBz_B1i_B2v_EE9from_iterINtNtNtB3b_8adapters3map3MapINtNtB2z_10punctuated4IterNtNtB2z_4data7VariantENCNvNtB1I_6expand9impl_enum0EEB1I_, symObjAddr: 0xC14, symBinAddr: 0xEC88, symSize: 0x34 }
  - { offset: 0x42156, size: 0x8, addend: 0x0, symName: __RINvXso_NtCsaNl6UpbT7bw_4core6resultINtB6_6ResultINtNtCsiTraAjBDcu4_5alloc3vec3VecNtCshnvkK9b4wzu_11proc_macro211TokenStreamENtNtCsc29TF2YcYso_3syn5error5ErrorEINtNtNtNtB8_4iter6traits7collect12FromIteratorIBz_B1i_B1Z_EE9from_iterINtNtNtB2F_8adapters3map3MapINtNtB3L_3zip3ZipINtNtB23_10punctuated4IterNtNtB23_4data7VariantEINtNtBO_9into_iter8IntoIterINtNtB8_6option6OptionNtNtCs2KWZukAWMkS_10displaydoc4attr14VariantDisplayEEENCNvNtB62_6expand9impl_enums_0EEB62_, symObjAddr: 0xC48, symBinAddr: 0xECBC, symSize: 0x34 }
  - { offset: 0x421AE, size: 0x8, addend: 0x0, symName: __RNCINvXso_NtCsaNl6UpbT7bw_4core6resultINtB8_6ResultINtNtCsiTraAjBDcu4_5alloc3vec3VecINtNtBa_6option6OptionNtNtCs2KWZukAWMkS_10displaydoc4attr14VariantDisplayEENtNtCsc29TF2YcYso_3syn5error5ErrorEINtNtNtNtBa_4iter6traits7collect12FromIteratorIBB_B1k_B2x_EE9from_iterINtNtNtB3d_8adapters3map3MapINtNtB2B_10punctuated4IterNtNtB2B_4data7VariantENCNvNtB1K_6expand9impl_enum0EE0B1K_, symObjAddr: 0x107C, symBinAddr: 0xF0F0, symSize: 0x28 }
  - { offset: 0x4220C, size: 0x8, addend: 0x0, symName: __RNCINvXso_NtCsaNl6UpbT7bw_4core6resultINtB8_6ResultINtNtCsiTraAjBDcu4_5alloc3vec3VecNtCshnvkK9b4wzu_11proc_macro211TokenStreamENtNtCsc29TF2YcYso_3syn5error5ErrorEINtNtNtNtBa_4iter6traits7collect12FromIteratorIBB_B1k_B21_EE9from_iterINtNtNtB2H_8adapters3map3MapINtNtB3N_3zip3ZipINtNtB25_10punctuated4IterNtNtB25_4data7VariantEINtNtBQ_9into_iter8IntoIterINtNtBa_6option6OptionNtNtCs2KWZukAWMkS_10displaydoc4attr14VariantDisplayEEENCNvNtB64_6expand9impl_enums_0EE0B64_, symObjAddr: 0x10A4, symBinAddr: 0xF118, symSize: 0x28 }
  - { offset: 0x423B7, size: 0x8, addend: 0x0, symName: __RNvXsp_NtCsaNl6UpbT7bw_4core6resultINtB5_6ResultINtNtB7_6option6OptionNtNtCs2KWZukAWMkS_10displaydoc4attr14VariantDisplayENtNtCsc29TF2YcYso_3syn5error5ErrorENtNtNtB7_3ops9try_trait3Try6branchB1a_, symObjAddr: 0x2D78, symBinAddr: 0x10DEC, symSize: 0xB8 }
  - { offset: 0x42434, size: 0x8, addend: 0x0, symName: __RNvXsp_NtCsaNl6UpbT7bw_4core6resultINtB5_6ResultINtNtB7_6option6OptionNtNtCs2KWZukAWMkS_10displaydoc4attr7DisplayENtNtCsc29TF2YcYso_3syn5error5ErrorENtNtNtB7_3ops9try_trait3Try6branchB1a_, symObjAddr: 0x2E30, symBinAddr: 0x10EA4, symSize: 0xB8 }
  - { offset: 0x424B1, size: 0x8, addend: 0x0, symName: __RNvXsp_NtCsaNl6UpbT7bw_4core6resultINtB5_6ResultINtNtCsiTraAjBDcu4_5alloc3vec3VecINtNtB7_6option6OptionNtNtCs2KWZukAWMkS_10displaydoc4attr14VariantDisplayEENtNtCsc29TF2YcYso_3syn5error5ErrorENtNtNtB7_3ops9try_trait3Try11from_outputB1H_, symObjAddr: 0x2EE8, symBinAddr: 0x10F5C, symSize: 0x18 }
  - { offset: 0x424F1, size: 0x8, addend: 0x0, symName: __RNvXsp_NtCsaNl6UpbT7bw_4core6resultINtB5_6ResultINtNtCsiTraAjBDcu4_5alloc3vec3VecINtNtB7_6option6OptionNtNtCs2KWZukAWMkS_10displaydoc4attr14VariantDisplayEENtNtCsc29TF2YcYso_3syn5error5ErrorENtNtNtB7_3ops9try_trait3Try6branchB1H_, symObjAddr: 0x2F00, symBinAddr: 0x10F74, symSize: 0x94 }
  - { offset: 0x4256E, size: 0x8, addend: 0x0, symName: __RNvXsp_NtCsaNl6UpbT7bw_4core6resultINtB5_6ResultINtNtCsiTraAjBDcu4_5alloc3vec3VecNtCshnvkK9b4wzu_11proc_macro211TokenStreamENtNtCsc29TF2YcYso_3syn5error5ErrorENtNtNtB7_3ops9try_trait3Try11from_outputCs2KWZukAWMkS_10displaydoc, symObjAddr: 0x2F94, symBinAddr: 0x11008, symSize: 0x18 }
  - { offset: 0x425AE, size: 0x8, addend: 0x0, symName: __RNvXsp_NtCsaNl6UpbT7bw_4core6resultINtB5_6ResultINtNtCsiTraAjBDcu4_5alloc3vec3VecNtCshnvkK9b4wzu_11proc_macro211TokenStreamENtNtCsc29TF2YcYso_3syn5error5ErrorENtNtNtB7_3ops9try_trait3Try6branchCs2KWZukAWMkS_10displaydoc, symObjAddr: 0x2FAC, symBinAddr: 0x11020, symSize: 0x94 }
  - { offset: 0x4262B, size: 0x8, addend: 0x0, symName: __RNvXsp_NtCsaNl6UpbT7bw_4core6resultINtB5_6ResultNtNtCs2KWZukAWMkS_10displaydoc4attr14VariantDisplayNtNtCsc29TF2YcYso_3syn5error5ErrorENtNtNtB7_3ops9try_trait3Try6branchBO_, symObjAddr: 0x3040, symBinAddr: 0x110B4, symSize: 0xB0 }
  - { offset: 0x426A8, size: 0x8, addend: 0x0, symName: __RNvXsp_NtCsaNl6UpbT7bw_4core6resultINtB5_6ResultNtNtCsc29TF2YcYso_3syn6derive11DeriveInputNtNtBO_5error5ErrorENtNtNtB7_3ops9try_trait3Try6branchCs2KWZukAWMkS_10displaydoc, symObjAddr: 0x30F0, symBinAddr: 0x11164, symSize: 0xB4 }
  - { offset: 0x4272C, size: 0x8, addend: 0x0, symName: __RNvXsq_NtCsaNl6UpbT7bw_4core6resultINtB5_6ResultINtNtB7_6option6OptionNtNtCs2KWZukAWMkS_10displaydoc4attr14VariantDisplayENtNtCsc29TF2YcYso_3syn5error5ErrorEINtNtNtB7_3ops9try_trait12FromResidualIBy_NtNtB7_7convert10InfallibleB1W_EE13from_residualB1a_, symObjAddr: 0x31DC, symBinAddr: 0x11250, symSize: 0x4C }
  - { offset: 0x427B1, size: 0x8, addend: 0x0, symName: __RNvXsq_NtCsaNl6UpbT7bw_4core6resultINtB5_6ResultINtNtCsiTraAjBDcu4_5alloc3vec3VecINtNtB7_6option6OptionNtNtCs2KWZukAWMkS_10displaydoc4attr14VariantDisplayEENtNtCsc29TF2YcYso_3syn5error5ErrorEINtNtNtB7_3ops9try_trait12FromResidualIBy_NtNtB7_7convert10InfallibleB2u_EE13from_residualB1H_, symObjAddr: 0x3228, symBinAddr: 0x1129C, symSize: 0x48 }
  - { offset: 0x42836, size: 0x8, addend: 0x0, symName: __RNvXsq_NtCsaNl6UpbT7bw_4core6resultINtB5_6ResultINtNtCsiTraAjBDcu4_5alloc3vec3VecNtCshnvkK9b4wzu_11proc_macro211TokenStreamENtNtCsc29TF2YcYso_3syn5error5ErrorEINtNtNtB7_3ops9try_trait12FromResidualIBy_NtNtB7_7convert10InfallibleB1Y_EE13from_residualCs2KWZukAWMkS_10displaydoc, symObjAddr: 0x3270, symBinAddr: 0x112E4, symSize: 0x48 }
  - { offset: 0x428BB, size: 0x8, addend: 0x0, symName: __RNvXsq_NtCsaNl6UpbT7bw_4core6resultINtB5_6ResultNtNtCsc29TF2YcYso_3syn3lit6LitStrNtNtBO_5error5ErrorEINtNtNtB7_3ops9try_trait12FromResidualIBy_NtNtB7_7convert10InfallibleB1h_EE13from_residualCs2KWZukAWMkS_10displaydoc, symObjAddr: 0x32B8, symBinAddr: 0x1132C, symSize: 0x40 }
  - { offset: 0x42ED9, size: 0x8, addend: 0x0, symName: __RNvMNtCsaNl6UpbT7bw_4core5sliceSINtNtB4_6option6OptionNtNtCs2KWZukAWMkS_10displaydoc4attr14VariantDisplayE4iterBU_, symObjAddr: 0x1184, symBinAddr: 0xF1F8, symSize: 0x28 }
  - { offset: 0x42F10, size: 0x8, addend: 0x0, symName: __RNvMNtCsaNl6UpbT7bw_4core5sliceSRe8is_emptyCs2KWZukAWMkS_10displaydoc, symObjAddr: 0x11AC, symBinAddr: 0xF220, symSize: 0x1C }
  - { offset: 0x42F93, size: 0x8, addend: 0x0, symName: __RNvMNtCsaNl6UpbT7bw_4core5sliceSh15copy_from_sliceCs2KWZukAWMkS_10displaydoc, symObjAddr: 0x11C8, symBinAddr: 0xF23C, symSize: 0xAC }
  - { offset: 0x4306E, size: 0x8, addend: 0x0, symName: __RNvNvXs0_NtNtCsaNl6UpbT7bw_4core5slice5indexjINtB7_10SliceIndexSpE13get_unchecked18precondition_checkCs2KWZukAWMkS_10displaydoc, symObjAddr: 0x1C6C, symBinAddr: 0xFCE0, symSize: 0xAC }
  - { offset: 0x430E2, size: 0x8, addend: 0x0, symName: __RNvNvXs2_NtNtCsaNl6UpbT7bw_4core5slice5indexINtNtNtBb_3ops5range5RangejEINtB7_10SliceIndexSpE13get_unchecked18precondition_checkCs2KWZukAWMkS_10displaydoc, symObjAddr: 0x1D18, symBinAddr: 0xFD8C, symSize: 0xCC }
  - { offset: 0x431D6, size: 0x8, addend: 0x0, symName: __RNvXs5_NtNtCsaNl6UpbT7bw_4core5slice5indexINtNtNtB9_3ops5range9RangeFromjEINtB5_10SliceIndexSReE5indexCs2KWZukAWMkS_10displaydoc, symObjAddr: 0x2298, symBinAddr: 0x1030C, symSize: 0x90 }
  - { offset: 0x438D2, size: 0x8, addend: 0x0, symName: __RINvNtNtNtNtCsaNl6UpbT7bw_4core9core_arch10arm_shared4neon9generated13vget_lane_u64Kl0_ECs2KWZukAWMkS_10displaydoc, symObjAddr: 0xB6C, symBinAddr: 0xEBE0, symSize: 0x18 }
  - { offset: 0x43901, size: 0x8, addend: 0x0, symName: __RNvNtNtNtNtCsaNl6UpbT7bw_4core9core_arch10arm_shared4neon9generated18vreinterpret_s8_u8Cs2KWZukAWMkS_10displaydoc, symObjAddr: 0x1AFC, symBinAddr: 0xFB70, symSize: 0xC }
  - { offset: 0x4392F, size: 0x8, addend: 0x0, symName: __RNvNtNtNtNtCsaNl6UpbT7bw_4core9core_arch10arm_shared4neon9generated19vreinterpret_u64_u8Cs2KWZukAWMkS_10displaydoc, symObjAddr: 0x1B08, symBinAddr: 0xFB7C, symSize: 0xC }
  - { offset: 0x4395D, size: 0x8, addend: 0x0, symName: __RNvNtNtNtNtCsaNl6UpbT7bw_4core9core_arch10arm_shared4neon9generated7vceq_u8Cs2KWZukAWMkS_10displaydoc, symObjAddr: 0x1B14, symBinAddr: 0xFB88, symSize: 0x14 }
  - { offset: 0x4399A, size: 0x8, addend: 0x0, symName: __RNvNtNtNtNtCsaNl6UpbT7bw_4core9core_arch10arm_shared4neon9generated7vorr_u8Cs2KWZukAWMkS_10displaydoc, symObjAddr: 0x1B28, symBinAddr: 0xFB9C, symSize: 0x14 }
  - { offset: 0x439D7, size: 0x8, addend: 0x0, symName: __RNvNtNtNtNtCsaNl6UpbT7bw_4core9core_arch10arm_shared4neon9generated9vdup_n_u8Cs2KWZukAWMkS_10displaydoc, symObjAddr: 0x1B3C, symBinAddr: 0xFBB0, symSize: 0x34 }
  - { offset: 0x43B75, size: 0x8, addend: 0x0, symName: __RNvXs5_NtNtCsaNl6UpbT7bw_4core3str6traitsINtNtNtB9_3ops5range5RangejEINtNtNtB9_5slice5index10SliceIndexeE3getCs2KWZukAWMkS_10displaydoc, symObjAddr: 0x2090, symBinAddr: 0x10104, symSize: 0x208 }
  - { offset: 0x43D09, size: 0x8, addend: 0x0, symName: __RNvXsb_NtNtCsaNl6UpbT7bw_4core3str6traitsINtNtNtB9_3ops5range14RangeInclusivejEINtNtNtB9_5slice5index10SliceIndexeE5indexCs2KWZukAWMkS_10displaydoc, symObjAddr: 0x2964, symBinAddr: 0x109D8, symSize: 0x110 }
  - { offset: 0x43DC9, size: 0x8, addend: 0x0, symName: __RNvXsd_NtNtCsaNl6UpbT7bw_4core3str6traitsINtNtNtB9_3ops5range16RangeToInclusivejEINtNtNtB9_5slice5index10SliceIndexeE5indexCs2KWZukAWMkS_10displaydoc, symObjAddr: 0x2B20, symBinAddr: 0x10B94, symSize: 0x48 }
  - { offset: 0x43FB0, size: 0x8, addend: 0x0, symName: __RINvYNtNtNtCsht3nMU9UgFu_3std4hash6random11RandomStateNtNtCsaNl6UpbT7bw_4core4hash11BuildHasher8hash_oneRNtCshnvkK9b4wzu_11proc_macro25IdentECs2KWZukAWMkS_10displaydoc, symObjAddr: 0xCA4, symBinAddr: 0xED18, symSize: 0x84 }
  - { offset: 0x4402B, size: 0x8, addend: 0x0, symName: __RINvYINtNtNtCsaNl6UpbT7bw_4core3ops5range5RangejENtNtNtNtBa_4iter6traits8iterator8Iterator3mapNtCshnvkK9b4wzu_11proc_macro25IdentNCNCNvNtCs2KWZukAWMkS_10displaydoc6expand11impl_struct0s_0EB2b_, symObjAddr: 0xC7C, symBinAddr: 0xECF0, symSize: 0x14 }
  - { offset: 0x44083, size: 0x8, addend: 0x0, symName: __RINvYINtNtNtCsaNl6UpbT7bw_4core3ops5range5RangejENtNtNtNtBa_4iter6traits8iterator8Iterator3mapNtCshnvkK9b4wzu_11proc_macro25IdentNCNCNvNtCs2KWZukAWMkS_10displaydoc6expand9impl_enums_0s0_0EB2b_, symObjAddr: 0xC90, symBinAddr: 0xED04, symSize: 0x14 }
  - { offset: 0x440E7, size: 0x8, addend: 0x0, symName: __RNvYINtNtCsaNl6UpbT7bw_4core6option8IntoIterQNtNtCsc29TF2YcYso_3syn8generics14WherePredicateENtNtNtNtB7_4iter6traits10exact_size17ExactSizeIterator3lenCs2KWZukAWMkS_10displaydoc, symObjAddr: 0x3460, symBinAddr: 0x114D4, symSize: 0xC4 }
  - { offset: 0x441E2, size: 0x8, addend: 0x0, symName: __RNvYINtNtCsaNl6UpbT7bw_4core6option8IntoIterRNtNtCsc29TF2YcYso_3syn4data7VariantENtNtNtNtB7_4iter6traits10exact_size17ExactSizeIterator3lenCs2KWZukAWMkS_10displaydoc, symObjAddr: 0x3524, symBinAddr: 0x11598, symSize: 0xC4 }
  - { offset: 0x442DD, size: 0x8, addend: 0x0, symName: __RNvYINtNtCsaNl6UpbT7bw_4core6option8IntoIterRNtNtCsc29TF2YcYso_3syn8generics14WherePredicateENtNtNtNtB7_4iter6traits10exact_size17ExactSizeIterator3lenCs2KWZukAWMkS_10displaydoc, symObjAddr: 0x35E8, symBinAddr: 0x1165C, symSize: 0xC4 }
  - { offset: 0x44443, size: 0x8, addend: 0x0, symName: __RNvXsh_NtNtNtCsaNl6UpbT7bw_4core4iter8adapters7step_byINtNtNtBb_3ops5range5RangejEINtB5_14SpecRangeSetupBQ_E5setupCs2KWZukAWMkS_10displaydoc, symObjAddr: 0x2BB8, symBinAddr: 0x10C2C, symSize: 0x150 }
  - { offset: 0x4456E, size: 0x8, addend: 0x0, symName: __RNvXsn_NtNtNtCsaNl6UpbT7bw_4core4iter8adapters7flattenINtNtBb_6option6OptionRNtNtCsc29TF2YcYso_3syn8generics10TraitBoundENtB5_21ConstSizeIntoIterator4sizeCs2KWZukAWMkS_10displaydoc, symObjAddr: 0x2D60, symBinAddr: 0x10DD4, symSize: 0x18 }
  - { offset: 0x44738, size: 0x8, addend: 0x0, symName: __RNvXs3_NtNtCsaNl6UpbT7bw_4core4iter5rangeINtNtNtB9_3ops5range5RangejENtB5_17RangeIteratorImpl9spec_nextCs2KWZukAWMkS_10displaydoc, symObjAddr: 0x1FBC, symBinAddr: 0x10030, symSize: 0x94 }
  - { offset: 0x447B9, size: 0x8, addend: 0x0, symName: __RNvXs4_NtNtCsaNl6UpbT7bw_4core4iter5rangeINtNtNtB9_3ops5range5RangejENtNtNtB7_6traits8iterator8Iterator4nextCs2KWZukAWMkS_10displaydoc, symObjAddr: 0x206C, symBinAddr: 0x100E0, symSize: 0x24 }
  - { offset: 0x448B6, size: 0x8, addend: 0x0, symName: __RNvNtNtNtCsaNl6UpbT7bw_4core7unicode12unicode_data11white_space6lookupCs2KWZukAWMkS_10displaydoc, symObjAddr: 0x19B0, symBinAddr: 0xFA24, symSize: 0x14C }
  - { offset: 0x44915, size: 0x8, addend: 0x0, symName: __RNvNvNtCsaNl6UpbT7bw_4core9ub_checks23maybe_is_nonoverlapping7runtimeCs2KWZukAWMkS_10displaydoc, symObjAddr: 0x1B70, symBinAddr: 0xFBE4, symSize: 0xD8 }
  - { offset: 0x44F55, size: 0x8, addend: 0x0, symName: __RNCNkNvNvMNtNtCsht3nMU9UgFu_3std4hash6randomNtB8_11RandomState3new4KEYS0s_0Cs2KWZukAWMkS_10displaydoc, symObjAddr: 0x1124, symBinAddr: 0xF198, symSize: 0x34 }
  - { offset: 0x44F93, size: 0x8, addend: 0x0, symName: __RNvNvNvMNtNtCsht3nMU9UgFu_3std4hash6randomNtB6_11RandomState3new4KEYS6___initCs2KWZukAWMkS_10displaydoc, symObjAddr: 0x1C48, symBinAddr: 0xFCBC, symSize: 0x24 }
  - { offset: 0x44FB1, size: 0x8, addend: 0x0, symName: __RNCNvMNtNtCsht3nMU9UgFu_3std4hash6randomNtB4_11RandomState3new0Cs2KWZukAWMkS_10displaydoc, symObjAddr: 0x1158, symBinAddr: 0xF1CC, symSize: 0x2C }
  - { offset: 0x45076, size: 0x8, addend: 0x0, symName: __RNvXs2_NtNtCsht3nMU9UgFu_3std4hash6randomNtB5_13DefaultHasherNtNtCsaNl6UpbT7bw_4core4hash6Hasher6finishCs2KWZukAWMkS_10displaydoc, symObjAddr: 0x1ED4, symBinAddr: 0xFF48, symSize: 0x2C }
  - { offset: 0x450BF, size: 0x8, addend: 0x0, symName: __RNvXs2_NtNtCsht3nMU9UgFu_3std4hash6randomNtB5_13DefaultHasherNtNtCsaNl6UpbT7bw_4core4hash6Hasher9write_strCs2KWZukAWMkS_10displaydoc, symObjAddr: 0x1F00, symBinAddr: 0xFF74, symSize: 0x38 }
  - { offset: 0x45150, size: 0x8, addend: 0x0, symName: __RNvXs3_NtNtCsht3nMU9UgFu_3std4hash6randomNtB5_11RandomStateNtNtCsaNl6UpbT7bw_4core7default7Default7defaultCs2KWZukAWMkS_10displaydoc, symObjAddr: 0x2050, symBinAddr: 0x100C4, symSize: 0x1C }
  - { offset: 0x45188, size: 0x8, addend: 0x0, symName: __RNvXs_NtNtCsht3nMU9UgFu_3std4hash6randomNtB4_11RandomStateNtNtCsaNl6UpbT7bw_4core4hash11BuildHasher12build_hasherCs2KWZukAWMkS_10displaydoc, symObjAddr: 0x2898, symBinAddr: 0x1090C, symSize: 0xCC }
  - { offset: 0x45897, size: 0x8, addend: 0x0, symName: __RINvMNtCsaNl6UpbT7bw_4core6optionINtB3_6OptionNtNtCs2KWZukAWMkS_10displaydoc4attr14VariantDisplayE10ok_or_elseNtNtCsc29TF2YcYso_3syn5error5ErrorNCNCNvNtBM_6expand9impl_enums_00EBM_, symObjAddr: 0x0, symBinAddr: 0xE074, symSize: 0x9C }
  - { offset: 0x45903, size: 0x8, addend: 0x0, symName: __RINvMNtCsaNl6UpbT7bw_4core6optionINtB3_6OptionNtNtCs2KWZukAWMkS_10displaydoc4attr7DisplayE3mapNtBK_14VariantDisplayNCNvMs0_BK_NtBK_11AttrsHelper18display_with_input0EBM_, symObjAddr: 0x9C, symBinAddr: 0xE110, symSize: 0xCC }
  - { offset: 0x459CC, size: 0x8, addend: 0x0, symName: __RINvMNtCsaNl6UpbT7bw_4core6optionINtB3_6OptionNtNtCs2KWZukAWMkS_10displaydoc4attr7DisplayE3mapNtCshnvkK9b4wzu_11proc_macro211TokenStreamNCNvNtBM_6expand11impl_struct0EBM_, symObjAddr: 0x168, symBinAddr: 0xE1DC, symSize: 0xB8 }
  - { offset: 0x45A76, size: 0x8, addend: 0x0, symName: __RINvMNtCsaNl6UpbT7bw_4core6optionINtB3_6OptionNtNtCsc29TF2YcYso_3syn8generics11WhereClauseE14unwrap_or_elseNvNtCs2KWZukAWMkS_10displaydoc6expand22new_empty_where_clauseEB1L_, symObjAddr: 0x220, symBinAddr: 0xE294, symSize: 0x74 }
  - { offset: 0x45B0B, size: 0x8, addend: 0x0, symName: __RINvMNtCsaNl6UpbT7bw_4core6optionINtB3_6OptionQINtNtCsiTraAjBDcu4_5alloc5boxed3BoxNtNtCsc29TF2YcYso_3syn8generics14WherePredicateEE3mapQB1i_NvYBJ_INtNtB5_7convert5AsMutB1i_E6as_mutECs2KWZukAWMkS_10displaydoc, symObjAddr: 0x294, symBinAddr: 0xE308, symSize: 0x50 }
  - { offset: 0x45B83, size: 0x8, addend: 0x0, symName: __RINvMNtCsaNl6UpbT7bw_4core6optionINtB3_6OptionQNtNtCsc29TF2YcYso_3syn8generics14WherePredicateE7or_elseNCNvXsF_NtBN_10punctuatedINtB1L_14PrivateIterMutBJ_NtNtBN_5token5CommaENtNtNtNtB5_4iter6traits8iterator8Iterator4nexts_0ECs2KWZukAWMkS_10displaydoc, symObjAddr: 0x2E4, symBinAddr: 0xE358, symSize: 0xA8 }
  - { offset: 0x45C19, size: 0x8, addend: 0x0, symName: __RINvMNtCsaNl6UpbT7bw_4core6optionINtB3_6OptionQNtNtCsc29TF2YcYso_3syn8generics14WherePredicateE7or_elseNCNvXsG_NtBN_10punctuatedINtB1L_14PrivateIterMutBJ_NtNtBN_5token5CommaENtNtNtNtB5_4iter6traits12double_ended19DoubleEndedIterator9next_back0ECs2KWZukAWMkS_10displaydoc, symObjAddr: 0x38C, symBinAddr: 0xE400, symSize: 0xA8 }
  - { offset: 0x45C7B, size: 0x8, addend: 0x0, symName: __RINvMNtCsaNl6UpbT7bw_4core6optionINtB3_6OptionQTNtNtCsc29TF2YcYso_3syn8generics14WherePredicateNtNtBO_5token5CommaEE3mapQBK_NCNCNvXsG_NtBO_10punctuatedINtB28_14PrivateIterMutBK_B1v_ENtNtNtNtB5_4iter6traits12double_ended19DoubleEndedIterator9next_back00ECs2KWZukAWMkS_10displaydoc, symObjAddr: 0x434, symBinAddr: 0xE4A8, symSize: 0x50 }
  - { offset: 0x45CE6, size: 0x8, addend: 0x0, symName: __RINvMNtCsaNl6UpbT7bw_4core6optionINtB3_6OptionQTNtNtCsc29TF2YcYso_3syn8generics14WherePredicateNtNtBO_5token5CommaEE3mapQBK_NCNvXsF_NtBO_10punctuatedINtB26_14PrivateIterMutBK_B1v_ENtNtNtNtB5_4iter6traits8iterator8Iterator4next0ECs2KWZukAWMkS_10displaydoc, symObjAddr: 0x484, symBinAddr: 0xE4F8, symSize: 0x50 }
  - { offset: 0x45D5E, size: 0x8, addend: 0x0, symName: __RINvMNtCsaNl6UpbT7bw_4core6optionINtB3_6OptionRNtNtCsc29TF2YcYso_3syn4data7VariantE7or_elseNCNvXsw_NtBN_10punctuatedINtB1z_11PrivateIterBJ_NtNtBN_5token5CommaENtNtNtNtB5_4iter6traits8iterator8Iterator4nexts_0ECs2KWZukAWMkS_10displaydoc, symObjAddr: 0x4D4, symBinAddr: 0xE548, symSize: 0xA8 }
  - { offset: 0x45DE7, size: 0x8, addend: 0x0, symName: __RINvMNtCsaNl6UpbT7bw_4core6optionINtB3_6OptionRNtNtCsc29TF2YcYso_3syn4data7VariantE7or_elseNCNvXsx_NtBN_10punctuatedINtB1z_11PrivateIterBJ_NtNtBN_5token5CommaENtNtNtNtB5_4iter6traits12double_ended19DoubleEndedIterator9next_back0ECs2KWZukAWMkS_10displaydoc, symObjAddr: 0x57C, symBinAddr: 0xE5F0, symSize: 0xA8 }
  - { offset: 0x45E63, size: 0x8, addend: 0x0, symName: __RINvMNtCsaNl6UpbT7bw_4core6optionINtB3_6OptionRNtNtCsc29TF2YcYso_3syn8generics14WherePredicateE7or_elseNCNvXsw_NtBN_10punctuatedINtB1L_11PrivateIterBJ_NtNtBN_5token5CommaENtNtNtNtB5_4iter6traits8iterator8Iterator4nexts_0ECs2KWZukAWMkS_10displaydoc, symObjAddr: 0x624, symBinAddr: 0xE698, symSize: 0xA8 }
  - { offset: 0x45EDF, size: 0x8, addend: 0x0, symName: __RINvMNtCsaNl6UpbT7bw_4core6optionINtB3_6OptionRNtNtCsc29TF2YcYso_3syn8generics14WherePredicateE7or_elseNCNvXsx_NtBN_10punctuatedINtB1L_11PrivateIterBJ_NtNtBN_5token5CommaENtNtNtNtB5_4iter6traits12double_ended19DoubleEndedIterator9next_back0ECs2KWZukAWMkS_10displaydoc, symObjAddr: 0x6CC, symBinAddr: 0xE740, symSize: 0xA8 }
  - { offset: 0x45F41, size: 0x8, addend: 0x0, symName: __RINvMNtCsaNl6UpbT7bw_4core6optionINtB3_6OptionRTNtNtCsc29TF2YcYso_3syn4data7VariantNtNtBO_5token5CommaEE3mapRBK_NCNCNvXsx_NtBO_10punctuatedINtB1W_11PrivateIterBK_B1j_ENtNtNtNtB5_4iter6traits12double_ended19DoubleEndedIterator9next_back00ECs2KWZukAWMkS_10displaydoc, symObjAddr: 0x774, symBinAddr: 0xE7E8, symSize: 0x50 }
  - { offset: 0x45FAC, size: 0x8, addend: 0x0, symName: __RINvMNtCsaNl6UpbT7bw_4core6optionINtB3_6OptionRTNtNtCsc29TF2YcYso_3syn4data7VariantNtNtBO_5token5CommaEE3mapRBK_NCNvXsw_NtBO_10punctuatedINtB1U_11PrivateIterBK_B1j_ENtNtNtNtB5_4iter6traits8iterator8Iterator4next0ECs2KWZukAWMkS_10displaydoc, symObjAddr: 0x7C4, symBinAddr: 0xE838, symSize: 0x50 }
  - { offset: 0x46017, size: 0x8, addend: 0x0, symName: __RINvMNtCsaNl6UpbT7bw_4core6optionINtB3_6OptionRTNtNtCsc29TF2YcYso_3syn8generics14WherePredicateNtNtBO_5token5CommaEE3mapRBK_NCNCNvXsx_NtBO_10punctuatedINtB28_11PrivateIterBK_B1v_ENtNtNtNtB5_4iter6traits12double_ended19DoubleEndedIterator9next_back00ECs2KWZukAWMkS_10displaydoc, symObjAddr: 0x814, symBinAddr: 0xE888, symSize: 0x50 }
  - { offset: 0x46082, size: 0x8, addend: 0x0, symName: __RINvMNtCsaNl6UpbT7bw_4core6optionINtB3_6OptionRTNtNtCsc29TF2YcYso_3syn8generics14WherePredicateNtNtBO_5token5CommaEE3mapRBK_NCNvXsw_NtBO_10punctuatedINtB26_11PrivateIterBK_B1v_ENtNtNtNtB5_4iter6traits8iterator8Iterator4next0ECs2KWZukAWMkS_10displaydoc, symObjAddr: 0x864, symBinAddr: 0xE8D8, symSize: 0x50 }
  - { offset: 0x460ED, size: 0x8, addend: 0x0, symName: __RINvMNtCsaNl6UpbT7bw_4core6resultINtB3_6ResultNtCshnvkK9b4wzu_11proc_macro211TokenStreamNtNtCsc29TF2YcYso_3syn5error5ErrorE14unwrap_or_elseNCNvCs2KWZukAWMkS_10displaydoc12derive_error0EB2h_, symObjAddr: 0x8B4, symBinAddr: 0xE928, symSize: 0x9C }
  - { offset: 0x465B9, size: 0x8, addend: 0x0, symName: __RNvMNtCsaNl6UpbT7bw_4core6optionINtB2_6OptionINtNtCsiTraAjBDcu4_5alloc5boxed3BoxNtNtCsc29TF2YcYso_3syn8generics14WherePredicateEE6as_mutCs2KWZukAWMkS_10displaydoc, symObjAddr: 0x1274, symBinAddr: 0xF2E8, symSize: 0x4C }
  - { offset: 0x46603, size: 0x8, addend: 0x0, symName: __RNvMNtCsaNl6UpbT7bw_4core6optionINtB2_6OptionNtCshnvkK9b4wzu_11proc_macro24SpanE2orCs2KWZukAWMkS_10displaydoc, symObjAddr: 0x12C0, symBinAddr: 0xF334, symSize: 0x84 }
  - { offset: 0x46669, size: 0x8, addend: 0x0, symName: __RNvMNtCsaNl6UpbT7bw_4core6optionINtB2_6OptionNtNtCs2KWZukAWMkS_10displaydoc4attr14VariantDisplayE7is_someBL_, symObjAddr: 0x1344, symBinAddr: 0xF3B8, symSize: 0x2C }
  - { offset: 0x46695, size: 0x8, addend: 0x0, symName: __RNvMNtCsaNl6UpbT7bw_4core6optionINtB2_6OptionNtNtCs2KWZukAWMkS_10displaydoc4attr7DisplayE6expectBL_, symObjAddr: 0x1370, symBinAddr: 0xF3E4, symSize: 0x70 }
  - { offset: 0x466D1, size: 0x8, addend: 0x0, symName: __RNvMNtCsaNl6UpbT7bw_4core6resultINtB2_6ResultNtNtCsc29TF2YcYso_3syn3lit6LitStrNtNtBL_5error5ErrorE6expectCs2KWZukAWMkS_10displaydoc, symObjAddr: 0x13E0, symBinAddr: 0xF454, symSize: 0xB4 }
  - { offset: 0x46744, size: 0x8, addend: 0x0, symName: __RNvMNtCsiTraAjBDcu4_5alloc6stringNtB2_6String3newCs2KWZukAWMkS_10displaydoc, symObjAddr: 0x1494, symBinAddr: 0xF508, symSize: 0x30 }
  - { offset: 0x46883, size: 0x8, addend: 0x0, symName: __RNvMNtCsiTraAjBDcu4_5alloc6stringNtB2_6String4pushCs2KWZukAWMkS_10displaydoc, symObjAddr: 0x14C4, symBinAddr: 0xF538, symSize: 0xF8 }
  - { offset: 0x46B10, size: 0x8, addend: 0x0, symName: __RNvMNtCsiTraAjBDcu4_5alloc6stringNtB2_6String6as_strCs2KWZukAWMkS_10displaydoc, symObjAddr: 0x15BC, symBinAddr: 0xF630, symSize: 0x78 }
  - { offset: 0x46CF9, size: 0x8, addend: 0x0, symName: __RNvMNtCsiTraAjBDcu4_5alloc6stringNtB2_6String8push_strCs2KWZukAWMkS_10displaydoc, symObjAddr: 0x1634, symBinAddr: 0xF6A8, symSize: 0x58 }
  - { offset: 0x46E53, size: 0x8, addend: 0x0, symName: __RNvMNtNtNtCsaNl6UpbT7bw_4core4iter8adapters7step_byINtB2_6StepByINtNtNtB8_3ops5range5RangejEE3newCs2KWZukAWMkS_10displaydoc, symObjAddr: 0x168C, symBinAddr: 0xF700, symSize: 0xE0 }
  - { offset: 0x46F72, size: 0x8, addend: 0x0, symName: __RNvMNtNtNtCsg4dki62PTrg_9hashbrown7control5group4neonNtB2_5Group10match_fullCs2KWZukAWMkS_10displaydoc, symObjAddr: 0x176C, symBinAddr: 0xF7E0, symSize: 0x68 }
  - { offset: 0x46FAA, size: 0x8, addend: 0x0, symName: __RNvMNtNtNtCsg4dki62PTrg_9hashbrown7control5group4neonNtB2_5Group22match_empty_or_deletedCs2KWZukAWMkS_10displaydoc, symObjAddr: 0x17D4, symBinAddr: 0xF848, symSize: 0x68 }
  - { offset: 0x46FE2, size: 0x8, addend: 0x0, symName: __RNvMNtNtNtCsg4dki62PTrg_9hashbrown7control5group4neonNtB2_5Group44convert_special_to_empty_and_full_to_deletedCs2KWZukAWMkS_10displaydoc, symObjAddr: 0x183C, symBinAddr: 0xF8B0, symSize: 0x88 }
  - { offset: 0x4701A, size: 0x8, addend: 0x0, symName: __RNvMNtNtNtCsg4dki62PTrg_9hashbrown7control5group4neonNtB2_5Group9match_tagCs2KWZukAWMkS_10displaydoc, symObjAddr: 0x18C4, symBinAddr: 0xF938, symSize: 0x7C }
  - { offset: 0x47068, size: 0x8, addend: 0x0, symName: __RNvMs0_NtCsaNl6UpbT7bw_4core6optionINtB5_6OptionRNtNtCsc29TF2YcYso_3syn8generics11WhereClauseE6clonedCs2KWZukAWMkS_10displaydoc, symObjAddr: 0x1940, symBinAddr: 0xF9B4, symSize: 0x70 }
  - { offset: 0x47245, size: 0x8, addend: 0x0, symName: __RNvXNtCs4EAaWzSXu1l_5quote9to_tokensRINtNtCsaNl6UpbT7bw_4core6option6OptionNtCshnvkK9b4wzu_11proc_macro25IdentENtB2_8ToTokens9to_tokensCs2KWZukAWMkS_10displaydoc, symObjAddr: 0x1DE4, symBinAddr: 0xFE58, symSize: 0x40 }
  - { offset: 0x4728A, size: 0x8, addend: 0x0, symName: __RNvXs3_NtCs4EAaWzSXu1l_5quote9to_tokensINtNtCsaNl6UpbT7bw_4core6option6OptionNtCshnvkK9b4wzu_11proc_macro211TokenStreamENtB5_8ToTokens9to_tokensCs2KWZukAWMkS_10displaydoc, symObjAddr: 0x1F38, symBinAddr: 0xFFAC, symSize: 0x84 }
  - { offset: 0x472EC, size: 0x8, addend: 0x0, symName: __RNvYRNtNtCsc29TF2YcYso_3syn4data7VariantNtNtCs4EAaWzSXu1l_5quote9to_tokens8ToTokens15to_token_streamCs2KWZukAWMkS_10displaydoc, symObjAddr: 0x36AC, symBinAddr: 0x11720, symSize: 0x8C }
  - { offset: 0x47336, size: 0x8, addend: 0x0, symName: __RNvYRNtNtCsc29TF2YcYso_3syn4data7VariantNtNtCs4EAaWzSXu1l_5quote9to_tokens8ToTokens17into_token_streamCs2KWZukAWMkS_10displaydoc, symObjAddr: 0x3738, symBinAddr: 0x117AC, symSize: 0x54 }
  - { offset: 0x477F2, size: 0x8, addend: 0x0, symName: __RINvMs3_NtNtCs7yrEGia95Wz_10proc_macro6bridge6bufferNtB6_6Buffer17extend_from_arrayKj4_ECs2KWZukAWMkS_10displaydoc, symObjAddr: 0x0, symBinAddr: 0x11854, symSize: 0x16C }
  - { offset: 0x478CB, size: 0x8, addend: 0x0, symName: __RNvNvMNtNtCsaNl6UpbT7bw_4core3ptr9const_ptrPp20offset_from_unsigned18precondition_checkCs2KWZukAWMkS_10displaydoc, symObjAddr: 0x17C0, symBinAddr: 0x13014, symSize: 0xAC }
  - { offset: 0x48824, size: 0x8, addend: 0x0, symName: __RINvXs2V_NtNtCsaNl6UpbT7bw_4core5slice4iterINtB7_4IterINtNtBb_6option6OptionNtNtCs2KWZukAWMkS_10displaydoc4attr14VariantDisplayEENtNtNtNtBb_4iter6traits8iterator8Iterator3anyNvMBT_BQ_7is_someEB1g_, symObjAddr: 0x4B4, symBinAddr: 0x11D08, symSize: 0xAC }
  - { offset: 0x48889, size: 0x8, addend: 0x0, symName: __RINvXs2V_NtNtCsaNl6UpbT7bw_4core5slice4iterINtB7_4IterNtNtCsc29TF2YcYso_3syn4attr9AttributeENtNtNtNtBb_4iter6traits8iterator8Iterator3anyNCNvMs0_NtCs2KWZukAWMkS_10displaydoc4attrNtB2j_11AttrsHelper3new0EB2l_, symObjAddr: 0x560, symBinAddr: 0x11DB4, symSize: 0xAC }
  - { offset: 0x488EE, size: 0x8, addend: 0x0, symName: __RINvXs2V_NtNtCsaNl6UpbT7bw_4core5slice4iterINtB7_4IterNtNtCsc29TF2YcYso_3syn4attr9AttributeENtNtNtNtBb_4iter6traits8iterator8Iterator3anyNCNvMs0_NtCs2KWZukAWMkS_10displaydoc4attrNtB2j_11AttrsHelper3news_0EB2l_, symObjAddr: 0x60C, symBinAddr: 0x11E60, symSize: 0xAC }
  - { offset: 0x48953, size: 0x8, addend: 0x0, symName: __RINvXs2V_NtNtCsaNl6UpbT7bw_4core5slice4iterINtB7_4IterNtNtCsc29TF2YcYso_3syn4attr9AttributeENtNtNtNtBb_4iter6traits8iterator8Iterator4findNCNvMs0_NtCs2KWZukAWMkS_10displaydoc4attrNtB2k_11AttrsHelper7display0EB2m_, symObjAddr: 0x6B8, symBinAddr: 0x11F0C, symSize: 0xAC }
  - { offset: 0x489B8, size: 0x8, addend: 0x0, symName: __RINvXs2V_NtNtCsaNl6UpbT7bw_4core5slice4iterINtB7_4IterNtNtCsc29TF2YcYso_3syn4attr9AttributeENtNtNtNtBb_4iter6traits8iterator8Iterator4foldjNCINvNtNtB1y_8adapters3map8map_foldRBQ_jjNCINvNvXs1_NtB2k_6filterINtB33_6FilterppEB1s_5count8to_usizeB2M_NCNvMs0_NtCs2KWZukAWMkS_10displaydoc4attrNtB42_11AttrsHelper7displays_0E0NCINvXsK_NtB1w_5accumjNtB5e_3Sum3sumINtB2i_3MapBF_B2S_EE0E0EB44_, symObjAddr: 0x764, symBinAddr: 0x11FB8, symSize: 0x1BC }
  - { offset: 0x48B11, size: 0x8, addend: 0x0, symName: __RINvXs2V_NtNtCsaNl6UpbT7bw_4core5slice4iterINtB7_4IterRNtNtCsc29TF2YcYso_3syn8generics9TypeParamENtNtNtNtBb_4iter6traits8iterator8Iterator4folduNCINvNtNtB1D_8adapters3map8map_foldRBQ_TNtCshnvkK9b4wzu_11proc_macro25IdentINtNtCsiTraAjBDcu4_5alloc3vec3VecNtBT_10TraitBoundEEuNCNvNtCs2KWZukAWMkS_10displaydoc6expand37extract_trait_constraints_from_source0NCINvNvB1x_8for_each4callB2V_NCINvXs1i_NtCsg4dki62PTrg_9hashbrown3mapINtB6g_7HashMapB2W_B3v_NtNtNtCsht3nMU9UgFu_3std4hash6random11RandomStateEINtNtB1B_7collect6ExtendB2V_E6extendINtB2n_3MapBF_B4m_EE0E0E0EB4s_, symObjAddr: 0x920, symBinAddr: 0x12174, symSize: 0x18C }
  - { offset: 0x48C65, size: 0x8, addend: 0x0, symName: __RNvXs2V_NtNtCsaNl6UpbT7bw_4core5slice4iterINtB6_4IterINtNtBa_6option6OptionNtNtCs2KWZukAWMkS_10displaydoc4attr14VariantDisplayEENtNtNtNtBa_4iter6traits8iterator8Iterator4nextB1f_, symObjAddr: 0x1E64, symBinAddr: 0x136B8, symSize: 0xB0 }
  - { offset: 0x48D9F, size: 0x8, addend: 0x0, symName: __RNvXs2V_NtNtCsaNl6UpbT7bw_4core5slice4iterINtB6_4IterNtCshnvkK9b4wzu_11proc_macro211TokenStreamENtNtNtNtBa_4iter6traits8iterator8Iterator4nextCs2KWZukAWMkS_10displaydoc, symObjAddr: 0x1F14, symBinAddr: 0x13768, symSize: 0xB0 }
  - { offset: 0x48ED9, size: 0x8, addend: 0x0, symName: __RNvXs2V_NtNtCsaNl6UpbT7bw_4core5slice4iterINtB6_4IterRNtNtCsc29TF2YcYso_3syn8generics9TypeParamENtNtNtNtBa_4iter6traits8iterator8Iterator9size_hintCs2KWZukAWMkS_10displaydoc, symObjAddr: 0x1FC4, symBinAddr: 0x13818, symSize: 0x70 }
  - { offset: 0x49156, size: 0x8, addend: 0x0, symName: __RNvXs2W_NtNtCsaNl6UpbT7bw_4core5slice4iterINtB6_4IterTNtNtCsc29TF2YcYso_3syn4data7VariantNtNtBU_5token5CommaEENtNtNtNtBa_4iter6traits12double_ended19DoubleEndedIterator9next_backCs2KWZukAWMkS_10displaydoc, symObjAddr: 0x2034, symBinAddr: 0x13888, symSize: 0x108 }
  - { offset: 0x492B2, size: 0x8, addend: 0x0, symName: __RNvXs2W_NtNtCsaNl6UpbT7bw_4core5slice4iterINtB6_4IterTNtNtCsc29TF2YcYso_3syn8generics14WherePredicateNtNtBU_5token5CommaEENtNtNtNtBa_4iter6traits12double_ended19DoubleEndedIterator9next_backCs2KWZukAWMkS_10displaydoc, symObjAddr: 0x213C, symBinAddr: 0x13990, symSize: 0x108 }
  - { offset: 0x4948B, size: 0x8, addend: 0x0, symName: __RNvXs33_NtNtCsaNl6UpbT7bw_4core5slice4iterINtB6_7IterMutTNtNtCsc29TF2YcYso_3syn8generics14WherePredicateNtNtBX_5token5CommaEENtNtNtNtBa_4iter6traits8iterator8Iterator4nextCs2KWZukAWMkS_10displaydoc, symObjAddr: 0x2244, symBinAddr: 0x13A98, symSize: 0xB0 }
  - { offset: 0x495B6, size: 0x8, addend: 0x0, symName: __RNvXs34_NtNtCsaNl6UpbT7bw_4core5slice4iterINtB6_7IterMutTNtNtCsc29TF2YcYso_3syn8generics14WherePredicateNtNtBX_5token5CommaEENtNtNtNtBa_4iter6traits12double_ended19DoubleEndedIterator9next_backCs2KWZukAWMkS_10displaydoc, symObjAddr: 0x22F4, symBinAddr: 0x13B48, symSize: 0x108 }
  - { offset: 0x49718, size: 0x8, addend: 0x0, symName: __RNvXs5_NtNtCsaNl6UpbT7bw_4core5slice4iterINtB5_4IterTNtNtCsc29TF2YcYso_3syn4data7VariantNtNtBT_5token5CommaEENtNtB9_5clone5Clone5cloneCs2KWZukAWMkS_10displaydoc, symObjAddr: 0x2488, symBinAddr: 0x13CDC, symSize: 0x20 }
  - { offset: 0x4974D, size: 0x8, addend: 0x0, symName: __RNvXs5_NtNtCsaNl6UpbT7bw_4core5slice4iterINtB5_4IterTNtNtCsc29TF2YcYso_3syn8generics14WherePredicateNtNtBT_5token5CommaEENtNtB9_5clone5Clone5cloneCs2KWZukAWMkS_10displaydoc, symObjAddr: 0x24A8, symBinAddr: 0x13CFC, symSize: 0x20 }
  - { offset: 0x497FA, size: 0x8, addend: 0x0, symName: __RNvNvNtNtCsaNl6UpbT7bw_4core5slice3raw14from_raw_parts18precondition_checkCs2KWZukAWMkS_10displaydoc, symObjAddr: 0x1A58, symBinAddr: 0x132AC, symSize: 0x1DC }
  - { offset: 0x4997E, size: 0x8, addend: 0x0, symName: __RNvNvNtNtCsaNl6UpbT7bw_4core5slice3raw18from_raw_parts_mut18precondition_checkCs2KWZukAWMkS_10displaydoc, symObjAddr: 0x1C34, symBinAddr: 0x13488, symSize: 0x1DC }
  - { offset: 0x49B4B, size: 0x8, addend: 0x0, symName: __RNvNvMs3_NtCsaNl6UpbT7bw_4core3numi13unchecked_neg18precondition_checkCs2KWZukAWMkS_10displaydoc, symObjAddr: 0x186C, symBinAddr: 0x130C0, symSize: 0xB8 }
  - { offset: 0x49CCA, size: 0x8, addend: 0x0, symName: __RNvNvMs9_NtCsaNl6UpbT7bw_4core3numj13unchecked_add18precondition_checkCs2KWZukAWMkS_10displaydoc, symObjAddr: 0x1924, symBinAddr: 0x13178, symSize: 0xB0 }
  - { offset: 0x4BE36, size: 0x8, addend: 0x0, symName: __RNvNvNtCsaNl6UpbT7bw_4core4hint21unreachable_unchecked18precondition_checkCs2KWZukAWMkS_10displaydoc, symObjAddr: 0x19D4, symBinAddr: 0x13228, symSize: 0x84 }
  - { offset: 0x4C46F, size: 0x8, addend: 0x0, symName: __RINvYINtNtNtCsaNl6UpbT7bw_4core5slice4iter4IterNtNtCsc29TF2YcYso_3syn4attr9AttributeENtNtNtNtBa_4iter6traits8iterator8Iterator3mapjNCINvNvXs1_NtNtB1r_8adapters6filterINtB2g_6FilterppEB1l_5count8to_usizeRBJ_NCNvMs0_NtCs2KWZukAWMkS_10displaydoc4attrNtB3q_11AttrsHelper7displays_0E0EB3s_, symObjAddr: 0xAAC, symBinAddr: 0x12300, symSize: 0x1C }
  - { offset: 0x4C4C7, size: 0x8, addend: 0x0, symName: __RINvYINtNtNtCsaNl6UpbT7bw_4core5slice4iter4IterNtNtCsc29TF2YcYso_3syn4attr9AttributeENtNtNtNtBa_4iter6traits8iterator8Iterator6filterNCNvMs0_NtCs2KWZukAWMkS_10displaydoc4attrNtB2f_11AttrsHelper7displays_0EB2h_, symObjAddr: 0xAC8, symBinAddr: 0x1231C, symSize: 0x1C }
  - { offset: 0x4C516, size: 0x8, addend: 0x0, symName: __RINvYINtNtNtCsaNl6UpbT7bw_4core5slice4iter4IterRNtNtCsc29TF2YcYso_3syn8generics9TypeParamENtNtNtNtBa_4iter6traits8iterator8Iterator3mapTNtCshnvkK9b4wzu_11proc_macro25IdentINtNtCsiTraAjBDcu4_5alloc3vec3VecNtBM_10TraitBoundEENCNvNtCs2KWZukAWMkS_10displaydoc6expand37extract_trait_constraints_from_source0EB3F_, symObjAddr: 0xAE4, symBinAddr: 0x12338, symSize: 0x1C }
  - { offset: 0x4C599, size: 0x8, addend: 0x0, symName: __RNvXNtNtNtCsaNl6UpbT7bw_4core4iter6traits7collectINtNtNtB8_5slice4iter4IterReENtB2_12IntoIterator9into_iterCs2KWZukAWMkS_10displaydoc, symObjAddr: 0x1E10, symBinAddr: 0x13664, symSize: 0x1C }
  - { offset: 0x4C713, size: 0x8, addend: 0x0, symName: __RNvNtNtNtNtCsaNl6UpbT7bw_4core9core_arch7aarch644neon9generated7vld1_u8Cs2KWZukAWMkS_10displaydoc, symObjAddr: 0x167C, symBinAddr: 0x12ED0, symSize: 0x34 }
  - { offset: 0x4C741, size: 0x8, addend: 0x0, symName: __RNvNtNtNtNtCsaNl6UpbT7bw_4core9core_arch7aarch644neon9generated7vst1_u8Cs2KWZukAWMkS_10displaydoc, symObjAddr: 0x16B0, symBinAddr: 0x12F04, symSize: 0x40 }
  - { offset: 0x4C77B, size: 0x8, addend: 0x0, symName: __RNvNtNtNtNtCsaNl6UpbT7bw_4core9core_arch7aarch644neon9generated8vcgez_s8Cs2KWZukAWMkS_10displaydoc, symObjAddr: 0x16F0, symBinAddr: 0x12F44, symSize: 0x68 }
  - { offset: 0x4C81D, size: 0x8, addend: 0x0, symName: __RNvNtNtNtNtCsaNl6UpbT7bw_4core9core_arch7aarch644neon9generated8vcltz_s8Cs2KWZukAWMkS_10displaydoc, symObjAddr: 0x1758, symBinAddr: 0x12FAC, symSize: 0x68 }
  - { offset: 0x4CC8A, size: 0x8, addend: 0x0, symName: __RNCNvXs1_NtNtNtCsht3nMU9UgFu_3std2io5error14repr_bitpackedNtB7_4ReprNtNtNtCsaNl6UpbT7bw_4core3ops4drop4Drop4drop0Cs2KWZukAWMkS_10displaydoc, symObjAddr: 0xB00, symBinAddr: 0x12354, symSize: 0x3C }
  - { offset: 0x4CD3F, size: 0x8, addend: 0x0, symName: __RNvXs1_NtNtNtCsht3nMU9UgFu_3std2io5error14repr_bitpackedNtB5_4ReprNtNtNtCsaNl6UpbT7bw_4core3ops4drop4Drop4dropCs2KWZukAWMkS_10displaydoc, symObjAddr: 0x1E2C, symBinAddr: 0x13680, symSize: 0x38 }
  - { offset: 0x4CD68, size: 0x8, addend: 0x0, symName: __RINvNtNtNtCsht3nMU9UgFu_3std2io5error14repr_bitpacked11decode_reprINtNtCsiTraAjBDcu4_5alloc5boxed3BoxNtB4_6CustomENCNvXs1_B2_NtB2_4ReprNtNtNtCsaNl6UpbT7bw_4core3ops4drop4Drop4drop0ECs2KWZukAWMkS_10displaydoc, symObjAddr: 0x2D8, symBinAddr: 0x11B2C, symSize: 0x1DC }
  - { offset: 0x4CFC4, size: 0x8, addend: 0x0, symName: __RNvNtNtNtCsht3nMU9UgFu_3std2io5error14repr_bitpacked14kind_from_primCs2KWZukAWMkS_10displaydoc, symObjAddr: 0xF24, symBinAddr: 0x12778, symSize: 0x758 }
  - { offset: 0x4DA81, size: 0x8, addend: 0x0, symName: __RNvXs5_NtNtCs7yrEGia95Wz_10proc_macro6bridge6bufferNtB5_6BufferNtNtNtCsaNl6UpbT7bw_4core3ops4drop4Drop4dropCs2KWZukAWMkS_10displaydoc, symObjAddr: 0x23FC, symBinAddr: 0x13C50, symSize: 0x8C }
  - { offset: 0x4E509, size: 0x8, addend: 0x0, symName: __RINvMs3_NtNtCs7yrEGia95Wz_10proc_macro6bridge6bufferNtB6_6Buffer17extend_from_arrayKj4_ECs2KWZukAWMkS_10displaydoc, symObjAddr: 0x0, symBinAddr: 0x11854, symSize: 0x16C }
  - { offset: 0x4E691, size: 0x8, addend: 0x0, symName: __RINvMs3_NtNtCs7yrEGia95Wz_10proc_macro6bridge6bufferNtB6_6Buffer17extend_from_arrayKj8_ECs2KWZukAWMkS_10displaydoc, symObjAddr: 0x16C, symBinAddr: 0x119C0, symSize: 0x16C }
  - { offset: 0x5499C, size: 0x8, addend: 0x0, symName: __RNvMs3_NtNtCs7yrEGia95Wz_10proc_macro6bridge6bufferNtB5_6Buffer17extend_from_sliceCs2KWZukAWMkS_10displaydoc, symObjAddr: 0xB3C, symBinAddr: 0x12390, symSize: 0x164 }
  - { offset: 0x54B1A, size: 0x8, addend: 0x0, symName: __RNvMs3_NtNtCs7yrEGia95Wz_10proc_macro6bridge6bufferNtB5_6Buffer4pushCs2KWZukAWMkS_10displaydoc, symObjAddr: 0xCA0, symBinAddr: 0x124F4, symSize: 0x134 }
  - { offset: 0x54D39, size: 0x8, addend: 0x0, symName: __RNvMs4_NtNtCsaNl6UpbT7bw_4core5slice4iterINtB5_4IterINtNtB9_6option6OptionNtNtCs2KWZukAWMkS_10displaydoc4attr14VariantDisplayEE3newB1e_, symObjAddr: 0xDD4, symBinAddr: 0x12628, symSize: 0x58 }
  - { offset: 0x54F03, size: 0x8, addend: 0x0, symName: __RNvMs4_NtNtCsaNl6UpbT7bw_4core5slice4iterINtB5_4IterNtCshnvkK9b4wzu_11proc_macro211TokenStreamE3newCs2KWZukAWMkS_10displaydoc, symObjAddr: 0xE2C, symBinAddr: 0x12680, symSize: 0x50 }
  - { offset: 0x550B3, size: 0x8, addend: 0x0, symName: __RNvMs4_NtNtCsaNl6UpbT7bw_4core5slice4iterINtB5_4IterRNtNtCsc29TF2YcYso_3syn8generics9TypeParamE3newCs2KWZukAWMkS_10displaydoc, symObjAddr: 0xE7C, symBinAddr: 0x126D0, symSize: 0x50 }
  - { offset: 0x5527D, size: 0x8, addend: 0x0, symName: __RNvMsa_NtNtCsaNl6UpbT7bw_4core5slice4iterINtB5_7IterMutTNtNtCsc29TF2YcYso_3syn8generics14WherePredicateNtNtBW_5token5CommaEE3newCs2KWZukAWMkS_10displaydoc, symObjAddr: 0xECC, symBinAddr: 0x12720, symSize: 0x58 }
  - { offset: 0x55BDF, size: 0x8, addend: 0x0, symName: __RINvMNtCsaNl6UpbT7bw_4core3stre12trim_matchesNvMNtNtB5_4char7methodsc13is_whitespaceECs2KWZukAWMkS_10displaydoc, symObjAddr: 0x0, symBinAddr: 0x13D1C, symSize: 0x130 }
  - { offset: 0x55C01, size: 0x8, addend: 0x0, symName: ___rustc_proc_macro_decls_201da2fa82a090c0__, symObjAddr: 0x42B0, symBinAddr: 0x20CA90, symSize: 0x0 }
  - { offset: 0x55D44, size: 0x8, addend: 0x0, symName: __RNvCs2KWZukAWMkS_10displaydoc12derive_error, symObjAddr: 0x3918, symBinAddr: 0x173CC, symSize: 0x198 }
  - { offset: 0x55DBE, size: 0x8, addend: 0x0, symName: __RNCNvCs2KWZukAWMkS_10displaydoc12derive_error0B3_, symObjAddr: 0x3AB0, symBinAddr: 0x17564, symSize: 0x64 }
  - { offset: 0x563EE, size: 0x8, addend: 0x0, symName: __RINvNvNtNtCs7yrEGia95Wz_10proc_macro6bridge14selfless_reify31reify_to_extern_c_fn_hrt_bridge7wrapperNtNtB6_6buffer6BufferNCINvMs6_NtB6_6clientINtB24_6ClientNtB8_11TokenStreamB2u_E7expand1NvCs2KWZukAWMkS_10displaydoc12derive_errorE0EB31_, symObjAddr: 0x19D0, symBinAddr: 0x15484, symSize: 0x5C }
  - { offset: 0x56456, size: 0x8, addend: 0x0, symName: __RNvXs7_NtNtCs7yrEGia95Wz_10proc_macro6bridge3rpcINtNtNtCsaNl6UpbT7bw_4core3num7nonzero7NonZeromEINtB5_9DecodeMutuE6decodeCs2KWZukAWMkS_10displaydoc, symObjAddr: 0x31F8, symBinAddr: 0x16CAC, symSize: 0x5C }
  - { offset: 0x59713, size: 0x8, addend: 0x0, symName: __RNvNvMsd_NtNtCsaNl6UpbT7bw_4core3num7nonzeroINtB7_7NonZeropE13new_unchecked18precondition_checkCs2KWZukAWMkS_10displaydoc, symObjAddr: 0x26C4, symBinAddr: 0x16178, symSize: 0x84 }
  - { offset: 0x5A829, size: 0x8, addend: 0x0, symName: __RNvNvMs1_NtNtCsaNl6UpbT7bw_4core3ptr8non_nullINtB7_7NonNullpE13new_unchecked18precondition_checkCs2KWZukAWMkS_10displaydoc, symObjAddr: 0x2620, symBinAddr: 0x160D4, symSize: 0xA4 }
  - { offset: 0x5A937, size: 0x8, addend: 0x0, symName: __RINvNtCsaNl6UpbT7bw_4core3ptr13drop_in_placeINtNtB4_4cell10UnsafeCellNtNtNtCs7yrEGia95Wz_10proc_macro6bridge6client6BridgeEECs2KWZukAWMkS_10displaydoc, symObjAddr: 0x584, symBinAddr: 0x14038, symSize: 0x24 }
  - { offset: 0x5A966, size: 0x8, addend: 0x0, symName: __RINvNtCsaNl6UpbT7bw_4core3ptr13drop_in_placeINtNtB4_4cell7RefCellNtNtNtCs7yrEGia95Wz_10proc_macro6bridge6client6BridgeEECs2KWZukAWMkS_10displaydoc, symObjAddr: 0x5A8, symBinAddr: 0x1405C, symSize: 0x24 }
  - { offset: 0x5A995, size: 0x8, addend: 0x0, symName: __RINvNtCsaNl6UpbT7bw_4core3ptr13drop_in_placeINtNtB4_6option6OptionIBH_NtNtCs2KWZukAWMkS_10displaydoc4attr14VariantDisplayEEEB1a_, symObjAddr: 0x5CC, symBinAddr: 0x14080, symSize: 0x4C }
  - { offset: 0x5A9C4, size: 0x8, addend: 0x0, symName: __RINvNtCsaNl6UpbT7bw_4core3ptr13drop_in_placeINtNtB4_6option6OptionINtNtB4_6result6ResultNtNtB4_7convert10InfallibleNtNtCsc29TF2YcYso_3syn5error5ErrorEEECs2KWZukAWMkS_10displaydoc, symObjAddr: 0x618, symBinAddr: 0x140CC, symSize: 0x48 }
  - { offset: 0x5A9F3, size: 0x8, addend: 0x0, symName: __RINvNtCsaNl6UpbT7bw_4core3ptr13drop_in_placeINtNtB4_6option6OptionINtNtCsiTraAjBDcu4_5alloc3vec3VecNtNtCsc29TF2YcYso_3syn8generics10TraitBoundEEECs2KWZukAWMkS_10displaydoc, symObjAddr: 0x660, symBinAddr: 0x14114, symSize: 0x48 }
  - { offset: 0x5AA22, size: 0x8, addend: 0x0, symName: __RINvNtCsaNl6UpbT7bw_4core3ptr13drop_in_placeINtNtB4_6option6OptionINtNtNtNtB4_4iter8adapters3map3MapINtNtCsc29TF2YcYso_3syn10punctuated4IterNtNtB1F_8generics14TypeParamBoundENCNCNvNtCs2KWZukAWMkS_10displaydoc6expand37extract_trait_constraints_from_source00EEEB2U_, symObjAddr: 0x6A8, symBinAddr: 0x1415C, symSize: 0x44 }
  - { offset: 0x5AA51, size: 0x8, addend: 0x0, symName: __RINvNtCsaNl6UpbT7bw_4core3ptr13drop_in_placeINtNtB4_6option6OptionINtNtNtNtB4_4iter8adapters3map3MapINtNtCsc29TF2YcYso_3syn10punctuated7IterMutNtNtB1F_8generics14WherePredicateENCNvNtCs2KWZukAWMkS_10displaydoc6expand39ensure_display_in_where_clause_for_type0EEEB2V_, symObjAddr: 0x6EC, symBinAddr: 0x141A0, symSize: 0x44 }
  - { offset: 0x5AA80, size: 0x8, addend: 0x0, symName: __RINvNtCsaNl6UpbT7bw_4core3ptr13drop_in_placeINtNtB4_6option6OptionNtNtCs2KWZukAWMkS_10displaydoc4attr14VariantDisplayEEB16_, symObjAddr: 0x730, symBinAddr: 0x141E4, symSize: 0x48 }
  - { offset: 0x5AAAF, size: 0x8, addend: 0x0, symName: __RINvNtCsaNl6UpbT7bw_4core3ptr13drop_in_placeINtNtB4_6option6OptionNtNtCs2KWZukAWMkS_10displaydoc4attr7DisplayEEB16_, symObjAddr: 0x778, symBinAddr: 0x1422C, symSize: 0x48 }
  - { offset: 0x5AADE, size: 0x8, addend: 0x0, symName: __RINvNtCsaNl6UpbT7bw_4core3ptr13drop_in_placeINtNtB4_6option6OptionNtNtCsc29TF2YcYso_3syn8generics10TraitBoundEECs2KWZukAWMkS_10displaydoc, symObjAddr: 0x7C0, symBinAddr: 0x14274, symSize: 0x48 }
  - { offset: 0x5AB0D, size: 0x8, addend: 0x0, symName: __RINvNtCsaNl6UpbT7bw_4core3ptr13drop_in_placeINtNtB4_6option6OptionTRNtNtCsc29TF2YcYso_3syn4data7VariantIBH_NtNtCs2KWZukAWMkS_10displaydoc4attr14VariantDisplayEEEEB1L_, symObjAddr: 0x808, symBinAddr: 0x142BC, symSize: 0x4C }
  - { offset: 0x5AB3C, size: 0x8, addend: 0x0, symName: __RINvNtCsaNl6UpbT7bw_4core3ptr13drop_in_placeINtNtB4_6result6ResultNtNtB4_7convert10InfallibleNtNtCsc29TF2YcYso_3syn5error5ErrorEECs2KWZukAWMkS_10displaydoc, symObjAddr: 0x854, symBinAddr: 0x14308, symSize: 0x30 }
  - { offset: 0x5AB6B, size: 0x8, addend: 0x0, symName: __RINvNtCsaNl6UpbT7bw_4core3ptr13drop_in_placeINtNtCs4EAaWzSXu1l_5quote9___private9RepInterpNtCshnvkK9b4wzu_11proc_macro25IdentEECs2KWZukAWMkS_10displaydoc, symObjAddr: 0x884, symBinAddr: 0x14338, symSize: 0x24 }
  - { offset: 0x5AB9A, size: 0x8, addend: 0x0, symName: __RINvNtCsaNl6UpbT7bw_4core3ptr13drop_in_placeINtNtCsc29TF2YcYso_3syn10punctuated4IterNtNtBL_4data5FieldEECs2KWZukAWMkS_10displaydoc, symObjAddr: 0x8A8, symBinAddr: 0x1435C, symSize: 0x24 }
  - { offset: 0x5ABC9, size: 0x8, addend: 0x0, symName: __RINvNtCsaNl6UpbT7bw_4core3ptr13drop_in_placeINtNtCsc29TF2YcYso_3syn10punctuated4IterNtNtBL_4data7VariantEECs2KWZukAWMkS_10displaydoc, symObjAddr: 0x8CC, symBinAddr: 0x14380, symSize: 0x24 }
  - { offset: 0x5ABF8, size: 0x8, addend: 0x0, symName: __RINvNtCsaNl6UpbT7bw_4core3ptr13drop_in_placeINtNtCsc29TF2YcYso_3syn10punctuated4IterNtNtBL_8generics12GenericParamEECs2KWZukAWMkS_10displaydoc, symObjAddr: 0x8F0, symBinAddr: 0x143A4, symSize: 0x24 }
  - { offset: 0x5AC27, size: 0x8, addend: 0x0, symName: __RINvNtCsaNl6UpbT7bw_4core3ptr13drop_in_placeINtNtCsc29TF2YcYso_3syn10punctuated4IterNtNtBL_8generics14WherePredicateEECs2KWZukAWMkS_10displaydoc, symObjAddr: 0x914, symBinAddr: 0x143C8, symSize: 0x24 }
  - { offset: 0x5AC56, size: 0x8, addend: 0x0, symName: __RINvNtCsaNl6UpbT7bw_4core3ptr13drop_in_placeINtNtCsc29TF2YcYso_3syn10punctuated7IterMutNtNtBL_8generics14WherePredicateEECs2KWZukAWMkS_10displaydoc, symObjAddr: 0x938, symBinAddr: 0x143EC, symSize: 0x24 }
  - { offset: 0x5AC85, size: 0x8, addend: 0x0, symName: __RINvNtCsaNl6UpbT7bw_4core3ptr13drop_in_placeINtNtCsg4dki62PTrg_9hashbrown10scopeguard10ScopeGuardNtNtBL_3raw13RawTableInnerNCINvMsa_B1z_B1x_14prepare_resizeNtNtCsiTraAjBDcu4_5alloc5alloc6GlobalE0EECs2KWZukAWMkS_10displaydoc, symObjAddr: 0x95C, symBinAddr: 0x14410, symSize: 0x24 }
  - { offset: 0x5ACB4, size: 0x8, addend: 0x0, symName: __RINvNtCsaNl6UpbT7bw_4core3ptr13drop_in_placeINtNtCsg4dki62PTrg_9hashbrown10scopeguard10ScopeGuardQNtNtBL_3raw13RawTableInnerNCNvMsa_B1A_B1y_15rehash_in_place0EECs2KWZukAWMkS_10displaydoc, symObjAddr: 0x980, symBinAddr: 0x14434, symSize: 0x24 }
  - { offset: 0x5ACE3, size: 0x8, addend: 0x0, symName: __RINvNtCsaNl6UpbT7bw_4core3ptr13drop_in_placeINtNtCsg4dki62PTrg_9hashbrown3map7HashMapNtCshnvkK9b4wzu_11proc_macro25IdentINtNtCsiTraAjBDcu4_5alloc3vec3VecNtNtCsc29TF2YcYso_3syn8generics10TraitBoundENtNtNtCsht3nMU9UgFu_3std4hash6random11RandomStateEECs2KWZukAWMkS_10displaydoc, symObjAddr: 0x9A4, symBinAddr: 0x14458, symSize: 0x24 }
  - { offset: 0x5AD12, size: 0x8, addend: 0x0, symName: __RINvNtCsaNl6UpbT7bw_4core3ptr13drop_in_placeINtNtCsg4dki62PTrg_9hashbrown3map8IntoIterNtCshnvkK9b4wzu_11proc_macro25IdentINtNtCsiTraAjBDcu4_5alloc3vec3VecNtNtCsc29TF2YcYso_3syn8generics10TraitBoundEEECs2KWZukAWMkS_10displaydoc, symObjAddr: 0x9C8, symBinAddr: 0x1447C, symSize: 0x24 }
  - { offset: 0x5AD41, size: 0x8, addend: 0x0, symName: __RINvNtCsaNl6UpbT7bw_4core3ptr13drop_in_placeINtNtCsg4dki62PTrg_9hashbrown3raw11RawIntoIterTNtCshnvkK9b4wzu_11proc_macro25IdentINtNtCsiTraAjBDcu4_5alloc3vec3VecNtNtCsc29TF2YcYso_3syn8generics10TraitBoundEEEECs2KWZukAWMkS_10displaydoc, symObjAddr: 0x9EC, symBinAddr: 0x144A0, symSize: 0x24 }
  - { offset: 0x5AD70, size: 0x8, addend: 0x0, symName: __RINvNtCsaNl6UpbT7bw_4core3ptr13drop_in_placeINtNtCsg4dki62PTrg_9hashbrown3raw8RawTableTNtCshnvkK9b4wzu_11proc_macro25IdentINtNtCsiTraAjBDcu4_5alloc3vec3VecNtNtCsc29TF2YcYso_3syn8generics10TraitBoundEEEECs2KWZukAWMkS_10displaydoc, symObjAddr: 0xA10, symBinAddr: 0x144C4, symSize: 0x24 }
  - { offset: 0x5AD9F, size: 0x8, addend: 0x0, symName: __RINvNtCsaNl6UpbT7bw_4core3ptr13drop_in_placeINtNtCsiTraAjBDcu4_5alloc3vec3VecINtNtB4_6option6OptionNtNtCs2KWZukAWMkS_10displaydoc4attr14VariantDisplayEEEB1D_, symObjAddr: 0xA34, symBinAddr: 0x144E8, symSize: 0x5C }
  - { offset: 0x5ADCE, size: 0x8, addend: 0x0, symName: __RINvNtCsaNl6UpbT7bw_4core3ptr13drop_in_placeINtNtCsiTraAjBDcu4_5alloc3vec3VecNtCshnvkK9b4wzu_11proc_macro211TokenStreamEECs2KWZukAWMkS_10displaydoc, symObjAddr: 0xA90, symBinAddr: 0x14544, symSize: 0x5C }
  - { offset: 0x5ADFD, size: 0x8, addend: 0x0, symName: __RINvNtCsaNl6UpbT7bw_4core3ptr13drop_in_placeINtNtCsiTraAjBDcu4_5alloc3vec3VecNtNtCsc29TF2YcYso_3syn8generics10TraitBoundEECs2KWZukAWMkS_10displaydoc, symObjAddr: 0xAEC, symBinAddr: 0x145A0, symSize: 0x5C }
  - { offset: 0x5AE2C, size: 0x8, addend: 0x0, symName: __RINvNtCsaNl6UpbT7bw_4core3ptr13drop_in_placeINtNtCsiTraAjBDcu4_5alloc3vec3VecRNtNtCsc29TF2YcYso_3syn8generics9TypeParamEECs2KWZukAWMkS_10displaydoc, symObjAddr: 0xB48, symBinAddr: 0x145FC, symSize: 0x5C }
  - { offset: 0x5AE5B, size: 0x8, addend: 0x0, symName: __RINvNtCsaNl6UpbT7bw_4core3ptr13drop_in_placeINtNtCsiTraAjBDcu4_5alloc5boxed3BoxDNtNtB4_5error5ErrorNtNtB4_6marker4SyncNtB1B_4SendEL_EECs2KWZukAWMkS_10displaydoc, symObjAddr: 0xBA4, symBinAddr: 0x14658, symSize: 0x80 }
  - { offset: 0x5AE8A, size: 0x8, addend: 0x0, symName: __RINvNtCsaNl6UpbT7bw_4core3ptr13drop_in_placeINtNtCsiTraAjBDcu4_5alloc5boxed3BoxINtNtCsc29TF2YcYso_3syn5drops6NoDropDINtNtB1k_10punctuated12IterMutTraitNtNtB1k_8generics14WherePredicateEp4ItemQB2p_EL_EEECs2KWZukAWMkS_10displaydoc, symObjAddr: 0xC24, symBinAddr: 0x146D8, symSize: 0x2C }
  - { offset: 0x5AEB9, size: 0x8, addend: 0x0, symName: __RINvNtCsaNl6UpbT7bw_4core3ptr13drop_in_placeINtNtCsiTraAjBDcu4_5alloc5boxed3BoxINtNtCsc29TF2YcYso_3syn5drops6NoDropDINtNtB1k_10punctuated9IterTraitNtNtB1k_4data5FieldEp4ItemRB2l_EL_EEECs2KWZukAWMkS_10displaydoc, symObjAddr: 0xC50, symBinAddr: 0x14704, symSize: 0x2C }
  - { offset: 0x5AEE8, size: 0x8, addend: 0x0, symName: __RINvNtCsaNl6UpbT7bw_4core3ptr13drop_in_placeINtNtCsiTraAjBDcu4_5alloc5boxed3BoxINtNtCsc29TF2YcYso_3syn5drops6NoDropDINtNtB1k_10punctuated9IterTraitNtNtB1k_4data7VariantEp4ItemRB2l_EL_EEECs2KWZukAWMkS_10displaydoc, symObjAddr: 0xC7C, symBinAddr: 0x14730, symSize: 0x2C }
  - { offset: 0x5AF17, size: 0x8, addend: 0x0, symName: __RINvNtCsaNl6UpbT7bw_4core3ptr13drop_in_placeINtNtCsiTraAjBDcu4_5alloc5boxed3BoxINtNtCsc29TF2YcYso_3syn5drops6NoDropDINtNtB1k_10punctuated9IterTraitNtNtB1k_8generics12GenericParamEp4ItemRB2l_EL_EEECs2KWZukAWMkS_10displaydoc, symObjAddr: 0xCA8, symBinAddr: 0x1475C, symSize: 0x2C }
  - { offset: 0x5AF46, size: 0x8, addend: 0x0, symName: __RINvNtCsaNl6UpbT7bw_4core3ptr13drop_in_placeINtNtCsiTraAjBDcu4_5alloc5boxed3BoxINtNtCsc29TF2YcYso_3syn5drops6NoDropDINtNtB1k_10punctuated9IterTraitNtNtB1k_8generics14WherePredicateEp4ItemRB2l_EL_EEECs2KWZukAWMkS_10displaydoc, symObjAddr: 0xCD4, symBinAddr: 0x14788, symSize: 0x2C }
  - { offset: 0x5AF75, size: 0x8, addend: 0x0, symName: __RINvNtCsaNl6UpbT7bw_4core3ptr13drop_in_placeINtNtCsiTraAjBDcu4_5alloc5boxed3BoxNtNtNtCsht3nMU9UgFu_3std2io5error6CustomEECs2KWZukAWMkS_10displaydoc, symObjAddr: 0xD00, symBinAddr: 0x147B4, symSize: 0x60 }
  - { offset: 0x5AFA4, size: 0x8, addend: 0x0, symName: __RINvNtCsaNl6UpbT7bw_4core3ptr13drop_in_placeINtNtCsiTraAjBDcu4_5alloc7raw_vec6RawVecINtNtB4_6option6OptionNtNtCs2KWZukAWMkS_10displaydoc4attr14VariantDisplayEEEB1K_, symObjAddr: 0xD60, symBinAddr: 0x14814, symSize: 0x24 }
  - { offset: 0x5AFD3, size: 0x8, addend: 0x0, symName: __RINvNtCsaNl6UpbT7bw_4core3ptr13drop_in_placeINtNtCsiTraAjBDcu4_5alloc7raw_vec6RawVecNtCshnvkK9b4wzu_11proc_macro211TokenStreamEECs2KWZukAWMkS_10displaydoc, symObjAddr: 0xD84, symBinAddr: 0x14838, symSize: 0x24 }
  - { offset: 0x5B002, size: 0x8, addend: 0x0, symName: __RINvNtCsaNl6UpbT7bw_4core3ptr13drop_in_placeINtNtCsiTraAjBDcu4_5alloc7raw_vec6RawVecNtNtCsc29TF2YcYso_3syn8generics10TraitBoundEECs2KWZukAWMkS_10displaydoc, symObjAddr: 0xDA8, symBinAddr: 0x1485C, symSize: 0x24 }
  - { offset: 0x5B031, size: 0x8, addend: 0x0, symName: __RINvNtCsaNl6UpbT7bw_4core3ptr13drop_in_placeINtNtCsiTraAjBDcu4_5alloc7raw_vec6RawVecRNtNtCsc29TF2YcYso_3syn8generics9TypeParamEECs2KWZukAWMkS_10displaydoc, symObjAddr: 0xDCC, symBinAddr: 0x14880, symSize: 0x24 }
  - { offset: 0x5B060, size: 0x8, addend: 0x0, symName: __RINvNtCsaNl6UpbT7bw_4core3ptr13drop_in_placeINtNtNtB4_3ops12control_flow11ControlFlowINtNtB4_6option6OptionNtNtCs2KWZukAWMkS_10displaydoc4attr14VariantDisplayEEEB1L_, symObjAddr: 0xDF0, symBinAddr: 0x148A4, symSize: 0x4C }
  - { offset: 0x5B08F, size: 0x8, addend: 0x0, symName: __RINvNtCsaNl6UpbT7bw_4core3ptr13drop_in_placeINtNtNtB4_3ops12control_flow11ControlFlowNtCshnvkK9b4wzu_11proc_macro211TokenStreamEECs2KWZukAWMkS_10displaydoc, symObjAddr: 0xE3C, symBinAddr: 0x148F0, symSize: 0x48 }
  - { offset: 0x5B0BE, size: 0x8, addend: 0x0, symName: __RINvNtCsaNl6UpbT7bw_4core3ptr13drop_in_placeINtNtNtB4_4iter8adapters12GenericShuntINtNtBJ_3map3MapINtNtBJ_3zip3ZipINtNtCsc29TF2YcYso_3syn10punctuated4IterNtNtB1T_4data7VariantEINtNtNtCsiTraAjBDcu4_5alloc3vec9into_iter8IntoIterINtNtB4_6option6OptionNtNtCs2KWZukAWMkS_10displaydoc4attr14VariantDisplayEEENCNvNtB42_6expand9impl_enums_0EINtNtB4_6result6ResultNtNtB4_7convert10InfallibleNtNtB1T_5error5ErrorEEEB42_, symObjAddr: 0xE84, symBinAddr: 0x14938, symSize: 0x24 }
  - { offset: 0x5B0ED, size: 0x8, addend: 0x0, symName: __RINvNtCsaNl6UpbT7bw_4core3ptr13drop_in_placeINtNtNtB4_4iter8adapters12GenericShuntINtNtBJ_3map3MapINtNtCsc29TF2YcYso_3syn10punctuated4IterNtNtB1D_4data7VariantENCNvNtCs2KWZukAWMkS_10displaydoc6expand9impl_enum0EINtNtB4_6result6ResultNtNtB4_7convert10InfallibleNtNtB1D_5error5ErrorEEEB2E_, symObjAddr: 0xEA8, symBinAddr: 0x1495C, symSize: 0x24 }
  - { offset: 0x5B11C, size: 0x8, addend: 0x0, symName: __RINvNtCsaNl6UpbT7bw_4core3ptr13drop_in_placeINtNtNtCsht3nMU9UgFu_3std2io5error9ErrorDataINtNtCsiTraAjBDcu4_5alloc5boxed3BoxNtBJ_6CustomEEECs2KWZukAWMkS_10displaydoc, symObjAddr: 0xECC, symBinAddr: 0x14980, symSize: 0x48 }
  - { offset: 0x5B14B, size: 0x8, addend: 0x0, symName: __RINvNtCsaNl6UpbT7bw_4core3ptr13drop_in_placeINtNtNtCsiTraAjBDcu4_5alloc3vec9into_iter8IntoIterINtNtB4_6option6OptionNtNtCs2KWZukAWMkS_10displaydoc4attr14VariantDisplayEEEB1U_, symObjAddr: 0xF14, symBinAddr: 0x149C8, symSize: 0x24 }
  - { offset: 0x5B17A, size: 0x8, addend: 0x0, symName: __RINvNtCsaNl6UpbT7bw_4core3ptr13drop_in_placeINtNtNtNtB4_4iter8adapters3map3MapINtNtBL_3zip3ZipINtNtCsc29TF2YcYso_3syn10punctuated4IterNtNtB1z_4data7VariantEINtNtNtCsiTraAjBDcu4_5alloc3vec9into_iter8IntoIterINtNtB4_6option6OptionNtNtCs2KWZukAWMkS_10displaydoc4attr14VariantDisplayEEENCNvNtB3I_6expand9impl_enums_0EEB3I_, symObjAddr: 0xF38, symBinAddr: 0x149EC, symSize: 0x24 }
  - { offset: 0x5B1A9, size: 0x8, addend: 0x0, symName: __RINvNtCsaNl6UpbT7bw_4core3ptr13drop_in_placeINtNtNtNtB4_4iter8adapters3map3MapINtNtCsc29TF2YcYso_3syn10punctuated4IterNtNtB1j_4data5FieldENCNCNvNtCs2KWZukAWMkS_10displaydoc6expand11impl_struct00EEB2k_, symObjAddr: 0xF5C, symBinAddr: 0x14A10, symSize: 0x24 }
  - { offset: 0x5B1D8, size: 0x8, addend: 0x0, symName: __RINvNtCsaNl6UpbT7bw_4core3ptr13drop_in_placeINtNtNtNtB4_4iter8adapters3map3MapINtNtCsc29TF2YcYso_3syn10punctuated4IterNtNtB1j_4data5FieldENCNCNvNtCs2KWZukAWMkS_10displaydoc6expand9impl_enums_0s_0EEB2k_, symObjAddr: 0xF80, symBinAddr: 0x14A34, symSize: 0x24 }
  - { offset: 0x5B207, size: 0x8, addend: 0x0, symName: __RINvNtCsaNl6UpbT7bw_4core3ptr13drop_in_placeINtNtNtNtB4_4iter8adapters3map3MapINtNtCsc29TF2YcYso_3syn10punctuated4IterNtNtB1j_4data7VariantENCNvNtCs2KWZukAWMkS_10displaydoc6expand9impl_enum0EEB2k_, symObjAddr: 0xFA4, symBinAddr: 0x14A58, symSize: 0x24 }
  - { offset: 0x5B236, size: 0x8, addend: 0x0, symName: __RINvNtCsaNl6UpbT7bw_4core3ptr13drop_in_placeINtNtNtNtB4_4iter8adapters3map3MapINtNtCsc29TF2YcYso_3syn10punctuated4IterNtNtB1j_8generics14TypeParamBoundENCNCNvNtCs2KWZukAWMkS_10displaydoc6expand37extract_trait_constraints_from_source00EEB2y_, symObjAddr: 0xFC8, symBinAddr: 0x14A7C, symSize: 0x24 }
  - { offset: 0x5B265, size: 0x8, addend: 0x0, symName: __RINvNtCsaNl6UpbT7bw_4core3ptr13drop_in_placeINtNtNtNtB4_4iter8adapters3map3MapINtNtCsc29TF2YcYso_3syn10punctuated7IterMutNtNtB1j_8generics14WherePredicateENCNvNtCs2KWZukAWMkS_10displaydoc6expand39ensure_display_in_where_clause_for_type0EEB2z_, symObjAddr: 0xFEC, symBinAddr: 0x14AA0, symSize: 0x24 }
  - { offset: 0x5B294, size: 0x8, addend: 0x0, symName: __RINvNtCsaNl6UpbT7bw_4core3ptr13drop_in_placeINtNtNtNtB4_4iter8adapters3zip3ZipINtNtCsc29TF2YcYso_3syn10punctuated4IterNtNtB1j_4data7VariantEINtNtNtCsiTraAjBDcu4_5alloc3vec9into_iter8IntoIterINtNtB4_6option6OptionNtNtCs2KWZukAWMkS_10displaydoc4attr14VariantDisplayEEEEB3s_, symObjAddr: 0x1010, symBinAddr: 0x14AC4, symSize: 0x60 }
  - { offset: 0x5B2C3, size: 0x8, addend: 0x0, symName: __RINvNtCsaNl6UpbT7bw_4core3ptr13drop_in_placeINtNtNtNtB4_4iter8adapters4fuse4FuseINtNtBL_3map3MapINtNtCsc29TF2YcYso_3syn10punctuated4IterNtNtB1B_8generics14TypeParamBoundENCNCNvNtCs2KWZukAWMkS_10displaydoc6expand37extract_trait_constraints_from_source00EEEB2Q_, symObjAddr: 0x1070, symBinAddr: 0x14B24, symSize: 0x24 }
  - { offset: 0x5B2F2, size: 0x8, addend: 0x0, symName: __RINvNtCsaNl6UpbT7bw_4core3ptr13drop_in_placeINtNtNtNtB4_4iter8adapters4fuse4FuseINtNtBL_3map3MapINtNtCsc29TF2YcYso_3syn10punctuated7IterMutNtNtB1B_8generics14WherePredicateENCNvNtCs2KWZukAWMkS_10displaydoc6expand39ensure_display_in_where_clause_for_type0EEEB2R_, symObjAddr: 0x1094, symBinAddr: 0x14B48, symSize: 0x24 }
  - { offset: 0x5B321, size: 0x8, addend: 0x0, symName: __RINvNtCsaNl6UpbT7bw_4core3ptr13drop_in_placeINtNtNtNtB4_4iter8adapters6cloned6ClonedINtNtBL_7flatten7FlatMapINtNtCsc29TF2YcYso_3syn10punctuated4IterNtNtB1N_8generics14TypeParamBoundEINtNtB4_6option6OptionRNtB2o_10TraitBoundENCNCNvNtCs2KWZukAWMkS_10displaydoc6expand37extract_trait_constraints_from_source00EEEB3I_, symObjAddr: 0x10B8, symBinAddr: 0x14B6C, symSize: 0x24 }
  - { offset: 0x5B350, size: 0x8, addend: 0x0, symName: __RINvNtCsaNl6UpbT7bw_4core3ptr13drop_in_placeINtNtNtNtB4_4iter8adapters7flatten13FlattenCompatINtNtBL_3map3MapINtNtCsc29TF2YcYso_3syn10punctuated4IterNtNtB1O_8generics14TypeParamBoundENCNCNvNtCs2KWZukAWMkS_10displaydoc6expand37extract_trait_constraints_from_source00EINtNtB4_6option8IntoIterRNtB2p_10TraitBoundEEEB33_, symObjAddr: 0x10DC, symBinAddr: 0x14B90, symSize: 0x24 }
  - { offset: 0x5B37F, size: 0x8, addend: 0x0, symName: __RINvNtCsaNl6UpbT7bw_4core3ptr13drop_in_placeINtNtNtNtB4_4iter8adapters7flatten13FlattenCompatINtNtBL_3map3MapINtNtCsc29TF2YcYso_3syn10punctuated7IterMutNtNtB1O_8generics14WherePredicateENCNvNtCs2KWZukAWMkS_10displaydoc6expand39ensure_display_in_where_clause_for_type0EINtNtB4_6option8IntoIterQNtB2s_13PredicateTypeEEEB34_, symObjAddr: 0x1100, symBinAddr: 0x14BB4, symSize: 0x24 }
  - { offset: 0x5B3AE, size: 0x8, addend: 0x0, symName: __RINvNtCsaNl6UpbT7bw_4core3ptr13drop_in_placeINtNtNtNtB4_4iter8adapters7flatten7FlatMapINtNtCsc29TF2YcYso_3syn10punctuated4IterNtNtB1r_8generics14TypeParamBoundEINtNtB4_6option6OptionRNtB22_10TraitBoundENCNCNvNtCs2KWZukAWMkS_10displaydoc6expand37extract_trait_constraints_from_source00EEB3m_, symObjAddr: 0x1124, symBinAddr: 0x14BD8, symSize: 0x24 }
  - { offset: 0x5B3DD, size: 0x8, addend: 0x0, symName: __RINvNtCsaNl6UpbT7bw_4core3ptr13drop_in_placeINtNtNtNtB4_4iter8adapters7flatten7FlatMapINtNtCsc29TF2YcYso_3syn10punctuated7IterMutNtNtB1r_8generics14WherePredicateEINtNtB4_6option6OptionQNtB25_13PredicateTypeENCNvNtCs2KWZukAWMkS_10displaydoc6expand39ensure_display_in_where_clause_for_type0EEB3q_, symObjAddr: 0x1148, symBinAddr: 0x14BFC, symSize: 0x24 }
  - { offset: 0x5B40C, size: 0x8, addend: 0x0, symName: __RINvNtCsaNl6UpbT7bw_4core3ptr13drop_in_placeINtNtNtNtCsht3nMU9UgFu_3std11collections4hash3map7HashMapNtCshnvkK9b4wzu_11proc_macro25IdentINtNtCsiTraAjBDcu4_5alloc3vec3VecNtNtCsc29TF2YcYso_3syn8generics10TraitBoundEEECs2KWZukAWMkS_10displaydoc, symObjAddr: 0x116C, symBinAddr: 0x14C20, symSize: 0x24 }
  - { offset: 0x5B43B, size: 0x8, addend: 0x0, symName: __RINvNtCsaNl6UpbT7bw_4core3ptr13drop_in_placeINtNtNtNtCsht3nMU9UgFu_3std11collections4hash3map8IntoIterNtCshnvkK9b4wzu_11proc_macro25IdentINtNtCsiTraAjBDcu4_5alloc3vec3VecNtNtCsc29TF2YcYso_3syn8generics10TraitBoundEEECs2KWZukAWMkS_10displaydoc, symObjAddr: 0x1190, symBinAddr: 0x14C44, symSize: 0x24 }
  - { offset: 0x5B46A, size: 0x8, addend: 0x0, symName: __RINvNtCsaNl6UpbT7bw_4core3ptr13drop_in_placeINtNvXsd_NtNtCsiTraAjBDcu4_5alloc3vec9into_iterINtBP_8IntoIterppENtNtNtB4_3ops4drop4Drop4drop9DropGuardINtNtB4_6option6OptionNtNtCs2KWZukAWMkS_10displaydoc4attr14VariantDisplayENtNtBT_5alloc6GlobalEEB2L_, symObjAddr: 0x11B4, symBinAddr: 0x14C68, symSize: 0x24 }
  - { offset: 0x5B499, size: 0x8, addend: 0x0, symName: __RINvNtCsaNl6UpbT7bw_4core3ptr13drop_in_placeNCNCINvNtNtCs7yrEGia95Wz_10proc_macro6bridge6client10run_clientNtBN_11TokenStreamINtNtB4_6option6OptionB1H_ENCNCINvMs6_BN_INtBN_6ClientNtBR_11TokenStreamB2R_E7expand1NvCs2KWZukAWMkS_10displaydoc12derive_errorE00E00EB3o_, symObjAddr: 0x11D8, symBinAddr: 0x14C8C, symSize: 0x24 }
  - { offset: 0x5B4C8, size: 0x8, addend: 0x0, symName: __RINvNtCsaNl6UpbT7bw_4core3ptr13drop_in_placeNCNvMs0_NtCs2KWZukAWMkS_10displaydoc4attrNtBO_11AttrsHelper18display_with_input0EBQ_, symObjAddr: 0x11FC, symBinAddr: 0x14CB0, symSize: 0x24 }
  - { offset: 0x5B4F7, size: 0x8, addend: 0x0, symName: __RINvNtCsaNl6UpbT7bw_4core3ptr13drop_in_placeNtNtCs2KWZukAWMkS_10displaydoc4attr14VariantDisplayEBK_, symObjAddr: 0x1220, symBinAddr: 0x14CD4, symSize: 0x5C }
  - { offset: 0x5B526, size: 0x8, addend: 0x0, symName: __RINvNtCsaNl6UpbT7bw_4core3ptr13drop_in_placeNtNtCs2KWZukAWMkS_10displaydoc4attr7DisplayEBK_, symObjAddr: 0x127C, symBinAddr: 0x14D30, symSize: 0x5C }
  - { offset: 0x5B555, size: 0x8, addend: 0x0, symName: __RINvNtCsaNl6UpbT7bw_4core3ptr13drop_in_placeNtNtCsc29TF2YcYso_3syn6derive11DeriveInputECs2KWZukAWMkS_10displaydoc, symObjAddr: 0x12D8, symBinAddr: 0x14D8C, symSize: 0xEC }
  - { offset: 0x5B584, size: 0x8, addend: 0x0, symName: __RINvNtCsaNl6UpbT7bw_4core3ptr13drop_in_placeNtNtCsc29TF2YcYso_3syn8generics10TypeParamsECs2KWZukAWMkS_10displaydoc, symObjAddr: 0x13C4, symBinAddr: 0x14E78, symSize: 0x24 }
  - { offset: 0x5B5B3, size: 0x8, addend: 0x0, symName: __RINvNtCsaNl6UpbT7bw_4core3ptr13drop_in_placeNtNtNtCs7yrEGia95Wz_10proc_macro6bridge3rpc12PanicMessageECs2KWZukAWMkS_10displaydoc, symObjAddr: 0x13E8, symBinAddr: 0x14E9C, symSize: 0x50 }
  - { offset: 0x5B5E2, size: 0x8, addend: 0x0, symName: __RINvNtCsaNl6UpbT7bw_4core3ptr13drop_in_placeNtNtNtCs7yrEGia95Wz_10proc_macro6bridge6buffer6BufferECs2KWZukAWMkS_10displaydoc, symObjAddr: 0x1438, symBinAddr: 0x14EEC, symSize: 0x24 }
  - { offset: 0x5B611, size: 0x8, addend: 0x0, symName: __RINvNtCsaNl6UpbT7bw_4core3ptr13drop_in_placeNtNtNtCs7yrEGia95Wz_10proc_macro6bridge6client6BridgeECs2KWZukAWMkS_10displaydoc, symObjAddr: 0x145C, symBinAddr: 0x14F10, symSize: 0x24 }
  - { offset: 0x5B640, size: 0x8, addend: 0x0, symName: __RINvNtCsaNl6UpbT7bw_4core3ptr13drop_in_placeNtNtNtCsht3nMU9UgFu_3std2io5error5ErrorECs2KWZukAWMkS_10displaydoc, symObjAddr: 0x1480, symBinAddr: 0x14F34, symSize: 0x24 }
  - { offset: 0x5B66F, size: 0x8, addend: 0x0, symName: __RINvNtCsaNl6UpbT7bw_4core3ptr13drop_in_placeNtNtNtCsht3nMU9UgFu_3std2io5error6CustomECs2KWZukAWMkS_10displaydoc, symObjAddr: 0x14A4, symBinAddr: 0x14F58, symSize: 0x24 }
  - { offset: 0x5B69E, size: 0x8, addend: 0x0, symName: __RINvNtCsaNl6UpbT7bw_4core3ptr13drop_in_placeNtNtNtNtCsht3nMU9UgFu_3std2io5error14repr_bitpacked4ReprECs2KWZukAWMkS_10displaydoc, symObjAddr: 0x14C8, symBinAddr: 0x14F7C, symSize: 0x24 }
  - { offset: 0x5B6CD, size: 0x8, addend: 0x0, symName: __RINvNtCsaNl6UpbT7bw_4core3ptr13drop_in_placeNtNvNtNtNtCs7yrEGia95Wz_10proc_macro6bridge6client5state3set13RestoreOnDropECs2KWZukAWMkS_10displaydoc, symObjAddr: 0x14EC, symBinAddr: 0x14FA0, symSize: 0x24 }
  - { offset: 0x5B6FC, size: 0x8, addend: 0x0, symName: __RINvNtCsaNl6UpbT7bw_4core3ptr13drop_in_placeSINtNtB4_6option6OptionNtNtCs2KWZukAWMkS_10displaydoc4attr14VariantDisplayEEB17_, symObjAddr: 0x1510, symBinAddr: 0x14FC4, symSize: 0xC4 }
  - { offset: 0x5B72B, size: 0x8, addend: 0x0, symName: __RINvNtCsaNl6UpbT7bw_4core3ptr13drop_in_placeSNtCshnvkK9b4wzu_11proc_macro211TokenStreamECs2KWZukAWMkS_10displaydoc, symObjAddr: 0x15D4, symBinAddr: 0x15088, symSize: 0xB4 }
  - { offset: 0x5B75A, size: 0x8, addend: 0x0, symName: __RINvNtCsaNl6UpbT7bw_4core3ptr13drop_in_placeSNtNtCsc29TF2YcYso_3syn8generics10TraitBoundECs2KWZukAWMkS_10displaydoc, symObjAddr: 0x1688, symBinAddr: 0x1513C, symSize: 0xC4 }
  - { offset: 0x5B789, size: 0x8, addend: 0x0, symName: __RINvNtCsaNl6UpbT7bw_4core3ptr13drop_in_placeTNtCshnvkK9b4wzu_11proc_macro25IdentINtNtCsiTraAjBDcu4_5alloc3vec3VecNtNtCsc29TF2YcYso_3syn8generics10TraitBoundEEECs2KWZukAWMkS_10displaydoc, symObjAddr: 0x174C, symBinAddr: 0x15200, symSize: 0x60 }
  - { offset: 0x5B7B8, size: 0x8, addend: 0x0, symName: __RINvNtCsaNl6UpbT7bw_4core3ptr13drop_in_placeTRNtNtCsc29TF2YcYso_3syn4data7VariantINtNtB4_6option6OptionNtNtCs2KWZukAWMkS_10displaydoc4attr14VariantDisplayEEEB1H_, symObjAddr: 0x17AC, symBinAddr: 0x15260, symSize: 0x24 }
  - { offset: 0x5B929, size: 0x8, addend: 0x0, symName: __RINvMNtCsaNl6UpbT7bw_4core3stre12trim_matchesNvMNtNtB5_4char7methodsc13is_whitespaceECs2KWZukAWMkS_10displaydoc, symObjAddr: 0x0, symBinAddr: 0x13D1C, symSize: 0x130 }
  - { offset: 0x5BB16, size: 0x8, addend: 0x0, symName: __RINvMNtCsaNl6UpbT7bw_4core3stre18trim_start_matchescECs2KWZukAWMkS_10displaydoc, symObjAddr: 0x130, symBinAddr: 0x13E4C, symSize: 0xF4 }
  - { offset: 0x5BCA6, size: 0x8, addend: 0x0, symName: __RNvMNtCsaNl6UpbT7bw_4core3stre12char_indicesCs2KWZukAWMkS_10displaydoc, symObjAddr: 0x22E8, symBinAddr: 0x15D9C, symSize: 0x3C }
  - { offset: 0x5BCD4, size: 0x8, addend: 0x0, symName: __RNvMNtCsaNl6UpbT7bw_4core3stre4trimCs2KWZukAWMkS_10displaydoc, symObjAddr: 0x2324, symBinAddr: 0x15DD8, symSize: 0x28 }
  - { offset: 0x5BD02, size: 0x8, addend: 0x0, symName: __RNvMNtCsaNl6UpbT7bw_4core3stre5charsCs2KWZukAWMkS_10displaydoc, symObjAddr: 0x234C, symBinAddr: 0x15E00, symSize: 0x20 }
  - { offset: 0x5BDA4, size: 0x8, addend: 0x0, symName: __RNvMNtCsaNl6UpbT7bw_4core3stre5linesCs2KWZukAWMkS_10displaydoc, symObjAddr: 0x236C, symBinAddr: 0x15E20, symSize: 0xC4 }
  - { offset: 0x5C00F, size: 0x8, addend: 0x0, symName: __RNvXs3_NtCsaNl6UpbT7bw_4core3strNtB5_8LinesMapINtNtNtB7_3ops8function2FnTReEE4callCs2KWZukAWMkS_10displaydoc, symObjAddr: 0x2EFC, symBinAddr: 0x169B0, symSize: 0x174 }
  - { offset: 0x5C13A, size: 0x8, addend: 0x0, symName: __RNvXs4_NtCsaNl6UpbT7bw_4core3strNtB5_8LinesMapINtNtNtB7_3ops8function5FnMutTReEE8call_mutCs2KWZukAWMkS_10displaydoc, symObjAddr: 0x31BC, symBinAddr: 0x16C70, symSize: 0x3C }
  - { offset: 0x5C1F1, size: 0x8, addend: 0x0, symName: __RNSNvYNCINvMs6_NtCsg4dki62PTrg_9hashbrown3rawINtBd_8RawTableTNtCshnvkK9b4wzu_11proc_macro25IdentINtNtCsiTraAjBDcu4_5alloc3vec3VecNtNtCsc29TF2YcYso_3syn8generics10TraitBoundEEE14reserve_rehashNCINvNtBf_3map11make_hasherBX_B1w_NtNtNtCsht3nMU9UgFu_3std4hash6random11RandomStateE0E0INtNtNtCsaNl6UpbT7bw_4core3ops8function6FnOnceTQNtBd_13RawTableInnerjEE9call_once6vtableCs2KWZukAWMkS_10displaydoc, symObjAddr: 0x2278, symBinAddr: 0x15D2C, symSize: 0x38 }
  - { offset: 0x5C235, size: 0x8, addend: 0x0, symName: __RNSNvYNCINvMs6_NtCsg4dki62PTrg_9hashbrown3rawINtBd_8RawTableTNtCshnvkK9b4wzu_11proc_macro25IdentINtNtCsiTraAjBDcu4_5alloc3vec3VecNtNtCsc29TF2YcYso_3syn8generics10TraitBoundEEE24find_or_find_insert_slotNCINvNtBf_3map14equivalent_keyBX_BX_B1w_E0NCINvB3i_11make_hasherBX_B1w_NtNtNtCsht3nMU9UgFu_3std4hash6random11RandomStateE0E0INtNtNtCsaNl6UpbT7bw_4core3ops8function6FnOnceTjEE9call_once6vtableCs2KWZukAWMkS_10displaydoc, symObjAddr: 0x22B0, symBinAddr: 0x15D64, symSize: 0x38 }
  - { offset: 0x5C279, size: 0x8, addend: 0x0, symName: __RNvYNCINvMs6_NtCsg4dki62PTrg_9hashbrown3rawINtBb_8RawTableTNtCshnvkK9b4wzu_11proc_macro25IdentINtNtCsiTraAjBDcu4_5alloc3vec3VecNtNtCsc29TF2YcYso_3syn8generics10TraitBoundEEE14reserve_rehashNCINvNtBd_3map11make_hasherBV_B1u_NtNtNtCsht3nMU9UgFu_3std4hash6random11RandomStateE0E0INtNtNtCsaNl6UpbT7bw_4core3ops8function6FnOnceTQNtBb_13RawTableInnerjEE9call_onceCs2KWZukAWMkS_10displaydoc, symObjAddr: 0x3498, symBinAddr: 0x16F4C, symSize: 0x5C }
  - { offset: 0x5C2BD, size: 0x8, addend: 0x0, symName: __RNvYNCINvMs6_NtCsg4dki62PTrg_9hashbrown3rawINtBb_8RawTableTNtCshnvkK9b4wzu_11proc_macro25IdentINtNtCsiTraAjBDcu4_5alloc3vec3VecNtNtCsc29TF2YcYso_3syn8generics10TraitBoundEEE14reserve_rehashNCINvNtBd_3map11make_hasherBV_B1u_NtNtNtCsht3nMU9UgFu_3std4hash6random11RandomStateE0Es_0INtNtNtCsaNl6UpbT7bw_4core3ops8function6FnOnceTOhEE9call_onceCs2KWZukAWMkS_10displaydoc, symObjAddr: 0x34F4, symBinAddr: 0x16FA8, symSize: 0x44 }
  - { offset: 0x5C2FD, size: 0x8, addend: 0x0, symName: __RNvYNCINvMs6_NtCsg4dki62PTrg_9hashbrown3rawINtBb_8RawTableTNtCshnvkK9b4wzu_11proc_macro25IdentINtNtCsiTraAjBDcu4_5alloc3vec3VecNtNtCsc29TF2YcYso_3syn8generics10TraitBoundEEE24find_or_find_insert_slotNCINvNtBd_3map14equivalent_keyBV_BV_B1u_E0NCINvB3g_11make_hasherBV_B1u_NtNtNtCsht3nMU9UgFu_3std4hash6random11RandomStateE0E0INtNtNtCsaNl6UpbT7bw_4core3ops8function6FnOnceTjEE9call_onceCs2KWZukAWMkS_10displaydoc, symObjAddr: 0x3538, symBinAddr: 0x16FEC, symSize: 0x58 }
  - { offset: 0x5C341, size: 0x8, addend: 0x0, symName: __RNvYNCNkNvNtNtNtCs7yrEGia95Wz_10proc_macro6bridge6client5state12BRIDGE_STATE0s_0INtNtNtCsaNl6UpbT7bw_4core3ops8function6FnOnceTINtNtB1n_6option6OptionQIB22_INtNtB1n_4cell4CellPuEEEEE9call_onceCs2KWZukAWMkS_10displaydoc, symObjAddr: 0x3590, symBinAddr: 0x17044, symSize: 0x4C }
  - { offset: 0x5C385, size: 0x8, addend: 0x0, symName: __RNvYNCNkNvNvMNtNtCsht3nMU9UgFu_3std4hash6randomNtBb_11RandomState3new4KEYS0s_0INtNtNtCsaNl6UpbT7bw_4core3ops8function6FnOnceTINtNtB1l_6option6OptionQIB20_INtNtB1l_4cell4CellTyyEEEEEE9call_onceCs2KWZukAWMkS_10displaydoc, symObjAddr: 0x35DC, symBinAddr: 0x17090, symSize: 0x4C }
  - { offset: 0x5C3C9, size: 0x8, addend: 0x0, symName: __RNvYNvNtCs2KWZukAWMkS_10displaydoc6expand22new_empty_where_clauseINtNtNtCsaNl6UpbT7bw_4core3ops8function6FnOnceuE9call_onceB6_, symObjAddr: 0x3720, symBinAddr: 0x171D4, symSize: 0x1C }
  - { offset: 0x5C40D, size: 0x8, addend: 0x0, symName: __RNvYNvNvNvMNtNtCsht3nMU9UgFu_3std4hash6randomNtB9_11RandomState3new4KEYS6___initINtNtNtCsaNl6UpbT7bw_4core3ops8function6FnOnceuE9call_onceCs2KWZukAWMkS_10displaydoc, symObjAddr: 0x373C, symBinAddr: 0x171F0, symSize: 0x1C }
  - { offset: 0x5C451, size: 0x8, addend: 0x0, symName: __RNvYNvYINtNtCsiTraAjBDcu4_5alloc5boxed3BoxNtNtCsc29TF2YcYso_3syn8generics14WherePredicateEINtNtCsaNl6UpbT7bw_4core7convert5AsMutBE_E6as_mutINtNtNtB1v_3ops8function6FnOnceTQB5_EE9call_onceCs2KWZukAWMkS_10displaydoc, symObjAddr: 0x3758, symBinAddr: 0x1720C, symSize: 0x24 }
  - { offset: 0x5C495, size: 0x8, addend: 0x0, symName: __RNvYNvYINtNtNtNtCsaNl6UpbT7bw_4core4iter8adapters3map3MapINtNtCsc29TF2YcYso_3syn10punctuated4IterNtNtBY_8generics14TypeParamBoundENCNCNvNtCs2KWZukAWMkS_10displaydoc6expand37extract_trait_constraints_from_source00ENtNtNtBc_6traits8iterator8Iterator4nextINtNtNtBe_3ops8function6FnOnceTQB5_EE9call_onceB2c_, symObjAddr: 0x377C, symBinAddr: 0x17230, symSize: 0x24 }
  - { offset: 0x5C4D9, size: 0x8, addend: 0x0, symName: __RNvYNvYINtNtNtNtCsaNl6UpbT7bw_4core4iter8adapters3map3MapINtNtCsc29TF2YcYso_3syn10punctuated7IterMutNtNtBY_8generics14WherePredicateENCNvNtCs2KWZukAWMkS_10displaydoc6expand39ensure_display_in_where_clause_for_type0ENtNtNtBc_6traits8iterator8Iterator4nextINtNtNtBe_3ops8function6FnOnceTQB5_EE9call_onceB2d_, symObjAddr: 0x37A0, symBinAddr: 0x17254, symSize: 0x24 }
  - { offset: 0x5C51D, size: 0x8, addend: 0x0, symName: __RNvYNvYNtNtCsc29TF2YcYso_3syn3lit6LitStrNtNtB9_5parse5Parse5parseINtNtNtCsaNl6UpbT7bw_4core3ops8function6FnOnceTRNtBE_11ParseBufferEE9call_onceCs2KWZukAWMkS_10displaydoc, symObjAddr: 0x37C4, symBinAddr: 0x17278, symSize: 0x24 }
  - { offset: 0x5C561, size: 0x8, addend: 0x0, symName: __RNvYNvYNtNtCsc29TF2YcYso_3syn6derive11DeriveInputNtNtB9_5parse5Parse5parseINtNtNtCsaNl6UpbT7bw_4core3ops8function6FnOnceTRNtBN_11ParseBufferEE9call_onceCs2KWZukAWMkS_10displaydoc, symObjAddr: 0x37E8, symBinAddr: 0x1729C, symSize: 0x24 }
  - { offset: 0x5C797, size: 0x8, addend: 0x0, symName: __RNvYNcNtINtNtNtCsaNl6UpbT7bw_4core3ops12control_flow11ControlFlowINtNtBd_6option6OptionNtNtCs2KWZukAWMkS_10displaydoc4attr14VariantDisplayEE5Break0INtNtBb_8function5FnMutTB11_EE8call_mutB1r_, symObjAddr: 0x3628, symBinAddr: 0x170DC, symSize: 0x48 }
  - { offset: 0x5C7DB, size: 0x8, addend: 0x0, symName: __RNvYNcNtINtNtNtCsaNl6UpbT7bw_4core3ops12control_flow11ControlFlowNtCshnvkK9b4wzu_11proc_macro211TokenStreamE5Break0INtNtBb_8function5FnMutTB11_EE8call_mutCs2KWZukAWMkS_10displaydoc, symObjAddr: 0x3670, symBinAddr: 0x17124, symSize: 0x38 }
  - { offset: 0x5C81F, size: 0x8, addend: 0x0, symName: __RNvYNvMNtCsaNl6UpbT7bw_4core6optionINtB5_6OptionNtNtCs2KWZukAWMkS_10displaydoc4attr14VariantDisplayE7is_someINtNtNtB7_3ops8function5FnMutTRBx_EE8call_mutBO_, symObjAddr: 0x36D0, symBinAddr: 0x17184, symSize: 0x28 }
  - { offset: 0x5C863, size: 0x8, addend: 0x0, symName: __RNvYNvMNtNtCsaNl6UpbT7bw_4core4char7methodsc13is_whitespaceINtNtNtB9_3ops8function5FnMutTcEE8call_mutCs2KWZukAWMkS_10displaydoc, symObjAddr: 0x36F8, symBinAddr: 0x171AC, symSize: 0x28 }
  - { offset: 0x5C8AD, size: 0x8, addend: 0x0, symName: __RNvYNvCs2KWZukAWMkS_10displaydoc12derive_errorINtNtNtCsaNl6UpbT7bw_4core3ops8function2FnTNtCs7yrEGia95Wz_10proc_macro11TokenStreamEE4callB4_, symObjAddr: 0x36A8, symBinAddr: 0x1715C, symSize: 0x28 }
  - { offset: 0x5D6C3, size: 0x8, addend: 0x0, symName: __RNCINvNtNtNtCsaNl6UpbT7bw_4core4iter8adapters3map12map_try_foldRNtNtCsc29TF2YcYso_3syn4data7VariantINtNtBa_6result6ResultINtNtBa_6option6OptionNtNtCs2KWZukAWMkS_10displaydoc4attr14VariantDisplayENtNtB14_5error5ErrorEuINtNtNtBa_3ops12control_flow11ControlFlowIB3u_B1V_EENCNvNtB2l_6expand9impl_enum0NCINvXB6_INtB6_12GenericShuntINtB4_3MapINtNtB14_10punctuated4IterB10_EB4j_EIB1A_NtNtBa_7convert10InfallibleB37_EENtNtNtB8_6traits8iterator8Iterator8try_folduNCINvNvB6A_12try_for_each4callB1V_B48_NcNtB48_5Break0E0B48_E0E0B2l_, symObjAddr: 0x1E10, symBinAddr: 0x158C4, symSize: 0xA8 }
  - { offset: 0x5D755, size: 0x8, addend: 0x0, symName: __RNCINvNtNtNtCsaNl6UpbT7bw_4core4iter8adapters3map12map_try_foldTRNtNtCsc29TF2YcYso_3syn4data7VariantINtNtBa_6option6OptionNtNtCs2KWZukAWMkS_10displaydoc4attr14VariantDisplayEEINtNtBa_6result6ResultNtCshnvkK9b4wzu_11proc_macro211TokenStreamNtNtB15_5error5ErrorEuINtNtNtBa_3ops12control_flow11ControlFlowIB4c_B39_EENCNvNtB20_6expand9impl_enums_0NCINvXB6_INtB6_12GenericShuntINtB4_3MapINtNtB6_3zip3ZipINtNtB15_10punctuated4IterB11_EINtNtNtCsiTraAjBDcu4_5alloc3vec9into_iter8IntoIterB1A_EEB51_EIB2O_NtNtBa_7convert10InfallibleB3P_EENtNtNtB8_6traits8iterator8Iterator8try_folduNCINvNvB8u_12try_for_each4callB39_B4Q_NcNtB4Q_5Break0E0B4Q_E0E0B20_, symObjAddr: 0x1EB8, symBinAddr: 0x1596C, symSize: 0xB0 }
  - { offset: 0x5D7EE, size: 0x8, addend: 0x0, symName: __RINvXs0_NtNtNtCsaNl6UpbT7bw_4core4iter8adapters3mapINtB6_3MapINtNtB8_3zip3ZipINtNtCsc29TF2YcYso_3syn10punctuated4IterNtNtB1i_4data7VariantEINtNtNtCsiTraAjBDcu4_5alloc3vec9into_iter8IntoIterINtNtBc_6option6OptionNtNtCs2KWZukAWMkS_10displaydoc4attr14VariantDisplayEEENCNvNtB3r_6expand9impl_enums_0ENtNtNtBa_6traits8iterator8Iterator8try_folduNCINvXB8_INtB8_12GenericShuntBN_INtNtBc_6result6ResultNtNtBc_7convert10InfallibleNtNtB1i_5error5ErrorEEB4K_8try_folduNCINvNvB4K_12try_for_each4callNtCshnvkK9b4wzu_11proc_macro211TokenStreamINtNtNtBc_3ops12control_flow11ControlFlowB7P_ENcNtB8v_5Break0E0B8v_E0IB8w_B8v_EEB3r_, symObjAddr: 0x1A3C, symBinAddr: 0x154F0, symSize: 0x54 }
  - { offset: 0x5D891, size: 0x8, addend: 0x0, symName: __RINvXs0_NtNtNtCsaNl6UpbT7bw_4core4iter8adapters3mapINtB6_3MapINtNtCsc29TF2YcYso_3syn10punctuated4IterNtNtB12_4data7VariantENCNvNtCs2KWZukAWMkS_10displaydoc6expand9impl_enum0ENtNtNtBa_6traits8iterator8Iterator8try_folduNCINvXB8_INtB8_12GenericShuntBN_INtNtBc_6result6ResultNtNtBc_7convert10InfallibleNtNtB12_5error5ErrorEEB2M_8try_folduNCINvNvB2M_12try_for_each4callINtNtBc_6option6OptionNtNtB23_4attr14VariantDisplayEINtNtNtBc_3ops12control_flow11ControlFlowB5R_ENcNtB6H_5Break0E0B6H_E0IB6I_B6H_EEB23_, symObjAddr: 0x1A90, symBinAddr: 0x15544, symSize: 0x54 }
  - { offset: 0x5D934, size: 0x8, addend: 0x0, symName: __RINvXs0_NtNtNtCsaNl6UpbT7bw_4core4iter8adapters3mapINtB6_3MapINtNtNtBc_5slice4iter4IterRNtNtCsc29TF2YcYso_3syn8generics9TypeParamENCNvNtCs2KWZukAWMkS_10displaydoc6expand37extract_trait_constraints_from_source0ENtNtNtBa_6traits8iterator8Iterator4folduNCINvNvB3m_8for_each4callTNtCshnvkK9b4wzu_11proc_macro25IdentINtNtCsiTraAjBDcu4_5alloc3vec3VecNtB1q_10TraitBoundEENCINvXs1i_NtCsg4dki62PTrg_9hashbrown3mapINtB60_7HashMapB4q_B4Z_NtNtNtCsht3nMU9UgFu_3std4hash6random11RandomStateEINtNtB3q_7collect6ExtendB4p_E6extendBN_E0E0EB2a_, symObjAddr: 0x1AE4, symBinAddr: 0x15598, symSize: 0x34 }
  - { offset: 0x5D9A5, size: 0x8, addend: 0x0, symName: __RNvXs0_NtNtNtCsaNl6UpbT7bw_4core4iter8adapters3mapINtB5_3MapINtNtB7_3zip3ZipINtNtCsc29TF2YcYso_3syn10punctuated4IterNtNtB1h_4data7VariantEINtNtNtCsiTraAjBDcu4_5alloc3vec9into_iter8IntoIterINtNtBb_6option6OptionNtNtCs2KWZukAWMkS_10displaydoc4attr14VariantDisplayEEENCNvNtB3q_6expand9impl_enums_0ENtNtNtB9_6traits8iterator8Iterator9size_hintB3q_, symObjAddr: 0x2A10, symBinAddr: 0x164C4, symSize: 0x24 }
  - { offset: 0x5D9EC, size: 0x8, addend: 0x0, symName: __RNvXs0_NtNtNtCsaNl6UpbT7bw_4core4iter8adapters3mapINtB5_3MapINtNtCsc29TF2YcYso_3syn10punctuated4IterNtNtB11_4data5FieldENCNCNvNtCs2KWZukAWMkS_10displaydoc6expand11impl_struct00ENtNtNtB9_6traits8iterator8Iterator4nextB22_, symObjAddr: 0x2A34, symBinAddr: 0x164E8, symSize: 0x78 }
  - { offset: 0x5DA84, size: 0x8, addend: 0x0, symName: __RNvXs0_NtNtNtCsaNl6UpbT7bw_4core4iter8adapters3mapINtB5_3MapINtNtCsc29TF2YcYso_3syn10punctuated4IterNtNtB11_4data5FieldENCNCNvNtCs2KWZukAWMkS_10displaydoc6expand9impl_enums_0s_0ENtNtNtB9_6traits8iterator8Iterator4nextB22_, symObjAddr: 0x2AAC, symBinAddr: 0x16560, symSize: 0x78 }
  - { offset: 0x5DB1C, size: 0x8, addend: 0x0, symName: __RNvXs0_NtNtNtCsaNl6UpbT7bw_4core4iter8adapters3mapINtB5_3MapINtNtCsc29TF2YcYso_3syn10punctuated4IterNtNtB11_4data7VariantENCNvNtCs2KWZukAWMkS_10displaydoc6expand9impl_enum0ENtNtNtB9_6traits8iterator8Iterator9size_hintB22_, symObjAddr: 0x2B24, symBinAddr: 0x165D8, symSize: 0x24 }
  - { offset: 0x5DB63, size: 0x8, addend: 0x0, symName: __RNvXs0_NtNtNtCsaNl6UpbT7bw_4core4iter8adapters3mapINtB5_3MapINtNtCsc29TF2YcYso_3syn10punctuated4IterNtNtB11_8generics14TypeParamBoundENCNCNvNtCs2KWZukAWMkS_10displaydoc6expand37extract_trait_constraints_from_source00ENtNtNtB9_6traits8iterator8Iterator4nextB2g_, symObjAddr: 0x2B48, symBinAddr: 0x165FC, symSize: 0x84 }
  - { offset: 0x5DBFB, size: 0x8, addend: 0x0, symName: __RNvXs0_NtNtNtCsaNl6UpbT7bw_4core4iter8adapters3mapINtB5_3MapINtNtCsc29TF2YcYso_3syn10punctuated4IterNtNtB11_8generics14TypeParamBoundENCNCNvNtCs2KWZukAWMkS_10displaydoc6expand37extract_trait_constraints_from_source00ENtNtNtB9_6traits8iterator8Iterator9size_hintB2g_, symObjAddr: 0x2BCC, symBinAddr: 0x16680, symSize: 0x24 }
  - { offset: 0x5DC42, size: 0x8, addend: 0x0, symName: __RNvXs0_NtNtNtCsaNl6UpbT7bw_4core4iter8adapters3mapINtB5_3MapINtNtCsc29TF2YcYso_3syn10punctuated7IterMutNtNtB11_8generics14WherePredicateENCNvNtCs2KWZukAWMkS_10displaydoc6expand39ensure_display_in_where_clause_for_type0ENtNtNtB9_6traits8iterator8Iterator4nextB2h_, symObjAddr: 0x2BF0, symBinAddr: 0x166A4, symSize: 0x84 }
  - { offset: 0x5DCDA, size: 0x8, addend: 0x0, symName: __RNvXs0_NtNtNtCsaNl6UpbT7bw_4core4iter8adapters3mapINtB5_3MapINtNtNtBb_3ops5range5RangejENCNCNvNtCs2KWZukAWMkS_10displaydoc6expand11impl_struct0s_0ENtNtNtB9_6traits8iterator8Iterator4nextB1w_, symObjAddr: 0x2C74, symBinAddr: 0x16728, symSize: 0x90 }
  - { offset: 0x5DD72, size: 0x8, addend: 0x0, symName: __RNvXs0_NtNtNtCsaNl6UpbT7bw_4core4iter8adapters3mapINtB5_3MapINtNtNtBb_3ops5range5RangejENCNCNvNtCs2KWZukAWMkS_10displaydoc6expand9impl_enums_0s0_0ENtNtNtB9_6traits8iterator8Iterator4nextB1w_, symObjAddr: 0x2D04, symBinAddr: 0x167B8, symSize: 0x90 }
  - { offset: 0x5DE0A, size: 0x8, addend: 0x0, symName: __RNvXs0_NtNtNtCsaNl6UpbT7bw_4core4iter8adapters3mapINtB5_3MapINtNtNtBb_3str4iter14SplitInclusivecENtB11_8LinesMapENtNtNtB9_6traits8iterator8Iterator4nextCs2KWZukAWMkS_10displaydoc, symObjAddr: 0x2D94, symBinAddr: 0x16848, symSize: 0x90 }
  - { offset: 0x5DEA2, size: 0x8, addend: 0x0, symName: __RNvXs0_NtNtNtCsaNl6UpbT7bw_4core4iter8adapters3mapINtB5_3MapINtNtNtBb_5slice4iter4IterRNtNtCsc29TF2YcYso_3syn8generics9TypeParamENCNvNtCs2KWZukAWMkS_10displaydoc6expand37extract_trait_constraints_from_source0ENtNtNtB9_6traits8iterator8Iterator9size_hintB29_, symObjAddr: 0x2E24, symBinAddr: 0x168D8, symSize: 0x24 }
  - { offset: 0x5DEE9, size: 0x8, addend: 0x0, symName: __RNvXs0_NtNtNtCsaNl6UpbT7bw_4core4iter8adapters3mapINtB5_3MapNtNtNtBb_3str4iter5LinesNCNvMs0_NtCs2KWZukAWMkS_10displaydoc4attrNtB1s_11AttrsHelper7displays0_0ENtNtNtB9_6traits8iterator8Iterator4nextB1u_, symObjAddr: 0x2E48, symBinAddr: 0x168FC, symSize: 0x90 }
  - { offset: 0x5DF81, size: 0x8, addend: 0x0, symName: __RNvXs0_NtNtNtCsaNl6UpbT7bw_4core4iter8adapters3mapINtB5_3MapNtNtNtBb_3str4iter5LinesNCNvMs0_NtCs2KWZukAWMkS_10displaydoc4attrNtB1s_11AttrsHelper7displays0_0ENtNtNtB9_6traits8iterator8Iterator9size_hintB1u_, symObjAddr: 0x2ED8, symBinAddr: 0x1698C, symSize: 0x24 }
  - { offset: 0x5E02B, size: 0x8, addend: 0x0, symName: __RNCINvNtNtNtCsaNl6UpbT7bw_4core4iter8adapters3map8map_foldRNtNtCsc29TF2YcYso_3syn4attr9AttributejjNCINvNvXs1_NtB6_6filterINtB1J_6FilterppENtNtNtB8_6traits8iterator8Iterator5count8to_usizeBU_NCNvMs0_NtCs2KWZukAWMkS_10displaydoc4attrNtB3a_11AttrsHelper7displays_0E0NCINvXsK_NtB2g_5accumjNtB4m_3Sum3sumINtB4_3MapINtNtNtBa_5slice4iter4IterBV_EB1y_EE0E0B3c_, symObjAddr: 0x1F68, symBinAddr: 0x15A1C, symSize: 0x98 }
  - { offset: 0x5E0B2, size: 0x8, addend: 0x0, symName: __RNCINvNtNtNtCsaNl6UpbT7bw_4core4iter8adapters3map8map_foldRRNtNtCsc29TF2YcYso_3syn8generics9TypeParamTNtCshnvkK9b4wzu_11proc_macro25IdentINtNtCsiTraAjBDcu4_5alloc3vec3VecNtBY_10TraitBoundEEuNCNvNtCs2KWZukAWMkS_10displaydoc6expand37extract_trait_constraints_from_source0NCINvNvNtNtNtB8_6traits8iterator8Iterator8for_each4callB1B_NCINvXs1i_NtCsg4dki62PTrg_9hashbrown3mapINtB5q_7HashMapB1C_B2b_NtNtNtCsht3nMU9UgFu_3std4hash6random11RandomStateEINtNtB4u_7collect6ExtendB1B_E6extendINtB4_3MapINtNtNtBa_5slice4iter4IterBV_EB32_EE0E0E0B38_, symObjAddr: 0x2000, symBinAddr: 0x15AB4, symSize: 0x94 }
  - { offset: 0x5E335, size: 0x8, addend: 0x0, symName: __RINvNtNtNtCsaNl6UpbT7bw_4core4iter8adapters4fuse17and_then_or_clearINtNtB4_3map3MapINtNtCsc29TF2YcYso_3syn10punctuated4IterNtNtB1o_8generics14TypeParamBoundENCNCNvNtCs2KWZukAWMkS_10displaydoc6expand37extract_trait_constraints_from_source00EINtNtB8_6option6OptionRNtB1Z_10TraitBoundENvYB13_NtNtNtB6_6traits8iterator8Iterator4nextEB2D_, symObjAddr: 0x17D0, symBinAddr: 0x15284, symSize: 0x100 }
  - { offset: 0x5E473, size: 0x8, addend: 0x0, symName: __RINvNtNtNtCsaNl6UpbT7bw_4core4iter8adapters4fuse17and_then_or_clearINtNtB4_3map3MapINtNtCsc29TF2YcYso_3syn10punctuated7IterMutNtNtB1o_8generics14WherePredicateENCNvNtCs2KWZukAWMkS_10displaydoc6expand39ensure_display_in_where_clause_for_type0EINtNtB8_6option6OptionQNtB22_13PredicateTypeENvYB13_NtNtNtB6_6traits8iterator8Iterator4nextEB2E_, symObjAddr: 0x18D0, symBinAddr: 0x15384, symSize: 0x100 }
  - { offset: 0x5E5B6, size: 0x8, addend: 0x0, symName: __RNvXs8_NtNtNtCsaNl6UpbT7bw_4core4iter8adapters4fuseINtB5_4FuseINtNtB7_3map3MapINtNtCsc29TF2YcYso_3syn10punctuated4IterNtNtB1j_8generics14TypeParamBoundENCNCNvNtCs2KWZukAWMkS_10displaydoc6expand37extract_trait_constraints_from_source00EEINtB5_8FuseImplBY_E4nextB2y_, symObjAddr: 0x3254, symBinAddr: 0x16D08, symSize: 0x24 }
  - { offset: 0x5E5ED, size: 0x8, addend: 0x0, symName: __RNvXs8_NtNtNtCsaNl6UpbT7bw_4core4iter8adapters4fuseINtB5_4FuseINtNtB7_3map3MapINtNtCsc29TF2YcYso_3syn10punctuated7IterMutNtNtB1j_8generics14WherePredicateENCNvNtCs2KWZukAWMkS_10displaydoc6expand39ensure_display_in_where_clause_for_type0EEINtB5_8FuseImplBY_E4nextB2z_, symObjAddr: 0x3278, symBinAddr: 0x16D2C, symSize: 0x24 }
  - { offset: 0x5E8E0, size: 0x8, addend: 0x0, symName: __RNCINvNvNtNtNtNtCsaNl6UpbT7bw_4core4iter6traits8iterator8Iterator12try_for_each4callINtNtBe_6option6OptionNtNtCs2KWZukAWMkS_10displaydoc4attr14VariantDisplayEINtNtNtBe_3ops12control_flow11ControlFlowB1k_ENcNtB2w_5Break0E0B1K_, symObjAddr: 0x2094, symBinAddr: 0x15B48, symSize: 0x48 }
  - { offset: 0x5E946, size: 0x8, addend: 0x0, symName: __RNCINvNvNtNtNtNtCsaNl6UpbT7bw_4core4iter6traits8iterator8Iterator12try_for_each4callNtCshnvkK9b4wzu_11proc_macro211TokenStreamINtNtNtBe_3ops12control_flow11ControlFlowB1k_ENcNtB20_5Break0E0Cs2KWZukAWMkS_10displaydoc, symObjAddr: 0x20DC, symBinAddr: 0x15B90, symSize: 0x3C }
  - { offset: 0x5E9AE, size: 0x8, addend: 0x0, symName: __RINvYINtNtNtNtCsaNl6UpbT7bw_4core4iter8adapters3map3MapINtNtB8_3zip3ZipINtNtCsc29TF2YcYso_3syn10punctuated4IterNtNtB1c_4data7VariantEINtNtNtCsiTraAjBDcu4_5alloc3vec9into_iter8IntoIterINtNtBc_6option6OptionNtNtCs2KWZukAWMkS_10displaydoc4attr14VariantDisplayEEENCNvNtB3l_6expand9impl_enums_0ENtNtNtBa_6traits8iterator8Iterator7collectINtNtBc_6result6ResultINtB2c_3VecNtCshnvkK9b4wzu_11proc_macro211TokenStreamENtNtB1c_5error5ErrorEEB3l_, symObjAddr: 0x1B18, symBinAddr: 0x155CC, symSize: 0x6C }
  - { offset: 0x5EA44, size: 0x8, addend: 0x0, symName: __RINvYINtNtNtNtCsaNl6UpbT7bw_4core4iter8adapters3map3MapINtNtCsc29TF2YcYso_3syn10punctuated4IterNtNtBW_4data7VariantENCNvNtCs2KWZukAWMkS_10displaydoc6expand9impl_enum0ENtNtNtBa_6traits8iterator8Iterator7collectINtNtBc_6result6ResultINtNtCsiTraAjBDcu4_5alloc3vec3VecINtNtBc_6option6OptionNtNtB1W_4attr14VariantDisplayEENtNtBW_5error5ErrorEEB1W_, symObjAddr: 0x1B84, symBinAddr: 0x15638, symSize: 0x60 }
  - { offset: 0x5EADA, size: 0x8, addend: 0x0, symName: __RINvYINtNtNtNtCsaNl6UpbT7bw_4core4iter8adapters3map3MapINtNtNtBc_5slice4iter4IterRNtNtCsc29TF2YcYso_3syn8generics9TypeParamENCNvNtCs2KWZukAWMkS_10displaydoc6expand37extract_trait_constraints_from_source0ENtNtNtBa_6traits8iterator8Iterator7collectINtNtNtNtCsht3nMU9UgFu_3std11collections4hash3map7HashMapNtCshnvkK9b4wzu_11proc_macro25IdentINtNtCsiTraAjBDcu4_5alloc3vec3VecNtB1k_10TraitBoundEEEB24_, symObjAddr: 0x1BE4, symBinAddr: 0x15698, symSize: 0x58 }
  - { offset: 0x5EB6F, size: 0x8, addend: 0x0, symName: __RINvYINtNtNtNtCsaNl6UpbT7bw_4core4iter8adapters3map3MapINtNtNtBc_5slice4iter4IterRNtNtCsc29TF2YcYso_3syn8generics9TypeParamENCNvNtCs2KWZukAWMkS_10displaydoc6expand37extract_trait_constraints_from_source0ENtNtNtBa_6traits8iterator8Iterator8for_eachNCINvXs1i_NtCsg4dki62PTrg_9hashbrown3mapINtB47_7HashMapNtCshnvkK9b4wzu_11proc_macro25IdentINtNtCsiTraAjBDcu4_5alloc3vec3VecNtB1k_10TraitBoundENtNtNtCsht3nMU9UgFu_3std4hash6random11RandomStateEINtNtB3k_7collect6ExtendTB4Q_B5p_EE6extendB3_E0EB24_, symObjAddr: 0x1C3C, symBinAddr: 0x156F0, symSize: 0x34 }
  - { offset: 0x5EBBA, size: 0x8, addend: 0x0, symName: __RINvYINtNtNtNtCsaNl6UpbT7bw_4core4iter8adapters3map3MapNtNtNtBc_3str4iter5LinesNCNvMs0_NtCs2KWZukAWMkS_10displaydoc4attrNtB1n_11AttrsHelper7displays0_0ENtNtNtBa_6traits8iterator8Iterator7collectINtNtCsiTraAjBDcu4_5alloc3vec3VecReEEB1p_, symObjAddr: 0x1C70, symBinAddr: 0x15724, symSize: 0x74 }
  - { offset: 0x5EC50, size: 0x8, addend: 0x0, symName: __RINvYNtNtCshnvkK9b4wzu_11proc_macro212token_stream8IntoIterNtNtNtNtCsaNl6UpbT7bw_4core4iter6traits8iterator8Iterator4folduNCINvNvBV_8for_each4callNtB7_9TokenTreeNCINvXsa_NtB7_8fallbackNtB2I_11TokenStreamINtNtBZ_7collect6ExtendB2k_E6extendNtB7_11TokenStreamE0E0ECs2KWZukAWMkS_10displaydoc, symObjAddr: 0x1CE4, symBinAddr: 0x15798, symSize: 0x108 }
  - { offset: 0x5ECE1, size: 0x8, addend: 0x0, symName: __RINvYNtNtCshnvkK9b4wzu_11proc_macro212token_stream8IntoIterNtNtNtNtCsaNl6UpbT7bw_4core4iter6traits8iterator8Iterator8for_eachNCINvXsa_NtB7_8fallbackNtB28_11TokenStreamINtNtBZ_7collect6ExtendNtB7_9TokenTreeE6extendNtB7_11TokenStreamE0ECs2KWZukAWMkS_10displaydoc, symObjAddr: 0x1DEC, symBinAddr: 0x158A0, symSize: 0x24 }
  - { offset: 0x5ED37, size: 0x8, addend: 0x0, symName: __RNCINvNvNtNtNtNtCsaNl6UpbT7bw_4core4iter6traits8iterator8Iterator4find5checkTRNtCshnvkK9b4wzu_11proc_macro25IdentQINtNtCsiTraAjBDcu4_5alloc3vec3VecNtNtCsc29TF2YcYso_3syn8generics10TraitBoundEENCNvNtCs2KWZukAWMkS_10displaydoc6expand37extract_trait_constraints_from_sources_0E0B3a_, symObjAddr: 0x2118, symBinAddr: 0x15BCC, symSize: 0x84 }
  - { offset: 0x5ED9F, size: 0x8, addend: 0x0, symName: __RNCINvNvNtNtNtNtCsaNl6UpbT7bw_4core4iter6traits8iterator8Iterator8for_each4callNtCshnvkK9b4wzu_11proc_macro29TokenTreeNCINvXsa_NtB1h_8fallbackNtB21_11TokenStreamINtNtBa_7collect6ExtendB1f_E6extendNtB1h_11TokenStreamE0E0Cs2KWZukAWMkS_10displaydoc, symObjAddr: 0x219C, symBinAddr: 0x15C50, symSize: 0x3C }
  - { offset: 0x5EDF8, size: 0x8, addend: 0x0, symName: __RNCINvNvNtNtNtNtCsaNl6UpbT7bw_4core4iter6traits8iterator8Iterator8for_each4callTNtCshnvkK9b4wzu_11proc_macro25IdentINtNtCsiTraAjBDcu4_5alloc3vec3VecNtNtCsc29TF2YcYso_3syn8generics10TraitBoundEENCINvXs1i_NtCsg4dki62PTrg_9hashbrown3mapINtB3f_7HashMapB1g_B1P_NtNtNtCsht3nMU9UgFu_3std4hash6random11RandomStateEINtNtBa_7collect6ExtendB1f_E6extendINtNtNtBc_8adapters3map3MapINtNtNtBe_5slice4iter4IterRNtB2o_9TypeParamENCNvNtCs2KWZukAWMkS_10displaydoc6expand37extract_trait_constraints_from_source0EE0E0B6I_, symObjAddr: 0x21D8, symBinAddr: 0x15C8C, symSize: 0x40 }
  - { offset: 0x5EE88, size: 0x8, addend: 0x0, symName: __RNCNvXs_NvNtNtNtNtCsaNl6UpbT7bw_4core4iter6traits8iterator8Iterator10advance_byINtNtCsc29TF2YcYso_3syn10punctuated11PrivateIterNtNtB1k_4data7VariantNtNtB1k_5token5CommaENtB6_13SpecAdvanceBy15spec_advance_by0Cs2KWZukAWMkS_10displaydoc, symObjAddr: 0x2218, symBinAddr: 0x15CCC, symSize: 0x20 }
  - { offset: 0x5EED5, size: 0x8, addend: 0x0, symName: __RNCNvXs_NvNtNtNtNtCsaNl6UpbT7bw_4core4iter6traits8iterator8Iterator10advance_byINtNtCsc29TF2YcYso_3syn10punctuated11PrivateIterNtNtB1k_8generics14WherePredicateNtNtB1k_5token5CommaENtB6_13SpecAdvanceBy15spec_advance_by0Cs2KWZukAWMkS_10displaydoc, symObjAddr: 0x2238, symBinAddr: 0x15CEC, symSize: 0x20 }
  - { offset: 0x5EF22, size: 0x8, addend: 0x0, symName: __RNCNvXs_NvNtNtNtNtCsaNl6UpbT7bw_4core4iter6traits8iterator8Iterator10advance_byINtNtCsc29TF2YcYso_3syn10punctuated14PrivateIterMutNtNtB1k_8generics14WherePredicateNtNtB1k_5token5CommaENtB6_13SpecAdvanceBy15spec_advance_by0Cs2KWZukAWMkS_10displaydoc, symObjAddr: 0x2258, symBinAddr: 0x15D0C, symSize: 0x20 }
  - { offset: 0x5EFD9, size: 0x8, addend: 0x0, symName: __RNvXNtNtNtCsaNl6UpbT7bw_4core4iter6traits7collectINtNtNtB6_8adapters3map3MapINtNtBQ_3zip3ZipINtNtCsc29TF2YcYso_3syn10punctuated4IterNtNtB1x_4data7VariantEINtNtNtCsiTraAjBDcu4_5alloc3vec9into_iter8IntoIterINtNtB8_6option6OptionNtNtCs2KWZukAWMkS_10displaydoc4attr14VariantDisplayEEENCNvNtB3G_6expand9impl_enums_0ENtB2_12IntoIterator9into_iterB3G_, symObjAddr: 0x2904, symBinAddr: 0x163B8, symSize: 0x30 }
  - { offset: 0x5F011, size: 0x8, addend: 0x0, symName: __RNvXNtNtNtCsaNl6UpbT7bw_4core4iter6traits7collectINtNtNtB6_8adapters3map3MapINtNtCsc29TF2YcYso_3syn10punctuated4IterNtNtB1h_4data7VariantENCNvNtCs2KWZukAWMkS_10displaydoc6expand9impl_enum0ENtB2_12IntoIterator9into_iterB2i_, symObjAddr: 0x2934, symBinAddr: 0x163E8, symSize: 0x14 }
  - { offset: 0x5F048, size: 0x8, addend: 0x0, symName: __RNvXNtNtNtCsaNl6UpbT7bw_4core4iter6traits7collectINtNtNtB6_8adapters3map3MapINtNtNtB8_5slice4iter4IterRNtNtCsc29TF2YcYso_3syn8generics9TypeParamENCNvNtCs2KWZukAWMkS_10displaydoc6expand37extract_trait_constraints_from_source0ENtB2_12IntoIterator9into_iterB2p_, symObjAddr: 0x2948, symBinAddr: 0x163FC, symSize: 0x1C }
  - { offset: 0x5F07F, size: 0x8, addend: 0x0, symName: __RNvXNtNtNtCsaNl6UpbT7bw_4core4iter6traits7collectINtNtNtB6_8adapters3map3MapNtNtNtB8_3str4iter5LinesNCNvMs0_NtCs2KWZukAWMkS_10displaydoc4attrNtB1I_11AttrsHelper7displays0_0ENtB2_12IntoIterator9into_iterB1K_, symObjAddr: 0x2964, symBinAddr: 0x16418, symSize: 0x30 }
  - { offset: 0x5F0EE, size: 0x8, addend: 0x0, symName: __RNvYINtNtNtCsiTraAjBDcu4_5alloc3vec9into_iter8IntoIterINtNtCsaNl6UpbT7bw_4core6option6OptionNtNtCs2KWZukAWMkS_10displaydoc4attr14VariantDisplayEENtNtNtNtBV_4iter6traits10exact_size17ExactSizeIterator3lenB1w_, symObjAddr: 0x3334, symBinAddr: 0x16DE8, symSize: 0xC4 }
  - { offset: 0x5F3AF, size: 0x8, addend: 0x0, symName: __RNvNvNtNtCsaNl6UpbT7bw_4core4char7convert18from_u32_unchecked18precondition_checkCs2KWZukAWMkS_10displaydoc, symObjAddr: 0x2748, symBinAddr: 0x161FC, symSize: 0x104 }
  - { offset: 0x5FFB6, size: 0x8, addend: 0x0, symName: __RINvXNtNtNtNtCsht3nMU9UgFu_3std3sys12thread_local6native4lazyzNtB3_14DestroyedState13register_dtorINtNtCsaNl6UpbT7bw_4core4cell4CellTyyEEECs2KWZukAWMkS_10displaydoc, symObjAddr: 0x1A2C, symBinAddr: 0x154E0, symSize: 0x10 }
  - { offset: 0x601BF, size: 0x8, addend: 0x0, symName: __RINvMs0_NtNtNtNtCsht3nMU9UgFu_3std3sys12thread_local6native4lazyINtB6_7StorageINtNtCsaNl6UpbT7bw_4core4cell4CellTyyEEzE11get_or_initNvNvNvMNtNtBe_4hash6randomNtB2d_11RandomState3new4KEYS6___initECs2KWZukAWMkS_10displaydoc, symObjAddr: 0x224, symBinAddr: 0x13F40, symSize: 0xA4 }
  - { offset: 0x603CA, size: 0x8, addend: 0x0, symName: __RINvMs0_NtNtNtNtCsht3nMU9UgFu_3std3sys12thread_local6native4lazyINtB6_7StorageINtNtCsaNl6UpbT7bw_4core4cell4CellTyyEEzE16get_or_init_slowNvNvNvMNtNtBe_4hash6randomNtB2i_11RandomState3new4KEYS6___initECs2KWZukAWMkS_10displaydoc, symObjAddr: 0x2C8, symBinAddr: 0x17BC44, symSize: 0x220 }
  - { offset: 0x607AA, size: 0x8, addend: 0x0, symName: __RINvMs_NtNtCsaNl6UpbT7bw_4core3fmt2rtNtB7_9Arguments6new_v1Kj3_Kj2_ECs2KWZukAWMkS_10displaydoc, symObjAddr: 0x4E8, symBinAddr: 0x13FE4, symSize: 0x54 }
  - { offset: 0x6610A, size: 0x8, addend: 0x0, symName: __RNvXNvXsd_NtNtCsiTraAjBDcu4_5alloc3vec9into_iterINtB8_8IntoIterppENtNtNtCsaNl6UpbT7bw_4core3ops4drop4Drop4dropINtB2_9DropGuardINtNtB18_6option6OptionNtNtCs2KWZukAWMkS_10displaydoc4attr14VariantDisplayENtNtBc_5alloc6GlobalEB12_4dropB2r_, symObjAddr: 0x2994, symBinAddr: 0x16448, symSize: 0x7C }
  - { offset: 0x66240, size: 0x8, addend: 0x0, symName: __RNvXsd_NtNtCsiTraAjBDcu4_5alloc3vec9into_iterINtB5_8IntoIterINtNtCsaNl6UpbT7bw_4core6option6OptionNtNtCs2KWZukAWMkS_10displaydoc4attr14VariantDisplayEENtNtNtB11_3ops4drop4Drop4dropB1C_, symObjAddr: 0x329C, symBinAddr: 0x16D50, symSize: 0x98 }
  - { offset: 0x662E0, size: 0x8, addend: 0x0, symName: __RNvXs3_NtNtCsiTraAjBDcu4_5alloc3vec9into_iterINtB5_8IntoIterINtNtCsaNl6UpbT7bw_4core6option6OptionNtNtCs2KWZukAWMkS_10displaydoc4attr14VariantDisplayEENtNtNtNtB11_4iter6traits8iterator8Iterator4nextB1C_, symObjAddr: 0x3070, symBinAddr: 0x16B24, symSize: 0xE0 }
  - { offset: 0x66452, size: 0x8, addend: 0x0, symName: __RNvXs3_NtNtCsiTraAjBDcu4_5alloc3vec9into_iterINtB5_8IntoIterINtNtCsaNl6UpbT7bw_4core6option6OptionNtNtCs2KWZukAWMkS_10displaydoc4attr14VariantDisplayEENtNtNtNtB11_4iter6traits8iterator8Iterator9size_hintB1C_, symObjAddr: 0x3150, symBinAddr: 0x16C04, symSize: 0x6C }
  - { offset: 0x6770E, size: 0x8, addend: 0x0, symName: __RNvMs1_NtNtCsaNl6UpbT7bw_4core3ptr8non_nullINtB5_7NonNullINtNtB9_6option6OptionNtNtCs2KWZukAWMkS_10displaydoc4attr14VariantDisplayEE20offset_from_unsignedB1j_, symObjAddr: 0x2430, symBinAddr: 0x15EE4, symSize: 0x7C }
  - { offset: 0x67821, size: 0x8, addend: 0x0, symName: __RNvMs1_NtNtCsaNl6UpbT7bw_4core3ptr8non_nullINtB5_7NonNullRNtNtCsc29TF2YcYso_3syn8generics9TypeParamE20offset_from_unsignedCs2KWZukAWMkS_10displaydoc, symObjAddr: 0x24AC, symBinAddr: 0x15F60, symSize: 0x7C }
  - { offset: 0x67927, size: 0x8, addend: 0x0, symName: __RNvMs1_NtNtCsaNl6UpbT7bw_4core3ptr8non_nullINtB5_7NonNullTNtNtCsc29TF2YcYso_3syn4data7VariantNtNtBY_5token5CommaEE20offset_from_unsignedCs2KWZukAWMkS_10displaydoc, symObjAddr: 0x2528, symBinAddr: 0x15FDC, symSize: 0x7C }
  - { offset: 0x67A2D, size: 0x8, addend: 0x0, symName: __RNvMs1_NtNtCsaNl6UpbT7bw_4core3ptr8non_nullINtB5_7NonNullTNtNtCsc29TF2YcYso_3syn8generics14WherePredicateNtNtBY_5token5CommaEE20offset_from_unsignedCs2KWZukAWMkS_10displaydoc, symObjAddr: 0x25A4, symBinAddr: 0x16058, symSize: 0x7C }
  - { offset: 0x67B74, size: 0x8, addend: 0x0, symName: __RNvXNtCs4EAaWzSXu1l_5quote14ident_fragmentRjNtB2_13IdentFragment3fmtCs2KWZukAWMkS_10displaydoc, symObjAddr: 0x284C, symBinAddr: 0x16300, symSize: 0x40 }
  - { offset: 0x67BB7, size: 0x8, addend: 0x0, symName: __RNvXNtCs4EAaWzSXu1l_5quote14ident_fragmentRjNtB2_13IdentFragment4spanCs2KWZukAWMkS_10displaydoc, symObjAddr: 0x288C, symBinAddr: 0x16340, symSize: 0x38 }
  - { offset: 0x67BF2, size: 0x8, addend: 0x0, symName: __RNvYjNtNtCs4EAaWzSXu1l_5quote14ident_fragment13IdentFragment4spanCs2KWZukAWMkS_10displaydoc, symObjAddr: 0x38EC, symBinAddr: 0x173A0, symSize: 0x2C }
  - { offset: 0x67C33, size: 0x8, addend: 0x0, symName: __RNvXNtCs4EAaWzSXu1l_5quote9to_tokensRNtNtCsc29TF2YcYso_3syn6derive11DeriveInputNtB2_8ToTokens9to_tokensCs2KWZukAWMkS_10displaydoc, symObjAddr: 0x28C4, symBinAddr: 0x16378, symSize: 0x40 }
  - { offset: 0x67C78, size: 0x8, addend: 0x0, symName: __RNvYRNtNtCsc29TF2YcYso_3syn6derive11DeriveInputNtNtCs4EAaWzSXu1l_5quote9to_tokens8ToTokens15to_token_streamCs2KWZukAWMkS_10displaydoc, symObjAddr: 0x380C, symBinAddr: 0x172C0, symSize: 0x8C }
  - { offset: 0x67CC2, size: 0x8, addend: 0x0, symName: __RNvYRNtNtCsc29TF2YcYso_3syn6derive11DeriveInputNtNtCs4EAaWzSXu1l_5quote9to_tokens8ToTokens17into_token_streamCs2KWZukAWMkS_10displaydoc, symObjAddr: 0x3898, symBinAddr: 0x1734C, symSize: 0x54 }
  - { offset: 0x67D08, size: 0x8, addend: 0x0, symName: __RNvYINtNtNtNtCsaNl6UpbT7bw_4core4iter8adapters3map3MapINtNtCsc29TF2YcYso_3syn10punctuated4IterNtNtBV_4data5FieldENCNCNvNtCs2KWZukAWMkS_10displaydoc6expand11impl_struct00ENtNtNtCs4EAaWzSXu1l_5quote9___private3ext14RepIteratorExt15quote_into_iterB1V_, symObjAddr: 0x33F8, symBinAddr: 0x16EAC, symSize: 0x2C }
  - { offset: 0x67D3D, size: 0x8, addend: 0x0, symName: __RNvYINtNtNtNtCsaNl6UpbT7bw_4core4iter8adapters3map3MapINtNtCsc29TF2YcYso_3syn10punctuated4IterNtNtBV_4data5FieldENCNCNvNtCs2KWZukAWMkS_10displaydoc6expand9impl_enums_0s_0ENtNtNtCs4EAaWzSXu1l_5quote9___private3ext14RepIteratorExt15quote_into_iterB1V_, symObjAddr: 0x3424, symBinAddr: 0x16ED8, symSize: 0x2C }
  - { offset: 0x67D72, size: 0x8, addend: 0x0, symName: __RNvYINtNtNtNtCsaNl6UpbT7bw_4core4iter8adapters3map3MapINtNtNtBb_3ops5range5RangejENCNCNvNtCs2KWZukAWMkS_10displaydoc6expand11impl_struct0s_0ENtNtNtCs4EAaWzSXu1l_5quote9___private3ext14RepIteratorExt15quote_into_iterB1q_, symObjAddr: 0x3450, symBinAddr: 0x16F04, symSize: 0x24 }
  - { offset: 0x67DA7, size: 0x8, addend: 0x0, symName: __RNvYINtNtNtNtCsaNl6UpbT7bw_4core4iter8adapters3map3MapINtNtNtBb_3ops5range5RangejENCNCNvNtCs2KWZukAWMkS_10displaydoc6expand9impl_enums_0s0_0ENtNtNtCs4EAaWzSXu1l_5quote9___private3ext14RepIteratorExt15quote_into_iterB1q_, symObjAddr: 0x3474, symBinAddr: 0x16F28, symSize: 0x24 }
  - { offset: 0x6923C, size: 0x8, addend: 0x0, symName: __RINvCsc29TF2YcYso_3syn5parseNtNtB2_6derive11DeriveInputECs2KWZukAWMkS_10displaydoc, symObjAddr: 0x0, symBinAddr: 0x175C8, symSize: 0x30 }
  - { offset: 0x6CCEE, size: 0x8, addend: 0x0, symName: __RINvXs3_NtNtCsaNl6UpbT7bw_4core4hash5implsRNtCshnvkK9b4wzu_11proc_macro25IdentNtB8_4Hash4hashNtNtNtCsht3nMU9UgFu_3std4hash6random13DefaultHasherECs2KWZukAWMkS_10displaydoc, symObjAddr: 0x1E4, symBinAddr: 0x17768, symSize: 0x30 }
  - { offset: 0x6CE1C, size: 0x8, addend: 0x0, symName: __RNCINvNvXs1_NtNtNtCsaNl6UpbT7bw_4core4iter8adapters6filterINtBa_6FilterppENtNtNtBe_6traits8iterator8Iterator5count8to_usizeRNtNtCsc29TF2YcYso_3syn4attr9AttributeNCNvMs0_NtCs2KWZukAWMkS_10displaydoc4attrNtB2H_11AttrsHelper7displays_0E0B2J_, symObjAddr: 0x430, symBinAddr: 0x179B4, symSize: 0x5C }
  - { offset: 0x6CE7F, size: 0x8, addend: 0x0, symName: __RNvXs1_NtNtNtCsaNl6UpbT7bw_4core4iter8adapters6filterINtB5_6FilterINtNtNtBb_5slice4iter4IterNtNtCsc29TF2YcYso_3syn4attr9AttributeENCNvMs0_NtCs2KWZukAWMkS_10displaydoc4attrNtB2c_11AttrsHelper7displays_0ENtNtNtB9_6traits8iterator8Iterator5countB2e_, symObjAddr: 0xB14, symBinAddr: 0x18094, symSize: 0x50 }
  - { offset: 0x6D06D, size: 0x8, addend: 0x0, symName: __RNvXsF_NtNtCsaNl6UpbT7bw_4core4iter5rangejNtB5_4Step17forward_uncheckedCs2KWZukAWMkS_10displaydoc, symObjAddr: 0x1824, symBinAddr: 0x18DA4, symSize: 0x50 }
  - { offset: 0x6D0E3, size: 0x8, addend: 0x0, symName: __RNcNtINtNtNtCsaNl6UpbT7bw_4core3ops12control_flow11ControlFlowINtNtBa_6option6OptionNtNtCs2KWZukAWMkS_10displaydoc4attr14VariantDisplayEE5Break0B1o_, symObjAddr: 0x4BC, symBinAddr: 0x17A40, symSize: 0x30 }
  - { offset: 0x6D11E, size: 0x8, addend: 0x0, symName: __RNcNtINtNtNtCsaNl6UpbT7bw_4core3ops12control_flow11ControlFlowNtCshnvkK9b4wzu_11proc_macro211TokenStreamE5Break0Cs2KWZukAWMkS_10displaydoc, symObjAddr: 0x4EC, symBinAddr: 0x17A70, symSize: 0x14 }
  - { offset: 0x6D15F, size: 0x8, addend: 0x0, symName: __RNvXNtNtCsaNl6UpbT7bw_4core3ops12control_flowINtB2_11ControlFlowIBI_INtNtB6_6option6OptionNtNtCs2KWZukAWMkS_10displaydoc4attr14VariantDisplayEEENtNtB4_9try_trait3Try11from_outputB1u_, symObjAddr: 0x804, symBinAddr: 0x17D84, symSize: 0x18 }
  - { offset: 0x6D19D, size: 0x8, addend: 0x0, symName: __RNvXNtNtCsaNl6UpbT7bw_4core3ops12control_flowINtB2_11ControlFlowIBI_INtNtB6_6option6OptionNtNtCs2KWZukAWMkS_10displaydoc4attr14VariantDisplayEEENtNtB4_9try_trait3Try6branchB1u_, symObjAddr: 0x81C, symBinAddr: 0x17D9C, symSize: 0x8C }
  - { offset: 0x6D216, size: 0x8, addend: 0x0, symName: __RNvXNtNtCsaNl6UpbT7bw_4core3ops12control_flowINtB2_11ControlFlowIBI_NtCshnvkK9b4wzu_11proc_macro211TokenStreamEENtNtB4_9try_trait3Try11from_outputCs2KWZukAWMkS_10displaydoc, symObjAddr: 0x8A8, symBinAddr: 0x17E28, symSize: 0x1C }
  - { offset: 0x6D254, size: 0x8, addend: 0x0, symName: __RNvXNtNtCsaNl6UpbT7bw_4core3ops12control_flowINtB2_11ControlFlowIBI_NtCshnvkK9b4wzu_11proc_macro211TokenStreamEENtNtB4_9try_trait3Try6branchCs2KWZukAWMkS_10displaydoc, symObjAddr: 0x8C4, symBinAddr: 0x17E44, symSize: 0x80 }
  - { offset: 0x6D2CE, size: 0x8, addend: 0x0, symName: __RNvXNtNtCsaNl6UpbT7bw_4core3ops12control_flowINtB2_11ControlFlowINtNtB6_6option6OptionNtNtCs2KWZukAWMkS_10displaydoc4attr14VariantDisplayEENtNtB4_9try_trait3Try11from_outputB1q_, symObjAddr: 0x944, symBinAddr: 0x17EC4, symSize: 0x1C }
  - { offset: 0x6D30C, size: 0x8, addend: 0x0, symName: __RNvXNtNtCsaNl6UpbT7bw_4core3ops12control_flowINtB2_11ControlFlowINtNtB6_6option6OptionNtNtCs2KWZukAWMkS_10displaydoc4attr14VariantDisplayEENtNtB4_9try_trait3Try6branchB1q_, symObjAddr: 0x960, symBinAddr: 0x17EE0, symSize: 0x94 }
  - { offset: 0x6D385, size: 0x8, addend: 0x0, symName: __RNvXNtNtCsaNl6UpbT7bw_4core3ops12control_flowINtB2_11ControlFlowNtCshnvkK9b4wzu_11proc_macro211TokenStreamENtNtB4_9try_trait3Try11from_outputCs2KWZukAWMkS_10displaydoc, symObjAddr: 0x9F4, symBinAddr: 0x17F74, symSize: 0x18 }
  - { offset: 0x6D3C3, size: 0x8, addend: 0x0, symName: __RNvXNtNtCsaNl6UpbT7bw_4core3ops12control_flowINtB2_11ControlFlowNtCshnvkK9b4wzu_11proc_macro211TokenStreamENtNtB4_9try_trait3Try6branchCs2KWZukAWMkS_10displaydoc, symObjAddr: 0xA0C, symBinAddr: 0x17F8C, symSize: 0x78 }
  - { offset: 0x6D43D, size: 0x8, addend: 0x0, symName: __RNvXNtNtCsaNl6UpbT7bw_4core3ops12control_flowINtB2_11ControlFlowTRNtCshnvkK9b4wzu_11proc_macro25IdentQINtNtCsiTraAjBDcu4_5alloc3vec3VecNtNtCsc29TF2YcYso_3syn8generics10TraitBoundEEENtNtB4_9try_trait3Try11from_outputCs2KWZukAWMkS_10displaydoc, symObjAddr: 0xA84, symBinAddr: 0x18004, symSize: 0x18 }
  - { offset: 0x6D47B, size: 0x8, addend: 0x0, symName: __RNvXNtNtCsaNl6UpbT7bw_4core3ops12control_flowINtB2_11ControlFlowTRNtCshnvkK9b4wzu_11proc_macro25IdentQINtNtCsiTraAjBDcu4_5alloc3vec3VecNtNtCsc29TF2YcYso_3syn8generics10TraitBoundEEENtNtB4_9try_trait3Try6branchCs2KWZukAWMkS_10displaydoc, symObjAddr: 0xA9C, symBinAddr: 0x1801C, symSize: 0x64 }
  - { offset: 0x6D4FA, size: 0x8, addend: 0x0, symName: __RNvXs_NtNtCsaNl6UpbT7bw_4core3ops12control_flowINtB4_11ControlFlowIBK_INtNtB8_6option6OptionNtNtCs2KWZukAWMkS_10displaydoc4attr14VariantDisplayEEEINtNtB6_9try_trait12FromResidualIBK_B12_NtNtB8_7convert10InfallibleEE13from_residualB1w_, symObjAddr: 0x1964, symBinAddr: 0x18EE4, symSize: 0x48 }
  - { offset: 0x6D539, size: 0x8, addend: 0x0, symName: __RNvXs_NtNtCsaNl6UpbT7bw_4core3ops12control_flowINtB4_11ControlFlowIBK_NtCshnvkK9b4wzu_11proc_macro211TokenStreamEEINtNtB6_9try_trait12FromResidualIBK_B12_NtNtB8_7convert10InfallibleEE13from_residualCs2KWZukAWMkS_10displaydoc, symObjAddr: 0x19AC, symBinAddr: 0x18F2C, symSize: 0x2C }
  - { offset: 0x6D577, size: 0x8, addend: 0x0, symName: __RNvXs_NtNtCsaNl6UpbT7bw_4core3ops12control_flowINtB4_11ControlFlowINtNtB8_6option6OptionNtNtCs2KWZukAWMkS_10displaydoc4attr14VariantDisplayEEINtNtB6_9try_trait12FromResidualIBK_B12_NtNtB8_7convert10InfallibleEE13from_residualB1s_, symObjAddr: 0x19D8, symBinAddr: 0x18F58, symSize: 0x48 }
  - { offset: 0x6D5B6, size: 0x8, addend: 0x0, symName: __RNvXs_NtNtCsaNl6UpbT7bw_4core3ops12control_flowINtB4_11ControlFlowNtCshnvkK9b4wzu_11proc_macro211TokenStreamEINtNtB6_9try_trait12FromResidualIBK_B12_NtNtB8_7convert10InfallibleEE13from_residualCs2KWZukAWMkS_10displaydoc, symObjAddr: 0x1A20, symBinAddr: 0x18FA0, symSize: 0x2C }
  - { offset: 0x6D5F4, size: 0x8, addend: 0x0, symName: __RNvXs_NtNtCsaNl6UpbT7bw_4core3ops12control_flowINtB4_11ControlFlowTRNtCshnvkK9b4wzu_11proc_macro25IdentQINtNtCsiTraAjBDcu4_5alloc3vec3VecNtNtCsc29TF2YcYso_3syn8generics10TraitBoundEEEINtNtB6_9try_trait12FromResidualIBK_B12_NtNtB8_7convert10InfallibleEE13from_residualCs2KWZukAWMkS_10displaydoc, symObjAddr: 0x1A4C, symBinAddr: 0x18FCC, symSize: 0x2C }
  - { offset: 0x6DEB5, size: 0x8, addend: 0x0, symName: __RNvMNtCsaNl6UpbT7bw_4core5sliceSNtCshnvkK9b4wzu_11proc_macro211TokenStream4iterCs2KWZukAWMkS_10displaydoc, symObjAddr: 0x500, symBinAddr: 0x17A84, symSize: 0x28 }
  - { offset: 0x6DFBB, size: 0x8, addend: 0x0, symName: __RNvNtNtCsaNl6UpbT7bw_4core5slice6memchr6memchrCs2KWZukAWMkS_10displaydoc, symObjAddr: 0x52C, symBinAddr: 0x17AAC, symSize: 0x114 }
  - { offset: 0x6E481, size: 0x8, addend: 0x0, symName: __RNvNvXs5_NtNtCsaNl6UpbT7bw_4core3str6traitsINtNtNtBb_3ops5range5RangejEINtNtNtBb_5slice5index10SliceIndexeE13get_unchecked18precondition_checkCs2KWZukAWMkS_10displaydoc, symObjAddr: 0x640, symBinAddr: 0x17BC0, symSize: 0xCC }
  - { offset: 0x6E586, size: 0x8, addend: 0x0, symName: __RNvXs2_NtNtCsaNl6UpbT7bw_4core3str6traitseINtNtNtB9_3ops5index5IndexINtNtBJ_5range16RangeToInclusivejEE5indexCs2KWZukAWMkS_10displaydoc, symObjAddr: 0xB64, symBinAddr: 0x180E4, symSize: 0x44 }
  - { offset: 0x6E70C, size: 0x8, addend: 0x0, symName: __RNvXs2_NtNtCsaNl6UpbT7bw_4core3str7patterncNtB5_7Pattern13into_searcherCs2KWZukAWMkS_10displaydoc, symObjAddr: 0xBA8, symBinAddr: 0x18128, symSize: 0x114 }
  - { offset: 0x6E82A, size: 0x8, addend: 0x0, symName: __RNvXs7_NtNtCsaNl6UpbT7bw_4core3str7patternINtB5_18MultiCharEqPatternNvMNtNtB9_4char7methodsc13is_whitespaceENtB5_7Pattern13into_searcherCs2KWZukAWMkS_10displaydoc, symObjAddr: 0x13E0, symBinAddr: 0x18960, symSize: 0x90 }
  - { offset: 0x6E88C, size: 0x8, addend: 0x0, symName: __RNvXs8_NtNtCsaNl6UpbT7bw_4core3str7patternINtB5_19MultiCharEqSearcherNvMNtNtB9_4char7methodsc13is_whitespaceENtB5_8Searcher4nextCs2KWZukAWMkS_10displaydoc, symObjAddr: 0x1470, symBinAddr: 0x189F0, symSize: 0x138 }
  - { offset: 0x6E9B2, size: 0x8, addend: 0x0, symName: __RNvXs9_NtNtCsaNl6UpbT7bw_4core3str7patternINtB5_19MultiCharEqSearcherNvMNtNtB9_4char7methodsc13is_whitespaceENtB5_15ReverseSearcher9next_backCs2KWZukAWMkS_10displaydoc, symObjAddr: 0x15A8, symBinAddr: 0x18B28, symSize: 0x138 }
  - { offset: 0x6EB3F, size: 0x8, addend: 0x0, symName: __RNvXs_NtNtCsaNl6UpbT7bw_4core3str7patternNtB4_12CharSearcherNtB4_8Searcher10next_matchCs2KWZukAWMkS_10displaydoc, symObjAddr: 0x1A78, symBinAddr: 0x18FF8, symSize: 0x380 }
  - { offset: 0x6EFA3, size: 0x8, addend: 0x0, symName: __RNvXs_NtNtCsaNl6UpbT7bw_4core3str7patternNtB4_12CharSearcherNtB4_8Searcher4nextCs2KWZukAWMkS_10displaydoc, symObjAddr: 0x1DF8, symBinAddr: 0x19378, symSize: 0x1E4 }
  - { offset: 0x6F25F, size: 0x8, addend: 0x0, symName: __RNvXs_NtNtCsaNl6UpbT7bw_4core3str7patternNtB4_12CharSearcherNtB4_8Searcher8haystackCs2KWZukAWMkS_10displaydoc, symObjAddr: 0x1FDC, symBinAddr: 0x1955C, symSize: 0x20 }
  - { offset: 0x6F293, size: 0x8, addend: 0x0, symName: __RNvXso_NtNtCsaNl6UpbT7bw_4core3str7patternINtB5_21CharPredicateSearcherNvMNtNtB9_4char7methodsc13is_whitespaceENtB5_8Searcher11next_rejectCs2KWZukAWMkS_10displaydoc, symObjAddr: 0x2A18, symBinAddr: 0x19F98, symSize: 0x24 }
  - { offset: 0x6F2D0, size: 0x8, addend: 0x0, symName: __RNvXsp_NtNtCsaNl6UpbT7bw_4core3str7patternINtB5_21CharPredicateSearcherNvMNtNtB9_4char7methodsc13is_whitespaceENtB5_15ReverseSearcher16next_reject_backCs2KWZukAWMkS_10displaydoc, symObjAddr: 0x2A3C, symBinAddr: 0x19FBC, symSize: 0x24 }
  - { offset: 0x6F337, size: 0x8, addend: 0x0, symName: __RNvXst_NtNtCsaNl6UpbT7bw_4core3str7patternReNtB5_7Pattern15strip_suffix_ofCs2KWZukAWMkS_10displaydoc, symObjAddr: 0x2A60, symBinAddr: 0x19FE0, symSize: 0xE8 }
  - { offset: 0x6F476, size: 0x8, addend: 0x0, symName: __RNvYINtNtNtCsaNl6UpbT7bw_4core3str7pattern19MultiCharEqSearcherNvMNtNtB9_4char7methodsc13is_whitespaceENtB5_15ReverseSearcher16next_reject_backCs2KWZukAWMkS_10displaydoc, symObjAddr: 0x2BE0, symBinAddr: 0x1A160, symSize: 0x90 }
  - { offset: 0x6F4E1, size: 0x8, addend: 0x0, symName: __RNvYINtNtNtCsaNl6UpbT7bw_4core3str7pattern19MultiCharEqSearcherNvMNtNtB9_4char7methodsc13is_whitespaceENtB5_8Searcher11next_rejectCs2KWZukAWMkS_10displaydoc, symObjAddr: 0x2C70, symBinAddr: 0x1A1F0, symSize: 0x90 }
  - { offset: 0x6F546, size: 0x8, addend: 0x0, symName: __RNvYNtNtNtCsaNl6UpbT7bw_4core3str7pattern12CharSearcherNtB4_8Searcher11next_rejectCs2KWZukAWMkS_10displaydoc, symObjAddr: 0x2D00, symBinAddr: 0x1A280, symSize: 0x90 }
  - { offset: 0x6F7C5, size: 0x8, addend: 0x0, symName: __RNvXNtCsaNl6UpbT7bw_4core6borrowNtCshnvkK9b4wzu_11proc_macro25IdentINtB2_6BorrowBu_E6borrowCs2KWZukAWMkS_10displaydoc, symObjAddr: 0x7DC, symBinAddr: 0x17D5C, symSize: 0x14 }
  - { offset: 0x6F806, size: 0x8, addend: 0x0, symName: __RNvXs1_NtCsaNl6UpbT7bw_4core7convertNtCshnvkK9b4wzu_11proc_macro211TokenStreamINtB5_4IntoNtCs7yrEGia95Wz_10proc_macro11TokenStreamE4intoCs2KWZukAWMkS_10displaydoc, symObjAddr: 0xB00, symBinAddr: 0x18080, symSize: 0x14 }
  - { offset: 0x6FEEE, size: 0x8, addend: 0x0, symName: __RINvNtNtNtCs7yrEGia95Wz_10proc_macro6bridge6client5state3setINtNtCsaNl6UpbT7bw_4core6option6OptionNtB4_11TokenStreamENCNCINvB4_10run_clientB1y_BW_NCNCINvMs6_B4_INtB4_6ClientNtB8_11TokenStreamB2L_E7expand1NvCs2KWZukAWMkS_10displaydoc12derive_errorE00E00EB3i_, symObjAddr: 0xFC, symBinAddr: 0x17680, symSize: 0xE8 }
  - { offset: 0x6FFCD, size: 0x8, addend: 0x0, symName: __RNCNkNvNtNtNtCs7yrEGia95Wz_10proc_macro6bridge6client5state12BRIDGE_STATE0s_0Cs2KWZukAWMkS_10displaydoc, symObjAddr: 0x48C, symBinAddr: 0x17A10, symSize: 0x30 }
  - { offset: 0x701F4, size: 0x8, addend: 0x0, symName: __RNvXNtNtCs7yrEGia95Wz_10proc_macro6bridge3rpcuINtB2_6EncodeuE6encodeCs2KWZukAWMkS_10displaydoc, symObjAddr: 0x7F0, symBinAddr: 0x17D70, symSize: 0x14 }
  - { offset: 0x7026D, size: 0x8, addend: 0x0, symName: __RNvXsa_NtNtCs7yrEGia95Wz_10proc_macro6bridge3rpcRShINtB5_6EncodeuE6encodeCs2KWZukAWMkS_10displaydoc, symObjAddr: 0x1FFC, symBinAddr: 0x1957C, symSize: 0xD8 }
  - { offset: 0x7036F, size: 0x8, addend: 0x0, symName: __RNvXsc_NtNtCs7yrEGia95Wz_10proc_macro6bridge3rpcReINtB5_6EncodeuE6encodeCs2KWZukAWMkS_10displaydoc, symObjAddr: 0x20D4, symBinAddr: 0x19654, symSize: 0x38 }
  - { offset: 0x70457, size: 0x8, addend: 0x0, symName: __RNvXsl_NtNtCs7yrEGia95Wz_10proc_macro6bridge3rpcNtB5_12PanicMessageINtB5_6EncodeuE6encodeCs2KWZukAWMkS_10displaydoc, symObjAddr: 0x27E8, symBinAddr: 0x19D68, symSize: 0x128 }
  - { offset: 0x7061D, size: 0x8, addend: 0x0, symName: __RNvXso_NtNtCs7yrEGia95Wz_10proc_macro6bridge3rpcmINtB5_9DecodeMutuE6decodeCs2KWZukAWMkS_10displaydoc, symObjAddr: 0x2910, symBinAddr: 0x19E90, symSize: 0x108 }
  - { offset: 0x70C86, size: 0x8, addend: 0x0, symName: __RINvXs7_NtCshnvkK9b4wzu_11proc_macro23impNtB6_11TokenStreamINtNtNtNtCsaNl6UpbT7bw_4core4iter6traits7collect6ExtendNtB8_9TokenTreeE6extendNtB8_11TokenStreamECs2KWZukAWMkS_10displaydoc, symObjAddr: 0x248, symBinAddr: 0x177CC, symSize: 0x164 }
  - { offset: 0x70EBE, size: 0x8, addend: 0x0, symName: __RNvXsA_NtCshnvkK9b4wzu_11proc_macro23impNtB5_19DeferredTokenStreamNtNtCsaNl6UpbT7bw_4core5clone5Clone5cloneCs2KWZukAWMkS_10displaydoc, symObjAddr: 0x16E0, symBinAddr: 0x18C60, symSize: 0x90 }
  - { offset: 0x70EF0, size: 0x8, addend: 0x0, symName: __RNvXsF_NtCshnvkK9b4wzu_11proc_macro23impNtB5_5IdentNtNtCsaNl6UpbT7bw_4core5clone5Clone5cloneCs2KWZukAWMkS_10displaydoc, symObjAddr: 0x1788, symBinAddr: 0x18D08, symSize: 0x9C }
  - { offset: 0x70F60, size: 0x8, addend: 0x0, symName: __RNvXsz_NtCshnvkK9b4wzu_11proc_macro23impNtB5_11TokenStreamNtNtCsaNl6UpbT7bw_4core5clone5Clone5cloneCs2KWZukAWMkS_10displaydoc, symObjAddr: 0x2B48, symBinAddr: 0x1A0C8, symSize: 0x98 }
  - { offset: 0x710E2, size: 0x8, addend: 0x0, symName: __RINvXs4_CshnvkK9b4wzu_11proc_macro2NtB6_11TokenStreamINtNtNtNtCsaNl6UpbT7bw_4core4iter6traits7collect6ExtendNtB6_9TokenTreeE6extendBx_ECs2KWZukAWMkS_10displaydoc, symObjAddr: 0x214, symBinAddr: 0x17798, symSize: 0x34 }
  - { offset: 0x7112B, size: 0x8, addend: 0x0, symName: __RINvXsz_CshnvkK9b4wzu_11proc_macro2NtB6_5IdentNtNtCsaNl6UpbT7bw_4core4hash4Hash4hashNtNtNtCsht3nMU9UgFu_3std4hash6random13DefaultHasherECs2KWZukAWMkS_10displaydoc, symObjAddr: 0x3AC, symBinAddr: 0x17930, symSize: 0x84 }
  - { offset: 0x71396, size: 0x8, addend: 0x0, symName: __RNvXsG_CshnvkK9b4wzu_11proc_macro2NtB5_11TokenStreamNtNtCsaNl6UpbT7bw_4core5clone5Clone5cloneCs2KWZukAWMkS_10displaydoc, symObjAddr: 0x1874, symBinAddr: 0x18DF4, symSize: 0x78 }
  - { offset: 0x713C8, size: 0x8, addend: 0x0, symName: __RNvXsY_CshnvkK9b4wzu_11proc_macro2NtB5_5IdentNtNtCsaNl6UpbT7bw_4core5clone5Clone5cloneCs2KWZukAWMkS_10displaydoc, symObjAddr: 0x18EC, symBinAddr: 0x18E6C, symSize: 0x78 }
  - { offset: 0x7142B, size: 0x8, addend: 0x0, symName: __RINvCsc29TF2YcYso_3syn5parseNtNtB2_6derive11DeriveInputECs2KWZukAWMkS_10displaydoc, symObjAddr: 0x0, symBinAddr: 0x175C8, symSize: 0x30 }
  - { offset: 0x71D27, size: 0x8, addend: 0x0, symName: __RINvNtCsc29TF2YcYso_3syn5parse12parse_scopedNvYNtNtB4_3lit6LitStrNtB2_5Parse5parseECs2KWZukAWMkS_10displaydoc, symObjAddr: 0xCC, symBinAddr: 0x17650, symSize: 0x30 }
  - { offset: 0x71D82, size: 0x8, addend: 0x0, symName: __RNvXsh_NtCsc29TF2YcYso_3syn5parseNvYNtNtB7_3lit6LitStrNtB5_5Parse5parseNtB5_6Parser14___parse_scopedCs2KWZukAWMkS_10displaydoc, symObjAddr: 0x210C, symBinAddr: 0x1968C, symSize: 0x388 }
  - { offset: 0x71ECE, size: 0x8, addend: 0x0, symName: __RNvXsh_NtCsc29TF2YcYso_3syn5parseNvYNtNtB7_6derive11DeriveInputNtB5_5Parse5parseNtB5_6Parser6parse2Cs2KWZukAWMkS_10displaydoc, symObjAddr: 0x2494, symBinAddr: 0x19A14, symSize: 0x354 }
  - { offset: 0x71FE4, size: 0x8, addend: 0x0, symName: __RNvYNvYNtNtCsc29TF2YcYso_3syn6derive11DeriveInputNtNtB9_5parse5Parse5parseNtBN_6Parser5parseCs2KWZukAWMkS_10displaydoc, symObjAddr: 0x2D90, symBinAddr: 0x1A310, symSize: 0x88 }
  - { offset: 0x768A9, size: 0x8, addend: 0x0, symName: __RNvXNtCs4EAaWzSXu1l_5quote9to_tokensRNtCshnvkK9b4wzu_11proc_macro211TokenStreamNtB2_8ToTokens9to_tokensCs2KWZukAWMkS_10displaydoc, symObjAddr: 0x75C, symBinAddr: 0x17CDC, symSize: 0x40 }
  - { offset: 0x768E8, size: 0x8, addend: 0x0, symName: __RNvXNtCs4EAaWzSXu1l_5quote9to_tokensRNtCshnvkK9b4wzu_11proc_macro25IdentNtB2_8ToTokens9to_tokensCs2KWZukAWMkS_10displaydoc, symObjAddr: 0x79C, symBinAddr: 0x17D1C, symSize: 0x40 }
  - { offset: 0x76944, size: 0x8, addend: 0x0, symName: __RINvMNtNtCsaNl6UpbT7bw_4core3fmt2rtNtB3_8Argument11new_displayINtNtCs4EAaWzSXu1l_5quote9___private20IdentFragmentAdapterRjEECs2KWZukAWMkS_10displaydoc, symObjAddr: 0x30, symBinAddr: 0x175F8, symSize: 0x2C }
  - { offset: 0x77937, size: 0x8, addend: 0x0, symName: __RNvXs6_NtCsiTraAjBDcu4_5alloc5boxedINtB5_3BoxDNtNtCsaNl6UpbT7bw_4core5error5ErrorNtNtBM_6marker4SyncNtB1j_4SendEL_ENtNtNtBM_3ops4drop4Drop4dropCs2KWZukAWMkS_10displaydoc, symObjAddr: 0xCBC, symBinAddr: 0x1823C, symSize: 0xCC }
  - { offset: 0x77A6E, size: 0x8, addend: 0x0, symName: __RNvXs6_NtCsiTraAjBDcu4_5alloc5boxedINtB5_3BoxINtNtCsc29TF2YcYso_3syn5drops6NoDropDINtNtBM_10punctuated12IterMutTraitNtNtBM_8generics14WherePredicateEp4ItemQB1Q_EL_EENtNtNtCsaNl6UpbT7bw_4core3ops4drop4Drop4dropCs2KWZukAWMkS_10displaydoc, symObjAddr: 0xD88, symBinAddr: 0x18308, symSize: 0x120 }
  - { offset: 0x77BA5, size: 0x8, addend: 0x0, symName: __RNvXs6_NtCsiTraAjBDcu4_5alloc5boxedINtB5_3BoxINtNtCsc29TF2YcYso_3syn5drops6NoDropDINtNtBM_10punctuated9IterTraitNtNtBM_4data5FieldEp4ItemRB1M_EL_EENtNtNtCsaNl6UpbT7bw_4core3ops4drop4Drop4dropCs2KWZukAWMkS_10displaydoc, symObjAddr: 0xEA8, symBinAddr: 0x18428, symSize: 0x120 }
  - { offset: 0x77CDC, size: 0x8, addend: 0x0, symName: __RNvXs6_NtCsiTraAjBDcu4_5alloc5boxedINtB5_3BoxINtNtCsc29TF2YcYso_3syn5drops6NoDropDINtNtBM_10punctuated9IterTraitNtNtBM_4data7VariantEp4ItemRB1M_EL_EENtNtNtCsaNl6UpbT7bw_4core3ops4drop4Drop4dropCs2KWZukAWMkS_10displaydoc, symObjAddr: 0xFC8, symBinAddr: 0x18548, symSize: 0x120 }
  - { offset: 0x77E13, size: 0x8, addend: 0x0, symName: __RNvXs6_NtCsiTraAjBDcu4_5alloc5boxedINtB5_3BoxINtNtCsc29TF2YcYso_3syn5drops6NoDropDINtNtBM_10punctuated9IterTraitNtNtBM_8generics12GenericParamEp4ItemRB1M_EL_EENtNtNtCsaNl6UpbT7bw_4core3ops4drop4Drop4dropCs2KWZukAWMkS_10displaydoc, symObjAddr: 0x10E8, symBinAddr: 0x18668, symSize: 0x120 }
  - { offset: 0x77F4A, size: 0x8, addend: 0x0, symName: __RNvXs6_NtCsiTraAjBDcu4_5alloc5boxedINtB5_3BoxINtNtCsc29TF2YcYso_3syn5drops6NoDropDINtNtBM_10punctuated9IterTraitNtNtBM_8generics14WherePredicateEp4ItemRB1M_EL_EENtNtNtCsaNl6UpbT7bw_4core3ops4drop4Drop4dropCs2KWZukAWMkS_10displaydoc, symObjAddr: 0x1208, symBinAddr: 0x18788, symSize: 0x120 }
  - { offset: 0x78081, size: 0x8, addend: 0x0, symName: __RNvXs6_NtCsiTraAjBDcu4_5alloc5boxedINtB5_3BoxNtNtNtCsht3nMU9UgFu_3std2io5error6CustomENtNtNtCsaNl6UpbT7bw_4core3ops4drop4Drop4dropCs2KWZukAWMkS_10displaydoc, symObjAddr: 0x1328, symBinAddr: 0x188A8, symSize: 0xB8 }
  - { offset: 0x781BE, size: 0x8, addend: 0x0, symName: __RNvXsC_NtCsiTraAjBDcu4_5alloc5boxedINtB5_3BoxNtNtCsc29TF2YcYso_3syn8generics14WherePredicateEINtNtCsaNl6UpbT7bw_4core7convert5AsMutBH_E6as_mutCs2KWZukAWMkS_10displaydoc, symObjAddr: 0x1770, symBinAddr: 0x18CF0, symSize: 0x18 }
  - { offset: 0x7821B, size: 0x8, addend: 0x0, symName: __RINvMNtNtCsaNl6UpbT7bw_4core3fmt2rtNtB3_8Argument11new_displayNtNtNtCsc29TF2YcYso_3syn4attr7parsing16DisplayAttrStyleECs2KWZukAWMkS_10displaydoc, symObjAddr: 0x5C, symBinAddr: 0x17624, symSize: 0x2C }
  - { offset: 0x7844C, size: 0x8, addend: 0x0, symName: __RNvXCsg4dki62PTrg_9hashbrownNtCshnvkK9b4wzu_11proc_macro25IdentINtB2_10EquivalentBq_E10equivalentCs2KWZukAWMkS_10displaydoc, symObjAddr: 0x70C, symBinAddr: 0x17C8C, symSize: 0x50 }
  - { offset: 0x789CA, size: 0x8, addend: 0x0, symName: __RNCNvMs0_NtCs2KWZukAWMkS_10displaydoc4attrNtB7_11AttrsHelper7display0B9_, symObjAddr: 0x3834, symBinAddr: 0x1ADB4, symSize: 0x50 }
  - { offset: 0x78A00, size: 0x8, addend: 0x0, symName: __RNCNvMs0_NtCs2KWZukAWMkS_10displaydoc4attrNtB7_11AttrsHelper7displays_0B9_, symObjAddr: 0x3884, symBinAddr: 0x1AE04, symSize: 0x50 }
  - { offset: 0x78A36, size: 0x8, addend: 0x0, symName: __RNCNvMs0_NtCs2KWZukAWMkS_10displaydoc4attrNtB7_11AttrsHelper7displays0_0B9_, symObjAddr: 0x38D4, symBinAddr: 0x1AE54, symSize: 0x54 }
  - { offset: 0x78A80, size: 0x8, addend: 0x0, symName: __RNCNvMs0_NtCs2KWZukAWMkS_10displaydoc4attrNtB7_11AttrsHelper3new0B9_, symObjAddr: 0x31C8, symBinAddr: 0x1A748, symSize: 0x54 }
  - { offset: 0x78AB6, size: 0x8, addend: 0x0, symName: __RNCNvMs0_NtCs2KWZukAWMkS_10displaydoc4attrNtB7_11AttrsHelper3news_0B9_, symObjAddr: 0x321C, symBinAddr: 0x1A79C, symSize: 0x54 }
  - { offset: 0x78B00, size: 0x8, addend: 0x0, symName: __RNCNvMs0_NtCs2KWZukAWMkS_10displaydoc4attrNtB7_11AttrsHelper18display_with_input0B9_, symObjAddr: 0x3BF4, symBinAddr: 0x1B174, symSize: 0x78 }
  - { offset: 0x78B44, size: 0x8, addend: 0x0, symName: __RNvXNtCs2KWZukAWMkS_10displaydoc4attrNtB2_7DisplayNtNtCs4EAaWzSXu1l_5quote9to_tokens8ToTokens9to_tokens, symObjAddr: 0x2E18, symBinAddr: 0x1A398, symSize: 0x154 }
  - { offset: 0x78BD5, size: 0x8, addend: 0x0, symName: __RNvXs_NtCs2KWZukAWMkS_10displaydoc4attrNtB4_14VariantDisplayNtNtCs4EAaWzSXu1l_5quote9to_tokens8ToTokens9to_tokens, symObjAddr: 0x2F6C, symBinAddr: 0x1A4EC, symSize: 0x1D0 }
  - { offset: 0x79587, size: 0x8, addend: 0x0, symName: __RNvMs0_NtCs2KWZukAWMkS_10displaydoc4attrNtB5_11AttrsHelper3new, symObjAddr: 0x313C, symBinAddr: 0x1A6BC, symSize: 0x8C }
  - { offset: 0x795D3, size: 0x8, addend: 0x0, symName: __RNvMs0_NtCs2KWZukAWMkS_10displaydoc4attrNtB5_11AttrsHelper7display, symObjAddr: 0x3270, symBinAddr: 0x1A7F0, symSize: 0x5C4 }
  - { offset: 0x7970B, size: 0x8, addend: 0x0, symName: __RNvMs0_NtCs2KWZukAWMkS_10displaydoc4attrNtB5_11AttrsHelper18display_with_input, symObjAddr: 0x3928, symBinAddr: 0x1AEA8, symSize: 0x2CC }
  - { offset: 0x797C7, size: 0x8, addend: 0x0, symName: __RNvMNtCs2KWZukAWMkS_10displaydoc3fmtNtNtB4_4attr7Display16expand_shorthand, symObjAddr: 0x3C6C, symBinAddr: 0x1B1EC, symSize: 0x738 }
  - { offset: 0x79CDC, size: 0x8, addend: 0x0, symName: __RINvMNtCsc29TF2YcYso_3syn4attrNtB3_9Attribute10parse_argsNtNtB5_3lit6LitStrECs2KWZukAWMkS_10displaydoc, symObjAddr: 0x0, symBinAddr: 0x1B924, symSize: 0x34 }
  - { offset: 0x7AD8A, size: 0x8, addend: 0x0, symName: __RINvNtCsaNl6UpbT7bw_4core3ptr10swap_chunkKj1_ECs2KWZukAWMkS_10displaydoc, symObjAddr: 0x894, symBinAddr: 0x1C1B8, symSize: 0x3C }
  - { offset: 0x7ADC3, size: 0x8, addend: 0x0, symName: __RINvNtCsaNl6UpbT7bw_4core3ptr10swap_chunkKj2_ECs2KWZukAWMkS_10displaydoc, symObjAddr: 0x8D0, symBinAddr: 0x1C1F4, symSize: 0x3C }
  - { offset: 0x7ADFC, size: 0x8, addend: 0x0, symName: __RINvNtCsaNl6UpbT7bw_4core3ptr10swap_chunkKj4_ECs2KWZukAWMkS_10displaydoc, symObjAddr: 0x90C, symBinAddr: 0x1C230, symSize: 0x3C }
  - { offset: 0x7AE35, size: 0x8, addend: 0x0, symName: __RINvNtCsaNl6UpbT7bw_4core3ptr10swap_chunkKj8_ECs2KWZukAWMkS_10displaydoc, symObjAddr: 0x948, symBinAddr: 0x1C26C, symSize: 0x3C }
  - { offset: 0x7AEA9, size: 0x8, addend: 0x0, symName: __RINvNtCsaNl6UpbT7bw_4core3ptr14read_unalignedNtNtNtNtB4_9core_arch10arm_shared4neon9uint8x8_tECs2KWZukAWMkS_10displaydoc, symObjAddr: 0x984, symBinAddr: 0x1C2A8, symSize: 0x94 }
  - { offset: 0x7AFB8, size: 0x8, addend: 0x0, symName: __RINvNtCsaNl6UpbT7bw_4core3ptr15write_unalignedNtNtNtNtB4_9core_arch10arm_shared4neon9uint8x8_tECs2KWZukAWMkS_10displaydoc, symObjAddr: 0xA18, symBinAddr: 0x1C33C, symSize: 0x78 }
  - { offset: 0x7B0F7, size: 0x8, addend: 0x0, symName: __RNvNvNtCsaNl6UpbT7bw_4core3ptr19swap_nonoverlapping18precondition_checkCs2KWZukAWMkS_10displaydoc, symObjAddr: 0x21EC, symBinAddr: 0x1DA50, symSize: 0x38C }
  - { offset: 0x7B3D7, size: 0x8, addend: 0x0, symName: __RINvNtCsaNl6UpbT7bw_4core3ptr19swap_nonoverlappinghECs2KWZukAWMkS_10displaydoc, symObjAddr: 0xB50, symBinAddr: 0x1C3B4, symSize: 0xBC }
  - { offset: 0x7B5BC, size: 0x8, addend: 0x0, symName: __RINvNvNtCsaNl6UpbT7bw_4core3ptr25swap_nonoverlapping_bytes26swap_nonoverlapping_chunksKj8_ECs2KWZukAWMkS_10displaydoc, symObjAddr: 0xF34, symBinAddr: 0x1C798, symSize: 0xE4 }
  - { offset: 0x7B75A, size: 0x8, addend: 0x0, symName: __RNvNvNtCsaNl6UpbT7bw_4core3ptr25swap_nonoverlapping_bytes25swap_nonoverlapping_shortCs2KWZukAWMkS_10displaydoc, symObjAddr: 0x2578, symBinAddr: 0x1DDDC, symSize: 0x120 }
  - { offset: 0x7B977, size: 0x8, addend: 0x0, symName: __RNvNtCsaNl6UpbT7bw_4core3ptr25swap_nonoverlapping_bytesCs2KWZukAWMkS_10displaydoc, symObjAddr: 0x1B6C, symBinAddr: 0x1D3D0, symSize: 0xD8 }
  - { offset: 0x7BB20, size: 0x8, addend: 0x0, symName: __RNvNvNtCsaNl6UpbT7bw_4core3ptr19copy_nonoverlapping18precondition_checkCs2KWZukAWMkS_10displaydoc, symObjAddr: 0x1E80, symBinAddr: 0x1D6E4, symSize: 0x36C }
  - { offset: 0x7BDD3, size: 0x8, addend: 0x0, symName: __RNvNvNtCsaNl6UpbT7bw_4core3ptr7replace18precondition_checkCs2KWZukAWMkS_10displaydoc, symObjAddr: 0x2698, symBinAddr: 0x1DEFC, symSize: 0x16C }
  - { offset: 0x7F77B, size: 0x8, addend: 0x0, symName: __RNvXsn_NtNtCsaNl6UpbT7bw_4core5panic11unwind_safeINtB5_16AssertUnwindSafeNCINvNtNtCs7yrEGia95Wz_10proc_macro6bridge6client10run_clientNtB1e_11TokenStreamINtNtB9_6option6OptionB28_ENCNCINvMs6_B1e_INtB1e_6ClientNtB1i_11TokenStreamB3l_E7expand1NvCs2KWZukAWMkS_10displaydoc12derive_errorE00E0EINtNtNtB9_3ops8function6FnOnceuE9call_onceB3T_, symObjAddr: 0x3168, symBinAddr: 0x1E9CC, symSize: 0x38 }
  - { offset: 0x802CA, size: 0x8, addend: 0x0, symName: __RINvNtNtCsaNl6UpbT7bw_4core4iter8adapters11try_processINtNtB2_3map3MapINtNtB2_3zip3ZipINtNtCsc29TF2YcYso_3syn10punctuated4IterNtNtB1r_4data7VariantEINtNtNtCsiTraAjBDcu4_5alloc3vec9into_iter8IntoIterINtNtB6_6option6OptionNtNtCs2KWZukAWMkS_10displaydoc4attr14VariantDisplayEEENCNvNtB3A_6expand9impl_enums_0ENtCshnvkK9b4wzu_11proc_macro211TokenStreamINtNtB6_6result6ResultNtNtB6_7convert10InfallibleNtNtB1r_5error5ErrorENCINvXso_B5C_IB5A_INtB2r_3VecB4T_EB6m_EINtNtNtB4_6traits7collect12FromIteratorIB5A_B4T_B6m_EE9from_iterBQ_E0B6Z_EB3A_, symObjAddr: 0xC0C, symBinAddr: 0x1C470, symSize: 0x19C }
  - { offset: 0x80391, size: 0x8, addend: 0x0, symName: __RINvNtNtCsaNl6UpbT7bw_4core4iter8adapters11try_processINtNtB2_3map3MapINtNtCsc29TF2YcYso_3syn10punctuated4IterNtNtB1b_4data7VariantENCNvNtCs2KWZukAWMkS_10displaydoc6expand9impl_enum0EINtNtB6_6option6OptionNtNtB2c_4attr14VariantDisplayEINtNtB6_6result6ResultNtNtB6_7convert10InfallibleNtNtB1b_5error5ErrorENCINvXso_B3O_IB3M_INtNtCsiTraAjBDcu4_5alloc3vec3VecB2V_EB4y_EINtNtNtB4_6traits7collect12FromIteratorIB3M_B2V_B4y_EE9from_iterBQ_E0B5b_EB2c_, symObjAddr: 0xDA8, symBinAddr: 0x1C60C, symSize: 0x18C }
  - { offset: 0x8045D, size: 0x8, addend: 0x0, symName: __RINvXNtNtCsaNl6UpbT7bw_4core4iter8adaptersINtB3_12GenericShuntINtNtB3_3map3MapINtNtB3_3zip3ZipINtNtCsc29TF2YcYso_3syn10punctuated4IterNtNtB1z_4data7VariantEINtNtNtCsiTraAjBDcu4_5alloc3vec9into_iter8IntoIterINtNtB7_6option6OptionNtNtCs2KWZukAWMkS_10displaydoc4attr14VariantDisplayEEENCNvNtB3I_6expand9impl_enums_0EINtNtB7_6result6ResultNtNtB7_7convert10InfallibleNtNtB1z_5error5ErrorEENtNtNtB5_6traits8iterator8Iterator8try_folduNCINvNvB6a_12try_for_each4callNtCshnvkK9b4wzu_11proc_macro211TokenStreamINtNtNtB7_3ops12control_flow11ControlFlowB7m_ENcNtB82_5Break0E0B82_EB3I_, symObjAddr: 0x1018, symBinAddr: 0x1C87C, symSize: 0xA4 }
  - { offset: 0x8051B, size: 0x8, addend: 0x0, symName: __RINvXNtNtCsaNl6UpbT7bw_4core4iter8adaptersINtB3_12GenericShuntINtNtB3_3map3MapINtNtCsc29TF2YcYso_3syn10punctuated4IterNtNtB1j_4data7VariantENCNvNtCs2KWZukAWMkS_10displaydoc6expand9impl_enum0EINtNtB7_6result6ResultNtNtB7_7convert10InfallibleNtNtB1j_5error5ErrorEENtNtNtB5_6traits8iterator8Iterator8try_folduNCINvNvB4c_12try_for_each4callINtNtB7_6option6OptionNtNtB2k_4attr14VariantDisplayEINtNtNtB7_3ops12control_flow11ControlFlowB5o_ENcNtB6e_5Break0E0B6e_EB2k_, symObjAddr: 0x10BC, symBinAddr: 0x1C920, symSize: 0xC0 }
  - { offset: 0x805DF, size: 0x8, addend: 0x0, symName: __RNCINvXNtNtCsaNl6UpbT7bw_4core4iter8adaptersINtB5_12GenericShuntINtNtB5_3map3MapINtNtB5_3zip3ZipINtNtCsc29TF2YcYso_3syn10punctuated4IterNtNtB1B_4data7VariantEINtNtNtCsiTraAjBDcu4_5alloc3vec9into_iter8IntoIterINtNtB9_6option6OptionNtNtCs2KWZukAWMkS_10displaydoc4attr14VariantDisplayEEENCNvNtB3K_6expand9impl_enums_0EINtNtB9_6result6ResultNtNtB9_7convert10InfallibleNtNtB1B_5error5ErrorEENtNtNtB7_6traits8iterator8Iterator8try_folduNCINvNvB6c_12try_for_each4callNtCshnvkK9b4wzu_11proc_macro211TokenStreamINtNtNtB9_3ops12control_flow11ControlFlowB7o_ENcNtB84_5Break0E0B84_E0B3K_, symObjAddr: 0x1490, symBinAddr: 0x1CCF4, symSize: 0x1EC }
  - { offset: 0x806D2, size: 0x8, addend: 0x0, symName: __RNCINvXNtNtCsaNl6UpbT7bw_4core4iter8adaptersINtB5_12GenericShuntINtNtB5_3map3MapINtNtCsc29TF2YcYso_3syn10punctuated4IterNtNtB1l_4data7VariantENCNvNtCs2KWZukAWMkS_10displaydoc6expand9impl_enum0EINtNtB9_6result6ResultNtNtB9_7convert10InfallibleNtNtB1l_5error5ErrorEENtNtNtB7_6traits8iterator8Iterator8try_folduNCINvNvB4e_12try_for_each4callINtNtB9_6option6OptionNtNtB2m_4attr14VariantDisplayEINtNtNtB9_3ops12control_flow11ControlFlowB5q_ENcNtB6g_5Break0E0B6g_E0B2m_, symObjAddr: 0x167C, symBinAddr: 0x1CEE0, symSize: 0x204 }
  - { offset: 0x807E4, size: 0x8, addend: 0x0, symName: __RNvXNtNtCsaNl6UpbT7bw_4core4iter8adaptersINtB2_12GenericShuntINtNtB2_3map3MapINtNtB2_3zip3ZipINtNtCsc29TF2YcYso_3syn10punctuated4IterNtNtB1y_4data7VariantEINtNtNtCsiTraAjBDcu4_5alloc3vec9into_iter8IntoIterINtNtB6_6option6OptionNtNtCs2KWZukAWMkS_10displaydoc4attr14VariantDisplayEEENCNvNtB3H_6expand9impl_enums_0EINtNtB6_6result6ResultNtNtB6_7convert10InfallibleNtNtB1y_5error5ErrorEENtNtNtB4_6traits8iterator8Iterator4nextB3H_, symObjAddr: 0x2844, symBinAddr: 0x1E0A8, symSize: 0xA0 }
  - { offset: 0x80872, size: 0x8, addend: 0x0, symName: __RNvXNtNtCsaNl6UpbT7bw_4core4iter8adaptersINtB2_12GenericShuntINtNtB2_3map3MapINtNtB2_3zip3ZipINtNtCsc29TF2YcYso_3syn10punctuated4IterNtNtB1y_4data7VariantEINtNtNtCsiTraAjBDcu4_5alloc3vec9into_iter8IntoIterINtNtB6_6option6OptionNtNtCs2KWZukAWMkS_10displaydoc4attr14VariantDisplayEEENCNvNtB3H_6expand9impl_enums_0EINtNtB6_6result6ResultNtNtB6_7convert10InfallibleNtNtB1y_5error5ErrorEENtNtNtB4_6traits8iterator8Iterator9size_hintB3H_, symObjAddr: 0x28E4, symBinAddr: 0x1E148, symSize: 0xA8 }
  - { offset: 0x808EA, size: 0x8, addend: 0x0, symName: __RNvXNtNtCsaNl6UpbT7bw_4core4iter8adaptersINtB2_12GenericShuntINtNtB2_3map3MapINtNtCsc29TF2YcYso_3syn10punctuated4IterNtNtB1i_4data7VariantENCNvNtCs2KWZukAWMkS_10displaydoc6expand9impl_enum0EINtNtB6_6result6ResultNtNtB6_7convert10InfallibleNtNtB1i_5error5ErrorEENtNtNtB4_6traits8iterator8Iterator4nextB2j_, symObjAddr: 0x298C, symBinAddr: 0x1E1F0, symSize: 0xB4 }
  - { offset: 0x80979, size: 0x8, addend: 0x0, symName: __RNvXNtNtCsaNl6UpbT7bw_4core4iter8adaptersINtB2_12GenericShuntINtNtB2_3map3MapINtNtCsc29TF2YcYso_3syn10punctuated4IterNtNtB1i_4data7VariantENCNvNtCs2KWZukAWMkS_10displaydoc6expand9impl_enum0EINtNtB6_6result6ResultNtNtB6_7convert10InfallibleNtNtB1i_5error5ErrorEENtNtNtB4_6traits8iterator8Iterator9size_hintB2j_, symObjAddr: 0x2A40, symBinAddr: 0x1E2A4, symSize: 0xA8 }
  - { offset: 0x80B42, size: 0x8, addend: 0x0, symName: __RNvXs1_NtNtNtCsaNl6UpbT7bw_4core4iter8adapters3zipINtB5_3ZipINtNtCsc29TF2YcYso_3syn10punctuated4IterNtNtB11_4data7VariantEINtNtNtCsiTraAjBDcu4_5alloc3vec9into_iter8IntoIterINtNtBb_6option6OptionNtNtCs2KWZukAWMkS_10displaydoc4attr14VariantDisplayEEEINtB5_7ZipImplBW_B1W_E3newB3a_, symObjAddr: 0x2C84, symBinAddr: 0x1E4E8, symSize: 0x40 }
  - { offset: 0x80B8E, size: 0x8, addend: 0x0, symName: __RNvXs1_NtNtNtCsaNl6UpbT7bw_4core4iter8adapters3zipINtB5_3ZipINtNtCsc29TF2YcYso_3syn10punctuated4IterNtNtB11_4data7VariantEINtNtNtCsiTraAjBDcu4_5alloc3vec9into_iter8IntoIterINtNtBb_6option6OptionNtNtCs2KWZukAWMkS_10displaydoc4attr14VariantDisplayEEEINtB5_7ZipImplBW_B1W_E4nextB3a_, symObjAddr: 0x2CC4, symBinAddr: 0x1E528, symSize: 0x154 }
  - { offset: 0x80CEA, size: 0x8, addend: 0x0, symName: __RNvXs1_NtNtNtCsaNl6UpbT7bw_4core4iter8adapters3zipINtB5_3ZipINtNtCsc29TF2YcYso_3syn10punctuated4IterNtNtB11_4data7VariantEINtNtNtCsiTraAjBDcu4_5alloc3vec9into_iter8IntoIterINtNtBb_6option6OptionNtNtCs2KWZukAWMkS_10displaydoc4attr14VariantDisplayEEEINtB5_7ZipImplBW_B1W_E9size_hintB3a_, symObjAddr: 0x2E18, symBinAddr: 0x1E67C, symSize: 0x13C }
  - { offset: 0x80E5A, size: 0x8, addend: 0x0, symName: __RNvXs_NtNtNtCsaNl6UpbT7bw_4core4iter8adapters3zipINtB4_3ZipINtNtCsc29TF2YcYso_3syn10punctuated4IterNtNtB10_4data7VariantEINtNtNtCsiTraAjBDcu4_5alloc3vec9into_iter8IntoIterINtNtBa_6option6OptionNtNtCs2KWZukAWMkS_10displaydoc4attr14VariantDisplayEEENtNtNtB8_6traits8iterator8Iterator4nextB39_, symObjAddr: 0x3080, symBinAddr: 0x1E8E4, symSize: 0x24 }
  - { offset: 0x80E98, size: 0x8, addend: 0x0, symName: __RNvXs_NtNtNtCsaNl6UpbT7bw_4core4iter8adapters3zipINtB4_3ZipINtNtCsc29TF2YcYso_3syn10punctuated4IterNtNtB10_4data7VariantEINtNtNtCsiTraAjBDcu4_5alloc3vec9into_iter8IntoIterINtNtBa_6option6OptionNtNtCs2KWZukAWMkS_10displaydoc4attr14VariantDisplayEEENtNtNtB8_6traits8iterator8Iterator9size_hintB39_, symObjAddr: 0x30A4, symBinAddr: 0x1E908, symSize: 0x24 }
  - { offset: 0x80F48, size: 0x8, addend: 0x0, symName: __RNvXs_NtNtNtCsaNl6UpbT7bw_4core4iter8adapters6clonedINtB4_6ClonedINtNtB6_7flatten7FlatMapINtNtCsc29TF2YcYso_3syn10punctuated4IterNtNtB1u_8generics14TypeParamBoundEINtNtBa_6option6OptionRNtB25_10TraitBoundENCNCNvNtCs2KWZukAWMkS_10displaydoc6expand37extract_trait_constraints_from_source00EENtNtNtB8_6traits8iterator8Iterator4nextB3p_, symObjAddr: 0x30C8, symBinAddr: 0x1E92C, symSize: 0x7C }
  - { offset: 0x80FB9, size: 0x8, addend: 0x0, symName: __RNvXs_NtNtNtCsaNl6UpbT7bw_4core4iter8adapters6clonedINtB4_6ClonedINtNtB6_7flatten7FlatMapINtNtCsc29TF2YcYso_3syn10punctuated4IterNtNtB1u_8generics14TypeParamBoundEINtNtBa_6option6OptionRNtB25_10TraitBoundENCNCNvNtCs2KWZukAWMkS_10displaydoc6expand37extract_trait_constraints_from_source00EENtNtNtB8_6traits8iterator8Iterator9size_hintB3p_, symObjAddr: 0x3144, symBinAddr: 0x1E9A8, symSize: 0x24 }
  - { offset: 0x8115D, size: 0x8, addend: 0x0, symName: __RINvYINtNtNtCsaNl6UpbT7bw_4core4iter8adapters12GenericShuntINtNtB6_3map3MapINtNtB6_3zip3ZipINtNtCsc29TF2YcYso_3syn10punctuated4IterNtNtB1w_4data7VariantEINtNtNtCsiTraAjBDcu4_5alloc3vec9into_iter8IntoIterINtNtBa_6option6OptionNtNtCs2KWZukAWMkS_10displaydoc4attr14VariantDisplayEEENCNvNtB3F_6expand9impl_enums_0EINtNtBa_6result6ResultNtNtBa_7convert10InfallibleNtNtB1w_5error5ErrorEENtNtNtB8_6traits8iterator8Iterator7collectINtB2w_3VecNtCshnvkK9b4wzu_11proc_macro211TokenStreamEEB3F_, symObjAddr: 0x117C, symBinAddr: 0x1C9E0, symSize: 0x74 }
  - { offset: 0x811F3, size: 0x8, addend: 0x0, symName: __RINvYINtNtNtCsaNl6UpbT7bw_4core4iter8adapters12GenericShuntINtNtB6_3map3MapINtNtCsc29TF2YcYso_3syn10punctuated4IterNtNtB1g_4data7VariantENCNvNtCs2KWZukAWMkS_10displaydoc6expand9impl_enum0EINtNtBa_6result6ResultNtNtBa_7convert10InfallibleNtNtB1g_5error5ErrorEENtNtNtB8_6traits8iterator8Iterator7collectINtNtCsiTraAjBDcu4_5alloc3vec3VecINtNtBa_6option6OptionNtNtB2h_4attr14VariantDisplayEEEB2h_, symObjAddr: 0x11F0, symBinAddr: 0x1CA54, symSize: 0x74 }
  - { offset: 0x81289, size: 0x8, addend: 0x0, symName: __RINvYINtNtNtNtCsaNl6UpbT7bw_4core4iter8adapters3zip3ZipINtNtCsc29TF2YcYso_3syn10punctuated4IterNtNtBW_4data7VariantEINtNtNtCsiTraAjBDcu4_5alloc3vec9into_iter8IntoIterINtNtBc_6option6OptionNtNtCs2KWZukAWMkS_10displaydoc4attr14VariantDisplayEEENtNtNtBa_6traits8iterator8Iterator3mapINtNtBc_6result6ResultNtCshnvkK9b4wzu_11proc_macro211TokenStreamNtNtBW_5error5ErrorENCNvNtB34_6expand9impl_enums_0EB34_, symObjAddr: 0x1264, symBinAddr: 0x1CAC8, symSize: 0x30 }
  - { offset: 0x812F7, size: 0x8, addend: 0x0, symName: __RINvYINtNtNtNtCsaNl6UpbT7bw_4core4iter8adapters3zip3ZipINtNtCsc29TF2YcYso_3syn10punctuated4IterNtNtBW_4data7VariantEINtNtNtCsiTraAjBDcu4_5alloc3vec9into_iter8IntoIterINtNtBc_6option6OptionNtNtCs2KWZukAWMkS_10displaydoc4attr14VariantDisplayEEENtNtNtBa_6traits8iterator8Iterator8try_folduNCINvNtB8_3map12map_try_foldTRB1v_B2E_EINtNtBc_6result6ResultNtCshnvkK9b4wzu_11proc_macro211TokenStreamNtNtBW_5error5ErrorEuINtNtNtBc_3ops12control_flow11ControlFlowIB6B_B5z_EENCNvNtB34_6expand9impl_enums_0NCINvXB8_INtB8_12GenericShuntINtB4F_3MapB3_B7q_EIB5e_NtNtBc_7convert10InfallibleB6f_EEB3S_8try_folduNCINvNvB3S_12try_for_each4callB5z_B7f_NcNtB7f_5Break0E0B7f_E0E0B6A_EB34_, symObjAddr: 0x1294, symBinAddr: 0x1CAF8, symSize: 0x188 }
  - { offset: 0x813B4, size: 0x8, addend: 0x0, symName: __RINvYINtNtNtNtCsaNl6UpbT7bw_4core4iter8adapters6cloned6ClonedINtNtB8_7flatten7FlatMapINtNtCsc29TF2YcYso_3syn10punctuated4IterNtNtB1q_8generics14TypeParamBoundEINtNtBc_6option6OptionRNtB21_10TraitBoundENCNCNvNtCs2KWZukAWMkS_10displaydoc6expand37extract_trait_constraints_from_source00EENtNtNtBa_6traits8iterator8Iterator7collectINtNtCsiTraAjBDcu4_5alloc3vec3VecB2U_EEB3l_, symObjAddr: 0x141C, symBinAddr: 0x1CC80, symSize: 0x74 }
  - { offset: 0x81514, size: 0x8, addend: 0x0, symName: __RNvXNtNtNtCsaNl6UpbT7bw_4core4iter6traits7collectINtNtB6_8adapters12GenericShuntINtNtBO_3map3MapINtNtBO_3zip3ZipINtNtCsc29TF2YcYso_3syn10punctuated4IterNtNtB1R_4data7VariantEINtNtNtCsiTraAjBDcu4_5alloc3vec9into_iter8IntoIterINtNtB8_6option6OptionNtNtCs2KWZukAWMkS_10displaydoc4attr14VariantDisplayEEENCNvNtB40_6expand9impl_enums_0EINtNtB8_6result6ResultNtNtB8_7convert10InfallibleNtNtB1R_5error5ErrorEENtB2_12IntoIterator9into_iterB40_, symObjAddr: 0x2AE8, symBinAddr: 0x1E34C, symSize: 0x30 }
  - { offset: 0x8154C, size: 0x8, addend: 0x0, symName: __RNvXNtNtNtCsaNl6UpbT7bw_4core4iter6traits7collectINtNtB6_8adapters12GenericShuntINtNtBO_3map3MapINtNtCsc29TF2YcYso_3syn10punctuated4IterNtNtB1B_4data7VariantENCNvNtCs2KWZukAWMkS_10displaydoc6expand9impl_enum0EINtNtB8_6result6ResultNtNtB8_7convert10InfallibleNtNtB1B_5error5ErrorEENtB2_12IntoIterator9into_iterB2C_, symObjAddr: 0x2B18, symBinAddr: 0x1E37C, symSize: 0x30 }
  - { offset: 0x81584, size: 0x8, addend: 0x0, symName: __RNvXNtNtNtCsaNl6UpbT7bw_4core4iter6traits7collectINtNtNtB6_8adapters6cloned6ClonedINtNtBQ_7flatten7FlatMapINtNtCsc29TF2YcYso_3syn10punctuated4IterNtNtB1L_8generics14TypeParamBoundEINtNtB8_6option6OptionRNtB2m_10TraitBoundENCNCNvNtCs2KWZukAWMkS_10displaydoc6expand37extract_trait_constraints_from_source00EENtB2_12IntoIterator9into_iterB3G_, symObjAddr: 0x2B48, symBinAddr: 0x1E3AC, symSize: 0x30 }
  - { offset: 0x819AD, size: 0x8, addend: 0x0, symName: __RNvNvMNtNtCsaNl6UpbT7bw_4core5alloc6layoutNtB4_6Layout25from_size_align_unchecked18precondition_checkCs2KWZukAWMkS_10displaydoc, symObjAddr: 0x1DC4, symBinAddr: 0x1D628, symSize: 0xBC }
  - { offset: 0x86E82, size: 0x8, addend: 0x0, symName: __RNvXs0_NtCsc29TF2YcYso_3syn5dropsINtB5_6NoDropDINtNtB7_10punctuated12IterMutTraitNtNtB7_8generics14WherePredicateEp4ItemQB1h_EL_ENtNtNtCsaNl6UpbT7bw_4core3ops5deref8DerefMut9deref_mutCs2KWZukAWMkS_10displaydoc, symObjAddr: 0x2B78, symBinAddr: 0x1E3DC, symSize: 0x3C }
  - { offset: 0x86EB7, size: 0x8, addend: 0x0, symName: __RNvXs0_NtCsc29TF2YcYso_3syn5dropsINtB5_6NoDropDINtNtB7_10punctuated9IterTraitNtNtB7_4data7VariantEp4ItemRB1d_EL_ENtNtNtCsaNl6UpbT7bw_4core3ops5deref8DerefMut9deref_mutCs2KWZukAWMkS_10displaydoc, symObjAddr: 0x2BB4, symBinAddr: 0x1E418, symSize: 0x3C }
  - { offset: 0x86EEC, size: 0x8, addend: 0x0, symName: __RNvXs0_NtCsc29TF2YcYso_3syn5dropsINtB5_6NoDropDINtNtB7_10punctuated9IterTraitNtNtB7_8generics14WherePredicateEp4ItemRB1d_EL_ENtNtNtCsaNl6UpbT7bw_4core3ops5deref8DerefMut9deref_mutCs2KWZukAWMkS_10displaydoc, symObjAddr: 0x2BF0, symBinAddr: 0x1E454, symSize: 0x3C }
  - { offset: 0x86F27, size: 0x8, addend: 0x0, symName: __RNvXs_NtCsc29TF2YcYso_3syn5dropsINtB4_6NoDropDINtNtB6_10punctuated9IterTraitNtNtB6_4data7VariantEp4ItemRB1c_EL_ENtNtNtCsaNl6UpbT7bw_4core3ops5deref5Deref5derefCs2KWZukAWMkS_10displaydoc, symObjAddr: 0x2F54, symBinAddr: 0x1E7B8, symSize: 0x3C }
  - { offset: 0x86F5C, size: 0x8, addend: 0x0, symName: __RNvXs_NtCsc29TF2YcYso_3syn5dropsINtB4_6NoDropDINtNtB6_10punctuated9IterTraitNtNtB6_8generics14TypeParamBoundEp4ItemRB1c_EL_ENtNtNtCsaNl6UpbT7bw_4core3ops5deref5Deref5derefCs2KWZukAWMkS_10displaydoc, symObjAddr: 0x2F90, symBinAddr: 0x1E7F4, symSize: 0x3C }
  - { offset: 0x87212, size: 0x8, addend: 0x0, symName: __RNvXs_NtCsiTraAjBDcu4_5alloc5allocNtB4_6GlobalNtNtCsaNl6UpbT7bw_4core5alloc9Allocator10deallocateCs2KWZukAWMkS_10displaydoc, symObjAddr: 0x2FCC, symBinAddr: 0x1E830, symSize: 0x80 }
  - { offset: 0x872D9, size: 0x8, addend: 0x0, symName: __RNvXs_NtCsiTraAjBDcu4_5alloc5allocNtB4_6GlobalNtNtCsaNl6UpbT7bw_4core5alloc9Allocator8allocateCs2KWZukAWMkS_10displaydoc, symObjAddr: 0x304C, symBinAddr: 0x1E8B0, symSize: 0x34 }
  - { offset: 0x87314, size: 0x8, addend: 0x0, symName: __RNvNtCsiTraAjBDcu4_5alloc5alloc15exchange_mallocCs2KWZukAWMkS_10displaydoc, symObjAddr: 0x1D18, symBinAddr: 0x1D57C, symSize: 0xAC }
  - { offset: 0x8815A, size: 0x8, addend: 0x0, symName: __RNvNtCsiTraAjBDcu4_5alloc3fmt6formatCs2KWZukAWMkS_10displaydoc, symObjAddr: 0x1C44, symBinAddr: 0x1D4A8, symSize: 0xD4 }
  - { offset: 0x887A1, size: 0x8, addend: 0x0, symName: __RNCNvMs3_NtNtCsht3nMU9UgFu_3std6thread5localINtB7_8LocalKeyINtNtCsaNl6UpbT7bw_4core4cell4CellPuEE7replace0Cs2KWZukAWMkS_10displaydoc, symObjAddr: 0x1880, symBinAddr: 0x1D0E4, symSize: 0x28 }
  - { offset: 0x888FF, size: 0x8, addend: 0x0, symName: __RINvMNtCsc29TF2YcYso_3syn4attrNtB3_9Attribute10parse_argsNtNtB5_3lit6LitStrECs2KWZukAWMkS_10displaydoc, symObjAddr: 0x0, symBinAddr: 0x1B924, symSize: 0x34 }
  - { offset: 0x889E0, size: 0x8, addend: 0x0, symName: __RINvMNtCsc29TF2YcYso_3syn4attrNtB3_9Attribute15parse_args_withNvYNtNtB5_3lit6LitStrNtNtB5_5parse5Parse5parseECs2KWZukAWMkS_10displaydoc, symObjAddr: 0x34, symBinAddr: 0x1B958, symSize: 0x378 }
  - { offset: 0x88B5A, size: 0x8, addend: 0x0, symName: __RINvMNtCsc29TF2YcYso_3syn5errorNtB3_5Error11new_spannedRNtNtB5_4data7VariantReECs2KWZukAWMkS_10displaydoc, symObjAddr: 0x3AC, symBinAddr: 0x1BCD0, symSize: 0xC4 }
  - { offset: 0x88BA9, size: 0x8, addend: 0x0, symName: __RINvMNtCsc29TF2YcYso_3syn5errorNtB3_5Error11new_spannedRNtNtB5_6derive11DeriveInputReECs2KWZukAWMkS_10displaydoc, symObjAddr: 0x470, symBinAddr: 0x1BD94, symSize: 0xC4 }
  - { offset: 0x88BF8, size: 0x8, addend: 0x0, symName: __RINvMs0_NtCsc29TF2YcYso_3syn4attrNtB6_8MetaList15parse_args_withNvYNtNtB8_3lit6LitStrNtNtB8_5parse5Parse5parseECs2KWZukAWMkS_10displaydoc, symObjAddr: 0x534, symBinAddr: 0x1BE58, symSize: 0xF0 }
  - { offset: 0x88C95, size: 0x8, addend: 0x0, symName: __RINvMs2_NtNtCsht3nMU9UgFu_3std6thread5localINtB6_8LocalKeyINtNtCsaNl6UpbT7bw_4core4cell4CellPuEE4withNCNvMs3_B6_BF_7replace0B1s_ECs2KWZukAWMkS_10displaydoc, symObjAddr: 0x624, symBinAddr: 0x1BF48, symSize: 0x54 }
  - { offset: 0x88D4E, size: 0x8, addend: 0x0, symName: __RINvMs2_NtNtCsht3nMU9UgFu_3std6thread5localINtB6_8LocalKeyINtNtCsaNl6UpbT7bw_4core4cell4CellPuEE8try_withNCNvMs3_B6_BF_7replace0B1s_ECs2KWZukAWMkS_10displaydoc, symObjAddr: 0x678, symBinAddr: 0x1BF9C, symSize: 0xE4 }
  - { offset: 0x88EE0, size: 0x8, addend: 0x0, symName: __RINvMs2_NtNtCsht3nMU9UgFu_3std6thread5localINtB6_8LocalKeyINtNtCsaNl6UpbT7bw_4core4cell4CellTyyEEE4withNCNvMNtNtBa_4hash6randomNtB1I_11RandomState3new0B21_ECs2KWZukAWMkS_10displaydoc, symObjAddr: 0x75C, symBinAddr: 0x1C080, symSize: 0x50 }
  - { offset: 0x88F99, size: 0x8, addend: 0x0, symName: __RINvMs2_NtNtCsht3nMU9UgFu_3std6thread5localINtB6_8LocalKeyINtNtCsaNl6UpbT7bw_4core4cell4CellTyyEEE8try_withNCNvMNtNtBa_4hash6randomNtB1M_11RandomState3new0B25_ECs2KWZukAWMkS_10displaydoc, symObjAddr: 0x7AC, symBinAddr: 0x1C0D0, symSize: 0xE8 }
  - { offset: 0x891DC, size: 0x8, addend: 0x0, symName: __RNvXs1_NtCsg4dki62PTrg_9hashbrown10scopeguardINtB5_10ScopeGuardNtNtB7_3raw13RawTableInnerNCINvMsa_B11_BZ_14prepare_resizeNtNtCsiTraAjBDcu4_5alloc5alloc6GlobalE0ENtNtNtCsaNl6UpbT7bw_4core3ops4drop4Drop4dropCs2KWZukAWMkS_10displaydoc, symObjAddr: 0x2C2C, symBinAddr: 0x1E490, symSize: 0x2C }
  - { offset: 0x89216, size: 0x8, addend: 0x0, symName: __RNvXs1_NtCsg4dki62PTrg_9hashbrown10scopeguardINtB5_10ScopeGuardQNtNtB7_3raw13RawTableInnerNCNvMsa_B12_B10_15rehash_in_place0ENtNtNtCsaNl6UpbT7bw_4core3ops4drop4Drop4dropCs2KWZukAWMkS_10displaydoc, symObjAddr: 0x2C58, symBinAddr: 0x1E4BC, symSize: 0x2C }
  - { offset: 0x89445, size: 0x8, addend: 0x0, symName: __RNvNtCs2KWZukAWMkS_10displaydoc3fmt8take_int, symObjAddr: 0x31A0, symBinAddr: 0x1EA04, symSize: 0x214 }
  - { offset: 0x894C1, size: 0x8, addend: 0x0, symName: __RNvNtCs2KWZukAWMkS_10displaydoc3fmt10take_ident, symObjAddr: 0x33B4, symBinAddr: 0x1EC18, symSize: 0x274 }
  - { offset: 0x89835, size: 0x8, addend: 0x0, symName: __RNvMNtCsc29TF2YcYso_3syn5dropsINtB2_6NoDropINtNtB4_10punctuated11PrivateIterNtNtB4_4data7VariantNtNtB4_5token5CommaEE3newCs2KWZukAWMkS_10displaydoc, symObjAddr: 0x18A8, symBinAddr: 0x1D10C, symSize: 0x40 }
  - { offset: 0x898BF, size: 0x8, addend: 0x0, symName: __RNvMNtCsc29TF2YcYso_3syn5dropsINtB2_6NoDropINtNtB4_10punctuated11PrivateIterNtNtB4_8generics14WherePredicateNtNtB4_5token5CommaEE3newCs2KWZukAWMkS_10displaydoc, symObjAddr: 0x18E8, symBinAddr: 0x1D14C, symSize: 0x40 }
  - { offset: 0x89949, size: 0x8, addend: 0x0, symName: __RNvMNtCsc29TF2YcYso_3syn5dropsINtB2_6NoDropINtNtB4_10punctuated14PrivateIterMutNtNtB4_8generics14WherePredicateNtNtB4_5token5CommaEE3newCs2KWZukAWMkS_10displaydoc, symObjAddr: 0x1928, symBinAddr: 0x1D18C, symSize: 0x40 }
  - { offset: 0x89AD5, size: 0x8, addend: 0x0, symName: __RNvMNtCsiTraAjBDcu4_5alloc5allocNtB2_6Global10alloc_implCs2KWZukAWMkS_10displaydoc, symObjAddr: 0x1968, symBinAddr: 0x1D1CC, symSize: 0x204 }
  - { offset: 0x89F83, size: 0x8, addend: 0x0, symName: __RNvXNtCs4EAaWzSXu1l_5quote9to_tokensRNtNtCsc29TF2YcYso_3syn3lit6LitStrNtB2_8ToTokens9to_tokensCs2KWZukAWMkS_10displaydoc, symObjAddr: 0x2804, symBinAddr: 0x1E068, symSize: 0x40 }
  - { offset: 0x8A5D5, size: 0x8, addend: 0x0, symName: __RINvXNvMNtCsiTraAjBDcu4_5alloc5sliceSp9to_vec_inNtNtCsc29TF2YcYso_3syn4item11ForeignItemNtB3_10ConvertVec6to_vecNtNtB8_5alloc6GlobalEBO_, symObjAddr: 0x0, symBinAddr: 0x1EEA4, symSize: 0x374 }
  - { offset: 0x8BB4C, size: 0x8, addend: 0x0, symName: __RNvXNtNtCsc29TF2YcYso_3syn4item7parsingNtB4_4ItemNtNtB6_5parse5Parse5parse, symObjAddr: 0x35A4, symBinAddr: 0x208DC, symSize: 0x1B4 }
  - { offset: 0x8BBF2, size: 0x8, addend: 0x0, symName: __RNvXs0_NtNtCsc29TF2YcYso_3syn4item7parsingNtB7_9ItemMacroNtNtB9_5parse5Parse5parse, symObjAddr: 0x3758, symBinAddr: 0x20A90, symSize: 0x628 }
  - { offset: 0x8BDC0, size: 0x8, addend: 0x0, symName: __RNvXs1_NtNtCsc29TF2YcYso_3syn4item7parsingNtB7_15ItemExternCrateNtNtB9_5parse5Parse5parse, symObjAddr: 0x3D80, symBinAddr: 0x210B8, symSize: 0x93C }
  - { offset: 0x8BFCA, size: 0x8, addend: 0x0, symName: __RNvXs3_NtNtCsc29TF2YcYso_3syn4item7parsingNtB7_7UseTreeNtNtB9_5parse5Parse5parse, symObjAddr: 0x4714, symBinAddr: 0x219F4, symSize: 0x58 }
  - { offset: 0x8C01C, size: 0x8, addend: 0x0, symName: __RNvXs6_NtNtCsc29TF2YcYso_3syn4item7parsingNtB7_9SignatureNtNtB9_5parse5Parse5parse, symObjAddr: 0x5C94, symBinAddr: 0x21A4C, symSize: 0x60 }
  - { offset: 0x8C06E, size: 0x8, addend: 0x0, symName: __RNvXs9_NtNtCsc29TF2YcYso_3syn4item7parsingNtB7_8ReceiverNtNtB9_5parse5Parse5parse, symObjAddr: 0x6324, symBinAddr: 0x21AAC, symSize: 0x94C }
  - { offset: 0x8C2CF, size: 0x8, addend: 0x0, symName: __RNvXsa_NtNtCsc29TF2YcYso_3syn4item7parsingNtB7_7ItemModNtNtB9_5parse5Parse5parse, symObjAddr: 0x6C70, symBinAddr: 0x223F8, symSize: 0xC34 }
  - { offset: 0x8C532, size: 0x8, addend: 0x0, symName: __RNvXsb_NtNtCsc29TF2YcYso_3syn4item7parsingNtB7_14ItemForeignModNtNtB9_5parse5Parse5parse, symObjAddr: 0x78A4, symBinAddr: 0x2302C, symSize: 0x610 }
  - { offset: 0x8C6E3, size: 0x8, addend: 0x0, symName: __RNvXsc_NtNtCsc29TF2YcYso_3syn4item7parsingNtB7_11ForeignItemNtNtB9_5parse5Parse5parse, symObjAddr: 0x7EB4, symBinAddr: 0x2363C, symSize: 0x1D8C }
  - { offset: 0x8CD53, size: 0x8, addend: 0x0, symName: __RNvXsg_NtNtCsc29TF2YcYso_3syn4item7parsingNtB7_16ForeignItemMacroNtNtB9_5parse5Parse5parse, symObjAddr: 0xAF68, symBinAddr: 0x253C8, symSize: 0x32C }
  - { offset: 0x8CE67, size: 0x8, addend: 0x0, symName: __RNvXsi_NtNtCsc29TF2YcYso_3syn4item7parsingNtB7_10ItemStructNtNtB9_5parse5Parse5parse, symObjAddr: 0xBC6C, symBinAddr: 0x256F4, symSize: 0x638 }
  - { offset: 0x8D064, size: 0x8, addend: 0x0, symName: __RNvXsj_NtNtCsc29TF2YcYso_3syn4item7parsingNtB7_8ItemEnumNtNtB9_5parse5Parse5parse, symObjAddr: 0xC2A4, symBinAddr: 0x25D2C, symSize: 0x63C }
  - { offset: 0x8D261, size: 0x8, addend: 0x0, symName: __RNvXsk_NtNtCsc29TF2YcYso_3syn4item7parsingNtB7_9ItemUnionNtNtB9_5parse5Parse5parse, symObjAddr: 0xC8E0, symBinAddr: 0x26368, symSize: 0x62C }
  - { offset: 0x8D44D, size: 0x8, addend: 0x0, symName: __RNvXsl_NtNtCsc29TF2YcYso_3syn4item7parsingNtB7_9ItemTraitNtNtB9_5parse5Parse5parse, symObjAddr: 0xCF0C, symBinAddr: 0x26994, symSize: 0x634 }
  - { offset: 0x8D654, size: 0x8, addend: 0x0, symName: __RNvXsn_NtNtCsc29TF2YcYso_3syn4item7parsingNtB7_9TraitItemNtNtB9_5parse5Parse5parse, symObjAddr: 0xD7B0, symBinAddr: 0x26FC8, symSize: 0x1648 }
  - { offset: 0x8DAC8, size: 0x8, addend: 0x0, symName: __RNvXsp_NtNtCsc29TF2YcYso_3syn4item7parsingNtB7_11TraitItemFnNtNtB9_5parse5Parse5parse, symObjAddr: 0xF66C, symBinAddr: 0x28610, symSize: 0x7DC }
  - { offset: 0x8DCD4, size: 0x8, addend: 0x0, symName: __RNvXsr_NtNtCsc29TF2YcYso_3syn4item7parsingNtB7_14TraitItemMacroNtNtB9_5parse5Parse5parse, symObjAddr: 0x1056C, symBinAddr: 0x28DEC, symSize: 0x32C }
  - { offset: 0x8DDE8, size: 0x8, addend: 0x0, symName: __RNvXst_NtNtCsc29TF2YcYso_3syn4item7parsingNtB7_8ImplItemNtNtB9_5parse5Parse5parse, symObjAddr: 0x108F8, symBinAddr: 0x29118, symSize: 0x1A6C }
  - { offset: 0x8E312, size: 0x8, addend: 0x0, symName: __RNvXsx_NtNtCsc29TF2YcYso_3syn4item7parsingNtB7_13ImplItemMacroNtNtB9_5parse5Parse5parse, symObjAddr: 0x135D4, symBinAddr: 0x2AB84, symSize: 0x32C }
  - { offset: 0x8E426, size: 0x8, addend: 0x0, symName: __RNvXsz_NtNtCsc29TF2YcYso_3syn4item7parsingNtB7_16StaticMutabilityNtNtB9_5parse5Parse5parse, symObjAddr: 0x13900, symBinAddr: 0x2AEB0, symSize: 0xDC }
  - { offset: 0x8E49C, size: 0x8, addend: 0x0, symName: __RNvXNtNtCsc29TF2YcYso_3syn4item8printingNtB4_15ItemExternCrateNtNtCs4EAaWzSXu1l_5quote9to_tokens8ToTokens9to_tokens, symObjAddr: 0x139DC, symBinAddr: 0x2AF8C, symSize: 0x10C }
  - { offset: 0x8E509, size: 0x8, addend: 0x0, symName: __RNvXs_NtNtCsc29TF2YcYso_3syn4item8printingNtB6_7ItemUseNtNtCs4EAaWzSXu1l_5quote9to_tokens8ToTokens9to_tokens, symObjAddr: 0x13AE8, symBinAddr: 0x2B098, symSize: 0xA4 }
  - { offset: 0x8E548, size: 0x8, addend: 0x0, symName: __RNvXs0_NtNtCsc29TF2YcYso_3syn4item8printingNtB7_10ItemStaticNtNtCs4EAaWzSXu1l_5quote9to_tokens8ToTokens9to_tokens, symObjAddr: 0x13B8C, symBinAddr: 0x2B13C, symSize: 0xE4 }
  - { offset: 0x8E587, size: 0x8, addend: 0x0, symName: __RNvXs1_NtNtCsc29TF2YcYso_3syn4item8printingNtB7_9ItemConstNtNtCs4EAaWzSXu1l_5quote9to_tokens8ToTokens9to_tokens, symObjAddr: 0x13C70, symBinAddr: 0x2B220, symSize: 0xD4 }
  - { offset: 0x8E5C6, size: 0x8, addend: 0x0, symName: __RNvXs2_NtNtCsc29TF2YcYso_3syn4item8printingNtB7_6ItemFnNtNtCs4EAaWzSXu1l_5quote9to_tokens8ToTokens9to_tokens, symObjAddr: 0x13D44, symBinAddr: 0x2B2F4, symSize: 0xDC }
  - { offset: 0x8E605, size: 0x8, addend: 0x0, symName: __RNvXs3_NtNtCsc29TF2YcYso_3syn4item8printingNtB7_7ItemModNtNtCs4EAaWzSXu1l_5quote9to_tokens8ToTokens9to_tokens, symObjAddr: 0x13E20, symBinAddr: 0x2B3D0, symSize: 0x10C }
  - { offset: 0x8E672, size: 0x8, addend: 0x0, symName: __RNvXs4_NtNtCsc29TF2YcYso_3syn4item8printingNtB7_14ItemForeignModNtNtCs4EAaWzSXu1l_5quote9to_tokens8ToTokens9to_tokens, symObjAddr: 0x13F2C, symBinAddr: 0x2B4DC, symSize: 0x88 }
  - { offset: 0x8E6B1, size: 0x8, addend: 0x0, symName: __RNvXs5_NtNtCsc29TF2YcYso_3syn4item8printingNtB7_8ItemTypeNtNtCs4EAaWzSXu1l_5quote9to_tokens8ToTokens9to_tokens, symObjAddr: 0x13FB4, symBinAddr: 0x2B564, symSize: 0xD4 }
  - { offset: 0x8E6F0, size: 0x8, addend: 0x0, symName: __RNvXs6_NtNtCsc29TF2YcYso_3syn4item8printingNtB7_8ItemEnumNtNtCs4EAaWzSXu1l_5quote9to_tokens8ToTokens9to_tokens, symObjAddr: 0x14088, symBinAddr: 0x2B638, symSize: 0xB8 }
  - { offset: 0x8E72F, size: 0x8, addend: 0x0, symName: __RNvXs7_NtNtCsc29TF2YcYso_3syn4item8printingNtB7_10ItemStructNtNtCs4EAaWzSXu1l_5quote9to_tokens8ToTokens9to_tokens, symObjAddr: 0x14140, symBinAddr: 0x2B6F0, symSize: 0x188 }
  - { offset: 0x8E7AA, size: 0x8, addend: 0x0, symName: __RNvXs8_NtNtCsc29TF2YcYso_3syn4item8printingNtB7_9ItemUnionNtNtCs4EAaWzSXu1l_5quote9to_tokens8ToTokens9to_tokens, symObjAddr: 0x142C8, symBinAddr: 0x2B878, symSize: 0xB4 }
  - { offset: 0x8E7E9, size: 0x8, addend: 0x0, symName: __RNvXs9_NtNtCsc29TF2YcYso_3syn4item8printingNtB7_9ItemTraitNtNtCs4EAaWzSXu1l_5quote9to_tokens8ToTokens9to_tokens, symObjAddr: 0x1437C, symBinAddr: 0x2B92C, symSize: 0x130 }
  - { offset: 0x8E828, size: 0x8, addend: 0x0, symName: __RNvXsa_NtNtCsc29TF2YcYso_3syn4item8printingNtB7_14ItemTraitAliasNtNtCs4EAaWzSXu1l_5quote9to_tokens8ToTokens9to_tokens, symObjAddr: 0x144AC, symBinAddr: 0x2BA5C, symSize: 0xD4 }
  - { offset: 0x8E867, size: 0x8, addend: 0x0, symName: __RNvXsb_NtNtCsc29TF2YcYso_3syn4item8printingNtB7_8ItemImplNtNtCs4EAaWzSXu1l_5quote9to_tokens8ToTokens9to_tokens, symObjAddr: 0x14580, symBinAddr: 0x2BB30, symSize: 0x148 }
  - { offset: 0x8E8E4, size: 0x8, addend: 0x0, symName: __RNvXsc_NtNtCsc29TF2YcYso_3syn4item8printingNtB7_9ItemMacroNtNtCs4EAaWzSXu1l_5quote9to_tokens8ToTokens9to_tokens, symObjAddr: 0x146C8, symBinAddr: 0x2BC78, symSize: 0x148 }
  - { offset: 0x8E975, size: 0x8, addend: 0x0, symName: __RNvXsd_NtNtCsc29TF2YcYso_3syn4item8printingNtB7_7UsePathNtNtCs4EAaWzSXu1l_5quote9to_tokens8ToTokens9to_tokens, symObjAddr: 0x14810, symBinAddr: 0x2BDC0, symSize: 0x60 }
  - { offset: 0x8E9B4, size: 0x8, addend: 0x0, symName: __RNvXse_NtNtCsc29TF2YcYso_3syn4item8printingNtB7_7UseNameNtNtCs4EAaWzSXu1l_5quote9to_tokens8ToTokens9to_tokens, symObjAddr: 0x14870, symBinAddr: 0x2BE20, symSize: 0x3C }
  - { offset: 0x8E9F3, size: 0x8, addend: 0x0, symName: __RNvXsf_NtNtCsc29TF2YcYso_3syn4item8printingNtB7_9UseRenameNtNtCs4EAaWzSXu1l_5quote9to_tokens8ToTokens9to_tokens, symObjAddr: 0x148AC, symBinAddr: 0x2BE5C, symSize: 0x60 }
  - { offset: 0x8EA32, size: 0x8, addend: 0x0, symName: __RNvXsg_NtNtCsc29TF2YcYso_3syn4item8printingNtB7_7UseGlobNtNtCs4EAaWzSXu1l_5quote9to_tokens8ToTokens9to_tokens, symObjAddr: 0x1490C, symBinAddr: 0x2BEBC, symSize: 0x3C }
  - { offset: 0x8EA71, size: 0x8, addend: 0x0, symName: __RNvXsh_NtNtCsc29TF2YcYso_3syn4item8printingNtB7_8UseGroupNtNtCs4EAaWzSXu1l_5quote9to_tokens8ToTokens9to_tokens, symObjAddr: 0x14948, symBinAddr: 0x2BEF8, symSize: 0x44 }
  - { offset: 0x8EAB0, size: 0x8, addend: 0x0, symName: __RNvXsi_NtNtCsc29TF2YcYso_3syn4item8printingNtB7_14TraitItemConstNtNtCs4EAaWzSXu1l_5quote9to_tokens8ToTokens9to_tokens, symObjAddr: 0x1498C, symBinAddr: 0x2BF3C, symSize: 0x10C }
  - { offset: 0x8EB1D, size: 0x8, addend: 0x0, symName: __RNvXsj_NtNtCsc29TF2YcYso_3syn4item8printingNtB7_11TraitItemFnNtNtCs4EAaWzSXu1l_5quote9to_tokens8ToTokens9to_tokens, symObjAddr: 0x14A98, symBinAddr: 0x2C048, symSize: 0xD4 }
  - { offset: 0x8EB7A, size: 0x8, addend: 0x0, symName: __RNvXsk_NtNtCsc29TF2YcYso_3syn4item8printingNtB7_13TraitItemTypeNtNtCs4EAaWzSXu1l_5quote9to_tokens8ToTokens9to_tokens, symObjAddr: 0x14B6C, symBinAddr: 0x2C11C, symSize: 0x164 }
  - { offset: 0x8EBE7, size: 0x8, addend: 0x0, symName: __RNvXsl_NtNtCsc29TF2YcYso_3syn4item8printingNtB7_14TraitItemMacroNtNtCs4EAaWzSXu1l_5quote9to_tokens8ToTokens9to_tokens, symObjAddr: 0x14CD0, symBinAddr: 0x2C280, symSize: 0x74 }
  - { offset: 0x8EC26, size: 0x8, addend: 0x0, symName: __RNvXsm_NtNtCsc29TF2YcYso_3syn4item8printingNtB7_13ImplItemConstNtNtCs4EAaWzSXu1l_5quote9to_tokens8ToTokens9to_tokens, symObjAddr: 0x14D44, symBinAddr: 0x2C2F4, symSize: 0xE4 }
  - { offset: 0x8EC65, size: 0x8, addend: 0x0, symName: __RNvXsn_NtNtCsc29TF2YcYso_3syn4item8printingNtB7_10ImplItemFnNtNtCs4EAaWzSXu1l_5quote9to_tokens8ToTokens9to_tokens, symObjAddr: 0x14E28, symBinAddr: 0x2C3D8, symSize: 0x98 }
  - { offset: 0x8ECA4, size: 0x8, addend: 0x0, symName: __RNvXso_NtNtCsc29TF2YcYso_3syn4item8printingNtB7_12ImplItemTypeNtNtCs4EAaWzSXu1l_5quote9to_tokens8ToTokens9to_tokens, symObjAddr: 0x14EC0, symBinAddr: 0x2C470, symSize: 0xE4 }
  - { offset: 0x8ECE3, size: 0x8, addend: 0x0, symName: __RNvXsp_NtNtCsc29TF2YcYso_3syn4item8printingNtB7_13ImplItemMacroNtNtCs4EAaWzSXu1l_5quote9to_tokens8ToTokens9to_tokens, symObjAddr: 0x14FA4, symBinAddr: 0x2C554, symSize: 0x74 }
  - { offset: 0x8ED22, size: 0x8, addend: 0x0, symName: __RNvXsq_NtNtCsc29TF2YcYso_3syn4item8printingNtB7_13ForeignItemFnNtNtCs4EAaWzSXu1l_5quote9to_tokens8ToTokens9to_tokens, symObjAddr: 0x15018, symBinAddr: 0x2C5C8, symSize: 0x84 }
  - { offset: 0x8ED61, size: 0x8, addend: 0x0, symName: __RNvXsr_NtNtCsc29TF2YcYso_3syn4item8printingNtB7_17ForeignItemStaticNtNtCs4EAaWzSXu1l_5quote9to_tokens8ToTokens9to_tokens, symObjAddr: 0x1509C, symBinAddr: 0x2C64C, symSize: 0xC4 }
  - { offset: 0x8EDA0, size: 0x8, addend: 0x0, symName: __RNvXss_NtNtCsc29TF2YcYso_3syn4item8printingNtB7_15ForeignItemTypeNtNtCs4EAaWzSXu1l_5quote9to_tokens8ToTokens9to_tokens, symObjAddr: 0x15160, symBinAddr: 0x2C710, symSize: 0xB4 }
  - { offset: 0x8EDDF, size: 0x8, addend: 0x0, symName: __RNvXst_NtNtCsc29TF2YcYso_3syn4item8printingNtB7_16ForeignItemMacroNtNtCs4EAaWzSXu1l_5quote9to_tokens8ToTokens9to_tokens, symObjAddr: 0x15214, symBinAddr: 0x2C7C4, symSize: 0x74 }
  - { offset: 0x8EE1E, size: 0x8, addend: 0x0, symName: __RNvXsu_NtNtCsc29TF2YcYso_3syn4item8printingNtB7_9SignatureNtNtCs4EAaWzSXu1l_5quote9to_tokens8ToTokens9to_tokens, symObjAddr: 0x15288, symBinAddr: 0x2C838, symSize: 0xD4 }
  - { offset: 0x8EE5D, size: 0x8, addend: 0x0, symName: __RNvXsv_NtNtCsc29TF2YcYso_3syn4item8printingNtB7_8ReceiverNtNtCs4EAaWzSXu1l_5quote9to_tokens8ToTokens9to_tokens, symObjAddr: 0x1535C, symBinAddr: 0x2C90C, symSize: 0x450 }
  - { offset: 0x8EF55, size: 0x8, addend: 0x0, symName: __RNvXsw_NtNtCsc29TF2YcYso_3syn4item8printingNtB7_8VariadicNtNtCs4EAaWzSXu1l_5quote9to_tokens8ToTokens9to_tokens, symObjAddr: 0x157AC, symBinAddr: 0x2CD5C, symSize: 0xDC }
  - { offset: 0x8EFC2, size: 0x8, addend: 0x0, symName: __RNvXsx_NtNtCsc29TF2YcYso_3syn4item8printingNtB7_16StaticMutabilityNtNtCs4EAaWzSXu1l_5quote9to_tokens8ToTokens9to_tokens, symObjAddr: 0x15888, symBinAddr: 0x2CE38, symSize: 0x84 }
  - { offset: 0x8F025, size: 0x8, addend: 0x0, symName: __RNcNtNtNtCsc29TF2YcYso_3syn4item4Item4Enum0B7_, symObjAddr: 0x1590C, symBinAddr: 0x2CEBC, symSize: 0x3C }
  - { offset: 0x8F054, size: 0x8, addend: 0x0, symName: __RNcNtNtNtCsc29TF2YcYso_3syn4item4Item11ExternCrate0B7_, symObjAddr: 0x15948, symBinAddr: 0x2CEF8, symSize: 0x3C }
  - { offset: 0x8F083, size: 0x8, addend: 0x0, symName: __RNcNtNtNtCsc29TF2YcYso_3syn4item4Item2Fn0B7_, symObjAddr: 0x15984, symBinAddr: 0x2CF34, symSize: 0x30 }
  - { offset: 0x8F0B2, size: 0x8, addend: 0x0, symName: __RNcNtNtNtCsc29TF2YcYso_3syn4item4Item10ForeignMod0B7_, symObjAddr: 0x159B4, symBinAddr: 0x2CF64, symSize: 0x3C }
  - { offset: 0x8F0E1, size: 0x8, addend: 0x0, symName: __RNcNtNtNtCsc29TF2YcYso_3syn4item4Item5Macro0B7_, symObjAddr: 0x159F0, symBinAddr: 0x2CFA0, symSize: 0x3C }
  - { offset: 0x8F110, size: 0x8, addend: 0x0, symName: __RNcNtNtNtCsc29TF2YcYso_3syn4item4Item3Mod0B7_, symObjAddr: 0x15A2C, symBinAddr: 0x2CFDC, symSize: 0x3C }
  - { offset: 0x8F13F, size: 0x8, addend: 0x0, symName: __RNcNtNtNtCsc29TF2YcYso_3syn4item4Item6Struct0B7_, symObjAddr: 0x15A68, symBinAddr: 0x2D018, symSize: 0x3C }
  - { offset: 0x8F16E, size: 0x8, addend: 0x0, symName: __RNcNtNtNtCsc29TF2YcYso_3syn4item4Item5Trait0B7_, symObjAddr: 0x15AA4, symBinAddr: 0x2D054, symSize: 0x3C }
  - { offset: 0x8F19D, size: 0x8, addend: 0x0, symName: __RNcNtNtNtCsc29TF2YcYso_3syn4item4Item10TraitAlias0B7_, symObjAddr: 0x15AE0, symBinAddr: 0x2D090, symSize: 0x3C }
  - { offset: 0x8F1CC, size: 0x8, addend: 0x0, symName: __RNcNtNtNtCsc29TF2YcYso_3syn4item4Item5Union0B7_, symObjAddr: 0x15B1C, symBinAddr: 0x2D0CC, symSize: 0x3C }
  - { offset: 0x8F1FC, size: 0x8, addend: 0x0, symName: __RNvXsk_NtCsc29TF2YcYso_3syn4itemNtB5_4ItemNtNtCs4EAaWzSXu1l_5quote9to_tokens8ToTokens9to_tokens, symObjAddr: 0x15FC0, symBinAddr: 0x2D108, symSize: 0x230 }
  - { offset: 0x8F40E, size: 0x8, addend: 0x0, symName: __RNvXsq_NtCsc29TF2YcYso_3syn4itemNtB5_7UseTreeNtNtCs4EAaWzSXu1l_5quote9to_tokens8ToTokens9to_tokens, symObjAddr: 0x1633C, symBinAddr: 0x2D338, symSize: 0x10C }
  - { offset: 0x8F4E0, size: 0x8, addend: 0x0, symName: __RNcNtNtNtCsc29TF2YcYso_3syn4item11ForeignItem5Macro0B7_, symObjAddr: 0x16448, symBinAddr: 0x2D444, symSize: 0x3C }
  - { offset: 0x8F512, size: 0x8, addend: 0x0, symName: __RNvXsv_NtCsc29TF2YcYso_3syn4itemNtB5_11ForeignItemNtNtCs4EAaWzSXu1l_5quote9to_tokens8ToTokens9to_tokens, symObjAddr: 0x165A8, symBinAddr: 0x2D480, symSize: 0x118 }
  - { offset: 0x8F5E4, size: 0x8, addend: 0x0, symName: __RNcNtNtNtCsc29TF2YcYso_3syn4item9TraitItem2Fn0B7_, symObjAddr: 0x166C0, symBinAddr: 0x2D598, symSize: 0x3C }
  - { offset: 0x8F615, size: 0x8, addend: 0x0, symName: __RNcNtNtNtCsc29TF2YcYso_3syn4item9TraitItem5Macro0B7_, symObjAddr: 0x166FC, symBinAddr: 0x2D5D4, symSize: 0x3C }
  - { offset: 0x8F647, size: 0x8, addend: 0x0, symName: __RNvXsA_NtCsc29TF2YcYso_3syn4itemNtB5_9TraitItemNtNtCs4EAaWzSXu1l_5quote9to_tokens8ToTokens9to_tokens, symObjAddr: 0x1685C, symBinAddr: 0x2D610, symSize: 0x118 }
  - { offset: 0x8F719, size: 0x8, addend: 0x0, symName: __RNcNtNtNtCsc29TF2YcYso_3syn4item8ImplItem5Macro0B7_, symObjAddr: 0x16974, symBinAddr: 0x2D728, symSize: 0x3C }
  - { offset: 0x8F74B, size: 0x8, addend: 0x0, symName: __RNvXsF_NtCsc29TF2YcYso_3syn4itemNtB5_8ImplItemNtNtCs4EAaWzSXu1l_5quote9to_tokens8ToTokens9to_tokens, symObjAddr: 0x16AD4, symBinAddr: 0x2D764, symSize: 0x118 }
  - { offset: 0x8F818, size: 0x8, addend: 0x0, symName: __RNvXsI_NtCsc29TF2YcYso_3syn4itemNtB5_5FnArgNtNtCs4EAaWzSXu1l_5quote9to_tokens8ToTokens9to_tokens, symObjAddr: 0x16C78, symBinAddr: 0x2D87C, symSize: 0x8C }
  - { offset: 0x8F893, size: 0x8, addend: 0x0, symName: __RNcNtNtNtCsc29TF2YcYso_3syn4item16StaticMutability3Mut0B7_, symObjAddr: 0x16D04, symBinAddr: 0x2D908, symSize: 0x20 }
  - { offset: 0x93341, size: 0x8, addend: 0x0, symName: __RNvXs16_NtNtCsc29TF2YcYso_3syn3gen5cloneNtNtBa_4item5FnArgNtNtCsaNl6UpbT7bw_4core5clone5Clone5clone, symObjAddr: 0x16D24, symBinAddr: 0x2D928, symSize: 0xDC }
  - { offset: 0x933A9, size: 0x8, addend: 0x0, symName: __RNvXs17_NtNtCsc29TF2YcYso_3syn3gen5cloneNtNtBa_4item11ForeignItemNtNtCsaNl6UpbT7bw_4core5clone5Clone5clone, symObjAddr: 0x16E00, symBinAddr: 0x2DA04, symSize: 0x224 }
  - { offset: 0x9346B, size: 0x8, addend: 0x0, symName: __RNvXs18_NtNtCsc29TF2YcYso_3syn3gen5cloneNtNtBa_4item13ForeignItemFnNtNtCsaNl6UpbT7bw_4core5clone5Clone5clone, symObjAddr: 0x17024, symBinAddr: 0x2DC28, symSize: 0x13C }
  - { offset: 0x9349F, size: 0x8, addend: 0x0, symName: __RNvXs19_NtNtCsc29TF2YcYso_3syn3gen5cloneNtNtBa_4item16ForeignItemMacroNtNtCsaNl6UpbT7bw_4core5clone5Clone5clone, symObjAddr: 0x17160, symBinAddr: 0x2DD64, symSize: 0xF4 }
  - { offset: 0x934D3, size: 0x8, addend: 0x0, symName: __RNvXs1a_NtNtCsc29TF2YcYso_3syn3gen5cloneNtNtBa_4item17ForeignItemStaticNtNtCsaNl6UpbT7bw_4core5clone5Clone5clone, symObjAddr: 0x17254, symBinAddr: 0x2DE58, symSize: 0x1DC }
  - { offset: 0x93507, size: 0x8, addend: 0x0, symName: __RNvXs1b_NtNtCsc29TF2YcYso_3syn3gen5cloneNtNtBa_4item15ForeignItemTypeNtNtCsaNl6UpbT7bw_4core5clone5Clone5clone, symObjAddr: 0x17430, symBinAddr: 0x2E034, symSize: 0x198 }
  - { offset: 0x9353B, size: 0x8, addend: 0x0, symName: __RNvXs1f_NtNtCsc29TF2YcYso_3syn3gen5cloneNtNtBa_4item8ImplItemNtNtCsaNl6UpbT7bw_4core5clone5Clone5clone, symObjAddr: 0x175C8, symBinAddr: 0x2E1CC, symSize: 0x21C }
  - { offset: 0x935FD, size: 0x8, addend: 0x0, symName: __RNvXs1g_NtNtCsc29TF2YcYso_3syn3gen5cloneNtNtBa_4item13ImplItemConstNtNtCsaNl6UpbT7bw_4core5clone5Clone5clone, symObjAddr: 0x177E4, symBinAddr: 0x2E3E8, symSize: 0x2AC }
  - { offset: 0x93631, size: 0x8, addend: 0x0, symName: __RNvXs1h_NtNtCsc29TF2YcYso_3syn3gen5cloneNtNtBa_4item10ImplItemFnNtNtCsaNl6UpbT7bw_4core5clone5Clone5clone, symObjAddr: 0x17A90, symBinAddr: 0x2E694, symSize: 0x160 }
  - { offset: 0x93665, size: 0x8, addend: 0x0, symName: __RNvXs1i_NtNtCsc29TF2YcYso_3syn3gen5cloneNtNtBa_4item13ImplItemMacroNtNtCsaNl6UpbT7bw_4core5clone5Clone5clone, symObjAddr: 0x17BF0, symBinAddr: 0x2E7F4, symSize: 0xF4 }
  - { offset: 0x93699, size: 0x8, addend: 0x0, symName: __RNvXs1j_NtNtCsc29TF2YcYso_3syn3gen5cloneNtNtBa_4item12ImplItemTypeNtNtCsaNl6UpbT7bw_4core5clone5Clone5clone, symObjAddr: 0x17CE4, symBinAddr: 0x2E8E8, symSize: 0x238 }
  - { offset: 0x936CD, size: 0x8, addend: 0x0, symName: __RNvXs1m_NtNtCsc29TF2YcYso_3syn3gen5cloneNtNtBa_4item4ItemNtNtCsaNl6UpbT7bw_4core5clone5Clone5clone, symObjAddr: 0x17F28, symBinAddr: 0x2EB20, symSize: 0x5D0 }
  - { offset: 0x938E4, size: 0x8, addend: 0x0, symName: __RNvXs1n_NtNtCsc29TF2YcYso_3syn3gen5cloneNtNtBa_4item9ItemConstNtNtCsaNl6UpbT7bw_4core5clone5Clone5clone, symObjAddr: 0x184F8, symBinAddr: 0x2F0F0, symSize: 0x270 }
  - { offset: 0x93918, size: 0x8, addend: 0x0, symName: __RNvXs1o_NtNtCsc29TF2YcYso_3syn3gen5cloneNtNtBa_4item8ItemEnumNtNtCsaNl6UpbT7bw_4core5clone5Clone5clone, symObjAddr: 0x18768, symBinAddr: 0x2F360, symSize: 0x1C0 }
  - { offset: 0x9394C, size: 0x8, addend: 0x0, symName: __RNvXs1p_NtNtCsc29TF2YcYso_3syn3gen5cloneNtNtBa_4item15ItemExternCrateNtNtCsaNl6UpbT7bw_4core5clone5Clone5clone, symObjAddr: 0x18928, symBinAddr: 0x2F520, symSize: 0x1A4 }
  - { offset: 0x93980, size: 0x8, addend: 0x0, symName: __RNvXs1q_NtNtCsc29TF2YcYso_3syn3gen5cloneNtNtBa_4item6ItemFnNtNtCsaNl6UpbT7bw_4core5clone5Clone5clone, symObjAddr: 0x18ACC, symBinAddr: 0x2F6C4, symSize: 0x12C }
  - { offset: 0x939B4, size: 0x8, addend: 0x0, symName: __RNvXs1r_NtNtCsc29TF2YcYso_3syn3gen5cloneNtNtBa_4item14ItemForeignModNtNtCsaNl6UpbT7bw_4core5clone5Clone5clone, symObjAddr: 0x18BF8, symBinAddr: 0x2F7F0, symSize: 0x14C }
  - { offset: 0x939E8, size: 0x8, addend: 0x0, symName: __RNvXs1s_NtNtCsc29TF2YcYso_3syn3gen5cloneNtNtBa_4item8ItemImplNtNtCsaNl6UpbT7bw_4core5clone5Clone5clone, symObjAddr: 0x18D44, symBinAddr: 0x2F93C, symSize: 0x220 }
  - { offset: 0x93A1C, size: 0x8, addend: 0x0, symName: __RNvXs1t_NtNtCsc29TF2YcYso_3syn3gen5cloneNtNtBa_4item9ItemMacroNtNtCsaNl6UpbT7bw_4core5clone5Clone5clone, symObjAddr: 0x18F64, symBinAddr: 0x2FB5C, symSize: 0x134 }
  - { offset: 0x93A50, size: 0x8, addend: 0x0, symName: __RNvXs1u_NtNtCsc29TF2YcYso_3syn3gen5cloneNtNtBa_4item7ItemModNtNtCsaNl6UpbT7bw_4core5clone5Clone5clone, symObjAddr: 0x19098, symBinAddr: 0x2FC90, symSize: 0x1B8 }
  - { offset: 0x93A84, size: 0x8, addend: 0x0, symName: __RNvXs1v_NtNtCsc29TF2YcYso_3syn3gen5cloneNtNtBa_4item10ItemStaticNtNtCsaNl6UpbT7bw_4core5clone5Clone5clone, symObjAddr: 0x19250, symBinAddr: 0x2FE48, symSize: 0x248 }
  - { offset: 0x93AB8, size: 0x8, addend: 0x0, symName: __RNvXs1w_NtNtCsc29TF2YcYso_3syn3gen5cloneNtNtBa_4item10ItemStructNtNtCsaNl6UpbT7bw_4core5clone5Clone5clone, symObjAddr: 0x19498, symBinAddr: 0x30090, symSize: 0x1DC }
  - { offset: 0x93AEC, size: 0x8, addend: 0x0, symName: __RNvXs1x_NtNtCsc29TF2YcYso_3syn3gen5cloneNtNtBa_4item9ItemTraitNtNtCsaNl6UpbT7bw_4core5clone5Clone5clone, symObjAddr: 0x19674, symBinAddr: 0x3026C, symSize: 0x288 }
  - { offset: 0x93B20, size: 0x8, addend: 0x0, symName: __RNvXs1y_NtNtCsc29TF2YcYso_3syn3gen5cloneNtNtBa_4item14ItemTraitAliasNtNtCsaNl6UpbT7bw_4core5clone5Clone5clone, symObjAddr: 0x198FC, symBinAddr: 0x304F4, symSize: 0x204 }
  - { offset: 0x93B54, size: 0x8, addend: 0x0, symName: __RNvXs1z_NtNtCsc29TF2YcYso_3syn3gen5cloneNtNtBa_4item8ItemTypeNtNtCsaNl6UpbT7bw_4core5clone5Clone5clone, symObjAddr: 0x19B00, symBinAddr: 0x306F8, symSize: 0x204 }
  - { offset: 0x93B88, size: 0x8, addend: 0x0, symName: __RNvXs1A_NtNtCsc29TF2YcYso_3syn3gen5cloneNtNtBa_4item9ItemUnionNtNtCsaNl6UpbT7bw_4core5clone5Clone5clone, symObjAddr: 0x19D04, symBinAddr: 0x308FC, symSize: 0x194 }
  - { offset: 0x93BBC, size: 0x8, addend: 0x0, symName: __RNvXs1B_NtNtCsc29TF2YcYso_3syn3gen5cloneNtNtBa_4item7ItemUseNtNtCsaNl6UpbT7bw_4core5clone5Clone5clone, symObjAddr: 0x19E98, symBinAddr: 0x30A90, symSize: 0x174 }
  - { offset: 0x93BF0, size: 0x8, addend: 0x0, symName: __RNvXs2b_NtNtCsc29TF2YcYso_3syn3gen5cloneNtNtBa_4item8ReceiverNtNtCsaNl6UpbT7bw_4core5clone5Clone5clone, symObjAddr: 0x1A00C, symBinAddr: 0x30C04, symSize: 0x154 }
  - { offset: 0x93C24, size: 0x8, addend: 0x0, symName: __RNvXs2d_NtNtCsc29TF2YcYso_3syn3gen5cloneNtNtBa_4item9SignatureNtNtCsaNl6UpbT7bw_4core5clone5Clone5clone, symObjAddr: 0x1A160, symBinAddr: 0x30D58, symSize: 0x278 }
  - { offset: 0x93C58, size: 0x8, addend: 0x0, symName: __RNvXs2e_NtNtCsc29TF2YcYso_3syn3gen5cloneNtNtBa_4item16StaticMutabilityNtNtCsaNl6UpbT7bw_4core5clone5Clone5clone, symObjAddr: 0x1A3D8, symBinAddr: 0x30FD0, symSize: 0x90 }
  - { offset: 0x93CAA, size: 0x8, addend: 0x0, symName: __RNvXs2k_NtNtCsc29TF2YcYso_3syn3gen5cloneNtNtBa_4item9TraitItemNtNtCsaNl6UpbT7bw_4core5clone5Clone5clone, symObjAddr: 0x1A468, symBinAddr: 0x31060, symSize: 0x21C }
  - { offset: 0x93D6C, size: 0x8, addend: 0x0, symName: __RNvXs2l_NtNtCsc29TF2YcYso_3syn3gen5cloneNtNtBa_4item14TraitItemConstNtNtCsaNl6UpbT7bw_4core5clone5Clone5clone, symObjAddr: 0x1A684, symBinAddr: 0x3127C, symSize: 0x218 }
  - { offset: 0x93DA0, size: 0x8, addend: 0x0, symName: __RNvXs2m_NtNtCsc29TF2YcYso_3syn3gen5cloneNtNtBa_4item11TraitItemFnNtNtCsaNl6UpbT7bw_4core5clone5Clone5clone, symObjAddr: 0x1A89C, symBinAddr: 0x31494, symSize: 0x140 }
  - { offset: 0x93DD4, size: 0x8, addend: 0x0, symName: __RNvXs2n_NtNtCsc29TF2YcYso_3syn3gen5cloneNtNtBa_4item14TraitItemMacroNtNtCsaNl6UpbT7bw_4core5clone5Clone5clone, symObjAddr: 0x1A9DC, symBinAddr: 0x315D4, symSize: 0xF4 }
  - { offset: 0x93E08, size: 0x8, addend: 0x0, symName: __RNvXs2o_NtNtCsc29TF2YcYso_3syn3gen5cloneNtNtBa_4item13TraitItemTypeNtNtCsaNl6UpbT7bw_4core5clone5Clone5clone, symObjAddr: 0x1AAD0, symBinAddr: 0x316C8, symSize: 0x20C }
  - { offset: 0x93E3C, size: 0x8, addend: 0x0, symName: __RNvXs2I_NtNtCsc29TF2YcYso_3syn3gen5cloneNtNtBa_4item7UseGlobNtNtCsaNl6UpbT7bw_4core5clone5Clone5clone, symObjAddr: 0x1ACDC, symBinAddr: 0x318D4, symSize: 0x4C }
  - { offset: 0x93E70, size: 0x8, addend: 0x0, symName: __RNvXs2J_NtNtCsc29TF2YcYso_3syn3gen5cloneNtNtBa_4item8UseGroupNtNtCsaNl6UpbT7bw_4core5clone5Clone5clone, symObjAddr: 0x1AD28, symBinAddr: 0x31920, symSize: 0x70 }
  - { offset: 0x93EA4, size: 0x8, addend: 0x0, symName: __RNvXs2K_NtNtCsc29TF2YcYso_3syn3gen5cloneNtNtBa_4item7UseNameNtNtCsaNl6UpbT7bw_4core5clone5Clone5clone, symObjAddr: 0x1AD98, symBinAddr: 0x31990, symSize: 0x50 }
  - { offset: 0x93ED8, size: 0x8, addend: 0x0, symName: __RNvXs2L_NtNtCsc29TF2YcYso_3syn3gen5cloneNtNtBa_4item7UsePathNtNtCsaNl6UpbT7bw_4core5clone5Clone5clone, symObjAddr: 0x1ADE8, symBinAddr: 0x319E0, symSize: 0xC0 }
  - { offset: 0x93F0C, size: 0x8, addend: 0x0, symName: __RNvXs2M_NtNtCsc29TF2YcYso_3syn3gen5cloneNtNtBa_4item9UseRenameNtNtCsaNl6UpbT7bw_4core5clone5Clone5clone, symObjAddr: 0x1AEA8, symBinAddr: 0x31AA0, symSize: 0xB8 }
  - { offset: 0x93F40, size: 0x8, addend: 0x0, symName: __RNvXs2N_NtNtCsc29TF2YcYso_3syn3gen5cloneNtNtBa_4item7UseTreeNtNtCsaNl6UpbT7bw_4core5clone5Clone5clone, symObjAddr: 0x1AF60, symBinAddr: 0x31B58, symSize: 0x20C }
  - { offset: 0x94003, size: 0x8, addend: 0x0, symName: __RNvXs2O_NtNtCsc29TF2YcYso_3syn3gen5cloneNtNtBa_4item8VariadicNtNtCsaNl6UpbT7bw_4core5clone5Clone5clone, symObjAddr: 0x1B16C, symBinAddr: 0x31D64, symSize: 0x108 }
  - { offset: 0x959D1, size: 0x8, addend: 0x0, symName: __RINvXNvMNtCsiTraAjBDcu4_5alloc5sliceSp9to_vec_inNtNtCsc29TF2YcYso_3syn4item11ForeignItemNtB3_10ConvertVec6to_vecNtNtB8_5alloc6GlobalEBO_, symObjAddr: 0x0, symBinAddr: 0x1EEA4, symSize: 0x374 }
  - { offset: 0x95E86, size: 0x8, addend: 0x0, symName: __RINvXNvMNtCsiTraAjBDcu4_5alloc5sliceSp9to_vec_inNtNtCsc29TF2YcYso_3syn4item4ItemNtB3_10ConvertVec6to_vecNtNtB8_5alloc6GlobalEBO_, symObjAddr: 0x374, symBinAddr: 0x1F218, symSize: 0x374 }
  - { offset: 0x9633B, size: 0x8, addend: 0x0, symName: __RINvXNvMNtCsiTraAjBDcu4_5alloc5sliceSp9to_vec_inNtNtCsc29TF2YcYso_3syn4item8ImplItemNtB3_10ConvertVec6to_vecNtNtB8_5alloc6GlobalEBO_, symObjAddr: 0x6E8, symBinAddr: 0x1F58C, symSize: 0x374 }
  - { offset: 0x967F0, size: 0x8, addend: 0x0, symName: __RINvXNvMNtCsiTraAjBDcu4_5alloc5sliceSp9to_vec_inNtNtCsc29TF2YcYso_3syn4item9TraitItemNtB3_10ConvertVec6to_vecNtNtB8_5alloc6GlobalEBO_, symObjAddr: 0xA5C, symBinAddr: 0x1F900, symSize: 0x374 }
  - { offset: 0x96CA5, size: 0x8, addend: 0x0, symName: __RINvXNvMNtCsiTraAjBDcu4_5alloc5sliceSp9to_vec_inTNtNtCsc29TF2YcYso_3syn4item5FnArgNtNtBP_5token5CommaENtB3_10ConvertVec6to_vecNtNtB8_5alloc6GlobalEBP_, symObjAddr: 0xDD0, symBinAddr: 0x1FC74, symSize: 0x370 }
  - { offset: 0x9715A, size: 0x8, addend: 0x0, symName: __RINvXNvMNtCsiTraAjBDcu4_5alloc5sliceSp9to_vec_inTNtNtCsc29TF2YcYso_3syn4item7UseTreeNtNtBP_5token5CommaENtB3_10ConvertVec6to_vecNtNtB8_5alloc6GlobalEBP_, symObjAddr: 0x1140, symBinAddr: 0x1FFE4, symSize: 0x370 }
  - { offset: 0x9B6BD, size: 0x8, addend: 0x0, symName: __RNvMNtCsaNl6UpbT7bw_4core5sliceSTNtNtCsc29TF2YcYso_3syn4item5FnArgNtNtBz_5token5CommaE4iterBz_, symObjAddr: 0x14B0, symBinAddr: 0x20354, symSize: 0x28 }
  - { offset: 0x9B6F4, size: 0x8, addend: 0x0, symName: __RNvMNtCsaNl6UpbT7bw_4core5sliceSTNtNtCsc29TF2YcYso_3syn4item7UseTreeNtNtBz_5token5CommaE4iterBz_, symObjAddr: 0x14D8, symBinAddr: 0x2037C, symSize: 0x28 }
  - { offset: 0x9BDE4, size: 0x8, addend: 0x0, symName: __RNvXNtNtCsaNl6UpbT7bw_4core5clone6uninitNtNtCsc29TF2YcYso_3syn4item5FnArgNtB2_8CopySpec9clone_oneBG_, symObjAddr: 0x1680, symBinAddr: 0x20524, symSize: 0x48 }
  - { offset: 0x9BE48, size: 0x8, addend: 0x0, symName: __RNvXNtNtCsaNl6UpbT7bw_4core5clone6uninitNtNtCsc29TF2YcYso_3syn4item7UseTreeNtB2_8CopySpec9clone_oneBG_, symObjAddr: 0x16C8, symBinAddr: 0x2056C, symSize: 0x48 }
  - { offset: 0x9E634, size: 0x8, addend: 0x0, symName: __RNvXNtCs4EAaWzSXu1l_5quote9to_tokensRNtNtCsc29TF2YcYso_3syn4item11ForeignItemNtB2_8ToTokens9to_tokensBD_, symObjAddr: 0x1500, symBinAddr: 0x203A4, symSize: 0x40 }
  - { offset: 0x9E673, size: 0x8, addend: 0x0, symName: __RNvXNtCs4EAaWzSXu1l_5quote9to_tokensRNtNtCsc29TF2YcYso_3syn4item4ItemNtB2_8ToTokens9to_tokensBD_, symObjAddr: 0x1540, symBinAddr: 0x203E4, symSize: 0x40 }
  - { offset: 0x9E6B2, size: 0x8, addend: 0x0, symName: __RNvXNtCs4EAaWzSXu1l_5quote9to_tokensRNtNtCsc29TF2YcYso_3syn4item5FnArgNtB2_8ToTokens9to_tokensBD_, symObjAddr: 0x1580, symBinAddr: 0x20424, symSize: 0x40 }
  - { offset: 0x9E6F1, size: 0x8, addend: 0x0, symName: __RNvXNtCs4EAaWzSXu1l_5quote9to_tokensRNtNtCsc29TF2YcYso_3syn4item7UseTreeNtB2_8ToTokens9to_tokensBD_, symObjAddr: 0x15C0, symBinAddr: 0x20464, symSize: 0x40 }
  - { offset: 0x9E730, size: 0x8, addend: 0x0, symName: __RNvXNtCs4EAaWzSXu1l_5quote9to_tokensRNtNtCsc29TF2YcYso_3syn4item8ImplItemNtB2_8ToTokens9to_tokensBD_, symObjAddr: 0x1600, symBinAddr: 0x204A4, symSize: 0x40 }
  - { offset: 0x9E76F, size: 0x8, addend: 0x0, symName: __RNvXNtCs4EAaWzSXu1l_5quote9to_tokensRNtNtCsc29TF2YcYso_3syn4item9TraitItemNtB2_8ToTokens9to_tokensBD_, symObjAddr: 0x1640, symBinAddr: 0x204E4, symSize: 0x40 }
  - { offset: 0x9E7CB, size: 0x8, addend: 0x0, symName: __RNvMNtCsc29TF2YcYso_3syn4itemNtB2_4Item13replace_attrs, symObjAddr: 0x2CE8, symBinAddr: 0x205B4, symSize: 0x328 }
  - { offset: 0x9EDA2, size: 0x8, addend: 0x0, symName: __RINvMs_NtCsiTraAjBDcu4_5alloc3vecINtB5_3VecReE10retain_mutNCNvMNtCsc29TF2YcYso_3syn9lookaheadNtBZ_10Lookahead15error0EB11_, symObjAddr: 0x0, symBinAddr: 0x31E6C, symSize: 0xE4 }
  - { offset: 0xA70EA, size: 0x8, addend: 0x0, symName: __RNvXs1_NtCsaNl6UpbT7bw_4core7convertINtNtCsiTraAjBDcu4_5alloc3vec3VechEINtB5_4IntoBy_E4intoCsc29TF2YcYso_3syn, symObjAddr: 0x6F84, symBinAddr: 0x367E4, symSize: 0x18 }
  - { offset: 0xA7327, size: 0x8, addend: 0x0, symName: __RINvNvMs_NtCsiTraAjBDcu4_5alloc3vecINtB7_3VecppE10retain_mut12process_loopNCNvMNtCsc29TF2YcYso_3syn9lookaheadNtB1f_10Lookahead15error0ReNtNtB9_5alloc6GlobalKb0_EB1h_, symObjAddr: 0xC48, symBinAddr: 0x32440, symSize: 0xCC }
  - { offset: 0xA747B, size: 0x8, addend: 0x0, symName: __RINvNvMs_NtCsiTraAjBDcu4_5alloc3vecINtB7_3VecppE10retain_mut12process_loopNCNvMNtCsc29TF2YcYso_3syn9lookaheadNtB1f_10Lookahead15error0ReNtNtB9_5alloc6GlobalKb1_EB1h_, symObjAddr: 0xD14, symBinAddr: 0x3250C, symSize: 0x170 }
  - { offset: 0xA7671, size: 0x8, addend: 0x0, symName: __RNvXNvMs_NtCsiTraAjBDcu4_5alloc3vecINtB7_3VecppE10retain_mutINtB2_15BackshiftOnDropReNtNtB9_5alloc6GlobalENtNtNtCsaNl6UpbT7bw_4core3ops4drop4Drop4dropCsc29TF2YcYso_3syn, symObjAddr: 0x6B78, symBinAddr: 0x364A0, symSize: 0x12C }
  - { offset: 0xAA0E0, size: 0x8, addend: 0x0, symName: __RINvXsh_NtCsiTraAjBDcu4_5alloc3vecINtB6_3VecNtCshnvkK9b4wzu_11proc_macro29TokenTreeEINtNtNtNtCsaNl6UpbT7bw_4core4iter6traits7collect6ExtendBG_E6extendINtNtNtB1r_8adapters7flatten7FlattenINtNtB2t_3map3MapIB2Z_IB2Z_INtNtNtB1t_5slice4iter4IterNtNtCsc29TF2YcYso_3syn5error12ErrorMessageENvMs_B3S_B3Q_16to_compile_errorENCINvXs7_BI_NtBI_11TokenStreamINtB1n_12FromIteratorB5f_E9from_iterB3k_E0ENCINvXs6_NtBI_3impNtB6n_11TokenStreamIB5y_B6w_E9from_iterB3f_Es_0EEEB3U_, symObjAddr: 0xEC0, symBinAddr: 0x3267C, symSize: 0x48 }
  - { offset: 0xAA135, size: 0x8, addend: 0x0, symName: __RINvXsh_NtCsiTraAjBDcu4_5alloc3vecINtB6_3VecNtNtCsc29TF2YcYso_3syn4attr9AttributeEINtNtNtNtCsaNl6UpbT7bw_4core4iter6traits7collect6ExtendBG_E6extendBw_EBK_, symObjAddr: 0xF08, symBinAddr: 0x326C4, symSize: 0x48 }
  - { offset: 0xAA18A, size: 0x8, addend: 0x0, symName: __RINvXsh_NtCsiTraAjBDcu4_5alloc3vecINtB6_3VecNtNtCsc29TF2YcYso_3syn8generics14TypeParamBoundEINtNtNtNtCsaNl6UpbT7bw_4core4iter6traits7collect6ExtendBG_E6extendINtNtB1B_6option6OptionBG_EEBK_, symObjAddr: 0x1078, symBinAddr: 0x3270C, symSize: 0x48 }
  - { offset: 0xAA1DF, size: 0x8, addend: 0x0, symName: __RINvXsh_NtCsiTraAjBDcu4_5alloc3vecINtB6_3VecNtNtCsc29TF2YcYso_3syn8generics14TypeParamBoundEINtNtNtNtCsaNl6UpbT7bw_4core4iter6traits7collect6ExtendBG_E6extendINtNtNtB1z_8adapters3map3MapINtNtB6_9into_iter8IntoIterTBG_NtNtBK_5token4PlusEENCNvXs8_NtBK_10punctuatedINtB3V_10PunctuatedBG_B3t_ENtB1v_12IntoIterator9into_iter0EEBK_, symObjAddr: 0x10C0, symBinAddr: 0x32754, symSize: 0x48 }
  - { offset: 0xAA23F, size: 0x8, addend: 0x0, symName: __RNCINvMsi_NtCsiTraAjBDcu4_5alloc3vecINtB8_3VecNtNtCsc29TF2YcYso_3syn8generics14TypeParamBoundE14extend_trustedINtNtCsaNl6UpbT7bw_4core6option8IntoIterBI_EE0BM_, symObjAddr: 0x1204, symBinAddr: 0x3279C, symSize: 0x54 }
  - { offset: 0xAA2FD, size: 0x8, addend: 0x0, symName: __RNCINvMsi_NtCsiTraAjBDcu4_5alloc3vecINtB8_3VecNtNtCsc29TF2YcYso_3syn8generics14TypeParamBoundE14extend_trustedINtNtNtNtCsaNl6UpbT7bw_4core4iter8adapters3map3MapINtNtB8_9into_iter8IntoIterTBI_NtNtBM_5token4PlusEENCNvXs8_NtBM_10punctuatedINtB3v_10PunctuatedBI_B33_ENtNtNtB1R_6traits7collect12IntoIterator9into_iter0EE0BM_, symObjAddr: 0x1258, symBinAddr: 0x327F0, symSize: 0x54 }
  - { offset: 0xAA7FD, size: 0x8, addend: 0x0, symName: __RNvXs6_NtCsiTraAjBDcu4_5alloc3vecINtB5_3VecNtNtCsc29TF2YcYso_3syn4attr9AttributeENtNtNtCsaNl6UpbT7bw_4core3ops5deref5Deref5derefBJ_, symObjAddr: 0x6F9C, symBinAddr: 0x367FC, symSize: 0x24 }
  - { offset: 0xAA83D, size: 0x8, addend: 0x0, symName: __RNvXs6_NtCsiTraAjBDcu4_5alloc3vecINtB5_3VecNtNtCsc29TF2YcYso_3syn4expr3ArmENtNtNtCsaNl6UpbT7bw_4core3ops5deref5Deref5derefBJ_, symObjAddr: 0x6FC0, symBinAddr: 0x36820, symSize: 0x24 }
  - { offset: 0xAA87D, size: 0x8, addend: 0x0, symName: __RNvXs6_NtCsiTraAjBDcu4_5alloc3vecINtB5_3VecNtNtCsc29TF2YcYso_3syn5error12ErrorMessageENtNtNtCsaNl6UpbT7bw_4core3ops5deref5Deref5derefBJ_, symObjAddr: 0x6FE4, symBinAddr: 0x36844, symSize: 0x24 }
  - { offset: 0xAA8BD, size: 0x8, addend: 0x0, symName: __RNvXs6_NtCsiTraAjBDcu4_5alloc3vecINtB5_3VecReENtNtNtCsaNl6UpbT7bw_4core3ops5deref5Deref5derefCsc29TF2YcYso_3syn, symObjAddr: 0x7008, symBinAddr: 0x36868, symSize: 0x24 }
  - { offset: 0xAA8FD, size: 0x8, addend: 0x0, symName: __RNvXs6_NtCsiTraAjBDcu4_5alloc3vecINtB5_3VecTNtNtCsc29TF2YcYso_3syn2ty4TypeNtNtBK_5token5CommaEENtNtNtCsaNl6UpbT7bw_4core3ops5deref5Deref5derefBK_, symObjAddr: 0x702C, symBinAddr: 0x3688C, symSize: 0x24 }
  - { offset: 0xAA93D, size: 0x8, addend: 0x0, symName: __RNvXs6_NtCsiTraAjBDcu4_5alloc3vecINtB5_3VecTNtNtCsc29TF2YcYso_3syn2ty9BareFnArgNtNtBK_5token5CommaEENtNtNtCsaNl6UpbT7bw_4core3ops5deref5Deref5derefBK_, symObjAddr: 0x7050, symBinAddr: 0x368B0, symSize: 0x24 }
  - { offset: 0xAA97D, size: 0x8, addend: 0x0, symName: __RNvXs6_NtCsiTraAjBDcu4_5alloc3vecINtB5_3VecTNtNtCsc29TF2YcYso_3syn3pat3PatNtNtBK_5token2OrEENtNtNtCsaNl6UpbT7bw_4core3ops5deref5Deref5derefBK_, symObjAddr: 0x7074, symBinAddr: 0x368D4, symSize: 0x24 }
  - { offset: 0xAA9BD, size: 0x8, addend: 0x0, symName: __RNvXs6_NtCsiTraAjBDcu4_5alloc3vecINtB5_3VecTNtNtCsc29TF2YcYso_3syn3pat3PatNtNtBK_5token5CommaEENtNtNtCsaNl6UpbT7bw_4core3ops5deref5Deref5derefBK_, symObjAddr: 0x7098, symBinAddr: 0x368F8, symSize: 0x24 }
  - { offset: 0xAA9FD, size: 0x8, addend: 0x0, symName: __RNvXs6_NtCsiTraAjBDcu4_5alloc3vecINtB5_3VecTNtNtCsc29TF2YcYso_3syn3pat8FieldPatNtNtBK_5token5CommaEENtNtNtCsaNl6UpbT7bw_4core3ops5deref5Deref5derefBK_, symObjAddr: 0x70BC, symBinAddr: 0x3691C, symSize: 0x24 }
  - { offset: 0xAAA3D, size: 0x8, addend: 0x0, symName: __RNvXs6_NtCsiTraAjBDcu4_5alloc3vecINtB5_3VecTNtNtCsc29TF2YcYso_3syn4data5FieldNtNtBK_5token5CommaEENtNtNtCsaNl6UpbT7bw_4core3ops5deref5Deref5derefBK_, symObjAddr: 0x70E0, symBinAddr: 0x36940, symSize: 0x24 }
  - { offset: 0xAAA7D, size: 0x8, addend: 0x0, symName: __RNvXs6_NtCsiTraAjBDcu4_5alloc3vecINtB5_3VecTNtNtCsc29TF2YcYso_3syn4data7VariantNtNtBK_5token5CommaEENtNtNtCsaNl6UpbT7bw_4core3ops5deref5Deref5derefBK_, symObjAddr: 0x7104, symBinAddr: 0x36964, symSize: 0x24 }
  - { offset: 0xAAABD, size: 0x8, addend: 0x0, symName: __RNvXs6_NtCsiTraAjBDcu4_5alloc3vecINtB5_3VecTNtNtCsc29TF2YcYso_3syn4expr10FieldValueNtNtBK_5token5CommaEENtNtNtCsaNl6UpbT7bw_4core3ops5deref5Deref5derefBK_, symObjAddr: 0x7128, symBinAddr: 0x36988, symSize: 0x24 }
  - { offset: 0xAAAFD, size: 0x8, addend: 0x0, symName: __RNvXs6_NtCsiTraAjBDcu4_5alloc3vecINtB5_3VecTNtNtCsc29TF2YcYso_3syn4expr4ExprNtNtBK_5token5CommaEENtNtNtCsaNl6UpbT7bw_4core3ops5deref5Deref5derefBK_, symObjAddr: 0x714C, symBinAddr: 0x369AC, symSize: 0x24 }
  - { offset: 0xAAB3D, size: 0x8, addend: 0x0, symName: __RNvXs6_NtCsiTraAjBDcu4_5alloc3vecINtB5_3VecTNtNtCsc29TF2YcYso_3syn4item5FnArgNtNtBK_5token5CommaEENtNtNtCsaNl6UpbT7bw_4core3ops5deref5Deref5derefBK_, symObjAddr: 0x7170, symBinAddr: 0x369D0, symSize: 0x24 }
  - { offset: 0xAAB7D, size: 0x8, addend: 0x0, symName: __RNvXs6_NtCsiTraAjBDcu4_5alloc3vecINtB5_3VecTNtNtCsc29TF2YcYso_3syn4item7UseTreeNtNtBK_5token5CommaEENtNtNtCsaNl6UpbT7bw_4core3ops5deref5Deref5derefBK_, symObjAddr: 0x7194, symBinAddr: 0x369F4, symSize: 0x24 }
  - { offset: 0xAABBD, size: 0x8, addend: 0x0, symName: __RNvXs6_NtCsiTraAjBDcu4_5alloc3vecINtB5_3VecTNtNtCsc29TF2YcYso_3syn4path11PathSegmentNtNtBK_5token7PathSepEENtNtNtCsaNl6UpbT7bw_4core3ops5deref5Deref5derefBK_, symObjAddr: 0x71B8, symBinAddr: 0x36A18, symSize: 0x24 }
  - { offset: 0xAABFD, size: 0x8, addend: 0x0, symName: __RNvXs6_NtCsiTraAjBDcu4_5alloc3vecINtB5_3VecTNtNtCsc29TF2YcYso_3syn4path15GenericArgumentNtNtBK_5token5CommaEENtNtNtCsaNl6UpbT7bw_4core3ops5deref5Deref5derefBK_, symObjAddr: 0x71DC, symBinAddr: 0x36A3C, symSize: 0x24 }
  - { offset: 0xAAC3D, size: 0x8, addend: 0x0, symName: __RNvXs6_NtCsiTraAjBDcu4_5alloc3vecINtB5_3VecTNtNtCsc29TF2YcYso_3syn8generics12GenericParamNtNtBK_5token5CommaEENtNtNtCsaNl6UpbT7bw_4core3ops5deref5Deref5derefBK_, symObjAddr: 0x7200, symBinAddr: 0x36A60, symSize: 0x24 }
  - { offset: 0xAAC7D, size: 0x8, addend: 0x0, symName: __RNvXs6_NtCsiTraAjBDcu4_5alloc3vecINtB5_3VecTNtNtCsc29TF2YcYso_3syn8generics13CapturedParamNtNtBK_5token5CommaEENtNtNtCsaNl6UpbT7bw_4core3ops5deref5Deref5derefBK_, symObjAddr: 0x7224, symBinAddr: 0x36A84, symSize: 0x24 }
  - { offset: 0xAACBD, size: 0x8, addend: 0x0, symName: __RNvXs6_NtCsiTraAjBDcu4_5alloc3vecINtB5_3VecTNtNtCsc29TF2YcYso_3syn8generics14TypeParamBoundNtNtBK_5token4PlusEENtNtNtCsaNl6UpbT7bw_4core3ops5deref5Deref5derefBK_, symObjAddr: 0x7248, symBinAddr: 0x36AA8, symSize: 0x24 }
  - { offset: 0xAACFD, size: 0x8, addend: 0x0, symName: __RNvXs6_NtCsiTraAjBDcu4_5alloc3vecINtB5_3VecTNtNtCsc29TF2YcYso_3syn8generics14WherePredicateNtNtBK_5token5CommaEENtNtNtCsaNl6UpbT7bw_4core3ops5deref5Deref5derefBK_, symObjAddr: 0x726C, symBinAddr: 0x36ACC, symSize: 0x24 }
  - { offset: 0xAAD3D, size: 0x8, addend: 0x0, symName: __RNvXs6_NtCsiTraAjBDcu4_5alloc3vecINtB5_3VecTNtNtCsc29TF2YcYso_3syn8lifetime8LifetimeNtNtBK_5token4PlusEENtNtNtCsaNl6UpbT7bw_4core3ops5deref5Deref5derefBK_, symObjAddr: 0x7290, symBinAddr: 0x36AF0, symSize: 0x24 }
  - { offset: 0xAAD7D, size: 0x8, addend: 0x0, symName: __RNvXs6_NtCsiTraAjBDcu4_5alloc3vecINtB5_3VechENtNtNtCsaNl6UpbT7bw_4core3ops5deref5Deref5derefCsc29TF2YcYso_3syn, symObjAddr: 0x72B4, symBinAddr: 0x36B14, symSize: 0x24 }
  - { offset: 0xAB513, size: 0x8, addend: 0x0, symName: __RNvXsb_NtCsiTraAjBDcu4_5alloc3vecINtB5_3VecNtNtCsc29TF2YcYso_3syn5error12ErrorMessageEINtNtNtCsaNl6UpbT7bw_4core3ops5index5IndexjE5indexBJ_, symObjAddr: 0x82B0, symBinAddr: 0x379CC, symSize: 0x8C }
  - { offset: 0xAB695, size: 0x8, addend: 0x0, symName: __RNvXsb_NtCsiTraAjBDcu4_5alloc3vecINtB5_3VecReEINtNtNtCsaNl6UpbT7bw_4core3ops5index5IndexjE5indexCsc29TF2YcYso_3syn, symObjAddr: 0x833C, symBinAddr: 0x37A58, symSize: 0x8C }
  - { offset: 0xAB817, size: 0x8, addend: 0x0, symName: __RNvXsb_NtCsiTraAjBDcu4_5alloc3vecINtB5_3VecTNtNtCsc29TF2YcYso_3syn3pat3PatNtNtBK_5token5CommaEEINtNtNtCsaNl6UpbT7bw_4core3ops5index5IndexjE5indexBK_, symObjAddr: 0x83C8, symBinAddr: 0x37AE4, symSize: 0x8C }
  - { offset: 0xAB999, size: 0x8, addend: 0x0, symName: __RNvXsb_NtCsiTraAjBDcu4_5alloc3vecINtB5_3VecTNtNtCsc29TF2YcYso_3syn4path11PathSegmentNtNtBK_5token7PathSepEEINtNtNtCsaNl6UpbT7bw_4core3ops5index5IndexjE5indexBK_, symObjAddr: 0x8454, symBinAddr: 0x37B70, symSize: 0x8C }
  - { offset: 0xABB1B, size: 0x8, addend: 0x0, symName: __RNvXsb_NtCsiTraAjBDcu4_5alloc3vecINtB5_3VechEINtNtNtCsaNl6UpbT7bw_4core3ops5index5IndexINtNtBM_5range9RangeFromjEE5indexCsc29TF2YcYso_3syn, symObjAddr: 0x84E0, symBinAddr: 0x37BFC, symSize: 0x88 }
  - { offset: 0xABC9D, size: 0x8, addend: 0x0, symName: __RNvXsb_NtCsiTraAjBDcu4_5alloc3vecINtB5_3VechEINtNtNtCsaNl6UpbT7bw_4core3ops5index5IndexjE5indexCsc29TF2YcYso_3syn, symObjAddr: 0x8568, symBinAddr: 0x37C84, symSize: 0x88 }
  - { offset: 0xABE2A, size: 0x8, addend: 0x0, symName: __RNvXNtNtCsiTraAjBDcu4_5alloc3vec11spec_extendINtB4_3VecNtCshnvkK9b4wzu_11proc_macro29TokenTreeEINtB2_10SpecExtendBR_INtNtNtNtCsaNl6UpbT7bw_4core4iter8adapters7flatten7FlattenINtNtB1V_3map3MapIB2N_IB2N_INtNtNtB1Z_5slice4iter4IterNtNtCsc29TF2YcYso_3syn5error12ErrorMessageENvMs_B3G_B3E_16to_compile_errorENCINvXs7_BT_NtBT_11TokenStreamINtNtNtB1X_6traits7collect12FromIteratorB53_E9from_iterB38_E0ENCINvXs6_NtBT_3impNtB6u_11TokenStreamIB5m_B6D_E9from_iterB33_Es_0EEE11spec_extendB3I_, symObjAddr: 0x68EC, symBinAddr: 0x3647C, symSize: 0x24 }
  - { offset: 0xABE82, size: 0x8, addend: 0x0, symName: __RNvXs0_NtNtCsiTraAjBDcu4_5alloc3vec11spec_extendINtB7_3VecNtNtCsc29TF2YcYso_3syn4attr9AttributeEINtB5_10SpecExtendBU_INtNtB7_9into_iter8IntoIterBU_EE11spec_extendBY_, symObjAddr: 0x6E24, symBinAddr: 0x3674C, symSize: 0x98 }
  - { offset: 0xABEEE, size: 0x8, addend: 0x0, symName: __RNvXs_NtNtCsiTraAjBDcu4_5alloc3vec11spec_extendINtB6_3VecNtNtCsc29TF2YcYso_3syn8generics14TypeParamBoundEINtB4_10SpecExtendBT_INtNtCsaNl6UpbT7bw_4core6option8IntoIterBT_EE11spec_extendBX_, symObjAddr: 0x8268, symBinAddr: 0x37984, symSize: 0x24 }
  - { offset: 0xABF40, size: 0x8, addend: 0x0, symName: __RNvXs_NtNtCsiTraAjBDcu4_5alloc3vec11spec_extendINtB6_3VecNtNtCsc29TF2YcYso_3syn8generics14TypeParamBoundEINtB4_10SpecExtendBT_INtNtNtNtCsaNl6UpbT7bw_4core4iter8adapters3map3MapINtNtB6_9into_iter8IntoIterTBT_NtNtBX_5token4PlusEENCNvXs8_NtBX_10punctuatedINtB3L_10PunctuatedBT_B3j_ENtNtNtB27_6traits7collect12IntoIterator9into_iter0EE11spec_extendBX_, symObjAddr: 0x828C, symBinAddr: 0x379A8, symSize: 0x24 }
  - { offset: 0xABF99, size: 0x8, addend: 0x0, symName: __RNvXs7_NtCsiTraAjBDcu4_5alloc3vecINtB5_3VecTNtNtCsc29TF2YcYso_3syn4path11PathSegmentNtNtBK_5token7PathSepEENtNtNtCsaNl6UpbT7bw_4core3ops5deref8DerefMut9deref_mutBK_, symObjAddr: 0x72FC, symBinAddr: 0x36B38, symSize: 0x24 }
  - { offset: 0xAC06F, size: 0x8, addend: 0x0, symName: __RNvXs9_NtCsiTraAjBDcu4_5alloc3vecINtB5_3VecNtNtCsc29TF2YcYso_3syn4attr9AttributeENtNtCsaNl6UpbT7bw_4core5clone5Clone5cloneBJ_, symObjAddr: 0x7344, symBinAddr: 0x36B5C, symSize: 0x90 }
  - { offset: 0xAC240, size: 0x8, addend: 0x0, symName: __RNvXs9_NtCsiTraAjBDcu4_5alloc3vecINtB5_3VecNtNtCsc29TF2YcYso_3syn4expr3ArmENtNtCsaNl6UpbT7bw_4core5clone5Clone5cloneBJ_, symObjAddr: 0x73D4, symBinAddr: 0x36BEC, symSize: 0x90 }
  - { offset: 0xAC411, size: 0x8, addend: 0x0, symName: __RNvXs9_NtCsiTraAjBDcu4_5alloc3vecINtB5_3VecNtNtCsc29TF2YcYso_3syn4item11ForeignItemENtNtCsaNl6UpbT7bw_4core5clone5Clone5cloneBJ_, symObjAddr: 0x7464, symBinAddr: 0x36C7C, symSize: 0x90 }
  - { offset: 0xAC5E2, size: 0x8, addend: 0x0, symName: __RNvXs9_NtCsiTraAjBDcu4_5alloc3vecINtB5_3VecNtNtCsc29TF2YcYso_3syn4item4ItemENtNtCsaNl6UpbT7bw_4core5clone5Clone5cloneBJ_, symObjAddr: 0x74F4, symBinAddr: 0x36D0C, symSize: 0x90 }
  - { offset: 0xAC7B3, size: 0x8, addend: 0x0, symName: __RNvXs9_NtCsiTraAjBDcu4_5alloc3vecINtB5_3VecNtNtCsc29TF2YcYso_3syn4item8ImplItemENtNtCsaNl6UpbT7bw_4core5clone5Clone5cloneBJ_, symObjAddr: 0x7584, symBinAddr: 0x36D9C, symSize: 0x90 }
  - { offset: 0xAC984, size: 0x8, addend: 0x0, symName: __RNvXs9_NtCsiTraAjBDcu4_5alloc3vecINtB5_3VecNtNtCsc29TF2YcYso_3syn4item9TraitItemENtNtCsaNl6UpbT7bw_4core5clone5Clone5cloneBJ_, symObjAddr: 0x7614, symBinAddr: 0x36E2C, symSize: 0x90 }
  - { offset: 0xACB55, size: 0x8, addend: 0x0, symName: __RNvXs9_NtCsiTraAjBDcu4_5alloc3vecINtB5_3VecNtNtCsc29TF2YcYso_3syn4stmt4StmtENtNtCsaNl6UpbT7bw_4core5clone5Clone5cloneBJ_, symObjAddr: 0x76A4, symBinAddr: 0x36EBC, symSize: 0x90 }
  - { offset: 0xACD26, size: 0x8, addend: 0x0, symName: __RNvXs9_NtCsiTraAjBDcu4_5alloc3vecINtB5_3VecTNtNtCsc29TF2YcYso_3syn2ty4TypeNtNtBK_5token5CommaEENtNtCsaNl6UpbT7bw_4core5clone5Clone5cloneBK_, symObjAddr: 0x77C4, symBinAddr: 0x36F4C, symSize: 0x90 }
  - { offset: 0xACEF7, size: 0x8, addend: 0x0, symName: __RNvXs9_NtCsiTraAjBDcu4_5alloc3vecINtB5_3VecTNtNtCsc29TF2YcYso_3syn2ty9BareFnArgNtNtBK_5token5CommaEENtNtCsaNl6UpbT7bw_4core5clone5Clone5cloneBK_, symObjAddr: 0x7854, symBinAddr: 0x36FDC, symSize: 0x90 }
  - { offset: 0xAD0C8, size: 0x8, addend: 0x0, symName: __RNvXs9_NtCsiTraAjBDcu4_5alloc3vecINtB5_3VecTNtNtCsc29TF2YcYso_3syn3pat3PatNtNtBK_5token2OrEENtNtCsaNl6UpbT7bw_4core5clone5Clone5cloneBK_, symObjAddr: 0x78E4, symBinAddr: 0x3706C, symSize: 0x90 }
  - { offset: 0xAD299, size: 0x8, addend: 0x0, symName: __RNvXs9_NtCsiTraAjBDcu4_5alloc3vecINtB5_3VecTNtNtCsc29TF2YcYso_3syn3pat3PatNtNtBK_5token5CommaEENtNtCsaNl6UpbT7bw_4core5clone5Clone5cloneBK_, symObjAddr: 0x7974, symBinAddr: 0x370FC, symSize: 0x90 }
  - { offset: 0xAD46A, size: 0x8, addend: 0x0, symName: __RNvXs9_NtCsiTraAjBDcu4_5alloc3vecINtB5_3VecTNtNtCsc29TF2YcYso_3syn3pat8FieldPatNtNtBK_5token5CommaEENtNtCsaNl6UpbT7bw_4core5clone5Clone5cloneBK_, symObjAddr: 0x7A04, symBinAddr: 0x3718C, symSize: 0x90 }
  - { offset: 0xAD63B, size: 0x8, addend: 0x0, symName: __RNvXs9_NtCsiTraAjBDcu4_5alloc3vecINtB5_3VecTNtNtCsc29TF2YcYso_3syn4data5FieldNtNtBK_5token5CommaEENtNtCsaNl6UpbT7bw_4core5clone5Clone5cloneBK_, symObjAddr: 0x7A94, symBinAddr: 0x3721C, symSize: 0x90 }
  - { offset: 0xAD80C, size: 0x8, addend: 0x0, symName: __RNvXs9_NtCsiTraAjBDcu4_5alloc3vecINtB5_3VecTNtNtCsc29TF2YcYso_3syn4data7VariantNtNtBK_5token5CommaEENtNtCsaNl6UpbT7bw_4core5clone5Clone5cloneBK_, symObjAddr: 0x7B24, symBinAddr: 0x372AC, symSize: 0x90 }
  - { offset: 0xAD9DD, size: 0x8, addend: 0x0, symName: __RNvXs9_NtCsiTraAjBDcu4_5alloc3vecINtB5_3VecTNtNtCsc29TF2YcYso_3syn4expr10FieldValueNtNtBK_5token5CommaEENtNtCsaNl6UpbT7bw_4core5clone5Clone5cloneBK_, symObjAddr: 0x7BB4, symBinAddr: 0x3733C, symSize: 0x90 }
  - { offset: 0xADBAE, size: 0x8, addend: 0x0, symName: __RNvXs9_NtCsiTraAjBDcu4_5alloc3vecINtB5_3VecTNtNtCsc29TF2YcYso_3syn4expr4ExprNtNtBK_5token5CommaEENtNtCsaNl6UpbT7bw_4core5clone5Clone5cloneBK_, symObjAddr: 0x7C44, symBinAddr: 0x373CC, symSize: 0x90 }
  - { offset: 0xADD7F, size: 0x8, addend: 0x0, symName: __RNvXs9_NtCsiTraAjBDcu4_5alloc3vecINtB5_3VecTNtNtCsc29TF2YcYso_3syn4item5FnArgNtNtBK_5token5CommaEENtNtCsaNl6UpbT7bw_4core5clone5Clone5cloneBK_, symObjAddr: 0x7CD4, symBinAddr: 0x3745C, symSize: 0x90 }
  - { offset: 0xADF50, size: 0x8, addend: 0x0, symName: __RNvXs9_NtCsiTraAjBDcu4_5alloc3vecINtB5_3VecTNtNtCsc29TF2YcYso_3syn4item7UseTreeNtNtBK_5token5CommaEENtNtCsaNl6UpbT7bw_4core5clone5Clone5cloneBK_, symObjAddr: 0x7D64, symBinAddr: 0x374EC, symSize: 0x90 }
  - { offset: 0xAE121, size: 0x8, addend: 0x0, symName: __RNvXs9_NtCsiTraAjBDcu4_5alloc3vecINtB5_3VecTNtNtCsc29TF2YcYso_3syn4path11PathSegmentNtNtBK_5token7PathSepEENtNtCsaNl6UpbT7bw_4core5clone5Clone5cloneBK_, symObjAddr: 0x7DF4, symBinAddr: 0x3757C, symSize: 0x90 }
  - { offset: 0xAE2F2, size: 0x8, addend: 0x0, symName: __RNvXs9_NtCsiTraAjBDcu4_5alloc3vecINtB5_3VecTNtNtCsc29TF2YcYso_3syn4path15GenericArgumentNtNtBK_5token5CommaEENtNtCsaNl6UpbT7bw_4core5clone5Clone5cloneBK_, symObjAddr: 0x7E84, symBinAddr: 0x3760C, symSize: 0x90 }
  - { offset: 0xAE4C3, size: 0x8, addend: 0x0, symName: __RNvXs9_NtCsiTraAjBDcu4_5alloc3vecINtB5_3VecTNtNtCsc29TF2YcYso_3syn8generics12GenericParamNtNtBK_5token5CommaEENtNtCsaNl6UpbT7bw_4core5clone5Clone5cloneBK_, symObjAddr: 0x7F14, symBinAddr: 0x3769C, symSize: 0x90 }
  - { offset: 0xAE694, size: 0x8, addend: 0x0, symName: __RNvXs9_NtCsiTraAjBDcu4_5alloc3vecINtB5_3VecTNtNtCsc29TF2YcYso_3syn8generics13CapturedParamNtNtBK_5token5CommaEENtNtCsaNl6UpbT7bw_4core5clone5Clone5cloneBK_, symObjAddr: 0x7FA4, symBinAddr: 0x3772C, symSize: 0x90 }
  - { offset: 0xAE865, size: 0x8, addend: 0x0, symName: __RNvXs9_NtCsiTraAjBDcu4_5alloc3vecINtB5_3VecTNtNtCsc29TF2YcYso_3syn8generics14TypeParamBoundNtNtBK_5token4PlusEENtNtCsaNl6UpbT7bw_4core5clone5Clone5cloneBK_, symObjAddr: 0x8034, symBinAddr: 0x377BC, symSize: 0x90 }
  - { offset: 0xAEA36, size: 0x8, addend: 0x0, symName: __RNvXs9_NtCsiTraAjBDcu4_5alloc3vecINtB5_3VecTNtNtCsc29TF2YcYso_3syn8generics14WherePredicateNtNtBK_5token5CommaEENtNtCsaNl6UpbT7bw_4core5clone5Clone5cloneBK_, symObjAddr: 0x80C4, symBinAddr: 0x3784C, symSize: 0x90 }
  - { offset: 0xAEC07, size: 0x8, addend: 0x0, symName: __RNvXs9_NtCsiTraAjBDcu4_5alloc3vecINtB5_3VecTNtNtCsc29TF2YcYso_3syn8lifetime8LifetimeNtNtBK_5token4PlusEENtNtCsaNl6UpbT7bw_4core5clone5Clone5cloneBK_, symObjAddr: 0x8154, symBinAddr: 0x378DC, symSize: 0x90 }
  - { offset: 0xAEDDE, size: 0x8, addend: 0x0, symName: __RNvXsc_NtCsiTraAjBDcu4_5alloc3vecINtB5_3VecNtNtCsc29TF2YcYso_3syn6buffer5EntryEINtNtNtCsaNl6UpbT7bw_4core3ops5index8IndexMutjE9index_mutBJ_, symObjAddr: 0x85F0, symBinAddr: 0x37D0C, symSize: 0x8C }
  - { offset: 0xAEF32, size: 0x8, addend: 0x0, symName: __RNvXsc_NtCsiTraAjBDcu4_5alloc3vecINtB5_3VechEINtNtNtCsaNl6UpbT7bw_4core3ops5index8IndexMutjE9index_mutCsc29TF2YcYso_3syn, symObjAddr: 0x867C, symBinAddr: 0x37D98, symSize: 0x88 }
  - { offset: 0xAF08C, size: 0x8, addend: 0x0, symName: __RNvXse_NtCsiTraAjBDcu4_5alloc3vecINtB5_3VecNtNtCsc29TF2YcYso_3syn4attr9AttributeENtNtNtNtCsaNl6UpbT7bw_4core4iter6traits7collect12IntoIterator9into_iterBJ_, symObjAddr: 0x8704, symBinAddr: 0x37E20, symSize: 0xDC }
  - { offset: 0xAF31E, size: 0x8, addend: 0x0, symName: __RNvXse_NtCsiTraAjBDcu4_5alloc3vecINtB5_3VecNtNtCsc29TF2YcYso_3syn8generics14TypeParamBoundENtNtNtNtCsaNl6UpbT7bw_4core4iter6traits7collect12IntoIterator9into_iterBJ_, symObjAddr: 0x89A8, symBinAddr: 0x37EFC, symSize: 0xE4 }
  - { offset: 0xAF5B0, size: 0x8, addend: 0x0, symName: __RNvXse_NtCsiTraAjBDcu4_5alloc3vecINtB5_3VecTNtNtCsc29TF2YcYso_3syn4path11PathSegmentNtNtBK_5token7PathSepEENtNtNtNtCsaNl6UpbT7bw_4core4iter6traits7collect12IntoIterator9into_iterBK_, symObjAddr: 0x8C54, symBinAddr: 0x37FE0, symSize: 0xE4 }
  - { offset: 0xAF842, size: 0x8, addend: 0x0, symName: __RNvXse_NtCsiTraAjBDcu4_5alloc3vecINtB5_3VecTNtNtCsc29TF2YcYso_3syn8generics14TypeParamBoundNtNtBK_5token4PlusEENtNtNtNtCsaNl6UpbT7bw_4core4iter6traits7collect12IntoIterator9into_iterBK_, symObjAddr: 0x8D38, symBinAddr: 0x380C4, symSize: 0xDC }
  - { offset: 0xAFADA, size: 0x8, addend: 0x0, symName: __RNvXsf_NtCsiTraAjBDcu4_5alloc3vecRINtB5_3VecNtNtCsc29TF2YcYso_3syn4attr9AttributeENtNtNtNtCsaNl6UpbT7bw_4core4iter6traits7collect12IntoIterator9into_iterBK_, symObjAddr: 0x8E14, symBinAddr: 0x381A0, symSize: 0xA4 }
  - { offset: 0xAFD18, size: 0x8, addend: 0x0, symName: __RNvXsf_NtCsiTraAjBDcu4_5alloc3vecRINtB5_3VecNtNtCsc29TF2YcYso_3syn4item11ForeignItemENtNtNtNtCsaNl6UpbT7bw_4core4iter6traits7collect12IntoIterator9into_iterBK_, symObjAddr: 0x8EB8, symBinAddr: 0x38244, symSize: 0xAC }
  - { offset: 0xAFF56, size: 0x8, addend: 0x0, symName: __RNvXsf_NtCsiTraAjBDcu4_5alloc3vecRINtB5_3VecNtNtCsc29TF2YcYso_3syn4item4ItemENtNtNtNtCsaNl6UpbT7bw_4core4iter6traits7collect12IntoIterator9into_iterBK_, symObjAddr: 0x8F64, symBinAddr: 0x382F0, symSize: 0xAC }
  - { offset: 0xB0194, size: 0x8, addend: 0x0, symName: __RNvXsf_NtCsiTraAjBDcu4_5alloc3vecRINtB5_3VecNtNtCsc29TF2YcYso_3syn4item8ImplItemENtNtNtNtCsaNl6UpbT7bw_4core4iter6traits7collect12IntoIterator9into_iterBK_, symObjAddr: 0x9010, symBinAddr: 0x3839C, symSize: 0xAC }
  - { offset: 0xB03D2, size: 0x8, addend: 0x0, symName: __RNvXsf_NtCsiTraAjBDcu4_5alloc3vecRINtB5_3VecNtNtCsc29TF2YcYso_3syn4item9TraitItemENtNtNtNtCsaNl6UpbT7bw_4core4iter6traits7collect12IntoIterator9into_iterBK_, symObjAddr: 0x90BC, symBinAddr: 0x38448, symSize: 0xAC }
  - { offset: 0xB0610, size: 0x8, addend: 0x0, symName: __RNvXsf_NtCsiTraAjBDcu4_5alloc3vecRINtB5_3VecNtNtCsc29TF2YcYso_3syn4stmt4StmtENtNtNtNtCsaNl6UpbT7bw_4core4iter6traits7collect12IntoIterator9into_iterBK_, symObjAddr: 0x9168, symBinAddr: 0x384F4, symSize: 0xAC }
  - { offset: 0xB0854, size: 0x8, addend: 0x0, symName: __RNvXsg_NtCsiTraAjBDcu4_5alloc3vecQINtB5_3VechENtNtNtNtCsaNl6UpbT7bw_4core4iter6traits7collect12IntoIterator9into_iterCsc29TF2YcYso_3syn, symObjAddr: 0x9E24, symBinAddr: 0x385A0, symSize: 0xA0 }
  - { offset: 0xB0A6A, size: 0x8, addend: 0x0, symName: __RNvXsn_NtCsiTraAjBDcu4_5alloc3vecINtB5_3VecNtNtCsc29TF2YcYso_3syn4attr9AttributeENtNtNtCsaNl6UpbT7bw_4core3ops4drop4Drop4dropBJ_, symObjAddr: 0x9EC4, symBinAddr: 0x38640, symSize: 0x38 }
  - { offset: 0xB0B1A, size: 0x8, addend: 0x0, symName: __RNvXsn_NtCsiTraAjBDcu4_5alloc3vecINtB5_3VecNtNtCsc29TF2YcYso_3syn4expr3ArmENtNtNtCsaNl6UpbT7bw_4core3ops4drop4Drop4dropBJ_, symObjAddr: 0x9F34, symBinAddr: 0x38678, symSize: 0x38 }
  - { offset: 0xB0BCA, size: 0x8, addend: 0x0, symName: __RNvXsn_NtCsiTraAjBDcu4_5alloc3vecINtB5_3VecNtNtCsc29TF2YcYso_3syn4expr6ExprIfENtNtNtCsaNl6UpbT7bw_4core3ops4drop4Drop4dropBJ_, symObjAddr: 0x9F6C, symBinAddr: 0x386B0, symSize: 0x38 }
  - { offset: 0xB0C7A, size: 0x8, addend: 0x0, symName: __RNvXsn_NtCsiTraAjBDcu4_5alloc3vecINtB5_3VecNtNtCsc29TF2YcYso_3syn4item11ForeignItemENtNtNtCsaNl6UpbT7bw_4core3ops4drop4Drop4dropBJ_, symObjAddr: 0x9FA4, symBinAddr: 0x386E8, symSize: 0x38 }
  - { offset: 0xB0D2A, size: 0x8, addend: 0x0, symName: __RNvXsn_NtCsiTraAjBDcu4_5alloc3vecINtB5_3VecNtNtCsc29TF2YcYso_3syn4item4ItemENtNtNtCsaNl6UpbT7bw_4core3ops4drop4Drop4dropBJ_, symObjAddr: 0x9FDC, symBinAddr: 0x38720, symSize: 0x38 }
  - { offset: 0xB0DDA, size: 0x8, addend: 0x0, symName: __RNvXsn_NtCsiTraAjBDcu4_5alloc3vecINtB5_3VecNtNtCsc29TF2YcYso_3syn4item8ImplItemENtNtNtCsaNl6UpbT7bw_4core3ops4drop4Drop4dropBJ_, symObjAddr: 0xA014, symBinAddr: 0x38758, symSize: 0x38 }
  - { offset: 0xB0E8A, size: 0x8, addend: 0x0, symName: __RNvXsn_NtCsiTraAjBDcu4_5alloc3vecINtB5_3VecNtNtCsc29TF2YcYso_3syn4item9TraitItemENtNtNtCsaNl6UpbT7bw_4core3ops4drop4Drop4dropBJ_, symObjAddr: 0xA04C, symBinAddr: 0x38790, symSize: 0x38 }
  - { offset: 0xB0F3A, size: 0x8, addend: 0x0, symName: __RNvXsn_NtCsiTraAjBDcu4_5alloc3vecINtB5_3VecNtNtCsc29TF2YcYso_3syn4stmt4StmtENtNtNtCsaNl6UpbT7bw_4core3ops4drop4Drop4dropBJ_, symObjAddr: 0xA084, symBinAddr: 0x387C8, symSize: 0x38 }
  - { offset: 0xB0FEA, size: 0x8, addend: 0x0, symName: __RNvXsn_NtCsiTraAjBDcu4_5alloc3vecINtB5_3VecNtNtCsc29TF2YcYso_3syn5error12ErrorMessageENtNtNtCsaNl6UpbT7bw_4core3ops4drop4Drop4dropBJ_, symObjAddr: 0xA0BC, symBinAddr: 0x38800, symSize: 0x38 }
  - { offset: 0xB109A, size: 0x8, addend: 0x0, symName: __RNvXsn_NtCsiTraAjBDcu4_5alloc3vecINtB5_3VecNtNtCsc29TF2YcYso_3syn6buffer5EntryENtNtNtCsaNl6UpbT7bw_4core3ops4drop4Drop4dropBJ_, symObjAddr: 0xA0F4, symBinAddr: 0x38838, symSize: 0x38 }
  - { offset: 0xB114A, size: 0x8, addend: 0x0, symName: __RNvXsn_NtCsiTraAjBDcu4_5alloc3vecINtB5_3VecNtNtCsc29TF2YcYso_3syn8generics14TypeParamBoundENtNtNtCsaNl6UpbT7bw_4core3ops4drop4Drop4dropBJ_, symObjAddr: 0xA12C, symBinAddr: 0x38870, symSize: 0x38 }
  - { offset: 0xB11FA, size: 0x8, addend: 0x0, symName: __RNvXsn_NtCsiTraAjBDcu4_5alloc3vecINtB5_3VecReENtNtNtCsaNl6UpbT7bw_4core3ops4drop4Drop4dropCsc29TF2YcYso_3syn, symObjAddr: 0xA164, symBinAddr: 0x388A8, symSize: 0x24 }
  - { offset: 0xB12AA, size: 0x8, addend: 0x0, symName: __RNvXsn_NtCsiTraAjBDcu4_5alloc3vecINtB5_3VecTNtNtCsc29TF2YcYso_3syn2ty4TypeNtNtBK_5token5CommaEENtNtNtCsaNl6UpbT7bw_4core3ops4drop4Drop4dropBK_, symObjAddr: 0xA188, symBinAddr: 0x388CC, symSize: 0x38 }
  - { offset: 0xB135A, size: 0x8, addend: 0x0, symName: __RNvXsn_NtCsiTraAjBDcu4_5alloc3vecINtB5_3VecTNtNtCsc29TF2YcYso_3syn2ty9BareFnArgNtNtBK_5token5CommaEENtNtNtCsaNl6UpbT7bw_4core3ops4drop4Drop4dropBK_, symObjAddr: 0xA1C0, symBinAddr: 0x38904, symSize: 0x38 }
  - { offset: 0xB140A, size: 0x8, addend: 0x0, symName: __RNvXsn_NtCsiTraAjBDcu4_5alloc3vecINtB5_3VecTNtNtCsc29TF2YcYso_3syn3pat3PatNtNtBK_5token2OrEENtNtNtCsaNl6UpbT7bw_4core3ops4drop4Drop4dropBK_, symObjAddr: 0xA1F8, symBinAddr: 0x3893C, symSize: 0x38 }
  - { offset: 0xB14BA, size: 0x8, addend: 0x0, symName: __RNvXsn_NtCsiTraAjBDcu4_5alloc3vecINtB5_3VecTNtNtCsc29TF2YcYso_3syn3pat3PatNtNtBK_5token5CommaEENtNtNtCsaNl6UpbT7bw_4core3ops4drop4Drop4dropBK_, symObjAddr: 0xA230, symBinAddr: 0x38974, symSize: 0x38 }
  - { offset: 0xB156A, size: 0x8, addend: 0x0, symName: __RNvXsn_NtCsiTraAjBDcu4_5alloc3vecINtB5_3VecTNtNtCsc29TF2YcYso_3syn3pat8FieldPatNtNtBK_5token5CommaEENtNtNtCsaNl6UpbT7bw_4core3ops4drop4Drop4dropBK_, symObjAddr: 0xA268, symBinAddr: 0x389AC, symSize: 0x38 }
  - { offset: 0xB161A, size: 0x8, addend: 0x0, symName: __RNvXsn_NtCsiTraAjBDcu4_5alloc3vecINtB5_3VecTNtNtCsc29TF2YcYso_3syn4data5FieldNtNtBK_5token5CommaEENtNtNtCsaNl6UpbT7bw_4core3ops4drop4Drop4dropBK_, symObjAddr: 0xA2A0, symBinAddr: 0x389E4, symSize: 0x38 }
  - { offset: 0xB16CA, size: 0x8, addend: 0x0, symName: __RNvXsn_NtCsiTraAjBDcu4_5alloc3vecINtB5_3VecTNtNtCsc29TF2YcYso_3syn4data7VariantNtNtBK_5token5CommaEENtNtNtCsaNl6UpbT7bw_4core3ops4drop4Drop4dropBK_, symObjAddr: 0xA310, symBinAddr: 0x38A1C, symSize: 0x38 }
  - { offset: 0xB177A, size: 0x8, addend: 0x0, symName: __RNvXsn_NtCsiTraAjBDcu4_5alloc3vecINtB5_3VecTNtNtCsc29TF2YcYso_3syn4expr10FieldValueNtNtBK_5token5CommaEENtNtNtCsaNl6UpbT7bw_4core3ops4drop4Drop4dropBK_, symObjAddr: 0xA348, symBinAddr: 0x38A54, symSize: 0x38 }
  - { offset: 0xB182A, size: 0x8, addend: 0x0, symName: __RNvXsn_NtCsiTraAjBDcu4_5alloc3vecINtB5_3VecTNtNtCsc29TF2YcYso_3syn4expr4ExprNtNtBK_5token5CommaEENtNtNtCsaNl6UpbT7bw_4core3ops4drop4Drop4dropBK_, symObjAddr: 0xA380, symBinAddr: 0x38A8C, symSize: 0x38 }
  - { offset: 0xB18DA, size: 0x8, addend: 0x0, symName: __RNvXsn_NtCsiTraAjBDcu4_5alloc3vecINtB5_3VecTNtNtCsc29TF2YcYso_3syn4item5FnArgNtNtBK_5token5CommaEENtNtNtCsaNl6UpbT7bw_4core3ops4drop4Drop4dropBK_, symObjAddr: 0xA3B8, symBinAddr: 0x38AC4, symSize: 0x38 }
  - { offset: 0xB198A, size: 0x8, addend: 0x0, symName: __RNvXsn_NtCsiTraAjBDcu4_5alloc3vecINtB5_3VecTNtNtCsc29TF2YcYso_3syn4item7UseTreeNtNtBK_5token5CommaEENtNtNtCsaNl6UpbT7bw_4core3ops4drop4Drop4dropBK_, symObjAddr: 0xA3F0, symBinAddr: 0x38AFC, symSize: 0x38 }
  - { offset: 0xB1A3A, size: 0x8, addend: 0x0, symName: __RNvXsn_NtCsiTraAjBDcu4_5alloc3vecINtB5_3VecTNtNtCsc29TF2YcYso_3syn4path11PathSegmentNtNtBK_5token7PathSepEENtNtNtCsaNl6UpbT7bw_4core3ops4drop4Drop4dropBK_, symObjAddr: 0xA428, symBinAddr: 0x38B34, symSize: 0x38 }
  - { offset: 0xB1AEA, size: 0x8, addend: 0x0, symName: __RNvXsn_NtCsiTraAjBDcu4_5alloc3vecINtB5_3VecTNtNtCsc29TF2YcYso_3syn4path15GenericArgumentNtNtBK_5token5CommaEENtNtNtCsaNl6UpbT7bw_4core3ops4drop4Drop4dropBK_, symObjAddr: 0xA460, symBinAddr: 0x38B6C, symSize: 0x38 }
  - { offset: 0xB1B9A, size: 0x8, addend: 0x0, symName: __RNvXsn_NtCsiTraAjBDcu4_5alloc3vecINtB5_3VecTNtNtCsc29TF2YcYso_3syn8generics12GenericParamNtNtBK_5token5CommaEENtNtNtCsaNl6UpbT7bw_4core3ops4drop4Drop4dropBK_, symObjAddr: 0xA498, symBinAddr: 0x38BA4, symSize: 0x38 }
  - { offset: 0xB1C4A, size: 0x8, addend: 0x0, symName: __RNvXsn_NtCsiTraAjBDcu4_5alloc3vecINtB5_3VecTNtNtCsc29TF2YcYso_3syn8generics13CapturedParamNtNtBK_5token5CommaEENtNtNtCsaNl6UpbT7bw_4core3ops4drop4Drop4dropBK_, symObjAddr: 0xA4D0, symBinAddr: 0x38BDC, symSize: 0x38 }
  - { offset: 0xB1CFA, size: 0x8, addend: 0x0, symName: __RNvXsn_NtCsiTraAjBDcu4_5alloc3vecINtB5_3VecTNtNtCsc29TF2YcYso_3syn8generics14TypeParamBoundNtNtBK_5token4PlusEENtNtNtCsaNl6UpbT7bw_4core3ops4drop4Drop4dropBK_, symObjAddr: 0xA508, symBinAddr: 0x38C14, symSize: 0x38 }
  - { offset: 0xB1DAA, size: 0x8, addend: 0x0, symName: __RNvXsn_NtCsiTraAjBDcu4_5alloc3vecINtB5_3VecTNtNtCsc29TF2YcYso_3syn8generics14WherePredicateNtNtBK_5token5CommaEENtNtNtCsaNl6UpbT7bw_4core3ops4drop4Drop4dropBK_, symObjAddr: 0xA540, symBinAddr: 0x38C4C, symSize: 0x38 }
  - { offset: 0xB1E5A, size: 0x8, addend: 0x0, symName: __RNvXsn_NtCsiTraAjBDcu4_5alloc3vecINtB5_3VecTNtNtCsc29TF2YcYso_3syn8lifetime8LifetimeNtNtBK_5token4PlusEENtNtNtCsaNl6UpbT7bw_4core3ops4drop4Drop4dropBK_, symObjAddr: 0xA578, symBinAddr: 0x38C84, symSize: 0x38 }
  - { offset: 0xB1F10, size: 0x8, addend: 0x0, symName: __RNvXsp_NtCsiTraAjBDcu4_5alloc3vecINtB5_3VecNtNtCsc29TF2YcYso_3syn5error12ErrorMessageENtNtCsaNl6UpbT7bw_4core3fmt5Debug3fmtBJ_, symObjAddr: 0xA914, symBinAddr: 0x38CBC, symSize: 0x7C }
  - { offset: 0xB2020, size: 0x8, addend: 0x0, symName: __RNvXsp_NtCsiTraAjBDcu4_5alloc3vecINtB5_3VechENtNtCsaNl6UpbT7bw_4core3fmt5Debug3fmtCsc29TF2YcYso_3syn, symObjAddr: 0xA990, symBinAddr: 0x38D38, symSize: 0x78 }
  - { offset: 0xB454E, size: 0x8, addend: 0x0, symName: __RNvXsT_NtCsiTraAjBDcu4_5alloc6stringINtNtB7_3vec3VechEINtNtCsaNl6UpbT7bw_4core7convert4FromNtB5_6StringE4fromCsc29TF2YcYso_3syn, symObjAddr: 0x81E4, symBinAddr: 0x3796C, symSize: 0x18 }
  - { offset: 0xB47A3, size: 0x8, addend: 0x0, symName: __RNvXNvMs_NtNtCsiTraAjBDcu4_5alloc3ffi5c_strNtB7_7CString3newINtNtBb_3vec3VechENtB2_11SpecNewImpl13spec_new_implCsc29TF2YcYso_3syn, symObjAddr: 0x6CA4, symBinAddr: 0x365CC, symSize: 0x180 }
  - { offset: 0xB9E0E, size: 0x8, addend: 0x0, symName: __RINvMs_NtCsiTraAjBDcu4_5alloc3vecINtB5_3VecReE10retain_mutNCNvMNtCsc29TF2YcYso_3syn9lookaheadNtBZ_10Lookahead15error0EB11_, symObjAddr: 0x0, symBinAddr: 0x31E6C, symSize: 0xE4 }
  - { offset: 0xBA108, size: 0x8, addend: 0x0, symName: __RINvMsi_NtCsiTraAjBDcu4_5alloc3vecINtB6_3VecNtCshnvkK9b4wzu_11proc_macro29TokenTreeE16extend_desugaredINtNtNtNtCsaNl6UpbT7bw_4core4iter8adapters7flatten7FlattenINtNtB1H_3map3MapIB2z_IB2z_INtNtNtB1L_5slice4iter4IterNtNtCsc29TF2YcYso_3syn5error12ErrorMessageENvMs_B3s_B3q_16to_compile_errorENCINvXs7_BI_NtBI_11TokenStreamINtNtNtB1J_6traits7collect12FromIteratorB4P_E9from_iterB2U_E0ENCINvXs6_NtBI_3impNtB6g_11TokenStreamIB58_B6p_E9from_iterB2P_Es_0EEEB3u_, symObjAddr: 0xE4, symBinAddr: 0x31F50, symSize: 0x1D0 }
  - { offset: 0xBAAAE, size: 0x8, addend: 0x0, symName: __RINvMsi_NtCsiTraAjBDcu4_5alloc3vecINtB6_3VecNtNtCsc29TF2YcYso_3syn8generics14TypeParamBoundE14extend_trustedINtNtCsaNl6UpbT7bw_4core6option8IntoIterBG_EEBK_, symObjAddr: 0x928, symBinAddr: 0x32120, symSize: 0x19C }
  - { offset: 0xBAD72, size: 0x8, addend: 0x0, symName: __RINvMsi_NtCsiTraAjBDcu4_5alloc3vecINtB6_3VecNtNtCsc29TF2YcYso_3syn8generics14TypeParamBoundE14extend_trustedINtNtNtNtCsaNl6UpbT7bw_4core4iter8adapters3map3MapINtNtB6_9into_iter8IntoIterTBG_NtNtBK_5token4PlusEENCNvXs8_NtBK_10punctuatedINtB3t_10PunctuatedBG_B31_ENtNtNtB1P_6traits7collect12IntoIterator9into_iter0EEBK_, symObjAddr: 0xAC4, symBinAddr: 0x322BC, symSize: 0x184 }
  - { offset: 0xBB0CB, size: 0x8, addend: 0x0, symName: __RNvMNtCsiTraAjBDcu4_5alloc3vecINtB2_3VecNtNtCsc29TF2YcYso_3syn4attr9AttributeE3newBG_, symObjAddr: 0x12AC, symBinAddr: 0x32844, symSize: 0x14 }
  - { offset: 0xBB0E8, size: 0x8, addend: 0x0, symName: __RNvMNtCsiTraAjBDcu4_5alloc3vecINtB2_3VecNtNtCsc29TF2YcYso_3syn4expr3ArmE3newBG_, symObjAddr: 0x1308, symBinAddr: 0x32858, symSize: 0x14 }
  - { offset: 0xBB105, size: 0x8, addend: 0x0, symName: __RNvMNtCsiTraAjBDcu4_5alloc3vecINtB2_3VecNtNtCsc29TF2YcYso_3syn4expr6ExprIfE3newBG_, symObjAddr: 0x131C, symBinAddr: 0x3286C, symSize: 0x14 }
  - { offset: 0xBB122, size: 0x8, addend: 0x0, symName: __RNvMNtCsiTraAjBDcu4_5alloc3vecINtB2_3VecNtNtCsc29TF2YcYso_3syn4item11ForeignItemE3newBG_, symObjAddr: 0x1330, symBinAddr: 0x32880, symSize: 0x14 }
  - { offset: 0xBB13F, size: 0x8, addend: 0x0, symName: __RNvMNtCsiTraAjBDcu4_5alloc3vecINtB2_3VecNtNtCsc29TF2YcYso_3syn4item4ItemE3newBG_, symObjAddr: 0x1344, symBinAddr: 0x32894, symSize: 0x14 }
  - { offset: 0xBB15C, size: 0x8, addend: 0x0, symName: __RNvMNtCsiTraAjBDcu4_5alloc3vecINtB2_3VecNtNtCsc29TF2YcYso_3syn4item8ImplItemE3newBG_, symObjAddr: 0x1358, symBinAddr: 0x328A8, symSize: 0x14 }
  - { offset: 0xBB179, size: 0x8, addend: 0x0, symName: __RNvMNtCsiTraAjBDcu4_5alloc3vecINtB2_3VecNtNtCsc29TF2YcYso_3syn4item9TraitItemE3newBG_, symObjAddr: 0x136C, symBinAddr: 0x328BC, symSize: 0x14 }
  - { offset: 0xBB196, size: 0x8, addend: 0x0, symName: __RNvMNtCsiTraAjBDcu4_5alloc3vecINtB2_3VecNtNtCsc29TF2YcYso_3syn4stmt4StmtE3newBG_, symObjAddr: 0x1380, symBinAddr: 0x328D0, symSize: 0x14 }
  - { offset: 0xBB1B3, size: 0x8, addend: 0x0, symName: __RNvMNtCsiTraAjBDcu4_5alloc3vecINtB2_3VecNtNtCsc29TF2YcYso_3syn6buffer5EntryE3newBG_, symObjAddr: 0x1394, symBinAddr: 0x328E4, symSize: 0x14 }
  - { offset: 0xBB232, size: 0x8, addend: 0x0, symName: __RNvMNtCsiTraAjBDcu4_5alloc3vecINtB2_3VecNtNtCsc29TF2YcYso_3syn8generics14TypeParamBoundE13with_capacityBG_, symObjAddr: 0x13A8, symBinAddr: 0x328F8, symSize: 0x48 }
  - { offset: 0xBB2AA, size: 0x8, addend: 0x0, symName: __RNvMNtCsiTraAjBDcu4_5alloc3vecINtB2_3VecReE3newCsc29TF2YcYso_3syn, symObjAddr: 0x13F0, symBinAddr: 0x32940, symSize: 0x14 }
  - { offset: 0xBB2C7, size: 0x8, addend: 0x0, symName: __RNvMNtCsiTraAjBDcu4_5alloc3vecINtB2_3VecTNtNtCsc29TF2YcYso_3syn2ty4TypeNtNtBH_5token5CommaEE3newBH_, symObjAddr: 0x1404, symBinAddr: 0x32954, symSize: 0x14 }
  - { offset: 0xBB2E4, size: 0x8, addend: 0x0, symName: __RNvMNtCsiTraAjBDcu4_5alloc3vecINtB2_3VecTNtNtCsc29TF2YcYso_3syn2ty9BareFnArgNtNtBH_5token5CommaEE3newBH_, symObjAddr: 0x1418, symBinAddr: 0x32968, symSize: 0x14 }
  - { offset: 0xBB301, size: 0x8, addend: 0x0, symName: __RNvMNtCsiTraAjBDcu4_5alloc3vecINtB2_3VecTNtNtCsc29TF2YcYso_3syn3pat3PatNtNtBH_5token2OrEE3newBH_, symObjAddr: 0x142C, symBinAddr: 0x3297C, symSize: 0x14 }
  - { offset: 0xBB31E, size: 0x8, addend: 0x0, symName: __RNvMNtCsiTraAjBDcu4_5alloc3vecINtB2_3VecTNtNtCsc29TF2YcYso_3syn3pat3PatNtNtBH_5token5CommaEE3newBH_, symObjAddr: 0x1440, symBinAddr: 0x32990, symSize: 0x14 }
  - { offset: 0xBB33B, size: 0x8, addend: 0x0, symName: __RNvMNtCsiTraAjBDcu4_5alloc3vecINtB2_3VecTNtNtCsc29TF2YcYso_3syn3pat8FieldPatNtNtBH_5token5CommaEE3newBH_, symObjAddr: 0x1454, symBinAddr: 0x329A4, symSize: 0x14 }
  - { offset: 0xBB358, size: 0x8, addend: 0x0, symName: __RNvMNtCsiTraAjBDcu4_5alloc3vecINtB2_3VecTNtNtCsc29TF2YcYso_3syn4data5FieldNtNtBH_5token5CommaEE3newBH_, symObjAddr: 0x1468, symBinAddr: 0x329B8, symSize: 0x14 }
  - { offset: 0xBB375, size: 0x8, addend: 0x0, symName: __RNvMNtCsiTraAjBDcu4_5alloc3vecINtB2_3VecTNtNtCsc29TF2YcYso_3syn4data7VariantNtNtBH_5token5CommaEE3newBH_, symObjAddr: 0x1490, symBinAddr: 0x329CC, symSize: 0x14 }
  - { offset: 0xBB392, size: 0x8, addend: 0x0, symName: __RNvMNtCsiTraAjBDcu4_5alloc3vecINtB2_3VecTNtNtCsc29TF2YcYso_3syn4expr10FieldValueNtNtBH_5token5CommaEE3newBH_, symObjAddr: 0x14A4, symBinAddr: 0x329E0, symSize: 0x14 }
  - { offset: 0xBB3AF, size: 0x8, addend: 0x0, symName: __RNvMNtCsiTraAjBDcu4_5alloc3vecINtB2_3VecTNtNtCsc29TF2YcYso_3syn4expr4ExprNtNtBH_5token5CommaEE3newBH_, symObjAddr: 0x14B8, symBinAddr: 0x329F4, symSize: 0x14 }
  - { offset: 0xBB3CC, size: 0x8, addend: 0x0, symName: __RNvMNtCsiTraAjBDcu4_5alloc3vecINtB2_3VecTNtNtCsc29TF2YcYso_3syn4item5FnArgNtNtBH_5token5CommaEE3newBH_, symObjAddr: 0x14CC, symBinAddr: 0x32A08, symSize: 0x14 }
  - { offset: 0xBB3E9, size: 0x8, addend: 0x0, symName: __RNvMNtCsiTraAjBDcu4_5alloc3vecINtB2_3VecTNtNtCsc29TF2YcYso_3syn4item7UseTreeNtNtBH_5token5CommaEE3newBH_, symObjAddr: 0x14E0, symBinAddr: 0x32A1C, symSize: 0x14 }
  - { offset: 0xBB406, size: 0x8, addend: 0x0, symName: __RNvMNtCsiTraAjBDcu4_5alloc3vecINtB2_3VecTNtNtCsc29TF2YcYso_3syn4path11PathSegmentNtNtBH_5token7PathSepEE3newBH_, symObjAddr: 0x14F4, symBinAddr: 0x32A30, symSize: 0x14 }
  - { offset: 0xBB423, size: 0x8, addend: 0x0, symName: __RNvMNtCsiTraAjBDcu4_5alloc3vecINtB2_3VecTNtNtCsc29TF2YcYso_3syn4path15GenericArgumentNtNtBH_5token5CommaEE3newBH_, symObjAddr: 0x1508, symBinAddr: 0x32A44, symSize: 0x14 }
  - { offset: 0xBB440, size: 0x8, addend: 0x0, symName: __RNvMNtCsiTraAjBDcu4_5alloc3vecINtB2_3VecTNtNtCsc29TF2YcYso_3syn8generics12GenericParamNtNtBH_5token5CommaEE3newBH_, symObjAddr: 0x151C, symBinAddr: 0x32A58, symSize: 0x14 }
  - { offset: 0xBB45D, size: 0x8, addend: 0x0, symName: __RNvMNtCsiTraAjBDcu4_5alloc3vecINtB2_3VecTNtNtCsc29TF2YcYso_3syn8generics13CapturedParamNtNtBH_5token5CommaEE3newBH_, symObjAddr: 0x1530, symBinAddr: 0x32A6C, symSize: 0x14 }
  - { offset: 0xBB47A, size: 0x8, addend: 0x0, symName: __RNvMNtCsiTraAjBDcu4_5alloc3vecINtB2_3VecTNtNtCsc29TF2YcYso_3syn8generics14TypeParamBoundNtNtBH_5token4PlusEE3newBH_, symObjAddr: 0x1544, symBinAddr: 0x32A80, symSize: 0x14 }
  - { offset: 0xBB497, size: 0x8, addend: 0x0, symName: __RNvMNtCsiTraAjBDcu4_5alloc3vecINtB2_3VecTNtNtCsc29TF2YcYso_3syn8generics14WherePredicateNtNtBH_5token5CommaEE3newBH_, symObjAddr: 0x1558, symBinAddr: 0x32A94, symSize: 0x14 }
  - { offset: 0xBB4B4, size: 0x8, addend: 0x0, symName: __RNvMNtCsiTraAjBDcu4_5alloc3vecINtB2_3VecTNtNtCsc29TF2YcYso_3syn8lifetime8LifetimeNtNtBH_5token4PlusEE3newBH_, symObjAddr: 0x156C, symBinAddr: 0x32AA8, symSize: 0x14 }
  - { offset: 0xBB4D1, size: 0x8, addend: 0x0, symName: __RNvMNtCsiTraAjBDcu4_5alloc3vecINtB2_3VechE3newCsc29TF2YcYso_3syn, symObjAddr: 0x1580, symBinAddr: 0x32ABC, symSize: 0x14 }
  - { offset: 0xBB5D5, size: 0x8, addend: 0x0, symName: __RNvMs0_NtCsiTraAjBDcu4_5alloc3vecINtB5_3VechE17extend_from_sliceCsc29TF2YcYso_3syn, symObjAddr: 0x1594, symBinAddr: 0x32AD0, symSize: 0x74 }
  - { offset: 0xBB83F, size: 0x8, addend: 0x0, symName: __RNvMs0_NtCsiTraAjBDcu4_5alloc3vecINtB5_3VechE6resizeCsc29TF2YcYso_3syn, symObjAddr: 0x1608, symBinAddr: 0x32B44, symSize: 0x100 }
  - { offset: 0xBBAE0, size: 0x8, addend: 0x0, symName: __RNvMs2_NtCsiTraAjBDcu4_5alloc3vecINtB5_3VechE11extend_withCsc29TF2YcYso_3syn, symObjAddr: 0x1708, symBinAddr: 0x32C44, symSize: 0x22C }
  - { offset: 0xBBECE, size: 0x8, addend: 0x0, symName: __RNvMs_NtCsiTraAjBDcu4_5alloc3vecINtB4_3VecNtNtCsc29TF2YcYso_3syn4attr9AttributeE15append_elementsBI_, symObjAddr: 0x1934, symBinAddr: 0x32E70, symSize: 0xE0 }
  - { offset: 0xBC13F, size: 0x8, addend: 0x0, symName: __RNvMs_NtCsiTraAjBDcu4_5alloc3vecINtB4_3VecNtNtCsc29TF2YcYso_3syn4attr9AttributeE4pushBI_, symObjAddr: 0x1A14, symBinAddr: 0x32F50, symSize: 0x118 }
  - { offset: 0xBC3DB, size: 0x8, addend: 0x0, symName: __RNvMs_NtCsiTraAjBDcu4_5alloc3vecINtB4_3VecNtNtCsc29TF2YcYso_3syn4attr9AttributeE6appendBI_, symObjAddr: 0x1B2C, symBinAddr: 0x33068, symSize: 0x94 }
  - { offset: 0xBC610, size: 0x8, addend: 0x0, symName: __RNvMs_NtCsiTraAjBDcu4_5alloc3vecINtB4_3VecNtNtCsc29TF2YcYso_3syn4attr9AttributeE7reserveBI_, symObjAddr: 0x1BC0, symBinAddr: 0x330FC, symSize: 0xC8 }
  - { offset: 0xBC7E7, size: 0x8, addend: 0x0, symName: __RNvMs_NtCsiTraAjBDcu4_5alloc3vecINtB4_3VecNtNtCsc29TF2YcYso_3syn4attr9AttributeE8as_sliceBI_, symObjAddr: 0x1C88, symBinAddr: 0x331C4, symSize: 0x6C }
  - { offset: 0xBC8C6, size: 0x8, addend: 0x0, symName: __RNvMs_NtCsiTraAjBDcu4_5alloc3vecINtB4_3VecNtNtCsc29TF2YcYso_3syn4attr9AttributeE8is_emptyBI_, symObjAddr: 0x1CF4, symBinAddr: 0x33230, symSize: 0x20 }
  - { offset: 0xBC926, size: 0x8, addend: 0x0, symName: __RNvMs_NtCsiTraAjBDcu4_5alloc3vecINtB4_3VecNtNtCsc29TF2YcYso_3syn4expr3ArmE3lenBI_, symObjAddr: 0x1DDC, symBinAddr: 0x33250, symSize: 0x18 }
  - { offset: 0xBCA6E, size: 0x8, addend: 0x0, symName: __RNvMs_NtCsiTraAjBDcu4_5alloc3vecINtB4_3VecNtNtCsc29TF2YcYso_3syn4expr3ArmE4pushBI_, symObjAddr: 0x1DF4, symBinAddr: 0x33268, symSize: 0x120 }
  - { offset: 0xBCCBC, size: 0x8, addend: 0x0, symName: __RNvMs_NtCsiTraAjBDcu4_5alloc3vecINtB4_3VecNtNtCsc29TF2YcYso_3syn4expr3ArmE8as_sliceBI_, symObjAddr: 0x1F14, symBinAddr: 0x33388, symSize: 0x6C }
  - { offset: 0xBCED0, size: 0x8, addend: 0x0, symName: __RNvMs_NtCsiTraAjBDcu4_5alloc3vecINtB4_3VecNtNtCsc29TF2YcYso_3syn4expr6ExprIfE3popBI_, symObjAddr: 0x1F80, symBinAddr: 0x333F4, symSize: 0x108 }
  - { offset: 0xBD144, size: 0x8, addend: 0x0, symName: __RNvMs_NtCsiTraAjBDcu4_5alloc3vecINtB4_3VecNtNtCsc29TF2YcYso_3syn4expr6ExprIfE4pushBI_, symObjAddr: 0x2088, symBinAddr: 0x334FC, symSize: 0x120 }
  - { offset: 0xBD40E, size: 0x8, addend: 0x0, symName: __RNvMs_NtCsiTraAjBDcu4_5alloc3vecINtB4_3VecNtNtCsc29TF2YcYso_3syn4item11ForeignItemE4pushBI_, symObjAddr: 0x21A8, symBinAddr: 0x3361C, symSize: 0x120 }
  - { offset: 0xBD6D8, size: 0x8, addend: 0x0, symName: __RNvMs_NtCsiTraAjBDcu4_5alloc3vecINtB4_3VecNtNtCsc29TF2YcYso_3syn4item4ItemE4pushBI_, symObjAddr: 0x22C8, symBinAddr: 0x3373C, symSize: 0x120 }
  - { offset: 0xBD9A2, size: 0x8, addend: 0x0, symName: __RNvMs_NtCsiTraAjBDcu4_5alloc3vecINtB4_3VecNtNtCsc29TF2YcYso_3syn4item8ImplItemE4pushBI_, symObjAddr: 0x23E8, symBinAddr: 0x3385C, symSize: 0x120 }
  - { offset: 0xBDC6C, size: 0x8, addend: 0x0, symName: __RNvMs_NtCsiTraAjBDcu4_5alloc3vecINtB4_3VecNtNtCsc29TF2YcYso_3syn4item9TraitItemE4pushBI_, symObjAddr: 0x2508, symBinAddr: 0x3397C, symSize: 0x120 }
  - { offset: 0xBDF36, size: 0x8, addend: 0x0, symName: __RNvMs_NtCsiTraAjBDcu4_5alloc3vecINtB4_3VecNtNtCsc29TF2YcYso_3syn4stmt4StmtE4pushBI_, symObjAddr: 0x2628, symBinAddr: 0x33A9C, symSize: 0x120 }
  - { offset: 0xBE148, size: 0x8, addend: 0x0, symName: __RNvMs_NtCsiTraAjBDcu4_5alloc3vecINtB4_3VecNtNtCsc29TF2YcYso_3syn5error12ErrorMessageE3lenBI_, symObjAddr: 0x2830, symBinAddr: 0x33BBC, symSize: 0x18 }
  - { offset: 0xBE218, size: 0x8, addend: 0x0, symName: __RNvMs_NtCsiTraAjBDcu4_5alloc3vecINtB4_3VecNtNtCsc29TF2YcYso_3syn5error12ErrorMessageE8as_sliceBI_, symObjAddr: 0x2910, symBinAddr: 0x33BD4, symSize: 0x6C }
  - { offset: 0xBE3FF, size: 0x8, addend: 0x0, symName: __RNvMs_NtCsiTraAjBDcu4_5alloc3vecINtB4_3VecNtNtCsc29TF2YcYso_3syn6buffer5EntryE13shrink_to_fitBI_, symObjAddr: 0x297C, symBinAddr: 0x33C40, symSize: 0xE8 }
  - { offset: 0xBE672, size: 0x8, addend: 0x0, symName: __RNvMs_NtCsiTraAjBDcu4_5alloc3vecINtB4_3VecNtNtCsc29TF2YcYso_3syn6buffer5EntryE16into_boxed_sliceBI_, symObjAddr: 0x2A64, symBinAddr: 0x33D28, symSize: 0x118 }
  - { offset: 0xBE83B, size: 0x8, addend: 0x0, symName: __RNvMs_NtCsiTraAjBDcu4_5alloc3vecINtB4_3VecNtNtCsc29TF2YcYso_3syn6buffer5EntryE3lenBI_, symObjAddr: 0x2B7C, symBinAddr: 0x33E40, symSize: 0x18 }
  - { offset: 0xBE95C, size: 0x8, addend: 0x0, symName: __RNvMs_NtCsiTraAjBDcu4_5alloc3vecINtB4_3VecNtNtCsc29TF2YcYso_3syn6buffer5EntryE4pushBI_, symObjAddr: 0x2B94, symBinAddr: 0x33E58, symSize: 0x100 }
  - { offset: 0xBEC26, size: 0x8, addend: 0x0, symName: __RNvMs_NtCsiTraAjBDcu4_5alloc3vecINtB4_3VecNtNtCsc29TF2YcYso_3syn8generics14TypeParamBoundE7reserveBI_, symObjAddr: 0x2C94, symBinAddr: 0x33F58, symSize: 0xC8 }
  - { offset: 0xBED8D, size: 0x8, addend: 0x0, symName: __RNvMs_NtCsiTraAjBDcu4_5alloc3vecINtB4_3VecReE3lenCsc29TF2YcYso_3syn, symObjAddr: 0x2D5C, symBinAddr: 0x34020, symSize: 0x18 }
  - { offset: 0xBEEA1, size: 0x8, addend: 0x0, symName: __RNvMs_NtCsiTraAjBDcu4_5alloc3vecINtB4_3VecReE4pushCsc29TF2YcYso_3syn, symObjAddr: 0x2D74, symBinAddr: 0x34038, symSize: 0xF4 }
  - { offset: 0xBF0C4, size: 0x8, addend: 0x0, symName: __RNvMs_NtCsiTraAjBDcu4_5alloc3vecINtB4_3VecReE8as_sliceCsc29TF2YcYso_3syn, symObjAddr: 0x2E68, symBinAddr: 0x3412C, symSize: 0x6C }
  - { offset: 0xBF18B, size: 0x8, addend: 0x0, symName: __RNvMs_NtCsiTraAjBDcu4_5alloc3vecINtB4_3VecTNtNtCsc29TF2YcYso_3syn2ty4TypeNtNtBJ_5token5CommaEE3lenBJ_, symObjAddr: 0x2ED4, symBinAddr: 0x34198, symSize: 0x18 }
  - { offset: 0xBF2D3, size: 0x8, addend: 0x0, symName: __RNvMs_NtCsiTraAjBDcu4_5alloc3vecINtB4_3VecTNtNtCsc29TF2YcYso_3syn2ty4TypeNtNtBJ_5token5CommaEE4pushBJ_, symObjAddr: 0x2EEC, symBinAddr: 0x341B0, symSize: 0x120 }
  - { offset: 0xBF521, size: 0x8, addend: 0x0, symName: __RNvMs_NtCsiTraAjBDcu4_5alloc3vecINtB4_3VecTNtNtCsc29TF2YcYso_3syn2ty4TypeNtNtBJ_5token5CommaEE8as_sliceBJ_, symObjAddr: 0x300C, symBinAddr: 0x342D0, symSize: 0x6C }
  - { offset: 0xBF5E8, size: 0x8, addend: 0x0, symName: __RNvMs_NtCsiTraAjBDcu4_5alloc3vecINtB4_3VecTNtNtCsc29TF2YcYso_3syn2ty9BareFnArgNtNtBJ_5token5CommaEE3lenBJ_, symObjAddr: 0x3078, symBinAddr: 0x3433C, symSize: 0x18 }
  - { offset: 0xBF730, size: 0x8, addend: 0x0, symName: __RNvMs_NtCsiTraAjBDcu4_5alloc3vecINtB4_3VecTNtNtCsc29TF2YcYso_3syn2ty9BareFnArgNtNtBJ_5token5CommaEE4pushBJ_, symObjAddr: 0x3090, symBinAddr: 0x34354, symSize: 0x120 }
  - { offset: 0xBF97E, size: 0x8, addend: 0x0, symName: __RNvMs_NtCsiTraAjBDcu4_5alloc3vecINtB4_3VecTNtNtCsc29TF2YcYso_3syn2ty9BareFnArgNtNtBJ_5token5CommaEE8as_sliceBJ_, symObjAddr: 0x31B0, symBinAddr: 0x34474, symSize: 0x6C }
  - { offset: 0xBFB4B, size: 0x8, addend: 0x0, symName: __RNvMs_NtCsiTraAjBDcu4_5alloc3vecINtB4_3VecTNtNtCsc29TF2YcYso_3syn3pat3PatNtNtBJ_5token2OrEE4pushBJ_, symObjAddr: 0x321C, symBinAddr: 0x344E0, symSize: 0x120 }
  - { offset: 0xBFDA6, size: 0x8, addend: 0x0, symName: __RNvMs_NtCsiTraAjBDcu4_5alloc3vecINtB4_3VecTNtNtCsc29TF2YcYso_3syn3pat3PatNtNtBJ_5token2OrEE8as_sliceBJ_, symObjAddr: 0x333C, symBinAddr: 0x34600, symSize: 0x6C }
  - { offset: 0xBFE6D, size: 0x8, addend: 0x0, symName: __RNvMs_NtCsiTraAjBDcu4_5alloc3vecINtB4_3VecTNtNtCsc29TF2YcYso_3syn3pat3PatNtNtBJ_5token5CommaEE3lenBJ_, symObjAddr: 0x33A8, symBinAddr: 0x3466C, symSize: 0x18 }
  - { offset: 0xBFFB5, size: 0x8, addend: 0x0, symName: __RNvMs_NtCsiTraAjBDcu4_5alloc3vecINtB4_3VecTNtNtCsc29TF2YcYso_3syn3pat3PatNtNtBJ_5token5CommaEE4pushBJ_, symObjAddr: 0x33C0, symBinAddr: 0x34684, symSize: 0x120 }
  - { offset: 0xC0203, size: 0x8, addend: 0x0, symName: __RNvMs_NtCsiTraAjBDcu4_5alloc3vecINtB4_3VecTNtNtCsc29TF2YcYso_3syn3pat3PatNtNtBJ_5token5CommaEE8as_sliceBJ_, symObjAddr: 0x34E0, symBinAddr: 0x347A4, symSize: 0x6C }
  - { offset: 0xC03D0, size: 0x8, addend: 0x0, symName: __RNvMs_NtCsiTraAjBDcu4_5alloc3vecINtB4_3VecTNtNtCsc29TF2YcYso_3syn3pat8FieldPatNtNtBJ_5token5CommaEE4pushBJ_, symObjAddr: 0x354C, symBinAddr: 0x34810, symSize: 0x118 }
  - { offset: 0xC0629, size: 0x8, addend: 0x0, symName: __RNvMs_NtCsiTraAjBDcu4_5alloc3vecINtB4_3VecTNtNtCsc29TF2YcYso_3syn3pat8FieldPatNtNtBJ_5token5CommaEE8as_sliceBJ_, symObjAddr: 0x3664, symBinAddr: 0x34928, symSize: 0x6C }
  - { offset: 0xC073E, size: 0x8, addend: 0x0, symName: __RNvMs_NtCsiTraAjBDcu4_5alloc3vecINtB4_3VecTNtNtCsc29TF2YcYso_3syn4data5FieldNtNtBJ_5token5CommaEE3lenBJ_, symObjAddr: 0x373C, symBinAddr: 0x34994, symSize: 0x18 }
  - { offset: 0xC0852, size: 0x8, addend: 0x0, symName: __RNvMs_NtCsiTraAjBDcu4_5alloc3vecINtB4_3VecTNtNtCsc29TF2YcYso_3syn4data5FieldNtNtBJ_5token5CommaEE4pushBJ_, symObjAddr: 0x3754, symBinAddr: 0x349AC, symSize: 0x120 }
  - { offset: 0xC0A97, size: 0x8, addend: 0x0, symName: __RNvMs_NtCsiTraAjBDcu4_5alloc3vecINtB4_3VecTNtNtCsc29TF2YcYso_3syn4data5FieldNtNtBJ_5token5CommaEE8as_sliceBJ_, symObjAddr: 0x3874, symBinAddr: 0x34ACC, symSize: 0x6C }
  - { offset: 0xC0C64, size: 0x8, addend: 0x0, symName: __RNvMs_NtCsiTraAjBDcu4_5alloc3vecINtB4_3VecTNtNtCsc29TF2YcYso_3syn4data7VariantNtNtBJ_5token5CommaEE4pushBJ_, symObjAddr: 0x38F8, symBinAddr: 0x34B38, symSize: 0x120 }
  - { offset: 0xC0EBF, size: 0x8, addend: 0x0, symName: __RNvMs_NtCsiTraAjBDcu4_5alloc3vecINtB4_3VecTNtNtCsc29TF2YcYso_3syn4data7VariantNtNtBJ_5token5CommaEE8as_sliceBJ_, symObjAddr: 0x3A18, symBinAddr: 0x34C58, symSize: 0x6C }
  - { offset: 0xC108C, size: 0x8, addend: 0x0, symName: __RNvMs_NtCsiTraAjBDcu4_5alloc3vecINtB4_3VecTNtNtCsc29TF2YcYso_3syn4expr10FieldValueNtNtBJ_5token5CommaEE4pushBJ_, symObjAddr: 0x3A84, symBinAddr: 0x34CC4, symSize: 0x120 }
  - { offset: 0xC12E7, size: 0x8, addend: 0x0, symName: __RNvMs_NtCsiTraAjBDcu4_5alloc3vecINtB4_3VecTNtNtCsc29TF2YcYso_3syn4expr10FieldValueNtNtBJ_5token5CommaEE8as_sliceBJ_, symObjAddr: 0x3BA4, symBinAddr: 0x34DE4, symSize: 0x6C }
  - { offset: 0xC13AE, size: 0x8, addend: 0x0, symName: __RNvMs_NtCsiTraAjBDcu4_5alloc3vecINtB4_3VecTNtNtCsc29TF2YcYso_3syn4expr4ExprNtNtBJ_5token5CommaEE3lenBJ_, symObjAddr: 0x3C10, symBinAddr: 0x34E50, symSize: 0x18 }
  - { offset: 0xC14F6, size: 0x8, addend: 0x0, symName: __RNvMs_NtCsiTraAjBDcu4_5alloc3vecINtB4_3VecTNtNtCsc29TF2YcYso_3syn4expr4ExprNtNtBJ_5token5CommaEE4pushBJ_, symObjAddr: 0x3C28, symBinAddr: 0x34E68, symSize: 0x120 }
  - { offset: 0xC1744, size: 0x8, addend: 0x0, symName: __RNvMs_NtCsiTraAjBDcu4_5alloc3vecINtB4_3VecTNtNtCsc29TF2YcYso_3syn4expr4ExprNtNtBJ_5token5CommaEE8as_sliceBJ_, symObjAddr: 0x3D48, symBinAddr: 0x34F88, symSize: 0x6C }
  - { offset: 0xC180B, size: 0x8, addend: 0x0, symName: __RNvMs_NtCsiTraAjBDcu4_5alloc3vecINtB4_3VecTNtNtCsc29TF2YcYso_3syn4item5FnArgNtNtBJ_5token5CommaEE3lenBJ_, symObjAddr: 0x3DB4, symBinAddr: 0x34FF4, symSize: 0x18 }
  - { offset: 0xC1953, size: 0x8, addend: 0x0, symName: __RNvMs_NtCsiTraAjBDcu4_5alloc3vecINtB4_3VecTNtNtCsc29TF2YcYso_3syn4item5FnArgNtNtBJ_5token5CommaEE4pushBJ_, symObjAddr: 0x3DCC, symBinAddr: 0x3500C, symSize: 0x120 }
  - { offset: 0xC1BA1, size: 0x8, addend: 0x0, symName: __RNvMs_NtCsiTraAjBDcu4_5alloc3vecINtB4_3VecTNtNtCsc29TF2YcYso_3syn4item5FnArgNtNtBJ_5token5CommaEE8as_sliceBJ_, symObjAddr: 0x3EEC, symBinAddr: 0x3512C, symSize: 0x6C }
  - { offset: 0xC1D6E, size: 0x8, addend: 0x0, symName: __RNvMs_NtCsiTraAjBDcu4_5alloc3vecINtB4_3VecTNtNtCsc29TF2YcYso_3syn4item7UseTreeNtNtBJ_5token5CommaEE4pushBJ_, symObjAddr: 0x3F58, symBinAddr: 0x35198, symSize: 0x118 }
  - { offset: 0xC1FC7, size: 0x8, addend: 0x0, symName: __RNvMs_NtCsiTraAjBDcu4_5alloc3vecINtB4_3VecTNtNtCsc29TF2YcYso_3syn4item7UseTreeNtNtBJ_5token5CommaEE8as_sliceBJ_, symObjAddr: 0x4070, symBinAddr: 0x352B0, symSize: 0x6C }
  - { offset: 0xC215C, size: 0x8, addend: 0x0, symName: __RNvMs_NtCsiTraAjBDcu4_5alloc3vecINtB4_3VecTNtNtCsc29TF2YcYso_3syn4path11PathSegmentNtNtBJ_5token7PathSepEE12as_mut_sliceBJ_, symObjAddr: 0x40DC, symBinAddr: 0x3531C, symSize: 0x6C }
  - { offset: 0xC2238, size: 0x8, addend: 0x0, symName: __RNvMs_NtCsiTraAjBDcu4_5alloc3vecINtB4_3VecTNtNtCsc29TF2YcYso_3syn4path11PathSegmentNtNtBJ_5token7PathSepEE3lenBJ_, symObjAddr: 0x4148, symBinAddr: 0x35388, symSize: 0x18 }
  - { offset: 0xC2386, size: 0x8, addend: 0x0, symName: __RNvMs_NtCsiTraAjBDcu4_5alloc3vecINtB4_3VecTNtNtCsc29TF2YcYso_3syn4path11PathSegmentNtNtBJ_5token7PathSepEE3popBJ_, symObjAddr: 0x4160, symBinAddr: 0x353A0, symSize: 0x10C }
  - { offset: 0xC25FA, size: 0x8, addend: 0x0, symName: __RNvMs_NtCsiTraAjBDcu4_5alloc3vecINtB4_3VecTNtNtCsc29TF2YcYso_3syn4path11PathSegmentNtNtBJ_5token7PathSepEE4pushBJ_, symObjAddr: 0x426C, symBinAddr: 0x354AC, symSize: 0x120 }
  - { offset: 0xC283F, size: 0x8, addend: 0x0, symName: __RNvMs_NtCsiTraAjBDcu4_5alloc3vecINtB4_3VecTNtNtCsc29TF2YcYso_3syn4path11PathSegmentNtNtBJ_5token7PathSepEE8as_sliceBJ_, symObjAddr: 0x438C, symBinAddr: 0x355CC, symSize: 0x6C }
  - { offset: 0xC2906, size: 0x8, addend: 0x0, symName: __RNvMs_NtCsiTraAjBDcu4_5alloc3vecINtB4_3VecTNtNtCsc29TF2YcYso_3syn4path15GenericArgumentNtNtBJ_5token5CommaEE3lenBJ_, symObjAddr: 0x43F8, symBinAddr: 0x35638, symSize: 0x18 }
  - { offset: 0xC2A4E, size: 0x8, addend: 0x0, symName: __RNvMs_NtCsiTraAjBDcu4_5alloc3vecINtB4_3VecTNtNtCsc29TF2YcYso_3syn4path15GenericArgumentNtNtBJ_5token5CommaEE4pushBJ_, symObjAddr: 0x4410, symBinAddr: 0x35650, symSize: 0x120 }
  - { offset: 0xC2C9C, size: 0x8, addend: 0x0, symName: __RNvMs_NtCsiTraAjBDcu4_5alloc3vecINtB4_3VecTNtNtCsc29TF2YcYso_3syn4path15GenericArgumentNtNtBJ_5token5CommaEE8as_sliceBJ_, symObjAddr: 0x4530, symBinAddr: 0x35770, symSize: 0x6C }
  - { offset: 0xC2DBE, size: 0x8, addend: 0x0, symName: __RNvMs_NtCsiTraAjBDcu4_5alloc3vecINtB4_3VecTNtNtCsc29TF2YcYso_3syn8generics12GenericParamNtNtBJ_5token5CommaEE3lenBJ_, symObjAddr: 0x4608, symBinAddr: 0x357DC, symSize: 0x18 }
  - { offset: 0xC2ED2, size: 0x8, addend: 0x0, symName: __RNvMs_NtCsiTraAjBDcu4_5alloc3vecINtB4_3VecTNtNtCsc29TF2YcYso_3syn8generics12GenericParamNtNtBJ_5token5CommaEE4pushBJ_, symObjAddr: 0x4620, symBinAddr: 0x357F4, symSize: 0x120 }
  - { offset: 0xC3117, size: 0x8, addend: 0x0, symName: __RNvMs_NtCsiTraAjBDcu4_5alloc3vecINtB4_3VecTNtNtCsc29TF2YcYso_3syn8generics12GenericParamNtNtBJ_5token5CommaEE8as_sliceBJ_, symObjAddr: 0x4740, symBinAddr: 0x35914, symSize: 0x6C }
  - { offset: 0xC32E4, size: 0x8, addend: 0x0, symName: __RNvMs_NtCsiTraAjBDcu4_5alloc3vecINtB4_3VecTNtNtCsc29TF2YcYso_3syn8generics13CapturedParamNtNtBJ_5token5CommaEE4pushBJ_, symObjAddr: 0x47AC, symBinAddr: 0x35980, symSize: 0x118 }
  - { offset: 0xC353D, size: 0x8, addend: 0x0, symName: __RNvMs_NtCsiTraAjBDcu4_5alloc3vecINtB4_3VecTNtNtCsc29TF2YcYso_3syn8generics13CapturedParamNtNtBJ_5token5CommaEE8as_sliceBJ_, symObjAddr: 0x48C4, symBinAddr: 0x35A98, symSize: 0x6C }
  - { offset: 0xC3604, size: 0x8, addend: 0x0, symName: __RNvMs_NtCsiTraAjBDcu4_5alloc3vecINtB4_3VecTNtNtCsc29TF2YcYso_3syn8generics14TypeParamBoundNtNtBJ_5token4PlusEE3lenBJ_, symObjAddr: 0x4930, symBinAddr: 0x35B04, symSize: 0x18 }
  - { offset: 0xC373F, size: 0x8, addend: 0x0, symName: __RNvMs_NtCsiTraAjBDcu4_5alloc3vecINtB4_3VecTNtNtCsc29TF2YcYso_3syn8generics14TypeParamBoundNtNtBJ_5token4PlusEE4pushBJ_, symObjAddr: 0x4948, symBinAddr: 0x35B1C, symSize: 0x118 }
  - { offset: 0xC398D, size: 0x8, addend: 0x0, symName: __RNvMs_NtCsiTraAjBDcu4_5alloc3vecINtB4_3VecTNtNtCsc29TF2YcYso_3syn8generics14TypeParamBoundNtNtBJ_5token4PlusEE8as_sliceBJ_, symObjAddr: 0x4A60, symBinAddr: 0x35C34, symSize: 0x6C }
  - { offset: 0xC3A54, size: 0x8, addend: 0x0, symName: __RNvMs_NtCsiTraAjBDcu4_5alloc3vecINtB4_3VecTNtNtCsc29TF2YcYso_3syn8generics14WherePredicateNtNtBJ_5token5CommaEE3lenBJ_, symObjAddr: 0x4ACC, symBinAddr: 0x35CA0, symSize: 0x18 }
  - { offset: 0xC3B9C, size: 0x8, addend: 0x0, symName: __RNvMs_NtCsiTraAjBDcu4_5alloc3vecINtB4_3VecTNtNtCsc29TF2YcYso_3syn8generics14WherePredicateNtNtBJ_5token5CommaEE4pushBJ_, symObjAddr: 0x4AE4, symBinAddr: 0x35CB8, symSize: 0x120 }
  - { offset: 0xC3DEA, size: 0x8, addend: 0x0, symName: __RNvMs_NtCsiTraAjBDcu4_5alloc3vecINtB4_3VecTNtNtCsc29TF2YcYso_3syn8generics14WherePredicateNtNtBJ_5token5CommaEE8as_sliceBJ_, symObjAddr: 0x4C04, symBinAddr: 0x35DD8, symSize: 0x6C }
  - { offset: 0xC3EB1, size: 0x8, addend: 0x0, symName: __RNvMs_NtCsiTraAjBDcu4_5alloc3vecINtB4_3VecTNtNtCsc29TF2YcYso_3syn8lifetime8LifetimeNtNtBJ_5token4PlusEE3lenBJ_, symObjAddr: 0x4C70, symBinAddr: 0x35E44, symSize: 0x18 }
  - { offset: 0xC3FF9, size: 0x8, addend: 0x0, symName: __RNvMs_NtCsiTraAjBDcu4_5alloc3vecINtB4_3VecTNtNtCsc29TF2YcYso_3syn8lifetime8LifetimeNtNtBJ_5token4PlusEE4pushBJ_, symObjAddr: 0x4C88, symBinAddr: 0x35E5C, symSize: 0x118 }
  - { offset: 0xC4245, size: 0x8, addend: 0x0, symName: __RNvMs_NtCsiTraAjBDcu4_5alloc3vecINtB4_3VecTNtNtCsc29TF2YcYso_3syn8lifetime8LifetimeNtNtBJ_5token4PlusEE8as_sliceBJ_, symObjAddr: 0x4DA0, symBinAddr: 0x35F74, symSize: 0x6C }
  - { offset: 0xC4405, size: 0x8, addend: 0x0, symName: __RNvMs_NtCsiTraAjBDcu4_5alloc3vecINtB4_3VechE13shrink_to_fitCsc29TF2YcYso_3syn, symObjAddr: 0x4E0C, symBinAddr: 0x35FE0, symSize: 0xE0 }
  - { offset: 0xC4633, size: 0x8, addend: 0x0, symName: __RNvMs_NtCsiTraAjBDcu4_5alloc3vecINtB4_3VechE16into_boxed_sliceCsc29TF2YcYso_3syn, symObjAddr: 0x4EEC, symBinAddr: 0x360C0, symSize: 0x118 }
  - { offset: 0xC47FC, size: 0x8, addend: 0x0, symName: __RNvMs_NtCsiTraAjBDcu4_5alloc3vecINtB4_3VechE3lenCsc29TF2YcYso_3syn, symObjAddr: 0x5004, symBinAddr: 0x361D8, symSize: 0x18 }
  - { offset: 0xC4910, size: 0x8, addend: 0x0, symName: __RNvMs_NtCsiTraAjBDcu4_5alloc3vecINtB4_3VechE4pushCsc29TF2YcYso_3syn, symObjAddr: 0x501C, symBinAddr: 0x361F0, symSize: 0xDC }
  - { offset: 0xC4B32, size: 0x8, addend: 0x0, symName: __RNvMs_NtCsiTraAjBDcu4_5alloc3vecINtB4_3VechE8as_sliceCsc29TF2YcYso_3syn, symObjAddr: 0x50F8, symBinAddr: 0x362CC, symSize: 0x68 }
  - { offset: 0xC4DA2, size: 0x8, addend: 0x0, symName: __RNvMs_NtCsiTraAjBDcu4_5alloc3vecINtB4_3VechE9split_offCsc29TF2YcYso_3syn, symObjAddr: 0x5160, symBinAddr: 0x36334, symSize: 0x148 }
  - { offset: 0xC8FAA, size: 0x8, addend: 0x0, symName: __RINvXNvMNtCsiTraAjBDcu4_5alloc5sliceSp9to_vec_inNtNtCsc29TF2YcYso_3syn4expr3ArmNtB3_10ConvertVec6to_vecNtNtB8_5alloc6GlobalEBO_, symObjAddr: 0x0, symBinAddr: 0x38DB0, symSize: 0x374 }
  - { offset: 0xCA2A0, size: 0x8, addend: 0x0, symName: __RINvXNvMNtCsiTraAjBDcu4_5alloc5sliceSp9to_vec_inNtNtCsc29TF2YcYso_3syn4expr3ArmNtB3_10ConvertVec6to_vecNtNtB8_5alloc6GlobalEBO_, symObjAddr: 0x0, symBinAddr: 0x38DB0, symSize: 0x374 }
  - { offset: 0xCA755, size: 0x8, addend: 0x0, symName: __RINvXNvMNtCsiTraAjBDcu4_5alloc5sliceSp9to_vec_inTNtNtCsc29TF2YcYso_3syn4expr10FieldValueNtNtBP_5token5CommaENtB3_10ConvertVec6to_vecNtNtB8_5alloc6GlobalEBP_, symObjAddr: 0x374, symBinAddr: 0x39124, symSize: 0x374 }
  - { offset: 0xCAC0A, size: 0x8, addend: 0x0, symName: __RINvXNvMNtCsiTraAjBDcu4_5alloc5sliceSp9to_vec_inTNtNtCsc29TF2YcYso_3syn4expr4ExprNtNtBP_5token5CommaENtB3_10ConvertVec6to_vecNtNtB8_5alloc6GlobalEBP_, symObjAddr: 0x6E8, symBinAddr: 0x39498, symSize: 0x374 }
  - { offset: 0xCDC40, size: 0x8, addend: 0x0, symName: __RNvXNtNtCsc29TF2YcYso_3syn4expr7parsingNtB4_4ExprNtNtB6_5parse5Parse5parse, symObjAddr: 0x2C1C, symBinAddr: 0x3A4F8, symSize: 0x3C }
  - { offset: 0xCDC74, size: 0x8, addend: 0x0, symName: __RNvXs4_NtNtCsc29TF2YcYso_3syn4expr7parsingNtB7_7ExprLitNtNtB9_5parse5Parse5parse, symObjAddr: 0x36BC, symBinAddr: 0x3A534, symSize: 0x14C }
  - { offset: 0xCDCC7, size: 0x8, addend: 0x0, symName: __RNvXs7_NtNtCsc29TF2YcYso_3syn4expr7parsingNtB7_6ExprIfNtNtB9_5parse5Parse5parse, symObjAddr: 0x3AF0, symBinAddr: 0x3A680, symSize: 0x1040 }
  - { offset: 0xCDF3E, size: 0x8, addend: 0x0, symName: __RNvXs8_NtNtCsc29TF2YcYso_3syn4expr7parsingNtB7_9ExprInferNtNtB9_5parse5Parse5parse, symObjAddr: 0x4B30, symBinAddr: 0x3B6C0, symSize: 0x1D0 }
  - { offset: 0xCDFCF, size: 0x8, addend: 0x0, symName: __RNvXs9_NtNtCsc29TF2YcYso_3syn4expr7parsingNtB7_11ExprForLoopNtNtB9_5parse5Parse5parse, symObjAddr: 0x4D00, symBinAddr: 0x3B890, symSize: 0x9A4 }
  - { offset: 0xCE29E, size: 0x8, addend: 0x0, symName: __RNvXsa_NtNtCsc29TF2YcYso_3syn4expr7parsingNtB7_8ExprLoopNtNtB9_5parse5Parse5parse, symObjAddr: 0x56A4, symBinAddr: 0x3C234, symSize: 0x590 }
  - { offset: 0xCE451, size: 0x8, addend: 0x0, symName: __RNvXsb_NtNtCsc29TF2YcYso_3syn4expr7parsingNtB7_9ExprMatchNtNtB9_5parse5Parse5parse, symObjAddr: 0x5C34, symBinAddr: 0x3C7C4, symSize: 0x60C }
  - { offset: 0xCE642, size: 0x8, addend: 0x0, symName: __RNvXsh_NtNtCsc29TF2YcYso_3syn4expr7parsingNtB7_10ExprReturnNtNtB9_5parse5Parse5parse, symObjAddr: 0x6A7C, symBinAddr: 0x3CDD0, symSize: 0x210 }
  - { offset: 0xCE6A4, size: 0x8, addend: 0x0, symName: __RNvXsi_NtNtCsc29TF2YcYso_3syn4expr7parsingNtB7_12ExprTryBlockNtNtB9_5parse5Parse5parse, symObjAddr: 0x6C8C, symBinAddr: 0x3CFE0, symSize: 0x220 }
  - { offset: 0xCE716, size: 0x8, addend: 0x0, symName: __RNvXsj_NtNtCsc29TF2YcYso_3syn4expr7parsingNtB7_9ExprYieldNtNtB9_5parse5Parse5parse, symObjAddr: 0x6EAC, symBinAddr: 0x3D200, symSize: 0x210 }
  - { offset: 0xCE778, size: 0x8, addend: 0x0, symName: __RNvXsk_NtNtCsc29TF2YcYso_3syn4expr7parsingNtB7_9ExprAsyncNtNtB9_5parse5Parse5parse, symObjAddr: 0x70BC, symBinAddr: 0x3D410, symSize: 0x2E8 }
  - { offset: 0xCE809, size: 0x8, addend: 0x0, symName: __RNvXsl_NtNtCsc29TF2YcYso_3syn4expr7parsingNtB7_9ExprWhileNtNtB9_5parse5Parse5parse, symObjAddr: 0x73A4, symBinAddr: 0x3D6F8, symSize: 0x760 }
  - { offset: 0xCEA3F, size: 0x8, addend: 0x0, symName: __RNvXsm_NtNtCsc29TF2YcYso_3syn4expr7parsingNtB7_9ExprConstNtNtB9_5parse5Parse5parse, symObjAddr: 0x7B04, symBinAddr: 0x3DE58, symSize: 0x3BC }
  - { offset: 0xCEB95, size: 0x8, addend: 0x0, symName: __RNvXsn_NtNtCsc29TF2YcYso_3syn4expr7parsingNtB7_5LabelNtNtB9_5parse5Parse5parse, symObjAddr: 0x7EC0, symBinAddr: 0x3E214, symSize: 0x1D4 }
  - { offset: 0xCEC26, size: 0x8, addend: 0x0, symName: __RNvXsp_NtNtCsc29TF2YcYso_3syn4expr7parsingNtB7_12ExprContinueNtNtB9_5parse5Parse5parse, symObjAddr: 0x8094, symBinAddr: 0x3E3E8, symSize: 0x200 }
  - { offset: 0xCEC98, size: 0x8, addend: 0x0, symName: __RNvXsq_NtNtCsc29TF2YcYso_3syn4expr7parsingNtB7_10FieldValueNtNtB9_5parse5Parse5parse, symObjAddr: 0x8294, symBinAddr: 0x3E5E8, symSize: 0x560 }
  - { offset: 0xCEE37, size: 0x8, addend: 0x0, symName: __RNvXss_NtNtCsc29TF2YcYso_3syn4expr7parsingNtB7_10ExprUnsafeNtNtB9_5parse5Parse5parse, symObjAddr: 0x89B4, symBinAddr: 0x3EB48, symSize: 0x3BC }
  - { offset: 0xCEF8D, size: 0x8, addend: 0x0, symName: __RNvXst_NtNtCsc29TF2YcYso_3syn4expr7parsingNtB7_9ExprBlockNtNtB9_5parse5Parse5parse, symObjAddr: 0x8D70, symBinAddr: 0x3EF04, symSize: 0x4FC }
  - { offset: 0xCF113, size: 0x8, addend: 0x0, symName: __RNvXsu_NtNtCsc29TF2YcYso_3syn4expr7parsingNtB7_11RangeLimitsNtNtB9_5parse5Parse5parse, symObjAddr: 0x926C, symBinAddr: 0x3F400, symSize: 0x234 }
  - { offset: 0xCF1A1, size: 0x8, addend: 0x0, symName: __RNvXsw_NtNtCsc29TF2YcYso_3syn4expr7parsingNtB7_8ExprPathNtNtB9_5parse5Parse5parse, symObjAddr: 0x97D4, symBinAddr: 0x3F968, symSize: 0x238 }
  - { offset: 0xCF28F, size: 0x8, addend: 0x0, symName: __RNvXsx_NtNtCsc29TF2YcYso_3syn4expr7parsingNtB7_6MemberNtNtB9_5parse5Parse5parse, symObjAddr: 0x9A0C, symBinAddr: 0x3FBA0, symSize: 0xFC }
  - { offset: 0xCF2C3, size: 0x8, addend: 0x0, symName: __RNvXsz_NtNtCsc29TF2YcYso_3syn4expr7parsingNtB7_3ArmNtNtB9_5parse5Parse5parse, symObjAddr: 0x9CCC, symBinAddr: 0x3FE60, symSize: 0x8EC }
  - { offset: 0xCF4FB, size: 0x8, addend: 0x0, symName: __RNvXsA_NtNtCsc29TF2YcYso_3syn4expr7parsingNtB7_5IndexNtNtB9_5parse5Parse5parse, symObjAddr: 0xA5B8, symBinAddr: 0x4074C, symSize: 0x28C }
  - { offset: 0xCF5A9, size: 0x8, addend: 0x0, symName: __RNvXNtNtCsc29TF2YcYso_3syn4expr8printingNtB4_9ExprArrayNtNtCs4EAaWzSXu1l_5quote9to_tokens8ToTokens9to_tokens, symObjAddr: 0xAAFC, symBinAddr: 0x409D8, symSize: 0x58 }
  - { offset: 0xCF5E8, size: 0x8, addend: 0x0, symName: __RNvXs_NtNtCsc29TF2YcYso_3syn4expr8printingNtB6_10ExprAssignNtNtCs4EAaWzSXu1l_5quote9to_tokens8ToTokens9to_tokens, symObjAddr: 0xAB54, symBinAddr: 0x40A30, symSize: 0x58 }
  - { offset: 0xCF627, size: 0x8, addend: 0x0, symName: __RNvXs0_NtNtCsc29TF2YcYso_3syn4expr8printingNtB7_9ExprAsyncNtNtCs4EAaWzSXu1l_5quote9to_tokens8ToTokens9to_tokens, symObjAddr: 0xABAC, symBinAddr: 0x40A88, symSize: 0x74 }
  - { offset: 0xCF666, size: 0x8, addend: 0x0, symName: __RNvXs1_NtNtCsc29TF2YcYso_3syn4expr8printingNtB7_9ExprAwaitNtNtCs4EAaWzSXu1l_5quote9to_tokens8ToTokens9to_tokens, symObjAddr: 0xAC20, symBinAddr: 0x40AFC, symSize: 0x58 }
  - { offset: 0xCF6A5, size: 0x8, addend: 0x0, symName: __RNvXs2_NtNtCsc29TF2YcYso_3syn4expr8printingNtB7_10ExprBinaryNtNtCs4EAaWzSXu1l_5quote9to_tokens8ToTokens9to_tokens, symObjAddr: 0xAC78, symBinAddr: 0x40B54, symSize: 0x58 }
  - { offset: 0xCF6E4, size: 0x8, addend: 0x0, symName: __RNvXs3_NtNtCsc29TF2YcYso_3syn4expr8printingNtB7_9ExprBlockNtNtCs4EAaWzSXu1l_5quote9to_tokens8ToTokens9to_tokens, symObjAddr: 0xACD0, symBinAddr: 0x40BAC, symSize: 0x68 }
  - { offset: 0xCF723, size: 0x8, addend: 0x0, symName: __RNvXs4_NtNtCsc29TF2YcYso_3syn4expr8printingNtB7_9ExprBreakNtNtCs4EAaWzSXu1l_5quote9to_tokens8ToTokens9to_tokens, symObjAddr: 0xAD38, symBinAddr: 0x40C14, symSize: 0x58 }
  - { offset: 0xCF762, size: 0x8, addend: 0x0, symName: __RNvXs5_NtNtCsc29TF2YcYso_3syn4expr8printingNtB7_8ExprCallNtNtCs4EAaWzSXu1l_5quote9to_tokens8ToTokens9to_tokens, symObjAddr: 0xAD90, symBinAddr: 0x40C6C, symSize: 0x58 }
  - { offset: 0xCF7A1, size: 0x8, addend: 0x0, symName: __RNvXs6_NtNtCsc29TF2YcYso_3syn4expr8printingNtB7_8ExprCastNtNtCs4EAaWzSXu1l_5quote9to_tokens8ToTokens9to_tokens, symObjAddr: 0xADE8, symBinAddr: 0x40CC4, symSize: 0x58 }
  - { offset: 0xCF7E0, size: 0x8, addend: 0x0, symName: __RNvXs7_NtNtCsc29TF2YcYso_3syn4expr8printingNtB7_11ExprClosureNtNtCs4EAaWzSXu1l_5quote9to_tokens8ToTokens9to_tokens, symObjAddr: 0xAE40, symBinAddr: 0x40D1C, symSize: 0x58 }
  - { offset: 0xCF81F, size: 0x8, addend: 0x0, symName: __RNvXs8_NtNtCsc29TF2YcYso_3syn4expr8printingNtB7_9ExprConstNtNtCs4EAaWzSXu1l_5quote9to_tokens8ToTokens9to_tokens, symObjAddr: 0xAE98, symBinAddr: 0x40D74, symSize: 0x68 }
  - { offset: 0xCF85E, size: 0x8, addend: 0x0, symName: __RNvXs9_NtNtCsc29TF2YcYso_3syn4expr8printingNtB7_12ExprContinueNtNtCs4EAaWzSXu1l_5quote9to_tokens8ToTokens9to_tokens, symObjAddr: 0xAF00, symBinAddr: 0x40DDC, symSize: 0x64 }
  - { offset: 0xCF89D, size: 0x8, addend: 0x0, symName: __RNvXsa_NtNtCsc29TF2YcYso_3syn4expr8printingNtB7_9ExprFieldNtNtCs4EAaWzSXu1l_5quote9to_tokens8ToTokens9to_tokens, symObjAddr: 0xAF64, symBinAddr: 0x40E40, symSize: 0x58 }
  - { offset: 0xCF8DC, size: 0x8, addend: 0x0, symName: __RNvXsb_NtNtCsc29TF2YcYso_3syn4expr8printingNtB7_11ExprForLoopNtNtCs4EAaWzSXu1l_5quote9to_tokens8ToTokens9to_tokens, symObjAddr: 0xAFBC, symBinAddr: 0x40E98, symSize: 0x104 }
  - { offset: 0xCF91B, size: 0x8, addend: 0x0, symName: __RNvXsc_NtNtCsc29TF2YcYso_3syn4expr8printingNtB7_9ExprGroupNtNtCs4EAaWzSXu1l_5quote9to_tokens8ToTokens9to_tokens, symObjAddr: 0xB0C0, symBinAddr: 0x40F9C, symSize: 0x58 }
  - { offset: 0xCF95A, size: 0x8, addend: 0x0, symName: __RNvXsd_NtNtCsc29TF2YcYso_3syn4expr8printingNtB7_6ExprIfNtNtCs4EAaWzSXu1l_5quote9to_tokens8ToTokens9to_tokens, symObjAddr: 0xB118, symBinAddr: 0x40FF4, symSize: 0x260 }
  - { offset: 0xCFA30, size: 0x8, addend: 0x0, symName: __RNvXse_NtNtCsc29TF2YcYso_3syn4expr8printingNtB7_9ExprIndexNtNtCs4EAaWzSXu1l_5quote9to_tokens8ToTokens9to_tokens, symObjAddr: 0xB378, symBinAddr: 0x41254, symSize: 0x58 }
  - { offset: 0xCFA6F, size: 0x8, addend: 0x0, symName: __RNvXsf_NtNtCsc29TF2YcYso_3syn4expr8printingNtB7_9ExprInferNtNtCs4EAaWzSXu1l_5quote9to_tokens8ToTokens9to_tokens, symObjAddr: 0xB3D0, symBinAddr: 0x412AC, symSize: 0x54 }
  - { offset: 0xCFAAE, size: 0x8, addend: 0x0, symName: __RNvXsg_NtNtCsc29TF2YcYso_3syn4expr8printingNtB7_7ExprLetNtNtCs4EAaWzSXu1l_5quote9to_tokens8ToTokens9to_tokens, symObjAddr: 0xB424, symBinAddr: 0x41300, symSize: 0x58 }
  - { offset: 0xCFAED, size: 0x8, addend: 0x0, symName: __RNvXsh_NtNtCsc29TF2YcYso_3syn4expr8printingNtB7_7ExprLitNtNtCs4EAaWzSXu1l_5quote9to_tokens8ToTokens9to_tokens, symObjAddr: 0xB47C, symBinAddr: 0x41358, symSize: 0x54 }
  - { offset: 0xCFB2C, size: 0x8, addend: 0x0, symName: __RNvXsi_NtNtCsc29TF2YcYso_3syn4expr8printingNtB7_8ExprLoopNtNtCs4EAaWzSXu1l_5quote9to_tokens8ToTokens9to_tokens, symObjAddr: 0xB4D0, symBinAddr: 0x413AC, symSize: 0x78 }
  - { offset: 0xCFB6B, size: 0x8, addend: 0x0, symName: __RNvXsj_NtNtCsc29TF2YcYso_3syn4expr8printingNtB7_9ExprMacroNtNtCs4EAaWzSXu1l_5quote9to_tokens8ToTokens9to_tokens, symObjAddr: 0xB548, symBinAddr: 0x41424, symSize: 0x54 }
  - { offset: 0xCFBAA, size: 0x8, addend: 0x0, symName: __RNvXsk_NtNtCsc29TF2YcYso_3syn4expr8printingNtB7_9ExprMatchNtNtCs4EAaWzSXu1l_5quote9to_tokens8ToTokens9to_tokens, symObjAddr: 0xB59C, symBinAddr: 0x41478, symSize: 0xD4 }
  - { offset: 0xCFBE9, size: 0x8, addend: 0x0, symName: __RNvXsl_NtNtCsc29TF2YcYso_3syn4expr8printingNtB7_14ExprMethodCallNtNtCs4EAaWzSXu1l_5quote9to_tokens8ToTokens9to_tokens, symObjAddr: 0xB670, symBinAddr: 0x4154C, symSize: 0x58 }
  - { offset: 0xCFC28, size: 0x8, addend: 0x0, symName: __RNvXsm_NtNtCsc29TF2YcYso_3syn4expr8printingNtB7_9ExprParenNtNtCs4EAaWzSXu1l_5quote9to_tokens8ToTokens9to_tokens, symObjAddr: 0xB6C8, symBinAddr: 0x415A4, symSize: 0x58 }
  - { offset: 0xCFC67, size: 0x8, addend: 0x0, symName: __RNvXsn_NtNtCsc29TF2YcYso_3syn4expr8printingNtB7_8ExprPathNtNtCs4EAaWzSXu1l_5quote9to_tokens8ToTokens9to_tokens, symObjAddr: 0xB720, symBinAddr: 0x415FC, symSize: 0x64 }
  - { offset: 0xCFCA6, size: 0x8, addend: 0x0, symName: __RNvXso_NtNtCsc29TF2YcYso_3syn4expr8printingNtB7_9ExprRangeNtNtCs4EAaWzSXu1l_5quote9to_tokens8ToTokens9to_tokens, symObjAddr: 0xB784, symBinAddr: 0x41660, symSize: 0x58 }
  - { offset: 0xCFCE5, size: 0x8, addend: 0x0, symName: __RNvXsp_NtNtCsc29TF2YcYso_3syn4expr8printingNtB7_11ExprRawAddrNtNtCs4EAaWzSXu1l_5quote9to_tokens8ToTokens9to_tokens, symObjAddr: 0xB7DC, symBinAddr: 0x416B8, symSize: 0x58 }
  - { offset: 0xCFD24, size: 0x8, addend: 0x0, symName: __RNvXsq_NtNtCsc29TF2YcYso_3syn4expr8printingNtB7_13ExprReferenceNtNtCs4EAaWzSXu1l_5quote9to_tokens8ToTokens9to_tokens, symObjAddr: 0xB834, symBinAddr: 0x41710, symSize: 0x58 }
  - { offset: 0xCFD63, size: 0x8, addend: 0x0, symName: __RNvXsr_NtNtCsc29TF2YcYso_3syn4expr8printingNtB7_10ExprRepeatNtNtCs4EAaWzSXu1l_5quote9to_tokens8ToTokens9to_tokens, symObjAddr: 0xB88C, symBinAddr: 0x41768, symSize: 0x58 }
  - { offset: 0xCFDA2, size: 0x8, addend: 0x0, symName: __RNvXss_NtNtCsc29TF2YcYso_3syn4expr8printingNtB7_10ExprReturnNtNtCs4EAaWzSXu1l_5quote9to_tokens8ToTokens9to_tokens, symObjAddr: 0xB8E4, symBinAddr: 0x417C0, symSize: 0x58 }
  - { offset: 0xCFDE1, size: 0x8, addend: 0x0, symName: __RNvXst_NtNtCsc29TF2YcYso_3syn4expr8printingNtB7_10ExprStructNtNtCs4EAaWzSXu1l_5quote9to_tokens8ToTokens9to_tokens, symObjAddr: 0xB93C, symBinAddr: 0x41818, symSize: 0x78 }
  - { offset: 0xCFE20, size: 0x8, addend: 0x0, symName: __RNvXsu_NtNtCsc29TF2YcYso_3syn4expr8printingNtB7_7ExprTryNtNtCs4EAaWzSXu1l_5quote9to_tokens8ToTokens9to_tokens, symObjAddr: 0xB9B4, symBinAddr: 0x41890, symSize: 0x58 }
  - { offset: 0xCFE5F, size: 0x8, addend: 0x0, symName: __RNvXsv_NtNtCsc29TF2YcYso_3syn4expr8printingNtB7_12ExprTryBlockNtNtCs4EAaWzSXu1l_5quote9to_tokens8ToTokens9to_tokens, symObjAddr: 0xBA0C, symBinAddr: 0x418E8, symSize: 0x64 }
  - { offset: 0xCFE9E, size: 0x8, addend: 0x0, symName: __RNvXsw_NtNtCsc29TF2YcYso_3syn4expr8printingNtB7_9ExprTupleNtNtCs4EAaWzSXu1l_5quote9to_tokens8ToTokens9to_tokens, symObjAddr: 0xBA70, symBinAddr: 0x4194C, symSize: 0x58 }
  - { offset: 0xCFEDD, size: 0x8, addend: 0x0, symName: __RNvXsx_NtNtCsc29TF2YcYso_3syn4expr8printingNtB7_9ExprUnaryNtNtCs4EAaWzSXu1l_5quote9to_tokens8ToTokens9to_tokens, symObjAddr: 0xBAC8, symBinAddr: 0x419A4, symSize: 0x58 }
  - { offset: 0xCFF1C, size: 0x8, addend: 0x0, symName: __RNvXsy_NtNtCsc29TF2YcYso_3syn4expr8printingNtB7_10ExprUnsafeNtNtCs4EAaWzSXu1l_5quote9to_tokens8ToTokens9to_tokens, symObjAddr: 0xBB20, symBinAddr: 0x419FC, symSize: 0x68 }
  - { offset: 0xCFF5B, size: 0x8, addend: 0x0, symName: __RNvXsz_NtNtCsc29TF2YcYso_3syn4expr8printingNtB7_9ExprWhileNtNtCs4EAaWzSXu1l_5quote9to_tokens8ToTokens9to_tokens, symObjAddr: 0xBB88, symBinAddr: 0x41A64, symSize: 0xE4 }
  - { offset: 0xCFF9A, size: 0x8, addend: 0x0, symName: __RNvXsA_NtNtCsc29TF2YcYso_3syn4expr8printingNtB7_9ExprYieldNtNtCs4EAaWzSXu1l_5quote9to_tokens8ToTokens9to_tokens, symObjAddr: 0xBC6C, symBinAddr: 0x41B48, symSize: 0x58 }
  - { offset: 0xCFFD9, size: 0x8, addend: 0x0, symName: __RNvXsB_NtNtCsc29TF2YcYso_3syn4expr8printingNtB7_3ArmNtNtCs4EAaWzSXu1l_5quote9to_tokens8ToTokens9to_tokens, symObjAddr: 0xBCC4, symBinAddr: 0x41BA0, symSize: 0x14C }
  - { offset: 0xD0046, size: 0x8, addend: 0x0, symName: __RNvXsC_NtNtCsc29TF2YcYso_3syn4expr8printingNtB7_10FieldValueNtNtCs4EAaWzSXu1l_5quote9to_tokens8ToTokens9to_tokens, symObjAddr: 0xBE10, symBinAddr: 0x41CEC, symSize: 0xB4 }
  - { offset: 0xD00A3, size: 0x8, addend: 0x0, symName: __RNvXsD_NtNtCsc29TF2YcYso_3syn4expr8printingNtB7_5IndexNtNtCs4EAaWzSXu1l_5quote9to_tokens8ToTokens9to_tokens, symObjAddr: 0xBEC4, symBinAddr: 0x41DA0, symSize: 0xD4 }
  - { offset: 0xD00F8, size: 0x8, addend: 0x0, symName: __RNvXsE_NtNtCsc29TF2YcYso_3syn4expr8printingNtB7_5LabelNtNtCs4EAaWzSXu1l_5quote9to_tokens8ToTokens9to_tokens, symObjAddr: 0xBF98, symBinAddr: 0x41E74, symSize: 0x50 }
  - { offset: 0xD0137, size: 0x8, addend: 0x0, symName: __RNvXsF_NtNtCsc29TF2YcYso_3syn4expr8printingNtB7_6MemberNtNtCs4EAaWzSXu1l_5quote9to_tokens8ToTokens9to_tokens, symObjAddr: 0xBFE8, symBinAddr: 0x41EC4, symSize: 0x98 }
  - { offset: 0xD01AA, size: 0x8, addend: 0x0, symName: __RNvXsG_NtNtCsc29TF2YcYso_3syn4expr8printingNtB7_11RangeLimitsNtNtCs4EAaWzSXu1l_5quote9to_tokens8ToTokens9to_tokens, symObjAddr: 0xC080, symBinAddr: 0x41F5C, symSize: 0x9C }
  - { offset: 0xD021D, size: 0x8, addend: 0x0, symName: __RNvXsH_NtNtCsc29TF2YcYso_3syn4expr8printingNtB7_17PointerMutabilityNtNtCs4EAaWzSXu1l_5quote9to_tokens8ToTokens9to_tokens, symObjAddr: 0xC11C, symBinAddr: 0x41FF8, symSize: 0x9C }
  - { offset: 0xD0296, size: 0x8, addend: 0x0, symName: __RNcNtNtNtCsc29TF2YcYso_3syn4expr4Expr5Async0B7_, symObjAddr: 0xC1B8, symBinAddr: 0x42094, symSize: 0x3C }
  - { offset: 0xD02C5, size: 0x8, addend: 0x0, symName: __RNcNtNtNtCsc29TF2YcYso_3syn4expr4Expr5Block0B7_, symObjAddr: 0xC1F4, symBinAddr: 0x420D0, symSize: 0x3C }
  - { offset: 0xD02F4, size: 0x8, addend: 0x0, symName: __RNcNtNtNtCsc29TF2YcYso_3syn4expr4Expr5Break0B7_, symObjAddr: 0xC230, symBinAddr: 0x4210C, symSize: 0x3C }
  - { offset: 0xD0323, size: 0x8, addend: 0x0, symName: __RNcNtNtNtCsc29TF2YcYso_3syn4expr4Expr7Closure0B7_, symObjAddr: 0xC26C, symBinAddr: 0x42148, symSize: 0x3C }
  - { offset: 0xD0352, size: 0x8, addend: 0x0, symName: __RNcNtNtNtCsc29TF2YcYso_3syn4expr4Expr5Const0B7_, symObjAddr: 0xC2A8, symBinAddr: 0x42184, symSize: 0x3C }
  - { offset: 0xD0381, size: 0x8, addend: 0x0, symName: __RNcNtNtNtCsc29TF2YcYso_3syn4expr4Expr8Continue0B7_, symObjAddr: 0xC2E4, symBinAddr: 0x421C0, symSize: 0x3C }
  - { offset: 0xD03B0, size: 0x8, addend: 0x0, symName: __RNcNtNtNtCsc29TF2YcYso_3syn4expr4Expr7ForLoop0B7_, symObjAddr: 0xC320, symBinAddr: 0x421FC, symSize: 0x3C }
  - { offset: 0xD03DF, size: 0x8, addend: 0x0, symName: __RNcNtNtNtCsc29TF2YcYso_3syn4expr4Expr2If0B7_, symObjAddr: 0xC35C, symBinAddr: 0x42238, symSize: 0x3C }
  - { offset: 0xD040E, size: 0x8, addend: 0x0, symName: __RNcNtNtNtCsc29TF2YcYso_3syn4expr4Expr5Infer0B7_, symObjAddr: 0xC398, symBinAddr: 0x42274, symSize: 0x20 }
  - { offset: 0xD043C, size: 0x8, addend: 0x0, symName: __RNcNtNtNtCsc29TF2YcYso_3syn4expr4Expr3Let0B7_, symObjAddr: 0xC3B8, symBinAddr: 0x42294, symSize: 0x3C }
  - { offset: 0xD046B, size: 0x8, addend: 0x0, symName: __RNcNtNtNtCsc29TF2YcYso_3syn4expr4Expr3Lit0B7_, symObjAddr: 0xC3F4, symBinAddr: 0x422D0, symSize: 0x3C }
  - { offset: 0xD049A, size: 0x8, addend: 0x0, symName: __RNcNtNtNtCsc29TF2YcYso_3syn4expr4Expr4Loop0B7_, symObjAddr: 0xC430, symBinAddr: 0x4230C, symSize: 0x3C }
  - { offset: 0xD04C9, size: 0x8, addend: 0x0, symName: __RNcNtNtNtCsc29TF2YcYso_3syn4expr4Expr5Match0B7_, symObjAddr: 0xC46C, symBinAddr: 0x42348, symSize: 0x3C }
  - { offset: 0xD04F8, size: 0x8, addend: 0x0, symName: __RNcNtNtNtCsc29TF2YcYso_3syn4expr4Expr5Range0B7_, symObjAddr: 0xC4A8, symBinAddr: 0x42384, symSize: 0x3C }
  - { offset: 0xD0527, size: 0x8, addend: 0x0, symName: __RNcNtNtNtCsc29TF2YcYso_3syn4expr4Expr6Return0B7_, symObjAddr: 0xC4E4, symBinAddr: 0x423C0, symSize: 0x3C }
  - { offset: 0xD0556, size: 0x8, addend: 0x0, symName: __RNcNtNtNtCsc29TF2YcYso_3syn4expr4Expr6Struct0B7_, symObjAddr: 0xC520, symBinAddr: 0x423FC, symSize: 0x3C }
  - { offset: 0xD0585, size: 0x8, addend: 0x0, symName: __RNcNtNtNtCsc29TF2YcYso_3syn4expr4Expr8TryBlock0B7_, symObjAddr: 0xC55C, symBinAddr: 0x42438, symSize: 0x3C }
  - { offset: 0xD05B4, size: 0x8, addend: 0x0, symName: __RNcNtNtNtCsc29TF2YcYso_3syn4expr4Expr5Unary0B7_, symObjAddr: 0xC598, symBinAddr: 0x42474, symSize: 0x3C }
  - { offset: 0xD05E3, size: 0x8, addend: 0x0, symName: __RNcNtNtNtCsc29TF2YcYso_3syn4expr4Expr6Unsafe0B7_, symObjAddr: 0xC5D4, symBinAddr: 0x424B0, symSize: 0x3C }
  - { offset: 0xD0612, size: 0x8, addend: 0x0, symName: __RNcNtNtNtCsc29TF2YcYso_3syn4expr4Expr5While0B7_, symObjAddr: 0xC610, symBinAddr: 0x424EC, symSize: 0x3C }
  - { offset: 0xD0641, size: 0x8, addend: 0x0, symName: __RNcNtNtNtCsc29TF2YcYso_3syn4expr4Expr5Yield0B7_, symObjAddr: 0xC64C, symBinAddr: 0x42528, symSize: 0x3C }
  - { offset: 0xD0671, size: 0x8, addend: 0x0, symName: __RNvXsP_NtCsc29TF2YcYso_3syn4exprNtB5_4ExprNtNtCs4EAaWzSXu1l_5quote9to_tokens8ToTokens9to_tokens, symObjAddr: 0xD200, symBinAddr: 0x42564, symSize: 0x4CC }
  - { offset: 0xD0B5A, size: 0x8, addend: 0x0, symName: __RNcNtNtNtCsc29TF2YcYso_3syn4expr6Member5Named0B7_, symObjAddr: 0xD6CC, symBinAddr: 0x42A30, symSize: 0x18 }
  - { offset: 0xD0B8A, size: 0x8, addend: 0x0, symName: __RNcNtNtNtCsc29TF2YcYso_3syn4expr6Member7Unnamed0B7_, symObjAddr: 0xD6E4, symBinAddr: 0x42A48, symSize: 0x28 }
  - { offset: 0xD0BC0, size: 0x8, addend: 0x0, symName: __RNcNtNtNtCsc29TF2YcYso_3syn4expr11RangeLimits8HalfOpen0B7_, symObjAddr: 0xD70C, symBinAddr: 0x42A70, symSize: 0x24 }
  - { offset: 0xD0BF0, size: 0x8, addend: 0x0, symName: __RNcNtNtNtCsc29TF2YcYso_3syn4expr11RangeLimits6Closed0B7_, symObjAddr: 0xD730, symBinAddr: 0x42A94, symSize: 0x20 }
  - { offset: 0xD35A8, size: 0x8, addend: 0x0, symName: __RNvXs0_NtNtCsc29TF2YcYso_3syn3gen5cloneNtNtB9_4expr3ArmNtNtCsaNl6UpbT7bw_4core5clone5Clone5clone, symObjAddr: 0x10720, symBinAddr: 0x42AB4, symSize: 0x1BC }
  - { offset: 0xD35DA, size: 0x8, addend: 0x0, symName: __RNvXsk_NtNtCsc29TF2YcYso_3syn3gen5cloneNtNtB9_4expr4ExprNtNtCsaNl6UpbT7bw_4core5clone5Clone5clone, symObjAddr: 0x108DC, symBinAddr: 0x42C70, symSize: 0xE1C }
  - { offset: 0xD3ACF, size: 0x8, addend: 0x0, symName: __RNvXsl_NtNtCsc29TF2YcYso_3syn3gen5cloneNtNtB9_4expr9ExprArrayNtNtCsaNl6UpbT7bw_4core5clone5Clone5clone, symObjAddr: 0x116F8, symBinAddr: 0x43A8C, symSize: 0xC8 }
  - { offset: 0xD3B03, size: 0x8, addend: 0x0, symName: __RNvXsm_NtNtCsc29TF2YcYso_3syn3gen5cloneNtNtB9_4expr10ExprAssignNtNtCsaNl6UpbT7bw_4core5clone5Clone5clone, symObjAddr: 0x117C0, symBinAddr: 0x43B54, symSize: 0x108 }
  - { offset: 0xD3B37, size: 0x8, addend: 0x0, symName: __RNvXsn_NtNtCsc29TF2YcYso_3syn3gen5cloneNtNtB9_4expr9ExprAsyncNtNtCsaNl6UpbT7bw_4core5clone5Clone5clone, symObjAddr: 0x118C8, symBinAddr: 0x43C5C, symSize: 0xEC }
  - { offset: 0xD3B6B, size: 0x8, addend: 0x0, symName: __RNvXso_NtNtCsc29TF2YcYso_3syn3gen5cloneNtNtB9_4expr9ExprAwaitNtNtCsaNl6UpbT7bw_4core5clone5Clone5clone, symObjAddr: 0x119B4, symBinAddr: 0x43D48, symSize: 0x108 }
  - { offset: 0xD3B9F, size: 0x8, addend: 0x0, symName: __RNvXsp_NtNtCsc29TF2YcYso_3syn3gen5cloneNtNtB9_4expr10ExprBinaryNtNtCsaNl6UpbT7bw_4core5clone5Clone5clone, symObjAddr: 0x11ABC, symBinAddr: 0x43E50, symSize: 0xF8 }
  - { offset: 0xD3BD3, size: 0x8, addend: 0x0, symName: __RNvXsq_NtNtCsc29TF2YcYso_3syn3gen5cloneNtNtB9_4expr9ExprBlockNtNtCsaNl6UpbT7bw_4core5clone5Clone5clone, symObjAddr: 0x11BB4, symBinAddr: 0x43F48, symSize: 0xF0 }
  - { offset: 0xD3C07, size: 0x8, addend: 0x0, symName: __RNvXsr_NtNtCsc29TF2YcYso_3syn3gen5cloneNtNtB9_4expr9ExprBreakNtNtCsaNl6UpbT7bw_4core5clone5Clone5clone, symObjAddr: 0x11CA4, symBinAddr: 0x44038, symSize: 0xF8 }
  - { offset: 0xD3C3B, size: 0x8, addend: 0x0, symName: __RNvXss_NtNtCsc29TF2YcYso_3syn3gen5cloneNtNtB9_4expr8ExprCallNtNtCsaNl6UpbT7bw_4core5clone5Clone5clone, symObjAddr: 0x11D9C, symBinAddr: 0x44130, symSize: 0x108 }
  - { offset: 0xD3C6F, size: 0x8, addend: 0x0, symName: __RNvXst_NtNtCsc29TF2YcYso_3syn3gen5cloneNtNtB9_4expr8ExprCastNtNtCsaNl6UpbT7bw_4core5clone5Clone5clone, symObjAddr: 0x11EA4, symBinAddr: 0x44238, symSize: 0xF8 }
  - { offset: 0xD3CA3, size: 0x8, addend: 0x0, symName: __RNvXsu_NtNtCsc29TF2YcYso_3syn3gen5cloneNtNtB9_4expr11ExprClosureNtNtCsaNl6UpbT7bw_4core5clone5Clone5clone, symObjAddr: 0x11F9C, symBinAddr: 0x44330, symSize: 0x25C }
  - { offset: 0xD3CD7, size: 0x8, addend: 0x0, symName: __RNvXsv_NtNtCsc29TF2YcYso_3syn3gen5cloneNtNtB9_4expr9ExprConstNtNtCsaNl6UpbT7bw_4core5clone5Clone5clone, symObjAddr: 0x121F8, symBinAddr: 0x4458C, symSize: 0xC4 }
  - { offset: 0xD3D0B, size: 0x8, addend: 0x0, symName: __RNvXsw_NtNtCsc29TF2YcYso_3syn3gen5cloneNtNtB9_4expr12ExprContinueNtNtCsaNl6UpbT7bw_4core5clone5Clone5clone, symObjAddr: 0x122BC, symBinAddr: 0x44650, symSize: 0xC0 }
  - { offset: 0xD3D3F, size: 0x8, addend: 0x0, symName: __RNvXsx_NtNtCsc29TF2YcYso_3syn3gen5cloneNtNtB9_4expr9ExprFieldNtNtCsaNl6UpbT7bw_4core5clone5Clone5clone, symObjAddr: 0x1237C, symBinAddr: 0x44710, symSize: 0x110 }
  - { offset: 0xD3D73, size: 0x8, addend: 0x0, symName: __RNvXsy_NtNtCsc29TF2YcYso_3syn3gen5cloneNtNtB9_4expr11ExprForLoopNtNtCsaNl6UpbT7bw_4core5clone5Clone5clone, symObjAddr: 0x1248C, symBinAddr: 0x44820, symSize: 0x1A8 }
  - { offset: 0xD3DA7, size: 0x8, addend: 0x0, symName: __RNvXsz_NtNtCsc29TF2YcYso_3syn3gen5cloneNtNtB9_4expr9ExprGroupNtNtCsaNl6UpbT7bw_4core5clone5Clone5clone, symObjAddr: 0x12634, symBinAddr: 0x449C8, symSize: 0xB8 }
  - { offset: 0xD3DDB, size: 0x8, addend: 0x0, symName: __RNvXsA_NtNtCsc29TF2YcYso_3syn3gen5cloneNtNtB9_4expr6ExprIfNtNtCsaNl6UpbT7bw_4core5clone5Clone5clone, symObjAddr: 0x126EC, symBinAddr: 0x44A80, symSize: 0x14C }
  - { offset: 0xD3E0F, size: 0x8, addend: 0x0, symName: __RNvXsB_NtNtCsc29TF2YcYso_3syn3gen5cloneNtNtB9_4expr9ExprIndexNtNtCsaNl6UpbT7bw_4core5clone5Clone5clone, symObjAddr: 0x12838, symBinAddr: 0x44BCC, symSize: 0x100 }
  - { offset: 0xD3E43, size: 0x8, addend: 0x0, symName: __RNvXsC_NtNtCsc29TF2YcYso_3syn3gen5cloneNtNtB9_4expr9ExprInferNtNtCsaNl6UpbT7bw_4core5clone5Clone5clone, symObjAddr: 0x12938, symBinAddr: 0x44CCC, symSize: 0xAC }
  - { offset: 0xD3E77, size: 0x8, addend: 0x0, symName: __RNvXsD_NtNtCsc29TF2YcYso_3syn3gen5cloneNtNtB9_4expr7ExprLetNtNtCsaNl6UpbT7bw_4core5clone5Clone5clone, symObjAddr: 0x129E4, symBinAddr: 0x44D78, symSize: 0x124 }
  - { offset: 0xD3EAB, size: 0x8, addend: 0x0, symName: __RNvXsE_NtNtCsc29TF2YcYso_3syn3gen5cloneNtNtB9_4expr7ExprLitNtNtCsaNl6UpbT7bw_4core5clone5Clone5clone, symObjAddr: 0x12B08, symBinAddr: 0x44E9C, symSize: 0xA4 }
  - { offset: 0xD3EDF, size: 0x8, addend: 0x0, symName: __RNvXsF_NtNtCsc29TF2YcYso_3syn3gen5cloneNtNtB9_4expr8ExprLoopNtNtCsaNl6UpbT7bw_4core5clone5Clone5clone, symObjAddr: 0x12BAC, symBinAddr: 0x44F40, symSize: 0x10C }
  - { offset: 0xD3F13, size: 0x8, addend: 0x0, symName: __RNvXsG_NtNtCsc29TF2YcYso_3syn3gen5cloneNtNtB9_4expr9ExprMacroNtNtCsaNl6UpbT7bw_4core5clone5Clone5clone, symObjAddr: 0x12CB8, symBinAddr: 0x4504C, symSize: 0xA8 }
  - { offset: 0xD3F47, size: 0x8, addend: 0x0, symName: __RNvXsH_NtNtCsc29TF2YcYso_3syn3gen5cloneNtNtB9_4expr9ExprMatchNtNtCsaNl6UpbT7bw_4core5clone5Clone5clone, symObjAddr: 0x12D60, symBinAddr: 0x450F4, symSize: 0x12C }
  - { offset: 0xD3F7B, size: 0x8, addend: 0x0, symName: __RNvXsI_NtNtCsc29TF2YcYso_3syn3gen5cloneNtNtB9_4expr14ExprMethodCallNtNtCsaNl6UpbT7bw_4core5clone5Clone5clone, symObjAddr: 0x12E8C, symBinAddr: 0x45220, symSize: 0x1D0 }
  - { offset: 0xD3FAF, size: 0x8, addend: 0x0, symName: __RNvXsJ_NtNtCsc29TF2YcYso_3syn3gen5cloneNtNtB9_4expr9ExprParenNtNtCsaNl6UpbT7bw_4core5clone5Clone5clone, symObjAddr: 0x1305C, symBinAddr: 0x453F0, symSize: 0xC0 }
  - { offset: 0xD3FE3, size: 0x8, addend: 0x0, symName: __RNvXsK_NtNtCsc29TF2YcYso_3syn3gen5cloneNtNtB9_4expr8ExprPathNtNtCsaNl6UpbT7bw_4core5clone5Clone5clone, symObjAddr: 0x1311C, symBinAddr: 0x454B0, symSize: 0xE8 }
  - { offset: 0xD4017, size: 0x8, addend: 0x0, symName: __RNvXsL_NtNtCsc29TF2YcYso_3syn3gen5cloneNtNtB9_4expr9ExprRangeNtNtCsaNl6UpbT7bw_4core5clone5Clone5clone, symObjAddr: 0x13204, symBinAddr: 0x45598, symSize: 0xF8 }
  - { offset: 0xD404B, size: 0x8, addend: 0x0, symName: __RNvXsM_NtNtCsc29TF2YcYso_3syn3gen5cloneNtNtB9_4expr11ExprRawAddrNtNtCsaNl6UpbT7bw_4core5clone5Clone5clone, symObjAddr: 0x132FC, symBinAddr: 0x45690, symSize: 0x10C }
  - { offset: 0xD407F, size: 0x8, addend: 0x0, symName: __RNvXsN_NtNtCsc29TF2YcYso_3syn3gen5cloneNtNtB9_4expr13ExprReferenceNtNtCsaNl6UpbT7bw_4core5clone5Clone5clone, symObjAddr: 0x13408, symBinAddr: 0x4579C, symSize: 0xF0 }
  - { offset: 0xD40B3, size: 0x8, addend: 0x0, symName: __RNvXsO_NtNtCsc29TF2YcYso_3syn3gen5cloneNtNtB9_4expr10ExprRepeatNtNtCsaNl6UpbT7bw_4core5clone5Clone5clone, symObjAddr: 0x134F8, symBinAddr: 0x4588C, symSize: 0x12C }
  - { offset: 0xD40E7, size: 0x8, addend: 0x0, symName: __RNvXsP_NtNtCsc29TF2YcYso_3syn3gen5cloneNtNtB9_4expr10ExprReturnNtNtCsaNl6UpbT7bw_4core5clone5Clone5clone, symObjAddr: 0x13624, symBinAddr: 0x459B8, symSize: 0xB8 }
  - { offset: 0xD411B, size: 0x8, addend: 0x0, symName: __RNvXsQ_NtNtCsc29TF2YcYso_3syn3gen5cloneNtNtB9_4expr10ExprStructNtNtCsaNl6UpbT7bw_4core5clone5Clone5clone, symObjAddr: 0x136DC, symBinAddr: 0x45A70, symSize: 0x1B8 }
  - { offset: 0xD414F, size: 0x8, addend: 0x0, symName: __RNvXsR_NtNtCsc29TF2YcYso_3syn3gen5cloneNtNtB9_4expr7ExprTryNtNtCsaNl6UpbT7bw_4core5clone5Clone5clone, symObjAddr: 0x13894, symBinAddr: 0x45C28, symSize: 0xEC }
  - { offset: 0xD4183, size: 0x8, addend: 0x0, symName: __RNvXsS_NtNtCsc29TF2YcYso_3syn3gen5cloneNtNtB9_4expr12ExprTryBlockNtNtCsaNl6UpbT7bw_4core5clone5Clone5clone, symObjAddr: 0x13980, symBinAddr: 0x45D14, symSize: 0xC4 }
  - { offset: 0xD41B7, size: 0x8, addend: 0x0, symName: __RNvXsT_NtNtCsc29TF2YcYso_3syn3gen5cloneNtNtB9_4expr9ExprTupleNtNtCsaNl6UpbT7bw_4core5clone5Clone5clone, symObjAddr: 0x13A44, symBinAddr: 0x45DD8, symSize: 0xC8 }
  - { offset: 0xD41EB, size: 0x8, addend: 0x0, symName: __RNvXsU_NtNtCsc29TF2YcYso_3syn3gen5cloneNtNtB9_4expr9ExprUnaryNtNtCsaNl6UpbT7bw_4core5clone5Clone5clone, symObjAddr: 0x13B0C, symBinAddr: 0x45EA0, symSize: 0xC8 }
  - { offset: 0xD421F, size: 0x8, addend: 0x0, symName: __RNvXsV_NtNtCsc29TF2YcYso_3syn3gen5cloneNtNtB9_4expr10ExprUnsafeNtNtCsaNl6UpbT7bw_4core5clone5Clone5clone, symObjAddr: 0x13BD4, symBinAddr: 0x45F68, symSize: 0xC4 }
  - { offset: 0xD4253, size: 0x8, addend: 0x0, symName: __RNvXsW_NtNtCsc29TF2YcYso_3syn3gen5cloneNtNtB9_4expr9ExprWhileNtNtCsaNl6UpbT7bw_4core5clone5Clone5clone, symObjAddr: 0x13C98, symBinAddr: 0x4602C, symSize: 0x14C }
  - { offset: 0xD4287, size: 0x8, addend: 0x0, symName: __RNvXsX_NtNtCsc29TF2YcYso_3syn3gen5cloneNtNtB9_4expr9ExprYieldNtNtCsaNl6UpbT7bw_4core5clone5Clone5clone, symObjAddr: 0x13DE4, symBinAddr: 0x46178, symSize: 0xB8 }
  - { offset: 0xD42BB, size: 0x8, addend: 0x0, symName: __RNvXs11_NtNtCsc29TF2YcYso_3syn3gen5cloneNtNtBa_4expr10FieldValueNtNtCsaNl6UpbT7bw_4core5clone5Clone5clone, symObjAddr: 0x13E9C, symBinAddr: 0x46230, symSize: 0x118 }
  - { offset: 0xD42EF, size: 0x8, addend: 0x0, symName: __RNvXs1l_NtNtCsc29TF2YcYso_3syn3gen5cloneNtNtBa_4expr5IndexNtNtCsaNl6UpbT7bw_4core5clone5Clone5clone, symObjAddr: 0x13FB4, symBinAddr: 0x46348, symSize: 0x48 }
  - { offset: 0xD4323, size: 0x8, addend: 0x0, symName: __RNvXs1C_NtNtCsc29TF2YcYso_3syn3gen5cloneNtNtBa_4expr5LabelNtNtCsaNl6UpbT7bw_4core5clone5Clone5clone, symObjAddr: 0x13FFC, symBinAddr: 0x46390, symSize: 0xA4 }
  - { offset: 0xD4357, size: 0x8, addend: 0x0, symName: __RNvXs1K_NtNtCsc29TF2YcYso_3syn3gen5cloneNtNtBa_4expr6MemberNtNtCsaNl6UpbT7bw_4core5clone5Clone5clone, symObjAddr: 0x140A0, symBinAddr: 0x46434, symSize: 0xB8 }
  - { offset: 0xD43BF, size: 0x8, addend: 0x0, symName: __RNvXs24_NtNtCsc29TF2YcYso_3syn3gen5cloneNtNtBa_4expr17PointerMutabilityNtNtCsaNl6UpbT7bw_4core5clone5Clone5clone, symObjAddr: 0x14158, symBinAddr: 0x464EC, symSize: 0xA8 }
  - { offset: 0xD4427, size: 0x8, addend: 0x0, symName: __RNvXs2a_NtNtCsc29TF2YcYso_3syn3gen5cloneNtNtBa_4expr11RangeLimitsNtNtCsaNl6UpbT7bw_4core5clone5Clone5clone, symObjAddr: 0x14200, symBinAddr: 0x46594, symSize: 0x2C }
  - { offset: 0xD792E, size: 0x8, addend: 0x0, symName: __RNvMNtCsaNl6UpbT7bw_4core5sliceSNtNtCsc29TF2YcYso_3syn4expr3Arm4iterBy_, symObjAddr: 0xA5C, symBinAddr: 0x3980C, symSize: 0x28 }
  - { offset: 0xD7965, size: 0x8, addend: 0x0, symName: __RNvMNtCsaNl6UpbT7bw_4core5sliceSTNtNtCsc29TF2YcYso_3syn4expr10FieldValueNtNtBz_5token5CommaE4iterBz_, symObjAddr: 0xA84, symBinAddr: 0x39834, symSize: 0x28 }
  - { offset: 0xD799C, size: 0x8, addend: 0x0, symName: __RNvMNtCsaNl6UpbT7bw_4core5sliceSTNtNtCsc29TF2YcYso_3syn4expr4ExprNtNtBz_5token5CommaE4iterBz_, symObjAddr: 0xAAC, symBinAddr: 0x3985C, symSize: 0x28 }
  - { offset: 0xD7D50, size: 0x8, addend: 0x0, symName: __RNvXNtNtCsaNl6UpbT7bw_4core5clone6uninitNtNtCsc29TF2YcYso_3syn4expr10FieldValueNtB2_8CopySpec9clone_oneBG_, symObjAddr: 0xB54, symBinAddr: 0x39904, symSize: 0x50 }
  - { offset: 0xD7DB4, size: 0x8, addend: 0x0, symName: __RNvXNtNtCsaNl6UpbT7bw_4core5clone6uninitNtNtCsc29TF2YcYso_3syn4expr4ExprNtB2_8CopySpec9clone_oneBG_, symObjAddr: 0xBA4, symBinAddr: 0x39954, symSize: 0x48 }
  - { offset: 0xD9C93, size: 0x8, addend: 0x0, symName: __RNvXNtCs4EAaWzSXu1l_5quote9to_tokensRNtNtCsc29TF2YcYso_3syn4expr10FieldValueNtB2_8ToTokens9to_tokensBD_, symObjAddr: 0xAD4, symBinAddr: 0x39884, symSize: 0x40 }
  - { offset: 0xD9CD2, size: 0x8, addend: 0x0, symName: __RNvXNtCs4EAaWzSXu1l_5quote9to_tokensRNtNtCsc29TF2YcYso_3syn4expr4ExprNtB2_8ToTokens9to_tokensBD_, symObjAddr: 0xB14, symBinAddr: 0x398C4, symSize: 0x40 }
  - { offset: 0xD9D8A, size: 0x8, addend: 0x0, symName: __RNvMNtCsc29TF2YcYso_3syn4exprNtB2_4Expr25parse_without_eager_brace, symObjAddr: 0x1C7C, symBinAddr: 0x3999C, symSize: 0x3C }
  - { offset: 0xD9DAD, size: 0x8, addend: 0x0, symName: __RNvMNtCsc29TF2YcYso_3syn4exprNtB2_4Expr32parse_with_earlier_boundary_rule, symObjAddr: 0x1CB8, symBinAddr: 0x399D8, symSize: 0x34 }
  - { offset: 0xD9DD0, size: 0x8, addend: 0x0, symName: __RNvMNtCsc29TF2YcYso_3syn4exprNtB2_4Expr4peek, symObjAddr: 0x1CEC, symBinAddr: 0x39A0C, symSize: 0x408 }
  - { offset: 0xD9E00, size: 0x8, addend: 0x0, symName: __RNvMNtCsc29TF2YcYso_3syn4exprNtB2_4Expr13replace_attrs, symObjAddr: 0x20F4, symBinAddr: 0x39E14, symSize: 0x678 }
  - { offset: 0xD9E56, size: 0x8, addend: 0x0, symName: __RNvMs6_NtCsc29TF2YcYso_3syn4exprNtB5_6Member8is_named, symObjAddr: 0x2A78, symBinAddr: 0x3A48C, symSize: 0x6C }
  - { offset: 0xD9EB1, size: 0x8, addend: 0x0, symName: __RNvMsv_NtNtCsc29TF2YcYso_3syn4expr7parsingNtB7_11RangeLimits14parse_obsolete, symObjAddr: 0x94A0, symBinAddr: 0x3F634, symSize: 0x334 }
  - { offset: 0xD9F6C, size: 0x8, addend: 0x0, symName: __RNvMsy_NtNtCsc29TF2YcYso_3syn4expr7parsingNtB7_3Arm14parse_multiple, symObjAddr: 0x9B08, symBinAddr: 0x3FC9C, symSize: 0x1C4 }
  - { offset: 0xDA35B, size: 0x8, addend: 0x0, symName: __RINvMsv_NtCshnvkK9b4wzu_11proc_macro23impNtB6_7Literal7subspanINtNtNtCsaNl6UpbT7bw_4core3ops5range5RangejEECsc29TF2YcYso_3syn, symObjAddr: 0x0, symBinAddr: 0x465C0, symSize: 0xD4 }
  - { offset: 0xDAB57, size: 0x8, addend: 0x0, symName: __RNvXs0_NtCsc29TF2YcYso_3syn5tokenNtNtNtB7_3ext7private8IdentAnyNtB5_5Token4peekB7_, symObjAddr: 0x5D64, symBinAddr: 0x4B584, symSize: 0x3C }
  - { offset: 0xDB459, size: 0x8, addend: 0x0, symName: __RNvXNtCsc29TF2YcYso_3syn4pathNtB2_4PathINtNtCsaNl6UpbT7bw_4core7convert4FromNtCshnvkK9b4wzu_11proc_macro25IdentE4fromB4_, symObjAddr: 0x7394, symBinAddr: 0x4CB70, symSize: 0x118 }
  - { offset: 0xDB4AA, size: 0x8, addend: 0x0, symName: __RNvXs0_NtCsc29TF2YcYso_3syn4pathNtB5_11PathSegmentINtNtCsaNl6UpbT7bw_4core7convert4FromNtCshnvkK9b4wzu_11proc_macro25IdentE4fromB7_, symObjAddr: 0x773C, symBinAddr: 0x4CE04, symSize: 0x68 }
  - { offset: 0xDB4EB, size: 0x8, addend: 0x0, symName: __RNvXNtNtCsc29TF2YcYso_3syn4path7parsingNtB4_4PathNtNtB6_5parse5Parse5parse, symObjAddr: 0x7908, symBinAddr: 0x4CFB0, symSize: 0x3C }
  - { offset: 0xDB51F, size: 0x8, addend: 0x0, symName: __RNvXs_NtNtCsc29TF2YcYso_3syn4path7parsingNtB6_15GenericArgumentNtNtB8_5parse5Parse5parse, symObjAddr: 0x7944, symBinAddr: 0x4CFEC, symSize: 0x13C0 }
  - { offset: 0xDB7F0, size: 0x8, addend: 0x0, symName: __RNvXs1_NtNtCsc29TF2YcYso_3syn4path7parsingNtB7_30AngleBracketedGenericArgumentsNtNtB9_5parse5Parse5parse, symObjAddr: 0x926C, symBinAddr: 0x4E914, symSize: 0xD8 }
  - { offset: 0xDB860, size: 0x8, addend: 0x0, symName: __RNvXs2_NtNtCsc29TF2YcYso_3syn4path7parsingNtB7_29ParenthesizedGenericArgumentsNtNtB9_5parse5Parse5parse, symObjAddr: 0x9344, symBinAddr: 0x4E9EC, symSize: 0x338 }
  - { offset: 0xDB941, size: 0x8, addend: 0x0, symName: __RNvXs0_NtNtCsc29TF2YcYso_3syn4path8printingNtB7_4PathNtNtCs4EAaWzSXu1l_5quote9to_tokens8ToTokens9to_tokens, symObjAddr: 0xA8AC, symBinAddr: 0x4FF18, symSize: 0x54 }
  - { offset: 0xDB980, size: 0x8, addend: 0x0, symName: __RNvXs3_NtNtCsc29TF2YcYso_3syn4path8printingNtB7_15GenericArgumentNtNtCs4EAaWzSXu1l_5quote9to_tokens8ToTokens9to_tokens, symObjAddr: 0xA9A8, symBinAddr: 0x4FF6C, symSize: 0x1A8 }
  - { offset: 0xDBA6B, size: 0x8, addend: 0x0, symName: __RNvXs4_NtNtCsc29TF2YcYso_3syn4path8printingNtB7_30AngleBracketedGenericArgumentsNtNtCs4EAaWzSXu1l_5quote9to_tokens8ToTokens9to_tokens, symObjAddr: 0xAB50, symBinAddr: 0x50114, symSize: 0x54 }
  - { offset: 0xDBAAA, size: 0x8, addend: 0x0, symName: __RNvXs5_NtNtCsc29TF2YcYso_3syn4path8printingNtB7_9AssocTypeNtNtCs4EAaWzSXu1l_5quote9to_tokens8ToTokens9to_tokens, symObjAddr: 0xABA4, symBinAddr: 0x50168, symSize: 0x70 }
  - { offset: 0xDBAE9, size: 0x8, addend: 0x0, symName: __RNvXs6_NtNtCsc29TF2YcYso_3syn4path8printingNtB7_10AssocConstNtNtCs4EAaWzSXu1l_5quote9to_tokens8ToTokens9to_tokens, symObjAddr: 0xAC14, symBinAddr: 0x501D8, symSize: 0x70 }
  - { offset: 0xDBB28, size: 0x8, addend: 0x0, symName: __RNvXs7_NtNtCsc29TF2YcYso_3syn4path8printingNtB7_10ConstraintNtNtCs4EAaWzSXu1l_5quote9to_tokens8ToTokens9to_tokens, symObjAddr: 0xAC84, symBinAddr: 0x50248, symSize: 0x70 }
  - { offset: 0xDBB6D, size: 0x8, addend: 0x0, symName: __RNcNtNtNtCsc29TF2YcYso_3syn4path15GenericArgument5Const0B7_, symObjAddr: 0xB2B8, symBinAddr: 0x507E8, symSize: 0x3C }
  - { offset: 0xDF426, size: 0x8, addend: 0x0, symName: __RNvNtNtCsc29TF2YcYso_3syn8generics7parsing26choose_generics_over_qpath, symObjAddr: 0x5F9C, symBinAddr: 0x4B778, symSize: 0x1F8 }
  - { offset: 0xDF454, size: 0x8, addend: 0x0, symName: __RNvNtNtCsc29TF2YcYso_3syn8generics7parsing40choose_generics_over_qpath_after_keyword, symObjAddr: 0x6194, symBinAddr: 0x4B970, symSize: 0x150 }
  - { offset: 0xDFA92, size: 0x8, addend: 0x0, symName: __RNvXNtNtCsc29TF2YcYso_3syn2op7parsingNtB4_5BinOpNtNtB6_5parse5Parse5parse, symObjAddr: 0x62E4, symBinAddr: 0x4BAC0, symSize: 0x84C }
  - { offset: 0xDFAC4, size: 0x8, addend: 0x0, symName: __RNvXs_NtNtCsc29TF2YcYso_3syn2op7parsingNtB6_4UnOpNtNtB8_5parse5Parse5parse, symObjAddr: 0x6B30, symBinAddr: 0x4C30C, symSize: 0x1F0 }
  - { offset: 0xDFB11, size: 0x8, addend: 0x0, symName: __RNvXNtNtCsc29TF2YcYso_3syn2op8printingNtB4_5BinOpNtNtCs4EAaWzSXu1l_5quote9to_tokens8ToTokens9to_tokens, symObjAddr: 0x6D20, symBinAddr: 0x4C4FC, symSize: 0x598 }
  - { offset: 0xDFE85, size: 0x8, addend: 0x0, symName: __RNvXs_NtNtCsc29TF2YcYso_3syn2op8printingNtB6_4UnOpNtNtCs4EAaWzSXu1l_5quote9to_tokens8ToTokens9to_tokens, symObjAddr: 0x72B8, symBinAddr: 0x4CA94, symSize: 0xDC }
  - { offset: 0xDFF16, size: 0x8, addend: 0x0, symName: __RNcNtNtNtCsc29TF2YcYso_3syn2op5BinOp3Add0B7_, symObjAddr: 0xAD88, symBinAddr: 0x502B8, symSize: 0x24 }
  - { offset: 0xDFF44, size: 0x8, addend: 0x0, symName: __RNcNtNtNtCsc29TF2YcYso_3syn2op5BinOp3Sub0B7_, symObjAddr: 0xADAC, symBinAddr: 0x502DC, symSize: 0x2C }
  - { offset: 0xDFF72, size: 0x8, addend: 0x0, symName: __RNcNtNtNtCsc29TF2YcYso_3syn2op5BinOp3Mul0B7_, symObjAddr: 0xADD8, symBinAddr: 0x50308, symSize: 0x2C }
  - { offset: 0xDFFA0, size: 0x8, addend: 0x0, symName: __RNcNtNtNtCsc29TF2YcYso_3syn2op5BinOp3Div0B7_, symObjAddr: 0xAE04, symBinAddr: 0x50334, symSize: 0x2C }
  - { offset: 0xDFFCE, size: 0x8, addend: 0x0, symName: __RNcNtNtNtCsc29TF2YcYso_3syn2op5BinOp3Rem0B7_, symObjAddr: 0xAE30, symBinAddr: 0x50360, symSize: 0x2C }
  - { offset: 0xDFFFC, size: 0x8, addend: 0x0, symName: __RNcNtNtNtCsc29TF2YcYso_3syn2op5BinOp3And0B7_, symObjAddr: 0xAE5C, symBinAddr: 0x5038C, symSize: 0x2C }
  - { offset: 0xE002A, size: 0x8, addend: 0x0, symName: __RNcNtNtNtCsc29TF2YcYso_3syn2op5BinOp2Or0B7_, symObjAddr: 0xAE88, symBinAddr: 0x503B8, symSize: 0x2C }
  - { offset: 0xE0058, size: 0x8, addend: 0x0, symName: __RNcNtNtNtCsc29TF2YcYso_3syn2op5BinOp6BitXor0B7_, symObjAddr: 0xAEB4, symBinAddr: 0x503E4, symSize: 0x2C }
  - { offset: 0xE0086, size: 0x8, addend: 0x0, symName: __RNcNtNtNtCsc29TF2YcYso_3syn2op5BinOp6BitAnd0B7_, symObjAddr: 0xAEE0, symBinAddr: 0x50410, symSize: 0x2C }
  - { offset: 0xE00B4, size: 0x8, addend: 0x0, symName: __RNcNtNtNtCsc29TF2YcYso_3syn2op5BinOp5BitOr0B7_, symObjAddr: 0xAF0C, symBinAddr: 0x5043C, symSize: 0x2C }
  - { offset: 0xE00E2, size: 0x8, addend: 0x0, symName: __RNcNtNtNtCsc29TF2YcYso_3syn2op5BinOp3Shl0B7_, symObjAddr: 0xAF38, symBinAddr: 0x50468, symSize: 0x2C }
  - { offset: 0xE0110, size: 0x8, addend: 0x0, symName: __RNcNtNtNtCsc29TF2YcYso_3syn2op5BinOp3Shr0B7_, symObjAddr: 0xAF64, symBinAddr: 0x50494, symSize: 0x2C }
  - { offset: 0xE013E, size: 0x8, addend: 0x0, symName: __RNcNtNtNtCsc29TF2YcYso_3syn2op5BinOp2Eq0B7_, symObjAddr: 0xAF90, symBinAddr: 0x504C0, symSize: 0x2C }
  - { offset: 0xE016C, size: 0x8, addend: 0x0, symName: __RNcNtNtNtCsc29TF2YcYso_3syn2op5BinOp2Lt0B7_, symObjAddr: 0xAFBC, symBinAddr: 0x504EC, symSize: 0x2C }
  - { offset: 0xE019A, size: 0x8, addend: 0x0, symName: __RNcNtNtNtCsc29TF2YcYso_3syn2op5BinOp2Le0B7_, symObjAddr: 0xAFE8, symBinAddr: 0x50518, symSize: 0x2C }
  - { offset: 0xE01C8, size: 0x8, addend: 0x0, symName: __RNcNtNtNtCsc29TF2YcYso_3syn2op5BinOp2Ne0B7_, symObjAddr: 0xB014, symBinAddr: 0x50544, symSize: 0x2C }
  - { offset: 0xE01F6, size: 0x8, addend: 0x0, symName: __RNcNtNtNtCsc29TF2YcYso_3syn2op5BinOp2Ge0B7_, symObjAddr: 0xB040, symBinAddr: 0x50570, symSize: 0x2C }
  - { offset: 0xE0224, size: 0x8, addend: 0x0, symName: __RNcNtNtNtCsc29TF2YcYso_3syn2op5BinOp2Gt0B7_, symObjAddr: 0xB06C, symBinAddr: 0x5059C, symSize: 0x2C }
  - { offset: 0xE0252, size: 0x8, addend: 0x0, symName: __RNcNtNtNtCsc29TF2YcYso_3syn2op5BinOp9AddAssign0B7_, symObjAddr: 0xB098, symBinAddr: 0x505C8, symSize: 0x2C }
  - { offset: 0xE0280, size: 0x8, addend: 0x0, symName: __RNcNtNtNtCsc29TF2YcYso_3syn2op5BinOp9SubAssign0B7_, symObjAddr: 0xB0C4, symBinAddr: 0x505F4, symSize: 0x2C }
  - { offset: 0xE02AE, size: 0x8, addend: 0x0, symName: __RNcNtNtNtCsc29TF2YcYso_3syn2op5BinOp9MulAssign0B7_, symObjAddr: 0xB0F0, symBinAddr: 0x50620, symSize: 0x2C }
  - { offset: 0xE02DC, size: 0x8, addend: 0x0, symName: __RNcNtNtNtCsc29TF2YcYso_3syn2op5BinOp9DivAssign0B7_, symObjAddr: 0xB11C, symBinAddr: 0x5064C, symSize: 0x2C }
  - { offset: 0xE030A, size: 0x8, addend: 0x0, symName: __RNcNtNtNtCsc29TF2YcYso_3syn2op5BinOp9RemAssign0B7_, symObjAddr: 0xB148, symBinAddr: 0x50678, symSize: 0x2C }
  - { offset: 0xE0338, size: 0x8, addend: 0x0, symName: __RNcNtNtNtCsc29TF2YcYso_3syn2op5BinOp12BitXorAssign0B7_, symObjAddr: 0xB174, symBinAddr: 0x506A4, symSize: 0x2C }
  - { offset: 0xE0366, size: 0x8, addend: 0x0, symName: __RNcNtNtNtCsc29TF2YcYso_3syn2op5BinOp12BitAndAssign0B7_, symObjAddr: 0xB1A0, symBinAddr: 0x506D0, symSize: 0x2C }
  - { offset: 0xE0394, size: 0x8, addend: 0x0, symName: __RNcNtNtNtCsc29TF2YcYso_3syn2op5BinOp11BitOrAssign0B7_, symObjAddr: 0xB1CC, symBinAddr: 0x506FC, symSize: 0x2C }
  - { offset: 0xE03C2, size: 0x8, addend: 0x0, symName: __RNcNtNtNtCsc29TF2YcYso_3syn2op5BinOp9ShlAssign0B7_, symObjAddr: 0xB1F8, symBinAddr: 0x50728, symSize: 0x20 }
  - { offset: 0xE03F0, size: 0x8, addend: 0x0, symName: __RNcNtNtNtCsc29TF2YcYso_3syn2op5BinOp9ShrAssign0B7_, symObjAddr: 0xB218, symBinAddr: 0x50748, symSize: 0x20 }
  - { offset: 0xE0424, size: 0x8, addend: 0x0, symName: __RNcNtNtNtCsc29TF2YcYso_3syn2op4UnOp5Deref0B7_, symObjAddr: 0xB238, symBinAddr: 0x50768, symSize: 0x28 }
  - { offset: 0xE0452, size: 0x8, addend: 0x0, symName: __RNcNtNtNtCsc29TF2YcYso_3syn2op4UnOp3Not0B7_, symObjAddr: 0xB260, symBinAddr: 0x50790, symSize: 0x2C }
  - { offset: 0xE0480, size: 0x8, addend: 0x0, symName: __RNcNtNtNtCsc29TF2YcYso_3syn2op4UnOp3Neg0B7_, symObjAddr: 0xB28C, symBinAddr: 0x507BC, symSize: 0x2C }
  - { offset: 0xE04BA, size: 0x8, addend: 0x0, symName: __RNCNvXNtCsc29TF2YcYso_3syn3extNtCshnvkK9b4wzu_11proc_macro25IdentNtB4_8IdentExt9parse_any0B6_, symObjAddr: 0x5DA0, symBinAddr: 0x4B5C0, symSize: 0x130 }
  - { offset: 0xE052C, size: 0x8, addend: 0x0, symName: __RNvXs0_NtCsc29TF2YcYso_3syn3extNtNtB5_7private8IdentAnyNtNtNtB7_5token7private11CustomToken4peek, symObjAddr: 0x5ED0, symBinAddr: 0x4B6F0, symSize: 0x88 }
  - { offset: 0xE0770, size: 0x8, addend: 0x0, symName: __RNvXs_NtNtCsc29TF2YcYso_3syn3gen5cloneNtNtB8_4path30AngleBracketedGenericArgumentsNtNtCsaNl6UpbT7bw_4core5clone5Clone5clone, symObjAddr: 0xB2F4, symBinAddr: 0x50824, symSize: 0xE8 }
  - { offset: 0xE07A2, size: 0x8, addend: 0x0, symName: __RNvXs1_NtNtCsc29TF2YcYso_3syn3gen5cloneNtNtB9_4path10AssocConstNtNtCsaNl6UpbT7bw_4core5clone5Clone5clone, symObjAddr: 0xB3DC, symBinAddr: 0x5090C, symSize: 0x118 }
  - { offset: 0xE07D4, size: 0x8, addend: 0x0, symName: __RNvXs2_NtNtCsc29TF2YcYso_3syn3gen5cloneNtNtB9_4path9AssocTypeNtNtCsaNl6UpbT7bw_4core5clone5Clone5clone, symObjAddr: 0xB4F4, symBinAddr: 0x50A24, symSize: 0x11C }
  - { offset: 0xE0806, size: 0x8, addend: 0x0, symName: __RNvXs9_NtNtCsc29TF2YcYso_3syn3gen5cloneNtNtB9_2op5BinOpNtNtCsaNl6UpbT7bw_4core5clone5Clone5clone, symObjAddr: 0xB610, symBinAddr: 0x50B40, symSize: 0x2C }
  - { offset: 0xE0838, size: 0x8, addend: 0x0, symName: __RNvXse_NtNtCsc29TF2YcYso_3syn3gen5cloneNtNtB9_4path10ConstraintNtNtCsaNl6UpbT7bw_4core5clone5Clone5clone, symObjAddr: 0xB63C, symBinAddr: 0x50B6C, symSize: 0x110 }
  - { offset: 0xE086A, size: 0x8, addend: 0x0, symName: __RNvXs1c_NtNtCsc29TF2YcYso_3syn3gen5cloneNtNtBa_4path15GenericArgumentNtNtCsaNl6UpbT7bw_4core5clone5Clone5clone, symObjAddr: 0xB74C, symBinAddr: 0x50C7C, symSize: 0x284 }
  - { offset: 0xE094B, size: 0x8, addend: 0x0, symName: __RNvXs1O_NtNtCsc29TF2YcYso_3syn3gen5cloneNtNtBa_4path29ParenthesizedGenericArgumentsNtNtCsaNl6UpbT7bw_4core5clone5Clone5clone, symObjAddr: 0xB9D0, symBinAddr: 0x50F00, symSize: 0xB4 }
  - { offset: 0xE097F, size: 0x8, addend: 0x0, symName: __RNvXs21_NtNtCsc29TF2YcYso_3syn3gen5cloneNtNtBa_4path4PathNtNtCsaNl6UpbT7bw_4core5clone5Clone5clone, symObjAddr: 0xBA84, symBinAddr: 0x50FB4, symSize: 0x70 }
  - { offset: 0xE09B3, size: 0x8, addend: 0x0, symName: __RNvXs22_NtNtCsc29TF2YcYso_3syn3gen5cloneNtNtBa_4path13PathArgumentsNtNtCsaNl6UpbT7bw_4core5clone5Clone5clone, symObjAddr: 0xBAF4, symBinAddr: 0x51024, symSize: 0x11C }
  - { offset: 0xE0A1B, size: 0x8, addend: 0x0, symName: __RNvXs23_NtNtCsc29TF2YcYso_3syn3gen5cloneNtNtBa_4path11PathSegmentNtNtCsaNl6UpbT7bw_4core5clone5Clone5clone, symObjAddr: 0xBC10, symBinAddr: 0x51140, symSize: 0x9C }
  - { offset: 0xE0A4F, size: 0x8, addend: 0x0, symName: __RNvXs28_NtNtCsc29TF2YcYso_3syn3gen5cloneNtNtBa_4path5QSelfNtNtCsaNl6UpbT7bw_4core5clone5Clone5clone, symObjAddr: 0xBCAC, symBinAddr: 0x511DC, symSize: 0x100 }
  - { offset: 0xE0A83, size: 0x8, addend: 0x0, symName: __RNvXs2H_NtNtCsc29TF2YcYso_3syn3gen5cloneNtNtBa_2op4UnOpNtNtCsaNl6UpbT7bw_4core5clone5Clone5clone, symObjAddr: 0xBDAC, symBinAddr: 0x512DC, symSize: 0x30 }
  - { offset: 0xE1D3D, size: 0x8, addend: 0x0, symName: __RINvXNvMNtCsiTraAjBDcu4_5alloc5sliceSp9to_vec_inTNtNtCsc29TF2YcYso_3syn4path11PathSegmentNtNtBP_5token7PathSepENtB3_10ConvertVec6to_vecNtNtB8_5alloc6GlobalEBP_, symObjAddr: 0xD4, symBinAddr: 0x46694, symSize: 0x370 }
  - { offset: 0xE21F2, size: 0x8, addend: 0x0, symName: __RINvXNvMNtCsiTraAjBDcu4_5alloc5sliceSp9to_vec_inTNtNtCsc29TF2YcYso_3syn4path15GenericArgumentNtNtBP_5token5CommaENtB3_10ConvertVec6to_vecNtNtB8_5alloc6GlobalEBP_, symObjAddr: 0x444, symBinAddr: 0x46A04, symSize: 0x374 }
  - { offset: 0xE297C, size: 0x8, addend: 0x0, symName: __RINvXs5_NtCshnvkK9b4wzu_11proc_macro23impNtB6_11TokenStreamINtNtNtNtCsaNl6UpbT7bw_4core4iter6traits7collect12FromIteratorNtB8_9TokenTreeE9from_iterINtNtNtB14_5array4iter8IntoIterB1V_Kj1_EECsc29TF2YcYso_3syn, symObjAddr: 0xE84, symBinAddr: 0x472D8, symSize: 0x16C }
  - { offset: 0xE29B2, size: 0x8, addend: 0x0, symName: __RINvXs5_NtCshnvkK9b4wzu_11proc_macro23impNtB6_11TokenStreamINtNtNtNtCsaNl6UpbT7bw_4core4iter6traits7collect12FromIteratorNtB8_9TokenTreeE9from_iterINtNtNtB14_5array4iter8IntoIterB1V_Kj8_EECsc29TF2YcYso_3syn, symObjAddr: 0xFF0, symBinAddr: 0x47444, symSize: 0x170 }
  - { offset: 0xE29E8, size: 0x8, addend: 0x0, symName: __RINvXs5_NtCshnvkK9b4wzu_11proc_macro23impNtB6_11TokenStreamINtNtNtNtCsaNl6UpbT7bw_4core4iter6traits7collect12FromIteratorNtB8_9TokenTreeE9from_iterINtNtNtCsiTraAjBDcu4_5alloc3vec9into_iter8IntoIterB1V_EECsc29TF2YcYso_3syn, symObjAddr: 0x1160, symBinAddr: 0x475B4, symSize: 0x164 }
  - { offset: 0xE2A24, size: 0x8, addend: 0x0, symName: __RINvXs6_NtCshnvkK9b4wzu_11proc_macro23impNtB6_11TokenStreamINtNtNtNtCsaNl6UpbT7bw_4core4iter6traits7collect12FromIteratorBD_E9from_iterINtNtNtB12_8adapters3map3MapIB2a_INtNtNtB14_5slice4iter4IterNtNtCsc29TF2YcYso_3syn5error12ErrorMessageENvMs_B39_B37_16to_compile_errorENCINvXs7_B8_NtB8_11TokenStreamIBW_B4w_E9from_iterB2B_E0EEB3b_, symObjAddr: 0x12C4, symBinAddr: 0x47718, symSize: 0x24C }
  - { offset: 0xE2A9E, size: 0x8, addend: 0x0, symName: __RNCINvXs6_NtCshnvkK9b4wzu_11proc_macro23impNtB8_11TokenStreamINtNtNtNtCsaNl6UpbT7bw_4core4iter6traits7collect12FromIteratorBF_E9from_iterINtNtNtB14_8adapters3map3MapIB2c_INtNtNtB16_5slice4iter4IterNtNtCsc29TF2YcYso_3syn5error12ErrorMessageENvMs_B3b_B39_16to_compile_errorENCINvXs7_Ba_NtBa_11TokenStreamIBY_B4y_E9from_iterB2D_E0EE0B3d_, symObjAddr: 0x1940, symBinAddr: 0x47D94, symSize: 0x10C }
  - { offset: 0xE2AFB, size: 0x8, addend: 0x0, symName: __RNCINvXs6_NtCshnvkK9b4wzu_11proc_macro23impNtB8_11TokenStreamINtNtNtNtCsaNl6UpbT7bw_4core4iter6traits7collect12FromIteratorBF_E9from_iterINtNtNtB14_8adapters3map3MapIB2c_INtNtNtB16_5slice4iter4IterNtNtCsc29TF2YcYso_3syn5error12ErrorMessageENvMs_B3b_B39_16to_compile_errorENCINvXs7_Ba_NtBa_11TokenStreamIBY_B4y_E9from_iterB2D_E0EEs_0B3d_, symObjAddr: 0x1A4C, symBinAddr: 0x47EA0, symSize: 0xF8 }
  - { offset: 0xE2B55, size: 0x8, addend: 0x0, symName: __RNcNtNtNtCshnvkK9b4wzu_11proc_macro23imp4Span8Fallback0Csc29TF2YcYso_3syn, symObjAddr: 0x1B44, symBinAddr: 0x47F98, symSize: 0x14 }
  - { offset: 0xE2B86, size: 0x8, addend: 0x0, symName: __RNvXsA_NtCshnvkK9b4wzu_11proc_macro23impNtB5_19DeferredTokenStreamNtNtCsaNl6UpbT7bw_4core5clone5Clone5cloneCsc29TF2YcYso_3syn, symObjAddr: 0x5414, symBinAddr: 0x4AC94, symSize: 0x90 }
  - { offset: 0xE2BB8, size: 0x8, addend: 0x0, symName: __RNvXsE_NtCshnvkK9b4wzu_11proc_macro23impNtB5_5GroupNtNtCsaNl6UpbT7bw_4core5clone5Clone5cloneCsc29TF2YcYso_3syn, symObjAddr: 0x54A4, symBinAddr: 0x4AD24, symSize: 0x9C }
  - { offset: 0xE2C28, size: 0x8, addend: 0x0, symName: __RNvXsF_NtCshnvkK9b4wzu_11proc_macro23impNtB5_5IdentNtNtCsaNl6UpbT7bw_4core5clone5Clone5cloneCsc29TF2YcYso_3syn, symObjAddr: 0x5540, symBinAddr: 0x4ADC0, symSize: 0x9C }
  - { offset: 0xE2C98, size: 0x8, addend: 0x0, symName: __RNvXsG_NtCshnvkK9b4wzu_11proc_macro23impNtB5_7LiteralNtNtCsaNl6UpbT7bw_4core5clone5Clone5cloneCsc29TF2YcYso_3syn, symObjAddr: 0x55DC, symBinAddr: 0x4AE5C, symSize: 0x9C }
  - { offset: 0xE2D08, size: 0x8, addend: 0x0, symName: __RNvXss_NtCshnvkK9b4wzu_11proc_macro23impNtB5_5IdentINtNtCsaNl6UpbT7bw_4core3cmp9PartialEqRReE2eqCsc29TF2YcYso_3syn, symObjAddr: 0x5A18, symBinAddr: 0x4B298, symSize: 0x108 }
  - { offset: 0xE2D98, size: 0x8, addend: 0x0, symName: __RNvXss_NtCshnvkK9b4wzu_11proc_macro23impNtB5_5IdentINtNtCsaNl6UpbT7bw_4core3cmp9PartialEqReE2eqCsc29TF2YcYso_3syn, symObjAddr: 0x5B20, symBinAddr: 0x4B3A0, symSize: 0x108 }
  - { offset: 0xE2E2E, size: 0x8, addend: 0x0, symName: __RNvXsz_NtCshnvkK9b4wzu_11proc_macro23impNtB5_11TokenStreamNtNtCsaNl6UpbT7bw_4core5clone5Clone5cloneCsc29TF2YcYso_3syn, symObjAddr: 0x5C28, symBinAddr: 0x4B4A8, symSize: 0x98 }
  - { offset: 0xEA28D, size: 0x8, addend: 0x0, symName: __RINvXs2V_NtNtCsaNl6UpbT7bw_4core5slice4iterINtB7_4IterNtNtCsc29TF2YcYso_3syn4attr9AttributeENtNtNtNtBb_4iter6traits8iterator8Iterator4findQFG0_RL1_RL0_BQ_EbEBU_, symObjAddr: 0x7B8, symBinAddr: 0x46D78, symSize: 0xB0 }
  - { offset: 0xEA2F2, size: 0x8, addend: 0x0, symName: __RINvXs2V_NtNtCsaNl6UpbT7bw_4core5slice4iterINtB7_4IterNtNtCsc29TF2YcYso_3syn5error12ErrorMessageENtNtNtNtBb_4iter6traits8iterator8Iterator4folduNCINvNtNtB1D_8adapters3map8map_foldRBQ_NtCshnvkK9b4wzu_11proc_macro211TokenStreamuNvMs_BS_BQ_16to_compile_errorNCIB2l_B2V_NtNtB2X_3imp11TokenStreamuNCINvXs7_B2X_B2V_INtNtB1B_7collect12FromIteratorB2V_E9from_iterINtB2n_3MapBF_B3C_EE0NCIB2l_B4g_NtCs7yrEGia95Wz_10proc_macro11TokenStreamuNCINvXs6_B4i_B4g_IB4Y_B4g_E9from_iterIB5I_B5H_B4G_EE0NCINvNvB1x_8for_each4callB6d_NCINvXsj_B6f_B6d_INtB50_6ExtendB6d_E6extendIB5I_B7u_B6T_EE0E0E0E0E0EBU_, symObjAddr: 0x868, symBinAddr: 0x46E28, symSize: 0x194 }
  - { offset: 0xEA446, size: 0x8, addend: 0x0, symName: __RINvXs2V_NtNtCsaNl6UpbT7bw_4core5slice4iterINtB7_4IterhENtNtNtNtBb_4iter6traits8iterator8Iterator4findNCNvNtNtCsc29TF2YcYso_3syn3lit5value15parse_lit_float0EB1K_, symObjAddr: 0x9FC, symBinAddr: 0x46FBC, symSize: 0xAC }
  - { offset: 0xEA4AB, size: 0x8, addend: 0x0, symName: __RNvXs2V_NtNtCsaNl6UpbT7bw_4core5slice4iterINtB6_4IterNtCshnvkK9b4wzu_11proc_macro24SpanENtNtNtNtBa_4iter6traits8iterator8Iterator4nextCsc29TF2YcYso_3syn, symObjAddr: 0x2BF8, symBinAddr: 0x48E48, symSize: 0xB0 }
  - { offset: 0xEA5E5, size: 0x8, addend: 0x0, symName: __RNvXs2V_NtNtCsaNl6UpbT7bw_4core5slice4iterINtB6_4IterNtNtCsc29TF2YcYso_3syn4attr9AttributeENtNtNtNtBa_4iter6traits8iterator8Iterator4nextBT_, symObjAddr: 0x2CA8, symBinAddr: 0x48EF8, symSize: 0xB0 }
  - { offset: 0xEA71F, size: 0x8, addend: 0x0, symName: __RNvXs2V_NtNtCsaNl6UpbT7bw_4core5slice4iterINtB6_4IterNtNtCsc29TF2YcYso_3syn4expr3ArmENtNtNtNtBa_4iter6traits8iterator8Iterator4nextBT_, symObjAddr: 0x2D58, symBinAddr: 0x48FA8, symSize: 0xB0 }
  - { offset: 0xEA859, size: 0x8, addend: 0x0, symName: __RNvXs2V_NtNtCsaNl6UpbT7bw_4core5slice4iterINtB6_4IterNtNtCsc29TF2YcYso_3syn4item11ForeignItemENtNtNtNtBa_4iter6traits8iterator8Iterator4nextBT_, symObjAddr: 0x2E08, symBinAddr: 0x49058, symSize: 0xB0 }
  - { offset: 0xEA993, size: 0x8, addend: 0x0, symName: __RNvXs2V_NtNtCsaNl6UpbT7bw_4core5slice4iterINtB6_4IterNtNtCsc29TF2YcYso_3syn4item4ItemENtNtNtNtBa_4iter6traits8iterator8Iterator4nextBT_, symObjAddr: 0x2EB8, symBinAddr: 0x49108, symSize: 0xB0 }
  - { offset: 0xEAACD, size: 0x8, addend: 0x0, symName: __RNvXs2V_NtNtCsaNl6UpbT7bw_4core5slice4iterINtB6_4IterNtNtCsc29TF2YcYso_3syn4item8ImplItemENtNtNtNtBa_4iter6traits8iterator8Iterator4nextBT_, symObjAddr: 0x2F68, symBinAddr: 0x491B8, symSize: 0xB0 }
  - { offset: 0xEAC07, size: 0x8, addend: 0x0, symName: __RNvXs2V_NtNtCsaNl6UpbT7bw_4core5slice4iterINtB6_4IterNtNtCsc29TF2YcYso_3syn4item9TraitItemENtNtNtNtBa_4iter6traits8iterator8Iterator4nextBT_, symObjAddr: 0x3018, symBinAddr: 0x49268, symSize: 0xB0 }
  - { offset: 0xEAD41, size: 0x8, addend: 0x0, symName: __RNvXs2V_NtNtCsaNl6UpbT7bw_4core5slice4iterINtB6_4IterNtNtCsc29TF2YcYso_3syn4stmt4StmtENtNtNtNtBa_4iter6traits8iterator8Iterator4nextBT_, symObjAddr: 0x30C8, symBinAddr: 0x49318, symSize: 0xB0 }
  - { offset: 0xEAE7B, size: 0x8, addend: 0x0, symName: __RNvXs2V_NtNtCsaNl6UpbT7bw_4core5slice4iterINtB6_4IterNtNtCsc29TF2YcYso_3syn5error12ErrorMessageENtNtNtNtBa_4iter6traits8iterator8Iterator4nextBT_, symObjAddr: 0x3178, symBinAddr: 0x493C8, symSize: 0xB0 }
  - { offset: 0xEAFB5, size: 0x8, addend: 0x0, symName: __RNvXs2V_NtNtCsaNl6UpbT7bw_4core5slice4iterINtB6_4IterNtNtCsc29TF2YcYso_3syn5error12ErrorMessageENtNtNtNtBa_4iter6traits8iterator8Iterator9size_hintBT_, symObjAddr: 0x3228, symBinAddr: 0x49478, symSize: 0x70 }
  - { offset: 0xEB024, size: 0x8, addend: 0x0, symName: __RNvXs2V_NtNtCsaNl6UpbT7bw_4core5slice4iterINtB6_4IterTNtNtCsc29TF2YcYso_3syn2ty4TypeNtNtBU_5token5CommaEENtNtNtNtBa_4iter6traits8iterator8Iterator4nextBU_, symObjAddr: 0x3298, symBinAddr: 0x494E8, symSize: 0xB0 }
  - { offset: 0xEB15E, size: 0x8, addend: 0x0, symName: __RNvXs2V_NtNtCsaNl6UpbT7bw_4core5slice4iterINtB6_4IterTNtNtCsc29TF2YcYso_3syn2ty9BareFnArgNtNtBU_5token5CommaEENtNtNtNtBa_4iter6traits8iterator8Iterator4nextBU_, symObjAddr: 0x3348, symBinAddr: 0x49598, symSize: 0xB0 }
  - { offset: 0xEB298, size: 0x8, addend: 0x0, symName: __RNvXs2V_NtNtCsaNl6UpbT7bw_4core5slice4iterINtB6_4IterTNtNtCsc29TF2YcYso_3syn3pat3PatNtNtBU_5token2OrEENtNtNtNtBa_4iter6traits8iterator8Iterator4nextBU_, symObjAddr: 0x33F8, symBinAddr: 0x49648, symSize: 0xB0 }
  - { offset: 0xEB3D2, size: 0x8, addend: 0x0, symName: __RNvXs2V_NtNtCsaNl6UpbT7bw_4core5slice4iterINtB6_4IterTNtNtCsc29TF2YcYso_3syn3pat3PatNtNtBU_5token5CommaEENtNtNtNtBa_4iter6traits8iterator8Iterator4nextBU_, symObjAddr: 0x34A8, symBinAddr: 0x496F8, symSize: 0xB0 }
  - { offset: 0xEB50C, size: 0x8, addend: 0x0, symName: __RNvXs2V_NtNtCsaNl6UpbT7bw_4core5slice4iterINtB6_4IterTNtNtCsc29TF2YcYso_3syn3pat8FieldPatNtNtBU_5token5CommaEENtNtNtNtBa_4iter6traits8iterator8Iterator4nextBU_, symObjAddr: 0x3558, symBinAddr: 0x497A8, symSize: 0xB0 }
  - { offset: 0xEB646, size: 0x8, addend: 0x0, symName: __RNvXs2V_NtNtCsaNl6UpbT7bw_4core5slice4iterINtB6_4IterTNtNtCsc29TF2YcYso_3syn4data5FieldNtNtBU_5token5CommaEENtNtNtNtBa_4iter6traits8iterator8Iterator4nextBU_, symObjAddr: 0x3608, symBinAddr: 0x49858, symSize: 0xB0 }
  - { offset: 0xEB780, size: 0x8, addend: 0x0, symName: __RNvXs2V_NtNtCsaNl6UpbT7bw_4core5slice4iterINtB6_4IterTNtNtCsc29TF2YcYso_3syn4data7VariantNtNtBU_5token5CommaEENtNtNtNtBa_4iter6traits8iterator8Iterator4nextBU_, symObjAddr: 0x36B8, symBinAddr: 0x49908, symSize: 0xB0 }
  - { offset: 0xEB8BA, size: 0x8, addend: 0x0, symName: __RNvXs2V_NtNtCsaNl6UpbT7bw_4core5slice4iterINtB6_4IterTNtNtCsc29TF2YcYso_3syn4expr10FieldValueNtNtBU_5token5CommaEENtNtNtNtBa_4iter6traits8iterator8Iterator4nextBU_, symObjAddr: 0x3768, symBinAddr: 0x499B8, symSize: 0xB0 }
  - { offset: 0xEB9F4, size: 0x8, addend: 0x0, symName: __RNvXs2V_NtNtCsaNl6UpbT7bw_4core5slice4iterINtB6_4IterTNtNtCsc29TF2YcYso_3syn4expr4ExprNtNtBU_5token5CommaEENtNtNtNtBa_4iter6traits8iterator8Iterator4nextBU_, symObjAddr: 0x3818, symBinAddr: 0x49A68, symSize: 0xB0 }
  - { offset: 0xEBB2E, size: 0x8, addend: 0x0, symName: __RNvXs2V_NtNtCsaNl6UpbT7bw_4core5slice4iterINtB6_4IterTNtNtCsc29TF2YcYso_3syn4item5FnArgNtNtBU_5token5CommaEENtNtNtNtBa_4iter6traits8iterator8Iterator4nextBU_, symObjAddr: 0x38C8, symBinAddr: 0x49B18, symSize: 0xB0 }
  - { offset: 0xEBC68, size: 0x8, addend: 0x0, symName: __RNvXs2V_NtNtCsaNl6UpbT7bw_4core5slice4iterINtB6_4IterTNtNtCsc29TF2YcYso_3syn4item7UseTreeNtNtBU_5token5CommaEENtNtNtNtBa_4iter6traits8iterator8Iterator4nextBU_, symObjAddr: 0x3978, symBinAddr: 0x49BC8, symSize: 0xB0 }
  - { offset: 0xEBDA2, size: 0x8, addend: 0x0, symName: __RNvXs2V_NtNtCsaNl6UpbT7bw_4core5slice4iterINtB6_4IterTNtNtCsc29TF2YcYso_3syn4path11PathSegmentNtNtBU_5token7PathSepEENtNtNtNtBa_4iter6traits8iterator8Iterator4nextBU_, symObjAddr: 0x3A28, symBinAddr: 0x49C78, symSize: 0xB0 }
  - { offset: 0xEBEDC, size: 0x8, addend: 0x0, symName: __RNvXs2V_NtNtCsaNl6UpbT7bw_4core5slice4iterINtB6_4IterTNtNtCsc29TF2YcYso_3syn4path15GenericArgumentNtNtBU_5token5CommaEENtNtNtNtBa_4iter6traits8iterator8Iterator4nextBU_, symObjAddr: 0x3AD8, symBinAddr: 0x49D28, symSize: 0xB0 }
  - { offset: 0xEC016, size: 0x8, addend: 0x0, symName: __RNvXs2V_NtNtCsaNl6UpbT7bw_4core5slice4iterINtB6_4IterTNtNtCsc29TF2YcYso_3syn8generics12GenericParamNtNtBU_5token5CommaEENtNtNtNtBa_4iter6traits8iterator8Iterator4nextBU_, symObjAddr: 0x3B88, symBinAddr: 0x49DD8, symSize: 0xB0 }
  - { offset: 0xEC150, size: 0x8, addend: 0x0, symName: __RNvXs2V_NtNtCsaNl6UpbT7bw_4core5slice4iterINtB6_4IterTNtNtCsc29TF2YcYso_3syn8generics13CapturedParamNtNtBU_5token5CommaEENtNtNtNtBa_4iter6traits8iterator8Iterator4nextBU_, symObjAddr: 0x3C38, symBinAddr: 0x49E88, symSize: 0xB0 }
  - { offset: 0xEC28A, size: 0x8, addend: 0x0, symName: __RNvXs2V_NtNtCsaNl6UpbT7bw_4core5slice4iterINtB6_4IterTNtNtCsc29TF2YcYso_3syn8generics14TypeParamBoundNtNtBU_5token4PlusEENtNtNtNtBa_4iter6traits8iterator8Iterator4nextBU_, symObjAddr: 0x3CE8, symBinAddr: 0x49F38, symSize: 0xB0 }
  - { offset: 0xEC3C4, size: 0x8, addend: 0x0, symName: __RNvXs2V_NtNtCsaNl6UpbT7bw_4core5slice4iterINtB6_4IterTNtNtCsc29TF2YcYso_3syn8generics14WherePredicateNtNtBU_5token5CommaEENtNtNtNtBa_4iter6traits8iterator8Iterator4nextBU_, symObjAddr: 0x3D98, symBinAddr: 0x49FE8, symSize: 0xB0 }
  - { offset: 0xEC4FE, size: 0x8, addend: 0x0, symName: __RNvXs2V_NtNtCsaNl6UpbT7bw_4core5slice4iterINtB6_4IterTNtNtCsc29TF2YcYso_3syn8lifetime8LifetimeNtNtBU_5token4PlusEENtNtNtNtBa_4iter6traits8iterator8Iterator4nextBU_, symObjAddr: 0x3E48, symBinAddr: 0x4A098, symSize: 0xB0 }
  - { offset: 0xECEA8, size: 0x8, addend: 0x0, symName: __RNvXs2W_NtNtCsaNl6UpbT7bw_4core5slice4iterINtB6_4IterNtCshnvkK9b4wzu_11proc_macro24SpanENtNtNtNtBa_4iter6traits12double_ended19DoubleEndedIterator9next_backCsc29TF2YcYso_3syn, symObjAddr: 0x3EF8, symBinAddr: 0x4A148, symSize: 0x108 }
  - { offset: 0xED004, size: 0x8, addend: 0x0, symName: __RNvXs2W_NtNtCsaNl6UpbT7bw_4core5slice4iterINtB6_4IterTNtNtCsc29TF2YcYso_3syn4data5FieldNtNtBU_5token5CommaEENtNtNtNtBa_4iter6traits12double_ended19DoubleEndedIterator9next_backBU_, symObjAddr: 0x4000, symBinAddr: 0x4A250, symSize: 0x108 }
  - { offset: 0xED160, size: 0x8, addend: 0x0, symName: __RNvXs2W_NtNtCsaNl6UpbT7bw_4core5slice4iterINtB6_4IterTNtNtCsc29TF2YcYso_3syn4path11PathSegmentNtNtBU_5token7PathSepEENtNtNtNtBa_4iter6traits12double_ended19DoubleEndedIterator9next_backBU_, symObjAddr: 0x4210, symBinAddr: 0x4A358, symSize: 0x108 }
  - { offset: 0xED2BC, size: 0x8, addend: 0x0, symName: __RNvXs2W_NtNtCsaNl6UpbT7bw_4core5slice4iterINtB6_4IterTNtNtCsc29TF2YcYso_3syn8generics12GenericParamNtNtBU_5token5CommaEENtNtNtNtBa_4iter6traits12double_ended19DoubleEndedIterator9next_backBU_, symObjAddr: 0x4318, symBinAddr: 0x4A460, symSize: 0x108 }
  - { offset: 0xED418, size: 0x8, addend: 0x0, symName: __RNvXs2W_NtNtCsaNl6UpbT7bw_4core5slice4iterINtB6_4IterTNtNtCsc29TF2YcYso_3syn8generics14TypeParamBoundNtNtBU_5token4PlusEENtNtNtNtBa_4iter6traits12double_ended19DoubleEndedIterator9next_backBU_, symObjAddr: 0x4420, symBinAddr: 0x4A568, symSize: 0x108 }
  - { offset: 0xED574, size: 0x8, addend: 0x0, symName: __RNvXs2W_NtNtCsaNl6UpbT7bw_4core5slice4iterINtB6_4IterhENtNtNtNtBa_4iter6traits12double_ended19DoubleEndedIterator9next_backCsc29TF2YcYso_3syn, symObjAddr: 0x4528, symBinAddr: 0x4A670, symSize: 0x108 }
  - { offset: 0xED74D, size: 0x8, addend: 0x0, symName: __RNvXs33_NtNtCsaNl6UpbT7bw_4core5slice4iterINtB6_7IterMutTNtNtCsc29TF2YcYso_3syn4path11PathSegmentNtNtBX_5token7PathSepEENtNtNtNtBa_4iter6traits8iterator8Iterator4nextBX_, symObjAddr: 0x4C2C, symBinAddr: 0x4A98C, symSize: 0xB0 }
  - { offset: 0xED872, size: 0x8, addend: 0x0, symName: __RNvXs33_NtNtCsaNl6UpbT7bw_4core5slice4iterINtB6_7IterMuthENtNtNtNtBa_4iter6traits8iterator8Iterator4nextCsc29TF2YcYso_3syn, symObjAddr: 0x4D8C, symBinAddr: 0x4AA3C, symSize: 0xB0 }
  - { offset: 0xED99D, size: 0x8, addend: 0x0, symName: __RNvXs34_NtNtCsaNl6UpbT7bw_4core5slice4iterINtB6_7IterMutTNtNtCsc29TF2YcYso_3syn4path11PathSegmentNtNtBX_5token7PathSepEENtNtNtNtBa_4iter6traits12double_ended19DoubleEndedIterator9next_backBX_, symObjAddr: 0x4F44, symBinAddr: 0x4AAEC, symSize: 0x108 }
  - { offset: 0xEDAFF, size: 0x8, addend: 0x0, symName: __RNvXs5_NtNtCsaNl6UpbT7bw_4core5slice4iterINtB5_4IterTNtNtCsc29TF2YcYso_3syn4data5FieldNtNtBT_5token5CommaEENtNtB9_5clone5Clone5cloneBT_, symObjAddr: 0x5174, symBinAddr: 0x4AC14, symSize: 0x20 }
  - { offset: 0xEDB34, size: 0x8, addend: 0x0, symName: __RNvXs5_NtNtCsaNl6UpbT7bw_4core5slice4iterINtB5_4IterTNtNtCsc29TF2YcYso_3syn4path11PathSegmentNtNtBT_5token7PathSepEENtNtB9_5clone5Clone5cloneBT_, symObjAddr: 0x51B4, symBinAddr: 0x4AC34, symSize: 0x20 }
  - { offset: 0xEDB69, size: 0x8, addend: 0x0, symName: __RNvXs5_NtNtCsaNl6UpbT7bw_4core5slice4iterINtB5_4IterTNtNtCsc29TF2YcYso_3syn8generics12GenericParamNtNtBT_5token5CommaEENtNtB9_5clone5Clone5cloneBT_, symObjAddr: 0x51D4, symBinAddr: 0x4AC54, symSize: 0x20 }
  - { offset: 0xEDB9E, size: 0x8, addend: 0x0, symName: __RNvXs5_NtNtCsaNl6UpbT7bw_4core5slice4iterINtB5_4IterTNtNtCsc29TF2YcYso_3syn8generics14TypeParamBoundNtNtBT_5token4PlusEENtNtB9_5clone5Clone5cloneBT_, symObjAddr: 0x51F4, symBinAddr: 0x4AC74, symSize: 0x20 }
  - { offset: 0xEDDA2, size: 0x8, addend: 0x0, symName: __RNvMNtCsaNl6UpbT7bw_4core5sliceSTNtNtCsc29TF2YcYso_3syn4path11PathSegmentNtNtBz_5token7PathSepE4iterBz_, symObjAddr: 0x1B58, symBinAddr: 0x47FAC, symSize: 0x28 }
  - { offset: 0xEDDD9, size: 0x8, addend: 0x0, symName: __RNvMNtCsaNl6UpbT7bw_4core5sliceSTNtNtCsc29TF2YcYso_3syn4path11PathSegmentNtNtBz_5token7PathSepE8iter_mutBz_, symObjAddr: 0x1B80, symBinAddr: 0x47FD4, symSize: 0x28 }
  - { offset: 0xEDE10, size: 0x8, addend: 0x0, symName: __RNvMNtCsaNl6UpbT7bw_4core5sliceSTNtNtCsc29TF2YcYso_3syn4path15GenericArgumentNtNtBz_5token5CommaE4iterBz_, symObjAddr: 0x1BA8, symBinAddr: 0x47FFC, symSize: 0x28 }
  - { offset: 0xEDF74, size: 0x8, addend: 0x0, symName: __RNvNtNtCsaNl6UpbT7bw_4core5slice6memchr6memchrCsc29TF2YcYso_3syn, symObjAddr: 0x2450, symBinAddr: 0x487F4, symSize: 0x114 }
  - { offset: 0xEE7F9, size: 0x8, addend: 0x0, symName: __RINvYINtNtNtCsaNl6UpbT7bw_4core5array4iter8IntoIterNtCshnvkK9b4wzu_11proc_macro29TokenTreeKj1_ENtNtNtNtBa_4iter6traits8iterator8Iterator3mapNtCs7yrEGia95Wz_10proc_macro9TokenTreeNvNtBP_3imp19into_compiler_tokenECsc29TF2YcYso_3syn, symObjAddr: 0x1510, symBinAddr: 0x47964, symSize: 0x30 }
  - { offset: 0xEE867, size: 0x8, addend: 0x0, symName: __RINvYINtNtNtCsaNl6UpbT7bw_4core5array4iter8IntoIterNtCshnvkK9b4wzu_11proc_macro29TokenTreeKj1_ENtNtNtNtBa_4iter6traits8iterator8Iterator7collectNtNtBP_3imp11TokenStreamECsc29TF2YcYso_3syn, symObjAddr: 0x1540, symBinAddr: 0x47994, symSize: 0x6C }
  - { offset: 0xEE8FD, size: 0x8, addend: 0x0, symName: __RINvYINtNtNtCsaNl6UpbT7bw_4core5array4iter8IntoIterNtCshnvkK9b4wzu_11proc_macro29TokenTreeKj1_ENtNtNtNtBa_4iter6traits8iterator8Iterator7collectNtNtBP_8fallback11TokenStreamECsc29TF2YcYso_3syn, symObjAddr: 0x15AC, symBinAddr: 0x47A00, symSize: 0x6C }
  - { offset: 0xEE993, size: 0x8, addend: 0x0, symName: __RINvYINtNtNtCsaNl6UpbT7bw_4core5array4iter8IntoIterNtCshnvkK9b4wzu_11proc_macro29TokenTreeKj1_ENtNtNtNtBa_4iter6traits8iterator8Iterator8for_eachNCINvXsa_NtBP_8fallbackNtB2s_11TokenStreamINtNtB1z_7collect6ExtendBN_E6extendB3_E0ECsc29TF2YcYso_3syn, symObjAddr: 0x1618, symBinAddr: 0x47A6C, symSize: 0x24 }
  - { offset: 0xEE9DF, size: 0x8, addend: 0x0, symName: __RINvYINtNtNtCsaNl6UpbT7bw_4core5array4iter8IntoIterNtCshnvkK9b4wzu_11proc_macro29TokenTreeKj8_ENtNtNtNtBa_4iter6traits8iterator8Iterator3mapNtCs7yrEGia95Wz_10proc_macro9TokenTreeNvNtBP_3imp19into_compiler_tokenECsc29TF2YcYso_3syn, symObjAddr: 0x163C, symBinAddr: 0x47A90, symSize: 0x30 }
  - { offset: 0xEEA4D, size: 0x8, addend: 0x0, symName: __RINvYINtNtNtCsaNl6UpbT7bw_4core5array4iter8IntoIterNtCshnvkK9b4wzu_11proc_macro29TokenTreeKj8_ENtNtNtNtBa_4iter6traits8iterator8Iterator7collectNtNtBP_3imp11TokenStreamECsc29TF2YcYso_3syn, symObjAddr: 0x166C, symBinAddr: 0x47AC0, symSize: 0x74 }
  - { offset: 0xEEAE3, size: 0x8, addend: 0x0, symName: __RINvYINtNtNtCsaNl6UpbT7bw_4core5array4iter8IntoIterNtCshnvkK9b4wzu_11proc_macro29TokenTreeKj8_ENtNtNtNtBa_4iter6traits8iterator8Iterator7collectNtNtBP_8fallback11TokenStreamECsc29TF2YcYso_3syn, symObjAddr: 0x16E0, symBinAddr: 0x47B34, symSize: 0x74 }
  - { offset: 0xEEB79, size: 0x8, addend: 0x0, symName: __RINvYINtNtNtCsaNl6UpbT7bw_4core5array4iter8IntoIterNtCshnvkK9b4wzu_11proc_macro29TokenTreeKj8_ENtNtNtNtBa_4iter6traits8iterator8Iterator8for_eachNCINvXsa_NtBP_8fallbackNtB2s_11TokenStreamINtNtB1z_7collect6ExtendBN_E6extendB3_E0ECsc29TF2YcYso_3syn, symObjAddr: 0x1754, symBinAddr: 0x47BA8, symSize: 0x24 }
  - { offset: 0xEEBC5, size: 0x8, addend: 0x0, symName: __RINvYINtNtNtCsaNl6UpbT7bw_4core5slice4iter4IterNtNtCsc29TF2YcYso_3syn4attr9AttributeENtNtNtNtBa_4iter6traits8iterator8Iterator6filterFG0_RL1_RL0_BJ_EbEBN_, symObjAddr: 0x1778, symBinAddr: 0x47BCC, symSize: 0x30 }
  - { offset: 0xEEC29, size: 0x8, addend: 0x0, symName: __RINvYINtNtNtCsaNl6UpbT7bw_4core5slice4iter4IterNtNtCsc29TF2YcYso_3syn5error12ErrorMessageENtNtNtNtBa_4iter6traits8iterator8Iterator3mapNtCshnvkK9b4wzu_11proc_macro211TokenStreamNvMs_BL_BJ_16to_compile_errorEBN_, symObjAddr: 0x17A8, symBinAddr: 0x47BFC, symSize: 0x1C }
  - { offset: 0xEEC81, size: 0x8, addend: 0x0, symName: __RINvYINtNtNtCsaNl6UpbT7bw_4core5slice4iter4IterReENtNtNtNtBa_4iter6traits8iterator8Iterator8try_foldjNCINvNtNtBS_8adapters3map12map_try_foldRBJ_jjINtNtBa_6option6OptionjENCNCINvNtCsiTraAjBDcu4_5alloc3str17join_generic_copyehBJ_E00NvMs9_NtBa_3numj11checked_addE0B2k_ECsc29TF2YcYso_3syn, symObjAddr: 0x17C4, symBinAddr: 0x47C18, symSize: 0x17C }
  - { offset: 0xEED35, size: 0x8, addend: 0x0, symName: __RNvYINtNtNtCsaNl6UpbT7bw_4core5slice4iter4IterNtNtCsc29TF2YcYso_3syn4expr3ArmENtNtNtNtB9_4iter6traits8iterator8Iterator9enumerateBM_, symObjAddr: 0x5CC0, symBinAddr: 0x4B540, symSize: 0x28 }
  - { offset: 0xEED81, size: 0x8, addend: 0x0, symName: __RNvYINtNtNtCsaNl6UpbT7bw_4core5slice4iter4IterhENtNtNtNtB9_4iter6traits8iterator8Iterator3revCsc29TF2YcYso_3syn, symObjAddr: 0x5CE8, symBinAddr: 0x4B568, symSize: 0x1C }
  - { offset: 0xEEDC4, size: 0x8, addend: 0x0, symName: __RNvXNtNtNtCsaNl6UpbT7bw_4core4iter6traits7collectINtNtNtB8_5array4iter8IntoIterNtCshnvkK9b4wzu_11proc_macro29TokenTreeKj1_ENtB2_12IntoIterator9into_iterCsc29TF2YcYso_3syn, symObjAddr: 0x2684, symBinAddr: 0x48A28, symSize: 0x30 }
  - { offset: 0xEEDFC, size: 0x8, addend: 0x0, symName: __RNvXNtNtNtCsaNl6UpbT7bw_4core4iter6traits7collectINtNtNtB8_5array4iter8IntoIterNtCshnvkK9b4wzu_11proc_macro29TokenTreeKj8_ENtB2_12IntoIterator9into_iterCsc29TF2YcYso_3syn, symObjAddr: 0x26B4, symBinAddr: 0x48A58, symSize: 0x30 }
  - { offset: 0xEEE34, size: 0x8, addend: 0x0, symName: __RNvXNtNtNtCsaNl6UpbT7bw_4core4iter6traits7collectINtNtNtB8_5slice4iter4IterNtCshnvkK9b4wzu_11proc_macro24SpanENtB2_12IntoIterator9into_iterCsc29TF2YcYso_3syn, symObjAddr: 0x26E4, symBinAddr: 0x48A88, symSize: 0x1C }
  - { offset: 0xEEE6B, size: 0x8, addend: 0x0, symName: __RNvXNtNtNtCsaNl6UpbT7bw_4core4iter6traits7collectINtNtNtB8_5slice4iter4IterNtNtCsc29TF2YcYso_3syn5error12ErrorMessageENtB2_12IntoIterator9into_iterB1f_, symObjAddr: 0x27C4, symBinAddr: 0x48AA4, symSize: 0x1C }
  - { offset: 0xEF186, size: 0x8, addend: 0x0, symName: __RINvXs2_NtNtCsaNl6UpbT7bw_4core5array4iterINtB6_8IntoIterNtCshnvkK9b4wzu_11proc_macro29TokenTreeKj1_ENtNtNtNtBa_4iter6traits8iterator8Iterator4folduNCINvNtNtB1H_8adapters3map8map_foldBT_NtCs7yrEGia95Wz_10proc_macro9TokenTreeuNvNtBV_3imp19into_compiler_tokenNCINvNvB1B_8for_each4callB2Y_NCINvXsg_B30_NtB30_11TokenStreamINtNtB1F_7collect12FromIteratorB2Y_E9from_iterINtB2r_3MapBE_B3B_EE0E0E0ECsc29TF2YcYso_3syn, symObjAddr: 0xAA8, symBinAddr: 0x47068, symSize: 0x9C }
  - { offset: 0xEF290, size: 0x8, addend: 0x0, symName: __RINvXs2_NtNtCsaNl6UpbT7bw_4core5array4iterINtB6_8IntoIterNtCshnvkK9b4wzu_11proc_macro29TokenTreeKj1_ENtNtNtNtBa_4iter6traits8iterator8Iterator4folduNCINvNvB1B_8for_each4callBT_NCINvXsa_NtBV_8fallbackNtB2X_11TokenStreamINtNtB1F_7collect6ExtendBT_E6extendBE_E0E0ECsc29TF2YcYso_3syn, symObjAddr: 0xB44, symBinAddr: 0x47104, symSize: 0x9C }
  - { offset: 0xEF39A, size: 0x8, addend: 0x0, symName: __RINvXs2_NtNtCsaNl6UpbT7bw_4core5array4iterINtB6_8IntoIterNtCshnvkK9b4wzu_11proc_macro29TokenTreeKj8_ENtNtNtNtBa_4iter6traits8iterator8Iterator4folduNCINvNtNtB1H_8adapters3map8map_foldBT_NtCs7yrEGia95Wz_10proc_macro9TokenTreeuNvNtBV_3imp19into_compiler_tokenNCINvNvB1B_8for_each4callB2Y_NCINvXsg_B30_NtB30_11TokenStreamINtNtB1F_7collect12FromIteratorB2Y_E9from_iterINtB2r_3MapBE_B3B_EE0E0E0ECsc29TF2YcYso_3syn, symObjAddr: 0xBE0, symBinAddr: 0x471A0, symSize: 0x9C }
  - { offset: 0xEF4A4, size: 0x8, addend: 0x0, symName: __RINvXs2_NtNtCsaNl6UpbT7bw_4core5array4iterINtB6_8IntoIterNtCshnvkK9b4wzu_11proc_macro29TokenTreeKj8_ENtNtNtNtBa_4iter6traits8iterator8Iterator4folduNCINvNvB1B_8for_each4callBT_NCINvXsa_NtBV_8fallbackNtB2X_11TokenStreamINtNtB1F_7collect6ExtendBT_E6extendBE_E0E0ECsc29TF2YcYso_3syn, symObjAddr: 0xC7C, symBinAddr: 0x4723C, symSize: 0x9C }
  - { offset: 0xEF5AE, size: 0x8, addend: 0x0, symName: __RNvXs2_NtNtCsaNl6UpbT7bw_4core5array4iterINtB5_8IntoIterNtCshnvkK9b4wzu_11proc_macro29TokenTreeKj1_ENtNtNtNtB9_4iter6traits8iterator8Iterator9size_hintCsc29TF2YcYso_3syn, symObjAddr: 0x47BC, symBinAddr: 0x4A904, symSize: 0x44 }
  - { offset: 0xEF621, size: 0x8, addend: 0x0, symName: __RNvXs2_NtNtCsaNl6UpbT7bw_4core5array4iterINtB5_8IntoIterNtCshnvkK9b4wzu_11proc_macro29TokenTreeKj8_ENtNtNtNtB9_4iter6traits8iterator8Iterator9size_hintCsc29TF2YcYso_3syn, symObjAddr: 0x4800, symBinAddr: 0x4A948, symSize: 0x44 }
  - { offset: 0xEF6D7, size: 0x8, addend: 0x0, symName: __RNvXs4_NtNtCsaNl6UpbT7bw_4core5array4iterINtB5_8IntoIterNtCshnvkK9b4wzu_11proc_macro29TokenTreeKj1_ENtNtNtB9_3ops4drop4Drop4dropCsc29TF2YcYso_3syn, symObjAddr: 0x5154, symBinAddr: 0x4ABF4, symSize: 0x10 }
  - { offset: 0xEF70A, size: 0x8, addend: 0x0, symName: __RNvXs4_NtNtCsaNl6UpbT7bw_4core5array4iterINtB5_8IntoIterNtCshnvkK9b4wzu_11proc_macro29TokenTreeKj8_ENtNtNtB9_3ops4drop4Drop4dropCsc29TF2YcYso_3syn, symObjAddr: 0x5164, symBinAddr: 0x4AC04, symSize: 0x10 }
  - { offset: 0xF0101, size: 0x8, addend: 0x0, symName: __RNvXNtNtCsaNl6UpbT7bw_4core5clone6uninitNtNtCsc29TF2YcYso_3syn4path11PathSegmentNtB2_8CopySpec9clone_oneBG_, symObjAddr: 0x25A4, symBinAddr: 0x48948, symSize: 0x48 }
  - { offset: 0xF0165, size: 0x8, addend: 0x0, symName: __RNvXNtNtCsaNl6UpbT7bw_4core5clone6uninitNtNtCsc29TF2YcYso_3syn4path15GenericArgumentNtB2_8CopySpec9clone_oneBG_, symObjAddr: 0x25EC, symBinAddr: 0x48990, symSize: 0x50 }
  - { offset: 0xF01C9, size: 0x8, addend: 0x0, symName: __RNvXNtNtCsaNl6UpbT7bw_4core5clone6uninitNtNtCsc29TF2YcYso_3syn4path4PathNtB2_8CopySpec9clone_oneBG_, symObjAddr: 0x263C, symBinAddr: 0x489E0, symSize: 0x48 }
  - { offset: 0xF0304, size: 0x8, addend: 0x0, symName: __RNvXs0_NtNtCsaNl6UpbT7bw_4core3str7patternNtB5_12CharSearcherNtB5_15ReverseSearcher15next_match_backCsc29TF2YcYso_3syn, symObjAddr: 0x27E0, symBinAddr: 0x48AC0, symSize: 0x388 }
  - { offset: 0xF080B, size: 0x8, addend: 0x0, symName: __RNvXs2_NtNtCsaNl6UpbT7bw_4core3str7patterncNtB5_7Pattern12is_suffix_ofCsc29TF2YcYso_3syn, symObjAddr: 0x4630, symBinAddr: 0x4A778, symSize: 0x78 }
  - { offset: 0xF08B2, size: 0x8, addend: 0x0, symName: __RNvXs2_NtNtCsaNl6UpbT7bw_4core3str7patterncNtB5_7Pattern13into_searcherCsc29TF2YcYso_3syn, symObjAddr: 0x46A8, symBinAddr: 0x4A7F0, symSize: 0x114 }
  - { offset: 0xF09D0, size: 0x8, addend: 0x0, symName: __RNvXs_NtNtCsaNl6UpbT7bw_4core3str7patternNtB4_12CharSearcherNtB4_8Searcher10next_matchCsc29TF2YcYso_3syn, symObjAddr: 0x5678, symBinAddr: 0x4AEF8, symSize: 0x380 }
  - { offset: 0xF0E34, size: 0x8, addend: 0x0, symName: __RNvXs_NtNtCsaNl6UpbT7bw_4core3str7patternNtB4_12CharSearcherNtB4_8Searcher8haystackCsc29TF2YcYso_3syn, symObjAddr: 0x59F8, symBinAddr: 0x4B278, symSize: 0x20 }
  - { offset: 0xF1578, size: 0x8, addend: 0x0, symName: __RINvMsv_NtCshnvkK9b4wzu_11proc_macro23impNtB6_7Literal7subspanINtNtNtCsaNl6UpbT7bw_4core3ops5range5RangejEECsc29TF2YcYso_3syn, symObjAddr: 0x0, symBinAddr: 0x465C0, symSize: 0xD4 }
  - { offset: 0xF258F, size: 0x8, addend: 0x0, symName: __RNvMs4_NtNtCsaNl6UpbT7bw_4core5slice4iterINtB5_4IterNtCshnvkK9b4wzu_11proc_macro24SpanE3newCsc29TF2YcYso_3syn, symObjAddr: 0x1BD0, symBinAddr: 0x48024, symSize: 0x50 }
  - { offset: 0xF273F, size: 0x8, addend: 0x0, symName: __RNvMs4_NtNtCsaNl6UpbT7bw_4core5slice4iterINtB5_4IterNtNtCsc29TF2YcYso_3syn4attr9AttributeE3newBS_, symObjAddr: 0x1C20, symBinAddr: 0x48074, symSize: 0x50 }
  - { offset: 0xF2909, size: 0x8, addend: 0x0, symName: __RNvMs4_NtNtCsaNl6UpbT7bw_4core5slice4iterINtB5_4IterNtNtCsc29TF2YcYso_3syn4expr3ArmE3newBS_, symObjAddr: 0x1C70, symBinAddr: 0x480C4, symSize: 0x58 }
  - { offset: 0xF2AB9, size: 0x8, addend: 0x0, symName: __RNvMs4_NtNtCsaNl6UpbT7bw_4core5slice4iterINtB5_4IterNtNtCsc29TF2YcYso_3syn5error12ErrorMessageE3newBS_, symObjAddr: 0x1CC8, symBinAddr: 0x4811C, symSize: 0x58 }
  - { offset: 0xF2C83, size: 0x8, addend: 0x0, symName: __RNvMs4_NtNtCsaNl6UpbT7bw_4core5slice4iterINtB5_4IterTNtNtCsc29TF2YcYso_3syn2ty4TypeNtNtBT_5token5CommaEE3newBT_, symObjAddr: 0x1D20, symBinAddr: 0x48174, symSize: 0x58 }
  - { offset: 0xF2E4D, size: 0x8, addend: 0x0, symName: __RNvMs4_NtNtCsaNl6UpbT7bw_4core5slice4iterINtB5_4IterTNtNtCsc29TF2YcYso_3syn2ty9BareFnArgNtNtBT_5token5CommaEE3newBT_, symObjAddr: 0x1D78, symBinAddr: 0x481CC, symSize: 0x58 }
  - { offset: 0xF3017, size: 0x8, addend: 0x0, symName: __RNvMs4_NtNtCsaNl6UpbT7bw_4core5slice4iterINtB5_4IterTNtNtCsc29TF2YcYso_3syn3pat3PatNtNtBT_5token2OrEE3newBT_, symObjAddr: 0x1DD0, symBinAddr: 0x48224, symSize: 0x58 }
  - { offset: 0xF31E1, size: 0x8, addend: 0x0, symName: __RNvMs4_NtNtCsaNl6UpbT7bw_4core5slice4iterINtB5_4IterTNtNtCsc29TF2YcYso_3syn3pat3PatNtNtBT_5token5CommaEE3newBT_, symObjAddr: 0x1E28, symBinAddr: 0x4827C, symSize: 0x58 }
  - { offset: 0xF33AB, size: 0x8, addend: 0x0, symName: __RNvMs4_NtNtCsaNl6UpbT7bw_4core5slice4iterINtB5_4IterTNtNtCsc29TF2YcYso_3syn3pat8FieldPatNtNtBT_5token5CommaEE3newBT_, symObjAddr: 0x1E80, symBinAddr: 0x482D4, symSize: 0x58 }
  - { offset: 0xF3575, size: 0x8, addend: 0x0, symName: __RNvMs4_NtNtCsaNl6UpbT7bw_4core5slice4iterINtB5_4IterTNtNtCsc29TF2YcYso_3syn4data5FieldNtNtBT_5token5CommaEE3newBT_, symObjAddr: 0x1ED8, symBinAddr: 0x4832C, symSize: 0x58 }
  - { offset: 0xF373F, size: 0x8, addend: 0x0, symName: __RNvMs4_NtNtCsaNl6UpbT7bw_4core5slice4iterINtB5_4IterTNtNtCsc29TF2YcYso_3syn4data7VariantNtNtBT_5token5CommaEE3newBT_, symObjAddr: 0x1F30, symBinAddr: 0x48384, symSize: 0x58 }
  - { offset: 0xF3909, size: 0x8, addend: 0x0, symName: __RNvMs4_NtNtCsaNl6UpbT7bw_4core5slice4iterINtB5_4IterTNtNtCsc29TF2YcYso_3syn4expr10FieldValueNtNtBT_5token5CommaEE3newBT_, symObjAddr: 0x1F88, symBinAddr: 0x483DC, symSize: 0x58 }
  - { offset: 0xF3AD3, size: 0x8, addend: 0x0, symName: __RNvMs4_NtNtCsaNl6UpbT7bw_4core5slice4iterINtB5_4IterTNtNtCsc29TF2YcYso_3syn4expr4ExprNtNtBT_5token5CommaEE3newBT_, symObjAddr: 0x1FE0, symBinAddr: 0x48434, symSize: 0x58 }
  - { offset: 0xF3C9D, size: 0x8, addend: 0x0, symName: __RNvMs4_NtNtCsaNl6UpbT7bw_4core5slice4iterINtB5_4IterTNtNtCsc29TF2YcYso_3syn4item5FnArgNtNtBT_5token5CommaEE3newBT_, symObjAddr: 0x2038, symBinAddr: 0x4848C, symSize: 0x58 }
  - { offset: 0xF3E67, size: 0x8, addend: 0x0, symName: __RNvMs4_NtNtCsaNl6UpbT7bw_4core5slice4iterINtB5_4IterTNtNtCsc29TF2YcYso_3syn4item7UseTreeNtNtBT_5token5CommaEE3newBT_, symObjAddr: 0x2090, symBinAddr: 0x484E4, symSize: 0x58 }
  - { offset: 0xF3FC5, size: 0x8, addend: 0x0, symName: __RNvMs4_NtNtCsaNl6UpbT7bw_4core5slice4iterINtB5_4IterTNtNtCsc29TF2YcYso_3syn4path11PathSegmentNtNtBT_5token7PathSepEE3newBT_, symObjAddr: 0x20E8, symBinAddr: 0x4853C, symSize: 0x58 }
  - { offset: 0xF4123, size: 0x8, addend: 0x0, symName: __RNvMs4_NtNtCsaNl6UpbT7bw_4core5slice4iterINtB5_4IterTNtNtCsc29TF2YcYso_3syn4path15GenericArgumentNtNtBT_5token5CommaEE3newBT_, symObjAddr: 0x2140, symBinAddr: 0x48594, symSize: 0x58 }
  - { offset: 0xF42ED, size: 0x8, addend: 0x0, symName: __RNvMs4_NtNtCsaNl6UpbT7bw_4core5slice4iterINtB5_4IterTNtNtCsc29TF2YcYso_3syn8generics12GenericParamNtNtBT_5token5CommaEE3newBT_, symObjAddr: 0x2198, symBinAddr: 0x485EC, symSize: 0x58 }
  - { offset: 0xF44B7, size: 0x8, addend: 0x0, symName: __RNvMs4_NtNtCsaNl6UpbT7bw_4core5slice4iterINtB5_4IterTNtNtCsc29TF2YcYso_3syn8generics13CapturedParamNtNtBT_5token5CommaEE3newBT_, symObjAddr: 0x21F0, symBinAddr: 0x48644, symSize: 0x58 }
  - { offset: 0xF4681, size: 0x8, addend: 0x0, symName: __RNvMs4_NtNtCsaNl6UpbT7bw_4core5slice4iterINtB5_4IterTNtNtCsc29TF2YcYso_3syn8generics14TypeParamBoundNtNtBT_5token4PlusEE3newBT_, symObjAddr: 0x2248, symBinAddr: 0x4869C, symSize: 0x50 }
  - { offset: 0xF484B, size: 0x8, addend: 0x0, symName: __RNvMs4_NtNtCsaNl6UpbT7bw_4core5slice4iterINtB5_4IterTNtNtCsc29TF2YcYso_3syn8generics14WherePredicateNtNtBT_5token5CommaEE3newBT_, symObjAddr: 0x2298, symBinAddr: 0x486EC, symSize: 0x58 }
  - { offset: 0xF4A15, size: 0x8, addend: 0x0, symName: __RNvMs4_NtNtCsaNl6UpbT7bw_4core5slice4iterINtB5_4IterTNtNtCsc29TF2YcYso_3syn8lifetime8LifetimeNtNtBT_5token4PlusEE3newBT_, symObjAddr: 0x22F0, symBinAddr: 0x48744, symSize: 0x58 }
  - { offset: 0xF4BBC, size: 0x8, addend: 0x0, symName: __RNvMsa_NtNtCsaNl6UpbT7bw_4core5slice4iterINtB5_7IterMutTNtNtCsc29TF2YcYso_3syn4path11PathSegmentNtNtBW_5token7PathSepEE3newBW_, symObjAddr: 0x23A0, symBinAddr: 0x4879C, symSize: 0x58 }
  - { offset: 0xF4CF7, size: 0x8, addend: 0x0, symName: __RNvXNtCs4EAaWzSXu1l_5quote9to_tokensRNtNtCsc29TF2YcYso_3syn4path15GenericArgumentNtB2_8ToTokens9to_tokensBD_, symObjAddr: 0x2564, symBinAddr: 0x48908, symSize: 0x40 }
  - { offset: 0xF6299, size: 0x8, addend: 0x0, symName: __RINvMs_NtCsc29TF2YcYso_3syn4pathNtB5_4Path8is_identeEB7_, symObjAddr: 0x74AC, symBinAddr: 0x4CC88, symSize: 0x94 }
  - { offset: 0xF62FC, size: 0x8, addend: 0x0, symName: __RNvMs_NtCsc29TF2YcYso_3syn4pathNtB4_4Path9get_ident, symObjAddr: 0x7540, symBinAddr: 0x4CD1C, symSize: 0xE8 }
  - { offset: 0xF6338, size: 0x8, addend: 0x0, symName: __RNvMs2_NtCsc29TF2YcYso_3syn4pathNtB5_13PathArguments8is_empty, symObjAddr: 0x77C4, symBinAddr: 0x4CE6C, symSize: 0xCC }
  - { offset: 0xF6377, size: 0x8, addend: 0x0, symName: __RNvMs2_NtCsc29TF2YcYso_3syn4pathNtB5_13PathArguments7is_none, symObjAddr: 0x7890, symBinAddr: 0x4CF38, symSize: 0x78 }
  - { offset: 0xF63F8, size: 0x8, addend: 0x0, symName: __RNvMs0_NtNtCsc29TF2YcYso_3syn4path7parsingNtB7_30AngleBracketedGenericArguments15parse_turbofish, symObjAddr: 0x8D04, symBinAddr: 0x4E3AC, symSize: 0xD0 }
  - { offset: 0xF6457, size: 0x8, addend: 0x0, symName: __RNvMs0_NtNtCsc29TF2YcYso_3syn4path7parsingNtB7_30AngleBracketedGenericArguments8do_parse, symObjAddr: 0x8DD4, symBinAddr: 0x4E47C, symSize: 0x498 }
  - { offset: 0xF6562, size: 0x8, addend: 0x0, symName: __RNvMs4_NtNtCsc29TF2YcYso_3syn4path7parsingNtB7_11PathSegment12parse_helper, symObjAddr: 0x96B8, symBinAddr: 0x4ED24, symSize: 0x66C }
  - { offset: 0xF669B, size: 0x8, addend: 0x0, symName: __RNvMs5_NtNtCsc29TF2YcYso_3syn4path7parsingNtB7_4Path15parse_mod_style, symObjAddr: 0x9D24, symBinAddr: 0x4F390, symSize: 0x568 }
  - { offset: 0xF6777, size: 0x8, addend: 0x0, symName: __RNvMs5_NtNtCsc29TF2YcYso_3syn4path7parsingNtB7_4Path12parse_helper, symObjAddr: 0xA28C, symBinAddr: 0x4F8F8, symSize: 0x330 }
  - { offset: 0xF6877, size: 0x8, addend: 0x0, symName: __RNvMs5_NtNtCsc29TF2YcYso_3syn4path7parsingNtB7_4Path10parse_rest, symObjAddr: 0xA5BC, symBinAddr: 0x4FC28, symSize: 0x26C }
  - { offset: 0xF694C, size: 0x8, addend: 0x0, symName: __RNvMs5_NtNtCsc29TF2YcYso_3syn4path7parsingNtB7_4Path12is_mod_style, symObjAddr: 0xA828, symBinAddr: 0x4FE94, symSize: 0x84 }
  - { offset: 0xF7A2C, size: 0x8, addend: 0x0, symName: __RNvMs9_NtCsaNl6UpbT7bw_4core3numj11checked_addCsc29TF2YcYso_3syn, symObjAddr: 0x6190, symBinAddr: 0x57090, symSize: 0x74 }
  - { offset: 0xF7AB6, size: 0x8, addend: 0x0, symName: __RNvNvMs9_NtCsaNl6UpbT7bw_4core3numj13unchecked_add18precondition_checkCsc29TF2YcYso_3syn, symObjAddr: 0x699C, symBinAddr: 0x57750, symSize: 0xB0 }
  - { offset: 0xF7B74, size: 0x8, addend: 0x0, symName: __RNvNvMs9_NtCsaNl6UpbT7bw_4core3numj13unchecked_mul18precondition_checkCsc29TF2YcYso_3syn, symObjAddr: 0x6A4C, symBinAddr: 0x57800, symSize: 0xAC }
  - { offset: 0xF7D05, size: 0x8, addend: 0x0, symName: __RNvMsA_NtCsaNl6UpbT7bw_4core3numm16from_ascii_radixCsc29TF2YcYso_3syn, symObjAddr: 0x6204, symBinAddr: 0x57104, symSize: 0x594 }
  - { offset: 0xF7FA2, size: 0x8, addend: 0x0, symName: __RNvNvMs3_NtCsaNl6UpbT7bw_4core3numi13unchecked_neg18precondition_checkCsc29TF2YcYso_3syn, symObjAddr: 0x68E4, symBinAddr: 0x57698, symSize: 0xB8 }
  - { offset: 0xF803F, size: 0x8, addend: 0x0, symName: __RNvXsz_NtCsaNl6UpbT7bw_4core3nummNtNtNtB7_3str6traits7FromStr8from_strCsc29TF2YcYso_3syn, symObjAddr: 0x14A54, symBinAddr: 0x6441C, symSize: 0x40 }
  - { offset: 0x1019C3, size: 0x8, addend: 0x0, symName: __RNvXsp_NtCsaNl6UpbT7bw_4core6resultINtB5_6ResultANtCshnvkK9b4wzu_11proc_macro24Spanj1_NtNtCsc29TF2YcYso_3syn5error5ErrorENtNtNtB7_3ops9try_trait3Try6branchB1q_, symObjAddr: 0x709C, symBinAddr: 0x57DF4, symSize: 0x8C }
  - { offset: 0x101A40, size: 0x8, addend: 0x0, symName: __RNvXsp_NtCsaNl6UpbT7bw_4core6resultINtB5_6ResultANtCshnvkK9b4wzu_11proc_macro24Spanj2_NtNtCsc29TF2YcYso_3syn5error5ErrorENtNtNtB7_3ops9try_trait3Try6branchB1q_, symObjAddr: 0x7128, symBinAddr: 0x57E80, symSize: 0x8C }
  - { offset: 0x101ABD, size: 0x8, addend: 0x0, symName: __RNvXsp_NtCsaNl6UpbT7bw_4core6resultINtB5_6ResultANtCshnvkK9b4wzu_11proc_macro24Spanj3_NtNtCsc29TF2YcYso_3syn5error5ErrorENtNtNtB7_3ops9try_trait3Try6branchB1q_, symObjAddr: 0x71B4, symBinAddr: 0x57F0C, symSize: 0x9C }
  - { offset: 0x101B3A, size: 0x8, addend: 0x0, symName: __RNvXsp_NtCsaNl6UpbT7bw_4core6resultINtB5_6ResultINtNtB7_6option6OptionINtNtCsiTraAjBDcu4_5alloc5boxed3BoxNtNtCsc29TF2YcYso_3syn4expr4ExprEENtNtB1J_5error5ErrorENtNtNtB7_3ops9try_trait3Try6branchB1J_, symObjAddr: 0x7250, symBinAddr: 0x57FA8, symSize: 0x88 }
  - { offset: 0x101BB8, size: 0x8, addend: 0x0, symName: __RNvXsp_NtCsaNl6UpbT7bw_4core6resultINtB5_6ResultINtNtB7_6option6OptionNtCshnvkK9b4wzu_11proc_macro25IdentENtNtCsc29TF2YcYso_3syn5error5ErrorENtNtNtB7_3ops9try_trait3Try6branchB1K_, symObjAddr: 0x72D8, symBinAddr: 0x58030, symSize: 0x94 }
  - { offset: 0x101C35, size: 0x8, addend: 0x0, symName: __RNvXsp_NtCsaNl6UpbT7bw_4core6resultINtB5_6ResultINtNtB7_6option6OptionNtNtCsc29TF2YcYso_3syn2ty3AbiENtNtB1a_5error5ErrorENtNtNtB7_3ops9try_trait3Try6branchB1a_, symObjAddr: 0x736C, symBinAddr: 0x580C4, symSize: 0x94 }
  - { offset: 0x101CB2, size: 0x8, addend: 0x0, symName: __RNvXsp_NtCsaNl6UpbT7bw_4core6resultINtB5_6ResultINtNtB7_6option6OptionNtNtCsc29TF2YcYso_3syn3lit3LitENtNtB1a_5error5ErrorENtNtNtB7_3ops9try_trait3Try6branchB1a_, symObjAddr: 0x7400, symBinAddr: 0x58158, symSize: 0x94 }
  - { offset: 0x101D2F, size: 0x8, addend: 0x0, symName: __RNvXsp_NtCsaNl6UpbT7bw_4core6resultINtB5_6ResultINtNtB7_6option6OptionNtNtCsc29TF2YcYso_3syn3lit6LitStrENtNtB1a_5error5ErrorENtNtNtB7_3ops9try_trait3Try6branchB1a_, symObjAddr: 0x7494, symBinAddr: 0x581EC, symSize: 0x88 }
  - { offset: 0x101DAD, size: 0x8, addend: 0x0, symName: __RNvXsp_NtCsaNl6UpbT7bw_4core6resultINtB5_6ResultINtNtB7_6option6OptionNtNtCsc29TF2YcYso_3syn3lit8LitFloatENtNtB1a_5error5ErrorENtNtNtB7_3ops9try_trait3Try6branchB1a_, symObjAddr: 0x751C, symBinAddr: 0x58274, symSize: 0x88 }
  - { offset: 0x101E2B, size: 0x8, addend: 0x0, symName: __RNvXsp_NtCsaNl6UpbT7bw_4core6resultINtB5_6ResultINtNtB7_6option6OptionNtNtCsc29TF2YcYso_3syn4expr5LabelENtNtB1a_5error5ErrorENtNtNtB7_3ops9try_trait3Try6branchB1a_, symObjAddr: 0x75A4, symBinAddr: 0x582FC, symSize: 0xB0 }
  - { offset: 0x101EA8, size: 0x8, addend: 0x0, symName: __RNvXsp_NtCsaNl6UpbT7bw_4core6resultINtB5_6ResultINtNtB7_6option6OptionNtNtCsc29TF2YcYso_3syn4item10ImplItemFnENtNtB1a_5error5ErrorENtNtNtB7_3ops9try_trait3Try6branchB1a_, symObjAddr: 0x7654, symBinAddr: 0x583AC, symSize: 0xC0 }
  - { offset: 0x101F26, size: 0x8, addend: 0x0, symName: __RNvXsp_NtCsaNl6UpbT7bw_4core6resultINtB5_6ResultINtNtB7_6option6OptionNtNtCsc29TF2YcYso_3syn4item7ItemUseENtNtB1a_5error5ErrorENtNtNtB7_3ops9try_trait3Try6branchB1a_, symObjAddr: 0x7714, symBinAddr: 0x5846C, symSize: 0xB8 }
  - { offset: 0x101FA4, size: 0x8, addend: 0x0, symName: __RNvXsp_NtCsaNl6UpbT7bw_4core6resultINtB5_6ResultINtNtB7_6option6OptionNtNtCsc29TF2YcYso_3syn4item7UseTreeENtNtB1a_5error5ErrorENtNtNtB7_3ops9try_trait3Try6branchB1a_, symObjAddr: 0x77CC, symBinAddr: 0x58524, symSize: 0xAC }
  - { offset: 0x102021, size: 0x8, addend: 0x0, symName: __RNvXsp_NtCsaNl6UpbT7bw_4core6resultINtB5_6ResultINtNtB7_6option6OptionNtNtCsc29TF2YcYso_3syn4item8ItemImplENtNtB1a_5error5ErrorENtNtNtB7_3ops9try_trait3Try6branchB1a_, symObjAddr: 0x7878, symBinAddr: 0x585D0, symSize: 0xB8 }
  - { offset: 0x10209F, size: 0x8, addend: 0x0, symName: __RNvXsp_NtCsaNl6UpbT7bw_4core6resultINtB5_6ResultINtNtB7_6option6OptionNtNtCsc29TF2YcYso_3syn4item9SignatureENtNtB1a_5error5ErrorENtNtNtB7_3ops9try_trait3Try6branchB1a_, symObjAddr: 0x7930, symBinAddr: 0x58688, symSize: 0xB4 }
  - { offset: 0x10211D, size: 0x8, addend: 0x0, symName: __RNvXsp_NtCsaNl6UpbT7bw_4core6resultINtB5_6ResultINtNtB7_6option6OptionNtNtCsc29TF2YcYso_3syn5token2EqENtNtB1a_5error5ErrorENtNtNtB7_3ops9try_trait3Try6branchB1a_, symObjAddr: 0x79E4, symBinAddr: 0x5873C, symSize: 0x8C }
  - { offset: 0x10219A, size: 0x8, addend: 0x0, symName: __RNvXsp_NtCsaNl6UpbT7bw_4core6resultINtB5_6ResultINtNtB7_6option6OptionNtNtCsc29TF2YcYso_3syn5token2OrENtNtB1a_5error5ErrorENtNtNtB7_3ops9try_trait3Try6branchB1a_, symObjAddr: 0x7A70, symBinAddr: 0x587C8, symSize: 0x8C }
  - { offset: 0x102217, size: 0x8, addend: 0x0, symName: __RNvXsp_NtCsaNl6UpbT7bw_4core6resultINtB5_6ResultINtNtB7_6option6OptionNtNtCsc29TF2YcYso_3syn5token3BoxENtNtB1a_5error5ErrorENtNtNtB7_3ops9try_trait3Try6branchB1a_, symObjAddr: 0x7AFC, symBinAddr: 0x58854, symSize: 0x94 }
  - { offset: 0x102295, size: 0x8, addend: 0x0, symName: __RNvXsp_NtCsaNl6UpbT7bw_4core6resultINtB5_6ResultINtNtB7_6option6OptionNtNtCsc29TF2YcYso_3syn5token3DynENtNtB1a_5error5ErrorENtNtNtB7_3ops9try_trait3Try6branchB1a_, symObjAddr: 0x7B90, symBinAddr: 0x588E8, symSize: 0x94 }
  - { offset: 0x102313, size: 0x8, addend: 0x0, symName: __RNvXsp_NtCsaNl6UpbT7bw_4core6resultINtB5_6ResultINtNtB7_6option6OptionNtNtCsc29TF2YcYso_3syn5token3MutENtNtB1a_5error5ErrorENtNtNtB7_3ops9try_trait3Try6branchB1a_, symObjAddr: 0x7C24, symBinAddr: 0x5897C, symSize: 0x94 }
  - { offset: 0x102391, size: 0x8, addend: 0x0, symName: __RNvXsp_NtCsaNl6UpbT7bw_4core6resultINtB5_6ResultINtNtB7_6option6OptionNtNtCsc29TF2YcYso_3syn5token3RefENtNtB1a_5error5ErrorENtNtNtB7_3ops9try_trait3Try6branchB1a_, symObjAddr: 0x7CB8, symBinAddr: 0x58A10, symSize: 0x94 }
  - { offset: 0x10240F, size: 0x8, addend: 0x0, symName: __RNvXsp_NtCsaNl6UpbT7bw_4core6resultINtB5_6ResultINtNtB7_6option6OptionNtNtCsc29TF2YcYso_3syn5token4AutoENtNtB1a_5error5ErrorENtNtNtB7_3ops9try_trait3Try6branchB1a_, symObjAddr: 0x7D4C, symBinAddr: 0x58AA4, symSize: 0x94 }
  - { offset: 0x10248D, size: 0x8, addend: 0x0, symName: __RNvXsp_NtCsaNl6UpbT7bw_4core6resultINtB5_6ResultINtNtB7_6option6OptionNtNtCsc29TF2YcYso_3syn5token4MoveENtNtB1a_5error5ErrorENtNtNtB7_3ops9try_trait3Try6branchB1a_, symObjAddr: 0x7DE0, symBinAddr: 0x58B38, symSize: 0x94 }
  - { offset: 0x10250B, size: 0x8, addend: 0x0, symName: __RNvXsp_NtCsaNl6UpbT7bw_4core6resultINtB5_6ResultINtNtB7_6option6OptionNtNtCsc29TF2YcYso_3syn5token4PlusENtNtB1a_5error5ErrorENtNtNtB7_3ops9try_trait3Try6branchB1a_, symObjAddr: 0x7E74, symBinAddr: 0x58BCC, symSize: 0x8C }
  - { offset: 0x102588, size: 0x8, addend: 0x0, symName: __RNvXsp_NtCsaNl6UpbT7bw_4core6resultINtB5_6ResultINtNtB7_6option6OptionNtNtCsc29TF2YcYso_3syn5token4SemiENtNtB1a_5error5ErrorENtNtNtB7_3ops9try_trait3Try6branchB1a_, symObjAddr: 0x7F00, symBinAddr: 0x58C58, symSize: 0x8C }
  - { offset: 0x102605, size: 0x8, addend: 0x0, symName: __RNvXsp_NtCsaNl6UpbT7bw_4core6resultINtB5_6ResultINtNtB7_6option6OptionNtNtCsc29TF2YcYso_3syn5token4StarENtNtB1a_5error5ErrorENtNtNtB7_3ops9try_trait3Try6branchB1a_, symObjAddr: 0x7F8C, symBinAddr: 0x58CE4, symSize: 0x8C }
  - { offset: 0x102682, size: 0x8, addend: 0x0, symName: __RNvXsp_NtCsaNl6UpbT7bw_4core6resultINtB5_6ResultINtNtB7_6option6OptionNtNtCsc29TF2YcYso_3syn5token5AsyncENtNtB1a_5error5ErrorENtNtNtB7_3ops9try_trait3Try6branchB1a_, symObjAddr: 0x8018, symBinAddr: 0x58D70, symSize: 0x94 }
  - { offset: 0x102700, size: 0x8, addend: 0x0, symName: __RNvXsp_NtCsaNl6UpbT7bw_4core6resultINtB5_6ResultINtNtB7_6option6OptionNtNtCsc29TF2YcYso_3syn5token5AwaitENtNtB1a_5error5ErrorENtNtNtB7_3ops9try_trait3Try6branchB1a_, symObjAddr: 0x80AC, symBinAddr: 0x58E04, symSize: 0x94 }
  - { offset: 0x10277E, size: 0x8, addend: 0x0, symName: __RNvXsp_NtCsaNl6UpbT7bw_4core6resultINtB5_6ResultINtNtB7_6option6OptionNtNtCsc29TF2YcYso_3syn5token5ColonENtNtB1a_5error5ErrorENtNtNtB7_3ops9try_trait3Try6branchB1a_, symObjAddr: 0x8140, symBinAddr: 0x58E98, symSize: 0x8C }
  - { offset: 0x1027FB, size: 0x8, addend: 0x0, symName: __RNvXsp_NtCsaNl6UpbT7bw_4core6resultINtB5_6ResultINtNtB7_6option6OptionNtNtCsc29TF2YcYso_3syn5token5CommaENtNtB1a_5error5ErrorENtNtNtB7_3ops9try_trait3Try6branchB1a_, symObjAddr: 0x81CC, symBinAddr: 0x58F24, symSize: 0x8C }
  - { offset: 0x102878, size: 0x8, addend: 0x0, symName: __RNvXsp_NtCsaNl6UpbT7bw_4core6resultINtB5_6ResultINtNtB7_6option6OptionNtNtCsc29TF2YcYso_3syn5token5ConstENtNtB1a_5error5ErrorENtNtNtB7_3ops9try_trait3Try6branchB1a_, symObjAddr: 0x8258, symBinAddr: 0x58FB0, symSize: 0x94 }
  - { offset: 0x1028F6, size: 0x8, addend: 0x0, symName: __RNvXsp_NtCsaNl6UpbT7bw_4core6resultINtB5_6ResultINtNtB7_6option6OptionNtNtCsc29TF2YcYso_3syn5token6StaticENtNtB1a_5error5ErrorENtNtNtB7_3ops9try_trait3Try6branchB1a_, symObjAddr: 0x82EC, symBinAddr: 0x59044, symSize: 0x94 }
  - { offset: 0x102974, size: 0x8, addend: 0x0, symName: __RNvXsp_NtCsaNl6UpbT7bw_4core6resultINtB5_6ResultINtNtB7_6option6OptionNtNtCsc29TF2YcYso_3syn5token6UnsafeENtNtB1a_5error5ErrorENtNtNtB7_3ops9try_trait3Try6branchB1a_, symObjAddr: 0x8380, symBinAddr: 0x590D8, symSize: 0x94 }
  - { offset: 0x1029F2, size: 0x8, addend: 0x0, symName: __RNvXsp_NtCsaNl6UpbT7bw_4core6resultINtB5_6ResultINtNtB7_6option6OptionNtNtCsc29TF2YcYso_3syn5token7DefaultENtNtB1a_5error5ErrorENtNtNtB7_3ops9try_trait3Try6branchB1a_, symObjAddr: 0x8414, symBinAddr: 0x5916C, symSize: 0x94 }
  - { offset: 0x102A70, size: 0x8, addend: 0x0, symName: __RNvXsp_NtCsaNl6UpbT7bw_4core6resultINtB5_6ResultINtNtB7_6option6OptionNtNtCsc29TF2YcYso_3syn5token7PathSepENtNtB1a_5error5ErrorENtNtNtB7_3ops9try_trait3Try6branchB1a_, symObjAddr: 0x84A8, symBinAddr: 0x59200, symSize: 0x9C }
  - { offset: 0x102AED, size: 0x8, addend: 0x0, symName: __RNvXsp_NtCsaNl6UpbT7bw_4core6resultINtB5_6ResultINtNtB7_6option6OptionNtNtCsc29TF2YcYso_3syn5token8QuestionENtNtB1a_5error5ErrorENtNtNtB7_3ops9try_trait3Try6branchB1a_, symObjAddr: 0x8544, symBinAddr: 0x5929C, symSize: 0x8C }
  - { offset: 0x102B6A, size: 0x8, addend: 0x0, symName: __RNvXsp_NtCsaNl6UpbT7bw_4core6resultINtB5_6ResultINtNtB7_6option6OptionNtNtCsc29TF2YcYso_3syn5token9DotDotDotENtNtB1a_5error5ErrorENtNtNtB7_3ops9try_trait3Try6branchB1a_, symObjAddr: 0x85D0, symBinAddr: 0x59328, symSize: 0x8C }
  - { offset: 0x102BE7, size: 0x8, addend: 0x0, symName: __RNvXsp_NtCsaNl6UpbT7bw_4core6resultINtB5_6ResultINtNtB7_6option6OptionNtNtCsc29TF2YcYso_3syn8generics10TraitBoundENtNtB1a_5error5ErrorENtNtNtB7_3ops9try_trait3Try6branchB1a_, symObjAddr: 0x865C, symBinAddr: 0x593B4, symSize: 0xBC }
  - { offset: 0x102C64, size: 0x8, addend: 0x0, symName: __RNvXsp_NtCsaNl6UpbT7bw_4core6resultINtB5_6ResultINtNtB7_6option6OptionNtNtCsc29TF2YcYso_3syn8generics11WhereClauseENtNtB1a_5error5ErrorENtNtNtB7_3ops9try_trait3Try6branchB1a_, symObjAddr: 0x8718, symBinAddr: 0x59470, symSize: 0xB0 }
  - { offset: 0x102CE1, size: 0x8, addend: 0x0, symName: __RNvXsp_NtCsaNl6UpbT7bw_4core6resultINtB5_6ResultINtNtB7_6option6OptionNtNtCsc29TF2YcYso_3syn8generics14BoundLifetimesENtNtB1a_5error5ErrorENtNtNtB7_3ops9try_trait3Try6branchB1a_, symObjAddr: 0x87C8, symBinAddr: 0x59520, symSize: 0xB0 }
  - { offset: 0x102D5E, size: 0x8, addend: 0x0, symName: __RNvXsp_NtCsaNl6UpbT7bw_4core6resultINtB5_6ResultINtNtB7_6option6OptionNtNtCsc29TF2YcYso_3syn8lifetime8LifetimeENtNtB1a_5error5ErrorENtNtNtB7_3ops9try_trait3Try6branchB1a_, symObjAddr: 0x8878, symBinAddr: 0x595D0, symSize: 0x94 }
  - { offset: 0x102DDB, size: 0x8, addend: 0x0, symName: __RNvXsp_NtCsaNl6UpbT7bw_4core6resultINtB5_6ResultINtNtB7_6option6OptionNtNtNtCsc29TF2YcYso_3syn3pat7parsing13PatRangeBoundENtNtB1c_5error5ErrorENtNtNtB7_3ops9try_trait3Try6branchB1c_, symObjAddr: 0x890C, symBinAddr: 0x59664, symSize: 0xBC }
  - { offset: 0x102E58, size: 0x8, addend: 0x0, symName: __RNvXsp_NtCsaNl6UpbT7bw_4core6resultINtB5_6ResultINtNtB7_6option6OptionTNtNtCsc29TF2YcYso_3syn5token2EqNtNtB1b_2ty4TypeEENtNtB1b_5error5ErrorENtNtNtB7_3ops9try_trait3Try6branchB1b_, symObjAddr: 0x89C8, symBinAddr: 0x59720, symSize: 0xC0 }
  - { offset: 0x102ED6, size: 0x8, addend: 0x0, symName: __RNvXsp_NtCsaNl6UpbT7bw_4core6resultINtB5_6ResultINtNtCsc29TF2YcYso_3syn10punctuated10PunctuatedNtNtBP_2ty4TypeNtNtBP_5token5CommaENtNtBP_5error5ErrorENtNtNtB7_3ops9try_trait3Try6branchBP_, symObjAddr: 0x8A88, symBinAddr: 0x597E0, symSize: 0xA0 }
  - { offset: 0x102F53, size: 0x8, addend: 0x0, symName: __RNvXsp_NtCsaNl6UpbT7bw_4core6resultINtB5_6ResultINtNtCsc29TF2YcYso_3syn10punctuated10PunctuatedNtNtBP_4data5FieldNtNtBP_5token5CommaENtNtBP_5error5ErrorENtNtNtB7_3ops9try_trait3Try6branchBP_, symObjAddr: 0x8B28, symBinAddr: 0x59880, symSize: 0xA0 }
  - { offset: 0x102FD0, size: 0x8, addend: 0x0, symName: __RNvXsp_NtCsaNl6UpbT7bw_4core6resultINtB5_6ResultINtNtCsc29TF2YcYso_3syn10punctuated10PunctuatedNtNtBP_4data7VariantNtNtBP_5token5CommaENtNtBP_5error5ErrorENtNtNtB7_3ops9try_trait3Try6branchBP_, symObjAddr: 0x8BC8, symBinAddr: 0x59920, symSize: 0xA0 }
  - { offset: 0x10304D, size: 0x8, addend: 0x0, symName: __RNvXsp_NtCsaNl6UpbT7bw_4core6resultINtB5_6ResultINtNtCsc29TF2YcYso_3syn10punctuated10PunctuatedNtNtBP_4expr4ExprNtNtBP_5token5CommaENtNtBP_5error5ErrorENtNtNtB7_3ops9try_trait3Try6branchBP_, symObjAddr: 0x8C68, symBinAddr: 0x599C0, symSize: 0xA0 }
  - { offset: 0x1030CA, size: 0x8, addend: 0x0, symName: __RNvXsp_NtCsaNl6UpbT7bw_4core6resultINtB5_6ResultINtNtCsc29TF2YcYso_3syn10punctuated10PunctuatedNtNtBP_8generics14TypeParamBoundNtNtBP_5token4PlusENtNtBP_5error5ErrorENtNtNtB7_3ops9try_trait3Try6branchBP_, symObjAddr: 0x8D08, symBinAddr: 0x59A60, symSize: 0xA0 }
  - { offset: 0x103147, size: 0x8, addend: 0x0, symName: __RNvXsp_NtCsaNl6UpbT7bw_4core6resultINtB5_6ResultINtNtCsiTraAjBDcu4_5alloc3vec3VecNtNtCsc29TF2YcYso_3syn4attr9AttributeENtNtB1l_5error5ErrorENtNtNtB7_3ops9try_trait3Try6branchB1l_, symObjAddr: 0x8DA8, symBinAddr: 0x59B00, symSize: 0x94 }
  - { offset: 0x1031C4, size: 0x8, addend: 0x0, symName: __RNvXsp_NtCsaNl6UpbT7bw_4core6resultINtB5_6ResultINtNtCsiTraAjBDcu4_5alloc3vec3VecNtNtCsc29TF2YcYso_3syn4expr3ArmENtNtB1l_5error5ErrorENtNtNtB7_3ops9try_trait3Try6branchB1l_, symObjAddr: 0x8E3C, symBinAddr: 0x59B94, symSize: 0x94 }
  - { offset: 0x103241, size: 0x8, addend: 0x0, symName: __RNvXsp_NtCsaNl6UpbT7bw_4core6resultINtB5_6ResultINtNtCsiTraAjBDcu4_5alloc3vec3VecNtNtCsc29TF2YcYso_3syn4stmt4StmtENtNtB1l_5error5ErrorENtNtNtB7_3ops9try_trait3Try6branchB1l_, symObjAddr: 0x8ED0, symBinAddr: 0x59C28, symSize: 0x94 }
  - { offset: 0x1032BE, size: 0x8, addend: 0x0, symName: __RNvXsp_NtCsaNl6UpbT7bw_4core6resultINtB5_6ResultINtNtCsiTraAjBDcu4_5alloc5boxed3BoxNtNtCsc29TF2YcYso_3syn2ty4TypeENtNtB1n_5error5ErrorENtNtNtB7_3ops9try_trait3Try6branchB1n_, symObjAddr: 0x8F64, symBinAddr: 0x59CBC, symSize: 0x88 }
  - { offset: 0x10333C, size: 0x8, addend: 0x0, symName: __RNvXsp_NtCsaNl6UpbT7bw_4core6resultINtB5_6ResultINtNtCsiTraAjBDcu4_5alloc5boxed3BoxNtNtCsc29TF2YcYso_3syn4expr4ExprENtNtB1n_5error5ErrorENtNtNtB7_3ops9try_trait3Try6branchB1n_, symObjAddr: 0x8FEC, symBinAddr: 0x59D44, symSize: 0x88 }
  - { offset: 0x1033BA, size: 0x8, addend: 0x0, symName: __RNvXsp_NtCsaNl6UpbT7bw_4core6resultINtB5_6ResultNtCshnvkK9b4wzu_11proc_macro211TokenStreamNtBM_8LexErrorENtNtNtB7_3ops9try_trait3Try6branchCsc29TF2YcYso_3syn, symObjAddr: 0x9074, symBinAddr: 0x59DCC, symSize: 0x84 }
  - { offset: 0x103437, size: 0x8, addend: 0x0, symName: __RNvXsp_NtCsaNl6UpbT7bw_4core6resultINtB5_6ResultNtCshnvkK9b4wzu_11proc_macro211TokenStreamNtNtCsc29TF2YcYso_3syn5error5ErrorENtNtNtB7_3ops9try_trait3Try6branchB1u_, symObjAddr: 0x90F8, symBinAddr: 0x59E50, symSize: 0xA0 }
  - { offset: 0x1034B4, size: 0x8, addend: 0x0, symName: __RNvXsp_NtCsaNl6UpbT7bw_4core6resultINtB5_6ResultNtCshnvkK9b4wzu_11proc_macro24SpanNtNtCsc29TF2YcYso_3syn5error5ErrorENtNtNtB7_3ops9try_trait3Try6branchB1m_, symObjAddr: 0x9198, symBinAddr: 0x59EF0, symSize: 0x88 }
  - { offset: 0x103532, size: 0x8, addend: 0x0, symName: __RNvXsp_NtCsaNl6UpbT7bw_4core6resultINtB5_6ResultNtCshnvkK9b4wzu_11proc_macro25IdentNtNtCsc29TF2YcYso_3syn5error5ErrorENtNtNtB7_3ops9try_trait3Try6branchB1n_, symObjAddr: 0x9220, symBinAddr: 0x59F78, symSize: 0x94 }
  - { offset: 0x1035AF, size: 0x8, addend: 0x0, symName: __RNvXsp_NtCsaNl6UpbT7bw_4core6resultINtB5_6ResultNtNtCsc29TF2YcYso_3syn11restriction10VisibilityNtNtBO_5error5ErrorENtNtNtB7_3ops9try_trait3Try6branchBO_, symObjAddr: 0x92B4, symBinAddr: 0x5A00C, symSize: 0x9C }
  - { offset: 0x10362C, size: 0x8, addend: 0x0, symName: __RNvXsp_NtCsaNl6UpbT7bw_4core6resultINtB5_6ResultNtNtCsc29TF2YcYso_3syn2op4UnOpNtNtBO_5error5ErrorENtNtNtB7_3ops9try_trait3Try6branchBO_, symObjAddr: 0x9350, symBinAddr: 0x5A0A8, symSize: 0x8C }
  - { offset: 0x1036A9, size: 0x8, addend: 0x0, symName: __RNvXsp_NtCsaNl6UpbT7bw_4core6resultINtB5_6ResultNtNtCsc29TF2YcYso_3syn2ty10ReturnTypeNtNtBO_5error5ErrorENtNtNtB7_3ops9try_trait3Try6branchBO_, symObjAddr: 0x93DC, symBinAddr: 0x5A134, symSize: 0x8C }
  - { offset: 0x103726, size: 0x8, addend: 0x0, symName: __RNvXsp_NtCsaNl6UpbT7bw_4core6resultINtB5_6ResultNtNtCsc29TF2YcYso_3syn2ty10TypeBareFnNtNtBO_5error5ErrorENtNtNtB7_3ops9try_trait3Try6branchBO_, symObjAddr: 0x9468, symBinAddr: 0x5A1C0, symSize: 0xB4 }
  - { offset: 0x1037A4, size: 0x8, addend: 0x0, symName: __RNvXsp_NtCsaNl6UpbT7bw_4core6resultINtB5_6ResultNtNtCsc29TF2YcYso_3syn2ty12BareVariadicNtNtBO_5error5ErrorENtNtNtB7_3ops9try_trait3Try6branchBO_, symObjAddr: 0x951C, symBinAddr: 0x5A274, symSize: 0xB0 }
  - { offset: 0x103821, size: 0x8, addend: 0x0, symName: __RNvXsp_NtCsaNl6UpbT7bw_4core6resultINtB5_6ResultNtNtCsc29TF2YcYso_3syn2ty15TypeTraitObjectNtNtBO_5error5ErrorENtNtNtB7_3ops9try_trait3Try6branchBO_, symObjAddr: 0x95CC, symBinAddr: 0x5A324, symSize: 0xB0 }
  - { offset: 0x10389E, size: 0x8, addend: 0x0, symName: __RNvXsp_NtCsaNl6UpbT7bw_4core6resultINtB5_6ResultNtNtCsc29TF2YcYso_3syn2ty3AbiNtNtBO_5error5ErrorENtNtNtB7_3ops9try_trait3Try6branchBO_, symObjAddr: 0x967C, symBinAddr: 0x5A3D4, symSize: 0x94 }
  - { offset: 0x10391C, size: 0x8, addend: 0x0, symName: __RNvXsp_NtCsaNl6UpbT7bw_4core6resultINtB5_6ResultNtNtCsc29TF2YcYso_3syn2ty4TypeNtNtBO_5error5ErrorENtNtNtB7_3ops9try_trait3Try6branchBO_, symObjAddr: 0x9710, symBinAddr: 0x5A468, symSize: 0xB4 }
  - { offset: 0x10399A, size: 0x8, addend: 0x0, symName: __RNvXsp_NtCsaNl6UpbT7bw_4core6resultINtB5_6ResultNtNtCsc29TF2YcYso_3syn2ty8TypePathNtNtBO_5error5ErrorENtNtNtB7_3ops9try_trait3Try6branchBO_, symObjAddr: 0x97C4, symBinAddr: 0x5A51C, symSize: 0xB0 }
  - { offset: 0x103A17, size: 0x8, addend: 0x0, symName: __RNvXsp_NtCsaNl6UpbT7bw_4core6resultINtB5_6ResultNtNtCsc29TF2YcYso_3syn2ty9BareFnArgNtNtBO_5error5ErrorENtNtNtB7_3ops9try_trait3Try6branchBO_, symObjAddr: 0x9874, symBinAddr: 0x5A5CC, symSize: 0xC0 }
  - { offset: 0x103A95, size: 0x8, addend: 0x0, symName: __RNvXsp_NtCsaNl6UpbT7bw_4core6resultINtB5_6ResultNtNtCsc29TF2YcYso_3syn2ty9TypeGroupNtNtBO_5error5ErrorENtNtNtB7_3ops9try_trait3Try6branchBO_, symObjAddr: 0x9934, symBinAddr: 0x5A68C, symSize: 0x94 }
  - { offset: 0x103B13, size: 0x8, addend: 0x0, symName: __RNvXsp_NtCsaNl6UpbT7bw_4core6resultINtB5_6ResultNtNtCsc29TF2YcYso_3syn3lit3LitNtNtBO_5error5ErrorENtNtNtB7_3ops9try_trait3Try6branchBO_, symObjAddr: 0x99C8, symBinAddr: 0x5A720, symSize: 0x94 }
  - { offset: 0x103B90, size: 0x8, addend: 0x0, symName: __RNvXsp_NtCsaNl6UpbT7bw_4core6resultINtB5_6ResultNtNtCsc29TF2YcYso_3syn3lit6LitIntNtNtBO_5error5ErrorENtNtNtB7_3ops9try_trait3Try6branchBO_, symObjAddr: 0x9A5C, symBinAddr: 0x5A7B4, symSize: 0x88 }
  - { offset: 0x103C0E, size: 0x8, addend: 0x0, symName: __RNvXsp_NtCsaNl6UpbT7bw_4core6resultINtB5_6ResultNtNtCsc29TF2YcYso_3syn3lit6LitStrNtNtBO_5error5ErrorENtNtNtB7_3ops9try_trait3Try6branchBO_, symObjAddr: 0x9AE4, symBinAddr: 0x5A83C, symSize: 0x88 }
  - { offset: 0x103C8C, size: 0x8, addend: 0x0, symName: __RNvXsp_NtCsaNl6UpbT7bw_4core6resultINtB5_6ResultNtNtCsc29TF2YcYso_3syn3lit8LitFloatNtNtBO_5error5ErrorENtNtNtB7_3ops9try_trait3Try6branchBO_, symObjAddr: 0x9B6C, symBinAddr: 0x5A8C4, symSize: 0x88 }
  - { offset: 0x103D0A, size: 0x8, addend: 0x0, symName: __RNvXsp_NtCsaNl6UpbT7bw_4core6resultINtB5_6ResultNtNtCsc29TF2YcYso_3syn3mac5MacroNtNtBO_5error5ErrorENtNtNtB7_3ops9try_trait3Try6branchBO_, symObjAddr: 0x9BF4, symBinAddr: 0x5A94C, symSize: 0xBC }
  - { offset: 0x103D87, size: 0x8, addend: 0x0, symName: __RNvXsp_NtCsaNl6UpbT7bw_4core6resultINtB5_6ResultNtNtCsc29TF2YcYso_3syn3pat3PatNtNtBO_5error5ErrorENtNtNtB7_3ops9try_trait3Try6branchBO_, symObjAddr: 0x9CB0, symBinAddr: 0x5AA08, symSize: 0xCC }
  - { offset: 0x103E05, size: 0x8, addend: 0x0, symName: __RNvXsp_NtCsaNl6UpbT7bw_4core6resultINtB5_6ResultNtNtCsc29TF2YcYso_3syn3pat8FieldPatNtNtBO_5error5ErrorENtNtNtB7_3ops9try_trait3Try6branchBO_, symObjAddr: 0x9D7C, symBinAddr: 0x5AAD4, symSize: 0xB0 }
  - { offset: 0x103E82, size: 0x8, addend: 0x0, symName: __RNvXsp_NtCsaNl6UpbT7bw_4core6resultINtB5_6ResultNtNtCsc29TF2YcYso_3syn4attr4MetaNtNtBO_5error5ErrorENtNtNtB7_3ops9try_trait3Try6branchBO_, symObjAddr: 0x9E2C, symBinAddr: 0x5AB84, symSize: 0xC0 }
  - { offset: 0x103F00, size: 0x8, addend: 0x0, symName: __RNvXsp_NtCsaNl6UpbT7bw_4core6resultINtB5_6ResultNtNtCsc29TF2YcYso_3syn4attr9AttributeNtNtBO_5error5ErrorENtNtNtB7_3ops9try_trait3Try6branchBO_, symObjAddr: 0x9EEC, symBinAddr: 0x5AC44, symSize: 0xB4 }
  - { offset: 0x103F7E, size: 0x8, addend: 0x0, symName: __RNvXsp_NtCsaNl6UpbT7bw_4core6resultINtB5_6ResultNtNtCsc29TF2YcYso_3syn4data11FieldsNamedNtNtBO_5error5ErrorENtNtNtB7_3ops9try_trait3Try6branchBO_, symObjAddr: 0x9FA0, symBinAddr: 0x5ACF8, symSize: 0xB0 }
  - { offset: 0x103FFB, size: 0x8, addend: 0x0, symName: __RNvXsp_NtCsaNl6UpbT7bw_4core6resultINtB5_6ResultNtNtCsc29TF2YcYso_3syn4data13FieldsUnnamedNtNtBO_5error5ErrorENtNtNtB7_3ops9try_trait3Try6branchBO_, symObjAddr: 0xA050, symBinAddr: 0x5ADA8, symSize: 0xB0 }
  - { offset: 0x104078, size: 0x8, addend: 0x0, symName: __RNvXsp_NtCsaNl6UpbT7bw_4core6resultINtB5_6ResultNtNtCsc29TF2YcYso_3syn4data5FieldNtNtBO_5error5ErrorENtNtNtB7_3ops9try_trait3Try6branchBO_, symObjAddr: 0xA100, symBinAddr: 0x5AE58, symSize: 0xC0 }
  - { offset: 0x1040F6, size: 0x8, addend: 0x0, symName: __RNvXsp_NtCsaNl6UpbT7bw_4core6resultINtB5_6ResultNtNtCsc29TF2YcYso_3syn4data7VariantNtNtBO_5error5ErrorENtNtNtB7_3ops9try_trait3Try6branchBO_, symObjAddr: 0xA1C0, symBinAddr: 0x5AF18, symSize: 0xB4 }
  - { offset: 0x104174, size: 0x8, addend: 0x0, symName: __RNvXsp_NtCsaNl6UpbT7bw_4core6resultINtB5_6ResultNtNtCsc29TF2YcYso_3syn4expr10ExprUnsafeNtNtBO_5error5ErrorENtNtNtB7_3ops9try_trait3Try6branchBO_, symObjAddr: 0xA274, symBinAddr: 0x5AFCC, symSize: 0xB0 }
  - { offset: 0x1041F1, size: 0x8, addend: 0x0, symName: __RNvXsp_NtCsaNl6UpbT7bw_4core6resultINtB5_6ResultNtNtCsc29TF2YcYso_3syn4expr10FieldValueNtNtBO_5error5ErrorENtNtNtB7_3ops9try_trait3Try6branchBO_, symObjAddr: 0xA324, symBinAddr: 0x5B07C, symSize: 0xC0 }
  - { offset: 0x10426F, size: 0x8, addend: 0x0, symName: __RNvXsp_NtCsaNl6UpbT7bw_4core6resultINtB5_6ResultNtNtCsc29TF2YcYso_3syn4expr11ExprForLoopNtNtBO_5error5ErrorENtNtNtB7_3ops9try_trait3Try6branchBO_, symObjAddr: 0xA3E4, symBinAddr: 0x5B13C, symSize: 0xB0 }
  - { offset: 0x1042EC, size: 0x8, addend: 0x0, symName: __RNvXsp_NtCsaNl6UpbT7bw_4core6resultINtB5_6ResultNtNtCsc29TF2YcYso_3syn4expr11RangeLimitsNtNtBO_5error5ErrorENtNtNtB7_3ops9try_trait3Try6branchBO_, symObjAddr: 0xA494, symBinAddr: 0x5B1EC, symSize: 0x8C }
  - { offset: 0x104369, size: 0x8, addend: 0x0, symName: __RNvXsp_NtCsaNl6UpbT7bw_4core6resultINtB5_6ResultNtNtCsc29TF2YcYso_3syn4expr12ExprTryBlockNtNtBO_5error5ErrorENtNtNtB7_3ops9try_trait3Try6branchBO_, symObjAddr: 0xA520, symBinAddr: 0x5B278, symSize: 0xB0 }
  - { offset: 0x1043E6, size: 0x8, addend: 0x0, symName: __RNvXsp_NtCsaNl6UpbT7bw_4core6resultINtB5_6ResultNtNtCsc29TF2YcYso_3syn4expr3ArmNtNtBO_5error5ErrorENtNtNtB7_3ops9try_trait3Try6branchBO_, symObjAddr: 0xA664, symBinAddr: 0x5B328, symSize: 0xC4 }
  - { offset: 0x104464, size: 0x8, addend: 0x0, symName: __RNvXsp_NtCsaNl6UpbT7bw_4core6resultINtB5_6ResultNtNtCsc29TF2YcYso_3syn4expr4ExprNtNtBO_5error5ErrorENtNtNtB7_3ops9try_trait3Try6branchBO_, symObjAddr: 0xA728, symBinAddr: 0x5B3EC, symSize: 0xB4 }
  - { offset: 0x1044E2, size: 0x8, addend: 0x0, symName: __RNvXsp_NtCsaNl6UpbT7bw_4core6resultINtB5_6ResultNtNtCsc29TF2YcYso_3syn4expr5IndexNtNtBO_5error5ErrorENtNtNtB7_3ops9try_trait3Try6branchBO_, symObjAddr: 0xA7DC, symBinAddr: 0x5B4A0, symSize: 0x94 }
  - { offset: 0x104560, size: 0x8, addend: 0x0, symName: __RNvXsp_NtCsaNl6UpbT7bw_4core6resultINtB5_6ResultNtNtCsc29TF2YcYso_3syn4expr5LabelNtNtBO_5error5ErrorENtNtNtB7_3ops9try_trait3Try6branchBO_, symObjAddr: 0xA870, symBinAddr: 0x5B534, symSize: 0xB0 }
  - { offset: 0x1045DD, size: 0x8, addend: 0x0, symName: __RNvXsp_NtCsaNl6UpbT7bw_4core6resultINtB5_6ResultNtNtCsc29TF2YcYso_3syn4expr6ExprIfNtNtBO_5error5ErrorENtNtNtB7_3ops9try_trait3Try6branchBO_, symObjAddr: 0xA920, symBinAddr: 0x5B5E4, symSize: 0xB0 }
  - { offset: 0x10465A, size: 0x8, addend: 0x0, symName: __RNvXsp_NtCsaNl6UpbT7bw_4core6resultINtB5_6ResultNtNtCsc29TF2YcYso_3syn4expr6MemberNtNtBO_5error5ErrorENtNtNtB7_3ops9try_trait3Try6branchBO_, symObjAddr: 0xA9D0, symBinAddr: 0x5B694, symSize: 0x94 }
  - { offset: 0x1046D7, size: 0x8, addend: 0x0, symName: __RNvXsp_NtCsaNl6UpbT7bw_4core6resultINtB5_6ResultNtNtCsc29TF2YcYso_3syn4expr7ExprLitNtNtBO_5error5ErrorENtNtNtB7_3ops9try_trait3Try6branchBO_, symObjAddr: 0xAA64, symBinAddr: 0x5B728, symSize: 0xB0 }
  - { offset: 0x104754, size: 0x8, addend: 0x0, symName: __RNvXsp_NtCsaNl6UpbT7bw_4core6resultINtB5_6ResultNtNtCsc29TF2YcYso_3syn4expr8ExprLoopNtNtBO_5error5ErrorENtNtNtB7_3ops9try_trait3Try6branchBO_, symObjAddr: 0xAB14, symBinAddr: 0x5B7D8, symSize: 0xB0 }
  - { offset: 0x1047D1, size: 0x8, addend: 0x0, symName: __RNvXsp_NtCsaNl6UpbT7bw_4core6resultINtB5_6ResultNtNtCsc29TF2YcYso_3syn4expr8ExprPathNtNtBO_5error5ErrorENtNtNtB7_3ops9try_trait3Try6branchBO_, symObjAddr: 0xABC4, symBinAddr: 0x5B888, symSize: 0xBC }
  - { offset: 0x10484E, size: 0x8, addend: 0x0, symName: __RNvXsp_NtCsaNl6UpbT7bw_4core6resultINtB5_6ResultNtNtCsc29TF2YcYso_3syn4expr9ExprBlockNtNtBO_5error5ErrorENtNtNtB7_3ops9try_trait3Try6branchBO_, symObjAddr: 0xAC80, symBinAddr: 0x5B944, symSize: 0xBC }
  - { offset: 0x1048CB, size: 0x8, addend: 0x0, symName: __RNvXsp_NtCsaNl6UpbT7bw_4core6resultINtB5_6ResultNtNtCsc29TF2YcYso_3syn4expr9ExprConstNtNtBO_5error5ErrorENtNtNtB7_3ops9try_trait3Try6branchBO_, symObjAddr: 0xAD3C, symBinAddr: 0x5BA00, symSize: 0xB0 }
  - { offset: 0x104948, size: 0x8, addend: 0x0, symName: __RNvXsp_NtCsaNl6UpbT7bw_4core6resultINtB5_6ResultNtNtCsc29TF2YcYso_3syn4expr9ExprMatchNtNtBO_5error5ErrorENtNtNtB7_3ops9try_trait3Try6branchBO_, symObjAddr: 0xADEC, symBinAddr: 0x5BAB0, symSize: 0xB0 }
  - { offset: 0x1049C5, size: 0x8, addend: 0x0, symName: __RNvXsp_NtCsaNl6UpbT7bw_4core6resultINtB5_6ResultNtNtCsc29TF2YcYso_3syn4expr9ExprWhileNtNtBO_5error5ErrorENtNtNtB7_3ops9try_trait3Try6branchBO_, symObjAddr: 0xAE9C, symBinAddr: 0x5BB60, symSize: 0xBC }
  - { offset: 0x104A42, size: 0x8, addend: 0x0, symName: __RNvXsp_NtCsaNl6UpbT7bw_4core6resultINtB5_6ResultNtNtCsc29TF2YcYso_3syn4item11ForeignItemNtNtBO_5error5ErrorENtNtNtB7_3ops9try_trait3Try6branchBO_, symObjAddr: 0xB008, symBinAddr: 0x5BC1C, symSize: 0xB4 }
  - { offset: 0x104AC0, size: 0x8, addend: 0x0, symName: __RNvXsp_NtCsaNl6UpbT7bw_4core6resultINtB5_6ResultNtNtCsc29TF2YcYso_3syn4item16StaticMutabilityNtNtBO_5error5ErrorENtNtNtB7_3ops9try_trait3Try6branchBO_, symObjAddr: 0xB0BC, symBinAddr: 0x5BCD0, symSize: 0x94 }
  - { offset: 0x104B3E, size: 0x8, addend: 0x0, symName: __RNvXsp_NtCsaNl6UpbT7bw_4core6resultINtB5_6ResultNtNtCsc29TF2YcYso_3syn4item4ItemNtNtBO_5error5ErrorENtNtNtB7_3ops9try_trait3Try6branchBO_, symObjAddr: 0xB150, symBinAddr: 0x5BD64, symSize: 0xB4 }
  - { offset: 0x104BBC, size: 0x8, addend: 0x0, symName: __RNvXsp_NtCsaNl6UpbT7bw_4core6resultINtB5_6ResultNtNtCsc29TF2YcYso_3syn4item7UseTreeNtNtBO_5error5ErrorENtNtNtB7_3ops9try_trait3Try6branchBO_, symObjAddr: 0xB204, symBinAddr: 0x5BE18, symSize: 0xAC }
  - { offset: 0x104C39, size: 0x8, addend: 0x0, symName: __RNvXsp_NtCsaNl6UpbT7bw_4core6resultINtB5_6ResultNtNtCsc29TF2YcYso_3syn4item8ImplItemNtNtBO_5error5ErrorENtNtNtB7_3ops9try_trait3Try6branchBO_, symObjAddr: 0xB2B0, symBinAddr: 0x5BEC4, symSize: 0xB4 }
  - { offset: 0x104CB7, size: 0x8, addend: 0x0, symName: __RNvXsp_NtCsaNl6UpbT7bw_4core6resultINtB5_6ResultNtNtCsc29TF2YcYso_3syn4item9SignatureNtNtBO_5error5ErrorENtNtNtB7_3ops9try_trait3Try6branchBO_, symObjAddr: 0xB364, symBinAddr: 0x5BF78, symSize: 0xB4 }
  - { offset: 0x104D35, size: 0x8, addend: 0x0, symName: __RNvXsp_NtCsaNl6UpbT7bw_4core6resultINtB5_6ResultNtNtCsc29TF2YcYso_3syn4item9TraitItemNtNtBO_5error5ErrorENtNtNtB7_3ops9try_trait3Try6branchBO_, symObjAddr: 0xB418, symBinAddr: 0x5C02C, symSize: 0xB4 }
  - { offset: 0x104DB3, size: 0x8, addend: 0x0, symName: __RNvXsp_NtCsaNl6UpbT7bw_4core6resultINtB5_6ResultNtNtCsc29TF2YcYso_3syn4path11PathSegmentNtNtBO_5error5ErrorENtNtNtB7_3ops9try_trait3Try6branchBO_, symObjAddr: 0xB4CC, symBinAddr: 0x5C0E0, symSize: 0xB8 }
  - { offset: 0x104E30, size: 0x8, addend: 0x0, symName: __RNvXsp_NtCsaNl6UpbT7bw_4core6resultINtB5_6ResultNtNtCsc29TF2YcYso_3syn4path15GenericArgumentNtNtBO_5error5ErrorENtNtNtB7_3ops9try_trait3Try6branchBO_, symObjAddr: 0xB584, symBinAddr: 0x5C198, symSize: 0xC0 }
  - { offset: 0x104EAE, size: 0x8, addend: 0x0, symName: __RNvXsp_NtCsaNl6UpbT7bw_4core6resultINtB5_6ResultNtNtCsc29TF2YcYso_3syn4path29ParenthesizedGenericArgumentsNtNtBO_5error5ErrorENtNtNtB7_3ops9try_trait3Try6branchBO_, symObjAddr: 0xB644, symBinAddr: 0x5C258, symSize: 0xB0 }
  - { offset: 0x104F2B, size: 0x8, addend: 0x0, symName: __RNvXsp_NtCsaNl6UpbT7bw_4core6resultINtB5_6ResultNtNtCsc29TF2YcYso_3syn4path30AngleBracketedGenericArgumentsNtNtBO_5error5ErrorENtNtNtB7_3ops9try_trait3Try6branchBO_, symObjAddr: 0xB6F4, symBinAddr: 0x5C308, symSize: 0xB0 }
  - { offset: 0x104FA8, size: 0x8, addend: 0x0, symName: __RNvXsp_NtCsaNl6UpbT7bw_4core6resultINtB5_6ResultNtNtCsc29TF2YcYso_3syn4path4PathNtNtBO_5error5ErrorENtNtNtB7_3ops9try_trait3Try6branchBO_, symObjAddr: 0xB7A4, symBinAddr: 0x5C3B8, symSize: 0xB0 }
  - { offset: 0x105025, size: 0x8, addend: 0x0, symName: __RNvXsp_NtCsaNl6UpbT7bw_4core6resultINtB5_6ResultNtNtCsc29TF2YcYso_3syn4stmt4StmtNtNtBO_5error5ErrorENtNtNtB7_3ops9try_trait3Try6branchBO_, symObjAddr: 0xB854, symBinAddr: 0x5C468, symSize: 0xB4 }
  - { offset: 0x1050A3, size: 0x8, addend: 0x0, symName: __RNvXsp_NtCsaNl6UpbT7bw_4core6resultINtB5_6ResultNtNtCsc29TF2YcYso_3syn4stmt5BlockNtNtBO_5error5ErrorENtNtNtB7_3ops9try_trait3Try6branchBO_, symObjAddr: 0xB908, symBinAddr: 0x5C51C, symSize: 0xB0 }
  - { offset: 0x105120, size: 0x8, addend: 0x0, symName: __RNvXsp_NtCsaNl6UpbT7bw_4core6resultINtB5_6ResultNtNtCsc29TF2YcYso_3syn5group5GroupNtNtBO_5error5ErrorENtNtNtB7_3ops9try_trait3Try6branchBO_, symObjAddr: 0xB9B8, symBinAddr: 0x5C5CC, symSize: 0xB0 }
  - { offset: 0x10519D, size: 0x8, addend: 0x0, symName: __RNvXsp_NtCsaNl6UpbT7bw_4core6resultINtB5_6ResultNtNtCsc29TF2YcYso_3syn5token10UnderscoreNtNtBO_5error5ErrorENtNtNtB7_3ops9try_trait3Try6branchBO_, symObjAddr: 0xBA68, symBinAddr: 0x5C67C, symSize: 0x8C }
  - { offset: 0x10521A, size: 0x8, addend: 0x0, symName: __RNvXsp_NtCsaNl6UpbT7bw_4core6resultINtB5_6ResultNtNtCsc29TF2YcYso_3syn5token2AsNtNtBO_5error5ErrorENtNtNtB7_3ops9try_trait3Try6branchBO_, symObjAddr: 0xBAF4, symBinAddr: 0x5C708, symSize: 0x88 }
  - { offset: 0x105298, size: 0x8, addend: 0x0, symName: __RNvXsp_NtCsaNl6UpbT7bw_4core6resultINtB5_6ResultNtNtCsc29TF2YcYso_3syn5token2AtNtNtBO_5error5ErrorENtNtNtB7_3ops9try_trait3Try6branchBO_, symObjAddr: 0xBB7C, symBinAddr: 0x5C790, symSize: 0x8C }
  - { offset: 0x105315, size: 0x8, addend: 0x0, symName: __RNvXsp_NtCsaNl6UpbT7bw_4core6resultINtB5_6ResultNtNtCsc29TF2YcYso_3syn5token2EqNtNtBO_5error5ErrorENtNtNtB7_3ops9try_trait3Try6branchBO_, symObjAddr: 0xBC08, symBinAddr: 0x5C81C, symSize: 0x8C }
  - { offset: 0x105392, size: 0x8, addend: 0x0, symName: __RNvXsp_NtCsaNl6UpbT7bw_4core6resultINtB5_6ResultNtNtCsc29TF2YcYso_3syn5token2FnNtNtBO_5error5ErrorENtNtNtB7_3ops9try_trait3Try6branchBO_, symObjAddr: 0xBC94, symBinAddr: 0x5C8A8, symSize: 0x88 }
  - { offset: 0x105410, size: 0x8, addend: 0x0, symName: __RNvXsp_NtCsaNl6UpbT7bw_4core6resultINtB5_6ResultNtNtCsc29TF2YcYso_3syn5token2GtNtNtBO_5error5ErrorENtNtNtB7_3ops9try_trait3Try6branchBO_, symObjAddr: 0xBD1C, symBinAddr: 0x5C930, symSize: 0x8C }
  - { offset: 0x10548D, size: 0x8, addend: 0x0, symName: __RNvXsp_NtCsaNl6UpbT7bw_4core6resultINtB5_6ResultNtNtCsc29TF2YcYso_3syn5token2IfNtNtBO_5error5ErrorENtNtNtB7_3ops9try_trait3Try6branchBO_, symObjAddr: 0xBDA8, symBinAddr: 0x5C9BC, symSize: 0x88 }
  - { offset: 0x10550B, size: 0x8, addend: 0x0, symName: __RNvXsp_NtCsaNl6UpbT7bw_4core6resultINtB5_6ResultNtNtCsc29TF2YcYso_3syn5token2InNtNtBO_5error5ErrorENtNtNtB7_3ops9try_trait3Try6branchBO_, symObjAddr: 0xBE30, symBinAddr: 0x5CA44, symSize: 0x88 }
  - { offset: 0x105589, size: 0x8, addend: 0x0, symName: __RNvXsp_NtCsaNl6UpbT7bw_4core6resultINtB5_6ResultNtNtCsc29TF2YcYso_3syn5token2LtNtNtBO_5error5ErrorENtNtNtB7_3ops9try_trait3Try6branchBO_, symObjAddr: 0xBEB8, symBinAddr: 0x5CACC, symSize: 0x8C }
  - { offset: 0x105606, size: 0x8, addend: 0x0, symName: __RNvXsp_NtCsaNl6UpbT7bw_4core6resultINtB5_6ResultNtNtCsc29TF2YcYso_3syn5token2OrNtNtBO_5error5ErrorENtNtNtB7_3ops9try_trait3Try6branchBO_, symObjAddr: 0xBF44, symBinAddr: 0x5CB58, symSize: 0x8C }
  - { offset: 0x105683, size: 0x8, addend: 0x0, symName: __RNvXsp_NtCsaNl6UpbT7bw_4core6resultINtB5_6ResultNtNtCsc29TF2YcYso_3syn5token3AndNtNtBO_5error5ErrorENtNtNtB7_3ops9try_trait3Try6branchBO_, symObjAddr: 0xBFD0, symBinAddr: 0x5CBE4, symSize: 0x8C }
  - { offset: 0x105700, size: 0x8, addend: 0x0, symName: __RNvXsp_NtCsaNl6UpbT7bw_4core6resultINtB5_6ResultNtNtCsc29TF2YcYso_3syn5token3BoxNtNtBO_5error5ErrorENtNtNtB7_3ops9try_trait3Try6branchBO_, symObjAddr: 0xC05C, symBinAddr: 0x5CC70, symSize: 0x88 }
  - { offset: 0x10577E, size: 0x8, addend: 0x0, symName: __RNvXsp_NtCsaNl6UpbT7bw_4core6resultINtB5_6ResultNtNtCsc29TF2YcYso_3syn5token3DotNtNtBO_5error5ErrorENtNtNtB7_3ops9try_trait3Try6branchBO_, symObjAddr: 0xC0E4, symBinAddr: 0x5CCF8, symSize: 0x8C }
  - { offset: 0x1057FB, size: 0x8, addend: 0x0, symName: __RNvXsp_NtCsaNl6UpbT7bw_4core6resultINtB5_6ResultNtNtCsc29TF2YcYso_3syn5token3DynNtNtBO_5error5ErrorENtNtNtB7_3ops9try_trait3Try6branchBO_, symObjAddr: 0xC170, symBinAddr: 0x5CD84, symSize: 0x88 }
  - { offset: 0x105879, size: 0x8, addend: 0x0, symName: __RNvXsp_NtCsaNl6UpbT7bw_4core6resultINtB5_6ResultNtNtCsc29TF2YcYso_3syn5token3ForNtNtBO_5error5ErrorENtNtNtB7_3ops9try_trait3Try6branchBO_, symObjAddr: 0xC1F8, symBinAddr: 0x5CE0C, symSize: 0x88 }
  - { offset: 0x1058F7, size: 0x8, addend: 0x0, symName: __RNvXsp_NtCsaNl6UpbT7bw_4core6resultINtB5_6ResultNtNtCsc29TF2YcYso_3syn5token3LetNtNtBO_5error5ErrorENtNtNtB7_3ops9try_trait3Try6branchBO_, symObjAddr: 0xC280, symBinAddr: 0x5CE94, symSize: 0x88 }
  - { offset: 0x105975, size: 0x8, addend: 0x0, symName: __RNvXsp_NtCsaNl6UpbT7bw_4core6resultINtB5_6ResultNtNtCsc29TF2YcYso_3syn5token3ModNtNtBO_5error5ErrorENtNtNtB7_3ops9try_trait3Try6branchBO_, symObjAddr: 0xC308, symBinAddr: 0x5CF1C, symSize: 0x88 }
  - { offset: 0x1059F3, size: 0x8, addend: 0x0, symName: __RNvXsp_NtCsaNl6UpbT7bw_4core6resultINtB5_6ResultNtNtCsc29TF2YcYso_3syn5token3MutNtNtBO_5error5ErrorENtNtNtB7_3ops9try_trait3Try6branchBO_, symObjAddr: 0xC390, symBinAddr: 0x5CFA4, symSize: 0x88 }
  - { offset: 0x105A71, size: 0x8, addend: 0x0, symName: __RNvXsp_NtCsaNl6UpbT7bw_4core6resultINtB5_6ResultNtNtCsc29TF2YcYso_3syn5token3NotNtNtBO_5error5ErrorENtNtNtB7_3ops9try_trait3Try6branchBO_, symObjAddr: 0xC418, symBinAddr: 0x5D02C, symSize: 0x8C }
  - { offset: 0x105AEE, size: 0x8, addend: 0x0, symName: __RNvXsp_NtCsaNl6UpbT7bw_4core6resultINtB5_6ResultNtNtCsc29TF2YcYso_3syn5token3PubNtNtBO_5error5ErrorENtNtNtB7_3ops9try_trait3Try6branchBO_, symObjAddr: 0xC4A4, symBinAddr: 0x5D0B8, symSize: 0x88 }
  - { offset: 0x105B6C, size: 0x8, addend: 0x0, symName: __RNvXsp_NtCsaNl6UpbT7bw_4core6resultINtB5_6ResultNtNtCsc29TF2YcYso_3syn5token3RawNtNtBO_5error5ErrorENtNtNtB7_3ops9try_trait3Try6branchBO_, symObjAddr: 0xC52C, symBinAddr: 0x5D140, symSize: 0x88 }
  - { offset: 0x105BEA, size: 0x8, addend: 0x0, symName: __RNvXsp_NtCsaNl6UpbT7bw_4core6resultINtB5_6ResultNtNtCsc29TF2YcYso_3syn5token3RefNtNtBO_5error5ErrorENtNtNtB7_3ops9try_trait3Try6branchBO_, symObjAddr: 0xC5B4, symBinAddr: 0x5D1C8, symSize: 0x88 }
  - { offset: 0x105C68, size: 0x8, addend: 0x0, symName: __RNvXsp_NtCsaNl6UpbT7bw_4core6resultINtB5_6ResultNtNtCsc29TF2YcYso_3syn5token3TryNtNtBO_5error5ErrorENtNtNtB7_3ops9try_trait3Try6branchBO_, symObjAddr: 0xC63C, symBinAddr: 0x5D250, symSize: 0x88 }
  - { offset: 0x105CE6, size: 0x8, addend: 0x0, symName: __RNvXsp_NtCsaNl6UpbT7bw_4core6resultINtB5_6ResultNtNtCsc29TF2YcYso_3syn5token3UseNtNtBO_5error5ErrorENtNtNtB7_3ops9try_trait3Try6branchBO_, symObjAddr: 0xC6C4, symBinAddr: 0x5D2D8, symSize: 0x88 }
  - { offset: 0x105D64, size: 0x8, addend: 0x0, symName: __RNvXsp_NtCsaNl6UpbT7bw_4core6resultINtB5_6ResultNtNtCsc29TF2YcYso_3syn5token4AutoNtNtBO_5error5ErrorENtNtNtB7_3ops9try_trait3Try6branchBO_, symObjAddr: 0xC74C, symBinAddr: 0x5D360, symSize: 0x88 }
  - { offset: 0x105DE2, size: 0x8, addend: 0x0, symName: __RNvXsp_NtCsaNl6UpbT7bw_4core6resultINtB5_6ResultNtNtCsc29TF2YcYso_3syn5token4ElseNtNtBO_5error5ErrorENtNtNtB7_3ops9try_trait3Try6branchBO_, symObjAddr: 0xC7D4, symBinAddr: 0x5D3E8, symSize: 0x88 }
  - { offset: 0x105E60, size: 0x8, addend: 0x0, symName: __RNvXsp_NtCsaNl6UpbT7bw_4core6resultINtB5_6ResultNtNtCsc29TF2YcYso_3syn5token4EnumNtNtBO_5error5ErrorENtNtNtB7_3ops9try_trait3Try6branchBO_, symObjAddr: 0xC85C, symBinAddr: 0x5D470, symSize: 0x88 }
  - { offset: 0x105EDE, size: 0x8, addend: 0x0, symName: __RNvXsp_NtCsaNl6UpbT7bw_4core6resultINtB5_6ResultNtNtCsc29TF2YcYso_3syn5token4ImplNtNtBO_5error5ErrorENtNtNtB7_3ops9try_trait3Try6branchBO_, symObjAddr: 0xC8E4, symBinAddr: 0x5D4F8, symSize: 0x88 }
  - { offset: 0x105F5C, size: 0x8, addend: 0x0, symName: __RNvXsp_NtCsaNl6UpbT7bw_4core6resultINtB5_6ResultNtNtCsc29TF2YcYso_3syn5token4LoopNtNtBO_5error5ErrorENtNtNtB7_3ops9try_trait3Try6branchBO_, symObjAddr: 0xC96C, symBinAddr: 0x5D580, symSize: 0x88 }
  - { offset: 0x105FDA, size: 0x8, addend: 0x0, symName: __RNvXsp_NtCsaNl6UpbT7bw_4core6resultINtB5_6ResultNtNtCsc29TF2YcYso_3syn5token4MoveNtNtBO_5error5ErrorENtNtNtB7_3ops9try_trait3Try6branchBO_, symObjAddr: 0xC9F4, symBinAddr: 0x5D608, symSize: 0x88 }
  - { offset: 0x106058, size: 0x8, addend: 0x0, symName: __RNvXsp_NtCsaNl6UpbT7bw_4core6resultINtB5_6ResultNtNtCsc29TF2YcYso_3syn5token4PlusNtNtBO_5error5ErrorENtNtNtB7_3ops9try_trait3Try6branchBO_, symObjAddr: 0xCA7C, symBinAddr: 0x5D690, symSize: 0x8C }
  - { offset: 0x1060D5, size: 0x8, addend: 0x0, symName: __RNvXsp_NtCsaNl6UpbT7bw_4core6resultINtB5_6ResultNtNtCsc29TF2YcYso_3syn5token4SemiNtNtBO_5error5ErrorENtNtNtB7_3ops9try_trait3Try6branchBO_, symObjAddr: 0xCB08, symBinAddr: 0x5D71C, symSize: 0x8C }
  - { offset: 0x106152, size: 0x8, addend: 0x0, symName: __RNvXsp_NtCsaNl6UpbT7bw_4core6resultINtB5_6ResultNtNtCsc29TF2YcYso_3syn5token4StarNtNtBO_5error5ErrorENtNtNtB7_3ops9try_trait3Try6branchBO_, symObjAddr: 0xCB94, symBinAddr: 0x5D7A8, symSize: 0x8C }
  - { offset: 0x1061CF, size: 0x8, addend: 0x0, symName: __RNvXsp_NtCsaNl6UpbT7bw_4core6resultINtB5_6ResultNtNtCsc29TF2YcYso_3syn5token4TypeNtNtBO_5error5ErrorENtNtNtB7_3ops9try_trait3Try6branchBO_, symObjAddr: 0xCC20, symBinAddr: 0x5D834, symSize: 0x88 }
  - { offset: 0x10624D, size: 0x8, addend: 0x0, symName: __RNvXsp_NtCsaNl6UpbT7bw_4core6resultINtB5_6ResultNtNtCsc29TF2YcYso_3syn5token5AsyncNtNtBO_5error5ErrorENtNtNtB7_3ops9try_trait3Try6branchBO_, symObjAddr: 0xCCA8, symBinAddr: 0x5D8BC, symSize: 0x88 }
  - { offset: 0x1062CB, size: 0x8, addend: 0x0, symName: __RNvXsp_NtCsaNl6UpbT7bw_4core6resultINtB5_6ResultNtNtCsc29TF2YcYso_3syn5token5AwaitNtNtBO_5error5ErrorENtNtNtB7_3ops9try_trait3Try6branchBO_, symObjAddr: 0xCD30, symBinAddr: 0x5D944, symSize: 0x88 }
  - { offset: 0x106349, size: 0x8, addend: 0x0, symName: __RNvXsp_NtCsaNl6UpbT7bw_4core6resultINtB5_6ResultNtNtCsc29TF2YcYso_3syn5token5BreakNtNtBO_5error5ErrorENtNtNtB7_3ops9try_trait3Try6branchBO_, symObjAddr: 0xCDB8, symBinAddr: 0x5D9CC, symSize: 0x88 }
  - { offset: 0x1063C7, size: 0x8, addend: 0x0, symName: __RNvXsp_NtCsaNl6UpbT7bw_4core6resultINtB5_6ResultNtNtCsc29TF2YcYso_3syn5token5ColonNtNtBO_5error5ErrorENtNtNtB7_3ops9try_trait3Try6branchBO_, symObjAddr: 0xCE40, symBinAddr: 0x5DA54, symSize: 0x8C }
  - { offset: 0x106444, size: 0x8, addend: 0x0, symName: __RNvXsp_NtCsaNl6UpbT7bw_4core6resultINtB5_6ResultNtNtCsc29TF2YcYso_3syn5token5CommaNtNtBO_5error5ErrorENtNtNtB7_3ops9try_trait3Try6branchBO_, symObjAddr: 0xCECC, symBinAddr: 0x5DAE0, symSize: 0x8C }
  - { offset: 0x1064C1, size: 0x8, addend: 0x0, symName: __RNvXsp_NtCsaNl6UpbT7bw_4core6resultINtB5_6ResultNtNtCsc29TF2YcYso_3syn5token5ConstNtNtBO_5error5ErrorENtNtNtB7_3ops9try_trait3Try6branchBO_, symObjAddr: 0xCF58, symBinAddr: 0x5DB6C, symSize: 0x88 }
  - { offset: 0x10653F, size: 0x8, addend: 0x0, symName: __RNvXsp_NtCsaNl6UpbT7bw_4core6resultINtB5_6ResultNtNtCsc29TF2YcYso_3syn5token5CrateNtNtBO_5error5ErrorENtNtNtB7_3ops9try_trait3Try6branchBO_, symObjAddr: 0xCFE0, symBinAddr: 0x5DBF4, symSize: 0x88 }
  - { offset: 0x1065BD, size: 0x8, addend: 0x0, symName: __RNvXsp_NtCsaNl6UpbT7bw_4core6resultINtB5_6ResultNtNtCsc29TF2YcYso_3syn5token5MacroNtNtBO_5error5ErrorENtNtNtB7_3ops9try_trait3Try6branchBO_, symObjAddr: 0xD068, symBinAddr: 0x5DC7C, symSize: 0x88 }
  - { offset: 0x10663B, size: 0x8, addend: 0x0, symName: __RNvXsp_NtCsaNl6UpbT7bw_4core6resultINtB5_6ResultNtNtCsc29TF2YcYso_3syn5token5MatchNtNtBO_5error5ErrorENtNtNtB7_3ops9try_trait3Try6branchBO_, symObjAddr: 0xD0F0, symBinAddr: 0x5DD04, symSize: 0x88 }
  - { offset: 0x1066B9, size: 0x8, addend: 0x0, symName: __RNvXsp_NtCsaNl6UpbT7bw_4core6resultINtB5_6ResultNtNtCsc29TF2YcYso_3syn5token5PoundNtNtBO_5error5ErrorENtNtNtB7_3ops9try_trait3Try6branchBO_, symObjAddr: 0xD178, symBinAddr: 0x5DD8C, symSize: 0x8C }
  - { offset: 0x106736, size: 0x8, addend: 0x0, symName: __RNvXsp_NtCsaNl6UpbT7bw_4core6resultINtB5_6ResultNtNtCsc29TF2YcYso_3syn5token5TraitNtNtBO_5error5ErrorENtNtNtB7_3ops9try_trait3Try6branchBO_, symObjAddr: 0xD204, symBinAddr: 0x5DE18, symSize: 0x88 }
  - { offset: 0x1067B4, size: 0x8, addend: 0x0, symName: __RNvXsp_NtCsaNl6UpbT7bw_4core6resultINtB5_6ResultNtNtCsc29TF2YcYso_3syn5token5UnionNtNtBO_5error5ErrorENtNtNtB7_3ops9try_trait3Try6branchBO_, symObjAddr: 0xD28C, symBinAddr: 0x5DEA0, symSize: 0x88 }
  - { offset: 0x106832, size: 0x8, addend: 0x0, symName: __RNvXsp_NtCsaNl6UpbT7bw_4core6resultINtB5_6ResultNtNtCsc29TF2YcYso_3syn5token5WhereNtNtBO_5error5ErrorENtNtNtB7_3ops9try_trait3Try6branchBO_, symObjAddr: 0xD314, symBinAddr: 0x5DF28, symSize: 0x88 }
  - { offset: 0x1068B0, size: 0x8, addend: 0x0, symName: __RNvXsp_NtCsaNl6UpbT7bw_4core6resultINtB5_6ResultNtNtCsc29TF2YcYso_3syn5token5WhileNtNtBO_5error5ErrorENtNtNtB7_3ops9try_trait3Try6branchBO_, symObjAddr: 0xD39C, symBinAddr: 0x5DFB0, symSize: 0x88 }
  - { offset: 0x10692E, size: 0x8, addend: 0x0, symName: __RNvXsp_NtCsaNl6UpbT7bw_4core6resultINtB5_6ResultNtNtCsc29TF2YcYso_3syn5token5YieldNtNtBO_5error5ErrorENtNtNtB7_3ops9try_trait3Try6branchBO_, symObjAddr: 0xD424, symBinAddr: 0x5E038, symSize: 0x88 }
  - { offset: 0x1069AC, size: 0x8, addend: 0x0, symName: __RNvXsp_NtCsaNl6UpbT7bw_4core6resultINtB5_6ResultNtNtCsc29TF2YcYso_3syn5token6BecomeNtNtBO_5error5ErrorENtNtNtB7_3ops9try_trait3Try6branchBO_, symObjAddr: 0xD4AC, symBinAddr: 0x5E0C0, symSize: 0x88 }
  - { offset: 0x106A2A, size: 0x8, addend: 0x0, symName: __RNvXsp_NtCsaNl6UpbT7bw_4core6resultINtB5_6ResultNtNtCsc29TF2YcYso_3syn5token6DotDotNtNtBO_5error5ErrorENtNtNtB7_3ops9try_trait3Try6branchBO_, symObjAddr: 0xD534, symBinAddr: 0x5E148, symSize: 0x8C }
  - { offset: 0x106AA7, size: 0x8, addend: 0x0, symName: __RNvXsp_NtCsaNl6UpbT7bw_4core6resultINtB5_6ResultNtNtCsc29TF2YcYso_3syn5token6ExternNtNtBO_5error5ErrorENtNtNtB7_3ops9try_trait3Try6branchBO_, symObjAddr: 0xD5C0, symBinAddr: 0x5E1D4, symSize: 0x88 }
  - { offset: 0x106B25, size: 0x8, addend: 0x0, symName: __RNvXsp_NtCsaNl6UpbT7bw_4core6resultINtB5_6ResultNtNtCsc29TF2YcYso_3syn5token6RArrowNtNtBO_5error5ErrorENtNtNtB7_3ops9try_trait3Try6branchBO_, symObjAddr: 0xD648, symBinAddr: 0x5E25C, symSize: 0x8C }
  - { offset: 0x106BA2, size: 0x8, addend: 0x0, symName: __RNvXsp_NtCsaNl6UpbT7bw_4core6resultINtB5_6ResultNtNtCsc29TF2YcYso_3syn5token6ReturnNtNtBO_5error5ErrorENtNtNtB7_3ops9try_trait3Try6branchBO_, symObjAddr: 0xD6D4, symBinAddr: 0x5E2E8, symSize: 0x88 }
  - { offset: 0x106C20, size: 0x8, addend: 0x0, symName: __RNvXsp_NtCsaNl6UpbT7bw_4core6resultINtB5_6ResultNtNtCsc29TF2YcYso_3syn5token6StaticNtNtBO_5error5ErrorENtNtNtB7_3ops9try_trait3Try6branchBO_, symObjAddr: 0xD75C, symBinAddr: 0x5E370, symSize: 0x88 }
  - { offset: 0x106C9E, size: 0x8, addend: 0x0, symName: __RNvXsp_NtCsaNl6UpbT7bw_4core6resultINtB5_6ResultNtNtCsc29TF2YcYso_3syn5token6StructNtNtBO_5error5ErrorENtNtNtB7_3ops9try_trait3Try6branchBO_, symObjAddr: 0xD7E4, symBinAddr: 0x5E3F8, symSize: 0x88 }
  - { offset: 0x106D1C, size: 0x8, addend: 0x0, symName: __RNvXsp_NtCsaNl6UpbT7bw_4core6resultINtB5_6ResultNtNtCsc29TF2YcYso_3syn5token6UnsafeNtNtBO_5error5ErrorENtNtNtB7_3ops9try_trait3Try6branchBO_, symObjAddr: 0xD86C, symBinAddr: 0x5E480, symSize: 0x88 }
  - { offset: 0x106D9A, size: 0x8, addend: 0x0, symName: __RNvXsp_NtCsaNl6UpbT7bw_4core6resultINtB5_6ResultNtNtCsc29TF2YcYso_3syn5token7DefaultNtNtBO_5error5ErrorENtNtNtB7_3ops9try_trait3Try6branchBO_, symObjAddr: 0xD8F4, symBinAddr: 0x5E508, symSize: 0x88 }
  - { offset: 0x106E18, size: 0x8, addend: 0x0, symName: __RNvXsp_NtCsaNl6UpbT7bw_4core6resultINtB5_6ResultNtNtCsc29TF2YcYso_3syn5token7PathSepNtNtBO_5error5ErrorENtNtNtB7_3ops9try_trait3Try6branchBO_, symObjAddr: 0xD97C, symBinAddr: 0x5E590, symSize: 0x8C }
  - { offset: 0x106E95, size: 0x8, addend: 0x0, symName: __RNvXsp_NtCsaNl6UpbT7bw_4core6resultINtB5_6ResultNtNtCsc29TF2YcYso_3syn5token8ContinueNtNtBO_5error5ErrorENtNtNtB7_3ops9try_trait3Try6branchBO_, symObjAddr: 0xDA08, symBinAddr: 0x5E61C, symSize: 0x88 }
  - { offset: 0x106F13, size: 0x8, addend: 0x0, symName: __RNvXsp_NtCsaNl6UpbT7bw_4core6resultINtB5_6ResultNtNtCsc29TF2YcYso_3syn5token8FatArrowNtNtBO_5error5ErrorENtNtNtB7_3ops9try_trait3Try6branchBO_, symObjAddr: 0xDA90, symBinAddr: 0x5E6A4, symSize: 0x8C }
  - { offset: 0x106F90, size: 0x8, addend: 0x0, symName: __RNvXsp_NtCsaNl6UpbT7bw_4core6resultINtB5_6ResultNtNtCsc29TF2YcYso_3syn5token8QuestionNtNtBO_5error5ErrorENtNtNtB7_3ops9try_trait3Try6branchBO_, symObjAddr: 0xDB1C, symBinAddr: 0x5E730, symSize: 0x8C }
  - { offset: 0x10700D, size: 0x8, addend: 0x0, symName: __RNvXsp_NtCsaNl6UpbT7bw_4core6resultINtB5_6ResultNtNtCsc29TF2YcYso_3syn5token9DotDotDotNtNtBO_5error5ErrorENtNtNtB7_3ops9try_trait3Try6branchBO_, symObjAddr: 0xDBA8, symBinAddr: 0x5E7BC, symSize: 0x9C }
  - { offset: 0x10708A, size: 0x8, addend: 0x0, symName: __RNvXsp_NtCsaNl6UpbT7bw_4core6resultINtB5_6ResultNtNtCsc29TF2YcYso_3syn5token9SelfValueNtNtBO_5error5ErrorENtNtNtB7_3ops9try_trait3Try6branchBO_, symObjAddr: 0xDC44, symBinAddr: 0x5E858, symSize: 0x88 }
  - { offset: 0x107108, size: 0x8, addend: 0x0, symName: __RNvXsp_NtCsaNl6UpbT7bw_4core6resultINtB5_6ResultNtNtCsc29TF2YcYso_3syn8generics10ConstParamNtNtBO_5error5ErrorENtNtNtB7_3ops9try_trait3Try6branchBO_, symObjAddr: 0xDCCC, symBinAddr: 0x5E8E0, symSize: 0xB4 }
  - { offset: 0x107186, size: 0x8, addend: 0x0, symName: __RNvXsp_NtCsaNl6UpbT7bw_4core6resultINtB5_6ResultNtNtCsc29TF2YcYso_3syn8generics10TraitBoundNtNtBO_5error5ErrorENtNtNtB7_3ops9try_trait3Try6branchBO_, symObjAddr: 0xDD80, symBinAddr: 0x5E994, symSize: 0xBC }
  - { offset: 0x107203, size: 0x8, addend: 0x0, symName: __RNvXsp_NtCsaNl6UpbT7bw_4core6resultINtB5_6ResultNtNtCsc29TF2YcYso_3syn8generics11WhereClauseNtNtBO_5error5ErrorENtNtNtB7_3ops9try_trait3Try6branchBO_, symObjAddr: 0xDE3C, symBinAddr: 0x5EA50, symSize: 0xB0 }
  - { offset: 0x107280, size: 0x8, addend: 0x0, symName: __RNvXsp_NtCsaNl6UpbT7bw_4core6resultINtB5_6ResultNtNtCsc29TF2YcYso_3syn8generics12GenericParamNtNtBO_5error5ErrorENtNtNtB7_3ops9try_trait3Try6branchBO_, symObjAddr: 0xDEEC, symBinAddr: 0x5EB00, symSize: 0xB4 }
  - { offset: 0x1072FE, size: 0x8, addend: 0x0, symName: __RNvXsp_NtCsaNl6UpbT7bw_4core6resultINtB5_6ResultNtNtCsc29TF2YcYso_3syn8generics13CapturedParamNtNtBO_5error5ErrorENtNtNtB7_3ops9try_trait3Try6branchBO_, symObjAddr: 0xDFA0, symBinAddr: 0x5EBB4, symSize: 0xAC }
  - { offset: 0x10737B, size: 0x8, addend: 0x0, symName: __RNvXsp_NtCsaNl6UpbT7bw_4core6resultINtB5_6ResultNtNtCsc29TF2YcYso_3syn8generics13LifetimeParamNtNtBO_5error5ErrorENtNtNtB7_3ops9try_trait3Try6branchBO_, symObjAddr: 0xE04C, symBinAddr: 0x5EC60, symSize: 0xB0 }
  - { offset: 0x1073F8, size: 0x8, addend: 0x0, symName: __RNvXsp_NtCsaNl6UpbT7bw_4core6resultINtB5_6ResultNtNtCsc29TF2YcYso_3syn8generics14PreciseCaptureNtNtBO_5error5ErrorENtNtNtB7_3ops9try_trait3Try6branchBO_, symObjAddr: 0xE0FC, symBinAddr: 0x5ED10, symSize: 0xB0 }
  - { offset: 0x107475, size: 0x8, addend: 0x0, symName: __RNvXsp_NtCsaNl6UpbT7bw_4core6resultINtB5_6ResultNtNtCsc29TF2YcYso_3syn8generics14TypeParamBoundNtNtBO_5error5ErrorENtNtNtB7_3ops9try_trait3Try6branchBO_, symObjAddr: 0xE1AC, symBinAddr: 0x5EDC0, symSize: 0xBC }
  - { offset: 0x1074F2, size: 0x8, addend: 0x0, symName: __RNvXsp_NtCsaNl6UpbT7bw_4core6resultINtB5_6ResultNtNtCsc29TF2YcYso_3syn8generics14WherePredicateNtNtBO_5error5ErrorENtNtNtB7_3ops9try_trait3Try6branchBO_, symObjAddr: 0xE268, symBinAddr: 0x5EE7C, symSize: 0xC0 }
  - { offset: 0x107570, size: 0x8, addend: 0x0, symName: __RNvXsp_NtCsaNl6UpbT7bw_4core6resultINtB5_6ResultNtNtCsc29TF2YcYso_3syn8generics18TraitBoundModifierNtNtBO_5error5ErrorENtNtNtB7_3ops9try_trait3Try6branchBO_, symObjAddr: 0xE328, symBinAddr: 0x5EF3C, symSize: 0x8C }
  - { offset: 0x1075ED, size: 0x8, addend: 0x0, symName: __RNvXsp_NtCsaNl6UpbT7bw_4core6resultINtB5_6ResultNtNtCsc29TF2YcYso_3syn8generics8GenericsNtNtBO_5error5ErrorENtNtNtB7_3ops9try_trait3Try6branchBO_, symObjAddr: 0xE3B4, symBinAddr: 0x5EFC8, symSize: 0xB0 }
  - { offset: 0x10766A, size: 0x8, addend: 0x0, symName: __RNvXsp_NtCsaNl6UpbT7bw_4core6resultINtB5_6ResultNtNtCsc29TF2YcYso_3syn8generics9TypeParamNtNtBO_5error5ErrorENtNtNtB7_3ops9try_trait3Try6branchBO_, symObjAddr: 0xE464, symBinAddr: 0x5F078, symSize: 0xB4 }
  - { offset: 0x1076E8, size: 0x8, addend: 0x0, symName: __RNvXsp_NtCsaNl6UpbT7bw_4core6resultINtB5_6ResultNtNtCsc29TF2YcYso_3syn8lifetime8LifetimeNtNtBO_5error5ErrorENtNtNtB7_3ops9try_trait3Try6branchBO_, symObjAddr: 0xE518, symBinAddr: 0x5F12C, symSize: 0x94 }
  - { offset: 0x107765, size: 0x8, addend: 0x0, symName: __RNvXsp_NtCsaNl6UpbT7bw_4core6resultINtB5_6ResultNtNtNtCsc29TF2YcYso_3syn4item7parsing15FnArgOrVariadicNtNtBQ_5error5ErrorENtNtNtB7_3ops9try_trait3Try6branchBQ_, symObjAddr: 0xE5AC, symBinAddr: 0x5F1C0, symSize: 0xB8 }
  - { offset: 0x1077E2, size: 0x8, addend: 0x0, symName: __RNvXsp_NtCsaNl6UpbT7bw_4core6resultINtB5_6ResultNtNtNtCsc29TF2YcYso_3syn4item7parsing16FlexibleItemTypeNtNtBQ_5error5ErrorENtNtNtB7_3ops9try_trait3Try6branchBQ_, symObjAddr: 0xE664, symBinAddr: 0x5F278, symSize: 0xB4 }
  - { offset: 0x107860, size: 0x8, addend: 0x0, symName: __RNvXsp_NtCsaNl6UpbT7bw_4core6resultINtB5_6ResultTINtNtB7_6option6OptionNtNtCsc29TF2YcYso_3syn4path5QSelfENtB19_4PathENtNtB1b_5error5ErrorENtNtNtB7_3ops9try_trait3Try6branchB1b_, symObjAddr: 0xE718, symBinAddr: 0x5F32C, symSize: 0xB0 }
  - { offset: 0x1078DD, size: 0x8, addend: 0x0, symName: __RNvXsp_NtCsaNl6UpbT7bw_4core6resultINtB5_6ResultTINtNtB7_6option6OptionNtNtCsc29TF2YcYso_3syn5token5ColonEINtNtB1b_10punctuated10PunctuatedNtNtB1b_8generics14TypeParamBoundNtB19_4PlusEENtNtB1b_5error5ErrorENtNtNtB7_3ops9try_trait3Try6branchB1b_, symObjAddr: 0xE7C8, symBinAddr: 0x5F3DC, symSize: 0xB0 }
  - { offset: 0x10795A, size: 0x8, addend: 0x0, symName: __RNvXsp_NtCsaNl6UpbT7bw_4core6resultINtB5_6ResultTINtNtB7_6option6OptionNtNtCsc29TF2YcYso_3syn8generics11WhereClauseENtNtB1b_4data11FieldsNamedENtNtB1b_5error5ErrorENtNtNtB7_3ops9try_trait3Try6branchB1b_, symObjAddr: 0xE878, symBinAddr: 0x5F48C, symSize: 0xB0 }
  - { offset: 0x1079D7, size: 0x8, addend: 0x0, symName: __RNvXsp_NtCsaNl6UpbT7bw_4core6resultINtB5_6ResultTINtNtB7_6option6OptionNtNtCsc29TF2YcYso_3syn8generics11WhereClauseENtNtB1b_4data6FieldsIBM_NtNtB1b_5token4SemiEENtNtB1b_5error5ErrorENtNtNtB7_3ops9try_trait3Try6branchB1b_, symObjAddr: 0xE928, symBinAddr: 0x5F53C, symSize: 0xB8 }
  - { offset: 0x107A54, size: 0x8, addend: 0x0, symName: __RNvXsp_NtCsaNl6UpbT7bw_4core6resultINtB5_6ResultTINtNtB7_6option6OptionNtNtCsc29TF2YcYso_3syn8generics11WhereClauseENtNtB1b_5token5BraceINtNtB1b_10punctuated10PunctuatedNtNtB1b_4data7VariantNtB1S_5CommaEENtNtB1b_5error5ErrorENtNtNtB7_3ops9try_trait3Try6branchB1b_, symObjAddr: 0xE9E0, symBinAddr: 0x5F5F4, symSize: 0xB0 }
  - { offset: 0x107AD1, size: 0x8, addend: 0x0, symName: __RNvXsp_NtCsaNl6UpbT7bw_4core6resultINtB5_6ResultTINtNtCsc29TF2YcYso_3syn10punctuated10PunctuatedNtNtBQ_4item5FnArgNtNtBQ_5token5CommaEINtNtB7_6option6OptionNtB1y_8VariadicEENtNtBQ_5error5ErrorENtNtNtB7_3ops9try_trait3Try6branchBQ_, symObjAddr: 0xEA90, symBinAddr: 0x5F6A4, symSize: 0xB0 }
  - { offset: 0x107B4E, size: 0x8, addend: 0x0, symName: __RNvXsp_NtCsaNl6UpbT7bw_4core6resultINtB5_6ResultTINtNtCsiTraAjBDcu4_5alloc3vec3VecNtNtCsc29TF2YcYso_3syn4attr9AttributeENtNtB1m_11restriction10VisibilityNtNtB1m_5token5TraitNtCshnvkK9b4wzu_11proc_macro25IdentNtNtB1m_8generics8GenericsENtNtB1m_5error5ErrorENtNtNtB7_3ops9try_trait3Try6branchB1m_, symObjAddr: 0xEB40, symBinAddr: 0x5F754, symSize: 0xB8 }
  - { offset: 0x107BCC, size: 0x8, addend: 0x0, symName: __RNvXsp_NtCsaNl6UpbT7bw_4core6resultINtB5_6ResultTNtCshnvkK9b4wzu_11proc_macro211TokenStreamNtNtCsc29TF2YcYso_3syn6buffer6CursorENtNtB1v_5error5ErrorENtNtNtB7_3ops9try_trait3Try6branchB1v_, symObjAddr: 0xEBF8, symBinAddr: 0x5F80C, symSize: 0xB0 }
  - { offset: 0x107C49, size: 0x8, addend: 0x0, symName: __RNvXsp_NtCsaNl6UpbT7bw_4core6resultINtB5_6ResultTNtCshnvkK9b4wzu_11proc_macro24SpanNtNtCsc29TF2YcYso_3syn6buffer6CursorENtNtB1n_5error5ErrorENtNtNtB7_3ops9try_trait3Try6branchB1n_, symObjAddr: 0xECA8, symBinAddr: 0x5F8BC, symSize: 0x94 }
  - { offset: 0x107CC6, size: 0x8, addend: 0x0, symName: __RNvXsp_NtCsaNl6UpbT7bw_4core6resultINtB5_6ResultTNtCshnvkK9b4wzu_11proc_macro25IdentNtNtCsc29TF2YcYso_3syn6buffer6CursorENtNtB1o_5error5ErrorENtNtNtB7_3ops9try_trait3Try6branchB1o_, symObjAddr: 0xEDE8, symBinAddr: 0x5F950, symSize: 0xB0 }
  - { offset: 0x107D43, size: 0x8, addend: 0x0, symName: __RNvXsp_NtCsaNl6UpbT7bw_4core6resultINtB5_6ResultTNtNtCsc29TF2YcYso_3syn3lit3LitNtNtBP_6buffer6CursorENtNtBP_5error5ErrorENtNtNtB7_3ops9try_trait3Try6branchBP_, symObjAddr: 0xF090, symBinAddr: 0x5FA00, symSize: 0xB8 }
  - { offset: 0x107DC0, size: 0x8, addend: 0x0, symName: __RNvXsp_NtCsaNl6UpbT7bw_4core6resultINtB5_6ResultTNtNtCsc29TF2YcYso_3syn3mac14MacroDelimiterNtCshnvkK9b4wzu_11proc_macro211TokenStreamENtNtBP_5error5ErrorENtNtNtB7_3ops9try_trait3Try6branchBP_, symObjAddr: 0xF148, symBinAddr: 0x5FAB8, symSize: 0xB0 }
  - { offset: 0x107E3D, size: 0x8, addend: 0x0, symName: __RNvXsp_NtCsaNl6UpbT7bw_4core6resultINtB5_6ResultTNtNtCsc29TF2YcYso_3syn5token10UnderscoreNtNtBP_6buffer6CursorENtNtBP_5error5ErrorENtNtNtB7_3ops9try_trait3Try6branchBP_, symObjAddr: 0xF1F8, symBinAddr: 0x5FB68, symSize: 0x94 }
  - { offset: 0x107EBA, size: 0x8, addend: 0x0, symName: __RNvXsp_NtCsaNl6UpbT7bw_4core6resultINtB5_6ResultTNtNtCsc29TF2YcYso_3syn8lifetime8LifetimeNtNtBP_6buffer6CursorENtNtBP_5error5ErrorENtNtNtB7_3ops9try_trait3Try6branchBP_, symObjAddr: 0xF28C, symBinAddr: 0x5FBFC, symSize: 0xAC }
  - { offset: 0x107F37, size: 0x8, addend: 0x0, symName: __RNvXsp_NtCsaNl6UpbT7bw_4core6resultINtB5_6ResultTTNtNtCsc29TF2YcYso_3syn3mac14MacroDelimiterNtCshnvkK9b4wzu_11proc_macro211TokenStreamENtNtBQ_6buffer6CursorENtNtBQ_5error5ErrorENtNtNtB7_3ops9try_trait3Try6branchBQ_, symObjAddr: 0xF3E4, symBinAddr: 0x5FCA8, symSize: 0xB0 }
  - { offset: 0x107FB4, size: 0x8, addend: 0x0, symName: __RNvXsp_NtCsaNl6UpbT7bw_4core6resultINtB5_6ResultTTNtNtCshnvkK9b4wzu_11proc_macro25extra9DelimSpanNtNtCsc29TF2YcYso_3syn5parse11ParseBufferENtNtB1B_6buffer6CursorENtNtB1B_5error5ErrorENtNtNtB7_3ops9try_trait3Try6branchB1B_, symObjAddr: 0xF494, symBinAddr: 0x5FD58, symSize: 0xB0 }
  - { offset: 0x108031, size: 0x8, addend: 0x0, symName: __RNvXsp_NtCsaNl6UpbT7bw_4core6resultINtB5_6ResultTuNtNtCsc29TF2YcYso_3syn6buffer6CursorENtNtBQ_5error5ErrorENtNtNtB7_3ops9try_trait3Try6branchBQ_, symObjAddr: 0xF544, symBinAddr: 0x5FE08, symSize: 0x94 }
  - { offset: 0x1080AF, size: 0x8, addend: 0x0, symName: __RNvXsp_NtCsaNl6UpbT7bw_4core6resultINtB5_6ResultbNtNtCsc29TF2YcYso_3syn5error5ErrorENtNtNtB7_3ops9try_trait3Try6branchBP_, symObjAddr: 0xF5D8, symBinAddr: 0x5FE9C, symSize: 0x94 }
  - { offset: 0x10812D, size: 0x8, addend: 0x0, symName: __RNvXsp_NtCsaNl6UpbT7bw_4core6resultINtB5_6ResultmNtNtCsc29TF2YcYso_3syn5error5ErrorENtNtNtB7_3ops9try_trait3Try6branchBP_, symObjAddr: 0xF66C, symBinAddr: 0x5FF30, symSize: 0x88 }
  - { offset: 0x1081AB, size: 0x8, addend: 0x0, symName: __RNvXsp_NtCsaNl6UpbT7bw_4core6resultINtB5_6ResultuNtNtCsc29TF2YcYso_3syn5error5ErrorENtNtNtB7_3ops9try_trait3Try6branchBP_, symObjAddr: 0xF6F4, symBinAddr: 0x5FFB8, symSize: 0x78 }
  - { offset: 0x10822F, size: 0x8, addend: 0x0, symName: __RNvXsq_NtCsaNl6UpbT7bw_4core6resultINtB5_6ResultANtCshnvkK9b4wzu_11proc_macro24Spanj1_NtNtCsc29TF2YcYso_3syn5error5ErrorEINtNtNtB7_3ops9try_trait12FromResidualIBy_NtNtB7_7convert10InfallibleB1m_EE13from_residualB1q_, symObjAddr: 0xF76C, symBinAddr: 0x60030, symSize: 0x40 }
  - { offset: 0x1082B4, size: 0x8, addend: 0x0, symName: __RNvXsq_NtCsaNl6UpbT7bw_4core6resultINtB5_6ResultANtCshnvkK9b4wzu_11proc_macro24Spanj2_NtNtCsc29TF2YcYso_3syn5error5ErrorEINtNtNtB7_3ops9try_trait12FromResidualIBy_NtNtB7_7convert10InfallibleB1m_EE13from_residualB1q_, symObjAddr: 0xF7AC, symBinAddr: 0x60070, symSize: 0x40 }
  - { offset: 0x108339, size: 0x8, addend: 0x0, symName: __RNvXsq_NtCsaNl6UpbT7bw_4core6resultINtB5_6ResultANtCshnvkK9b4wzu_11proc_macro24Spanj3_NtNtCsc29TF2YcYso_3syn5error5ErrorEINtNtNtB7_3ops9try_trait12FromResidualIBy_NtNtB7_7convert10InfallibleB1m_EE13from_residualB1q_, symObjAddr: 0xF7EC, symBinAddr: 0x600B0, symSize: 0x40 }
  - { offset: 0x1083BE, size: 0x8, addend: 0x0, symName: __RNvXsq_NtCsaNl6UpbT7bw_4core6resultINtB5_6ResultINtNtB7_6option6OptionINtNtCsiTraAjBDcu4_5alloc5boxed3BoxNtNtCsc29TF2YcYso_3syn4expr4ExprEENtNtB1J_5error5ErrorEINtNtNtB7_3ops9try_trait12FromResidualIBy_NtNtB7_7convert10InfallibleB2d_EE13from_residualB1J_, symObjAddr: 0xF82C, symBinAddr: 0x600F0, symSize: 0x40 }
  - { offset: 0x108443, size: 0x8, addend: 0x0, symName: __RNvXsq_NtCsaNl6UpbT7bw_4core6resultINtB5_6ResultINtNtB7_6option6OptionNtCshnvkK9b4wzu_11proc_macro25IdentENtNtCsc29TF2YcYso_3syn5error5ErrorEINtNtNtB7_3ops9try_trait12FromResidualIBy_NtNtB7_7convert10InfallibleB1G_EE13from_residualB1K_, symObjAddr: 0xF86C, symBinAddr: 0x60130, symSize: 0x48 }
  - { offset: 0x1084C8, size: 0x8, addend: 0x0, symName: __RNvXsq_NtCsaNl6UpbT7bw_4core6resultINtB5_6ResultINtNtB7_6option6OptionNtNtCsc29TF2YcYso_3syn3lit3LitENtNtB1a_5error5ErrorEINtNtNtB7_3ops9try_trait12FromResidualIBy_NtNtB7_7convert10InfallibleB1B_EE13from_residualB1a_, symObjAddr: 0xF8B4, symBinAddr: 0x60178, symSize: 0x48 }
  - { offset: 0x10854D, size: 0x8, addend: 0x0, symName: __RNvXsq_NtCsaNl6UpbT7bw_4core6resultINtB5_6ResultINtNtB7_6option6OptionNtNtCsc29TF2YcYso_3syn3lit6LitStrENtNtB1a_5error5ErrorEINtNtNtB7_3ops9try_trait12FromResidualIBy_NtNtB7_7convert10InfallibleB1E_EE13from_residualB1a_, symObjAddr: 0xF8FC, symBinAddr: 0x601C0, symSize: 0x40 }
  - { offset: 0x1085D2, size: 0x8, addend: 0x0, symName: __RNvXsq_NtCsaNl6UpbT7bw_4core6resultINtB5_6ResultINtNtB7_6option6OptionNtNtCsc29TF2YcYso_3syn3lit8LitFloatENtNtB1a_5error5ErrorEINtNtNtB7_3ops9try_trait12FromResidualIBy_NtNtB7_7convert10InfallibleB1G_EE13from_residualB1a_, symObjAddr: 0xF93C, symBinAddr: 0x60200, symSize: 0x40 }
  - { offset: 0x108657, size: 0x8, addend: 0x0, symName: __RNvXsq_NtCsaNl6UpbT7bw_4core6resultINtB5_6ResultINtNtB7_6option6OptionNtNtCsc29TF2YcYso_3syn4item10ImplItemFnENtNtB1a_5error5ErrorEINtNtNtB7_3ops9try_trait12FromResidualIBy_NtNtB7_7convert10InfallibleB1K_EE13from_residualB1a_, symObjAddr: 0xF97C, symBinAddr: 0x60240, symSize: 0x48 }
  - { offset: 0x1086DC, size: 0x8, addend: 0x0, symName: __RNvXsq_NtCsaNl6UpbT7bw_4core6resultINtB5_6ResultINtNtB7_6option6OptionNtNtCsc29TF2YcYso_3syn4item7ItemUseENtNtB1a_5error5ErrorEINtNtNtB7_3ops9try_trait12FromResidualIBy_NtNtB7_7convert10InfallibleB1G_EE13from_residualB1a_, symObjAddr: 0xF9C4, symBinAddr: 0x60288, symSize: 0x48 }
  - { offset: 0x108761, size: 0x8, addend: 0x0, symName: __RNvXsq_NtCsaNl6UpbT7bw_4core6resultINtB5_6ResultINtNtB7_6option6OptionNtNtCsc29TF2YcYso_3syn4item7UseTreeENtNtB1a_5error5ErrorEINtNtNtB7_3ops9try_trait12FromResidualIBy_NtNtB7_7convert10InfallibleB1G_EE13from_residualB1a_, symObjAddr: 0xFA0C, symBinAddr: 0x602D0, symSize: 0x48 }
  - { offset: 0x1087E6, size: 0x8, addend: 0x0, symName: __RNvXsq_NtCsaNl6UpbT7bw_4core6resultINtB5_6ResultINtNtB7_6option6OptionNtNtCsc29TF2YcYso_3syn4item8ItemImplENtNtB1a_5error5ErrorEINtNtNtB7_3ops9try_trait12FromResidualIBy_NtNtB7_7convert10InfallibleB1H_EE13from_residualB1a_, symObjAddr: 0xFA54, symBinAddr: 0x60318, symSize: 0x48 }
  - { offset: 0x10886B, size: 0x8, addend: 0x0, symName: __RNvXsq_NtCsaNl6UpbT7bw_4core6resultINtB5_6ResultINtNtB7_6option6OptionNtNtCsc29TF2YcYso_3syn4item9SignatureENtNtB1a_5error5ErrorEINtNtNtB7_3ops9try_trait12FromResidualIBy_NtNtB7_7convert10InfallibleB1I_EE13from_residualB1a_, symObjAddr: 0xFA9C, symBinAddr: 0x60360, symSize: 0x48 }
  - { offset: 0x1088F0, size: 0x8, addend: 0x0, symName: __RNvXsq_NtCsaNl6UpbT7bw_4core6resultINtB5_6ResultINtNtB7_6option6OptionNtNtCsc29TF2YcYso_3syn5token2EqENtNtB1a_5error5ErrorEINtNtNtB7_3ops9try_trait12FromResidualIBy_NtNtB7_7convert10InfallibleB1C_EE13from_residualB1a_, symObjAddr: 0xFAE4, symBinAddr: 0x603A8, symSize: 0x40 }
  - { offset: 0x108975, size: 0x8, addend: 0x0, symName: __RNvXsq_NtCsaNl6UpbT7bw_4core6resultINtB5_6ResultINtNtB7_6option6OptionNtNtCsc29TF2YcYso_3syn5token2OrENtNtB1a_5error5ErrorEINtNtNtB7_3ops9try_trait12FromResidualIBy_NtNtB7_7convert10InfallibleB1C_EE13from_residualB1a_, symObjAddr: 0xFB24, symBinAddr: 0x603E8, symSize: 0x40 }
  - { offset: 0x1089FA, size: 0x8, addend: 0x0, symName: __RNvXsq_NtCsaNl6UpbT7bw_4core6resultINtB5_6ResultINtNtB7_6option6OptionNtNtCsc29TF2YcYso_3syn5token3BoxENtNtB1a_5error5ErrorEINtNtNtB7_3ops9try_trait12FromResidualIBy_NtNtB7_7convert10InfallibleB1D_EE13from_residualB1a_, symObjAddr: 0xFB64, symBinAddr: 0x60428, symSize: 0x40 }
  - { offset: 0x108A7F, size: 0x8, addend: 0x0, symName: __RNvXsq_NtCsaNl6UpbT7bw_4core6resultINtB5_6ResultINtNtB7_6option6OptionNtNtCsc29TF2YcYso_3syn5token3DynENtNtB1a_5error5ErrorEINtNtNtB7_3ops9try_trait12FromResidualIBy_NtNtB7_7convert10InfallibleB1D_EE13from_residualB1a_, symObjAddr: 0xFBA4, symBinAddr: 0x60468, symSize: 0x40 }
  - { offset: 0x108B04, size: 0x8, addend: 0x0, symName: __RNvXsq_NtCsaNl6UpbT7bw_4core6resultINtB5_6ResultINtNtB7_6option6OptionNtNtCsc29TF2YcYso_3syn5token3MutENtNtB1a_5error5ErrorEINtNtNtB7_3ops9try_trait12FromResidualIBy_NtNtB7_7convert10InfallibleB1D_EE13from_residualB1a_, symObjAddr: 0xFBE4, symBinAddr: 0x604A8, symSize: 0x40 }
  - { offset: 0x108B89, size: 0x8, addend: 0x0, symName: __RNvXsq_NtCsaNl6UpbT7bw_4core6resultINtB5_6ResultINtNtB7_6option6OptionNtNtCsc29TF2YcYso_3syn5token3RefENtNtB1a_5error5ErrorEINtNtNtB7_3ops9try_trait12FromResidualIBy_NtNtB7_7convert10InfallibleB1D_EE13from_residualB1a_, symObjAddr: 0xFC24, symBinAddr: 0x604E8, symSize: 0x40 }
  - { offset: 0x108C0E, size: 0x8, addend: 0x0, symName: __RNvXsq_NtCsaNl6UpbT7bw_4core6resultINtB5_6ResultINtNtB7_6option6OptionNtNtCsc29TF2YcYso_3syn5token4AutoENtNtB1a_5error5ErrorEINtNtNtB7_3ops9try_trait12FromResidualIBy_NtNtB7_7convert10InfallibleB1E_EE13from_residualB1a_, symObjAddr: 0xFC64, symBinAddr: 0x60528, symSize: 0x40 }
  - { offset: 0x108C93, size: 0x8, addend: 0x0, symName: __RNvXsq_NtCsaNl6UpbT7bw_4core6resultINtB5_6ResultINtNtB7_6option6OptionNtNtCsc29TF2YcYso_3syn5token4MoveENtNtB1a_5error5ErrorEINtNtNtB7_3ops9try_trait12FromResidualIBy_NtNtB7_7convert10InfallibleB1E_EE13from_residualB1a_, symObjAddr: 0xFCA4, symBinAddr: 0x60568, symSize: 0x40 }
  - { offset: 0x108D18, size: 0x8, addend: 0x0, symName: __RNvXsq_NtCsaNl6UpbT7bw_4core6resultINtB5_6ResultINtNtB7_6option6OptionNtNtCsc29TF2YcYso_3syn5token4PlusENtNtB1a_5error5ErrorEINtNtNtB7_3ops9try_trait12FromResidualIBy_NtNtB7_7convert10InfallibleB1E_EE13from_residualB1a_, symObjAddr: 0xFCE4, symBinAddr: 0x605A8, symSize: 0x40 }
  - { offset: 0x108D9D, size: 0x8, addend: 0x0, symName: __RNvXsq_NtCsaNl6UpbT7bw_4core6resultINtB5_6ResultINtNtB7_6option6OptionNtNtCsc29TF2YcYso_3syn5token4SemiENtNtB1a_5error5ErrorEINtNtNtB7_3ops9try_trait12FromResidualIBy_NtNtB7_7convert10InfallibleB1E_EE13from_residualB1a_, symObjAddr: 0xFD24, symBinAddr: 0x605E8, symSize: 0x40 }
  - { offset: 0x108E22, size: 0x8, addend: 0x0, symName: __RNvXsq_NtCsaNl6UpbT7bw_4core6resultINtB5_6ResultINtNtB7_6option6OptionNtNtCsc29TF2YcYso_3syn5token4StarENtNtB1a_5error5ErrorEINtNtNtB7_3ops9try_trait12FromResidualIBy_NtNtB7_7convert10InfallibleB1E_EE13from_residualB1a_, symObjAddr: 0xFD64, symBinAddr: 0x60628, symSize: 0x40 }
  - { offset: 0x108EA7, size: 0x8, addend: 0x0, symName: __RNvXsq_NtCsaNl6UpbT7bw_4core6resultINtB5_6ResultINtNtB7_6option6OptionNtNtCsc29TF2YcYso_3syn5token5AsyncENtNtB1a_5error5ErrorEINtNtNtB7_3ops9try_trait12FromResidualIBy_NtNtB7_7convert10InfallibleB1F_EE13from_residualB1a_, symObjAddr: 0xFDA4, symBinAddr: 0x60668, symSize: 0x40 }
  - { offset: 0x108F2C, size: 0x8, addend: 0x0, symName: __RNvXsq_NtCsaNl6UpbT7bw_4core6resultINtB5_6ResultINtNtB7_6option6OptionNtNtCsc29TF2YcYso_3syn5token5AwaitENtNtB1a_5error5ErrorEINtNtNtB7_3ops9try_trait12FromResidualIBy_NtNtB7_7convert10InfallibleB1F_EE13from_residualB1a_, symObjAddr: 0xFDE4, symBinAddr: 0x606A8, symSize: 0x40 }
  - { offset: 0x108FB1, size: 0x8, addend: 0x0, symName: __RNvXsq_NtCsaNl6UpbT7bw_4core6resultINtB5_6ResultINtNtB7_6option6OptionNtNtCsc29TF2YcYso_3syn5token5ColonENtNtB1a_5error5ErrorEINtNtNtB7_3ops9try_trait12FromResidualIBy_NtNtB7_7convert10InfallibleB1F_EE13from_residualB1a_, symObjAddr: 0xFE24, symBinAddr: 0x606E8, symSize: 0x40 }
  - { offset: 0x109036, size: 0x8, addend: 0x0, symName: __RNvXsq_NtCsaNl6UpbT7bw_4core6resultINtB5_6ResultINtNtB7_6option6OptionNtNtCsc29TF2YcYso_3syn5token5CommaENtNtB1a_5error5ErrorEINtNtNtB7_3ops9try_trait12FromResidualIBy_NtNtB7_7convert10InfallibleB1F_EE13from_residualB1a_, symObjAddr: 0xFE64, symBinAddr: 0x60728, symSize: 0x40 }
  - { offset: 0x1090BB, size: 0x8, addend: 0x0, symName: __RNvXsq_NtCsaNl6UpbT7bw_4core6resultINtB5_6ResultINtNtB7_6option6OptionNtNtCsc29TF2YcYso_3syn5token5ConstENtNtB1a_5error5ErrorEINtNtNtB7_3ops9try_trait12FromResidualIBy_NtNtB7_7convert10InfallibleB1F_EE13from_residualB1a_, symObjAddr: 0xFEA4, symBinAddr: 0x60768, symSize: 0x40 }
  - { offset: 0x109140, size: 0x8, addend: 0x0, symName: __RNvXsq_NtCsaNl6UpbT7bw_4core6resultINtB5_6ResultINtNtB7_6option6OptionNtNtCsc29TF2YcYso_3syn5token6StaticENtNtB1a_5error5ErrorEINtNtNtB7_3ops9try_trait12FromResidualIBy_NtNtB7_7convert10InfallibleB1G_EE13from_residualB1a_, symObjAddr: 0xFEE4, symBinAddr: 0x607A8, symSize: 0x40 }
  - { offset: 0x1091C5, size: 0x8, addend: 0x0, symName: __RNvXsq_NtCsaNl6UpbT7bw_4core6resultINtB5_6ResultINtNtB7_6option6OptionNtNtCsc29TF2YcYso_3syn5token6UnsafeENtNtB1a_5error5ErrorEINtNtNtB7_3ops9try_trait12FromResidualIBy_NtNtB7_7convert10InfallibleB1G_EE13from_residualB1a_, symObjAddr: 0xFF24, symBinAddr: 0x607E8, symSize: 0x40 }
  - { offset: 0x10924A, size: 0x8, addend: 0x0, symName: __RNvXsq_NtCsaNl6UpbT7bw_4core6resultINtB5_6ResultINtNtB7_6option6OptionNtNtCsc29TF2YcYso_3syn5token7DefaultENtNtB1a_5error5ErrorEINtNtNtB7_3ops9try_trait12FromResidualIBy_NtNtB7_7convert10InfallibleB1H_EE13from_residualB1a_, symObjAddr: 0xFF64, symBinAddr: 0x60828, symSize: 0x40 }
  - { offset: 0x1092CF, size: 0x8, addend: 0x0, symName: __RNvXsq_NtCsaNl6UpbT7bw_4core6resultINtB5_6ResultINtNtB7_6option6OptionNtNtCsc29TF2YcYso_3syn5token7PathSepENtNtB1a_5error5ErrorEINtNtNtB7_3ops9try_trait12FromResidualIBy_NtNtB7_7convert10InfallibleB1H_EE13from_residualB1a_, symObjAddr: 0xFFA4, symBinAddr: 0x60868, symSize: 0x40 }
  - { offset: 0x109354, size: 0x8, addend: 0x0, symName: __RNvXsq_NtCsaNl6UpbT7bw_4core6resultINtB5_6ResultINtNtB7_6option6OptionNtNtCsc29TF2YcYso_3syn5token8QuestionENtNtB1a_5error5ErrorEINtNtNtB7_3ops9try_trait12FromResidualIBy_NtNtB7_7convert10InfallibleB1I_EE13from_residualB1a_, symObjAddr: 0xFFE4, symBinAddr: 0x608A8, symSize: 0x40 }
  - { offset: 0x1093D9, size: 0x8, addend: 0x0, symName: __RNvXsq_NtCsaNl6UpbT7bw_4core6resultINtB5_6ResultINtNtB7_6option6OptionNtNtCsc29TF2YcYso_3syn5token9DotDotDotENtNtB1a_5error5ErrorEINtNtNtB7_3ops9try_trait12FromResidualIBy_NtNtB7_7convert10InfallibleB1J_EE13from_residualB1a_, symObjAddr: 0x10024, symBinAddr: 0x608E8, symSize: 0x40 }
  - { offset: 0x10945E, size: 0x8, addend: 0x0, symName: __RNvXsq_NtCsaNl6UpbT7bw_4core6resultINtB5_6ResultINtNtB7_6option6OptionNtNtCsc29TF2YcYso_3syn8generics10TraitBoundENtNtB1a_5error5ErrorEINtNtNtB7_3ops9try_trait12FromResidualIBy_NtNtB7_7convert10InfallibleB1O_EE13from_residualB1a_, symObjAddr: 0x10064, symBinAddr: 0x60928, symSize: 0x48 }
  - { offset: 0x1094E3, size: 0x8, addend: 0x0, symName: __RNvXsq_NtCsaNl6UpbT7bw_4core6resultINtB5_6ResultINtNtB7_6option6OptionNtNtCsc29TF2YcYso_3syn8lifetime8LifetimeENtNtB1a_5error5ErrorEINtNtNtB7_3ops9try_trait12FromResidualIBy_NtNtB7_7convert10InfallibleB1L_EE13from_residualB1a_, symObjAddr: 0x100AC, symBinAddr: 0x60970, symSize: 0x48 }
  - { offset: 0x109568, size: 0x8, addend: 0x0, symName: __RNvXsq_NtCsaNl6UpbT7bw_4core6resultINtB5_6ResultINtNtB7_6option6OptionNtNtNtCsc29TF2YcYso_3syn3pat7parsing13PatRangeBoundENtNtB1c_5error5ErrorEINtNtNtB7_3ops9try_trait12FromResidualIBy_NtNtB7_7convert10InfallibleB1W_EE13from_residualB1c_, symObjAddr: 0x100F4, symBinAddr: 0x609B8, symSize: 0x48 }
  - { offset: 0x1095ED, size: 0x8, addend: 0x0, symName: __RNvXsq_NtCsaNl6UpbT7bw_4core6resultINtB5_6ResultINtNtB7_6option6OptionTNtNtCsc29TF2YcYso_3syn5token2EqNtNtB1b_2ty4TypeEENtNtB1b_5error5ErrorEINtNtNtB7_3ops9try_trait12FromResidualIBy_NtNtB7_7convert10InfallibleB1U_EE13from_residualB1b_, symObjAddr: 0x1013C, symBinAddr: 0x60A00, symSize: 0x48 }
  - { offset: 0x109672, size: 0x8, addend: 0x0, symName: __RNvXsq_NtCsaNl6UpbT7bw_4core6resultINtB5_6ResultINtNtCsc29TF2YcYso_3syn10punctuated10PunctuatedNtNtBP_2ty4TypeNtNtBP_5token5CommaENtNtBP_5error5ErrorEINtNtNtB7_3ops9try_trait12FromResidualIBy_NtNtB7_7convert10InfallibleB24_EE13from_residualBP_, symObjAddr: 0x10184, symBinAddr: 0x60A48, symSize: 0x48 }
  - { offset: 0x1096F7, size: 0x8, addend: 0x0, symName: __RNvXsq_NtCsaNl6UpbT7bw_4core6resultINtB5_6ResultINtNtCsc29TF2YcYso_3syn10punctuated10PunctuatedNtNtBP_4data5FieldNtNtBP_5token5CommaENtNtBP_5error5ErrorEINtNtNtB7_3ops9try_trait12FromResidualIBy_NtNtB7_7convert10InfallibleB27_EE13from_residualBP_, symObjAddr: 0x101CC, symBinAddr: 0x60A90, symSize: 0x48 }
  - { offset: 0x10977C, size: 0x8, addend: 0x0, symName: __RNvXsq_NtCsaNl6UpbT7bw_4core6resultINtB5_6ResultINtNtCsc29TF2YcYso_3syn10punctuated10PunctuatedNtNtBP_4data7VariantNtNtBP_5token5CommaENtNtBP_5error5ErrorEINtNtNtB7_3ops9try_trait12FromResidualIBy_NtNtB7_7convert10InfallibleB29_EE13from_residualBP_, symObjAddr: 0x10214, symBinAddr: 0x60AD8, symSize: 0x48 }
  - { offset: 0x109801, size: 0x8, addend: 0x0, symName: __RNvXsq_NtCsaNl6UpbT7bw_4core6resultINtB5_6ResultINtNtCsc29TF2YcYso_3syn10punctuated10PunctuatedNtNtBP_4expr4ExprNtNtBP_5token5CommaENtNtBP_5error5ErrorEINtNtNtB7_3ops9try_trait12FromResidualIBy_NtNtB7_7convert10InfallibleB26_EE13from_residualBP_, symObjAddr: 0x1025C, symBinAddr: 0x60B20, symSize: 0x48 }
  - { offset: 0x109886, size: 0x8, addend: 0x0, symName: __RNvXsq_NtCsaNl6UpbT7bw_4core6resultINtB5_6ResultINtNtCsc29TF2YcYso_3syn10punctuated10PunctuatedNtNtBP_8generics14TypeParamBoundNtNtBP_5token4PlusENtNtBP_5error5ErrorEINtNtNtB7_3ops9try_trait12FromResidualIBy_NtNtB7_7convert10InfallibleB2k_EE13from_residualBP_, symObjAddr: 0x102A4, symBinAddr: 0x60B68, symSize: 0x48 }
  - { offset: 0x10990B, size: 0x8, addend: 0x0, symName: __RNvXsq_NtCsaNl6UpbT7bw_4core6resultINtB5_6ResultINtNtCsiTraAjBDcu4_5alloc3vec3VecNtNtCsc29TF2YcYso_3syn4attr9AttributeENtNtB1l_5error5ErrorEINtNtNtB7_3ops9try_trait12FromResidualIBy_NtNtB7_7convert10InfallibleB1T_EE13from_residualB1l_, symObjAddr: 0x102EC, symBinAddr: 0x60BB0, symSize: 0x48 }
  - { offset: 0x109990, size: 0x8, addend: 0x0, symName: __RNvXsq_NtCsaNl6UpbT7bw_4core6resultINtB5_6ResultINtNtCsiTraAjBDcu4_5alloc3vec3VecNtNtCsc29TF2YcYso_3syn4expr3ArmENtNtB1l_5error5ErrorEINtNtNtB7_3ops9try_trait12FromResidualIBy_NtNtB7_7convert10InfallibleB1N_EE13from_residualB1l_, symObjAddr: 0x10334, symBinAddr: 0x60BF8, symSize: 0x48 }
  - { offset: 0x109A15, size: 0x8, addend: 0x0, symName: __RNvXsq_NtCsaNl6UpbT7bw_4core6resultINtB5_6ResultINtNtCsiTraAjBDcu4_5alloc3vec3VecNtNtCsc29TF2YcYso_3syn4stmt4StmtENtNtB1l_5error5ErrorEINtNtNtB7_3ops9try_trait12FromResidualIBy_NtNtB7_7convert10InfallibleB1O_EE13from_residualB1l_, symObjAddr: 0x1037C, symBinAddr: 0x60C40, symSize: 0x48 }
  - { offset: 0x109A9A, size: 0x8, addend: 0x0, symName: __RNvXsq_NtCsaNl6UpbT7bw_4core6resultINtB5_6ResultINtNtCsiTraAjBDcu4_5alloc5boxed3BoxNtNtCsc29TF2YcYso_3syn4expr4ExprENtNtB1n_5error5ErrorEINtNtNtB7_3ops9try_trait12FromResidualIBy_NtNtB7_7convert10InfallibleB1Q_EE13from_residualB1n_, symObjAddr: 0x103C4, symBinAddr: 0x60C88, symSize: 0x40 }
  - { offset: 0x109B1F, size: 0x8, addend: 0x0, symName: __RNvXsq_NtCsaNl6UpbT7bw_4core6resultINtB5_6ResultNtCshnvkK9b4wzu_11proc_macro211TokenStreamNtNtCsc29TF2YcYso_3syn5error5ErrorEINtNtNtB7_3ops9try_trait12FromResidualIBy_NtNtB7_7convert10InfallibleB1q_EE13from_residualB1u_, symObjAddr: 0x10404, symBinAddr: 0x60CC8, symSize: 0x48 }
  - { offset: 0x109BA4, size: 0x8, addend: 0x0, symName: __RNvXsq_NtCsaNl6UpbT7bw_4core6resultINtB5_6ResultNtCshnvkK9b4wzu_11proc_macro24SpanNtNtCsc29TF2YcYso_3syn5error5ErrorEINtNtNtB7_3ops9try_trait12FromResidualIBy_NtNtB7_7convert10InfallibleB1i_EE13from_residualB1m_, symObjAddr: 0x1044C, symBinAddr: 0x60D10, symSize: 0x40 }
  - { offset: 0x109C29, size: 0x8, addend: 0x0, symName: __RNvXsq_NtCsaNl6UpbT7bw_4core6resultINtB5_6ResultNtCshnvkK9b4wzu_11proc_macro25IdentNtNtCsc29TF2YcYso_3syn5error5ErrorEINtNtNtB7_3ops9try_trait12FromResidualIBy_NtNtB7_7convert10InfallibleB1j_EE13from_residualB1n_, symObjAddr: 0x104D4, symBinAddr: 0x60D50, symSize: 0x48 }
  - { offset: 0x109CAE, size: 0x8, addend: 0x0, symName: __RNvXsq_NtCsaNl6UpbT7bw_4core6resultINtB5_6ResultNtNtCsc29TF2YcYso_3syn11restriction10VisibilityNtNtBO_5error5ErrorEINtNtNtB7_3ops9try_trait12FromResidualIBy_NtNtB7_7convert10InfallibleB1v_EE13from_residualBO_, symObjAddr: 0x105EC, symBinAddr: 0x60D98, symSize: 0x48 }
  - { offset: 0x109D33, size: 0x8, addend: 0x0, symName: __RNvXsq_NtCsaNl6UpbT7bw_4core6resultINtB5_6ResultNtNtCsc29TF2YcYso_3syn2ty10ReturnTypeNtNtBO_5error5ErrorEINtNtNtB7_3ops9try_trait12FromResidualIBy_NtNtB7_7convert10InfallibleB1l_EE13from_residualBO_, symObjAddr: 0x10634, symBinAddr: 0x60DE0, symSize: 0x40 }
  - { offset: 0x109DB8, size: 0x8, addend: 0x0, symName: __RNvXsq_NtCsaNl6UpbT7bw_4core6resultINtB5_6ResultNtNtCsc29TF2YcYso_3syn2ty10TypeBareFnNtNtBO_5error5ErrorEINtNtNtB7_3ops9try_trait12FromResidualIBy_NtNtB7_7convert10InfallibleB1l_EE13from_residualBO_, symObjAddr: 0x10674, symBinAddr: 0x60E20, symSize: 0x48 }
  - { offset: 0x109E3D, size: 0x8, addend: 0x0, symName: __RNvXsq_NtCsaNl6UpbT7bw_4core6resultINtB5_6ResultNtNtCsc29TF2YcYso_3syn2ty12BareVariadicNtNtBO_5error5ErrorEINtNtNtB7_3ops9try_trait12FromResidualIBy_NtNtB7_7convert10InfallibleB1n_EE13from_residualBO_, symObjAddr: 0x106BC, symBinAddr: 0x60E68, symSize: 0x48 }
  - { offset: 0x109EC2, size: 0x8, addend: 0x0, symName: __RNvXsq_NtCsaNl6UpbT7bw_4core6resultINtB5_6ResultNtNtCsc29TF2YcYso_3syn2ty13TypeImplTraitNtNtBO_5error5ErrorEINtNtNtB7_3ops9try_trait12FromResidualIBy_NtNtB7_7convert10InfallibleB1o_EE13from_residualBO_, symObjAddr: 0x10704, symBinAddr: 0x60EB0, symSize: 0x48 }
  - { offset: 0x109F47, size: 0x8, addend: 0x0, symName: __RNvXsq_NtCsaNl6UpbT7bw_4core6resultINtB5_6ResultNtNtCsc29TF2YcYso_3syn2ty13TypeReferenceNtNtBO_5error5ErrorEINtNtNtB7_3ops9try_trait12FromResidualIBy_NtNtB7_7convert10InfallibleB1o_EE13from_residualBO_, symObjAddr: 0x1074C, symBinAddr: 0x60EF8, symSize: 0x48 }
  - { offset: 0x109FCC, size: 0x8, addend: 0x0, symName: __RNvXsq_NtCsaNl6UpbT7bw_4core6resultINtB5_6ResultNtNtCsc29TF2YcYso_3syn2ty15TypeTraitObjectNtNtBO_5error5ErrorEINtNtNtB7_3ops9try_trait12FromResidualIBy_NtNtB7_7convert10InfallibleB1q_EE13from_residualBO_, symObjAddr: 0x10794, symBinAddr: 0x60F40, symSize: 0x48 }
  - { offset: 0x10A051, size: 0x8, addend: 0x0, symName: __RNvXsq_NtCsaNl6UpbT7bw_4core6resultINtB5_6ResultNtNtCsc29TF2YcYso_3syn2ty3AbiNtNtBO_5error5ErrorEINtNtNtB7_3ops9try_trait12FromResidualIBy_NtNtB7_7convert10InfallibleB1d_EE13from_residualBO_, symObjAddr: 0x107DC, symBinAddr: 0x60F88, symSize: 0x40 }
  - { offset: 0x10A0D6, size: 0x8, addend: 0x0, symName: __RNvXsq_NtCsaNl6UpbT7bw_4core6resultINtB5_6ResultNtNtCsc29TF2YcYso_3syn2ty4TypeNtNtBO_5error5ErrorEINtNtNtB7_3ops9try_trait12FromResidualIBy_NtNtB7_7convert10InfallibleB1e_EE13from_residualBO_, symObjAddr: 0x1081C, symBinAddr: 0x60FC8, symSize: 0x48 }
  - { offset: 0x10A15B, size: 0x8, addend: 0x0, symName: __RNvXsq_NtCsaNl6UpbT7bw_4core6resultINtB5_6ResultNtNtCsc29TF2YcYso_3syn2ty7TypePtrNtNtBO_5error5ErrorEINtNtNtB7_3ops9try_trait12FromResidualIBy_NtNtB7_7convert10InfallibleB1h_EE13from_residualBO_, symObjAddr: 0x10864, symBinAddr: 0x61010, symSize: 0x48 }
  - { offset: 0x10A1E0, size: 0x8, addend: 0x0, symName: __RNvXsq_NtCsaNl6UpbT7bw_4core6resultINtB5_6ResultNtNtCsc29TF2YcYso_3syn2ty8TypePathNtNtBO_5error5ErrorEINtNtNtB7_3ops9try_trait12FromResidualIBy_NtNtB7_7convert10InfallibleB1i_EE13from_residualBO_, symObjAddr: 0x108AC, symBinAddr: 0x61058, symSize: 0x48 }
  - { offset: 0x10A265, size: 0x8, addend: 0x0, symName: __RNvXsq_NtCsaNl6UpbT7bw_4core6resultINtB5_6ResultNtNtCsc29TF2YcYso_3syn2ty9BareFnArgNtNtBO_5error5ErrorEINtNtNtB7_3ops9try_trait12FromResidualIBy_NtNtB7_7convert10InfallibleB1j_EE13from_residualBO_, symObjAddr: 0x108F4, symBinAddr: 0x610A0, symSize: 0x48 }
  - { offset: 0x10A2EA, size: 0x8, addend: 0x0, symName: __RNvXsq_NtCsaNl6UpbT7bw_4core6resultINtB5_6ResultNtNtCsc29TF2YcYso_3syn2ty9TypeGroupNtNtBO_5error5ErrorEINtNtNtB7_3ops9try_trait12FromResidualIBy_NtNtB7_7convert10InfallibleB1j_EE13from_residualBO_, symObjAddr: 0x10984, symBinAddr: 0x610E8, symSize: 0x40 }
  - { offset: 0x10A36F, size: 0x8, addend: 0x0, symName: __RNvXsq_NtCsaNl6UpbT7bw_4core6resultINtB5_6ResultNtNtCsc29TF2YcYso_3syn2ty9TypeInferNtNtBO_5error5ErrorEINtNtNtB7_3ops9try_trait12FromResidualIBy_NtNtB7_7convert10InfallibleB1j_EE13from_residualBO_, symObjAddr: 0x109C4, symBinAddr: 0x61128, symSize: 0x40 }
  - { offset: 0x10A3F4, size: 0x8, addend: 0x0, symName: __RNvXsq_NtCsaNl6UpbT7bw_4core6resultINtB5_6ResultNtNtCsc29TF2YcYso_3syn2ty9TypeNeverNtNtBO_5error5ErrorEINtNtNtB7_3ops9try_trait12FromResidualIBy_NtNtB7_7convert10InfallibleB1j_EE13from_residualBO_, symObjAddr: 0x10A4C, symBinAddr: 0x61168, symSize: 0x40 }
  - { offset: 0x10A479, size: 0x8, addend: 0x0, symName: __RNvXsq_NtCsaNl6UpbT7bw_4core6resultINtB5_6ResultNtNtCsc29TF2YcYso_3syn3lit3LitNtNtBO_5error5ErrorEINtNtNtB7_3ops9try_trait12FromResidualIBy_NtNtB7_7convert10InfallibleB1e_EE13from_residualBO_, symObjAddr: 0x10B64, symBinAddr: 0x611A8, symSize: 0x48 }
  - { offset: 0x10A4FE, size: 0x8, addend: 0x0, symName: __RNvXsq_NtCsaNl6UpbT7bw_4core6resultINtB5_6ResultNtNtCsc29TF2YcYso_3syn3mac5MacroNtNtBO_5error5ErrorEINtNtNtB7_3ops9try_trait12FromResidualIBy_NtNtB7_7convert10InfallibleB1g_EE13from_residualBO_, symObjAddr: 0x10BAC, symBinAddr: 0x611F0, symSize: 0x48 }
  - { offset: 0x10A583, size: 0x8, addend: 0x0, symName: __RNvXsq_NtCsaNl6UpbT7bw_4core6resultINtB5_6ResultNtNtCsc29TF2YcYso_3syn3pat12PatReferenceNtNtBO_5error5ErrorEINtNtNtB7_3ops9try_trait12FromResidualIBy_NtNtB7_7convert10InfallibleB1o_EE13from_residualBO_, symObjAddr: 0x10BF4, symBinAddr: 0x61238, symSize: 0x48 }
  - { offset: 0x10A608, size: 0x8, addend: 0x0, symName: __RNvXsq_NtCsaNl6UpbT7bw_4core6resultINtB5_6ResultNtNtCsc29TF2YcYso_3syn3pat14PatTupleStructNtNtBO_5error5ErrorEINtNtNtB7_3ops9try_trait12FromResidualIBy_NtNtB7_7convert10InfallibleB1q_EE13from_residualBO_, symObjAddr: 0x10C3C, symBinAddr: 0x61280, symSize: 0x48 }
  - { offset: 0x10A68D, size: 0x8, addend: 0x0, symName: __RNvXsq_NtCsaNl6UpbT7bw_4core6resultINtB5_6ResultNtNtCsc29TF2YcYso_3syn3pat3PatNtNtBO_5error5ErrorEINtNtNtB7_3ops9try_trait12FromResidualIBy_NtNtB7_7convert10InfallibleB1e_EE13from_residualBO_, symObjAddr: 0x10C84, symBinAddr: 0x612C8, symSize: 0x4C }
  - { offset: 0x10A712, size: 0x8, addend: 0x0, symName: __RNvXsq_NtCsaNl6UpbT7bw_4core6resultINtB5_6ResultNtNtCsc29TF2YcYso_3syn3pat7PatWildNtNtBO_5error5ErrorEINtNtNtB7_3ops9try_trait12FromResidualIBy_NtNtB7_7convert10InfallibleB1i_EE13from_residualBO_, symObjAddr: 0x10D18, symBinAddr: 0x61314, symSize: 0x48 }
  - { offset: 0x10A797, size: 0x8, addend: 0x0, symName: __RNvXsq_NtCsaNl6UpbT7bw_4core6resultINtB5_6ResultNtNtCsc29TF2YcYso_3syn3pat8FieldPatNtNtBO_5error5ErrorEINtNtNtB7_3ops9try_trait12FromResidualIBy_NtNtB7_7convert10InfallibleB1j_EE13from_residualBO_, symObjAddr: 0x10D60, symBinAddr: 0x6135C, symSize: 0x48 }
  - { offset: 0x10A81C, size: 0x8, addend: 0x0, symName: __RNvXsq_NtCsaNl6UpbT7bw_4core6resultINtB5_6ResultNtNtCsc29TF2YcYso_3syn3pat8PatIdentNtNtBO_5error5ErrorEINtNtNtB7_3ops9try_trait12FromResidualIBy_NtNtB7_7convert10InfallibleB1j_EE13from_residualBO_, symObjAddr: 0x10DA8, symBinAddr: 0x613A4, symSize: 0x48 }
  - { offset: 0x10A8A1, size: 0x8, addend: 0x0, symName: __RNvXsq_NtCsaNl6UpbT7bw_4core6resultINtB5_6ResultNtNtCsc29TF2YcYso_3syn3pat8PatSliceNtNtBO_5error5ErrorEINtNtNtB7_3ops9try_trait12FromResidualIBy_NtNtB7_7convert10InfallibleB1j_EE13from_residualBO_, symObjAddr: 0x10DF0, symBinAddr: 0x613EC, symSize: 0x48 }
  - { offset: 0x10A926, size: 0x8, addend: 0x0, symName: __RNvXsq_NtCsaNl6UpbT7bw_4core6resultINtB5_6ResultNtNtCsc29TF2YcYso_3syn3pat9PatStructNtNtBO_5error5ErrorEINtNtNtB7_3ops9try_trait12FromResidualIBy_NtNtB7_7convert10InfallibleB1k_EE13from_residualBO_, symObjAddr: 0x10E38, symBinAddr: 0x61434, symSize: 0x48 }
  - { offset: 0x10A9AB, size: 0x8, addend: 0x0, symName: __RNvXsq_NtCsaNl6UpbT7bw_4core6resultINtB5_6ResultNtNtCsc29TF2YcYso_3syn4attr13MetaNameValueNtNtBO_5error5ErrorEINtNtNtB7_3ops9try_trait12FromResidualIBy_NtNtB7_7convert10InfallibleB1q_EE13from_residualBO_, symObjAddr: 0x10E80, symBinAddr: 0x6147C, symSize: 0x48 }
  - { offset: 0x10AA30, size: 0x8, addend: 0x0, symName: __RNvXsq_NtCsaNl6UpbT7bw_4core6resultINtB5_6ResultNtNtCsc29TF2YcYso_3syn4attr4MetaNtNtBO_5error5ErrorEINtNtNtB7_3ops9try_trait12FromResidualIBy_NtNtB7_7convert10InfallibleB1g_EE13from_residualBO_, symObjAddr: 0x10EC8, symBinAddr: 0x614C4, symSize: 0x48 }
  - { offset: 0x10AAB5, size: 0x8, addend: 0x0, symName: __RNvXsq_NtCsaNl6UpbT7bw_4core6resultINtB5_6ResultNtNtCsc29TF2YcYso_3syn4attr8MetaListNtNtBO_5error5ErrorEINtNtNtB7_3ops9try_trait12FromResidualIBy_NtNtB7_7convert10InfallibleB1k_EE13from_residualBO_, symObjAddr: 0x10F10, symBinAddr: 0x6150C, symSize: 0x48 }
  - { offset: 0x10AB3A, size: 0x8, addend: 0x0, symName: __RNvXsq_NtCsaNl6UpbT7bw_4core6resultINtB5_6ResultNtNtCsc29TF2YcYso_3syn4attr9AttributeNtNtBO_5error5ErrorEINtNtNtB7_3ops9try_trait12FromResidualIBy_NtNtB7_7convert10InfallibleB1l_EE13from_residualBO_, symObjAddr: 0x10F58, symBinAddr: 0x61554, symSize: 0x48 }
  - { offset: 0x10ABBF, size: 0x8, addend: 0x0, symName: __RNvXsq_NtCsaNl6UpbT7bw_4core6resultINtB5_6ResultNtNtCsc29TF2YcYso_3syn4data11FieldsNamedNtNtBO_5error5ErrorEINtNtNtB7_3ops9try_trait12FromResidualIBy_NtNtB7_7convert10InfallibleB1o_EE13from_residualBO_, symObjAddr: 0x10FA0, symBinAddr: 0x6159C, symSize: 0x48 }
  - { offset: 0x10AC44, size: 0x8, addend: 0x0, symName: __RNvXsq_NtCsaNl6UpbT7bw_4core6resultINtB5_6ResultNtNtCsc29TF2YcYso_3syn4data13FieldsUnnamedNtNtBO_5error5ErrorEINtNtNtB7_3ops9try_trait12FromResidualIBy_NtNtB7_7convert10InfallibleB1q_EE13from_residualBO_, symObjAddr: 0x10FE8, symBinAddr: 0x615E4, symSize: 0x48 }
  - { offset: 0x10ACC9, size: 0x8, addend: 0x0, symName: __RNvXsq_NtCsaNl6UpbT7bw_4core6resultINtB5_6ResultNtNtCsc29TF2YcYso_3syn4data5FieldNtNtBO_5error5ErrorEINtNtNtB7_3ops9try_trait12FromResidualIBy_NtNtB7_7convert10InfallibleB1h_EE13from_residualBO_, symObjAddr: 0x11030, symBinAddr: 0x6162C, symSize: 0x48 }
  - { offset: 0x10AD4E, size: 0x8, addend: 0x0, symName: __RNvXsq_NtCsaNl6UpbT7bw_4core6resultINtB5_6ResultNtNtCsc29TF2YcYso_3syn4data7VariantNtNtBO_5error5ErrorEINtNtNtB7_3ops9try_trait12FromResidualIBy_NtNtB7_7convert10InfallibleB1j_EE13from_residualBO_, symObjAddr: 0x11078, symBinAddr: 0x61674, symSize: 0x48 }
  - { offset: 0x10ADD3, size: 0x8, addend: 0x0, symName: __RNvXsq_NtCsaNl6UpbT7bw_4core6resultINtB5_6ResultNtNtCsc29TF2YcYso_3syn4expr10ExprReturnNtNtBO_5error5ErrorEINtNtNtB7_3ops9try_trait12FromResidualIBy_NtNtB7_7convert10InfallibleB1n_EE13from_residualBO_, symObjAddr: 0x11198, symBinAddr: 0x616BC, symSize: 0x48 }
  - { offset: 0x10AE58, size: 0x8, addend: 0x0, symName: __RNvXsq_NtCsaNl6UpbT7bw_4core6resultINtB5_6ResultNtNtCsc29TF2YcYso_3syn4expr10ExprStructNtNtBO_5error5ErrorEINtNtNtB7_3ops9try_trait12FromResidualIBy_NtNtB7_7convert10InfallibleB1n_EE13from_residualBO_, symObjAddr: 0x111E0, symBinAddr: 0x61704, symSize: 0x48 }
  - { offset: 0x10AEDD, size: 0x8, addend: 0x0, symName: __RNvXsq_NtCsaNl6UpbT7bw_4core6resultINtB5_6ResultNtNtCsc29TF2YcYso_3syn4expr10ExprUnsafeNtNtBO_5error5ErrorEINtNtNtB7_3ops9try_trait12FromResidualIBy_NtNtB7_7convert10InfallibleB1n_EE13from_residualBO_, symObjAddr: 0x11228, symBinAddr: 0x6174C, symSize: 0x48 }
  - { offset: 0x10AF62, size: 0x8, addend: 0x0, symName: __RNvXsq_NtCsaNl6UpbT7bw_4core6resultINtB5_6ResultNtNtCsc29TF2YcYso_3syn4expr10FieldValueNtNtBO_5error5ErrorEINtNtNtB7_3ops9try_trait12FromResidualIBy_NtNtB7_7convert10InfallibleB1n_EE13from_residualBO_, symObjAddr: 0x11270, symBinAddr: 0x61794, symSize: 0x48 }
  - { offset: 0x10AFE7, size: 0x8, addend: 0x0, symName: __RNvXsq_NtCsaNl6UpbT7bw_4core6resultINtB5_6ResultNtNtCsc29TF2YcYso_3syn4expr11ExprClosureNtNtBO_5error5ErrorEINtNtNtB7_3ops9try_trait12FromResidualIBy_NtNtB7_7convert10InfallibleB1o_EE13from_residualBO_, symObjAddr: 0x112B8, symBinAddr: 0x617DC, symSize: 0x48 }
  - { offset: 0x10B06C, size: 0x8, addend: 0x0, symName: __RNvXsq_NtCsaNl6UpbT7bw_4core6resultINtB5_6ResultNtNtCsc29TF2YcYso_3syn4expr11ExprForLoopNtNtBO_5error5ErrorEINtNtNtB7_3ops9try_trait12FromResidualIBy_NtNtB7_7convert10InfallibleB1o_EE13from_residualBO_, symObjAddr: 0x11300, symBinAddr: 0x61824, symSize: 0x48 }
  - { offset: 0x10B0F1, size: 0x8, addend: 0x0, symName: __RNvXsq_NtCsaNl6UpbT7bw_4core6resultINtB5_6ResultNtNtCsc29TF2YcYso_3syn4expr11RangeLimitsNtNtBO_5error5ErrorEINtNtNtB7_3ops9try_trait12FromResidualIBy_NtNtB7_7convert10InfallibleB1o_EE13from_residualBO_, symObjAddr: 0x11390, symBinAddr: 0x6186C, symSize: 0x40 }
  - { offset: 0x10B176, size: 0x8, addend: 0x0, symName: __RNvXsq_NtCsaNl6UpbT7bw_4core6resultINtB5_6ResultNtNtCsc29TF2YcYso_3syn4expr12ExprContinueNtNtBO_5error5ErrorEINtNtNtB7_3ops9try_trait12FromResidualIBy_NtNtB7_7convert10InfallibleB1p_EE13from_residualBO_, symObjAddr: 0x113D0, symBinAddr: 0x618AC, symSize: 0x48 }
  - { offset: 0x10B1FB, size: 0x8, addend: 0x0, symName: __RNvXsq_NtCsaNl6UpbT7bw_4core6resultINtB5_6ResultNtNtCsc29TF2YcYso_3syn4expr12ExprTryBlockNtNtBO_5error5ErrorEINtNtNtB7_3ops9try_trait12FromResidualIBy_NtNtB7_7convert10InfallibleB1p_EE13from_residualBO_, symObjAddr: 0x11418, symBinAddr: 0x618F4, symSize: 0x48 }
  - { offset: 0x10B280, size: 0x8, addend: 0x0, symName: __RNvXsq_NtCsaNl6UpbT7bw_4core6resultINtB5_6ResultNtNtCsc29TF2YcYso_3syn4expr3ArmNtNtBO_5error5ErrorEINtNtNtB7_3ops9try_trait12FromResidualIBy_NtNtB7_7convert10InfallibleB1f_EE13from_residualBO_, symObjAddr: 0x11530, symBinAddr: 0x6193C, symSize: 0x48 }
  - { offset: 0x10B305, size: 0x8, addend: 0x0, symName: __RNvXsq_NtCsaNl6UpbT7bw_4core6resultINtB5_6ResultNtNtCsc29TF2YcYso_3syn4expr4ExprNtNtBO_5error5ErrorEINtNtNtB7_3ops9try_trait12FromResidualIBy_NtNtB7_7convert10InfallibleB1g_EE13from_residualBO_, symObjAddr: 0x11578, symBinAddr: 0x61984, symSize: 0x48 }
  - { offset: 0x10B38A, size: 0x8, addend: 0x0, symName: __RNvXsq_NtCsaNl6UpbT7bw_4core6resultINtB5_6ResultNtNtCsc29TF2YcYso_3syn4expr5IndexNtNtBO_5error5ErrorEINtNtNtB7_3ops9try_trait12FromResidualIBy_NtNtB7_7convert10InfallibleB1h_EE13from_residualBO_, symObjAddr: 0x115C0, symBinAddr: 0x619CC, symSize: 0x40 }
  - { offset: 0x10B40F, size: 0x8, addend: 0x0, symName: __RNvXsq_NtCsaNl6UpbT7bw_4core6resultINtB5_6ResultNtNtCsc29TF2YcYso_3syn4expr5IndexNtNtBO_5error5ErrorEINtNtNtB7_3ops9try_trait12FromResidualIBy_NtNtB7_7convert10InfallibleNtCshnvkK9b4wzu_11proc_macro28LexErrorEE13from_residualBO_, symObjAddr: 0x11600, symBinAddr: 0x61A0C, symSize: 0x44 }
  - { offset: 0x10B476, size: 0x8, addend: 0x0, symName: __RNvXsq_NtCsaNl6UpbT7bw_4core6resultINtB5_6ResultNtNtCsc29TF2YcYso_3syn4expr5LabelNtNtBO_5error5ErrorEINtNtNtB7_3ops9try_trait12FromResidualIBy_NtNtB7_7convert10InfallibleB1h_EE13from_residualBO_, symObjAddr: 0x11644, symBinAddr: 0x61A50, symSize: 0x48 }
  - { offset: 0x10B4FB, size: 0x8, addend: 0x0, symName: __RNvXsq_NtCsaNl6UpbT7bw_4core6resultINtB5_6ResultNtNtCsc29TF2YcYso_3syn4expr6ExprIfNtNtBO_5error5ErrorEINtNtNtB7_3ops9try_trait12FromResidualIBy_NtNtB7_7convert10InfallibleB1i_EE13from_residualBO_, symObjAddr: 0x1168C, symBinAddr: 0x61A98, symSize: 0x48 }
  - { offset: 0x10B580, size: 0x8, addend: 0x0, symName: __RNvXsq_NtCsaNl6UpbT7bw_4core6resultINtB5_6ResultNtNtCsc29TF2YcYso_3syn4expr7ExprLetNtNtBO_5error5ErrorEINtNtNtB7_3ops9try_trait12FromResidualIBy_NtNtB7_7convert10InfallibleB1j_EE13from_residualBO_, symObjAddr: 0x116D4, symBinAddr: 0x61AE0, symSize: 0x48 }
  - { offset: 0x10B605, size: 0x8, addend: 0x0, symName: __RNvXsq_NtCsaNl6UpbT7bw_4core6resultINtB5_6ResultNtNtCsc29TF2YcYso_3syn4expr7ExprLitNtNtBO_5error5ErrorEINtNtNtB7_3ops9try_trait12FromResidualIBy_NtNtB7_7convert10InfallibleB1j_EE13from_residualBO_, symObjAddr: 0x1171C, symBinAddr: 0x61B28, symSize: 0x48 }
  - { offset: 0x10B68A, size: 0x8, addend: 0x0, symName: __RNvXsq_NtCsaNl6UpbT7bw_4core6resultINtB5_6ResultNtNtCsc29TF2YcYso_3syn4expr8ExprLoopNtNtBO_5error5ErrorEINtNtNtB7_3ops9try_trait12FromResidualIBy_NtNtB7_7convert10InfallibleB1k_EE13from_residualBO_, symObjAddr: 0x1183C, symBinAddr: 0x61B70, symSize: 0x48 }
  - { offset: 0x10B70F, size: 0x8, addend: 0x0, symName: __RNvXsq_NtCsaNl6UpbT7bw_4core6resultINtB5_6ResultNtNtCsc29TF2YcYso_3syn4expr8ExprPathNtNtBO_5error5ErrorEINtNtNtB7_3ops9try_trait12FromResidualIBy_NtNtB7_7convert10InfallibleB1k_EE13from_residualBO_, symObjAddr: 0x11884, symBinAddr: 0x61BB8, symSize: 0x48 }
  - { offset: 0x10B794, size: 0x8, addend: 0x0, symName: __RNvXsq_NtCsaNl6UpbT7bw_4core6resultINtB5_6ResultNtNtCsc29TF2YcYso_3syn4expr9ExprAsyncNtNtBO_5error5ErrorEINtNtNtB7_3ops9try_trait12FromResidualIBy_NtNtB7_7convert10InfallibleB1l_EE13from_residualBO_, symObjAddr: 0x11914, symBinAddr: 0x61C00, symSize: 0x48 }
  - { offset: 0x10B819, size: 0x8, addend: 0x0, symName: __RNvXsq_NtCsaNl6UpbT7bw_4core6resultINtB5_6ResultNtNtCsc29TF2YcYso_3syn4expr9ExprBlockNtNtBO_5error5ErrorEINtNtNtB7_3ops9try_trait12FromResidualIBy_NtNtB7_7convert10InfallibleB1l_EE13from_residualBO_, symObjAddr: 0x119A4, symBinAddr: 0x61C48, symSize: 0x48 }
  - { offset: 0x10B89E, size: 0x8, addend: 0x0, symName: __RNvXsq_NtCsaNl6UpbT7bw_4core6resultINtB5_6ResultNtNtCsc29TF2YcYso_3syn4expr9ExprBreakNtNtBO_5error5ErrorEINtNtNtB7_3ops9try_trait12FromResidualIBy_NtNtB7_7convert10InfallibleB1l_EE13from_residualBO_, symObjAddr: 0x119EC, symBinAddr: 0x61C90, symSize: 0x48 }
  - { offset: 0x10B923, size: 0x8, addend: 0x0, symName: __RNvXsq_NtCsaNl6UpbT7bw_4core6resultINtB5_6ResultNtNtCsc29TF2YcYso_3syn4expr9ExprConstNtNtBO_5error5ErrorEINtNtNtB7_3ops9try_trait12FromResidualIBy_NtNtB7_7convert10InfallibleB1l_EE13from_residualBO_, symObjAddr: 0x11A34, symBinAddr: 0x61CD8, symSize: 0x48 }
  - { offset: 0x10B9A8, size: 0x8, addend: 0x0, symName: __RNvXsq_NtCsaNl6UpbT7bw_4core6resultINtB5_6ResultNtNtCsc29TF2YcYso_3syn4expr9ExprInferNtNtBO_5error5ErrorEINtNtNtB7_3ops9try_trait12FromResidualIBy_NtNtB7_7convert10InfallibleB1l_EE13from_residualBO_, symObjAddr: 0x11B0C, symBinAddr: 0x61D20, symSize: 0x48 }
  - { offset: 0x10BA2D, size: 0x8, addend: 0x0, symName: __RNvXsq_NtCsaNl6UpbT7bw_4core6resultINtB5_6ResultNtNtCsc29TF2YcYso_3syn4expr9ExprMatchNtNtBO_5error5ErrorEINtNtNtB7_3ops9try_trait12FromResidualIBy_NtNtB7_7convert10InfallibleB1l_EE13from_residualBO_, symObjAddr: 0x11B9C, symBinAddr: 0x61D68, symSize: 0x48 }
  - { offset: 0x10BAB2, size: 0x8, addend: 0x0, symName: __RNvXsq_NtCsaNl6UpbT7bw_4core6resultINtB5_6ResultNtNtCsc29TF2YcYso_3syn4expr9ExprRangeNtNtBO_5error5ErrorEINtNtNtB7_3ops9try_trait12FromResidualIBy_NtNtB7_7convert10InfallibleB1l_EE13from_residualBO_, symObjAddr: 0x11C2C, symBinAddr: 0x61DB0, symSize: 0x48 }
  - { offset: 0x10BB37, size: 0x8, addend: 0x0, symName: __RNvXsq_NtCsaNl6UpbT7bw_4core6resultINtB5_6ResultNtNtCsc29TF2YcYso_3syn4expr9ExprUnaryNtNtBO_5error5ErrorEINtNtNtB7_3ops9try_trait12FromResidualIBy_NtNtB7_7convert10InfallibleB1l_EE13from_residualBO_, symObjAddr: 0x11CBC, symBinAddr: 0x61DF8, symSize: 0x48 }
  - { offset: 0x10BBBC, size: 0x8, addend: 0x0, symName: __RNvXsq_NtCsaNl6UpbT7bw_4core6resultINtB5_6ResultNtNtCsc29TF2YcYso_3syn4expr9ExprWhileNtNtBO_5error5ErrorEINtNtNtB7_3ops9try_trait12FromResidualIBy_NtNtB7_7convert10InfallibleB1l_EE13from_residualBO_, symObjAddr: 0x11D04, symBinAddr: 0x61E40, symSize: 0x48 }
  - { offset: 0x10BC41, size: 0x8, addend: 0x0, symName: __RNvXsq_NtCsaNl6UpbT7bw_4core6resultINtB5_6ResultNtNtCsc29TF2YcYso_3syn4expr9ExprYieldNtNtBO_5error5ErrorEINtNtNtB7_3ops9try_trait12FromResidualIBy_NtNtB7_7convert10InfallibleB1l_EE13from_residualBO_, symObjAddr: 0x11D4C, symBinAddr: 0x61E88, symSize: 0x48 }
  - { offset: 0x10BCC6, size: 0x8, addend: 0x0, symName: __RNvXsq_NtCsaNl6UpbT7bw_4core6resultINtB5_6ResultNtNtCsc29TF2YcYso_3syn4item10ItemStructNtNtBO_5error5ErrorEINtNtNtB7_3ops9try_trait12FromResidualIBy_NtNtB7_7convert10InfallibleB1n_EE13from_residualBO_, symObjAddr: 0x11E70, symBinAddr: 0x61ED0, symSize: 0x48 }
  - { offset: 0x10BD4B, size: 0x8, addend: 0x0, symName: __RNvXsq_NtCsaNl6UpbT7bw_4core6resultINtB5_6ResultNtNtCsc29TF2YcYso_3syn4item11ForeignItemNtNtBO_5error5ErrorEINtNtNtB7_3ops9try_trait12FromResidualIBy_NtNtB7_7convert10InfallibleB1o_EE13from_residualBO_, symObjAddr: 0x11EB8, symBinAddr: 0x61F18, symSize: 0x48 }
  - { offset: 0x10BDD0, size: 0x8, addend: 0x0, symName: __RNvXsq_NtCsaNl6UpbT7bw_4core6resultINtB5_6ResultNtNtCsc29TF2YcYso_3syn4item11TraitItemFnNtNtBO_5error5ErrorEINtNtNtB7_3ops9try_trait12FromResidualIBy_NtNtB7_7convert10InfallibleB1o_EE13from_residualBO_, symObjAddr: 0x11F00, symBinAddr: 0x61F60, symSize: 0x48 }
  - { offset: 0x10BE55, size: 0x8, addend: 0x0, symName: __RNvXsq_NtCsaNl6UpbT7bw_4core6resultINtB5_6ResultNtNtCsc29TF2YcYso_3syn4item13ImplItemMacroNtNtBO_5error5ErrorEINtNtNtB7_3ops9try_trait12FromResidualIBy_NtNtB7_7convert10InfallibleB1q_EE13from_residualBO_, symObjAddr: 0x12020, symBinAddr: 0x61FA8, symSize: 0x48 }
  - { offset: 0x10BEDA, size: 0x8, addend: 0x0, symName: __RNvXsq_NtCsaNl6UpbT7bw_4core6resultINtB5_6ResultNtNtCsc29TF2YcYso_3syn4item14ItemForeignModNtNtBO_5error5ErrorEINtNtNtB7_3ops9try_trait12FromResidualIBy_NtNtB7_7convert10InfallibleB1r_EE13from_residualBO_, symObjAddr: 0x120B0, symBinAddr: 0x61FF0, symSize: 0x48 }
  - { offset: 0x10BF5F, size: 0x8, addend: 0x0, symName: __RNvXsq_NtCsaNl6UpbT7bw_4core6resultINtB5_6ResultNtNtCsc29TF2YcYso_3syn4item14ItemTraitAliasNtNtBO_5error5ErrorEINtNtNtB7_3ops9try_trait12FromResidualIBy_NtNtB7_7convert10InfallibleB1r_EE13from_residualBO_, symObjAddr: 0x120F8, symBinAddr: 0x62038, symSize: 0x48 }
  - { offset: 0x10BFE4, size: 0x8, addend: 0x0, symName: __RNvXsq_NtCsaNl6UpbT7bw_4core6resultINtB5_6ResultNtNtCsc29TF2YcYso_3syn4item14TraitItemMacroNtNtBO_5error5ErrorEINtNtNtB7_3ops9try_trait12FromResidualIBy_NtNtB7_7convert10InfallibleB1r_EE13from_residualBO_, symObjAddr: 0x12188, symBinAddr: 0x62080, symSize: 0x48 }
  - { offset: 0x10C069, size: 0x8, addend: 0x0, symName: __RNvXsq_NtCsaNl6UpbT7bw_4core6resultINtB5_6ResultNtNtCsc29TF2YcYso_3syn4item15ItemExternCrateNtNtBO_5error5ErrorEINtNtNtB7_3ops9try_trait12FromResidualIBy_NtNtB7_7convert10InfallibleB1s_EE13from_residualBO_, symObjAddr: 0x12218, symBinAddr: 0x620C8, symSize: 0x48 }
  - { offset: 0x10C0EE, size: 0x8, addend: 0x0, symName: __RNvXsq_NtCsaNl6UpbT7bw_4core6resultINtB5_6ResultNtNtCsc29TF2YcYso_3syn4item16ForeignItemMacroNtNtBO_5error5ErrorEINtNtNtB7_3ops9try_trait12FromResidualIBy_NtNtB7_7convert10InfallibleB1t_EE13from_residualBO_, symObjAddr: 0x12260, symBinAddr: 0x62110, symSize: 0x48 }
