---
triple:          'arm64-apple-darwin'
binary-path:     '/Users/tyler/fall25/cse380/final_project/final_project_sqlite/target/debug/build/thiserror-9eaaaa05596f56be/build_script_build-9eaaaa05596f56be'
relocations:
  - { offset: 0x1E, size: 0x8, addend: 0x0, symName: __RINvMsh_NtNtNtCsiTraAjBDcu4_5alloc11collections5btree4nodeINtB6_7NodeRefNtNtB6_6marker5DyingNtNtNtCsht3nMU9UgFu_3std3ffi6os_str8OsStringINtNtCsaNl6UpbT7bw_4core6option6OptionB1s_ENtB1a_14LeafOrInternalE21deallocate_and_ascendNtNtBc_5alloc6GlobalECsdfPaYVxdQQK_18build_script_build, symObjAddr: 0x0, symBinAddr: 0x100000BF0, symSize: 0x188 }
  - { offset: 0x4C3, size: 0x8, addend: 0x0, symName: __RINvNtCsaNl6UpbT7bw_4core3ptr13drop_in_placeINtNtB4_6option4ItemNtNtNtCsht3nMU9UgFu_3std3ffi6os_str8OsStringEECsdfPaYVxdQQK_18build_script_build, symObjAddr: 0x558, symBinAddr: 0x1000010A0, symSize: 0x24 }
  - { offset: 0x4F2, size: 0x8, addend: 0x0, symName: __RINvNtCsaNl6UpbT7bw_4core3ptr13drop_in_placeINtNtB4_6option6OptionINtBJ_8IntoIterNtNtNtCsht3nMU9UgFu_3std3ffi6os_str8OsStringEEECsdfPaYVxdQQK_18build_script_build, symObjAddr: 0x57C, symBinAddr: 0x1000010C4, symSize: 0x48 }
  - { offset: 0x521, size: 0x8, addend: 0x0, symName: __RINvNtCsaNl6UpbT7bw_4core3ptr13drop_in_placeINtNtB4_6option6OptionINtNtCsiTraAjBDcu4_5alloc5boxed3BoxSmEEECsdfPaYVxdQQK_18build_script_build, symObjAddr: 0x5C4, symBinAddr: 0x10000110C, symSize: 0x44 }
  - { offset: 0x550, size: 0x8, addend: 0x0, symName: __RINvNtCsaNl6UpbT7bw_4core3ptr13drop_in_placeINtNtB4_6option6OptionINtNtNtNtB4_4iter7sources4once4OnceNtNtNtCsht3nMU9UgFu_3std3ffi6os_str8OsStringEEECsdfPaYVxdQQK_18build_script_build, symObjAddr: 0x608, symBinAddr: 0x100001150, symSize: 0x48 }
  - { offset: 0x57F, size: 0x8, addend: 0x0, symName: __RINvNtCsaNl6UpbT7bw_4core3ptr13drop_in_placeINtNtB4_6option6OptionINtNtNtNtB4_4iter8adapters5chain5ChainINtBJ_8IntoIterNtNtNtCsht3nMU9UgFu_3std3ffi6os_str8OsStringEB1E_EEECsdfPaYVxdQQK_18build_script_build, symObjAddr: 0x650, symBinAddr: 0x100001198, symSize: 0x4C }
  - { offset: 0x5AE, size: 0x8, addend: 0x0, symName: __RINvNtCsaNl6UpbT7bw_4core3ptr13drop_in_placeINtNtB4_6option6OptionNtNtNtCsht3nMU9UgFu_3std3ffi6os_str8OsStringEECsdfPaYVxdQQK_18build_script_build, symObjAddr: 0x69C, symBinAddr: 0x1000011E4, symSize: 0x48 }
  - { offset: 0x5DD, size: 0x8, addend: 0x0, symName: __RINvNtCsaNl6UpbT7bw_4core3ptr13drop_in_placeINtNtB4_6option6OptionNtNtNtCsiTraAjBDcu4_5alloc3ffi5c_str7CStringEECsdfPaYVxdQQK_18build_script_build, symObjAddr: 0x6E4, symBinAddr: 0x10000122C, symSize: 0x44 }
  - { offset: 0x60C, size: 0x8, addend: 0x0, symName: __RINvNtCsaNl6UpbT7bw_4core3ptr13drop_in_placeINtNtB4_6option6OptionNtNtNtNtNtCsht3nMU9UgFu_3std3sys7process4unix6common5StdioEECsdfPaYVxdQQK_18build_script_build, symObjAddr: 0x728, symBinAddr: 0x100001270, symSize: 0x44 }
  - { offset: 0x63B, size: 0x8, addend: 0x0, symName: __RINvNtCsaNl6UpbT7bw_4core3ptr13drop_in_placeINtNtB4_6option8IntoIterNtNtNtCsht3nMU9UgFu_3std3ffi6os_str8OsStringEECsdfPaYVxdQQK_18build_script_build, symObjAddr: 0x76C, symBinAddr: 0x1000012B4, symSize: 0x24 }
  - { offset: 0x66A, size: 0x8, addend: 0x0, symName: __RINvNtCsaNl6UpbT7bw_4core3ptr13drop_in_placeINtNtB4_6result6ResultNtNtCsht3nMU9UgFu_3std7process10ExitStatusNtNtNtB16_2io5error5ErrorEECsdfPaYVxdQQK_18build_script_build, symObjAddr: 0x790, symBinAddr: 0x1000012D8, symSize: 0x40 }
  - { offset: 0x699, size: 0x8, addend: 0x0, symName: __RINvNtCsaNl6UpbT7bw_4core3ptr13drop_in_placeINtNtB4_6result6ResultNtNtCsiTraAjBDcu4_5alloc6string6StringNtNtCsht3nMU9UgFu_3std3env8VarErrorEECsdfPaYVxdQQK_18build_script_build, symObjAddr: 0x7D0, symBinAddr: 0x100001318, symSize: 0x50 }
  - { offset: 0x6C8, size: 0x8, addend: 0x0, symName: __RINvNtCsaNl6UpbT7bw_4core3ptr13drop_in_placeINtNtB4_6result6ResultuNtNtNtCsht3nMU9UgFu_3std2io5error5ErrorEECsdfPaYVxdQQK_18build_script_build, symObjAddr: 0x820, symBinAddr: 0x100001368, symSize: 0x44 }
  - { offset: 0x6F7, size: 0x8, addend: 0x0, symName: __RINvNtCsaNl6UpbT7bw_4core3ptr13drop_in_placeINtNtCsiTraAjBDcu4_5alloc3vec3VecINtNtBL_5boxed3BoxDINtNtNtB4_3ops8function5FnMutuEp6OutputINtNtB4_6result6ResultuNtNtNtCsht3nMU9UgFu_3std2io5error5ErrorENtNtB4_6marker4SyncNtB3c_4SendEL_EEECsdfPaYVxdQQK_18build_script_build, symObjAddr: 0x864, symBinAddr: 0x1000013AC, symSize: 0x5C }
  - { offset: 0x726, size: 0x8, addend: 0x0, symName: __RINvNtCsaNl6UpbT7bw_4core3ptr13drop_in_placeINtNtCsiTraAjBDcu4_5alloc3vec3VecPaEECsdfPaYVxdQQK_18build_script_build, symObjAddr: 0x8C0, symBinAddr: 0x100001408, symSize: 0x5C }
  - { offset: 0x755, size: 0x8, addend: 0x0, symName: __RINvNtCsaNl6UpbT7bw_4core3ptr13drop_in_placeINtNtCsiTraAjBDcu4_5alloc3vec3VechEECsdfPaYVxdQQK_18build_script_build, symObjAddr: 0x91C, symBinAddr: 0x100001464, symSize: 0x5C }
  - { offset: 0x784, size: 0x8, addend: 0x0, symName: __RINvNtCsaNl6UpbT7bw_4core3ptr13drop_in_placeINtNtCsiTraAjBDcu4_5alloc5boxed3BoxDINtNtNtB4_3ops8function5FnMutuEp6OutputINtNtB4_6result6ResultuNtNtNtCsht3nMU9UgFu_3std2io5error5ErrorENtNtB4_6marker4SyncNtB2W_4SendEL_EECsdfPaYVxdQQK_18build_script_build, symObjAddr: 0x978, symBinAddr: 0x1000014C0, symSize: 0x80 }
  - { offset: 0x7B3, size: 0x8, addend: 0x0, symName: __RINvNtCsaNl6UpbT7bw_4core3ptr13drop_in_placeINtNtCsiTraAjBDcu4_5alloc5boxed3BoxDNtNtB4_5error5ErrorNtNtB4_6marker4SyncNtB1B_4SendEL_EECsdfPaYVxdQQK_18build_script_build, symObjAddr: 0x9F8, symBinAddr: 0x100001540, symSize: 0x80 }
  - { offset: 0x7E2, size: 0x8, addend: 0x0, symName: __RINvNtCsaNl6UpbT7bw_4core3ptr13drop_in_placeINtNtCsiTraAjBDcu4_5alloc5boxed3BoxNtNtNtCsht3nMU9UgFu_3std2io5error6CustomEECsdfPaYVxdQQK_18build_script_build, symObjAddr: 0xA78, symBinAddr: 0x1000015C0, symSize: 0x60 }
  - { offset: 0x811, size: 0x8, addend: 0x0, symName: __RINvNtCsaNl6UpbT7bw_4core3ptr13drop_in_placeINtNtCsiTraAjBDcu4_5alloc5boxed3BoxShEECsdfPaYVxdQQK_18build_script_build, symObjAddr: 0xAD8, symBinAddr: 0x100001620, symSize: 0x2C }
  - { offset: 0x840, size: 0x8, addend: 0x0, symName: __RINvNtCsaNl6UpbT7bw_4core3ptr13drop_in_placeINtNtCsiTraAjBDcu4_5alloc5boxed3BoxSmEECsdfPaYVxdQQK_18build_script_build, symObjAddr: 0xB04, symBinAddr: 0x10000164C, symSize: 0x2C }
  - { offset: 0x86F, size: 0x8, addend: 0x0, symName: __RINvNtCsaNl6UpbT7bw_4core3ptr13drop_in_placeINtNtCsiTraAjBDcu4_5alloc7raw_vec6RawVecINtNtBL_5boxed3BoxDINtNtNtB4_3ops8function5FnMutuEp6OutputINtNtB4_6result6ResultuNtNtNtCsht3nMU9UgFu_3std2io5error5ErrorENtNtB4_6marker4SyncNtB3j_4SendEL_EEECsdfPaYVxdQQK_18build_script_build, symObjAddr: 0xB30, symBinAddr: 0x100001678, symSize: 0x24 }
  - { offset: 0x89E, size: 0x8, addend: 0x0, symName: __RINvNtCsaNl6UpbT7bw_4core3ptr13drop_in_placeINtNtCsiTraAjBDcu4_5alloc7raw_vec6RawVecPaEECsdfPaYVxdQQK_18build_script_build, symObjAddr: 0xB54, symBinAddr: 0x10000169C, symSize: 0x24 }
  - { offset: 0x8CD, size: 0x8, addend: 0x0, symName: __RINvNtCsaNl6UpbT7bw_4core3ptr13drop_in_placeINtNtCsiTraAjBDcu4_5alloc7raw_vec6RawVechEECsdfPaYVxdQQK_18build_script_build, symObjAddr: 0xB78, symBinAddr: 0x1000016C0, symSize: 0x24 }
  - { offset: 0x8FC, size: 0x8, addend: 0x0, symName: __RINvNtCsaNl6UpbT7bw_4core3ptr13drop_in_placeINtNtNtCsht3nMU9UgFu_3std2io5error9ErrorDataINtNtCsiTraAjBDcu4_5alloc5boxed3BoxNtBJ_6CustomEEECsdfPaYVxdQQK_18build_script_build, symObjAddr: 0xB9C, symBinAddr: 0x1000016E4, symSize: 0x48 }
  - { offset: 0x92B, size: 0x8, addend: 0x0, symName: __RINvNtCsaNl6UpbT7bw_4core3ptr13drop_in_placeINtNtNtNtB4_4iter7sources4once4OnceNtNtNtCsht3nMU9UgFu_3std3ffi6os_str8OsStringEECsdfPaYVxdQQK_18build_script_build, symObjAddr: 0xBE4, symBinAddr: 0x10000172C, symSize: 0x24 }
  - { offset: 0x95A, size: 0x8, addend: 0x0, symName: __RINvNtCsaNl6UpbT7bw_4core3ptr13drop_in_placeINtNtNtNtB4_4iter8adapters5chain5ChainIBH_INtNtB4_6option8IntoIterNtNtNtCsht3nMU9UgFu_3std3ffi6os_str8OsStringEB1m_EINtNtNtBN_7sources4once4OnceB1K_EEECsdfPaYVxdQQK_18build_script_build, symObjAddr: 0xC08, symBinAddr: 0x100001750, symSize: 0x5C }
  - { offset: 0x989, size: 0x8, addend: 0x0, symName: __RINvNtCsaNl6UpbT7bw_4core3ptr13drop_in_placeINtNtNtNtB4_4iter8adapters5chain5ChainINtNtB4_6option8IntoIterNtNtNtCsht3nMU9UgFu_3std3ffi6os_str8OsStringEB1i_EECsdfPaYVxdQQK_18build_script_build, symObjAddr: 0xC64, symBinAddr: 0x1000017AC, symSize: 0x60 }
  - { offset: 0x9B8, size: 0x8, addend: 0x0, symName: __RINvNtCsaNl6UpbT7bw_4core3ptr13drop_in_placeINtNtNtNtCsiTraAjBDcu4_5alloc11collections5btree3map8BTreeMapNtNtNtCsht3nMU9UgFu_3std3ffi6os_str8OsStringINtNtB4_6option6OptionB1F_EEECsdfPaYVxdQQK_18build_script_build, symObjAddr: 0xCC4, symBinAddr: 0x10000180C, symSize: 0x24 }
  - { offset: 0x9E7, size: 0x8, addend: 0x0, symName: __RINvNtCsaNl6UpbT7bw_4core3ptr13drop_in_placeINtNtNtNtCsiTraAjBDcu4_5alloc11collections5btree3map8IntoIterNtNtNtCsht3nMU9UgFu_3std3ffi6os_str8OsStringINtNtB4_6option6OptionB1F_EEECsdfPaYVxdQQK_18build_script_build, symObjAddr: 0xCE8, symBinAddr: 0x100001830, symSize: 0x24 }
  - { offset: 0xA16, size: 0x8, addend: 0x0, symName: __RINvNtCsaNl6UpbT7bw_4core3ptr13drop_in_placeINtNvMsT_NtNtNtCsiTraAjBDcu4_5alloc11collections5btree4nodeINtBP_6HandleINtBP_7NodeRefNtNtBP_6marker5DyingpppENtB26_2KVE12drop_key_val7DropperINtNtB4_6option6OptionNtNtNtCsht3nMU9UgFu_3std3ffi6os_str8OsStringEEECsdfPaYVxdQQK_18build_script_build, symObjAddr: 0xD0C, symBinAddr: 0x100001854, symSize: 0x24 }
  - { offset: 0xA45, size: 0x8, addend: 0x0, symName: __RINvNtCsaNl6UpbT7bw_4core3ptr13drop_in_placeINtNvNtCsht3nMU9UgFu_3std2io17default_write_fmt7AdapterNtNtNtNtBN_3sys5stdio4unix6StderrEECsdfPaYVxdQQK_18build_script_build, symObjAddr: 0xD30, symBinAddr: 0x100001878, symSize: 0x24 }
  - { offset: 0xA74, size: 0x8, addend: 0x0, symName: __RINvNtCsaNl6UpbT7bw_4core3ptr13drop_in_placeINtNvXsw_NtNtNtCsiTraAjBDcu4_5alloc11collections5btree3mapINtBP_8IntoIterpppENtNtNtB4_3ops4drop4Drop4drop9DropGuardNtNtNtCsht3nMU9UgFu_3std3ffi6os_str8OsStringINtNtB4_6option6OptionB2x_ENtNtBV_5alloc6GlobalEECsdfPaYVxdQQK_18build_script_build, symObjAddr: 0xD54, symBinAddr: 0x10000189C, symSize: 0x24 }
  - { offset: 0xAA3, size: 0x8, addend: 0x0, symName: __RINvNtCsaNl6UpbT7bw_4core3ptr13drop_in_placeNtNtCsht3nMU9UgFu_3std3env8VarErrorECsdfPaYVxdQQK_18build_script_build, symObjAddr: 0xD78, symBinAddr: 0x1000018C0, symSize: 0x48 }
  - { offset: 0xAD2, size: 0x8, addend: 0x0, symName: __RINvNtCsaNl6UpbT7bw_4core3ptr13drop_in_placeNtNtCsht3nMU9UgFu_3std4path7PathBufECsdfPaYVxdQQK_18build_script_build, symObjAddr: 0xDC0, symBinAddr: 0x100001908, symSize: 0x24 }
  - { offset: 0xB01, size: 0x8, addend: 0x0, symName: __RINvNtCsaNl6UpbT7bw_4core3ptr13drop_in_placeNtNtCsht3nMU9UgFu_3std7process7CommandECsdfPaYVxdQQK_18build_script_build, symObjAddr: 0xDE4, symBinAddr: 0x10000192C, symSize: 0x24 }
  - { offset: 0xB30, size: 0x8, addend: 0x0, symName: __RINvNtCsaNl6UpbT7bw_4core3ptr13drop_in_placeNtNtCsiTraAjBDcu4_5alloc6string6StringECsdfPaYVxdQQK_18build_script_build, symObjAddr: 0xE08, symBinAddr: 0x100001950, symSize: 0x24 }
  - { offset: 0xB5F, size: 0x8, addend: 0x0, symName: __RINvNtCsaNl6UpbT7bw_4core3ptr13drop_in_placeNtNtNtCsht3nMU9UgFu_3std2io5error5ErrorECsdfPaYVxdQQK_18build_script_build, symObjAddr: 0xE2C, symBinAddr: 0x100001974, symSize: 0x24 }
  - { offset: 0xB8E, size: 0x8, addend: 0x0, symName: __RINvNtCsaNl6UpbT7bw_4core3ptr13drop_in_placeNtNtNtCsht3nMU9UgFu_3std2io5error6CustomECsdfPaYVxdQQK_18build_script_build, symObjAddr: 0xE50, symBinAddr: 0x100001998, symSize: 0x24 }
  - { offset: 0xBBD, size: 0x8, addend: 0x0, symName: __RINvNtCsaNl6UpbT7bw_4core3ptr13drop_in_placeNtNtNtCsht3nMU9UgFu_3std3ffi6os_str8OsStringECsdfPaYVxdQQK_18build_script_build, symObjAddr: 0xE74, symBinAddr: 0x1000019BC, symSize: 0x24 }
  - { offset: 0xBEC, size: 0x8, addend: 0x0, symName: __RINvNtCsaNl6UpbT7bw_4core3ptr13drop_in_placeNtNtNtCsiTraAjBDcu4_5alloc3ffi5c_str7CStringECsdfPaYVxdQQK_18build_script_build, symObjAddr: 0xE98, symBinAddr: 0x1000019E0, symSize: 0x5C }
  - { offset: 0xC1B, size: 0x8, addend: 0x0, symName: __RINvNtCsaNl6UpbT7bw_4core3ptr13drop_in_placeNtNtNtNtCsht3nMU9UgFu_3std2io5error14repr_bitpacked4ReprECsdfPaYVxdQQK_18build_script_build, symObjAddr: 0xEF4, symBinAddr: 0x100001A3C, symSize: 0x24 }
  - { offset: 0xC4A, size: 0x8, addend: 0x0, symName: __RINvNtCsaNl6UpbT7bw_4core3ptr13drop_in_placeNtNtNtNtCsht3nMU9UgFu_3std2os2fd5owned7OwnedFdECsdfPaYVxdQQK_18build_script_build, symObjAddr: 0xF18, symBinAddr: 0x100001A60, symSize: 0x24 }
  - { offset: 0xC79, size: 0x8, addend: 0x0, symName: __RINvNtCsaNl6UpbT7bw_4core3ptr13drop_in_placeNtNtNtNtCsht3nMU9UgFu_3std3sys2fd4unix8FileDescECsdfPaYVxdQQK_18build_script_build, symObjAddr: 0xF3C, symBinAddr: 0x100001A84, symSize: 0x24 }
  - { offset: 0xCA8, size: 0x8, addend: 0x0, symName: __RINvNtCsaNl6UpbT7bw_4core3ptr13drop_in_placeNtNtNtNtCsht3nMU9UgFu_3std3sys6os_str5bytes3BufECsdfPaYVxdQQK_18build_script_build, symObjAddr: 0xF60, symBinAddr: 0x100001AA8, symSize: 0x24 }
  - { offset: 0xCD7, size: 0x8, addend: 0x0, symName: __RINvNtCsaNl6UpbT7bw_4core3ptr13drop_in_placeNtNtNtNtCsht3nMU9UgFu_3std3sys7process3env10CommandEnvECsdfPaYVxdQQK_18build_script_build, symObjAddr: 0xF84, symBinAddr: 0x100001ACC, symSize: 0x24 }
  - { offset: 0xD06, size: 0x8, addend: 0x0, symName: __RINvNtCsaNl6UpbT7bw_4core3ptr13drop_in_placeNtNtNtNtNtCsht3nMU9UgFu_3std3sys7process4unix6common5StdioECsdfPaYVxdQQK_18build_script_build, symObjAddr: 0xFA8, symBinAddr: 0x100001AF0, symSize: 0x44 }
  - { offset: 0xD35, size: 0x8, addend: 0x0, symName: __RINvNtCsaNl6UpbT7bw_4core3ptr13drop_in_placeNtNtNtNtNtCsht3nMU9UgFu_3std3sys7process4unix6common7CommandECsdfPaYVxdQQK_18build_script_build, symObjAddr: 0xFEC, symBinAddr: 0x100001B34, symSize: 0x1DC }
  - { offset: 0xD64, size: 0x8, addend: 0x0, symName: __RINvNtCsaNl6UpbT7bw_4core3ptr13drop_in_placeNtNtNtNtNtNtCsht3nMU9UgFu_3std3sys7process4unix6common13cstring_array12CStringArrayECsdfPaYVxdQQK_18build_script_build, symObjAddr: 0x11C8, symBinAddr: 0x100001D10, symSize: 0x5C }
  - { offset: 0xD93, size: 0x8, addend: 0x0, symName: __RINvNtCsaNl6UpbT7bw_4core3ptr13drop_in_placeNtNvNtNtNtCsiTraAjBDcu4_5alloc11collections5btree3mem7replace10PanicGuardECsdfPaYVxdQQK_18build_script_build, symObjAddr: 0x1224, symBinAddr: 0x100001D6C, symSize: 0x24 }
  - { offset: 0xDC2, size: 0x8, addend: 0x0, symName: __RINvNtCsaNl6UpbT7bw_4core3ptr13drop_in_placeSINtNtCsiTraAjBDcu4_5alloc5boxed3BoxDINtNtNtB4_3ops8function5FnMutuEp6OutputINtNtB4_6result6ResultuNtNtNtCsht3nMU9UgFu_3std2io5error5ErrorENtNtB4_6marker4SyncNtB2X_4SendEL_EECsdfPaYVxdQQK_18build_script_build, symObjAddr: 0x1248, symBinAddr: 0x100001D90, symSize: 0xB4 }
  - { offset: 0x2844, size: 0x8, addend: 0x0, symName: __RNvNvMNtNtCsaNl6UpbT7bw_4core5alloc6layoutNtB4_6Layout25from_size_align_unchecked18precondition_checkCsdfPaYVxdQQK_18build_script_build, symObjAddr: 0x3128, symBinAddr: 0x100003C70, symSize: 0xBC }
  - { offset: 0x293A, size: 0x8, addend: 0x0, symName: __RINvNtNtNtCsaNl6UpbT7bw_4core4iter7sources4once4onceNtNtNtCsht3nMU9UgFu_3std3ffi6os_str8OsStringECsdfPaYVxdQQK_18build_script_build, symObjAddr: 0x13F0, symBinAddr: 0x100001F38, symSize: 0x50 }
  - { offset: 0x29A6, size: 0x8, addend: 0x0, symName: __RNvXNtNtNtCsaNl6UpbT7bw_4core4iter7sources4onceINtB2_4OnceNtNtNtCsht3nMU9UgFu_3std3ffi6os_str8OsStringENtNtNtB6_6traits8iterator8Iterator4nextCsdfPaYVxdQQK_18build_script_build, symObjAddr: 0x3388, symBinAddr: 0x100003ED0, symSize: 0x40 }
  - { offset: 0x2A71, size: 0x8, addend: 0x0, symName: __RINvNtNtNtCsaNl6UpbT7bw_4core4iter8adapters5chain17and_then_or_clearINtB2_5ChainINtNtB8_6option8IntoIterNtNtNtCsht3nMU9UgFu_3std3ffi6os_str8OsStringEB1g_EB1E_NvYB14_NtNtNtB6_6traits8iterator8Iterator4nextECsdfPaYVxdQQK_18build_script_build, symObjAddr: 0x1440, symBinAddr: 0x100001F88, symSize: 0x134 }
  - { offset: 0x2BAF, size: 0x8, addend: 0x0, symName: __RINvNtNtNtCsaNl6UpbT7bw_4core4iter8adapters5chain17and_then_or_clearINtNtB8_6option8IntoIterNtNtNtCsht3nMU9UgFu_3std3ffi6os_str8OsStringEB1s_NvYB14_NtNtNtB6_6traits8iterator8Iterator4nextECsdfPaYVxdQQK_18build_script_build, symObjAddr: 0x1574, symBinAddr: 0x1000020BC, symSize: 0x12C }
  - { offset: 0x2D57, size: 0x8, addend: 0x0, symName: __RNCNvXs_NtNtNtCsaNl6UpbT7bw_4core4iter8adapters5chainINtB6_5ChainIBQ_INtNtBc_6option8IntoIterNtNtNtCsht3nMU9UgFu_3std3ffi6os_str8OsStringEB15_EINtNtNtBa_7sources4once4OnceB1t_EENtNtNtBa_6traits8iterator8Iterator4next0CsdfPaYVxdQQK_18build_script_build, symObjAddr: 0x1B70, symBinAddr: 0x1000026B8, symSize: 0x8C }
  - { offset: 0x2E27, size: 0x8, addend: 0x0, symName: __RNCNvXs_NtNtNtCsaNl6UpbT7bw_4core4iter8adapters5chainINtB6_5ChainINtNtBc_6option8IntoIterNtNtNtCsht3nMU9UgFu_3std3ffi6os_str8OsStringEB11_ENtNtNtBa_6traits8iterator8Iterator4next0CsdfPaYVxdQQK_18build_script_build, symObjAddr: 0x1BFC, symBinAddr: 0x100002744, symSize: 0x8C }
  - { offset: 0x2EF8, size: 0x8, addend: 0x0, symName: __RNvXs_NtNtNtCsaNl6UpbT7bw_4core4iter8adapters5chainINtB4_5ChainIBO_INtNtBa_6option8IntoIterNtNtNtCsht3nMU9UgFu_3std3ffi6os_str8OsStringEB13_EINtNtNtB8_7sources4once4OnceB1r_EENtNtNtB8_6traits8iterator8Iterator4nextCsdfPaYVxdQQK_18build_script_build, symObjAddr: 0x3904, symBinAddr: 0x10000444C, symSize: 0x44 }
  - { offset: 0x2F36, size: 0x8, addend: 0x0, symName: __RNvXs_NtNtNtCsaNl6UpbT7bw_4core4iter8adapters5chainINtB4_5ChainINtNtBa_6option8IntoIterNtNtNtCsht3nMU9UgFu_3std3ffi6os_str8OsStringEBZ_ENtNtNtB8_6traits8iterator8Iterator4nextCsdfPaYVxdQQK_18build_script_build, symObjAddr: 0x3948, symBinAddr: 0x100004490, symSize: 0x44 }
  - { offset: 0x2F86, size: 0x8, addend: 0x0, symName: __RINvYINtNtNtNtCsaNl6UpbT7bw_4core4iter8adapters5chain5ChainINtNtBc_6option8IntoIterNtNtNtCsht3nMU9UgFu_3std3ffi6os_str8OsStringEBV_ENtNtNtBa_6traits8iterator8Iterator5chainINtNtNtBa_7sources4once4OnceB1j_EECsdfPaYVxdQQK_18build_script_build, symObjAddr: 0x1A58, symBinAddr: 0x1000025A0, symSize: 0xC8 }
  - { offset: 0x300A, size: 0x8, addend: 0x0, symName: __RNvXNtNtNtCsaNl6UpbT7bw_4core4iter6traits7collectINtNtNtB6_7sources4once4OnceNtNtNtCsht3nMU9UgFu_3std3ffi6os_str8OsStringENtB2_12IntoIterator9into_iterCsdfPaYVxdQQK_18build_script_build, symObjAddr: 0x3310, symBinAddr: 0x100003E58, symSize: 0x18 }
  - { offset: 0x3041, size: 0x8, addend: 0x0, symName: __RNvXNtNtNtCsaNl6UpbT7bw_4core4iter6traits7collectINtNtNtB6_8adapters5chain5ChainIBM_INtNtB8_6option8IntoIterNtNtNtCsht3nMU9UgFu_3std3ffi6os_str8OsStringEB1k_EINtNtNtB6_7sources4once4OnceB1I_EENtB2_12IntoIterator9into_iterCsdfPaYVxdQQK_18build_script_build, symObjAddr: 0x3328, symBinAddr: 0x100003E70, symSize: 0x30 }
  - { offset: 0x3079, size: 0x8, addend: 0x0, symName: __RNvXNtNtNtCsaNl6UpbT7bw_4core4iter6traits7collectINtNtNtB8_3str4iter5SplitcENtB2_12IntoIterator9into_iterCsdfPaYVxdQQK_18build_script_build, symObjAddr: 0x3358, symBinAddr: 0x100003EA0, symSize: 0x30 }
  - { offset: 0x32C6, size: 0x8, addend: 0x0, symName: __RNSNvYNCINvNtCsht3nMU9UgFu_3std2rt10lang_startuE0INtNtNtCsaNl6UpbT7bw_4core3ops8function6FnOnceuE9call_once6vtableCsdfPaYVxdQQK_18build_script_build, symObjAddr: 0x1C88, symBinAddr: 0x1000027D0, symSize: 0x28 }
  - { offset: 0x330A, size: 0x8, addend: 0x0, symName: __RNvYFEuINtNtNtCsaNl6UpbT7bw_4core3ops8function6FnOnceuE9call_onceCsdfPaYVxdQQK_18build_script_build, symObjAddr: 0x398C, symBinAddr: 0x1000044D4, symSize: 0x20 }
  - { offset: 0x334A, size: 0x8, addend: 0x0, symName: __RNvYNCINvNtCsht3nMU9UgFu_3std2rt10lang_startuE0INtNtNtCsaNl6UpbT7bw_4core3ops8function6FnOnceuE9call_onceCsdfPaYVxdQQK_18build_script_build, symObjAddr: 0x39AC, symBinAddr: 0x1000044F4, symSize: 0x4C }
  - { offset: 0x338E, size: 0x8, addend: 0x0, symName: __RNvYNvYINtNtCsaNl6UpbT7bw_4core6option8IntoIterNtNtNtCsht3nMU9UgFu_3std3ffi6os_str8OsStringENtNtNtNtBa_4iter6traits8iterator8Iterator4nextINtNtNtBa_3ops8function6FnOnceTQB5_EE9call_onceCsdfPaYVxdQQK_18build_script_build, symObjAddr: 0x39F8, symBinAddr: 0x100004540, symSize: 0x24 }
  - { offset: 0x33D2, size: 0x8, addend: 0x0, symName: __RNvYNvYINtNtNtNtCsaNl6UpbT7bw_4core4iter8adapters5chain5ChainINtNtBe_6option8IntoIterNtNtNtCsht3nMU9UgFu_3std3ffi6os_str8OsStringEBX_ENtNtNtBc_6traits8iterator8Iterator4nextINtNtNtBe_3ops8function6FnOnceTQB5_EE9call_onceCsdfPaYVxdQQK_18build_script_build, symObjAddr: 0x3A1C, symBinAddr: 0x100004564, symSize: 0x24 }
  - { offset: 0x345D, size: 0x8, addend: 0x0, symName: __RNvXNtCsaNl6UpbT7bw_4core7convertReINtB2_5AsRefNtNtCsht3nMU9UgFu_3std4path4PathE6as_refCsdfPaYVxdQQK_18build_script_build, symObjAddr: 0x32B0, symBinAddr: 0x100003DF8, symSize: 0x30 }
  - { offset: 0x349D, size: 0x8, addend: 0x0, symName: __RNvXNtCsaNl6UpbT7bw_4core7convertReINtB2_5AsRefNtNtNtCsht3nMU9UgFu_3std3ffi6os_str5OsStrE6as_refCsdfPaYVxdQQK_18build_script_build, symObjAddr: 0x32E0, symBinAddr: 0x100003E28, symSize: 0x30 }
  - { offset: 0x3B82, size: 0x8, addend: 0x0, symName: __RNvNvXs5_NtNtCsaNl6UpbT7bw_4core3str6traitsINtNtNtBb_3ops5range5RangejEINtNtNtBb_5slice5index10SliceIndexeE13get_unchecked18precondition_checkCsdfPaYVxdQQK_18build_script_build, symObjAddr: 0x31E4, symBinAddr: 0x100003D2C, symSize: 0xCC }
  - { offset: 0x3D39, size: 0x8, addend: 0x0, symName: __RNvXsX_NtNtCsaNl6UpbT7bw_4core3str4iterINtB5_5SplitcENtNtNtNtB9_4iter6traits8iterator8Iterator4nextCsdfPaYVxdQQK_18build_script_build, symObjAddr: 0x3540, symBinAddr: 0x100004088, symSize: 0x24 }
  - { offset: 0x3E01, size: 0x8, addend: 0x0, symName: __RNvXs2_NtNtCsaNl6UpbT7bw_4core3str7patterncNtB5_7Pattern13into_searcherCsdfPaYVxdQQK_18build_script_build, symObjAddr: 0x342C, symBinAddr: 0x100003F74, symSize: 0x114 }
  - { offset: 0x3F1F, size: 0x8, addend: 0x0, symName: __RNvXs_NtNtCsaNl6UpbT7bw_4core3str7patternNtB4_12CharSearcherNtB4_8Searcher10next_matchCsdfPaYVxdQQK_18build_script_build, symObjAddr: 0x3564, symBinAddr: 0x1000040AC, symSize: 0x380 }
  - { offset: 0x4383, size: 0x8, addend: 0x0, symName: __RNvXs_NtNtCsaNl6UpbT7bw_4core3str7patternNtB4_12CharSearcherNtB4_8Searcher8haystackCsdfPaYVxdQQK_18build_script_build, symObjAddr: 0x38E4, symBinAddr: 0x10000442C, symSize: 0x20 }
  - { offset: 0x4432, size: 0x8, addend: 0x0, symName: __RNvNtNtCsaNl6UpbT7bw_4core4char7methods15encode_utf8_rawCsdfPaYVxdQQK_18build_script_build, symObjAddr: 0x245C, symBinAddr: 0x100002FA4, symSize: 0x110 }
  - { offset: 0x4532, size: 0x8, addend: 0x0, symName: __RNvNtNtCsaNl6UpbT7bw_4core4char7methods25encode_utf8_raw_uncheckedCsdfPaYVxdQQK_18build_script_build, symObjAddr: 0x256C, symBinAddr: 0x1000030B4, symSize: 0x14C }
  - { offset: 0x496A, size: 0x8, addend: 0x0, symName: __RNCNvXs1_NtNtNtCsht3nMU9UgFu_3std2io5error14repr_bitpackedNtB7_4ReprNtNtNtCsaNl6UpbT7bw_4core3ops4drop4Drop4drop0CsdfPaYVxdQQK_18build_script_build, symObjAddr: 0x1B34, symBinAddr: 0x10000267C, symSize: 0x3C }
  - { offset: 0x4A1F, size: 0x8, addend: 0x0, symName: __RNvXs1_NtNtNtCsht3nMU9UgFu_3std2io5error14repr_bitpackedNtB5_4ReprNtNtNtCsaNl6UpbT7bw_4core3ops4drop4Drop4dropCsdfPaYVxdQQK_18build_script_build, symObjAddr: 0x33F4, symBinAddr: 0x100003F3C, symSize: 0x38 }
  - { offset: 0x4A48, size: 0x8, addend: 0x0, symName: __RINvNtNtNtCsht3nMU9UgFu_3std2io5error14repr_bitpacked11decode_reprINtNtCsiTraAjBDcu4_5alloc5boxed3BoxNtB4_6CustomENCNvXs1_B2_NtB2_4ReprNtNtNtCsaNl6UpbT7bw_4core3ops4drop4Drop4drop0ECsdfPaYVxdQQK_18build_script_build, symObjAddr: 0x16A0, symBinAddr: 0x1000021E8, symSize: 0x1DC }
  - { offset: 0x4CB5, size: 0x8, addend: 0x0, symName: __RNCNvMs0_NtNtNtCsht3nMU9UgFu_3std2io5error14repr_bitpackedNtB7_4Repr4data0CsdfPaYVxdQQK_18build_script_build, symObjAddr: 0x1B20, symBinAddr: 0x100002668, symSize: 0x14 }
  - { offset: 0x4CED, size: 0x8, addend: 0x0, symName: __RINvNtNtNtCsht3nMU9UgFu_3std2io5error14repr_bitpacked11decode_reprRNtB4_6CustomNCNvMs0_B2_NtB2_4Repr4data0ECsdfPaYVxdQQK_18build_script_build, symObjAddr: 0x187C, symBinAddr: 0x1000023C4, symSize: 0x1DC }
  - { offset: 0x4F49, size: 0x8, addend: 0x0, symName: __RNvNtNtNtCsht3nMU9UgFu_3std2io5error14repr_bitpacked14kind_from_primCsdfPaYVxdQQK_18build_script_build, symObjAddr: 0x26B8, symBinAddr: 0x100003200, symSize: 0x758 }
  - { offset: 0x5B7A, size: 0x8, addend: 0x0, symName: __RINvNtNtCsht3nMU9UgFu_3std3sys9backtrace28___rust_begin_short_backtraceFEuuECsdfPaYVxdQQK_18build_script_build, symObjAddr: 0x13CC, symBinAddr: 0x100001F14, symSize: 0x24 }
  - { offset: 0x5C0F, size: 0x8, addend: 0x0, symName: __RNvNtNtNtCsht3nMU9UgFu_3std3sys3pal4unix17decode_error_kindCsdfPaYVxdQQK_18build_script_build, symObjAddr: 0x2EDC, symBinAddr: 0x100003A24, symSize: 0x24C }
  - { offset: 0x5C75, size: 0x8, addend: 0x0, symName: __RNvNtNtNtCsht3nMU9UgFu_3std3sys2fs4unix23debug_assert_fd_is_openCsdfPaYVxdQQK_18build_script_build, symObjAddr: 0x2E10, symBinAddr: 0x100003958, symSize: 0xCC }
  - { offset: 0x5D6E, size: 0x8, addend: 0x0, symName: __RINvNtCsht3nMU9UgFu_3std3env3varReECsdfPaYVxdQQK_18build_script_build, symObjAddr: 0x12FC, symBinAddr: 0x100001E44, symSize: 0x68 }
  - { offset: 0x5DA3, size: 0x8, addend: 0x0, symName: __RINvNtCsht3nMU9UgFu_3std3env6var_osReECsdfPaYVxdQQK_18build_script_build, symObjAddr: 0x1364, symBinAddr: 0x100001EAC, symSize: 0x68 }
  - { offset: 0x695F, size: 0x8, addend: 0x0, symName: __RNvXNvMsT_NtNtNtCsiTraAjBDcu4_5alloc11collections5btree4nodeINtB8_6HandleINtB8_7NodeRefNtNtB8_6marker5DyingpppENtB1p_2KVE12drop_key_valINtB2_7DropperINtNtCsaNl6UpbT7bw_4core6option6OptionNtNtNtCsht3nMU9UgFu_3std3ffi6os_str8OsStringEENtNtNtB2s_3ops4drop4Drop4dropCsdfPaYVxdQQK_18build_script_build, symObjAddr: 0x33C8, symBinAddr: 0x100003F10, symSize: 0x2C }
  - { offset: 0x6FC3, size: 0x8, addend: 0x0, symName: __RINvMsh_NtNtNtCsiTraAjBDcu4_5alloc11collections5btree4nodeINtB6_7NodeRefNtNtB6_6marker5DyingNtNtNtCsht3nMU9UgFu_3std3ffi6os_str8OsStringINtNtCsaNl6UpbT7bw_4core6option6OptionB1s_ENtB1a_14LeafOrInternalE21deallocate_and_ascendNtNtBc_5alloc6GlobalECsdfPaYVxdQQK_18build_script_build, symObjAddr: 0x0, symBinAddr: 0x100000BF0, symSize: 0x188 }
  - { offset: 0x7209, size: 0x8, addend: 0x0, symName: __RINvMsj_NtNtNtCsiTraAjBDcu4_5alloc11collections5btree8navigateINtNtB8_4node6HandleINtB11_7NodeRefNtNtB11_6marker5DyingNtNtNtCsht3nMU9UgFu_3std3ffi6os_str8OsStringINtNtCsaNl6UpbT7bw_4core6option6OptionB1S_ENtB1z_4LeafENtB1z_4EdgeE16deallocating_endNtNtBc_5alloc6GlobalECsdfPaYVxdQQK_18build_script_build, symObjAddr: 0x188, symBinAddr: 0x100000D78, symSize: 0xD4 }
  - { offset: 0x748A, size: 0x8, addend: 0x0, symName: __RINvMsj_NtNtNtCsiTraAjBDcu4_5alloc11collections5btree8navigateINtNtB8_4node6HandleINtB11_7NodeRefNtNtB11_6marker5DyingNtNtNtCsht3nMU9UgFu_3std3ffi6os_str8OsStringINtNtCsaNl6UpbT7bw_4core6option6OptionB1S_ENtB1z_4LeafENtB1z_4EdgeE17deallocating_nextNtNtBc_5alloc6GlobalECsdfPaYVxdQQK_18build_script_build, symObjAddr: 0x25C, symBinAddr: 0x100000E4C, symSize: 0x254 }
  - { offset: 0x7B87, size: 0x8, addend: 0x0, symName: __RNvMsO_NtNtNtCsiTraAjBDcu4_5alloc11collections5btree4nodeINtB5_6HandleINtB5_7NodeRefNtNtB5_6marker5DyingNtNtNtCsht3nMU9UgFu_3std3ffi6os_str8OsStringINtNtCsaNl6UpbT7bw_4core6option6OptionB1E_ENtB1m_8InternalENtB1m_4EdgeE7descendCsdfPaYVxdQQK_18build_script_build, symObjAddr: 0x1CB0, symBinAddr: 0x1000027F8, symSize: 0x9C }
  - { offset: 0x7E66, size: 0x8, addend: 0x0, symName: __RNvMsT_NtNtNtCsiTraAjBDcu4_5alloc11collections5btree4nodeINtB5_6HandleINtB5_7NodeRefNtNtB5_6marker5DyingNtNtNtCsht3nMU9UgFu_3std3ffi6os_str8OsStringINtNtCsaNl6UpbT7bw_4core6option6OptionB1E_ENtB1m_14LeafOrInternalENtB1m_2KVE12drop_key_valCsdfPaYVxdQQK_18build_script_build, symObjAddr: 0x1D4C, symBinAddr: 0x100002894, symSize: 0x138 }
  - { offset: 0x814C, size: 0x8, addend: 0x0, symName: __RNvMse_NtNtNtCsiTraAjBDcu4_5alloc11collections5btree4nodeINtB5_7NodeRefNtNtB5_6marker5DyingNtNtNtCsht3nMU9UgFu_3std3ffi6os_str8OsStringINtNtCsaNl6UpbT7bw_4core6option6OptionB1r_ENtB19_14LeafOrInternalE6ascendCsdfPaYVxdQQK_18build_script_build, symObjAddr: 0x1E84, symBinAddr: 0x1000029CC, symSize: 0x160 }
  - { offset: 0x8301, size: 0x8, addend: 0x0, symName: __RNvMsf_NtNtCsaNl6UpbT7bw_4core3str4iterINtB5_13SplitInternalcE4nextCsdfPaYVxdQQK_18build_script_build, symObjAddr: 0x1FE4, symBinAddr: 0x100002B2C, symSize: 0x140 }
  - { offset: 0x843D, size: 0x8, addend: 0x0, symName: __RNvMsf_NtNtCsaNl6UpbT7bw_4core3str4iterINtB5_13SplitInternalcE7get_endCsdfPaYVxdQQK_18build_script_build, symObjAddr: 0x2124, symBinAddr: 0x100002C6C, symSize: 0x128 }
  - { offset: 0x874F, size: 0x8, addend: 0x0, symName: __RNvMsp_NtNtNtCsiTraAjBDcu4_5alloc11collections5btree8navigateINtNtB7_4node6HandleINtB10_7NodeRefNtNtB10_6marker5DyingNtNtNtCsht3nMU9UgFu_3std3ffi6os_str8OsStringINtNtCsaNl6UpbT7bw_4core6option6OptionB1R_ENtB1y_14LeafOrInternalENtB1y_2KVE14next_leaf_edgeCsdfPaYVxdQQK_18build_script_build, symObjAddr: 0x224C, symBinAddr: 0x100002D94, symSize: 0x210 }
  - { offset: 0x8B8A, size: 0x8, addend: 0x0, symName: __RNvCsdfPaYVxdQQK_18build_script_build4main, symObjAddr: 0x3A40, symBinAddr: 0x100004588, symSize: 0x2C0 }
  - { offset: 0x8BE6, size: 0x8, addend: 0x0, symName: __RNvCsdfPaYVxdQQK_18build_script_build13compile_probe, symObjAddr: 0x3D00, symBinAddr: 0x100004848, symSize: 0xE14 }
  - { offset: 0x8E0C, size: 0x8, addend: 0x0, symName: __RNCNvCsdfPaYVxdQQK_18build_script_build13compile_probe0B3_, symObjAddr: 0x4B14, symBinAddr: 0x10000565C, symSize: 0x3C }
  - { offset: 0x8E42, size: 0x8, addend: 0x0, symName: __RNCNvCsdfPaYVxdQQK_18build_script_build13compile_probes_0B3_, symObjAddr: 0x4B50, symBinAddr: 0x100005698, symSize: 0x3C }
  - { offset: 0x8E87, size: 0x8, addend: 0x0, symName: __RNvCsdfPaYVxdQQK_18build_script_build13cargo_env_var, symObjAddr: 0x4B8C, symBinAddr: 0x1000056D4, symSize: 0x68 }
  - { offset: 0x8EB8, size: 0x8, addend: 0x0, symName: __RNCNvCsdfPaYVxdQQK_18build_script_build13cargo_env_var0B3_, symObjAddr: 0x4BF4, symBinAddr: 0x10000573C, symSize: 0x5C }
  - { offset: 0x9462, size: 0x8, addend: 0x0, symName: __RINvMNtCsaNl6UpbT7bw_4core3stre5splitcECsdfPaYVxdQQK_18build_script_build, symObjAddr: 0x0, symBinAddr: 0x1000057C4, symSize: 0x98 }
  - { offset: 0x94C8, size: 0x8, addend: 0x0, symName: __RNvXNvNtCsht3nMU9UgFu_3std2io17default_write_fmtINtB2_7AdapterNtNtNtNtB6_3sys5stdio4unix6StderrENtNtCsaNl6UpbT7bw_4core3fmt5Write9write_strCsdfPaYVxdQQK_18build_script_build, symObjAddr: 0x22AC, symBinAddr: 0x100007A70, symSize: 0xB4 }
  - { offset: 0x9883, size: 0x8, addend: 0x0, symName: __RNvXsi_NtNtCsht3nMU9UgFu_3std2io5errorNtB5_9ErrorKindNtNtCsaNl6UpbT7bw_4core3cmp9PartialEq2eqCsdfPaYVxdQQK_18build_script_build, symObjAddr: 0x2E6C, symBinAddr: 0x100008630, symSize: 0x2C }
  - { offset: 0x98E7, size: 0x8, addend: 0x0, symName: __RINvNtCsht3nMU9UgFu_3std2io17default_write_fmtNtNtNtNtB4_3sys5stdio4unix6StderrECsdfPaYVxdQQK_18build_script_build, symObjAddr: 0xF34, symBinAddr: 0x1000066F8, symSize: 0x120 }
  - { offset: 0x999B, size: 0x8, addend: 0x0, symName: __RNvYNtNtNtNtCsht3nMU9UgFu_3std3sys5stdio4unix6StderrNtNtBa_2io5Write9write_allCsdfPaYVxdQQK_18build_script_build, symObjAddr: 0x3248, symBinAddr: 0x100008A0C, symSize: 0x270 }
  - { offset: 0x9B33, size: 0x8, addend: 0x0, symName: __RNvYNtNtNtNtCsht3nMU9UgFu_3std3sys5stdio4unix6StderrNtNtBa_2io5Write9write_fmtCsdfPaYVxdQQK_18build_script_build, symObjAddr: 0x34B8, symBinAddr: 0x100008C7C, symSize: 0x154 }
  - { offset: 0x9F35, size: 0x8, addend: 0x0, symName: __RNCINvNtCsht3nMU9UgFu_3std2rt10lang_startuE0CsdfPaYVxdQQK_18build_script_build, symObjAddr: 0x1284, symBinAddr: 0x100006A48, symSize: 0x34 }
  - { offset: 0x9F9F, size: 0x8, addend: 0x0, symName: __RINvNtCsht3nMU9UgFu_3std2rt10lang_startuECsdfPaYVxdQQK_18build_script_build, symObjAddr: 0x1054, symBinAddr: 0x100006818, symSize: 0x60 }
  - { offset: 0xA0CC, size: 0x8, addend: 0x0, symName: __RNvXs5_NtNtCsht3nMU9UgFu_3std3ffi6os_strNtB5_8OsStringNtNtNtCsaNl6UpbT7bw_4core3ops5deref5Deref5derefCsdfPaYVxdQQK_18build_script_build, symObjAddr: 0x26B8, symBinAddr: 0x100007E7C, symSize: 0x2C }
  - { offset: 0xA196, size: 0x8, addend: 0x0, symName: __RNvXsV_NtNtCsht3nMU9UgFu_3std3ffi6os_strNtB5_8OsStringINtNtCsaNl6UpbT7bw_4core7convert5AsRefNtB5_5OsStrE6as_refCsdfPaYVxdQQK_18build_script_build, symObjAddr: 0x2B78, symBinAddr: 0x10000833C, symSize: 0x2C }
  - { offset: 0xA1E8, size: 0x8, addend: 0x0, symName: __RNvXs3_NtNtCsht3nMU9UgFu_3std3ffi6os_strNtB5_8OsStringINtNtNtCsaNl6UpbT7bw_4core3ops5index5IndexNtNtBV_5range9RangeFullE5indexCsdfPaYVxdQQK_18build_script_build, symObjAddr: 0x2554, symBinAddr: 0x100007D18, symSize: 0x80 }
  - { offset: 0xA322, size: 0x8, addend: 0x0, symName: __RNvXsU_NtNtCsht3nMU9UgFu_3std3ffi6os_strNtB5_5OsStrINtNtCsaNl6UpbT7bw_4core7convert5AsRefBC_E6as_refCsdfPaYVxdQQK_18build_script_build, symObjAddr: 0x2B60, symBinAddr: 0x100008324, symSize: 0x18 }
  - { offset: 0xA356, size: 0x8, addend: 0x0, symName: __RNvXsW_NtNtCsht3nMU9UgFu_3std3ffi6os_streINtNtCsaNl6UpbT7bw_4core7convert5AsRefNtB5_5OsStrE6as_refCsdfPaYVxdQQK_18build_script_build, symObjAddr: 0x2BA4, symBinAddr: 0x100008368, symSize: 0x18 }
  - { offset: 0xA408, size: 0x8, addend: 0x0, symName: __RNvXsd_NtNtCsht3nMU9UgFu_3std3ffi6os_strNtB5_8OsStringINtNtCsaNl6UpbT7bw_4core3cmp9PartialEqReE2eqCsdfPaYVxdQQK_18build_script_build, symObjAddr: 0x2DAC, symBinAddr: 0x100008570, symSize: 0xC0 }
  - { offset: 0xA75C, size: 0x8, addend: 0x0, symName: __RNvXs11_NtCsht3nMU9UgFu_3std4pathNtB6_7PathBufINtNtCsaNl6UpbT7bw_4core7convert5AsRefNtNtNtB8_3ffi6os_str5OsStrE6as_refCsdfPaYVxdQQK_18build_script_build, symObjAddr: 0x2434, symBinAddr: 0x100007BF8, symSize: 0x2C }
  - { offset: 0xA790, size: 0x8, addend: 0x0, symName: __RNvXs1d_NtCsht3nMU9UgFu_3std4pathNtB6_4PathINtNtCsaNl6UpbT7bw_4core7convert5AsRefBv_E6as_refCsdfPaYVxdQQK_18build_script_build, symObjAddr: 0x24F0, symBinAddr: 0x100007CB4, symSize: 0x18 }
  - { offset: 0xA7C4, size: 0x8, addend: 0x0, symName: __RNvXs1h_NtCsht3nMU9UgFu_3std4patheINtNtCsaNl6UpbT7bw_4core7convert5AsRefNtB6_4PathE6as_refCsdfPaYVxdQQK_18build_script_build, symObjAddr: 0x2508, symBinAddr: 0x100007CCC, symSize: 0x18 }
  - { offset: 0xA816, size: 0x8, addend: 0x0, symName: __RNvXsH_NtCsht3nMU9UgFu_3std4pathNtB5_7PathBufNtNtNtCsaNl6UpbT7bw_4core3ops5deref5Deref5derefCsdfPaYVxdQQK_18build_script_build, symObjAddr: 0x2B2C, symBinAddr: 0x1000082F0, symSize: 0x34 }
  - { offset: 0xA8A4, size: 0x8, addend: 0x0, symName: __RNvXs1j_NtCsht3nMU9UgFu_3std4pathNtB6_7PathBufINtNtCsaNl6UpbT7bw_4core7convert5AsRefNtB6_4PathE6as_refCsdfPaYVxdQQK_18build_script_build, symObjAddr: 0x2520, symBinAddr: 0x100007CE4, symSize: 0x34 }
  - { offset: 0xA9A6, size: 0x8, addend: 0x0, symName: __RINvNtCsht3nMU9UgFu_3std2fs10create_dirRNtNtB4_4path7PathBufECsdfPaYVxdQQK_18build_script_build, symObjAddr: 0xE5C, symBinAddr: 0x100006620, symSize: 0x74 }
  - { offset: 0xA9F2, size: 0x8, addend: 0x0, symName: __RINvNtCsht3nMU9UgFu_3std2fs14remove_dir_allRNtNtB4_4path7PathBufECsdfPaYVxdQQK_18build_script_build, symObjAddr: 0xED0, symBinAddr: 0x100006694, symSize: 0x64 }
  - { offset: 0xAA74, size: 0x8, addend: 0x0, symName: __RNvXs5_NtNtNtCsht3nMU9UgFu_3std2os2fd5ownedNtB5_7OwnedFdNtNtNtCsaNl6UpbT7bw_4core3ops4drop4Drop4dropCsdfPaYVxdQQK_18build_script_build, symObjAddr: 0x26E4, symBinAddr: 0x100007EA8, symSize: 0x40 }
  - { offset: 0xAC82, size: 0x8, addend: 0x0, symName: __RNvXsZ_NtCsht3nMU9UgFu_3std7processuNtB5_11Termination6reportCsdfPaYVxdQQK_18build_script_build, symObjAddr: 0x2BBC, symBinAddr: 0x100008380, symSize: 0x10 }
  - { offset: 0xB099, size: 0x8, addend: 0x0, symName: __RNvNvMs1_NtNtCsaNl6UpbT7bw_4core3ptr8non_nullINtB7_7NonNullpE13new_unchecked18precondition_checkCsdfPaYVxdQQK_18build_script_build, symObjAddr: 0x1AAC, symBinAddr: 0x100007270, symSize: 0xA4 }
  - { offset: 0xBA2B, size: 0x8, addend: 0x0, symName: __RNvXs5_NtNtCsaNl6UpbT7bw_4core3num5errorNtB5_15TryFromIntErrorNtNtB9_3fmt5Debug3fmtCsdfPaYVxdQQK_18build_script_build, symObjAddr: 0x25D4, symBinAddr: 0x100007D98, symSize: 0x54 }
  - { offset: 0xBB74, size: 0x8, addend: 0x0, symName: __RINvMNtCsaNl6UpbT7bw_4core3stre5splitcECsdfPaYVxdQQK_18build_script_build, symObjAddr: 0x0, symBinAddr: 0x1000057C4, symSize: 0x98 }
  - { offset: 0xC6A7, size: 0x8, addend: 0x0, symName: __RNvXs6_NtCsaNl6UpbT7bw_4core6optionINtB5_6OptionNtNtNtCsht3nMU9UgFu_3std3ffi6os_str8OsStringENtNtNtNtB7_4iter6traits7collect12IntoIterator9into_iterCsdfPaYVxdQQK_18build_script_build, symObjAddr: 0x2724, symBinAddr: 0x100007EE8, symSize: 0x30 }
  - { offset: 0xC766, size: 0x8, addend: 0x0, symName: __RNvXsw_NtCsaNl6UpbT7bw_4core6optionINtB5_8IntoIterNtNtNtCsht3nMU9UgFu_3std3ffi6os_str8OsStringENtNtNtNtB7_4iter6traits8iterator8Iterator4nextCsdfPaYVxdQQK_18build_script_build, symObjAddr: 0x30A8, symBinAddr: 0x10000886C, symSize: 0x40 }
  - { offset: 0xC927, size: 0x8, addend: 0x0, symName: __RINvYINtNtCsaNl6UpbT7bw_4core6option8IntoIterNtNtNtCsht3nMU9UgFu_3std3ffi6os_str8OsStringENtNtNtNtB8_4iter6traits8iterator8Iterator5chainINtB6_6OptionBH_EECsdfPaYVxdQQK_18build_script_build, symObjAddr: 0x1180, symBinAddr: 0x100006944, symSize: 0xAC }
  - { offset: 0xCC41, size: 0x8, addend: 0x0, symName: __RNvXs_NvNtNtCsaNl6UpbT7bw_4core3fmt5Write9write_fmtQINtNvNtCsht3nMU9UgFu_3std2io17default_write_fmt7AdapterNtNtNtNtBV_3sys5stdio4unix6StderrENtB4_12SpecWriteFmt14spec_write_fmtCsdfPaYVxdQQK_18build_script_build, symObjAddr: 0x2C4C, symBinAddr: 0x100008410, symSize: 0x160 }
  - { offset: 0xCCF0, size: 0x8, addend: 0x0, symName: __RNvYINtNvNtCsht3nMU9UgFu_3std2io17default_write_fmt7AdapterNtNtNtNtB9_3sys5stdio4unix6StderrENtNtCsaNl6UpbT7bw_4core3fmt5Write10write_charCsdfPaYVxdQQK_18build_script_build, symObjAddr: 0x3184, symBinAddr: 0x100008948, symSize: 0x70 }
  - { offset: 0xCD58, size: 0x8, addend: 0x0, symName: __RNvYINtNvNtCsht3nMU9UgFu_3std2io17default_write_fmt7AdapterNtNtNtNtB9_3sys5stdio4unix6StderrENtNtCsaNl6UpbT7bw_4core3fmt5Write9write_fmtCsdfPaYVxdQQK_18build_script_build, symObjAddr: 0x31F4, symBinAddr: 0x1000089B8, symSize: 0x24 }
  - { offset: 0xD16F, size: 0x8, addend: 0x0, symName: __RNvNvNtNtCsaNl6UpbT7bw_4core5slice3raw14from_raw_parts18precondition_checkCsdfPaYVxdQQK_18build_script_build, symObjAddr: 0x1BD4, symBinAddr: 0x100007398, symSize: 0x1DC }
  - { offset: 0xD2F3, size: 0x8, addend: 0x0, symName: __RNvNvNtNtCsaNl6UpbT7bw_4core5slice3raw18from_raw_parts_mut18precondition_checkCsdfPaYVxdQQK_18build_script_build, symObjAddr: 0x1DB0, symBinAddr: 0x100007574, symSize: 0x1DC }
  - { offset: 0xD56A, size: 0x8, addend: 0x0, symName: __RNvNtNtCsaNl6UpbT7bw_4core5slice6memchr6memchrCsdfPaYVxdQQK_18build_script_build, symObjAddr: 0x1998, symBinAddr: 0x10000715C, symSize: 0x114 }
  - { offset: 0xD5DF, size: 0x8, addend: 0x0, symName: __RNvNvXs0_NtNtCsaNl6UpbT7bw_4core5slice5indexjINtB7_10SliceIndexSpE13get_unchecked18precondition_checkCsdfPaYVxdQQK_18build_script_build, symObjAddr: 0x1F8C, symBinAddr: 0x100007750, symSize: 0xAC }
  - { offset: 0xD64D, size: 0x8, addend: 0x0, symName: __RNvNvXs0_NtNtCsaNl6UpbT7bw_4core5slice5indexjINtB7_10SliceIndexSpE17get_unchecked_mut18precondition_checkCsdfPaYVxdQQK_18build_script_build, symObjAddr: 0x2038, symBinAddr: 0x1000077FC, symSize: 0xAC }
  - { offset: 0xD6F5, size: 0x8, addend: 0x0, symName: __RNvNvXs2_NtNtCsaNl6UpbT7bw_4core5slice5indexINtNtNtBb_3ops5range5RangejEINtB7_10SliceIndexSpE13get_unchecked18precondition_checkCsdfPaYVxdQQK_18build_script_build, symObjAddr: 0x20E4, symBinAddr: 0x1000078A8, symSize: 0xCC }
  - { offset: 0xD7E9, size: 0x8, addend: 0x0, symName: __RNvXs5_NtNtCsaNl6UpbT7bw_4core5slice5indexINtNtNtB9_3ops5range9RangeFromjEINtB5_10SliceIndexShE5indexCsdfPaYVxdQQK_18build_script_build, symObjAddr: 0x2628, symBinAddr: 0x100007DEC, symSize: 0x90 }
  - { offset: 0xD9B5, size: 0x8, addend: 0x0, symName: __RNvXNtCsaNl6UpbT7bw_4core7convertRNtNtCsht3nMU9UgFu_3std4path4PathINtB2_5AsRefBw_E6as_refCsdfPaYVxdQQK_18build_script_build, symObjAddr: 0x21B0, symBinAddr: 0x100007974, symSize: 0x30 }
  - { offset: 0xD9F5, size: 0x8, addend: 0x0, symName: __RNvXNtCsaNl6UpbT7bw_4core7convertRNtNtCsht3nMU9UgFu_3std4path7PathBufINtB2_5AsRefNtBy_4PathE6as_refCsdfPaYVxdQQK_18build_script_build, symObjAddr: 0x21E0, symBinAddr: 0x1000079A4, symSize: 0x28 }
  - { offset: 0xDA35, size: 0x8, addend: 0x0, symName: __RNvXNtCsaNl6UpbT7bw_4core7convertRNtNtCsht3nMU9UgFu_3std4path7PathBufINtB2_5AsRefNtNtNtBA_3ffi6os_str5OsStrE6as_refCsdfPaYVxdQQK_18build_script_build, symObjAddr: 0x2208, symBinAddr: 0x1000079CC, symSize: 0x28 }
  - { offset: 0xDA75, size: 0x8, addend: 0x0, symName: __RNvXNtCsaNl6UpbT7bw_4core7convertRNtNtNtCsht3nMU9UgFu_3std3ffi6os_str5OsStrINtB2_5AsRefBw_E6as_refCsdfPaYVxdQQK_18build_script_build, symObjAddr: 0x2230, symBinAddr: 0x1000079F4, symSize: 0x30 }
  - { offset: 0xDABB, size: 0x8, addend: 0x0, symName: __RNvXs1_NtCsaNl6UpbT7bw_4core7convertNtNtCsht3nMU9UgFu_3std7process5StdioINtB5_4IntoBy_E4intoCsdfPaYVxdQQK_18build_script_build, symObjAddr: 0x2460, symBinAddr: 0x100007C24, symSize: 0x1C }
  - { offset: 0xDBF5, size: 0x8, addend: 0x0, symName: __RNvNvNtCsaNl6UpbT7bw_4core4hint21unreachable_unchecked18precondition_checkCsdfPaYVxdQQK_18build_script_build, symObjAddr: 0x1B50, symBinAddr: 0x100007314, symSize: 0x84 }
  - { offset: 0xDEE7, size: 0x8, addend: 0x0, symName: __RNvYNtNtNtCsht3nMU9UgFu_3std2io5error9ErrorKindNtNtCsaNl6UpbT7bw_4core3cmp9PartialEq2neCsdfPaYVxdQQK_18build_script_build, symObjAddr: 0x3218, symBinAddr: 0x1000089DC, symSize: 0x30 }
  - { offset: 0xE169, size: 0x8, addend: 0x0, symName: __RNvXsn_NtCsiTraAjBDcu4_5alloc3vecINtB5_3VecINtNtB7_5boxed3BoxDINtNtNtCsaNl6UpbT7bw_4core3ops8function5FnMutuEp6OutputINtNtB15_6result6ResultuNtNtNtCsht3nMU9UgFu_3std2io5error5ErrorENtNtB15_6marker4SyncNtB2V_4SendEL_EENtNtB13_4drop4Drop4dropCsdfPaYVxdQQK_18build_script_build, symObjAddr: 0x2E98, symBinAddr: 0x10000865C, symSize: 0x38 }
  - { offset: 0xE219, size: 0x8, addend: 0x0, symName: __RNvXsn_NtCsiTraAjBDcu4_5alloc3vecINtB5_3VecPaENtNtNtCsaNl6UpbT7bw_4core3ops4drop4Drop4dropCsdfPaYVxdQQK_18build_script_build, symObjAddr: 0x2ED0, symBinAddr: 0x100008694, symSize: 0x24 }
  - { offset: 0xE2DD, size: 0x8, addend: 0x0, symName: __RNvXs1_NtCsiTraAjBDcu4_5alloc5allocNtB5_6GlobalNtNtCsaNl6UpbT7bw_4core5clone5Clone5cloneCsdfPaYVxdQQK_18build_script_build, symObjAddr: 0x247C, symBinAddr: 0x100007C40, symSize: 0x10 }
  - { offset: 0xE32E, size: 0x8, addend: 0x0, symName: __RNvXs_NtCsiTraAjBDcu4_5alloc5allocNtB4_6GlobalNtNtCsaNl6UpbT7bw_4core5alloc9Allocator10deallocateCsdfPaYVxdQQK_18build_script_build, symObjAddr: 0x2BCC, symBinAddr: 0x100008390, symSize: 0x80 }
  - { offset: 0xE638, size: 0x8, addend: 0x0, symName: __RNvXs1_NtCsiTraAjBDcu4_5alloc7raw_vecINtB5_6RawVecINtNtB7_5boxed3BoxDINtNtNtCsaNl6UpbT7bw_4core3ops8function5FnMutuEp6OutputINtNtB1c_6result6ResultuNtNtNtCsht3nMU9UgFu_3std2io5error5ErrorENtNtB1c_6marker4SyncNtB32_4SendEL_EENtNtB1a_4drop4Drop4dropCsdfPaYVxdQQK_18build_script_build, symObjAddr: 0x248C, symBinAddr: 0x100007C50, symSize: 0x34 }
  - { offset: 0xE674, size: 0x8, addend: 0x0, symName: __RNvXs1_NtCsiTraAjBDcu4_5alloc7raw_vecINtB5_6RawVecPaENtNtNtCsaNl6UpbT7bw_4core3ops4drop4Drop4dropCsdfPaYVxdQQK_18build_script_build, symObjAddr: 0x24C0, symBinAddr: 0x100007C84, symSize: 0x30 }
  - { offset: 0xE880, size: 0x8, addend: 0x0, symName: __RNCINvMsm_NtNtNtCsiTraAjBDcu4_5alloc11collections5btree8navigateINtNtBa_4node6HandleINtB13_7NodeRefNtNtB13_6marker5DyingNtNtNtCsht3nMU9UgFu_3std3ffi6os_str8OsStringINtNtCsaNl6UpbT7bw_4core6option6OptionB1U_ENtB1B_4LeafENtB1B_4EdgeE27deallocating_next_uncheckedNtNtBe_5alloc6GlobalE0CsdfPaYVxdQQK_18build_script_build, symObjAddr: 0x122C, symBinAddr: 0x1000069F0, symSize: 0x58 }
  - { offset: 0xEF50, size: 0x8, addend: 0x0, symName: __RNvXNtNtNtCsiTraAjBDcu4_5alloc11collections5btree3mapINtB2_8BTreeMapNtNtNtCsht3nMU9UgFu_3std3ffi6os_str8OsStringINtNtCsaNl6UpbT7bw_4core6option6OptionB14_EENtNtNtB1R_3ops4drop4Drop4dropCsdfPaYVxdQQK_18build_script_build, symObjAddr: 0x2260, symBinAddr: 0x100007A24, symSize: 0x4C }
  - { offset: 0xEFDD, size: 0x8, addend: 0x0, symName: __RNvXNvXsw_NtNtNtCsiTraAjBDcu4_5alloc11collections5btree3mapINtB8_8IntoIterpppENtNtNtCsaNl6UpbT7bw_4core3ops4drop4Drop4dropINtB2_9DropGuardNtNtNtCsht3nMU9UgFu_3std3ffi6os_str8OsStringINtNtB1k_6option6OptionB2c_ENtNtBe_5alloc6GlobalEB1e_4dropCsdfPaYVxdQQK_18build_script_build, symObjAddr: 0x2360, symBinAddr: 0x100007B24, symSize: 0x64 }
  - { offset: 0xF072, size: 0x8, addend: 0x0, symName: __RNvXsw_NtNtNtCsiTraAjBDcu4_5alloc11collections5btree3mapINtB5_8IntoIterNtNtNtCsht3nMU9UgFu_3std3ffi6os_str8OsStringINtNtCsaNl6UpbT7bw_4core6option6OptionB17_EENtNtNtB1U_3ops4drop4Drop4dropCsdfPaYVxdQQK_18build_script_build, symObjAddr: 0x30E8, symBinAddr: 0x1000088AC, symSize: 0x9C }
  - { offset: 0xF0E9, size: 0x8, addend: 0x0, symName: __RNvXsv_NtNtNtCsiTraAjBDcu4_5alloc11collections5btree3mapINtB5_8BTreeMapNtNtNtCsht3nMU9UgFu_3std3ffi6os_str8OsStringINtNtCsaNl6UpbT7bw_4core6option6OptionB17_EENtNtNtNtB1U_4iter6traits7collect12IntoIterator9into_iterCsdfPaYVxdQQK_18build_script_build, symObjAddr: 0x2F18, symBinAddr: 0x1000086DC, symSize: 0x190 }
  - { offset: 0xF268, size: 0x8, addend: 0x0, symName: __RINvNtNtNtCsiTraAjBDcu4_5alloc11collections5btree3mem7replaceINtNtB4_4node6HandleINtB10_7NodeRefNtNtB10_6marker5DyingNtNtNtCsht3nMU9UgFu_3std3ffi6os_str8OsStringINtNtCsaNl6UpbT7bw_4core6option6OptionB1R_ENtB1y_4LeafENtB1y_4EdgeEIBY_IB1i_B1w_B1R_B2z_NtB1y_14LeafOrInternalENtB1y_2KVENCINvMsm_NtB4_8navigateBX_27deallocating_next_uncheckedNtNtB8_5alloc6GlobalE0ECsdfPaYVxdQQK_18build_script_build, symObjAddr: 0x10B4, symBinAddr: 0x100006878, symSize: 0xCC }
  - { offset: 0xF38D, size: 0x8, addend: 0x0, symName: __RNvXs0_NtNtCsiTraAjBDcu4_5alloc3ffi5c_strNtB5_7CStringNtNtNtCsaNl6UpbT7bw_4core3ops4drop4Drop4dropCsdfPaYVxdQQK_18build_script_build, symObjAddr: 0x23C4, symBinAddr: 0x100007B88, symSize: 0x70 }
  - { offset: 0xF457, size: 0x8, addend: 0x0, symName: __RNvXss_NtCsiTraAjBDcu4_5alloc6stringNtB5_6StringNtNtNtCsaNl6UpbT7bw_4core3ops5deref5Deref5derefCsdfPaYVxdQQK_18build_script_build, symObjAddr: 0x2EF4, symBinAddr: 0x1000086B8, symSize: 0x24 }
  - { offset: 0xF491, size: 0x8, addend: 0x0, symName: __RNvXs6_NtCsiTraAjBDcu4_5alloc5boxedINtB5_3BoxDINtNtNtCsaNl6UpbT7bw_4core3ops8function5FnMutuEp6OutputINtNtBP_6result6ResultuNtNtNtCsht3nMU9UgFu_3std2io5error5ErrorENtNtBP_6marker4SyncNtB2E_4SendEL_ENtNtBN_4drop4Drop4dropCsdfPaYVxdQQK_18build_script_build, symObjAddr: 0x2754, symBinAddr: 0x100007F18, symSize: 0xCC }
  - { offset: 0xF5C8, size: 0x8, addend: 0x0, symName: __RNvXs6_NtCsiTraAjBDcu4_5alloc5boxedINtB5_3BoxDNtNtCsaNl6UpbT7bw_4core5error5ErrorNtNtBM_6marker4SyncNtB1j_4SendEL_ENtNtNtBM_3ops4drop4Drop4dropCsdfPaYVxdQQK_18build_script_build, symObjAddr: 0x2820, symBinAddr: 0x100007FE4, symSize: 0xCC }
  - { offset: 0xF6FF, size: 0x8, addend: 0x0, symName: __RNvXs6_NtCsiTraAjBDcu4_5alloc5boxedINtB5_3BoxNtNtNtCsht3nMU9UgFu_3std2io5error6CustomENtNtNtCsaNl6UpbT7bw_4core3ops4drop4Drop4dropCsdfPaYVxdQQK_18build_script_build, symObjAddr: 0x28EC, symBinAddr: 0x1000080B0, symSize: 0xB8 }
  - { offset: 0xF836, size: 0x8, addend: 0x0, symName: __RNvXs6_NtCsiTraAjBDcu4_5alloc5boxedINtB5_3BoxShENtNtNtCsaNl6UpbT7bw_4core3ops4drop4Drop4dropCsdfPaYVxdQQK_18build_script_build, symObjAddr: 0x29A4, symBinAddr: 0x100008168, symSize: 0xC4 }
  - { offset: 0xF96D, size: 0x8, addend: 0x0, symName: __RNvXs6_NtCsiTraAjBDcu4_5alloc5boxedINtB5_3BoxSmENtNtNtCsaNl6UpbT7bw_4core3ops4drop4Drop4dropCsdfPaYVxdQQK_18build_script_build, symObjAddr: 0x2A68, symBinAddr: 0x10000822C, symSize: 0xC4 }
  - { offset: 0xFB26, size: 0x8, addend: 0x0, symName: __RINvMNtCsaNl6UpbT7bw_4core6optionINtB3_6OptionNtNtNtCsht3nMU9UgFu_3std3ffi6os_str8OsStringE14unwrap_or_elseNCNvCsdfPaYVxdQQK_18build_script_build13cargo_env_var0EB1L_, symObjAddr: 0x98, symBinAddr: 0x10000585C, symSize: 0x7C }
  - { offset: 0xFB89, size: 0x8, addend: 0x0, symName: __RINvMNtCsaNl6UpbT7bw_4core6optionINtB3_6OptionNtNtNtCsht3nMU9UgFu_3std3ffi6os_str8OsStringE6filterNCNvCsdfPaYVxdQQK_18build_script_build13compile_probe0EB1C_, symObjAddr: 0x114, symBinAddr: 0x1000058D8, symSize: 0x170 }
  - { offset: 0xFBE4, size: 0x8, addend: 0x0, symName: __RINvMNtCsaNl6UpbT7bw_4core6optionINtB3_6OptionNtNtNtCsht3nMU9UgFu_3std3ffi6os_str8OsStringE6filterNCNvCsdfPaYVxdQQK_18build_script_build13compile_probes_0EB1C_, symObjAddr: 0x284, symBinAddr: 0x100005A48, symSize: 0x170 }
  - { offset: 0xFC4C, size: 0x8, addend: 0x0, symName: __RINvMNtCsaNl6UpbT7bw_4core6optionINtB3_6OptionNtNtNtCsht3nMU9UgFu_3std3ffi6os_str8OsStringE7or_elseNCNvXs_NtNtNtB5_4iter8adapters5chainINtB1G_5ChainIB2a_INtB3_8IntoIterBI_EB2r_EINtNtNtB1K_7sources4once4OnceBI_EENtNtNtB1K_6traits8iterator8Iterator4next0ECsdfPaYVxdQQK_18build_script_build, symObjAddr: 0x3F4, symBinAddr: 0x100005BB8, symSize: 0xD4 }
  - { offset: 0xFCBC, size: 0x8, addend: 0x0, symName: __RINvMNtCsaNl6UpbT7bw_4core6optionINtB3_6OptionNtNtNtCsht3nMU9UgFu_3std3ffi6os_str8OsStringE7or_elseNCNvXs_NtNtNtB5_4iter8adapters5chainINtB1G_5ChainINtB3_8IntoIterBI_EB2m_ENtNtNtB1K_6traits8iterator8Iterator4next0ECsdfPaYVxdQQK_18build_script_build, symObjAddr: 0x4C8, symBinAddr: 0x100005C8C, symSize: 0xD4 }
  - { offset: 0xFDCC, size: 0x8, addend: 0x0, symName: __RINvMNtNtCsaNl6UpbT7bw_4core3fmt2rtNtB3_8Argument11new_displayNtNtCsht3nMU9UgFu_3std4path7DisplayECsdfPaYVxdQQK_18build_script_build, symObjAddr: 0x59C, symBinAddr: 0x100005D60, symSize: 0x2C }
  - { offset: 0xFE04, size: 0x8, addend: 0x0, symName: __RINvMNtNtCsaNl6UpbT7bw_4core3fmt2rtNtB3_8Argument11new_displayNtNtNtCsht3nMU9UgFu_3std2io5error5ErrorECsdfPaYVxdQQK_18build_script_build, symObjAddr: 0x5C8, symBinAddr: 0x100005D8C, symSize: 0x2C }
  - { offset: 0xFE2F, size: 0x8, addend: 0x0, symName: __RINvMNtNtCsaNl6UpbT7bw_4core3fmt2rtNtB3_8Argument11new_displayReECsdfPaYVxdQQK_18build_script_build, symObjAddr: 0x5F4, symBinAddr: 0x100005DB8, symSize: 0x2C }
  - { offset: 0xFE8E, size: 0x8, addend: 0x0, symName: __RINvMs12_NtCsht3nMU9UgFu_3std4pathNtB7_4Path3newNtNtNtB9_3ffi6os_str8OsStringECsdfPaYVxdQQK_18build_script_build, symObjAddr: 0x620, symBinAddr: 0x100005DE4, symSize: 0x24 }
  - { offset: 0xFEBA, size: 0x8, addend: 0x0, symName: __RINvMs12_NtCsht3nMU9UgFu_3std4pathNtB7_4Path3neweECsdfPaYVxdQQK_18build_script_build, symObjAddr: 0x644, symBinAddr: 0x100005E08, symSize: 0x28 }
  - { offset: 0xFEE6, size: 0x8, addend: 0x0, symName: __RINvMs12_NtCsht3nMU9UgFu_3std4pathNtB7_4Path4joinReECsdfPaYVxdQQK_18build_script_build, symObjAddr: 0x66C, symBinAddr: 0x100005E30, symSize: 0x80 }
  - { offset: 0xFF35, size: 0x8, addend: 0x0, symName: __RINvMsA_NtCsht3nMU9UgFu_3std2fsNtB6_10DirBuilder6createRNtNtB8_4path4PathECsdfPaYVxdQQK_18build_script_build, symObjAddr: 0x6EC, symBinAddr: 0x100005EB0, symSize: 0x74 }
  - { offset: 0x10019, size: 0x8, addend: 0x0, symName: __RINvMs_NtNtCsaNl6UpbT7bw_4core3fmt2rtNtB7_9Arguments6new_v1Kj2_Kj1_ECsdfPaYVxdQQK_18build_script_build, symObjAddr: 0x760, symBinAddr: 0x100005F24, symSize: 0x54 }
  - { offset: 0x1007D, size: 0x8, addend: 0x0, symName: __RINvMs_NtNtCsaNl6UpbT7bw_4core3fmt2rtNtB7_9Arguments6new_v1Kj3_Kj2_ECsdfPaYVxdQQK_18build_script_build, symObjAddr: 0x7B4, symBinAddr: 0x100005F78, symSize: 0x54 }
  - { offset: 0x100C7, size: 0x8, addend: 0x0, symName: __RINvMs_NtNtCsaNl6UpbT7bw_4core3fmt2rtNtB7_9Arguments9new_constKj1_ECsdfPaYVxdQQK_18build_script_build, symObjAddr: 0x808, symBinAddr: 0x100005FCC, symSize: 0x48 }
  - { offset: 0x10173, size: 0x8, addend: 0x0, symName: __RINvMsb_NtNtNtCsiTraAjBDcu4_5alloc11collections5btree8navigateINtB6_13LazyLeafRangeNtNtNtB8_4node6marker5DyingNtNtNtCsht3nMU9UgFu_3std3ffi6os_str8OsStringINtNtCsaNl6UpbT7bw_4core6option6OptionB1K_EE16deallocating_endNtNtBc_5alloc6GlobalECsdfPaYVxdQQK_18build_script_build, symObjAddr: 0x850, symBinAddr: 0x100006014, symSize: 0x98 }
  - { offset: 0x10245, size: 0x8, addend: 0x0, symName: __RINvMsb_NtNtNtCsiTraAjBDcu4_5alloc11collections5btree8navigateINtB6_13LazyLeafRangeNtNtNtB8_4node6marker5DyingNtNtNtCsht3nMU9UgFu_3std3ffi6os_str8OsStringINtNtCsaNl6UpbT7bw_4core6option6OptionB1K_EE27deallocating_next_uncheckedNtNtBc_5alloc6GlobalECsdfPaYVxdQQK_18build_script_build, symObjAddr: 0x8E8, symBinAddr: 0x1000060AC, symSize: 0xA8 }
  - { offset: 0x10418, size: 0x8, addend: 0x0, symName: __RINvMsk_NtCsht3nMU9UgFu_3std7processNtB6_7Command10env_removeReECsdfPaYVxdQQK_18build_script_build, symObjAddr: 0x990, symBinAddr: 0x100006154, symSize: 0x78 }
  - { offset: 0x10471, size: 0x8, addend: 0x0, symName: __RINvMsk_NtCsht3nMU9UgFu_3std7processNtB6_7Command3argNtNtB8_4path7PathBufECsdfPaYVxdQQK_18build_script_build, symObjAddr: 0xA08, symBinAddr: 0x1000061CC, symSize: 0x84 }
  - { offset: 0x104AD, size: 0x8, addend: 0x0, symName: __RINvMsk_NtCsht3nMU9UgFu_3std7processNtB6_7Command3argNtNtNtB8_3ffi6os_str8OsStringECsdfPaYVxdQQK_18build_script_build, symObjAddr: 0xA8C, symBinAddr: 0x100006250, symSize: 0x84 }
  - { offset: 0x104F6, size: 0x8, addend: 0x0, symName: __RINvMsk_NtCsht3nMU9UgFu_3std7processNtB6_7Command3argRNtNtB8_4path7PathBufECsdfPaYVxdQQK_18build_script_build, symObjAddr: 0xB10, symBinAddr: 0x1000062D4, symSize: 0x6C }
  - { offset: 0x10531, size: 0x8, addend: 0x0, symName: __RINvMsk_NtCsht3nMU9UgFu_3std7processNtB6_7Command3argRNtNtNtB8_3ffi6os_str5OsStrECsdfPaYVxdQQK_18build_script_build, symObjAddr: 0xB7C, symBinAddr: 0x100006340, symSize: 0x70 }
  - { offset: 0x1056C, size: 0x8, addend: 0x0, symName: __RINvMsk_NtCsht3nMU9UgFu_3std7processNtB6_7Command3argReECsdfPaYVxdQQK_18build_script_build, symObjAddr: 0xBEC, symBinAddr: 0x1000063B0, symSize: 0x70 }
  - { offset: 0x105A7, size: 0x8, addend: 0x0, symName: __RINvMsk_NtCsht3nMU9UgFu_3std7processNtB6_7Command3newNtNtNtB8_3ffi6os_str8OsStringECsdfPaYVxdQQK_18build_script_build, symObjAddr: 0xC5C, symBinAddr: 0x100006420, symSize: 0x90 }
  - { offset: 0x105D4, size: 0x8, addend: 0x0, symName: __RINvMsk_NtCsht3nMU9UgFu_3std7processNtB6_7Command4argsINtNtNtNtCsaNl6UpbT7bw_4core4iter8adapters5chain5ChainIBR_INtNtBZ_6option8IntoIterNtNtNtB8_3ffi6os_str8OsStringEB1M_EINtNtNtBX_7sources4once4OnceB2a_EEB2a_ECsdfPaYVxdQQK_18build_script_build, symObjAddr: 0xCEC, symBinAddr: 0x1000064B0, symSize: 0x114 }
  - { offset: 0x10646, size: 0x8, addend: 0x0, symName: __RINvMsk_NtCsht3nMU9UgFu_3std7processNtB6_7Command6stderrNtB6_5StdioECsdfPaYVxdQQK_18build_script_build, symObjAddr: 0xE00, symBinAddr: 0x1000065C4, symSize: 0x5C }
  - { offset: 0x1079C, size: 0x8, addend: 0x0, symName: __RNvMNtCsaNl6UpbT7bw_4core6optionINtB2_6OptionNtNtNtCsht3nMU9UgFu_3std3ffi6os_str8OsStringE7is_someCsdfPaYVxdQQK_18build_script_build, symObjAddr: 0x12B8, symBinAddr: 0x100006A7C, symSize: 0x2C }
  - { offset: 0x107C8, size: 0x8, addend: 0x0, symName: __RNvMNtCsaNl6UpbT7bw_4core6resultINtB2_6ResulthNtNtNtB4_3num5error15TryFromIntErrorE6expectCsdfPaYVxdQQK_18build_script_build, symObjAddr: 0x12E4, symBinAddr: 0x100006AA8, symSize: 0x84 }
  - { offset: 0x1091E, size: 0x8, addend: 0x0, symName: __RNvMNtCsiTraAjBDcu4_5alloc6stringNtB2_6String6as_strCsdfPaYVxdQQK_18build_script_build, symObjAddr: 0x1368, symBinAddr: 0x100006B2C, symSize: 0x78 }
  - { offset: 0x10A53, size: 0x8, addend: 0x0, symName: __RNvMNtCsiTraAjBDcu4_5alloc6stringNtB2_6String8is_emptyCsdfPaYVxdQQK_18build_script_build, symObjAddr: 0x13E0, symBinAddr: 0x100006BA4, symSize: 0x20 }
  - { offset: 0x10AA9, size: 0x8, addend: 0x0, symName: __RNvMs12_NtCsht3nMU9UgFu_3std4pathNtB6_4Path7displayCsdfPaYVxdQQK_18build_script_build, symObjAddr: 0x1400, symBinAddr: 0x100006BC4, symSize: 0x18 }
  - { offset: 0x10AF8, size: 0x8, addend: 0x0, symName: __RNvMs5_NtNtCsht3nMU9UgFu_3std2io5errorNtB5_5Error4kindCsdfPaYVxdQQK_18build_script_build, symObjAddr: 0x1418, symBinAddr: 0x100006BDC, symSize: 0xC0 }
  - { offset: 0x10C7C, size: 0x8, addend: 0x0, symName: __RNvMsI_NtCsht3nMU9UgFu_3std7processNtB5_10ExitStatus7successCsdfPaYVxdQQK_18build_script_build, symObjAddr: 0x14D8, symBinAddr: 0x100006C9C, symSize: 0x70 }
  - { offset: 0x10EE9, size: 0x8, addend: 0x0, symName: __RNvMsb_NtNtNtCsiTraAjBDcu4_5alloc11collections5btree8navigateINtB5_13LazyLeafRangeNtNtNtB7_4node6marker5DyingNtNtNtCsht3nMU9UgFu_3std3ffi6os_str8OsStringINtNtCsaNl6UpbT7bw_4core6option6OptionB1J_EE10take_frontCsdfPaYVxdQQK_18build_script_build, symObjAddr: 0x1548, symBinAddr: 0x100006D0C, symSize: 0x1C4 }
  - { offset: 0x1123C, size: 0x8, addend: 0x0, symName: __RNvMsc_NtNtNtCsiTraAjBDcu4_5alloc11collections5btree8navigateINtB5_13LazyLeafRangeNtNtNtB7_4node6marker5DyingNtNtNtCsht3nMU9UgFu_3std3ffi6os_str8OsStringINtNtCsaNl6UpbT7bw_4core6option6OptionB1J_EE10init_frontCsdfPaYVxdQQK_18build_script_build, symObjAddr: 0x170C, symBinAddr: 0x100006ED0, symSize: 0x1C8 }
  - { offset: 0x113C2, size: 0x8, addend: 0x0, symName: __RNvMsl_NtNtCsht3nMU9UgFu_3std3ffi6os_strNtB5_5OsStr8is_emptyCsdfPaYVxdQQK_18build_script_build, symObjAddr: 0x18D4, symBinAddr: 0x100007098, symSize: 0x1C }
  - { offset: 0x113FA, size: 0x8, addend: 0x0, symName: __RNvMsv_NtCsht3nMU9UgFu_3std7processNtB5_5Stdio4nullCsdfPaYVxdQQK_18build_script_build, symObjAddr: 0x18F0, symBinAddr: 0x1000070B4, symSize: 0x18 }
  - { offset: 0x1141A, size: 0x8, addend: 0x0, symName: __RNvMsx_NtNtNtCsiTraAjBDcu4_5alloc11collections5btree3mapINtB5_8IntoIterNtNtNtCsht3nMU9UgFu_3std3ffi6os_str8OsStringINtNtCsaNl6UpbT7bw_4core6option6OptionB17_EE10dying_nextCsdfPaYVxdQQK_18build_script_build, symObjAddr: 0x1908, symBinAddr: 0x1000070CC, symSize: 0x90 }
  - { offset: 0x11FB8, size: 0x8, addend: 0x0, symName: ___llvm_profile_get_magic, symObjAddr: 0x28, symBinAddr: 0x100008DE8, symSize: 0x14 }
  - { offset: 0x11FD9, size: 0x8, addend: 0x0, symName: ___llvm_profile_get_num_padding_bytes, symObjAddr: 0x44, symBinAddr: 0x100008DFC, symSize: 0xC }
  - { offset: 0x11FE1, size: 0x8, addend: 0x0, symName: ___llvm_profile_get_version, symObjAddr: 0x50, symBinAddr: 0x100008E08, symSize: 0xC }
  - { offset: 0x1200A, size: 0x8, addend: 0x0, symName: ___llvm_profile_get_version, symObjAddr: 0x50, symBinAddr: 0x100008E08, symSize: 0xC }
  - { offset: 0x1207F, size: 0x8, addend: 0x0, symName: ___llvm_profile_is_continuous_mode_enabled, symObjAddr: 0x0, symBinAddr: 0x100008E14, symSize: 0x20 }
  - { offset: 0x1209C, size: 0x8, addend: 0x0, symName: __MergedGlobals, symObjAddr: 0x3E20, symBinAddr: 0x1000651E0, symSize: 0x0 }
  - { offset: 0x120BE, size: 0x8, addend: 0x0, symName: __MergedGlobals, symObjAddr: 0x3E20, symBinAddr: 0x1000651E0, symSize: 0x0 }
  - { offset: 0x120EE, size: 0x8, addend: 0x0, symName: ___llvm_profile_is_continuous_mode_enabled, symObjAddr: 0x0, symBinAddr: 0x100008E14, symSize: 0x20 }
  - { offset: 0x120F6, size: 0x8, addend: 0x0, symName: ___llvm_profile_enable_continuous_mode, symObjAddr: 0x20, symBinAddr: 0x100008E34, symSize: 0x10 }
  - { offset: 0x12106, size: 0x8, addend: 0x0, symName: ___llvm_profile_enable_continuous_mode, symObjAddr: 0x20, symBinAddr: 0x100008E34, symSize: 0x10 }
  - { offset: 0x1210E, size: 0x8, addend: 0x0, symName: ___llvm_profile_disable_continuous_mode, symObjAddr: 0x30, symBinAddr: 0x100008E44, symSize: 0xC }
  - { offset: 0x12123, size: 0x8, addend: 0x0, symName: ___llvm_profile_disable_continuous_mode, symObjAddr: 0x30, symBinAddr: 0x100008E44, symSize: 0xC }
  - { offset: 0x1212B, size: 0x8, addend: 0x0, symName: ___llvm_profile_set_page_size, symObjAddr: 0x3C, symBinAddr: 0x100008E50, symSize: 0xC }
  - { offset: 0x12140, size: 0x8, addend: 0x0, symName: ___llvm_profile_set_page_size, symObjAddr: 0x3C, symBinAddr: 0x100008E50, symSize: 0xC }
  - { offset: 0x12148, size: 0x8, addend: 0x0, symName: ___llvm_profile_get_size_for_buffer, symObjAddr: 0x48, symBinAddr: 0x100008E5C, symSize: 0xC4 }
  - { offset: 0x1216B, size: 0x8, addend: 0x0, symName: ___llvm_profile_get_size_for_buffer, symObjAddr: 0x48, symBinAddr: 0x100008E5C, symSize: 0xC4 }
  - { offset: 0x12173, size: 0x8, addend: 0x0, symName: ___llvm_profile_get_size_for_buffer_internal, symObjAddr: 0x10C, symBinAddr: 0x100008F20, symSize: 0x1C0 }
  - { offset: 0x125D6, size: 0x8, addend: 0x0, symName: ___llvm_profile_get_size_for_buffer_internal, symObjAddr: 0x10C, symBinAddr: 0x100008F20, symSize: 0x1C0 }
  - { offset: 0x125DE, size: 0x8, addend: 0x0, symName: ___llvm_profile_get_num_data, symObjAddr: 0x2CC, symBinAddr: 0x1000090E0, symSize: 0x10 }
  - { offset: 0x129CD, size: 0x8, addend: 0x0, symName: ___llvm_profile_get_num_data, symObjAddr: 0x2CC, symBinAddr: 0x1000090E0, symSize: 0x10 }
  - { offset: 0x129D5, size: 0x8, addend: 0x0, symName: ___llvm_profile_get_data_size, symObjAddr: 0x2DC, symBinAddr: 0x1000090F0, symSize: 0x10 }
  - { offset: 0x12A06, size: 0x8, addend: 0x0, symName: ___llvm_profile_get_data_size, symObjAddr: 0x2DC, symBinAddr: 0x1000090F0, symSize: 0x10 }
  - { offset: 0x12A0E, size: 0x8, addend: 0x0, symName: ___llvm_profile_get_num_vtable, symObjAddr: 0x2EC, symBinAddr: 0x100009100, symSize: 0x18 }
  - { offset: 0x12A32, size: 0x8, addend: 0x0, symName: ___llvm_profile_get_data_size, symObjAddr: 0x2DC, symBinAddr: 0x1000090F0, symSize: 0x10 }
  - { offset: 0x12A64, size: 0x8, addend: 0x0, symName: ___llvm_profile_get_num_vtable, symObjAddr: 0x2EC, symBinAddr: 0x100009100, symSize: 0x18 }
  - { offset: 0x12A6C, size: 0x8, addend: 0x0, symName: ___llvm_profile_get_vtable_section_size, symObjAddr: 0x304, symBinAddr: 0x100009118, symSize: 0x8 }
  - { offset: 0x12ABE, size: 0x8, addend: 0x0, symName: ___llvm_profile_get_vtable_section_size, symObjAddr: 0x304, symBinAddr: 0x100009118, symSize: 0x8 }
  - { offset: 0x12AC6, size: 0x8, addend: 0x0, symName: ___llvm_profile_counter_entry_size, symObjAddr: 0x30C, symBinAddr: 0x100009120, symSize: 0x1C }
  - { offset: 0x12AE7, size: 0x8, addend: 0x0, symName: ___llvm_profile_counter_entry_size, symObjAddr: 0x30C, symBinAddr: 0x100009120, symSize: 0x1C }
  - { offset: 0x12AEF, size: 0x8, addend: 0x0, symName: ___llvm_profile_get_num_counters, symObjAddr: 0x328, symBinAddr: 0x10000913C, symSize: 0x48 }
  - { offset: 0x12AFF, size: 0x8, addend: 0x0, symName: ___llvm_profile_get_num_counters, symObjAddr: 0x328, symBinAddr: 0x10000913C, symSize: 0x48 }
  - { offset: 0x12B07, size: 0x8, addend: 0x0, symName: ___llvm_profile_get_counters_size, symObjAddr: 0x370, symBinAddr: 0x100009184, symSize: 0x5C }
  - { offset: 0x12B6C, size: 0x8, addend: 0x0, symName: ___llvm_profile_get_counters_size, symObjAddr: 0x370, symBinAddr: 0x100009184, symSize: 0x5C }
  - { offset: 0x12B74, size: 0x8, addend: 0x0, symName: ___llvm_profile_get_num_bitmap_bytes, symObjAddr: 0x3CC, symBinAddr: 0x1000091E0, symSize: 0x8 }
  - { offset: 0x12C18, size: 0x8, addend: 0x0, symName: ___llvm_profile_get_num_bitmap_bytes, symObjAddr: 0x3CC, symBinAddr: 0x1000091E0, symSize: 0x8 }
  - { offset: 0x12C20, size: 0x8, addend: 0x0, symName: ___llvm_profile_get_name_size, symObjAddr: 0x3D4, symBinAddr: 0x1000091E8, symSize: 0x8 }
  - { offset: 0x12C41, size: 0x8, addend: 0x0, symName: ___llvm_profile_get_name_size, symObjAddr: 0x3D4, symBinAddr: 0x1000091E8, symSize: 0x8 }
  - { offset: 0x12C49, size: 0x8, addend: 0x0, symName: ___llvm_profile_get_padding_sizes_for_counters, symObjAddr: 0x3DC, symBinAddr: 0x1000091F0, symSize: 0x15C }
  - { offset: 0x12C6A, size: 0x8, addend: 0x0, symName: ___llvm_profile_get_padding_sizes_for_counters, symObjAddr: 0x3DC, symBinAddr: 0x1000091F0, symSize: 0x15C }
  - { offset: 0x12C72, size: 0x8, addend: 0x0, symName: _initBufferWriter, symObjAddr: 0x538, symBinAddr: 0x10000934C, symSize: 0x10 }
  - { offset: 0x12DC6, size: 0x8, addend: 0x0, symName: _initBufferWriter, symObjAddr: 0x538, symBinAddr: 0x10000934C, symSize: 0x10 }
  - { offset: 0x12F30, size: 0x8, addend: 0x0, symName: __MergedGlobals, symObjAddr: 0xA4D8, symBinAddr: 0x1000651F0, symSize: 0x0 }
  - { offset: 0x1304C, size: 0x8, addend: 0x0, symName: __MergedGlobals, symObjAddr: 0xA4D8, symBinAddr: 0x1000651F0, symSize: 0x0 }
  - { offset: 0x1327C, size: 0x8, addend: 0x0, symName: __MergedGlobals, symObjAddr: 0xA4D8, symBinAddr: 0x1000651F0, symSize: 0x0 }
  - { offset: 0x133A1, size: 0x8, addend: 0x0, symName: _getCurFilenameLength, symObjAddr: 0x1C8, symBinAddr: 0x10000935C, symSize: 0x108 }
  - { offset: 0x133A9, size: 0x8, addend: 0x0, symName: _getCurFilename, symObjAddr: 0x2D0, symBinAddr: 0x100009464, symSize: 0x2B8 }
  - { offset: 0x13429, size: 0x8, addend: 0x0, symName: _getCurFilename, symObjAddr: 0x2D0, symBinAddr: 0x100009464, symSize: 0x2B8 }
  - { offset: 0x1364F, size: 0x8, addend: 0x0, symName: _parseAndSetFilename, symObjAddr: 0x688, symBinAddr: 0x10000971C, symSize: 0x4B8 }
  - { offset: 0x13657, size: 0x8, addend: 0x0, symName: ___llvm_profile_initialize, symObjAddr: 0xB40, symBinAddr: 0x100009BD4, symSize: 0xB8 }
  - { offset: 0x1383D, size: 0x8, addend: 0x0, symName: ___llvm_profile_initialize, symObjAddr: 0xB40, symBinAddr: 0x100009BD4, symSize: 0xB8 }
  - { offset: 0x138B9, size: 0x8, addend: 0x0, symName: ___llvm_profile_write_file, symObjAddr: 0xC74, symBinAddr: 0x100009C8C, symSize: 0x1B4 }
  - { offset: 0x138C1, size: 0x8, addend: 0x0, symName: _writeFile, symObjAddr: 0xE28, symBinAddr: 0x100009E40, symSize: 0x294 }
  - { offset: 0x13A12, size: 0x8, addend: 0x0, symName: _writeFile, symObjAddr: 0xE28, symBinAddr: 0x100009E40, symSize: 0x294 }
  - { offset: 0x13B84, size: 0x8, addend: 0x0, symName: _writeFileWithoutReturn, symObjAddr: 0x138C, symBinAddr: 0x10000A0D4, symSize: 0x4 }
  - { offset: 0x13BB9, size: 0x8, addend: 0x0, symName: _getProfileFileSizeForMerging, symObjAddr: 0x1574, symBinAddr: 0x10000A0D8, symSize: 0x110 }
  - { offset: 0x13BC1, size: 0x8, addend: 0x0, symName: _mmapProfileForMerging, symObjAddr: 0x1684, symBinAddr: 0x10000A1E8, symSize: 0xBC }
  - { offset: 0x13BFD, size: 0x8, addend: 0x0, symName: _mmapProfileForMerging, symObjAddr: 0x1684, symBinAddr: 0x10000A1E8, symSize: 0xBC }
  - { offset: 0x13C05, size: 0x8, addend: 0x0, symName: _mmapForContinuousMode, symObjAddr: 0x1740, symBinAddr: 0x10000A2A4, symSize: 0x264 }
  - { offset: 0x13C53, size: 0x8, addend: 0x0, symName: _mmapForContinuousMode, symObjAddr: 0x1740, symBinAddr: 0x10000A2A4, symSize: 0x264 }
  - { offset: 0x13C5B, size: 0x8, addend: 0x0, symName: _fileWriter, symObjAddr: 0x19A4, symBinAddr: 0x10000A508, symSize: 0x140 }
  - { offset: 0x13E19, size: 0x8, addend: 0x0, symName: _fileWriter, symObjAddr: 0x19A4, symBinAddr: 0x10000A508, symSize: 0x140 }
  - { offset: 0x13E21, size: 0x8, addend: 0x0, symName: _truncateCurrentFile, symObjAddr: 0x1AE4, symBinAddr: 0x10000A648, symSize: 0xD8 }
  - { offset: 0x13EE5, size: 0x8, addend: 0x0, symName: _truncateCurrentFile, symObjAddr: 0x1AE4, symBinAddr: 0x10000A648, symSize: 0xD8 }
  - { offset: 0x13EED, size: 0x8, addend: 0x0, symName: _initializeProfileForContinuousMode, symObjAddr: 0x1BBC, symBinAddr: 0x10000A720, symSize: 0x25C }
  - { offset: 0x13F86, size: 0x8, addend: 0x0, symName: _initializeProfileForContinuousMode, symObjAddr: 0x1BBC, symBinAddr: 0x10000A720, symSize: 0x25C }
  - { offset: 0x13F8E, size: 0x8, addend: 0x0, symName: _createProfileDir, symObjAddr: 0x1E18, symBinAddr: 0x10000A97C, symSize: 0xA4 }
  - { offset: 0x14152, size: 0x8, addend: 0x0, symName: _createProfileDir, symObjAddr: 0x1E18, symBinAddr: 0x10000A97C, symSize: 0xA4 }
  - { offset: 0x1415A, size: 0x8, addend: 0x0, symName: _parseAndSetFilename.cold.1, symObjAddr: 0x1EBC, symBinAddr: 0x1000456A0, symSize: 0x24 }
  - { offset: 0x141B5, size: 0x8, addend: 0x0, symName: _parseAndSetFilename.cold.1, symObjAddr: 0x1EBC, symBinAddr: 0x1000456A0, symSize: 0x24 }
  - { offset: 0x141BD, size: 0x8, addend: 0x0, symName: _parseAndSetFilename.cold.2, symObjAddr: 0x1EE0, symBinAddr: 0x1000456C4, symSize: 0x24 }
  - { offset: 0x141DF, size: 0x8, addend: 0x0, symName: _parseAndSetFilename.cold.2, symObjAddr: 0x1EE0, symBinAddr: 0x1000456C4, symSize: 0x24 }
  - { offset: 0x141F9, size: 0x8, addend: 0x0, symName: _parseAndSetFilename.cold.2, symObjAddr: 0x1EE0, symBinAddr: 0x1000456C4, symSize: 0x24 }
  - { offset: 0x14209, size: 0x8, addend: 0x0, symName: _parseAndSetFilename.cold.2, symObjAddr: 0x1EE0, symBinAddr: 0x1000456C4, symSize: 0x24 }
  - { offset: 0x1436E, size: 0x8, addend: 0x0, symName: _lprofProfileDumped, symObjAddr: 0x0, symBinAddr: 0x10000AA20, symSize: 0xC }
  - { offset: 0x1438B, size: 0x8, addend: 0x0, symName: _ProfileDumped, symObjAddr: 0x4E0, symBinAddr: 0x1000652C0, symSize: 0x0 }
  - { offset: 0x1439B, size: 0x8, addend: 0x0, symName: _lprofProfileDumped, symObjAddr: 0x0, symBinAddr: 0x10000AA20, symSize: 0xC }
  - { offset: 0x143E3, size: 0x8, addend: 0x0, symName: _lprofGetLoadModuleSignature, symObjAddr: 0x0, symBinAddr: 0x10000AA2C, symSize: 0xD0 }
  - { offset: 0x14410, size: 0x8, addend: 0x0, symName: _VPMergeHook, symBinAddr: 0x1000651D8, symSize: 0x0 }
  - { offset: 0x14678, size: 0x8, addend: 0x0, symName: _lprofGetLoadModuleSignature, symObjAddr: 0x0, symBinAddr: 0x10000AA2C, symSize: 0xD0 }
  - { offset: 0x14680, size: 0x8, addend: 0x0, symName: ___llvm_profile_check_compatibility, symObjAddr: 0xD0, symBinAddr: 0x10000AAFC, symSize: 0x1CC }
  - { offset: 0x146F0, size: 0x8, addend: 0x0, symName: ___llvm_profile_check_compatibility, symObjAddr: 0xD0, symBinAddr: 0x10000AAFC, symSize: 0x1CC }
  - { offset: 0x146F8, size: 0x8, addend: 0x0, symName: ___llvm_profile_merge_from_buffer, symObjAddr: 0x29C, symBinAddr: 0x10000ACC8, symSize: 0x3E8 }
  - { offset: 0x147D0, size: 0x8, addend: 0x0, symName: ___llvm_profile_merge_from_buffer, symObjAddr: 0x29C, symBinAddr: 0x10000ACC8, symSize: 0x3E8 }
  - { offset: 0x14A42, size: 0x8, addend: 0x0, symName: _lprofMergeValueProfData, symObjAddr: 0x0, symBinAddr: 0x10000B0B0, symSize: 0xF0 }
  - { offset: 0x14A53, size: 0x8, addend: 0x0, symName: _lprofMergeValueProfData, symObjAddr: 0x0, symBinAddr: 0x10000B0B0, symSize: 0xF0 }
  - { offset: 0x14D1E, size: 0x8, addend: 0x0, symName: ___llvm_profile_begin_data, symObjAddr: 0x0, symBinAddr: 0x10000B1A0, symSize: 0xC }
  - { offset: 0x14D3D, size: 0x8, addend: 0x0, symName: _CurrentVNode, symObjAddr: 0xC0, symBinAddr: 0x100064690, symSize: 0x0 }
  - { offset: 0x14DB9, size: 0x8, addend: 0x0, symName: _EndVNode, symObjAddr: 0xC8, symBinAddr: 0x100064698, symSize: 0x0 }
  - { offset: 0x14DC2, size: 0x8, addend: 0x0, symName: ___llvm_profile_begin_data, symObjAddr: 0x0, symBinAddr: 0x10000B1A0, symSize: 0xC }
  - { offset: 0x14DCA, size: 0x8, addend: 0x0, symName: ___llvm_profile_end_data, symObjAddr: 0xC, symBinAddr: 0x10000B1AC, symSize: 0xC }
  - { offset: 0x14DE3, size: 0x8, addend: 0x0, symName: ___llvm_profile_end_data, symObjAddr: 0xC, symBinAddr: 0x10000B1AC, symSize: 0xC }
  - { offset: 0x14DEB, size: 0x8, addend: 0x0, symName: ___llvm_profile_begin_names, symObjAddr: 0x18, symBinAddr: 0x10000B1B8, symSize: 0xC }
  - { offset: 0x14E04, size: 0x8, addend: 0x0, symName: ___llvm_profile_begin_names, symObjAddr: 0x18, symBinAddr: 0x10000B1B8, symSize: 0xC }
  - { offset: 0x14E0C, size: 0x8, addend: 0x0, symName: ___llvm_profile_end_names, symObjAddr: 0x24, symBinAddr: 0x10000B1C4, symSize: 0xC }
  - { offset: 0x14E25, size: 0x8, addend: 0x0, symName: ___llvm_profile_end_names, symObjAddr: 0x24, symBinAddr: 0x10000B1C4, symSize: 0xC }
  - { offset: 0x14E2D, size: 0x8, addend: 0x0, symName: ___llvm_profile_begin_counters, symObjAddr: 0x30, symBinAddr: 0x10000B1D0, symSize: 0xC }
  - { offset: 0x14E46, size: 0x8, addend: 0x0, symName: ___llvm_profile_begin_counters, symObjAddr: 0x30, symBinAddr: 0x10000B1D0, symSize: 0xC }
  - { offset: 0x14E4E, size: 0x8, addend: 0x0, symName: ___llvm_profile_end_counters, symObjAddr: 0x3C, symBinAddr: 0x10000B1DC, symSize: 0xC }
  - { offset: 0x14E67, size: 0x8, addend: 0x0, symName: ___llvm_profile_end_counters, symObjAddr: 0x3C, symBinAddr: 0x10000B1DC, symSize: 0xC }
  - { offset: 0x14E6F, size: 0x8, addend: 0x0, symName: ___llvm_profile_begin_bitmap, symObjAddr: 0x48, symBinAddr: 0x10000B1E8, symSize: 0xC }
  - { offset: 0x14E88, size: 0x8, addend: 0x0, symName: ___llvm_profile_begin_bitmap, symObjAddr: 0x48, symBinAddr: 0x10000B1E8, symSize: 0xC }
  - { offset: 0x14E90, size: 0x8, addend: 0x0, symName: ___llvm_profile_end_bitmap, symObjAddr: 0x54, symBinAddr: 0x10000B1F4, symSize: 0xC }
  - { offset: 0x14EA9, size: 0x8, addend: 0x0, symName: ___llvm_profile_end_bitmap, symObjAddr: 0x54, symBinAddr: 0x10000B1F4, symSize: 0xC }
  - { offset: 0x14EB1, size: 0x8, addend: 0x0, symName: ___llvm_profile_begin_vtables, symObjAddr: 0x60, symBinAddr: 0x10000B200, symSize: 0xC }
  - { offset: 0x14ECA, size: 0x8, addend: 0x0, symName: ___llvm_profile_begin_vtables, symObjAddr: 0x60, symBinAddr: 0x10000B200, symSize: 0xC }
  - { offset: 0x14ED2, size: 0x8, addend: 0x0, symName: ___llvm_profile_end_vtables, symObjAddr: 0x6C, symBinAddr: 0x10000B20C, symSize: 0xC }
  - { offset: 0x14EEB, size: 0x8, addend: 0x0, symName: ___llvm_profile_end_vtables, symObjAddr: 0x6C, symBinAddr: 0x10000B20C, symSize: 0xC }
  - { offset: 0x14EF3, size: 0x8, addend: 0x0, symName: ___llvm_profile_begin_vtabnames, symObjAddr: 0x78, symBinAddr: 0x10000B218, symSize: 0xC }
  - { offset: 0x14F0C, size: 0x8, addend: 0x0, symName: ___llvm_profile_begin_vtabnames, symObjAddr: 0x78, symBinAddr: 0x10000B218, symSize: 0xC }
  - { offset: 0x14F14, size: 0x8, addend: 0x0, symName: ___llvm_profile_end_vtabnames, symObjAddr: 0x84, symBinAddr: 0x10000B224, symSize: 0xC }
  - { offset: 0x14F2D, size: 0x8, addend: 0x0, symName: ___llvm_profile_end_vtabnames, symObjAddr: 0x84, symBinAddr: 0x10000B224, symSize: 0xC }
  - { offset: 0x14F4E, size: 0x8, addend: 0x0, symName: ___llvm_profile_begin_vnodes, symObjAddr: 0x9C, symBinAddr: 0x10000B230, symSize: 0xC }
  - { offset: 0x14F56, size: 0x8, addend: 0x0, symName: ___llvm_profile_end_vnodes, symObjAddr: 0xA8, symBinAddr: 0x10000B23C, symSize: 0xC }
  - { offset: 0x14F6F, size: 0x8, addend: 0x0, symName: ___llvm_profile_end_vnodes, symObjAddr: 0xA8, symBinAddr: 0x10000B23C, symSize: 0xC }
  - { offset: 0x14F77, size: 0x8, addend: 0x0, symName: ___llvm_write_binary_ids, symObjAddr: 0xB4, symBinAddr: 0x10000B248, symSize: 0x8 }
  - { offset: 0x14F90, size: 0x8, addend: 0x0, symName: ___llvm_write_binary_ids, symObjAddr: 0xB4, symBinAddr: 0x10000B248, symSize: 0x8 }
  - { offset: 0x15216, size: 0x8, addend: 0x0, symName: __GLOBAL__sub_I_InstrProfilingRuntime.cpp, symObjAddr: 0x0, symBinAddr: 0x10000B250, symSize: 0x18 }
  - { offset: 0x15239, size: 0x8, addend: 0x0, symName: ___llvm_profile_runtime, symObjAddr: 0x590, symBinAddr: 0x100065174, symSize: 0x0 }
  - { offset: 0x15269, size: 0x8, addend: 0x0, symName: __GLOBAL__sub_I_InstrProfilingRuntime.cpp, symObjAddr: 0x0, symBinAddr: 0x10000B250, symSize: 0x18 }
  - { offset: 0x152E5, size: 0x8, addend: 0x0, symName: ___llvm_profile_recursive_mkdir, symObjAddr: 0x0, symBinAddr: 0x10000B268, symSize: 0x58 }
  - { offset: 0x152ED, size: 0x8, addend: 0x0, symName: _lprofDirMode, symObjAddr: 0x5AC, symBinAddr: 0x1000646A0, symSize: 0x0 }
  - { offset: 0x15304, size: 0x8, addend: 0x0, symName: _lprofDirMode, symObjAddr: 0x5AC, symBinAddr: 0x1000646A0, symSize: 0x0 }
  - { offset: 0x15339, size: 0x8, addend: 0x0, symName: ___llvm_profile_recursive_mkdir, symObjAddr: 0x0, symBinAddr: 0x10000B268, symSize: 0x58 }
  - { offset: 0x153B8, size: 0x8, addend: 0x0, symName: _lprofGetHostName, symObjAddr: 0x70, symBinAddr: 0x10000B2C0, symSize: 0x80 }
  - { offset: 0x154ED, size: 0x8, addend: 0x0, symName: _lprofLockFileHandle, symObjAddr: 0x208, symBinAddr: 0x10000B340, symSize: 0x90 }
  - { offset: 0x154F5, size: 0x8, addend: 0x0, symName: _lprofUnlockFileHandle, symObjAddr: 0x298, symBinAddr: 0x10000B3D0, symSize: 0x90 }
  - { offset: 0x1557B, size: 0x8, addend: 0x0, symName: _lprofUnlockFileHandle, symObjAddr: 0x298, symBinAddr: 0x10000B3D0, symSize: 0x90 }
  - { offset: 0x15583, size: 0x8, addend: 0x0, symName: _lprofOpenFileEx, symObjAddr: 0x328, symBinAddr: 0x10000B460, symSize: 0xD0 }
  - { offset: 0x155E3, size: 0x8, addend: 0x0, symName: _lprofOpenFileEx, symObjAddr: 0x328, symBinAddr: 0x10000B460, symSize: 0xD0 }
  - { offset: 0x1565B, size: 0x8, addend: 0x0, symName: _lprofFindFirstDirSeparator, symObjAddr: 0x538, symBinAddr: 0x10000B530, symSize: 0x8 }
  - { offset: 0x1569B, size: 0x8, addend: 0x0, symName: _lprofSuspendSigKill, symObjAddr: 0x548, symBinAddr: 0x10000B538, symSize: 0x8 }
  - { offset: 0x156A3, size: 0x8, addend: 0x0, symName: _lprofRestoreSigKill, symObjAddr: 0x550, symBinAddr: 0x10000B540, symSize: 0x4 }
  - { offset: 0x156BE, size: 0x8, addend: 0x0, symName: _lprofRestoreSigKill, symObjAddr: 0x550, symBinAddr: 0x10000B540, symSize: 0x4 }
  - { offset: 0x156DD, size: 0x8, addend: 0x0, symName: _lprofAtExit, symObjAddr: 0x5A8, symBinAddr: 0x10000B544, symSize: 0x4 }
  - { offset: 0x156E5, size: 0x8, addend: 0x0, symName: _lprofDirMode, symObjAddr: 0x5AC, symBinAddr: 0x1000646A0, symSize: 0x0 }
  - { offset: 0x159AF, size: 0x8, addend: 0x0, symName: _getValueProfRecordHeaderSize, symObjAddr: 0x0, symBinAddr: 0x10000B548, symSize: 0xC }
  - { offset: 0x159CE, size: 0x8, addend: 0x0, symName: _VPMaxNumValsPerSite, symObjAddr: 0x1740, symBinAddr: 0x1000646A8, symSize: 0x0 }
  - { offset: 0x15A63, size: 0x8, addend: 0x0, symName: __MergedGlobals, symObjAddr: 0xEF50, symBinAddr: 0x1000652F0, symSize: 0x0 }
  - { offset: 0x15A8A, size: 0x8, addend: 0x0, symName: __MergedGlobals, symObjAddr: 0xEF50, symBinAddr: 0x1000652F0, symSize: 0x0 }
  - { offset: 0x15AA1, size: 0x8, addend: 0x0, symName: __MergedGlobals, symObjAddr: 0xEF50, symBinAddr: 0x1000652F0, symSize: 0x0 }
  - { offset: 0x15AC0, size: 0x8, addend: 0x0, symName: _TheVPDataReader, symObjAddr: 0x1748, symBinAddr: 0x1000646B0, symSize: 0x0 }
  - { offset: 0x15D60, size: 0x8, addend: 0x0, symName: _RTRecord, symObjAddr: 0xEF28, symBinAddr: 0x1000652C8, symSize: 0x0 }
  - { offset: 0x15F54, size: 0x8, addend: 0x0, symName: _getValueProfRecordHeaderSize, symObjAddr: 0x0, symBinAddr: 0x10000B548, symSize: 0xC }
  - { offset: 0x15FAA, size: 0x8, addend: 0x0, symName: _getValueProfRecordValueData, symObjAddr: 0x1C, symBinAddr: 0x10000B554, symSize: 0x14 }
  - { offset: 0x16058, size: 0x8, addend: 0x0, symName: _getValueProfRecordNext, symObjAddr: 0x1B4, symBinAddr: 0x10000B568, symSize: 0x1A4 }
  - { offset: 0x16060, size: 0x8, addend: 0x0, symName: _getFirstValueProfRecord, symObjAddr: 0x358, symBinAddr: 0x10000B70C, symSize: 0x8 }
  - { offset: 0x160C7, size: 0x8, addend: 0x0, symName: _getFirstValueProfRecord, symObjAddr: 0x358, symBinAddr: 0x10000B70C, symSize: 0x8 }
  - { offset: 0x161A9, size: 0x8, addend: 0x0, symName: _lprofSetupValueProfiler, symObjAddr: 0xB38, symBinAddr: 0x10000B714, symSize: 0x64 }
  - { offset: 0x162BB, size: 0x8, addend: 0x0, symName: ___llvm_profile_instrument_target_value, symObjAddr: 0xE30, symBinAddr: 0x10000B778, symSize: 0x290 }
  - { offset: 0x163D9, size: 0x8, addend: 0x0, symName: _lprofGetVPDataReader, symObjAddr: 0x1108, symBinAddr: 0x10000BA08, symSize: 0xC }
  - { offset: 0x163E1, size: 0x8, addend: 0x0, symName: _initializeValueProfRuntimeRecord, symObjAddr: 0x1114, symBinAddr: 0x10000BA14, symSize: 0x210 }
  - { offset: 0x163FB, size: 0x8, addend: 0x0, symName: _initializeValueProfRuntimeRecord, symObjAddr: 0x1114, symBinAddr: 0x10000BA14, symSize: 0x210 }
  - { offset: 0x16403, size: 0x8, addend: 0x0, symName: _getNumValueDataForSiteWrapper, symObjAddr: 0x1324, symBinAddr: 0x10000BC24, symSize: 0x14 }
  - { offset: 0x16515, size: 0x8, addend: 0x0, symName: _getNumValueDataForSiteWrapper, symObjAddr: 0x1324, symBinAddr: 0x10000BC24, symSize: 0x14 }
  - { offset: 0x1651D, size: 0x8, addend: 0x0, symName: _getValueProfDataSizeWrapper, symObjAddr: 0x1338, symBinAddr: 0x10000BC38, symSize: 0xDC }
  - { offset: 0x1655B, size: 0x8, addend: 0x0, symName: _getNumValueDataForSiteWrapper, symObjAddr: 0x1324, symBinAddr: 0x10000BC24, symSize: 0x14 }
  - { offset: 0x16580, size: 0x8, addend: 0x0, symName: _getValueProfDataSizeWrapper, symObjAddr: 0x1338, symBinAddr: 0x10000BC38, symSize: 0xDC }
  - { offset: 0x16588, size: 0x8, addend: 0x0, symName: _getNextNValueData, symObjAddr: 0x1414, symBinAddr: 0x10000BD14, symSize: 0x44 }
  - { offset: 0x1661E, size: 0x8, addend: 0x0, symName: _getNextNValueData, symObjAddr: 0x1414, symBinAddr: 0x10000BD14, symSize: 0x44 }
  - { offset: 0x16626, size: 0x8, addend: 0x0, symName: _getNumValueSitesRT, symObjAddr: 0x1458, symBinAddr: 0x10000BD58, symSize: 0x10 }
  - { offset: 0x166B1, size: 0x8, addend: 0x0, symName: _getNumValueSitesRT, symObjAddr: 0x1458, symBinAddr: 0x10000BD58, symSize: 0x10 }
  - { offset: 0x166B9, size: 0x8, addend: 0x0, symName: _getNumValueDataRT, symObjAddr: 0x1468, symBinAddr: 0x10000BD68, symSize: 0x190 }
  - { offset: 0x166F3, size: 0x8, addend: 0x0, symName: _getNumValueDataRT, symObjAddr: 0x1468, symBinAddr: 0x10000BD68, symSize: 0x190 }
  - { offset: 0x16766, size: 0x8, addend: 0x0, symName: ___llvm_profile_instrument_target_value.cold.1, symObjAddr: 0x161C, symBinAddr: 0x1000456E8, symSize: 0x24 }
  - { offset: 0x167F6, size: 0x8, addend: 0x0, symName: ___llvm_profile_raw_version, symObjAddr: 0x0, symBinAddr: 0x1000646E0, symSize: 0x0 }
  - { offset: 0x16838, size: 0x8, addend: 0x0, symName: _lprofBufferWriter, symObjAddr: 0x0, symBinAddr: 0x10000BEF8, symSize: 0x6C }
  - { offset: 0x16857, size: 0x8, addend: 0x0, symName: _FreeHook, symObjAddr: 0x4F30, symBinAddr: 0x100065178, symSize: 0x0 }
  - { offset: 0x1687D, size: 0x8, addend: 0x0, symName: _DynamicBufferIOBuffer, symObjAddr: 0x4F38, symBinAddr: 0x100065180, symSize: 0x0 }
  - { offset: 0x168AB, size: 0x8, addend: 0x0, symName: _VPBufferSize, symObjAddr: 0x4F40, symBinAddr: 0x100065188, symSize: 0x0 }
  - { offset: 0x168D2, size: 0x8, addend: 0x0, symName: __MergedGlobals, symObjAddr: 0x6F48, symBinAddr: 0x100067300, symSize: 0x0 }
  - { offset: 0x16A1C, size: 0x8, addend: 0x0, symName: _BufferIOBuffer, symObjAddr: 0x4F48, symBinAddr: 0x100065300, symSize: 0x0 }
  - { offset: 0x16A46, size: 0x8, addend: 0x0, symName: __MergedGlobals, symObjAddr: 0x6F48, symBinAddr: 0x100067300, symSize: 0x0 }
  - { offset: 0x16AC2, size: 0x8, addend: 0x0, symName: _lprofBufferWriter, symObjAddr: 0x0, symBinAddr: 0x10000BEF8, symSize: 0x6C }
  - { offset: 0x16BDA, size: 0x8, addend: 0x0, symName: _lprofBufferIOWrite, symObjAddr: 0x100, symBinAddr: 0x10000BF64, symSize: 0x134 }
  - { offset: 0x16CDB, size: 0x8, addend: 0x0, symName: _lprofWriteData, symObjAddr: 0x2F4, symBinAddr: 0x10000C098, symSize: 0xD4 }
  - { offset: 0x16CE3, size: 0x8, addend: 0x0, symName: _lprofWriteDataImpl, symObjAddr: 0x3C8, symBinAddr: 0x10000C16C, symSize: 0x46C }
  - { offset: 0x17108, size: 0x8, addend: 0x0, symName: _lprofWriteDataImpl, symObjAddr: 0x3C8, symBinAddr: 0x10000C16C, symSize: 0x46C }
  - { offset: 0x17423, size: 0x8, addend: 0x0, symName: _writeOneValueProfData, symObjAddr: 0x8C0, symBinAddr: 0x10000C5D8, symSize: 0x4A8 }
  - { offset: 0x176E8, size: 0x8, addend: 0x0, symName: '__ZN108_$LT$alloc..collections..btree..map..Iter$LT$K$C$V$GT$$u20$as$u20$core..iter..traits..iterator..Iterator$GT$4next17hd09f2d96589fb435E', symObjAddr: 0x0, symBinAddr: 0x10000CA80, symSize: 0x13C }
  - { offset: 0x17BE6, size: 0x8, addend: 0x0, symName: '__ZN5alloc11collections5btree4node208Handle$LT$alloc..collections..btree..node..NodeRef$LT$alloc..collections..btree..node..marker..Mut$C$K$C$V$C$alloc..collections..btree..node..marker..Leaf$GT$$C$alloc..collections..btree..node..marker..KV$GT$5split17h6d01fe3bbe152ad6E', symObjAddr: 0x114AC, symBinAddr: 0x10001951C, symSize: 0x1C0 }
  - { offset: 0x18054, size: 0x8, addend: 0x0, symName: '__ZN5alloc11collections5btree4node208Handle$LT$alloc..collections..btree..node..NodeRef$LT$alloc..collections..btree..node..marker..Mut$C$K$C$V$C$alloc..collections..btree..node..marker..Leaf$GT$$C$alloc..collections..btree..node..marker..KV$GT$5split17ha09fe2f6ae84e77eE', symObjAddr: 0x1166C, symBinAddr: 0x1000196DC, symSize: 0x164 }
  - { offset: 0x1840F, size: 0x8, addend: 0x0, symName: '__ZN5alloc11collections5btree4node208Handle$LT$alloc..collections..btree..node..NodeRef$LT$alloc..collections..btree..node..marker..Mut$C$K$C$V$C$alloc..collections..btree..node..marker..Leaf$GT$$C$alloc..collections..btree..node..marker..KV$GT$5split17hc7dc550ac250e0f6E', symObjAddr: 0x117D0, symBinAddr: 0x100019840, symSize: 0x1CC }
  - { offset: 0x188A6, size: 0x8, addend: 0x0, symName: '__ZN5alloc11collections5btree4node212Handle$LT$alloc..collections..btree..node..NodeRef$LT$alloc..collections..btree..node..marker..Mut$C$K$C$V$C$alloc..collections..btree..node..marker..Internal$GT$$C$alloc..collections..btree..node..marker..KV$GT$5split17h4416f9f8a3a2a225E', symObjAddr: 0x1199C, symBinAddr: 0x100019A0C, symSize: 0x298 }
  - { offset: 0x18F67, size: 0x8, addend: 0x0, symName: '__ZN5alloc11collections5btree4node212Handle$LT$alloc..collections..btree..node..NodeRef$LT$alloc..collections..btree..node..marker..Mut$C$K$C$V$C$alloc..collections..btree..node..marker..Internal$GT$$C$alloc..collections..btree..node..marker..KV$GT$5split17h8a06bb5830746347E', symObjAddr: 0x11C34, symBinAddr: 0x100019CA4, symSize: 0x218 }
  - { offset: 0x194F7, size: 0x8, addend: 0x0, symName: '__ZN5alloc11collections5btree4node212Handle$LT$alloc..collections..btree..node..NodeRef$LT$alloc..collections..btree..node..marker..Mut$C$K$C$V$C$alloc..collections..btree..node..marker..Internal$GT$$C$alloc..collections..btree..node..marker..KV$GT$5split17hb4d18c041628fb6dE', symObjAddr: 0x11E4C, symBinAddr: 0x100019EBC, symSize: 0x28C }
  - { offset: 0x19BC7, size: 0x8, addend: 0x0, symName: '__ZN5alloc11collections5btree6remove259_$LT$impl$u20$alloc..collections..btree..node..Handle$LT$alloc..collections..btree..node..NodeRef$LT$alloc..collections..btree..node..marker..Mut$C$K$C$V$C$alloc..collections..btree..node..marker..Leaf$GT$$C$alloc..collections..btree..node..marker..KV$GT$$GT$14remove_leaf_kv17h6c3ea96fd2888b8dE', symObjAddr: 0x12EA8, symBinAddr: 0x10001AF18, symSize: 0x570 }
  - { offset: 0x1A806, size: 0x8, addend: 0x0, symName: '__ZN5alloc11collections5btree6remove259_$LT$impl$u20$alloc..collections..btree..node..Handle$LT$alloc..collections..btree..node..NodeRef$LT$alloc..collections..btree..node..marker..Mut$C$K$C$V$C$alloc..collections..btree..node..marker..Leaf$GT$$C$alloc..collections..btree..node..marker..KV$GT$$GT$14remove_leaf_kv17h73689d62ad792e56E', symObjAddr: 0x13418, symBinAddr: 0x10001B488, symSize: 0x570 }
  - { offset: 0x1B445, size: 0x8, addend: 0x0, symName: '__ZN5alloc11collections5btree6remove259_$LT$impl$u20$alloc..collections..btree..node..Handle$LT$alloc..collections..btree..node..NodeRef$LT$alloc..collections..btree..node..marker..Mut$C$K$C$V$C$alloc..collections..btree..node..marker..Leaf$GT$$C$alloc..collections..btree..node..marker..KV$GT$$GT$14remove_leaf_kv17he90c15582b4564a9E', symObjAddr: 0x13988, symBinAddr: 0x10001B9F8, symSize: 0x52C }
  - { offset: 0x1D6A5, size: 0x8, addend: 0x0, symName: '__ZN5alloc11collections5btree4node29BalancingContext$LT$K$C$V$GT$15bulk_steal_left17h75e64982df7e0642E', symObjAddr: 0x120D8, symBinAddr: 0x10001A148, symSize: 0x284 }
  - { offset: 0x1DC0D, size: 0x8, addend: 0x0, symName: '__ZN5alloc11collections5btree4node29BalancingContext$LT$K$C$V$GT$15bulk_steal_left17hbba92f5d6a683d2bE', symObjAddr: 0x1235C, symBinAddr: 0x10001A3CC, symSize: 0x1F4 }
  - { offset: 0x1E13D, size: 0x8, addend: 0x0, symName: '__ZN5alloc11collections5btree4node29BalancingContext$LT$K$C$V$GT$16bulk_steal_right17h38344368ffc8c5cbE', symObjAddr: 0x12550, symBinAddr: 0x10001A5C0, symSize: 0x2CC }
  - { offset: 0x1E75A, size: 0x8, addend: 0x0, symName: '__ZN5alloc11collections5btree4node29BalancingContext$LT$K$C$V$GT$16bulk_steal_right17hbe50625095942a6eE', symObjAddr: 0x1281C, symBinAddr: 0x10001A88C, symSize: 0x240 }
  - { offset: 0x1EDA8, size: 0x8, addend: 0x0, symName: '__ZN5alloc11collections5btree4node29BalancingContext$LT$K$C$V$GT$8do_merge17h4b602dda9210b2bdE', symObjAddr: 0x12A5C, symBinAddr: 0x10001AACC, symSize: 0x258 }
  - { offset: 0x1F3E0, size: 0x8, addend: 0x0, symName: '__ZN5alloc11collections5btree4node29BalancingContext$LT$K$C$V$GT$8do_merge17h745f74eea44b50d0E', symObjAddr: 0x12CB4, symBinAddr: 0x10001AD24, symSize: 0x1F4 }
  - { offset: 0x1FC76, size: 0x8, addend: 0x0, symName: '__ZN108_$LT$alloc..collections..btree..map..Iter$LT$K$C$V$GT$$u20$as$u20$core..iter..traits..iterator..Iterator$GT$4next17hd09f2d96589fb435E', symObjAddr: 0x0, symBinAddr: 0x10000CA80, symSize: 0x13C }
  - { offset: 0x1FFCC, size: 0x8, addend: 0x0, symName: '__ZN5alloc11collections5btree3map25BTreeMap$LT$K$C$V$C$A$GT$6insert17h1b51d01431bfbb0bE', symObjAddr: 0xFA98, symBinAddr: 0x100017B08, symSize: 0x9B0 }
  - { offset: 0x217D5, size: 0x8, addend: 0x0, symName: '__ZN5alloc11collections5btree3map25BTreeMap$LT$K$C$V$C$A$GT$6insert17hc2a6d914d80639a1E', symObjAddr: 0x10448, symBinAddr: 0x1000184B8, symSize: 0x9EC }
  - { offset: 0x231EF, size: 0x8, addend: 0x0, symName: '__ZN5alloc11collections5btree3map25IntoIter$LT$K$C$V$C$A$GT$10dying_next17h14374c324bbb3051E', symObjAddr: 0x10E34, symBinAddr: 0x100018EA4, symSize: 0x228 }
  - { offset: 0x23595, size: 0x8, addend: 0x0, symName: '__ZN5alloc11collections5btree3map25IntoIter$LT$K$C$V$C$A$GT$10dying_next17ha97a3f555acf7d48E', symObjAddr: 0x1105C, symBinAddr: 0x1000190CC, symSize: 0x228 }
  - { offset: 0x2393B, size: 0x8, addend: 0x0, symName: '__ZN5alloc11collections5btree3map25IntoIter$LT$K$C$V$C$A$GT$10dying_next17hb30339cd7068d6cfE', symObjAddr: 0x11284, symBinAddr: 0x1000192F4, symSize: 0x228 }
  - { offset: 0x24C1D, size: 0x8, addend: 0x0, symName: '__ZN5alloc7raw_vec19RawVec$LT$T$C$A$GT$8grow_one17h06cf0433792cf41cE', symObjAddr: 0x14498, symBinAddr: 0x10001C2E4, symSize: 0xB4 }
  - { offset: 0x24D33, size: 0x8, addend: 0x0, symName: '__ZN5alloc7raw_vec19RawVec$LT$T$C$A$GT$8grow_one17h0ff3cfc767e809c5E', symObjAddr: 0x1454C, symBinAddr: 0x10001C398, symSize: 0xC4 }
  - { offset: 0x24E49, size: 0x8, addend: 0x0, symName: '__ZN5alloc7raw_vec19RawVec$LT$T$C$A$GT$8grow_one17h2a7a88545eefe0b5E', symObjAddr: 0x14610, symBinAddr: 0x10001C45C, symSize: 0xC4 }
  - { offset: 0x24F5F, size: 0x8, addend: 0x0, symName: '__ZN5alloc7raw_vec19RawVec$LT$T$C$A$GT$8grow_one17h33ef86bd5bc7babfE', symObjAddr: 0x146D4, symBinAddr: 0x10001C520, symSize: 0xB4 }
  - { offset: 0x25075, size: 0x8, addend: 0x0, symName: '__ZN5alloc7raw_vec19RawVec$LT$T$C$A$GT$8grow_one17h4794d3730a636672E', symObjAddr: 0x1484C, symBinAddr: 0x10001C5D4, symSize: 0xC4 }
  - { offset: 0x2518B, size: 0x8, addend: 0x0, symName: '__ZN5alloc7raw_vec19RawVec$LT$T$C$A$GT$8grow_one17h4b7a36f6d62b1585E', symObjAddr: 0x14910, symBinAddr: 0x10001C698, symSize: 0xB4 }
  - { offset: 0x252A1, size: 0x8, addend: 0x0, symName: '__ZN5alloc7raw_vec19RawVec$LT$T$C$A$GT$8grow_one17h4ec275d7687f1e24E', symObjAddr: 0x149C4, symBinAddr: 0x10001C74C, symSize: 0xC4 }
  - { offset: 0x253B7, size: 0x8, addend: 0x0, symName: '__ZN5alloc7raw_vec19RawVec$LT$T$C$A$GT$8grow_one17h755f70e15600008eE', symObjAddr: 0x14A88, symBinAddr: 0x10001C810, symSize: 0xB4 }
  - { offset: 0x254CD, size: 0x8, addend: 0x0, symName: '__ZN5alloc7raw_vec19RawVec$LT$T$C$A$GT$8grow_one17h9a9a76236db74635E', symObjAddr: 0x14B3C, symBinAddr: 0x10001C8C4, symSize: 0xC0 }
  - { offset: 0x255E3, size: 0x8, addend: 0x0, symName: '__ZN5alloc7raw_vec19RawVec$LT$T$C$A$GT$8grow_one17hbdf039f48f951a6eE', symObjAddr: 0x14BFC, symBinAddr: 0x10001C984, symSize: 0xC0 }
  - { offset: 0x256F9, size: 0x8, addend: 0x0, symName: '__ZN5alloc7raw_vec19RawVec$LT$T$C$A$GT$8grow_one17hf24d0ccf3cd16788E', symObjAddr: 0x14CBC, symBinAddr: 0x10001CA44, symSize: 0xC0 }
  - { offset: 0x25DA4, size: 0x8, addend: 0x0, symName: __ZN5alloc7raw_vec11finish_grow17h2d571ea7b67f06b7E, symObjAddr: 0x14418, symBinAddr: 0x1000486CC, symSize: 0x80 }
  - { offset: 0x25E3F, size: 0x8, addend: 0x0, symName: '__ZN5alloc7raw_vec20RawVecInner$LT$A$GT$7reserve21do_reserve_and_handle17h4b2c29e8db0b9268E', symObjAddr: 0x14D7C, symBinAddr: 0x10004874C, symSize: 0xF0 }
  - { offset: 0x270B5, size: 0x8, addend: 0x0, symName: __ZN5alloc5alloc15exchange_malloc17h9685023251c359e7E, symObjAddr: 0x143CC, symBinAddr: 0x10001C298, symSize: 0x4C }
  - { offset: 0x27183, size: 0x8, addend: 0x0, symName: '__ZN5alloc4sync16Arc$LT$T$C$A$GT$9drop_slow17h568ad2c88e43a2e4E', symObjAddr: 0x13FE4, symBinAddr: 0x10001BF24, symSize: 0x34 }
  - { offset: 0x27260, size: 0x8, addend: 0x0, symName: '__ZN5alloc4sync16Arc$LT$T$C$A$GT$9drop_slow17h568f10379158be3aE', symObjAddr: 0x14018, symBinAddr: 0x10001BF58, symSize: 0xC0 }
  - { offset: 0x27585, size: 0x8, addend: 0x0, symName: '__ZN5alloc4sync16Arc$LT$T$C$A$GT$9drop_slow17h74c044505d97b8fcE', symObjAddr: 0x140D8, symBinAddr: 0x10001C018, symSize: 0x78 }
  - { offset: 0x27751, size: 0x8, addend: 0x0, symName: '__ZN5alloc4sync16Arc$LT$T$C$A$GT$9drop_slow17h8f2220b00493c4e4E', symObjAddr: 0x14150, symBinAddr: 0x10001C090, symSize: 0xA0 }
  - { offset: 0x27A49, size: 0x8, addend: 0x0, symName: '__ZN5alloc4sync16Arc$LT$T$C$A$GT$9drop_slow17hb6a5023acd32b46fE', symObjAddr: 0x14264, symBinAddr: 0x10001C130, symSize: 0xD0 }
  - { offset: 0x27C5E, size: 0x8, addend: 0x0, symName: '__ZN5alloc4sync16Arc$LT$T$C$A$GT$9drop_slow17hd5e62bd79ab5d7f0E', symObjAddr: 0x14334, symBinAddr: 0x10001C200, symSize: 0x98 }
  - { offset: 0x28191, size: 0x8, addend: 0x0, symName: '__ZN64_$LT$alloc..ffi..c_str..NulError$u20$as$u20$core..fmt..Debug$GT$3fmt17hb25a36ba1a7f247bE', symObjAddr: 0x1BBE4, symBinAddr: 0x10002387C, symSize: 0x4C }
  - { offset: 0x2866B, size: 0x8, addend: 0x0, symName: '__ZN58_$LT$alloc..string..String$u20$as$u20$core..fmt..Debug$GT$3fmt17hf1e461d83be89b72E', symObjAddr: 0xF8D0, symBinAddr: 0x100017940, symSize: 0x10 }
  - { offset: 0x28726, size: 0x8, addend: 0x0, symName: '__ZN58_$LT$alloc..string..String$u20$as$u20$core..fmt..Write$GT$10write_char17h5afa657ba1086fe6E', symObjAddr: 0xF8E0, symBinAddr: 0x100017950, symSize: 0x138 }
  - { offset: 0x288C9, size: 0x8, addend: 0x0, symName: '__ZN58_$LT$alloc..string..String$u20$as$u20$core..fmt..Write$GT$9write_str17hba5566b7261b3df3E', symObjAddr: 0xFA18, symBinAddr: 0x100017A88, symSize: 0x80 }
  - { offset: 0x28A22, size: 0x8, addend: 0x0, symName: '__ZN60_$LT$alloc..string..String$u20$as$u20$core..fmt..Display$GT$3fmt17h55315b95f551f900E', symObjAddr: 0x1BBD4, symBinAddr: 0x10002386C, symSize: 0x10 }
  - { offset: 0x2A52B, size: 0x8, addend: 0x0, symName: '__ZN4core3ptr107drop_in_place$LT$alloc..vec..Vec$LT$$LP$std..ffi..os_str..OsString$C$std..ffi..os_str..OsString$RP$$GT$$GT$17h54613c9c01320632E', symObjAddr: 0x1C64, symBinAddr: 0x10000D898, symSize: 0x94 }
  - { offset: 0x2A75E, size: 0x8, addend: 0x0, symName: '__ZN4core3ptr107drop_in_place$LT$core..pin..Pin$LT$alloc..boxed..Box$LT$std..sys..pal..unix..sync..mutex..Mutex$GT$$GT$$GT$17h3aeea96dd755cfb4E', symObjAddr: 0x1CF8, symBinAddr: 0x10000D92C, symSize: 0x2C }
  - { offset: 0x2A803, size: 0x8, addend: 0x0, symName: '__ZN4core3ptr112drop_in_place$LT$$LP$std..ffi..os_str..OsString$C$core..option..Option$LT$std..ffi..os_str..OsString$GT$$RP$$GT$17hde53fbf4695a9e14E', symObjAddr: 0x1D24, symBinAddr: 0x10000D958, symSize: 0x58 }
  - { offset: 0x2A978, size: 0x8, addend: 0x0, symName: '__ZN4core3ptr119drop_in_place$LT$std..io..default_write_fmt..Adapter$LT$std..io..cursor..Cursor$LT$$RF$mut$u20$$u5b$u8$u5d$$GT$$GT$$GT$17h8294f296a7dc0264E', symObjAddr: 0x1DA8, symBinAddr: 0x10000D9B0, symSize: 0x10 }
  - { offset: 0x2A98F, size: 0x8, addend: 0x0, symName: '__ZN4core3ptr119drop_in_place$LT$std..io..default_write_fmt..Adapter$LT$std..io..cursor..Cursor$LT$$RF$mut$u20$$u5b$u8$u5d$$GT$$GT$$GT$17h8294f296a7dc0264E', symObjAddr: 0x1DA8, symBinAddr: 0x10000D9B0, symSize: 0x10 }
  - { offset: 0x2A9B0, size: 0x8, addend: 0x0, symName: '__ZN4core3ptr123drop_in_place$LT$addr2line..Context$LT$gimli..read..endian_slice..EndianSlice$LT$gimli..endianity..LittleEndian$GT$$GT$$GT$17h86eb599b9bd6b6b4E', symObjAddr: 0x1DB8, symBinAddr: 0x10000D9C0, symSize: 0x70 }
  - { offset: 0x2AA85, size: 0x8, addend: 0x0, symName: '__ZN4core3ptr124drop_in_place$LT$alloc..collections..btree..map..BTreeMap$LT$std..ffi..os_str..OsString$C$std..ffi..os_str..OsString$GT$$GT$17h3839acf51fe12fe1E', symObjAddr: 0x1E28, symBinAddr: 0x10000DA30, symSize: 0xB8 }
  - { offset: 0x2ACB8, size: 0x8, addend: 0x0, symName: '__ZN4core3ptr124drop_in_place$LT$alloc..collections..btree..map..IntoIter$LT$std..ffi..os_str..OsString$C$std..ffi..os_str..OsString$GT$$GT$17h5df7ec7eeb3dc239E', symObjAddr: 0x1EE0, symBinAddr: 0x10000DAE8, symSize: 0x90 }
  - { offset: 0x2AEC1, size: 0x8, addend: 0x0, symName: '__ZN4core3ptr128drop_in_place$LT$core..result..Result$LT$$RF$std..thread..Thread$C$$LP$$RF$std..thread..Thread$C$std..thread..Thread$RP$$GT$$GT$17h962b0ef080f547dcE', symObjAddr: 0x1F70, symBinAddr: 0x10000DB78, symSize: 0x28 }
  - { offset: 0x2B06B, size: 0x8, addend: 0x0, symName: '__ZN4core3ptr129drop_in_place$LT$addr2line..unit..ResUnit$LT$gimli..read..endian_slice..EndianSlice$LT$gimli..endianity..LittleEndian$GT$$GT$$GT$17h6704d8d711f50964E', symObjAddr: 0x1F98, symBinAddr: 0x10000DBA0, symSize: 0xE4 }
  - { offset: 0x2B28D, size: 0x8, addend: 0x0, symName: '__ZN4core3ptr129drop_in_place$LT$addr2line..unit..SupUnit$LT$gimli..read..endian_slice..EndianSlice$LT$gimli..endianity..LittleEndian$GT$$GT$$GT$17h3178d992ad3814bdE', symObjAddr: 0x207C, symBinAddr: 0x10000DC84, symSize: 0x54 }
  - { offset: 0x2B368, size: 0x8, addend: 0x0, symName: '__ZN4core3ptr130drop_in_place$LT$addr2line..unit..ResUnits$LT$gimli..read..endian_slice..EndianSlice$LT$gimli..endianity..LittleEndian$GT$$GT$$GT$17hec2ee29328c5cc7bE', symObjAddr: 0x20D0, symBinAddr: 0x10000DCD8, symSize: 0xD0 }
  - { offset: 0x2B511, size: 0x8, addend: 0x0, symName: '__ZN4core3ptr130drop_in_place$LT$addr2line..unit..SupUnits$LT$gimli..read..endian_slice..EndianSlice$LT$gimli..endianity..LittleEndian$GT$$GT$$GT$17h1322e2d105d2f1f9E', symObjAddr: 0x21A0, symBinAddr: 0x10000DDA8, symSize: 0xE4 }
  - { offset: 0x2B6CF, size: 0x8, addend: 0x0, symName: '__ZN4core3ptr130drop_in_place$LT$gimli..read..dwarf..Dwarf$LT$gimli..read..endian_slice..EndianSlice$LT$gimli..endianity..LittleEndian$GT$$GT$$GT$17hf3b20fbd9db1a9fdE', symObjAddr: 0x2284, symBinAddr: 0x10000DE8C, symSize: 0x58 }
  - { offset: 0x2B79D, size: 0x8, addend: 0x0, symName: '__ZN4core3ptr131drop_in_place$LT$$u5b$core..option..Option$LT$core..option..Option$LT$std..backtrace_rs..symbolize..gimli..Mapping$GT$$GT$$u5d$$GT$17h018dc685d3dd2730E', symObjAddr: 0x22DC, symBinAddr: 0x10000DEE4, symSize: 0xCC }
  - { offset: 0x2B847, size: 0x8, addend: 0x0, symName: '__ZN4core3ptr137drop_in_place$LT$gimli..read..dwarf..Unit$LT$gimli..read..endian_slice..EndianSlice$LT$gimli..endianity..LittleEndian$GT$$C$usize$GT$$GT$17h4031e9c5dec06b9aE', symObjAddr: 0x246C, symBinAddr: 0x10000DFB0, symSize: 0x54 }
  - { offset: 0x2B944, size: 0x8, addend: 0x0, symName: '__ZN4core3ptr138drop_in_place$LT$addr2line..function..LazyFunction$LT$gimli..read..endian_slice..EndianSlice$LT$gimli..endianity..LittleEndian$GT$$GT$$GT$17ha3709aaa52158f89E', symObjAddr: 0x24C0, symBinAddr: 0x10000E004, symSize: 0x64 }
  - { offset: 0x2B95B, size: 0x8, addend: 0x0, symName: '__ZN4core3ptr138drop_in_place$LT$addr2line..function..LazyFunction$LT$gimli..read..endian_slice..EndianSlice$LT$gimli..endianity..LittleEndian$GT$$GT$$GT$17ha3709aaa52158f89E', symObjAddr: 0x24C0, symBinAddr: 0x10000E004, symSize: 0x64 }
  - { offset: 0x2B970, size: 0x8, addend: 0x0, symName: '__ZN4core3ptr138drop_in_place$LT$addr2line..function..LazyFunction$LT$gimli..read..endian_slice..EndianSlice$LT$gimli..endianity..LittleEndian$GT$$GT$$GT$17ha3709aaa52158f89E', symObjAddr: 0x24C0, symBinAddr: 0x10000E004, symSize: 0x64 }
  - { offset: 0x2B985, size: 0x8, addend: 0x0, symName: '__ZN4core3ptr138drop_in_place$LT$addr2line..function..LazyFunction$LT$gimli..read..endian_slice..EndianSlice$LT$gimli..endianity..LittleEndian$GT$$GT$$GT$17ha3709aaa52158f89E', symObjAddr: 0x24C0, symBinAddr: 0x10000E004, symSize: 0x64 }
  - { offset: 0x2BAC7, size: 0x8, addend: 0x0, symName: '__ZN4core3ptr144drop_in_place$LT$alloc..vec..Vec$LT$core..option..Option$LT$core..option..Option$LT$std..backtrace_rs..symbolize..gimli..Mapping$GT$$GT$$GT$$GT$17he58f1b72666b9c59E', symObjAddr: 0x2524, symBinAddr: 0x10000E068, symSize: 0x78 }
  - { offset: 0x2BC2F, size: 0x8, addend: 0x0, symName: '__ZN4core3ptr152drop_in_place$LT$alloc..vec..Vec$LT$addr2line..unit..ResUnit$LT$gimli..read..endian_slice..EndianSlice$LT$gimli..endianity..LittleEndian$GT$$GT$$GT$$GT$17he2165088e8298335E', symObjAddr: 0x2668, symBinAddr: 0x10000E0E0, symSize: 0xC4 }
  - { offset: 0x2BD9E, size: 0x8, addend: 0x0, symName: '__ZN4core3ptr152drop_in_place$LT$alloc..vec..Vec$LT$addr2line..unit..SupUnit$LT$gimli..read..endian_slice..EndianSlice$LT$gimli..endianity..LittleEndian$GT$$GT$$GT$$GT$17h87f5dc9d3cca3a77E', symObjAddr: 0x272C, symBinAddr: 0x10000E1A4, symSize: 0xF4 }
  - { offset: 0x2BFB6, size: 0x8, addend: 0x0, symName: '__ZN4core3ptr156drop_in_place$LT$alloc..boxed..Box$LT$$u5b$core..option..Option$LT$core..option..Option$LT$std..backtrace_rs..symbolize..gimli..Mapping$GT$$GT$$u5d$$GT$$GT$17h662502e0fd7f60b9E', symObjAddr: 0x2820, symBinAddr: 0x10000E298, symSize: 0xF8 }
  - { offset: 0x2C0E0, size: 0x8, addend: 0x0, symName: '__ZN4core3ptr159drop_in_place$LT$alloc..sync..ArcInner$LT$gimli..read..dwarf..Dwarf$LT$gimli..read..endian_slice..EndianSlice$LT$gimli..endianity..LittleEndian$GT$$GT$$GT$$GT$17ha75a7326775ef05eE', symObjAddr: 0x2918, symBinAddr: 0x10000E390, symSize: 0x5C }
  - { offset: 0x2C1A5, size: 0x8, addend: 0x0, symName: '__ZN4core3ptr161drop_in_place$LT$alloc..vec..Vec$LT$addr2line..function..LazyFunction$LT$gimli..read..endian_slice..EndianSlice$LT$gimli..endianity..LittleEndian$GT$$GT$$GT$$GT$17hd921ce6f632b87b3E', symObjAddr: 0x2974, symBinAddr: 0x10000E3EC, symSize: 0xAC }
  - { offset: 0x2C3E2, size: 0x8, addend: 0x0, symName: '__ZN4core3ptr172drop_in_place$LT$core..result..Result$LT$addr2line..Context$LT$gimli..read..endian_slice..EndianSlice$LT$gimli..endianity..LittleEndian$GT$$GT$$C$gimli..read..Error$GT$$GT$17h1cda5e1d1a7951dcE', symObjAddr: 0x2ACC, symBinAddr: 0x10000E498, symSize: 0x80 }
  - { offset: 0x2C477, size: 0x8, addend: 0x0, symName: '__ZN4core3ptr173drop_in_place$LT$alloc..boxed..Box$LT$$u5b$addr2line..function..LazyFunction$LT$gimli..read..endian_slice..EndianSlice$LT$gimli..endianity..LittleEndian$GT$$GT$$u5d$$GT$$GT$17h34d35d9ea3d3b9d5E', symObjAddr: 0x2B4C, symBinAddr: 0x10000E518, symSize: 0x9C }
  - { offset: 0x2C48E, size: 0x8, addend: 0x0, symName: '__ZN4core3ptr173drop_in_place$LT$alloc..boxed..Box$LT$$u5b$addr2line..function..LazyFunction$LT$gimli..read..endian_slice..EndianSlice$LT$gimli..endianity..LittleEndian$GT$$GT$$u5d$$GT$$GT$17h34d35d9ea3d3b9d5E', symObjAddr: 0x2B4C, symBinAddr: 0x10000E518, symSize: 0x9C }
  - { offset: 0x2C6D3, size: 0x8, addend: 0x0, symName: '__ZN4core3ptr181drop_in_place$LT$core..option..Option$LT$gimli..read..line..IncompleteLineProgram$LT$gimli..read..endian_slice..EndianSlice$LT$gimli..endianity..LittleEndian$GT$$C$usize$GT$$GT$$GT$17h59a58c9c9c958e24E', symObjAddr: 0x2C58, symBinAddr: 0x10000E5B4, symSize: 0x98 }
  - { offset: 0x2C98E, size: 0x8, addend: 0x0, symName: '__ZN4core3ptr181drop_in_place$LT$core..result..Result$LT$addr2line..frame..FrameIter$LT$gimli..read..endian_slice..EndianSlice$LT$gimli..endianity..LittleEndian$GT$$GT$$C$gimli..read..Error$GT$$GT$17h49f2f998bcc2f32aE', symObjAddr: 0x2CF0, symBinAddr: 0x10000E64C, symSize: 0x34 }
  - { offset: 0x2CACC, size: 0x8, addend: 0x0, symName: '__ZN4core3ptr184drop_in_place$LT$core..result..Result$LT$addr2line..function..Functions$LT$gimli..read..endian_slice..EndianSlice$LT$gimli..endianity..LittleEndian$GT$$GT$$C$gimli..read..Error$GT$$GT$17h10dd28e922629511E', symObjAddr: 0x2D24, symBinAddr: 0x10000E680, symSize: 0xD8 }
  - { offset: 0x2D6B2, size: 0x8, addend: 0x0, symName: '__ZN4core3ptr194drop_in_place$LT$core..result..Result$LT$std..sync..poison..mutex..MutexGuard$LT$$LP$$RP$$GT$$C$std..sync..poison..PoisonError$LT$std..sync..poison..mutex..MutexGuard$LT$$LP$$RP$$GT$$GT$$GT$$GT$17ha7e54304228a066cE', symObjAddr: 0x2E70, symBinAddr: 0x10000E758, symSize: 0x4C }
  - { offset: 0x2D6E2, size: 0x8, addend: 0x0, symName: '__ZN4core3ptr199drop_in_place$LT$core..result..Result$LT$core..option..Option$LT$alloc..sync..Arc$LT$std..sync..poison..mutex..Mutex$LT$alloc..vec..Vec$LT$u8$GT$$GT$$GT$$GT$$C$std..thread..local..AccessError$GT$$GT$17hc820eafe807d521eE', symObjAddr: 0x2EBC, symBinAddr: 0x10000E7A4, symSize: 0x2C }
  - { offset: 0x2D7A9, size: 0x8, addend: 0x0, symName: '__ZN4core3ptr231drop_in_place$LT$core..result..Result$LT$core..option..Option$LT$alloc..boxed..Box$LT$addr2line..unit..DwoUnit$LT$gimli..read..endian_slice..EndianSlice$LT$gimli..endianity..LittleEndian$GT$$GT$$GT$$GT$$C$gimli..read..Error$GT$$GT$17hdbd1f85fa898eaf9E', symObjAddr: 0x2EE8, symBinAddr: 0x10000E7D0, symSize: 0xD4 }
  - { offset: 0x2D992, size: 0x8, addend: 0x0, symName: '__ZN4core3ptr275drop_in_place$LT$gimli..read..line..LineRows$LT$gimli..read..endian_slice..EndianSlice$LT$gimli..endianity..LittleEndian$GT$$C$gimli..read..line..IncompleteLineProgram$LT$gimli..read..endian_slice..EndianSlice$LT$gimli..endianity..LittleEndian$GT$$C$usize$GT$$C$usize$GT$$GT$17hebba07efb64a969cE', symObjAddr: 0x2FD4, symBinAddr: 0x10000E8A4, symSize: 0x8C }
  - { offset: 0x2DC07, size: 0x8, addend: 0x0, symName: '__ZN4core3ptr280drop_in_place$LT$$LT$alloc..collections..btree..map..IntoIter$LT$K$C$V$C$A$GT$$u20$as$u20$core..ops..drop..Drop$GT$..drop..DropGuard$LT$u64$C$core..result..Result$LT$alloc..sync..Arc$LT$gimli..read..abbrev..Abbreviations$GT$$C$gimli..read..Error$GT$$C$alloc..alloc..Global$GT$$GT$17h605d7228f128decdE', symObjAddr: 0x3060, symBinAddr: 0x10000E930, symSize: 0x84 }
  - { offset: 0x2DD77, size: 0x8, addend: 0x0, symName: '__ZN4core3ptr284drop_in_place$LT$core..result..Result$LT$$RF$core..result..Result$LT$addr2line..line..Lines$C$gimli..read..Error$GT$$C$$LP$$RF$core..result..Result$LT$addr2line..line..Lines$C$gimli..read..Error$GT$$C$core..result..Result$LT$addr2line..line..Lines$C$gimli..read..Error$GT$$RP$$GT$$GT$17h4c3f39ee410886d9E', symObjAddr: 0x30E4, symBinAddr: 0x10000E9B4, symSize: 0x14 }
  - { offset: 0x2DDD2, size: 0x8, addend: 0x0, symName: '__ZN4core3ptr37drop_in_place$LT$std..env..VarsOs$GT$17h691c0706c4a0a296E', symObjAddr: 0x30F8, symBinAddr: 0x10000E9C8, symSize: 0xAC }
  - { offset: 0x2E125, size: 0x8, addend: 0x0, symName: '__ZN4core3ptr42drop_in_place$LT$alloc..string..String$GT$17hac81f7a4d168ae64E', symObjAddr: 0x32AC, symBinAddr: 0x10000EA74, symSize: 0x18 }
  - { offset: 0x2E13C, size: 0x8, addend: 0x0, symName: '__ZN4core3ptr42drop_in_place$LT$alloc..string..String$GT$17hac81f7a4d168ae64E', symObjAddr: 0x32AC, symBinAddr: 0x10000EA74, symSize: 0x18 }
  - { offset: 0x2E200, size: 0x8, addend: 0x0, symName: '__ZN4core3ptr42drop_in_place$LT$std..io..error..Error$GT$17habd70f1b431d348cE', symObjAddr: 0x32C4, symBinAddr: 0x10000EA8C, symSize: 0xAC }
  - { offset: 0x2E42A, size: 0x8, addend: 0x0, symName: '__ZN4core3ptr44drop_in_place$LT$object..read..ObjectMap$GT$17h70ce07c320cc7419E', symObjAddr: 0x3370, symBinAddr: 0x10000EB38, symSize: 0x58 }
  - { offset: 0x2E559, size: 0x8, addend: 0x0, symName: '__ZN4core3ptr46drop_in_place$LT$alloc..vec..Vec$LT$u8$GT$$GT$17hb337dff62f58fd0bE', symObjAddr: 0x3434, symBinAddr: 0x10000EB90, symSize: 0x18 }
  - { offset: 0x2E5E6, size: 0x8, addend: 0x0, symName: '__ZN4core3ptr46drop_in_place$LT$std..io..stdio..StdinLock$GT$17hb805540b2d8fd9f7E', symObjAddr: 0x344C, symBinAddr: 0x10000EBA8, symSize: 0x54 }
  - { offset: 0x2E5FD, size: 0x8, addend: 0x0, symName: '__ZN4core3ptr46drop_in_place$LT$std..io..stdio..StdinLock$GT$17hb805540b2d8fd9f7E', symObjAddr: 0x344C, symBinAddr: 0x10000EBA8, symSize: 0x54 }
  - { offset: 0x2E612, size: 0x8, addend: 0x0, symName: '__ZN4core3ptr46drop_in_place$LT$std..io..stdio..StdinLock$GT$17hb805540b2d8fd9f7E', symObjAddr: 0x344C, symBinAddr: 0x10000EBA8, symSize: 0x54 }
  - { offset: 0x2E704, size: 0x8, addend: 0x0, symName: '__ZN4core3ptr48drop_in_place$LT$alloc..ffi..c_str..NulError$GT$17h0aa90617c2ef35ffE', symObjAddr: 0x3584, symBinAddr: 0x10000EBFC, symSize: 0x18 }
  - { offset: 0x2E71B, size: 0x8, addend: 0x0, symName: '__ZN4core3ptr48drop_in_place$LT$alloc..ffi..c_str..NulError$GT$17h0aa90617c2ef35ffE', symObjAddr: 0x3584, symBinAddr: 0x10000EBFC, symSize: 0x18 }
  - { offset: 0x2E7A7, size: 0x8, addend: 0x0, symName: '__ZN4core3ptr557drop_in_place$LT$core..result..Result$LT$$RF$core..result..Result$LT$addr2line..function..Function$LT$gimli..read..endian_slice..EndianSlice$LT$gimli..endianity..LittleEndian$GT$$GT$$C$gimli..read..Error$GT$$C$$LP$$RF$core..result..Result$LT$addr2line..function..Function$LT$gimli..read..endian_slice..EndianSlice$LT$gimli..endianity..LittleEndian$GT$$GT$$C$gimli..read..Error$GT$$C$core..result..Result$LT$addr2line..function..Function$LT$gimli..read..endian_slice..EndianSlice$LT$gimli..endianity..LittleEndian$GT$$GT$$C$gimli..read..Error$GT$$RP$$GT$$GT$17h748b27d3ad91b666E', symObjAddr: 0x37B0, symBinAddr: 0x10000EC14, symSize: 0x64 }
  - { offset: 0x2E991, size: 0x8, addend: 0x0, symName: '__ZN4core3ptr55drop_in_place$LT$gimli..read..abbrev..Abbreviations$GT$17h5d64ddc376f7673eE', symObjAddr: 0x3814, symBinAddr: 0x10000EC78, symSize: 0x118 }
  - { offset: 0x2ECF4, size: 0x8, addend: 0x0, symName: '__ZN4core3ptr560drop_in_place$LT$core..result..Result$LT$$RF$core..result..Result$LT$addr2line..function..Functions$LT$gimli..read..endian_slice..EndianSlice$LT$gimli..endianity..LittleEndian$GT$$GT$$C$gimli..read..Error$GT$$C$$LP$$RF$core..result..Result$LT$addr2line..function..Functions$LT$gimli..read..endian_slice..EndianSlice$LT$gimli..endianity..LittleEndian$GT$$GT$$C$gimli..read..Error$GT$$C$core..result..Result$LT$addr2line..function..Functions$LT$gimli..read..endian_slice..EndianSlice$LT$gimli..endianity..LittleEndian$GT$$GT$$C$gimli..read..Error$GT$$RP$$GT$$GT$17h20f4a6896059bba5E', symObjAddr: 0x39B0, symBinAddr: 0x10000ED90, symSize: 0x14 }
  - { offset: 0x2ED4F, size: 0x8, addend: 0x0, symName: '__ZN4core3ptr60drop_in_place$LT$gimli..read..abbrev..AbbreviationsCache$GT$17h07c70485ebd56478E', symObjAddr: 0x39C4, symBinAddr: 0x10000EDA4, symSize: 0xCC }
  - { offset: 0x2EF16, size: 0x8, addend: 0x0, symName: '__ZN4core3ptr64drop_in_place$LT$std..sys..pal..unix..sync..mutex..AttrGuard$GT$17h0a5906221301930bE', symObjAddr: 0x3B1C, symBinAddr: 0x10000EE70, symSize: 0x48 }
  - { offset: 0x2EF47, size: 0x8, addend: 0x0, symName: '__ZN4core3ptr64drop_in_place$LT$std..sys..process..unix..common..ChildPipes$GT$17h10e8f412fa846c73E', symObjAddr: 0x3B64, symBinAddr: 0x10000EEB8, symSize: 0x78 }
  - { offset: 0x2F057, size: 0x8, addend: 0x0, symName: '__ZN4core3ptr64drop_in_place$LT$std..sys..process..unix..common..StdioPipes$GT$17hf4120600f772654aE', symObjAddr: 0x3BDC, symBinAddr: 0x10000EF30, symSize: 0x54 }
  - { offset: 0x2F1CF, size: 0x8, addend: 0x0, symName: '__ZN4core3ptr65drop_in_place$LT$alloc..vec..Vec$LT$alloc..string..String$GT$$GT$17h66cdbc24d9622501E', symObjAddr: 0x3C30, symBinAddr: 0x10000EF84, symSize: 0x80 }
  - { offset: 0x2F36D, size: 0x8, addend: 0x0, symName: '__ZN4core3ptr65drop_in_place$LT$std..backtrace_rs..symbolize..gimli..Context$GT$17h164c0942f12400dbE', symObjAddr: 0x3CB0, symBinAddr: 0x10000F004, symSize: 0xE8 }
  - { offset: 0x2F5FF, size: 0x8, addend: 0x0, symName: '__ZN4core3ptr66drop_in_place$LT$std..backtrace_rs..backtrace..libunwind..Bomb$GT$17h551fed0d2b731830E', symObjAddr: 0x3D98, symBinAddr: 0x10000F0EC, symSize: 0x40 }
  - { offset: 0x2F64B, size: 0x8, addend: 0x0, symName: '__ZN4core3ptr701drop_in_place$LT$core..result..Result$LT$$RF$core..result..Result$LT$core..option..Option$LT$alloc..boxed..Box$LT$addr2line..unit..DwoUnit$LT$gimli..read..endian_slice..EndianSlice$LT$gimli..endianity..LittleEndian$GT$$GT$$GT$$GT$$C$gimli..read..Error$GT$$C$$LP$$RF$core..result..Result$LT$core..option..Option$LT$alloc..boxed..Box$LT$addr2line..unit..DwoUnit$LT$gimli..read..endian_slice..EndianSlice$LT$gimli..endianity..LittleEndian$GT$$GT$$GT$$GT$$C$gimli..read..Error$GT$$C$core..result..Result$LT$core..option..Option$LT$alloc..boxed..Box$LT$addr2line..unit..DwoUnit$LT$gimli..read..endian_slice..EndianSlice$LT$gimli..endianity..LittleEndian$GT$$GT$$GT$$GT$$C$gimli..read..Error$GT$$RP$$GT$$GT$17h99be7971756b6652E', symObjAddr: 0x3DD8, symBinAddr: 0x10000F12C, symSize: 0x14 }
  - { offset: 0x2F6EC, size: 0x8, addend: 0x0, symName: '__ZN4core3ptr70drop_in_place$LT$std..backtrace_rs..symbolize..gimli..stash..Stash$GT$17hf2d48d9015d0f7c8E', symObjAddr: 0x3E6C, symBinAddr: 0x10000F140, symSize: 0xB8 }
  - { offset: 0x2F992, size: 0x8, addend: 0x0, symName: '__ZN4core3ptr71drop_in_place$LT$std..backtrace_rs..symbolize..gimli..macho..Object$GT$17h8bb3839755842750E', symObjAddr: 0x3F24, symBinAddr: 0x10000F1F8, symSize: 0xD8 }
  - { offset: 0x2FC65, size: 0x8, addend: 0x0, symName: '__ZN4core3ptr72drop_in_place$LT$core..option..Option$LT$object..read..ObjectMap$GT$$GT$17hc7c56c88aae4c5fcE', symObjAddr: 0x4068, symBinAddr: 0x10000F2D0, symSize: 0x64 }
  - { offset: 0x2FDE2, size: 0x8, addend: 0x0, symName: '__ZN4core3ptr73drop_in_place$LT$alloc..vec..Vec$LT$addr2line..line..LineSequence$GT$$GT$17he296d46dd6d5cbabE', symObjAddr: 0x40CC, symBinAddr: 0x10000F334, symSize: 0x84 }
  - { offset: 0x2FF48, size: 0x8, addend: 0x0, symName: '__ZN4core3ptr77drop_in_place$LT$alloc..boxed..Box$LT$$u5b$alloc..string..String$u5d$$GT$$GT$17hc446220f14ad3f54E', symObjAddr: 0x4188, symBinAddr: 0x10000F3B8, symSize: 0x70 }
  - { offset: 0x2FF5F, size: 0x8, addend: 0x0, symName: '__ZN4core3ptr77drop_in_place$LT$alloc..boxed..Box$LT$$u5b$alloc..string..String$u5d$$GT$$GT$17hc446220f14ad3f54E', symObjAddr: 0x4188, symBinAddr: 0x10000F3B8, symSize: 0x70 }
  - { offset: 0x3006B, size: 0x8, addend: 0x0, symName: '__ZN4core3ptr77drop_in_place$LT$std..panicking..begin_panic_handler..FormatStringPayload$GT$17h6fcfcc78704673e3E', symObjAddr: 0x41F8, symBinAddr: 0x10000F428, symSize: 0x24 }
  - { offset: 0x30127, size: 0x8, addend: 0x0, symName: '__ZN4core3ptr78drop_in_place$LT$core..result..Result$LT$usize$C$std..io..error..Error$GT$$GT$17h2f8ac36bcb547dffE', symObjAddr: 0x421C, symBinAddr: 0x10000F44C, symSize: 0x14 }
  - { offset: 0x3013B, size: 0x8, addend: 0x0, symName: '__ZN4core3ptr79drop_in_place$LT$std..sync..poison..rwlock..RwLockReadGuard$LT$$LP$$RP$$GT$$GT$17hc54fd0027bbd6d30E', symObjAddr: 0x4230, symBinAddr: 0x10000F460, symSize: 0x58 }
  - { offset: 0x301D7, size: 0x8, addend: 0x0, symName: '__ZN4core3ptr81drop_in_place$LT$core..result..Result$LT$$LP$$RP$$C$std..io..error..Error$GT$$GT$17ha905afa1a1b69da6E', symObjAddr: 0x4288, symBinAddr: 0x10000F4B8, symSize: 0x10 }
  - { offset: 0x30207, size: 0x8, addend: 0x0, symName: '__ZN4core3ptr81drop_in_place$LT$std..sys..process..unix..common..cstring_array..CStringArray$GT$17h601d89b39b80fabfE', symObjAddr: 0x4298, symBinAddr: 0x10000F4C8, symSize: 0xD0 }
  - { offset: 0x3052A, size: 0x8, addend: 0x0, symName: '__ZN4core3ptr82drop_in_place$LT$alloc..sync..ArcInner$LT$std..sys..fs..unix..InnerReadDir$GT$$GT$17h5d4f495acfd7dae8E', symObjAddr: 0x4368, symBinAddr: 0x10000F598, symSize: 0x60 }
  - { offset: 0x306CD, size: 0x8, addend: 0x0, symName: '__ZN4core3ptr84drop_in_place$LT$$LP$std..ffi..os_str..OsString$C$std..ffi..os_str..OsString$RP$$GT$17h62ddf8343f8db47bE', symObjAddr: 0x43C8, symBinAddr: 0x10000F5F8, symSize: 0x4C }
  - { offset: 0x30852, size: 0x8, addend: 0x0, symName: '__ZN4core3ptr90drop_in_place$LT$std..io..buffered..bufwriter..BufWriter$LT$W$GT$..flush_buf..BufGuard$GT$17he92d49b51e4ad54fE', symObjAddr: 0x4450, symBinAddr: 0x10000F644, symSize: 0x60 }
  - { offset: 0x309D9, size: 0x8, addend: 0x0, symName: '__ZN4core3ptr92drop_in_place$LT$core..result..Result$LT$addr2line..line..Lines$C$gimli..read..Error$GT$$GT$17h0ed91c593b269246E', symObjAddr: 0x4508, symBinAddr: 0x10000F6A4, symSize: 0xE4 }
  - { offset: 0x30C1F, size: 0x8, addend: 0x0, symName: '__ZN4core3ptr93drop_in_place$LT$core..option..Option$LT$std..backtrace_rs..symbolize..gimli..Mapping$GT$$GT$17h110055b033f66c0fE', symObjAddr: 0x45EC, symBinAddr: 0x10000F788, symSize: 0x6C }
  - { offset: 0x30CBC, size: 0x8, addend: 0x0, symName: '__ZN4core3ptr95drop_in_place$LT$std..io..buffered..linewriter..LineWriter$LT$std..io..stdio..StdoutRaw$GT$$GT$17hc5979ba65a107f72E', symObjAddr: 0x4658, symBinAddr: 0x10000F7F4, symSize: 0xF8 }
  - { offset: 0x34247, size: 0x8, addend: 0x0, symName: __ZN4core5slice4sort6stable14driftsort_main17h521ab17a5a757164E, symObjAddr: 0x9098, symBinAddr: 0x10001126C, symSize: 0x140 }
  - { offset: 0x344EA, size: 0x8, addend: 0x0, symName: __ZN4core5slice4sort6stable14driftsort_main17ha9075508af06de20E, symObjAddr: 0x91D8, symBinAddr: 0x1000113AC, symSize: 0x164 }
  - { offset: 0x347E3, size: 0x8, addend: 0x0, symName: __ZN4core5slice4sort6stable14driftsort_main17hb0662f4917d01b7dE, symObjAddr: 0x933C, symBinAddr: 0x100011510, symSize: 0x140 }
  - { offset: 0x34A86, size: 0x8, addend: 0x0, symName: __ZN4core5slice4sort6stable14driftsort_main17hbec9c5ede644b796E, symObjAddr: 0x947C, symBinAddr: 0x100011650, symSize: 0x164 }
  - { offset: 0x34D7F, size: 0x8, addend: 0x0, symName: __ZN4core5slice4sort6stable14driftsort_main17hc6af17bd05ac089fE, symObjAddr: 0x95E0, symBinAddr: 0x1000117B4, symSize: 0x140 }
  - { offset: 0x34FA0, size: 0x8, addend: 0x0, symName: __ZN4core5slice4sort6stable14driftsort_main17hfd7dcf5984234633E, symObjAddr: 0x9720, symBinAddr: 0x1000118F4, symSize: 0x140 }
  - { offset: 0x35434, size: 0x8, addend: 0x0, symName: __ZN4core5slice4sort6stable5drift4sort17h6aaaaf784e659385E, symObjAddr: 0x9860, symBinAddr: 0x100011A34, symSize: 0x4E0 }
  - { offset: 0x35A23, size: 0x8, addend: 0x0, symName: __ZN4core5slice4sort6stable5drift4sort17h866748af94df36ccE, symObjAddr: 0x9D40, symBinAddr: 0x100011F14, symSize: 0x538 }
  - { offset: 0x360B6, size: 0x8, addend: 0x0, symName: __ZN4core5slice4sort6stable5drift4sort17h9ccd45f18f7947baE, symObjAddr: 0xA278, symBinAddr: 0x10001244C, symSize: 0x4F8 }
  - { offset: 0x36735, size: 0x8, addend: 0x0, symName: __ZN4core5slice4sort6stable5drift4sort17haa5e5863b64b9a60E, symObjAddr: 0xA770, symBinAddr: 0x100012944, symSize: 0x5EC }
  - { offset: 0x36DEF, size: 0x8, addend: 0x0, symName: __ZN4core5slice4sort6stable5drift4sort17hb68090b03a5248c3E, symObjAddr: 0xAD5C, symBinAddr: 0x100012F30, symSize: 0x530 }
  - { offset: 0x3745A, size: 0x8, addend: 0x0, symName: __ZN4core5slice4sort6stable5drift4sort17he935295b9297be3dE, symObjAddr: 0xB28C, symBinAddr: 0x100013460, symSize: 0x4F8 }
  - { offset: 0x37CDD, size: 0x8, addend: 0x0, symName: __ZN4core5slice4sort6stable9quicksort9quicksort17h0ca9f036defe4ca1E, symObjAddr: 0xB784, symBinAddr: 0x100013958, symSize: 0x834 }
  - { offset: 0x388C8, size: 0x8, addend: 0x0, symName: __ZN4core5slice4sort6stable9quicksort9quicksort17h0dcd6807bb10c1ddE, symObjAddr: 0xBFB8, symBinAddr: 0x10001418C, symSize: 0x6D8 }
  - { offset: 0x39388, size: 0x8, addend: 0x0, symName: __ZN4core5slice4sort6stable9quicksort9quicksort17h403c35809902d95cE, symObjAddr: 0xC690, symBinAddr: 0x100014864, symSize: 0x74C }
  - { offset: 0x39ACD, size: 0x8, addend: 0x0, symName: __ZN4core5slice4sort6stable9quicksort9quicksort17h52ed04d04eb94d9aE, symObjAddr: 0xCDDC, symBinAddr: 0x100014FB0, symSize: 0x834 }
  - { offset: 0x3AA64, size: 0x8, addend: 0x0, symName: __ZN4core5slice4sort6stable9quicksort9quicksort17h6a6db67da80ded8fE, symObjAddr: 0xD610, symBinAddr: 0x1000157E4, symSize: 0x6E0 }
  - { offset: 0x3B524, size: 0x8, addend: 0x0, symName: __ZN4core5slice4sort6stable9quicksort9quicksort17hfc1631ac0f214f19E, symObjAddr: 0xDCF0, symBinAddr: 0x100015EC4, symSize: 0x810 }
  - { offset: 0x3C1A0, size: 0x8, addend: 0x0, symName: __ZN4core5slice4sort6shared9smallsort12sort4_stable17h31fac7551cf33bd2E, symObjAddr: 0x7F40, symBinAddr: 0x100010114, symSize: 0x194 }
  - { offset: 0x3C34D, size: 0x8, addend: 0x0, symName: __ZN4core5slice4sort6shared9smallsort12sort4_stable17hf90c0556197dda99E, symObjAddr: 0x80D4, symBinAddr: 0x1000102A8, symSize: 0x180 }
  - { offset: 0x3C76F, size: 0x8, addend: 0x0, symName: __ZN4core5slice4sort6shared9smallsort12sort8_stable17hf7b6a991869544ccE, symObjAddr: 0x8254, symBinAddr: 0x100010428, symSize: 0x2B8 }
  - { offset: 0x3CC58, size: 0x8, addend: 0x0, symName: __ZN4core5slice4sort6shared9smallsort18small_sort_general17h034e2245b0bf43b0E, symObjAddr: 0x850C, symBinAddr: 0x1000106E0, symSize: 0x400 }
  - { offset: 0x3D1C5, size: 0x8, addend: 0x0, symName: __ZN4core5slice4sort6shared9smallsort18small_sort_general17h87ad8da531a3f31aE, symObjAddr: 0x890C, symBinAddr: 0x100010AE0, symSize: 0x4A4 }
  - { offset: 0x3D8BD, size: 0x8, addend: 0x0, symName: __ZN4core5slice4sort6shared9smallsort25insertion_sort_shift_left17h42562c73653bb666E, symObjAddr: 0x8DB0, symBinAddr: 0x100010F84, symSize: 0xA8 }
  - { offset: 0x3D995, size: 0x8, addend: 0x0, symName: __ZN4core5slice4sort6shared9smallsort25insertion_sort_shift_left17ha2f1b9cdd766aaa4E, symObjAddr: 0x8E58, symBinAddr: 0x10001102C, symSize: 0xB8 }
  - { offset: 0x3DAC3, size: 0x8, addend: 0x0, symName: __ZN4core5slice4sort6shared9smallsort25insertion_sort_shift_left17hbf93252988a52ab7E, symObjAddr: 0x8F10, symBinAddr: 0x1000110E4, symSize: 0x94 }
  - { offset: 0x3DB8D, size: 0x8, addend: 0x0, symName: __ZN4core5slice4sort6shared9smallsort25insertion_sort_shift_left17hd501c44f9cc25640E, symObjAddr: 0x8FA4, symBinAddr: 0x100011178, symSize: 0xF4 }
  - { offset: 0x3DF8A, size: 0x8, addend: 0x0, symName: __ZN4core5slice4sort6shared5pivot11median3_rec17h0df86c062c3307f3E, symObjAddr: 0x781C, symBinAddr: 0x10000F9F0, symSize: 0x11C }
  - { offset: 0x3E086, size: 0x8, addend: 0x0, symName: __ZN4core5slice4sort6shared5pivot11median3_rec17h4e5272a39440c6fcE, symObjAddr: 0x7938, symBinAddr: 0x10000FB0C, symSize: 0xCC }
  - { offset: 0x3E1AB, size: 0x8, addend: 0x0, symName: __ZN4core5slice4sort6shared5pivot11median3_rec17h5a457aecc5390e2dE, symObjAddr: 0x7A04, symBinAddr: 0x10000FBD8, symSize: 0xD0 }
  - { offset: 0x3E2A6, size: 0x8, addend: 0x0, symName: __ZN4core5slice4sort6shared5pivot11median3_rec17h63b3210c63d487e5E, symObjAddr: 0x7AD4, symBinAddr: 0x10000FCA8, symSize: 0xD0 }
  - { offset: 0x3E39F, size: 0x8, addend: 0x0, symName: __ZN4core5slice4sort6shared5pivot11median3_rec17h6546c17569d2c228E, symObjAddr: 0x7BA4, symBinAddr: 0x10000FD78, symSize: 0x134 }
  - { offset: 0x3E5C6, size: 0x8, addend: 0x0, symName: __ZN4core5slice4sort6shared5pivot11median3_rec17h825498fa0147afcdE, symObjAddr: 0x7CD8, symBinAddr: 0x10000FEAC, symSize: 0xCC }
  - { offset: 0x3E6BF, size: 0x8, addend: 0x0, symName: __ZN4core5slice4sort6shared5pivot11median3_rec17hcc5592aee9a962d6E, symObjAddr: 0x7DA4, symBinAddr: 0x10000FF78, symSize: 0xCC }
  - { offset: 0x3E7B8, size: 0x8, addend: 0x0, symName: __ZN4core5slice4sort6shared5pivot11median3_rec17hd5918a3d1c875d2dE, symObjAddr: 0x7E70, symBinAddr: 0x100010044, symSize: 0xD0 }
  - { offset: 0x3E97B, size: 0x8, addend: 0x0, symName: __ZN4core5slice4sort8unstable7ipnsort17h3050acbcca3cb150E, symObjAddr: 0xE500, symBinAddr: 0x1000166D4, symSize: 0xEC }
  - { offset: 0x3EABD, size: 0x8, addend: 0x0, symName: __ZN4core5slice4sort8unstable7ipnsort17hfd87871531817c09E, symObjAddr: 0xE5EC, symBinAddr: 0x1000167C0, symSize: 0x1A8 }
  - { offset: 0x3ED91, size: 0x8, addend: 0x0, symName: __ZN4core5slice4sort8unstable8heapsort8heapsort17h018ffb6550069dc5E, symObjAddr: 0xE794, symBinAddr: 0x100016968, symSize: 0x100 }
  - { offset: 0x3EF7D, size: 0x8, addend: 0x0, symName: __ZN4core5slice4sort8unstable8heapsort8heapsort17h13deb584184321b4E, symObjAddr: 0xE894, symBinAddr: 0x100016A68, symSize: 0x160 }
  - { offset: 0x3F300, size: 0x8, addend: 0x0, symName: __ZN4core5slice4sort8unstable9quicksort9quicksort17h6207a09384b1d73eE, symObjAddr: 0xE9F4, symBinAddr: 0x100016BC8, symSize: 0x598 }
  - { offset: 0x3FE96, size: 0x8, addend: 0x0, symName: __ZN4core5slice4sort8unstable9quicksort9quicksort17hf6b9320c24c346cdE, symObjAddr: 0xEF8C, symBinAddr: 0x100017160, symSize: 0x408 }
  - { offset: 0x40852, size: 0x8, addend: 0x0, symName: '__ZN36_$LT$T$u20$as$u20$core..any..Any$GT$7type_id17hca9570fd9e3ed26eE', symObjAddr: 0x160, symBinAddr: 0x10000CBBC, symSize: 0x24 }
  - { offset: 0x4086C, size: 0x8, addend: 0x0, symName: '__ZN36_$LT$T$u20$as$u20$core..any..Any$GT$7type_id17he4b6f1bd2d030df3E', symObjAddr: 0x184, symBinAddr: 0x10000CBE0, symSize: 0x24 }
  - { offset: 0x408DA, size: 0x8, addend: 0x0, symName: '__ZN42_$LT$$RF$T$u20$as$u20$core..fmt..Debug$GT$3fmt17h0fc7b8965e6afc5aE', symObjAddr: 0x4CC, symBinAddr: 0x10000CC04, symSize: 0x74 }
  - { offset: 0x4096E, size: 0x8, addend: 0x0, symName: '__ZN42_$LT$$RF$T$u20$as$u20$core..fmt..Debug$GT$3fmt17h2958e9215852db4aE', symObjAddr: 0x540, symBinAddr: 0x10000CC78, symSize: 0x1C }
  - { offset: 0x409B4, size: 0x8, addend: 0x0, symName: '__ZN42_$LT$$RF$T$u20$as$u20$core..fmt..Debug$GT$3fmt17h2bb2d350b34dfff8E', symObjAddr: 0x55C, symBinAddr: 0x10000CC94, symSize: 0x10 }
  - { offset: 0x409E5, size: 0x8, addend: 0x0, symName: '__ZN42_$LT$$RF$T$u20$as$u20$core..fmt..Debug$GT$3fmt17h83b5ff28188540c2E', symObjAddr: 0x7FC, symBinAddr: 0x10000CCA4, symSize: 0x14 }
  - { offset: 0x40A16, size: 0x8, addend: 0x0, symName: '__ZN42_$LT$$RF$T$u20$as$u20$core..fmt..Debug$GT$3fmt17h8ac30dcc9c5b5849E', symObjAddr: 0x8B0, symBinAddr: 0x10000CCB8, symSize: 0x74 }
  - { offset: 0x40B2D, size: 0x8, addend: 0x0, symName: '__ZN42_$LT$$RF$T$u20$as$u20$core..fmt..Debug$GT$3fmt17h8aff657d191ad3c5E', symObjAddr: 0x924, symBinAddr: 0x10000CD2C, symSize: 0x1C }
  - { offset: 0x40B73, size: 0x8, addend: 0x0, symName: '__ZN42_$LT$$RF$T$u20$as$u20$core..fmt..Debug$GT$3fmt17ha21c7837cadbd3f5E', symObjAddr: 0x9B8, symBinAddr: 0x10000CD48, symSize: 0x10 }
  - { offset: 0x40B95, size: 0x8, addend: 0x0, symName: '__ZN42_$LT$$RF$T$u20$as$u20$core..fmt..Debug$GT$3fmt17heec2750af2870f2eE', symObjAddr: 0xB68, symBinAddr: 0x10000CD58, symSize: 0x9C }
  - { offset: 0x40CD2, size: 0x8, addend: 0x0, symName: '__ZN4core3fmt3num50_$LT$impl$u20$core..fmt..Debug$u20$for$u20$i32$GT$3fmt17h31c367ae7db50eaeE', symObjAddr: 0xDA0, symBinAddr: 0x10000CE7C, symSize: 0x18 }
  - { offset: 0x40CE9, size: 0x8, addend: 0x0, symName: '__ZN4core3fmt3num50_$LT$impl$u20$core..fmt..Debug$u20$for$u20$i32$GT$3fmt17h31c367ae7db50eaeE', symObjAddr: 0xDA0, symBinAddr: 0x10000CE7C, symSize: 0x18 }
  - { offset: 0x40D14, size: 0x8, addend: 0x0, symName: '__ZN4core3fmt3num52_$LT$impl$u20$core..fmt..Debug$u20$for$u20$usize$GT$3fmt17hd9a44c73645affdaE', symObjAddr: 0xE00, symBinAddr: 0x10000CE94, symSize: 0x18 }
  - { offset: 0x40D2B, size: 0x8, addend: 0x0, symName: '__ZN4core3fmt3num52_$LT$impl$u20$core..fmt..Debug$u20$for$u20$usize$GT$3fmt17hd9a44c73645affdaE', symObjAddr: 0xE00, symBinAddr: 0x10000CE94, symSize: 0x18 }
  - { offset: 0x40D65, size: 0x8, addend: 0x0, symName: '__ZN44_$LT$$RF$T$u20$as$u20$core..fmt..Display$GT$3fmt17h7aede7e1fafa8ecfE', symObjAddr: 0xCEC, symBinAddr: 0x10000CDF4, symSize: 0x10 }
  - { offset: 0x40D80, size: 0x8, addend: 0x0, symName: '__ZN44_$LT$$RF$T$u20$as$u20$core..fmt..Display$GT$3fmt17hcdc89f6b7cdef95fE', symObjAddr: 0xCFC, symBinAddr: 0x10000CE04, symSize: 0x78 }
  - { offset: 0x4116F, size: 0x8, addend: 0x0, symName: __ZN4core3fmt5Write10write_char17h45384c06e74ab019E, symObjAddr: 0xE18, symBinAddr: 0x10000CEAC, symSize: 0x150 }
  - { offset: 0x41306, size: 0x8, addend: 0x0, symName: __ZN4core3fmt5Write10write_char17h9a7a54bb0ca7d9cdE, symObjAddr: 0x10E8, symBinAddr: 0x10000CFFC, symSize: 0x128 }
  - { offset: 0x414C1, size: 0x8, addend: 0x0, symName: __ZN4core3fmt5Write10write_char17hb6b75da55e1d63aaE, symObjAddr: 0x1210, symBinAddr: 0x10000D124, symSize: 0x140 }
  - { offset: 0x4154A, size: 0x8, addend: 0x0, symName: __ZN4core3fmt5Write10write_char17hb7b510f6e91dde12E, symObjAddr: 0x1350, symBinAddr: 0x10000D264, symSize: 0x180 }
  - { offset: 0x416F7, size: 0x8, addend: 0x0, symName: __ZN4core3fmt5Write10write_char17hdfb28a662f1dadabE, symObjAddr: 0x14D0, symBinAddr: 0x10000D3E4, symSize: 0x140 }
  - { offset: 0x417DA, size: 0x8, addend: 0x0, symName: __ZN4core3fmt5Write9write_fmt17h13bdb2eccd0c285eE, symObjAddr: 0x1610, symBinAddr: 0x10000D524, symSize: 0x10 }
  - { offset: 0x41809, size: 0x8, addend: 0x0, symName: __ZN4core3fmt5Write9write_fmt17h3d48754a628ad650E, symObjAddr: 0x1620, symBinAddr: 0x10000D534, symSize: 0x10 }
  - { offset: 0x41838, size: 0x8, addend: 0x0, symName: __ZN4core3fmt5Write9write_fmt17h4270820d5fb62457E, symObjAddr: 0x1630, symBinAddr: 0x10000D544, symSize: 0x10 }
  - { offset: 0x41867, size: 0x8, addend: 0x0, symName: __ZN4core3fmt5Write9write_fmt17ha2d460255287c06dE, symObjAddr: 0x1640, symBinAddr: 0x10000D554, symSize: 0x10 }
  - { offset: 0x41896, size: 0x8, addend: 0x0, symName: __ZN4core3fmt5Write9write_fmt17ha8ecdcf0f48f38acE, symObjAddr: 0x1650, symBinAddr: 0x10000D564, symSize: 0x10 }
  - { offset: 0x418C5, size: 0x8, addend: 0x0, symName: __ZN4core3fmt5Write9write_fmt17hc6c9dcaece3bb60dE, symObjAddr: 0x1660, symBinAddr: 0x10000D574, symSize: 0x10 }
  - { offset: 0x41922, size: 0x8, addend: 0x0, symName: '__ZN50_$LT$$BP$mut$u20$T$u20$as$u20$core..fmt..Debug$GT$3fmt17h0e71da53ffdbf142E', symObjAddr: 0xF410, symBinAddr: 0x100017568, symSize: 0x8 }
  - { offset: 0x41940, size: 0x8, addend: 0x0, symName: '__ZN50_$LT$$BP$mut$u20$T$u20$as$u20$core..fmt..Debug$GT$3fmt17h0e71da53ffdbf142E', symObjAddr: 0xF410, symBinAddr: 0x100017568, symSize: 0x8 }
  - { offset: 0x4196F, size: 0x8, addend: 0x0, symName: '__ZN52_$LT$$RF$mut$u20$T$u20$as$u20$core..fmt..Display$GT$3fmt17hc5f28addd174597dE', symObjAddr: 0xF500, symBinAddr: 0x100017570, symSize: 0x10 }
  - { offset: 0x419D5, size: 0x8, addend: 0x0, symName: '__ZN55_$LT$$RF$str$u20$as$u20$core..str..pattern..Pattern$GT$15is_contained_in17hf6a15fe5f9aec0c7E', symObjAddr: 0xF510, symBinAddr: 0x100017580, symSize: 0x3C0 }
  - { offset: 0x4241A, size: 0x8, addend: 0x0, symName: '__ZN70_$LT$core..num..error..TryFromIntError$u20$as$u20$core..fmt..Debug$GT$3fmt17h43e59b0425417061E', symObjAddr: 0x1C570, symBinAddr: 0x100023E2C, symSize: 0x40 }
  - { offset: 0x4251C, size: 0x8, addend: 0x0, symName: '__ZN4core5array69_$LT$impl$u20$core..fmt..Debug$u20$for$u20$$u5b$T$u3b$$u20$N$u5d$$GT$3fmt17h666d4f1ab6b28ee7E', symObjAddr: 0x76B8, symBinAddr: 0x10000F8EC, symSize: 0xFC }
  - { offset: 0x42A5B, size: 0x8, addend: 0x0, symName: __ZN4core5panic12PanicPayload6as_str17h55b7c7a41678db2dE, symObjAddr: 0x7814, symBinAddr: 0x10000F9E8, symSize: 0x8 }
  - { offset: 0x4328E, size: 0x8, addend: 0x0, symName: __ZN4core3ops8function2Fn4call17h4cee00de71f7796dE, symObjAddr: 0x1734, symBinAddr: 0x10000D584, symSize: 0xAC }
  - { offset: 0x43389, size: 0x8, addend: 0x0, symName: __ZN4core3ops8function2Fn4call17h53dbb0b9a48294dcE, symObjAddr: 0x1818, symBinAddr: 0x10000D630, symSize: 0xA4 }
  - { offset: 0x434A5, size: 0x8, addend: 0x0, symName: '__ZN4core3ops8function6FnOnce40call_once$u7b$$u7b$vtable.shim$u7d$$u7d$17h0256ef3c49b7fef6E', symObjAddr: 0x190C, symBinAddr: 0x10000D6D4, symSize: 0xC }
  - { offset: 0x434F6, size: 0x8, addend: 0x0, symName: '__ZN4core3ops8function6FnOnce40call_once$u7b$$u7b$vtable.shim$u7d$$u7d$17h1a440162a384b96dE', symObjAddr: 0x1918, symBinAddr: 0x10000D6E0, symSize: 0x4 }
  - { offset: 0x43513, size: 0x8, addend: 0x0, symName: '__ZN4core3ops8function6FnOnce40call_once$u7b$$u7b$vtable.shim$u7d$$u7d$17h1a440162a384b96dE', symObjAddr: 0x1918, symBinAddr: 0x10000D6E0, symSize: 0x4 }
  - { offset: 0x43532, size: 0x8, addend: 0x0, symName: '__ZN4core3ops8function6FnOnce40call_once$u7b$$u7b$vtable.shim$u7d$$u7d$17h5a3ea79ed9b56f49E', symObjAddr: 0x1924, symBinAddr: 0x10000D6E4, symSize: 0x28 }
  - { offset: 0x4356E, size: 0x8, addend: 0x0, symName: '__ZN4core3ops8function6FnOnce40call_once$u7b$$u7b$vtable.shim$u7d$$u7d$17h6ef6b541deff04acE', symObjAddr: 0x194C, symBinAddr: 0x10000D70C, symSize: 0xC }
  - { offset: 0x435BF, size: 0x8, addend: 0x0, symName: '__ZN4core3ops8function6FnOnce40call_once$u7b$$u7b$vtable.shim$u7d$$u7d$17h8b0e1f22722d72f6E', symObjAddr: 0x19F4, symBinAddr: 0x10000D718, symSize: 0x4 }
  - { offset: 0x435DC, size: 0x8, addend: 0x0, symName: '__ZN4core3ops8function6FnOnce40call_once$u7b$$u7b$vtable.shim$u7d$$u7d$17h8b0e1f22722d72f6E', symObjAddr: 0x19F4, symBinAddr: 0x10000D718, symSize: 0x4 }
  - { offset: 0x435FB, size: 0x8, addend: 0x0, symName: '__ZN4core3ops8function6FnOnce40call_once$u7b$$u7b$vtable.shim$u7d$$u7d$17h9b4a9096c70fd176E', symObjAddr: 0x1A38, symBinAddr: 0x10000D71C, symSize: 0xA4 }
  - { offset: 0x43741, size: 0x8, addend: 0x0, symName: '__ZN4core3ops8function6FnOnce40call_once$u7b$$u7b$vtable.shim$u7d$$u7d$17hb135094d08c6abcbE', symObjAddr: 0x1ADC, symBinAddr: 0x10000D7C0, symSize: 0x60 }
  - { offset: 0x43825, size: 0x8, addend: 0x0, symName: '__ZN4core3ops8function6FnOnce40call_once$u7b$$u7b$vtable.shim$u7d$$u7d$17hda98b980b7e364a0E', symObjAddr: 0x1B3C, symBinAddr: 0x10000D820, symSize: 0x78 }
  - { offset: 0x4649D, size: 0x8, addend: 0x0, symName: '__ZN4core4cell4once17OnceCell$LT$T$GT$8try_init17h1f3ae8fa04109d74E', symObjAddr: 0x4750, symBinAddr: 0x10004570C, symSize: 0x60 }
  - { offset: 0x464BB, size: 0x8, addend: 0x0, symName: '__ZN4core4cell4once17OnceCell$LT$T$GT$8try_init17h1f3ae8fa04109d74E', symObjAddr: 0x4750, symBinAddr: 0x10004570C, symSize: 0x60 }
  - { offset: 0x464D0, size: 0x8, addend: 0x0, symName: '__ZN4core4cell4once17OnceCell$LT$T$GT$8try_init17h1f3ae8fa04109d74E', symObjAddr: 0x4750, symBinAddr: 0x10004570C, symSize: 0x60 }
  - { offset: 0x464E4, size: 0x8, addend: 0x0, symName: '__ZN4core4cell4once17OnceCell$LT$T$GT$8try_init17h1f3ae8fa04109d74E', symObjAddr: 0x4750, symBinAddr: 0x10004570C, symSize: 0x60 }
  - { offset: 0x4653B, size: 0x8, addend: 0x0, symName: '__ZN4core4cell4once17OnceCell$LT$T$GT$8try_init17h5030d0cfd605f88aE', symObjAddr: 0x47B0, symBinAddr: 0x10004576C, symSize: 0x678 }
  - { offset: 0x471FD, size: 0x8, addend: 0x0, symName: '__ZN4core4cell4once17OnceCell$LT$T$GT$8try_init17hb2acaa81388d9a1dE', symObjAddr: 0x4E28, symBinAddr: 0x100045DE4, symSize: 0x110 }
  - { offset: 0x474E1, size: 0x8, addend: 0x0, symName: '__ZN4core4cell4once17OnceCell$LT$T$GT$8try_init17hec4c6057203f18caE', symObjAddr: 0x4F38, symBinAddr: 0x100045EF4, symSize: 0x1AC4 }
  - { offset: 0x4A79A, size: 0x8, addend: 0x0, symName: '__ZN4core4cell4once17OnceCell$LT$T$GT$8try_init17hf59b8f3666c9e504E', symObjAddr: 0x69FC, symBinAddr: 0x1000479B8, symSize: 0x80 }
  - { offset: 0x4A84D, size: 0x8, addend: 0x0, symName: '__ZN4core4cell4once17OnceCell$LT$T$GT$8try_init17hfae89e2951f245baE', symObjAddr: 0x6A7C, symBinAddr: 0x100047A38, symSize: 0xC3C }
  - { offset: 0x4C8B8, size: 0x8, addend: 0x0, symName: __ZN4core9panicking13assert_failed17h49968851add484acE, symObjAddr: 0xF3B8, symBinAddr: 0x100048674, symSize: 0x34 }
  - { offset: 0x4C8D3, size: 0x8, addend: 0x0, symName: __ZN4core9panicking13assert_failed17h8219ec77f299110cE, symObjAddr: 0xF3EC, symBinAddr: 0x1000486A8, symSize: 0x24 }
  - { offset: 0x4CCFA, size: 0x8, addend: 0x0, symName: __ZN3std9panicking11panic_count8increase17h5d061070c09c1b20E, symObjAddr: 0x3BDA0, symBinAddr: 0x10002D02C, symSize: 0x64 }
  - { offset: 0x4CD11, size: 0x8, addend: 0x0, symName: __ZN3std9panicking11panic_count8increase17h5d061070c09c1b20E, symObjAddr: 0x3BDA0, symBinAddr: 0x10002D02C, symSize: 0x64 }
  - { offset: 0x4CD26, size: 0x8, addend: 0x0, symName: __ZN3std9panicking11panic_count8increase17h5d061070c09c1b20E, symObjAddr: 0x3BDA0, symBinAddr: 0x10002D02C, symSize: 0x64 }
  - { offset: 0x4CE05, size: 0x8, addend: 0x0, symName: __ZN3std9panicking11panic_count17is_zero_slow_path17h01eb20a9cec6a821E, symObjAddr: 0x3BE8C, symBinAddr: 0x1000490A0, symSize: 0x2C }
  - { offset: 0x4CF65, size: 0x8, addend: 0x0, symName: __RNvCs73fAdSrgOJL_7___rustc17___rust_drop_panic, symObjAddr: 0x3B3E8, symBinAddr: 0x10002C8E0, symSize: 0xBC }
  - { offset: 0x4D15A, size: 0x8, addend: 0x0, symName: __RNvCs73fAdSrgOJL_7___rustc24___rust_foreign_exception, symObjAddr: 0x3B4A4, symBinAddr: 0x10002C99C, symSize: 0xBC }
  - { offset: 0x4D34F, size: 0x8, addend: 0x0, symName: __ZN3std9panicking12default_hook17h8875fb31ec87dfadE, symObjAddr: 0x3B7CC, symBinAddr: 0x10002CA58, symSize: 0x1AC }
  - { offset: 0x4D68D, size: 0x8, addend: 0x0, symName: '__ZN3std9panicking12default_hook28_$u7b$$u7b$closure$u7d$$u7d$17hf623c44b740b115fE', symObjAddr: 0x3B978, symBinAddr: 0x10002CC04, symSize: 0x1A4 }
  - { offset: 0x4D864, size: 0x8, addend: 0x0, symName: '__ZN3std9panicking12default_hook28_$u7b$$u7b$closure$u7d$$u7d$28_$u7b$$u7b$closure$u7d$$u7d$17hf47d63ca0778dae1E', symObjAddr: 0x3BB1C, symBinAddr: 0x10002CDA8, symSize: 0x284 }
  - { offset: 0x4DCDA, size: 0x8, addend: 0x0, symName: __RNvCs73fAdSrgOJL_7___rustc17rust_begin_unwind, symObjAddr: 0x3BF00, symBinAddr: 0x10002D090, symSize: 0x20 }
  - { offset: 0x4DD43, size: 0x8, addend: 0x0, symName: '__ZN102_$LT$std..panicking..begin_panic_handler..FormatStringPayload$u20$as$u20$core..panic..PanicPayload$GT$8take_box17h223afba6ccee5cb1E', symObjAddr: 0x3BF20, symBinAddr: 0x10002D0B0, symSize: 0x118 }
  - { offset: 0x4DFBF, size: 0x8, addend: 0x0, symName: '__ZN102_$LT$std..panicking..begin_panic_handler..FormatStringPayload$u20$as$u20$core..panic..PanicPayload$GT$3get17h4f88f29aab2fd10fE', symObjAddr: 0x3C038, symBinAddr: 0x10002D1C8, symSize: 0xB0 }
  - { offset: 0x4E0F8, size: 0x8, addend: 0x0, symName: '__ZN95_$LT$std..panicking..begin_panic_handler..FormatStringPayload$u20$as$u20$core..fmt..Display$GT$3fmt17hb0af82e86096f7f0E', symObjAddr: 0x3C0E8, symBinAddr: 0x10002D278, symSize: 0x5C }
  - { offset: 0x4E1F5, size: 0x8, addend: 0x0, symName: '__ZN99_$LT$std..panicking..begin_panic_handler..StaticStrPayload$u20$as$u20$core..panic..PanicPayload$GT$8take_box17h0df143ef4488f020E', symObjAddr: 0x3C144, symBinAddr: 0x10002D2D4, symSize: 0x48 }
  - { offset: 0x4E26C, size: 0x8, addend: 0x0, symName: '__ZN99_$LT$std..panicking..begin_panic_handler..StaticStrPayload$u20$as$u20$core..panic..PanicPayload$GT$3get17h5775715a100ee158E', symObjAddr: 0x3C18C, symBinAddr: 0x10002D31C, symSize: 0xC }
  - { offset: 0x4E287, size: 0x8, addend: 0x0, symName: '__ZN99_$LT$std..panicking..begin_panic_handler..StaticStrPayload$u20$as$u20$core..panic..PanicPayload$GT$6as_str17h4a89cb46754932c0E', symObjAddr: 0x3C198, symBinAddr: 0x10002D328, symSize: 0xC }
  - { offset: 0x4E2A8, size: 0x8, addend: 0x0, symName: '__ZN92_$LT$std..panicking..begin_panic_handler..StaticStrPayload$u20$as$u20$core..fmt..Display$GT$3fmt17h97bd842622e6ccedE', symObjAddr: 0x3C1A4, symBinAddr: 0x10002D334, symSize: 0x10 }
  - { offset: 0x4E2C4, size: 0x8, addend: 0x0, symName: '__ZN3std9panicking19begin_panic_handler28_$u7b$$u7b$closure$u7d$$u7d$17hdf417b72ab8ffff8E', symObjAddr: 0x3C1B4, symBinAddr: 0x10002D344, symSize: 0xC4 }
  - { offset: 0x4E42C, size: 0x8, addend: 0x0, symName: __ZN3std9panicking14payload_as_str17h9b5790cdb2b550fcE, symObjAddr: 0x3C35C, symBinAddr: 0x10002D408, symSize: 0xB0 }
  - { offset: 0x4E510, size: 0x8, addend: 0x0, symName: __ZN3std9panicking20rust_panic_with_hook17hdd8ceeeb04975c2bE, symObjAddr: 0x3C40C, symBinAddr: 0x10002D4B8, symSize: 0x398 }
  - { offset: 0x4ED5D, size: 0x8, addend: 0x0, symName: __RNvCs73fAdSrgOJL_7___rustc10rust_panic, symObjAddr: 0x3C898, symBinAddr: 0x1000490CC, symSize: 0x60 }
  - { offset: 0x4EED9, size: 0x8, addend: 0x0, symName: __ZN3std3sys7process4unix4unix7Process4wait17hf16eee4591add28bE, symObjAddr: 0x47350, symBinAddr: 0x100032384, symSize: 0xA0 }
  - { offset: 0x4F09C, size: 0x8, addend: 0x0, symName: '__ZN102_$LT$std..sys..process..unix..common..cstring_array..CStringArray$u20$as$u20$core..ops..drop..Drop$GT$4drop17h78e7b17770d00f7eE', symObjAddr: 0x44808, symBinAddr: 0x100030548, symSize: 0x70 }
  - { offset: 0x4F1B5, size: 0x8, addend: 0x0, symName: __ZN3std3sys7process4unix6common13cstring_array12CStringArray13with_capacity17h99fa5c23e0df8330E, symObjAddr: 0x44628, symBinAddr: 0x100030470, symSize: 0xD8 }
  - { offset: 0x4F376, size: 0x8, addend: 0x0, symName: __ZN3std3sys7process4unix6common7Command3new17hee79130fbef3296eE, symObjAddr: 0x448E8, symBinAddr: 0x1000305B8, symSize: 0x284 }
  - { offset: 0x4F832, size: 0x8, addend: 0x0, symName: __ZN3std3sys7process4unix6common7Command3arg17h226ffd4f27122ef8E, symObjAddr: 0x44CB4, symBinAddr: 0x10003083C, symSize: 0xEC }
  - { offset: 0x4FB34, size: 0x8, addend: 0x0, symName: __ZN3std3sys7process4unix6common7Command6stderr17hf6aa7067185bb6cbE, symObjAddr: 0x45080, symBinAddr: 0x100030928, symSize: 0x44 }
  - { offset: 0x4FBBD, size: 0x8, addend: 0x0, symName: __ZN3std3sys7process4unix6common7Command11capture_env17h0cfcb5df006c563cE, symObjAddr: 0x450C4, symBinAddr: 0x10003096C, symSize: 0x91C }
  - { offset: 0x51461, size: 0x8, addend: 0x0, symName: __ZN3std3sys7process4unix6common7Command8setup_io17h49fecf1d8531d22fE, symObjAddr: 0x459E0, symBinAddr: 0x100031288, symSize: 0x2F8 }
  - { offset: 0x51918, size: 0x8, addend: 0x0, symName: '__ZN3std3sys7process4unix4unix58_$LT$impl$u20$std..sys..process..unix..common..Command$GT$5spawn17h83be88a7218a58a1E', symObjAddr: 0x46674, symBinAddr: 0x1000316DC, symSize: 0x928 }
  - { offset: 0x5296E, size: 0x8, addend: 0x0, symName: '__ZN3std3sys7process4unix4unix58_$LT$impl$u20$std..sys..process..unix..common..Command$GT$7do_exec17h7cf7ac48f439483cE', symObjAddr: 0x46F9C, symBinAddr: 0x100032004, symSize: 0x380 }
  - { offset: 0x532E4, size: 0x8, addend: 0x0, symName: __ZN3std3sys7process4unix6common5Stdio14to_child_stdio17hb95d2f9ba1abe590E, symObjAddr: 0x45CD8, symBinAddr: 0x100031580, symSize: 0x15C }
  - { offset: 0x5344C, size: 0x8, addend: 0x0, symName: __ZN3std3sys7process3env10CommandEnv6remove17h3c9f8276daaa27abE, symObjAddr: 0x3A0DC, symBinAddr: 0x10002C238, symSize: 0x3B8 }
  - { offset: 0x53FC1, size: 0x8, addend: 0x0, symName: __ZN3std3sys2fs4unix15remove_dir_impl24remove_dir_all_recursive17h776ee7b828702387E, symObjAddr: 0x427B0, symBinAddr: 0x100030128, symSize: 0x348 }
  - { offset: 0x547DE, size: 0x8, addend: 0x0, symName: __ZN3std3sys2fs4unix4File6open_c17h5a31c1e924c31a39E, symObjAddr: 0x4151C, symBinAddr: 0x10002FF34, symSize: 0x1B0 }
  - { offset: 0x54925, size: 0x8, addend: 0x0, symName: '__ZN86_$LT$std..sys..fs..unix..ReadDir$u20$as$u20$core..iter..traits..iterator..Iterator$GT$4next17h9b7743c8c0a5f434E', symObjAddr: 0x41080, symBinAddr: 0x10002FD30, symSize: 0x138 }
  - { offset: 0x54C2A, size: 0x8, addend: 0x0, symName: '__ZN3std3sys2fs4unix10DirBuilder5mkdir28_$u7b$$u7b$closure$u7d$$u7d$17hfc1600754cc9153eE', symObjAddr: 0x417F4, symBinAddr: 0x1000300E4, symSize: 0x44 }
  - { offset: 0x54CE8, size: 0x8, addend: 0x0, symName: '__ZN65_$LT$std..sys..fs..unix..Dir$u20$as$u20$core..ops..drop..Drop$GT$4drop17hda69c3116f0d01f9E', symObjAddr: 0x411B8, symBinAddr: 0x10002FE68, symSize: 0xCC }
  - { offset: 0x54DC0, size: 0x8, addend: 0x0, symName: __ZN3std3sys2fs8read_dir17ha4d851693f34a78dE, symObjAddr: 0x38968, symBinAddr: 0x10002BF84, symSize: 0x19C }
  - { offset: 0x55066, size: 0x8, addend: 0x0, symName: __ZN3std3sys2fs14remove_dir_all17h062485d391b5fd38E, symObjAddr: 0x38E9C, symBinAddr: 0x10002C120, symSize: 0x118 }
  - { offset: 0x55282, size: 0x8, addend: 0x0, symName: __ZN3std3sys3pal4unix2os4exit17h6753c8f46b8c92e5E, symObjAddr: 0x3DA78, symBinAddr: 0x10002E030, symSize: 0xC }
  - { offset: 0x55310, size: 0x8, addend: 0x0, symName: __ZN3std3sys3pal4unix4sync5mutex5Mutex4init17he47bfeffad10ab23E, symObjAddr: 0x3F018, symBinAddr: 0x10002F360, symSize: 0x16C }
  - { offset: 0x553C7, size: 0x8, addend: 0x0, symName: __ZN3std3sys3pal4unix4sync5mutex5Mutex4lock4fail17hc6db7b5c9b0389a0E, symObjAddr: 0x3F1A0, symBinAddr: 0x100049184, symSize: 0xE4 }
  - { offset: 0x556BA, size: 0x8, addend: 0x0, symName: __ZN3std3sys3pal4unix14stack_overflow3imp14signal_handler17h46f8ef1aa7528f43E, symObjAddr: 0x3E7B8, symBinAddr: 0x10002EB00, symSize: 0x290 }
  - { offset: 0x55C8B, size: 0x8, addend: 0x0, symName: __ZN3std3sys3pal4unix14stack_overflow3imp12make_handler17he67200fb708acd59E, symObjAddr: 0x3EA48, symBinAddr: 0x10002ED90, symSize: 0x234 }
  - { offset: 0x5603B, size: 0x8, addend: 0x0, symName: __ZN3std3sys3pal4unix14stack_overflow3imp12drop_handler17h683641cfe3e92d15E, symObjAddr: 0x3EC7C, symBinAddr: 0x10002EFC4, symSize: 0x39C }
  - { offset: 0x5689D, size: 0x8, addend: 0x0, symName: __ZN3std3sys3pal4unix14stack_overflow11thread_info16set_current_info17hdef3efae36137112E, symObjAddr: 0x3DE70, symBinAddr: 0x10002E1B8, symSize: 0x948 }
  - { offset: 0x57C3F, size: 0x8, addend: 0x0, symName: __ZN3std3sys3pal4unix4pipe8AnonPipe5write17h16a4c9da9673706eE, symObjAddr: 0x3DBAC, symBinAddr: 0x10002E164, symSize: 0x54 }
  - { offset: 0x57D1C, size: 0x8, addend: 0x0, symName: __ZN3std3sys3pal4unix4pipe9anon_pipe17ha2e56c5565a24655E, symObjAddr: 0x3DA84, symBinAddr: 0x10002E03C, symSize: 0x128 }
  - { offset: 0x58012, size: 0x8, addend: 0x0, symName: '__ZN3std3sys3pal4unix4weak18DlsymWeak$LT$F$GT$10initialize17ha6b700ee2a93a6c2E', symObjAddr: 0x3D788, symBinAddr: 0x10004912C, symSize: 0x58 }
  - { offset: 0x58086, size: 0x8, addend: 0x0, symName: __ZN3std3sys3pal4unix17decode_error_kind17haabc64936b405e49E, symObjAddr: 0x3FA78, symBinAddr: 0x10002F4CC, symSize: 0x150 }
  - { offset: 0x580A0, size: 0x8, addend: 0x0, symName: __ZN3std3sys3pal4unix14abort_internal17ha2b174aef73aaa99E, symObjAddr: 0x3FBC8, symBinAddr: 0x100049268, symSize: 0xC }
  - { offset: 0x5819A, size: 0x8, addend: 0x0, symName: __ZN3std3sys3pal6common14small_c_string24run_with_cstr_allocating17h4ec231ca57273a05E, symObjAddr: 0x379EC, symBinAddr: 0x100048C1C, symSize: 0xBC }
  - { offset: 0x58376, size: 0x8, addend: 0x0, symName: __ZN3std3sys3pal6common14small_c_string24run_with_cstr_allocating17h62eae881f61189b9E, symObjAddr: 0x37AA8, symBinAddr: 0x100048CD8, symSize: 0xC4 }
  - { offset: 0x5853F, size: 0x8, addend: 0x0, symName: __ZN3std3sys3pal6common14small_c_string24run_with_cstr_allocating17h849b8fb7465c671dE, symObjAddr: 0x37B6C, symBinAddr: 0x100048D9C, symSize: 0xAC }
  - { offset: 0x5869B, size: 0x8, addend: 0x0, symName: __ZN3std3sys3pal6common14small_c_string24run_with_cstr_allocating17h9731a74c6f43e353E, symObjAddr: 0x37C18, symBinAddr: 0x100048E48, symSize: 0xD0 }
  - { offset: 0x58864, size: 0x8, addend: 0x0, symName: __ZN3std3sys3pal6common14small_c_string24run_with_cstr_allocating17hf63fa4ece05c9b45E, symObjAddr: 0x37CE8, symBinAddr: 0x100048F18, symSize: 0xA4 }
  - { offset: 0x58A3B, size: 0x8, addend: 0x0, symName: '__ZN64_$LT$std..sys..stdio..unix..Stderr$u20$as$u20$std..io..Write$GT$5write17h3b1932d17393f261E', symObjAddr: 0x47870, symBinAddr: 0x100032424, symSize: 0x58 }
  - { offset: 0x58B11, size: 0x8, addend: 0x0, symName: '__ZN64_$LT$std..sys..stdio..unix..Stderr$u20$as$u20$std..io..Write$GT$14write_vectored17h8ff0487a5ca382e1E', symObjAddr: 0x478C8, symBinAddr: 0x10003247C, symSize: 0x58 }
  - { offset: 0x58BE7, size: 0x8, addend: 0x0, symName: '__ZN64_$LT$std..sys..stdio..unix..Stderr$u20$as$u20$std..io..Write$GT$17is_write_vectored17h806729f05e1b02f1E', symObjAddr: 0x47920, symBinAddr: 0x1000324D4, symSize: 0x8 }
  - { offset: 0x58C01, size: 0x8, addend: 0x0, symName: '__ZN64_$LT$std..sys..stdio..unix..Stderr$u20$as$u20$std..io..Write$GT$5flush17ha8134fdfc2044e22E', symObjAddr: 0x47928, symBinAddr: 0x1000324DC, symSize: 0x8 }
  - { offset: 0x58C49, size: 0x8, addend: 0x0, symName: '__ZN3std3sys11personality3gcc14find_eh_action28_$u7b$$u7b$closure$u7d$$u7d$17h8e0a401f13cba7b2E', symObjAddr: 0x3FBD4, symBinAddr: 0x10002F61C, symSize: 0xC }
  - { offset: 0x58C5D, size: 0x8, addend: 0x0, symName: '__ZN3std3sys11personality3gcc14find_eh_action28_$u7b$$u7b$closure$u7d$$u7d$17hb37e74614c39fe5bE', symObjAddr: 0x3FBE0, symBinAddr: 0x10002F628, symSize: 0xC }
  - { offset: 0x58C8D, size: 0x8, addend: 0x0, symName: _rust_eh_personality, symObjAddr: 0x3FBEC, symBinAddr: 0x10002F634, symSize: 0x378 }
  - { offset: 0x59016, size: 0x8, addend: 0x0, symName: __ZN3std3sys11personality5dwarf2eh19read_encoded_offset17ha35e0bf259a51371E, symObjAddr: 0x37E3C, symBinAddr: 0x10002B698, symSize: 0x148 }
  - { offset: 0x59196, size: 0x8, addend: 0x0, symName: '__ZN3std3sys9backtrace10_print_fmt28_$u7b$$u7b$closure$u7d$$u7d$17h53593d80dca05be6E', symObjAddr: 0x382E8, symBinAddr: 0x10002BACC, symSize: 0x24 }
  - { offset: 0x591BF, size: 0x8, addend: 0x0, symName: '__ZN3std3sys9backtrace10_print_fmt28_$u7b$$u7b$closure$u7d$$u7d$17h562a49be56385aceE', symObjAddr: 0x3830C, symBinAddr: 0x10002BAF0, symSize: 0x130 }
  - { offset: 0x592D3, size: 0x8, addend: 0x0, symName: '__ZN3std3sys9backtrace10_print_fmt28_$u7b$$u7b$closure$u7d$$u7d$28_$u7b$$u7b$closure$u7d$$u7d$17had6f8f8b94a1d5d2E', symObjAddr: 0x3843C, symBinAddr: 0x10002BC20, symSize: 0x264 }
  - { offset: 0x59502, size: 0x8, addend: 0x0, symName: __ZN3std3sys9backtrace4lock17hdabe8353c49be0ebE, symObjAddr: 0x37FFC, symBinAddr: 0x10002B7E0, symSize: 0x70 }
  - { offset: 0x5964B, size: 0x8, addend: 0x0, symName: __ZN3std3sys9backtrace13BacktraceLock5print17h3eb1535b8d3666caE, symObjAddr: 0x3806C, symBinAddr: 0x10002B850, symSize: 0x54 }
  - { offset: 0x59698, size: 0x8, addend: 0x0, symName: '__ZN98_$LT$std..sys..backtrace..BacktraceLock..print..DisplayBacktrace$u20$as$u20$core..fmt..Display$GT$3fmt17h373e57e2286956dcE', symObjAddr: 0x380C0, symBinAddr: 0x10002B8A4, symSize: 0x228 }
  - { offset: 0x59B7D, size: 0x8, addend: 0x0, symName: __ZN3std3sys9backtrace26__rust_end_short_backtrace17h507d79c50996742eE, symObjAddr: 0x386A0, symBinAddr: 0x10002BE84, symSize: 0xC }
  - { offset: 0x59B97, size: 0x8, addend: 0x0, symName: __ZN3std3sys9backtrace15output_filename17h1e17c213ac1ab78dE, symObjAddr: 0x386B8, symBinAddr: 0x10002BE90, symSize: 0xF4 }
  - { offset: 0x59D65, size: 0x8, addend: 0x0, symName: '__ZN3std3sys4sync8once_box16OnceBox$LT$T$GT$10initialize17he379977f8bc9e5d3E', symObjAddr: 0x3A608, symBinAddr: 0x100048FBC, symSize: 0xE4 }
  - { offset: 0x5A047, size: 0x8, addend: 0x0, symName: __ZN3std3sys4sync6rwlock5queue6RwLock21read_unlock_contended17h1b9e50d42faedc94E, symObjAddr: 0x4843C, symBinAddr: 0x1000494C4, symSize: 0x40 }
  - { offset: 0x5A065, size: 0x8, addend: 0x0, symName: __ZN3std3sys4sync6rwlock5queue6RwLock21read_unlock_contended17h1b9e50d42faedc94E, symObjAddr: 0x4843C, symBinAddr: 0x1000494C4, symSize: 0x40 }
  - { offset: 0x5A07A, size: 0x8, addend: 0x0, symName: __ZN3std3sys4sync6rwlock5queue6RwLock21read_unlock_contended17h1b9e50d42faedc94E, symObjAddr: 0x4843C, symBinAddr: 0x1000494C4, symSize: 0x40 }
  - { offset: 0x5A1B7, size: 0x8, addend: 0x0, symName: __ZN3std3sys4sync6rwlock5queue6RwLock16unlock_contended17h76968e98b916e2abE, symObjAddr: 0x4847C, symBinAddr: 0x100049504, symSize: 0x40 }
  - { offset: 0x5A293, size: 0x8, addend: 0x0, symName: __ZN3std3sys4sync6rwlock5queue6RwLock12unlock_queue17h9c4ac3ac2d5778f9E, symObjAddr: 0x485C8, symBinAddr: 0x10003276C, symSize: 0x1CC }
  - { offset: 0x5A98B, size: 0x8, addend: 0x0, symName: __ZN3std3sys4sync6rwlock5queue9read_lock17h1f89cfb304dc509cE, symObjAddr: 0x481E8, symBinAddr: 0x10003274C, symSize: 0x20 }
  - { offset: 0x5A9A4, size: 0x8, addend: 0x0, symName: '__ZN83_$LT$std..sys..sync..rwlock..queue..PanicGuard$u20$as$u20$core..ops..drop..Drop$GT$4drop17h5cadc4ef1f5dcd7dE', symObjAddr: 0x48208, symBinAddr: 0x100049480, symSize: 0x44 }
  - { offset: 0x5AA9C, size: 0x8, addend: 0x0, symName: __ZN3std3sys4sync4once5queue4Once4call17hecaba0a776a35aa1E, symObjAddr: 0x47D60, symBinAddr: 0x100049274, symSize: 0x20C }
  - { offset: 0x5AD8B, size: 0x8, addend: 0x0, symName: '__ZN82_$LT$std..sys..sync..once..queue..WaiterQueue$u20$as$u20$core..ops..drop..Drop$GT$4drop17h7c83cf796170585cE', symObjAddr: 0x480F4, symBinAddr: 0x10003266C, symSize: 0xE0 }
  - { offset: 0x5AF4E, size: 0x8, addend: 0x0, symName: __ZN3std3sys4sync4once5queue4wait17h89a94bf1656b2ec7E, symObjAddr: 0x47F6C, symBinAddr: 0x1000324E4, symSize: 0x188 }
  - { offset: 0x5B525, size: 0x8, addend: 0x0, symName: __ZN3std3sys12thread_local6native5eager7destroy17heae091946a683e1cE, symObjAddr: 0x48840, symBinAddr: 0x100032938, symSize: 0x2C }
  - { offset: 0x5B676, size: 0x8, addend: 0x0, symName: __ZN3std3sys12thread_local5guard5apple6enable9run_dtors17hef79a299de7fb9adE, symObjAddr: 0x48984, symBinAddr: 0x100032A7C, symSize: 0xF8 }
  - { offset: 0x5BB8F, size: 0x8, addend: 0x0, symName: __ZN3std3sys12thread_local11destructors4list8register17hde6abc51e3c3721cE, symObjAddr: 0x4886C, symBinAddr: 0x100032964, symSize: 0x118 }
  - { offset: 0x5BEED, size: 0x8, addend: 0x0, symName: __ZN3std3sys3env4unix13env_read_lock17ha2bee16bf1e65b98E, symObjAddr: 0x3FF64, symBinAddr: 0x10002F9AC, symSize: 0x23C }
  - { offset: 0x5C5F6, size: 0x8, addend: 0x0, symName: '__ZN3std3sys3env4unix6getenv28_$u7b$$u7b$closure$u7d$$u7d$17h5aa62fce8cdb755bE', symObjAddr: 0x401A0, symBinAddr: 0x10002FBE8, symSize: 0x148 }
  - { offset: 0x5CA6F, size: 0x8, addend: 0x0, symName: '__ZN64_$LT$std..ffi..os_str..Display$u20$as$u20$core..fmt..Display$GT$3fmt17hf4e02af35f1fefceE', symObjAddr: 0x23390, symBinAddr: 0x10002761C, symSize: 0xAC }
  - { offset: 0x5CB9E, size: 0x8, addend: 0x0, symName: __ZN3std7process7Command6status17h8a3e92f044f9afa2E, symObjAddr: 0x35474, symBinAddr: 0x10002B280, symSize: 0x100 }
  - { offset: 0x5CE81, size: 0x8, addend: 0x0, symName: __ZN3std7process4exit17h9ea9ef2bb2cbf5d6E, symObjAddr: 0x35E3C, symBinAddr: 0x10002B380, symSize: 0x1C }
  - { offset: 0x5CE9C, size: 0x8, addend: 0x0, symName: __ZN3std7process5abort17hbd14f557f4be895cE, symObjAddr: 0x35E58, symBinAddr: 0x100048B44, symSize: 0xC }
  - { offset: 0x5CF2A, size: 0x8, addend: 0x0, symName: __ZN3std4path4Path13_strip_prefix17h44ebcc45a48bcda4E, symObjAddr: 0x336DC, symBinAddr: 0x10002ACF4, symSize: 0x21C }
  - { offset: 0x5D048, size: 0x8, addend: 0x0, symName: __ZN3std4path4Path5_join17h5f97e78c9ec6f8c6E, symObjAddr: 0x33F08, symBinAddr: 0x10002AF10, symSize: 0x1A4 }
  - { offset: 0x5D4D2, size: 0x8, addend: 0x0, symName: __ZN3std4path4Path6is_dir17h6e36cee7714ed1fbE, symObjAddr: 0x3499C, symBinAddr: 0x10002B0B4, symSize: 0x1C8 }
  - { offset: 0x5DA36, size: 0x8, addend: 0x0, symName: __ZN3std4path10Components15len_before_body17h5c34a7955bf675c9E, symObjAddr: 0x31A18, symBinAddr: 0x10002A090, symSize: 0x188 }
  - { offset: 0x5DA4D, size: 0x8, addend: 0x0, symName: __ZN3std4path10Components15len_before_body17h5c34a7955bf675c9E, symObjAddr: 0x31A18, symBinAddr: 0x10002A090, symSize: 0x188 }
  - { offset: 0x5DA62, size: 0x8, addend: 0x0, symName: __ZN3std4path10Components15len_before_body17h5c34a7955bf675c9E, symObjAddr: 0x31A18, symBinAddr: 0x10002A090, symSize: 0x188 }
  - { offset: 0x5DC1A, size: 0x8, addend: 0x0, symName: __ZN3std4path10Components7as_path17ha0723f3b84befc75E, symObjAddr: 0x31BA0, symBinAddr: 0x10002A218, symSize: 0x318 }
  - { offset: 0x5DE92, size: 0x8, addend: 0x0, symName: __ZN3std4path10Components25parse_next_component_back17hb183b6faf02472afE, symObjAddr: 0x31EB8, symBinAddr: 0x10002A530, symSize: 0x124 }
  - { offset: 0x5E054, size: 0x8, addend: 0x0, symName: '__ZN80_$LT$std..path..Components$u20$as$u20$core..iter..traits..iterator..Iterator$GT$4next17hc5f2949875039169E', symObjAddr: 0x32174, symBinAddr: 0x10002A654, symSize: 0x340 }
  - { offset: 0x5E351, size: 0x8, addend: 0x0, symName: '__ZN95_$LT$std..path..Components$u20$as$u20$core..iter..traits..double_ended..DoubleEndedIterator$GT$9next_back17h97da5c60c737f00eE', symObjAddr: 0x324B4, symBinAddr: 0x10002A994, symSize: 0x360 }
  - { offset: 0x5E4F5, size: 0x8, addend: 0x0, symName: '__ZN57_$LT$std..path..Display$u20$as$u20$core..fmt..Display$GT$3fmt17h55d7fd966bb4560dE', symObjAddr: 0x34D7C, symBinAddr: 0x10002B27C, symSize: 0x4 }
  - { offset: 0x5E544, size: 0x8, addend: 0x0, symName: '__ZN61_$LT$std..path..Component$u20$as$u20$core..cmp..PartialEq$GT$2eq17h9abf03ee93017be9E', symObjAddr: 0x3D540, symBinAddr: 0x10002DEF8, symSize: 0x138 }
  - { offset: 0x5E727, size: 0x8, addend: 0x0, symName: '__ZN81_$LT$std..io..default_write_fmt..Adapter$LT$T$GT$$u20$as$u20$core..fmt..Write$GT$9write_str17h1421ba9cd8ee47c5E', symObjAddr: 0x2CBD4, symBinAddr: 0x1000296E0, symSize: 0xA0 }
  - { offset: 0x5E84F, size: 0x8, addend: 0x0, symName: '__ZN81_$LT$std..io..default_write_fmt..Adapter$LT$T$GT$$u20$as$u20$core..fmt..Write$GT$9write_str17h2d8b7e46a0e35d96E', symObjAddr: 0x2CC74, symBinAddr: 0x100029780, symSize: 0x80 }
  - { offset: 0x5E99B, size: 0x8, addend: 0x0, symName: '__ZN81_$LT$std..io..default_write_fmt..Adapter$LT$T$GT$$u20$as$u20$core..fmt..Write$GT$9write_str17h380bc0a47db0c372E', symObjAddr: 0x2CCF4, symBinAddr: 0x100029800, symSize: 0x50 }
  - { offset: 0x5E9C5, size: 0x8, addend: 0x0, symName: '__ZN81_$LT$std..io..default_write_fmt..Adapter$LT$T$GT$$u20$as$u20$core..fmt..Write$GT$9write_str17h8e69c5e2e9f54588E', symObjAddr: 0x2CE1C, symBinAddr: 0x100029850, symSize: 0x50 }
  - { offset: 0x5E9EF, size: 0x8, addend: 0x0, symName: '__ZN81_$LT$std..io..default_write_fmt..Adapter$LT$T$GT$$u20$as$u20$core..fmt..Write$GT$9write_str17hf38da0e8ae1b5efbE', symObjAddr: 0x2CE6C, symBinAddr: 0x1000298A0, symSize: 0xD8 }
  - { offset: 0x5EBB1, size: 0x8, addend: 0x0, symName: '__ZN3std2io5impls74_$LT$impl$u20$std..io..Write$u20$for$u20$alloc..vec..Vec$LT$u8$C$A$GT$$GT$5write17hb822c2b238acf3c4E', symObjAddr: 0x27060, symBinAddr: 0x1000286CC, symSize: 0x84 }
  - { offset: 0x5ECF6, size: 0x8, addend: 0x0, symName: '__ZN3std2io5impls74_$LT$impl$u20$std..io..Write$u20$for$u20$alloc..vec..Vec$LT$u8$C$A$GT$$GT$14write_vectored17h3b2a452d1d260808E', symObjAddr: 0x270E4, symBinAddr: 0x100028750, symSize: 0x174 }
  - { offset: 0x5EF43, size: 0x8, addend: 0x0, symName: '__ZN3std2io5impls74_$LT$impl$u20$std..io..Write$u20$for$u20$alloc..vec..Vec$LT$u8$C$A$GT$$GT$17is_write_vectored17h85e25b333c28438fE', symObjAddr: 0x27258, symBinAddr: 0x1000288C4, symSize: 0x8 }
  - { offset: 0x5EF5E, size: 0x8, addend: 0x0, symName: '__ZN3std2io5impls74_$LT$impl$u20$std..io..Write$u20$for$u20$alloc..vec..Vec$LT$u8$C$A$GT$$GT$9write_all17h4986f5d3d6bca366E', symObjAddr: 0x27260, symBinAddr: 0x1000288CC, symSize: 0x80 }
  - { offset: 0x5F0AA, size: 0x8, addend: 0x0, symName: '__ZN3std2io5impls74_$LT$impl$u20$std..io..Write$u20$for$u20$alloc..vec..Vec$LT$u8$C$A$GT$$GT$18write_all_vectored17h0ce1bbe6949613dfE', symObjAddr: 0x272E0, symBinAddr: 0x10002894C, symSize: 0x168 }
  - { offset: 0x5F0D5, size: 0x8, addend: 0x0, symName: '__ZN3std2io5impls74_$LT$impl$u20$std..io..Write$u20$for$u20$alloc..vec..Vec$LT$u8$C$A$GT$$GT$18write_all_vectored17h0ce1bbe6949613dfE', symObjAddr: 0x272E0, symBinAddr: 0x10002894C, symSize: 0x168 }
  - { offset: 0x5F0EA, size: 0x8, addend: 0x0, symName: '__ZN3std2io5impls74_$LT$impl$u20$std..io..Write$u20$for$u20$alloc..vec..Vec$LT$u8$C$A$GT$$GT$18write_all_vectored17h0ce1bbe6949613dfE', symObjAddr: 0x272E0, symBinAddr: 0x10002894C, symSize: 0x168 }
  - { offset: 0x5F0FF, size: 0x8, addend: 0x0, symName: '__ZN3std2io5impls74_$LT$impl$u20$std..io..Write$u20$for$u20$alloc..vec..Vec$LT$u8$C$A$GT$$GT$18write_all_vectored17h0ce1bbe6949613dfE', symObjAddr: 0x272E0, symBinAddr: 0x10002894C, symSize: 0x168 }
  - { offset: 0x5F113, size: 0x8, addend: 0x0, symName: '__ZN3std2io5impls74_$LT$impl$u20$std..io..Write$u20$for$u20$alloc..vec..Vec$LT$u8$C$A$GT$$GT$18write_all_vectored17h0ce1bbe6949613dfE', symObjAddr: 0x272E0, symBinAddr: 0x10002894C, symSize: 0x168 }
  - { offset: 0x5F32C, size: 0x8, addend: 0x0, symName: '__ZN3std2io5impls74_$LT$impl$u20$std..io..Write$u20$for$u20$alloc..vec..Vec$LT$u8$C$A$GT$$GT$5flush17h2126ea47a926e7aeE', symObjAddr: 0x27448, symBinAddr: 0x100028AB4, symSize: 0x8 }
  - { offset: 0x5F4B5, size: 0x8, addend: 0x0, symName: __ZN3std2io5error14repr_bitpacked11decode_repr17hcdf376292fdb65d2E, symObjAddr: 0x26804, symBinAddr: 0x1000281D0, symSize: 0x60 }
  - { offset: 0x5F51E, size: 0x8, addend: 0x0, symName: '__ZN58_$LT$std..io..error..Error$u20$as$u20$core..fmt..Debug$GT$3fmt17hdf9c13a9945d5c29E', symObjAddr: 0x26864, symBinAddr: 0x100028230, symSize: 0x4 }
  - { offset: 0x5F55E, size: 0x8, addend: 0x0, symName: '__ZN3std2io5error83_$LT$impl$u20$core..fmt..Debug$u20$for$u20$std..io..error..repr_bitpacked..Repr$GT$3fmt17h0f29a0fd45fc1bcfE', symObjAddr: 0x26AD8, symBinAddr: 0x100028234, symSize: 0x294 }
  - { offset: 0x5F7A9, size: 0x8, addend: 0x0, symName: '__ZN60_$LT$std..io..error..Error$u20$as$u20$core..fmt..Display$GT$3fmt17habdd18ca5ab4309eE', symObjAddr: 0x26D6C, symBinAddr: 0x1000284C8, symSize: 0x204 }
  - { offset: 0x5FA08, size: 0x8, addend: 0x0, symName: '__ZN62_$LT$std..io..error..ErrorKind$u20$as$u20$core..fmt..Debug$GT$3fmt17h2d20d17aac9eb11fE', symObjAddr: 0x3D518, symBinAddr: 0x10002DED0, symSize: 0x28 }
  - { offset: 0x5FA61, size: 0x8, addend: 0x0, symName: __ZN3std2io5Write9write_all17h968f08b438f23232E, symObjAddr: 0x2CFB8, symBinAddr: 0x100029978, symSize: 0xB8 }
  - { offset: 0x5FB7C, size: 0x8, addend: 0x0, symName: __ZN3std2io5Write18write_all_vectored17hbcff9dde3b80a800E, symObjAddr: 0x2D070, symBinAddr: 0x100029A30, symSize: 0x1CC }
  - { offset: 0x5FE2D, size: 0x8, addend: 0x0, symName: __ZN3std2io5Write9write_fmt17h00b4007fff731b84E, symObjAddr: 0x2D23C, symBinAddr: 0x100029BFC, symSize: 0x128 }
  - { offset: 0x60077, size: 0x8, addend: 0x0, symName: __ZN3std2io5Write9write_fmt17h1c9f4e65a2760494E, symObjAddr: 0x2D364, symBinAddr: 0x100029D24, symSize: 0x128 }
  - { offset: 0x602C1, size: 0x8, addend: 0x0, symName: __ZN3std2io5Write9write_fmt17h619de9749845ad1bE, symObjAddr: 0x2D48C, symBinAddr: 0x100029E4C, symSize: 0x128 }
  - { offset: 0x60528, size: 0x8, addend: 0x0, symName: '__ZN3std2io8buffered9bufwriter18BufWriter$LT$W$GT$9flush_buf17h4ecd4f227cafd79eE', symObjAddr: 0x25DC8, symBinAddr: 0x100027FD8, symSize: 0x1F8 }
  - { offset: 0x60A96, size: 0x8, addend: 0x0, symName: '__ZN3std2io8buffered9bufwriter18BufWriter$LT$W$GT$14write_all_cold17hdc683320716deeb9E', symObjAddr: 0x2614C, symBinAddr: 0x100048A1C, symSize: 0x128 }
  - { offset: 0x60ECF, size: 0x8, addend: 0x0, symName: '__ZN61_$LT$$RF$std..io..stdio..Stdout$u20$as$u20$std..io..Write$GT$9write_fmt17h595bf9d2c2ff9fe0E', symObjAddr: 0x2A280, symBinAddr: 0x100028ABC, symSize: 0x190 }
  - { offset: 0x612D7, size: 0x8, addend: 0x0, symName: '__ZN61_$LT$std..io..stdio..StdoutLock$u20$as$u20$std..io..Write$GT$9write_all17h373dc2ca22e35da8E', symObjAddr: 0x2A72C, symBinAddr: 0x100028C4C, symSize: 0x268 }
  - { offset: 0x61A69, size: 0x8, addend: 0x0, symName: __ZN3std2io5stdio6Stderr4lock17h2c1838d646f36f3bE, symObjAddr: 0x2ACCC, symBinAddr: 0x100028EB4, symSize: 0xE4 }
  - { offset: 0x61D21, size: 0x8, addend: 0x0, symName: '__ZN61_$LT$$RF$std..io..stdio..Stderr$u20$as$u20$std..io..Write$GT$9write_fmt17h4951ea7a8e2d9c1cE', symObjAddr: 0x2B43C, symBinAddr: 0x100028F98, symSize: 0x190 }
  - { offset: 0x62115, size: 0x8, addend: 0x0, symName: '__ZN61_$LT$std..io..stdio..StderrLock$u20$as$u20$std..io..Write$GT$9write_all17he3efbae95858efe9E', symObjAddr: 0x2B7E0, symBinAddr: 0x100029128, symSize: 0x114 }
  - { offset: 0x6245F, size: 0x8, addend: 0x0, symName: __ZN3std2io5stdio22try_set_output_capture17h02e4e20053907c68E, symObjAddr: 0x2BA9C, symBinAddr: 0x10002923C, symSize: 0xEC }
  - { offset: 0x62700, size: 0x8, addend: 0x0, symName: __ZN3std2io5stdio31print_to_buffer_if_capture_used17hcd908728fda25d1dE, symObjAddr: 0x2BB88, symBinAddr: 0x100029328, symSize: 0x20C }
  - { offset: 0x62DF4, size: 0x8, addend: 0x0, symName: __ZN3std2io5stdio6_print17h934b25807d0b964aE, symObjAddr: 0x2BE68, symBinAddr: 0x100029534, symSize: 0xE4 }
  - { offset: 0x62EFB, size: 0x8, addend: 0x0, symName: __ZN3std2io5stdio7_eprint17hb6a163456652f820E, symObjAddr: 0x2BF4C, symBinAddr: 0x100029618, symSize: 0xC8 }
  - { offset: 0x63016, size: 0x8, addend: 0x0, symName: '__ZN3std4sync6poison4once4Once15call_once_force28_$u7b$$u7b$closure$u7d$$u7d$17h5fcd666c0990a5cbE', symObjAddr: 0x36574, symBinAddr: 0x10002B5C0, symSize: 0x78 }
  - { offset: 0x63153, size: 0x8, addend: 0x0, symName: '__ZN3std4sync6poison4once4Once15call_once_force28_$u7b$$u7b$closure$u7d$$u7d$17h8900ddc7fabd604dE', symObjAddr: 0x365EC, symBinAddr: 0x10002B638, symSize: 0x60 }
  - { offset: 0x63210, size: 0x8, addend: 0x0, symName: '__ZN3std4sync6poison4once4Once9call_once28_$u7b$$u7b$closure$u7d$$u7d$17h09c800c11a2781e6E', symObjAddr: 0x36154, symBinAddr: 0x10002B39C, symSize: 0x224 }
  - { offset: 0x63B9A, size: 0x8, addend: 0x0, symName: '__ZN3std4sync9once_lock17OnceLock$LT$T$GT$10initialize17ha33e4a2206d74ec9E', symObjAddr: 0x36EF0, symBinAddr: 0x100048B50, symSize: 0x64 }
  - { offset: 0x63BC5, size: 0x8, addend: 0x0, symName: '__ZN3std4sync9once_lock17OnceLock$LT$T$GT$10initialize17ha33e4a2206d74ec9E', symObjAddr: 0x36EF0, symBinAddr: 0x100048B50, symSize: 0x64 }
  - { offset: 0x63BD9, size: 0x8, addend: 0x0, symName: '__ZN3std4sync9once_lock17OnceLock$LT$T$GT$10initialize17ha33e4a2206d74ec9E', symObjAddr: 0x36EF0, symBinAddr: 0x100048B50, symSize: 0x64 }
  - { offset: 0x63BED, size: 0x8, addend: 0x0, symName: '__ZN3std4sync9once_lock17OnceLock$LT$T$GT$10initialize17ha33e4a2206d74ec9E', symObjAddr: 0x36EF0, symBinAddr: 0x100048B50, symSize: 0x64 }
  - { offset: 0x63C03, size: 0x8, addend: 0x0, symName: '__ZN3std4sync9once_lock17OnceLock$LT$T$GT$10initialize17hd570d1d77e17be18E', symObjAddr: 0x36FB0, symBinAddr: 0x100048BB4, symSize: 0x68 }
  - { offset: 0x63C2E, size: 0x8, addend: 0x0, symName: '__ZN3std4sync9once_lock17OnceLock$LT$T$GT$10initialize17hd570d1d77e17be18E', symObjAddr: 0x36FB0, symBinAddr: 0x100048BB4, symSize: 0x68 }
  - { offset: 0x63C42, size: 0x8, addend: 0x0, symName: '__ZN3std4sync9once_lock17OnceLock$LT$T$GT$10initialize17hd570d1d77e17be18E', symObjAddr: 0x36FB0, symBinAddr: 0x100048BB4, symSize: 0x68 }
  - { offset: 0x63C56, size: 0x8, addend: 0x0, symName: '__ZN3std4sync9once_lock17OnceLock$LT$T$GT$10initialize17hd570d1d77e17be18E', symObjAddr: 0x36FB0, symBinAddr: 0x100048BB4, symSize: 0x68 }
  - { offset: 0x63E24, size: 0x8, addend: 0x0, symName: __ZN3std12backtrace_rs9symbolize5gimli7Context3new17hb91d93e0b4232d15E, symObjAddr: 0x48BB8, symBinAddr: 0x100032BBC, symSize: 0x1FEC }
  - { offset: 0x67ACB, size: 0x8, addend: 0x0, symName: __ZN3std12backtrace_rs9symbolize5gimli7Context11find_frames17h23a2097c4c7962bdE, symObjAddr: 0x4ABA4, symBinAddr: 0x100034BA8, symSize: 0x390 }
  - { offset: 0x67EF0, size: 0x8, addend: 0x0, symName: __ZN3std12backtrace_rs9symbolize5gimli5macho6Object5parse17h5fdabfb181ac69c7E, symObjAddr: 0x4DA84, symBinAddr: 0x100037A70, symSize: 0xC28 }
  - { offset: 0x69D04, size: 0x8, addend: 0x0, symName: __ZN3std12backtrace_rs9symbolize5gimli5macho6Object7section17hc169392917328d37E, symObjAddr: 0x4E6AC, symBinAddr: 0x100038698, symSize: 0x154 }
  - { offset: 0x6A148, size: 0x8, addend: 0x0, symName: __ZN3std12backtrace_rs9symbolize5gimli5macho11find_header17h55f69df1f605b83cE, symObjAddr: 0x4D8B0, symBinAddr: 0x10003789C, symSize: 0x1D4 }
  - { offset: 0x6A167, size: 0x8, addend: 0x0, symName: __ZN3std12backtrace_rs9symbolize5gimli5macho11find_header17h55f69df1f605b83cE, symObjAddr: 0x4D8B0, symBinAddr: 0x10003789C, symSize: 0x1D4 }
  - { offset: 0x6A17D, size: 0x8, addend: 0x0, symName: __ZN3std12backtrace_rs9symbolize5gimli5macho11find_header17h55f69df1f605b83cE, symObjAddr: 0x4D8B0, symBinAddr: 0x10003789C, symSize: 0x1D4 }
  - { offset: 0x6A193, size: 0x8, addend: 0x0, symName: __ZN3std12backtrace_rs9symbolize5gimli5macho11find_header17h55f69df1f605b83cE, symObjAddr: 0x4D8B0, symBinAddr: 0x10003789C, symSize: 0x1D4 }
  - { offset: 0x6A1A8, size: 0x8, addend: 0x0, symName: __ZN3std12backtrace_rs9symbolize5gimli5macho11find_header17h55f69df1f605b83cE, symObjAddr: 0x4D8B0, symBinAddr: 0x10003789C, symSize: 0x1D4 }
  - { offset: 0x6A1BD, size: 0x8, addend: 0x0, symName: __ZN3std12backtrace_rs9symbolize5gimli5macho11find_header17h55f69df1f605b83cE, symObjAddr: 0x4D8B0, symBinAddr: 0x10003789C, symSize: 0x1D4 }
  - { offset: 0x6A1D2, size: 0x8, addend: 0x0, symName: __ZN3std12backtrace_rs9symbolize5gimli5macho11find_header17h55f69df1f605b83cE, symObjAddr: 0x4D8B0, symBinAddr: 0x10003789C, symSize: 0x1D4 }
  - { offset: 0x6A909, size: 0x8, addend: 0x0, symName: __ZN3std12backtrace_rs9symbolize5gimli4mmap17h887dd2c3e0662184E, symObjAddr: 0x4AF34, symBinAddr: 0x100034F38, symSize: 0x174 }
  - { offset: 0x6AFA7, size: 0x8, addend: 0x0, symName: __ZN3std12backtrace_rs9symbolize5gimli7resolve17h64427fc4373c0585E, symObjAddr: 0x4B0A8, symBinAddr: 0x1000350AC, symSize: 0x27F0 }
  - { offset: 0x70CF1, size: 0x8, addend: 0x0, symName: __ZN3std12backtrace_rs9symbolize6Symbol4name17he61211ceb05526e3E, symObjAddr: 0x3C9D8, symBinAddr: 0x10002D850, symSize: 0xE4 }
  - { offset: 0x70E28, size: 0x8, addend: 0x0, symName: '__ZN79_$LT$std..backtrace_rs..symbolize..SymbolName$u20$as$u20$core..fmt..Display$GT$3fmt17h4c4c1b4de2e31d53E', symObjAddr: 0x3CBF4, symBinAddr: 0x10002D934, symSize: 0x100 }
  - { offset: 0x70F51, size: 0x8, addend: 0x0, symName: __ZN3std12backtrace_rs9backtrace9libunwind5trace8trace_fn17h78394d9ee4ccceffE, symObjAddr: 0x48B70, symBinAddr: 0x100032B74, symSize: 0x48 }
  - { offset: 0x71022, size: 0x8, addend: 0x0, symName: __ZN3std12backtrace_rs5print17BacktraceFrameFmt21print_raw_with_column17h834ed90aab55fe6fE, symObjAddr: 0x3CDF4, symBinAddr: 0x10002DA34, symSize: 0x304 }
  - { offset: 0x71145, size: 0x8, addend: 0x0, symName: __ZN3std12backtrace_rs5print17BacktraceFrameFmt14print_fileline17h4f1f1a459d4f9b31E, symObjAddr: 0x3D0F8, symBinAddr: 0x10002DD38, symSize: 0x198 }
  - { offset: 0x71309, size: 0x8, addend: 0x0, symName: __ZN3std6thread7current12init_current17h772b2ceaca17750fE, symObjAddr: 0x1F8C0, symBinAddr: 0x100048880, symSize: 0x164 }
  - { offset: 0x71666, size: 0x8, addend: 0x0, symName: __ZN3std6thread6Thread3new17h61d7fe27c37d738eE, symObjAddr: 0x207B0, symBinAddr: 0x100026E1C, symSize: 0x158 }
  - { offset: 0x71A8D, size: 0x8, addend: 0x0, symName: __ZN3std6thread8ThreadId3new9exhausted17hc87ba1ebc9ec3293E, symObjAddr: 0x20668, symBinAddr: 0x1000489E4, symSize: 0x38 }
  - { offset: 0x71ACA, size: 0x8, addend: 0x0, symName: '__ZN118_$LT$std..thread..thread_name_string..ThreadNameString$u20$as$u20$core..convert..From$LT$alloc..string..String$GT$$GT$4from17h451023573f089af3E', symObjAddr: 0x206A0, symBinAddr: 0x100026D0C, symSize: 0x110 }
  - { offset: 0x71CF5, size: 0x8, addend: 0x0, symName: __ZN3std2rt15handle_rt_panic17h541ba1db327ed283E, symObjAddr: 0x1EE7C, symBinAddr: 0x10004883C, symSize: 0x44 }
  - { offset: 0x71D25, size: 0x8, addend: 0x0, symName: __ZN3std2rt7cleanup17h0e0598d379d3a04fE, symObjAddr: 0x1EEC0, symBinAddr: 0x100026610, symSize: 0x64 }
  - { offset: 0x71D48, size: 0x8, addend: 0x0, symName: __ZN3std2rt7cleanup17h0e0598d379d3a04fE, symObjAddr: 0x1EEC0, symBinAddr: 0x100026610, symSize: 0x64 }
  - { offset: 0x71D5C, size: 0x8, addend: 0x0, symName: __ZN3std2rt7cleanup17h0e0598d379d3a04fE, symObjAddr: 0x1EEC0, symBinAddr: 0x100026610, symSize: 0x64 }
  - { offset: 0x71D70, size: 0x8, addend: 0x0, symName: __ZN3std2rt7cleanup17h0e0598d379d3a04fE, symObjAddr: 0x1EEC0, symBinAddr: 0x100026610, symSize: 0x64 }
  - { offset: 0x71DE6, size: 0x8, addend: 0x0, symName: __ZN3std2rt19lang_start_internal17h9c67c334770c9206E, symObjAddr: 0x1EF24, symBinAddr: 0x100026674, symSize: 0x698 }
  - { offset: 0x729C6, size: 0x8, addend: 0x0, symName: __ZN3std5panic19get_backtrace_style17h39e90e609eb8b5abE, symObjAddr: 0x317C4, symBinAddr: 0x100029F74, symSize: 0x11C }
  - { offset: 0x729E4, size: 0x8, addend: 0x0, symName: __ZN3std5panic19get_backtrace_style17h39e90e609eb8b5abE, symObjAddr: 0x317C4, symBinAddr: 0x100029F74, symSize: 0x11C }
  - { offset: 0x729F9, size: 0x8, addend: 0x0, symName: __ZN3std5panic19get_backtrace_style17h39e90e609eb8b5abE, symObjAddr: 0x317C4, symBinAddr: 0x100029F74, symSize: 0x11C }
  - { offset: 0x72E5D, size: 0x8, addend: 0x0, symName: __ZN3std3env11current_dir17hcf122f2a803df77cE, symObjAddr: 0x21AB8, symBinAddr: 0x100026F74, symSize: 0x1A0 }
  - { offset: 0x73229, size: 0x8, addend: 0x0, symName: __ZN3std3env7vars_os17h5da3b85263f16da8E, symObjAddr: 0x21C5C, symBinAddr: 0x100027114, symSize: 0x30C }
  - { offset: 0x73870, size: 0x8, addend: 0x0, symName: __ZN3std3env4_var17h9dd5e1a62477915dE, symObjAddr: 0x22298, symBinAddr: 0x100027420, symSize: 0x98 }
  - { offset: 0x7396C, size: 0x8, addend: 0x0, symName: __ZN3std3env7_var_os17h2a5365ce2409b350E, symObjAddr: 0x22330, symBinAddr: 0x1000274B8, symSize: 0x164 }
  - { offset: 0x73C2D, size: 0x8, addend: 0x0, symName: __ZN3std2fs11OpenOptions5_open17h0fbed7ef40f371a5E, symObjAddr: 0x24928, symBinAddr: 0x1000276C8, symSize: 0x250 }
  - { offset: 0x73E04, size: 0x8, addend: 0x0, symName: '__ZN75_$LT$std..fs..ReadDir$u20$as$u20$core..iter..traits..iterator..Iterator$GT$4next17h60ea7641501e923cE', symObjAddr: 0x24F5C, symBinAddr: 0x100027918, symSize: 0x18C }
  - { offset: 0x740DE, size: 0x8, addend: 0x0, symName: __ZN3std2fs10DirBuilder7_create17hdda3853e62cea1b7E, symObjAddr: 0x25350, symBinAddr: 0x100027AA4, symSize: 0xC8 }
  - { offset: 0x741F7, size: 0x8, addend: 0x0, symName: __ZN3std2fs10DirBuilder14create_dir_all17h99484843811ceb78E, symObjAddr: 0x25418, symBinAddr: 0x100027B6C, symSize: 0x46C }
  - { offset: 0x749D4, size: 0x8, addend: 0x0, symName: __ZN3std5alloc24default_alloc_error_hook17hbb2afb0af5835e8dE, symObjAddr: 0x3B0F8, symBinAddr: 0x10002C5F0, symSize: 0x140 }
  - { offset: 0x74C17, size: 0x8, addend: 0x0, symName: __RNvCs73fAdSrgOJL_7___rustc11___rdl_alloc, symObjAddr: 0x3B238, symBinAddr: 0x10002C730, symSize: 0x6C }
  - { offset: 0x74C9D, size: 0x8, addend: 0x0, symName: __RNvCs73fAdSrgOJL_7___rustc13___rdl_dealloc, symObjAddr: 0x3B2A4, symBinAddr: 0x10002C79C, symSize: 0x4 }
  - { offset: 0x74CBD, size: 0x8, addend: 0x0, symName: __RNvCs73fAdSrgOJL_7___rustc13___rdl_dealloc, symObjAddr: 0x3B2A4, symBinAddr: 0x10002C79C, symSize: 0x4 }
  - { offset: 0x74CD1, size: 0x8, addend: 0x0, symName: __RNvCs73fAdSrgOJL_7___rustc13___rdl_realloc, symObjAddr: 0x3B2A8, symBinAddr: 0x10002C7A0, symSize: 0xB0 }
  - { offset: 0x74DAF, size: 0x8, addend: 0x0, symName: __RNvCs73fAdSrgOJL_7___rustc18___rdl_alloc_zeroed, symObjAddr: 0x3B358, symBinAddr: 0x10002C850, symSize: 0x90 }
  - { offset: 0x74E5B, size: 0x8, addend: 0x0, symName: __ZN3std5alloc8rust_oom17hdb6eb131aa920ad3E, symObjAddr: 0x48A7C, symBinAddr: 0x100049544, symSize: 0x2C }
  - { offset: 0x74EAA, size: 0x8, addend: 0x0, symName: __RNvCs73fAdSrgOJL_7___rustc8___rg_oom, symObjAddr: 0x48AA8, symBinAddr: 0x100049570, symSize: 0x18 }
  - { offset: 0x74F1A, size: 0x8, addend: 0x0, symName: '__ZN9addr2line8function17Function$LT$R$GT$14parse_children17hf3df585ce7ac8262E', symObjAddr: 0x1DE2C, symBinAddr: 0x1000255CC, symSize: 0xE84 }
  - { offset: 0x76795, size: 0x8, addend: 0x0, symName: __ZN9addr2line8function10name_entry17hfdced0c758d2a567E, symObjAddr: 0x1DAC0, symBinAddr: 0x100025260, symSize: 0x36C }
  - { offset: 0x76C57, size: 0x8, addend: 0x0, symName: __ZN9addr2line8function9name_attr17h1ce69a4ce3ba7e89E, symObjAddr: 0x1ECB0, symBinAddr: 0x100026450, symSize: 0x1C0 }
  - { offset: 0x76E7B, size: 0x8, addend: 0x0, symName: __ZN9addr2line4line11render_file17h41488bb5a6979477E, symObjAddr: 0x1C890, symBinAddr: 0x100024030, symSize: 0x4B0 }
  - { offset: 0x777DA, size: 0x8, addend: 0x0, symName: '__ZN9addr2line4unit16ResUnit$LT$R$GT$25find_function_or_location17h3697563f577d8d9fE', symObjAddr: 0x1CD40, symBinAddr: 0x1000244E0, symSize: 0x378 }
  - { offset: 0x77CAE, size: 0x8, addend: 0x0, symName: '__ZN9addr2line4unit16ResUnit$LT$R$GT$25find_function_or_location28_$u7b$$u7b$closure$u7d$$u7d$17h0d725353a137efa6E', symObjAddr: 0x1D0B8, symBinAddr: 0x100024858, symSize: 0x30C }
  - { offset: 0x78053, size: 0x8, addend: 0x0, symName: '__ZN9addr2line16Context$LT$R$GT$9find_unit17hfe70ee874184feb7E', symObjAddr: 0x1C734, symBinAddr: 0x100023ED4, symSize: 0x15C }
  - { offset: 0x78202, size: 0x8, addend: 0x0, symName: '__ZN9addr2line6lookup30LoopingLookup$LT$T$C$L$C$F$GT$10new_lookup17h479f29027e320fd2E', symObjAddr: 0x1D684, symBinAddr: 0x100024E24, symSize: 0x43C }
  - { offset: 0x786DE, size: 0x8, addend: 0x0, symName: '__ZN9addr2line5frame18FrameIter$LT$R$GT$4next17hab4653c465939ee8E', symObjAddr: 0x1D3C4, symBinAddr: 0x100024B64, symSize: 0x2C0 }
  - { offset: 0x78DFB, size: 0x8, addend: 0x0, symName: '__ZN5gimli4read4unit18Attribute$LT$R$GT$5value17hf92c28dec7922b31E', symObjAddr: 0x174B8, symBinAddr: 0x10001F150, symSize: 0x598 }
  - { offset: 0x79214, size: 0x8, addend: 0x0, symName: '__ZN90_$LT$gimli..read..unit..AttributeValue$LT$R$C$Offset$GT$$u20$as$u20$core..clone..Clone$GT$5clone17hcb6071538b682662E', symObjAddr: 0x1C614, symBinAddr: 0x100023E6C, symSize: 0x68 }
  - { offset: 0x79274, size: 0x8, addend: 0x0, symName: '__ZN5gimli4read4unit32AttributeValue$LT$R$C$Offset$GT$11udata_value17hb0fbf782d56f4d3fE', symObjAddr: 0x17D08, symBinAddr: 0x10001F9A0, symSize: 0x84 }
  - { offset: 0x792CF, size: 0x8, addend: 0x0, symName: __ZN5gimli4read4unit15parse_attribute17h04e99a6e8528e9b0E, symObjAddr: 0x16008, symBinAddr: 0x10001DCA0, symSize: 0xF74 }
  - { offset: 0x7BE8E, size: 0x8, addend: 0x0, symName: __ZN5gimli4read4unit15skip_attributes17h34aae5d204503f89E, symObjAddr: 0x16F7C, symBinAddr: 0x10001EC14, symSize: 0x53C }
  - { offset: 0x7C878, size: 0x8, addend: 0x0, symName: '__ZN5gimli4read4unit22EntriesCursor$LT$R$GT$10next_entry17hdbe6c325dc93b25aE', symObjAddr: 0x17A50, symBinAddr: 0x10001F6E8, symSize: 0x2B8 }
  - { offset: 0x7CE3C, size: 0x8, addend: 0x0, symName: '__ZN5gimli4read4unit33DebugInfoUnitHeadersIter$LT$R$GT$4next17ha7bc19eef22d5132E', symObjAddr: 0x17D8C, symBinAddr: 0x10001FA24, symSize: 0x518 }
  - { offset: 0x7DF86, size: 0x8, addend: 0x0, symName: '__ZN5gimli4read5dwarf13Unit$LT$R$GT$3new17h686262bf18a65175E', symObjAddr: 0x182A4, symBinAddr: 0x10001FF3C, symSize: 0x1C84 }
  - { offset: 0x816DF, size: 0x8, addend: 0x0, symName: '__ZN5gimli4read5dwarf14Dwarf$LT$R$GT$11attr_string17h1e958f109b0daeb0E', symObjAddr: 0x19F28, symBinAddr: 0x100021BC0, symSize: 0x220 }
  - { offset: 0x820CB, size: 0x8, addend: 0x0, symName: __ZN5gimli4read6reader6Reader11read_offset17hfc4380759744d0ccE, symObjAddr: 0x1A808, symBinAddr: 0x1000224A0, symSize: 0xB4 }
  - { offset: 0x822EA, size: 0x8, addend: 0x0, symName: __ZN5gimli4read6reader6Reader12read_sleb12817h1bb18c7db89a5c45E, symObjAddr: 0x1A8BC, symBinAddr: 0x100022554, symSize: 0x23C }
  - { offset: 0x823C6, size: 0x8, addend: 0x0, symName: __ZN5gimli4read6reader6Reader12read_uleb12817he2bb007cca6a74e8E, symObjAddr: 0x1AAF8, symBinAddr: 0x100022790, symSize: 0xB8 }
  - { offset: 0x8246D, size: 0x8, addend: 0x0, symName: __ZN5gimli4read6reader6Reader17read_sized_offset17h350128ac40d4d88bE, symObjAddr: 0x1ABB0, symBinAddr: 0x100022848, symSize: 0x10C }
  - { offset: 0x82BD9, size: 0x8, addend: 0x0, symName: '__ZN5gimli4read4line27FileEntry$LT$R$C$Offset$GT$5parse17he72fe970b5aeb997E', symObjAddr: 0x15DEC, symBinAddr: 0x10001DA84, symSize: 0x21C }
  - { offset: 0x82E30, size: 0x8, addend: 0x0, symName: __ZN5gimli4read4line13parse_file_v517h17de60bb2846bd30E, symObjAddr: 0x14E6C, symBinAddr: 0x10001CB04, symSize: 0x2B4 }
  - { offset: 0x82FA8, size: 0x8, addend: 0x0, symName: __ZN5gimli4read4line15FileEntryFormat5parse17h5b94835e6d431828E, symObjAddr: 0x15120, symBinAddr: 0x10001CDB8, symSize: 0x370 }
  - { offset: 0x8377B, size: 0x8, addend: 0x0, symName: __ZN5gimli4read4line15parse_attribute17h44b66ac1f1fd4d70E, symObjAddr: 0x15490, symBinAddr: 0x10001D128, symSize: 0x874 }
  - { offset: 0x84F35, size: 0x8, addend: 0x0, symName: __ZN5gimli4read4line18parse_directory_v517hc1cf6537e0e6b55eE, symObjAddr: 0x15D04, symBinAddr: 0x10001D99C, symSize: 0xE8 }
  - { offset: 0x850C0, size: 0x8, addend: 0x0, symName: '__ZN5gimli4read8rnglists20RngListIter$LT$R$GT$4next17h3cf0be4737bd2bfbE', symObjAddr: 0x1AF64, symBinAddr: 0x100022BFC, symSize: 0xC70 }
  - { offset: 0x87A0B, size: 0x8, addend: 0x0, symName: '__ZN5gimli4read5index18UnitIndex$LT$R$GT$5parse17hb6f2329c704ae441E', symObjAddr: 0x1A148, symBinAddr: 0x100021DE0, symSize: 0x6C0 }
  - { offset: 0x87F7F, size: 0x8, addend: 0x0, symName: '__ZN5gimli4read7aranges30ArangeHeader$LT$R$C$Offset$GT$5parse17ha7ab83fde3103809E', symObjAddr: 0x1ACBC, symBinAddr: 0x100022954, symSize: 0x2A8 }
  - { offset: 0x88C3C, size: 0x8, addend: 0x0, symName: __ZN6object4read7archive13ArchiveMember5parse17h529fa28f4fec8200E, symObjAddr: 0x1C00C, symBinAddr: 0x1000238C8, symSize: 0x304 }
  - { offset: 0x88C5A, size: 0x8, addend: 0x0, symName: __ZN6object4read7archive13ArchiveMember5parse17h529fa28f4fec8200E, symObjAddr: 0x1C00C, symBinAddr: 0x1000238C8, symSize: 0x304 }
  - { offset: 0x88C6F, size: 0x8, addend: 0x0, symName: __ZN6object4read7archive13ArchiveMember5parse17h529fa28f4fec8200E, symObjAddr: 0x1C00C, symBinAddr: 0x1000238C8, symSize: 0x304 }
  - { offset: 0x89469, size: 0x8, addend: 0x0, symName: __ZN6object4read7archive23parse_bsd_extended_name17ha21d7e6d1cf5441dE, symObjAddr: 0x1C310, symBinAddr: 0x100023BCC, symSize: 0x260 }
  - { offset: 0x8A2B0, size: 0x8, addend: 0x0, symName: _OUTLINED_FUNCTION_0, symObjAddr: 0x4E800, symBinAddr: 0x1000387EC, symSize: 0x8 }
  - { offset: 0x8A2C8, size: 0x8, addend: 0x0, symName: _OUTLINED_FUNCTION_1, symObjAddr: 0x4E808, symBinAddr: 0x1000387F4, symSize: 0xC }
  - { offset: 0x8A2E0, size: 0x8, addend: 0x0, symName: _OUTLINED_FUNCTION_2, symObjAddr: 0x4E814, symBinAddr: 0x100038800, symSize: 0xC }
  - { offset: 0x8A2F8, size: 0x8, addend: 0x0, symName: _OUTLINED_FUNCTION_3, symObjAddr: 0x4E820, symBinAddr: 0x10003880C, symSize: 0xC }
  - { offset: 0x8A310, size: 0x8, addend: 0x0, symName: _OUTLINED_FUNCTION_4, symObjAddr: 0x4E82C, symBinAddr: 0x100038818, symSize: 0xC }
  - { offset: 0x8A328, size: 0x8, addend: 0x0, symName: _OUTLINED_FUNCTION_5, symObjAddr: 0x4E838, symBinAddr: 0x100038824, symSize: 0x8 }
  - { offset: 0x8A340, size: 0x8, addend: 0x0, symName: _OUTLINED_FUNCTION_6, symObjAddr: 0x4E840, symBinAddr: 0x10003882C, symSize: 0x24 }
  - { offset: 0x8A358, size: 0x8, addend: 0x0, symName: _OUTLINED_FUNCTION_7, symObjAddr: 0x4E864, symBinAddr: 0x100038850, symSize: 0x10 }
  - { offset: 0x8A370, size: 0x8, addend: 0x0, symName: _OUTLINED_FUNCTION_8, symObjAddr: 0x4E874, symBinAddr: 0x100038860, symSize: 0x8 }
  - { offset: 0x8A388, size: 0x8, addend: 0x0, symName: _OUTLINED_FUNCTION_9, symObjAddr: 0x4E87C, symBinAddr: 0x100038868, symSize: 0x8 }
  - { offset: 0x8A3A0, size: 0x8, addend: 0x0, symName: _OUTLINED_FUNCTION_10, symObjAddr: 0x4E884, symBinAddr: 0x100038870, symSize: 0x24 }
  - { offset: 0x8A3B8, size: 0x8, addend: 0x0, symName: _OUTLINED_FUNCTION_11, symObjAddr: 0x4E8A8, symBinAddr: 0x100038894, symSize: 0x20 }
  - { offset: 0x8A3D0, size: 0x8, addend: 0x0, symName: _OUTLINED_FUNCTION_12, symObjAddr: 0x4E8C8, symBinAddr: 0x1000388B4, symSize: 0x8 }
  - { offset: 0x8A3E8, size: 0x8, addend: 0x0, symName: _OUTLINED_FUNCTION_13, symObjAddr: 0x4E8D0, symBinAddr: 0x1000388BC, symSize: 0x8 }
  - { offset: 0x8A400, size: 0x8, addend: 0x0, symName: _OUTLINED_FUNCTION_14, symObjAddr: 0x4E8D8, symBinAddr: 0x1000388C4, symSize: 0x8 }
  - { offset: 0x8A418, size: 0x8, addend: 0x0, symName: _OUTLINED_FUNCTION_15, symObjAddr: 0x4E8E0, symBinAddr: 0x1000388CC, symSize: 0x8 }
  - { offset: 0x8A430, size: 0x8, addend: 0x0, symName: _OUTLINED_FUNCTION_16, symObjAddr: 0x4E8E8, symBinAddr: 0x1000388D4, symSize: 0x8 }
  - { offset: 0x8A448, size: 0x8, addend: 0x0, symName: _OUTLINED_FUNCTION_17, symObjAddr: 0x4E8F0, symBinAddr: 0x1000388DC, symSize: 0x10 }
  - { offset: 0x8A460, size: 0x8, addend: 0x0, symName: _OUTLINED_FUNCTION_18, symObjAddr: 0x4E900, symBinAddr: 0x1000388EC, symSize: 0x10 }
  - { offset: 0x8A478, size: 0x8, addend: 0x0, symName: _OUTLINED_FUNCTION_19, symObjAddr: 0x4E910, symBinAddr: 0x1000388FC, symSize: 0x10 }
  - { offset: 0x8A490, size: 0x8, addend: 0x0, symName: _OUTLINED_FUNCTION_20, symObjAddr: 0x4E920, symBinAddr: 0x10003890C, symSize: 0x10 }
  - { offset: 0x8A4A8, size: 0x8, addend: 0x0, symName: _OUTLINED_FUNCTION_21, symObjAddr: 0x4E930, symBinAddr: 0x10003891C, symSize: 0xC }
  - { offset: 0x8A4C0, size: 0x8, addend: 0x0, symName: _OUTLINED_FUNCTION_22, symObjAddr: 0x4E93C, symBinAddr: 0x100038928, symSize: 0x18 }
  - { offset: 0x8A4D8, size: 0x8, addend: 0x0, symName: _OUTLINED_FUNCTION_23, symObjAddr: 0x4E954, symBinAddr: 0x100038940, symSize: 0x8 }
  - { offset: 0x8A4F0, size: 0x8, addend: 0x0, symName: _OUTLINED_FUNCTION_24, symObjAddr: 0x4E95C, symBinAddr: 0x100038948, symSize: 0xC }
  - { offset: 0x8A508, size: 0x8, addend: 0x0, symName: _OUTLINED_FUNCTION_25, symObjAddr: 0x4E968, symBinAddr: 0x100038954, symSize: 0xC }
  - { offset: 0x8A520, size: 0x8, addend: 0x0, symName: _OUTLINED_FUNCTION_26, symObjAddr: 0x4E974, symBinAddr: 0x100038960, symSize: 0x8 }
  - { offset: 0x8A538, size: 0x8, addend: 0x0, symName: _OUTLINED_FUNCTION_27, symObjAddr: 0x4E97C, symBinAddr: 0x100038968, symSize: 0x8 }
  - { offset: 0x8A550, size: 0x8, addend: 0x0, symName: _OUTLINED_FUNCTION_28, symObjAddr: 0x4E984, symBinAddr: 0x100038970, symSize: 0xC }
  - { offset: 0x8A568, size: 0x8, addend: 0x0, symName: _OUTLINED_FUNCTION_29, symObjAddr: 0x4E990, symBinAddr: 0x10003897C, symSize: 0xC }
  - { offset: 0x8A580, size: 0x8, addend: 0x0, symName: _OUTLINED_FUNCTION_30, symObjAddr: 0x4E99C, symBinAddr: 0x100038988, symSize: 0xC }
  - { offset: 0x8A598, size: 0x8, addend: 0x0, symName: _OUTLINED_FUNCTION_31, symObjAddr: 0x4E9A8, symBinAddr: 0x100038994, symSize: 0x8 }
  - { offset: 0x8A5B0, size: 0x8, addend: 0x0, symName: _OUTLINED_FUNCTION_32, symObjAddr: 0x4E9B0, symBinAddr: 0x10003899C, symSize: 0x10 }
  - { offset: 0x8A5C8, size: 0x8, addend: 0x0, symName: _OUTLINED_FUNCTION_33, symObjAddr: 0x4E9C0, symBinAddr: 0x1000389AC, symSize: 0x14 }
  - { offset: 0x8A5E0, size: 0x8, addend: 0x0, symName: _OUTLINED_FUNCTION_34, symObjAddr: 0x4E9D4, symBinAddr: 0x1000389C0, symSize: 0x14 }
  - { offset: 0x8A5F8, size: 0x8, addend: 0x0, symName: _OUTLINED_FUNCTION_35, symObjAddr: 0x4E9E8, symBinAddr: 0x1000389D4, symSize: 0x14 }
  - { offset: 0x8A610, size: 0x8, addend: 0x0, symName: _OUTLINED_FUNCTION_36, symObjAddr: 0x4E9FC, symBinAddr: 0x1000389E8, symSize: 0x14 }
  - { offset: 0x8A646, size: 0x8, addend: 0x0, symName: '__ZN4core3ptr49drop_in_place$LT$panic_unwind..imp..Exception$GT$17h527397a192ffb8f1E', symObjAddr: 0x0, symBinAddr: 0x1000389FC, symSize: 0x78 }
  - { offset: 0x8A66C, size: 0x8, addend: 0x0, symName: '__ZN4core3ptr49drop_in_place$LT$panic_unwind..imp..Exception$GT$17h527397a192ffb8f1E', symObjAddr: 0x0, symBinAddr: 0x1000389FC, symSize: 0x78 }
  - { offset: 0x8A773, size: 0x8, addend: 0x0, symName: '__ZN4core3ptr74drop_in_place$LT$alloc..boxed..Box$LT$panic_unwind..imp..Exception$GT$$GT$17ha4260977db93ebb9E', symObjAddr: 0x78, symBinAddr: 0x100038A74, symSize: 0x8C }
  - { offset: 0x8AA3B, size: 0x8, addend: 0x0, symName: __ZN12panic_unwind3imp5panic17exception_cleanup17h2bbea2a6f8ecfebbE, symObjAddr: 0x20C, symBinAddr: 0x100038C08, symSize: 0x18 }
  - { offset: 0x8AA57, size: 0x8, addend: 0x0, symName: __RNvCs73fAdSrgOJL_7___rustc20___rust_panic_cleanup, symObjAddr: 0x104, symBinAddr: 0x100038B00, symSize: 0x68 }
  - { offset: 0x8AAFD, size: 0x8, addend: 0x0, symName: __RNvCs73fAdSrgOJL_7___rustc18___rust_start_panic, symObjAddr: 0x16C, symBinAddr: 0x100038B68, symSize: 0xA0 }
  - { offset: 0x8AD80, size: 0x8, addend: 0x0, symName: '__ZN69_$LT$core..alloc..layout..LayoutError$u20$as$u20$core..fmt..Debug$GT$3fmt17h13fbca3ca3dd174dE', symObjAddr: 0x3B8, symBinAddr: 0x100040458, symSize: 0x14 }
  - { offset: 0x8B06D, size: 0x8, addend: 0x0, symName: __ZN5alloc7raw_vec17capacity_overflow17hd8f87080832cecbdE, symObjAddr: 0x3CC, symBinAddr: 0x100049634, symSize: 0x34 }
  - { offset: 0x8B0B4, size: 0x8, addend: 0x0, symName: '__ZN5alloc7raw_vec20RawVecInner$LT$A$GT$7reserve21do_reserve_and_handle17h4dd33506b8348a9cE', symObjAddr: 0x4A0, symBinAddr: 0x100049668, symSize: 0xB0 }
  - { offset: 0x8B1B6, size: 0x8, addend: 0x0, symName: __ZN5alloc7raw_vec11finish_grow17h38abc94d42a7bc55E, symObjAddr: 0x550, symBinAddr: 0x100049718, symSize: 0x80 }
  - { offset: 0x8B22C, size: 0x8, addend: 0x0, symName: __ZN5alloc7raw_vec12handle_error17h2ea1403ff25ec75cE, symObjAddr: 0x5D0, symBinAddr: 0x100049798, symSize: 0x18 }
  - { offset: 0x8B326, size: 0x8, addend: 0x0, symName: __ZN5alloc5alloc18handle_alloc_error17h18ccdcfeddefd4c6E, symObjAddr: 0x5E8, symBinAddr: 0x1000497B0, symSize: 0x18 }
  - { offset: 0x8B398, size: 0x8, addend: 0x0, symName: __ZN5alloc6string6String15from_utf8_lossy17hbc43f3fc78418a81E, symObjAddr: 0x2E90, symBinAddr: 0x100040788, symSize: 0x23C }
  - { offset: 0x8B8D0, size: 0x8, addend: 0x0, symName: '__ZN98_$LT$alloc..string..String$u20$as$u20$core..convert..From$LT$alloc..borrow..Cow$LT$str$GT$$GT$$GT$4from17h4b68af2740d6abffE', symObjAddr: 0x47BC, symBinAddr: 0x1000409C4, symSize: 0xB4 }
  - { offset: 0x8BB6C, size: 0x8, addend: 0x0, symName: '__ZN93_$LT$alloc..collections..btree..mem..replace..PanicGuard$u20$as$u20$core..ops..drop..Drop$GT$4drop17he91a4622e79b07ddE', symObjAddr: 0xE74, symBinAddr: 0x1000497C8, symSize: 0x4 }
  - { offset: 0x8BC6D, size: 0x8, addend: 0x0, symName: '__ZN72_$LT$$RF$str$u20$as$u20$alloc..ffi..c_str..CString..new..SpecNewImpl$GT$13spec_new_impl17h19bc653579af59a5E', symObjAddr: 0xEF8, symBinAddr: 0x10004046C, symSize: 0x114 }
  - { offset: 0x8BE99, size: 0x8, addend: 0x0, symName: __ZN5alloc3ffi5c_str7CString19_from_vec_unchecked17h26f80605e3bdda78E, symObjAddr: 0x1150, symBinAddr: 0x100040580, symSize: 0x160 }
  - { offset: 0x8C1BF, size: 0x8, addend: 0x0, symName: __ZN5alloc3ffi5c_str7CString8from_raw17h1a969b5b39f2d46eE, symObjAddr: 0x12B0, symBinAddr: 0x1000406E0, symSize: 0x28 }
  - { offset: 0x8C1F4, size: 0x8, addend: 0x0, symName: '__ZN100_$LT$alloc..ffi..c_str..CString$u20$as$u20$core..convert..From$LT$$RF$core..ffi..c_str..CStr$GT$$GT$4from17h793c5ab38e4e723fE', symObjAddr: 0x17CC, symBinAddr: 0x100040708, symSize: 0x80 }
  - { offset: 0x8C2FC, size: 0x8, addend: 0x0, symName: __ZN5alloc4sync32arcinner_layout_for_value_layout17h8c52c76ed82694fdE, symObjAddr: 0x4C48, symBinAddr: 0x100040A78, symSize: 0x74 }
  - { offset: 0x8C96F, size: 0x8, addend: 0x0, symName: __ZN4core5slice5index26slice_start_index_len_fail8do_panic7runtime17h429c9cce17a0ea9bE, symObjAddr: 0x1C14C, symBinAddr: 0x100049CC0, symSize: 0x50 }
  - { offset: 0x8C9A2, size: 0x8, addend: 0x0, symName: __ZN4core5slice5index26slice_start_index_len_fail17haf25ebf915d057aaE, symObjAddr: 0xF0BC, symBinAddr: 0x100049BBC, symSize: 0xC }
  - { offset: 0x8C9E8, size: 0x8, addend: 0x0, symName: __ZN4core5slice5index24slice_end_index_len_fail8do_panic7runtime17hdec1e0cff231be1dE, symObjAddr: 0x1C19C, symBinAddr: 0x100049D10, symSize: 0x50 }
  - { offset: 0x8CA1B, size: 0x8, addend: 0x0, symName: __ZN4core5slice5index24slice_end_index_len_fail17he89357cd02fca028E, symObjAddr: 0xF0C8, symBinAddr: 0x100049BC8, symSize: 0xC }
  - { offset: 0x8CA61, size: 0x8, addend: 0x0, symName: __ZN4core5slice5index22slice_index_order_fail8do_panic7runtime17h6303e3dc084ed840E, symObjAddr: 0x1C1EC, symBinAddr: 0x100049D60, symSize: 0x50 }
  - { offset: 0x8CA94, size: 0x8, addend: 0x0, symName: __ZN4core5slice5index22slice_index_order_fail17he9c8f4194031cd00E, symObjAddr: 0xF0D4, symBinAddr: 0x100049BD4, symSize: 0xC }
  - { offset: 0x8CDED, size: 0x8, addend: 0x0, symName: __ZN4core5slice6memchr14memchr_aligned17hb906e7bc9e85c06eE, symObjAddr: 0xEA94, symBinAddr: 0x100042E28, symSize: 0xDC }
  - { offset: 0x8CEC9, size: 0x8, addend: 0x0, symName: __ZN4core5slice6memchr7memrchr17h7ceb156575b1a919E, symObjAddr: 0xEB70, symBinAddr: 0x100042F04, symSize: 0x120 }
  - { offset: 0x8D022, size: 0x8, addend: 0x0, symName: __ZN4core5slice4sort6stable5drift11sqrt_approx17hd32bbcccc9c319c0E, symObjAddr: 0xEC90, symBinAddr: 0x100043024, symSize: 0x2C }
  - { offset: 0x8D09F, size: 0x8, addend: 0x0, symName: __ZN4core5slice4sort6shared9smallsort22panic_on_ord_violation17h87378ecb72803b59E, symObjAddr: 0xECBC, symBinAddr: 0x100049B84, symSize: 0x38 }
  - { offset: 0x8D206, size: 0x8, addend: 0x0, symName: '__ZN42_$LT$str$u20$as$u20$core..fmt..Display$GT$3fmt17h42462a8471c7143dE', symObjAddr: 0xE768, symBinAddr: 0x100042BC0, symSize: 0x14 }
  - { offset: 0x8D39B, size: 0x8, addend: 0x0, symName: __ZN4core3fmt9Formatter12pad_integral17heb070ef6e4499464E, symObjAddr: 0xC07C, symBinAddr: 0x100041B08, symSize: 0x3B4 }
  - { offset: 0x8D69C, size: 0x8, addend: 0x0, symName: __ZN4core3fmt9Formatter3pad17h299da9dcc544e21cE, symObjAddr: 0xC4AC, symBinAddr: 0x100041F38, symSize: 0x304 }
  - { offset: 0x8D9FC, size: 0x8, addend: 0x0, symName: __ZN4core3fmt9Formatter9write_str17hd9a1b7644989a9c8E, symObjAddr: 0xCC04, symBinAddr: 0x10004223C, symSize: 0x10 }
  - { offset: 0x8DA10, size: 0x8, addend: 0x0, symName: __ZN4core3fmt9Formatter12debug_struct17hf7643d0658ff94cfE, symObjAddr: 0xCC20, symBinAddr: 0x10004224C, symSize: 0x3C }
  - { offset: 0x8DA4F, size: 0x8, addend: 0x0, symName: __ZN4core3fmt9Formatter26debug_struct_field1_finish17h3d8cc21df86d1f08E, symObjAddr: 0xCC5C, symBinAddr: 0x100042288, symSize: 0xD0 }
  - { offset: 0x8DB26, size: 0x8, addend: 0x0, symName: __ZN4core3fmt9Formatter26debug_struct_field2_finish17h32b4f697403bec40E, symObjAddr: 0xCD2C, symBinAddr: 0x100042358, symSize: 0x104 }
  - { offset: 0x8DBFD, size: 0x8, addend: 0x0, symName: __ZN4core3fmt9Formatter11debug_tuple17h3a3ca798bd11b2bcE, symObjAddr: 0xD340, symBinAddr: 0x10004245C, symSize: 0x50 }
  - { offset: 0x8DC52, size: 0x8, addend: 0x0, symName: __ZN4core3fmt9Formatter25debug_tuple_field1_finish17h293fabc56e30d0f7E, symObjAddr: 0xD390, symBinAddr: 0x1000424AC, symSize: 0x160 }
  - { offset: 0x8DE54, size: 0x8, addend: 0x0, symName: __ZN4core3fmt9Formatter25debug_tuple_field2_finish17h0773e66da7fec5dcE, symObjAddr: 0xD4F0, symBinAddr: 0x10004260C, symSize: 0x1D8 }
  - { offset: 0x8E14C, size: 0x8, addend: 0x0, symName: __ZN4core3fmt9Formatter10debug_list17hb567e092460f51e4E, symObjAddr: 0xE2A4, symBinAddr: 0x1000427E4, symSize: 0x48 }
  - { offset: 0x8E1F4, size: 0x8, addend: 0x0, symName: __ZN4core3fmt8builders11DebugStruct5field17hcf92289f4867f5e5E, symObjAddr: 0x8288, symBinAddr: 0x100041344, symSize: 0x1B4 }
  - { offset: 0x8E3F3, size: 0x8, addend: 0x0, symName: __ZN4core3fmt8builders11DebugStruct6finish17h21c87724d91d861aE, symObjAddr: 0x8500, symBinAddr: 0x1000414F8, symSize: 0x80 }
  - { offset: 0x8E4F4, size: 0x8, addend: 0x0, symName: '__ZN68_$LT$core..fmt..builders..PadAdapter$u20$as$u20$core..fmt..Write$GT$9write_str17hc0cf6ed124d300b4E', symObjAddr: 0x7FB0, symBinAddr: 0x10004106C, symSize: 0x258 }
  - { offset: 0x8E774, size: 0x8, addend: 0x0, symName: '__ZN68_$LT$core..fmt..builders..PadAdapter$u20$as$u20$core..fmt..Write$GT$10write_char17h9657826e049c4398E', symObjAddr: 0x8208, symBinAddr: 0x1000412C4, symSize: 0x80 }
  - { offset: 0x8E7F9, size: 0x8, addend: 0x0, symName: __ZN4core3fmt8builders10DebugTuple5field17he743b1e43a659b47E, symObjAddr: 0x8580, symBinAddr: 0x100041578, symSize: 0x148 }
  - { offset: 0x8E985, size: 0x8, addend: 0x0, symName: __ZN4core3fmt8builders10DebugTuple6finish17h39fdb22d98cc1346E, symObjAddr: 0x8788, symBinAddr: 0x1000416C0, symSize: 0xB0 }
  - { offset: 0x8EAD4, size: 0x8, addend: 0x0, symName: __ZN4core3fmt8builders8DebugSet5entry17h99c874a0178a5542E, symObjAddr: 0x8838, symBinAddr: 0x100041770, symSize: 0x148 }
  - { offset: 0x8EC79, size: 0x8, addend: 0x0, symName: __ZN4core3fmt8builders9DebugList6finish17hd378c2ebba87d08dE, symObjAddr: 0x8B58, symBinAddr: 0x1000418B8, symSize: 0x4C }
  - { offset: 0x8EE49, size: 0x8, addend: 0x0, symName: '__ZN4core3fmt3num53_$LT$impl$u20$core..fmt..LowerHex$u20$for$u20$i32$GT$3fmt17h6e850657c74d9d25E', symObjAddr: 0x19818, symBinAddr: 0x100044E18, symSize: 0x80 }
  - { offset: 0x8EEF1, size: 0x8, addend: 0x0, symName: '__ZN4core3fmt3num53_$LT$impl$u20$core..fmt..UpperHex$u20$for$u20$i32$GT$3fmt17h997afd280f6b29c7E', symObjAddr: 0x19898, symBinAddr: 0x100044E98, symSize: 0x80 }
  - { offset: 0x8EF99, size: 0x8, addend: 0x0, symName: '__ZN4core3fmt3num53_$LT$impl$u20$core..fmt..LowerHex$u20$for$u20$i64$GT$3fmt17hbe7c020a02da664cE', symObjAddr: 0x199F8, symBinAddr: 0x100044F18, symSize: 0x80 }
  - { offset: 0x8F041, size: 0x8, addend: 0x0, symName: '__ZN4core3fmt3num53_$LT$impl$u20$core..fmt..UpperHex$u20$for$u20$i64$GT$3fmt17h740b27e908318385E', symObjAddr: 0x19A78, symBinAddr: 0x100044F98, symSize: 0x80 }
  - { offset: 0x8F0DC, size: 0x8, addend: 0x0, symName: '__ZN4core3fmt3num52_$LT$impl$u20$core..fmt..LowerHex$u20$for$u20$i8$GT$3fmt17h4b4be5c7ea7962d0E', symObjAddr: 0x19458, symBinAddr: 0x100044D18, symSize: 0x80 }
  - { offset: 0x8F18B, size: 0x8, addend: 0x0, symName: '__ZN4core3fmt3num52_$LT$impl$u20$core..fmt..UpperHex$u20$for$u20$i8$GT$3fmt17h05fab38eb12d6eccE', symObjAddr: 0x194D8, symBinAddr: 0x100044D98, symSize: 0x80 }
  - { offset: 0x8F25F, size: 0x8, addend: 0x0, symName: '__ZN4core3fmt3num3imp51_$LT$impl$u20$core..fmt..Display$u20$for$u20$u8$GT$3fmt17h6b187241d8419cbfE', symObjAddr: 0x1A470, symBinAddr: 0x100045018, symSize: 0xB0 }
  - { offset: 0x8F323, size: 0x8, addend: 0x0, symName: '__ZN4core3fmt3num3imp52_$LT$impl$u20$core..fmt..Display$u20$for$u20$u32$GT$3fmt17hdad8bbb1fd1b667aE', symObjAddr: 0x1A984, symBinAddr: 0x1000450C8, symSize: 0x130 }
  - { offset: 0x8F3FC, size: 0x8, addend: 0x0, symName: '__ZN4core3fmt3num3imp52_$LT$impl$u20$core..fmt..Display$u20$for$u20$i32$GT$3fmt17hf57747113c1e0663E', symObjAddr: 0x1AAB4, symBinAddr: 0x1000451F8, symSize: 0x13C }
  - { offset: 0x8F4FA, size: 0x8, addend: 0x0, symName: '__ZN4core3fmt3num3imp52_$LT$impl$u20$core..fmt..Display$u20$for$u20$u64$GT$3fmt17ha8fcf0d52ed54e0fE', symObjAddr: 0x1ACF8, symBinAddr: 0x100045334, symSize: 0x13C }
  - { offset: 0x8F653, size: 0x8, addend: 0x0, symName: '__ZN57_$LT$core..fmt..Formatter$u20$as$u20$core..fmt..Write$GT$10write_char17h6d68564ee698b1edE', symObjAddr: 0xE38C, symBinAddr: 0x10004282C, symSize: 0x10 }
  - { offset: 0x8F686, size: 0x8, addend: 0x0, symName: __ZN4core3fmt5Write9write_fmt17h9614ff1edc252aa5E, symObjAddr: 0xBE40, symBinAddr: 0x100041904, symSize: 0x10 }
  - { offset: 0x8F6C9, size: 0x8, addend: 0x0, symName: '__ZN59_$LT$core..fmt..Arguments$u20$as$u20$core..fmt..Display$GT$3fmt17h3a775e5eedaf7738E', symObjAddr: 0xBE88, symBinAddr: 0x100041914, symSize: 0xC }
  - { offset: 0x8F72D, size: 0x8, addend: 0x0, symName: __ZN4core3fmt5write17h2c4a0b98b09e3b30E, symObjAddr: 0xBE94, symBinAddr: 0x100041920, symSize: 0x1E8 }
  - { offset: 0x8F90C, size: 0x8, addend: 0x0, symName: __ZN4core3fmt9Formatter12pad_integral12write_prefix17hc2a717568d4daf91E, symObjAddr: 0xC430, symBinAddr: 0x100041EBC, symSize: 0x7C }
  - { offset: 0x8F952, size: 0x8, addend: 0x0, symName: '__ZN42_$LT$$RF$T$u20$as$u20$core..fmt..Debug$GT$3fmt17h6e4f67bb97a98f3cE', symObjAddr: 0x1BFA8, symBinAddr: 0x100045470, symSize: 0xE0 }
  - { offset: 0x8FA70, size: 0x8, addend: 0x0, symName: '__ZN42_$LT$$RF$T$u20$as$u20$core..fmt..Debug$GT$3fmt17hfbab3261e141b19fE', symObjAddr: 0x1C090, symBinAddr: 0x100045550, symSize: 0x10 }
  - { offset: 0x8FAAC, size: 0x8, addend: 0x0, symName: '__ZN40_$LT$str$u20$as$u20$core..fmt..Debug$GT$3fmt17h6bb0dde775cede54E', symObjAddr: 0xE3E4, symBinAddr: 0x10004283C, symSize: 0x384 }
  - { offset: 0x8FEB1, size: 0x8, addend: 0x0, symName: '__ZN41_$LT$char$u20$as$u20$core..fmt..Debug$GT$3fmt17h5b77a63018c31381E', symObjAddr: 0xE77C, symBinAddr: 0x100042BD4, symSize: 0xA8 }
  - { offset: 0x8FFBB, size: 0x8, addend: 0x0, symName: '__ZN43_$LT$char$u20$as$u20$core..fmt..Display$GT$3fmt17hccc7cc18179c4872E', symObjAddr: 0xE824, symBinAddr: 0x100042C7C, symSize: 0xEC }
  - { offset: 0x9003A, size: 0x8, addend: 0x0, symName: __ZN4core3fmt17pointer_fmt_inner17h454be370dc368025E, symObjAddr: 0xE910, symBinAddr: 0x100042D68, symSize: 0xC0 }
  - { offset: 0x90122, size: 0x8, addend: 0x0, symName: '__ZN44_$LT$$RF$T$u20$as$u20$core..fmt..Display$GT$3fmt17hbbf5e2ca3c54582bE', symObjAddr: 0x1C0B0, symBinAddr: 0x100045560, symSize: 0x10 }
  - { offset: 0x90254, size: 0x8, addend: 0x0, symName: __ZN4core6option13unwrap_failed17h1f788aa856a0b42eE, symObjAddr: 0x7830, symBinAddr: 0x100049810, symSize: 0x1C }
  - { offset: 0x9026F, size: 0x8, addend: 0x0, symName: __ZN4core6option13expect_failed17h89af471ff13548f9E, symObjAddr: 0x784C, symBinAddr: 0x10004982C, symSize: 0x48 }
  - { offset: 0x902C7, size: 0x8, addend: 0x0, symName: '__ZN71_$LT$core..ops..range..Range$LT$Idx$GT$$u20$as$u20$core..fmt..Debug$GT$3fmt17h658e9a2f8f4bbb48E', symObjAddr: 0x414C, symBinAddr: 0x100040AEC, symSize: 0x1F8 }
  - { offset: 0x90744, size: 0x8, addend: 0x0, symName: __ZN4core6result13unwrap_failed17h7f68c62f4ec5b70eE, symObjAddr: 0x7EFC, symBinAddr: 0x100049B28, symSize: 0x5C }
  - { offset: 0x90983, size: 0x8, addend: 0x0, symName: __ZN4core3str5count14do_count_chars17hd2a57b08be8d1b70E, symObjAddr: 0xF77C, symBinAddr: 0x1000432C4, symSize: 0x718 }
  - { offset: 0x90CD4, size: 0x8, addend: 0x0, symName: __ZN4core3str5count23char_count_general_case17h0d6812726d9a8e15E, symObjAddr: 0xFE94, symBinAddr: 0x1000439DC, symSize: 0x2A8 }
  - { offset: 0x90D81, size: 0x8, addend: 0x0, symName: __ZN4core3str8converts9from_utf817h7b78634a00291fadE, symObjAddr: 0xF294, symBinAddr: 0x100043050, symSize: 0x274 }
  - { offset: 0x90D9E, size: 0x8, addend: 0x0, symName: __ZN4core3str8converts9from_utf817h7b78634a00291fadE, symObjAddr: 0xF294, symBinAddr: 0x100043050, symSize: 0x274 }
  - { offset: 0x90E8C, size: 0x8, addend: 0x0, symName: __ZN4core3str7pattern11StrSearcher3new17hd95460b09bffc181E, symObjAddr: 0x1087C, symBinAddr: 0x100043C84, symSize: 0x8BC }
  - { offset: 0x911A6, size: 0x8, addend: 0x0, symName: '__ZN87_$LT$core..str..lossy..Utf8Chunks$u20$as$u20$core..iter..traits..iterator..Iterator$GT$4next17h454b21b309792e7dE', symObjAddr: 0x1149C, symBinAddr: 0x100044540, symSize: 0x1C0 }
  - { offset: 0x913AA, size: 0x8, addend: 0x0, symName: __ZN4core3str16slice_error_fail17h061e87b9dfc55aadE, symObjAddr: 0x11728, symBinAddr: 0x100049BE0, symSize: 0xC }
  - { offset: 0x913C4, size: 0x8, addend: 0x0, symName: __ZN4core3str19slice_error_fail_rt17h7e572c53c14a04e8E, symObjAddr: 0x11768, symBinAddr: 0x100044700, symSize: 0x344 }
  - { offset: 0x915EC, size: 0x8, addend: 0x0, symName: '__ZN4core4char7methods22_$LT$impl$u20$char$GT$16escape_debug_ext17h530e3c57cef50f83E', symObjAddr: 0x4EEC, symBinAddr: 0x100040CF8, symSize: 0x284 }
  - { offset: 0x91800, size: 0x8, addend: 0x0, symName: __ZN4core4char7methods15encode_utf8_raw8do_panic7runtime17he7bfa606ee446088E, symObjAddr: 0x17D20, symBinAddr: 0x100049BEC, symSize: 0x6C }
  - { offset: 0x918A5, size: 0x8, addend: 0x0, symName: '__ZN65_$LT$core..cell..BorrowMutError$u20$as$u20$core..fmt..Display$GT$3fmt17hce6430c2316144b4E', symObjAddr: 0x4DB8, symBinAddr: 0x100040CE4, symSize: 0x14 }
  - { offset: 0x918D7, size: 0x8, addend: 0x0, symName: __ZN4core4cell22panic_already_borrowed17h0d36ae2fc2f0ba17E, symObjAddr: 0x4DCC, symBinAddr: 0x1000497CC, symSize: 0x44 }
  - { offset: 0x91927, size: 0x8, addend: 0x0, symName: __ZN4core7unicode12unicode_data15grapheme_extend11lookup_slow17hd2a4fb5538b8240dE, symObjAddr: 0x1D5B0, symBinAddr: 0x100045588, symSize: 0x108 }
  - { offset: 0x91AEC, size: 0x8, addend: 0x0, symName: __ZN4core7unicode12unicode_data2cc6lookup17h1698536727c00c0fE, symObjAddr: 0x1D598, symBinAddr: 0x100045570, symSize: 0x18 }
  - { offset: 0x91B0A, size: 0x8, addend: 0x0, symName: __ZN4core7unicode12unicode_data2cc6lookup17h1698536727c00c0fE, symObjAddr: 0x1D598, symBinAddr: 0x100045570, symSize: 0x18 }
  - { offset: 0x91B3E, size: 0x8, addend: 0x0, symName: __ZN4core7unicode9printable12is_printable17h484639cf451143c4E, symObjAddr: 0x12484, symBinAddr: 0x100044A44, symSize: 0x2B4 }
  - { offset: 0x91E50, size: 0x8, addend: 0x0, symName: __ZN4core3ffi5c_str4CStr19from_bytes_with_nul17h3a2ee221267d5c22E, symObjAddr: 0x5480, symBinAddr: 0x100040F7C, symSize: 0xF0 }
  - { offset: 0x91E6E, size: 0x8, addend: 0x0, symName: __ZN4core3ffi5c_str4CStr19from_bytes_with_nul17h3a2ee221267d5c22E, symObjAddr: 0x5480, symBinAddr: 0x100040F7C, symSize: 0xF0 }
  - { offset: 0x91F3D, size: 0x8, addend: 0x0, symName: __ZN4core9panicking9panic_fmt17h3505bfbec5a0b799E, symObjAddr: 0x7AA4, symBinAddr: 0x100049874, symSize: 0x20 }
  - { offset: 0x91F80, size: 0x8, addend: 0x0, symName: __ZN4core9panicking18panic_nounwind_fmt17h9dceef42c0a45ea6E, symObjAddr: 0x7AC4, symBinAddr: 0x100049894, symSize: 0x3C }
  - { offset: 0x91FC5, size: 0x8, addend: 0x0, symName: __ZN4core9panicking5panic17he76e9111fdaa2ca0E, symObjAddr: 0x7B00, symBinAddr: 0x1000498D0, symSize: 0x34 }
  - { offset: 0x91FF4, size: 0x8, addend: 0x0, symName: __ZN4core9panicking14panic_nounwind17h9f7565b148aca0eaE, symObjAddr: 0x7B34, symBinAddr: 0x100049904, symSize: 0x3C }
  - { offset: 0x92023, size: 0x8, addend: 0x0, symName: __ZN4core9panicking26panic_nounwind_nobacktrace17h12b19155b129e9d4E, symObjAddr: 0x7B70, symBinAddr: 0x100049940, symSize: 0x3C }
  - { offset: 0x92052, size: 0x8, addend: 0x0, symName: __ZN4core9panicking18panic_bounds_check17he97faa96f3a18922E, symObjAddr: 0x7BF4, symBinAddr: 0x10004997C, symSize: 0x50 }
  - { offset: 0x92084, size: 0x8, addend: 0x0, symName: __ZN4core9panicking19panic_cannot_unwind17hf7c38fa209f60374E, symObjAddr: 0x7CD4, symBinAddr: 0x1000499CC, symSize: 0x18 }
  - { offset: 0x9209F, size: 0x8, addend: 0x0, symName: __ZN4core9panicking16panic_in_cleanup17hdc9dae2f5fec47e4E, symObjAddr: 0x7CEC, symBinAddr: 0x1000499E4, symSize: 0x18 }
  - { offset: 0x920BA, size: 0x8, addend: 0x0, symName: __ZN4core9panicking13assert_failed17h0019f4c0f6063c60E, symObjAddr: 0x7D68, symBinAddr: 0x1000499FC, symSize: 0x24 }
  - { offset: 0x920D5, size: 0x8, addend: 0x0, symName: __ZN4core9panicking13assert_failed17h748d75638d28cdb2E, symObjAddr: 0x7D8C, symBinAddr: 0x100049A20, symSize: 0x24 }
  - { offset: 0x920F0, size: 0x8, addend: 0x0, symName: __ZN4core9panicking19assert_failed_inner17hcd9fdaaa091321f9E, symObjAddr: 0x7DC4, symBinAddr: 0x100049A44, symSize: 0xE4 }
  - { offset: 0x9213D, size: 0x8, addend: 0x0, symName: __ZN4core9panicking11panic_const23panic_const_div_by_zero17h31f967ea86996136E, symObjAddr: 0x18300, symBinAddr: 0x100049C58, symSize: 0x34 }
  - { offset: 0x9216C, size: 0x8, addend: 0x0, symName: __ZN4core9panicking11panic_const23panic_const_rem_by_zero17ha1e16486c02437ccE, symObjAddr: 0x18334, symBinAddr: 0x100049C8C, symSize: 0x34 }
  - { offset: 0x921D8, size: 0x8, addend: 0x0, symName: __ZN4core5alloc6layout6Layout19is_size_align_valid17h9081c126d538f17aE, symObjAddr: 0x129D4, symBinAddr: 0x100044CF8, symSize: 0x20 }
  - { offset: 0x921F5, size: 0x8, addend: 0x0, symName: __ZN4core5alloc6layout6Layout19is_size_align_valid17h9081c126d538f17aE, symObjAddr: 0x129D4, symBinAddr: 0x100044CF8, symSize: 0x20 }
  - { offset: 0x9221F, size: 0x8, addend: 0x0, symName: _OUTLINED_FUNCTION_0, symObjAddr: 0x1DCF4, symBinAddr: 0x100045690, symSize: 0x10 }
...
