---
triple:          'arm64-apple-darwin'
binary-path:     '/Users/tyler/fall25/cse380/final_project/final_project_sqlite/target/debug/deps/libthiserror_impl-a86761e20812bf9e.dylib'
relocations:
  - { offset: 0x1E, size: 0x8, addend: 0x0, symName: __RINvMNtNtNtCsiTraAjBDcu4_5alloc11collections5btree4nodeINtB3_8LeafNodeNtCshnvkK9b4wzu_11proc_macro25IdentNtNtB5_7set_val9SetValZSTE3newNtNtB9_5alloc6GlobalECs9PzovR4aYST_14thiserror_impl, symObjAddr: 0x0, symBinAddr: 0xC58, symSize: 0x70 }
  - { offset: 0xF4F0, size: 0x8, addend: 0x0, symName: __RNCINvMss_NtNtNtCsiTraAjBDcu4_5alloc11collections5btree4nodeINtB8_7NodeRefNtNtB8_6marker5OwnedNtCshnvkK9b4wzu_11proc_macro25IdentNtNtBa_7set_val9SetValZSTNtB1c_14LeafOrInternalE19push_internal_levelNtNtBe_5alloc6GlobalE0Cs9PzovR4aYST_14thiserror_impl, symObjAddr: 0xA584, symBinAddr: 0xB1DC, symSize: 0x34 }
  - { offset: 0xF549, size: 0x8, addend: 0x0, symName: __RNCINvMss_NtNtNtCsiTraAjBDcu4_5alloc11collections5btree4nodeINtB8_7NodeRefNtNtB8_6marker5OwnedNtNtBe_6string6StringNtNtBa_7set_val9SetValZSTNtB1c_14LeafOrInternalE19push_internal_levelNtNtBe_5alloc6GlobalE0Cs9PzovR4aYST_14thiserror_impl, symObjAddr: 0xA5B8, symBinAddr: 0xB210, symSize: 0x34 }
  - { offset: 0xF5A2, size: 0x8, addend: 0x0, symName: __RNCINvMss_NtNtNtCsiTraAjBDcu4_5alloc11collections5btree4nodeINtB8_7NodeRefNtNtB8_6marker5OwnedNtNtBe_6string6StringTINtNtBa_3set8BTreeSetB1u_EINtNtCsc29TF2YcYso_3syn10punctuated10PunctuatedNtCshnvkK9b4wzu_11proc_macro211TokenStreamNtNtB2l_5token4PlusEENtB1c_14LeafOrInternalE19push_internal_levelNtNtBe_5alloc6GlobalE0Cs9PzovR4aYST_14thiserror_impl, symObjAddr: 0xA5EC, symBinAddr: 0xB244, symSize: 0x34 }
  - { offset: 0xF5FB, size: 0x8, addend: 0x0, symName: __RNCINvMss_NtNtNtCsiTraAjBDcu4_5alloc11collections5btree4nodeINtB8_7NodeRefNtNtB8_6marker5OwnedRNtCshnvkK9b4wzu_11proc_macro25IdentNtNtBa_7set_val9SetValZSTNtB1c_14LeafOrInternalE19push_internal_levelNtNtBe_5alloc6GlobalE0Cs9PzovR4aYST_14thiserror_impl, symObjAddr: 0xA620, symBinAddr: 0xB278, symSize: 0x34 }
  - { offset: 0xF654, size: 0x8, addend: 0x0, symName: __RNCINvMss_NtNtNtCsiTraAjBDcu4_5alloc11collections5btree4nodeINtB8_7NodeRefNtNtB8_6marker5OwnedTjNtNtCs9PzovR4aYST_14thiserror_impl4attr5TraitENtNtBa_7set_val9SetValZSTNtB1c_14LeafOrInternalE19push_internal_levelNtNtBe_5alloc6GlobalE0B1A_, symObjAddr: 0xA654, symBinAddr: 0xB2AC, symSize: 0x34 }
  - { offset: 0x1831E, size: 0x8, addend: 0x0, symName: __RINvNtNtNtCsiTraAjBDcu4_5alloc11collections5btree4node12slice_insertINtNtNtCsaNl6UpbT7bw_4core3ptr8non_null7NonNullINtB2_8LeafNodeNtCshnvkK9b4wzu_11proc_macro25IdentNtNtB4_7set_val9SetValZSTEEECs9PzovR4aYST_14thiserror_impl, symObjAddr: 0x913C, symBinAddr: 0x9D94, symSize: 0x11C }
  - { offset: 0x184A2, size: 0x8, addend: 0x0, symName: __RINvNtNtNtCsiTraAjBDcu4_5alloc11collections5btree4node12slice_insertINtNtNtCsaNl6UpbT7bw_4core3ptr8non_null7NonNullINtB2_8LeafNodeNtNtB8_6string6StringNtNtB4_7set_val9SetValZSTEEECs9PzovR4aYST_14thiserror_impl, symObjAddr: 0x9258, symBinAddr: 0x9EB0, symSize: 0x11C }
  - { offset: 0x18626, size: 0x8, addend: 0x0, symName: __RINvNtNtNtCsiTraAjBDcu4_5alloc11collections5btree4node12slice_insertINtNtNtCsaNl6UpbT7bw_4core3ptr8non_null7NonNullINtB2_8LeafNodeNtNtB8_6string6StringTINtNtB4_3set8BTreeSetB24_EINtNtCsc29TF2YcYso_3syn10punctuated10PunctuatedNtCshnvkK9b4wzu_11proc_macro211TokenStreamNtNtB2V_5token4PlusEEEEECs9PzovR4aYST_14thiserror_impl, symObjAddr: 0x9374, symBinAddr: 0x9FCC, symSize: 0x11C }
  - { offset: 0x187AA, size: 0x8, addend: 0x0, symName: __RINvNtNtNtCsiTraAjBDcu4_5alloc11collections5btree4node12slice_insertINtNtNtCsaNl6UpbT7bw_4core3ptr8non_null7NonNullINtB2_8LeafNodeTjNtNtCs9PzovR4aYST_14thiserror_impl4attr5TraitENtNtB4_7set_val9SetValZSTEEEB2a_, symObjAddr: 0x9490, symBinAddr: 0xA0E8, symSize: 0x11C }
  - { offset: 0x1892E, size: 0x8, addend: 0x0, symName: __RINvNtNtNtCsiTraAjBDcu4_5alloc11collections5btree4node12slice_insertNtCshnvkK9b4wzu_11proc_macro25IdentECs9PzovR4aYST_14thiserror_impl, symObjAddr: 0x95AC, symBinAddr: 0xA204, symSize: 0x158 }
  - { offset: 0x18AB5, size: 0x8, addend: 0x0, symName: __RINvNtNtNtCsiTraAjBDcu4_5alloc11collections5btree4node12slice_insertNtNtB4_7set_val9SetValZSTECs9PzovR4aYST_14thiserror_impl, symObjAddr: 0x9704, symBinAddr: 0xA35C, symSize: 0xD8 }
  - { offset: 0x18BCA, size: 0x8, addend: 0x0, symName: __RINvNtNtNtCsiTraAjBDcu4_5alloc11collections5btree4node12slice_insertNtNtB8_6string6StringECs9PzovR4aYST_14thiserror_impl, symObjAddr: 0x97DC, symBinAddr: 0xA434, symSize: 0x158 }
  - { offset: 0x18D51, size: 0x8, addend: 0x0, symName: __RINvNtNtNtCsiTraAjBDcu4_5alloc11collections5btree4node12slice_insertTINtNtB4_3set8BTreeSetNtNtB8_6string6StringEINtNtCsc29TF2YcYso_3syn10punctuated10PunctuatedNtCshnvkK9b4wzu_11proc_macro211TokenStreamNtNtB1R_5token4PlusEEECs9PzovR4aYST_14thiserror_impl, symObjAddr: 0x9934, symBinAddr: 0xA58C, symSize: 0x16C }
  - { offset: 0x18EDC, size: 0x8, addend: 0x0, symName: __RINvNtNtNtCsiTraAjBDcu4_5alloc11collections5btree4node12slice_insertTjNtNtCs9PzovR4aYST_14thiserror_impl4attr5TraitEEB1a_, symObjAddr: 0x9AA0, symBinAddr: 0xA6F8, symSize: 0x12C }
  - { offset: 0x19063, size: 0x8, addend: 0x0, symName: __RINvNtNtNtCsiTraAjBDcu4_5alloc11collections5btree4node13move_to_sliceINtNtNtCsaNl6UpbT7bw_4core3ptr8non_null7NonNullINtB2_8LeafNodeNtCshnvkK9b4wzu_11proc_macro25IdentNtNtB4_7set_val9SetValZSTEEECs9PzovR4aYST_14thiserror_impl, symObjAddr: 0x9BCC, symBinAddr: 0xA824, symSize: 0xB0 }
  - { offset: 0x1910F, size: 0x8, addend: 0x0, symName: __RINvNtNtNtCsiTraAjBDcu4_5alloc11collections5btree4node13move_to_sliceINtNtNtCsaNl6UpbT7bw_4core3ptr8non_null7NonNullINtB2_8LeafNodeNtNtB8_6string6StringNtNtB4_7set_val9SetValZSTEEECs9PzovR4aYST_14thiserror_impl, symObjAddr: 0x9C7C, symBinAddr: 0xA8D4, symSize: 0xB0 }
  - { offset: 0x191BB, size: 0x8, addend: 0x0, symName: __RINvNtNtNtCsiTraAjBDcu4_5alloc11collections5btree4node13move_to_sliceINtNtNtCsaNl6UpbT7bw_4core3ptr8non_null7NonNullINtB2_8LeafNodeNtNtB8_6string6StringTINtNtB4_3set8BTreeSetB25_EINtNtCsc29TF2YcYso_3syn10punctuated10PunctuatedNtCshnvkK9b4wzu_11proc_macro211TokenStreamNtNtB2W_5token4PlusEEEEECs9PzovR4aYST_14thiserror_impl, symObjAddr: 0x9D2C, symBinAddr: 0xA984, symSize: 0xB0 }
  - { offset: 0x19267, size: 0x8, addend: 0x0, symName: __RINvNtNtNtCsiTraAjBDcu4_5alloc11collections5btree4node13move_to_sliceINtNtNtCsaNl6UpbT7bw_4core3ptr8non_null7NonNullINtB2_8LeafNodeRNtCshnvkK9b4wzu_11proc_macro25IdentNtNtB4_7set_val9SetValZSTEEECs9PzovR4aYST_14thiserror_impl, symObjAddr: 0x9DDC, symBinAddr: 0xAA34, symSize: 0xB0 }
  - { offset: 0x19313, size: 0x8, addend: 0x0, symName: __RINvNtNtNtCsiTraAjBDcu4_5alloc11collections5btree4node13move_to_sliceINtNtNtCsaNl6UpbT7bw_4core3ptr8non_null7NonNullINtB2_8LeafNodeTjNtNtCs9PzovR4aYST_14thiserror_impl4attr5TraitENtNtB4_7set_val9SetValZSTEEEB2b_, symObjAddr: 0x9E8C, symBinAddr: 0xAAE4, symSize: 0xB0 }
  - { offset: 0x193BF, size: 0x8, addend: 0x0, symName: __RINvNtNtNtCsiTraAjBDcu4_5alloc11collections5btree4node13move_to_sliceNtCshnvkK9b4wzu_11proc_macro25IdentECs9PzovR4aYST_14thiserror_impl, symObjAddr: 0x9F3C, symBinAddr: 0xAB94, symSize: 0xB8 }
  - { offset: 0x1946B, size: 0x8, addend: 0x0, symName: __RINvNtNtNtCsiTraAjBDcu4_5alloc11collections5btree4node13move_to_sliceNtNtB4_7set_val9SetValZSTECs9PzovR4aYST_14thiserror_impl, symObjAddr: 0x9FF4, symBinAddr: 0xAC4C, symSize: 0xB4 }
  - { offset: 0x19517, size: 0x8, addend: 0x0, symName: __RINvNtNtNtCsiTraAjBDcu4_5alloc11collections5btree4node13move_to_sliceNtNtB8_6string6StringECs9PzovR4aYST_14thiserror_impl, symObjAddr: 0xA0A8, symBinAddr: 0xAD00, symSize: 0xB8 }
  - { offset: 0x195C3, size: 0x8, addend: 0x0, symName: __RINvNtNtNtCsiTraAjBDcu4_5alloc11collections5btree4node13move_to_sliceRNtCshnvkK9b4wzu_11proc_macro25IdentECs9PzovR4aYST_14thiserror_impl, symObjAddr: 0xA160, symBinAddr: 0xADB8, symSize: 0xB0 }
  - { offset: 0x1966F, size: 0x8, addend: 0x0, symName: __RINvNtNtNtCsiTraAjBDcu4_5alloc11collections5btree4node13move_to_sliceTINtNtB4_3set8BTreeSetNtNtB8_6string6StringEINtNtCsc29TF2YcYso_3syn10punctuated10PunctuatedNtCshnvkK9b4wzu_11proc_macro211TokenStreamNtNtB1S_5token4PlusEEECs9PzovR4aYST_14thiserror_impl, symObjAddr: 0xA210, symBinAddr: 0xAE68, symSize: 0xB8 }
  - { offset: 0x1971B, size: 0x8, addend: 0x0, symName: __RINvNtNtNtCsiTraAjBDcu4_5alloc11collections5btree4node13move_to_sliceTjNtNtCs9PzovR4aYST_14thiserror_impl4attr5TraitEEB1b_, symObjAddr: 0xA2C8, symBinAddr: 0xAF20, symSize: 0xB4 }
  - { offset: 0x197C7, size: 0x8, addend: 0x0, symName: __RINvNtNtNtCsiTraAjBDcu4_5alloc11collections5btree4node9slice_shrINtNtNtCsaNl6UpbT7bw_4core3ptr8non_null7NonNullINtB2_8LeafNodeRNtCshnvkK9b4wzu_11proc_macro25IdentNtNtB4_7set_val9SetValZSTEEECs9PzovR4aYST_14thiserror_impl, symObjAddr: 0xA37C, symBinAddr: 0xAFD4, symSize: 0xB4 }
  - { offset: 0x19889, size: 0x8, addend: 0x0, symName: __RINvNtNtNtCsiTraAjBDcu4_5alloc11collections5btree4node9slice_shrNtNtB4_7set_val9SetValZSTECs9PzovR4aYST_14thiserror_impl, symObjAddr: 0xA430, symBinAddr: 0xB088, symSize: 0xA0 }
  - { offset: 0x1995B, size: 0x8, addend: 0x0, symName: __RINvNtNtNtCsiTraAjBDcu4_5alloc11collections5btree4node9slice_shrRNtCshnvkK9b4wzu_11proc_macro25IdentECs9PzovR4aYST_14thiserror_impl, symObjAddr: 0xA4D0, symBinAddr: 0xB128, symSize: 0xB4 }
  - { offset: 0x1AEF4, size: 0x8, addend: 0x0, symName: __RNvXNvMsT_NtNtNtCsiTraAjBDcu4_5alloc11collections5btree4nodeINtB8_6HandleINtB8_7NodeRefNtNtB8_6marker5DyingpppENtB1p_2KVE12drop_key_valINtB2_7DropperNtNtBa_7set_val9SetValZSTENtNtNtCsaNl6UpbT7bw_4core3ops4drop4Drop4dropCs9PzovR4aYST_14thiserror_impl, symObjAddr: 0x1367C, symBinAddr: 0x142D4, symSize: 0x1C }
  - { offset: 0x1AF27, size: 0x8, addend: 0x0, symName: __RNvXNvMsT_NtNtNtCsiTraAjBDcu4_5alloc11collections5btree4nodeINtB8_6HandleINtB8_7NodeRefNtNtB8_6marker5DyingpppENtB1p_2KVE12drop_key_valINtB2_7DropperTINtNtBa_3set8BTreeSetNtNtBe_6string6StringEINtNtCsc29TF2YcYso_3syn10punctuated10PunctuatedNtCshnvkK9b4wzu_11proc_macro211TokenStreamNtNtB3a_5token4PlusEEENtNtNtCsaNl6UpbT7bw_4core3ops4drop4Drop4dropCs9PzovR4aYST_14thiserror_impl, symObjAddr: 0x13698, symBinAddr: 0x142F0, symSize: 0x2C }
  - { offset: 0x1CDB9, size: 0x8, addend: 0x0, symName: __RINvMNtNtNtCsiTraAjBDcu4_5alloc11collections5btree4nodeINtB3_8LeafNodeNtCshnvkK9b4wzu_11proc_macro25IdentNtNtB5_7set_val9SetValZSTE3newNtNtB9_5alloc6GlobalECs9PzovR4aYST_14thiserror_impl, symObjAddr: 0x0, symBinAddr: 0xC58, symSize: 0x70 }
  - { offset: 0x1D07F, size: 0x8, addend: 0x0, symName: __RINvMNtNtNtCsiTraAjBDcu4_5alloc11collections5btree4nodeINtB3_8LeafNodeNtNtB9_6string6StringNtNtB5_7set_val9SetValZSTE3newNtNtB9_5alloc6GlobalECs9PzovR4aYST_14thiserror_impl, symObjAddr: 0x70, symBinAddr: 0xCC8, symSize: 0x70 }
  - { offset: 0x1D445, size: 0x8, addend: 0x0, symName: __RINvMNtNtNtCsiTraAjBDcu4_5alloc11collections5btree4nodeINtB3_8LeafNodeNtNtB9_6string6StringTINtNtB5_3set8BTreeSetB16_EINtNtCsc29TF2YcYso_3syn10punctuated10PunctuatedNtCshnvkK9b4wzu_11proc_macro211TokenStreamNtNtB1X_5token4PlusEEE3newNtNtB9_5alloc6GlobalECs9PzovR4aYST_14thiserror_impl, symObjAddr: 0xE0, symBinAddr: 0xD38, symSize: 0x70 }
  - { offset: 0x1D70B, size: 0x8, addend: 0x0, symName: __RINvMNtNtNtCsiTraAjBDcu4_5alloc11collections5btree4nodeINtB3_8LeafNodeRNtCshnvkK9b4wzu_11proc_macro25IdentNtNtB5_7set_val9SetValZSTE3newNtNtB9_5alloc6GlobalECs9PzovR4aYST_14thiserror_impl, symObjAddr: 0x150, symBinAddr: 0xDA8, symSize: 0x70 }
  - { offset: 0x1D9E2, size: 0x8, addend: 0x0, symName: __RINvMNtNtNtCsiTraAjBDcu4_5alloc11collections5btree4nodeINtB3_8LeafNodeTjNtNtCs9PzovR4aYST_14thiserror_impl4attr5TraitENtNtB5_7set_val9SetValZSTE3newNtNtB9_5alloc6GlobalEB1c_, symObjAddr: 0x1C0, symBinAddr: 0xE18, symSize: 0x70 }
  - { offset: 0x1DF2B, size: 0x8, addend: 0x0, symName: __RINvMNtNtNtCsiTraAjBDcu4_5alloc11collections5btree6appendINtNtB5_4node7NodeRefNtNtBW_6marker5OwnedRNtCshnvkK9b4wzu_11proc_macro25IdentNtNtB5_7set_val9SetValZSTNtB1g_14LeafOrInternalE9bulk_pushINtNtB5_17dedup_sorted_iter15DedupSortedIterB1y_B28_INtNtNtNtCsaNl6UpbT7bw_4core4iter8adapters3map3MapINtNtNtB9_3vec9into_iter8IntoIterB1y_ENCINvMse_NtB5_3setINtB5t_8BTreeSetB1y_E16from_sorted_iterB4I_E0EENtNtB9_5alloc6GlobalECs9PzovR4aYST_14thiserror_impl, symObjAddr: 0x230, symBinAddr: 0xE88, symSize: 0x4D8 }
  - { offset: 0x1E4F0, size: 0x8, addend: 0x0, symName: __RINvMs0_NtNtNtCsiTraAjBDcu4_5alloc11collections5btree6searchINtNtB8_4node7NodeRefNtNtBZ_6marker3MutNtCshnvkK9b4wzu_11proc_macro25IdentNtNtB8_7set_val9SetValZSTNtB1j_14LeafOrInternalE14find_key_indexB1z_ECs9PzovR4aYST_14thiserror_impl, symObjAddr: 0x708, symBinAddr: 0x1360, symSize: 0x1EC }
  - { offset: 0x1E97A, size: 0x8, addend: 0x0, symName: __RINvMs0_NtNtNtCsiTraAjBDcu4_5alloc11collections5btree6searchINtNtB8_4node7NodeRefNtNtBZ_6marker3MutNtNtBc_6string6StringNtNtB8_7set_val9SetValZSTNtB1j_14LeafOrInternalE14find_key_indexB1z_ECs9PzovR4aYST_14thiserror_impl, symObjAddr: 0x8F4, symBinAddr: 0x154C, symSize: 0x1EC }
  - { offset: 0x1ED98, size: 0x8, addend: 0x0, symName: __RINvMs0_NtNtNtCsiTraAjBDcu4_5alloc11collections5btree6searchINtNtB8_4node7NodeRefNtNtBZ_6marker3MutNtNtBc_6string6StringTINtNtB8_3set8BTreeSetB1z_EINtNtCsc29TF2YcYso_3syn10punctuated10PunctuatedNtCshnvkK9b4wzu_11proc_macro211TokenStreamNtNtB2q_5token4PlusEENtB1j_14LeafOrInternalE14find_key_indexB1z_ECs9PzovR4aYST_14thiserror_impl, symObjAddr: 0xAE0, symBinAddr: 0x1738, symSize: 0x1EC }
  - { offset: 0x1F222, size: 0x8, addend: 0x0, symName: __RINvMs0_NtNtNtCsiTraAjBDcu4_5alloc11collections5btree6searchINtNtB8_4node7NodeRefNtNtBZ_6marker3MutTjNtNtCs9PzovR4aYST_14thiserror_impl4attr5TraitENtNtB8_7set_val9SetValZSTNtB1j_14LeafOrInternalE14find_key_indexB1z_EB1F_, symObjAddr: 0xCCC, symBinAddr: 0x1924, symSize: 0x1DC }
  - { offset: 0x1F640, size: 0x8, addend: 0x0, symName: __RINvMs0_NtNtNtCsiTraAjBDcu4_5alloc11collections5btree6searchINtNtB8_4node7NodeRefNtNtBZ_6marker5ImmutNtNtBc_6string6StringTINtNtB8_3set8BTreeSetB1B_EINtNtCsc29TF2YcYso_3syn10punctuated10PunctuatedNtCshnvkK9b4wzu_11proc_macro211TokenStreamNtNtB2s_5token4PlusEENtB1j_14LeafOrInternalE14find_key_indexB1B_ECs9PzovR4aYST_14thiserror_impl, symObjAddr: 0xEA8, symBinAddr: 0x1B00, symSize: 0x1EC }
  - { offset: 0x1FABD, size: 0x8, addend: 0x0, symName: __RINvMs0_NtNtNtCsiTraAjBDcu4_5alloc11collections5btree6searchINtNtB8_4node7NodeRefNtNtBZ_6marker5ImmutRNtCshnvkK9b4wzu_11proc_macro25IdentNtNtB8_7set_val9SetValZSTNtB1j_14LeafOrInternalE14find_key_indexB1C_ECs9PzovR4aYST_14thiserror_impl, symObjAddr: 0x1094, symBinAddr: 0x1CEC, symSize: 0x1DC }
  - { offset: 0x1FE1F, size: 0x8, addend: 0x0, symName: __RINvMs8_NtNtNtCsiTraAjBDcu4_5alloc11collections5btree4nodeINtB6_7NodeRefNtNtB6_6marker5OwnedNtCshnvkK9b4wzu_11proc_macro25IdentNtNtB8_7set_val9SetValZSTNtB1a_4LeafE8new_leafNtNtBc_5alloc6GlobalECs9PzovR4aYST_14thiserror_impl, symObjAddr: 0x1270, symBinAddr: 0x1EC8, symSize: 0x38 }
  - { offset: 0x1FEEE, size: 0x8, addend: 0x0, symName: __RINvMs8_NtNtNtCsiTraAjBDcu4_5alloc11collections5btree4nodeINtB6_7NodeRefNtNtB6_6marker5OwnedNtNtBc_6string6StringNtNtB8_7set_val9SetValZSTNtB1a_4LeafE8new_leafNtNtBc_5alloc6GlobalECs9PzovR4aYST_14thiserror_impl, symObjAddr: 0x12A8, symBinAddr: 0x1F00, symSize: 0x38 }
  - { offset: 0x1FFBD, size: 0x8, addend: 0x0, symName: __RINvMs8_NtNtNtCsiTraAjBDcu4_5alloc11collections5btree4nodeINtB6_7NodeRefNtNtB6_6marker5OwnedNtNtBc_6string6StringTINtNtB8_3set8BTreeSetB1s_EINtNtCsc29TF2YcYso_3syn10punctuated10PunctuatedNtCshnvkK9b4wzu_11proc_macro211TokenStreamNtNtB2j_5token4PlusEENtB1a_4LeafE8new_leafNtNtBc_5alloc6GlobalECs9PzovR4aYST_14thiserror_impl, symObjAddr: 0x12E0, symBinAddr: 0x1F38, symSize: 0x38 }
  - { offset: 0x2008C, size: 0x8, addend: 0x0, symName: __RINvMs8_NtNtNtCsiTraAjBDcu4_5alloc11collections5btree4nodeINtB6_7NodeRefNtNtB6_6marker5OwnedRNtCshnvkK9b4wzu_11proc_macro25IdentNtNtB8_7set_val9SetValZSTNtB1a_4LeafE8new_leafNtNtBc_5alloc6GlobalECs9PzovR4aYST_14thiserror_impl, symObjAddr: 0x1318, symBinAddr: 0x1F70, symSize: 0x38 }
  - { offset: 0x2015B, size: 0x8, addend: 0x0, symName: __RINvMs8_NtNtNtCsiTraAjBDcu4_5alloc11collections5btree4nodeINtB6_7NodeRefNtNtB6_6marker5OwnedTjNtNtCs9PzovR4aYST_14thiserror_impl4attr5TraitENtNtB8_7set_val9SetValZSTNtB1a_4LeafE8new_leafNtNtBc_5alloc6GlobalEB1y_, symObjAddr: 0x1350, symBinAddr: 0x1FA8, symSize: 0x38 }
  - { offset: 0x2026C, size: 0x8, addend: 0x0, symName: __RINvMs9_NtNtNtCsiTraAjBDcu4_5alloc11collections5btree4nodeINtB6_7NodeRefNtNtB6_6marker5OwnedNtCshnvkK9b4wzu_11proc_macro25IdentNtNtB8_7set_val9SetValZSTNtB1a_8InternalE12new_internalNtNtBc_5alloc6GlobalECs9PzovR4aYST_14thiserror_impl, symObjAddr: 0x1388, symBinAddr: 0x1FE0, symSize: 0x98 }
  - { offset: 0x2049F, size: 0x8, addend: 0x0, symName: __RINvMs9_NtNtNtCsiTraAjBDcu4_5alloc11collections5btree4nodeINtB6_7NodeRefNtNtB6_6marker5OwnedNtCshnvkK9b4wzu_11proc_macro25IdentNtNtB8_7set_val9SetValZSTNtB1a_8InternalE17from_new_internalNtNtBc_5alloc6GlobalECs9PzovR4aYST_14thiserror_impl, symObjAddr: 0x1420, symBinAddr: 0x2078, symSize: 0xC0 }
  - { offset: 0x206B8, size: 0x8, addend: 0x0, symName: __RINvMs9_NtNtNtCsiTraAjBDcu4_5alloc11collections5btree4nodeINtB6_7NodeRefNtNtB6_6marker5OwnedNtNtBc_6string6StringNtNtB8_7set_val9SetValZSTNtB1a_8InternalE12new_internalNtNtBc_5alloc6GlobalECs9PzovR4aYST_14thiserror_impl, symObjAddr: 0x14E0, symBinAddr: 0x2138, symSize: 0x98 }
  - { offset: 0x208EB, size: 0x8, addend: 0x0, symName: __RINvMs9_NtNtNtCsiTraAjBDcu4_5alloc11collections5btree4nodeINtB6_7NodeRefNtNtB6_6marker5OwnedNtNtBc_6string6StringNtNtB8_7set_val9SetValZSTNtB1a_8InternalE17from_new_internalNtNtBc_5alloc6GlobalECs9PzovR4aYST_14thiserror_impl, symObjAddr: 0x1578, symBinAddr: 0x21D0, symSize: 0xC0 }
  - { offset: 0x20B04, size: 0x8, addend: 0x0, symName: __RINvMs9_NtNtNtCsiTraAjBDcu4_5alloc11collections5btree4nodeINtB6_7NodeRefNtNtB6_6marker5OwnedNtNtBc_6string6StringTINtNtB8_3set8BTreeSetB1s_EINtNtCsc29TF2YcYso_3syn10punctuated10PunctuatedNtCshnvkK9b4wzu_11proc_macro211TokenStreamNtNtB2j_5token4PlusEENtB1a_8InternalE12new_internalNtNtBc_5alloc6GlobalECs9PzovR4aYST_14thiserror_impl, symObjAddr: 0x1638, symBinAddr: 0x2290, symSize: 0x98 }
  - { offset: 0x20D37, size: 0x8, addend: 0x0, symName: __RINvMs9_NtNtNtCsiTraAjBDcu4_5alloc11collections5btree4nodeINtB6_7NodeRefNtNtB6_6marker5OwnedNtNtBc_6string6StringTINtNtB8_3set8BTreeSetB1s_EINtNtCsc29TF2YcYso_3syn10punctuated10PunctuatedNtCshnvkK9b4wzu_11proc_macro211TokenStreamNtNtB2j_5token4PlusEENtB1a_8InternalE17from_new_internalNtNtBc_5alloc6GlobalECs9PzovR4aYST_14thiserror_impl, symObjAddr: 0x16D0, symBinAddr: 0x2328, symSize: 0xC0 }
  - { offset: 0x20F50, size: 0x8, addend: 0x0, symName: __RINvMs9_NtNtNtCsiTraAjBDcu4_5alloc11collections5btree4nodeINtB6_7NodeRefNtNtB6_6marker5OwnedRNtCshnvkK9b4wzu_11proc_macro25IdentNtNtB8_7set_val9SetValZSTNtB1a_8InternalE12new_internalNtNtBc_5alloc6GlobalECs9PzovR4aYST_14thiserror_impl, symObjAddr: 0x1790, symBinAddr: 0x23E8, symSize: 0x98 }
  - { offset: 0x21176, size: 0x8, addend: 0x0, symName: __RINvMs9_NtNtNtCsiTraAjBDcu4_5alloc11collections5btree4nodeINtB6_7NodeRefNtNtB6_6marker5OwnedRNtCshnvkK9b4wzu_11proc_macro25IdentNtNtB8_7set_val9SetValZSTNtB1a_8InternalE17from_new_internalNtNtBc_5alloc6GlobalECs9PzovR4aYST_14thiserror_impl, symObjAddr: 0x1828, symBinAddr: 0x2480, symSize: 0xC0 }
  - { offset: 0x2138F, size: 0x8, addend: 0x0, symName: __RINvMs9_NtNtNtCsiTraAjBDcu4_5alloc11collections5btree4nodeINtB6_7NodeRefNtNtB6_6marker5OwnedTjNtNtCs9PzovR4aYST_14thiserror_impl4attr5TraitENtNtB8_7set_val9SetValZSTNtB1a_8InternalE12new_internalNtNtBc_5alloc6GlobalEB1y_, symObjAddr: 0x18E8, symBinAddr: 0x2540, symSize: 0x98 }
  - { offset: 0x215C2, size: 0x8, addend: 0x0, symName: __RINvMs9_NtNtNtCsiTraAjBDcu4_5alloc11collections5btree4nodeINtB6_7NodeRefNtNtB6_6marker5OwnedTjNtNtCs9PzovR4aYST_14thiserror_impl4attr5TraitENtNtB8_7set_val9SetValZSTNtB1a_8InternalE17from_new_internalNtNtBc_5alloc6GlobalEB1y_, symObjAddr: 0x1980, symBinAddr: 0x25D8, symSize: 0xC0 }
  - { offset: 0x219D2, size: 0x8, addend: 0x0, symName: __RINvMsK_NtNtNtCsiTraAjBDcu4_5alloc11collections5btree4nodeINtB6_6HandleINtB6_7NodeRefNtNtB6_6marker3MutNtCshnvkK9b4wzu_11proc_macro25IdentNtNtB8_7set_val9SetValZSTNtB1n_4LeafENtB1n_4EdgeE6insertNtNtBc_5alloc6GlobalECs9PzovR4aYST_14thiserror_impl, symObjAddr: 0x1A40, symBinAddr: 0x2698, symSize: 0x508 }
  - { offset: 0x21E8F, size: 0x8, addend: 0x0, symName: __RINvMsK_NtNtNtCsiTraAjBDcu4_5alloc11collections5btree4nodeINtB6_6HandleINtB6_7NodeRefNtNtB6_6marker3MutNtNtBc_6string6StringNtNtB8_7set_val9SetValZSTNtB1n_4LeafENtB1n_4EdgeE6insertNtNtBc_5alloc6GlobalECs9PzovR4aYST_14thiserror_impl, symObjAddr: 0x1F48, symBinAddr: 0x2BA0, symSize: 0x50C }
  - { offset: 0x2236A, size: 0x8, addend: 0x0, symName: __RINvMsK_NtNtNtCsiTraAjBDcu4_5alloc11collections5btree4nodeINtB6_6HandleINtB6_7NodeRefNtNtB6_6marker3MutNtNtBc_6string6StringTINtNtB8_3set8BTreeSetB1D_EINtNtCsc29TF2YcYso_3syn10punctuated10PunctuatedNtCshnvkK9b4wzu_11proc_macro211TokenStreamNtNtB2u_5token4PlusEENtB1n_4LeafENtB1n_4EdgeE6insertNtNtBc_5alloc6GlobalECs9PzovR4aYST_14thiserror_impl, symObjAddr: 0x2454, symBinAddr: 0x30AC, symSize: 0x570 }
  - { offset: 0x22845, size: 0x8, addend: 0x0, symName: __RINvMsK_NtNtNtCsiTraAjBDcu4_5alloc11collections5btree4nodeINtB6_6HandleINtB6_7NodeRefNtNtB6_6marker3MutTjNtNtCs9PzovR4aYST_14thiserror_impl4attr5TraitENtNtB8_7set_val9SetValZSTNtB1n_4LeafENtB1n_4EdgeE6insertNtNtBc_5alloc6GlobalEB1J_, symObjAddr: 0x29C4, symBinAddr: 0x361C, symSize: 0x4CC }
  - { offset: 0x22C57, size: 0x8, addend: 0x0, symName: __RINvMsM_NtNtNtCsiTraAjBDcu4_5alloc11collections5btree4nodeINtB6_6HandleINtB6_7NodeRefNtNtB6_6marker3MutNtCshnvkK9b4wzu_11proc_macro25IdentNtNtB8_7set_val9SetValZSTNtB1n_8InternalENtB1n_4EdgeE6insertNtNtBc_5alloc6GlobalECs9PzovR4aYST_14thiserror_impl, symObjAddr: 0x2E90, symBinAddr: 0x3AE8, symSize: 0x4F4 }
  - { offset: 0x22FCF, size: 0x8, addend: 0x0, symName: __RINvMsM_NtNtNtCsiTraAjBDcu4_5alloc11collections5btree4nodeINtB6_6HandleINtB6_7NodeRefNtNtB6_6marker3MutNtNtBc_6string6StringNtNtB8_7set_val9SetValZSTNtB1n_8InternalENtB1n_4EdgeE6insertNtNtBc_5alloc6GlobalECs9PzovR4aYST_14thiserror_impl, symObjAddr: 0x3384, symBinAddr: 0x3FDC, symSize: 0x4F8 }
  - { offset: 0x23347, size: 0x8, addend: 0x0, symName: __RINvMsM_NtNtNtCsiTraAjBDcu4_5alloc11collections5btree4nodeINtB6_6HandleINtB6_7NodeRefNtNtB6_6marker3MutNtNtBc_6string6StringTINtNtB8_3set8BTreeSetB1D_EINtNtCsc29TF2YcYso_3syn10punctuated10PunctuatedNtCshnvkK9b4wzu_11proc_macro211TokenStreamNtNtB2u_5token4PlusEENtB1n_8InternalENtB1n_4EdgeE6insertNtNtBc_5alloc6GlobalECs9PzovR4aYST_14thiserror_impl, symObjAddr: 0x387C, symBinAddr: 0x44D4, symSize: 0x570 }
  - { offset: 0x236BF, size: 0x8, addend: 0x0, symName: __RINvMsM_NtNtNtCsiTraAjBDcu4_5alloc11collections5btree4nodeINtB6_6HandleINtB6_7NodeRefNtNtB6_6marker3MutTjNtNtCs9PzovR4aYST_14thiserror_impl4attr5TraitENtNtB8_7set_val9SetValZSTNtB1n_8InternalENtB1n_4EdgeE6insertNtNtBc_5alloc6GlobalEB1J_, symObjAddr: 0x3DEC, symBinAddr: 0x4A44, symSize: 0x4DC }
  - { offset: 0x239AC, size: 0x8, addend: 0x0, symName: __RINvMsN_NtNtNtCsiTraAjBDcu4_5alloc11collections5btree4nodeINtB6_6HandleINtB6_7NodeRefNtNtB6_6marker3MutNtCshnvkK9b4wzu_11proc_macro25IdentNtNtB8_7set_val9SetValZSTNtB1n_4LeafENtB1n_4EdgeE16insert_recursingNtNtBc_5alloc6GlobalNCNvMs6_NtNtB8_3map5entryINtB3J_11VacantEntryB1D_B2c_E12insert_entry0ECs9PzovR4aYST_14thiserror_impl, symObjAddr: 0x42C8, symBinAddr: 0x4F20, symSize: 0x480 }
  - { offset: 0x23CD5, size: 0x8, addend: 0x0, symName: __RINvMsN_NtNtNtCsiTraAjBDcu4_5alloc11collections5btree4nodeINtB6_6HandleINtB6_7NodeRefNtNtB6_6marker3MutNtNtBc_6string6StringNtNtB8_7set_val9SetValZSTNtB1n_4LeafENtB1n_4EdgeE16insert_recursingNtNtBc_5alloc6GlobalNCNvMs6_NtNtB8_3map5entryINtB3v_11VacantEntryB1D_B1Y_E12insert_entry0ECs9PzovR4aYST_14thiserror_impl, symObjAddr: 0x4748, symBinAddr: 0x53A0, symSize: 0x488 }
  - { offset: 0x2400B, size: 0x8, addend: 0x0, symName: __RINvMsN_NtNtNtCsiTraAjBDcu4_5alloc11collections5btree4nodeINtB6_6HandleINtB6_7NodeRefNtNtB6_6marker3MutNtNtBc_6string6StringTINtNtB8_3set8BTreeSetB1D_EINtNtCsc29TF2YcYso_3syn10punctuated10PunctuatedNtCshnvkK9b4wzu_11proc_macro211TokenStreamNtNtB2u_5token4PlusEENtB1n_4LeafENtB1n_4EdgeE16insert_recursingNtNtBc_5alloc6GlobalNCNvMs6_NtNtB8_3map5entryINtB5j_11VacantEntryB1D_B1Y_E12insert_entry0ECs9PzovR4aYST_14thiserror_impl, symObjAddr: 0x4BD0, symBinAddr: 0x5828, symSize: 0x560 }
  - { offset: 0x24341, size: 0x8, addend: 0x0, symName: __RINvMsN_NtNtNtCsiTraAjBDcu4_5alloc11collections5btree4nodeINtB6_6HandleINtB6_7NodeRefNtNtB6_6marker3MutTjNtNtCs9PzovR4aYST_14thiserror_impl4attr5TraitENtNtB8_7set_val9SetValZSTNtB1n_4LeafENtB1n_4EdgeE16insert_recursingNtNtBc_5alloc6GlobalNCNvMs6_NtNtB8_3map5entryINtB3W_11VacantEntryB1D_B2p_E12insert_entry0EB1J_, symObjAddr: 0x5130, symBinAddr: 0x5D88, symSize: 0x43C }
  - { offset: 0x245EF, size: 0x8, addend: 0x0, symName: __RINvMsV_NtNtNtCsiTraAjBDcu4_5alloc11collections5btree4nodeINtB6_6HandleINtB6_7NodeRefNtNtB6_6marker3MutNtCshnvkK9b4wzu_11proc_macro25IdentNtNtB8_7set_val9SetValZSTNtB1n_4LeafENtB1n_2KVE5splitNtNtBc_5alloc6GlobalECs9PzovR4aYST_14thiserror_impl, symObjAddr: 0x556C, symBinAddr: 0x61C4, symSize: 0xE0 }
  - { offset: 0x24716, size: 0x8, addend: 0x0, symName: __RINvMsV_NtNtNtCsiTraAjBDcu4_5alloc11collections5btree4nodeINtB6_6HandleINtB6_7NodeRefNtNtB6_6marker3MutNtNtBc_6string6StringNtNtB8_7set_val9SetValZSTNtB1n_4LeafENtB1n_2KVE5splitNtNtBc_5alloc6GlobalECs9PzovR4aYST_14thiserror_impl, symObjAddr: 0x564C, symBinAddr: 0x62A4, symSize: 0xE0 }
  - { offset: 0x2483D, size: 0x8, addend: 0x0, symName: __RINvMsV_NtNtNtCsiTraAjBDcu4_5alloc11collections5btree4nodeINtB6_6HandleINtB6_7NodeRefNtNtB6_6marker3MutNtNtBc_6string6StringTINtNtB8_3set8BTreeSetB1D_EINtNtCsc29TF2YcYso_3syn10punctuated10PunctuatedNtCshnvkK9b4wzu_11proc_macro211TokenStreamNtNtB2u_5token4PlusEENtB1n_4LeafENtB1n_2KVE5splitNtNtBc_5alloc6GlobalECs9PzovR4aYST_14thiserror_impl, symObjAddr: 0x572C, symBinAddr: 0x6384, symSize: 0x108 }
  - { offset: 0x24967, size: 0x8, addend: 0x0, symName: __RINvMsV_NtNtNtCsiTraAjBDcu4_5alloc11collections5btree4nodeINtB6_6HandleINtB6_7NodeRefNtNtB6_6marker3MutTjNtNtCs9PzovR4aYST_14thiserror_impl4attr5TraitENtNtB8_7set_val9SetValZSTNtB1n_4LeafENtB1n_2KVE5splitNtNtBc_5alloc6GlobalEB1J_, symObjAddr: 0x5834, symBinAddr: 0x648C, symSize: 0xE4 }
  - { offset: 0x24BB7, size: 0x8, addend: 0x0, symName: __RINvMsW_NtNtNtCsiTraAjBDcu4_5alloc11collections5btree4nodeINtB6_6HandleINtB6_7NodeRefNtNtB6_6marker3MutNtCshnvkK9b4wzu_11proc_macro25IdentNtNtB8_7set_val9SetValZSTNtB1n_8InternalENtB1n_2KVE5splitNtNtBc_5alloc6GlobalECs9PzovR4aYST_14thiserror_impl, symObjAddr: 0x5918, symBinAddr: 0x6570, symSize: 0x248 }
  - { offset: 0x2500B, size: 0x8, addend: 0x0, symName: __RINvMsW_NtNtNtCsiTraAjBDcu4_5alloc11collections5btree4nodeINtB6_6HandleINtB6_7NodeRefNtNtB6_6marker3MutNtNtBc_6string6StringNtNtB8_7set_val9SetValZSTNtB1n_8InternalENtB1n_2KVE5splitNtNtBc_5alloc6GlobalECs9PzovR4aYST_14thiserror_impl, symObjAddr: 0x5B60, symBinAddr: 0x67B8, symSize: 0x248 }
  - { offset: 0x2545F, size: 0x8, addend: 0x0, symName: __RINvMsW_NtNtNtCsiTraAjBDcu4_5alloc11collections5btree4nodeINtB6_6HandleINtB6_7NodeRefNtNtB6_6marker3MutNtNtBc_6string6StringTINtNtB8_3set8BTreeSetB1D_EINtNtCsc29TF2YcYso_3syn10punctuated10PunctuatedNtCshnvkK9b4wzu_11proc_macro211TokenStreamNtNtB2u_5token4PlusEENtB1n_8InternalENtB1n_2KVE5splitNtNtBc_5alloc6GlobalECs9PzovR4aYST_14thiserror_impl, symObjAddr: 0x5DA8, symBinAddr: 0x6A00, symSize: 0x268 }
  - { offset: 0x258B3, size: 0x8, addend: 0x0, symName: __RINvMsW_NtNtNtCsiTraAjBDcu4_5alloc11collections5btree4nodeINtB6_6HandleINtB6_7NodeRefNtNtB6_6marker3MutTjNtNtCs9PzovR4aYST_14thiserror_impl4attr5TraitENtNtB8_7set_val9SetValZSTNtB1n_8InternalENtB1n_2KVE5splitNtNtBc_5alloc6GlobalEB1J_, symObjAddr: 0x6010, symBinAddr: 0x6C68, symSize: 0x244 }
  - { offset: 0x25C42, size: 0x8, addend: 0x0, symName: __RINvMs_NtNtNtCsiTraAjBDcu4_5alloc11collections5btree4nodeINtB5_12InternalNodeNtCshnvkK9b4wzu_11proc_macro25IdentNtNtB7_7set_val9SetValZSTE3newNtNtBb_5alloc6GlobalECs9PzovR4aYST_14thiserror_impl, symObjAddr: 0x6254, symBinAddr: 0x6EAC, symSize: 0x70 }
  - { offset: 0x25E5A, size: 0x8, addend: 0x0, symName: __RINvMs_NtNtNtCsiTraAjBDcu4_5alloc11collections5btree4nodeINtB5_12InternalNodeNtNtBb_6string6StringNtNtB7_7set_val9SetValZSTE3newNtNtBb_5alloc6GlobalECs9PzovR4aYST_14thiserror_impl, symObjAddr: 0x62C4, symBinAddr: 0x6F1C, symSize: 0x70 }
  - { offset: 0x26072, size: 0x8, addend: 0x0, symName: __RINvMs_NtNtNtCsiTraAjBDcu4_5alloc11collections5btree4nodeINtB5_12InternalNodeNtNtBb_6string6StringTINtNtB7_3set8BTreeSetB1d_EINtNtCsc29TF2YcYso_3syn10punctuated10PunctuatedNtCshnvkK9b4wzu_11proc_macro211TokenStreamNtNtB24_5token4PlusEEE3newNtNtBb_5alloc6GlobalECs9PzovR4aYST_14thiserror_impl, symObjAddr: 0x6334, symBinAddr: 0x6F8C, symSize: 0x70 }
  - { offset: 0x2628A, size: 0x8, addend: 0x0, symName: __RINvMs_NtNtNtCsiTraAjBDcu4_5alloc11collections5btree4nodeINtB5_12InternalNodeRNtCshnvkK9b4wzu_11proc_macro25IdentNtNtB7_7set_val9SetValZSTE3newNtNtBb_5alloc6GlobalECs9PzovR4aYST_14thiserror_impl, symObjAddr: 0x63A4, symBinAddr: 0x6FFC, symSize: 0x70 }
  - { offset: 0x264A2, size: 0x8, addend: 0x0, symName: __RINvMs_NtNtNtCsiTraAjBDcu4_5alloc11collections5btree4nodeINtB5_12InternalNodeTjNtNtCs9PzovR4aYST_14thiserror_impl4attr5TraitENtNtB7_7set_val9SetValZSTE3newNtNtBb_5alloc6GlobalEB1j_, symObjAddr: 0x6414, symBinAddr: 0x706C, symSize: 0x70 }
  - { offset: 0x2679B, size: 0x8, addend: 0x0, symName: __RINvMs_NtNtNtCsiTraAjBDcu4_5alloc11collections5btree6searchINtNtB7_4node7NodeRefNtNtBY_6marker3MutNtCshnvkK9b4wzu_11proc_macro25IdentNtNtB7_7set_val9SetValZSTNtB1i_14LeafOrInternalE11search_treeB1y_ECs9PzovR4aYST_14thiserror_impl, symObjAddr: 0x6484, symBinAddr: 0x70DC, symSize: 0x260 }
  - { offset: 0x26AF0, size: 0x8, addend: 0x0, symName: __RINvMs_NtNtNtCsiTraAjBDcu4_5alloc11collections5btree6searchINtNtB7_4node7NodeRefNtNtBY_6marker3MutNtNtBb_6string6StringNtNtB7_7set_val9SetValZSTNtB1i_14LeafOrInternalE11search_treeB1y_ECs9PzovR4aYST_14thiserror_impl, symObjAddr: 0x66E4, symBinAddr: 0x733C, symSize: 0x260 }
  - { offset: 0x26E45, size: 0x8, addend: 0x0, symName: __RINvMs_NtNtNtCsiTraAjBDcu4_5alloc11collections5btree6searchINtNtB7_4node7NodeRefNtNtBY_6marker3MutNtNtBb_6string6StringTINtNtB7_3set8BTreeSetB1y_EINtNtCsc29TF2YcYso_3syn10punctuated10PunctuatedNtCshnvkK9b4wzu_11proc_macro211TokenStreamNtNtB2p_5token4PlusEENtB1i_14LeafOrInternalE11search_treeB1y_ECs9PzovR4aYST_14thiserror_impl, symObjAddr: 0x6944, symBinAddr: 0x759C, symSize: 0x260 }
  - { offset: 0x2719A, size: 0x8, addend: 0x0, symName: __RINvMs_NtNtNtCsiTraAjBDcu4_5alloc11collections5btree6searchINtNtB7_4node7NodeRefNtNtBY_6marker3MutTjNtNtCs9PzovR4aYST_14thiserror_impl4attr5TraitENtNtB7_7set_val9SetValZSTNtB1i_14LeafOrInternalE11search_treeB1y_EB1E_, symObjAddr: 0x6BA4, symBinAddr: 0x77FC, symSize: 0x260 }
  - { offset: 0x2752B, size: 0x8, addend: 0x0, symName: __RINvMs_NtNtNtCsiTraAjBDcu4_5alloc11collections5btree6searchINtNtB7_4node7NodeRefNtNtBY_6marker5ImmutNtNtBb_6string6StringTINtNtB7_3set8BTreeSetB1A_EINtNtCsc29TF2YcYso_3syn10punctuated10PunctuatedNtCshnvkK9b4wzu_11proc_macro211TokenStreamNtNtB2r_5token4PlusEENtB1i_14LeafOrInternalE11search_treeB1A_ECs9PzovR4aYST_14thiserror_impl, symObjAddr: 0x6E04, symBinAddr: 0x7A5C, symSize: 0x260 }
  - { offset: 0x27880, size: 0x8, addend: 0x0, symName: __RINvMs_NtNtNtCsiTraAjBDcu4_5alloc11collections5btree6searchINtNtB7_4node7NodeRefNtNtBY_6marker5ImmutRNtCshnvkK9b4wzu_11proc_macro25IdentNtNtB7_7set_val9SetValZSTNtB1i_14LeafOrInternalE11search_treeB1B_ECs9PzovR4aYST_14thiserror_impl, symObjAddr: 0x7064, symBinAddr: 0x7CBC, symSize: 0x260 }
  - { offset: 0x27B61, size: 0x8, addend: 0x0, symName: __RINvMsh_NtNtNtCsiTraAjBDcu4_5alloc11collections5btree4nodeINtB6_7NodeRefNtNtB6_6marker5DyingNtCshnvkK9b4wzu_11proc_macro25IdentNtNtB8_7set_val9SetValZSTNtB1a_14LeafOrInternalE21deallocate_and_ascendNtNtBc_5alloc6GlobalECs9PzovR4aYST_14thiserror_impl, symObjAddr: 0x72C4, symBinAddr: 0x7F1C, symSize: 0x188 }
  - { offset: 0x27DD4, size: 0x8, addend: 0x0, symName: __RINvMsh_NtNtNtCsiTraAjBDcu4_5alloc11collections5btree4nodeINtB6_7NodeRefNtNtB6_6marker5DyingNtNtBc_6string6StringNtNtB8_7set_val9SetValZSTNtB1a_14LeafOrInternalE21deallocate_and_ascendNtNtBc_5alloc6GlobalECs9PzovR4aYST_14thiserror_impl, symObjAddr: 0x744C, symBinAddr: 0x80A4, symSize: 0x188 }
  - { offset: 0x28047, size: 0x8, addend: 0x0, symName: __RINvMsh_NtNtNtCsiTraAjBDcu4_5alloc11collections5btree4nodeINtB6_7NodeRefNtNtB6_6marker5DyingNtNtBc_6string6StringTINtNtB8_3set8BTreeSetB1s_EINtNtCsc29TF2YcYso_3syn10punctuated10PunctuatedNtCshnvkK9b4wzu_11proc_macro211TokenStreamNtNtB2j_5token4PlusEENtB1a_14LeafOrInternalE21deallocate_and_ascendNtNtBc_5alloc6GlobalECs9PzovR4aYST_14thiserror_impl, symObjAddr: 0x75D4, symBinAddr: 0x822C, symSize: 0x188 }
  - { offset: 0x282BA, size: 0x8, addend: 0x0, symName: __RINvMsh_NtNtNtCsiTraAjBDcu4_5alloc11collections5btree4nodeINtB6_7NodeRefNtNtB6_6marker5DyingRNtCshnvkK9b4wzu_11proc_macro25IdentNtNtB8_7set_val9SetValZSTNtB1a_14LeafOrInternalE21deallocate_and_ascendNtNtBc_5alloc6GlobalECs9PzovR4aYST_14thiserror_impl, symObjAddr: 0x775C, symBinAddr: 0x83B4, symSize: 0x188 }
  - { offset: 0x2852D, size: 0x8, addend: 0x0, symName: __RINvMsh_NtNtNtCsiTraAjBDcu4_5alloc11collections5btree4nodeINtB6_7NodeRefNtNtB6_6marker5DyingTjNtNtCs9PzovR4aYST_14thiserror_impl4attr5TraitENtNtB8_7set_val9SetValZSTNtB1a_14LeafOrInternalE21deallocate_and_ascendNtNtBc_5alloc6GlobalEB1y_, symObjAddr: 0x78E4, symBinAddr: 0x853C, symSize: 0x188 }
  - { offset: 0x28773, size: 0x8, addend: 0x0, symName: __RINvMsj_NtNtNtCsiTraAjBDcu4_5alloc11collections5btree8navigateINtNtB8_4node6HandleINtB11_7NodeRefNtNtB11_6marker5DyingNtCshnvkK9b4wzu_11proc_macro25IdentNtNtB8_7set_val9SetValZSTNtB1z_4LeafENtB1z_4EdgeE16deallocating_endNtNtBc_5alloc6GlobalECs9PzovR4aYST_14thiserror_impl, symObjAddr: 0x7A6C, symBinAddr: 0x86C4, symSize: 0xD4 }
  - { offset: 0x289E7, size: 0x8, addend: 0x0, symName: __RINvMsj_NtNtNtCsiTraAjBDcu4_5alloc11collections5btree8navigateINtNtB8_4node6HandleINtB11_7NodeRefNtNtB11_6marker5DyingNtCshnvkK9b4wzu_11proc_macro25IdentNtNtB8_7set_val9SetValZSTNtB1z_4LeafENtB1z_4EdgeE17deallocating_nextNtNtBc_5alloc6GlobalECs9PzovR4aYST_14thiserror_impl, symObjAddr: 0x7B40, symBinAddr: 0x8798, symSize: 0x254 }
  - { offset: 0x28C1B, size: 0x8, addend: 0x0, symName: __RINvMsj_NtNtNtCsiTraAjBDcu4_5alloc11collections5btree8navigateINtNtB8_4node6HandleINtB11_7NodeRefNtNtB11_6marker5DyingNtNtBc_6string6StringNtNtB8_7set_val9SetValZSTNtB1z_4LeafENtB1z_4EdgeE16deallocating_endNtNtBc_5alloc6GlobalECs9PzovR4aYST_14thiserror_impl, symObjAddr: 0x7D94, symBinAddr: 0x89EC, symSize: 0xD4 }
  - { offset: 0x28E8F, size: 0x8, addend: 0x0, symName: __RINvMsj_NtNtNtCsiTraAjBDcu4_5alloc11collections5btree8navigateINtNtB8_4node6HandleINtB11_7NodeRefNtNtB11_6marker5DyingNtNtBc_6string6StringNtNtB8_7set_val9SetValZSTNtB1z_4LeafENtB1z_4EdgeE17deallocating_nextNtNtBc_5alloc6GlobalECs9PzovR4aYST_14thiserror_impl, symObjAddr: 0x7E68, symBinAddr: 0x8AC0, symSize: 0x254 }
  - { offset: 0x290C3, size: 0x8, addend: 0x0, symName: __RINvMsj_NtNtNtCsiTraAjBDcu4_5alloc11collections5btree8navigateINtNtB8_4node6HandleINtB11_7NodeRefNtNtB11_6marker5DyingNtNtBc_6string6StringTINtNtB8_3set8BTreeSetB1S_EINtNtCsc29TF2YcYso_3syn10punctuated10PunctuatedNtCshnvkK9b4wzu_11proc_macro211TokenStreamNtNtB2J_5token4PlusEENtB1z_4LeafENtB1z_4EdgeE16deallocating_endNtNtBc_5alloc6GlobalECs9PzovR4aYST_14thiserror_impl, symObjAddr: 0x80BC, symBinAddr: 0x8D14, symSize: 0xD4 }
  - { offset: 0x29337, size: 0x8, addend: 0x0, symName: __RINvMsj_NtNtNtCsiTraAjBDcu4_5alloc11collections5btree8navigateINtNtB8_4node6HandleINtB11_7NodeRefNtNtB11_6marker5DyingNtNtBc_6string6StringTINtNtB8_3set8BTreeSetB1S_EINtNtCsc29TF2YcYso_3syn10punctuated10PunctuatedNtCshnvkK9b4wzu_11proc_macro211TokenStreamNtNtB2J_5token4PlusEENtB1z_4LeafENtB1z_4EdgeE17deallocating_nextNtNtBc_5alloc6GlobalECs9PzovR4aYST_14thiserror_impl, symObjAddr: 0x8190, symBinAddr: 0x8DE8, symSize: 0x254 }
  - { offset: 0x2956B, size: 0x8, addend: 0x0, symName: __RINvMsj_NtNtNtCsiTraAjBDcu4_5alloc11collections5btree8navigateINtNtB8_4node6HandleINtB11_7NodeRefNtNtB11_6marker5DyingRNtCshnvkK9b4wzu_11proc_macro25IdentNtNtB8_7set_val9SetValZSTNtB1z_4LeafENtB1z_4EdgeE16deallocating_endNtNtBc_5alloc6GlobalECs9PzovR4aYST_14thiserror_impl, symObjAddr: 0x83E4, symBinAddr: 0x903C, symSize: 0xD4 }
  - { offset: 0x297DF, size: 0x8, addend: 0x0, symName: __RINvMsj_NtNtNtCsiTraAjBDcu4_5alloc11collections5btree8navigateINtNtB8_4node6HandleINtB11_7NodeRefNtNtB11_6marker5DyingRNtCshnvkK9b4wzu_11proc_macro25IdentNtNtB8_7set_val9SetValZSTNtB1z_4LeafENtB1z_4EdgeE17deallocating_nextNtNtBc_5alloc6GlobalECs9PzovR4aYST_14thiserror_impl, symObjAddr: 0x84B8, symBinAddr: 0x9110, symSize: 0x254 }
  - { offset: 0x29A13, size: 0x8, addend: 0x0, symName: __RINvMsj_NtNtNtCsiTraAjBDcu4_5alloc11collections5btree8navigateINtNtB8_4node6HandleINtB11_7NodeRefNtNtB11_6marker5DyingTjNtNtCs9PzovR4aYST_14thiserror_impl4attr5TraitENtNtB8_7set_val9SetValZSTNtB1z_4LeafENtB1z_4EdgeE16deallocating_endNtNtBc_5alloc6GlobalEB1Y_, symObjAddr: 0x870C, symBinAddr: 0x9364, symSize: 0xD4 }
  - { offset: 0x29C87, size: 0x8, addend: 0x0, symName: __RINvMsj_NtNtNtCsiTraAjBDcu4_5alloc11collections5btree8navigateINtNtB8_4node6HandleINtB11_7NodeRefNtNtB11_6marker5DyingTjNtNtCs9PzovR4aYST_14thiserror_impl4attr5TraitENtNtB8_7set_val9SetValZSTNtB1z_4LeafENtB1z_4EdgeE17deallocating_nextNtNtBc_5alloc6GlobalEB1Y_, symObjAddr: 0x87E0, symBinAddr: 0x9438, symSize: 0x254 }
  - { offset: 0x29ED2, size: 0x8, addend: 0x0, symName: __RINvMsp_NtNtNtCsiTraAjBDcu4_5alloc11collections5btree4nodeINtB6_7NodeRefNtNtB6_6marker3MutNtCshnvkK9b4wzu_11proc_macro25IdentNtNtB8_7set_val9SetValZSTNtB1a_8InternalE30correct_childrens_parent_linksINtNtNtCsaNl6UpbT7bw_4core3ops5range14RangeInclusivejEECs9PzovR4aYST_14thiserror_impl, symObjAddr: 0x8A34, symBinAddr: 0x968C, symSize: 0xB4 }
  - { offset: 0x2A009, size: 0x8, addend: 0x0, symName: __RINvMsp_NtNtNtCsiTraAjBDcu4_5alloc11collections5btree4nodeINtB6_7NodeRefNtNtB6_6marker3MutNtCshnvkK9b4wzu_11proc_macro25IdentNtNtB8_7set_val9SetValZSTNtB1a_8InternalE30correct_childrens_parent_linksINtNtNtCsaNl6UpbT7bw_4core3ops5range5RangejEECs9PzovR4aYST_14thiserror_impl, symObjAddr: 0x8AE8, symBinAddr: 0x9740, symSize: 0xB4 }
  - { offset: 0x2A13F, size: 0x8, addend: 0x0, symName: __RINvMsp_NtNtNtCsiTraAjBDcu4_5alloc11collections5btree4nodeINtB6_7NodeRefNtNtB6_6marker3MutNtNtBc_6string6StringNtNtB8_7set_val9SetValZSTNtB1a_8InternalE30correct_childrens_parent_linksINtNtNtCsaNl6UpbT7bw_4core3ops5range14RangeInclusivejEECs9PzovR4aYST_14thiserror_impl, symObjAddr: 0x8B9C, symBinAddr: 0x97F4, symSize: 0xB4 }
  - { offset: 0x2A276, size: 0x8, addend: 0x0, symName: __RINvMsp_NtNtNtCsiTraAjBDcu4_5alloc11collections5btree4nodeINtB6_7NodeRefNtNtB6_6marker3MutNtNtBc_6string6StringNtNtB8_7set_val9SetValZSTNtB1a_8InternalE30correct_childrens_parent_linksINtNtNtCsaNl6UpbT7bw_4core3ops5range5RangejEECs9PzovR4aYST_14thiserror_impl, symObjAddr: 0x8C50, symBinAddr: 0x98A8, symSize: 0xB4 }
  - { offset: 0x2A3AC, size: 0x8, addend: 0x0, symName: __RINvMsp_NtNtNtCsiTraAjBDcu4_5alloc11collections5btree4nodeINtB6_7NodeRefNtNtB6_6marker3MutNtNtBc_6string6StringTINtNtB8_3set8BTreeSetB1q_EINtNtCsc29TF2YcYso_3syn10punctuated10PunctuatedNtCshnvkK9b4wzu_11proc_macro211TokenStreamNtNtB2h_5token4PlusEENtB1a_8InternalE30correct_childrens_parent_linksINtNtNtCsaNl6UpbT7bw_4core3ops5range14RangeInclusivejEECs9PzovR4aYST_14thiserror_impl, symObjAddr: 0x8D04, symBinAddr: 0x995C, symSize: 0xB4 }
  - { offset: 0x2A4E3, size: 0x8, addend: 0x0, symName: __RINvMsp_NtNtNtCsiTraAjBDcu4_5alloc11collections5btree4nodeINtB6_7NodeRefNtNtB6_6marker3MutNtNtBc_6string6StringTINtNtB8_3set8BTreeSetB1q_EINtNtCsc29TF2YcYso_3syn10punctuated10PunctuatedNtCshnvkK9b4wzu_11proc_macro211TokenStreamNtNtB2h_5token4PlusEENtB1a_8InternalE30correct_childrens_parent_linksINtNtNtCsaNl6UpbT7bw_4core3ops5range5RangejEECs9PzovR4aYST_14thiserror_impl, symObjAddr: 0x8DB8, symBinAddr: 0x9A10, symSize: 0xB4 }
  - { offset: 0x2A619, size: 0x8, addend: 0x0, symName: __RINvMsp_NtNtNtCsiTraAjBDcu4_5alloc11collections5btree4nodeINtB6_7NodeRefNtNtB6_6marker3MutRNtCshnvkK9b4wzu_11proc_macro25IdentNtNtB8_7set_val9SetValZSTNtB1a_8InternalE30correct_childrens_parent_linksINtNtNtCsaNl6UpbT7bw_4core3ops5range14RangeInclusivejEECs9PzovR4aYST_14thiserror_impl, symObjAddr: 0x8E6C, symBinAddr: 0x9AC4, symSize: 0xB4 }
  - { offset: 0x2A750, size: 0x8, addend: 0x0, symName: __RINvMsp_NtNtNtCsiTraAjBDcu4_5alloc11collections5btree4nodeINtB6_7NodeRefNtNtB6_6marker3MutRNtCshnvkK9b4wzu_11proc_macro25IdentNtNtB8_7set_val9SetValZSTNtB1a_8InternalE30correct_childrens_parent_linksINtNtNtCsaNl6UpbT7bw_4core3ops5range5RangejEECs9PzovR4aYST_14thiserror_impl, symObjAddr: 0x8F20, symBinAddr: 0x9B78, symSize: 0xB4 }
  - { offset: 0x2A886, size: 0x8, addend: 0x0, symName: __RINvMsp_NtNtNtCsiTraAjBDcu4_5alloc11collections5btree4nodeINtB6_7NodeRefNtNtB6_6marker3MutTjNtNtCs9PzovR4aYST_14thiserror_impl4attr5TraitENtNtB8_7set_val9SetValZSTNtB1a_8InternalE30correct_childrens_parent_linksINtNtNtCsaNl6UpbT7bw_4core3ops5range14RangeInclusivejEEB1w_, symObjAddr: 0x8FD4, symBinAddr: 0x9C2C, symSize: 0xB4 }
  - { offset: 0x2A9BD, size: 0x8, addend: 0x0, symName: __RINvMsp_NtNtNtCsiTraAjBDcu4_5alloc11collections5btree4nodeINtB6_7NodeRefNtNtB6_6marker3MutTjNtNtCs9PzovR4aYST_14thiserror_impl4attr5TraitENtNtB8_7set_val9SetValZSTNtB1a_8InternalE30correct_childrens_parent_linksINtNtNtCsaNl6UpbT7bw_4core3ops5range5RangejEEB1w_, symObjAddr: 0x9088, symBinAddr: 0x9CE0, symSize: 0xB4 }
  - { offset: 0x2B153, size: 0x8, addend: 0x0, symName: __RNvMs0_NtNtNtCsiTraAjBDcu4_5alloc11collections5btree3fixINtNtB7_4node7NodeRefNtNtBV_6marker5OwnedRNtCshnvkK9b4wzu_11proc_macro25IdentNtNtB7_7set_val9SetValZSTNtB1f_14LeafOrInternalE29fix_right_border_of_plentifulCs9PzovR4aYST_14thiserror_impl, symObjAddr: 0xA688, symBinAddr: 0xB2E0, symSize: 0x194 }
  - { offset: 0x2B8C1, size: 0x8, addend: 0x0, symName: __RNvMs10_NtNtNtCsiTraAjBDcu4_5alloc11collections5btree4nodeINtB6_16BalancingContextRNtCshnvkK9b4wzu_11proc_macro25IdentNtNtB8_7set_val9SetValZSTE15bulk_steal_leftCs9PzovR4aYST_14thiserror_impl, symObjAddr: 0xA81C, symBinAddr: 0xB474, symSize: 0x968 }
  - { offset: 0x2CCDA, size: 0x8, addend: 0x0, symName: __RNvMsJ_NtNtNtCsiTraAjBDcu4_5alloc11collections5btree4nodeINtB5_6HandleINtB5_7NodeRefNtNtB5_6marker3MutNtCshnvkK9b4wzu_11proc_macro25IdentNtNtB7_7set_val9SetValZSTNtB1m_4LeafENtB1m_4EdgeE10insert_fitCs9PzovR4aYST_14thiserror_impl, symObjAddr: 0xB184, symBinAddr: 0xBDDC, symSize: 0x1F4 }
  - { offset: 0x2D224, size: 0x8, addend: 0x0, symName: __RNvMsJ_NtNtNtCsiTraAjBDcu4_5alloc11collections5btree4nodeINtB5_6HandleINtB5_7NodeRefNtNtB5_6marker3MutNtNtBb_6string6StringNtNtB7_7set_val9SetValZSTNtB1m_4LeafENtB1m_4EdgeE10insert_fitCs9PzovR4aYST_14thiserror_impl, symObjAddr: 0xB378, symBinAddr: 0xBFD0, symSize: 0x1F4 }
  - { offset: 0x2D76E, size: 0x8, addend: 0x0, symName: __RNvMsJ_NtNtNtCsiTraAjBDcu4_5alloc11collections5btree4nodeINtB5_6HandleINtB5_7NodeRefNtNtB5_6marker3MutNtNtBb_6string6StringTINtNtB7_3set8BTreeSetB1C_EINtNtCsc29TF2YcYso_3syn10punctuated10PunctuatedNtCshnvkK9b4wzu_11proc_macro211TokenStreamNtNtB2t_5token4PlusEENtB1m_4LeafENtB1m_4EdgeE10insert_fitCs9PzovR4aYST_14thiserror_impl, symObjAddr: 0xB56C, symBinAddr: 0xC1C4, symSize: 0x22C }
  - { offset: 0x2DCB8, size: 0x8, addend: 0x0, symName: __RNvMsJ_NtNtNtCsiTraAjBDcu4_5alloc11collections5btree4nodeINtB5_6HandleINtB5_7NodeRefNtNtB5_6marker3MutTjNtNtCs9PzovR4aYST_14thiserror_impl4attr5TraitENtNtB7_7set_val9SetValZSTNtB1m_4LeafENtB1m_4EdgeE10insert_fitB1I_, symObjAddr: 0xB798, symBinAddr: 0xC3F0, symSize: 0x1F0 }
  - { offset: 0x2E127, size: 0x8, addend: 0x0, symName: __RNvMsL_NtNtNtCsiTraAjBDcu4_5alloc11collections5btree4nodeINtB5_6HandleINtB5_7NodeRefNtNtB5_6marker3MutNtCshnvkK9b4wzu_11proc_macro25IdentNtNtB7_7set_val9SetValZSTNtB1m_8InternalENtB1m_4EdgeE19correct_parent_linkCs9PzovR4aYST_14thiserror_impl, symObjAddr: 0xB988, symBinAddr: 0xC5E0, symSize: 0xAC }
  - { offset: 0x2E355, size: 0x8, addend: 0x0, symName: __RNvMsL_NtNtNtCsiTraAjBDcu4_5alloc11collections5btree4nodeINtB5_6HandleINtB5_7NodeRefNtNtB5_6marker3MutNtNtBb_6string6StringNtNtB7_7set_val9SetValZSTNtB1m_8InternalENtB1m_4EdgeE19correct_parent_linkCs9PzovR4aYST_14thiserror_impl, symObjAddr: 0xBA34, symBinAddr: 0xC68C, symSize: 0xAC }
  - { offset: 0x2E583, size: 0x8, addend: 0x0, symName: __RNvMsL_NtNtNtCsiTraAjBDcu4_5alloc11collections5btree4nodeINtB5_6HandleINtB5_7NodeRefNtNtB5_6marker3MutNtNtBb_6string6StringTINtNtB7_3set8BTreeSetB1C_EINtNtCsc29TF2YcYso_3syn10punctuated10PunctuatedNtCshnvkK9b4wzu_11proc_macro211TokenStreamNtNtB2t_5token4PlusEENtB1m_8InternalENtB1m_4EdgeE19correct_parent_linkCs9PzovR4aYST_14thiserror_impl, symObjAddr: 0xBAE0, symBinAddr: 0xC738, symSize: 0xAC }
  - { offset: 0x2E7A4, size: 0x8, addend: 0x0, symName: __RNvMsL_NtNtNtCsiTraAjBDcu4_5alloc11collections5btree4nodeINtB5_6HandleINtB5_7NodeRefNtNtB5_6marker3MutRNtCshnvkK9b4wzu_11proc_macro25IdentNtNtB7_7set_val9SetValZSTNtB1m_8InternalENtB1m_4EdgeE19correct_parent_linkCs9PzovR4aYST_14thiserror_impl, symObjAddr: 0xBB8C, symBinAddr: 0xC7E4, symSize: 0xAC }
  - { offset: 0x2E9D2, size: 0x8, addend: 0x0, symName: __RNvMsL_NtNtNtCsiTraAjBDcu4_5alloc11collections5btree4nodeINtB5_6HandleINtB5_7NodeRefNtNtB5_6marker3MutTjNtNtCs9PzovR4aYST_14thiserror_impl4attr5TraitENtNtB7_7set_val9SetValZSTNtB1m_8InternalENtB1m_4EdgeE19correct_parent_linkB1I_, symObjAddr: 0xBC38, symBinAddr: 0xC890, symSize: 0xAC }
  - { offset: 0x2ED1E, size: 0x8, addend: 0x0, symName: __RNvMsM_NtNtNtCsiTraAjBDcu4_5alloc11collections5btree4nodeINtB5_6HandleINtB5_7NodeRefNtNtB5_6marker3MutNtCshnvkK9b4wzu_11proc_macro25IdentNtNtB7_7set_val9SetValZSTNtB1m_8InternalENtB1m_4EdgeE10insert_fitCs9PzovR4aYST_14thiserror_impl, symObjAddr: 0xBCE4, symBinAddr: 0xC93C, symSize: 0x294 }
  - { offset: 0x2F3A3, size: 0x8, addend: 0x0, symName: __RNvMsM_NtNtNtCsiTraAjBDcu4_5alloc11collections5btree4nodeINtB5_6HandleINtB5_7NodeRefNtNtB5_6marker3MutNtNtBb_6string6StringNtNtB7_7set_val9SetValZSTNtB1m_8InternalENtB1m_4EdgeE10insert_fitCs9PzovR4aYST_14thiserror_impl, symObjAddr: 0xBF78, symBinAddr: 0xCBD0, symSize: 0x294 }
  - { offset: 0x2FA28, size: 0x8, addend: 0x0, symName: __RNvMsM_NtNtNtCsiTraAjBDcu4_5alloc11collections5btree4nodeINtB5_6HandleINtB5_7NodeRefNtNtB5_6marker3MutNtNtBb_6string6StringTINtNtB7_3set8BTreeSetB1C_EINtNtCsc29TF2YcYso_3syn10punctuated10PunctuatedNtCshnvkK9b4wzu_11proc_macro211TokenStreamNtNtB2t_5token4PlusEENtB1m_8InternalENtB1m_4EdgeE10insert_fitCs9PzovR4aYST_14thiserror_impl, symObjAddr: 0xC20C, symBinAddr: 0xCE64, symSize: 0x2D0 }
  - { offset: 0x300AD, size: 0x8, addend: 0x0, symName: __RNvMsM_NtNtNtCsiTraAjBDcu4_5alloc11collections5btree4nodeINtB5_6HandleINtB5_7NodeRefNtNtB5_6marker3MutTjNtNtCs9PzovR4aYST_14thiserror_impl4attr5TraitENtNtB7_7set_val9SetValZSTNtB1m_8InternalENtB1m_4EdgeE10insert_fitB1I_, symObjAddr: 0xC4DC, symBinAddr: 0xD134, symSize: 0x274 }
  - { offset: 0x305C8, size: 0x8, addend: 0x0, symName: __RNvMsO_NtNtNtCsiTraAjBDcu4_5alloc11collections5btree4nodeINtB5_6HandleINtB5_7NodeRefNtNtB5_6marker3MutNtCshnvkK9b4wzu_11proc_macro25IdentNtNtB7_7set_val9SetValZSTNtB1m_8InternalENtB1m_4EdgeE7descendCs9PzovR4aYST_14thiserror_impl, symObjAddr: 0xC750, symBinAddr: 0xD3A8, symSize: 0x9C }
  - { offset: 0x307B3, size: 0x8, addend: 0x0, symName: __RNvMsO_NtNtNtCsiTraAjBDcu4_5alloc11collections5btree4nodeINtB5_6HandleINtB5_7NodeRefNtNtB5_6marker3MutNtNtBb_6string6StringNtNtB7_7set_val9SetValZSTNtB1m_8InternalENtB1m_4EdgeE7descendCs9PzovR4aYST_14thiserror_impl, symObjAddr: 0xC7EC, symBinAddr: 0xD444, symSize: 0x9C }
  - { offset: 0x3099E, size: 0x8, addend: 0x0, symName: __RNvMsO_NtNtNtCsiTraAjBDcu4_5alloc11collections5btree4nodeINtB5_6HandleINtB5_7NodeRefNtNtB5_6marker3MutNtNtBb_6string6StringTINtNtB7_3set8BTreeSetB1C_EINtNtCsc29TF2YcYso_3syn10punctuated10PunctuatedNtCshnvkK9b4wzu_11proc_macro211TokenStreamNtNtB2t_5token4PlusEENtB1m_8InternalENtB1m_4EdgeE7descendCs9PzovR4aYST_14thiserror_impl, symObjAddr: 0xC888, symBinAddr: 0xD4E0, symSize: 0x9C }
  - { offset: 0x30B89, size: 0x8, addend: 0x0, symName: __RNvMsO_NtNtNtCsiTraAjBDcu4_5alloc11collections5btree4nodeINtB5_6HandleINtB5_7NodeRefNtNtB5_6marker3MutRNtCshnvkK9b4wzu_11proc_macro25IdentNtNtB7_7set_val9SetValZSTNtB1m_8InternalENtB1m_4EdgeE7descendCs9PzovR4aYST_14thiserror_impl, symObjAddr: 0xC924, symBinAddr: 0xD57C, symSize: 0x9C }
  - { offset: 0x30D74, size: 0x8, addend: 0x0, symName: __RNvMsO_NtNtNtCsiTraAjBDcu4_5alloc11collections5btree4nodeINtB5_6HandleINtB5_7NodeRefNtNtB5_6marker3MutTjNtNtCs9PzovR4aYST_14thiserror_impl4attr5TraitENtNtB7_7set_val9SetValZSTNtB1m_8InternalENtB1m_4EdgeE7descendB1I_, symObjAddr: 0xC9C0, symBinAddr: 0xD618, symSize: 0x9C }
  - { offset: 0x30F34, size: 0x8, addend: 0x0, symName: __RNvMsO_NtNtNtCsiTraAjBDcu4_5alloc11collections5btree4nodeINtB5_6HandleINtB5_7NodeRefNtNtB5_6marker5DyingNtCshnvkK9b4wzu_11proc_macro25IdentNtNtB7_7set_val9SetValZSTNtB1m_8InternalENtB1m_4EdgeE7descendCs9PzovR4aYST_14thiserror_impl, symObjAddr: 0xCA5C, symBinAddr: 0xD6B4, symSize: 0x9C }
  - { offset: 0x310F4, size: 0x8, addend: 0x0, symName: __RNvMsO_NtNtNtCsiTraAjBDcu4_5alloc11collections5btree4nodeINtB5_6HandleINtB5_7NodeRefNtNtB5_6marker5DyingNtNtBb_6string6StringNtNtB7_7set_val9SetValZSTNtB1m_8InternalENtB1m_4EdgeE7descendCs9PzovR4aYST_14thiserror_impl, symObjAddr: 0xCAF8, symBinAddr: 0xD750, symSize: 0x9C }
  - { offset: 0x312B4, size: 0x8, addend: 0x0, symName: __RNvMsO_NtNtNtCsiTraAjBDcu4_5alloc11collections5btree4nodeINtB5_6HandleINtB5_7NodeRefNtNtB5_6marker5DyingNtNtBb_6string6StringTINtNtB7_3set8BTreeSetB1E_EINtNtCsc29TF2YcYso_3syn10punctuated10PunctuatedNtCshnvkK9b4wzu_11proc_macro211TokenStreamNtNtB2v_5token4PlusEENtB1m_8InternalENtB1m_4EdgeE7descendCs9PzovR4aYST_14thiserror_impl, symObjAddr: 0xCB94, symBinAddr: 0xD7EC, symSize: 0x9C }
  - { offset: 0x31474, size: 0x8, addend: 0x0, symName: __RNvMsO_NtNtNtCsiTraAjBDcu4_5alloc11collections5btree4nodeINtB5_6HandleINtB5_7NodeRefNtNtB5_6marker5DyingRNtCshnvkK9b4wzu_11proc_macro25IdentNtNtB7_7set_val9SetValZSTNtB1m_8InternalENtB1m_4EdgeE7descendCs9PzovR4aYST_14thiserror_impl, symObjAddr: 0xCC30, symBinAddr: 0xD888, symSize: 0x9C }
  - { offset: 0x31634, size: 0x8, addend: 0x0, symName: __RNvMsO_NtNtNtCsiTraAjBDcu4_5alloc11collections5btree4nodeINtB5_6HandleINtB5_7NodeRefNtNtB5_6marker5DyingTjNtNtCs9PzovR4aYST_14thiserror_impl4attr5TraitENtNtB7_7set_val9SetValZSTNtB1m_8InternalENtB1m_4EdgeE7descendB1K_, symObjAddr: 0xCCCC, symBinAddr: 0xD924, symSize: 0x9C }
  - { offset: 0x317F4, size: 0x8, addend: 0x0, symName: __RNvMsO_NtNtNtCsiTraAjBDcu4_5alloc11collections5btree4nodeINtB5_6HandleINtB5_7NodeRefNtNtB5_6marker5ImmutNtNtBb_6string6StringTINtNtB7_3set8BTreeSetB1E_EINtNtCsc29TF2YcYso_3syn10punctuated10PunctuatedNtCshnvkK9b4wzu_11proc_macro211TokenStreamNtNtB2v_5token4PlusEENtB1m_8InternalENtB1m_4EdgeE7descendCs9PzovR4aYST_14thiserror_impl, symObjAddr: 0xCD68, symBinAddr: 0xD9C0, symSize: 0x9C }
  - { offset: 0x319B4, size: 0x8, addend: 0x0, symName: __RNvMsO_NtNtNtCsiTraAjBDcu4_5alloc11collections5btree4nodeINtB5_6HandleINtB5_7NodeRefNtNtB5_6marker5ImmutRNtCshnvkK9b4wzu_11proc_macro25IdentNtNtB7_7set_val9SetValZSTNtB1m_8InternalENtB1m_4EdgeE7descendCs9PzovR4aYST_14thiserror_impl, symObjAddr: 0xCE04, symBinAddr: 0xDA5C, symSize: 0x9C }
  - { offset: 0x31B74, size: 0x8, addend: 0x0, symName: __RNvMsO_NtNtNtCsiTraAjBDcu4_5alloc11collections5btree4nodeINtB5_6HandleINtB5_7NodeRefNtNtB5_6marker5ImmutTjNtNtCs9PzovR4aYST_14thiserror_impl4attr5TraitENtNtB7_7set_val9SetValZSTNtB1m_8InternalENtB1m_4EdgeE7descendB1K_, symObjAddr: 0xCEA0, symBinAddr: 0xDAF8, symSize: 0x9C }
  - { offset: 0x31E42, size: 0x8, addend: 0x0, symName: __RNvMsP_NtNtNtCsiTraAjBDcu4_5alloc11collections5btree4nodeINtB5_6HandleINtB5_7NodeRefNtNtB5_6marker5ImmutNtNtBb_6string6StringTINtNtB7_3set8BTreeSetB1E_EINtNtCsc29TF2YcYso_3syn10punctuated10PunctuatedNtCshnvkK9b4wzu_11proc_macro211TokenStreamNtNtB2v_5token4PlusEENtB1m_14LeafOrInternalENtB1m_2KVE7into_kvCs9PzovR4aYST_14thiserror_impl, symObjAddr: 0xCF3C, symBinAddr: 0xDB94, symSize: 0xF4 }
  - { offset: 0x32189, size: 0x8, addend: 0x0, symName: __RNvMsP_NtNtNtCsiTraAjBDcu4_5alloc11collections5btree4nodeINtB5_6HandleINtB5_7NodeRefNtNtB5_6marker5ImmutRNtCshnvkK9b4wzu_11proc_macro25IdentNtNtB7_7set_val9SetValZSTNtB1m_14LeafOrInternalENtB1m_2KVE7into_kvCs9PzovR4aYST_14thiserror_impl, symObjAddr: 0xD030, symBinAddr: 0xDC88, symSize: 0xEC }
  - { offset: 0x324BF, size: 0x8, addend: 0x0, symName: __RNvMsP_NtNtNtCsiTraAjBDcu4_5alloc11collections5btree4nodeINtB5_6HandleINtB5_7NodeRefNtNtB5_6marker5ImmutTjNtNtCs9PzovR4aYST_14thiserror_impl4attr5TraitENtNtB7_7set_val9SetValZSTNtB1m_4LeafENtB1m_2KVE7into_kvB1K_, symObjAddr: 0xD11C, symBinAddr: 0xDD74, symSize: 0xE0 }
  - { offset: 0x327A2, size: 0x8, addend: 0x0, symName: __RNvMsP_NtNtNtCsiTraAjBDcu4_5alloc11collections5btree4nodeINtB5_6HandleINtB5_7NodeRefNtNtB5_6marker5ImmutTjNtNtCs9PzovR4aYST_14thiserror_impl4attr5TraitENtNtB7_7set_val9SetValZSTNtB1m_8InternalENtB1m_2KVE7into_kvB1K_, symObjAddr: 0xD1FC, symBinAddr: 0xDE54, symSize: 0xE0 }
  - { offset: 0x32A22, size: 0x8, addend: 0x0, symName: __RNvMsQ_NtNtNtCsiTraAjBDcu4_5alloc11collections5btree4nodeINtB5_6HandleINtB5_7NodeRefNtNtB5_6marker3MutNtCshnvkK9b4wzu_11proc_macro25IdentNtNtB7_7set_val9SetValZSTNtB1m_14LeafOrInternalENtB1m_2KVE12into_val_mutCs9PzovR4aYST_14thiserror_impl, symObjAddr: 0xD2DC, symBinAddr: 0xDF34, symSize: 0x94 }
  - { offset: 0x32B81, size: 0x8, addend: 0x0, symName: __RNvMsQ_NtNtNtCsiTraAjBDcu4_5alloc11collections5btree4nodeINtB5_6HandleINtB5_7NodeRefNtNtB5_6marker3MutNtNtBb_6string6StringNtNtB7_7set_val9SetValZSTNtB1m_14LeafOrInternalENtB1m_2KVE12into_val_mutCs9PzovR4aYST_14thiserror_impl, symObjAddr: 0xD370, symBinAddr: 0xDFC8, symSize: 0x94 }
  - { offset: 0x32CE0, size: 0x8, addend: 0x0, symName: __RNvMsQ_NtNtNtCsiTraAjBDcu4_5alloc11collections5btree4nodeINtB5_6HandleINtB5_7NodeRefNtNtB5_6marker3MutNtNtBb_6string6StringTINtNtB7_3set8BTreeSetB1C_EINtNtCsc29TF2YcYso_3syn10punctuated10PunctuatedNtCshnvkK9b4wzu_11proc_macro211TokenStreamNtNtB2t_5token4PlusEENtB1m_14LeafOrInternalENtB1m_2KVE12into_val_mutCs9PzovR4aYST_14thiserror_impl, symObjAddr: 0xD404, symBinAddr: 0xE05C, symSize: 0x94 }
  - { offset: 0x32E3F, size: 0x8, addend: 0x0, symName: __RNvMsQ_NtNtNtCsiTraAjBDcu4_5alloc11collections5btree4nodeINtB5_6HandleINtB5_7NodeRefNtNtB5_6marker3MutRNtCshnvkK9b4wzu_11proc_macro25IdentNtNtB7_7set_val9SetValZSTNtB1m_4LeafENtB1m_2KVE12into_val_mutCs9PzovR4aYST_14thiserror_impl, symObjAddr: 0xD498, symBinAddr: 0xE0F0, symSize: 0x94 }
  - { offset: 0x32F9E, size: 0x8, addend: 0x0, symName: __RNvMsQ_NtNtNtCsiTraAjBDcu4_5alloc11collections5btree4nodeINtB5_6HandleINtB5_7NodeRefNtNtB5_6marker3MutTjNtNtCs9PzovR4aYST_14thiserror_impl4attr5TraitENtNtB7_7set_val9SetValZSTNtB1m_14LeafOrInternalENtB1m_2KVE12into_val_mutB1I_, symObjAddr: 0xD52C, symBinAddr: 0xE184, symSize: 0x94 }
  - { offset: 0x330FD, size: 0x8, addend: 0x0, symName: __RNvMsQ_NtNtNtCsiTraAjBDcu4_5alloc11collections5btree4nodeINtB5_6HandleINtB5_7NodeRefNtNtB5_6marker3MutTjNtNtCs9PzovR4aYST_14thiserror_impl4attr5TraitENtNtB7_7set_val9SetValZSTNtB1m_4LeafENtB1m_2KVE12into_val_mutB1I_, symObjAddr: 0xD5C0, symBinAddr: 0xE218, symSize: 0x94 }
  - { offset: 0x332BE, size: 0x8, addend: 0x0, symName: __RNvMsS_NtNtNtCsiTraAjBDcu4_5alloc11collections5btree4nodeINtB5_6HandleINtB5_7NodeRefNtNtB5_6marker3MutNtCshnvkK9b4wzu_11proc_macro25IdentNtNtB7_7set_val9SetValZSTNtB1m_14LeafOrInternalENtB1m_2KVE6kv_mutCs9PzovR4aYST_14thiserror_impl, symObjAddr: 0xD654, symBinAddr: 0xE2AC, symSize: 0x10C }
  - { offset: 0x3354A, size: 0x8, addend: 0x0, symName: __RNvMsS_NtNtNtCsiTraAjBDcu4_5alloc11collections5btree4nodeINtB5_6HandleINtB5_7NodeRefNtNtB5_6marker3MutNtNtBb_6string6StringNtNtB7_7set_val9SetValZSTNtB1m_14LeafOrInternalENtB1m_2KVE6kv_mutCs9PzovR4aYST_14thiserror_impl, symObjAddr: 0xD760, symBinAddr: 0xE3B8, symSize: 0x10C }
  - { offset: 0x3370B, size: 0x8, addend: 0x0, symName: __RNvMsS_NtNtNtCsiTraAjBDcu4_5alloc11collections5btree4nodeINtB5_6HandleINtB5_7NodeRefNtNtB5_6marker3MutRNtCshnvkK9b4wzu_11proc_macro25IdentNtNtB7_7set_val9SetValZSTNtB1m_8InternalENtB1m_2KVE10replace_kvCs9PzovR4aYST_14thiserror_impl, symObjAddr: 0xD86C, symBinAddr: 0xE4C4, symSize: 0x78 }
  - { offset: 0x33886, size: 0x8, addend: 0x0, symName: __RNvMsS_NtNtNtCsiTraAjBDcu4_5alloc11collections5btree4nodeINtB5_6HandleINtB5_7NodeRefNtNtB5_6marker3MutRNtCshnvkK9b4wzu_11proc_macro25IdentNtNtB7_7set_val9SetValZSTNtB1m_8InternalENtB1m_2KVE6kv_mutCs9PzovR4aYST_14thiserror_impl, symObjAddr: 0xD8E4, symBinAddr: 0xE53C, symSize: 0x104 }
  - { offset: 0x33B12, size: 0x8, addend: 0x0, symName: __RNvMsS_NtNtNtCsiTraAjBDcu4_5alloc11collections5btree4nodeINtB5_6HandleINtB5_7NodeRefNtNtB5_6marker3MutTjNtNtCs9PzovR4aYST_14thiserror_impl4attr5TraitENtNtB7_7set_val9SetValZSTNtB1m_14LeafOrInternalENtB1m_2KVE6kv_mutB1I_, symObjAddr: 0xD9E8, symBinAddr: 0xE640, symSize: 0xF4 }
  - { offset: 0x33D90, size: 0x8, addend: 0x0, symName: __RNvMsT_NtNtNtCsiTraAjBDcu4_5alloc11collections5btree4nodeINtB5_6HandleINtB5_7NodeRefNtNtB5_6marker5DyingNtCshnvkK9b4wzu_11proc_macro25IdentNtNtB7_7set_val9SetValZSTNtB1m_14LeafOrInternalENtB1m_2KVE12drop_key_valCs9PzovR4aYST_14thiserror_impl, symObjAddr: 0xDADC, symBinAddr: 0xE734, symSize: 0x138 }
  - { offset: 0x3401D, size: 0x8, addend: 0x0, symName: __RNvMsT_NtNtNtCsiTraAjBDcu4_5alloc11collections5btree4nodeINtB5_6HandleINtB5_7NodeRefNtNtB5_6marker5DyingNtNtBb_6string6StringNtNtB7_7set_val9SetValZSTNtB1m_14LeafOrInternalENtB1m_2KVE12drop_key_valCs9PzovR4aYST_14thiserror_impl, symObjAddr: 0xDC14, symBinAddr: 0xE86C, symSize: 0x138 }
  - { offset: 0x342AA, size: 0x8, addend: 0x0, symName: __RNvMsT_NtNtNtCsiTraAjBDcu4_5alloc11collections5btree4nodeINtB5_6HandleINtB5_7NodeRefNtNtB5_6marker5DyingNtNtBb_6string6StringTINtNtB7_3set8BTreeSetB1E_EINtNtCsc29TF2YcYso_3syn10punctuated10PunctuatedNtCshnvkK9b4wzu_11proc_macro211TokenStreamNtNtB2v_5token4PlusEENtB1m_14LeafOrInternalENtB1m_2KVE12drop_key_valCs9PzovR4aYST_14thiserror_impl, symObjAddr: 0xDD4C, symBinAddr: 0xE9A4, symSize: 0x138 }
  - { offset: 0x3451B, size: 0x8, addend: 0x0, symName: __RNvMsT_NtNtNtCsiTraAjBDcu4_5alloc11collections5btree4nodeINtB5_6HandleINtB5_7NodeRefNtNtB5_6marker5DyingRNtCshnvkK9b4wzu_11proc_macro25IdentNtNtB7_7set_val9SetValZSTNtB1m_14LeafOrInternalENtB1m_2KVE12drop_key_valCs9PzovR4aYST_14thiserror_impl, symObjAddr: 0xDE84, symBinAddr: 0xEADC, symSize: 0x100 }
  - { offset: 0x3476E, size: 0x8, addend: 0x0, symName: __RNvMsT_NtNtNtCsiTraAjBDcu4_5alloc11collections5btree4nodeINtB5_6HandleINtB5_7NodeRefNtNtB5_6marker5DyingTjNtNtCs9PzovR4aYST_14thiserror_impl4attr5TraitENtNtB7_7set_val9SetValZSTNtB1m_14LeafOrInternalENtB1m_2KVE12drop_key_valB1K_, symObjAddr: 0xDF84, symBinAddr: 0xEBDC, symSize: 0xF0 }
  - { offset: 0x34A18, size: 0x8, addend: 0x0, symName: __RNvMsT_NtNtNtCsiTraAjBDcu4_5alloc11collections5btree4nodeINtB5_6HandleINtB5_7NodeRefNtNtB5_6marker5DyingTjNtNtCs9PzovR4aYST_14thiserror_impl4attr5TraitENtNtB7_7set_val9SetValZSTNtB1m_14LeafOrInternalENtB1m_2KVE12into_key_valB1K_, symObjAddr: 0xE074, symBinAddr: 0xECCC, symSize: 0x108 }
  - { offset: 0x34EDF, size: 0x8, addend: 0x0, symName: __RNvMsU_NtNtNtCsiTraAjBDcu4_5alloc11collections5btree4nodeINtB5_6HandleINtB5_7NodeRefNtNtB5_6marker3MutNtCshnvkK9b4wzu_11proc_macro25IdentNtNtB7_7set_val9SetValZSTNtB1m_4LeafENtB1m_2KVE15split_leaf_dataCs9PzovR4aYST_14thiserror_impl, symObjAddr: 0xE17C, symBinAddr: 0xEDD4, symSize: 0x3E4 }
  - { offset: 0x35873, size: 0x8, addend: 0x0, symName: __RNvMsU_NtNtNtCsiTraAjBDcu4_5alloc11collections5btree4nodeINtB5_6HandleINtB5_7NodeRefNtNtB5_6marker3MutNtCshnvkK9b4wzu_11proc_macro25IdentNtNtB7_7set_val9SetValZSTNtB1m_8InternalENtB1m_2KVE15split_leaf_dataCs9PzovR4aYST_14thiserror_impl, symObjAddr: 0xE560, symBinAddr: 0xF1B8, symSize: 0x3E4 }
  - { offset: 0x36207, size: 0x8, addend: 0x0, symName: __RNvMsU_NtNtNtCsiTraAjBDcu4_5alloc11collections5btree4nodeINtB5_6HandleINtB5_7NodeRefNtNtB5_6marker3MutNtNtBb_6string6StringNtNtB7_7set_val9SetValZSTNtB1m_4LeafENtB1m_2KVE15split_leaf_dataCs9PzovR4aYST_14thiserror_impl, symObjAddr: 0xE944, symBinAddr: 0xF59C, symSize: 0x3E4 }
  - { offset: 0x36B9B, size: 0x8, addend: 0x0, symName: __RNvMsU_NtNtNtCsiTraAjBDcu4_5alloc11collections5btree4nodeINtB5_6HandleINtB5_7NodeRefNtNtB5_6marker3MutNtNtBb_6string6StringNtNtB7_7set_val9SetValZSTNtB1m_8InternalENtB1m_2KVE15split_leaf_dataCs9PzovR4aYST_14thiserror_impl, symObjAddr: 0xED28, symBinAddr: 0xF980, symSize: 0x3E4 }
  - { offset: 0x3752F, size: 0x8, addend: 0x0, symName: __RNvMsU_NtNtNtCsiTraAjBDcu4_5alloc11collections5btree4nodeINtB5_6HandleINtB5_7NodeRefNtNtB5_6marker3MutNtNtBb_6string6StringTINtNtB7_3set8BTreeSetB1C_EINtNtCsc29TF2YcYso_3syn10punctuated10PunctuatedNtCshnvkK9b4wzu_11proc_macro211TokenStreamNtNtB2t_5token4PlusEENtB1m_4LeafENtB1m_2KVE15split_leaf_dataCs9PzovR4aYST_14thiserror_impl, symObjAddr: 0xF10C, symBinAddr: 0xFD64, symSize: 0x43C }
  - { offset: 0x37EFB, size: 0x8, addend: 0x0, symName: __RNvMsU_NtNtNtCsiTraAjBDcu4_5alloc11collections5btree4nodeINtB5_6HandleINtB5_7NodeRefNtNtB5_6marker3MutNtNtBb_6string6StringTINtNtB7_3set8BTreeSetB1C_EINtNtCsc29TF2YcYso_3syn10punctuated10PunctuatedNtCshnvkK9b4wzu_11proc_macro211TokenStreamNtNtB2t_5token4PlusEENtB1m_8InternalENtB1m_2KVE15split_leaf_dataCs9PzovR4aYST_14thiserror_impl, symObjAddr: 0xF548, symBinAddr: 0x101A0, symSize: 0x43C }
  - { offset: 0x388C7, size: 0x8, addend: 0x0, symName: __RNvMsU_NtNtNtCsiTraAjBDcu4_5alloc11collections5btree4nodeINtB5_6HandleINtB5_7NodeRefNtNtB5_6marker3MutTjNtNtCs9PzovR4aYST_14thiserror_impl4attr5TraitENtNtB7_7set_val9SetValZSTNtB1m_4LeafENtB1m_2KVE15split_leaf_dataB1I_, symObjAddr: 0xF984, symBinAddr: 0x105DC, symSize: 0x384 }
  - { offset: 0x3925B, size: 0x8, addend: 0x0, symName: __RNvMsU_NtNtNtCsiTraAjBDcu4_5alloc11collections5btree4nodeINtB5_6HandleINtB5_7NodeRefNtNtB5_6marker3MutTjNtNtCs9PzovR4aYST_14thiserror_impl4attr5TraitENtNtB7_7set_val9SetValZSTNtB1m_8InternalENtB1m_2KVE15split_leaf_dataB1I_, symObjAddr: 0xFD08, symBinAddr: 0x10960, symSize: 0x384 }
  - { offset: 0x39A1E, size: 0x8, addend: 0x0, symName: __RNvMsX_NtNtNtCsiTraAjBDcu4_5alloc11collections5btree4nodeINtB5_6HandleINtB5_7NodeRefNtNtB5_6marker3MutRNtCshnvkK9b4wzu_11proc_macro25IdentNtNtB7_7set_val9SetValZSTNtB1m_8InternalENtB1m_2KVE22consider_for_balancingCs9PzovR4aYST_14thiserror_impl, symObjAddr: 0x1008C, symBinAddr: 0x10CE4, symSize: 0xE4 }
  - { offset: 0x39C5D, size: 0x8, addend: 0x0, symName: __RNvMse_NtNtNtCsiTraAjBDcu4_5alloc11collections5btree4nodeINtB5_7NodeRefNtNtB5_6marker3MutNtCshnvkK9b4wzu_11proc_macro25IdentNtNtB7_7set_val9SetValZSTNtB19_14LeafOrInternalE6ascendCs9PzovR4aYST_14thiserror_impl, symObjAddr: 0x10170, symBinAddr: 0x10DC8, symSize: 0x160 }
  - { offset: 0x39EC8, size: 0x8, addend: 0x0, symName: __RNvMse_NtNtNtCsiTraAjBDcu4_5alloc11collections5btree4nodeINtB5_7NodeRefNtNtB5_6marker3MutNtNtBb_6string6StringNtNtB7_7set_val9SetValZSTNtB19_14LeafOrInternalE6ascendCs9PzovR4aYST_14thiserror_impl, symObjAddr: 0x102D0, symBinAddr: 0x10F28, symSize: 0x160 }
  - { offset: 0x3A133, size: 0x8, addend: 0x0, symName: __RNvMse_NtNtNtCsiTraAjBDcu4_5alloc11collections5btree4nodeINtB5_7NodeRefNtNtB5_6marker3MutNtNtBb_6string6StringTINtNtB7_3set8BTreeSetB1p_EINtNtCsc29TF2YcYso_3syn10punctuated10PunctuatedNtCshnvkK9b4wzu_11proc_macro211TokenStreamNtNtB2g_5token4PlusEENtB19_14LeafOrInternalE6ascendCs9PzovR4aYST_14thiserror_impl, symObjAddr: 0x10430, symBinAddr: 0x11088, symSize: 0x160 }
  - { offset: 0x3A39E, size: 0x8, addend: 0x0, symName: __RNvMse_NtNtNtCsiTraAjBDcu4_5alloc11collections5btree4nodeINtB5_7NodeRefNtNtB5_6marker3MutRNtCshnvkK9b4wzu_11proc_macro25IdentNtNtB7_7set_val9SetValZSTNtB19_14LeafOrInternalE6ascendCs9PzovR4aYST_14thiserror_impl, symObjAddr: 0x10590, symBinAddr: 0x111E8, symSize: 0x160 }
  - { offset: 0x3A609, size: 0x8, addend: 0x0, symName: __RNvMse_NtNtNtCsiTraAjBDcu4_5alloc11collections5btree4nodeINtB5_7NodeRefNtNtB5_6marker3MutTjNtNtCs9PzovR4aYST_14thiserror_impl4attr5TraitENtNtB7_7set_val9SetValZSTNtB19_14LeafOrInternalE6ascendB1v_, symObjAddr: 0x106F0, symBinAddr: 0x11348, symSize: 0x160 }
  - { offset: 0x3A84D, size: 0x8, addend: 0x0, symName: __RNvMse_NtNtNtCsiTraAjBDcu4_5alloc11collections5btree4nodeINtB5_7NodeRefNtNtB5_6marker5DyingNtCshnvkK9b4wzu_11proc_macro25IdentNtNtB7_7set_val9SetValZSTNtB19_14LeafOrInternalE6ascendCs9PzovR4aYST_14thiserror_impl, symObjAddr: 0x10850, symBinAddr: 0x114A8, symSize: 0x160 }
  - { offset: 0x3AA91, size: 0x8, addend: 0x0, symName: __RNvMse_NtNtNtCsiTraAjBDcu4_5alloc11collections5btree4nodeINtB5_7NodeRefNtNtB5_6marker5DyingNtNtBb_6string6StringNtNtB7_7set_val9SetValZSTNtB19_14LeafOrInternalE6ascendCs9PzovR4aYST_14thiserror_impl, symObjAddr: 0x109B0, symBinAddr: 0x11608, symSize: 0x160 }
  - { offset: 0x3ACD5, size: 0x8, addend: 0x0, symName: __RNvMse_NtNtNtCsiTraAjBDcu4_5alloc11collections5btree4nodeINtB5_7NodeRefNtNtB5_6marker5DyingNtNtBb_6string6StringTINtNtB7_3set8BTreeSetB1r_EINtNtCsc29TF2YcYso_3syn10punctuated10PunctuatedNtCshnvkK9b4wzu_11proc_macro211TokenStreamNtNtB2i_5token4PlusEENtB19_14LeafOrInternalE6ascendCs9PzovR4aYST_14thiserror_impl, symObjAddr: 0x10B10, symBinAddr: 0x11768, symSize: 0x160 }
  - { offset: 0x3AF19, size: 0x8, addend: 0x0, symName: __RNvMse_NtNtNtCsiTraAjBDcu4_5alloc11collections5btree4nodeINtB5_7NodeRefNtNtB5_6marker5DyingRNtCshnvkK9b4wzu_11proc_macro25IdentNtNtB7_7set_val9SetValZSTNtB19_14LeafOrInternalE6ascendCs9PzovR4aYST_14thiserror_impl, symObjAddr: 0x10C70, symBinAddr: 0x118C8, symSize: 0x160 }
  - { offset: 0x3B15D, size: 0x8, addend: 0x0, symName: __RNvMse_NtNtNtCsiTraAjBDcu4_5alloc11collections5btree4nodeINtB5_7NodeRefNtNtB5_6marker5DyingTjNtNtCs9PzovR4aYST_14thiserror_impl4attr5TraitENtNtB7_7set_val9SetValZSTNtB19_14LeafOrInternalE6ascendB1x_, symObjAddr: 0x10DD0, symBinAddr: 0x11A28, symSize: 0x160 }
  - { offset: 0x3B375, size: 0x8, addend: 0x0, symName: __RNvMsg_NtNtNtCsiTraAjBDcu4_5alloc11collections5btree4nodeINtB5_7NodeRefNtNtB5_6marker5ImmutNtCshnvkK9b4wzu_11proc_macro25IdentNtNtB7_7set_val9SetValZSTNtB19_14LeafOrInternalE4keysCs9PzovR4aYST_14thiserror_impl, symObjAddr: 0x10F30, symBinAddr: 0x11B88, symSize: 0xA8 }
  - { offset: 0x3B56C, size: 0x8, addend: 0x0, symName: __RNvMsg_NtNtNtCsiTraAjBDcu4_5alloc11collections5btree4nodeINtB5_7NodeRefNtNtB5_6marker5ImmutNtNtBb_6string6StringNtNtB7_7set_val9SetValZSTNtB19_14LeafOrInternalE4keysCs9PzovR4aYST_14thiserror_impl, symObjAddr: 0x10FD8, symBinAddr: 0x11C30, symSize: 0xA8 }
  - { offset: 0x3B72B, size: 0x8, addend: 0x0, symName: __RNvMsg_NtNtNtCsiTraAjBDcu4_5alloc11collections5btree4nodeINtB5_7NodeRefNtNtB5_6marker5ImmutNtNtBb_6string6StringTINtNtB7_3set8BTreeSetB1r_EINtNtCsc29TF2YcYso_3syn10punctuated10PunctuatedNtCshnvkK9b4wzu_11proc_macro211TokenStreamNtNtB2i_5token4PlusEENtB19_14LeafOrInternalE4keysCs9PzovR4aYST_14thiserror_impl, symObjAddr: 0x11080, symBinAddr: 0x11CD8, symSize: 0xA8 }
  - { offset: 0x3B908, size: 0x8, addend: 0x0, symName: __RNvMsg_NtNtNtCsiTraAjBDcu4_5alloc11collections5btree4nodeINtB5_7NodeRefNtNtB5_6marker5ImmutRNtCshnvkK9b4wzu_11proc_macro25IdentNtNtB7_7set_val9SetValZSTNtB19_14LeafOrInternalE4keysCs9PzovR4aYST_14thiserror_impl, symObjAddr: 0x11128, symBinAddr: 0x11D80, symSize: 0xA8 }
  - { offset: 0x3BAF2, size: 0x8, addend: 0x0, symName: __RNvMsg_NtNtNtCsiTraAjBDcu4_5alloc11collections5btree4nodeINtB5_7NodeRefNtNtB5_6marker5ImmutTjNtNtCs9PzovR4aYST_14thiserror_impl4attr5TraitENtNtB7_7set_val9SetValZSTNtB19_14LeafOrInternalE4keysB1x_, symObjAddr: 0x111D0, symBinAddr: 0x11E28, symSize: 0xA4 }
  - { offset: 0x3BD90, size: 0x8, addend: 0x0, symName: __RNvMsn_NtNtNtCsiTraAjBDcu4_5alloc11collections5btree8navigateINtNtB7_4node7NodeRefNtNtB10_6marker3MutRNtCshnvkK9b4wzu_11proc_macro25IdentNtNtB7_7set_val9SetValZSTNtB1k_14LeafOrInternalE14last_leaf_edgeCs9PzovR4aYST_14thiserror_impl, symObjAddr: 0x11274, symBinAddr: 0x11ECC, symSize: 0xEC }
  - { offset: 0x3C0EA, size: 0x8, addend: 0x0, symName: __RNvMsp_NtNtNtCsiTraAjBDcu4_5alloc11collections5btree8navigateINtNtB7_4node6HandleINtB10_7NodeRefNtNtB10_6marker5DyingNtCshnvkK9b4wzu_11proc_macro25IdentNtNtB7_7set_val9SetValZSTNtB1y_14LeafOrInternalENtB1y_2KVE14next_leaf_edgeCs9PzovR4aYST_14thiserror_impl, symObjAddr: 0x11360, symBinAddr: 0x11FB8, symSize: 0x210 }
  - { offset: 0x3C55A, size: 0x8, addend: 0x0, symName: __RNvMsp_NtNtNtCsiTraAjBDcu4_5alloc11collections5btree8navigateINtNtB7_4node6HandleINtB10_7NodeRefNtNtB10_6marker5DyingNtNtBb_6string6StringNtNtB7_7set_val9SetValZSTNtB1y_14LeafOrInternalENtB1y_2KVE14next_leaf_edgeCs9PzovR4aYST_14thiserror_impl, symObjAddr: 0x11570, symBinAddr: 0x121C8, symSize: 0x210 }
  - { offset: 0x3C9CA, size: 0x8, addend: 0x0, symName: __RNvMsp_NtNtNtCsiTraAjBDcu4_5alloc11collections5btree8navigateINtNtB7_4node6HandleINtB10_7NodeRefNtNtB10_6marker5DyingNtNtBb_6string6StringTINtNtB7_3set8BTreeSetB1R_EINtNtCsc29TF2YcYso_3syn10punctuated10PunctuatedNtCshnvkK9b4wzu_11proc_macro211TokenStreamNtNtB2I_5token4PlusEENtB1y_14LeafOrInternalENtB1y_2KVE14next_leaf_edgeCs9PzovR4aYST_14thiserror_impl, symObjAddr: 0x11780, symBinAddr: 0x123D8, symSize: 0x210 }
  - { offset: 0x3CE3A, size: 0x8, addend: 0x0, symName: __RNvMsp_NtNtNtCsiTraAjBDcu4_5alloc11collections5btree8navigateINtNtB7_4node6HandleINtB10_7NodeRefNtNtB10_6marker5DyingRNtCshnvkK9b4wzu_11proc_macro25IdentNtNtB7_7set_val9SetValZSTNtB1y_14LeafOrInternalENtB1y_2KVE14next_leaf_edgeCs9PzovR4aYST_14thiserror_impl, symObjAddr: 0x11990, symBinAddr: 0x125E8, symSize: 0x210 }
  - { offset: 0x3D2AA, size: 0x8, addend: 0x0, symName: __RNvMsp_NtNtNtCsiTraAjBDcu4_5alloc11collections5btree8navigateINtNtB7_4node6HandleINtB10_7NodeRefNtNtB10_6marker5DyingTjNtNtCs9PzovR4aYST_14thiserror_impl4attr5TraitENtNtB7_7set_val9SetValZSTNtB1y_14LeafOrInternalENtB1y_2KVE14next_leaf_edgeB1X_, symObjAddr: 0x11BA0, symBinAddr: 0x127F8, symSize: 0x210 }
  - { offset: 0x3D6C8, size: 0x8, addend: 0x0, symName: __RNvMsu_NtNtNtCsiTraAjBDcu4_5alloc11collections5btree4nodeINtB5_7NodeRefNtNtB5_6marker3MutNtCshnvkK9b4wzu_11proc_macro25IdentNtNtB7_7set_val9SetValZSTNtB19_4LeafE16push_with_handleCs9PzovR4aYST_14thiserror_impl, symObjAddr: 0x11DB0, symBinAddr: 0x12A08, symSize: 0x1FC }
  - { offset: 0x3DBA0, size: 0x8, addend: 0x0, symName: __RNvMsu_NtNtNtCsiTraAjBDcu4_5alloc11collections5btree4nodeINtB5_7NodeRefNtNtB5_6marker3MutNtNtBb_6string6StringNtNtB7_7set_val9SetValZSTNtB19_4LeafE16push_with_handleCs9PzovR4aYST_14thiserror_impl, symObjAddr: 0x11FAC, symBinAddr: 0x12C04, symSize: 0x1FC }
  - { offset: 0x3E0CC, size: 0x8, addend: 0x0, symName: __RNvMsu_NtNtNtCsiTraAjBDcu4_5alloc11collections5btree4nodeINtB5_7NodeRefNtNtB5_6marker3MutNtNtBb_6string6StringTINtNtB7_3set8BTreeSetB1p_EINtNtCsc29TF2YcYso_3syn10punctuated10PunctuatedNtCshnvkK9b4wzu_11proc_macro211TokenStreamNtNtB2g_5token4PlusEENtB19_4LeafE16push_with_handleCs9PzovR4aYST_14thiserror_impl, symObjAddr: 0x121A8, symBinAddr: 0x12E00, symSize: 0x268 }
  - { offset: 0x3E5F1, size: 0x8, addend: 0x0, symName: __RNvMsu_NtNtNtCsiTraAjBDcu4_5alloc11collections5btree4nodeINtB5_7NodeRefNtNtB5_6marker3MutRNtCshnvkK9b4wzu_11proc_macro25IdentNtNtB7_7set_val9SetValZSTNtB19_4LeafE16push_with_handleCs9PzovR4aYST_14thiserror_impl, symObjAddr: 0x12410, symBinAddr: 0x13068, symSize: 0x1BC }
  - { offset: 0x3EAA4, size: 0x8, addend: 0x0, symName: __RNvMsu_NtNtNtCsiTraAjBDcu4_5alloc11collections5btree4nodeINtB5_7NodeRefNtNtB5_6marker3MutTjNtNtCs9PzovR4aYST_14thiserror_impl4attr5TraitENtNtB7_7set_val9SetValZSTNtB19_4LeafE16push_with_handleB1v_, symObjAddr: 0x125CC, symBinAddr: 0x13224, symSize: 0x1C8 }
  - { offset: 0x3F06F, size: 0x8, addend: 0x0, symName: __RNvMsv_NtNtNtCsiTraAjBDcu4_5alloc11collections5btree4nodeINtB5_7NodeRefNtNtB5_6marker3MutNtCshnvkK9b4wzu_11proc_macro25IdentNtNtB7_7set_val9SetValZSTNtB19_8InternalE4pushCs9PzovR4aYST_14thiserror_impl, symObjAddr: 0x12794, symBinAddr: 0x133EC, symSize: 0x2FC }
  - { offset: 0x3F7B2, size: 0x8, addend: 0x0, symName: __RNvMsv_NtNtNtCsiTraAjBDcu4_5alloc11collections5btree4nodeINtB5_7NodeRefNtNtB5_6marker3MutNtNtBb_6string6StringNtNtB7_7set_val9SetValZSTNtB19_8InternalE4pushCs9PzovR4aYST_14thiserror_impl, symObjAddr: 0x12A90, symBinAddr: 0x136E8, symSize: 0x2FC }
  - { offset: 0x3FF49, size: 0x8, addend: 0x0, symName: __RNvMsv_NtNtNtCsiTraAjBDcu4_5alloc11collections5btree4nodeINtB5_7NodeRefNtNtB5_6marker3MutNtNtBb_6string6StringTINtNtB7_3set8BTreeSetB1p_EINtNtCsc29TF2YcYso_3syn10punctuated10PunctuatedNtCshnvkK9b4wzu_11proc_macro211TokenStreamNtNtB2g_5token4PlusEENtB19_8InternalE4pushCs9PzovR4aYST_14thiserror_impl, symObjAddr: 0x12D8C, symBinAddr: 0x139E4, symSize: 0x364 }
  - { offset: 0x406DA, size: 0x8, addend: 0x0, symName: __RNvMsv_NtNtNtCsiTraAjBDcu4_5alloc11collections5btree4nodeINtB5_7NodeRefNtNtB5_6marker3MutRNtCshnvkK9b4wzu_11proc_macro25IdentNtNtB7_7set_val9SetValZSTNtB19_8InternalE4pushCs9PzovR4aYST_14thiserror_impl, symObjAddr: 0x130F0, symBinAddr: 0x13D48, symSize: 0x2C0 }
  - { offset: 0x40DF5, size: 0x8, addend: 0x0, symName: __RNvMsv_NtNtNtCsiTraAjBDcu4_5alloc11collections5btree4nodeINtB5_7NodeRefNtNtB5_6marker3MutTjNtNtCs9PzovR4aYST_14thiserror_impl4attr5TraitENtNtB7_7set_val9SetValZSTNtB19_8InternalE4pushB1v_, symObjAddr: 0x133B0, symBinAddr: 0x14008, symSize: 0x2CC }
  - { offset: 0x412AD, size: 0x8, addend: 0x0, symName: __RNvXs1_NtNtNtCsaNl6UpbT7bw_4core3ops8function5implsQNCNvNtCs9PzovR4aYST_14thiserror_impl6expand9impl_enums2_0INtB7_5FnMutTRNtNtBU_3ast7VariantEE8call_mutBU_, symObjAddr: 0x0, symBinAddr: 0x1431C, symSize: 0x30 }
  - { offset: 0x41CFE, size: 0x8, addend: 0x0, symName: __RNvNtCs9PzovR4aYST_14thiserror_impl6expand6derive, symObjAddr: 0x30, symBinAddr: 0x1434C, symSize: 0xC0 }
  - { offset: 0x41D5C, size: 0x8, addend: 0x0, symName: __RNvNtCs9PzovR4aYST_14thiserror_impl6expand10try_expand, symObjAddr: 0xF0, symBinAddr: 0x1440C, symSize: 0x2A0 }
  - { offset: 0x41E2C, size: 0x8, addend: 0x0, symName: __RNvNtCs9PzovR4aYST_14thiserror_impl6expand8fallback, symObjAddr: 0x390, symBinAddr: 0x146AC, symSize: 0xA58 }
  - { offset: 0x41FA9, size: 0x8, addend: 0x0, symName: __RNvNtCs9PzovR4aYST_14thiserror_impl6expand11impl_struct, symObjAddr: 0xDE8, symBinAddr: 0x15104, symSize: 0x163C }
  - { offset: 0x4241F, size: 0x8, addend: 0x0, symName: __RNCNvNtCs9PzovR4aYST_14thiserror_impl6expand11impl_struct0B5_, symObjAddr: 0x2424, symBinAddr: 0x16740, symSize: 0x42C }
  - { offset: 0x424AD, size: 0x8, addend: 0x0, symName: __RNCNvNtCs9PzovR4aYST_14thiserror_impl6expand11impl_structs_0B5_, symObjAddr: 0x2850, symBinAddr: 0x16B6C, symSize: 0x1660 }
  - { offset: 0x427F1, size: 0x8, addend: 0x0, symName: __RNCNvNtCs9PzovR4aYST_14thiserror_impl6expand11impl_structs0_0B5_, symObjAddr: 0x3EB0, symBinAddr: 0x181CC, symSize: 0x918 }
  - { offset: 0x429BF, size: 0x8, addend: 0x0, symName: __RNCNvNtCs9PzovR4aYST_14thiserror_impl6expand11impl_structs1_0B5_, symObjAddr: 0x47C8, symBinAddr: 0x18AE4, symSize: 0x674 }
  - { offset: 0x42B51, size: 0x8, addend: 0x0, symName: __RNvNtCs9PzovR4aYST_14thiserror_impl6expand9impl_enum, symObjAddr: 0x4E3C, symBinAddr: 0x19158, symSize: 0x1EE8 }
  - { offset: 0x43246, size: 0x8, addend: 0x0, symName: __RNCNvNtCs9PzovR4aYST_14thiserror_impl6expand9impl_enum0B5_, symObjAddr: 0x6D24, symBinAddr: 0x1B040, symSize: 0xDD0 }
  - { offset: 0x4353B, size: 0x8, addend: 0x0, symName: __RNCNvNtCs9PzovR4aYST_14thiserror_impl6expand9impl_enums_0B5_, symObjAddr: 0x7AF4, symBinAddr: 0x1BE10, symSize: 0x1FF4 }
  - { offset: 0x43B7B, size: 0x8, addend: 0x0, symName: __RNCNvNtCs9PzovR4aYST_14thiserror_impl6expand9impl_enums0_0B5_, symObjAddr: 0x9AE8, symBinAddr: 0x1DE04, symSize: 0x44 }
  - { offset: 0x43BB9, size: 0x8, addend: 0x0, symName: __RNCNCNvNtCs9PzovR4aYST_14thiserror_impl6expand9impl_enums0_00B7_, symObjAddr: 0x9B2C, symBinAddr: 0x1DE48, symSize: 0x2C }
  - { offset: 0x43BFA, size: 0x8, addend: 0x0, symName: __RNCNvNtCs9PzovR4aYST_14thiserror_impl6expand9impl_enums1_0B5_, symObjAddr: 0x9B58, symBinAddr: 0x1DE74, symSize: 0x674 }
  - { offset: 0x43E03, size: 0x8, addend: 0x0, symName: __RNCNvNtCs9PzovR4aYST_14thiserror_impl6expand9impl_enums2_0B5_, symObjAddr: 0xA1CC, symBinAddr: 0x1E4E8, symSize: 0x6F4 }
  - { offset: 0x4408A, size: 0x8, addend: 0x0, symName: __RNvNtCs9PzovR4aYST_14thiserror_impl6expand10fields_pat, symObjAddr: 0xA8C0, symBinAddr: 0x1EBDC, symSize: 0x4E0 }
  - { offset: 0x4429D, size: 0x8, addend: 0x0, symName: __RNCNvNtCs9PzovR4aYST_14thiserror_impl6expand10fields_pat0B5_, symObjAddr: 0xADA0, symBinAddr: 0x1F0BC, symSize: 0x28 }
  - { offset: 0x442D6, size: 0x8, addend: 0x0, symName: __RNCNvNtCs9PzovR4aYST_14thiserror_impl6expand10fields_pats_0B5_, symObjAddr: 0xADC8, symBinAddr: 0x1F0E4, symSize: 0x17C }
  - { offset: 0x4438A, size: 0x8, addend: 0x0, symName: __RNvNtCs9PzovR4aYST_14thiserror_impl6expand14use_as_display, symObjAddr: 0xAF44, symBinAddr: 0x1F260, symSize: 0x174 }
  - { offset: 0x443CE, size: 0x8, addend: 0x0, symName: __RNvNtCs9PzovR4aYST_14thiserror_impl6expand16from_initializer, symObjAddr: 0xB0B8, symBinAddr: 0x1F3D4, symSize: 0x35C }
  - { offset: 0x444C6, size: 0x8, addend: 0x0, symName: __RNCNvNtCs9PzovR4aYST_14thiserror_impl6expand16from_initializer0B5_, symObjAddr: 0xB414, symBinAddr: 0x1F730, symSize: 0x4A4 }
  - { offset: 0x44578, size: 0x8, addend: 0x0, symName: __RNvNtCs9PzovR4aYST_14thiserror_impl6expand14type_is_option, symObjAddr: 0xB8B8, symBinAddr: 0x1FBD4, symSize: 0x44 }
  - { offset: 0x445A6, size: 0x8, addend: 0x0, symName: __RNvNtCs9PzovR4aYST_14thiserror_impl6expand15unoptional_type, symObjAddr: 0xB8FC, symBinAddr: 0x1FC18, symSize: 0xA8 }
  - { offset: 0x44608, size: 0x8, addend: 0x0, symName: __RNvNtCs9PzovR4aYST_14thiserror_impl6expand24type_parameter_of_option, symObjAddr: 0xB9A4, symBinAddr: 0x1FCC0, symSize: 0x1FC }
  - { offset: 0x44866, size: 0x8, addend: 0x0, symName: __RNvXs1_NtNtNtCsaNl6UpbT7bw_4core3ops8function5implsQNCNvNtCs9PzovR4aYST_14thiserror_impl6expand9impl_enums2_0INtB7_5FnMutTRNtNtBU_3ast7VariantEE8call_mutBU_, symObjAddr: 0x0, symBinAddr: 0x1431C, symSize: 0x30 }
  - { offset: 0x4E6AE, size: 0x8, addend: 0x0, symName: __RINvMs6_NtCsg4dki62PTrg_9hashbrown3rawINtB6_8RawTableTRNtNtCsc29TF2YcYso_3syn4expr6MemberjEE14reserve_rehashNCINvNtB8_3map11make_hasherBQ_jNtNtNtCsht3nMU9UgFu_3std4hash6random11RandomStateE0ECs9PzovR4aYST_14thiserror_impl, symObjAddr: 0x0, symBinAddr: 0x1B4028, symSize: 0x828 }
  - { offset: 0x4E6EA, size: 0x8, addend: 0x0, symName: __RNCINvMs6_NtCsg4dki62PTrg_9hashbrown3rawINtB8_8RawTableTRNtNtCsc29TF2YcYso_3syn4expr6MemberjEE14reserve_rehashNCINvNtBa_3map11make_hasherBS_jNtNtNtCsht3nMU9UgFu_3std4hash6random11RandomStateE0E0Cs9PzovR4aYST_14thiserror_impl, symObjAddr: 0x12A8, symBinAddr: 0x2093C, symSize: 0xC8 }
  - { offset: 0x4E8AD, size: 0x8, addend: 0x0, symName: __RNCINvMs6_NtCsg4dki62PTrg_9hashbrown3rawINtB8_8RawTableTRNtNtCsc29TF2YcYso_3syn4expr6MemberjEE24find_or_find_insert_slotNCINvNtBa_3map14equivalent_keyBS_BS_jE0NCINvB1Z_11make_hasherBS_jNtNtNtCsht3nMU9UgFu_3std4hash6random11RandomStateE0E0Cs9PzovR4aYST_14thiserror_impl, symObjAddr: 0x1370, symBinAddr: 0x20A04, symSize: 0xCC }
  - { offset: 0x4EA80, size: 0x8, addend: 0x0, symName: __RNCINvMs6_NtCsg4dki62PTrg_9hashbrown3rawINtB8_8RawTableTRNtNtCsc29TF2YcYso_3syn4expr6MemberjEE4findNCINvNtBa_3map14equivalent_keyBT_BS_jE0E0Cs9PzovR4aYST_14thiserror_impl, symObjAddr: 0x143C, symBinAddr: 0x20AD0, symSize: 0xCC }
  - { offset: 0x4F39A, size: 0x8, addend: 0x0, symName: __RNCINvMsa_NtCsg4dki62PTrg_9hashbrown3rawNtB8_13RawTableInner14prepare_resizeNtNtCsiTraAjBDcu4_5alloc5alloc6GlobalE0Cs9PzovR4aYST_14thiserror_impl, symObjAddr: 0x1508, symBinAddr: 0x20B9C, symSize: 0xBC }
  - { offset: 0x4F57D, size: 0x8, addend: 0x0, symName: __RNCNvMsa_NtCsg4dki62PTrg_9hashbrown3rawNtB7_13RawTableInner15rehash_in_place0Cs9PzovR4aYST_14thiserror_impl, symObjAddr: 0x15C4, symBinAddr: 0x20C58, symSize: 0x22C }
  - { offset: 0x4FADE, size: 0x8, addend: 0x0, symName: __RNvNtCsg4dki62PTrg_9hashbrown3raw19capacity_to_bucketsCs9PzovR4aYST_14thiserror_impl, symObjAddr: 0x2924, symBinAddr: 0x21FB8, symSize: 0x218 }
  - { offset: 0x4FCE7, size: 0x8, addend: 0x0, symName: __RNvXsg_NtCsg4dki62PTrg_9hashbrown3rawINtB5_8RawTableTRNtNtCsc29TF2YcYso_3syn4expr6MemberjEENtNtNtCsaNl6UpbT7bw_4core3ops4drop4Drop4dropCs9PzovR4aYST_14thiserror_impl, symObjAddr: 0x2B3C, symBinAddr: 0x221D0, symSize: 0x3C }
  - { offset: 0x53474, size: 0x8, addend: 0x0, symName: __RINvMs6_NtCsg4dki62PTrg_9hashbrown3rawINtB6_8RawTableTRNtNtCsc29TF2YcYso_3syn4expr6MemberjEE14reserve_rehashNCINvNtB8_3map11make_hasherBQ_jNtNtNtCsht3nMU9UgFu_3std4hash6random11RandomStateE0ECs9PzovR4aYST_14thiserror_impl, symObjAddr: 0x0, symBinAddr: 0x1B4028, symSize: 0x828 }
  - { offset: 0x53E64, size: 0x8, addend: 0x0, symName: __RINvMs6_NtCsg4dki62PTrg_9hashbrown3rawINtB6_8RawTableTRNtNtCsc29TF2YcYso_3syn4expr6MemberjEE24find_or_find_insert_slotNCINvNtB8_3map14equivalent_keyBQ_BQ_jE0NCINvB1X_11make_hasherBQ_jNtNtNtCsht3nMU9UgFu_3std4hash6random11RandomStateE0ECs9PzovR4aYST_14thiserror_impl, symObjAddr: 0x828, symBinAddr: 0x1FEBC, symSize: 0x140 }
  - { offset: 0x542E6, size: 0x8, addend: 0x0, symName: __RINvMs6_NtCsg4dki62PTrg_9hashbrown3rawINtB6_8RawTableTRNtNtCsc29TF2YcYso_3syn4expr6MemberjEE4findNCINvNtB8_3map14equivalent_keyBR_BQ_jE0ECs9PzovR4aYST_14thiserror_impl, symObjAddr: 0x968, symBinAddr: 0x1FFFC, symSize: 0x330 }
  - { offset: 0x547A1, size: 0x8, addend: 0x0, symName: __RINvMs6_NtCsg4dki62PTrg_9hashbrown3rawINtB6_8RawTableTRNtNtCsc29TF2YcYso_3syn4expr6MemberjEE7reserveNCINvNtB8_3map11make_hasherBQ_jNtNtNtCsht3nMU9UgFu_3std4hash6random11RandomStateE0ECs9PzovR4aYST_14thiserror_impl, symObjAddr: 0xC98, symBinAddr: 0x2032C, symSize: 0xCC }
  - { offset: 0x54914, size: 0x8, addend: 0x0, symName: __RINvMsa_NtCsg4dki62PTrg_9hashbrown3rawNtB6_13RawTableInner13drop_elementsTRNtNtCsc29TF2YcYso_3syn4expr6MemberjEECs9PzovR4aYST_14thiserror_impl, symObjAddr: 0xD64, symBinAddr: 0x203F8, symSize: 0x28 }
  - { offset: 0x54B7E, size: 0x8, addend: 0x0, symName: __RINvMsa_NtCsg4dki62PTrg_9hashbrown3rawNtB6_13RawTableInner16drop_inner_tableTRNtNtCsc29TF2YcYso_3syn4expr6MemberjENtNtCsiTraAjBDcu4_5alloc5alloc6GlobalECs9PzovR4aYST_14thiserror_impl, symObjAddr: 0xD8C, symBinAddr: 0x20420, symSize: 0xBC }
  - { offset: 0x54D91, size: 0x8, addend: 0x0, symName: __RINvMsa_NtCsg4dki62PTrg_9hashbrown3rawNtB6_13RawTableInner17new_uninitializedNtNtCsiTraAjBDcu4_5alloc5alloc6GlobalECs9PzovR4aYST_14thiserror_impl, symObjAddr: 0xE48, symBinAddr: 0x204DC, symSize: 0x1B0 }
  - { offset: 0x54FE2, size: 0x8, addend: 0x0, symName: __RINvMsa_NtCsg4dki62PTrg_9hashbrown3rawNtB6_13RawTableInner22fallible_with_capacityNtNtCsiTraAjBDcu4_5alloc5alloc6GlobalECs9PzovR4aYST_14thiserror_impl, symObjAddr: 0xFF8, symBinAddr: 0x2068C, symSize: 0x2B0 }
  - { offset: 0x558AE, size: 0x8, addend: 0x0, symName: __RNvMs1_NtCsg4dki62PTrg_9hashbrown3rawNtB5_11TableLayout20calculate_layout_forCs9PzovR4aYST_14thiserror_impl, symObjAddr: 0x17F0, symBinAddr: 0x20E84, symSize: 0x210 }
  - { offset: 0x55D3B, size: 0x8, addend: 0x0, symName: __RNvMs6_NtCsg4dki62PTrg_9hashbrown3rawINtB5_8RawTableTRNtNtCsc29TF2YcYso_3syn4expr6MemberjEE14insert_in_slotCs9PzovR4aYST_14thiserror_impl, symObjAddr: 0x1A00, symBinAddr: 0x21094, symSize: 0x148 }
  - { offset: 0x561EF, size: 0x8, addend: 0x0, symName: __RNvMsa_NtCsg4dki62PTrg_9hashbrown3rawNtB5_13RawTableInner15fix_insert_slotCs9PzovR4aYST_14thiserror_impl, symObjAddr: 0x1B48, symBinAddr: 0x211DC, symSize: 0x12C }
  - { offset: 0x5656F, size: 0x8, addend: 0x0, symName: __RNvMsa_NtCsg4dki62PTrg_9hashbrown3rawNtB5_13RawTableInner15rehash_in_placeCs9PzovR4aYST_14thiserror_impl, symObjAddr: 0x1C74, symBinAddr: 0x21308, symSize: 0x4AC }
  - { offset: 0x56D77, size: 0x8, addend: 0x0, symName: __RNvMsa_NtCsg4dki62PTrg_9hashbrown3rawNtB5_13RawTableInner16find_insert_slotCs9PzovR4aYST_14thiserror_impl, symObjAddr: 0x2120, symBinAddr: 0x217B4, symSize: 0x11C }
  - { offset: 0x56F72, size: 0x8, addend: 0x0, symName: __RNvMsa_NtCsg4dki62PTrg_9hashbrown3rawNtB5_13RawTableInner19prepare_insert_slotCs9PzovR4aYST_14thiserror_impl, symObjAddr: 0x223C, symBinAddr: 0x218D0, symSize: 0x74 }
  - { offset: 0x57263, size: 0x8, addend: 0x0, symName: __RNvMsa_NtCsg4dki62PTrg_9hashbrown3rawNtB5_13RawTableInner23prepare_rehash_in_placeCs9PzovR4aYST_14thiserror_impl, symObjAddr: 0x22B0, symBinAddr: 0x21944, symSize: 0x258 }
  - { offset: 0x5796F, size: 0x8, addend: 0x0, symName: __RNvMsa_NtCsg4dki62PTrg_9hashbrown3rawNtB5_13RawTableInner25find_insert_slot_in_groupCs9PzovR4aYST_14thiserror_impl, symObjAddr: 0x2508, symBinAddr: 0x21B9C, symSize: 0x15C }
  - { offset: 0x57C0D, size: 0x8, addend: 0x0, symName: __RNvMsa_NtCsg4dki62PTrg_9hashbrown3rawNtB5_13RawTableInner30find_or_find_insert_slot_innerCs9PzovR4aYST_14thiserror_impl, symObjAddr: 0x2664, symBinAddr: 0x21CF8, symSize: 0x2C0 }
  - { offset: 0x57FE4, size: 0x8, addend: 0x0, symName: __RINvCsc29TF2YcYso_3syn5parseNtNtB2_6derive11DeriveInputECs9PzovR4aYST_14thiserror_impl, symObjAddr: 0x0, symBinAddr: 0x2220C, symSize: 0x30 }
  - { offset: 0x5809E, size: 0x8, addend: 0x0, symName: __RINvCsc29TF2YcYso_3syn5parseNtNtB2_6derive11DeriveInputECs9PzovR4aYST_14thiserror_impl, symObjAddr: 0x0, symBinAddr: 0x2220C, symSize: 0x30 }
  - { offset: 0x580D5, size: 0x8, addend: 0x0, symName: __RINvCsc29TF2YcYso_3syn6parse2NtNtB2_4expr4ExprECs9PzovR4aYST_14thiserror_impl, symObjAddr: 0x30, symBinAddr: 0x2223C, symSize: 0x24 }
  - { offset: 0x5CDCF, size: 0x8, addend: 0x0, symName: __RNvXsh_NtCsc29TF2YcYso_3syn5parseNvNtCs9PzovR4aYST_14thiserror_impl3fmt19explicit_named_argsNtB5_6Parser6parse2Bz_, symObjAddr: 0x22D8, symBinAddr: 0x244E4, symSize: 0x334 }
  - { offset: 0x5CEDE, size: 0x8, addend: 0x0, symName: __RNvXsh_NtCsc29TF2YcYso_3syn5parseNvYNtCshnvkK9b4wzu_11proc_macro25IdentNtNtB7_3ext8IdentExt9parse_anyNtB5_6Parser6parse2Cs9PzovR4aYST_14thiserror_impl, symObjAddr: 0x260C, symBinAddr: 0x24818, symSize: 0x334 }
  - { offset: 0x5CFF3, size: 0x8, addend: 0x0, symName: __RNvYNvYNtCshnvkK9b4wzu_11proc_macro25IdentNtNtCsc29TF2YcYso_3syn3ext8IdentExt9parse_anyNtNtBI_5parse6Parser9parse_strCs9PzovR4aYST_14thiserror_impl, symObjAddr: 0x2980, symBinAddr: 0x24B8C, symSize: 0x11C }
  - { offset: 0x5ECD8, size: 0x8, addend: 0x0, symName: __RINvNtNtNtCsiTraAjBDcu4_5alloc11collections5btree3mem7replaceINtNtB4_4node6HandleINtB10_7NodeRefNtNtB10_6marker5DyingNtCshnvkK9b4wzu_11proc_macro25IdentNtNtB4_7set_val9SetValZSTNtB1y_4LeafENtB1y_4EdgeEIBY_IB1i_B1w_B1R_B2q_NtB1y_14LeafOrInternalENtB1y_2KVENCINvMsm_NtB4_8navigateBX_27deallocating_next_uncheckedNtNtB8_5alloc6GlobalE0ECs9PzovR4aYST_14thiserror_impl, symObjAddr: 0x2E4, symBinAddr: 0x224F0, symSize: 0xCC }
  - { offset: 0x5EDC8, size: 0x8, addend: 0x0, symName: __RINvNtNtNtCsiTraAjBDcu4_5alloc11collections5btree3mem7replaceINtNtB4_4node6HandleINtB10_7NodeRefNtNtB10_6marker5DyingNtNtB8_6string6StringNtNtB4_7set_val9SetValZSTNtB1y_4LeafENtB1y_4EdgeEIBY_IB1i_B1w_B1R_B2c_NtB1y_14LeafOrInternalENtB1y_2KVENCINvMsm_NtB4_8navigateBX_27deallocating_next_uncheckedNtNtB8_5alloc6GlobalE0ECs9PzovR4aYST_14thiserror_impl, symObjAddr: 0x3B0, symBinAddr: 0x225BC, symSize: 0xCC }
  - { offset: 0x5EEB8, size: 0x8, addend: 0x0, symName: __RINvNtNtNtCsiTraAjBDcu4_5alloc11collections5btree3mem7replaceINtNtB4_4node6HandleINtB10_7NodeRefNtNtB10_6marker5DyingNtNtB8_6string6StringTINtNtB4_3set8BTreeSetB1R_EINtNtCsc29TF2YcYso_3syn10punctuated10PunctuatedNtCshnvkK9b4wzu_11proc_macro211TokenStreamNtNtB2I_5token4PlusEENtB1y_4LeafENtB1y_4EdgeEIBY_IB1i_B1w_B1R_B2c_NtB1y_14LeafOrInternalENtB1y_2KVENCINvMsm_NtB4_8navigateBX_27deallocating_next_uncheckedNtNtB8_5alloc6GlobalE0ECs9PzovR4aYST_14thiserror_impl, symObjAddr: 0x47C, symBinAddr: 0x22688, symSize: 0xCC }
  - { offset: 0x5EFA8, size: 0x8, addend: 0x0, symName: __RINvNtNtNtCsiTraAjBDcu4_5alloc11collections5btree3mem7replaceINtNtB4_4node6HandleINtB10_7NodeRefNtNtB10_6marker5DyingRNtCshnvkK9b4wzu_11proc_macro25IdentNtNtB4_7set_val9SetValZSTNtB1y_4LeafENtB1y_4EdgeEIBY_IB1i_B1w_B1R_B2r_NtB1y_14LeafOrInternalENtB1y_2KVENCINvMsm_NtB4_8navigateBX_27deallocating_next_uncheckedNtNtB8_5alloc6GlobalE0ECs9PzovR4aYST_14thiserror_impl, symObjAddr: 0x548, symBinAddr: 0x22754, symSize: 0xCC }
  - { offset: 0x5F098, size: 0x8, addend: 0x0, symName: __RINvNtNtNtCsiTraAjBDcu4_5alloc11collections5btree3mem7replaceINtNtB4_4node6HandleINtB10_7NodeRefNtNtB10_6marker5DyingTjNtNtCs9PzovR4aYST_14thiserror_impl4attr5TraitENtNtB4_7set_val9SetValZSTNtB1y_4LeafENtB1y_4EdgeEIBY_IB1i_B1w_B1R_B2D_NtB1y_14LeafOrInternalENtB1y_2KVENCINvMsm_NtB4_8navigateBX_27deallocating_next_uncheckedNtNtB8_5alloc6GlobalE0EB1X_, symObjAddr: 0x614, symBinAddr: 0x22820, symSize: 0xCC }
  - { offset: 0x5F188, size: 0x8, addend: 0x0, symName: __RINvNtNtNtCsiTraAjBDcu4_5alloc11collections5btree3mem7replaceINtNtB4_4node7NodeRefNtNtB10_6marker5OwnedNtCshnvkK9b4wzu_11proc_macro25IdentNtNtB4_7set_val9SetValZSTNtB1k_14LeafOrInternalEuNCINvB2_8take_mutBX_NCINvMss_B10_BX_19push_internal_levelNtNtB8_5alloc6GlobalE0E0ECs9PzovR4aYST_14thiserror_impl, symObjAddr: 0x6E0, symBinAddr: 0x228EC, symSize: 0x90 }
  - { offset: 0x5F271, size: 0x8, addend: 0x0, symName: __RINvNtNtNtCsiTraAjBDcu4_5alloc11collections5btree3mem7replaceINtNtB4_4node7NodeRefNtNtB10_6marker5OwnedNtNtB8_6string6StringNtNtB4_7set_val9SetValZSTNtB1k_14LeafOrInternalEuNCINvB2_8take_mutBX_NCINvMss_B10_BX_19push_internal_levelNtNtB8_5alloc6GlobalE0E0ECs9PzovR4aYST_14thiserror_impl, symObjAddr: 0x770, symBinAddr: 0x2297C, symSize: 0x90 }
  - { offset: 0x5F35A, size: 0x8, addend: 0x0, symName: __RINvNtNtNtCsiTraAjBDcu4_5alloc11collections5btree3mem7replaceINtNtB4_4node7NodeRefNtNtB10_6marker5OwnedNtNtB8_6string6StringTINtNtB4_3set8BTreeSetB1D_EINtNtCsc29TF2YcYso_3syn10punctuated10PunctuatedNtCshnvkK9b4wzu_11proc_macro211TokenStreamNtNtB2u_5token4PlusEENtB1k_14LeafOrInternalEuNCINvB2_8take_mutBX_NCINvMss_B10_BX_19push_internal_levelNtNtB8_5alloc6GlobalE0E0ECs9PzovR4aYST_14thiserror_impl, symObjAddr: 0x800, symBinAddr: 0x22A0C, symSize: 0x90 }
  - { offset: 0x5F443, size: 0x8, addend: 0x0, symName: __RINvNtNtNtCsiTraAjBDcu4_5alloc11collections5btree3mem7replaceINtNtB4_4node7NodeRefNtNtB10_6marker5OwnedRNtCshnvkK9b4wzu_11proc_macro25IdentNtNtB4_7set_val9SetValZSTNtB1k_14LeafOrInternalEuNCINvB2_8take_mutBX_NCINvMss_B10_BX_19push_internal_levelNtNtB8_5alloc6GlobalE0E0ECs9PzovR4aYST_14thiserror_impl, symObjAddr: 0x890, symBinAddr: 0x22A9C, symSize: 0x90 }
  - { offset: 0x5F52C, size: 0x8, addend: 0x0, symName: __RINvNtNtNtCsiTraAjBDcu4_5alloc11collections5btree3mem7replaceINtNtB4_4node7NodeRefNtNtB10_6marker5OwnedTjNtNtCs9PzovR4aYST_14thiserror_impl4attr5TraitENtNtB4_7set_val9SetValZSTNtB1k_14LeafOrInternalEuNCINvB2_8take_mutBX_NCINvMss_B10_BX_19push_internal_levelNtNtB8_5alloc6GlobalE0E0EB1J_, symObjAddr: 0x920, symBinAddr: 0x22B2C, symSize: 0x90 }
  - { offset: 0x5F61A, size: 0x8, addend: 0x0, symName: __RNCINvNtNtNtCsiTraAjBDcu4_5alloc11collections5btree3mem8take_mutINtNtB6_4node7NodeRefNtNtB13_6marker5OwnedNtCshnvkK9b4wzu_11proc_macro25IdentNtNtB6_7set_val9SetValZSTNtB1n_14LeafOrInternalENCINvMss_B13_B10_19push_internal_levelNtNtBa_5alloc6GlobalE0E0Cs9PzovR4aYST_14thiserror_impl, symObjAddr: 0x1898, symBinAddr: 0x23AA4, symSize: 0x28 }
  - { offset: 0x5F667, size: 0x8, addend: 0x0, symName: __RNCINvNtNtNtCsiTraAjBDcu4_5alloc11collections5btree3mem8take_mutINtNtB6_4node7NodeRefNtNtB13_6marker5OwnedNtNtBa_6string6StringNtNtB6_7set_val9SetValZSTNtB1n_14LeafOrInternalENCINvMss_B13_B10_19push_internal_levelNtNtBa_5alloc6GlobalE0E0Cs9PzovR4aYST_14thiserror_impl, symObjAddr: 0x18C0, symBinAddr: 0x23ACC, symSize: 0x28 }
  - { offset: 0x5F6B4, size: 0x8, addend: 0x0, symName: __RNCINvNtNtNtCsiTraAjBDcu4_5alloc11collections5btree3mem8take_mutINtNtB6_4node7NodeRefNtNtB13_6marker5OwnedNtNtBa_6string6StringTINtNtB6_3set8BTreeSetB1G_EINtNtCsc29TF2YcYso_3syn10punctuated10PunctuatedNtCshnvkK9b4wzu_11proc_macro211TokenStreamNtNtB2x_5token4PlusEENtB1n_14LeafOrInternalENCINvMss_B13_B10_19push_internal_levelNtNtBa_5alloc6GlobalE0E0Cs9PzovR4aYST_14thiserror_impl, symObjAddr: 0x18E8, symBinAddr: 0x23AF4, symSize: 0x28 }
  - { offset: 0x5F701, size: 0x8, addend: 0x0, symName: __RNCINvNtNtNtCsiTraAjBDcu4_5alloc11collections5btree3mem8take_mutINtNtB6_4node7NodeRefNtNtB13_6marker5OwnedRNtCshnvkK9b4wzu_11proc_macro25IdentNtNtB6_7set_val9SetValZSTNtB1n_14LeafOrInternalENCINvMss_B13_B10_19push_internal_levelNtNtBa_5alloc6GlobalE0E0Cs9PzovR4aYST_14thiserror_impl, symObjAddr: 0x1910, symBinAddr: 0x23B1C, symSize: 0x28 }
  - { offset: 0x5F74E, size: 0x8, addend: 0x0, symName: __RNCINvNtNtNtCsiTraAjBDcu4_5alloc11collections5btree3mem8take_mutINtNtB6_4node7NodeRefNtNtB13_6marker5OwnedTjNtNtCs9PzovR4aYST_14thiserror_impl4attr5TraitENtNtB6_7set_val9SetValZSTNtB1n_14LeafOrInternalENCINvMss_B13_B10_19push_internal_levelNtNtBa_5alloc6GlobalE0E0B1M_, symObjAddr: 0x1938, symBinAddr: 0x23B44, symSize: 0x28 }
  - { offset: 0x605A3, size: 0x8, addend: 0x0, symName: __RNvMs9_NtCsaNl6UpbT7bw_4core3numj11checked_addCs9PzovR4aYST_14thiserror_impl, symObjAddr: 0x1C34, symBinAddr: 0x23E40, symSize: 0x74 }
  - { offset: 0x6062D, size: 0x8, addend: 0x0, symName: __RNvNvMs9_NtCsaNl6UpbT7bw_4core3numj13unchecked_add18precondition_checkCs9PzovR4aYST_14thiserror_impl, symObjAddr: 0x1D60, symBinAddr: 0x23F6C, symSize: 0xB0 }
  - { offset: 0x606E5, size: 0x8, addend: 0x0, symName: __RNvNvMs3_NtCsaNl6UpbT7bw_4core3numi13unchecked_neg18precondition_checkCs9PzovR4aYST_14thiserror_impl, symObjAddr: 0x1CA8, symBinAddr: 0x23EB4, symSize: 0xB8 }
  - { offset: 0x616D2, size: 0x8, addend: 0x0, symName: __RINvNtNtNtCsaNl6UpbT7bw_4core5slice4sort6stable14driftsort_mainRNtCshnvkK9b4wzu_11proc_macro25IdentNvYBZ_NtNtB8_3cmp10PartialOrd2ltINtNtCsiTraAjBDcu4_5alloc3vec3VecBZ_EECs9PzovR4aYST_14thiserror_impl, symObjAddr: 0x54, symBinAddr: 0x22260, symSize: 0x290 }
  - { offset: 0x61927, size: 0x8, addend: 0x0, symName: __RINvNtNtNtNtCsaNl6UpbT7bw_4core5slice4sort6stable9quicksort16stable_partitionRNtCshnvkK9b4wzu_11proc_macro25IdentNCINvB2_9quicksortB1d_NvYB1d_NtNtBa_3cmp10PartialOrd2ltE0ECs9PzovR4aYST_14thiserror_impl, symObjAddr: 0x9B0, symBinAddr: 0x22BBC, symSize: 0x560 }
  - { offset: 0x61DA5, size: 0x8, addend: 0x0, symName: __RINvNtNtNtNtCsaNl6UpbT7bw_4core5slice4sort6stable9quicksort16stable_partitionRNtCshnvkK9b4wzu_11proc_macro25IdentNvYB1d_NtNtBa_3cmp10PartialOrd2ltECs9PzovR4aYST_14thiserror_impl, symObjAddr: 0xF10, symBinAddr: 0x2311C, symSize: 0x560 }
  - { offset: 0x62223, size: 0x8, addend: 0x0, symName: __RINvNtNtNtNtCsaNl6UpbT7bw_4core5slice4sort6stable9quicksort9quicksortRNtCshnvkK9b4wzu_11proc_macro25IdentNvYB15_NtNtBa_3cmp10PartialOrd2ltECs9PzovR4aYST_14thiserror_impl, symObjAddr: 0x1470, symBinAddr: 0x2367C, symSize: 0x3A8 }
  - { offset: 0x624BB, size: 0x8, addend: 0x0, symName: __RNCINvNtNtNtNtCsaNl6UpbT7bw_4core5slice4sort6stable9quicksort9quicksortRNtCshnvkK9b4wzu_11proc_macro25IdentNvYB17_NtNtBc_3cmp10PartialOrd2ltE0Cs9PzovR4aYST_14thiserror_impl, symObjAddr: 0x1960, symBinAddr: 0x23B6C, symSize: 0x48 }
  - { offset: 0x65759, size: 0x8, addend: 0x0, symName: __RNCINvNvXs_NtNtNtCsaNl6UpbT7bw_4core4iter8adapters9enumerateINtB9_9EnumeratepENtNtNtBd_6traits8iterator8Iterator8try_fold9enumerateRNtNtCsc29TF2YcYso_3syn4data5FielduINtNtNtBf_3ops12control_flow11ControlFlowIB2F_NtNtCs9PzovR4aYST_14thiserror_impl3ast5FieldEENCINvNtBb_3map12map_try_foldTjB25_EINtNtBf_6result6ResultB3o_NtNtB2a_5error5ErrorEuB2E_NCNvMs2_B3q_B3o_17multiple_from_syn0NCINvXBb_INtBb_12GenericShuntINtB4d_3MapIBX_INtNtB2a_10punctuated4IterB26_EEB5x_EIB4I_NtNtBf_7convert10InfallibleB57_EEB1e_8try_folduNCINvNvB1e_12try_for_each4callB3o_B3j_NcNtB3j_5Break0E0B3j_E0E0E0B3s_, symObjAddr: 0x19A8, symBinAddr: 0x23BB4, symSize: 0xCC }
  - { offset: 0x657F0, size: 0x8, addend: 0x0, symName: __RINvXs_NtNtNtCsaNl6UpbT7bw_4core4iter8adapters9enumerateINtB5_9EnumerateINtNtCsc29TF2YcYso_3syn10punctuated4IterNtNtB1d_4data5FieldEENtNtNtB9_6traits8iterator8Iterator8try_folduNCINvNtB7_3map12map_try_foldTjRB1M_EINtNtBb_6result6ResultNtNtCs9PzovR4aYST_14thiserror_impl3ast5FieldNtNtB1d_5error5ErrorEuINtNtNtBb_3ops12control_flow11ControlFlowIB4Q_B3L_EENCNvMs2_B3N_B3L_17multiple_from_syn0NCINvXB7_INtB7_12GenericShuntINtB2U_3MapBS_B5F_EIB3q_NtNtBb_7convert10InfallibleB4t_EEB27_8try_folduNCINvNvB27_12try_for_each4callB3L_B5u_NcNtB5u_5Break0E0B5u_E0E0B4P_EB3P_, symObjAddr: 0x1818, symBinAddr: 0x23A24, symSize: 0x4C }
  - { offset: 0x65883, size: 0x8, addend: 0x0, symName: __RNvXs_NtNtNtCsaNl6UpbT7bw_4core4iter8adapters9enumerateINtB4_9EnumerateINtNtCsc29TF2YcYso_3syn10punctuated4IterNtNtB1c_4data5FieldEENtNtNtB8_6traits8iterator8Iterator9size_hintCs9PzovR4aYST_14thiserror_impl, symObjAddr: 0x1E54, symBinAddr: 0x24060, symSize: 0x24 }
  - { offset: 0x658B8, size: 0x8, addend: 0x0, symName: __RNvXs_NtNtNtCsaNl6UpbT7bw_4core4iter8adapters9enumerateINtB4_9EnumerateINtNtNtBa_5slice4iter4IterNtCshnvkK9b4wzu_11proc_macro25IdentEENtNtNtB8_6traits8iterator8Iterator4nextCs9PzovR4aYST_14thiserror_impl, symObjAddr: 0x1E78, symBinAddr: 0x24084, symSize: 0xE0 }
  - { offset: 0x6599A, size: 0x8, addend: 0x0, symName: __RNvXs_NtNtNtCsaNl6UpbT7bw_4core4iter8adapters9enumerateINtB4_9EnumerateINtNtNtBa_5slice4iter4IterNtNtCs9PzovR4aYST_14thiserror_impl3ast5FieldEENtNtNtB8_6traits8iterator8Iterator4nextB1B_, symObjAddr: 0x1F58, symBinAddr: 0x24164, symSize: 0xE0 }
  - { offset: 0x65A7C, size: 0x8, addend: 0x0, symName: __RNvXs_NtNtNtCsaNl6UpbT7bw_4core4iter8adapters9enumerateINtB4_9EnumerateINtNtNtBa_5slice4iter4IterNtNtCsiTraAjBDcu4_5alloc6string6StringEENtNtNtB8_6traits8iterator8Iterator4nextCs9PzovR4aYST_14thiserror_impl, symObjAddr: 0x2038, symBinAddr: 0x24244, symSize: 0xE0 }
  - { offset: 0x65B5E, size: 0x8, addend: 0x0, symName: __RNvXs_NtNtNtCsaNl6UpbT7bw_4core4iter8adapters9enumerateINtB4_9EnumerateINtNtNtBa_5slice4iter4IterRNtCshnvkK9b4wzu_11proc_macro25IdentEENtNtNtB8_6traits8iterator8Iterator4nextCs9PzovR4aYST_14thiserror_impl, symObjAddr: 0x2118, symBinAddr: 0x24324, symSize: 0xE0 }
  - { offset: 0x65C40, size: 0x8, addend: 0x0, symName: __RNvXs_NtNtNtCsaNl6UpbT7bw_4core4iter8adapters9enumerateINtB4_9EnumerateINtNtNtBa_5slice4iter4IterTjNtNtCs9PzovR4aYST_14thiserror_impl4attr5TraitEEENtNtNtB8_6traits8iterator8Iterator4nextB1D_, symObjAddr: 0x21F8, symBinAddr: 0x24404, symSize: 0xE0 }
  - { offset: 0x65EDD, size: 0x8, addend: 0x0, symName: __RNvXs0_NtNtNtCsaNl6UpbT7bw_4core4iter8adapters10filter_mapINtB5_9FilterMapINtNtNtBb_5slice4iter4IterNtNtCs9PzovR4aYST_14thiserror_impl3ast7VariantENCNvNtB1E_6expand9impl_enums2_0ENtNtNtB9_6traits8iterator8Iterator4nextB1E_, symObjAddr: 0x1E28, symBinAddr: 0x24034, symSize: 0x2C }
  - { offset: 0x65F88, size: 0x8, addend: 0x0, symName: __RINvYINtNtNtNtCsaNl6UpbT7bw_4core4iter8adapters9enumerate9EnumerateINtNtCsc29TF2YcYso_3syn10punctuated4IterNtNtB18_4data5FieldEENtNtNtBa_6traits8iterator8Iterator3mapINtNtBc_6result6ResultNtNtCs9PzovR4aYST_14thiserror_impl3ast5FieldNtNtB18_5error5ErrorENCNvMs2_B32_B30_17multiple_from_syn0EB34_, symObjAddr: 0x1864, symBinAddr: 0x23A70, symSize: 0x34 }
  - { offset: 0x66001, size: 0x8, addend: 0x0, symName: __RNvXNtNtNtCsaNl6UpbT7bw_4core4iter6traits7collectINtNtNtB6_8adapters9enumerate9EnumerateINtNtNtB8_5slice4iter4IterNtNtCs9PzovR4aYST_14thiserror_impl3ast5FieldEENtB2_12IntoIterator9into_iterB1S_, symObjAddr: 0x1E10, symBinAddr: 0x2401C, symSize: 0x18 }
  - { offset: 0x66E31, size: 0x8, addend: 0x0, symName: __RNvNtCs9PzovR4aYST_14thiserror_impl3fmt19explicit_named_args, symObjAddr: 0x2C5C, symBinAddr: 0x24E68, symSize: 0x3B8 }
  - { offset: 0x66EE9, size: 0x8, addend: 0x0, symName: __RNvNtCs9PzovR4aYST_14thiserror_impl3fmt23try_explicit_named_args, symObjAddr: 0x3014, symBinAddr: 0x25220, symSize: 0x5F4 }
  - { offset: 0x66FEB, size: 0x8, addend: 0x0, symName: __RNvNtCs9PzovR4aYST_14thiserror_impl3fmt28fallback_explicit_named_args, symObjAddr: 0x3608, symBinAddr: 0x25814, symSize: 0x4B8 }
  - { offset: 0x670DF, size: 0x8, addend: 0x0, symName: __RNvNtCs9PzovR4aYST_14thiserror_impl3fmt11is_syn_full, symObjAddr: 0x3AC0, symBinAddr: 0x25CCC, symSize: 0x21C }
  - { offset: 0x67146, size: 0x8, addend: 0x0, symName: __RNvNtCs9PzovR4aYST_14thiserror_impl3fmt8take_int, symObjAddr: 0x3CDC, symBinAddr: 0x25EE8, symSize: 0x1F8 }
  - { offset: 0x671C2, size: 0x8, addend: 0x0, symName: __RNvNtCs9PzovR4aYST_14thiserror_impl3fmt10take_ident, symObjAddr: 0x3ED4, symBinAddr: 0x260E0, symSize: 0x3F8 }
  - { offset: 0x67F03, size: 0x8, addend: 0x0, symName: __RNvMNtNtNtCsaNl6UpbT7bw_4core5slice4sort6stableINtB2_14AlignedStorageRNtCshnvkK9b4wzu_11proc_macro25IdentKj1000_E19as_uninit_slice_mutCs9PzovR4aYST_14thiserror_impl, symObjAddr: 0x1A74, symBinAddr: 0x23C80, symSize: 0x80 }
  - { offset: 0x67FB7, size: 0x8, addend: 0x0, symName: __RNvMNtNtNtNtCsaNl6UpbT7bw_4core5slice4sort6stable9quicksortINtB2_14PartitionStateRNtCshnvkK9b4wzu_11proc_macro25IdentE13partition_oneCs9PzovR4aYST_14thiserror_impl, symObjAddr: 0x1AF4, symBinAddr: 0x23D00, symSize: 0x140 }
  - { offset: 0x681DA, size: 0x8, addend: 0x0, symName: __RNvYINtNtNtNtCsaNl6UpbT7bw_4core4iter8adapters10filter_map9FilterMapINtNtNtBb_5slice4iter4IterNtNtCs9PzovR4aYST_14thiserror_impl3ast7VariantENCNvNtB1y_6expand9impl_enums2_0ENtNtNtCs4EAaWzSXu1l_5quote9___private3ext14RepIteratorExt15quote_into_iterB1y_, symObjAddr: 0x2940, symBinAddr: 0x24B4C, symSize: 0x40 }
  - { offset: 0x68225, size: 0x8, addend: 0x0, symName: __RNvYRNtNtCsc29TF2YcYso_3syn4data5FieldNtNtCs4EAaWzSXu1l_5quote9to_tokens8ToTokens15to_token_streamCs9PzovR4aYST_14thiserror_impl, symObjAddr: 0x2A9C, symBinAddr: 0x24CA8, symSize: 0x8C }
  - { offset: 0x6826F, size: 0x8, addend: 0x0, symName: __RNvYRNtNtCsc29TF2YcYso_3syn4data5FieldNtNtCs4EAaWzSXu1l_5quote9to_tokens8ToTokens17into_token_streamCs9PzovR4aYST_14thiserror_impl, symObjAddr: 0x2B28, symBinAddr: 0x24D34, symSize: 0x54 }
  - { offset: 0x682A4, size: 0x8, addend: 0x0, symName: __RNvYRNtNtCsc29TF2YcYso_3syn4data7VariantNtNtCs4EAaWzSXu1l_5quote9to_tokens8ToTokens15to_token_streamCs9PzovR4aYST_14thiserror_impl, symObjAddr: 0x2B7C, symBinAddr: 0x24D88, symSize: 0x8C }
  - { offset: 0x682EE, size: 0x8, addend: 0x0, symName: __RNvYRNtNtCsc29TF2YcYso_3syn4data7VariantNtNtCs4EAaWzSXu1l_5quote9to_tokens8ToTokens17into_token_streamCs9PzovR4aYST_14thiserror_impl, symObjAddr: 0x2C08, symBinAddr: 0x24E14, symSize: 0x54 }
  - { offset: 0x686E0, size: 0x8, addend: 0x0, symName: __RINvMNtCsaNl6UpbT7bw_4core6resultINtB3_6ResultNtNtCs9PzovR4aYST_14thiserror_impl3ast4EnumNtNtCsc29TF2YcYso_3syn5error5ErrorE3mapNtBK_5InputNcNtB22_4Enum0EBM_, symObjAddr: 0x0, symBinAddr: 0x264D8, symSize: 0xDC }
  - { offset: 0x687A9, size: 0x8, addend: 0x0, symName: __RINvNtNtNtCs7yrEGia95Wz_10proc_macro6bridge6client5state3setINtNtCsaNl6UpbT7bw_4core6option6OptionNtB4_11TokenStreamENCNCINvB4_10run_clientB1y_BW_NCNCINvMs6_B4_INtB4_6ClientNtB8_11TokenStreamB2L_E7expand1NvCs9PzovR4aYST_14thiserror_impl12derive_errorE00E00EB3i_, symObjAddr: 0xB74, symBinAddr: 0x26E2C, symSize: 0xE8 }
  - { offset: 0x68888, size: 0x8, addend: 0x0, symName: __RNCNkNvNtNtNtCs7yrEGia95Wz_10proc_macro6bridge6client5state12BRIDGE_STATE0s_0Cs9PzovR4aYST_14thiserror_impl, symObjAddr: 0xF80, symBinAddr: 0x27238, symSize: 0x30 }
  - { offset: 0x68D9A, size: 0x8, addend: 0x0, symName: __RNvXsV_NtCs7yrEGia95Wz_10proc_macro6bridgeINtNtCsaNl6UpbT7bw_4core6result6ResultINtNtBJ_6option6OptionNtNtB5_6client11TokenStreamEuEINtNtB5_3rpc6EncodeuE6encodeCs9PzovR4aYST_14thiserror_impl, symObjAddr: 0x22E8, symBinAddr: 0x285A0, symSize: 0x110 }
  - { offset: 0x68E5E, size: 0x8, addend: 0x0, symName: __RNvXsV_NtCs7yrEGia95Wz_10proc_macro6bridgeINtNtCsaNl6UpbT7bw_4core6result6ResultuNtNtB5_3rpc12PanicMessageEINtB1j_6EncodeuE6encodeCs9PzovR4aYST_14thiserror_impl, symObjAddr: 0x23F8, symBinAddr: 0x286B0, symSize: 0x12C }
  - { offset: 0x6AD92, size: 0x8, addend: 0x0, symName: __RINvXso_NtCsaNl6UpbT7bw_4core6resultINtB6_6ResultINtNtCsiTraAjBDcu4_5alloc3vec3VecNtNtCs9PzovR4aYST_14thiserror_impl3ast5FieldENtNtCsc29TF2YcYso_3syn5error5ErrorEINtNtNtNtB8_4iter6traits7collect12FromIteratorIBz_B1i_B21_EE9from_iterINtNtNtB2H_8adapters3map3MapINtNtB3N_9enumerate9EnumerateINtNtB25_10punctuated4IterNtNtB25_4data5FieldEENCNvMs2_B1k_B1i_17multiple_from_syn0EEB1m_, symObjAddr: 0xD60, symBinAddr: 0x27018, symSize: 0x34 }
  - { offset: 0x6ADE5, size: 0x8, addend: 0x0, symName: __RINvXso_NtCsaNl6UpbT7bw_4core6resultINtB6_6ResultINtNtCsiTraAjBDcu4_5alloc3vec3VecNtNtCs9PzovR4aYST_14thiserror_impl3ast7VariantENtNtCsc29TF2YcYso_3syn5error5ErrorEINtNtNtNtB8_4iter6traits7collect12FromIteratorIBz_B1i_B23_EE9from_iterINtNtNtB2J_8adapters3map3MapINtNtB27_10punctuated4IterNtNtB27_4data7VariantENCNvMs0_B1k_NtB1k_4Enum8from_syn0EEB1m_, symObjAddr: 0xD94, symBinAddr: 0x2704C, symSize: 0x34 }
  - { offset: 0x6AE3D, size: 0x8, addend: 0x0, symName: __RNCINvXso_NtCsaNl6UpbT7bw_4core6resultINtB8_6ResultINtNtCsiTraAjBDcu4_5alloc3vec3VecNtNtCs9PzovR4aYST_14thiserror_impl3ast5FieldENtNtCsc29TF2YcYso_3syn5error5ErrorEINtNtNtNtBa_4iter6traits7collect12FromIteratorIBB_B1k_B23_EE9from_iterINtNtNtB2J_8adapters3map3MapINtNtB3P_9enumerate9EnumerateINtNtB27_10punctuated4IterNtNtB27_4data5FieldEENCNvMs2_B1m_B1k_17multiple_from_syn0EE0B1o_, symObjAddr: 0xF30, symBinAddr: 0x271E8, symSize: 0x28 }
  - { offset: 0x6AE9B, size: 0x8, addend: 0x0, symName: __RNCINvXso_NtCsaNl6UpbT7bw_4core6resultINtB8_6ResultINtNtCsiTraAjBDcu4_5alloc3vec3VecNtNtCs9PzovR4aYST_14thiserror_impl3ast7VariantENtNtCsc29TF2YcYso_3syn5error5ErrorEINtNtNtNtBa_4iter6traits7collect12FromIteratorIBB_B1k_B25_EE9from_iterINtNtNtB2L_8adapters3map3MapINtNtB29_10punctuated4IterNtNtB29_4data7VariantENCNvMs0_B1m_NtB1m_4Enum8from_syn0EE0B1o_, symObjAddr: 0xF58, symBinAddr: 0x27210, symSize: 0x28 }
  - { offset: 0x6B063, size: 0x8, addend: 0x0, symName: __RNvXsp_NtCsaNl6UpbT7bw_4core6resultINtB5_6ResultINtNtB7_6option6OptionNtCshnvkK9b4wzu_11proc_macro29TokenTreeENtNtCsc29TF2YcYso_3syn5error5ErrorENtNtNtB7_3ops9try_trait3Try6branchCs9PzovR4aYST_14thiserror_impl, symObjAddr: 0x2BDC, symBinAddr: 0x28E94, symSize: 0x9C }
  - { offset: 0x6B0E0, size: 0x8, addend: 0x0, symName: __RNvXsp_NtCsaNl6UpbT7bw_4core6resultINtB5_6ResultINtNtCsiTraAjBDcu4_5alloc3vec3VecNtNtCs9PzovR4aYST_14thiserror_impl3ast5FieldENtNtCsc29TF2YcYso_3syn5error5ErrorENtNtNtB7_3ops9try_trait3Try11from_outputB1l_, symObjAddr: 0x2C78, symBinAddr: 0x28F30, symSize: 0x18 }
  - { offset: 0x6B120, size: 0x8, addend: 0x0, symName: __RNvXsp_NtCsaNl6UpbT7bw_4core6resultINtB5_6ResultINtNtCsiTraAjBDcu4_5alloc3vec3VecNtNtCs9PzovR4aYST_14thiserror_impl3ast5FieldENtNtCsc29TF2YcYso_3syn5error5ErrorENtNtNtB7_3ops9try_trait3Try6branchB1l_, symObjAddr: 0x2C90, symBinAddr: 0x28F48, symSize: 0x94 }
  - { offset: 0x6B19D, size: 0x8, addend: 0x0, symName: __RNvXsp_NtCsaNl6UpbT7bw_4core6resultINtB5_6ResultINtNtCsiTraAjBDcu4_5alloc3vec3VecNtNtCs9PzovR4aYST_14thiserror_impl3ast7VariantENtNtCsc29TF2YcYso_3syn5error5ErrorENtNtNtB7_3ops9try_trait3Try11from_outputB1l_, symObjAddr: 0x2D24, symBinAddr: 0x28FDC, symSize: 0x18 }
  - { offset: 0x6B1DD, size: 0x8, addend: 0x0, symName: __RNvXsp_NtCsaNl6UpbT7bw_4core6resultINtB5_6ResultINtNtCsiTraAjBDcu4_5alloc3vec3VecNtNtCs9PzovR4aYST_14thiserror_impl3ast7VariantENtNtCsc29TF2YcYso_3syn5error5ErrorENtNtNtB7_3ops9try_trait3Try6branchB1l_, symObjAddr: 0x2D3C, symBinAddr: 0x28FF4, symSize: 0x94 }
  - { offset: 0x6B25A, size: 0x8, addend: 0x0, symName: __RNvXsp_NtCsaNl6UpbT7bw_4core6resultINtB5_6ResultNtCshnvkK9b4wzu_11proc_macro29TokenTreeNtNtCsc29TF2YcYso_3syn5error5ErrorENtNtNtB7_3ops9try_trait3Try6branchCs9PzovR4aYST_14thiserror_impl, symObjAddr: 0x2DD0, symBinAddr: 0x29088, symSize: 0x9C }
  - { offset: 0x6B2D7, size: 0x8, addend: 0x0, symName: __RNvXsp_NtCsaNl6UpbT7bw_4core6resultINtB5_6ResultNtNtCs9PzovR4aYST_14thiserror_impl3ast5FieldNtNtCsc29TF2YcYso_3syn5error5ErrorENtNtNtB7_3ops9try_trait3Try6branchBO_, symObjAddr: 0x2E6C, symBinAddr: 0x29124, symSize: 0xCC }
  - { offset: 0x6B355, size: 0x8, addend: 0x0, symName: __RNvXsp_NtCsaNl6UpbT7bw_4core6resultINtB5_6ResultNtNtCs9PzovR4aYST_14thiserror_impl3ast5InputNtNtCsc29TF2YcYso_3syn5error5ErrorENtNtNtB7_3ops9try_trait3Try6branchBO_, symObjAddr: 0x2F38, symBinAddr: 0x291F0, symSize: 0xC0 }
  - { offset: 0x6B3D3, size: 0x8, addend: 0x0, symName: __RNvXsp_NtCsaNl6UpbT7bw_4core6resultINtB5_6ResultNtNtCs9PzovR4aYST_14thiserror_impl3ast7VariantNtNtCsc29TF2YcYso_3syn5error5ErrorENtNtNtB7_3ops9try_trait3Try6branchBO_, symObjAddr: 0x2FF8, symBinAddr: 0x292B0, symSize: 0xB8 }
  - { offset: 0x6B451, size: 0x8, addend: 0x0, symName: __RNvXsp_NtCsaNl6UpbT7bw_4core6resultINtB5_6ResultNtNtCs9PzovR4aYST_14thiserror_impl3fmt12FmtArgumentsNtNtCsc29TF2YcYso_3syn5error5ErrorENtNtNtB7_3ops9try_trait3Try6branchBO_, symObjAddr: 0x30B0, symBinAddr: 0x29368, symSize: 0x9C }
  - { offset: 0x6B4CE, size: 0x8, addend: 0x0, symName: __RNvXsp_NtCsaNl6UpbT7bw_4core6resultINtB5_6ResultNtNtCs9PzovR4aYST_14thiserror_impl4attr5AttrsNtNtCsc29TF2YcYso_3syn5error5ErrorENtNtNtB7_3ops9try_trait3Try6branchBO_, symObjAddr: 0x314C, symBinAddr: 0x29404, symSize: 0xC4 }
  - { offset: 0x6B54B, size: 0x8, addend: 0x0, symName: __RNvXsp_NtCsaNl6UpbT7bw_4core6resultINtB5_6ResultNtNtCsc29TF2YcYso_3syn6derive11DeriveInputNtNtBO_5error5ErrorENtNtNtB7_3ops9try_trait3Try6branchCs9PzovR4aYST_14thiserror_impl, symObjAddr: 0x3210, symBinAddr: 0x294C8, symSize: 0xB4 }
  - { offset: 0x6B5C9, size: 0x8, addend: 0x0, symName: __RNvXsp_NtCsaNl6UpbT7bw_4core6resultINtB5_6ResultNtNvNtCs9PzovR4aYST_14thiserror_impl4attr21parse_error_attribute11transparentNtNtCsc29TF2YcYso_3syn5error5ErrorENtNtNtB7_3ops9try_trait3Try6branchBQ_, symObjAddr: 0x32C4, symBinAddr: 0x2957C, symSize: 0x88 }
  - { offset: 0x6B647, size: 0x8, addend: 0x0, symName: __RNvXsp_NtCsaNl6UpbT7bw_4core6resultINtB5_6ResultRNtNtCsc29TF2YcYso_3syn4path4PathNtNtBP_5error5ErrorENtNtNtB7_3ops9try_trait3Try6branchCs9PzovR4aYST_14thiserror_impl, symObjAddr: 0x334C, symBinAddr: 0x29604, symSize: 0x88 }
  - { offset: 0x6B6C5, size: 0x8, addend: 0x0, symName: __RNvXsp_NtCsaNl6UpbT7bw_4core6resultINtB5_6ResultTNtNvNtCs9PzovR4aYST_14thiserror_impl4attr21parse_error_attribute11transparentNtNtCsc29TF2YcYso_3syn6buffer6CursorENtNtB24_5error5ErrorENtNtNtB7_3ops9try_trait3Try6branchBR_, symObjAddr: 0x33D4, symBinAddr: 0x2968C, symSize: 0x94 }
  - { offset: 0x6B742, size: 0x8, addend: 0x0, symName: __RNvXsp_NtCsaNl6UpbT7bw_4core6resultINtB5_6ResultTbNtNtCsc29TF2YcYso_3syn6buffer6CursorENtNtBQ_5error5ErrorENtNtNtB7_3ops9try_trait3Try6branchCs9PzovR4aYST_14thiserror_impl, symObjAddr: 0x3468, symBinAddr: 0x29720, symSize: 0x94 }
  - { offset: 0x6B7C5, size: 0x8, addend: 0x0, symName: __RNvXsq_NtCsaNl6UpbT7bw_4core6resultINtB5_6ResultINtNtB7_6option6OptionNtCshnvkK9b4wzu_11proc_macro29TokenTreeENtNtCsc29TF2YcYso_3syn5error5ErrorEINtNtNtB7_3ops9try_trait12FromResidualIBy_NtNtB7_7convert10InfallibleB1K_EE13from_residualCs9PzovR4aYST_14thiserror_impl, symObjAddr: 0x34FC, symBinAddr: 0x297B4, symSize: 0x48 }
  - { offset: 0x6B84A, size: 0x8, addend: 0x0, symName: __RNvXsq_NtCsaNl6UpbT7bw_4core6resultINtB5_6ResultINtNtCsiTraAjBDcu4_5alloc3vec3VecNtNtCs9PzovR4aYST_14thiserror_impl3ast5FieldENtNtCsc29TF2YcYso_3syn5error5ErrorEINtNtNtB7_3ops9try_trait12FromResidualIBy_NtNtB7_7convert10InfallibleB20_EE13from_residualB1l_, symObjAddr: 0x3544, symBinAddr: 0x297FC, symSize: 0x48 }
  - { offset: 0x6B8CF, size: 0x8, addend: 0x0, symName: __RNvXsq_NtCsaNl6UpbT7bw_4core6resultINtB5_6ResultINtNtCsiTraAjBDcu4_5alloc3vec3VecNtNtCs9PzovR4aYST_14thiserror_impl3ast7VariantENtNtCsc29TF2YcYso_3syn5error5ErrorEINtNtNtB7_3ops9try_trait12FromResidualIBy_NtNtB7_7convert10InfallibleB22_EE13from_residualB1l_, symObjAddr: 0x358C, symBinAddr: 0x29844, symSize: 0x48 }
  - { offset: 0x6B954, size: 0x8, addend: 0x0, symName: __RNvXsq_NtCsaNl6UpbT7bw_4core6resultINtB5_6ResultNtCshnvkK9b4wzu_11proc_macro25IdentNtNtCsc29TF2YcYso_3syn5error5ErrorEINtNtNtB7_3ops9try_trait12FromResidualIBy_NtNtB7_7convert10InfallibleNtBM_8LexErrorEE13from_residualCs9PzovR4aYST_14thiserror_impl, symObjAddr: 0x35D4, symBinAddr: 0x2988C, symSize: 0x4C }
  - { offset: 0x6B9BB, size: 0x8, addend: 0x0, symName: __RNvXsq_NtCsaNl6UpbT7bw_4core6resultINtB5_6ResultNtNtCs9PzovR4aYST_14thiserror_impl3ast4EnumNtNtCsc29TF2YcYso_3syn5error5ErrorEINtNtNtB7_3ops9try_trait12FromResidualIBy_NtNtB7_7convert10InfallibleB1r_EE13from_residualBO_, symObjAddr: 0x3620, symBinAddr: 0x298D8, symSize: 0x48 }
  - { offset: 0x6BA40, size: 0x8, addend: 0x0, symName: __RNvXsq_NtCsaNl6UpbT7bw_4core6resultINtB5_6ResultNtNtCs9PzovR4aYST_14thiserror_impl3ast5FieldNtNtCsc29TF2YcYso_3syn5error5ErrorEINtNtNtB7_3ops9try_trait12FromResidualIBy_NtNtB7_7convert10InfallibleB1s_EE13from_residualBO_, symObjAddr: 0x3668, symBinAddr: 0x29920, symSize: 0x4C }
  - { offset: 0x6BAC5, size: 0x8, addend: 0x0, symName: __RNvXsq_NtCsaNl6UpbT7bw_4core6resultINtB5_6ResultNtNtCs9PzovR4aYST_14thiserror_impl3ast6StructNtNtCsc29TF2YcYso_3syn5error5ErrorEINtNtNtB7_3ops9try_trait12FromResidualIBy_NtNtB7_7convert10InfallibleB1t_EE13from_residualBO_, symObjAddr: 0x36B4, symBinAddr: 0x2996C, symSize: 0x48 }
  - { offset: 0x6BB4A, size: 0x8, addend: 0x0, symName: __RNvXsq_NtCsaNl6UpbT7bw_4core6resultINtB5_6ResultNtNtCs9PzovR4aYST_14thiserror_impl3ast7VariantNtNtCsc29TF2YcYso_3syn5error5ErrorEINtNtNtB7_3ops9try_trait12FromResidualIBy_NtNtB7_7convert10InfallibleB1u_EE13from_residualBO_, symObjAddr: 0x36FC, symBinAddr: 0x299B4, symSize: 0x48 }
  - { offset: 0x6BBCF, size: 0x8, addend: 0x0, symName: __RNvXsq_NtCsaNl6UpbT7bw_4core6resultINtB5_6ResultNtNtCs9PzovR4aYST_14thiserror_impl3fmt12FmtArgumentsNtNtCsc29TF2YcYso_3syn5error5ErrorEINtNtNtB7_3ops9try_trait12FromResidualIBy_NtNtB7_7convert10InfallibleB1A_EE13from_residualBO_, symObjAddr: 0x3744, symBinAddr: 0x299FC, symSize: 0x48 }
  - { offset: 0x6BC54, size: 0x8, addend: 0x0, symName: __RNvXsq_NtCsaNl6UpbT7bw_4core6resultINtB5_6ResultNtNtCs9PzovR4aYST_14thiserror_impl4attr5AttrsNtNtCsc29TF2YcYso_3syn5error5ErrorEINtNtNtB7_3ops9try_trait12FromResidualIBy_NtNtB7_7convert10InfallibleB1t_EE13from_residualBO_, symObjAddr: 0x378C, symBinAddr: 0x29A44, symSize: 0x4C }
  - { offset: 0x6BCD9, size: 0x8, addend: 0x0, symName: __RNvXsq_NtCsaNl6UpbT7bw_4core6resultINtB5_6ResultNtNvNtCs9PzovR4aYST_14thiserror_impl4attr21parse_error_attribute11transparentNtNtCsc29TF2YcYso_3syn5error5ErrorEINtNtNtB7_3ops9try_trait12FromResidualIBy_NtNtB7_7convert10InfallibleB1Z_EE13from_residualBQ_, symObjAddr: 0x37D8, symBinAddr: 0x29A90, symSize: 0x40 }
  - { offset: 0x7009B, size: 0x8, addend: 0x0, symName: __RNvXsn_NtNtCsaNl6UpbT7bw_4core5panic11unwind_safeINtB5_16AssertUnwindSafeNCINvNtNtCs7yrEGia95Wz_10proc_macro6bridge6client10run_clientNtB1e_11TokenStreamINtNtB9_6option6OptionB28_ENCNCINvMs6_B1e_INtB1e_6ClientNtB1i_11TokenStreamB3l_E7expand1NvCs9PzovR4aYST_14thiserror_impl12derive_errorE00E0EINtNtNtB9_3ops8function6FnOnceuE9call_onceB3T_, symObjAddr: 0x2BA4, symBinAddr: 0x28E5C, symSize: 0x38 }
  - { offset: 0x70487, size: 0x8, addend: 0x0, symName: __RINvYNtNtCshnvkK9b4wzu_11proc_macro212token_stream8IntoIterNtNtNtNtCsaNl6UpbT7bw_4core4iter6traits8iterator8Iterator4folduNCINvNvBV_8for_each4callNtB7_9TokenTreeNCINvXsa_NtB7_8fallbackNtB2I_11TokenStreamINtNtBZ_7collect6ExtendB2k_E6extendNtB7_11TokenStreamE0E0ECs9PzovR4aYST_14thiserror_impl, symObjAddr: 0xDC8, symBinAddr: 0x27080, symSize: 0x108 }
  - { offset: 0x70518, size: 0x8, addend: 0x0, symName: __RINvYNtNtCshnvkK9b4wzu_11proc_macro212token_stream8IntoIterNtNtNtNtCsaNl6UpbT7bw_4core4iter6traits8iterator8Iterator8for_eachNCINvXsa_NtB7_8fallbackNtB28_11TokenStreamINtNtBZ_7collect6ExtendNtB7_9TokenTreeE6extendNtB7_11TokenStreamE0ECs9PzovR4aYST_14thiserror_impl, symObjAddr: 0xED0, symBinAddr: 0x27188, symSize: 0x24 }
  - { offset: 0x70AFA, size: 0x8, addend: 0x0, symName: __RNvXs1_NtNtNtCsaNl6UpbT7bw_4core5array4iter10iter_innerINtB5_15PolymorphicIterAINtNtNtBb_3mem12maybe_uninit11MaybeUninitjEj2_ENtNtNtBb_3ops4drop4Drop4dropCs9PzovR4aYST_14thiserror_impl, symObjAddr: 0x20D4, symBinAddr: 0x2838C, symSize: 0x38 }
  - { offset: 0x70BC2, size: 0x8, addend: 0x0, symName: __RNvNvNtCsaNl6UpbT7bw_4core4hint21unreachable_unchecked18precondition_checkCs9PzovR4aYST_14thiserror_impl, symObjAddr: 0x18D4, symBinAddr: 0x27B8C, symSize: 0x84 }
  - { offset: 0x76D0F, size: 0x8, addend: 0x0, symName: __RINvXsd_NtCsiTraAjBDcu4_5alloc3vecINtB6_3VecNtCshnvkK9b4wzu_11proc_macro211TokenStreamEINtNtNtNtCsaNl6UpbT7bw_4core4iter6traits7collect12FromIteratorBG_E9from_iterINtNtNtB1u_8adapters3map3MapINtNtNtB1w_5slice4iter4IterNtNtCs9PzovR4aYST_14thiserror_impl3ast7VariantENCNvNtB3y_6expand9impl_enums1_0EEB3y_, symObjAddr: 0xC6C, symBinAddr: 0x26F24, symSize: 0x3C }
  - { offset: 0x76D50, size: 0x8, addend: 0x0, symName: __RINvXsd_NtCsiTraAjBDcu4_5alloc3vecINtB6_3VecNtNtCs9PzovR4aYST_14thiserror_impl3ast5FieldEINtNtNtNtCsaNl6UpbT7bw_4core4iter6traits7collect12FromIteratorBG_E9from_iterINtNtB1w_8adapters12GenericShuntINtNtB2G_3map3MapINtNtB2G_9enumerate9EnumerateINtNtCsc29TF2YcYso_3syn10punctuated4IterNtNtB3Y_4data5FieldEENCNvMs2_BI_BG_17multiple_from_syn0EINtNtB1y_6result6ResultNtNtB1y_7convert10InfallibleNtNtB3Y_5error5ErrorEEEBK_, symObjAddr: 0xCA8, symBinAddr: 0x26F60, symSize: 0x3C }
  - { offset: 0x76D91, size: 0x8, addend: 0x0, symName: __RINvXsd_NtCsiTraAjBDcu4_5alloc3vecINtB6_3VecNtNtCs9PzovR4aYST_14thiserror_impl3ast7VariantEINtNtNtNtCsaNl6UpbT7bw_4core4iter6traits7collect12FromIteratorBG_E9from_iterINtNtB1y_8adapters12GenericShuntINtNtB2I_3map3MapINtNtCsc29TF2YcYso_3syn10punctuated4IterNtNtB3x_4data7VariantENCNvMs0_BI_NtBI_4Enum8from_syn0EINtNtB1A_6result6ResultNtNtB1A_7convert10InfallibleNtNtB3x_5error5ErrorEEEBK_, symObjAddr: 0xCE4, symBinAddr: 0x26F9C, symSize: 0x3C }
  - { offset: 0x76DD2, size: 0x8, addend: 0x0, symName: __RINvXsd_NtCsiTraAjBDcu4_5alloc3vecINtB6_3VecRNtCshnvkK9b4wzu_11proc_macro25IdentEINtNtNtNtCsaNl6UpbT7bw_4core4iter6traits7collect12FromIteratorBG_E9from_iterINtNtNtB1o_8adapters3map3MapNtNtCsc29TF2YcYso_3syn8generics10TypeParamsNCNvMNtCs9PzovR4aYST_14thiserror_impl8genericsNtB3J_13ParamsInScope3new0EEB3L_, symObjAddr: 0xD20, symBinAddr: 0x26FD8, symSize: 0x40 }
  - { offset: 0x76E1D, size: 0x8, addend: 0x0, symName: __RNCINvMsi_NtCsiTraAjBDcu4_5alloc3vecINtB8_3VecNtCshnvkK9b4wzu_11proc_macro211TokenStreamE14extend_trustedINtNtNtNtCsaNl6UpbT7bw_4core4iter8adapters3map3MapINtNtNtB1O_5slice4iter4IterNtNtCs9PzovR4aYST_14thiserror_impl3ast7VariantENCNvNtB2Y_6expand9impl_enums1_0EE0B2Y_, symObjAddr: 0xEF4, symBinAddr: 0x271AC, symSize: 0x3C }
  - { offset: 0x76EDE, size: 0x8, addend: 0x0, symName: __RNvXNtNtCsiTraAjBDcu4_5alloc3vec11spec_extendINtB4_3VecNtNtCs9PzovR4aYST_14thiserror_impl3ast5FieldEINtB2_10SpecExtendBR_INtNtNtCsaNl6UpbT7bw_4core4iter8adapters12GenericShuntINtNtB1Y_3map3MapINtNtB1Y_9enumerate9EnumerateINtNtCsc29TF2YcYso_3syn10punctuated4IterNtNtB3C_4data5FieldEENCNvMs2_BT_BR_17multiple_from_syn0EINtNtB22_6result6ResultNtNtB22_7convert10InfallibleNtNtB3C_5error5ErrorEEE11spec_extendBV_, symObjAddr: 0x1958, symBinAddr: 0x27C10, symSize: 0x24 }
  - { offset: 0x76F30, size: 0x8, addend: 0x0, symName: __RNvXNtNtCsiTraAjBDcu4_5alloc3vec11spec_extendINtB4_3VecNtNtCs9PzovR4aYST_14thiserror_impl3ast7VariantEINtB2_10SpecExtendBR_INtNtNtCsaNl6UpbT7bw_4core4iter8adapters12GenericShuntINtNtB20_3map3MapINtNtCsc29TF2YcYso_3syn10punctuated4IterNtNtB3b_4data7VariantENCNvMs0_BT_NtBT_4Enum8from_syn0EINtNtB24_6result6ResultNtNtB24_7convert10InfallibleNtNtB3b_5error5ErrorEEE11spec_extendBV_, symObjAddr: 0x197C, symBinAddr: 0x27C34, symSize: 0x24 }
  - { offset: 0x76F82, size: 0x8, addend: 0x0, symName: __RNvXNtNtCsiTraAjBDcu4_5alloc3vec11spec_extendINtB4_3VecRNtCshnvkK9b4wzu_11proc_macro25IdentEINtB2_10SpecExtendBR_INtNtNtNtCsaNl6UpbT7bw_4core4iter8adapters3map3MapNtNtCsc29TF2YcYso_3syn8generics10TypeParamsNCNvMNtCs9PzovR4aYST_14thiserror_impl8genericsNtB3n_13ParamsInScope3new0EE11spec_extendB3p_, symObjAddr: 0x19A0, symBinAddr: 0x27C58, symSize: 0x34 }
  - { offset: 0x76FD9, size: 0x8, addend: 0x0, symName: __RNvXs_NtNtCsiTraAjBDcu4_5alloc3vec11spec_extendINtB6_3VecNtCshnvkK9b4wzu_11proc_macro211TokenStreamEINtB4_10SpecExtendBT_INtNtNtNtCsaNl6UpbT7bw_4core4iter8adapters3map3MapINtNtNtB24_5slice4iter4IterNtNtCs9PzovR4aYST_14thiserror_impl3ast7VariantENCNvNtB3e_6expand9impl_enums1_0EE11spec_extendB3e_, symObjAddr: 0x2524, symBinAddr: 0x287DC, symSize: 0x24 }
  - { offset: 0x77037, size: 0x8, addend: 0x0, symName: __RNvXNtNtCsiTraAjBDcu4_5alloc3vec14spec_from_iterINtB4_3VecNtCshnvkK9b4wzu_11proc_macro211TokenStreamEINtB2_12SpecFromIterBU_INtNtNtNtCsaNl6UpbT7bw_4core4iter8adapters3map3MapINtNtNtB27_5slice4iter4IterNtNtCs9PzovR4aYST_14thiserror_impl3ast7VariantENCNvNtB3h_6expand9impl_enums1_0EE9from_iterB3h_, symObjAddr: 0x19D4, symBinAddr: 0x27C8C, symSize: 0x14 }
  - { offset: 0x77076, size: 0x8, addend: 0x0, symName: __RNvXNtNtCsiTraAjBDcu4_5alloc3vec14spec_from_iterINtB4_3VecNtNtCs9PzovR4aYST_14thiserror_impl3ast5FieldEINtB2_12SpecFromIterBU_INtNtNtCsaNl6UpbT7bw_4core4iter8adapters12GenericShuntINtNtB23_3map3MapINtNtB23_9enumerate9EnumerateINtNtCsc29TF2YcYso_3syn10punctuated4IterNtNtB3H_4data5FieldEENCNvMs2_BW_BU_17multiple_from_syn0EINtNtB27_6result6ResultNtNtB27_7convert10InfallibleNtNtB3H_5error5ErrorEEE9from_iterBY_, symObjAddr: 0x19E8, symBinAddr: 0x27CA0, symSize: 0x14 }
  - { offset: 0x770B5, size: 0x8, addend: 0x0, symName: __RNvXNtNtCsiTraAjBDcu4_5alloc3vec14spec_from_iterINtB4_3VecNtNtCs9PzovR4aYST_14thiserror_impl3ast7VariantEINtB2_12SpecFromIterBU_INtNtNtCsaNl6UpbT7bw_4core4iter8adapters12GenericShuntINtNtB25_3map3MapINtNtCsc29TF2YcYso_3syn10punctuated4IterNtNtB3g_4data7VariantENCNvMs0_BW_NtBW_4Enum8from_syn0EINtNtB29_6result6ResultNtNtB29_7convert10InfallibleNtNtB3g_5error5ErrorEEE9from_iterBY_, symObjAddr: 0x19FC, symBinAddr: 0x27CB4, symSize: 0x14 }
  - { offset: 0x770F4, size: 0x8, addend: 0x0, symName: __RNvXNtNtCsiTraAjBDcu4_5alloc3vec14spec_from_iterINtB4_3VecRNtCshnvkK9b4wzu_11proc_macro25IdentEINtB2_12SpecFromIterBU_INtNtNtNtCsaNl6UpbT7bw_4core4iter8adapters3map3MapNtNtCsc29TF2YcYso_3syn8generics10TypeParamsNCNvMNtCs9PzovR4aYST_14thiserror_impl8genericsNtB3s_13ParamsInScope3new0EE9from_iterB3u_, symObjAddr: 0x1A10, symBinAddr: 0x27CC8, symSize: 0x2C }
  - { offset: 0x7713E, size: 0x8, addend: 0x0, symName: __RNvXNtNtCsiTraAjBDcu4_5alloc3vec21spec_from_iter_nestedINtB4_3VecNtNtCs9PzovR4aYST_14thiserror_impl3ast5FieldEINtB2_18SpecFromIterNestedB11_INtNtNtCsaNl6UpbT7bw_4core4iter8adapters12GenericShuntINtNtB2h_3map3MapINtNtB2h_9enumerate9EnumerateINtNtCsc29TF2YcYso_3syn10punctuated4IterNtNtB3V_4data5FieldEENCNvMs2_B13_B11_17multiple_from_syn0EINtNtB2l_6result6ResultNtNtB2l_7convert10InfallibleNtNtB3V_5error5ErrorEEE9from_iterB15_, symObjAddr: 0x1A3C, symBinAddr: 0x27CF4, symSize: 0x24C }
  - { offset: 0x7735D, size: 0x8, addend: 0x0, symName: __RNvXNtNtCsiTraAjBDcu4_5alloc3vec21spec_from_iter_nestedINtB4_3VecNtNtCs9PzovR4aYST_14thiserror_impl3ast7VariantEINtB2_18SpecFromIterNestedB11_INtNtNtCsaNl6UpbT7bw_4core4iter8adapters12GenericShuntINtNtB2j_3map3MapINtNtCsc29TF2YcYso_3syn10punctuated4IterNtNtB3u_4data7VariantENCNvMs0_B13_NtB13_4Enum8from_syn0EINtNtB2n_6result6ResultNtNtB2n_7convert10InfallibleNtNtB3u_5error5ErrorEEE9from_iterB15_, symObjAddr: 0x1C88, symBinAddr: 0x27F40, symSize: 0x248 }
  - { offset: 0x7757C, size: 0x8, addend: 0x0, symName: __RNvXNtNtCsiTraAjBDcu4_5alloc3vec21spec_from_iter_nestedINtB4_3VecRNtCshnvkK9b4wzu_11proc_macro25IdentEINtB2_18SpecFromIterNestedB11_INtNtNtNtCsaNl6UpbT7bw_4core4iter8adapters3map3MapNtNtCsc29TF2YcYso_3syn8generics10TypeParamsNCNvMNtCs9PzovR4aYST_14thiserror_impl8genericsNtB3G_13ParamsInScope3new0EE9from_iterB3I_, symObjAddr: 0x1ED0, symBinAddr: 0x28188, symSize: 0x204 }
  - { offset: 0x777A0, size: 0x8, addend: 0x0, symName: __RNvXs_NtNtCsiTraAjBDcu4_5alloc3vec21spec_from_iter_nestedINtB6_3VecNtCshnvkK9b4wzu_11proc_macro211TokenStreamEINtB4_18SpecFromIterNestedB13_INtNtNtNtCsaNl6UpbT7bw_4core4iter8adapters3map3MapINtNtNtB2n_5slice4iter4IterNtNtCs9PzovR4aYST_14thiserror_impl3ast7VariantENCNvNtB3x_6expand9impl_enums1_0EE9from_iterB3x_, symObjAddr: 0x2548, symBinAddr: 0x28800, symSize: 0x168 }
  - { offset: 0x7787E, size: 0x8, addend: 0x0, symName: __RNvXs6_NtCsiTraAjBDcu4_5alloc3vecINtB5_3VecNtCshnvkK9b4wzu_11proc_macro211TokenStreamENtNtNtCsaNl6UpbT7bw_4core3ops5deref5Deref5derefCs9PzovR4aYST_14thiserror_impl, symObjAddr: 0x2144, symBinAddr: 0x283FC, symSize: 0x24 }
  - { offset: 0x778BE, size: 0x8, addend: 0x0, symName: __RNvXs6_NtCsiTraAjBDcu4_5alloc3vecINtB5_3VecNtNtCs9PzovR4aYST_14thiserror_impl3ast5FieldENtNtNtCsaNl6UpbT7bw_4core3ops5deref5Deref5derefBJ_, symObjAddr: 0x2168, symBinAddr: 0x28420, symSize: 0x24 }
  - { offset: 0x778FE, size: 0x8, addend: 0x0, symName: __RNvXs6_NtCsiTraAjBDcu4_5alloc3vecINtB5_3VecNtNtCs9PzovR4aYST_14thiserror_impl3ast7VariantENtNtNtCsaNl6UpbT7bw_4core3ops5deref5Deref5derefBJ_, symObjAddr: 0x218C, symBinAddr: 0x28444, symSize: 0x24 }
  - { offset: 0x7793E, size: 0x8, addend: 0x0, symName: __RNvXs6_NtCsiTraAjBDcu4_5alloc3vecINtB5_3VecTNtCshnvkK9b4wzu_11proc_macro211TokenStreamNtNtCsc29TF2YcYso_3syn5token4PlusEENtNtNtCsaNl6UpbT7bw_4core3ops5deref5Deref5derefCs9PzovR4aYST_14thiserror_impl, symObjAddr: 0x21B0, symBinAddr: 0x28468, symSize: 0x24 }
  - { offset: 0x77A74, size: 0x8, addend: 0x0, symName: __RNvXsb_NtCsiTraAjBDcu4_5alloc3vecINtB5_3VecNtNtCs9PzovR4aYST_14thiserror_impl3ast5FieldEINtNtNtCsaNl6UpbT7bw_4core3ops5index5IndexjE5indexBJ_, symObjAddr: 0x26B0, symBinAddr: 0x28968, symSize: 0x8C }
  - { offset: 0x77BF6, size: 0x8, addend: 0x0, symName: __RNvXsb_NtCsiTraAjBDcu4_5alloc3vecINtB5_3VecTNtNtCsc29TF2YcYso_3syn4path15GenericArgumentNtNtBK_5token5CommaEEINtNtNtCsaNl6UpbT7bw_4core3ops5index5IndexjE5indexCs9PzovR4aYST_14thiserror_impl, symObjAddr: 0x273C, symBinAddr: 0x289F4, symSize: 0x8C }
  - { offset: 0x77D7E, size: 0x8, addend: 0x0, symName: __RNvXse_NtCsiTraAjBDcu4_5alloc3vecINtB5_3VecRNtCshnvkK9b4wzu_11proc_macro25IdentENtNtNtNtCsaNl6UpbT7bw_4core4iter6traits7collect12IntoIterator9into_iterCs9PzovR4aYST_14thiserror_impl, symObjAddr: 0x27C8, symBinAddr: 0x28A80, symSize: 0xDC }
  - { offset: 0x78016, size: 0x8, addend: 0x0, symName: __RNvXsf_NtCsiTraAjBDcu4_5alloc3vecRINtB5_3VecNtCshnvkK9b4wzu_11proc_macro211TokenStreamENtNtNtNtCsaNl6UpbT7bw_4core4iter6traits7collect12IntoIterator9into_iterCs9PzovR4aYST_14thiserror_impl, symObjAddr: 0x28A4, symBinAddr: 0x28B5C, symSize: 0xA4 }
  - { offset: 0x78254, size: 0x8, addend: 0x0, symName: __RNvXsf_NtCsiTraAjBDcu4_5alloc3vecRINtB5_3VecNtNtCs9PzovR4aYST_14thiserror_impl3ast5FieldENtNtNtNtCsaNl6UpbT7bw_4core4iter6traits7collect12IntoIterator9into_iterBK_, symObjAddr: 0x2948, symBinAddr: 0x28C00, symSize: 0xAC }
  - { offset: 0x78492, size: 0x8, addend: 0x0, symName: __RNvXsf_NtCsiTraAjBDcu4_5alloc3vecRINtB5_3VecNtNtCs9PzovR4aYST_14thiserror_impl3ast7VariantENtNtNtNtCsaNl6UpbT7bw_4core4iter6traits7collect12IntoIterator9into_iterBK_, symObjAddr: 0x29F4, symBinAddr: 0x28CAC, symSize: 0xAC }
  - { offset: 0x786D6, size: 0x8, addend: 0x0, symName: __RNvXsn_NtCsiTraAjBDcu4_5alloc3vecINtB5_3VecNtCshnvkK9b4wzu_11proc_macro211TokenStreamENtNtNtCsaNl6UpbT7bw_4core3ops4drop4Drop4dropCs9PzovR4aYST_14thiserror_impl, symObjAddr: 0x2AA0, symBinAddr: 0x28D58, symSize: 0x38 }
  - { offset: 0x78786, size: 0x8, addend: 0x0, symName: __RNvXsn_NtCsiTraAjBDcu4_5alloc3vecINtB5_3VecNtNtCs9PzovR4aYST_14thiserror_impl3ast5FieldENtNtNtCsaNl6UpbT7bw_4core3ops4drop4Drop4dropBJ_, symObjAddr: 0x2AD8, symBinAddr: 0x28D90, symSize: 0x38 }
  - { offset: 0x78836, size: 0x8, addend: 0x0, symName: __RNvXsn_NtCsiTraAjBDcu4_5alloc3vecINtB5_3VecNtNtCs9PzovR4aYST_14thiserror_impl3ast7VariantENtNtNtCsaNl6UpbT7bw_4core3ops4drop4Drop4dropBJ_, symObjAddr: 0x2B10, symBinAddr: 0x28DC8, symSize: 0x38 }
  - { offset: 0x788E6, size: 0x8, addend: 0x0, symName: __RNvXsn_NtCsiTraAjBDcu4_5alloc3vecINtB5_3VecRNtCshnvkK9b4wzu_11proc_macro25IdentENtNtNtCsaNl6UpbT7bw_4core3ops4drop4Drop4dropCs9PzovR4aYST_14thiserror_impl, symObjAddr: 0x2B48, symBinAddr: 0x28E00, symSize: 0x24 }
  - { offset: 0x78996, size: 0x8, addend: 0x0, symName: __RNvXsn_NtCsiTraAjBDcu4_5alloc3vecINtB5_3VecTNtCshnvkK9b4wzu_11proc_macro211TokenStreamNtNtCsc29TF2YcYso_3syn5token4PlusEENtNtNtCsaNl6UpbT7bw_4core3ops4drop4Drop4dropCs9PzovR4aYST_14thiserror_impl, symObjAddr: 0x2B6C, symBinAddr: 0x28E24, symSize: 0x38 }
  - { offset: 0x79F4F, size: 0x8, addend: 0x0, symName: __RNvXs8_NtCsiTraAjBDcu4_5alloc5sliceINtNtB7_3vec3VecRNtCshnvkK9b4wzu_11proc_macro25IdentEINtNtNtNtCsaNl6UpbT7bw_4core5slice4sort6stable8BufGuardBN_E13with_capacityCs9PzovR4aYST_14thiserror_impl, symObjAddr: 0x21D4, symBinAddr: 0x2848C, symSize: 0x48 }
  - { offset: 0x79FF0, size: 0x8, addend: 0x0, symName: __RNvXs8_NtCsiTraAjBDcu4_5alloc5sliceINtNtB7_3vec3VecRNtCshnvkK9b4wzu_11proc_macro25IdentEINtNtNtNtCsaNl6UpbT7bw_4core5slice4sort6stable8BufGuardBN_E19as_uninit_slice_mutCs9PzovR4aYST_14thiserror_impl, symObjAddr: 0x221C, symBinAddr: 0x284D4, symSize: 0xCC }
  - { offset: 0x7A91B, size: 0x8, addend: 0x0, symName: __RINvXNtNtNtNtCsht3nMU9UgFu_3std3sys12thread_local6native4lazyzNtB3_14DestroyedState13register_dtorINtNtCsaNl6UpbT7bw_4core4cell4CellTyyEEECs9PzovR4aYST_14thiserror_impl, symObjAddr: 0xC5C, symBinAddr: 0x26F14, symSize: 0x10 }
  - { offset: 0x7A966, size: 0x8, addend: 0x0, symName: __RINvMNtCsaNl6UpbT7bw_4core6resultINtB3_6ResultNtNtCs9PzovR4aYST_14thiserror_impl3ast4EnumNtNtCsc29TF2YcYso_3syn5error5ErrorE3mapNtBK_5InputNcNtB22_4Enum0EBM_, symObjAddr: 0x0, symBinAddr: 0x264D8, symSize: 0xDC }
  - { offset: 0x7AA11, size: 0x8, addend: 0x0, symName: __RINvMNtCsaNl6UpbT7bw_4core6resultINtB3_6ResultNtNtCs9PzovR4aYST_14thiserror_impl3ast6StructNtNtCsc29TF2YcYso_3syn5error5ErrorE3mapNtBK_5InputNcNtB24_6Struct0EBM_, symObjAddr: 0xDC, symBinAddr: 0x265B4, symSize: 0xDC }
  - { offset: 0x7AB61, size: 0x8, addend: 0x0, symName: __RINvMs0_NtNtNtNtCsht3nMU9UgFu_3std3sys12thread_local6native4lazyINtB6_7StorageINtNtCsaNl6UpbT7bw_4core4cell4CellTyyEEzE11get_or_initNvNvNvMNtNtBe_4hash6randomNtB2d_11RandomState3new4KEYS6___initECs9PzovR4aYST_14thiserror_impl, symObjAddr: 0x1B8, symBinAddr: 0x26690, symSize: 0xA4 }
  - { offset: 0x7AD6C, size: 0x8, addend: 0x0, symName: __RINvMs0_NtNtNtNtCsht3nMU9UgFu_3std3sys12thread_local6native4lazyINtB6_7StorageINtNtCsaNl6UpbT7bw_4core4cell4CellTyyEEzE16get_or_init_slowNvNvNvMNtNtBe_4hash6randomNtB2i_11RandomState3new4KEYS6___initECs9PzovR4aYST_14thiserror_impl, symObjAddr: 0x25C, symBinAddr: 0x1B4850, symSize: 0x220 }
  - { offset: 0x7B3DC, size: 0x8, addend: 0x0, symName: __RINvMsi_NtCsiTraAjBDcu4_5alloc3vecINtB6_3VecNtCshnvkK9b4wzu_11proc_macro211TokenStreamE14extend_trustedINtNtNtNtCsaNl6UpbT7bw_4core4iter8adapters3map3MapINtNtNtB1M_5slice4iter4IterNtNtCs9PzovR4aYST_14thiserror_impl3ast7VariantENCNvNtB2W_6expand9impl_enums1_0EEB2W_, symObjAddr: 0x47C, symBinAddr: 0x26734, symSize: 0x178 }
  - { offset: 0x7B838, size: 0x8, addend: 0x0, symName: __RINvMsi_NtCsiTraAjBDcu4_5alloc3vecINtB6_3VecNtNtCs9PzovR4aYST_14thiserror_impl3ast5FieldE16extend_desugaredINtNtNtCsaNl6UpbT7bw_4core4iter8adapters12GenericShuntINtNtB1K_3map3MapINtNtB1K_9enumerate9EnumerateINtNtCsc29TF2YcYso_3syn10punctuated4IterNtNtB3o_4data5FieldEENCNvMs2_BI_BG_17multiple_from_syn0EINtNtB1O_6result6ResultNtNtB1O_7convert10InfallibleNtNtB3o_5error5ErrorEEEBK_, symObjAddr: 0x5F4, symBinAddr: 0x268AC, symSize: 0x1FC }
  - { offset: 0x7BC4A, size: 0x8, addend: 0x0, symName: __RINvMsi_NtCsiTraAjBDcu4_5alloc3vecINtB6_3VecNtNtCs9PzovR4aYST_14thiserror_impl3ast7VariantE16extend_desugaredINtNtNtCsaNl6UpbT7bw_4core4iter8adapters12GenericShuntINtNtB1M_3map3MapINtNtCsc29TF2YcYso_3syn10punctuated4IterNtNtB2X_4data7VariantENCNvMs0_BI_NtBI_4Enum8from_syn0EINtNtB1Q_6result6ResultNtNtB1Q_7convert10InfallibleNtNtB2X_5error5ErrorEEEBK_, symObjAddr: 0x7F0, symBinAddr: 0x26AA8, symSize: 0x1F8 }
  - { offset: 0x7C04F, size: 0x8, addend: 0x0, symName: __RINvMsi_NtCsiTraAjBDcu4_5alloc3vecINtB6_3VecRNtCshnvkK9b4wzu_11proc_macro25IdentE16extend_desugaredINtNtNtNtCsaNl6UpbT7bw_4core4iter8adapters3map3MapNtNtCsc29TF2YcYso_3syn8generics10TypeParamsNCNvMNtCs9PzovR4aYST_14thiserror_impl8genericsNtB39_13ParamsInScope3new0EEB3b_, symObjAddr: 0x9E8, symBinAddr: 0x26CA0, symSize: 0x18C }
  - { offset: 0x7C3B9, size: 0x8, addend: 0x0, symName: __RNvMNtCsaNl6UpbT7bw_4core6resultINtB2_6ResultNtNtCsc29TF2YcYso_3syn2op5BinOpNtNtBL_5error5ErrorE5is_okCs9PzovR4aYST_14thiserror_impl, symObjAddr: 0xFB0, symBinAddr: 0x27268, symSize: 0x2C }
  - { offset: 0x7C3FB, size: 0x8, addend: 0x0, symName: __RNvMNtCsaNl6UpbT7bw_4core6resultINtB2_6ResultNtNtCsc29TF2YcYso_3syn4expr4ExprNtNtBL_5error5ErrorE5is_okCs9PzovR4aYST_14thiserror_impl, symObjAddr: 0xFDC, symBinAddr: 0x27294, symSize: 0x2C }
  - { offset: 0x7C430, size: 0x8, addend: 0x0, symName: __RNvMNtCsiTraAjBDcu4_5alloc3vecINtB2_3VecNtCshnvkK9b4wzu_11proc_macro211TokenStreamE3newCs9PzovR4aYST_14thiserror_impl, symObjAddr: 0x1008, symBinAddr: 0x272C0, symSize: 0x14 }
  - { offset: 0x7C44D, size: 0x8, addend: 0x0, symName: __RNvMNtCsiTraAjBDcu4_5alloc3vecINtB2_3VecTNtCshnvkK9b4wzu_11proc_macro211TokenStreamNtNtCsc29TF2YcYso_3syn5token4PlusEE3newCs9PzovR4aYST_14thiserror_impl, symObjAddr: 0x101C, symBinAddr: 0x272D4, symSize: 0x14 }
  - { offset: 0x7C5BA, size: 0x8, addend: 0x0, symName: __RNvMs6_NtNtNtCsaNl6UpbT7bw_4core5array4iter10iter_innerINtB5_15PolymorphicIterSINtNtNtBb_3mem12maybe_uninit11MaybeUninitjEE4nextCs9PzovR4aYST_14thiserror_impl, symObjAddr: 0x1030, symBinAddr: 0x272E8, symSize: 0x190 }
  - { offset: 0x7C8CF, size: 0x8, addend: 0x0, symName: __RNvMs_NtCsiTraAjBDcu4_5alloc3vecINtB4_3VecNtCshnvkK9b4wzu_11proc_macro211TokenStreamE4pushCs9PzovR4aYST_14thiserror_impl, symObjAddr: 0x11C0, symBinAddr: 0x27478, symSize: 0x100 }
  - { offset: 0x7CBB3, size: 0x8, addend: 0x0, symName: __RNvMs_NtCsiTraAjBDcu4_5alloc3vecINtB4_3VecNtCshnvkK9b4wzu_11proc_macro211TokenStreamE7reserveCs9PzovR4aYST_14thiserror_impl, symObjAddr: 0x12C0, symBinAddr: 0x27578, symSize: 0xC8 }
  - { offset: 0x7CDBE, size: 0x8, addend: 0x0, symName: __RNvMs_NtCsiTraAjBDcu4_5alloc3vecINtB4_3VecNtCshnvkK9b4wzu_11proc_macro211TokenStreamE8as_sliceCs9PzovR4aYST_14thiserror_impl, symObjAddr: 0x1388, symBinAddr: 0x27640, symSize: 0x6C }
  - { offset: 0x7CE78, size: 0x8, addend: 0x0, symName: __RNvMs_NtCsiTraAjBDcu4_5alloc3vecINtB4_3VecNtNtCs9PzovR4aYST_14thiserror_impl3ast5FieldE3lenBI_, symObjAddr: 0x13F4, symBinAddr: 0x276AC, symSize: 0x18 }
  - { offset: 0x7CFC3, size: 0x8, addend: 0x0, symName: __RNvMs_NtCsiTraAjBDcu4_5alloc3vecINtB4_3VecNtNtCs9PzovR4aYST_14thiserror_impl3ast5FieldE7reserveBI_, symObjAddr: 0x140C, symBinAddr: 0x276C4, symSize: 0xC8 }
  - { offset: 0x7D1C1, size: 0x8, addend: 0x0, symName: __RNvMs_NtCsiTraAjBDcu4_5alloc3vecINtB4_3VecNtNtCs9PzovR4aYST_14thiserror_impl3ast5FieldE8as_sliceBI_, symObjAddr: 0x14D4, symBinAddr: 0x2778C, symSize: 0x6C }
  - { offset: 0x7D391, size: 0x8, addend: 0x0, symName: __RNvMs_NtCsiTraAjBDcu4_5alloc3vecINtB4_3VecNtNtCs9PzovR4aYST_14thiserror_impl3ast7VariantE7reserveBI_, symObjAddr: 0x1540, symBinAddr: 0x277F8, symSize: 0xC8 }
  - { offset: 0x7D58F, size: 0x8, addend: 0x0, symName: __RNvMs_NtCsiTraAjBDcu4_5alloc3vecINtB4_3VecNtNtCs9PzovR4aYST_14thiserror_impl3ast7VariantE8as_sliceBI_, symObjAddr: 0x1608, symBinAddr: 0x278C0, symSize: 0x6C }
  - { offset: 0x7D66E, size: 0x8, addend: 0x0, symName: __RNvMs_NtCsiTraAjBDcu4_5alloc3vecINtB4_3VecNtNtCs9PzovR4aYST_14thiserror_impl3ast7VariantE8is_emptyBI_, symObjAddr: 0x1674, symBinAddr: 0x2792C, symSize: 0x20 }
  - { offset: 0x7D7D7, size: 0x8, addend: 0x0, symName: __RNvMs_NtCsiTraAjBDcu4_5alloc3vecINtB4_3VecRNtCshnvkK9b4wzu_11proc_macro25IdentE7reserveCs9PzovR4aYST_14thiserror_impl, symObjAddr: 0x1694, symBinAddr: 0x2794C, symSize: 0xBC }
  - { offset: 0x7DA51, size: 0x8, addend: 0x0, symName: __RNvMs_NtCsiTraAjBDcu4_5alloc3vecINtB4_3VecTNtCshnvkK9b4wzu_11proc_macro211TokenStreamNtNtCsc29TF2YcYso_3syn5token4PlusEE4pushCs9PzovR4aYST_14thiserror_impl, symObjAddr: 0x1750, symBinAddr: 0x27A08, symSize: 0x118 }
  - { offset: 0x7DCAA, size: 0x8, addend: 0x0, symName: __RNvMs_NtCsiTraAjBDcu4_5alloc3vecINtB4_3VecTNtCshnvkK9b4wzu_11proc_macro211TokenStreamNtNtCsc29TF2YcYso_3syn5token4PlusEE8as_sliceCs9PzovR4aYST_14thiserror_impl, symObjAddr: 0x1868, symBinAddr: 0x27B20, symSize: 0x6C }
  - { offset: 0x7E14A, size: 0x8, addend: 0x0, symName: __RNvXs4_NtNtCs4EAaWzSXu1l_5quote9___private3extINtNtCsiTraAjBDcu4_5alloc3vec3VecNtCshnvkK9b4wzu_11proc_macro211TokenStreamENtB5_16RepAsIteratorExt15quote_into_iterCs9PzovR4aYST_14thiserror_impl, symObjAddr: 0x210C, symBinAddr: 0x283C4, symSize: 0x38 }
  - { offset: 0x7EF12, size: 0x8, addend: 0x0, symName: __RINvMsc_NtNtNtCsiTraAjBDcu4_5alloc11collections5btree3setINtB6_8BTreeSetRNtCshnvkK9b4wzu_11proc_macro25IdentE8containsB19_ECs9PzovR4aYST_14thiserror_impl, symObjAddr: 0x0, symBinAddr: 0x29AD0, symSize: 0x54 }
  - { offset: 0x7F6C7, size: 0x8, addend: 0x0, symName: __RINvXs7_NtCshnvkK9b4wzu_11proc_macro23impNtB6_11TokenStreamINtNtNtNtCsaNl6UpbT7bw_4core4iter6traits7collect6ExtendNtB8_9TokenTreeE6extendNtB8_11TokenStreamECs9PzovR4aYST_14thiserror_impl, symObjAddr: 0xD38, symBinAddr: 0x2A808, symSize: 0x164 }
  - { offset: 0x7F763, size: 0x8, addend: 0x0, symName: __RNvXsA_NtCshnvkK9b4wzu_11proc_macro23impNtB5_19DeferredTokenStreamNtNtCsaNl6UpbT7bw_4core5clone5Clone5cloneCs9PzovR4aYST_14thiserror_impl, symObjAddr: 0x2A1C, symBinAddr: 0x2C4EC, symSize: 0x90 }
  - { offset: 0x7F795, size: 0x8, addend: 0x0, symName: __RNvXsF_NtCshnvkK9b4wzu_11proc_macro23impNtB5_5IdentNtNtCsaNl6UpbT7bw_4core5clone5Clone5cloneCs9PzovR4aYST_14thiserror_impl, symObjAddr: 0x2AAC, symBinAddr: 0x2C57C, symSize: 0x9C }
  - { offset: 0x7F805, size: 0x8, addend: 0x0, symName: __RNvXsz_NtCshnvkK9b4wzu_11proc_macro23impNtB5_11TokenStreamNtNtCsaNl6UpbT7bw_4core5clone5Clone5cloneCs9PzovR4aYST_14thiserror_impl, symObjAddr: 0x38F4, symBinAddr: 0x2D3C4, symSize: 0x98 }
  - { offset: 0x80127, size: 0x8, addend: 0x0, symName: __RINvNvXs0_NtNtNtCsiTraAjBDcu4_5alloc11collections5btree3mapINtB8_8BTreeMappppENtNtCsaNl6UpbT7bw_4core5clone5Clone5clone13clone_subtreeTjNtNtCs9PzovR4aYST_14thiserror_impl4attr5TraitENtNtBa_7set_val9SetValZSTNtNtBe_5alloc6GlobalEB2e_, symObjAddr: 0x40C, symBinAddr: 0x29EDC, symSize: 0x92C }
  - { offset: 0x807FA, size: 0x8, addend: 0x0, symName: __RNvXs0_NtNtNtCsiTraAjBDcu4_5alloc11collections5btree3mapINtB5_8BTreeMapTjNtNtCs9PzovR4aYST_14thiserror_impl4attr5TraitENtNtB7_7set_val9SetValZSTENtNtCsaNl6UpbT7bw_4core5clone5Clone5cloneB1d_, symObjAddr: 0x27A4, symBinAddr: 0x2C274, symSize: 0xF4 }
  - { offset: 0x8124C, size: 0x8, addend: 0x0, symName: __RNvXNtNtNtCsiTraAjBDcu4_5alloc11collections5btree3mapINtB2_8BTreeMapNtCshnvkK9b4wzu_11proc_macro25IdentNtNtB4_7set_val9SetValZSTENtNtNtCsaNl6UpbT7bw_4core3ops4drop4Drop4dropCs9PzovR4aYST_14thiserror_impl, symObjAddr: 0x2434, symBinAddr: 0x2BF04, symSize: 0x4C }
  - { offset: 0x812C9, size: 0x8, addend: 0x0, symName: __RNvXNtNtNtCsiTraAjBDcu4_5alloc11collections5btree3mapINtB2_8BTreeMapNtNtB8_6string6StringNtNtB4_7set_val9SetValZSTENtNtNtCsaNl6UpbT7bw_4core3ops4drop4Drop4dropCs9PzovR4aYST_14thiserror_impl, symObjAddr: 0x2480, symBinAddr: 0x2BF50, symSize: 0x4C }
  - { offset: 0x81346, size: 0x8, addend: 0x0, symName: __RNvXNtNtNtCsiTraAjBDcu4_5alloc11collections5btree3mapINtB2_8BTreeMapNtNtB8_6string6StringTINtNtB4_3set8BTreeSetB14_EINtNtCsc29TF2YcYso_3syn10punctuated10PunctuatedNtCshnvkK9b4wzu_11proc_macro211TokenStreamNtNtB1V_5token4PlusEEENtNtNtCsaNl6UpbT7bw_4core3ops4drop4Drop4dropCs9PzovR4aYST_14thiserror_impl, symObjAddr: 0x24CC, symBinAddr: 0x2BF9C, symSize: 0x4C }
  - { offset: 0x813C3, size: 0x8, addend: 0x0, symName: __RNvXNtNtNtCsiTraAjBDcu4_5alloc11collections5btree3mapINtB2_8BTreeMapRNtCshnvkK9b4wzu_11proc_macro25IdentNtNtB4_7set_val9SetValZSTENtNtNtCsaNl6UpbT7bw_4core3ops4drop4Drop4dropCs9PzovR4aYST_14thiserror_impl, symObjAddr: 0x2518, symBinAddr: 0x2BFE8, symSize: 0x4C }
  - { offset: 0x81440, size: 0x8, addend: 0x0, symName: __RNvXNtNtNtCsiTraAjBDcu4_5alloc11collections5btree3mapINtB2_8BTreeMapTjNtNtCs9PzovR4aYST_14thiserror_impl4attr5TraitENtNtB4_7set_val9SetValZSTENtNtNtCsaNl6UpbT7bw_4core3ops4drop4Drop4dropB1a_, symObjAddr: 0x2564, symBinAddr: 0x2C034, symSize: 0x4C }
  - { offset: 0x814CD, size: 0x8, addend: 0x0, symName: __RNvXNvXsw_NtNtNtCsiTraAjBDcu4_5alloc11collections5btree3mapINtB8_8IntoIterpppENtNtNtCsaNl6UpbT7bw_4core3ops4drop4Drop4dropINtB2_9DropGuardNtCshnvkK9b4wzu_11proc_macro25IdentNtNtBa_7set_val9SetValZSTNtNtBe_5alloc6GlobalEB1e_4dropCs9PzovR4aYST_14thiserror_impl, symObjAddr: 0x25B0, symBinAddr: 0x2C080, symSize: 0x64 }
  - { offset: 0x81530, size: 0x8, addend: 0x0, symName: __RNvXNvXsw_NtNtNtCsiTraAjBDcu4_5alloc11collections5btree3mapINtB8_8IntoIterpppENtNtNtCsaNl6UpbT7bw_4core3ops4drop4Drop4dropINtB2_9DropGuardNtNtBe_6string6StringNtNtBa_7set_val9SetValZSTNtNtBe_5alloc6GlobalEB1e_4dropCs9PzovR4aYST_14thiserror_impl, symObjAddr: 0x2614, symBinAddr: 0x2C0E4, symSize: 0x64 }
  - { offset: 0x81593, size: 0x8, addend: 0x0, symName: __RNvXNvXsw_NtNtNtCsiTraAjBDcu4_5alloc11collections5btree3mapINtB8_8IntoIterpppENtNtNtCsaNl6UpbT7bw_4core3ops4drop4Drop4dropINtB2_9DropGuardNtNtBe_6string6StringTINtNtBa_3set8BTreeSetB2c_EINtNtCsc29TF2YcYso_3syn10punctuated10PunctuatedNtCshnvkK9b4wzu_11proc_macro211TokenStreamNtNtB33_5token4PlusEENtNtBe_5alloc6GlobalEB1e_4dropCs9PzovR4aYST_14thiserror_impl, symObjAddr: 0x2678, symBinAddr: 0x2C148, symSize: 0x64 }
  - { offset: 0x815F6, size: 0x8, addend: 0x0, symName: __RNvXNvXsw_NtNtNtCsiTraAjBDcu4_5alloc11collections5btree3mapINtB8_8IntoIterpppENtNtNtCsaNl6UpbT7bw_4core3ops4drop4Drop4dropINtB2_9DropGuardRNtCshnvkK9b4wzu_11proc_macro25IdentNtNtBa_7set_val9SetValZSTNtNtBe_5alloc6GlobalEB1e_4dropCs9PzovR4aYST_14thiserror_impl, symObjAddr: 0x26DC, symBinAddr: 0x2C1AC, symSize: 0x64 }
  - { offset: 0x81659, size: 0x8, addend: 0x0, symName: __RNvXNvXsw_NtNtNtCsiTraAjBDcu4_5alloc11collections5btree3mapINtB8_8IntoIterpppENtNtNtCsaNl6UpbT7bw_4core3ops4drop4Drop4dropINtB2_9DropGuardTjNtNtCs9PzovR4aYST_14thiserror_impl4attr5TraitENtNtBa_7set_val9SetValZSTNtNtBe_5alloc6GlobalEB1e_4dropB2i_, symObjAddr: 0x2740, symBinAddr: 0x2C210, symSize: 0x64 }
  - { offset: 0x817AE, size: 0x8, addend: 0x0, symName: __RNvXsw_NtNtNtCsiTraAjBDcu4_5alloc11collections5btree3mapINtB5_8IntoIterNtCshnvkK9b4wzu_11proc_macro25IdentNtNtB7_7set_val9SetValZSTENtNtNtCsaNl6UpbT7bw_4core3ops4drop4Drop4dropCs9PzovR4aYST_14thiserror_impl, symObjAddr: 0x3504, symBinAddr: 0x2CFD4, symSize: 0x9C }
  - { offset: 0x8181F, size: 0x8, addend: 0x0, symName: __RNvXsw_NtNtNtCsiTraAjBDcu4_5alloc11collections5btree3mapINtB5_8IntoIterNtNtBb_6string6StringNtNtB7_7set_val9SetValZSTENtNtNtCsaNl6UpbT7bw_4core3ops4drop4Drop4dropCs9PzovR4aYST_14thiserror_impl, symObjAddr: 0x35A0, symBinAddr: 0x2D070, symSize: 0x9C }
  - { offset: 0x81890, size: 0x8, addend: 0x0, symName: __RNvXsw_NtNtNtCsiTraAjBDcu4_5alloc11collections5btree3mapINtB5_8IntoIterNtNtBb_6string6StringTINtNtB7_3set8BTreeSetB17_EINtNtCsc29TF2YcYso_3syn10punctuated10PunctuatedNtCshnvkK9b4wzu_11proc_macro211TokenStreamNtNtB1Y_5token4PlusEEENtNtNtCsaNl6UpbT7bw_4core3ops4drop4Drop4dropCs9PzovR4aYST_14thiserror_impl, symObjAddr: 0x363C, symBinAddr: 0x2D10C, symSize: 0x9C }
  - { offset: 0x81901, size: 0x8, addend: 0x0, symName: __RNvXsw_NtNtNtCsiTraAjBDcu4_5alloc11collections5btree3mapINtB5_8IntoIterRNtCshnvkK9b4wzu_11proc_macro25IdentNtNtB7_7set_val9SetValZSTENtNtNtCsaNl6UpbT7bw_4core3ops4drop4Drop4dropCs9PzovR4aYST_14thiserror_impl, symObjAddr: 0x36D8, symBinAddr: 0x2D1A8, symSize: 0x9C }
  - { offset: 0x81972, size: 0x8, addend: 0x0, symName: __RNvXsw_NtNtNtCsiTraAjBDcu4_5alloc11collections5btree3mapINtB5_8IntoIterTjNtNtCs9PzovR4aYST_14thiserror_impl4attr5TraitENtNtB7_7set_val9SetValZSTENtNtNtCsaNl6UpbT7bw_4core3ops4drop4Drop4dropB1d_, symObjAddr: 0x3774, symBinAddr: 0x2D244, symSize: 0x9C }
  - { offset: 0x819E9, size: 0x8, addend: 0x0, symName: __RNvXs1q_NtNtNtCsiTraAjBDcu4_5alloc11collections5btree3mapINtB6_8BTreeMapNtNtBc_6string6StringTINtNtB8_3set8BTreeSetB18_EINtNtCsc29TF2YcYso_3syn10punctuated10PunctuatedNtCshnvkK9b4wzu_11proc_macro211TokenStreamNtNtB1Z_5token4PlusEEEINtNtNtCsaNl6UpbT7bw_4core3ops5index5IndexRB18_E5indexCs9PzovR4aYST_14thiserror_impl, symObjAddr: 0x2898, symBinAddr: 0x2C368, symSize: 0x7C }
  - { offset: 0x81A6E, size: 0x8, addend: 0x0, symName: __RNvXsv_NtNtNtCsiTraAjBDcu4_5alloc11collections5btree3mapINtB5_8BTreeMapNtCshnvkK9b4wzu_11proc_macro25IdentNtNtB7_7set_val9SetValZSTENtNtNtNtCsaNl6UpbT7bw_4core4iter6traits7collect12IntoIterator9into_iterCs9PzovR4aYST_14thiserror_impl, symObjAddr: 0x2D34, symBinAddr: 0x2C804, symSize: 0x190 }
  - { offset: 0x81BE6, size: 0x8, addend: 0x0, symName: __RNvXsv_NtNtNtCsiTraAjBDcu4_5alloc11collections5btree3mapINtB5_8BTreeMapNtNtBb_6string6StringNtNtB7_7set_val9SetValZSTENtNtNtNtCsaNl6UpbT7bw_4core4iter6traits7collect12IntoIterator9into_iterCs9PzovR4aYST_14thiserror_impl, symObjAddr: 0x2EC4, symBinAddr: 0x2C994, symSize: 0x190 }
  - { offset: 0x81D5E, size: 0x8, addend: 0x0, symName: __RNvXsv_NtNtNtCsiTraAjBDcu4_5alloc11collections5btree3mapINtB5_8BTreeMapNtNtBb_6string6StringTINtNtB7_3set8BTreeSetB17_EINtNtCsc29TF2YcYso_3syn10punctuated10PunctuatedNtCshnvkK9b4wzu_11proc_macro211TokenStreamNtNtB1Y_5token4PlusEEENtNtNtNtCsaNl6UpbT7bw_4core4iter6traits7collect12IntoIterator9into_iterCs9PzovR4aYST_14thiserror_impl, symObjAddr: 0x3054, symBinAddr: 0x2CB24, symSize: 0x190 }
  - { offset: 0x81ED6, size: 0x8, addend: 0x0, symName: __RNvXsv_NtNtNtCsiTraAjBDcu4_5alloc11collections5btree3mapINtB5_8BTreeMapRNtCshnvkK9b4wzu_11proc_macro25IdentNtNtB7_7set_val9SetValZSTENtNtNtNtCsaNl6UpbT7bw_4core4iter6traits7collect12IntoIterator9into_iterCs9PzovR4aYST_14thiserror_impl, symObjAddr: 0x31E4, symBinAddr: 0x2CCB4, symSize: 0x190 }
  - { offset: 0x8204E, size: 0x8, addend: 0x0, symName: __RNvXsv_NtNtNtCsiTraAjBDcu4_5alloc11collections5btree3mapINtB5_8BTreeMapTjNtNtCs9PzovR4aYST_14thiserror_impl4attr5TraitENtNtB7_7set_val9SetValZSTENtNtNtNtCsaNl6UpbT7bw_4core4iter6traits7collect12IntoIterator9into_iterB1d_, symObjAddr: 0x3374, symBinAddr: 0x2CE44, symSize: 0x190 }
  - { offset: 0x82212, size: 0x8, addend: 0x0, symName: __RNvXsy_NtNtNtCsiTraAjBDcu4_5alloc11collections5btree3mapINtB5_8IntoIterTjNtNtCs9PzovR4aYST_14thiserror_impl4attr5TraitENtNtB7_7set_val9SetValZSTENtNtNtNtCsaNl6UpbT7bw_4core4iter6traits8iterator8Iterator4nextB1d_, symObjAddr: 0x3810, symBinAddr: 0x2D2E0, symSize: 0x74 }
  - { offset: 0x8400A, size: 0x8, addend: 0x0, symName: __RNCINvMse_NtNtNtCsiTraAjBDcu4_5alloc11collections5btree3setINtB8_8BTreeSetRNtCshnvkK9b4wzu_11proc_macro25IdentE16from_sorted_iterINtNtNtBe_3vec9into_iter8IntoIterB1a_EE0Cs9PzovR4aYST_14thiserror_impl, symObjAddr: 0x1110, symBinAddr: 0x2ABE0, symSize: 0x20 }
  - { offset: 0x84065, size: 0x8, addend: 0x0, symName: __RINvXsd_NtNtNtCsiTraAjBDcu4_5alloc11collections5btree3setINtB6_8BTreeSetRNtCshnvkK9b4wzu_11proc_macro25IdentEINtNtNtNtCsaNl6UpbT7bw_4core4iter6traits7collect12FromIteratorB18_E9from_iterINtNtNtB1Q_8adapters3map3MapNtNtCsc29TF2YcYso_3syn8generics10TypeParamsNCNvMNtCs9PzovR4aYST_14thiserror_impl8genericsNtB4c_13ParamsInScope3new0EEB4e_, symObjAddr: 0xE9C, symBinAddr: 0x2A96C, symSize: 0x16C }
  - { offset: 0x842E6, size: 0x8, addend: 0x0, symName: __RNvXs3_NtNtNtCsiTraAjBDcu4_5alloc11collections5btree3setINtB5_8BTreeSetTjNtNtCs9PzovR4aYST_14thiserror_impl4attr5TraitEENtNtCsaNl6UpbT7bw_4core5clone5Clone10clone_fromB1d_, symObjAddr: 0x29B0, symBinAddr: 0x2C480, symSize: 0x2C }
  - { offset: 0x8432E, size: 0x8, addend: 0x0, symName: __RNvXs3_NtNtNtCsiTraAjBDcu4_5alloc11collections5btree3setINtB5_8BTreeSetTjNtNtCs9PzovR4aYST_14thiserror_impl4attr5TraitEENtNtCsaNl6UpbT7bw_4core5clone5Clone5cloneB1d_, symObjAddr: 0x29DC, symBinAddr: 0x2C4AC, symSize: 0x40 }
  - { offset: 0x84372, size: 0x8, addend: 0x0, symName: __RNvXsg_NtNtNtCsiTraAjBDcu4_5alloc11collections5btree3setINtB5_8BTreeSetTjNtNtCs9PzovR4aYST_14thiserror_impl4attr5TraitEENtNtNtNtCsaNl6UpbT7bw_4core4iter6traits7collect12IntoIterator9into_iterB1d_, symObjAddr: 0x2CA0, symBinAddr: 0x2C770, symSize: 0x54 }
  - { offset: 0x843B9, size: 0x8, addend: 0x0, symName: __RNvXsn_NtNtNtCsiTraAjBDcu4_5alloc11collections5btree3setINtB5_8BTreeSetNtNtBb_6string6StringENtNtCsaNl6UpbT7bw_4core7default7Default7defaultCs9PzovR4aYST_14thiserror_impl, symObjAddr: 0x2CF4, symBinAddr: 0x2C7C4, symSize: 0x40 }
  - { offset: 0x8441F, size: 0x8, addend: 0x0, symName: __RNvXsy_NtNtNtCsiTraAjBDcu4_5alloc11collections5btree3setINtB5_8IntoIterTjNtNtCs9PzovR4aYST_14thiserror_impl4attr5TraitEENtNtNtNtCsaNl6UpbT7bw_4core4iter6traits8iterator8Iterator4nextB1d_, symObjAddr: 0x3884, symBinAddr: 0x2D354, symSize: 0x70 }
  - { offset: 0x89DB1, size: 0x8, addend: 0x0, symName: __RINvYNtNtNtCsht3nMU9UgFu_3std4hash6random11RandomStateNtNtCsaNl6UpbT7bw_4core4hash11BuildHasher8hash_oneRNtNtCsc29TF2YcYso_3syn4expr6MemberECs9PzovR4aYST_14thiserror_impl, symObjAddr: 0x1008, symBinAddr: 0x2AAD8, symSize: 0x84 }
  - { offset: 0x89E16, size: 0x8, addend: 0x0, symName: __RINvYNtNtNtCsht3nMU9UgFu_3std4hash6random11RandomStateNtNtCsaNl6UpbT7bw_4core4hash11BuildHasher8hash_oneRRNtNtCsc29TF2YcYso_3syn4expr6MemberECs9PzovR4aYST_14thiserror_impl, symObjAddr: 0x108C, symBinAddr: 0x2AB5C, symSize: 0x84 }
  - { offset: 0x89FE8, size: 0x8, addend: 0x0, symName: __RNvYNtNtNtCsht3nMU9UgFu_3std4hash6random13DefaultHasherNtNtCsaNl6UpbT7bw_4core4hash6Hasher9write_u32Cs9PzovR4aYST_14thiserror_impl, symObjAddr: 0x3A9C, symBinAddr: 0x2D56C, symSize: 0x3C }
  - { offset: 0x8A054, size: 0x8, addend: 0x0, symName: __RNvMNtCsaNl6UpbT7bw_4core3stre12char_indicesCs9PzovR4aYST_14thiserror_impl, symObjAddr: 0x1190, symBinAddr: 0x2AC60, symSize: 0x3C }
  - { offset: 0x8A082, size: 0x8, addend: 0x0, symName: __RNvMNtCsaNl6UpbT7bw_4core3stre3lenCs9PzovR4aYST_14thiserror_impl, symObjAddr: 0x11CC, symBinAddr: 0x2AC9C, symSize: 0x1C }
  - { offset: 0x8A0AE, size: 0x8, addend: 0x0, symName: __RNvMNtCsaNl6UpbT7bw_4core3stre5charsCs9PzovR4aYST_14thiserror_impl, symObjAddr: 0x11E8, symBinAddr: 0x2ACB8, symSize: 0x20 }
  - { offset: 0x8A164, size: 0x8, addend: 0x0, symName: __RNvXsf_NtCsaNl6UpbT7bw_4core5tupleTINtNtNtNtCsiTraAjBDcu4_5alloc11collections5btree3set8BTreeSetNtNtBG_6string6StringEINtNtCsc29TF2YcYso_3syn10punctuated10PunctuatedNtCshnvkK9b4wzu_11proc_macro211TokenStreamNtNtB1X_5token4PlusEENtNtB7_7default7Default7defaultCs9PzovR4aYST_14thiserror_impl, symObjAddr: 0x2C14, symBinAddr: 0x2C6E4, symSize: 0x8C }
  - { offset: 0x8A1BD, size: 0x8, addend: 0x0, symName: __RNvYINtNtNtNtCsiTraAjBDcu4_5alloc11collections5btree3map8BTreeMapTjNtNtCs9PzovR4aYST_14thiserror_impl4attr5TraitENtNtB7_7set_val9SetValZSTENtNtCsaNl6UpbT7bw_4core5clone5Clone10clone_fromB17_, symObjAddr: 0x398C, symBinAddr: 0x2D45C, symSize: 0x84 }
  - { offset: 0x8A38E, size: 0x8, addend: 0x0, symName: __RINvMsc_NtNtNtCsiTraAjBDcu4_5alloc11collections5btree3setINtB6_8BTreeSetRNtCshnvkK9b4wzu_11proc_macro25IdentE8containsB19_ECs9PzovR4aYST_14thiserror_impl, symObjAddr: 0x0, symBinAddr: 0x29AD0, symSize: 0x54 }
  - { offset: 0x8A42C, size: 0x8, addend: 0x0, symName: __RINvMse_NtNtNtCsiTraAjBDcu4_5alloc11collections5btree3setINtB6_8BTreeSetRNtCshnvkK9b4wzu_11proc_macro25IdentE16from_sorted_iterINtNtNtBc_3vec9into_iter8IntoIterB18_EECs9PzovR4aYST_14thiserror_impl, symObjAddr: 0x54, symBinAddr: 0x29B24, symSize: 0x80 }
  - { offset: 0x8F4A6, size: 0x8, addend: 0x0, symName: __RINvMsi_NtNtNtCsiTraAjBDcu4_5alloc11collections5btree3mapINtB6_8BTreeMapNtNtBc_6string6StringTINtNtB8_3set8BTreeSetB18_EINtNtCsc29TF2YcYso_3syn10punctuated10PunctuatedNtCshnvkK9b4wzu_11proc_macro211TokenStreamNtNtB1Z_5token4PlusEEE3getB18_ECs9PzovR4aYST_14thiserror_impl, symObjAddr: 0xD4, symBinAddr: 0x29BA4, symSize: 0xD8 }
  - { offset: 0x8F68B, size: 0x8, addend: 0x0, symName: __RINvMsi_NtNtNtCsiTraAjBDcu4_5alloc11collections5btree3mapINtB6_8BTreeMapRNtCshnvkK9b4wzu_11proc_macro25IdentNtNtB8_7set_val9SetValZSTE27bulk_build_from_sorted_iterINtNtNtNtCsaNl6UpbT7bw_4core4iter8adapters3map3MapINtNtNtBc_3vec9into_iter8IntoIterB18_ENCINvMse_NtB8_3setINtB4a_8BTreeSetB18_E16from_sorted_iterB3p_E0EECs9PzovR4aYST_14thiserror_impl, symObjAddr: 0x1AC, symBinAddr: 0x29C7C, symSize: 0x188 }
  - { offset: 0x8F7E6, size: 0x8, addend: 0x0, symName: __RINvMsi_NtNtNtCsiTraAjBDcu4_5alloc11collections5btree3mapINtB6_8BTreeMapRNtCshnvkK9b4wzu_11proc_macro25IdentNtNtB8_7set_val9SetValZSTE3getB19_ECs9PzovR4aYST_14thiserror_impl, symObjAddr: 0x334, symBinAddr: 0x29E04, symSize: 0xD8 }
  - { offset: 0x901BA, size: 0x8, addend: 0x0, symName: __RNCNkNvNvMNtNtCsht3nMU9UgFu_3std4hash6randomNtB8_11RandomState3new4KEYS0s_0Cs9PzovR4aYST_14thiserror_impl, symObjAddr: 0x1130, symBinAddr: 0x2AC00, symSize: 0x34 }
  - { offset: 0x901F8, size: 0x8, addend: 0x0, symName: __RNvNvNvMNtNtCsht3nMU9UgFu_3std4hash6randomNtB6_11RandomState3new4KEYS6___initCs9PzovR4aYST_14thiserror_impl, symObjAddr: 0x23D0, symBinAddr: 0x2BEA0, symSize: 0x24 }
  - { offset: 0x90216, size: 0x8, addend: 0x0, symName: __RNCNvMNtNtCsht3nMU9UgFu_3std4hash6randomNtB4_11RandomState3new0Cs9PzovR4aYST_14thiserror_impl, symObjAddr: 0x1164, symBinAddr: 0x2AC34, symSize: 0x2C }
  - { offset: 0x902DB, size: 0x8, addend: 0x0, symName: __RNvXs2_NtNtCsht3nMU9UgFu_3std4hash6randomNtB5_13DefaultHasherNtNtCsaNl6UpbT7bw_4core4hash6Hasher5writeCs9PzovR4aYST_14thiserror_impl, symObjAddr: 0x2914, symBinAddr: 0x2C3E4, symSize: 0x38 }
  - { offset: 0x90336, size: 0x8, addend: 0x0, symName: __RNvXs2_NtNtCsht3nMU9UgFu_3std4hash6randomNtB5_13DefaultHasherNtNtCsaNl6UpbT7bw_4core4hash6Hasher6finishCs9PzovR4aYST_14thiserror_impl, symObjAddr: 0x294C, symBinAddr: 0x2C41C, symSize: 0x2C }
  - { offset: 0x9037F, size: 0x8, addend: 0x0, symName: __RNvXs2_NtNtCsht3nMU9UgFu_3std4hash6randomNtB5_13DefaultHasherNtNtCsaNl6UpbT7bw_4core4hash6Hasher9write_strCs9PzovR4aYST_14thiserror_impl, symObjAddr: 0x2978, symBinAddr: 0x2C448, symSize: 0x38 }
  - { offset: 0x903E0, size: 0x8, addend: 0x0, symName: __RNvXs_NtNtCsht3nMU9UgFu_3std4hash6randomNtB4_11RandomStateNtNtCsaNl6UpbT7bw_4core4hash11BuildHasher12build_hasherCs9PzovR4aYST_14thiserror_impl, symObjAddr: 0x2B48, symBinAddr: 0x2C618, symSize: 0xCC }
  - { offset: 0x905DA, size: 0x8, addend: 0x0, symName: __RNvXNtCs4EAaWzSXu1l_5quote9to_tokensRNtNtCsc29TF2YcYso_3syn6derive11DeriveInputNtB2_8ToTokens9to_tokensCs9PzovR4aYST_14thiserror_impl, symObjAddr: 0x23F4, symBinAddr: 0x2BEC4, symSize: 0x40 }
  - { offset: 0x9061F, size: 0x8, addend: 0x0, symName: __RNvYNtNtCsc29TF2YcYso_3syn2ty4TypeNtNtCs4EAaWzSXu1l_5quote9to_tokens8ToTokens15to_token_streamCs9PzovR4aYST_14thiserror_impl, symObjAddr: 0x3A10, symBinAddr: 0x2D4E0, symSize: 0x8C }
  - { offset: 0x90669, size: 0x8, addend: 0x0, symName: __RNvYRNtNtCsc29TF2YcYso_3syn6derive11DeriveInputNtNtCs4EAaWzSXu1l_5quote9to_tokens8ToTokens15to_token_streamCs9PzovR4aYST_14thiserror_impl, symObjAddr: 0x3AD8, symBinAddr: 0x2D5A8, symSize: 0x8C }
  - { offset: 0x906B3, size: 0x8, addend: 0x0, symName: __RNvYRNtNtCsc29TF2YcYso_3syn6derive11DeriveInputNtNtCs4EAaWzSXu1l_5quote9to_tokens8ToTokens17into_token_streamCs9PzovR4aYST_14thiserror_impl, symObjAddr: 0x3B64, symBinAddr: 0x2D634, symSize: 0x54 }
  - { offset: 0x906EB, size: 0x8, addend: 0x0, symName: __RNvMNtNtCs4EAaWzSXu1l_5quote9___private8get_spanINtB2_7GetSpanNtCshnvkK9b4wzu_11proc_macro24SpanE11___into_spanCs9PzovR4aYST_14thiserror_impl, symObjAddr: 0x1208, symBinAddr: 0x2ACD8, symSize: 0x20 }
  - { offset: 0x90785, size: 0x8, addend: 0x0, symName: __RNvMsb_NtNtNtCsiTraAjBDcu4_5alloc11collections5btree3setINtB5_8BTreeSetNtCshnvkK9b4wzu_11proc_macro25IdentE3newCs9PzovR4aYST_14thiserror_impl, symObjAddr: 0x1228, symBinAddr: 0x2ACF8, symSize: 0x40 }
  - { offset: 0x907D0, size: 0x8, addend: 0x0, symName: __RNvMsb_NtNtNtCsiTraAjBDcu4_5alloc11collections5btree3setINtB5_8BTreeSetNtNtBb_6string6StringE3newCs9PzovR4aYST_14thiserror_impl, symObjAddr: 0x1268, symBinAddr: 0x2AD38, symSize: 0x40 }
  - { offset: 0x9081B, size: 0x8, addend: 0x0, symName: __RNvMsb_NtNtNtCsiTraAjBDcu4_5alloc11collections5btree3setINtB5_8BTreeSetTjNtNtCs9PzovR4aYST_14thiserror_impl4attr5TraitEE3newB1d_, symObjAddr: 0x12A8, symBinAddr: 0x2AD78, symSize: 0x40 }
  - { offset: 0x9089F, size: 0x8, addend: 0x0, symName: __RNvMsc_NtNtNtCsiTraAjBDcu4_5alloc11collections5btree3setINtB5_8BTreeSetNtCshnvkK9b4wzu_11proc_macro25IdentE6insertCs9PzovR4aYST_14thiserror_impl, symObjAddr: 0x12E8, symBinAddr: 0x2ADB8, symSize: 0x40 }
  - { offset: 0x90965, size: 0x8, addend: 0x0, symName: __RNvMsc_NtNtNtCsiTraAjBDcu4_5alloc11collections5btree3setINtB5_8BTreeSetNtNtBb_6string6StringE6insertCs9PzovR4aYST_14thiserror_impl, symObjAddr: 0x1328, symBinAddr: 0x2ADF8, symSize: 0x40 }
  - { offset: 0x90A2B, size: 0x8, addend: 0x0, symName: __RNvMsc_NtNtNtCsiTraAjBDcu4_5alloc11collections5btree3setINtB5_8BTreeSetTjNtNtCs9PzovR4aYST_14thiserror_impl4attr5TraitEE6insertB1d_, symObjAddr: 0x1368, symBinAddr: 0x2AE38, symSize: 0x48 }
  - { offset: 0x90AAB, size: 0x8, addend: 0x0, symName: __RNvMsg_NtNtNtCsiTraAjBDcu4_5alloc11collections5btree3mapINtB5_8BTreeMapNtNtBb_6string6StringTINtNtB7_3set8BTreeSetB17_EINtNtCsc29TF2YcYso_3syn10punctuated10PunctuatedNtCshnvkK9b4wzu_11proc_macro211TokenStreamNtNtB1Y_5token4PlusEEE3newCs9PzovR4aYST_14thiserror_impl, symObjAddr: 0x13B0, symBinAddr: 0x2AE80, symSize: 0x24 }
  - { offset: 0x90B79, size: 0x8, addend: 0x0, symName: __RNvMsi_NtNtNtCsiTraAjBDcu4_5alloc11collections5btree3mapINtB5_8BTreeMapNtCshnvkK9b4wzu_11proc_macro25IdentNtNtB7_7set_val9SetValZSTE5entryCs9PzovR4aYST_14thiserror_impl, symObjAddr: 0x13D4, symBinAddr: 0x2AEA4, symSize: 0x27C }
  - { offset: 0x90D1A, size: 0x8, addend: 0x0, symName: __RNvMsi_NtNtNtCsiTraAjBDcu4_5alloc11collections5btree3mapINtB5_8BTreeMapNtCshnvkK9b4wzu_11proc_macro25IdentNtNtB7_7set_val9SetValZSTE6insertCs9PzovR4aYST_14thiserror_impl, symObjAddr: 0x1650, symBinAddr: 0x2B120, symSize: 0x11C }
  - { offset: 0x90E6F, size: 0x8, addend: 0x0, symName: __RNvMsi_NtNtNtCsiTraAjBDcu4_5alloc11collections5btree3mapINtB5_8BTreeMapNtNtBb_6string6StringNtNtB7_7set_val9SetValZSTE5entryCs9PzovR4aYST_14thiserror_impl, symObjAddr: 0x176C, symBinAddr: 0x2B23C, symSize: 0x27C }
  - { offset: 0x91003, size: 0x8, addend: 0x0, symName: __RNvMsi_NtNtNtCsiTraAjBDcu4_5alloc11collections5btree3mapINtB5_8BTreeMapNtNtBb_6string6StringNtNtB7_7set_val9SetValZSTE6insertCs9PzovR4aYST_14thiserror_impl, symObjAddr: 0x19E8, symBinAddr: 0x2B4B8, symSize: 0x124 }
  - { offset: 0x91158, size: 0x8, addend: 0x0, symName: __RNvMsi_NtNtNtCsiTraAjBDcu4_5alloc11collections5btree3mapINtB5_8BTreeMapNtNtBb_6string6StringTINtNtB7_3set8BTreeSetB17_EINtNtCsc29TF2YcYso_3syn10punctuated10PunctuatedNtCshnvkK9b4wzu_11proc_macro211TokenStreamNtNtB1Y_5token4PlusEEE5entryCs9PzovR4aYST_14thiserror_impl, symObjAddr: 0x1B0C, symBinAddr: 0x2B5DC, symSize: 0x27C }
  - { offset: 0x91340, size: 0x8, addend: 0x0, symName: __RNvMsi_NtNtNtCsiTraAjBDcu4_5alloc11collections5btree3mapINtB5_8BTreeMapTjNtNtCs9PzovR4aYST_14thiserror_impl4attr5TraitENtNtB7_7set_val9SetValZSTE5entryB1d_, symObjAddr: 0x1D88, symBinAddr: 0x2B858, symSize: 0x254 }
  - { offset: 0x914D3, size: 0x8, addend: 0x0, symName: __RNvMsi_NtNtNtCsiTraAjBDcu4_5alloc11collections5btree3mapINtB5_8BTreeMapTjNtNtCs9PzovR4aYST_14thiserror_impl4attr5TraitENtNtB7_7set_val9SetValZSTE6insertB1d_, symObjAddr: 0x1FDC, symBinAddr: 0x2BAAC, symSize: 0x124 }
  - { offset: 0x915D5, size: 0x8, addend: 0x0, symName: __RNvMsx_NtNtNtCsiTraAjBDcu4_5alloc11collections5btree3mapINtB5_8IntoIterNtCshnvkK9b4wzu_11proc_macro25IdentNtNtB7_7set_val9SetValZSTE10dying_nextCs9PzovR4aYST_14thiserror_impl, symObjAddr: 0x2100, symBinAddr: 0x2BBD0, symSize: 0x90 }
  - { offset: 0x91620, size: 0x8, addend: 0x0, symName: __RNvMsx_NtNtNtCsiTraAjBDcu4_5alloc11collections5btree3mapINtB5_8IntoIterNtNtBb_6string6StringNtNtB7_7set_val9SetValZSTE10dying_nextCs9PzovR4aYST_14thiserror_impl, symObjAddr: 0x2190, symBinAddr: 0x2BC60, symSize: 0x90 }
  - { offset: 0x9166B, size: 0x8, addend: 0x0, symName: __RNvMsx_NtNtNtCsiTraAjBDcu4_5alloc11collections5btree3mapINtB5_8IntoIterNtNtBb_6string6StringTINtNtB7_3set8BTreeSetB17_EINtNtCsc29TF2YcYso_3syn10punctuated10PunctuatedNtCshnvkK9b4wzu_11proc_macro211TokenStreamNtNtB1Y_5token4PlusEEE10dying_nextCs9PzovR4aYST_14thiserror_impl, symObjAddr: 0x2220, symBinAddr: 0x2BCF0, symSize: 0x90 }
  - { offset: 0x916B6, size: 0x8, addend: 0x0, symName: __RNvMsx_NtNtNtCsiTraAjBDcu4_5alloc11collections5btree3mapINtB5_8IntoIterRNtCshnvkK9b4wzu_11proc_macro25IdentNtNtB7_7set_val9SetValZSTE10dying_nextCs9PzovR4aYST_14thiserror_impl, symObjAddr: 0x22B0, symBinAddr: 0x2BD80, symSize: 0x90 }
  - { offset: 0x91701, size: 0x8, addend: 0x0, symName: __RNvMsx_NtNtNtCsiTraAjBDcu4_5alloc11collections5btree3mapINtB5_8IntoIterTjNtNtCs9PzovR4aYST_14thiserror_impl4attr5TraitENtNtB7_7set_val9SetValZSTE10dying_nextB1d_, symObjAddr: 0x2340, symBinAddr: 0x2BE10, symSize: 0x90 }
  - { offset: 0x92465, size: 0x8, addend: 0x0, symName: __RINvMNtCsc29TF2YcYso_3syn4attrNtB3_9Attribute15parse_args_withNCNvNtCs9PzovR4aYST_14thiserror_impl4attr21parse_error_attribute0EB14_, symObjAddr: 0x0, symBinAddr: 0x2D688, symSize: 0x398 }
  - { offset: 0x92F71, size: 0x8, addend: 0x0, symName: __RNvXs0_NtCsc29TF2YcYso_3syn5tokenNtNvNtCs9PzovR4aYST_14thiserror_impl4attr21parse_error_attribute11transparentNtB5_5Token4peekBB_, symObjAddr: 0x89C, symBinAddr: 0x2DF24, symSize: 0x3C }
  - { offset: 0x92FA6, size: 0x8, addend: 0x0, symName: __RNvXs0_NtCsc29TF2YcYso_3syn5tokenNtNvNtCs9PzovR4aYST_14thiserror_impl4attr21parse_error_attribute11transparentNtB5_5Token7displayBB_, symObjAddr: 0x8D8, symBinAddr: 0x2DF60, symSize: 0x24 }
  - { offset: 0x9721B, size: 0x8, addend: 0x0, symName: __RNvXsh_NtCsc29TF2YcYso_3syn5parseNCNvNtCs9PzovR4aYST_14thiserror_impl4attr21parse_error_attribute0NtB5_6Parser14___parse_scopedBB_, symObjAddr: 0xCAC, symBinAddr: 0x2E334, symSize: 0x360 }
  - { offset: 0x985BB, size: 0x8, addend: 0x0, symName: __RNvXs1_NtCsiTraAjBDcu4_5alloc7raw_vecINtB5_6RawVecNtCshnvkK9b4wzu_11proc_macro211TokenStreamENtNtNtCsaNl6UpbT7bw_4core3ops4drop4Drop4dropCs9PzovR4aYST_14thiserror_impl, symObjAddr: 0x9AC, symBinAddr: 0x2E034, symSize: 0x34 }
  - { offset: 0x985F7, size: 0x8, addend: 0x0, symName: __RNvXs1_NtCsiTraAjBDcu4_5alloc7raw_vecINtB5_6RawVecNtNtCs9PzovR4aYST_14thiserror_impl3ast5FieldENtNtNtCsaNl6UpbT7bw_4core3ops4drop4Drop4dropBQ_, symObjAddr: 0x9E0, symBinAddr: 0x2E068, symSize: 0x34 }
  - { offset: 0x98633, size: 0x8, addend: 0x0, symName: __RNvXs1_NtCsiTraAjBDcu4_5alloc7raw_vecINtB5_6RawVecNtNtCs9PzovR4aYST_14thiserror_impl3ast7VariantENtNtNtCsaNl6UpbT7bw_4core3ops4drop4Drop4dropBQ_, symObjAddr: 0xA14, symBinAddr: 0x2E09C, symSize: 0x34 }
  - { offset: 0x9866F, size: 0x8, addend: 0x0, symName: __RNvXs1_NtCsiTraAjBDcu4_5alloc7raw_vecINtB5_6RawVecRNtCshnvkK9b4wzu_11proc_macro25IdentENtNtNtCsaNl6UpbT7bw_4core3ops4drop4Drop4dropCs9PzovR4aYST_14thiserror_impl, symObjAddr: 0xA48, symBinAddr: 0x2E0D0, symSize: 0x30 }
  - { offset: 0x986AB, size: 0x8, addend: 0x0, symName: __RNvXs1_NtCsiTraAjBDcu4_5alloc7raw_vecINtB5_6RawVecTNtCshnvkK9b4wzu_11proc_macro211TokenStreamNtNtCsc29TF2YcYso_3syn5token4PlusEENtNtNtCsaNl6UpbT7bw_4core3ops4drop4Drop4dropCs9PzovR4aYST_14thiserror_impl, symObjAddr: 0xA78, symBinAddr: 0x2E100, symSize: 0x34 }
  - { offset: 0x99457, size: 0x8, addend: 0x0, symName: __RNvXNtNtCs7yrEGia95Wz_10proc_macro6bridge3rpcuINtB2_6EncodeuE6encodeCs9PzovR4aYST_14thiserror_impl, symObjAddr: 0x888, symBinAddr: 0x2DF10, symSize: 0x14 }
  - { offset: 0x9949E, size: 0x8, addend: 0x0, symName: __RNvXs9_NtNtCs7yrEGia95Wz_10proc_macro6bridge3rpcTINtB7_11ExpnGlobalsNtNtB7_6client4SpanENtB16_11TokenStreamEINtB5_9DecodeMutuE6decodeCs9PzovR4aYST_14thiserror_impl, symObjAddr: 0xAAC, symBinAddr: 0x2E134, symSize: 0x84 }
  - { offset: 0x9952B, size: 0x8, addend: 0x0, symName: __RNvXsa_NtNtCs7yrEGia95Wz_10proc_macro6bridge3rpcRShINtB5_6EncodeuE6encodeCs9PzovR4aYST_14thiserror_impl, symObjAddr: 0xB30, symBinAddr: 0x2E1B8, symSize: 0xD8 }
  - { offset: 0x9962D, size: 0x8, addend: 0x0, symName: __RNvXsc_NtNtCs7yrEGia95Wz_10proc_macro6bridge3rpcReINtB5_6EncodeuE6encodeCs9PzovR4aYST_14thiserror_impl, symObjAddr: 0xC08, symBinAddr: 0x2E290, symSize: 0x38 }
  - { offset: 0x99715, size: 0x8, addend: 0x0, symName: __RNvXsl_NtNtCs7yrEGia95Wz_10proc_macro6bridge3rpcNtB5_12PanicMessageINtB5_6EncodeuE6encodeCs9PzovR4aYST_14thiserror_impl, symObjAddr: 0x100C, symBinAddr: 0x2E694, symSize: 0x128 }
  - { offset: 0x998DB, size: 0x8, addend: 0x0, symName: __RNvXso_NtNtCs7yrEGia95Wz_10proc_macro6bridge3rpcmINtB5_9DecodeMutuE6decodeCs9PzovR4aYST_14thiserror_impl, symObjAddr: 0x1134, symBinAddr: 0x2E7BC, symSize: 0x108 }
  - { offset: 0x99A29, size: 0x8, addend: 0x0, symName: __RNvXs1J_NtCs7yrEGia95Wz_10proc_macro6bridgeINtB6_11ExpnGlobalsNtNtB6_6client4SpanEINtNtB6_3rpc9DecodeMutuE6decodeCs9PzovR4aYST_14thiserror_impl, symObjAddr: 0x8FC, symBinAddr: 0x2DF84, symSize: 0xB0 }
  - { offset: 0x9CFE5, size: 0x8, addend: 0x0, symName: __RNvXNtCsaNl6UpbT7bw_4core6borrowTjNtNtCs9PzovR4aYST_14thiserror_impl4attr5TraitEINtB2_6BorrowBu_E6borrowBA_, symObjAddr: 0x874, symBinAddr: 0x2DEFC, symSize: 0x14 }
  - { offset: 0x9D026, size: 0x8, addend: 0x0, symName: __RNvXse_NtCsaNl6UpbT7bw_4core5tupleTjNtNtCs9PzovR4aYST_14thiserror_impl4attr5TraitENtNtB7_3cmp3Ord3cmpBC_, symObjAddr: 0xC40, symBinAddr: 0x2E2C8, symSize: 0x6C }
  - { offset: 0x9D2BD, size: 0x8, addend: 0x0, symName: __RNvYNtNtCs9PzovR4aYST_14thiserror_impl4attr7DisplayNtNtCsaNl6UpbT7bw_4core5clone5Clone10clone_fromB6_, symObjAddr: 0x1354, symBinAddr: 0x2E9DC, symSize: 0x84 }
  - { offset: 0x9D9AD, size: 0x8, addend: 0x0, symName: __RINvNvNtCsht3nMU9UgFu_3std9panicking12catch_unwind7do_callINtNtNtCsaNl6UpbT7bw_4core5panic11unwind_safe16AssertUnwindSafeNCINvNtNtCs7yrEGia95Wz_10proc_macro6bridge6client10run_clientNtB20_11TokenStreamINtNtB11_6option6OptionB2U_ENCNCINvMs6_B20_INtB20_6ClientNtB24_11TokenStreamB48_E7expand1NvCs9PzovR4aYST_14thiserror_impl12derive_errorE00E0EuEB4G_, symObjAddr: 0x568, symBinAddr: 0x2DBF0, symSize: 0x50 }
  - { offset: 0x9DA75, size: 0x8, addend: 0x0, symName: __RINvNvNtCsht3nMU9UgFu_3std9panicking12catch_unwind8do_catchINtNtNtCsaNl6UpbT7bw_4core5panic11unwind_safe16AssertUnwindSafeNCINvNtNtCs7yrEGia95Wz_10proc_macro6bridge6client10run_clientNtB21_11TokenStreamINtNtB12_6option6OptionB2V_ENCNCINvMs6_B21_INtB21_6ClientNtB25_11TokenStreamB49_E7expand1NvCs9PzovR4aYST_14thiserror_impl12derive_errorE00E0EuEB4H_, symObjAddr: 0x5B8, symBinAddr: 0x2DC40, symSize: 0x70 }
  - { offset: 0x9DC74, size: 0x8, addend: 0x0, symName: __RNCNvNtCs9PzovR4aYST_14thiserror_impl4attr21parse_error_attribute0B5_, symObjAddr: 0x1D64, symBinAddr: 0x2F3EC, symSize: 0x7D8 }
  - { offset: 0x9DDF9, size: 0x8, addend: 0x0, symName: __RNvXs_NvNvNtCs9PzovR4aYST_14thiserror_impl4attr21parse_error_attribute1__NtB6_11transparentNtNtNtCsc29TF2YcYso_3syn5token7private11CustomToken4peek, symObjAddr: 0x5D10, symBinAddr: 0x33398, symSize: 0x12C }
  - { offset: 0x9DE49, size: 0x8, addend: 0x0, symName: __RNvXs_NvNvNtCs9PzovR4aYST_14thiserror_impl4attr21parse_error_attribute1__NtB6_11transparentNtNtNtCsc29TF2YcYso_3syn5token7private11CustomToken7display, symObjAddr: 0x5E3C, symBinAddr: 0x334C4, symSize: 0x24 }
  - { offset: 0x9DE6C, size: 0x8, addend: 0x0, symName: __RNvXs0_NvNvNtCs9PzovR4aYST_14thiserror_impl4attr21parse_error_attribute1__NtB7_11transparentNtNtCsc29TF2YcYso_3syn5parse5Parse5parse, symObjAddr: 0x5E60, symBinAddr: 0x334E8, symSize: 0x34 }
  - { offset: 0x9DE9D, size: 0x8, addend: 0x0, symName: __RNCNvXs0_NvNvNtCs9PzovR4aYST_14thiserror_impl4attr21parse_error_attribute1__NtB9_11transparentNtNtCsc29TF2YcYso_3syn5parse5Parse5parse0Bd_, symObjAddr: 0x5E94, symBinAddr: 0x3351C, symSize: 0x1F0 }
  - { offset: 0x9DFFB, size: 0x8, addend: 0x0, symName: __RNvNtCs9PzovR4aYST_14thiserror_impl4attr3get, symObjAddr: 0x1684, symBinAddr: 0x2ED0C, symSize: 0x68C }
  - { offset: 0x9E0AB, size: 0x8, addend: 0x0, symName: __RNvNtCs9PzovR4aYST_14thiserror_impl4attr21parse_error_attribute, symObjAddr: 0x1D10, symBinAddr: 0x2F398, symSize: 0x54 }
  - { offset: 0x9E0E5, size: 0x8, addend: 0x0, symName: __RNvNtCs9PzovR4aYST_14thiserror_impl4attr16parse_token_expr, symObjAddr: 0x253C, symBinAddr: 0x2FBC4, symSize: 0x1AC4 }
  - { offset: 0x9E687, size: 0x8, addend: 0x0, symName: __RNvXNtCs9PzovR4aYST_14thiserror_impl4attrNtB2_7DisplayNtNtCs4EAaWzSXu1l_5quote9to_tokens8ToTokens9to_tokens, symObjAddr: 0x4000, symBinAddr: 0x31688, symSize: 0x2A8 }
  - { offset: 0x9E749, size: 0x8, addend: 0x0, symName: __RNvXs_NtCs9PzovR4aYST_14thiserror_impl4attrNtB4_5TraitNtNtCs4EAaWzSXu1l_5quote9to_tokens8ToTokens9to_tokens, symObjAddr: 0x42A8, symBinAddr: 0x31930, symSize: 0x348 }
  - { offset: 0x9E7D2, size: 0x8, addend: 0x0, symName: __RNvXs0_NtCs9PzovR4aYST_14thiserror_impl4attrNtB5_7DisplayNtNtCsaNl6UpbT7bw_4core5clone5Clone5cloneB7_, symObjAddr: 0x5BAC, symBinAddr: 0x33234, symSize: 0x108 }
  - { offset: 0x9E804, size: 0x8, addend: 0x0, symName: __RNvXs4_NtCs9PzovR4aYST_14thiserror_impl4attrNtB5_5TraitNtNtCsaNl6UpbT7bw_4core5clone5Clone5cloneB7_, symObjAddr: 0x5CB4, symBinAddr: 0x3333C, symSize: 0x18 }
  - { offset: 0x9E836, size: 0x8, addend: 0x0, symName: __RNvXs8_NtCs9PzovR4aYST_14thiserror_impl4attrNtB5_5TraitNtNtCsaNl6UpbT7bw_4core3cmp3Ord3cmpB7_, symObjAddr: 0x5CCC, symBinAddr: 0x33354, symSize: 0x44 }
  - { offset: 0x9EFA0, size: 0x8, addend: 0x0, symName: __RINvMNtCsc29TF2YcYso_3syn4attrNtB3_9Attribute15parse_args_withNCNvNtCs9PzovR4aYST_14thiserror_impl4attr21parse_error_attribute0EB14_, symObjAddr: 0x0, symBinAddr: 0x2D688, symSize: 0x398 }
  - { offset: 0x9F0FC, size: 0x8, addend: 0x0, symName: __RINvMs0_NtCsc29TF2YcYso_3syn4attrNtB6_8MetaList15parse_args_withNCNvNtCs9PzovR4aYST_14thiserror_impl4attr21parse_error_attribute0EB16_, symObjAddr: 0x398, symBinAddr: 0x2DA20, symSize: 0x10C }
  - { offset: 0x9F3BF, size: 0x8, addend: 0x0, symName: __RINvMs0_NtNtNtCsht3nMU9UgFu_3std11collections4hash3mapINtB6_7HashMapRNtNtCsc29TF2YcYso_3syn4expr6MemberjE12contains_keyB15_ECs9PzovR4aYST_14thiserror_impl, symObjAddr: 0x4A4, symBinAddr: 0x2DB2C, symSize: 0x54 }
  - { offset: 0x9F4C1, size: 0x8, addend: 0x0, symName: __RINvMs0_NtNtNtCsht3nMU9UgFu_3std11collections4hash3mapINtB6_7HashMapRNtNtCsc29TF2YcYso_3syn4expr6MemberjE3getB15_ECs9PzovR4aYST_14thiserror_impl, symObjAddr: 0x4F8, symBinAddr: 0x2DB80, symSize: 0x70 }
  - { offset: 0x9F6A2, size: 0x8, addend: 0x0, symName: __RNvMNtNtNtCsht3nMU9UgFu_3std11collections4hash3mapINtB2_7HashMapRNtNtCsc29TF2YcYso_3syn4expr6MemberjE3newCs9PzovR4aYST_14thiserror_impl, symObjAddr: 0x628, symBinAddr: 0x2DCB0, symSize: 0x7C }
  - { offset: 0x9F7A3, size: 0x8, addend: 0x0, symName: __RNvMs0_NtCsiTraAjBDcu4_5alloc7raw_vecINtB5_6RawVecNtCshnvkK9b4wzu_11proc_macro211TokenStreamE8grow_oneCs9PzovR4aYST_14thiserror_impl, symObjAddr: 0x6A4, symBinAddr: 0x2DD2C, symSize: 0x90 }
  - { offset: 0x9F86F, size: 0x8, addend: 0x0, symName: __RNvMs0_NtCsiTraAjBDcu4_5alloc7raw_vecINtB5_6RawVecTNtCshnvkK9b4wzu_11proc_macro211TokenStreamNtNtCsc29TF2YcYso_3syn5token4PlusEE8grow_oneCs9PzovR4aYST_14thiserror_impl, symObjAddr: 0x734, symBinAddr: 0x2DDBC, symSize: 0x90 }
  - { offset: 0x9F8E5, size: 0x8, addend: 0x0, symName: __RNvMs0_NtNtNtCsht3nMU9UgFu_3std11collections4hash3mapINtB5_7HashMapRNtNtCsc29TF2YcYso_3syn4expr6MemberjE6insertCs9PzovR4aYST_14thiserror_impl, symObjAddr: 0x7C4, symBinAddr: 0x2DE4C, symSize: 0x30 }
  - { offset: 0x9F950, size: 0x8, addend: 0x0, symName: __RNvXNtCs4EAaWzSXu1l_5quote9to_tokensRNtNtCs9PzovR4aYST_14thiserror_impl4attr7DisplayNtB2_8ToTokens9to_tokensBD_, symObjAddr: 0x7F4, symBinAddr: 0x2DE7C, symSize: 0x40 }
  - { offset: 0x9F98F, size: 0x8, addend: 0x0, symName: __RNvXNtCs4EAaWzSXu1l_5quote9to_tokensRRNtNtCsc29TF2YcYso_3syn4attr9AttributeNtB2_8ToTokens9to_tokensCs9PzovR4aYST_14thiserror_impl, symObjAddr: 0x834, symBinAddr: 0x2DEBC, symSize: 0x40 }
  - { offset: 0x9F9D4, size: 0x8, addend: 0x0, symName: __RNvYNtNtCs9PzovR4aYST_14thiserror_impl4attr5TraitNtNtCs4EAaWzSXu1l_5quote9to_tokens8ToTokens15to_token_streamB6_, symObjAddr: 0x123C, symBinAddr: 0x2E8C4, symSize: 0x8C }
  - { offset: 0x9FA1E, size: 0x8, addend: 0x0, symName: __RNvYNtNtCs9PzovR4aYST_14thiserror_impl4attr7DisplayNtNtCs4EAaWzSXu1l_5quote9to_tokens8ToTokens15to_token_streamB6_, symObjAddr: 0x12C8, symBinAddr: 0x2E950, symSize: 0x8C }
  - { offset: 0x9FA68, size: 0x8, addend: 0x0, symName: __RNvYRNtNtCsc29TF2YcYso_3syn4attr9AttributeNtNtCs4EAaWzSXu1l_5quote9to_tokens8ToTokens15to_token_streamCs9PzovR4aYST_14thiserror_impl, symObjAddr: 0x13D8, symBinAddr: 0x2EA60, symSize: 0x8C }
  - { offset: 0x9FAB2, size: 0x8, addend: 0x0, symName: __RNvYRNtNtCsc29TF2YcYso_3syn4attr9AttributeNtNtCs4EAaWzSXu1l_5quote9to_tokens8ToTokens17into_token_streamCs9PzovR4aYST_14thiserror_impl, symObjAddr: 0x1464, symBinAddr: 0x2EAEC, symSize: 0x54 }
  - { offset: 0x9FAE7, size: 0x8, addend: 0x0, symName: __RNvYRRNtNtCsc29TF2YcYso_3syn4attr9AttributeNtNtCs4EAaWzSXu1l_5quote9to_tokens8ToTokens15to_token_streamCs9PzovR4aYST_14thiserror_impl, symObjAddr: 0x14B8, symBinAddr: 0x2EB40, symSize: 0x8C }
  - { offset: 0x9FB31, size: 0x8, addend: 0x0, symName: __RNvYRRNtNtCsc29TF2YcYso_3syn4attr9AttributeNtNtCs4EAaWzSXu1l_5quote9to_tokens8ToTokens17into_token_streamCs9PzovR4aYST_14thiserror_impl, symObjAddr: 0x1544, symBinAddr: 0x2EBCC, symSize: 0x54 }
  - { offset: 0x9FD96, size: 0x8, addend: 0x0, symName: __RNvMs3_NtCs9PzovR4aYST_14thiserror_impl3astNtNtB7_4attr5Attrs4span, symObjAddr: 0x1598, symBinAddr: 0x2EC20, symSize: 0xEC }
  - { offset: 0x9FEDA, size: 0x8, addend: 0x0, symName: __RNvMNtCs9PzovR4aYST_14thiserror_impl3fmtNtNtB4_4attr7Display16expand_shorthand, symObjAddr: 0x45F0, symBinAddr: 0x31C78, symSize: 0x15BC }
  - { offset: 0xA068E, size: 0x8, addend: 0x0, symName: __RINvMNtNtNtNtCsaNl6UpbT7bw_4core5slice4sort6stable5mergeINtB3_10MergeStateRNtCshnvkK9b4wzu_11proc_macro25IdentE10merge_downNvYB1a_NtNtBb_3cmp10PartialOrd2ltECs9PzovR4aYST_14thiserror_impl, symObjAddr: 0x0, symBinAddr: 0x3370C, symSize: 0x1D0 }
  - { offset: 0xA1198, size: 0x8, addend: 0x0, symName: __RNvXs17_NtNtCsaNl6UpbT7bw_4core3cmp5implsiNtB8_3Ord3cmpCs9PzovR4aYST_14thiserror_impl, symObjAddr: 0x2F60, symBinAddr: 0x36644, symSize: 0x38 }
  - { offset: 0xA11DB, size: 0x8, addend: 0x0, symName: __RNvXsV_NtNtCsaNl6UpbT7bw_4core3cmp5implsjNtB7_3Ord3cmpCs9PzovR4aYST_14thiserror_impl, symObjAddr: 0x3178, symBinAddr: 0x3685C, symSize: 0x38 }
  - { offset: 0xA1DA8, size: 0x8, addend: 0x0, symName: __RINvNtNtNtNtCsaNl6UpbT7bw_4core5slice4sort6stable5merge5mergeRNtCshnvkK9b4wzu_11proc_macro25IdentNvYBX_NtNtBa_3cmp10PartialOrd2ltECs9PzovR4aYST_14thiserror_impl, symObjAddr: 0x1834, symBinAddr: 0x34F40, symSize: 0x300 }
  - { offset: 0xA201F, size: 0x8, addend: 0x0, symName: __RNvXs_NtNtNtNtCsaNl6UpbT7bw_4core5slice4sort6stable5mergeINtB4_10MergeStateRNtCshnvkK9b4wzu_11proc_macro25IdentENtNtNtBc_3ops4drop4Drop4dropCs9PzovR4aYST_14thiserror_impl, symObjAddr: 0x31B0, symBinAddr: 0x36894, symSize: 0xEC }
  - { offset: 0xA7807, size: 0x8, addend: 0x0, symName: __RNCINvMsm_NtNtNtCsiTraAjBDcu4_5alloc11collections5btree8navigateINtNtBa_4node6HandleINtB13_7NodeRefNtNtB13_6marker5DyingNtCshnvkK9b4wzu_11proc_macro25IdentNtNtBa_7set_val9SetValZSTNtB1B_4LeafENtB1B_4EdgeE27deallocating_next_uncheckedNtNtBe_5alloc6GlobalE0Cs9PzovR4aYST_14thiserror_impl, symObjAddr: 0x1B5C, symBinAddr: 0x35240, symSize: 0x58 }
  - { offset: 0xA7877, size: 0x8, addend: 0x0, symName: __RNCINvMsm_NtNtNtCsiTraAjBDcu4_5alloc11collections5btree8navigateINtNtBa_4node6HandleINtB13_7NodeRefNtNtB13_6marker5DyingNtNtBe_6string6StringNtNtBa_7set_val9SetValZSTNtB1B_4LeafENtB1B_4EdgeE27deallocating_next_uncheckedNtNtBe_5alloc6GlobalE0Cs9PzovR4aYST_14thiserror_impl, symObjAddr: 0x1BB4, symBinAddr: 0x35298, symSize: 0x58 }
  - { offset: 0xA78E7, size: 0x8, addend: 0x0, symName: __RNCINvMsm_NtNtNtCsiTraAjBDcu4_5alloc11collections5btree8navigateINtNtBa_4node6HandleINtB13_7NodeRefNtNtB13_6marker5DyingNtNtBe_6string6StringTINtNtBa_3set8BTreeSetB1U_EINtNtCsc29TF2YcYso_3syn10punctuated10PunctuatedNtCshnvkK9b4wzu_11proc_macro211TokenStreamNtNtB2L_5token4PlusEENtB1B_4LeafENtB1B_4EdgeE27deallocating_next_uncheckedNtNtBe_5alloc6GlobalE0Cs9PzovR4aYST_14thiserror_impl, symObjAddr: 0x1C0C, symBinAddr: 0x352F0, symSize: 0x58 }
  - { offset: 0xA7957, size: 0x8, addend: 0x0, symName: __RNCINvMsm_NtNtNtCsiTraAjBDcu4_5alloc11collections5btree8navigateINtNtBa_4node6HandleINtB13_7NodeRefNtNtB13_6marker5DyingRNtCshnvkK9b4wzu_11proc_macro25IdentNtNtBa_7set_val9SetValZSTNtB1B_4LeafENtB1B_4EdgeE27deallocating_next_uncheckedNtNtBe_5alloc6GlobalE0Cs9PzovR4aYST_14thiserror_impl, symObjAddr: 0x1C64, symBinAddr: 0x35348, symSize: 0x58 }
  - { offset: 0xA79C7, size: 0x8, addend: 0x0, symName: __RNCINvMsm_NtNtNtCsiTraAjBDcu4_5alloc11collections5btree8navigateINtNtBa_4node6HandleINtB13_7NodeRefNtNtB13_6marker5DyingTjNtNtCs9PzovR4aYST_14thiserror_impl4attr5TraitENtNtBa_7set_val9SetValZSTNtB1B_4LeafENtB1B_4EdgeE27deallocating_next_uncheckedNtNtBe_5alloc6GlobalE0B20_, symObjAddr: 0x1CBC, symBinAddr: 0x353A0, symSize: 0x58 }
  - { offset: 0xA91AC, size: 0x8, addend: 0x0, symName: __RINvNtCsiTraAjBDcu4_5alloc5slice11stable_sortRNtCshnvkK9b4wzu_11proc_macro25IdentNvYBH_NtNtCsaNl6UpbT7bw_4core3cmp10PartialOrd2ltECs9PzovR4aYST_14thiserror_impl, symObjAddr: 0x1770, symBinAddr: 0x34E7C, symSize: 0xC4 }
  - { offset: 0xA92CA, size: 0x8, addend: 0x0, symName: __RINvMNtNtNtNtCsaNl6UpbT7bw_4core5slice4sort6stable5mergeINtB3_10MergeStateRNtCshnvkK9b4wzu_11proc_macro25IdentE10merge_downNvYB1a_NtNtBb_3cmp10PartialOrd2ltECs9PzovR4aYST_14thiserror_impl, symObjAddr: 0x0, symBinAddr: 0x3370C, symSize: 0x1D0 }
  - { offset: 0xA9460, size: 0x8, addend: 0x0, symName: __RINvMNtNtNtNtCsaNl6UpbT7bw_4core5slice4sort6stable5mergeINtB3_10MergeStateRNtCshnvkK9b4wzu_11proc_macro25IdentE8merge_upNvYB1a_NtNtBb_3cmp10PartialOrd2ltECs9PzovR4aYST_14thiserror_impl, symObjAddr: 0x1D0, symBinAddr: 0x338DC, symSize: 0x190 }
  - { offset: 0xA965C, size: 0x8, addend: 0x0, symName: __RNCNvMs3_NtNtCsht3nMU9UgFu_3std6thread5localINtB7_8LocalKeyINtNtCsaNl6UpbT7bw_4core4cell4CellPuEE7replace0Cs9PzovR4aYST_14thiserror_impl, symObjAddr: 0x1D14, symBinAddr: 0x353F8, symSize: 0x28 }
  - { offset: 0xA9815, size: 0x8, addend: 0x0, symName: __RINvMs2_NtNtCsht3nMU9UgFu_3std6thread5localINtB6_8LocalKeyINtNtCsaNl6UpbT7bw_4core4cell4CellPuEE4withNCNvMs3_B6_BF_7replace0B1s_ECs9PzovR4aYST_14thiserror_impl, symObjAddr: 0x360, symBinAddr: 0x33A6C, symSize: 0x54 }
  - { offset: 0xA98CE, size: 0x8, addend: 0x0, symName: __RINvMs2_NtNtCsht3nMU9UgFu_3std6thread5localINtB6_8LocalKeyINtNtCsaNl6UpbT7bw_4core4cell4CellPuEE8try_withNCNvMs3_B6_BF_7replace0B1s_ECs9PzovR4aYST_14thiserror_impl, symObjAddr: 0x3B4, symBinAddr: 0x33AC0, symSize: 0xE4 }
  - { offset: 0xA9A60, size: 0x8, addend: 0x0, symName: __RINvMs2_NtNtCsht3nMU9UgFu_3std6thread5localINtB6_8LocalKeyINtNtCsaNl6UpbT7bw_4core4cell4CellTyyEEE4withNCNvMNtNtBa_4hash6randomNtB1I_11RandomState3new0B21_ECs9PzovR4aYST_14thiserror_impl, symObjAddr: 0x498, symBinAddr: 0x33BA4, symSize: 0x50 }
  - { offset: 0xA9B19, size: 0x8, addend: 0x0, symName: __RINvMs2_NtNtCsht3nMU9UgFu_3std6thread5localINtB6_8LocalKeyINtNtCsaNl6UpbT7bw_4core4cell4CellTyyEEE8try_withNCNvMNtNtBa_4hash6randomNtB1M_11RandomState3new0B25_ECs9PzovR4aYST_14thiserror_impl, symObjAddr: 0x4E8, symBinAddr: 0x33BF4, symSize: 0xE8 }
  - { offset: 0xA9F49, size: 0x8, addend: 0x0, symName: __RINvNtCsc29TF2YcYso_3syn5parse12parse_scopedNCNvNtCs9PzovR4aYST_14thiserror_impl4attr21parse_error_attribute0EBM_, symObjAddr: 0x1740, symBinAddr: 0x34E4C, symSize: 0x30 }
  - { offset: 0xA9FA5, size: 0x8, addend: 0x0, symName: __RNvXsh_NtCsc29TF2YcYso_3syn5parseNvYNtNtB7_4expr4ExprNtB5_5Parse5parseNtB5_6Parser6parse2Cs9PzovR4aYST_14thiserror_impl, symObjAddr: 0x329C, symBinAddr: 0x36980, symSize: 0x350 }
  - { offset: 0xAA0B5, size: 0x8, addend: 0x0, symName: __RNvXsh_NtCsc29TF2YcYso_3syn5parseNvYNtNtB7_6derive11DeriveInputNtB5_5Parse5parseNtB5_6Parser6parse2Cs9PzovR4aYST_14thiserror_impl, symObjAddr: 0x35EC, symBinAddr: 0x36CD0, symSize: 0x354 }
  - { offset: 0xAA1C5, size: 0x8, addend: 0x0, symName: __RNvXsh_NtCsc29TF2YcYso_3syn5parseNvYNtNtB7_8generics14WherePredicateNtNtB7_11parse_quote10ParseQuote5parseNtB5_6Parser6parse2Cs9PzovR4aYST_14thiserror_impl, symObjAddr: 0x3940, symBinAddr: 0x37024, symSize: 0x364 }
  - { offset: 0xAA2DB, size: 0x8, addend: 0x0, symName: __RNvYNvYNtNtCsc29TF2YcYso_3syn6derive11DeriveInputNtNtB9_5parse5Parse5parseNtBN_6Parser5parseCs9PzovR4aYST_14thiserror_impl, symObjAddr: 0x3CC0, symBinAddr: 0x373A4, symSize: 0x88 }
  - { offset: 0xAB2CF, size: 0x8, addend: 0x0, symName: __RINvNtCsc29TF2YcYso_3syn11parse_quote5parseNtNtB4_8generics14WherePredicateECs9PzovR4aYST_14thiserror_impl, symObjAddr: 0x1670, symBinAddr: 0x34D7C, symSize: 0xD0 }
  - { offset: 0xAB334, size: 0x8, addend: 0x0, symName: __RINvNvNtCsc29TF2YcYso_3syn11parse_quote5parse18panic_cold_displayNtNtB6_5error5ErrorECs9PzovR4aYST_14thiserror_impl, symObjAddr: 0x1B34, symBinAddr: 0x1B4A70, symSize: 0x28 }
  - { offset: 0xAF3B5, size: 0x8, addend: 0x0, symName: __RINvMs9_NtCsc29TF2YcYso_3syn5parseNtB6_11ParseBuffer4stepNCNvNtCs9PzovR4aYST_14thiserror_impl9scan_expr9scan_expr0bEBZ_, symObjAddr: 0x5D0, symBinAddr: 0x33CDC, symSize: 0x1A0 }
  - { offset: 0xAF43F, size: 0x8, addend: 0x0, symName: __RINvMs9_NtCsc29TF2YcYso_3syn5parseNtB6_11ParseBuffer4stepNCNvNtCs9PzovR4aYST_14thiserror_impl9scan_expr9scan_exprs0_0bEBZ_, symObjAddr: 0x770, symBinAddr: 0x33E7C, symSize: 0x194 }
  - { offset: 0xAF4C9, size: 0x8, addend: 0x0, symName: __RINvMs9_NtCsc29TF2YcYso_3syn5parseNtB6_11ParseBuffer4stepNCNvNtCs9PzovR4aYST_14thiserror_impl9scan_expr9scan_exprs1_0bEBZ_, symObjAddr: 0x904, symBinAddr: 0x34010, symSize: 0x194 }
  - { offset: 0xAF553, size: 0x8, addend: 0x0, symName: __RINvMs9_NtCsc29TF2YcYso_3syn5parseNtB6_11ParseBuffer4stepNCNvNtCs9PzovR4aYST_14thiserror_impl9scan_expr9scan_exprs_0bEBZ_, symObjAddr: 0xA98, symBinAddr: 0x341A4, symSize: 0x1AC }
  - { offset: 0xAF5DE, size: 0x8, addend: 0x0, symName: __RINvMs9_NtCsc29TF2YcYso_3syn5parseNtB6_11ParseBuffer4stepNCNvXs0_NvNvNtCs9PzovR4aYST_14thiserror_impl4attr21parse_error_attribute1__NtB13_11transparentNtB6_5Parse5parse0B26_EB17_, symObjAddr: 0xC44, symBinAddr: 0x34350, symSize: 0x18C }
  - { offset: 0xAF668, size: 0x8, addend: 0x0, symName: __RINvMs9_NtCsc29TF2YcYso_3syn5parseNtB6_11ParseBuffer5parseINtNtCsaNl6UpbT7bw_4core6option6OptionNtCshnvkK9b4wzu_11proc_macro29TokenTreeEECs9PzovR4aYST_14thiserror_impl, symObjAddr: 0xDD0, symBinAddr: 0x344DC, symSize: 0x34 }
  - { offset: 0xAF694, size: 0x8, addend: 0x0, symName: __RINvMs9_NtCsc29TF2YcYso_3syn5parseNtB6_11ParseBuffer5parseNtCshnvkK9b4wzu_11proc_macro29TokenTreeECs9PzovR4aYST_14thiserror_impl, symObjAddr: 0xE04, symBinAddr: 0x34510, symSize: 0x34 }
  - { offset: 0xAF6C0, size: 0x8, addend: 0x0, symName: __RINvMs9_NtCsc29TF2YcYso_3syn5parseNtB6_11ParseBuffer5parseNtNvNtCs9PzovR4aYST_14thiserror_impl4attr21parse_error_attribute11transparentEB10_, symObjAddr: 0xE38, symBinAddr: 0x34544, symSize: 0x34 }
  - { offset: 0xAF718, size: 0x8, addend: 0x0, symName: __RINvMs9_NtCsc29TF2YcYso_3syn5parseNtB6_11ParseBuffer5peek2INvNtB8_5token2EqNtNtB8_9lookahead11TokenMarkerEECs9PzovR4aYST_14thiserror_impl, symObjAddr: 0xE6C, symBinAddr: 0x34578, symSize: 0x3C }
  - { offset: 0xAF778, size: 0x8, addend: 0x0, symName: __RINvMs9_NtCsc29TF2YcYso_3syn5parseNtB6_11ParseBuffer5peek2INvNtB8_5token4EqEqNtNtB8_9lookahead11TokenMarkerEECs9PzovR4aYST_14thiserror_impl, symObjAddr: 0xEA8, symBinAddr: 0x345B4, symSize: 0x3C }
  - { offset: 0xAF7B3, size: 0x8, addend: 0x0, symName: __RINvMs9_NtCsc29TF2YcYso_3syn5parseNtB6_11ParseBuffer5peek2NtNtB8_9lookahead3EndECs9PzovR4aYST_14thiserror_impl, symObjAddr: 0xEE4, symBinAddr: 0x345F0, symSize: 0x3C }
  - { offset: 0xAF7EE, size: 0x8, addend: 0x0, symName: __RINvMs9_NtCsc29TF2YcYso_3syn5parseNtB6_11ParseBuffer5peek2NtNtNtB8_3ext7private6PeekFnECs9PzovR4aYST_14thiserror_impl, symObjAddr: 0xF20, symBinAddr: 0x3462C, symSize: 0x3C }
  - { offset: 0xAF84E, size: 0x8, addend: 0x0, symName: __RINvMs9_NtCsc29TF2YcYso_3syn5parseNtB6_11ParseBuffer5peek2NvNtB8_3lit6LitIntECs9PzovR4aYST_14thiserror_impl, symObjAddr: 0xF5C, symBinAddr: 0x34668, symSize: 0x3C }
  - { offset: 0xAF8AE, size: 0x8, addend: 0x0, symName: __RINvMs9_NtCsc29TF2YcYso_3syn5parseNtB6_11ParseBuffer5peek2NvNtB8_3lit8LitFloatECs9PzovR4aYST_14thiserror_impl, symObjAddr: 0xF98, symBinAddr: 0x346A4, symSize: 0x3C }
  - { offset: 0xAF8E9, size: 0x8, addend: 0x0, symName: __RINvMs9_NtCsc29TF2YcYso_3syn5parseNtB6_11ParseBuffer5peek3INvNtB8_5token4EqEqNtNtB8_9lookahead11TokenMarkerEECs9PzovR4aYST_14thiserror_impl, symObjAddr: 0xFD4, symBinAddr: 0x346E0, symSize: 0x3C }
  - { offset: 0xAF9B5, size: 0x8, addend: 0x0, symName: __RINvMsb_NtNtNtCsiTraAjBDcu4_5alloc11collections5btree8navigateINtB6_13LazyLeafRangeNtNtNtB8_4node6marker5DyingNtCshnvkK9b4wzu_11proc_macro25IdentNtNtB8_7set_val9SetValZSTE16deallocating_endNtNtBc_5alloc6GlobalECs9PzovR4aYST_14thiserror_impl, symObjAddr: 0x1010, symBinAddr: 0x3471C, symSize: 0x98 }
  - { offset: 0xAFAB2, size: 0x8, addend: 0x0, symName: __RINvMsb_NtNtNtCsiTraAjBDcu4_5alloc11collections5btree8navigateINtB6_13LazyLeafRangeNtNtNtB8_4node6marker5DyingNtCshnvkK9b4wzu_11proc_macro25IdentNtNtB8_7set_val9SetValZSTE27deallocating_next_uncheckedNtNtBc_5alloc6GlobalECs9PzovR4aYST_14thiserror_impl, symObjAddr: 0x10A8, symBinAddr: 0x347B4, symSize: 0xA8 }
  - { offset: 0xAFB95, size: 0x8, addend: 0x0, symName: __RINvMsb_NtNtNtCsiTraAjBDcu4_5alloc11collections5btree8navigateINtB6_13LazyLeafRangeNtNtNtB8_4node6marker5DyingNtNtBc_6string6StringNtNtB8_7set_val9SetValZSTE16deallocating_endNtNtBc_5alloc6GlobalECs9PzovR4aYST_14thiserror_impl, symObjAddr: 0x1150, symBinAddr: 0x3485C, symSize: 0x98 }
  - { offset: 0xAFC67, size: 0x8, addend: 0x0, symName: __RINvMsb_NtNtNtCsiTraAjBDcu4_5alloc11collections5btree8navigateINtB6_13LazyLeafRangeNtNtNtB8_4node6marker5DyingNtNtBc_6string6StringNtNtB8_7set_val9SetValZSTE27deallocating_next_uncheckedNtNtBc_5alloc6GlobalECs9PzovR4aYST_14thiserror_impl, symObjAddr: 0x11E8, symBinAddr: 0x348F4, symSize: 0xA8 }
  - { offset: 0xAFDDC, size: 0x8, addend: 0x0, symName: __RINvMsb_NtNtNtCsiTraAjBDcu4_5alloc11collections5btree8navigateINtB6_13LazyLeafRangeNtNtNtB8_4node6marker5DyingNtNtBc_6string6StringTINtNtB8_3set8BTreeSetB1K_EINtNtCsc29TF2YcYso_3syn10punctuated10PunctuatedNtCshnvkK9b4wzu_11proc_macro211TokenStreamNtNtB2B_5token4PlusEEE16deallocating_endNtNtBc_5alloc6GlobalECs9PzovR4aYST_14thiserror_impl, symObjAddr: 0x1290, symBinAddr: 0x3499C, symSize: 0x98 }
  - { offset: 0xAFEAE, size: 0x8, addend: 0x0, symName: __RINvMsb_NtNtNtCsiTraAjBDcu4_5alloc11collections5btree8navigateINtB6_13LazyLeafRangeNtNtNtB8_4node6marker5DyingNtNtBc_6string6StringTINtNtB8_3set8BTreeSetB1K_EINtNtCsc29TF2YcYso_3syn10punctuated10PunctuatedNtCshnvkK9b4wzu_11proc_macro211TokenStreamNtNtB2B_5token4PlusEEE27deallocating_next_uncheckedNtNtBc_5alloc6GlobalECs9PzovR4aYST_14thiserror_impl, symObjAddr: 0x1328, symBinAddr: 0x34A34, symSize: 0xA8 }
  - { offset: 0xAFF91, size: 0x8, addend: 0x0, symName: __RINvMsb_NtNtNtCsiTraAjBDcu4_5alloc11collections5btree8navigateINtB6_13LazyLeafRangeNtNtNtB8_4node6marker5DyingRNtCshnvkK9b4wzu_11proc_macro25IdentNtNtB8_7set_val9SetValZSTE16deallocating_endNtNtBc_5alloc6GlobalECs9PzovR4aYST_14thiserror_impl, symObjAddr: 0x13D0, symBinAddr: 0x34ADC, symSize: 0x98 }
  - { offset: 0xB0063, size: 0x8, addend: 0x0, symName: __RINvMsb_NtNtNtCsiTraAjBDcu4_5alloc11collections5btree8navigateINtB6_13LazyLeafRangeNtNtNtB8_4node6marker5DyingRNtCshnvkK9b4wzu_11proc_macro25IdentNtNtB8_7set_val9SetValZSTE27deallocating_next_uncheckedNtNtBc_5alloc6GlobalECs9PzovR4aYST_14thiserror_impl, symObjAddr: 0x1468, symBinAddr: 0x34B74, symSize: 0xA8 }
  - { offset: 0xB0164, size: 0x8, addend: 0x0, symName: __RINvMsb_NtNtNtCsiTraAjBDcu4_5alloc11collections5btree8navigateINtB6_13LazyLeafRangeNtNtNtB8_4node6marker5DyingTjNtNtCs9PzovR4aYST_14thiserror_impl4attr5TraitENtNtB8_7set_val9SetValZSTE16deallocating_endNtNtBc_5alloc6GlobalEB1Q_, symObjAddr: 0x1510, symBinAddr: 0x34C1C, symSize: 0x98 }
  - { offset: 0xB0236, size: 0x8, addend: 0x0, symName: __RINvMsb_NtNtNtCsiTraAjBDcu4_5alloc11collections5btree8navigateINtB6_13LazyLeafRangeNtNtNtB8_4node6marker5DyingTjNtNtCs9PzovR4aYST_14thiserror_impl4attr5TraitENtNtB8_7set_val9SetValZSTE27deallocating_next_uncheckedNtNtBc_5alloc6GlobalEB1Q_, symObjAddr: 0x15A8, symBinAddr: 0x34CB4, symSize: 0xA8 }
  - { offset: 0xB02E2, size: 0x8, addend: 0x0, symName: __RINvNtCs4EAaWzSXu1l_5quote9___private8get_spanNtCshnvkK9b4wzu_11proc_macro24SpanECs9PzovR4aYST_14thiserror_impl, symObjAddr: 0x1650, symBinAddr: 0x34D5C, symSize: 0x20 }
  - { offset: 0xB0396, size: 0x8, addend: 0x0, symName: __RNvXs5_NtCs4EAaWzSXu1l_5quote9___privateINtB5_9RepInterpNtCshnvkK9b4wzu_11proc_macro211TokenStreamENtNtB7_9to_tokens8ToTokens9to_tokensCs9PzovR4aYST_14thiserror_impl, symObjAddr: 0x2F98, symBinAddr: 0x3667C, symSize: 0x3C }
  - { offset: 0xB03D5, size: 0x8, addend: 0x0, symName: __RNvXs5_NtCs4EAaWzSXu1l_5quote9___privateINtB5_9RepInterpNtCshnvkK9b4wzu_11proc_macro25IdentENtNtB7_9to_tokens8ToTokens9to_tokensCs9PzovR4aYST_14thiserror_impl, symObjAddr: 0x2FD4, symBinAddr: 0x366B8, symSize: 0x3C }
  - { offset: 0xB0414, size: 0x8, addend: 0x0, symName: __RNvXs5_NtCs4EAaWzSXu1l_5quote9___privateINtB5_9RepInterpRNtCshnvkK9b4wzu_11proc_macro211TokenStreamENtNtB7_9to_tokens8ToTokens9to_tokensCs9PzovR4aYST_14thiserror_impl, symObjAddr: 0x3010, symBinAddr: 0x366F4, symSize: 0x3C }
  - { offset: 0xB0453, size: 0x8, addend: 0x0, symName: __RNvXs5_NtCs4EAaWzSXu1l_5quote9___privateINtB5_9RepInterpRNtNtCsc29TF2YcYso_3syn4expr6MemberENtNtB7_9to_tokens8ToTokens9to_tokensCs9PzovR4aYST_14thiserror_impl, symObjAddr: 0x304C, symBinAddr: 0x36730, symSize: 0x3C }
  - { offset: 0xB0498, size: 0x8, addend: 0x0, symName: __RNvXs7_NtCs4EAaWzSXu1l_5quote9___privateINtB5_20IdentFragmentAdapterRNtCshnvkK9b4wzu_11proc_macro25IdentENtNtCsaNl6UpbT7bw_4core3fmt7Display3fmtCs9PzovR4aYST_14thiserror_impl, symObjAddr: 0x3088, symBinAddr: 0x3676C, symSize: 0x3C }
  - { offset: 0xB04DE, size: 0x8, addend: 0x0, symName: __RNvXs7_NtCs4EAaWzSXu1l_5quote9___privateINtB5_20IdentFragmentAdapterRNtNtCsc29TF2YcYso_3syn4expr5IndexENtNtCsaNl6UpbT7bw_4core3fmt7Display3fmtCs9PzovR4aYST_14thiserror_impl, symObjAddr: 0x30C4, symBinAddr: 0x367A8, symSize: 0x3C }
  - { offset: 0xB0524, size: 0x8, addend: 0x0, symName: __RNvXs7_NtCs4EAaWzSXu1l_5quote9___privateINtB5_20IdentFragmentAdapterRRNtNtCsc29TF2YcYso_3syn4expr5IndexENtNtCsaNl6UpbT7bw_4core3fmt7Display3fmtCs9PzovR4aYST_14thiserror_impl, symObjAddr: 0x3100, symBinAddr: 0x367E4, symSize: 0x3C }
  - { offset: 0xB056A, size: 0x8, addend: 0x0, symName: __RNvXs7_NtCs4EAaWzSXu1l_5quote9___privateINtB5_20IdentFragmentAdapterRmENtNtCsaNl6UpbT7bw_4core3fmt7Display3fmtCs9PzovR4aYST_14thiserror_impl, symObjAddr: 0x313C, symBinAddr: 0x36820, symSize: 0x3C }
  - { offset: 0xB05B6, size: 0x8, addend: 0x0, symName: __RNvYINtNtCs4EAaWzSXu1l_5quote9___private11HasIteratorKb1_EINtB5_16CheckHasIteratorKBQ_E5checkCs9PzovR4aYST_14thiserror_impl, symObjAddr: 0x3CA4, symBinAddr: 0x37388, symSize: 0x1C }
  - { offset: 0xB0906, size: 0x8, addend: 0x0, symName: __RNvMs6_NtCs4EAaWzSXu1l_5quote9___privateINtB5_20IdentFragmentAdapterRNtCshnvkK9b4wzu_11proc_macro25IdentE4spanCs9PzovR4aYST_14thiserror_impl, symObjAddr: 0x1D3C, symBinAddr: 0x35420, symSize: 0x34 }
  - { offset: 0xB0959, size: 0x8, addend: 0x0, symName: __RNvMs6_NtCs4EAaWzSXu1l_5quote9___privateINtB5_20IdentFragmentAdapterRRNtNtCsc29TF2YcYso_3syn4expr5IndexE4spanCs9PzovR4aYST_14thiserror_impl, symObjAddr: 0x1D70, symBinAddr: 0x35454, symSize: 0x34 }
  - { offset: 0xB0B1B, size: 0x8, addend: 0x0, symName: __RNvMsb_NtNtNtCsiTraAjBDcu4_5alloc11collections5btree8navigateINtB5_13LazyLeafRangeNtNtNtB7_4node6marker5DyingNtCshnvkK9b4wzu_11proc_macro25IdentNtNtB7_7set_val9SetValZSTE10take_frontCs9PzovR4aYST_14thiserror_impl, symObjAddr: 0x1DA4, symBinAddr: 0x35488, symSize: 0x1C4 }
  - { offset: 0xB0E8A, size: 0x8, addend: 0x0, symName: __RNvMsb_NtNtNtCsiTraAjBDcu4_5alloc11collections5btree8navigateINtB5_13LazyLeafRangeNtNtNtB7_4node6marker5DyingNtNtBb_6string6StringNtNtB7_7set_val9SetValZSTE10take_frontCs9PzovR4aYST_14thiserror_impl, symObjAddr: 0x1F68, symBinAddr: 0x3564C, symSize: 0x1C4 }
  - { offset: 0xB11F9, size: 0x8, addend: 0x0, symName: __RNvMsb_NtNtNtCsiTraAjBDcu4_5alloc11collections5btree8navigateINtB5_13LazyLeafRangeNtNtNtB7_4node6marker5DyingNtNtBb_6string6StringTINtNtB7_3set8BTreeSetB1J_EINtNtCsc29TF2YcYso_3syn10punctuated10PunctuatedNtCshnvkK9b4wzu_11proc_macro211TokenStreamNtNtB2A_5token4PlusEEE10take_frontCs9PzovR4aYST_14thiserror_impl, symObjAddr: 0x212C, symBinAddr: 0x35810, symSize: 0x1C4 }
  - { offset: 0xB1568, size: 0x8, addend: 0x0, symName: __RNvMsb_NtNtNtCsiTraAjBDcu4_5alloc11collections5btree8navigateINtB5_13LazyLeafRangeNtNtNtB7_4node6marker5DyingRNtCshnvkK9b4wzu_11proc_macro25IdentNtNtB7_7set_val9SetValZSTE10take_frontCs9PzovR4aYST_14thiserror_impl, symObjAddr: 0x22F0, symBinAddr: 0x359D4, symSize: 0x1C4 }
  - { offset: 0xB18D7, size: 0x8, addend: 0x0, symName: __RNvMsb_NtNtNtCsiTraAjBDcu4_5alloc11collections5btree8navigateINtB5_13LazyLeafRangeNtNtNtB7_4node6marker5DyingTjNtNtCs9PzovR4aYST_14thiserror_impl4attr5TraitENtNtB7_7set_val9SetValZSTE10take_frontB1P_, symObjAddr: 0x24B4, symBinAddr: 0x35B98, symSize: 0x1C4 }
  - { offset: 0xB1C2A, size: 0x8, addend: 0x0, symName: __RNvMsc_NtNtNtCsiTraAjBDcu4_5alloc11collections5btree8navigateINtB5_13LazyLeafRangeNtNtNtB7_4node6marker5DyingNtCshnvkK9b4wzu_11proc_macro25IdentNtNtB7_7set_val9SetValZSTE10init_frontCs9PzovR4aYST_14thiserror_impl, symObjAddr: 0x2678, symBinAddr: 0x35D5C, symSize: 0x1C8 }
  - { offset: 0xB1F0C, size: 0x8, addend: 0x0, symName: __RNvMsc_NtNtNtCsiTraAjBDcu4_5alloc11collections5btree8navigateINtB5_13LazyLeafRangeNtNtNtB7_4node6marker5DyingNtNtBb_6string6StringNtNtB7_7set_val9SetValZSTE10init_frontCs9PzovR4aYST_14thiserror_impl, symObjAddr: 0x2840, symBinAddr: 0x35F24, symSize: 0x1C8 }
  - { offset: 0xB21EE, size: 0x8, addend: 0x0, symName: __RNvMsc_NtNtNtCsiTraAjBDcu4_5alloc11collections5btree8navigateINtB5_13LazyLeafRangeNtNtNtB7_4node6marker5DyingNtNtBb_6string6StringTINtNtB7_3set8BTreeSetB1J_EINtNtCsc29TF2YcYso_3syn10punctuated10PunctuatedNtCshnvkK9b4wzu_11proc_macro211TokenStreamNtNtB2A_5token4PlusEEE10init_frontCs9PzovR4aYST_14thiserror_impl, symObjAddr: 0x2A08, symBinAddr: 0x360EC, symSize: 0x1C8 }
  - { offset: 0xB24D0, size: 0x8, addend: 0x0, symName: __RNvMsc_NtNtNtCsiTraAjBDcu4_5alloc11collections5btree8navigateINtB5_13LazyLeafRangeNtNtNtB7_4node6marker5DyingRNtCshnvkK9b4wzu_11proc_macro25IdentNtNtB7_7set_val9SetValZSTE10init_frontCs9PzovR4aYST_14thiserror_impl, symObjAddr: 0x2BD0, symBinAddr: 0x362B4, symSize: 0x1C8 }
  - { offset: 0xB27B2, size: 0x8, addend: 0x0, symName: __RNvMsc_NtNtNtCsiTraAjBDcu4_5alloc11collections5btree8navigateINtB5_13LazyLeafRangeNtNtNtB7_4node6marker5DyingTjNtNtCs9PzovR4aYST_14thiserror_impl4attr5TraitENtNtB7_7set_val9SetValZSTE10init_frontB1P_, symObjAddr: 0x2D98, symBinAddr: 0x3647C, symSize: 0x1C8 }
  - { offset: 0xB2FFE, size: 0x8, addend: 0x0, symName: __RINvMNtCsc29TF2YcYso_3syn9lookaheadNtB3_10Lookahead14peekINvNvNtCs9PzovR4aYST_14thiserror_impl4attr21parse_error_attribute11transparentNtB3_11TokenMarkerEEB10_, symObjAddr: 0x0, symBinAddr: 0x3742C, symSize: 0x44 }
  - { offset: 0xB3C2B, size: 0x8, addend: 0x0, symName: __RNCNvMs_NtCs9PzovR4aYST_14thiserror_impl4propNtNtB8_3ast4Enum10has_source0B8_, symObjAddr: 0x2B00, symBinAddr: 0x39DB0, symSize: 0x94 }
  - { offset: 0xB3C6E, size: 0x8, addend: 0x0, symName: __RNCNvMs_NtCs9PzovR4aYST_14thiserror_impl4propNtNtB8_3ast4Enum13has_backtrace0B8_, symObjAddr: 0x2B94, symBinAddr: 0x39E44, symSize: 0x50 }
  - { offset: 0xB3CB1, size: 0x8, addend: 0x0, symName: __RNCNvMs_NtCs9PzovR4aYST_14thiserror_impl4propNtNtB8_3ast4Enum11has_display0B8_, symObjAddr: 0x2BE4, symBinAddr: 0x39E94, symSize: 0x38 }
  - { offset: 0xB3CE7, size: 0x8, addend: 0x0, symName: __RNCNvMs_NtCs9PzovR4aYST_14thiserror_impl4propNtNtB8_3ast4Enum11has_displays_0B8_, symObjAddr: 0x2C1C, symBinAddr: 0x39ECC, symSize: 0x38 }
  - { offset: 0xB3D2D, size: 0x8, addend: 0x0, symName: __RNvNtCs9PzovR4aYST_14thiserror_impl4prop10from_field, symObjAddr: 0x2C54, symBinAddr: 0x39F04, symSize: 0xCC }
  - { offset: 0xB3D83, size: 0x8, addend: 0x0, symName: __RNvNtCs9PzovR4aYST_14thiserror_impl4prop12source_field, symObjAddr: 0x2D20, symBinAddr: 0x39FD0, symSize: 0x204 }
  - { offset: 0xB3E31, size: 0x8, addend: 0x0, symName: __RNvNtCs9PzovR4aYST_14thiserror_impl4prop15backtrace_field, symObjAddr: 0x2F24, symBinAddr: 0x3A1D4, symSize: 0x164 }
  - { offset: 0xB3EB2, size: 0x8, addend: 0x0, symName: __RNvNtCs9PzovR4aYST_14thiserror_impl4prop24distinct_backtrace_field, symObjAddr: 0x3088, symBinAddr: 0x3A338, symSize: 0x84 }
  - { offset: 0xB3EF1, size: 0x8, addend: 0x0, symName: __RNCNvNtCs9PzovR4aYST_14thiserror_impl4prop24distinct_backtrace_field0B5_, symObjAddr: 0x310C, symBinAddr: 0x3A3BC, symSize: 0x40 }
  - { offset: 0xB3F2E, size: 0x8, addend: 0x0, symName: __RNvNtCs9PzovR4aYST_14thiserror_impl4prop17type_is_backtrace, symObjAddr: 0x314C, symBinAddr: 0x3A3FC, symSize: 0x10C }
  - { offset: 0xB486B, size: 0x8, addend: 0x0, symName: __RINvNtCsaNl6UpbT7bw_4core3ptr10swap_chunkKj1_ECs9PzovR4aYST_14thiserror_impl, symObjAddr: 0x98, symBinAddr: 0x374C4, symSize: 0x3C }
  - { offset: 0xB48A4, size: 0x8, addend: 0x0, symName: __RINvNtCsaNl6UpbT7bw_4core3ptr10swap_chunkKj2_ECs9PzovR4aYST_14thiserror_impl, symObjAddr: 0xD4, symBinAddr: 0x37500, symSize: 0x3C }
  - { offset: 0xB48DD, size: 0x8, addend: 0x0, symName: __RINvNtCsaNl6UpbT7bw_4core3ptr10swap_chunkKj4_ECs9PzovR4aYST_14thiserror_impl, symObjAddr: 0x110, symBinAddr: 0x3753C, symSize: 0x3C }
  - { offset: 0xB4916, size: 0x8, addend: 0x0, symName: __RINvNtCsaNl6UpbT7bw_4core3ptr10swap_chunkKj8_ECs9PzovR4aYST_14thiserror_impl, symObjAddr: 0x14C, symBinAddr: 0x37578, symSize: 0x3C }
  - { offset: 0xB498A, size: 0x8, addend: 0x0, symName: __RINvNtCsaNl6UpbT7bw_4core3ptr14read_unalignedNtNtNtNtB4_9core_arch10arm_shared4neon9uint8x8_tECs9PzovR4aYST_14thiserror_impl, symObjAddr: 0x188, symBinAddr: 0x375B4, symSize: 0x94 }
  - { offset: 0xB4A99, size: 0x8, addend: 0x0, symName: __RINvNtCsaNl6UpbT7bw_4core3ptr15write_unalignedNtNtNtNtB4_9core_arch10arm_shared4neon9uint8x8_tECs9PzovR4aYST_14thiserror_impl, symObjAddr: 0x21C, symBinAddr: 0x37648, symSize: 0x78 }
  - { offset: 0xB4BB5, size: 0x8, addend: 0x0, symName: __RNvNvNtCsaNl6UpbT7bw_4core3ptr19swap_nonoverlapping18precondition_checkCs9PzovR4aYST_14thiserror_impl, symObjAddr: 0x19D4, symBinAddr: 0x38C84, symSize: 0x38C }
  - { offset: 0xB4E95, size: 0x8, addend: 0x0, symName: __RINvNtCsaNl6UpbT7bw_4core3ptr19swap_nonoverlappinghECs9PzovR4aYST_14thiserror_impl, symObjAddr: 0x410, symBinAddr: 0x376C0, symSize: 0xBC }
  - { offset: 0xB513C, size: 0x8, addend: 0x0, symName: __RINvNvNtCsaNl6UpbT7bw_4core3ptr25swap_nonoverlapping_bytes26swap_nonoverlapping_chunksKj8_ECs9PzovR4aYST_14thiserror_impl, symObjAddr: 0xE4C, symBinAddr: 0x380FC, symSize: 0xE4 }
  - { offset: 0xB52DA, size: 0x8, addend: 0x0, symName: __RNvNvNtCsaNl6UpbT7bw_4core3ptr25swap_nonoverlapping_bytes25swap_nonoverlapping_shortCs9PzovR4aYST_14thiserror_impl, symObjAddr: 0x1D60, symBinAddr: 0x39010, symSize: 0x120 }
  - { offset: 0xB549C, size: 0x8, addend: 0x0, symName: __RNvNtCsaNl6UpbT7bw_4core3ptr25swap_nonoverlapping_bytesCs9PzovR4aYST_14thiserror_impl, symObjAddr: 0x1590, symBinAddr: 0x38840, symSize: 0xD8 }
  - { offset: 0xB57D9, size: 0x8, addend: 0x0, symName: __RNvNvNtCsaNl6UpbT7bw_4core3ptr19copy_nonoverlapping18precondition_checkCs9PzovR4aYST_14thiserror_impl, symObjAddr: 0x1668, symBinAddr: 0x38918, symSize: 0x36C }
  - { offset: 0xB5A8C, size: 0x8, addend: 0x0, symName: __RNvNvNtCsaNl6UpbT7bw_4core3ptr4copy18precondition_checkCs9PzovR4aYST_14thiserror_impl, symObjAddr: 0x1E80, symBinAddr: 0x39130, symSize: 0x240 }
  - { offset: 0xB5CA7, size: 0x8, addend: 0x0, symName: __RNvNvNtCsaNl6UpbT7bw_4core3ptr7replace18precondition_checkCs9PzovR4aYST_14thiserror_impl, symObjAddr: 0x20C0, symBinAddr: 0x39370, symSize: 0x16C }
  - { offset: 0xB9708, size: 0x8, addend: 0x0, symName: __RINvNtNtNtNtCsaNl6UpbT7bw_4core5slice4sort6stable5drift10create_runRNtCshnvkK9b4wzu_11proc_macro25IdentNvYB13_NtNtBa_3cmp10PartialOrd2ltECs9PzovR4aYST_14thiserror_impl, symObjAddr: 0x4CC, symBinAddr: 0x3777C, symSize: 0x3A4 }
  - { offset: 0xB9B30, size: 0x8, addend: 0x0, symName: __RINvNtNtNtNtCsaNl6UpbT7bw_4core5slice4sort6stable5drift16stable_quicksortRNtCshnvkK9b4wzu_11proc_macro25IdentNvYB19_NtNtBa_3cmp10PartialOrd2ltECs9PzovR4aYST_14thiserror_impl, symObjAddr: 0x870, symBinAddr: 0x37B20, symSize: 0xB4 }
  - { offset: 0xB9D4D, size: 0x8, addend: 0x0, symName: __RINvNtNtNtNtCsaNl6UpbT7bw_4core5slice4sort6stable5drift4sortRNtCshnvkK9b4wzu_11proc_macro25IdentNvYBW_NtNtBa_3cmp10PartialOrd2ltECs9PzovR4aYST_14thiserror_impl, symObjAddr: 0x924, symBinAddr: 0x37BD4, symSize: 0x528 }
  - { offset: 0xBAD53, size: 0x8, addend: 0x0, symName: __RNCINvNtNtNtCsaNl6UpbT7bw_4core4iter8adapters3map12map_try_foldRNtNtCsc29TF2YcYso_3syn4data7VariantINtNtBa_6result6ResultNtNtCs9PzovR4aYST_14thiserror_impl3ast7VariantNtNtB14_5error5ErrorEuINtNtNtBa_3ops12control_flow11ControlFlowIB32_B1V_EENCNvMs0_B1X_NtB1X_4Enum8from_syn0NCINvXB6_INtB6_12GenericShuntINtB4_3MapINtNtB14_10punctuated4IterB10_EB3R_EIB1A_NtNtBa_7convert10InfallibleB2F_EENtNtNtB8_6traits8iterator8Iterator8try_folduNCINvNvB6d_12try_for_each4callB1V_B3G_NcNtB3G_5Break0E0B3G_E0E0B1Z_, symObjAddr: 0x1278, symBinAddr: 0x38528, symSize: 0xA8 }
  - { offset: 0xBADE5, size: 0x8, addend: 0x0, symName: __RNCINvNtNtNtCsaNl6UpbT7bw_4core4iter8adapters3map12map_try_foldTjRNtNtCsc29TF2YcYso_3syn4data5FieldEINtNtBa_6result6ResultNtNtCs9PzovR4aYST_14thiserror_impl3ast5FieldNtNtB16_5error5ErrorEuINtNtNtBa_3ops12control_flow11ControlFlowIB31_B1W_EENCNvMs2_B1Y_B1W_17multiple_from_syn0NCINvXB6_INtB6_12GenericShuntINtB4_3MapINtNtB6_9enumerate9EnumerateINtNtB16_10punctuated4IterB12_EEB3Q_EIB1B_NtNtBa_7convert10InfallibleB2E_EENtNtNtB8_6traits8iterator8Iterator8try_folduNCINvNvB6I_12try_for_each4callB1W_B3F_NcNtB3F_5Break0E0B3F_E0E0B20_, symObjAddr: 0x1320, symBinAddr: 0x385D0, symSize: 0xAC }
  - { offset: 0xBAE7D, size: 0x8, addend: 0x0, symName: __RINvXs0_NtNtNtCsaNl6UpbT7bw_4core4iter8adapters3mapINtB6_3MapINtNtB8_9enumerate9EnumerateINtNtCsc29TF2YcYso_3syn10punctuated4IterNtNtB1u_4data5FieldEENCNvMs2_NtCs9PzovR4aYST_14thiserror_impl3astNtB2w_5Field17multiple_from_syn0ENtNtNtBa_6traits8iterator8Iterator8try_folduNCINvXB8_INtB8_12GenericShuntBN_INtNtBc_6result6ResultNtNtBc_7convert10InfallibleNtNtB1u_5error5ErrorEEB3D_8try_folduNCINvNvB3D_12try_for_each4callB36_INtNtNtBc_3ops12control_flow11ControlFlowB36_ENcNtB6M_5Break0E0B6M_E0IB6N_B6M_EEB2y_, symObjAddr: 0xF30, symBinAddr: 0x381E0, symSize: 0x54 }
  - { offset: 0xBAF20, size: 0x8, addend: 0x0, symName: __RINvXs0_NtNtNtCsaNl6UpbT7bw_4core4iter8adapters3mapINtB6_3MapINtNtCsc29TF2YcYso_3syn10punctuated4IterNtNtB12_4data7VariantENCNvMs0_NtCs9PzovR4aYST_14thiserror_impl3astNtB25_4Enum8from_syn0ENtNtNtBa_6traits8iterator8Iterator8try_folduNCINvXB8_INtB8_12GenericShuntBN_INtNtBc_6result6ResultNtNtBc_7convert10InfallibleNtNtB12_5error5ErrorEEB31_8try_folduNCINvNvB31_12try_for_each4callNtB25_7VariantINtNtNtBc_3ops12control_flow11ControlFlowB66_ENcNtB6k_5Break0E0B6k_E0IB6l_B6k_EEB27_, symObjAddr: 0xF84, symBinAddr: 0x38234, symSize: 0x54 }
  - { offset: 0xBAFC3, size: 0x8, addend: 0x0, symName: __RINvXs0_NtNtNtCsaNl6UpbT7bw_4core4iter8adapters3mapINtB6_3MapINtNtNtBc_5slice4iter4IterNtNtCs9PzovR4aYST_14thiserror_impl3ast7VariantENCNvNtB1r_6expand9impl_enums1_0ENtNtNtBa_6traits8iterator8Iterator4folduNCINvNvB2E_8for_each4callNtCshnvkK9b4wzu_11proc_macro211TokenStreamNCINvMsi_NtCsiTraAjBDcu4_5alloc3vecINtB4w_3VecB3H_E14extend_trustedBN_E0E0EB1r_, symObjAddr: 0xFD8, symBinAddr: 0x38288, symSize: 0x58 }
  - { offset: 0xBB05C, size: 0x8, addend: 0x0, symName: __RNvXs0_NtNtNtCsaNl6UpbT7bw_4core4iter8adapters3mapINtB5_3MapINtNtB7_8peekable8PeekableIBN_INtNtNtBb_5slice4iter4IterNtNtCs9PzovR4aYST_14thiserror_impl3ast5FieldENCNvNtB1U_6expand10fields_pat0EENCB2B_s_0ENtNtNtB9_6traits8iterator8Iterator4nextB1U_, symObjAddr: 0x2384, symBinAddr: 0x39634, symSize: 0x94 }
  - { offset: 0xBB0F4, size: 0x8, addend: 0x0, symName: __RNvXs0_NtNtNtCsaNl6UpbT7bw_4core4iter8adapters3mapINtB5_3MapINtNtB7_9enumerate9EnumerateINtNtCsc29TF2YcYso_3syn10punctuated4IterNtNtB1t_4data5FieldEENCNvMs2_NtCs9PzovR4aYST_14thiserror_impl3astNtB2v_5Field17multiple_from_syn0ENtNtNtB9_6traits8iterator8Iterator9size_hintB2x_, symObjAddr: 0x2418, symBinAddr: 0x396C8, symSize: 0x24 }
  - { offset: 0xBB13B, size: 0x8, addend: 0x0, symName: __RNvXs0_NtNtNtCsaNl6UpbT7bw_4core4iter8adapters3mapINtB5_3MapINtNtCsc29TF2YcYso_3syn10punctuated4IterNtNtB11_4data7VariantENCNvMs0_NtCs9PzovR4aYST_14thiserror_impl3astNtB24_4Enum8from_syn0ENtNtNtB9_6traits8iterator8Iterator9size_hintB26_, symObjAddr: 0x243C, symBinAddr: 0x396EC, symSize: 0x24 }
  - { offset: 0xBB182, size: 0x8, addend: 0x0, symName: __RNvXs0_NtNtNtCsaNl6UpbT7bw_4core4iter8adapters3mapINtB5_3MapINtNtNtBb_3str4iter5SplitcEINvCsc29TF2YcYso_3syn9parse_strNtNtB1q_4expr5IndexEENtNtNtB9_6traits8iterator8Iterator4nextCs9PzovR4aYST_14thiserror_impl, symObjAddr: 0x2460, symBinAddr: 0x39710, symSize: 0xA4 }
  - { offset: 0xBB21A, size: 0x8, addend: 0x0, symName: __RNvXs0_NtNtNtCsaNl6UpbT7bw_4core4iter8adapters3mapINtB5_3MapINtNtNtBb_5slice4iter4IterNtNtCs9PzovR4aYST_14thiserror_impl3ast5FieldENCNvNtB1q_6expand10fields_pat0ENtNtNtB9_6traits8iterator8Iterator4nextB1q_, symObjAddr: 0x2504, symBinAddr: 0x397B4, symSize: 0x78 }
  - { offset: 0xBB2B2, size: 0x8, addend: 0x0, symName: __RNvXs0_NtNtNtCsaNl6UpbT7bw_4core4iter8adapters3mapINtB5_3MapINtNtNtBb_5slice4iter4IterNtNtCs9PzovR4aYST_14thiserror_impl3ast7VariantENCNvNtB1q_6expand9impl_enum0ENtNtNtB9_6traits8iterator8Iterator4nextB1q_, symObjAddr: 0x257C, symBinAddr: 0x3982C, symSize: 0x94 }
  - { offset: 0xBB34A, size: 0x8, addend: 0x0, symName: __RNvXs0_NtNtNtCsaNl6UpbT7bw_4core4iter8adapters3mapINtB5_3MapINtNtNtBb_5slice4iter4IterNtNtCs9PzovR4aYST_14thiserror_impl3ast7VariantENCNvNtB1q_6expand9impl_enums1_0ENtNtNtB9_6traits8iterator8Iterator9size_hintB1q_, symObjAddr: 0x2610, symBinAddr: 0x398C0, symSize: 0x24 }
  - { offset: 0xBB391, size: 0x8, addend: 0x0, symName: __RNvXs0_NtNtNtCsaNl6UpbT7bw_4core4iter8adapters3mapINtB5_3MapINtNtNtBb_5slice4iter4IterNtNtCs9PzovR4aYST_14thiserror_impl3ast7VariantENCNvNtB1q_6expand9impl_enums_0ENtNtNtB9_6traits8iterator8Iterator4nextB1q_, symObjAddr: 0x2634, symBinAddr: 0x398E4, symSize: 0x94 }
  - { offset: 0xBB429, size: 0x8, addend: 0x0, symName: __RNvXs0_NtNtNtCsaNl6UpbT7bw_4core4iter8adapters3mapINtB5_3MapINtNtNtCsiTraAjBDcu4_5alloc3vec9into_iter8IntoIterRNtCshnvkK9b4wzu_11proc_macro25IdentENCINvMse_NtNtNtB13_11collections5btree3setINtB2u_8BTreeSetB1K_E16from_sorted_iterBW_E0ENtNtNtB9_6traits8iterator8Iterator4nextCs9PzovR4aYST_14thiserror_impl, symObjAddr: 0x26C8, symBinAddr: 0x39978, symSize: 0x78 }
  - { offset: 0xBB4C1, size: 0x8, addend: 0x0, symName: __RNvXs0_NtNtNtCsaNl6UpbT7bw_4core4iter8adapters3mapINtB5_3MapNtNtCsc29TF2YcYso_3syn8generics10TypeParamsNCNvMNtCs9PzovR4aYST_14thiserror_impl8genericsNtB1I_13ParamsInScope3new0ENtNtNtB9_6traits8iterator8Iterator4nextB1K_, symObjAddr: 0x2740, symBinAddr: 0x399F0, symSize: 0x78 }
  - { offset: 0xBB559, size: 0x8, addend: 0x0, symName: __RNvXs0_NtNtNtCsaNl6UpbT7bw_4core4iter8adapters3mapINtB5_3MapNtNtCsc29TF2YcYso_3syn8generics10TypeParamsNCNvMNtCs9PzovR4aYST_14thiserror_impl8genericsNtB1I_13ParamsInScope3new0ENtNtNtB9_6traits8iterator8Iterator9size_hintB1K_, symObjAddr: 0x27B8, symBinAddr: 0x39A68, symSize: 0x24 }
  - { offset: 0xBB675, size: 0x8, addend: 0x0, symName: __RNCINvNtNtNtCsaNl6UpbT7bw_4core4iter8adapters3map8map_foldRNtNtCs9PzovR4aYST_14thiserror_impl3ast7VariantNtCshnvkK9b4wzu_11proc_macro211TokenStreamuNCNvNtBZ_6expand9impl_enums1_0NCINvNvNtNtNtB8_6traits8iterator8Iterator8for_each4callB1F_NCINvMsi_NtCsiTraAjBDcu4_5alloc3vecINtB3W_3VecB1F_E14extend_trustedINtB4_3MapINtNtNtBa_5slice4iter4IterBV_EB2m_EE0E0E0BZ_, symObjAddr: 0x13CC, symBinAddr: 0x3867C, symSize: 0x8C }
  - { offset: 0xBB9E3, size: 0x8, addend: 0x0, symName: __RNCNvMs3_NtNtNtCsaNl6UpbT7bw_4core4iter8adapters8peekableINtB7_8PeekableINtNtB9_3map3MapINtNtNtBd_5slice4iter4IterNtNtCs9PzovR4aYST_14thiserror_impl3ast5FieldENCNvNtB1S_6expand10fields_pat0EE4peek0B1S_, symObjAddr: 0x1458, symBinAddr: 0x38708, symSize: 0x24 }
  - { offset: 0xBBA1A, size: 0x8, addend: 0x0, symName: __RNCNvMs3_NtNtNtCsaNl6UpbT7bw_4core4iter8adapters8peekableINtB7_8PeekableINtNtB9_3map3MapINtNtNtCsiTraAjBDcu4_5alloc3vec9into_iter8IntoIterRNtCshnvkK9b4wzu_11proc_macro25IdentENCINvMse_NtNtNtB1v_11collections5btree3setINtB2W_8BTreeSetB2c_E16from_sorted_iterB1o_E0EE4peek0Cs9PzovR4aYST_14thiserror_impl, symObjAddr: 0x147C, symBinAddr: 0x3872C, symSize: 0x24 }
  - { offset: 0xBBA58, size: 0x8, addend: 0x0, symName: __RNvXs_NtNtNtCsaNl6UpbT7bw_4core4iter8adapters8peekableINtB4_8PeekableINtNtB6_3map3MapINtNtNtBa_5slice4iter4IterNtNtCs9PzovR4aYST_14thiserror_impl3ast5FieldENCNvNtB1P_6expand10fields_pat0EENtNtNtB8_6traits8iterator8Iterator4nextB1P_, symObjAddr: 0x2818, symBinAddr: 0x39AC8, symSize: 0x84 }
  - { offset: 0xBBC41, size: 0x8, addend: 0x0, symName: __RINvYINtNtNtNtCsaNl6UpbT7bw_4core4iter8adapters3map3MapINtNtB8_9enumerate9EnumerateINtNtCsc29TF2YcYso_3syn10punctuated4IterNtNtB1o_4data5FieldEENCNvMs2_NtCs9PzovR4aYST_14thiserror_impl3astNtB2q_5Field17multiple_from_syn0ENtNtNtBa_6traits8iterator8Iterator7collectINtNtBc_6result6ResultINtNtCsiTraAjBDcu4_5alloc3vec3VecB30_ENtNtB1o_5error5ErrorEEB2s_, symObjAddr: 0x1030, symBinAddr: 0x382E0, symSize: 0x6C }
  - { offset: 0xBBCD7, size: 0x8, addend: 0x0, symName: __RINvYINtNtNtNtCsaNl6UpbT7bw_4core4iter8adapters3map3MapINtNtCsc29TF2YcYso_3syn10punctuated4IterNtNtBW_4data7VariantENCNvMs0_NtCs9PzovR4aYST_14thiserror_impl3astNtB1Y_4Enum8from_syn0ENtNtNtBa_6traits8iterator8Iterator7collectINtNtBc_6result6ResultINtNtCsiTraAjBDcu4_5alloc3vec3VecNtB1Y_7VariantENtNtBW_5error5ErrorEEB20_, symObjAddr: 0x109C, symBinAddr: 0x3834C, symSize: 0x6C }
  - { offset: 0xBBD6D, size: 0x8, addend: 0x0, symName: __RINvYINtNtNtNtCsaNl6UpbT7bw_4core4iter8adapters3map3MapINtNtNtBc_5slice4iter4IterNtNtCs9PzovR4aYST_14thiserror_impl3ast7VariantENCNvNtB1l_6expand9impl_enums1_0ENtNtNtBa_6traits8iterator8Iterator7collectINtNtCsiTraAjBDcu4_5alloc3vec3VecNtCshnvkK9b4wzu_11proc_macro211TokenStreamEEB1l_, symObjAddr: 0x1108, symBinAddr: 0x383B8, symSize: 0x68 }
  - { offset: 0xBBE03, size: 0x8, addend: 0x0, symName: __RINvYINtNtNtNtCsaNl6UpbT7bw_4core4iter8adapters3map3MapINtNtNtBc_5slice4iter4IterNtNtCs9PzovR4aYST_14thiserror_impl3ast7VariantENCNvNtB1l_6expand9impl_enums1_0ENtNtNtBa_6traits8iterator8Iterator8for_eachNCINvMsi_NtCsiTraAjBDcu4_5alloc3vecINtB3o_3VecNtCshnvkK9b4wzu_11proc_macro211TokenStreamE14extend_trustedB3_E0EB1l_, symObjAddr: 0x1170, symBinAddr: 0x38420, symSize: 0x34 }
  - { offset: 0xBBE6F, size: 0x8, addend: 0x0, symName: __RINvYINtNtNtNtCsaNl6UpbT7bw_4core4iter8adapters3map3MapNtNtCsc29TF2YcYso_3syn8generics10TypeParamsNCNvMNtCs9PzovR4aYST_14thiserror_impl8genericsNtB1D_13ParamsInScope3new0ENtNtNtBa_6traits8iterator8Iterator7collectINtNtCsiTraAjBDcu4_5alloc3vec3VecRNtCshnvkK9b4wzu_11proc_macro25IdentEEB1F_, symObjAddr: 0x11A4, symBinAddr: 0x38454, symSize: 0x60 }
  - { offset: 0xBBF04, size: 0x8, addend: 0x0, symName: __RINvYINtNtNtNtCsaNl6UpbT7bw_4core4iter8adapters3map3MapNtNtCsc29TF2YcYso_3syn8generics10TypeParamsNCNvMNtCs9PzovR4aYST_14thiserror_impl8genericsNtB1D_13ParamsInScope3new0ENtNtNtBa_6traits8iterator8Iterator7collectINtNtNtNtCsiTraAjBDcu4_5alloc11collections5btree3set8BTreeSetRNtCshnvkK9b4wzu_11proc_macro25IdentEEB1F_, symObjAddr: 0x1204, symBinAddr: 0x384B4, symSize: 0x58 }
  - { offset: 0xBBF99, size: 0x8, addend: 0x0, symName: __RINvYINtNtNtNtCsaNl6UpbT7bw_4core4iter8adapters8peekable8PeekableINtNtB8_3map3MapINtNtNtBc_5slice4iter4IterNtNtCs9PzovR4aYST_14thiserror_impl3ast5FieldENCNvNtB1L_6expand10fields_pat0EENtNtNtBa_6traits8iterator8Iterator3mapNtCshnvkK9b4wzu_11proc_macro25IdentNCB2s_s_0EB1L_, symObjAddr: 0x125C, symBinAddr: 0x3850C, symSize: 0x1C }
  - { offset: 0xBC006, size: 0x8, addend: 0x0, symName: __RNvYINtNtNtNtCsaNl6UpbT7bw_4core4iter8adapters3map3MapINtNtNtBb_5slice4iter4IterNtNtCs9PzovR4aYST_14thiserror_impl3ast5FieldENCNvNtB1k_6expand10fields_pat0ENtNtNtB9_6traits8iterator8Iterator8peekableB1k_, symObjAddr: 0x2A24, symBinAddr: 0x39CD4, symSize: 0x3C }
  - { offset: 0xBC052, size: 0x8, addend: 0x0, symName: __RNvYINtNtNtNtCsaNl6UpbT7bw_4core4iter8adapters3map3MapINtNtNtCsiTraAjBDcu4_5alloc3vec9into_iter8IntoIterRNtCshnvkK9b4wzu_11proc_macro25IdentENCINvMse_NtNtNtBX_11collections5btree3setINtB2o_8BTreeSetB1E_E16from_sorted_iterBQ_E0ENtNtNtB9_6traits8iterator8Iterator8peekableCs9PzovR4aYST_14thiserror_impl, symObjAddr: 0x2AA8, symBinAddr: 0x39D58, symSize: 0x34 }
  - { offset: 0xBC0AA, size: 0x8, addend: 0x0, symName: __RNvXNtNtNtCsaNl6UpbT7bw_4core4iter6traits7collectINtNtNtB6_8adapters3map3MapINtNtBQ_9enumerate9EnumerateINtNtCsc29TF2YcYso_3syn10punctuated4IterNtNtB1J_4data5FieldEENCNvMs2_NtCs9PzovR4aYST_14thiserror_impl3astNtB2L_5Field17multiple_from_syn0ENtB2_12IntoIterator9into_iterB2N_, symObjAddr: 0x222C, symBinAddr: 0x394DC, symSize: 0x30 }
  - { offset: 0xBC0E2, size: 0x8, addend: 0x0, symName: __RNvXNtNtNtCsaNl6UpbT7bw_4core4iter6traits7collectINtNtNtB6_8adapters3map3MapINtNtCsc29TF2YcYso_3syn10punctuated4IterNtNtB1h_4data7VariantENCNvMs0_NtCs9PzovR4aYST_14thiserror_impl3astNtB2k_4Enum8from_syn0ENtB2_12IntoIterator9into_iterB2m_, symObjAddr: 0x225C, symBinAddr: 0x3950C, symSize: 0x30 }
  - { offset: 0xBC11A, size: 0x8, addend: 0x0, symName: __RNvXNtNtNtCsaNl6UpbT7bw_4core4iter6traits7collectINtNtNtB6_8adapters3map3MapINtNtNtB8_5slice4iter4IterNtNtCs9PzovR4aYST_14thiserror_impl3ast7VariantENCNvNtB1G_6expand9impl_enums1_0ENtB2_12IntoIterator9into_iterB1G_, symObjAddr: 0x228C, symBinAddr: 0x3953C, symSize: 0x14 }
  - { offset: 0xBC151, size: 0x8, addend: 0x0, symName: __RNvXNtNtNtCsaNl6UpbT7bw_4core4iter6traits7collectINtNtNtB6_8adapters3map3MapINtNtNtCsiTraAjBDcu4_5alloc3vec9into_iter8IntoIterRNtCshnvkK9b4wzu_11proc_macro25IdentENCINvMse_NtNtNtB1j_11collections5btree3setINtB2K_8BTreeSetB20_E16from_sorted_iterB1c_E0ENtB2_12IntoIterator9into_iterCs9PzovR4aYST_14thiserror_impl, symObjAddr: 0x22A0, symBinAddr: 0x39550, symSize: 0x14 }
  - { offset: 0xBC188, size: 0x8, addend: 0x0, symName: __RNvXNtNtNtCsaNl6UpbT7bw_4core4iter6traits7collectINtNtNtB6_8adapters3map3MapNtNtCsc29TF2YcYso_3syn8generics10TypeParamsNCNvMNtCs9PzovR4aYST_14thiserror_impl8genericsNtB1Y_13ParamsInScope3new0ENtB2_12IntoIterator9into_iterB20_, symObjAddr: 0x22B4, symBinAddr: 0x39564, symSize: 0x1C }
  - { offset: 0xBD038, size: 0x8, addend: 0x0, symName: __RNvXs0_NtCsc29TF2YcYso_3syn5tokenNtNtB7_9lookahead3EndNtB5_5Token4peekCs9PzovR4aYST_14thiserror_impl, symObjAddr: 0x2348, symBinAddr: 0x395F8, symSize: 0x3C }
  - { offset: 0xC14B0, size: 0x8, addend: 0x0, symName: __RNvXs0_NtCsc29TF2YcYso_3syn5dropsINtB5_6NoDropDINtNtB7_10punctuated9IterTraitNtNtB7_4data7VariantEp4ItemRB1d_EL_ENtNtNtCsaNl6UpbT7bw_4core3ops5deref8DerefMut9deref_mutCs9PzovR4aYST_14thiserror_impl, symObjAddr: 0x22D0, symBinAddr: 0x39580, symSize: 0x3C }
  - { offset: 0xC14E5, size: 0x8, addend: 0x0, symName: __RNvXs0_NtCsc29TF2YcYso_3syn5dropsINtB5_6NoDropDINtNtB7_10punctuated9IterTraitNtNtB7_4path15GenericArgumentEp4ItemRB1d_EL_ENtNtNtCsaNl6UpbT7bw_4core3ops5deref8DerefMut9deref_mutCs9PzovR4aYST_14thiserror_impl, symObjAddr: 0x230C, symBinAddr: 0x395BC, symSize: 0x3C }
  - { offset: 0xC1520, size: 0x8, addend: 0x0, symName: __RNvXs_NtCsc29TF2YcYso_3syn5dropsINtB4_6NoDropDINtNtB6_10punctuated9IterTraitNtNtB6_4data7VariantEp4ItemRB1c_EL_ENtNtNtCsaNl6UpbT7bw_4core3ops5deref5Deref5derefCs9PzovR4aYST_14thiserror_impl, symObjAddr: 0x27DC, symBinAddr: 0x39A8C, symSize: 0x3C }
  - { offset: 0xC2B96, size: 0x8, addend: 0x0, symName: __RNvXs_NtNtNtCsiTraAjBDcu4_5alloc11collections5btree17dedup_sorted_iterINtB4_15DedupSortedIterRNtCshnvkK9b4wzu_11proc_macro25IdentNtNtB6_7set_val9SetValZSTINtNtNtNtCsaNl6UpbT7bw_4core4iter8adapters3map3MapINtNtNtBa_3vec9into_iter8IntoIterB1t_ENCINvMse_NtB6_3setINtB41_8BTreeSetB1t_E16from_sorted_iterB3g_E0EENtNtNtB2z_6traits8iterator8Iterator4nextCs9PzovR4aYST_14thiserror_impl, symObjAddr: 0x289C, symBinAddr: 0x39B4C, symSize: 0x164 }
  - { offset: 0xC2DF0, size: 0x8, addend: 0x0, symName: __RINvMNtCsc29TF2YcYso_3syn9lookaheadNtB3_10Lookahead14peekINvNvNtCs9PzovR4aYST_14thiserror_impl4attr21parse_error_attribute11transparentNtB3_11TokenMarkerEEB10_, symObjAddr: 0x0, symBinAddr: 0x3742C, symSize: 0x44 }
  - { offset: 0xC2F6C, size: 0x8, addend: 0x0, symName: __RINvMs_NtNtCsaNl6UpbT7bw_4core3fmt2rtNtB7_9Arguments6new_v1Kj3_Kj2_ECs9PzovR4aYST_14thiserror_impl, symObjAddr: 0x44, symBinAddr: 0x37470, symSize: 0x54 }
  - { offset: 0xC3C9F, size: 0x8, addend: 0x0, symName: __RNvMNtCsc29TF2YcYso_3syn5dropsINtB2_6NoDropINtNtB4_10punctuated11PrivateIterNtNtB4_4data7VariantNtNtB4_5token5CommaEE3newCs9PzovR4aYST_14thiserror_impl, symObjAddr: 0x14A0, symBinAddr: 0x38750, symSize: 0x40 }
  - { offset: 0xC3D29, size: 0x8, addend: 0x0, symName: __RNvMNtCsc29TF2YcYso_3syn5dropsINtB2_6NoDropINtNtB4_10punctuated11PrivateIterNtNtB4_4path15GenericArgumentNtNtB4_5token5CommaEE3newCs9PzovR4aYST_14thiserror_impl, symObjAddr: 0x14E0, symBinAddr: 0x38790, symSize: 0x40 }
  - { offset: 0xC3DD0, size: 0x8, addend: 0x0, symName: __RNvMs3_NtNtNtCsaNl6UpbT7bw_4core4iter8adapters8peekableINtB5_8PeekableINtNtB7_3map3MapINtNtNtBb_5slice4iter4IterNtNtCs9PzovR4aYST_14thiserror_impl3ast5FieldENCNvNtB1Q_6expand10fields_pat0EE4peekB1Q_, symObjAddr: 0x1520, symBinAddr: 0x387D0, symSize: 0x70 }
  - { offset: 0xC4310, size: 0x8, addend: 0x0, symName: __RNvYINtNtNtNtCsaNl6UpbT7bw_4core4iter8adapters3map3MapINtNtB7_8peekable8PeekableIB3_INtNtNtBb_5slice4iter4IterNtNtCs9PzovR4aYST_14thiserror_impl3ast5FieldENCNvNtB1O_6expand10fields_pat0EENCB2v_s_0ENtNtNtCs4EAaWzSXu1l_5quote9___private3ext14RepIteratorExt15quote_into_iterB1O_, symObjAddr: 0x2A00, symBinAddr: 0x39CB0, symSize: 0x24 }
  - { offset: 0xC4345, size: 0x8, addend: 0x0, symName: __RNvYINtNtNtNtCsaNl6UpbT7bw_4core4iter8adapters3map3MapINtNtNtBb_5slice4iter4IterNtNtCs9PzovR4aYST_14thiserror_impl3ast7VariantENCNvNtB1k_6expand9impl_enum0ENtNtNtCs4EAaWzSXu1l_5quote9___private3ext14RepIteratorExt15quote_into_iterB1k_, symObjAddr: 0x2A60, symBinAddr: 0x39D10, symSize: 0x24 }
  - { offset: 0xC437A, size: 0x8, addend: 0x0, symName: __RNvYINtNtNtNtCsaNl6UpbT7bw_4core4iter8adapters3map3MapINtNtNtBb_5slice4iter4IterNtNtCs9PzovR4aYST_14thiserror_impl3ast7VariantENCNvNtB1k_6expand9impl_enums_0ENtNtNtCs4EAaWzSXu1l_5quote9___private3ext14RepIteratorExt15quote_into_iterB1k_, symObjAddr: 0x2A84, symBinAddr: 0x39D34, symSize: 0x24 }
  - { offset: 0xC43AF, size: 0x8, addend: 0x0, symName: __RNvYINtNtNtNtCsaNl6UpbT7bw_4core4iter8adapters8peekable8PeekableINtNtB7_3map3MapINtNtNtBb_5slice4iter4IterNtNtCs9PzovR4aYST_14thiserror_impl3ast5FieldENCNvNtB1K_6expand10fields_pat0EENtNtNtCs4EAaWzSXu1l_5quote9___private3ext14RepIteratorExt15quote_into_iterB1K_, symObjAddr: 0x2ADC, symBinAddr: 0x39D8C, symSize: 0x24 }
  - { offset: 0xC4816, size: 0x8, addend: 0x0, symName: __RINvMNtCsaNl6UpbT7bw_4core6optionINtB3_6OptionIBw_RNtNtCsc29TF2YcYso_3syn4expr6MemberEE18get_or_insert_withNCNvMs3_NtNtNtB5_4iter8adapters8peekableINtB1P_8PeekableINtNtB1R_3map3MapINtNtNtB5_5slice4iter4IterNtNtCs9PzovR4aYST_14thiserror_impl3ast5FieldENCNvNtB3m_6expand10fields_pat0EE4peek0EB3m_, symObjAddr: 0x0, symBinAddr: 0x3A508, symSize: 0x104 }
  - { offset: 0xC4910, size: 0x8, addend: 0x0, symName: __RNvXss_NtCsiTraAjBDcu4_5alloc6stringNtB5_6StringNtNtNtCsaNl6UpbT7bw_4core3ops5deref5Deref5derefCs9PzovR4aYST_14thiserror_impl, symObjAddr: 0x48C4, symBinAddr: 0x3ED58, symSize: 0x24 }
  - { offset: 0xC4944, size: 0x8, addend: 0x0, symName: __RINvXsn_NtCsiTraAjBDcu4_5alloc6stringNtB6_6StringNtNtCsaNl6UpbT7bw_4core4hash4Hash4hashNtNtNtCsht3nMU9UgFu_3std4hash6random13DefaultHasherECs9PzovR4aYST_14thiserror_impl, symObjAddr: 0x2F44, symBinAddr: 0x3D3D8, symSize: 0x90 }
  - { offset: 0xC4AF2, size: 0x8, addend: 0x0, symName: __RNvXs1g_NtCsiTraAjBDcu4_5alloc6stringNtB6_6StringNtNtCsaNl6UpbT7bw_4core3cmp3Ord3cmpCs9PzovR4aYST_14thiserror_impl, symObjAddr: 0x3FBC, symBinAddr: 0x3E450, symSize: 0x2C }
  - { offset: 0xC4B35, size: 0x8, addend: 0x0, symName: __RNvXsV_NtCsiTraAjBDcu4_5alloc6stringNtB5_6StringNtNtCsaNl6UpbT7bw_4core3fmt5Write10write_charCs9PzovR4aYST_14thiserror_impl, symObjAddr: 0x45E0, symBinAddr: 0x3EA74, symSize: 0x38 }
  - { offset: 0xC4B72, size: 0x8, addend: 0x0, symName: __RNvXsV_NtCsiTraAjBDcu4_5alloc6stringNtB5_6StringNtNtCsaNl6UpbT7bw_4core3fmt5Write9write_strCs9PzovR4aYST_14thiserror_impl, symObjAddr: 0x4618, symBinAddr: 0x3EAAC, symSize: 0x40 }
  - { offset: 0xC4BB5, size: 0x8, addend: 0x0, symName: __RNvXsp_NtCsiTraAjBDcu4_5alloc6stringNtB5_6StringINtNtNtCsaNl6UpbT7bw_4core3ops5arith9AddAssignReE10add_assignCs9PzovR4aYST_14thiserror_impl, symObjAddr: 0x488C, symBinAddr: 0x3ED20, symSize: 0x38 }
  - { offset: 0xC4BF4, size: 0x8, addend: 0x0, symName: __RNvXsw_NtCsiTraAjBDcu4_5alloc6stringNtNtCsc29TF2YcYso_3syn3lit8LitFloatNtB5_8ToString9to_stringCs9PzovR4aYST_14thiserror_impl, symObjAddr: 0x4998, symBinAddr: 0x3EE2C, symSize: 0x24 }
  - { offset: 0xC4C31, size: 0x8, addend: 0x0, symName: __RNvXsx_NtCsiTraAjBDcu4_5alloc6stringNtNtCsc29TF2YcYso_3syn3lit8LitFloatNtB5_12SpecToString14spec_to_stringCs9PzovR4aYST_14thiserror_impl, symObjAddr: 0x49BC, symBinAddr: 0x3EE50, symSize: 0xF4 }
  - { offset: 0xC7C68, size: 0x8, addend: 0x0, symName: __RINvNtCsaNl6UpbT7bw_4core3ptr13drop_in_placeINtNtB4_4cell10UnsafeCellNtNtNtCs7yrEGia95Wz_10proc_macro6bridge6client6BridgeEECs9PzovR4aYST_14thiserror_impl, symObjAddr: 0xED8, symBinAddr: 0x3B398, symSize: 0x24 }
  - { offset: 0xC7C97, size: 0x8, addend: 0x0, symName: __RINvNtCsaNl6UpbT7bw_4core3ptr13drop_in_placeINtNtB4_4cell7RefCellNtNtNtCs7yrEGia95Wz_10proc_macro6bridge6client6BridgeEECs9PzovR4aYST_14thiserror_impl, symObjAddr: 0xEFC, symBinAddr: 0x3B3BC, symSize: 0x24 }
  - { offset: 0xC7CC6, size: 0x8, addend: 0x0, symName: __RINvNtCsaNl6UpbT7bw_4core3ptr13drop_in_placeINtNtB4_6option6OptionINtNtB4_6result6ResultNtNtB4_7convert10InfallibleNtNtCsc29TF2YcYso_3syn5error5ErrorEEECs9PzovR4aYST_14thiserror_impl, symObjAddr: 0xF20, symBinAddr: 0x3B3E0, symSize: 0x48 }
  - { offset: 0xC7CF5, size: 0x8, addend: 0x0, symName: __RINvNtCsaNl6UpbT7bw_4core3ptr13drop_in_placeINtNtB4_6option6OptionINtNtB4_6result6ResultNtNtCsc29TF2YcYso_3syn4expr5IndexNtNtB1s_5error5ErrorEEECs9PzovR4aYST_14thiserror_impl, symObjAddr: 0xF68, symBinAddr: 0x3B428, symSize: 0x48 }
  - { offset: 0xC7D24, size: 0x8, addend: 0x0, symName: __RINvNtCsaNl6UpbT7bw_4core3ptr13drop_in_placeINtNtB4_6option6OptionINtNtCsiTraAjBDcu4_5alloc5boxed3BoxNtCshnvkK9b4wzu_11proc_macro211TokenStreamEEECs9PzovR4aYST_14thiserror_impl, symObjAddr: 0xFB0, symBinAddr: 0x3B470, symSize: 0x44 }
  - { offset: 0xC7D53, size: 0x8, addend: 0x0, symName: __RINvNtCsaNl6UpbT7bw_4core3ptr13drop_in_placeINtNtB4_6option6OptionNtNtCs9PzovR4aYST_14thiserror_impl3ast5FieldEEB16_, symObjAddr: 0xFF4, symBinAddr: 0x3B4B4, symSize: 0x4C }
  - { offset: 0xC7D82, size: 0x8, addend: 0x0, symName: __RINvNtCsaNl6UpbT7bw_4core3ptr13drop_in_placeINtNtB4_6option6OptionNtNtCs9PzovR4aYST_14thiserror_impl3ast7VariantEEB16_, symObjAddr: 0x1040, symBinAddr: 0x3B500, symSize: 0x48 }
  - { offset: 0xC7DB1, size: 0x8, addend: 0x0, symName: __RINvNtCsaNl6UpbT7bw_4core3ptr13drop_in_placeINtNtB4_6option6OptionNtNtCs9PzovR4aYST_14thiserror_impl4attr7DisplayEEB16_, symObjAddr: 0x1088, symBinAddr: 0x3B548, symSize: 0x48 }
  - { offset: 0xC7DE0, size: 0x8, addend: 0x0, symName: __RINvNtCsaNl6UpbT7bw_4core3ptr13drop_in_placeINtNtB4_6result6ResultNtNtB4_7convert10InfallibleNtNtCsc29TF2YcYso_3syn5error5ErrorEECs9PzovR4aYST_14thiserror_impl, symObjAddr: 0x10D0, symBinAddr: 0x3B590, symSize: 0x30 }
  - { offset: 0xC7E0F, size: 0x8, addend: 0x0, symName: __RINvNtCsaNl6UpbT7bw_4core3ptr13drop_in_placeINtNtB4_6result6ResultNtNtCs9PzovR4aYST_14thiserror_impl3fmt12FmtArgumentsNtNtCsc29TF2YcYso_3syn5error5ErrorEEB16_, symObjAddr: 0x1100, symBinAddr: 0x3B5C0, symSize: 0x54 }
  - { offset: 0xC7E3E, size: 0x8, addend: 0x0, symName: __RINvNtCsaNl6UpbT7bw_4core3ptr13drop_in_placeINtNtB4_6result6ResultNtNtCsc29TF2YcYso_3syn4expr4ExprNtNtB16_5error5ErrorEECs9PzovR4aYST_14thiserror_impl, symObjAddr: 0x1154, symBinAddr: 0x3B614, symSize: 0x58 }
  - { offset: 0xC7E6D, size: 0x8, addend: 0x0, symName: __RINvNtCsaNl6UpbT7bw_4core3ptr13drop_in_placeINtNtB4_6result6ResultNtNtCsc29TF2YcYso_3syn4expr5IndexNtNtB16_5error5ErrorEECs9PzovR4aYST_14thiserror_impl, symObjAddr: 0x11AC, symBinAddr: 0x3B66C, symSize: 0x48 }
  - { offset: 0xC7E9C, size: 0x8, addend: 0x0, symName: __RINvNtCsaNl6UpbT7bw_4core3ptr13drop_in_placeINtNtCs4EAaWzSXu1l_5quote9___private9RepInterpNtCshnvkK9b4wzu_11proc_macro211TokenStreamEECs9PzovR4aYST_14thiserror_impl, symObjAddr: 0x11F4, symBinAddr: 0x3B6B4, symSize: 0x24 }
  - { offset: 0xC7ECB, size: 0x8, addend: 0x0, symName: __RINvNtCsaNl6UpbT7bw_4core3ptr13drop_in_placeINtNtCs4EAaWzSXu1l_5quote9___private9RepInterpNtCshnvkK9b4wzu_11proc_macro25IdentEECs9PzovR4aYST_14thiserror_impl, symObjAddr: 0x1218, symBinAddr: 0x3B6D8, symSize: 0x24 }
  - { offset: 0xC7EFA, size: 0x8, addend: 0x0, symName: __RINvNtCsaNl6UpbT7bw_4core3ptr13drop_in_placeINtNtCsc29TF2YcYso_3syn10punctuated10PunctuatedNtCshnvkK9b4wzu_11proc_macro211TokenStreamNtNtBL_5token4PlusEECs9PzovR4aYST_14thiserror_impl, symObjAddr: 0x123C, symBinAddr: 0x3B6FC, symSize: 0x60 }
  - { offset: 0xC7F29, size: 0x8, addend: 0x0, symName: __RINvNtCsaNl6UpbT7bw_4core3ptr13drop_in_placeINtNtCsc29TF2YcYso_3syn10punctuated4IterNtNtBL_4data5FieldEECs9PzovR4aYST_14thiserror_impl, symObjAddr: 0x129C, symBinAddr: 0x3B75C, symSize: 0x24 }
  - { offset: 0xC7F58, size: 0x8, addend: 0x0, symName: __RINvNtCsaNl6UpbT7bw_4core3ptr13drop_in_placeINtNtCsc29TF2YcYso_3syn10punctuated4IterNtNtBL_4data7VariantEECs9PzovR4aYST_14thiserror_impl, symObjAddr: 0x12C0, symBinAddr: 0x3B780, symSize: 0x24 }
  - { offset: 0xC7F87, size: 0x8, addend: 0x0, symName: __RINvNtCsaNl6UpbT7bw_4core3ptr13drop_in_placeINtNtCsc29TF2YcYso_3syn10punctuated4IterNtNtBL_4path15GenericArgumentEECs9PzovR4aYST_14thiserror_impl, symObjAddr: 0x12E4, symBinAddr: 0x3B7A4, symSize: 0x24 }
  - { offset: 0xC7FB6, size: 0x8, addend: 0x0, symName: __RINvNtCsaNl6UpbT7bw_4core3ptr13drop_in_placeINtNtCsc29TF2YcYso_3syn10punctuated4IterNtNtBL_8generics12GenericParamEECs9PzovR4aYST_14thiserror_impl, symObjAddr: 0x1308, symBinAddr: 0x3B7C8, symSize: 0x24 }
  - { offset: 0xC7FE5, size: 0x8, addend: 0x0, symName: __RINvNtCsaNl6UpbT7bw_4core3ptr13drop_in_placeINtNtCsg4dki62PTrg_9hashbrown10scopeguard10ScopeGuardNtNtBL_3raw13RawTableInnerNCINvMsa_B1z_B1x_14prepare_resizeNtNtCsiTraAjBDcu4_5alloc5alloc6GlobalE0EECs9PzovR4aYST_14thiserror_impl, symObjAddr: 0x132C, symBinAddr: 0x3B7EC, symSize: 0x24 }
  - { offset: 0xC8014, size: 0x8, addend: 0x0, symName: __RINvNtCsaNl6UpbT7bw_4core3ptr13drop_in_placeINtNtCsg4dki62PTrg_9hashbrown10scopeguard10ScopeGuardQNtNtBL_3raw13RawTableInnerNCNvMsa_B1A_B1y_15rehash_in_place0EECs9PzovR4aYST_14thiserror_impl, symObjAddr: 0x1350, symBinAddr: 0x3B810, symSize: 0x24 }
  - { offset: 0xC8043, size: 0x8, addend: 0x0, symName: __RINvNtCsaNl6UpbT7bw_4core3ptr13drop_in_placeINtNtCsg4dki62PTrg_9hashbrown3map7HashMapRNtNtCsc29TF2YcYso_3syn4expr6MemberjNtNtNtCsht3nMU9UgFu_3std4hash6random11RandomStateEECs9PzovR4aYST_14thiserror_impl, symObjAddr: 0x1374, symBinAddr: 0x3B834, symSize: 0x24 }
  - { offset: 0xC8072, size: 0x8, addend: 0x0, symName: __RINvNtCsaNl6UpbT7bw_4core3ptr13drop_in_placeINtNtCsg4dki62PTrg_9hashbrown3raw8RawTableTRNtNtCsc29TF2YcYso_3syn4expr6MemberjEEECs9PzovR4aYST_14thiserror_impl, symObjAddr: 0x1398, symBinAddr: 0x3B858, symSize: 0x24 }
  - { offset: 0xC80A1, size: 0x8, addend: 0x0, symName: __RINvNtCsaNl6UpbT7bw_4core3ptr13drop_in_placeINtNtCsiTraAjBDcu4_5alloc3vec3VecNtCshnvkK9b4wzu_11proc_macro211TokenStreamEECs9PzovR4aYST_14thiserror_impl, symObjAddr: 0x13BC, symBinAddr: 0x3B87C, symSize: 0x5C }
  - { offset: 0xC80D0, size: 0x8, addend: 0x0, symName: __RINvNtCsaNl6UpbT7bw_4core3ptr13drop_in_placeINtNtCsiTraAjBDcu4_5alloc3vec3VecNtNtCs9PzovR4aYST_14thiserror_impl3ast5FieldEEB1h_, symObjAddr: 0x1418, symBinAddr: 0x3B8D8, symSize: 0x5C }
  - { offset: 0xC80FF, size: 0x8, addend: 0x0, symName: __RINvNtCsaNl6UpbT7bw_4core3ptr13drop_in_placeINtNtCsiTraAjBDcu4_5alloc3vec3VecNtNtCs9PzovR4aYST_14thiserror_impl3ast7VariantEEB1h_, symObjAddr: 0x1474, symBinAddr: 0x3B934, symSize: 0x5C }
  - { offset: 0xC812E, size: 0x8, addend: 0x0, symName: __RINvNtCsaNl6UpbT7bw_4core3ptr13drop_in_placeINtNtCsiTraAjBDcu4_5alloc3vec3VecRNtCshnvkK9b4wzu_11proc_macro25IdentEECs9PzovR4aYST_14thiserror_impl, symObjAddr: 0x14D0, symBinAddr: 0x3B990, symSize: 0x5C }
  - { offset: 0xC815D, size: 0x8, addend: 0x0, symName: __RINvNtCsaNl6UpbT7bw_4core3ptr13drop_in_placeINtNtCsiTraAjBDcu4_5alloc3vec3VecTNtCshnvkK9b4wzu_11proc_macro211TokenStreamNtNtCsc29TF2YcYso_3syn5token4PlusEEECs9PzovR4aYST_14thiserror_impl, symObjAddr: 0x152C, symBinAddr: 0x3B9EC, symSize: 0x5C }
  - { offset: 0xC818C, size: 0x8, addend: 0x0, symName: __RINvNtCsaNl6UpbT7bw_4core3ptr13drop_in_placeINtNtCsiTraAjBDcu4_5alloc5boxed3BoxDNtNtB4_5error5ErrorNtNtB4_6marker4SyncNtB1B_4SendEL_EECs9PzovR4aYST_14thiserror_impl, symObjAddr: 0x1588, symBinAddr: 0x3BA48, symSize: 0x80 }
  - { offset: 0xC81BB, size: 0x8, addend: 0x0, symName: __RINvNtCsaNl6UpbT7bw_4core3ptr13drop_in_placeINtNtCsiTraAjBDcu4_5alloc5boxed3BoxINtNtCsc29TF2YcYso_3syn5drops6NoDropDINtNtB1k_10punctuated9IterTraitNtNtB1k_4data5FieldEp4ItemRB2l_EL_EEECs9PzovR4aYST_14thiserror_impl, symObjAddr: 0x1608, symBinAddr: 0x3BAC8, symSize: 0x2C }
  - { offset: 0xC81EA, size: 0x8, addend: 0x0, symName: __RINvNtCsaNl6UpbT7bw_4core3ptr13drop_in_placeINtNtCsiTraAjBDcu4_5alloc5boxed3BoxINtNtCsc29TF2YcYso_3syn5drops6NoDropDINtNtB1k_10punctuated9IterTraitNtNtB1k_4data7VariantEp4ItemRB2l_EL_EEECs9PzovR4aYST_14thiserror_impl, symObjAddr: 0x1634, symBinAddr: 0x3BAF4, symSize: 0x2C }
  - { offset: 0xC8219, size: 0x8, addend: 0x0, symName: __RINvNtCsaNl6UpbT7bw_4core3ptr13drop_in_placeINtNtCsiTraAjBDcu4_5alloc5boxed3BoxINtNtCsc29TF2YcYso_3syn5drops6NoDropDINtNtB1k_10punctuated9IterTraitNtNtB1k_4path15GenericArgumentEp4ItemRB2l_EL_EEECs9PzovR4aYST_14thiserror_impl, symObjAddr: 0x1660, symBinAddr: 0x3BB20, symSize: 0x2C }
  - { offset: 0xC8248, size: 0x8, addend: 0x0, symName: __RINvNtCsaNl6UpbT7bw_4core3ptr13drop_in_placeINtNtCsiTraAjBDcu4_5alloc5boxed3BoxINtNtCsc29TF2YcYso_3syn5drops6NoDropDINtNtB1k_10punctuated9IterTraitNtNtB1k_8generics12GenericParamEp4ItemRB2l_EL_EEECs9PzovR4aYST_14thiserror_impl, symObjAddr: 0x168C, symBinAddr: 0x3BB4C, symSize: 0x2C }
  - { offset: 0xC8277, size: 0x8, addend: 0x0, symName: __RINvNtCsaNl6UpbT7bw_4core3ptr13drop_in_placeINtNtCsiTraAjBDcu4_5alloc5boxed3BoxINtNtNtNtBL_11collections5btree4node12InternalNodeNtCshnvkK9b4wzu_11proc_macro25IdentNtNtB1k_7set_val9SetValZSTEEECs9PzovR4aYST_14thiserror_impl, symObjAddr: 0x16B8, symBinAddr: 0x3BB78, symSize: 0x2C }
  - { offset: 0xC82A6, size: 0x8, addend: 0x0, symName: __RINvNtCsaNl6UpbT7bw_4core3ptr13drop_in_placeINtNtCsiTraAjBDcu4_5alloc5boxed3BoxINtNtNtNtBL_11collections5btree4node12InternalNodeNtNtBL_6string6StringNtNtB1k_7set_val9SetValZSTEEECs9PzovR4aYST_14thiserror_impl, symObjAddr: 0x16E4, symBinAddr: 0x3BBA4, symSize: 0x2C }
  - { offset: 0xC82D5, size: 0x8, addend: 0x0, symName: __RINvNtCsaNl6UpbT7bw_4core3ptr13drop_in_placeINtNtCsiTraAjBDcu4_5alloc5boxed3BoxINtNtNtNtBL_11collections5btree4node12InternalNodeNtNtBL_6string6StringTINtNtB1k_3set8BTreeSetB23_EINtNtCsc29TF2YcYso_3syn10punctuated10PunctuatedNtCshnvkK9b4wzu_11proc_macro211TokenStreamNtNtB2V_5token4PlusEEEEECs9PzovR4aYST_14thiserror_impl, symObjAddr: 0x1710, symBinAddr: 0x3BBD0, symSize: 0x2C }
  - { offset: 0xC8304, size: 0x8, addend: 0x0, symName: __RINvNtCsaNl6UpbT7bw_4core3ptr13drop_in_placeINtNtCsiTraAjBDcu4_5alloc5boxed3BoxINtNtNtNtBL_11collections5btree4node12InternalNodeTjNtNtCs9PzovR4aYST_14thiserror_impl4attr5TraitENtNtB1k_7set_val9SetValZSTEEEB29_, symObjAddr: 0x1768, symBinAddr: 0x3BBFC, symSize: 0x2C }
  - { offset: 0xC8333, size: 0x8, addend: 0x0, symName: __RINvNtCsaNl6UpbT7bw_4core3ptr13drop_in_placeINtNtCsiTraAjBDcu4_5alloc5boxed3BoxINtNtNtNtBL_11collections5btree4node8LeafNodeNtCshnvkK9b4wzu_11proc_macro25IdentNtNtB1k_7set_val9SetValZSTEEECs9PzovR4aYST_14thiserror_impl, symObjAddr: 0x1794, symBinAddr: 0x3BC28, symSize: 0x2C }
  - { offset: 0xC8362, size: 0x8, addend: 0x0, symName: __RINvNtCsaNl6UpbT7bw_4core3ptr13drop_in_placeINtNtCsiTraAjBDcu4_5alloc5boxed3BoxINtNtNtNtBL_11collections5btree4node8LeafNodeNtNtBL_6string6StringNtNtB1k_7set_val9SetValZSTEEECs9PzovR4aYST_14thiserror_impl, symObjAddr: 0x17C0, symBinAddr: 0x3BC54, symSize: 0x2C }
  - { offset: 0xC8391, size: 0x8, addend: 0x0, symName: __RINvNtCsaNl6UpbT7bw_4core3ptr13drop_in_placeINtNtCsiTraAjBDcu4_5alloc5boxed3BoxINtNtNtNtBL_11collections5btree4node8LeafNodeNtNtBL_6string6StringTINtNtB1k_3set8BTreeSetB1Y_EINtNtCsc29TF2YcYso_3syn10punctuated10PunctuatedNtCshnvkK9b4wzu_11proc_macro211TokenStreamNtNtB2Q_5token4PlusEEEEECs9PzovR4aYST_14thiserror_impl, symObjAddr: 0x17EC, symBinAddr: 0x3BC80, symSize: 0x2C }
  - { offset: 0xC83C0, size: 0x8, addend: 0x0, symName: __RINvNtCsaNl6UpbT7bw_4core3ptr13drop_in_placeINtNtCsiTraAjBDcu4_5alloc5boxed3BoxINtNtNtNtBL_11collections5btree4node8LeafNodeTjNtNtCs9PzovR4aYST_14thiserror_impl4attr5TraitENtNtB1k_7set_val9SetValZSTEEEB24_, symObjAddr: 0x1818, symBinAddr: 0x3BCAC, symSize: 0x2C }
  - { offset: 0xC83EF, size: 0x8, addend: 0x0, symName: __RINvNtCsaNl6UpbT7bw_4core3ptr13drop_in_placeINtNtCsiTraAjBDcu4_5alloc5boxed3BoxNtCshnvkK9b4wzu_11proc_macro211TokenStreamEECs9PzovR4aYST_14thiserror_impl, symObjAddr: 0x1844, symBinAddr: 0x3BCD8, symSize: 0x60 }
  - { offset: 0xC841E, size: 0x8, addend: 0x0, symName: __RINvNtCsaNl6UpbT7bw_4core3ptr13drop_in_placeINtNtCsiTraAjBDcu4_5alloc5boxed3BoxNtNtNtCsht3nMU9UgFu_3std2io5error6CustomEECs9PzovR4aYST_14thiserror_impl, symObjAddr: 0x18A4, symBinAddr: 0x3BD38, symSize: 0x60 }
  - { offset: 0xC844D, size: 0x8, addend: 0x0, symName: __RINvNtCsaNl6UpbT7bw_4core3ptr13drop_in_placeINtNtCsiTraAjBDcu4_5alloc7raw_vec6RawVecNtCshnvkK9b4wzu_11proc_macro211TokenStreamEECs9PzovR4aYST_14thiserror_impl, symObjAddr: 0x1904, symBinAddr: 0x3BD98, symSize: 0x24 }
  - { offset: 0xC847C, size: 0x8, addend: 0x0, symName: __RINvNtCsaNl6UpbT7bw_4core3ptr13drop_in_placeINtNtCsiTraAjBDcu4_5alloc7raw_vec6RawVecNtNtCs9PzovR4aYST_14thiserror_impl3ast5FieldEEB1o_, symObjAddr: 0x1928, symBinAddr: 0x3BDBC, symSize: 0x24 }
  - { offset: 0xC84AB, size: 0x8, addend: 0x0, symName: __RINvNtCsaNl6UpbT7bw_4core3ptr13drop_in_placeINtNtCsiTraAjBDcu4_5alloc7raw_vec6RawVecNtNtCs9PzovR4aYST_14thiserror_impl3ast7VariantEEB1o_, symObjAddr: 0x194C, symBinAddr: 0x3BDE0, symSize: 0x24 }
  - { offset: 0xC84DA, size: 0x8, addend: 0x0, symName: __RINvNtCsaNl6UpbT7bw_4core3ptr13drop_in_placeINtNtCsiTraAjBDcu4_5alloc7raw_vec6RawVecRNtCshnvkK9b4wzu_11proc_macro25IdentEECs9PzovR4aYST_14thiserror_impl, symObjAddr: 0x1970, symBinAddr: 0x3BE04, symSize: 0x24 }
  - { offset: 0xC8509, size: 0x8, addend: 0x0, symName: __RINvNtCsaNl6UpbT7bw_4core3ptr13drop_in_placeINtNtCsiTraAjBDcu4_5alloc7raw_vec6RawVecTNtCshnvkK9b4wzu_11proc_macro211TokenStreamNtNtCsc29TF2YcYso_3syn5token4PlusEEECs9PzovR4aYST_14thiserror_impl, symObjAddr: 0x1994, symBinAddr: 0x3BE28, symSize: 0x24 }
  - { offset: 0xC8538, size: 0x8, addend: 0x0, symName: __RINvNtCsaNl6UpbT7bw_4core3ptr13drop_in_placeINtNtNtB4_3ops12control_flow11ControlFlowIBH_NtNtCs9PzovR4aYST_14thiserror_impl3ast5FieldEEEB1t_, symObjAddr: 0x19B8, symBinAddr: 0x3BE4C, symSize: 0x48 }
  - { offset: 0xC8567, size: 0x8, addend: 0x0, symName: __RINvNtCsaNl6UpbT7bw_4core3ptr13drop_in_placeINtNtNtB4_3ops12control_flow11ControlFlowNtNtCs9PzovR4aYST_14thiserror_impl3ast5FieldEEB1p_, symObjAddr: 0x1A00, symBinAddr: 0x3BE94, symSize: 0x4C }
  - { offset: 0xC8596, size: 0x8, addend: 0x0, symName: __RINvNtCsaNl6UpbT7bw_4core3ptr13drop_in_placeINtNtNtB4_3ops12control_flow11ControlFlowNtNtCs9PzovR4aYST_14thiserror_impl3ast7VariantEEB1p_, symObjAddr: 0x1A4C, symBinAddr: 0x3BEE0, symSize: 0x48 }
  - { offset: 0xC85C5, size: 0x8, addend: 0x0, symName: __RINvNtCsaNl6UpbT7bw_4core3ptr13drop_in_placeINtNtNtB4_4iter8adapters12GenericShuntINtNtBJ_3map3MapINtNtBJ_9enumerate9EnumerateINtNtCsc29TF2YcYso_3syn10punctuated4IterNtNtB25_4data5FieldEENCNvMs2_NtCs9PzovR4aYST_14thiserror_impl3astNtB37_5Field17multiple_from_syn0EINtNtB4_6result6ResultNtNtB4_7convert10InfallibleNtNtB25_5error5ErrorEEEB39_, symObjAddr: 0x1A94, symBinAddr: 0x3BF28, symSize: 0x24 }
  - { offset: 0xC85F4, size: 0x8, addend: 0x0, symName: __RINvNtCsaNl6UpbT7bw_4core3ptr13drop_in_placeINtNtNtB4_4iter8adapters12GenericShuntINtNtBJ_3map3MapINtNtCsc29TF2YcYso_3syn10punctuated4IterNtNtB1D_4data7VariantENCNvMs0_NtCs9PzovR4aYST_14thiserror_impl3astNtB2G_4Enum8from_syn0EINtNtB4_6result6ResultNtNtB4_7convert10InfallibleNtNtB1D_5error5ErrorEEEB2I_, symObjAddr: 0x1AB8, symBinAddr: 0x3BF4C, symSize: 0x24 }
  - { offset: 0xC8623, size: 0x8, addend: 0x0, symName: __RINvNtCsaNl6UpbT7bw_4core3ptr13drop_in_placeINtNtNtB4_5array4iter8IntoIterjKj2_EECs9PzovR4aYST_14thiserror_impl, symObjAddr: 0x1ADC, symBinAddr: 0x3BF70, symSize: 0x5C }
  - { offset: 0xC8652, size: 0x8, addend: 0x0, symName: __RINvNtCsaNl6UpbT7bw_4core3ptr13drop_in_placeINtNtNtCsht3nMU9UgFu_3std2io5error9ErrorDataINtNtCsiTraAjBDcu4_5alloc5boxed3BoxNtBJ_6CustomEEECs9PzovR4aYST_14thiserror_impl, symObjAddr: 0x1B38, symBinAddr: 0x3BFCC, symSize: 0x48 }
  - { offset: 0xC8681, size: 0x8, addend: 0x0, symName: __RINvNtCsaNl6UpbT7bw_4core3ptr13drop_in_placeINtNtNtCsiTraAjBDcu4_5alloc3vec9into_iter8IntoIterRNtCshnvkK9b4wzu_11proc_macro25IdentEECs9PzovR4aYST_14thiserror_impl, symObjAddr: 0x1B80, symBinAddr: 0x3C014, symSize: 0x24 }
  - { offset: 0xC86B0, size: 0x8, addend: 0x0, symName: __RINvNtCsaNl6UpbT7bw_4core3ptr13drop_in_placeINtNtNtNtB4_4iter8adapters3map3MapINtNtBL_9enumerate9EnumerateINtNtCsc29TF2YcYso_3syn10punctuated4IterNtNtB1L_4data5FieldEENCNvMs2_NtCs9PzovR4aYST_14thiserror_impl3astNtB2N_5Field17multiple_from_syn0EEB2P_, symObjAddr: 0x1BA4, symBinAddr: 0x3C038, symSize: 0x24 }
  - { offset: 0xC86DF, size: 0x8, addend: 0x0, symName: __RINvNtCsaNl6UpbT7bw_4core3ptr13drop_in_placeINtNtNtNtB4_4iter8adapters3map3MapINtNtCsc29TF2YcYso_3syn10punctuated4IterNtNtB1j_4data7VariantENCNvMs0_NtCs9PzovR4aYST_14thiserror_impl3astNtB2m_4Enum8from_syn0EEB2o_, symObjAddr: 0x1BC8, symBinAddr: 0x3C05C, symSize: 0x24 }
  - { offset: 0xC870E, size: 0x8, addend: 0x0, symName: __RINvNtCsaNl6UpbT7bw_4core3ptr13drop_in_placeINtNtNtNtB4_4iter8adapters3map3MapINtNtNtCsiTraAjBDcu4_5alloc3vec9into_iter8IntoIterRNtCshnvkK9b4wzu_11proc_macro25IdentENCINvMse_NtNtNtB1l_11collections5btree3setINtB2M_8BTreeSetB22_E16from_sorted_iterB1e_E0EECs9PzovR4aYST_14thiserror_impl, symObjAddr: 0x1BEC, symBinAddr: 0x3C080, symSize: 0x24 }
  - { offset: 0xC873D, size: 0x8, addend: 0x0, symName: __RINvNtCsaNl6UpbT7bw_4core3ptr13drop_in_placeINtNtNtNtB4_4iter8adapters3map3MapNtNtCsc29TF2YcYso_3syn8generics10TypeParamsNCNvMNtCs9PzovR4aYST_14thiserror_impl8genericsNtB20_13ParamsInScope3new0EEB22_, symObjAddr: 0x1C10, symBinAddr: 0x3C0A4, symSize: 0x24 }
  - { offset: 0xC876C, size: 0x8, addend: 0x0, symName: __RINvNtCsaNl6UpbT7bw_4core3ptr13drop_in_placeINtNtNtNtB4_4iter8adapters8peekable8PeekableINtNtBL_3map3MapINtNtNtCsiTraAjBDcu4_5alloc3vec9into_iter8IntoIterRNtCshnvkK9b4wzu_11proc_macro25IdentENCINvMse_NtNtNtB1L_11collections5btree3setINtB3c_8BTreeSetB2s_E16from_sorted_iterB1E_E0EEECs9PzovR4aYST_14thiserror_impl, symObjAddr: 0x1C34, symBinAddr: 0x3C0C8, symSize: 0x24 }
  - { offset: 0xC879B, size: 0x8, addend: 0x0, symName: __RINvNtCsaNl6UpbT7bw_4core3ptr13drop_in_placeINtNtNtNtB4_4iter8adapters9enumerate9EnumerateINtNtCsc29TF2YcYso_3syn10punctuated4IterNtNtB1v_4data5FieldEEECs9PzovR4aYST_14thiserror_impl, symObjAddr: 0x1C58, symBinAddr: 0x3C0EC, symSize: 0x24 }
  - { offset: 0xC87CA, size: 0x8, addend: 0x0, symName: __RINvNtCsaNl6UpbT7bw_4core3ptr13drop_in_placeINtNtNtNtB4_5array4iter10iter_inner15PolymorphicIterAINtNtNtB4_3mem12maybe_uninit11MaybeUninitjEj2_EECs9PzovR4aYST_14thiserror_impl, symObjAddr: 0x1C7C, symBinAddr: 0x3C110, symSize: 0x24 }
  - { offset: 0xC87F9, size: 0x8, addend: 0x0, symName: __RINvNtCsaNl6UpbT7bw_4core3ptr13drop_in_placeINtNtNtNtCsht3nMU9UgFu_3std11collections4hash3map7HashMapRNtNtCsc29TF2YcYso_3syn4expr6MemberjEECs9PzovR4aYST_14thiserror_impl, symObjAddr: 0x1CA0, symBinAddr: 0x3C134, symSize: 0x24 }
  - { offset: 0xC8828, size: 0x8, addend: 0x0, symName: __RINvNtCsaNl6UpbT7bw_4core3ptr13drop_in_placeINtNtNtNtCsiTraAjBDcu4_5alloc11collections5btree17dedup_sorted_iter15DedupSortedIterRNtCshnvkK9b4wzu_11proc_macro25IdentNtNtBL_7set_val9SetValZSTINtNtNtNtB4_4iter8adapters3map3MapINtNtNtBP_3vec9into_iter8IntoIterB22_ENCINvMse_NtBL_3setINtB4k_8BTreeSetB22_E16from_sorted_iterB3z_E0EEECs9PzovR4aYST_14thiserror_impl, symObjAddr: 0x1CC4, symBinAddr: 0x3C158, symSize: 0x24 }
  - { offset: 0xC8857, size: 0x8, addend: 0x0, symName: __RINvNtCsaNl6UpbT7bw_4core3ptr13drop_in_placeINtNtNtNtCsiTraAjBDcu4_5alloc11collections5btree3map8BTreeMapNtCshnvkK9b4wzu_11proc_macro25IdentNtNtBL_7set_val9SetValZSTEECs9PzovR4aYST_14thiserror_impl, symObjAddr: 0x1CE8, symBinAddr: 0x3C17C, symSize: 0x24 }
  - { offset: 0xC8886, size: 0x8, addend: 0x0, symName: __RINvNtCsaNl6UpbT7bw_4core3ptr13drop_in_placeINtNtNtNtCsiTraAjBDcu4_5alloc11collections5btree3map8BTreeMapNtNtBP_6string6StringNtNtBL_7set_val9SetValZSTEECs9PzovR4aYST_14thiserror_impl, symObjAddr: 0x1D0C, symBinAddr: 0x3C1A0, symSize: 0x24 }
  - { offset: 0xC88B5, size: 0x8, addend: 0x0, symName: __RINvNtCsaNl6UpbT7bw_4core3ptr13drop_in_placeINtNtNtNtCsiTraAjBDcu4_5alloc11collections5btree3map8BTreeMapNtNtBP_6string6StringTINtNtBL_3set8BTreeSetB1F_EINtNtCsc29TF2YcYso_3syn10punctuated10PunctuatedNtCshnvkK9b4wzu_11proc_macro211TokenStreamNtNtB2w_5token4PlusEEEECs9PzovR4aYST_14thiserror_impl, symObjAddr: 0x1D30, symBinAddr: 0x3C1C4, symSize: 0x24 }
  - { offset: 0xC88E4, size: 0x8, addend: 0x0, symName: __RINvNtCsaNl6UpbT7bw_4core3ptr13drop_in_placeINtNtNtNtCsiTraAjBDcu4_5alloc11collections5btree3map8BTreeMapRNtCshnvkK9b4wzu_11proc_macro25IdentNtNtBL_7set_val9SetValZSTEECs9PzovR4aYST_14thiserror_impl, symObjAddr: 0x1D54, symBinAddr: 0x3C1E8, symSize: 0x24 }
  - { offset: 0xC8913, size: 0x8, addend: 0x0, symName: __RINvNtCsaNl6UpbT7bw_4core3ptr13drop_in_placeINtNtNtNtCsiTraAjBDcu4_5alloc11collections5btree3map8BTreeMapTjNtNtCs9PzovR4aYST_14thiserror_impl4attr5TraitENtNtBL_7set_val9SetValZSTEEB1L_, symObjAddr: 0x1D78, symBinAddr: 0x3C20C, symSize: 0x24 }
  - { offset: 0xC8942, size: 0x8, addend: 0x0, symName: __RINvNtCsaNl6UpbT7bw_4core3ptr13drop_in_placeINtNtNtNtCsiTraAjBDcu4_5alloc11collections5btree3map8IntoIterNtCshnvkK9b4wzu_11proc_macro25IdentNtNtBL_7set_val9SetValZSTEECs9PzovR4aYST_14thiserror_impl, symObjAddr: 0x1D9C, symBinAddr: 0x3C230, symSize: 0x24 }
  - { offset: 0xC8971, size: 0x8, addend: 0x0, symName: __RINvNtCsaNl6UpbT7bw_4core3ptr13drop_in_placeINtNtNtNtCsiTraAjBDcu4_5alloc11collections5btree3map8IntoIterNtNtBP_6string6StringNtNtBL_7set_val9SetValZSTEECs9PzovR4aYST_14thiserror_impl, symObjAddr: 0x1DC0, symBinAddr: 0x3C254, symSize: 0x24 }
  - { offset: 0xC89A0, size: 0x8, addend: 0x0, symName: __RINvNtCsaNl6UpbT7bw_4core3ptr13drop_in_placeINtNtNtNtCsiTraAjBDcu4_5alloc11collections5btree3map8IntoIterNtNtBP_6string6StringTINtNtBL_3set8BTreeSetB1F_EINtNtCsc29TF2YcYso_3syn10punctuated10PunctuatedNtCshnvkK9b4wzu_11proc_macro211TokenStreamNtNtB2w_5token4PlusEEEECs9PzovR4aYST_14thiserror_impl, symObjAddr: 0x1DE4, symBinAddr: 0x3C278, symSize: 0x24 }
  - { offset: 0xC89CF, size: 0x8, addend: 0x0, symName: __RINvNtCsaNl6UpbT7bw_4core3ptr13drop_in_placeINtNtNtNtCsiTraAjBDcu4_5alloc11collections5btree3map8IntoIterRNtCshnvkK9b4wzu_11proc_macro25IdentNtNtBL_7set_val9SetValZSTEECs9PzovR4aYST_14thiserror_impl, symObjAddr: 0x1E08, symBinAddr: 0x3C29C, symSize: 0x24 }
  - { offset: 0xC89FE, size: 0x8, addend: 0x0, symName: __RINvNtCsaNl6UpbT7bw_4core3ptr13drop_in_placeINtNtNtNtCsiTraAjBDcu4_5alloc11collections5btree3map8IntoIterTjNtNtCs9PzovR4aYST_14thiserror_impl4attr5TraitENtNtBL_7set_val9SetValZSTEEB1L_, symObjAddr: 0x1E2C, symBinAddr: 0x3C2C0, symSize: 0x24 }
  - { offset: 0xC8A2D, size: 0x8, addend: 0x0, symName: __RINvNtCsaNl6UpbT7bw_4core3ptr13drop_in_placeINtNtNtNtCsiTraAjBDcu4_5alloc11collections5btree3set8BTreeSetNtCshnvkK9b4wzu_11proc_macro25IdentEECs9PzovR4aYST_14thiserror_impl, symObjAddr: 0x1E50, symBinAddr: 0x3C2E4, symSize: 0x24 }
  - { offset: 0xC8A5C, size: 0x8, addend: 0x0, symName: __RINvNtCsaNl6UpbT7bw_4core3ptr13drop_in_placeINtNtNtNtCsiTraAjBDcu4_5alloc11collections5btree3set8BTreeSetNtNtBP_6string6StringEECs9PzovR4aYST_14thiserror_impl, symObjAddr: 0x1E74, symBinAddr: 0x3C308, symSize: 0x24 }
  - { offset: 0xC8A8B, size: 0x8, addend: 0x0, symName: __RINvNtCsaNl6UpbT7bw_4core3ptr13drop_in_placeINtNtNtNtCsiTraAjBDcu4_5alloc11collections5btree3set8BTreeSetRNtCshnvkK9b4wzu_11proc_macro25IdentEECs9PzovR4aYST_14thiserror_impl, symObjAddr: 0x1E98, symBinAddr: 0x3C32C, symSize: 0x24 }
  - { offset: 0xC8ABA, size: 0x8, addend: 0x0, symName: __RINvNtCsaNl6UpbT7bw_4core3ptr13drop_in_placeINtNtNtNtCsiTraAjBDcu4_5alloc11collections5btree3set8BTreeSetTjNtNtCs9PzovR4aYST_14thiserror_impl4attr5TraitEEEB1L_, symObjAddr: 0x1EBC, symBinAddr: 0x3C350, symSize: 0x24 }
  - { offset: 0xC8AE9, size: 0x8, addend: 0x0, symName: __RINvNtCsaNl6UpbT7bw_4core3ptr13drop_in_placeINtNtNtNtCsiTraAjBDcu4_5alloc11collections5btree3set8IntoIterTjNtNtCs9PzovR4aYST_14thiserror_impl4attr5TraitEEEB1L_, symObjAddr: 0x1EE0, symBinAddr: 0x3C374, symSize: 0x24 }
  - { offset: 0xC8B18, size: 0x8, addend: 0x0, symName: __RINvNtCsaNl6UpbT7bw_4core3ptr13drop_in_placeINtNtNtNtCsiTraAjBDcu4_5alloc11collections5btree4node11SplitResultNtCshnvkK9b4wzu_11proc_macro25IdentNtNtBL_7set_val9SetValZSTNtNtBJ_6marker4LeafEECs9PzovR4aYST_14thiserror_impl, symObjAddr: 0x1F04, symBinAddr: 0x3C398, symSize: 0x24 }
  - { offset: 0xC8B47, size: 0x8, addend: 0x0, symName: __RINvNtCsaNl6UpbT7bw_4core3ptr13drop_in_placeINtNtNtNtCsiTraAjBDcu4_5alloc11collections5btree4node11SplitResultNtCshnvkK9b4wzu_11proc_macro25IdentNtNtBL_7set_val9SetValZSTNtNtBJ_6marker8InternalEECs9PzovR4aYST_14thiserror_impl, symObjAddr: 0x1F28, symBinAddr: 0x3C3BC, symSize: 0x24 }
  - { offset: 0xC8B76, size: 0x8, addend: 0x0, symName: __RINvNtCsaNl6UpbT7bw_4core3ptr13drop_in_placeINtNtNtNtCsiTraAjBDcu4_5alloc11collections5btree4node11SplitResultNtNtBP_6string6StringNtNtBL_7set_val9SetValZSTNtNtBJ_6marker4LeafEECs9PzovR4aYST_14thiserror_impl, symObjAddr: 0x1F4C, symBinAddr: 0x3C3E0, symSize: 0x24 }
  - { offset: 0xC8BA5, size: 0x8, addend: 0x0, symName: __RINvNtCsaNl6UpbT7bw_4core3ptr13drop_in_placeINtNtNtNtCsiTraAjBDcu4_5alloc11collections5btree4node11SplitResultNtNtBP_6string6StringNtNtBL_7set_val9SetValZSTNtNtBJ_6marker8InternalEECs9PzovR4aYST_14thiserror_impl, symObjAddr: 0x1F70, symBinAddr: 0x3C404, symSize: 0x24 }
  - { offset: 0xC8BD4, size: 0x8, addend: 0x0, symName: __RINvNtCsaNl6UpbT7bw_4core3ptr13drop_in_placeINtNtNtNtCsiTraAjBDcu4_5alloc11collections5btree4node11SplitResultNtNtBP_6string6StringTINtNtBL_3set8BTreeSetB1K_EINtNtCsc29TF2YcYso_3syn10punctuated10PunctuatedNtCshnvkK9b4wzu_11proc_macro211TokenStreamNtNtB2B_5token4PlusEENtNtBJ_6marker4LeafEECs9PzovR4aYST_14thiserror_impl, symObjAddr: 0x1F94, symBinAddr: 0x3C428, symSize: 0x24 }
  - { offset: 0xC8C03, size: 0x8, addend: 0x0, symName: __RINvNtCsaNl6UpbT7bw_4core3ptr13drop_in_placeINtNtNtNtCsiTraAjBDcu4_5alloc11collections5btree4node11SplitResultNtNtBP_6string6StringTINtNtBL_3set8BTreeSetB1K_EINtNtCsc29TF2YcYso_3syn10punctuated10PunctuatedNtCshnvkK9b4wzu_11proc_macro211TokenStreamNtNtB2B_5token4PlusEENtNtBJ_6marker8InternalEECs9PzovR4aYST_14thiserror_impl, symObjAddr: 0x1FB8, symBinAddr: 0x3C44C, symSize: 0x24 }
  - { offset: 0xC8C32, size: 0x8, addend: 0x0, symName: __RINvNtCsaNl6UpbT7bw_4core3ptr13drop_in_placeINtNtNtNtNtB4_5slice4sort6shared9smallsort10CopyOnDropRNtCshnvkK9b4wzu_11proc_macro25IdentEECs9PzovR4aYST_14thiserror_impl, symObjAddr: 0x1FDC, symBinAddr: 0x3C470, symSize: 0x24 }
  - { offset: 0xC8C61, size: 0x8, addend: 0x0, symName: __RINvNtCsaNl6UpbT7bw_4core3ptr13drop_in_placeINtNtNtNtNtB4_5slice4sort6stable5merge10MergeStateRNtCshnvkK9b4wzu_11proc_macro25IdentEECs9PzovR4aYST_14thiserror_impl, symObjAddr: 0x2000, symBinAddr: 0x3C494, symSize: 0x24 }
  - { offset: 0xC8C90, size: 0x8, addend: 0x0, symName: __RINvNtCsaNl6UpbT7bw_4core3ptr13drop_in_placeINtNtNtNtNtCsiTraAjBDcu4_5alloc11collections5btree3map5entry11VacantEntryNtNtBR_6string6StringTINtNtBN_3set8BTreeSetB1R_EINtNtCsc29TF2YcYso_3syn10punctuated10PunctuatedNtCshnvkK9b4wzu_11proc_macro211TokenStreamNtNtB2I_5token4PlusEEEECs9PzovR4aYST_14thiserror_impl, symObjAddr: 0x2024, symBinAddr: 0x3C4B8, symSize: 0x24 }
  - { offset: 0xC8CBF, size: 0x8, addend: 0x0, symName: __RINvNtCsaNl6UpbT7bw_4core3ptr13drop_in_placeINtNtNtNtNtCsiTraAjBDcu4_5alloc11collections5btree3map5entry5EntryNtNtBR_6string6StringTINtNtBN_3set8BTreeSetB1K_EINtNtCsc29TF2YcYso_3syn10punctuated10PunctuatedNtCshnvkK9b4wzu_11proc_macro211TokenStreamNtNtB2B_5token4PlusEEEECs9PzovR4aYST_14thiserror_impl, symObjAddr: 0x2048, symBinAddr: 0x3C4DC, symSize: 0x4C }
  - { offset: 0xC8CEE, size: 0x8, addend: 0x0, symName: __RINvNtCsaNl6UpbT7bw_4core3ptr13drop_in_placeINtNvMsT_NtNtNtCsiTraAjBDcu4_5alloc11collections5btree4nodeINtBP_6HandleINtBP_7NodeRefNtNtBP_6marker5DyingpppENtB26_2KVE12drop_key_val7DropperNtNtBR_7set_val9SetValZSTEECs9PzovR4aYST_14thiserror_impl, symObjAddr: 0x2094, symBinAddr: 0x3C528, symSize: 0x24 }
  - { offset: 0xC8D1D, size: 0x8, addend: 0x0, symName: __RINvNtCsaNl6UpbT7bw_4core3ptr13drop_in_placeINtNvMsT_NtNtNtCsiTraAjBDcu4_5alloc11collections5btree4nodeINtBP_6HandleINtBP_7NodeRefNtNtBP_6marker5DyingpppENtB26_2KVE12drop_key_val7DropperTINtNtBR_3set8BTreeSetNtNtBV_6string6StringEINtNtCsc29TF2YcYso_3syn10punctuated10PunctuatedNtCshnvkK9b4wzu_11proc_macro211TokenStreamNtNtB3L_5token4PlusEEEECs9PzovR4aYST_14thiserror_impl, symObjAddr: 0x20B8, symBinAddr: 0x3C54C, symSize: 0x24 }
  - { offset: 0xC8D4C, size: 0x8, addend: 0x0, symName: __RINvNtCsaNl6UpbT7bw_4core3ptr13drop_in_placeINtNvXsd_NtNtCsiTraAjBDcu4_5alloc3vec9into_iterINtBP_8IntoIterppENtNtNtB4_3ops4drop4Drop4drop9DropGuardRNtCshnvkK9b4wzu_11proc_macro25IdentNtNtBT_5alloc6GlobalEECs9PzovR4aYST_14thiserror_impl, symObjAddr: 0x20DC, symBinAddr: 0x3C570, symSize: 0x24 }
  - { offset: 0xC8D7B, size: 0x8, addend: 0x0, symName: __RINvNtCsaNl6UpbT7bw_4core3ptr13drop_in_placeINtNvXsw_NtNtNtCsiTraAjBDcu4_5alloc11collections5btree3mapINtBP_8IntoIterpppENtNtNtB4_3ops4drop4Drop4drop9DropGuardNtCshnvkK9b4wzu_11proc_macro25IdentNtNtBR_7set_val9SetValZSTNtNtBV_5alloc6GlobalEECs9PzovR4aYST_14thiserror_impl, symObjAddr: 0x2100, symBinAddr: 0x3C594, symSize: 0x24 }
  - { offset: 0xC8DAA, size: 0x8, addend: 0x0, symName: __RINvNtCsaNl6UpbT7bw_4core3ptr13drop_in_placeINtNvXsw_NtNtNtCsiTraAjBDcu4_5alloc11collections5btree3mapINtBP_8IntoIterpppENtNtNtB4_3ops4drop4Drop4drop9DropGuardNtNtBV_6string6StringNtNtBR_7set_val9SetValZSTNtNtBV_5alloc6GlobalEECs9PzovR4aYST_14thiserror_impl, symObjAddr: 0x2124, symBinAddr: 0x3C5B8, symSize: 0x24 }
  - { offset: 0xC8DD9, size: 0x8, addend: 0x0, symName: __RINvNtCsaNl6UpbT7bw_4core3ptr13drop_in_placeINtNvXsw_NtNtNtCsiTraAjBDcu4_5alloc11collections5btree3mapINtBP_8IntoIterpppENtNtNtB4_3ops4drop4Drop4drop9DropGuardNtNtBV_6string6StringTINtNtBR_3set8BTreeSetB2x_EINtNtCsc29TF2YcYso_3syn10punctuated10PunctuatedNtCshnvkK9b4wzu_11proc_macro211TokenStreamNtNtB3o_5token4PlusEENtNtBV_5alloc6GlobalEECs9PzovR4aYST_14thiserror_impl, symObjAddr: 0x2148, symBinAddr: 0x3C5DC, symSize: 0x24 }
  - { offset: 0xC8E08, size: 0x8, addend: 0x0, symName: __RINvNtCsaNl6UpbT7bw_4core3ptr13drop_in_placeINtNvXsw_NtNtNtCsiTraAjBDcu4_5alloc11collections5btree3mapINtBP_8IntoIterpppENtNtNtB4_3ops4drop4Drop4drop9DropGuardRNtCshnvkK9b4wzu_11proc_macro25IdentNtNtBR_7set_val9SetValZSTNtNtBV_5alloc6GlobalEECs9PzovR4aYST_14thiserror_impl, symObjAddr: 0x216C, symBinAddr: 0x3C600, symSize: 0x24 }
  - { offset: 0xC8E37, size: 0x8, addend: 0x0, symName: __RINvNtCsaNl6UpbT7bw_4core3ptr13drop_in_placeINtNvXsw_NtNtNtCsiTraAjBDcu4_5alloc11collections5btree3mapINtBP_8IntoIterpppENtNtNtB4_3ops4drop4Drop4drop9DropGuardTjNtNtCs9PzovR4aYST_14thiserror_impl4attr5TraitENtNtBR_7set_val9SetValZSTNtNtBV_5alloc6GlobalEEB2D_, symObjAddr: 0x2190, symBinAddr: 0x3C624, symSize: 0x24 }
  - { offset: 0xC8E66, size: 0x8, addend: 0x0, symName: __RINvNtCsaNl6UpbT7bw_4core3ptr13drop_in_placeNCINvMsi_NtCsiTraAjBDcu4_5alloc3vecINtBP_3VecNtCshnvkK9b4wzu_11proc_macro211TokenStreamE14extend_trustedINtNtNtNtB4_4iter8adapters3map3MapINtNtNtB4_5slice4iter4IterNtNtCs9PzovR4aYST_14thiserror_impl3ast7VariantENCNvNtB3o_6expand9impl_enums1_0EE0EB3o_, symObjAddr: 0x21B4, symBinAddr: 0x3C648, symSize: 0x24 }
  - { offset: 0xC8E95, size: 0x8, addend: 0x0, symName: __RINvNtCsaNl6UpbT7bw_4core3ptr13drop_in_placeNCINvNtNtNtB4_4iter8adapters3map8map_foldRNtNtCs9PzovR4aYST_14thiserror_impl3ast7VariantNtCshnvkK9b4wzu_11proc_macro211TokenStreamuNCNvNtB1q_6expand9impl_enums1_0NCINvNvNtNtNtBP_6traits8iterator8Iterator8for_each4callB26_NCINvMsi_NtCsiTraAjBDcu4_5alloc3vecINtB4o_3VecB26_E14extend_trustedINtBL_3MapINtNtNtB4_5slice4iter4IterB1m_EB2N_EE0E0E0EB1q_, symObjAddr: 0x21D8, symBinAddr: 0x3C66C, symSize: 0x24 }
  - { offset: 0xC8EC4, size: 0x8, addend: 0x0, symName: __RINvNtCsaNl6UpbT7bw_4core3ptr13drop_in_placeNCINvNvNtNtNtNtB4_4iter6traits8iterator8Iterator8for_each4callNtCshnvkK9b4wzu_11proc_macro211TokenStreamNCINvMsi_NtCsiTraAjBDcu4_5alloc3vecINtB2v_3VecB1G_E14extend_trustedINtNtNtBT_8adapters3map3MapINtNtNtB4_5slice4iter4IterNtNtCs9PzovR4aYST_14thiserror_impl3ast7VariantENCNvNtB4m_6expand9impl_enums1_0EE0E0EB4m_, symObjAddr: 0x21FC, symBinAddr: 0x3C690, symSize: 0x24 }
  - { offset: 0xC8EF3, size: 0x8, addend: 0x0, symName: __RINvNtCsaNl6UpbT7bw_4core3ptr13drop_in_placeNCNCINvNtNtCs7yrEGia95Wz_10proc_macro6bridge6client10run_clientNtBN_11TokenStreamINtNtB4_6option6OptionB1H_ENCNCINvMs6_BN_INtBN_6ClientNtBR_11TokenStreamB2R_E7expand1NvCs9PzovR4aYST_14thiserror_impl12derive_errorE00E00EB3o_, symObjAddr: 0x2220, symBinAddr: 0x3C6B4, symSize: 0x24 }
  - { offset: 0xC8F22, size: 0x8, addend: 0x0, symName: __RINvNtCsaNl6UpbT7bw_4core3ptr13drop_in_placeNCNvNtCs9PzovR4aYST_14thiserror_impl6expand11impl_structs0_0EBM_, symObjAddr: 0x2244, symBinAddr: 0x3C6D8, symSize: 0x24 }
  - { offset: 0xC8F51, size: 0x8, addend: 0x0, symName: __RINvNtCsaNl6UpbT7bw_4core3ptr13drop_in_placeNtNtCs9PzovR4aYST_14thiserror_impl3ast4EnumEBK_, symObjAddr: 0x2268, symBinAddr: 0x3C6FC, symSize: 0x8C }
  - { offset: 0xC8F80, size: 0x8, addend: 0x0, symName: __RINvNtCsaNl6UpbT7bw_4core3ptr13drop_in_placeNtNtCs9PzovR4aYST_14thiserror_impl3ast5FieldEBK_, symObjAddr: 0x22F4, symBinAddr: 0x3C788, symSize: 0x60 }
  - { offset: 0xC8FAF, size: 0x8, addend: 0x0, symName: __RINvNtCsaNl6UpbT7bw_4core3ptr13drop_in_placeNtNtCs9PzovR4aYST_14thiserror_impl3ast5InputEBK_, symObjAddr: 0x2354, symBinAddr: 0x3C7E8, symSize: 0x50 }
  - { offset: 0xC8FDE, size: 0x8, addend: 0x0, symName: __RINvNtCsaNl6UpbT7bw_4core3ptr13drop_in_placeNtNtCs9PzovR4aYST_14thiserror_impl3ast6StructEBK_, symObjAddr: 0x23A4, symBinAddr: 0x3C838, symSize: 0x8C }
  - { offset: 0xC900D, size: 0x8, addend: 0x0, symName: __RINvNtCsaNl6UpbT7bw_4core3ptr13drop_in_placeNtNtCs9PzovR4aYST_14thiserror_impl3ast7VariantEBK_, symObjAddr: 0x2430, symBinAddr: 0x3C8C4, symSize: 0x8C }
  - { offset: 0xC903C, size: 0x8, addend: 0x0, symName: __RINvNtCsaNl6UpbT7bw_4core3ptr13drop_in_placeNtNtCs9PzovR4aYST_14thiserror_impl3fmt12FmtArgumentsEBK_, symObjAddr: 0x24BC, symBinAddr: 0x3C950, symSize: 0x24 }
  - { offset: 0xC906B, size: 0x8, addend: 0x0, symName: __RINvNtCsaNl6UpbT7bw_4core3ptr13drop_in_placeNtNtCs9PzovR4aYST_14thiserror_impl4attr5AttrsEBK_, symObjAddr: 0x24E0, symBinAddr: 0x3C974, symSize: 0x24 }
  - { offset: 0xC909A, size: 0x8, addend: 0x0, symName: __RINvNtCsaNl6UpbT7bw_4core3ptr13drop_in_placeNtNtCs9PzovR4aYST_14thiserror_impl4attr7DisplayEBK_, symObjAddr: 0x2504, symBinAddr: 0x3C998, symSize: 0x8C }
  - { offset: 0xC90C9, size: 0x8, addend: 0x0, symName: __RINvNtCsaNl6UpbT7bw_4core3ptr13drop_in_placeNtNtCs9PzovR4aYST_14thiserror_impl8generics13ParamsInScopeEBK_, symObjAddr: 0x2590, symBinAddr: 0x3CA24, symSize: 0x24 }
  - { offset: 0xC90F8, size: 0x8, addend: 0x0, symName: __RINvNtCsaNl6UpbT7bw_4core3ptr13drop_in_placeNtNtCs9PzovR4aYST_14thiserror_impl8generics14InferredBoundsEBK_, symObjAddr: 0x25B4, symBinAddr: 0x3CA48, symSize: 0x5C }
  - { offset: 0xC9127, size: 0x8, addend: 0x0, symName: __RINvNtCsaNl6UpbT7bw_4core3ptr13drop_in_placeNtNtCsc29TF2YcYso_3syn6derive11DeriveInputECs9PzovR4aYST_14thiserror_impl, symObjAddr: 0x2610, symBinAddr: 0x3CAA4, symSize: 0xEC }
  - { offset: 0xC9156, size: 0x8, addend: 0x0, symName: __RINvNtCsaNl6UpbT7bw_4core3ptr13drop_in_placeNtNtCsc29TF2YcYso_3syn8generics10TypeParamsECs9PzovR4aYST_14thiserror_impl, symObjAddr: 0x26FC, symBinAddr: 0x3CB90, symSize: 0x24 }
  - { offset: 0xC9185, size: 0x8, addend: 0x0, symName: __RINvNtCsaNl6UpbT7bw_4core3ptr13drop_in_placeNtNtNtCs7yrEGia95Wz_10proc_macro6bridge3rpc12PanicMessageECs9PzovR4aYST_14thiserror_impl, symObjAddr: 0x2720, symBinAddr: 0x3CBB4, symSize: 0x50 }
  - { offset: 0xC91B4, size: 0x8, addend: 0x0, symName: __RINvNtCsaNl6UpbT7bw_4core3ptr13drop_in_placeNtNtNtCs7yrEGia95Wz_10proc_macro6bridge6buffer6BufferECs9PzovR4aYST_14thiserror_impl, symObjAddr: 0x2770, symBinAddr: 0x3CC04, symSize: 0x24 }
  - { offset: 0xC91E3, size: 0x8, addend: 0x0, symName: __RINvNtCsaNl6UpbT7bw_4core3ptr13drop_in_placeNtNtNtCs7yrEGia95Wz_10proc_macro6bridge6client6BridgeECs9PzovR4aYST_14thiserror_impl, symObjAddr: 0x2794, symBinAddr: 0x3CC28, symSize: 0x24 }
  - { offset: 0xC9212, size: 0x8, addend: 0x0, symName: __RINvNtCsaNl6UpbT7bw_4core3ptr13drop_in_placeNtNtNtCsht3nMU9UgFu_3std2io5error5ErrorECs9PzovR4aYST_14thiserror_impl, symObjAddr: 0x27B8, symBinAddr: 0x3CC4C, symSize: 0x24 }
  - { offset: 0xC9241, size: 0x8, addend: 0x0, symName: __RINvNtCsaNl6UpbT7bw_4core3ptr13drop_in_placeNtNtNtCsht3nMU9UgFu_3std2io5error6CustomECs9PzovR4aYST_14thiserror_impl, symObjAddr: 0x27DC, symBinAddr: 0x3CC70, symSize: 0x24 }
  - { offset: 0xC9270, size: 0x8, addend: 0x0, symName: __RINvNtCsaNl6UpbT7bw_4core3ptr13drop_in_placeNtNtNtNtCsht3nMU9UgFu_3std2io5error14repr_bitpacked4ReprECs9PzovR4aYST_14thiserror_impl, symObjAddr: 0x2800, symBinAddr: 0x3CC94, symSize: 0x24 }
  - { offset: 0xC929F, size: 0x8, addend: 0x0, symName: __RINvNtCsaNl6UpbT7bw_4core3ptr13drop_in_placeNtNvNtNtNtCs7yrEGia95Wz_10proc_macro6bridge6client5state3set13RestoreOnDropECs9PzovR4aYST_14thiserror_impl, symObjAddr: 0x2824, symBinAddr: 0x3CCB8, symSize: 0x24 }
  - { offset: 0xC92CE, size: 0x8, addend: 0x0, symName: __RINvNtCsaNl6UpbT7bw_4core3ptr13drop_in_placeNtNvNtNtNtCsiTraAjBDcu4_5alloc11collections5btree3mem7replace10PanicGuardECs9PzovR4aYST_14thiserror_impl, symObjAddr: 0x2848, symBinAddr: 0x3CCDC, symSize: 0x24 }
  - { offset: 0xC92FD, size: 0x8, addend: 0x0, symName: __RINvNtCsaNl6UpbT7bw_4core3ptr13drop_in_placeSNtCshnvkK9b4wzu_11proc_macro211TokenStreamECs9PzovR4aYST_14thiserror_impl, symObjAddr: 0x286C, symBinAddr: 0x3CD00, symSize: 0xB4 }
  - { offset: 0xC932C, size: 0x8, addend: 0x0, symName: __RINvNtCsaNl6UpbT7bw_4core3ptr13drop_in_placeSNtNtCs9PzovR4aYST_14thiserror_impl3ast5FieldEBL_, symObjAddr: 0x2920, symBinAddr: 0x3CDB4, symSize: 0xC4 }
  - { offset: 0xC935B, size: 0x8, addend: 0x0, symName: __RINvNtCsaNl6UpbT7bw_4core3ptr13drop_in_placeSNtNtCs9PzovR4aYST_14thiserror_impl3ast7VariantEBL_, symObjAddr: 0x29E4, symBinAddr: 0x3CE78, symSize: 0xC4 }
  - { offset: 0xC938A, size: 0x8, addend: 0x0, symName: __RINvNtCsaNl6UpbT7bw_4core3ptr13drop_in_placeSTNtCshnvkK9b4wzu_11proc_macro211TokenStreamNtNtCsc29TF2YcYso_3syn5token4PlusEECs9PzovR4aYST_14thiserror_impl, symObjAddr: 0x2AA8, symBinAddr: 0x3CF3C, symSize: 0xC4 }
  - { offset: 0xC93B9, size: 0x8, addend: 0x0, symName: __RINvNtCsaNl6UpbT7bw_4core3ptr13drop_in_placeTINtNtB4_6option6OptionINtNtB4_6result6ResultNtNtCsc29TF2YcYso_3syn4expr5IndexNtNtB1t_5error5ErrorEEBH_BH_EECs9PzovR4aYST_14thiserror_impl, symObjAddr: 0x2B6C, symBinAddr: 0x3D000, symSize: 0x90 }
  - { offset: 0xC93E8, size: 0x8, addend: 0x0, symName: __RINvNtCsaNl6UpbT7bw_4core3ptr13drop_in_placeTINtNtNtNtCsiTraAjBDcu4_5alloc11collections5btree3set8BTreeSetNtNtBQ_6string6StringEINtNtCsc29TF2YcYso_3syn10punctuated10PunctuatedNtCshnvkK9b4wzu_11proc_macro211TokenStreamNtNtB27_5token4PlusEEECs9PzovR4aYST_14thiserror_impl, symObjAddr: 0x2BFC, symBinAddr: 0x3D090, symSize: 0x60 }
  - { offset: 0xC9417, size: 0x8, addend: 0x0, symName: __RINvNtCsaNl6UpbT7bw_4core3ptr13drop_in_placeTNtCshnvkK9b4wzu_11proc_macro211TokenStreamNtNtCsc29TF2YcYso_3syn5token4PlusEECs9PzovR4aYST_14thiserror_impl, symObjAddr: 0x2C5C, symBinAddr: 0x3D0F0, symSize: 0x24 }
  - { offset: 0xC9446, size: 0x8, addend: 0x0, symName: __RINvNtCsaNl6UpbT7bw_4core3ptr13drop_in_placeTNtCshnvkK9b4wzu_11proc_macro25IdentNtNtNtNtCsiTraAjBDcu4_5alloc11collections5btree7set_val9SetValZSTEECs9PzovR4aYST_14thiserror_impl, symObjAddr: 0x2C80, symBinAddr: 0x3D114, symSize: 0x24 }
  - { offset: 0xC9475, size: 0x8, addend: 0x0, symName: __RINvNtCsaNl6UpbT7bw_4core3ptr13drop_in_placeTNtNtCsiTraAjBDcu4_5alloc6string6StringNtNtNtNtBL_11collections5btree7set_val9SetValZSTEECs9PzovR4aYST_14thiserror_impl, symObjAddr: 0x2CA4, symBinAddr: 0x3D138, symSize: 0x24 }
  - { offset: 0xC94A4, size: 0x8, addend: 0x0, symName: __RINvNtCsaNl6UpbT7bw_4core3ptr13drop_in_placeTNtNtCsiTraAjBDcu4_5alloc6string6StringTINtNtNtNtBL_11collections5btree3set8BTreeSetBH_EINtNtCsc29TF2YcYso_3syn10punctuated10PunctuatedNtCshnvkK9b4wzu_11proc_macro211TokenStreamNtNtB2b_5token4PlusEEEECs9PzovR4aYST_14thiserror_impl, symObjAddr: 0x2CC8, symBinAddr: 0x3D15C, symSize: 0x60 }
  - { offset: 0xCCE3D, size: 0x8, addend: 0x0, symName: __RNvXs3_NtCsaNl6UpbT7bw_4core6optionINtB5_6OptionNtNtCs9PzovR4aYST_14thiserror_impl4attr7DisplayENtNtB7_5clone5Clone10clone_fromBO_, symObjAddr: 0x416C, symBinAddr: 0x3E600, symSize: 0x130 }
  - { offset: 0xCCF73, size: 0x8, addend: 0x0, symName: __RNvXs6_NtCsaNl6UpbT7bw_4core6optionINtB5_6OptionRNtCshnvkK9b4wzu_11proc_macro211TokenStreamENtNtNtNtB7_4iter6traits7collect12IntoIterator9into_iterCs9PzovR4aYST_14thiserror_impl, symObjAddr: 0x429C, symBinAddr: 0x3E730, symSize: 0x14 }
  - { offset: 0xCCFB0, size: 0x8, addend: 0x0, symName: __RNvXsC_NtCsaNl6UpbT7bw_4core6optionINtB5_6OptionRNtNtCs9PzovR4aYST_14thiserror_impl3ast5FieldENtNtNtB7_3ops9try_trait3Try6branchBP_, symObjAddr: 0x42B0, symBinAddr: 0x3E744, symSize: 0x40 }
  - { offset: 0xCD00B, size: 0x8, addend: 0x0, symName: __RNvXsD_NtCsaNl6UpbT7bw_4core6optionINtB5_6OptionNtCshnvkK9b4wzu_11proc_macro211TokenStreamEINtNtNtB7_3ops9try_trait12FromResidualIBy_NtNtB7_7convert10InfallibleEE13from_residualCs9PzovR4aYST_14thiserror_impl, symObjAddr: 0x42F0, symBinAddr: 0x3E784, symSize: 0x18 }
  - { offset: 0xCD03E, size: 0x8, addend: 0x0, symName: __RNvXsD_NtCsaNl6UpbT7bw_4core6optionINtB5_6OptionRNtNtCs9PzovR4aYST_14thiserror_impl3ast5FieldEINtNtNtB7_3ops9try_trait12FromResidualIBy_NtNtB7_7convert10InfallibleEE13from_residualBP_, symObjAddr: 0x4308, symBinAddr: 0x3E79C, symSize: 0x14 }
  - { offset: 0xCD0CB, size: 0x8, addend: 0x0, symName: __RNvXsP_NtCsaNl6UpbT7bw_4core6optionINtB5_8IntoIterRNtNtCsc29TF2YcYso_3syn4data7VariantENtNtB7_5clone5Clone5cloneCs9PzovR4aYST_14thiserror_impl, symObjAddr: 0x436C, symBinAddr: 0x3E800, symSize: 0x68 }
  - { offset: 0xCD172, size: 0x8, addend: 0x0, symName: __RNvXsP_NtCsaNl6UpbT7bw_4core6optionINtB5_8IntoIterRNtNtCsc29TF2YcYso_3syn4path15GenericArgumentENtNtB7_5clone5Clone5cloneCs9PzovR4aYST_14thiserror_impl, symObjAddr: 0x43D4, symBinAddr: 0x3E868, symSize: 0x68 }
  - { offset: 0xCD276, size: 0x8, addend: 0x0, symName: __RNvXsw_NtCsaNl6UpbT7bw_4core6optionINtB5_8IntoIterRNtCshnvkK9b4wzu_11proc_macro211TokenStreamENtNtNtNtB7_4iter6traits8iterator8Iterator4nextCs9PzovR4aYST_14thiserror_impl, symObjAddr: 0x48E8, symBinAddr: 0x3ED7C, symSize: 0x28 }
  - { offset: 0xCD2EE, size: 0x8, addend: 0x0, symName: __RNvXsw_NtCsaNl6UpbT7bw_4core6optionINtB5_8IntoIterRNtNtCsc29TF2YcYso_3syn4data7VariantENtNtNtNtB7_4iter6traits8iterator8Iterator9size_hintCs9PzovR4aYST_14thiserror_impl, symObjAddr: 0x4910, symBinAddr: 0x3EDA4, symSize: 0x44 }
  - { offset: 0xCD366, size: 0x8, addend: 0x0, symName: __RNvXsw_NtCsaNl6UpbT7bw_4core6optionINtB5_8IntoIterRNtNtCsc29TF2YcYso_3syn4path15GenericArgumentENtNtNtNtB7_4iter6traits8iterator8Iterator9size_hintCs9PzovR4aYST_14thiserror_impl, symObjAddr: 0x4954, symBinAddr: 0x3EDE8, symSize: 0x44 }
  - { offset: 0xCE400, size: 0x8, addend: 0x0, symName: __RNvXsF_NtNtCsaNl6UpbT7bw_4core4iter5rangejNtB5_4Step17forward_uncheckedCs9PzovR4aYST_14thiserror_impl, symObjAddr: 0x431C, symBinAddr: 0x3E7B0, symSize: 0x50 }
  - { offset: 0xCE470, size: 0x8, addend: 0x0, symName: __RNvYINtNtCsaNl6UpbT7bw_4core6option8IntoIterRNtNtCsc29TF2YcYso_3syn4data7VariantENtNtNtNtB7_4iter6traits10exact_size17ExactSizeIterator3lenCs9PzovR4aYST_14thiserror_impl, symObjAddr: 0x4B90, symBinAddr: 0x3F024, symSize: 0xC4 }
  - { offset: 0xCE56B, size: 0x8, addend: 0x0, symName: __RNvYINtNtCsaNl6UpbT7bw_4core6option8IntoIterRNtNtCsc29TF2YcYso_3syn4path15GenericArgumentENtNtNtNtB7_4iter6traits10exact_size17ExactSizeIterator3lenCs9PzovR4aYST_14thiserror_impl, symObjAddr: 0x4C54, symBinAddr: 0x3F0E8, symSize: 0xC4 }
  - { offset: 0xCE88E, size: 0x8, addend: 0x0, symName: __RNvNvXs0_NtNtCsaNl6UpbT7bw_4core5slice5indexjINtB7_10SliceIndexSpE13get_unchecked18precondition_checkCs9PzovR4aYST_14thiserror_impl, symObjAddr: 0x3A58, symBinAddr: 0x3DEEC, symSize: 0xAC }
  - { offset: 0xCE8FC, size: 0x8, addend: 0x0, symName: __RNvNvXs0_NtNtCsaNl6UpbT7bw_4core5slice5indexjINtB7_10SliceIndexSpE17get_unchecked_mut18precondition_checkCs9PzovR4aYST_14thiserror_impl, symObjAddr: 0x3B04, symBinAddr: 0x3DF98, symSize: 0xAC }
  - { offset: 0xCE965, size: 0x8, addend: 0x0, symName: __RNvXs0_NtNtCsaNl6UpbT7bw_4core5slice5indexjINtB5_10SliceIndexSNtNtCs9PzovR4aYST_14thiserror_impl3ast5FieldE5indexB12_, symObjAddr: 0x3EF4, symBinAddr: 0x3E388, symSize: 0x64 }
  - { offset: 0xCE9AB, size: 0x8, addend: 0x0, symName: __RNvXs0_NtNtCsaNl6UpbT7bw_4core5slice5indexjINtB5_10SliceIndexSTNtNtCsc29TF2YcYso_3syn4path15GenericArgumentNtNtB13_5token5CommaEE5indexCs9PzovR4aYST_14thiserror_impl, symObjAddr: 0x3F58, symBinAddr: 0x3E3EC, symSize: 0x64 }
  - { offset: 0xCE9FC, size: 0x8, addend: 0x0, symName: __RNvNvXs1_NtNtCsaNl6UpbT7bw_4core5slice5indexNtNtNtBb_3ops11index_range10IndexRangeINtB7_10SliceIndexSpE17get_unchecked_mut18precondition_checkCs9PzovR4aYST_14thiserror_impl, symObjAddr: 0x3BB0, symBinAddr: 0x3E044, symSize: 0xAC }
  - { offset: 0xCEAA3, size: 0x8, addend: 0x0, symName: __RNvNvXs2_NtNtCsaNl6UpbT7bw_4core5slice5indexINtNtNtBb_3ops5range5RangejEINtB7_10SliceIndexSpE13get_unchecked18precondition_checkCs9PzovR4aYST_14thiserror_impl, symObjAddr: 0x3C5C, symBinAddr: 0x3E0F0, symSize: 0xCC }
  - { offset: 0xCEB1F, size: 0x8, addend: 0x0, symName: __RNvNvXs2_NtNtCsaNl6UpbT7bw_4core5slice5indexINtNtNtBb_3ops5range5RangejEINtB7_10SliceIndexSpE17get_unchecked_mut18precondition_checkCs9PzovR4aYST_14thiserror_impl, symObjAddr: 0x3D28, symBinAddr: 0x3E1BC, symSize: 0xCC }
  - { offset: 0xCF8A4, size: 0x8, addend: 0x0, symName: __RNSNvYNCINvMs6_NtCsg4dki62PTrg_9hashbrown3rawINtBd_8RawTableTRNtNtCsc29TF2YcYso_3syn4expr6MemberjEE14reserve_rehashNCINvNtBf_3map11make_hasherBX_jNtNtNtCsht3nMU9UgFu_3std4hash6random11RandomStateE0E0INtNtNtCsaNl6UpbT7bw_4core3ops8function6FnOnceTQNtBd_13RawTableInnerjEE9call_once6vtableCs9PzovR4aYST_14thiserror_impl, symObjAddr: 0x3380, symBinAddr: 0x3D814, symSize: 0x38 }
  - { offset: 0xCF8E8, size: 0x8, addend: 0x0, symName: __RNSNvYNCINvMs6_NtCsg4dki62PTrg_9hashbrown3rawINtBd_8RawTableTRNtNtCsc29TF2YcYso_3syn4expr6MemberjEE24find_or_find_insert_slotNCINvNtBf_3map14equivalent_keyBX_BX_jE0NCINvB24_11make_hasherBX_jNtNtNtCsht3nMU9UgFu_3std4hash6random11RandomStateE0E0INtNtNtCsaNl6UpbT7bw_4core3ops8function6FnOnceTjEE9call_once6vtableCs9PzovR4aYST_14thiserror_impl, symObjAddr: 0x33B8, symBinAddr: 0x3D84C, symSize: 0x38 }
  - { offset: 0xCF92C, size: 0x8, addend: 0x0, symName: __RNSNvYNCINvMs6_NtCsg4dki62PTrg_9hashbrown3rawINtBd_8RawTableTRNtNtCsc29TF2YcYso_3syn4expr6MemberjEE4findNCINvNtBf_3map14equivalent_keyBY_BX_jE0E0INtNtNtCsaNl6UpbT7bw_4core3ops8function6FnOnceTjEE9call_once6vtableCs9PzovR4aYST_14thiserror_impl, symObjAddr: 0x33F0, symBinAddr: 0x3D884, symSize: 0x38 }
  - { offset: 0xCF970, size: 0x8, addend: 0x0, symName: __RNvYNCINvMs6_NtCsg4dki62PTrg_9hashbrown3rawINtBb_8RawTableTRNtNtCsc29TF2YcYso_3syn4expr6MemberjEE14reserve_rehashNCINvNtBd_3map11make_hasherBV_jNtNtNtCsht3nMU9UgFu_3std4hash6random11RandomStateE0E0INtNtNtCsaNl6UpbT7bw_4core3ops8function6FnOnceTQNtBb_13RawTableInnerjEE9call_onceCs9PzovR4aYST_14thiserror_impl, symObjAddr: 0x4D48, symBinAddr: 0x3F1DC, symSize: 0x5C }
  - { offset: 0xCF9B4, size: 0x8, addend: 0x0, symName: __RNvYNCINvMs6_NtCsg4dki62PTrg_9hashbrown3rawINtBb_8RawTableTRNtNtCsc29TF2YcYso_3syn4expr6MemberjEE24find_or_find_insert_slotNCINvNtBd_3map14equivalent_keyBV_BV_jE0NCINvB22_11make_hasherBV_jNtNtNtCsht3nMU9UgFu_3std4hash6random11RandomStateE0E0INtNtNtCsaNl6UpbT7bw_4core3ops8function6FnOnceTjEE9call_onceCs9PzovR4aYST_14thiserror_impl, symObjAddr: 0x4DA4, symBinAddr: 0x3F238, symSize: 0x58 }
  - { offset: 0xCF9F8, size: 0x8, addend: 0x0, symName: __RNvYNCINvMs6_NtCsg4dki62PTrg_9hashbrown3rawINtBb_8RawTableTRNtNtCsc29TF2YcYso_3syn4expr6MemberjEE4findNCINvNtBd_3map14equivalent_keyBW_BV_jE0E0INtNtNtCsaNl6UpbT7bw_4core3ops8function6FnOnceTjEE9call_onceCs9PzovR4aYST_14thiserror_impl, symObjAddr: 0x4DFC, symBinAddr: 0x3F290, symSize: 0x58 }
  - { offset: 0xCFA3C, size: 0x8, addend: 0x0, symName: __RNvYNCNkNvNtNtNtCs7yrEGia95Wz_10proc_macro6bridge6client5state12BRIDGE_STATE0s_0INtNtNtCsaNl6UpbT7bw_4core3ops8function6FnOnceTINtNtB1n_6option6OptionQIB22_INtNtB1n_4cell4CellPuEEEEE9call_onceCs9PzovR4aYST_14thiserror_impl, symObjAddr: 0x4E54, symBinAddr: 0x3F2E8, symSize: 0x4C }
  - { offset: 0xCFA80, size: 0x8, addend: 0x0, symName: __RNvYNCNkNvNvMNtNtCsht3nMU9UgFu_3std4hash6randomNtBb_11RandomState3new4KEYS0s_0INtNtNtCsaNl6UpbT7bw_4core3ops8function6FnOnceTINtNtB1l_6option6OptionQIB20_INtNtB1l_4cell4CellTyyEEEEEE9call_onceCs9PzovR4aYST_14thiserror_impl, symObjAddr: 0x4EA0, symBinAddr: 0x3F334, symSize: 0x4C }
  - { offset: 0xCFAC4, size: 0x8, addend: 0x0, symName: __RNvYNCNvNtCs9PzovR4aYST_14thiserror_impl4attr21parse_error_attribute0INtNtNtCsaNl6UpbT7bw_4core3ops8function6FnOnceTRNtNtCsc29TF2YcYso_3syn5parse11ParseBufferEE9call_onceB8_, symObjAddr: 0x4EEC, symBinAddr: 0x3F380, symSize: 0x40 }
  - { offset: 0xCFB09, size: 0x8, addend: 0x0, symName: __RNvYNcNtINtNtCsc29TF2YcYso_3syn10punctuated4PairRNtCshnvkK9b4wzu_11proc_macro211TokenStreamRNtNtBb_5token4PlusE3End0INtNtNtCsaNl6UpbT7bw_4core3ops8function6FnOnceTBK_EE9call_onceCs9PzovR4aYST_14thiserror_impl, symObjAddr: 0x4F2C, symBinAddr: 0x3F3C0, symSize: 0x24 }
  - { offset: 0xCFB4D, size: 0x8, addend: 0x0, symName: __RNvYNcNtNtNtCs9PzovR4aYST_14thiserror_impl3ast5Input4Enum0INtNtNtCsaNl6UpbT7bw_4core3ops8function6FnOnceTNtB8_4EnumEE9call_onceBa_, symObjAddr: 0x4FE0, symBinAddr: 0x3F474, symSize: 0x40 }
  - { offset: 0xCFB91, size: 0x8, addend: 0x0, symName: __RNvYNcNtNtNtCs9PzovR4aYST_14thiserror_impl3ast5Input6Struct0INtNtNtCsaNl6UpbT7bw_4core3ops8function6FnOnceTNtB8_6StructEE9call_onceBa_, symObjAddr: 0x5020, symBinAddr: 0x3F4B4, symSize: 0x40 }
  - { offset: 0xCFBD5, size: 0x8, addend: 0x0, symName: __RNvYNcNtNtNtCsc29TF2YcYso_3syn4expr6Member5Named0INtNtNtCsaNl6UpbT7bw_4core3ops8function6FnOnceTNtCshnvkK9b4wzu_11proc_macro25IdentEE9call_onceCs9PzovR4aYST_14thiserror_impl, symObjAddr: 0x5060, symBinAddr: 0x3F4F4, symSize: 0x34 }
  - { offset: 0xCFC19, size: 0x8, addend: 0x0, symName: __RNvYNvNtCs9PzovR4aYST_14thiserror_impl3fmt11is_syn_fullINtNtNtCsaNl6UpbT7bw_4core3ops8function6FnOnceuE9call_onceB6_, symObjAddr: 0x5148, symBinAddr: 0x3F5DC, symSize: 0x1C }
  - { offset: 0xCFC5D, size: 0x8, addend: 0x0, symName: __RNvYNvNtCs9PzovR4aYST_14thiserror_impl3fmt19explicit_named_argsINtNtNtCsaNl6UpbT7bw_4core3ops8function6FnOnceTRNtNtCsc29TF2YcYso_3syn5parse11ParseBufferEE9call_onceB6_, symObjAddr: 0x5164, symBinAddr: 0x3F5F8, symSize: 0x24 }
  - { offset: 0xCFCA1, size: 0x8, addend: 0x0, symName: __RNvYNvNvNvMNtNtCsht3nMU9UgFu_3std4hash6randomNtB9_11RandomState3new4KEYS6___initINtNtNtCsaNl6UpbT7bw_4core3ops8function6FnOnceuE9call_onceCs9PzovR4aYST_14thiserror_impl, symObjAddr: 0x5188, symBinAddr: 0x3F61C, symSize: 0x1C }
  - { offset: 0xCFCE5, size: 0x8, addend: 0x0, symName: __RNvYNvYINtNtCsiTraAjBDcu4_5alloc5boxed3BoxNtCshnvkK9b4wzu_11proc_macro211TokenStreamEINtNtCsaNl6UpbT7bw_4core7convert5AsRefBE_E6as_refINtNtNtB1q_3ops8function6FnOnceTRB5_EE9call_onceCs9PzovR4aYST_14thiserror_impl, symObjAddr: 0x51A4, symBinAddr: 0x3F638, symSize: 0x24 }
  - { offset: 0xCFD29, size: 0x8, addend: 0x0, symName: __RNvYNvYNtCshnvkK9b4wzu_11proc_macro25IdentNtNtCsc29TF2YcYso_3syn3ext8IdentExt9parse_anyINtNtNtCsaNl6UpbT7bw_4core3ops8function6FnOnceTRNtNtBI_5parse11ParseBufferEE9call_onceCs9PzovR4aYST_14thiserror_impl, symObjAddr: 0x51C8, symBinAddr: 0x3F65C, symSize: 0x24 }
  - { offset: 0xCFD6D, size: 0x8, addend: 0x0, symName: __RNvYNvYNtNtCsc29TF2YcYso_3syn4expr4ExprNtNtB9_5parse5Parse5parseINtNtNtCsaNl6UpbT7bw_4core3ops8function6FnOnceTRNtBD_11ParseBufferEE9call_onceCs9PzovR4aYST_14thiserror_impl, symObjAddr: 0x51EC, symBinAddr: 0x3F680, symSize: 0x24 }
  - { offset: 0xCFDB1, size: 0x8, addend: 0x0, symName: __RNvYNvYNtNtCsc29TF2YcYso_3syn6derive11DeriveInputNtNtB9_5parse5Parse5parseINtNtNtCsaNl6UpbT7bw_4core3ops8function6FnOnceTRNtBN_11ParseBufferEE9call_onceCs9PzovR4aYST_14thiserror_impl, symObjAddr: 0x5210, symBinAddr: 0x3F6A4, symSize: 0x24 }
  - { offset: 0xCFDF5, size: 0x8, addend: 0x0, symName: __RNvYNvYNtNtCsc29TF2YcYso_3syn8generics14WherePredicateNtNtB9_11parse_quote10ParseQuote5parseINtNtNtCsaNl6UpbT7bw_4core3ops8function6FnOnceTRNtNtB9_5parse11ParseBufferEE9call_onceCs9PzovR4aYST_14thiserror_impl, symObjAddr: 0x5234, symBinAddr: 0x3F6C8, symSize: 0x24 }
  - { offset: 0xCFE3F, size: 0x8, addend: 0x0, symName: __RNvYINvCsc29TF2YcYso_3syn9parse_strNtNtB5_4expr5IndexEINtNtNtCsaNl6UpbT7bw_4core3ops8function5FnMutTReEE8call_mutCs9PzovR4aYST_14thiserror_impl, symObjAddr: 0x4D18, symBinAddr: 0x3F1AC, symSize: 0x30 }
  - { offset: 0xCFE83, size: 0x8, addend: 0x0, symName: __RNvYNcNtINtNtNtCsaNl6UpbT7bw_4core3ops12control_flow11ControlFlowNtNtCs9PzovR4aYST_14thiserror_impl3ast5FieldE5Break0INtNtBb_8function5FnMutTB11_EE8call_mutB15_, symObjAddr: 0x4F50, symBinAddr: 0x3F3E4, symSize: 0x48 }
  - { offset: 0xCFEC7, size: 0x8, addend: 0x0, symName: __RNvYNcNtINtNtNtCsaNl6UpbT7bw_4core3ops12control_flow11ControlFlowNtNtCs9PzovR4aYST_14thiserror_impl3ast7VariantE5Break0INtNtBb_8function5FnMutTB11_EE8call_mutB15_, symObjAddr: 0x4F98, symBinAddr: 0x3F42C, symSize: 0x48 }
  - { offset: 0xCFF0B, size: 0x8, addend: 0x0, symName: __RNvYNvYRNtCshnvkK9b4wzu_11proc_macro25IdentNtNtCsaNl6UpbT7bw_4core3cmp10PartialOrd2ltINtNtNtBJ_3ops8function5FnMutTRB5_B1P_EE8call_mutCs9PzovR4aYST_14thiserror_impl, symObjAddr: 0x5258, symBinAddr: 0x3F6EC, symSize: 0x30 }
  - { offset: 0xCFF55, size: 0x8, addend: 0x0, symName: __RNvYNvCs9PzovR4aYST_14thiserror_impl12derive_errorINtNtNtCsaNl6UpbT7bw_4core3ops8function2FnTNtCs7yrEGia95Wz_10proc_macro11TokenStreamEE4callB4_, symObjAddr: 0x5120, symBinAddr: 0x3F5B4, symSize: 0x28 }
  - { offset: 0xD05AD, size: 0x8, addend: 0x0, symName: __RNvXNtCsaNl6UpbT7bw_4core6borrowNtNtCsiTraAjBDcu4_5alloc6string6StringINtB2_6BorrowBu_E6borrowCs9PzovR4aYST_14thiserror_impl, symObjAddr: 0x3E34, symBinAddr: 0x3E2C8, symSize: 0x14 }
  - { offset: 0xD05F8, size: 0x8, addend: 0x0, symName: __RNvXNtNtNtCsaNl6UpbT7bw_4core5array4iter10iter_innerSINtNtNtB8_3mem12maybe_uninit11MaybeUninitjENtB2_11PartialDrop12partial_dropCs9PzovR4aYST_14thiserror_impl, symObjAddr: 0x3E48, symBinAddr: 0x3E2DC, symSize: 0xAC }
  - { offset: 0xD070A, size: 0x8, addend: 0x0, symName: __RNvXs_NtNtNtCsaNl6UpbT7bw_4core5array4iter10iter_innerAINtNtNtBa_3mem12maybe_uninit11MaybeUninitjEj2_NtB4_11PartialDrop12partial_dropCs9PzovR4aYST_14thiserror_impl, symObjAddr: 0x4658, symBinAddr: 0x3EAEC, symSize: 0x4C }
  - { offset: 0xD0816, size: 0x8, addend: 0x0, symName: __RNvYTjNtNtCs9PzovR4aYST_14thiserror_impl4attr5TraitENtNtCsaNl6UpbT7bw_4core5clone5Clone5cloneB8_, symObjAddr: 0x5288, symBinAddr: 0x3F71C, symSize: 0x60 }
  - { offset: 0xD09BE, size: 0x8, addend: 0x0, symName: __RNCINvNtNtCs7yrEGia95Wz_10proc_macro6bridge6client10run_clientNtB4_11TokenStreamINtNtCsaNl6UpbT7bw_4core6option6OptionBY_ENCNCINvMs6_B4_INtB4_6ClientNtB8_11TokenStreamB2n_E7expand1NvCs9PzovR4aYST_14thiserror_impl12derive_errorE00E0B2U_, symObjAddr: 0x3004, symBinAddr: 0x3D498, symSize: 0x324 }
  - { offset: 0xD0BE8, size: 0x8, addend: 0x0, symName: __RNCNCINvNtNtCs7yrEGia95Wz_10proc_macro6bridge6client10run_clientNtB6_11TokenStreamINtNtCsaNl6UpbT7bw_4core6option6OptionB10_ENCNCINvMs6_B6_INtB6_6ClientNtBa_11TokenStreamB2q_E7expand1NvCs9PzovR4aYST_14thiserror_impl12derive_errorE00E00B2X_, symObjAddr: 0x3358, symBinAddr: 0x3D7EC, symSize: 0x28 }
  - { offset: 0xD0C84, size: 0x8, addend: 0x0, symName: __RNCNCINvMs6_NtNtCs7yrEGia95Wz_10proc_macro6bridge6clientINtBa_6ClientNtBe_11TokenStreamB15_E7expand1NvCs9PzovR4aYST_14thiserror_impl12derive_errorE00B1C_, symObjAddr: 0x3328, symBinAddr: 0x3D7BC, symSize: 0x30 }
  - { offset: 0xD0CCD, size: 0x8, addend: 0x0, symName: __RNCINvMs6_NtNtCs7yrEGia95Wz_10proc_macro6bridge6clientINtB8_6ClientNtBc_11TokenStreamB13_E7expand1NvCs9PzovR4aYST_14thiserror_impl12derive_errorE0B1A_, symObjAddr: 0x2FD4, symBinAddr: 0x3D468, symSize: 0x30 }
  - { offset: 0xD0D18, size: 0x8, addend: 0x0, symName: __RINvNtNtCs7yrEGia95Wz_10proc_macro6bridge6client10run_clientNtB2_11TokenStreamINtNtCsaNl6UpbT7bw_4core6option6OptionBW_ENCNCINvMs6_B2_INtB2_6ClientNtB6_11TokenStreamB2l_E7expand1NvCs9PzovR4aYST_14thiserror_impl12derive_errorE00EB2S_, symObjAddr: 0x2D28, symBinAddr: 0x3D1BC, symSize: 0x21C }
  - { offset: 0xD0F1F, size: 0x8, addend: 0x0, symName: __RNvXsf_NtNtCs7yrEGia95Wz_10proc_macro6bridge6clientNtB5_11TokenStreamINtNtB7_3rpc6EncodeuE6encodeCs9PzovR4aYST_14thiserror_impl, symObjAddr: 0x47E4, symBinAddr: 0x3EC78, symSize: 0x50 }
  - { offset: 0xD1030, size: 0x8, addend: 0x0, symName: __RNvXsi_NtNtCs7yrEGia95Wz_10proc_macro6bridge6clientNtB5_11TokenStreamINtNtB7_3rpc9DecodeMutuE6decodeCs9PzovR4aYST_14thiserror_impl, symObjAddr: 0x4834, symBinAddr: 0x3ECC8, symSize: 0x2C }
  - { offset: 0xD1079, size: 0x8, addend: 0x0, symName: __RNvXsk_NtNtCs7yrEGia95Wz_10proc_macro6bridge6clientNtB5_4SpanINtNtB7_3rpc9DecodeMutuE6decodeCs9PzovR4aYST_14thiserror_impl, symObjAddr: 0x4860, symBinAddr: 0x3ECF4, symSize: 0x2C }
  - { offset: 0xD15CD, size: 0x8, addend: 0x0, symName: __RNvXsR_NtCs7yrEGia95Wz_10proc_macro6bridgeINtNtCsaNl6UpbT7bw_4core6option6OptionNtNtB5_6client11TokenStreamEINtNtB5_3rpc6EncodeuE6encodeCs9PzovR4aYST_14thiserror_impl, symObjAddr: 0x443C, symBinAddr: 0x3E8D0, symSize: 0xCC }
  - { offset: 0xD1673, size: 0x8, addend: 0x0, symName: __RNvXsR_NtCs7yrEGia95Wz_10proc_macro6bridgeINtNtCsaNl6UpbT7bw_4core6option6OptionReEINtNtB5_3rpc6EncodeuE6encodeCs9PzovR4aYST_14thiserror_impl, symObjAddr: 0x4508, symBinAddr: 0x3E99C, symSize: 0xD8 }
  - { offset: 0xD7493, size: 0x8, addend: 0x0, symName: __RNvXsb_NtCsc29TF2YcYso_3syn5parseINtNtCsaNl6UpbT7bw_4core6option6OptionNtCshnvkK9b4wzu_11proc_macro29TokenTreeENtB5_5Parse5parseCs9PzovR4aYST_14thiserror_impl, symObjAddr: 0x46A4, symBinAddr: 0x3EB38, symSize: 0x140 }
  - { offset: 0xD7FC5, size: 0x8, addend: 0x0, symName: __RINvMNtCsaNl6UpbT7bw_4core6optionINtB3_6OptionIBw_RNtNtCsc29TF2YcYso_3syn4expr6MemberEE18get_or_insert_withNCNvMs3_NtNtNtB5_4iter8adapters8peekableINtB1P_8PeekableINtNtB1R_3map3MapINtNtNtB5_5slice4iter4IterNtNtCs9PzovR4aYST_14thiserror_impl3ast5FieldENCNvNtB3m_6expand10fields_pat0EE4peek0EB3m_, symObjAddr: 0x0, symBinAddr: 0x3A508, symSize: 0x104 }
  - { offset: 0xD8115, size: 0x8, addend: 0x0, symName: __RINvMNtCsaNl6UpbT7bw_4core6optionINtB3_6OptionIBw_TRNtCshnvkK9b4wzu_11proc_macro25IdentNtNtNtNtCsiTraAjBDcu4_5alloc11collections5btree7set_val9SetValZSTEEE18get_or_insert_withNCNvMs3_NtNtNtB5_4iter8adapters8peekableINtB2V_8PeekableINtNtB2X_3map3MapINtNtNtB1v_3vec9into_iter8IntoIterBN_ENCINvMse_NtB1r_3setINtB4J_8BTreeSetBN_E16from_sorted_iterB3Y_E0EE4peek0ECs9PzovR4aYST_14thiserror_impl, symObjAddr: 0x104, symBinAddr: 0x3A60C, symSize: 0x104 }
  - { offset: 0xD81D7, size: 0x8, addend: 0x0, symName: __RINvMNtCsaNl6UpbT7bw_4core6optionINtB3_6OptionINtNtCsc29TF2YcYso_3syn10punctuated4PairRNtCshnvkK9b4wzu_11proc_macro211TokenStreamRNtNtBN_5token4PlusEE7or_elseNCNvXsc_BL_INtBL_5PairsB1n_B24_ENtNtNtNtB5_4iter6traits8iterator8Iterator4nexts_0ECs9PzovR4aYST_14thiserror_impl, symObjAddr: 0x208, symBinAddr: 0x3A710, symSize: 0xB4 }
  - { offset: 0xD823A, size: 0x8, addend: 0x0, symName: __RINvMNtCsaNl6UpbT7bw_4core6optionINtB3_6OptionNtCshnvkK9b4wzu_11proc_macro211TokenStreamE3mapBI_NCNvNtCs9PzovR4aYST_14thiserror_impl6expand11impl_struct0EB1C_, symObjAddr: 0x2BC, symBinAddr: 0x3A7C4, symSize: 0x90 }
  - { offset: 0xD82E7, size: 0x8, addend: 0x0, symName: __RINvMNtCsaNl6UpbT7bw_4core6optionINtB3_6OptionNtCshnvkK9b4wzu_11proc_macro211TokenStreamE3mapBI_NCNvNtCs9PzovR4aYST_14thiserror_impl6expand11impl_structs0_0EB1C_, symObjAddr: 0x34C, symBinAddr: 0x3A854, symSize: 0xB8 }
  - { offset: 0xD836C, size: 0x8, addend: 0x0, symName: __RINvMNtCsaNl6UpbT7bw_4core6optionINtB3_6OptionNtCshnvkK9b4wzu_11proc_macro25IdentE3mapNtNtCsc29TF2YcYso_3syn4expr6MemberNcNtB1m_5Named0ECs9PzovR4aYST_14thiserror_impl, symObjAddr: 0x404, symBinAddr: 0x3A90C, symSize: 0x8C }
  - { offset: 0xD83F2, size: 0x8, addend: 0x0, symName: __RINvMNtCsaNl6UpbT7bw_4core6optionINtB3_6OptionNtNtCsc29TF2YcYso_3syn4expr6MemberE14unwrap_or_elseNCNvMs2_NtCs9PzovR4aYST_14thiserror_impl3astNtB1F_5Field8from_syn0EB1H_, symObjAddr: 0x490, symBinAddr: 0x3A998, symSize: 0x84 }
  - { offset: 0xD8487, size: 0x8, addend: 0x0, symName: __RINvMNtCsaNl6UpbT7bw_4core6optionINtB3_6OptionRINtNtCsiTraAjBDcu4_5alloc5boxed3BoxNtCshnvkK9b4wzu_11proc_macro211TokenStreamEE3mapRB1i_NvYBJ_INtNtB5_7convert5AsRefB1i_E6as_refECs9PzovR4aYST_14thiserror_impl, symObjAddr: 0x514, symBinAddr: 0x3AA1C, symSize: 0x50 }
  - { offset: 0xD850A, size: 0x8, addend: 0x0, symName: __RINvMNtCsaNl6UpbT7bw_4core6optionINtB3_6OptionRNtCshnvkK9b4wzu_11proc_macro211TokenStreamE3mapINtNtCsc29TF2YcYso_3syn10punctuated4PairBI_RNtNtB1z_5token4PlusENcNtB1u_3End0ECs9PzovR4aYST_14thiserror_impl, symObjAddr: 0x564, symBinAddr: 0x3AA6C, symSize: 0x68 }
  - { offset: 0xD859C, size: 0x8, addend: 0x0, symName: __RINvMNtCsaNl6UpbT7bw_4core6optionINtB3_6OptionRNtNtCs9PzovR4aYST_14thiserror_impl3ast5FieldE3mapNtCshnvkK9b4wzu_11proc_macro211TokenStreamNCNvNtBN_6expand11impl_structs1_0EBN_, symObjAddr: 0x5CC, symBinAddr: 0x3AAD4, symSize: 0x94 }
  - { offset: 0xD8608, size: 0x8, addend: 0x0, symName: __RINvMNtCsaNl6UpbT7bw_4core6optionINtB3_6OptionRNtNtCs9PzovR4aYST_14thiserror_impl3ast5FieldE3mapNtCshnvkK9b4wzu_11proc_macro211TokenStreamNCNvNtBN_6expand11impl_structs_0EBN_, symObjAddr: 0x660, symBinAddr: 0x3AB68, symSize: 0x78 }
  - { offset: 0xD8673, size: 0x8, addend: 0x0, symName: __RINvMNtCsaNl6UpbT7bw_4core6optionINtB3_6OptionRNtNtCs9PzovR4aYST_14thiserror_impl3ast5FieldE3mapNtCshnvkK9b4wzu_11proc_macro211TokenStreamNCNvNtBN_6expand16from_initializer0EBN_, symObjAddr: 0x6D8, symBinAddr: 0x3ABE0, symSize: 0x6C }
  - { offset: 0xD86DE, size: 0x8, addend: 0x0, symName: __RINvMNtCsaNl6UpbT7bw_4core6optionINtB3_6OptionRNtNtCs9PzovR4aYST_14thiserror_impl3ast5FieldE6map_orbNCNvNtBN_4prop24distinct_backtrace_field0EBN_, symObjAddr: 0x744, symBinAddr: 0x3AC4C, symSize: 0xB8 }
  - { offset: 0xD875D, size: 0x8, addend: 0x0, symName: __RINvMNtCsaNl6UpbT7bw_4core6optionINtB3_6OptionRNtNtCs9PzovR4aYST_14thiserror_impl4attr7DisplayE6map_orbNCNCNvNtBN_6expand9impl_enums0_00EBN_, symObjAddr: 0x7FC, symBinAddr: 0x3AD04, symSize: 0xAC }
  - { offset: 0xD87E9, size: 0x8, addend: 0x0, symName: __RINvMNtCsaNl6UpbT7bw_4core6optionINtB3_6OptionRNtNtCsc29TF2YcYso_3syn4data7VariantE7or_elseNCNvXsw_NtBN_10punctuatedINtB1z_11PrivateIterBJ_NtNtBN_5token5CommaENtNtNtNtB5_4iter6traits8iterator8Iterator4nexts_0ECs9PzovR4aYST_14thiserror_impl, symObjAddr: 0x8A8, symBinAddr: 0x3ADB0, symSize: 0xA8 }
  - { offset: 0xD8872, size: 0x8, addend: 0x0, symName: __RINvMNtCsaNl6UpbT7bw_4core6optionINtB3_6OptionRNtNtCsc29TF2YcYso_3syn4data7VariantE7or_elseNCNvXsx_NtBN_10punctuatedINtB1z_11PrivateIterBJ_NtNtBN_5token5CommaENtNtNtNtB5_4iter6traits12double_ended19DoubleEndedIterator9next_back0ECs9PzovR4aYST_14thiserror_impl, symObjAddr: 0x950, symBinAddr: 0x3AE58, symSize: 0xA8 }
  - { offset: 0xD88EE, size: 0x8, addend: 0x0, symName: __RINvMNtCsaNl6UpbT7bw_4core6optionINtB3_6OptionRNtNtCsc29TF2YcYso_3syn4path15GenericArgumentE7or_elseNCNvXsw_NtBN_10punctuatedINtB1I_11PrivateIterBJ_NtNtBN_5token5CommaENtNtNtNtB5_4iter6traits8iterator8Iterator4nexts_0ECs9PzovR4aYST_14thiserror_impl, symObjAddr: 0x9F8, symBinAddr: 0x3AF00, symSize: 0xA8 }
  - { offset: 0xD8977, size: 0x8, addend: 0x0, symName: __RINvMNtCsaNl6UpbT7bw_4core6optionINtB3_6OptionRNtNtCsc29TF2YcYso_3syn4path15GenericArgumentE7or_elseNCNvXsx_NtBN_10punctuatedINtB1I_11PrivateIterBJ_NtNtBN_5token5CommaENtNtNtNtB5_4iter6traits12double_ended19DoubleEndedIterator9next_back0ECs9PzovR4aYST_14thiserror_impl, symObjAddr: 0xAA0, symBinAddr: 0x3AFA8, symSize: 0xA8 }
  - { offset: 0xD89E6, size: 0x8, addend: 0x0, symName: __RINvMNtCsaNl6UpbT7bw_4core6optionINtB3_6OptionRNtNtCsc29TF2YcYso_3syn8lifetime8LifetimeE6map_orbNCNvNtCs9PzovR4aYST_14thiserror_impl5valid28contains_non_static_lifetime0EB1C_, symObjAddr: 0xB48, symBinAddr: 0x3B050, symSize: 0xAC }
  - { offset: 0xD8A83, size: 0x8, addend: 0x0, symName: __RINvMNtCsaNl6UpbT7bw_4core6optionINtB3_6OptionRTNtCshnvkK9b4wzu_11proc_macro211TokenStreamNtNtCsc29TF2YcYso_3syn5token4PlusEE3mapINtNtB1u_10punctuated4PairRBK_RB1q_ENCNvXsc_B26_INtB26_5PairsBK_B1q_ENtNtNtNtB5_4iter6traits8iterator8Iterator4next0ECs9PzovR4aYST_14thiserror_impl, symObjAddr: 0xBF4, symBinAddr: 0x3B0FC, symSize: 0x68 }
  - { offset: 0xD8AEE, size: 0x8, addend: 0x0, symName: __RINvMNtCsaNl6UpbT7bw_4core6optionINtB3_6OptionRTNtNtCsc29TF2YcYso_3syn4data7VariantNtNtBO_5token5CommaEE3mapRBK_NCNCNvXsx_NtBO_10punctuatedINtB1W_11PrivateIterBK_B1j_ENtNtNtNtB5_4iter6traits12double_ended19DoubleEndedIterator9next_back00ECs9PzovR4aYST_14thiserror_impl, symObjAddr: 0xC5C, symBinAddr: 0x3B164, symSize: 0x50 }
  - { offset: 0xD8B59, size: 0x8, addend: 0x0, symName: __RINvMNtCsaNl6UpbT7bw_4core6optionINtB3_6OptionRTNtNtCsc29TF2YcYso_3syn4data7VariantNtNtBO_5token5CommaEE3mapRBK_NCNvXsw_NtBO_10punctuatedINtB1U_11PrivateIterBK_B1j_ENtNtNtNtB5_4iter6traits8iterator8Iterator4next0ECs9PzovR4aYST_14thiserror_impl, symObjAddr: 0xCAC, symBinAddr: 0x3B1B4, symSize: 0x50 }
  - { offset: 0xD8BC4, size: 0x8, addend: 0x0, symName: __RINvMNtCsaNl6UpbT7bw_4core6optionINtB3_6OptionRTNtNtCsc29TF2YcYso_3syn4path15GenericArgumentNtNtBO_5token5CommaEE3mapRBK_NCNCNvXsx_NtBO_10punctuatedINtB25_11PrivateIterBK_B1s_ENtNtNtNtB5_4iter6traits12double_ended19DoubleEndedIterator9next_back00ECs9PzovR4aYST_14thiserror_impl, symObjAddr: 0xCFC, symBinAddr: 0x3B204, symSize: 0x50 }
  - { offset: 0xD8C2F, size: 0x8, addend: 0x0, symName: __RINvMNtCsaNl6UpbT7bw_4core6optionINtB3_6OptionRTNtNtCsc29TF2YcYso_3syn4path15GenericArgumentNtNtBO_5token5CommaEE3mapRBK_NCNvXsw_NtBO_10punctuatedINtB23_11PrivateIterBK_B1s_ENtNtNtNtB5_4iter6traits8iterator8Iterator4next0ECs9PzovR4aYST_14thiserror_impl, symObjAddr: 0xD4C, symBinAddr: 0x3B254, symSize: 0x50 }
  - { offset: 0xD8D1C, size: 0x8, addend: 0x0, symName: __RINvMNtCsaNl6UpbT7bw_4core6optionINtB3_6OptionbE18get_or_insert_withNvNtCs9PzovR4aYST_14thiserror_impl3fmt11is_syn_fullEB18_, symObjAddr: 0xD9C, symBinAddr: 0x3B2A4, symSize: 0xF4 }
  - { offset: 0xD915C, size: 0x8, addend: 0x0, symName: __RNvMNtCsaNl6UpbT7bw_4core6optionINtB2_6OptionINtNtCsiTraAjBDcu4_5alloc5boxed3BoxNtCshnvkK9b4wzu_11proc_macro211TokenStreamEE4takeCs9PzovR4aYST_14thiserror_impl, symObjAddr: 0x3428, symBinAddr: 0x3D8BC, symSize: 0x28 }
  - { offset: 0xD91B3, size: 0x8, addend: 0x0, symName: __RNvMNtCsaNl6UpbT7bw_4core6optionINtB2_6OptionINtNtCsiTraAjBDcu4_5alloc5boxed3BoxNtCshnvkK9b4wzu_11proc_macro211TokenStreamEE6as_refCs9PzovR4aYST_14thiserror_impl, symObjAddr: 0x3450, symBinAddr: 0x3D8E4, symSize: 0x4C }
  - { offset: 0xD9219, size: 0x8, addend: 0x0, symName: __RNvMNtCsaNl6UpbT7bw_4core6optionINtB2_6OptionINtNtCsiTraAjBDcu4_5alloc5boxed3BoxNtCshnvkK9b4wzu_11proc_macro211TokenStreamEE7is_noneCs9PzovR4aYST_14thiserror_impl, symObjAddr: 0x349C, symBinAddr: 0x3D930, symSize: 0x28 }
  - { offset: 0xD9263, size: 0x8, addend: 0x0, symName: __RNvMNtCsaNl6UpbT7bw_4core6optionINtB2_6OptionINtNtCsiTraAjBDcu4_5alloc5boxed3BoxNtCshnvkK9b4wzu_11proc_macro211TokenStreamEE7is_someCs9PzovR4aYST_14thiserror_impl, symObjAddr: 0x34C4, symBinAddr: 0x3D958, symSize: 0x28 }
  - { offset: 0xD928F, size: 0x8, addend: 0x0, symName: __RNvMNtCsaNl6UpbT7bw_4core6optionINtB2_6OptionNtCshnvkK9b4wzu_11proc_macro24SpanE2orCs9PzovR4aYST_14thiserror_impl, symObjAddr: 0x34EC, symBinAddr: 0x3D980, symSize: 0x84 }
  - { offset: 0xD92F5, size: 0x8, addend: 0x0, symName: __RNvMNtCsaNl6UpbT7bw_4core6optionINtB2_6OptionNtCshnvkK9b4wzu_11proc_macro25IdentE7is_someCs9PzovR4aYST_14thiserror_impl, symObjAddr: 0x3570, symBinAddr: 0x3DA04, symSize: 0x28 }
  - { offset: 0xD932E, size: 0x8, addend: 0x0, symName: __RNvMNtCsaNl6UpbT7bw_4core6optionINtB2_6OptionNtCshnvkK9b4wzu_11proc_macro29TokenTreeE7is_someCs9PzovR4aYST_14thiserror_impl, symObjAddr: 0x3598, symBinAddr: 0x3DA2C, symSize: 0x28 }
  - { offset: 0xD9383, size: 0x8, addend: 0x0, symName: __RNvMNtCsaNl6UpbT7bw_4core6optionINtB2_6OptionNtNtCs9PzovR4aYST_14thiserror_impl4attr11TransparentE7is_noneBL_, symObjAddr: 0x35C0, symBinAddr: 0x3DA54, symSize: 0x28 }
  - { offset: 0xD93CD, size: 0x8, addend: 0x0, symName: __RNvMNtCsaNl6UpbT7bw_4core6optionINtB2_6OptionNtNtCs9PzovR4aYST_14thiserror_impl4attr11TransparentE7is_someBL_, symObjAddr: 0x35E8, symBinAddr: 0x3DA7C, symSize: 0x28 }
  - { offset: 0xD9406, size: 0x8, addend: 0x0, symName: __RNvMNtCsaNl6UpbT7bw_4core6optionINtB2_6OptionNtNtCs9PzovR4aYST_14thiserror_impl4attr7DisplayE6as_refBL_, symObjAddr: 0x3610, symBinAddr: 0x3DAA4, symSize: 0x50 }
  - { offset: 0xD946C, size: 0x8, addend: 0x0, symName: __RNvMNtCsaNl6UpbT7bw_4core6optionINtB2_6OptionNtNtCs9PzovR4aYST_14thiserror_impl4attr7DisplayE7is_noneBL_, symObjAddr: 0x3660, symBinAddr: 0x3DAF4, symSize: 0x2C }
  - { offset: 0xD94B6, size: 0x8, addend: 0x0, symName: __RNvMNtCsaNl6UpbT7bw_4core6optionINtB2_6OptionNtNtCs9PzovR4aYST_14thiserror_impl4attr7DisplayE7is_someBL_, symObjAddr: 0x368C, symBinAddr: 0x3DB20, symSize: 0x2C }
  - { offset: 0xD94EF, size: 0x8, addend: 0x0, symName: __RNvMNtCsaNl6UpbT7bw_4core6optionINtB2_6OptionNtNtCsc29TF2YcYso_3syn3lit3LitE7is_someCs9PzovR4aYST_14thiserror_impl, symObjAddr: 0x36B8, symBinAddr: 0x3DB4C, symSize: 0x30 }
  - { offset: 0xD951B, size: 0x8, addend: 0x0, symName: __RNvMNtCsaNl6UpbT7bw_4core6optionINtB2_6OptionRNtNtCs9PzovR4aYST_14thiserror_impl3ast5FieldE2orBM_, symObjAddr: 0x36E8, symBinAddr: 0x3DB7C, symSize: 0x64 }
  - { offset: 0xD9581, size: 0x8, addend: 0x0, symName: __RNvMNtCsaNl6UpbT7bw_4core6optionINtB2_6OptionRNtNtCs9PzovR4aYST_14thiserror_impl3ast5FieldE7is_someBM_, symObjAddr: 0x374C, symBinAddr: 0x3DBE0, symSize: 0x28 }
  - { offset: 0xD95BA, size: 0x8, addend: 0x0, symName: __RNvMNtCsaNl6UpbT7bw_4core6optionINtB2_6OptionRNtNtCsc29TF2YcYso_3syn2ty4TypeE7is_someCs9PzovR4aYST_14thiserror_impl, symObjAddr: 0x3774, symBinAddr: 0x3DC08, symSize: 0x28 }
  - { offset: 0xD95E6, size: 0x8, addend: 0x0, symName: __RNvMNtCsaNl6UpbT7bw_4core6optionINtB2_6OptionRNtNtCsc29TF2YcYso_3syn2ty4TypeE9unwrap_orCs9PzovR4aYST_14thiserror_impl, symObjAddr: 0x379C, symBinAddr: 0x3DC30, symSize: 0x4C }
  - { offset: 0xD9668, size: 0x8, addend: 0x0, symName: __RNvMNtCsaNl6UpbT7bw_4core6optionINtB2_6OptionRNtNtCsc29TF2YcYso_3syn4attr9AttributeE7is_noneCs9PzovR4aYST_14thiserror_impl, symObjAddr: 0x37E8, symBinAddr: 0x3DC7C, symSize: 0x28 }
  - { offset: 0xD96B2, size: 0x8, addend: 0x0, symName: __RNvMNtCsaNl6UpbT7bw_4core6optionINtB2_6OptionRNtNtCsc29TF2YcYso_3syn4attr9AttributeE7is_someCs9PzovR4aYST_14thiserror_impl, symObjAddr: 0x3810, symBinAddr: 0x3DCA4, symSize: 0x28 }
  - { offset: 0xD96F8, size: 0x8, addend: 0x0, symName: __RNvMNtCsaNl6UpbT7bw_4core6optionINtB2_6OptionRNtNtCsc29TF2YcYso_3syn8generics9TypeParamE7is_someCs9PzovR4aYST_14thiserror_impl, symObjAddr: 0x3838, symBinAddr: 0x3DCCC, symSize: 0x28 }
  - { offset: 0xD9734, size: 0x8, addend: 0x0, symName: __RNvMNtCsiTraAjBDcu4_5alloc6stringNtB2_6String3newCs9PzovR4aYST_14thiserror_impl, symObjAddr: 0x3860, symBinAddr: 0x3DCF4, symSize: 0x30 }
  - { offset: 0xD9873, size: 0x8, addend: 0x0, symName: __RNvMNtCsiTraAjBDcu4_5alloc6stringNtB2_6String4pushCs9PzovR4aYST_14thiserror_impl, symObjAddr: 0x3890, symBinAddr: 0x3DD24, symSize: 0xF8 }
  - { offset: 0xD9B00, size: 0x8, addend: 0x0, symName: __RNvMNtCsiTraAjBDcu4_5alloc6stringNtB2_6String6as_strCs9PzovR4aYST_14thiserror_impl, symObjAddr: 0x3988, symBinAddr: 0x3DE1C, symSize: 0x78 }
  - { offset: 0xD9CE9, size: 0x8, addend: 0x0, symName: __RNvMNtCsiTraAjBDcu4_5alloc6stringNtB2_6String8push_strCs9PzovR4aYST_14thiserror_impl, symObjAddr: 0x3A00, symBinAddr: 0x3DE94, symSize: 0x58 }
  - { offset: 0xD9FBA, size: 0x8, addend: 0x0, symName: __RNvXNtCs4EAaWzSXu1l_5quote9to_tokensRNtNtCsc29TF2YcYso_3syn3lit6LitStrNtB2_8ToTokens9to_tokensCs9PzovR4aYST_14thiserror_impl, symObjAddr: 0x3DF4, symBinAddr: 0x3E288, symSize: 0x40 }
  - { offset: 0xD9FFF, size: 0x8, addend: 0x0, symName: __RNvXs3_NtCs4EAaWzSXu1l_5quote9to_tokensINtNtCsaNl6UpbT7bw_4core6option6OptionNtCshnvkK9b4wzu_11proc_macro211TokenStreamENtB5_8ToTokens9to_tokensCs9PzovR4aYST_14thiserror_impl, symObjAddr: 0x3FE8, symBinAddr: 0x3E47C, symSize: 0x84 }
  - { offset: 0xDA05B, size: 0x8, addend: 0x0, symName: __RNvXs3_NtCs4EAaWzSXu1l_5quote9to_tokensINtNtCsaNl6UpbT7bw_4core6option6OptionRNtNtCsc29TF2YcYso_3syn4attr9AttributeENtB5_8ToTokens9to_tokensCs9PzovR4aYST_14thiserror_impl, symObjAddr: 0x406C, symBinAddr: 0x3E500, symSize: 0x80 }
  - { offset: 0xDA0B7, size: 0x8, addend: 0x0, symName: __RNvXs3_NtCs4EAaWzSXu1l_5quote9to_tokensINtNtCsaNl6UpbT7bw_4core6option6OptionRNtNtCsc29TF2YcYso_3syn8generics11WhereClauseENtB5_8ToTokens9to_tokensCs9PzovR4aYST_14thiserror_impl, symObjAddr: 0x40EC, symBinAddr: 0x3E580, symSize: 0x80 }
  - { offset: 0xDA119, size: 0x8, addend: 0x0, symName: __RNvYINtNtCsaNl6UpbT7bw_4core6option6OptionRNtNtCsc29TF2YcYso_3syn4attr9AttributeENtNtCs4EAaWzSXu1l_5quote9to_tokens8ToTokens15to_token_streamCs9PzovR4aYST_14thiserror_impl, symObjAddr: 0x4AB0, symBinAddr: 0x3EF44, symSize: 0x8C }
  - { offset: 0xDA163, size: 0x8, addend: 0x0, symName: __RNvYINtNtCsaNl6UpbT7bw_4core6option6OptionRNtNtCsc29TF2YcYso_3syn4attr9AttributeENtNtCs4EAaWzSXu1l_5quote9to_tokens8ToTokens17into_token_streamCs9PzovR4aYST_14thiserror_impl, symObjAddr: 0x4B3C, symBinAddr: 0x3EFD0, symSize: 0x54 }
  - { offset: 0xDA198, size: 0x8, addend: 0x0, symName: __RNvYNtNtCsc29TF2YcYso_3syn5token8SelfTypeNtNtCs4EAaWzSXu1l_5quote9to_tokens8ToTokens15to_token_streamCs9PzovR4aYST_14thiserror_impl, symObjAddr: 0x5094, symBinAddr: 0x3F528, symSize: 0x8C }
  - { offset: 0xDC2C7, size: 0x8, addend: 0x0, symName: __RNvXNtCs9PzovR4aYST_14thiserror_impl4spanNtNtCsc29TF2YcYso_3syn4expr6MemberNtB2_10MemberSpan11member_span, symObjAddr: 0x3634, symBinAddr: 0x42CC0, symSize: 0x94 }
  - { offset: 0xDC33F, size: 0x8, addend: 0x0, symName: __RINvNtNtCsaNl6UpbT7bw_4core4iter8adapters11try_processINtNtB2_3map3MapINtNtB2_9enumerate9EnumerateINtNtCsc29TF2YcYso_3syn10punctuated4IterNtNtB1D_4data5FieldEENCNvMs2_NtCs9PzovR4aYST_14thiserror_impl3astNtB2F_5Field17multiple_from_syn0EB3f_INtNtB6_6result6ResultNtNtB6_7convert10InfallibleNtNtB1D_5error5ErrorENCINvXso_B3T_IB3R_INtNtCsiTraAjBDcu4_5alloc3vec3VecB3f_EB4D_EINtNtNtB4_6traits7collect12FromIteratorIB3R_B3f_B4D_EE9from_iterBQ_E0B5g_EB2H_, symObjAddr: 0x140, symBinAddr: 0x3F7D0, symSize: 0x19C }
  - { offset: 0xDC406, size: 0x8, addend: 0x0, symName: __RINvNtNtCsaNl6UpbT7bw_4core4iter8adapters11try_processINtNtB2_3map3MapINtNtCsc29TF2YcYso_3syn10punctuated4IterNtNtB1b_4data7VariantENCNvMs0_NtCs9PzovR4aYST_14thiserror_impl3astNtB2e_4Enum8from_syn0ENtB2e_7VariantINtNtB6_6result6ResultNtNtB6_7convert10InfallibleNtNtB1b_5error5ErrorENCINvXso_B3r_IB3p_INtNtCsiTraAjBDcu4_5alloc3vec3VecB3a_EB4b_EINtNtNtB4_6traits7collect12FromIteratorIB3p_B3a_B4b_EE9from_iterBQ_E0B4O_EB2g_, symObjAddr: 0x2DC, symBinAddr: 0x3F96C, symSize: 0x19C }
  - { offset: 0xDC4D2, size: 0x8, addend: 0x0, symName: __RINvXNtNtCsaNl6UpbT7bw_4core4iter8adaptersINtB3_12GenericShuntINtNtB3_3map3MapINtNtB3_9enumerate9EnumerateINtNtCsc29TF2YcYso_3syn10punctuated4IterNtNtB1L_4data5FieldEENCNvMs2_NtCs9PzovR4aYST_14thiserror_impl3astNtB2N_5Field17multiple_from_syn0EINtNtB7_6result6ResultNtNtB7_7convert10InfallibleNtNtB1L_5error5ErrorEENtNtNtB5_6traits8iterator8Iterator8try_folduNCINvNvB53_12try_for_each4callB3n_INtNtNtB7_3ops12control_flow11ControlFlowB3n_ENcNtB6j_5Break0E0B6j_EB2P_, symObjAddr: 0x478, symBinAddr: 0x3FB08, symSize: 0xC0 }
  - { offset: 0xDC591, size: 0x8, addend: 0x0, symName: __RINvXNtNtCsaNl6UpbT7bw_4core4iter8adaptersINtB3_12GenericShuntINtNtB3_3map3MapINtNtCsc29TF2YcYso_3syn10punctuated4IterNtNtB1j_4data7VariantENCNvMs0_NtCs9PzovR4aYST_14thiserror_impl3astNtB2m_4Enum8from_syn0EINtNtB7_6result6ResultNtNtB7_7convert10InfallibleNtNtB1j_5error5ErrorEENtNtNtB5_6traits8iterator8Iterator8try_folduNCINvNvB4r_12try_for_each4callNtB2m_7VariantINtNtNtB7_3ops12control_flow11ControlFlowB5D_ENcNtB5R_5Break0E0B5R_EB2o_, symObjAddr: 0x538, symBinAddr: 0x3FBC8, symSize: 0xC0 }
  - { offset: 0xDC655, size: 0x8, addend: 0x0, symName: __RNCINvXNtNtCsaNl6UpbT7bw_4core4iter8adaptersINtB5_12GenericShuntINtNtB5_3map3MapINtNtB5_9enumerate9EnumerateINtNtCsc29TF2YcYso_3syn10punctuated4IterNtNtB1N_4data5FieldEENCNvMs2_NtCs9PzovR4aYST_14thiserror_impl3astNtB2P_5Field17multiple_from_syn0EINtNtB9_6result6ResultNtNtB9_7convert10InfallibleNtNtB1N_5error5ErrorEENtNtNtB7_6traits8iterator8Iterator8try_folduNCINvNvB55_12try_for_each4callB3p_INtNtNtB9_3ops12control_flow11ControlFlowB3p_ENcNtB6l_5Break0E0B6l_E0B2R_, symObjAddr: 0x868, symBinAddr: 0x3FEF8, symSize: 0x208 }
  - { offset: 0xDC748, size: 0x8, addend: 0x0, symName: __RNCINvXNtNtCsaNl6UpbT7bw_4core4iter8adaptersINtB5_12GenericShuntINtNtB5_3map3MapINtNtCsc29TF2YcYso_3syn10punctuated4IterNtNtB1l_4data7VariantENCNvMs0_NtCs9PzovR4aYST_14thiserror_impl3astNtB2o_4Enum8from_syn0EINtNtB9_6result6ResultNtNtB9_7convert10InfallibleNtNtB1l_5error5ErrorEENtNtNtB7_6traits8iterator8Iterator8try_folduNCINvNvB4t_12try_for_each4callNtB2o_7VariantINtNtNtB9_3ops12control_flow11ControlFlowB5F_ENcNtB5T_5Break0E0B5T_E0B2q_, symObjAddr: 0xA70, symBinAddr: 0x40100, symSize: 0x200 }
  - { offset: 0xDC83C, size: 0x8, addend: 0x0, symName: __RNvXNtNtCsaNl6UpbT7bw_4core4iter8adaptersINtB2_12GenericShuntINtNtB2_3map3MapINtNtB2_9enumerate9EnumerateINtNtCsc29TF2YcYso_3syn10punctuated4IterNtNtB1K_4data5FieldEENCNvMs2_NtCs9PzovR4aYST_14thiserror_impl3astNtB2M_5Field17multiple_from_syn0EINtNtB6_6result6ResultNtNtB6_7convert10InfallibleNtNtB1K_5error5ErrorEENtNtNtB4_6traits8iterator8Iterator4nextB2O_, symObjAddr: 0x2738, symBinAddr: 0x41DC4, symSize: 0xBC }
  - { offset: 0xDC8CB, size: 0x8, addend: 0x0, symName: __RNvXNtNtCsaNl6UpbT7bw_4core4iter8adaptersINtB2_12GenericShuntINtNtB2_3map3MapINtNtB2_9enumerate9EnumerateINtNtCsc29TF2YcYso_3syn10punctuated4IterNtNtB1K_4data5FieldEENCNvMs2_NtCs9PzovR4aYST_14thiserror_impl3astNtB2M_5Field17multiple_from_syn0EINtNtB6_6result6ResultNtNtB6_7convert10InfallibleNtNtB1K_5error5ErrorEENtNtNtB4_6traits8iterator8Iterator9size_hintB2O_, symObjAddr: 0x27F4, symBinAddr: 0x41E80, symSize: 0xA8 }
  - { offset: 0xDC943, size: 0x8, addend: 0x0, symName: __RNvXNtNtCsaNl6UpbT7bw_4core4iter8adaptersINtB2_12GenericShuntINtNtB2_3map3MapINtNtCsc29TF2YcYso_3syn10punctuated4IterNtNtB1i_4data7VariantENCNvMs0_NtCs9PzovR4aYST_14thiserror_impl3astNtB2l_4Enum8from_syn0EINtNtB6_6result6ResultNtNtB6_7convert10InfallibleNtNtB1i_5error5ErrorEENtNtNtB4_6traits8iterator8Iterator4nextB2n_, symObjAddr: 0x289C, symBinAddr: 0x41F28, symSize: 0xB0 }
  - { offset: 0xDC9D2, size: 0x8, addend: 0x0, symName: __RNvXNtNtCsaNl6UpbT7bw_4core4iter8adaptersINtB2_12GenericShuntINtNtB2_3map3MapINtNtCsc29TF2YcYso_3syn10punctuated4IterNtNtB1i_4data7VariantENCNvMs0_NtCs9PzovR4aYST_14thiserror_impl3astNtB2l_4Enum8from_syn0EINtNtB6_6result6ResultNtNtB6_7convert10InfallibleNtNtB1i_5error5ErrorEENtNtNtB4_6traits8iterator8Iterator9size_hintB2n_, symObjAddr: 0x294C, symBinAddr: 0x41FD8, symSize: 0xA8 }
  - { offset: 0xDCB8A, size: 0x8, addend: 0x0, symName: __RNvXsh_NtNtNtCsaNl6UpbT7bw_4core4iter8adapters7step_byINtNtNtBb_3ops5range5RangejEINtB5_14SpecRangeSetupBQ_E5setupCs9PzovR4aYST_14thiserror_impl, symObjAddr: 0x34B0, symBinAddr: 0x42B3C, symSize: 0x150 }
  - { offset: 0xDCCBB, size: 0x8, addend: 0x0, symName: __RINvYINtNtNtCsaNl6UpbT7bw_4core4iter8adapters12GenericShuntINtNtB6_3map3MapINtNtB6_9enumerate9EnumerateINtNtCsc29TF2YcYso_3syn10punctuated4IterNtNtB1I_4data5FieldEENCNvMs2_NtCs9PzovR4aYST_14thiserror_impl3astNtB2K_5Field17multiple_from_syn0EINtNtBa_6result6ResultNtNtBa_7convert10InfallibleNtNtB1I_5error5ErrorEENtNtNtB8_6traits8iterator8Iterator7collectINtNtCsiTraAjBDcu4_5alloc3vec3VecB3k_EEB2M_, symObjAddr: 0x764, symBinAddr: 0x3FDF4, symSize: 0x74 }
  - { offset: 0xDCD51, size: 0x8, addend: 0x0, symName: __RINvYINtNtNtCsaNl6UpbT7bw_4core4iter8adapters12GenericShuntINtNtB6_3map3MapINtNtCsc29TF2YcYso_3syn10punctuated4IterNtNtB1g_4data7VariantENCNvMs0_NtCs9PzovR4aYST_14thiserror_impl3astNtB2j_4Enum8from_syn0EINtNtBa_6result6ResultNtNtBa_7convert10InfallibleNtNtB1g_5error5ErrorEENtNtNtB8_6traits8iterator8Iterator7collectINtNtCsiTraAjBDcu4_5alloc3vec3VecNtB2j_7VariantEEB2l_, symObjAddr: 0x7D8, symBinAddr: 0x3FE68, symSize: 0x74 }
  - { offset: 0xDCDE7, size: 0x8, addend: 0x0, symName: __RINvYNtNtCsc29TF2YcYso_3syn8generics10TypeParamsNtNtNtNtCsaNl6UpbT7bw_4core4iter6traits8iterator8Iterator3mapRNtCshnvkK9b4wzu_11proc_macro25IdentNCNvMNtCs9PzovR4aYST_14thiserror_impl8genericsNtB2o_13ParamsInScope3new0EB2q_, symObjAddr: 0x84C, symBinAddr: 0x3FEDC, symSize: 0x1C }
  - { offset: 0xDCECB, size: 0x8, addend: 0x0, symName: __RNvYNtNtCsc29TF2YcYso_3syn8generics10TypeParamsNtNtNtNtCsaNl6UpbT7bw_4core4iter6traits8iterator8Iterator9size_hintCs9PzovR4aYST_14thiserror_impl, symObjAddr: 0x3600, symBinAddr: 0x42C8C, symSize: 0x34 }
  - { offset: 0xDCF3E, size: 0x8, addend: 0x0, symName: __RNvXNtNtNtCsaNl6UpbT7bw_4core4iter6traits7collectINtNtB6_8adapters12GenericShuntINtNtBO_3map3MapINtNtBO_9enumerate9EnumerateINtNtCsc29TF2YcYso_3syn10punctuated4IterNtNtB23_4data5FieldEENCNvMs2_NtCs9PzovR4aYST_14thiserror_impl3astNtB35_5Field17multiple_from_syn0EINtNtB8_6result6ResultNtNtB8_7convert10InfallibleNtNtB23_5error5ErrorEENtB2_12IntoIterator9into_iterB37_, symObjAddr: 0x29F4, symBinAddr: 0x42080, symSize: 0x30 }
  - { offset: 0xDCF76, size: 0x8, addend: 0x0, symName: __RNvXNtNtNtCsaNl6UpbT7bw_4core4iter6traits7collectINtNtB6_8adapters12GenericShuntINtNtBO_3map3MapINtNtCsc29TF2YcYso_3syn10punctuated4IterNtNtB1B_4data7VariantENCNvMs0_NtCs9PzovR4aYST_14thiserror_impl3astNtB2E_4Enum8from_syn0EINtNtB8_6result6ResultNtNtB8_7convert10InfallibleNtNtB1B_5error5ErrorEENtB2_12IntoIterator9into_iterB2G_, symObjAddr: 0x2A24, symBinAddr: 0x420B0, symSize: 0x30 }
  - { offset: 0xDCFBB, size: 0x8, addend: 0x0, symName: __RNvXs3_NtNtCsaNl6UpbT7bw_4core4iter5rangeINtNtNtB9_3ops5range5RangejENtB5_17RangeIteratorImpl9spec_nextCs9PzovR4aYST_14thiserror_impl, symObjAddr: 0x3200, symBinAddr: 0x4288C, symSize: 0x94 }
  - { offset: 0xDD03C, size: 0x8, addend: 0x0, symName: __RNvXs4_NtNtCsaNl6UpbT7bw_4core4iter5rangeINtNtNtB9_3ops5range5RangejENtNtNtB7_6traits8iterator8Iterator4nextCs9PzovR4aYST_14thiserror_impl, symObjAddr: 0x3294, symBinAddr: 0x42920, symSize: 0x24 }
  - { offset: 0xDD0A0, size: 0x8, addend: 0x0, symName: __RNvXsc_NtNtCsaNl6UpbT7bw_4core4iter5rangeINtNtNtB9_3ops5range14RangeInclusivejENtB5_26RangeInclusiveIteratorImpl9spec_nextCs9PzovR4aYST_14thiserror_impl, symObjAddr: 0x338C, symBinAddr: 0x42A18, symSize: 0x100 }
  - { offset: 0xDD1A1, size: 0x8, addend: 0x0, symName: __RNvXsd_NtNtCsaNl6UpbT7bw_4core4iter5rangeINtNtNtB9_3ops5range14RangeInclusivejENtNtNtB7_6traits8iterator8Iterator4nextCs9PzovR4aYST_14thiserror_impl, symObjAddr: 0x348C, symBinAddr: 0x42B18, symSize: 0x24 }
  - { offset: 0xE0EB6, size: 0x8, addend: 0x0, symName: __RINvXs3_NtNtCsaNl6UpbT7bw_4core4hash5implsRNtNtCsc29TF2YcYso_3syn4expr6MemberNtB8_4Hash4hashNtNtNtCsht3nMU9UgFu_3std4hash6random13DefaultHasherECs9PzovR4aYST_14thiserror_impl, symObjAddr: 0x5F8, symBinAddr: 0x3FC88, symSize: 0x30 }
  - { offset: 0xE0F01, size: 0x8, addend: 0x0, symName: __RINvXs3_NtNtCsaNl6UpbT7bw_4core4hash5implsRRNtNtCsc29TF2YcYso_3syn4expr6MemberNtB8_4Hash4hashNtNtNtCsht3nMU9UgFu_3std4hash6random13DefaultHasherECs9PzovR4aYST_14thiserror_impl, symObjAddr: 0x628, symBinAddr: 0x3FCB8, symSize: 0x30 }
  - { offset: 0xE0F52, size: 0x8, addend: 0x0, symName: __RINvXs9_NtNtCsaNl6UpbT7bw_4core4hash5implsmNtB8_4Hash4hashNtNtNtCsht3nMU9UgFu_3std4hash6random13DefaultHasherECs9PzovR4aYST_14thiserror_impl, symObjAddr: 0x6F0, symBinAddr: 0x3FD80, symSize: 0x38 }
  - { offset: 0xE1754, size: 0x8, addend: 0x0, symName: __RNvNvNtNtCsaNl6UpbT7bw_4core4char7convert18from_u32_unchecked18precondition_checkCs9PzovR4aYST_14thiserror_impl, symObjAddr: 0x2024, symBinAddr: 0x416B0, symSize: 0x104 }
  - { offset: 0xE1961, size: 0x8, addend: 0x0, symName: __RNvNvNtNtCsaNl6UpbT7bw_4core5slice3raw14from_raw_parts18precondition_checkCs9PzovR4aYST_14thiserror_impl, symObjAddr: 0x2128, symBinAddr: 0x417B4, symSize: 0x1DC }
  - { offset: 0xE1AE5, size: 0x8, addend: 0x0, symName: __RNvNvNtNtCsaNl6UpbT7bw_4core5slice3raw18from_raw_parts_mut18precondition_checkCs9PzovR4aYST_14thiserror_impl, symObjAddr: 0x2304, symBinAddr: 0x41990, symSize: 0x1DC }
  - { offset: 0xE1CAA, size: 0x8, addend: 0x0, symName: __RNvXs2_NtNtCsaNl6UpbT7bw_4core5slice5indexINtNtNtB9_3ops5range5RangejEINtB5_10SliceIndexSINtNtNtB9_3mem12maybe_uninit11MaybeUninitINtNtNtB9_3ptr8non_null7NonNullINtNtNtNtCsiTraAjBDcu4_5alloc11collections5btree4node8LeafNodeNtCshnvkK9b4wzu_11proc_macro25IdentNtNtB2E_7set_val9SetValZSTEEEE9index_mutCs9PzovR4aYST_14thiserror_impl, symObjAddr: 0x2A6C, symBinAddr: 0x420F8, symSize: 0xC0 }
  - { offset: 0xE1D5B, size: 0x8, addend: 0x0, symName: __RNvXs2_NtNtCsaNl6UpbT7bw_4core5slice5indexINtNtNtB9_3ops5range5RangejEINtB5_10SliceIndexSINtNtNtB9_3mem12maybe_uninit11MaybeUninitINtNtNtB9_3ptr8non_null7NonNullINtNtNtNtCsiTraAjBDcu4_5alloc11collections5btree4node8LeafNodeNtNtB2I_6string6StringNtNtB2E_7set_val9SetValZSTEEEE9index_mutCs9PzovR4aYST_14thiserror_impl, symObjAddr: 0x2B2C, symBinAddr: 0x421B8, symSize: 0xC0 }
  - { offset: 0xE1E0C, size: 0x8, addend: 0x0, symName: __RNvXs2_NtNtCsaNl6UpbT7bw_4core5slice5indexINtNtNtB9_3ops5range5RangejEINtB5_10SliceIndexSINtNtNtB9_3mem12maybe_uninit11MaybeUninitINtNtNtB9_3ptr8non_null7NonNullINtNtNtNtCsiTraAjBDcu4_5alloc11collections5btree4node8LeafNodeNtNtB2I_6string6StringTINtNtB2E_3set8BTreeSetB3z_EINtNtCsc29TF2YcYso_3syn10punctuated10PunctuatedNtCshnvkK9b4wzu_11proc_macro211TokenStreamNtNtB4s_5token4PlusEEEEEE9index_mutCs9PzovR4aYST_14thiserror_impl, symObjAddr: 0x2BEC, symBinAddr: 0x42278, symSize: 0xC0 }
  - { offset: 0xE1EBD, size: 0x8, addend: 0x0, symName: __RNvXs2_NtNtCsaNl6UpbT7bw_4core5slice5indexINtNtNtB9_3ops5range5RangejEINtB5_10SliceIndexSINtNtNtB9_3mem12maybe_uninit11MaybeUninitINtNtNtB9_3ptr8non_null7NonNullINtNtNtNtCsiTraAjBDcu4_5alloc11collections5btree4node8LeafNodeTjNtNtCs9PzovR4aYST_14thiserror_impl4attr5TraitENtNtB2E_7set_val9SetValZSTEEEE9index_mutB3F_, symObjAddr: 0x2CAC, symBinAddr: 0x42338, symSize: 0xC0 }
  - { offset: 0xE1F6E, size: 0x8, addend: 0x0, symName: __RNvXs2_NtNtCsaNl6UpbT7bw_4core5slice5indexINtNtNtB9_3ops5range5RangejEINtB5_10SliceIndexSINtNtNtB9_3mem12maybe_uninit11MaybeUninitNtCshnvkK9b4wzu_11proc_macro25IdentEE9index_mutCs9PzovR4aYST_14thiserror_impl, symObjAddr: 0x2D6C, symBinAddr: 0x423F8, symSize: 0xC8 }
  - { offset: 0xE201F, size: 0x8, addend: 0x0, symName: __RNvXs2_NtNtCsaNl6UpbT7bw_4core5slice5indexINtNtNtB9_3ops5range5RangejEINtB5_10SliceIndexSINtNtNtB9_3mem12maybe_uninit11MaybeUninitNtNtCsiTraAjBDcu4_5alloc6string6StringEE9index_mutCs9PzovR4aYST_14thiserror_impl, symObjAddr: 0x2E34, symBinAddr: 0x424C0, symSize: 0xC8 }
  - { offset: 0xE20D0, size: 0x8, addend: 0x0, symName: __RNvXs2_NtNtCsaNl6UpbT7bw_4core5slice5indexINtNtNtB9_3ops5range5RangejEINtB5_10SliceIndexSINtNtNtB9_3mem12maybe_uninit11MaybeUninitNtNtNtNtCsiTraAjBDcu4_5alloc11collections5btree7set_val9SetValZSTEE9index_mutCs9PzovR4aYST_14thiserror_impl, symObjAddr: 0x2EFC, symBinAddr: 0x42588, symSize: 0xBC }
  - { offset: 0xE2153, size: 0x8, addend: 0x0, symName: __RNvXs2_NtNtCsaNl6UpbT7bw_4core5slice5indexINtNtNtB9_3ops5range5RangejEINtB5_10SliceIndexSINtNtNtB9_3mem12maybe_uninit11MaybeUninitTINtNtNtNtCsiTraAjBDcu4_5alloc11collections5btree3set8BTreeSetNtNtB2e_6string6StringEINtNtCsc29TF2YcYso_3syn10punctuated10PunctuatedNtCshnvkK9b4wzu_11proc_macro211TokenStreamNtNtB3w_5token4PlusEEEE9index_mutCs9PzovR4aYST_14thiserror_impl, symObjAddr: 0x2FB8, symBinAddr: 0x42644, symSize: 0xC8 }
  - { offset: 0xE2204, size: 0x8, addend: 0x0, symName: __RNvXs2_NtNtCsaNl6UpbT7bw_4core5slice5indexINtNtNtB9_3ops5range5RangejEINtB5_10SliceIndexSINtNtNtB9_3mem12maybe_uninit11MaybeUninitTjNtNtCs9PzovR4aYST_14thiserror_impl4attr5TraitEEE9index_mutB2a_, symObjAddr: 0x3080, symBinAddr: 0x4270C, symSize: 0xC0 }
  - { offset: 0xE22B5, size: 0x8, addend: 0x0, symName: __RNvXs2_NtNtCsaNl6UpbT7bw_4core5slice5indexINtNtNtB9_3ops5range5RangejEINtB5_10SliceIndexSRNtCshnvkK9b4wzu_11proc_macro25IdentE9index_mutCs9PzovR4aYST_14thiserror_impl, symObjAddr: 0x3140, symBinAddr: 0x427CC, symSize: 0xC0 }
  - { offset: 0xE25BB, size: 0x8, addend: 0x0, symName: __RNvXs5_NtNtCsaNl6UpbT7bw_4core5slice5indexINtNtNtB9_3ops5range9RangeFromjEINtB5_10SliceIndexSRNtCshnvkK9b4wzu_11proc_macro25IdentE9index_mutCs9PzovR4aYST_14thiserror_impl, symObjAddr: 0x32B8, symBinAddr: 0x42944, symSize: 0xA0 }
  - { offset: 0xE274C, size: 0x8, addend: 0x0, symName: __RNvXs7_NtNtCsaNl6UpbT7bw_4core3cmp5implsRNtNtCsc29TF2YcYso_3syn4expr6MemberNtB7_9PartialEq2eqCs9PzovR4aYST_14thiserror_impl, symObjAddr: 0x3358, symBinAddr: 0x429E4, symSize: 0x34 }
  - { offset: 0xE282C, size: 0x8, addend: 0x0, symName: __RNvXNtCsaNl6UpbT7bw_4core6borrowRNtNtCsc29TF2YcYso_3syn4expr6MemberINtB2_6BorrowBu_E6borrowCs9PzovR4aYST_14thiserror_impl, symObjAddr: 0x26F0, symBinAddr: 0x41D7C, symSize: 0x14 }
  - { offset: 0xE2867, size: 0x8, addend: 0x0, symName: __RNvXs0_NtCsaNl6UpbT7bw_4core6borrowRNtNtCsc29TF2YcYso_3syn4expr6MemberINtB5_6BorrowBy_E6borrowCs9PzovR4aYST_14thiserror_impl, symObjAddr: 0x2A54, symBinAddr: 0x420E0, symSize: 0x18 }
  - { offset: 0xE4F89, size: 0x8, addend: 0x0, symName: __RINvXs4_NtCsc29TF2YcYso_3syn4exprNtB6_6MemberNtNtCsaNl6UpbT7bw_4core4hash4Hash4hashNtNtNtCsht3nMU9UgFu_3std4hash6random13DefaultHasherECs9PzovR4aYST_14thiserror_impl, symObjAddr: 0x658, symBinAddr: 0x3FCE8, symSize: 0x98 }
  - { offset: 0xE5005, size: 0x8, addend: 0x0, symName: __RINvXsa_NtCsc29TF2YcYso_3syn4exprNtB6_5IndexNtNtCsaNl6UpbT7bw_4core4hash4Hash4hashNtNtNtCsht3nMU9UgFu_3std4hash6random13DefaultHasherECs9PzovR4aYST_14thiserror_impl, symObjAddr: 0x728, symBinAddr: 0x3FDB8, symSize: 0x3C }
  - { offset: 0xE5052, size: 0x8, addend: 0x0, symName: __RNcNtNtNtCsc29TF2YcYso_3syn4expr6Member5Named0Cs9PzovR4aYST_14thiserror_impl, symObjAddr: 0x11F0, symBinAddr: 0x40880, symSize: 0x18 }
  - { offset: 0xE7677, size: 0x8, addend: 0x0, symName: __RNvXNtCsc29TF2YcYso_3syn11parse_quoteNtNtB4_8generics14WherePredicateNtB2_10ParseQuote5parseCs9PzovR4aYST_14thiserror_impl, symObjAddr: 0x2704, symBinAddr: 0x41D90, symSize: 0x34 }
  - { offset: 0xE893E, size: 0x8, addend: 0x0, symName: __RNCNvMs6_NtNtNtNtCsiTraAjBDcu4_5alloc11collections5btree3map5entryINtB7_11VacantEntryNtCshnvkK9b4wzu_11proc_macro25IdentNtNtBb_7set_val9SetValZSTE12insert_entry0Cs9PzovR4aYST_14thiserror_impl, symObjAddr: 0xC70, symBinAddr: 0x40300, symSize: 0x158 }
  - { offset: 0xE8A98, size: 0x8, addend: 0x0, symName: __RNCNvMs6_NtNtNtNtCsiTraAjBDcu4_5alloc11collections5btree3map5entryINtB7_11VacantEntryNtNtBf_6string6StringNtNtBb_7set_val9SetValZSTE12insert_entry0Cs9PzovR4aYST_14thiserror_impl, symObjAddr: 0xDC8, symBinAddr: 0x40458, symSize: 0x154 }
  - { offset: 0xE8BF2, size: 0x8, addend: 0x0, symName: __RNCNvMs6_NtNtNtNtCsiTraAjBDcu4_5alloc11collections5btree3map5entryINtB7_11VacantEntryNtNtBf_6string6StringTINtNtBb_3set8BTreeSetB1l_EINtNtCsc29TF2YcYso_3syn10punctuated10PunctuatedNtCshnvkK9b4wzu_11proc_macro211TokenStreamNtNtB2c_5token4PlusEEE12insert_entry0Cs9PzovR4aYST_14thiserror_impl, symObjAddr: 0xF1C, symBinAddr: 0x405AC, symSize: 0x198 }
  - { offset: 0xE8D4D, size: 0x8, addend: 0x0, symName: __RNCNvMs6_NtNtNtNtCsiTraAjBDcu4_5alloc11collections5btree3map5entryINtB7_11VacantEntryTjNtNtCs9PzovR4aYST_14thiserror_impl4attr5TraitENtNtBb_7set_val9SetValZSTE12insert_entry0B1r_, symObjAddr: 0x10B4, symBinAddr: 0x40744, symSize: 0x13C }
  - { offset: 0xEBA43, size: 0x8, addend: 0x0, symName: __RNvMs5_NtNtNtNtCsiTraAjBDcu4_5alloc11collections5btree3map5entryINtB5_5EntryNtNtBd_6string6StringTINtNtB9_3set8BTreeSetB1c_EINtNtCsc29TF2YcYso_3syn10punctuated10PunctuatedNtCshnvkK9b4wzu_11proc_macro211TokenStreamNtNtB23_5token4PlusEEE10or_defaultCs9PzovR4aYST_14thiserror_impl, symObjAddr: 0x1208, symBinAddr: 0x40898, symSize: 0x110 }
  - { offset: 0xEBC8F, size: 0x8, addend: 0x0, symName: __RNvMs6_NtNtNtNtCsiTraAjBDcu4_5alloc11collections5btree3map5entryINtB5_11VacantEntryNtCshnvkK9b4wzu_11proc_macro25IdentNtNtB9_7set_val9SetValZSTE12insert_entryCs9PzovR4aYST_14thiserror_impl, symObjAddr: 0x1318, symBinAddr: 0x409A8, symSize: 0x2A0 }
  - { offset: 0xEC064, size: 0x8, addend: 0x0, symName: __RNvMs6_NtNtNtNtCsiTraAjBDcu4_5alloc11collections5btree3map5entryINtB5_11VacantEntryNtNtBd_6string6StringNtNtB9_7set_val9SetValZSTE12insert_entryCs9PzovR4aYST_14thiserror_impl, symObjAddr: 0x15B8, symBinAddr: 0x40C48, symSize: 0x29C }
  - { offset: 0xEC42C, size: 0x8, addend: 0x0, symName: __RNvMs6_NtNtNtNtCsiTraAjBDcu4_5alloc11collections5btree3map5entryINtB5_11VacantEntryNtNtBd_6string6StringTINtNtB9_3set8BTreeSetB1j_EINtNtCsc29TF2YcYso_3syn10punctuated10PunctuatedNtCshnvkK9b4wzu_11proc_macro211TokenStreamNtNtB2a_5token4PlusEEE12insert_entryCs9PzovR4aYST_14thiserror_impl, symObjAddr: 0x1854, symBinAddr: 0x40EE4, symSize: 0x308 }
  - { offset: 0xEC802, size: 0x8, addend: 0x0, symName: __RNvMs6_NtNtNtNtCsiTraAjBDcu4_5alloc11collections5btree3map5entryINtB5_11VacantEntryTjNtNtCs9PzovR4aYST_14thiserror_impl4attr5TraitENtNtB9_7set_val9SetValZSTE12insert_entryB1p_, symObjAddr: 0x1B5C, symBinAddr: 0x411EC, symSize: 0x280 }
  - { offset: 0xECA8D, size: 0x8, addend: 0x0, symName: __RNvMs7_NtNtNtNtCsiTraAjBDcu4_5alloc11collections5btree3map5entryINtB5_13OccupiedEntryNtCshnvkK9b4wzu_11proc_macro25IdentNtNtB9_7set_val9SetValZSTE6insertCs9PzovR4aYST_14thiserror_impl, symObjAddr: 0x1DDC, symBinAddr: 0x4146C, symSize: 0x4C }
  - { offset: 0xECAF0, size: 0x8, addend: 0x0, symName: __RNvMs7_NtNtNtNtCsiTraAjBDcu4_5alloc11collections5btree3map5entryINtB5_13OccupiedEntryNtCshnvkK9b4wzu_11proc_macro25IdentNtNtB9_7set_val9SetValZSTE8into_mutCs9PzovR4aYST_14thiserror_impl, symObjAddr: 0x1E28, symBinAddr: 0x414B8, symSize: 0x58 }
  - { offset: 0xECB6A, size: 0x8, addend: 0x0, symName: __RNvMs7_NtNtNtNtCsiTraAjBDcu4_5alloc11collections5btree3map5entryINtB5_13OccupiedEntryNtNtBd_6string6StringNtNtB9_7set_val9SetValZSTE6insertCs9PzovR4aYST_14thiserror_impl, symObjAddr: 0x1E80, symBinAddr: 0x41510, symSize: 0x4C }
  - { offset: 0xECBCD, size: 0x8, addend: 0x0, symName: __RNvMs7_NtNtNtNtCsiTraAjBDcu4_5alloc11collections5btree3map5entryINtB5_13OccupiedEntryNtNtBd_6string6StringNtNtB9_7set_val9SetValZSTE8into_mutCs9PzovR4aYST_14thiserror_impl, symObjAddr: 0x1ECC, symBinAddr: 0x4155C, symSize: 0x58 }
  - { offset: 0xECC0C, size: 0x8, addend: 0x0, symName: __RNvMs7_NtNtNtNtCsiTraAjBDcu4_5alloc11collections5btree3map5entryINtB5_13OccupiedEntryNtNtBd_6string6StringTINtNtB9_3set8BTreeSetB1l_EINtNtCsc29TF2YcYso_3syn10punctuated10PunctuatedNtCshnvkK9b4wzu_11proc_macro211TokenStreamNtNtB2c_5token4PlusEEE8into_mutCs9PzovR4aYST_14thiserror_impl, symObjAddr: 0x1F24, symBinAddr: 0x415B4, symSize: 0x58 }
  - { offset: 0xECC86, size: 0x8, addend: 0x0, symName: __RNvMs7_NtNtNtNtCsiTraAjBDcu4_5alloc11collections5btree3map5entryINtB5_13OccupiedEntryTjNtNtCs9PzovR4aYST_14thiserror_impl4attr5TraitENtNtB9_7set_val9SetValZSTE6insertB1r_, symObjAddr: 0x1F7C, symBinAddr: 0x4160C, symSize: 0x4C }
  - { offset: 0xECCE9, size: 0x8, addend: 0x0, symName: __RNvMs7_NtNtNtNtCsiTraAjBDcu4_5alloc11collections5btree3map5entryINtB5_13OccupiedEntryTjNtNtCs9PzovR4aYST_14thiserror_impl4attr5TraitENtNtB9_7set_val9SetValZSTE8into_mutB1r_, symObjAddr: 0x1FC8, symBinAddr: 0x41658, symSize: 0x58 }
  - { offset: 0xECDCC, size: 0x8, addend: 0x0, symName: __RNvXCsg4dki62PTrg_9hashbrownNtNtCsc29TF2YcYso_3syn4expr6MemberINtB2_10EquivalentRBq_E10equivalentCs9PzovR4aYST_14thiserror_impl, symObjAddr: 0x24E0, symBinAddr: 0x41B6C, symSize: 0x50 }
  - { offset: 0xECE3D, size: 0x8, addend: 0x0, symName: __RNvXCsg4dki62PTrg_9hashbrownRNtNtCsc29TF2YcYso_3syn4expr6MemberINtB2_10EquivalentBq_E10equivalentCs9PzovR4aYST_14thiserror_impl, symObjAddr: 0x2530, symBinAddr: 0x41BBC, symSize: 0x50 }
  - { offset: 0xECECC, size: 0x8, addend: 0x0, symName: __RNvXNtCs4EAaWzSXu1l_5quote14ident_fragmentRNtNtCsc29TF2YcYso_3syn4expr5IndexNtB2_13IdentFragment3fmtCs9PzovR4aYST_14thiserror_impl, symObjAddr: 0x2580, symBinAddr: 0x41C0C, symSize: 0x40 }
  - { offset: 0xECF0F, size: 0x8, addend: 0x0, symName: __RNvXNtCs4EAaWzSXu1l_5quote14ident_fragmentRNtNtCsc29TF2YcYso_3syn4expr5IndexNtB2_13IdentFragment4spanCs9PzovR4aYST_14thiserror_impl, symObjAddr: 0x25C0, symBinAddr: 0x41C4C, symSize: 0x38 }
  - { offset: 0xECF44, size: 0x8, addend: 0x0, symName: __RNvXNtCs4EAaWzSXu1l_5quote14ident_fragmentRRNtNtCsc29TF2YcYso_3syn4expr5IndexNtB2_13IdentFragment3fmtCs9PzovR4aYST_14thiserror_impl, symObjAddr: 0x25F8, symBinAddr: 0x41C84, symSize: 0x40 }
  - { offset: 0xECF87, size: 0x8, addend: 0x0, symName: __RNvXNtCs4EAaWzSXu1l_5quote14ident_fragmentRRNtNtCsc29TF2YcYso_3syn4expr5IndexNtB2_13IdentFragment4spanCs9PzovR4aYST_14thiserror_impl, symObjAddr: 0x2638, symBinAddr: 0x41CC4, symSize: 0x38 }
  - { offset: 0xECFC8, size: 0x8, addend: 0x0, symName: __RNvXNtCs4EAaWzSXu1l_5quote9to_tokensRNtNtCsc29TF2YcYso_3syn4expr6MemberNtB2_8ToTokens9to_tokensCs9PzovR4aYST_14thiserror_impl, symObjAddr: 0x2670, symBinAddr: 0x41CFC, symSize: 0x40 }
  - { offset: 0xED007, size: 0x8, addend: 0x0, symName: __RNvXNtCs4EAaWzSXu1l_5quote9to_tokensRNtNtCsc29TF2YcYso_3syn8generics11WhereClauseNtB2_8ToTokens9to_tokensCs9PzovR4aYST_14thiserror_impl, symObjAddr: 0x26B0, symBinAddr: 0x41D3C, symSize: 0x40 }
  - { offset: 0xED6D3, size: 0x8, addend: 0x0, symName: __RINvMs3_NtNtCs7yrEGia95Wz_10proc_macro6bridge6bufferNtB6_6Buffer17extend_from_arrayKj4_ECs9PzovR4aYST_14thiserror_impl, symObjAddr: 0x0, symBinAddr: 0x42D54, symSize: 0x16C }
  - { offset: 0xEEBFF, size: 0x8, addend: 0x0, symName: __RINvXs2V_NtNtCsaNl6UpbT7bw_4core5slice4iterINtB7_4IterNtNtCs9PzovR4aYST_14thiserror_impl3ast5FieldENtNtNtNtBb_4iter6traits8iterator8Iterator8find_mapRNtNtCsc29TF2YcYso_3syn4attr9AttributeNCNvMs1_NtBU_5validNtBS_7Variant8validate0EBU_, symObjAddr: 0x334, symBinAddr: 0x43088, symSize: 0xC0 }
  - { offset: 0xEEC83, size: 0x8, addend: 0x0, symName: __RINvXs2V_NtNtCsaNl6UpbT7bw_4core5slice4iterINtB7_4IterNtNtCs9PzovR4aYST_14thiserror_impl3ast5FieldENtNtNtNtBb_4iter6traits8iterator8Iterator8find_mapRNtNtCsc29TF2YcYso_3syn4attr9AttributeNCNvMs_NtBU_5validNtBS_6Struct8validate0EBU_, symObjAddr: 0x3F4, symBinAddr: 0x43148, symSize: 0xC0 }
  - { offset: 0xEED07, size: 0x8, addend: 0x0, symName: __RINvXs2V_NtNtCsaNl6UpbT7bw_4core5slice4iterINtB7_4IterNtNtCs9PzovR4aYST_14thiserror_impl3ast7VariantENtNtNtNtBb_4iter6traits8iterator8Iterator3allNCNvMs_NtBU_4propNtBS_4Enum11has_displays_0EBU_, symObjAddr: 0x4B4, symBinAddr: 0x43208, symSize: 0xAC }
  - { offset: 0xEED6C, size: 0x8, addend: 0x0, symName: __RINvXs2V_NtNtCsaNl6UpbT7bw_4core5slice4iterINtB7_4IterNtNtCs9PzovR4aYST_14thiserror_impl3ast7VariantENtNtNtNtBb_4iter6traits8iterator8Iterator3anyNCNvMs_NtBU_4propNtBS_4Enum10has_source0EBU_, symObjAddr: 0x560, symBinAddr: 0x432B4, symSize: 0xAC }
  - { offset: 0xEEDD1, size: 0x8, addend: 0x0, symName: __RINvXs2V_NtNtCsaNl6UpbT7bw_4core5slice4iterINtB7_4IterNtNtCs9PzovR4aYST_14thiserror_impl3ast7VariantENtNtNtNtBb_4iter6traits8iterator8Iterator3anyNCNvMs_NtBU_4propNtBS_4Enum11has_display0EBU_, symObjAddr: 0x60C, symBinAddr: 0x43360, symSize: 0xAC }
  - { offset: 0xEEE36, size: 0x8, addend: 0x0, symName: __RINvXs2V_NtNtCsaNl6UpbT7bw_4core5slice4iterINtB7_4IterNtNtCs9PzovR4aYST_14thiserror_impl3ast7VariantENtNtNtNtBb_4iter6traits8iterator8Iterator3anyNCNvMs_NtBU_4propNtBS_4Enum13has_backtrace0EBU_, symObjAddr: 0x6B8, symBinAddr: 0x4340C, symSize: 0xAC }
  - { offset: 0xEEE9B, size: 0x8, addend: 0x0, symName: __RINvXs2V_NtNtCsaNl6UpbT7bw_4core5slice4iterINtB7_4IterNtNtCs9PzovR4aYST_14thiserror_impl3ast7VariantENtNtNtNtBb_4iter6traits8iterator8Iterator3anyNCNvNtBU_6expand9impl_enums0_0EBU_, symObjAddr: 0x764, symBinAddr: 0x434B8, symSize: 0xAC }
  - { offset: 0xEEF00, size: 0x8, addend: 0x0, symName: __RINvXs2V_NtNtCsaNl6UpbT7bw_4core5slice4iterINtB7_4IterNtNtCs9PzovR4aYST_14thiserror_impl3ast7VariantENtNtNtNtBb_4iter6traits8iterator8Iterator4folduNCINvNtNtB1H_8adapters3map8map_foldRBQ_NtCshnvkK9b4wzu_11proc_macro211TokenStreamuNCNvNtBU_6expand9impl_enums1_0NCINvNvB1B_8for_each4callB2Z_NCINvMsi_NtCsiTraAjBDcu4_5alloc3vecINtB4M_3VecB2Z_E14extend_trustedINtB2r_3MapBF_B3G_EE0E0E0EBU_, symObjAddr: 0x810, symBinAddr: 0x43564, symSize: 0x1C0 }
  - { offset: 0xEF055, size: 0x8, addend: 0x0, symName: __RINvXs2V_NtNtCsaNl6UpbT7bw_4core5slice4iterINtB7_4IterNtNtCs9PzovR4aYST_14thiserror_impl3ast7VariantENtNtNtNtBb_4iter6traits8iterator8Iterator8find_mapNtCshnvkK9b4wzu_11proc_macro211TokenStreamQNCNvNtBU_6expand9impl_enums2_0EBU_, symObjAddr: 0x9D0, symBinAddr: 0x43724, symSize: 0xE8 }
  - { offset: 0xEF0D9, size: 0x8, addend: 0x0, symName: __RNvXs2V_NtNtCsaNl6UpbT7bw_4core5slice4iterINtB6_4IterNtCshnvkK9b4wzu_11proc_macro211TokenStreamENtNtNtNtBa_4iter6traits8iterator8Iterator4nextCs9PzovR4aYST_14thiserror_impl, symObjAddr: 0x143C, symBinAddr: 0x44190, symSize: 0xB0 }
  - { offset: 0xEF213, size: 0x8, addend: 0x0, symName: __RNvXs2V_NtNtCsaNl6UpbT7bw_4core5slice4iterINtB6_4IterNtCshnvkK9b4wzu_11proc_macro25IdentENtNtNtNtBa_4iter6traits8iterator8Iterator4nextCs9PzovR4aYST_14thiserror_impl, symObjAddr: 0x14EC, symBinAddr: 0x44240, symSize: 0xB0 }
  - { offset: 0xEF34D, size: 0x8, addend: 0x0, symName: __RNvXs2V_NtNtCsaNl6UpbT7bw_4core5slice4iterINtB6_4IterNtNtCs9PzovR4aYST_14thiserror_impl3ast5FieldENtNtNtNtBa_4iter6traits8iterator8Iterator4nextBT_, symObjAddr: 0x159C, symBinAddr: 0x442F0, symSize: 0xB0 }
  - { offset: 0xEF487, size: 0x8, addend: 0x0, symName: __RNvXs2V_NtNtCsaNl6UpbT7bw_4core5slice4iterINtB6_4IterNtNtCs9PzovR4aYST_14thiserror_impl3ast7VariantENtNtNtNtBa_4iter6traits8iterator8Iterator4nextBT_, symObjAddr: 0x164C, symBinAddr: 0x443A0, symSize: 0xB0 }
  - { offset: 0xEF5C1, size: 0x8, addend: 0x0, symName: __RNvXs2V_NtNtCsaNl6UpbT7bw_4core5slice4iterINtB6_4IterNtNtCs9PzovR4aYST_14thiserror_impl3ast7VariantENtNtNtNtBa_4iter6traits8iterator8Iterator9size_hintBT_, symObjAddr: 0x16FC, symBinAddr: 0x44450, symSize: 0x70 }
  - { offset: 0xEF630, size: 0x8, addend: 0x0, symName: __RNvXs2V_NtNtCsaNl6UpbT7bw_4core5slice4iterINtB6_4IterNtNtCsiTraAjBDcu4_5alloc6string6StringENtNtNtNtBa_4iter6traits8iterator8Iterator4nextCs9PzovR4aYST_14thiserror_impl, symObjAddr: 0x176C, symBinAddr: 0x444C0, symSize: 0xB0 }
  - { offset: 0xEF76A, size: 0x8, addend: 0x0, symName: __RNvXs2V_NtNtCsaNl6UpbT7bw_4core5slice4iterINtB6_4IterRNtCshnvkK9b4wzu_11proc_macro25IdentENtNtNtNtBa_4iter6traits8iterator8Iterator4nextCs9PzovR4aYST_14thiserror_impl, symObjAddr: 0x181C, symBinAddr: 0x44570, symSize: 0xB0 }
  - { offset: 0xEF8A4, size: 0x8, addend: 0x0, symName: __RNvXs2V_NtNtCsaNl6UpbT7bw_4core5slice4iterINtB6_4IterTNtCshnvkK9b4wzu_11proc_macro211TokenStreamNtNtCsc29TF2YcYso_3syn5token4PlusEENtNtNtNtBa_4iter6traits8iterator8Iterator4nextCs9PzovR4aYST_14thiserror_impl, symObjAddr: 0x18CC, symBinAddr: 0x44620, symSize: 0xB0 }
  - { offset: 0xEF9DE, size: 0x8, addend: 0x0, symName: __RNvXs2V_NtNtCsaNl6UpbT7bw_4core5slice4iterINtB6_4IterTNtNtCs9PzovR4aYST_14thiserror_impl9scan_expr5InputNtBS_6ActionEENtNtNtNtBa_4iter6traits8iterator8Iterator4nextBU_, symObjAddr: 0x197C, symBinAddr: 0x446D0, symSize: 0xB0 }
  - { offset: 0xEFB18, size: 0x8, addend: 0x0, symName: __RNvXs2V_NtNtCsaNl6UpbT7bw_4core5slice4iterINtB6_4IterTjNtNtCs9PzovR4aYST_14thiserror_impl4attr5TraitEENtNtNtNtBa_4iter6traits8iterator8Iterator4nextBV_, symObjAddr: 0x1A2C, symBinAddr: 0x44780, symSize: 0xB0 }
  - { offset: 0xEFE1F, size: 0x8, addend: 0x0, symName: __RNvXs2W_NtNtCsaNl6UpbT7bw_4core5slice4iterINtB6_4IterTNtNtCsc29TF2YcYso_3syn4data7VariantNtNtBU_5token5CommaEENtNtNtNtBa_4iter6traits12double_ended19DoubleEndedIterator9next_backCs9PzovR4aYST_14thiserror_impl, symObjAddr: 0x1ADC, symBinAddr: 0x44830, symSize: 0x108 }
  - { offset: 0xEFF7B, size: 0x8, addend: 0x0, symName: __RNvXs2W_NtNtCsaNl6UpbT7bw_4core5slice4iterINtB6_4IterTNtNtCsc29TF2YcYso_3syn4path15GenericArgumentNtNtBU_5token5CommaEENtNtNtNtBa_4iter6traits12double_ended19DoubleEndedIterator9next_backCs9PzovR4aYST_14thiserror_impl, symObjAddr: 0x1BE4, symBinAddr: 0x44938, symSize: 0x108 }
  - { offset: 0xF0154, size: 0x8, addend: 0x0, symName: __RNvXs5_NtNtCsaNl6UpbT7bw_4core5slice4iterINtB5_4IterTNtNtCsc29TF2YcYso_3syn4data7VariantNtNtBT_5token5CommaEENtNtB9_5clone5Clone5cloneCs9PzovR4aYST_14thiserror_impl, symObjAddr: 0x1D78, symBinAddr: 0x44ACC, symSize: 0x20 }
  - { offset: 0xF0189, size: 0x8, addend: 0x0, symName: __RNvXs5_NtNtCsaNl6UpbT7bw_4core5slice4iterINtB5_4IterTNtNtCsc29TF2YcYso_3syn4path15GenericArgumentNtNtBT_5token5CommaEENtNtB9_5clone5Clone5cloneCs9PzovR4aYST_14thiserror_impl, symObjAddr: 0x1D98, symBinAddr: 0x44AEC, symSize: 0x20 }
  - { offset: 0xF2FE3, size: 0x8, addend: 0x0, symName: __RINvYINtNtNtCsaNl6UpbT7bw_4core5slice4iter4IterNtNtCs9PzovR4aYST_14thiserror_impl3ast5FieldENtNtNtNtBa_4iter6traits8iterator8Iterator3mapRNtNtCsc29TF2YcYso_3syn4expr6MemberNCNvNtBN_6expand10fields_pat0EBN_, symObjAddr: 0xAB8, symBinAddr: 0x4380C, symSize: 0x1C }
  - { offset: 0xF303B, size: 0x8, addend: 0x0, symName: __RINvYINtNtNtCsaNl6UpbT7bw_4core5slice4iter4IterNtNtCs9PzovR4aYST_14thiserror_impl3ast7VariantENtNtNtNtBa_4iter6traits8iterator8Iterator10filter_mapNtCshnvkK9b4wzu_11proc_macro211TokenStreamNCNvNtBN_6expand9impl_enums2_0EBN_, symObjAddr: 0xAD4, symBinAddr: 0x43828, symSize: 0x34 }
  - { offset: 0xF30A8, size: 0x8, addend: 0x0, symName: __RINvYINtNtNtCsaNl6UpbT7bw_4core5slice4iter4IterNtNtCs9PzovR4aYST_14thiserror_impl3ast7VariantENtNtNtNtBa_4iter6traits8iterator8Iterator3mapNtCshnvkK9b4wzu_11proc_macro211TokenStreamNCNvNtBN_6expand9impl_enum0EBN_, symObjAddr: 0xB08, symBinAddr: 0x4385C, symSize: 0x3C }
  - { offset: 0xF3115, size: 0x8, addend: 0x0, symName: __RINvYINtNtNtCsaNl6UpbT7bw_4core5slice4iter4IterNtNtCs9PzovR4aYST_14thiserror_impl3ast7VariantENtNtNtNtBa_4iter6traits8iterator8Iterator3mapNtCshnvkK9b4wzu_11proc_macro211TokenStreamNCNvNtBN_6expand9impl_enums1_0EBN_, symObjAddr: 0xB44, symBinAddr: 0x43898, symSize: 0x3C }
  - { offset: 0xF3182, size: 0x8, addend: 0x0, symName: __RINvYINtNtNtCsaNl6UpbT7bw_4core5slice4iter4IterNtNtCs9PzovR4aYST_14thiserror_impl3ast7VariantENtNtNtNtBa_4iter6traits8iterator8Iterator3mapNtCshnvkK9b4wzu_11proc_macro211TokenStreamNCNvNtBN_6expand9impl_enums_0EBN_, symObjAddr: 0xB80, symBinAddr: 0x438D4, symSize: 0x3C }
  - { offset: 0xF31EF, size: 0x8, addend: 0x0, symName: __RNvYINtNtNtCsaNl6UpbT7bw_4core5slice4iter4IterNtNtCs9PzovR4aYST_14thiserror_impl3ast5FieldENtNtNtNtB9_4iter6traits8iterator8Iterator9enumerateBM_, symObjAddr: 0x1DB8, symBinAddr: 0x44B0C, symSize: 0x28 }
  - { offset: 0xF34E0, size: 0x8, addend: 0x0, symName: __RNvNtNtCsaNl6UpbT7bw_4core4char7methods25encode_utf8_raw_uncheckedCs9PzovR4aYST_14thiserror_impl, symObjAddr: 0x1180, symBinAddr: 0x43ED4, symSize: 0x14C }
  - { offset: 0xF365D, size: 0x8, addend: 0x0, symName: __RNvNvNtCsaNl6UpbT7bw_4core9ub_checks23maybe_is_nonoverlapping7runtimeCs9PzovR4aYST_14thiserror_impl, symObjAddr: 0x12CC, symBinAddr: 0x44020, symSize: 0xD8 }
  - { offset: 0xF3ABF, size: 0x8, addend: 0x0, symName: __RNvXs5_NtNtCs7yrEGia95Wz_10proc_macro6bridge6bufferNtB5_6BufferNtNtNtCsaNl6UpbT7bw_4core3ops4drop4Drop4dropCs9PzovR4aYST_14thiserror_impl, symObjAddr: 0x1CEC, symBinAddr: 0x44A40, symSize: 0x8C }
  - { offset: 0xF3B92, size: 0x8, addend: 0x0, symName: __RINvNvNtNtCs7yrEGia95Wz_10proc_macro6bridge14selfless_reify31reify_to_extern_c_fn_hrt_bridge7wrapperNtNtB6_6buffer6BufferNCINvMs6_NtB6_6clientINtB24_6ClientNtB8_11TokenStreamB2u_E7expand1NvCs9PzovR4aYST_14thiserror_impl12derive_errorE0EB31_, symObjAddr: 0x2D8, symBinAddr: 0x4302C, symSize: 0x5C }
  - { offset: 0xF4929, size: 0x8, addend: 0x0, symName: __RNCNvMNtCs9PzovR4aYST_14thiserror_impl8genericsNtB4_13ParamsInScope3new0B6_, symObjAddr: 0x1E38, symBinAddr: 0x44B8C, symSize: 0x28 }
  - { offset: 0xF4968, size: 0x8, addend: 0x0, symName: __RNvNtCs9PzovR4aYST_14thiserror_impl8generics5crawl, symObjAddr: 0x1EAC, symBinAddr: 0x44C00, symSize: 0x314 }
  - { offset: 0xF4D8B, size: 0x8, addend: 0x0, symName: __RINvMs3_NtNtCs7yrEGia95Wz_10proc_macro6bridge6bufferNtB6_6Buffer17extend_from_arrayKj4_ECs9PzovR4aYST_14thiserror_impl, symObjAddr: 0x0, symBinAddr: 0x42D54, symSize: 0x16C }
  - { offset: 0xF4F13, size: 0x8, addend: 0x0, symName: __RINvMs3_NtNtCs7yrEGia95Wz_10proc_macro6bridge6bufferNtB6_6Buffer17extend_from_arrayKj8_ECs9PzovR4aYST_14thiserror_impl, symObjAddr: 0x16C, symBinAddr: 0x42EC0, symSize: 0x16C }
  - { offset: 0xFBD06, size: 0x8, addend: 0x0, symName: __RNvXs1_NtCsg4dki62PTrg_9hashbrown10scopeguardINtB5_10ScopeGuardNtNtB7_3raw13RawTableInnerNCINvMsa_B11_BZ_14prepare_resizeNtNtCsiTraAjBDcu4_5alloc5alloc6GlobalE0ENtNtNtCsaNl6UpbT7bw_4core3ops4drop4Drop4dropCs9PzovR4aYST_14thiserror_impl, symObjAddr: 0x13E4, symBinAddr: 0x44138, symSize: 0x2C }
  - { offset: 0xFBD40, size: 0x8, addend: 0x0, symName: __RNvXs1_NtCsg4dki62PTrg_9hashbrown10scopeguardINtB5_10ScopeGuardQNtNtB7_3raw13RawTableInnerNCNvMsa_B12_B10_15rehash_in_place0ENtNtNtCsaNl6UpbT7bw_4core3ops4drop4Drop4dropCs9PzovR4aYST_14thiserror_impl, symObjAddr: 0x1410, symBinAddr: 0x44164, symSize: 0x2C }
  - { offset: 0xFBE91, size: 0x8, addend: 0x0, symName: __RNvMNtNtNtCsg4dki62PTrg_9hashbrown7control5group4neonNtB2_5Group10match_fullCs9PzovR4aYST_14thiserror_impl, symObjAddr: 0xBBC, symBinAddr: 0x43910, symSize: 0x68 }
  - { offset: 0xFBEC9, size: 0x8, addend: 0x0, symName: __RNvMNtNtNtCsg4dki62PTrg_9hashbrown7control5group4neonNtB2_5Group22match_empty_or_deletedCs9PzovR4aYST_14thiserror_impl, symObjAddr: 0xC24, symBinAddr: 0x43978, symSize: 0x68 }
  - { offset: 0xFBF01, size: 0x8, addend: 0x0, symName: __RNvMNtNtNtCsg4dki62PTrg_9hashbrown7control5group4neonNtB2_5Group44convert_special_to_empty_and_full_to_deletedCs9PzovR4aYST_14thiserror_impl, symObjAddr: 0xC8C, symBinAddr: 0x439E0, symSize: 0x88 }
  - { offset: 0xFBF39, size: 0x8, addend: 0x0, symName: __RNvMNtNtNtCsg4dki62PTrg_9hashbrown7control5group4neonNtB2_5Group9match_tagCs9PzovR4aYST_14thiserror_impl, symObjAddr: 0xD14, symBinAddr: 0x43A68, symSize: 0x7C }
  - { offset: 0xFBF99, size: 0x8, addend: 0x0, symName: __RNvMs3_NtNtCs7yrEGia95Wz_10proc_macro6bridge6bufferNtB5_6Buffer17extend_from_sliceCs9PzovR4aYST_14thiserror_impl, symObjAddr: 0xD90, symBinAddr: 0x43AE4, symSize: 0x164 }
  - { offset: 0xFC117, size: 0x8, addend: 0x0, symName: __RNvMs3_NtNtCs7yrEGia95Wz_10proc_macro6bridge6bufferNtB5_6Buffer4pushCs9PzovR4aYST_14thiserror_impl, symObjAddr: 0xEF4, symBinAddr: 0x43C48, symSize: 0x134 }
  - { offset: 0xFC29A, size: 0x8, addend: 0x0, symName: __RNvMs4_NtNtCsaNl6UpbT7bw_4core5slice4iterINtB5_4IterNtCshnvkK9b4wzu_11proc_macro211TokenStreamE3newCs9PzovR4aYST_14thiserror_impl, symObjAddr: 0x1028, symBinAddr: 0x43D7C, symSize: 0x50 }
  - { offset: 0xFC464, size: 0x8, addend: 0x0, symName: __RNvMs4_NtNtCsaNl6UpbT7bw_4core5slice4iterINtB5_4IterNtNtCs9PzovR4aYST_14thiserror_impl3ast5FieldE3newBS_, symObjAddr: 0x1078, symBinAddr: 0x43DCC, symSize: 0x58 }
  - { offset: 0xFC607, size: 0x8, addend: 0x0, symName: __RNvMs4_NtNtCsaNl6UpbT7bw_4core5slice4iterINtB5_4IterNtNtCs9PzovR4aYST_14thiserror_impl3ast7VariantE3newBS_, symObjAddr: 0x10D0, symBinAddr: 0x43E24, symSize: 0x58 }
  - { offset: 0xFC7D1, size: 0x8, addend: 0x0, symName: __RNvMs4_NtNtCsaNl6UpbT7bw_4core5slice4iterINtB5_4IterTNtCshnvkK9b4wzu_11proc_macro211TokenStreamNtNtCsc29TF2YcYso_3syn5token4PlusEE3newCs9PzovR4aYST_14thiserror_impl, symObjAddr: 0x1128, symBinAddr: 0x43E7C, symSize: 0x58 }
  - { offset: 0xFC90C, size: 0x8, addend: 0x0, symName: __RNvXNtCs4EAaWzSXu1l_5quote14ident_fragmentRmNtB2_13IdentFragment3fmtCs9PzovR4aYST_14thiserror_impl, symObjAddr: 0x13A4, symBinAddr: 0x440F8, symSize: 0x40 }
  - { offset: 0xFD0C6, size: 0x8, addend: 0x0, symName: __RNvMNtCs9PzovR4aYST_14thiserror_impl8genericsNtB2_13ParamsInScope3new, symObjAddr: 0x1DE0, symBinAddr: 0x44B34, symSize: 0x58 }
  - { offset: 0xFD0F5, size: 0x8, addend: 0x0, symName: __RNvMNtCs9PzovR4aYST_14thiserror_impl8genericsNtB2_13ParamsInScope10intersects, symObjAddr: 0x1E60, symBinAddr: 0x44BB4, symSize: 0x4C }
  - { offset: 0xFD13A, size: 0x8, addend: 0x0, symName: __RNvMs_NtCs9PzovR4aYST_14thiserror_impl8genericsNtB4_14InferredBounds3new, symObjAddr: 0x21C0, symBinAddr: 0x44F14, symSize: 0x8C }
  - { offset: 0xFD14D, size: 0x8, addend: 0x0, symName: __RINvMs_NtCs9PzovR4aYST_14thiserror_impl8genericsNtB5_14InferredBounds6insertNtCshnvkK9b4wzu_11proc_macro211TokenStreamB1c_EB7_, symObjAddr: 0x224C, symBinAddr: 0x44FA0, symSize: 0x2D8 }
  - { offset: 0xFD205, size: 0x8, addend: 0x0, symName: __RINvMs_NtCs9PzovR4aYST_14thiserror_impl8genericsNtB5_14InferredBounds6insertNtNtCsc29TF2YcYso_3syn5token8SelfTypeNtNtB7_4attr5TraitEB7_, symObjAddr: 0x2524, symBinAddr: 0x45278, symSize: 0x2B4 }
  - { offset: 0xFD2BB, size: 0x8, addend: 0x0, symName: __RINvMs_NtCs9PzovR4aYST_14thiserror_impl8genericsNtB5_14InferredBounds6insertRNtNtCsc29TF2YcYso_3syn2ty4TypeNtCshnvkK9b4wzu_11proc_macro211TokenStreamEB7_, symObjAddr: 0x27D8, symBinAddr: 0x4552C, symSize: 0x2D4 }
  - { offset: 0xFD373, size: 0x8, addend: 0x0, symName: __RINvMs_NtCs9PzovR4aYST_14thiserror_impl8genericsNtB5_14InferredBounds6insertRNtNtCsc29TF2YcYso_3syn2ty4TypeNtNtB7_4attr5TraitEB7_, symObjAddr: 0x2AAC, symBinAddr: 0x45800, symSize: 0x2A4 }
  - { offset: 0xFD46E, size: 0x8, addend: 0x0, symName: __RNvMs_NtCs9PzovR4aYST_14thiserror_impl8genericsNtB4_14InferredBounds20augment_where_clause, symObjAddr: 0x2D50, symBinAddr: 0x45AA4, symSize: 0x2C0 }
  - { offset: 0xFD8DD, size: 0x8, addend: 0x0, symName: __RINvMNtNtCsaNl6UpbT7bw_4core3fmt2rtNtB3_8Argument11new_displayINtNtCs4EAaWzSXu1l_5quote9___private20IdentFragmentAdapterRNtCshnvkK9b4wzu_11proc_macro25IdentEECs9PzovR4aYST_14thiserror_impl, symObjAddr: 0x0, symBinAddr: 0x45D64, symSize: 0x2C }
  - { offset: 0xFDD04, size: 0x8, addend: 0x0, symName: __RNvXs1e_Cs7yrEGia95Wz_10proc_macroNtB6_5IdentNtNtCsaNl6UpbT7bw_4core5clone5Clone5cloneCs9PzovR4aYST_14thiserror_impl, symObjAddr: 0x19D0, symBinAddr: 0x47734, symSize: 0x40 }
  - { offset: 0xFDD38, size: 0x8, addend: 0x0, symName: __RNvXsU_Cs7yrEGia95Wz_10proc_macroNtB5_11TokenStreamNtNtCsaNl6UpbT7bw_4core5clone5Clone5cloneCs9PzovR4aYST_14thiserror_impl, symObjAddr: 0x2928, symBinAddr: 0x485D4, symSize: 0x64 }
  - { offset: 0xFE03E, size: 0x8, addend: 0x0, symName: __RINvXsa_NtCshnvkK9b4wzu_11proc_macro28fallbackNtB6_11TokenStreamINtNtNtNtCsaNl6UpbT7bw_4core4iter6traits7collect6ExtendNtB8_9TokenTreeE6extendNtB8_11TokenStreamECs9PzovR4aYST_14thiserror_impl, symObjAddr: 0x34C, symBinAddr: 0x460B0, symSize: 0xC0 }
  - { offset: 0xFE0A4, size: 0x8, addend: 0x0, symName: __RNCINvXsa_NtCshnvkK9b4wzu_11proc_macro28fallbackNtB8_11TokenStreamINtNtNtNtCsaNl6UpbT7bw_4core4iter6traits7collect6ExtendNtBa_9TokenTreeE6extendNtBa_11TokenStreamE0Cs9PzovR4aYST_14thiserror_impl, symObjAddr: 0x428, symBinAddr: 0x4618C, symSize: 0xAC }
  - { offset: 0xFE154, size: 0x8, addend: 0x0, symName: __RNvXsA_NtCshnvkK9b4wzu_11proc_macro28fallbackNtB5_5IdentNtNtCsaNl6UpbT7bw_4core5clone5Clone5cloneCs9PzovR4aYST_14thiserror_impl, symObjAddr: 0x287C, symBinAddr: 0x48528, symSize: 0x94 }
  - { offset: 0xFE188, size: 0x8, addend: 0x0, symName: __RNvXss_NtCshnvkK9b4wzu_11proc_macro28fallbackNtB5_11TokenStreamNtNtCsaNl6UpbT7bw_4core5clone5Clone5cloneCs9PzovR4aYST_14thiserror_impl, symObjAddr: 0x2A18, symBinAddr: 0x486C4, symSize: 0x24 }
  - { offset: 0xFE1BA, size: 0x8, addend: 0x0, symName: __RNvXsu_NtCshnvkK9b4wzu_11proc_macro28fallbackNtB5_4SpanNtNtCsaNl6UpbT7bw_4core5clone5Clone5cloneCs9PzovR4aYST_14thiserror_impl, symObjAddr: 0x2A3C, symBinAddr: 0x486E8, symSize: 0x10 }
  - { offset: 0x1012C9, size: 0x8, addend: 0x0, symName: __RINvNvMNtCsaNl6UpbT7bw_4core5sliceSp7reverse7revswapRNtCshnvkK9b4wzu_11proc_macro25IdentECs9PzovR4aYST_14thiserror_impl, symObjAddr: 0xDC, symBinAddr: 0x45E40, symSize: 0x270 }
  - { offset: 0x101486, size: 0x8, addend: 0x0, symName: __RNvMNtCsaNl6UpbT7bw_4core5sliceSh15copy_from_sliceCs9PzovR4aYST_14thiserror_impl, symObjAddr: 0x4D4, symBinAddr: 0x46238, symSize: 0xAC }
  - { offset: 0x10152F, size: 0x8, addend: 0x0, symName: __RNvNvMNtCsaNl6UpbT7bw_4core5sliceSp22split_at_mut_unchecked18precondition_checkCs9PzovR4aYST_14thiserror_impl, symObjAddr: 0x18A8, symBinAddr: 0x4760C, symSize: 0xAC }
  - { offset: 0x10265A, size: 0x8, addend: 0x0, symName: __RINvYINtNtNtCsiTraAjBDcu4_5alloc3vec9into_iter8IntoIterRNtCshnvkK9b4wzu_11proc_macro25IdentENtNtNtNtCsaNl6UpbT7bw_4core4iter6traits8iterator8Iterator3mapTBR_NtNtNtNtBa_11collections5btree7set_val9SetValZSTENCINvMse_NtB2z_3setINtB3r_8BTreeSetBR_E16from_sorted_iterB3_E0ECs9PzovR4aYST_14thiserror_impl, symObjAddr: 0x40C, symBinAddr: 0x46170, symSize: 0x1C }
  - { offset: 0x1026FE, size: 0x8, addend: 0x0, symName: __RNvYINtNtNtCsiTraAjBDcu4_5alloc3vec9into_iter8IntoIterRNtCshnvkK9b4wzu_11proc_macro25IdentENtNtNtNtCsaNl6UpbT7bw_4core4iter6traits10exact_size17ExactSizeIterator3lenCs9PzovR4aYST_14thiserror_impl, symObjAddr: 0x2A4C, symBinAddr: 0x486F8, symSize: 0xC4 }
  - { offset: 0x102E6D, size: 0x8, addend: 0x0, symName: __RNvXs4_NtNtCsaNl6UpbT7bw_4core5array4iterINtB5_8IntoIterjKj2_ENtNtNtB9_3ops4drop4Drop4dropCs9PzovR4aYST_14thiserror_impl, symObjAddr: 0x1B28, symBinAddr: 0x4788C, symSize: 0x10 }
  - { offset: 0x1033DF, size: 0x8, addend: 0x0, symName: __RNvXNvXsd_NtNtCsiTraAjBDcu4_5alloc3vec9into_iterINtB8_8IntoIterppENtNtNtCsaNl6UpbT7bw_4core3ops4drop4Drop4dropINtB2_9DropGuardRNtCshnvkK9b4wzu_11proc_macro25IdentNtNtBc_5alloc6GlobalEB12_4dropCs9PzovR4aYST_14thiserror_impl, symObjAddr: 0x1954, symBinAddr: 0x476B8, symSize: 0x7C }
  - { offset: 0x103515, size: 0x8, addend: 0x0, symName: __RNvXsd_NtNtCsiTraAjBDcu4_5alloc3vec9into_iterINtB5_8IntoIterRNtCshnvkK9b4wzu_11proc_macro25IdentENtNtNtCsaNl6UpbT7bw_4core3ops4drop4Drop4dropCs9PzovR4aYST_14thiserror_impl, symObjAddr: 0x298C, symBinAddr: 0x48638, symSize: 0x8C }
  - { offset: 0x1035B5, size: 0x8, addend: 0x0, symName: __RNvXs3_NtNtCsiTraAjBDcu4_5alloc3vec9into_iterINtB5_8IntoIterRNtCshnvkK9b4wzu_11proc_macro25IdentENtNtNtNtCsaNl6UpbT7bw_4core4iter6traits8iterator8Iterator4nextCs9PzovR4aYST_14thiserror_impl, symObjAddr: 0x1A10, symBinAddr: 0x47774, symSize: 0xAC }
  - { offset: 0x10372C, size: 0x8, addend: 0x0, symName: __RNvXs3_NtNtCsiTraAjBDcu4_5alloc3vec9into_iterINtB5_8IntoIterRNtCshnvkK9b4wzu_11proc_macro25IdentENtNtNtNtCsaNl6UpbT7bw_4core4iter6traits8iterator8Iterator9size_hintCs9PzovR4aYST_14thiserror_impl, symObjAddr: 0x1ABC, symBinAddr: 0x47820, symSize: 0x6C }
  - { offset: 0x103BE8, size: 0x8, addend: 0x0, symName: __RNvXs7_NtNtNtCsiTraAjBDcu4_5alloc11collections5btree7set_valNtB5_9SetValZSTNtNtCsaNl6UpbT7bw_4core5clone5Clone5cloneCs9PzovR4aYST_14thiserror_impl, symObjAddr: 0x286C, symBinAddr: 0x48518, symSize: 0x10 }
  - { offset: 0x103C78, size: 0x8, addend: 0x0, symName: __RNvMs_NtCsiTraAjBDcu4_5alloc5boxedINtB4_3BoxINtNtNtNtB6_11collections5btree4node12InternalNodeNtCshnvkK9b4wzu_11proc_macro25IdentNtNtBL_7set_val9SetValZSTEE13new_uninit_inCs9PzovR4aYST_14thiserror_impl, symObjAddr: 0x660, symBinAddr: 0x463C4, symSize: 0x98 }
  - { offset: 0x103D6C, size: 0x8, addend: 0x0, symName: __RNvMs_NtCsiTraAjBDcu4_5alloc5boxedINtB4_3BoxINtNtNtNtB6_11collections5btree4node12InternalNodeNtCshnvkK9b4wzu_11proc_macro25IdentNtNtBL_7set_val9SetValZSTEE17try_new_uninit_inCs9PzovR4aYST_14thiserror_impl, symObjAddr: 0x6F8, symBinAddr: 0x4645C, symSize: 0x13C }
  - { offset: 0x103F9C, size: 0x8, addend: 0x0, symName: __RNvMs_NtCsiTraAjBDcu4_5alloc5boxedINtB4_3BoxINtNtNtNtB6_11collections5btree4node12InternalNodeNtNtB6_6string6StringNtNtBL_7set_val9SetValZSTEE13new_uninit_inCs9PzovR4aYST_14thiserror_impl, symObjAddr: 0x834, symBinAddr: 0x46598, symSize: 0x98 }
  - { offset: 0x104090, size: 0x8, addend: 0x0, symName: __RNvMs_NtCsiTraAjBDcu4_5alloc5boxedINtB4_3BoxINtNtNtNtB6_11collections5btree4node12InternalNodeNtNtB6_6string6StringNtNtBL_7set_val9SetValZSTEE17try_new_uninit_inCs9PzovR4aYST_14thiserror_impl, symObjAddr: 0x8CC, symBinAddr: 0x46630, symSize: 0x13C }
  - { offset: 0x1042C0, size: 0x8, addend: 0x0, symName: __RNvMs_NtCsiTraAjBDcu4_5alloc5boxedINtB4_3BoxINtNtNtNtB6_11collections5btree4node12InternalNodeNtNtB6_6string6StringTINtNtBL_3set8BTreeSetB1u_EINtNtCsc29TF2YcYso_3syn10punctuated10PunctuatedNtCshnvkK9b4wzu_11proc_macro211TokenStreamNtNtB2l_5token4PlusEEEE13new_uninit_inCs9PzovR4aYST_14thiserror_impl, symObjAddr: 0xA08, symBinAddr: 0x4676C, symSize: 0x98 }
  - { offset: 0x1043B4, size: 0x8, addend: 0x0, symName: __RNvMs_NtCsiTraAjBDcu4_5alloc5boxedINtB4_3BoxINtNtNtNtB6_11collections5btree4node12InternalNodeNtNtB6_6string6StringTINtNtBL_3set8BTreeSetB1u_EINtNtCsc29TF2YcYso_3syn10punctuated10PunctuatedNtCshnvkK9b4wzu_11proc_macro211TokenStreamNtNtB2l_5token4PlusEEEE17try_new_uninit_inCs9PzovR4aYST_14thiserror_impl, symObjAddr: 0xAA0, symBinAddr: 0x46804, symSize: 0x13C }
  - { offset: 0x1045E4, size: 0x8, addend: 0x0, symName: __RNvMs_NtCsiTraAjBDcu4_5alloc5boxedINtB4_3BoxINtNtNtNtB6_11collections5btree4node12InternalNodeRNtCshnvkK9b4wzu_11proc_macro25IdentNtNtBL_7set_val9SetValZSTEE13new_uninit_inCs9PzovR4aYST_14thiserror_impl, symObjAddr: 0xBDC, symBinAddr: 0x46940, symSize: 0x98 }
  - { offset: 0x1046D8, size: 0x8, addend: 0x0, symName: __RNvMs_NtCsiTraAjBDcu4_5alloc5boxedINtB4_3BoxINtNtNtNtB6_11collections5btree4node12InternalNodeRNtCshnvkK9b4wzu_11proc_macro25IdentNtNtBL_7set_val9SetValZSTEE17try_new_uninit_inCs9PzovR4aYST_14thiserror_impl, symObjAddr: 0xC74, symBinAddr: 0x469D8, symSize: 0x13C }
  - { offset: 0x104908, size: 0x8, addend: 0x0, symName: __RNvMs_NtCsiTraAjBDcu4_5alloc5boxedINtB4_3BoxINtNtNtNtB6_11collections5btree4node12InternalNodeTjNtNtCs9PzovR4aYST_14thiserror_impl4attr5TraitENtNtBL_7set_val9SetValZSTEE13new_uninit_inB1A_, symObjAddr: 0xDB0, symBinAddr: 0x46B14, symSize: 0x98 }
  - { offset: 0x1049FC, size: 0x8, addend: 0x0, symName: __RNvMs_NtCsiTraAjBDcu4_5alloc5boxedINtB4_3BoxINtNtNtNtB6_11collections5btree4node12InternalNodeTjNtNtCs9PzovR4aYST_14thiserror_impl4attr5TraitENtNtBL_7set_val9SetValZSTEE17try_new_uninit_inB1A_, symObjAddr: 0xE48, symBinAddr: 0x46BAC, symSize: 0x13C }
  - { offset: 0x104C2C, size: 0x8, addend: 0x0, symName: __RNvMs_NtCsiTraAjBDcu4_5alloc5boxedINtB4_3BoxINtNtNtNtB6_11collections5btree4node8LeafNodeNtCshnvkK9b4wzu_11proc_macro25IdentNtNtBL_7set_val9SetValZSTEE13new_uninit_inCs9PzovR4aYST_14thiserror_impl, symObjAddr: 0xF84, symBinAddr: 0x46CE8, symSize: 0x98 }
  - { offset: 0x104D20, size: 0x8, addend: 0x0, symName: __RNvMs_NtCsiTraAjBDcu4_5alloc5boxedINtB4_3BoxINtNtNtNtB6_11collections5btree4node8LeafNodeNtCshnvkK9b4wzu_11proc_macro25IdentNtNtBL_7set_val9SetValZSTEE17try_new_uninit_inCs9PzovR4aYST_14thiserror_impl, symObjAddr: 0x101C, symBinAddr: 0x46D80, symSize: 0x13C }
  - { offset: 0x104F50, size: 0x8, addend: 0x0, symName: __RNvMs_NtCsiTraAjBDcu4_5alloc5boxedINtB4_3BoxINtNtNtNtB6_11collections5btree4node8LeafNodeNtNtB6_6string6StringNtNtBL_7set_val9SetValZSTEE13new_uninit_inCs9PzovR4aYST_14thiserror_impl, symObjAddr: 0x1158, symBinAddr: 0x46EBC, symSize: 0x98 }
  - { offset: 0x105044, size: 0x8, addend: 0x0, symName: __RNvMs_NtCsiTraAjBDcu4_5alloc5boxedINtB4_3BoxINtNtNtNtB6_11collections5btree4node8LeafNodeNtNtB6_6string6StringNtNtBL_7set_val9SetValZSTEE17try_new_uninit_inCs9PzovR4aYST_14thiserror_impl, symObjAddr: 0x11F0, symBinAddr: 0x46F54, symSize: 0x13C }
  - { offset: 0x105274, size: 0x8, addend: 0x0, symName: __RNvMs_NtCsiTraAjBDcu4_5alloc5boxedINtB4_3BoxINtNtNtNtB6_11collections5btree4node8LeafNodeNtNtB6_6string6StringTINtNtBL_3set8BTreeSetB1p_EINtNtCsc29TF2YcYso_3syn10punctuated10PunctuatedNtCshnvkK9b4wzu_11proc_macro211TokenStreamNtNtB2g_5token4PlusEEEE13new_uninit_inCs9PzovR4aYST_14thiserror_impl, symObjAddr: 0x132C, symBinAddr: 0x47090, symSize: 0x98 }
  - { offset: 0x105368, size: 0x8, addend: 0x0, symName: __RNvMs_NtCsiTraAjBDcu4_5alloc5boxedINtB4_3BoxINtNtNtNtB6_11collections5btree4node8LeafNodeNtNtB6_6string6StringTINtNtBL_3set8BTreeSetB1p_EINtNtCsc29TF2YcYso_3syn10punctuated10PunctuatedNtCshnvkK9b4wzu_11proc_macro211TokenStreamNtNtB2g_5token4PlusEEEE17try_new_uninit_inCs9PzovR4aYST_14thiserror_impl, symObjAddr: 0x13C4, symBinAddr: 0x47128, symSize: 0x13C }
  - { offset: 0x105598, size: 0x8, addend: 0x0, symName: __RNvMs_NtCsiTraAjBDcu4_5alloc5boxedINtB4_3BoxINtNtNtNtB6_11collections5btree4node8LeafNodeRNtCshnvkK9b4wzu_11proc_macro25IdentNtNtBL_7set_val9SetValZSTEE13new_uninit_inCs9PzovR4aYST_14thiserror_impl, symObjAddr: 0x1500, symBinAddr: 0x47264, symSize: 0x98 }
  - { offset: 0x10568C, size: 0x8, addend: 0x0, symName: __RNvMs_NtCsiTraAjBDcu4_5alloc5boxedINtB4_3BoxINtNtNtNtB6_11collections5btree4node8LeafNodeRNtCshnvkK9b4wzu_11proc_macro25IdentNtNtBL_7set_val9SetValZSTEE17try_new_uninit_inCs9PzovR4aYST_14thiserror_impl, symObjAddr: 0x1598, symBinAddr: 0x472FC, symSize: 0x13C }
  - { offset: 0x1058BC, size: 0x8, addend: 0x0, symName: __RNvMs_NtCsiTraAjBDcu4_5alloc5boxedINtB4_3BoxINtNtNtNtB6_11collections5btree4node8LeafNodeTjNtNtCs9PzovR4aYST_14thiserror_impl4attr5TraitENtNtBL_7set_val9SetValZSTEE13new_uninit_inB1v_, symObjAddr: 0x16D4, symBinAddr: 0x47438, symSize: 0x98 }
  - { offset: 0x1059B0, size: 0x8, addend: 0x0, symName: __RNvMs_NtCsiTraAjBDcu4_5alloc5boxedINtB4_3BoxINtNtNtNtB6_11collections5btree4node8LeafNodeTjNtNtCs9PzovR4aYST_14thiserror_impl4attr5TraitENtNtBL_7set_val9SetValZSTEE17try_new_uninit_inB1v_, symObjAddr: 0x176C, symBinAddr: 0x474D0, symSize: 0x13C }
  - { offset: 0x105E44, size: 0x8, addend: 0x0, symName: __RNvXs6_NtCsiTraAjBDcu4_5alloc5boxedINtB5_3BoxDNtNtCsaNl6UpbT7bw_4core5error5ErrorNtNtBM_6marker4SyncNtB1j_4SendEL_ENtNtNtBM_3ops4drop4Drop4dropCs9PzovR4aYST_14thiserror_impl, symObjAddr: 0x1B38, symBinAddr: 0x4789C, symSize: 0xCC }
  - { offset: 0x105F7B, size: 0x8, addend: 0x0, symName: __RNvXs6_NtCsiTraAjBDcu4_5alloc5boxedINtB5_3BoxINtNtCsc29TF2YcYso_3syn5drops6NoDropDINtNtBM_10punctuated9IterTraitNtNtBM_4data5FieldEp4ItemRB1M_EL_EENtNtNtCsaNl6UpbT7bw_4core3ops4drop4Drop4dropCs9PzovR4aYST_14thiserror_impl, symObjAddr: 0x1C04, symBinAddr: 0x47968, symSize: 0x120 }
  - { offset: 0x1060B2, size: 0x8, addend: 0x0, symName: __RNvXs6_NtCsiTraAjBDcu4_5alloc5boxedINtB5_3BoxINtNtCsc29TF2YcYso_3syn5drops6NoDropDINtNtBM_10punctuated9IterTraitNtNtBM_4data7VariantEp4ItemRB1M_EL_EENtNtNtCsaNl6UpbT7bw_4core3ops4drop4Drop4dropCs9PzovR4aYST_14thiserror_impl, symObjAddr: 0x1D24, symBinAddr: 0x47A88, symSize: 0x120 }
  - { offset: 0x1061E9, size: 0x8, addend: 0x0, symName: __RNvXs6_NtCsiTraAjBDcu4_5alloc5boxedINtB5_3BoxINtNtCsc29TF2YcYso_3syn5drops6NoDropDINtNtBM_10punctuated9IterTraitNtNtBM_4path15GenericArgumentEp4ItemRB1M_EL_EENtNtNtCsaNl6UpbT7bw_4core3ops4drop4Drop4dropCs9PzovR4aYST_14thiserror_impl, symObjAddr: 0x1E44, symBinAddr: 0x47BA8, symSize: 0x120 }
  - { offset: 0x106320, size: 0x8, addend: 0x0, symName: __RNvXs6_NtCsiTraAjBDcu4_5alloc5boxedINtB5_3BoxINtNtCsc29TF2YcYso_3syn5drops6NoDropDINtNtBM_10punctuated9IterTraitNtNtBM_8generics12GenericParamEp4ItemRB1M_EL_EENtNtNtCsaNl6UpbT7bw_4core3ops4drop4Drop4dropCs9PzovR4aYST_14thiserror_impl, symObjAddr: 0x1F64, symBinAddr: 0x47CC8, symSize: 0x120 }
  - { offset: 0x106457, size: 0x8, addend: 0x0, symName: __RNvXs6_NtCsiTraAjBDcu4_5alloc5boxedINtB5_3BoxINtNtNtNtB7_11collections5btree4node12InternalNodeNtCshnvkK9b4wzu_11proc_macro25IdentNtNtBM_7set_val9SetValZSTEENtNtNtCsaNl6UpbT7bw_4core3ops4drop4Drop4dropCs9PzovR4aYST_14thiserror_impl, symObjAddr: 0x2084, symBinAddr: 0x47DE8, symSize: 0xB8 }
  - { offset: 0x10658E, size: 0x8, addend: 0x0, symName: __RNvXs6_NtCsiTraAjBDcu4_5alloc5boxedINtB5_3BoxINtNtNtNtB7_11collections5btree4node12InternalNodeNtNtB7_6string6StringNtNtBM_7set_val9SetValZSTEENtNtNtCsaNl6UpbT7bw_4core3ops4drop4Drop4dropCs9PzovR4aYST_14thiserror_impl, symObjAddr: 0x213C, symBinAddr: 0x47EA0, symSize: 0xB8 }
  - { offset: 0x1066C5, size: 0x8, addend: 0x0, symName: __RNvXs6_NtCsiTraAjBDcu4_5alloc5boxedINtB5_3BoxINtNtNtNtB7_11collections5btree4node12InternalNodeNtNtB7_6string6StringTINtNtBM_3set8BTreeSetB1v_EINtNtCsc29TF2YcYso_3syn10punctuated10PunctuatedNtCshnvkK9b4wzu_11proc_macro211TokenStreamNtNtB2m_5token4PlusEEEENtNtNtCsaNl6UpbT7bw_4core3ops4drop4Drop4dropCs9PzovR4aYST_14thiserror_impl, symObjAddr: 0x21F4, symBinAddr: 0x47F58, symSize: 0xB8 }
  - { offset: 0x1067FC, size: 0x8, addend: 0x0, symName: __RNvXs6_NtCsiTraAjBDcu4_5alloc5boxedINtB5_3BoxINtNtNtNtB7_11collections5btree4node12InternalNodeTjNtNtCs9PzovR4aYST_14thiserror_impl4attr5TraitENtNtBM_7set_val9SetValZSTEENtNtNtCsaNl6UpbT7bw_4core3ops4drop4Drop4dropB1B_, symObjAddr: 0x2364, symBinAddr: 0x48010, symSize: 0xB8 }
  - { offset: 0x106933, size: 0x8, addend: 0x0, symName: __RNvXs6_NtCsiTraAjBDcu4_5alloc5boxedINtB5_3BoxINtNtNtNtB7_11collections5btree4node8LeafNodeNtCshnvkK9b4wzu_11proc_macro25IdentNtNtBM_7set_val9SetValZSTEENtNtNtCsaNl6UpbT7bw_4core3ops4drop4Drop4dropCs9PzovR4aYST_14thiserror_impl, symObjAddr: 0x241C, symBinAddr: 0x480C8, symSize: 0xB8 }
  - { offset: 0x106A6A, size: 0x8, addend: 0x0, symName: __RNvXs6_NtCsiTraAjBDcu4_5alloc5boxedINtB5_3BoxINtNtNtNtB7_11collections5btree4node8LeafNodeNtNtB7_6string6StringNtNtBM_7set_val9SetValZSTEENtNtNtCsaNl6UpbT7bw_4core3ops4drop4Drop4dropCs9PzovR4aYST_14thiserror_impl, symObjAddr: 0x24D4, symBinAddr: 0x48180, symSize: 0xB8 }
  - { offset: 0x106BA1, size: 0x8, addend: 0x0, symName: __RNvXs6_NtCsiTraAjBDcu4_5alloc5boxedINtB5_3BoxINtNtNtNtB7_11collections5btree4node8LeafNodeNtNtB7_6string6StringTINtNtBM_3set8BTreeSetB1q_EINtNtCsc29TF2YcYso_3syn10punctuated10PunctuatedNtCshnvkK9b4wzu_11proc_macro211TokenStreamNtNtB2h_5token4PlusEEEENtNtNtCsaNl6UpbT7bw_4core3ops4drop4Drop4dropCs9PzovR4aYST_14thiserror_impl, symObjAddr: 0x258C, symBinAddr: 0x48238, symSize: 0xB8 }
  - { offset: 0x106CD8, size: 0x8, addend: 0x0, symName: __RNvXs6_NtCsiTraAjBDcu4_5alloc5boxedINtB5_3BoxINtNtNtNtB7_11collections5btree4node8LeafNodeTjNtNtCs9PzovR4aYST_14thiserror_impl4attr5TraitENtNtBM_7set_val9SetValZSTEENtNtNtCsaNl6UpbT7bw_4core3ops4drop4Drop4dropB1w_, symObjAddr: 0x2644, symBinAddr: 0x482F0, symSize: 0xB8 }
  - { offset: 0x106E0F, size: 0x8, addend: 0x0, symName: __RNvXs6_NtCsiTraAjBDcu4_5alloc5boxedINtB5_3BoxNtCshnvkK9b4wzu_11proc_macro211TokenStreamENtNtNtCsaNl6UpbT7bw_4core3ops4drop4Drop4dropCs9PzovR4aYST_14thiserror_impl, symObjAddr: 0x26FC, symBinAddr: 0x483A8, symSize: 0xB8 }
  - { offset: 0x106F46, size: 0x8, addend: 0x0, symName: __RNvXs6_NtCsiTraAjBDcu4_5alloc5boxedINtB5_3BoxNtNtNtCsht3nMU9UgFu_3std2io5error6CustomENtNtNtCsaNl6UpbT7bw_4core3ops4drop4Drop4dropCs9PzovR4aYST_14thiserror_impl, symObjAddr: 0x27B4, symBinAddr: 0x48460, symSize: 0xB8 }
  - { offset: 0x107083, size: 0x8, addend: 0x0, symName: __RNvXsB_NtCsiTraAjBDcu4_5alloc5boxedINtB5_3BoxNtCshnvkK9b4wzu_11proc_macro211TokenStreamEINtNtCsaNl6UpbT7bw_4core7convert5AsRefBH_E6as_refCs9PzovR4aYST_14thiserror_impl, symObjAddr: 0x2910, symBinAddr: 0x485BC, symSize: 0x18 }
  - { offset: 0x10728D, size: 0x8, addend: 0x0, symName: __RINvMNtNtCsaNl6UpbT7bw_4core3fmt2rtNtB3_8Argument11new_displayINtNtCs4EAaWzSXu1l_5quote9___private20IdentFragmentAdapterRNtCshnvkK9b4wzu_11proc_macro25IdentEECs9PzovR4aYST_14thiserror_impl, symObjAddr: 0x0, symBinAddr: 0x45D64, symSize: 0x2C }
  - { offset: 0x107456, size: 0x8, addend: 0x0, symName: __RINvMNtNtCsaNl6UpbT7bw_4core3fmt2rtNtB3_8Argument11new_displayINtNtCs4EAaWzSXu1l_5quote9___private20IdentFragmentAdapterRNtNtCsc29TF2YcYso_3syn4expr5IndexEECs9PzovR4aYST_14thiserror_impl, symObjAddr: 0x2C, symBinAddr: 0x45D90, symSize: 0x2C }
  - { offset: 0x10749B, size: 0x8, addend: 0x0, symName: __RINvMNtNtCsaNl6UpbT7bw_4core3fmt2rtNtB3_8Argument11new_displayINtNtCs4EAaWzSXu1l_5quote9___private20IdentFragmentAdapterRRNtNtCsc29TF2YcYso_3syn4expr5IndexEECs9PzovR4aYST_14thiserror_impl, symObjAddr: 0x58, symBinAddr: 0x45DBC, symSize: 0x2C }
  - { offset: 0x1074E0, size: 0x8, addend: 0x0, symName: __RINvMNtNtCsaNl6UpbT7bw_4core3fmt2rtNtB3_8Argument11new_displayINtNtCs4EAaWzSXu1l_5quote9___private20IdentFragmentAdapterRmEECs9PzovR4aYST_14thiserror_impl, symObjAddr: 0x84, symBinAddr: 0x45DE8, symSize: 0x2C }
  - { offset: 0x107532, size: 0x8, addend: 0x0, symName: __RINvMNtNtCsaNl6UpbT7bw_4core3fmt2rtNtB3_8Argument11new_displayNtNtNtCsc29TF2YcYso_3syn4attr7parsing16DisplayAttrStyleECs9PzovR4aYST_14thiserror_impl, symObjAddr: 0xB0, symBinAddr: 0x45E14, symSize: 0x2C }
  - { offset: 0x1076EB, size: 0x8, addend: 0x0, symName: __RNvMNtNtNtCsaNl6UpbT7bw_4core4iter8adapters7step_byINtB2_6StepByINtNtNtB8_3ops5range5RangejEE3newCs9PzovR4aYST_14thiserror_impl, symObjAddr: 0x580, symBinAddr: 0x462E4, symSize: 0xE0 }
  - { offset: 0x10936B, size: 0x8, addend: 0x0, symName: __RNcNtINtNtNtCsaNl6UpbT7bw_4core3ops12control_flow11ControlFlowNtNtCs9PzovR4aYST_14thiserror_impl3ast5FieldE5Break0B12_, symObjAddr: 0x0, symBinAddr: 0x487BC, symSize: 0x30 }
  - { offset: 0x10968C, size: 0x8, addend: 0x0, symName: __RNvXs7_NtNtCs7yrEGia95Wz_10proc_macro6bridge3rpcINtNtNtCsaNl6UpbT7bw_4core3num7nonzero7NonZeromEINtB5_9DecodeMutuE6decodeCs9PzovR4aYST_14thiserror_impl, symObjAddr: 0x139C, symBinAddr: 0x49B58, symSize: 0x5C }
  - { offset: 0x109B32, size: 0x8, addend: 0x0, symName: __RNvXs1_NtCshnvkK9b4wzu_11proc_macro26markerNtB5_19ProcMacroAutoTraitsNtNtCsaNl6UpbT7bw_4core5clone5Clone5cloneCs9PzovR4aYST_14thiserror_impl, symObjAddr: 0xAE0, symBinAddr: 0x4929C, symSize: 0x10 }
  - { offset: 0x109FFD, size: 0x8, addend: 0x0, symName: __RNcNtNtNtCs9PzovR4aYST_14thiserror_impl3ast5Input6Struct0B7_, symObjAddr: 0x1570, symBinAddr: 0x49D2C, symSize: 0x38 }
  - { offset: 0x10A02C, size: 0x8, addend: 0x0, symName: __RNcNtNtNtCs9PzovR4aYST_14thiserror_impl3ast5Input4Enum0B7_, symObjAddr: 0x15A8, symBinAddr: 0x49D64, symSize: 0x3C }
  - { offset: 0x10A24A, size: 0x8, addend: 0x0, symName: __RNCNvMs0_NtCs9PzovR4aYST_14thiserror_impl3astNtB7_4Enum8from_syn0B9_, symObjAddr: 0x1E60, symBinAddr: 0x4A61C, symSize: 0x278 }
  - { offset: 0x10A348, size: 0x8, addend: 0x0, symName: __RNCNvMs2_NtCs9PzovR4aYST_14thiserror_impl3astNtB7_5Field17multiple_from_syn0B9_, symObjAddr: 0x2484, symBinAddr: 0x4AC40, symSize: 0x64 }
  - { offset: 0x10A3BE, size: 0x8, addend: 0x0, symName: __RNCNvMs2_NtCs9PzovR4aYST_14thiserror_impl3astNtB7_5Field8from_syn0B9_, symObjAddr: 0x26D4, symBinAddr: 0x4AE90, symSize: 0x48 }
  - { offset: 0x10A429, size: 0x8, addend: 0x0, symName: __RNCNvMs_NtCs9PzovR4aYST_14thiserror_impl5validNtNtB8_3ast6Struct8validate0B8_, symObjAddr: 0x3080, symBinAddr: 0x4B83C, symSize: 0x2C }
  - { offset: 0x10A472, size: 0x8, addend: 0x0, symName: __RNCNvMs1_NtCs9PzovR4aYST_14thiserror_impl5validNtNtB9_3ast7Variant8validate0B9_, symObjAddr: 0x3880, symBinAddr: 0x4C03C, symSize: 0x2C }
  - { offset: 0x10A4B1, size: 0x8, addend: 0x0, symName: __RNvNtCs9PzovR4aYST_14thiserror_impl5valid21check_non_field_attrs, symObjAddr: 0x3960, symBinAddr: 0x4C11C, symSize: 0x230 }
  - { offset: 0x10A541, size: 0x8, addend: 0x0, symName: __RNvNtCs9PzovR4aYST_14thiserror_impl5valid17check_field_attrs, symObjAddr: 0x3B90, symBinAddr: 0x4C34C, symSize: 0x630 }
  - { offset: 0x10A6CB, size: 0x8, addend: 0x0, symName: __RNvNtCs9PzovR4aYST_14thiserror_impl5valid11same_member, symObjAddr: 0x41C0, symBinAddr: 0x4C97C, symSize: 0x134 }
  - { offset: 0x10A75D, size: 0x8, addend: 0x0, symName: __RNvNtCs9PzovR4aYST_14thiserror_impl5valid28contains_non_static_lifetime, symObjAddr: 0x42F4, symBinAddr: 0x4CAB0, symSize: 0x310 }
  - { offset: 0x10A87A, size: 0x8, addend: 0x0, symName: __RNCNvNtCs9PzovR4aYST_14thiserror_impl5valid28contains_non_static_lifetime0B5_, symObjAddr: 0x4604, symBinAddr: 0x4CDC0, symSize: 0x3C }
  - { offset: 0x10A8D3, size: 0x8, addend: 0x0, symName: __RNcNtINtNtNtCsaNl6UpbT7bw_4core3ops12control_flow11ControlFlowNtNtCs9PzovR4aYST_14thiserror_impl3ast5FieldE5Break0B12_, symObjAddr: 0x0, symBinAddr: 0x487BC, symSize: 0x30 }
  - { offset: 0x10A90E, size: 0x8, addend: 0x0, symName: __RNcNtINtNtNtCsaNl6UpbT7bw_4core3ops12control_flow11ControlFlowNtNtCs9PzovR4aYST_14thiserror_impl3ast7VariantE5Break0B12_, symObjAddr: 0x30, symBinAddr: 0x487EC, symSize: 0x30 }
  - { offset: 0x10A950, size: 0x8, addend: 0x0, symName: __RNvXNtNtCsaNl6UpbT7bw_4core3ops12control_flowINtB2_11ControlFlowIBI_NtNtCs9PzovR4aYST_14thiserror_impl3ast5FieldEENtNtB4_9try_trait3Try11from_outputB18_, symObjAddr: 0x824, symBinAddr: 0x48FE0, symSize: 0x18 }
  - { offset: 0x10A98E, size: 0x8, addend: 0x0, symName: __RNvXNtNtCsaNl6UpbT7bw_4core3ops12control_flowINtB2_11ControlFlowIBI_NtNtCs9PzovR4aYST_14thiserror_impl3ast5FieldEENtNtB4_9try_trait3Try6branchB18_, symObjAddr: 0x83C, symBinAddr: 0x48FF8, symSize: 0x94 }
  - { offset: 0x10AA07, size: 0x8, addend: 0x0, symName: __RNvXNtNtCsaNl6UpbT7bw_4core3ops12control_flowINtB2_11ControlFlowIBI_NtNtCs9PzovR4aYST_14thiserror_impl3ast7VariantEENtNtB4_9try_trait3Try11from_outputB18_, symObjAddr: 0x8D0, symBinAddr: 0x4908C, symSize: 0x18 }
  - { offset: 0x10AA45, size: 0x8, addend: 0x0, symName: __RNvXNtNtCsaNl6UpbT7bw_4core3ops12control_flowINtB2_11ControlFlowIBI_NtNtCs9PzovR4aYST_14thiserror_impl3ast7VariantEENtNtB4_9try_trait3Try6branchB18_, symObjAddr: 0x8E8, symBinAddr: 0x490A4, symSize: 0x94 }
  - { offset: 0x10AABE, size: 0x8, addend: 0x0, symName: __RNvXNtNtCsaNl6UpbT7bw_4core3ops12control_flowINtB2_11ControlFlowNtNtCs9PzovR4aYST_14thiserror_impl3ast5FieldENtNtB4_9try_trait3Try11from_outputB14_, symObjAddr: 0x97C, symBinAddr: 0x49138, symSize: 0x1C }
  - { offset: 0x10AAFC, size: 0x8, addend: 0x0, symName: __RNvXNtNtCsaNl6UpbT7bw_4core3ops12control_flowINtB2_11ControlFlowNtNtCs9PzovR4aYST_14thiserror_impl3ast5FieldENtNtB4_9try_trait3Try6branchB14_, symObjAddr: 0x998, symBinAddr: 0x49154, symSize: 0x9C }
  - { offset: 0x10AB75, size: 0x8, addend: 0x0, symName: __RNvXNtNtCsaNl6UpbT7bw_4core3ops12control_flowINtB2_11ControlFlowNtNtCs9PzovR4aYST_14thiserror_impl3ast7VariantENtNtB4_9try_trait3Try11from_outputB14_, symObjAddr: 0xA34, symBinAddr: 0x491F0, symSize: 0x18 }
  - { offset: 0x10ABB3, size: 0x8, addend: 0x0, symName: __RNvXNtNtCsaNl6UpbT7bw_4core3ops12control_flowINtB2_11ControlFlowNtNtCs9PzovR4aYST_14thiserror_impl3ast7VariantENtNtB4_9try_trait3Try6branchB14_, symObjAddr: 0xA4C, symBinAddr: 0x49208, symSize: 0x94 }
  - { offset: 0x10AC32, size: 0x8, addend: 0x0, symName: __RNvXs_NtNtCsaNl6UpbT7bw_4core3ops12control_flowINtB4_11ControlFlowIBK_NtNtCs9PzovR4aYST_14thiserror_impl3ast5FieldEEINtNtB6_9try_trait12FromResidualIBK_B12_NtNtB8_7convert10InfallibleEE13from_residualB1a_, symObjAddr: 0x13F8, symBinAddr: 0x49BB4, symSize: 0x48 }
  - { offset: 0x10AC71, size: 0x8, addend: 0x0, symName: __RNvXs_NtNtCsaNl6UpbT7bw_4core3ops12control_flowINtB4_11ControlFlowIBK_NtNtCs9PzovR4aYST_14thiserror_impl3ast7VariantEEINtNtB6_9try_trait12FromResidualIBK_B12_NtNtB8_7convert10InfallibleEE13from_residualB1a_, symObjAddr: 0x1440, symBinAddr: 0x49BFC, symSize: 0x48 }
  - { offset: 0x10ACB0, size: 0x8, addend: 0x0, symName: __RNvXs_NtNtCsaNl6UpbT7bw_4core3ops12control_flowINtB4_11ControlFlowNtNtCs9PzovR4aYST_14thiserror_impl3ast5FieldEINtNtB6_9try_trait12FromResidualIBK_B12_NtNtB8_7convert10InfallibleEE13from_residualB16_, symObjAddr: 0x1488, symBinAddr: 0x49C44, symSize: 0x48 }
  - { offset: 0x10ACEF, size: 0x8, addend: 0x0, symName: __RNvXs_NtNtCsaNl6UpbT7bw_4core3ops12control_flowINtB4_11ControlFlowNtNtCs9PzovR4aYST_14thiserror_impl3ast7VariantEINtNtB6_9try_trait12FromResidualIBK_B12_NtNtB8_7convert10InfallibleEE13from_residualB16_, symObjAddr: 0x14D0, symBinAddr: 0x49C8C, symSize: 0x48 }
  - { offset: 0x10B337, size: 0x8, addend: 0x0, symName: __RNvMNtCsaNl6UpbT7bw_4core5sliceSNtNtCs9PzovR4aYST_14thiserror_impl3ast5Field4iterBy_, symObjAddr: 0x60, symBinAddr: 0x4881C, symSize: 0x28 }
  - { offset: 0x10B36E, size: 0x8, addend: 0x0, symName: __RNvMNtCsaNl6UpbT7bw_4core5sliceSNtNtCs9PzovR4aYST_14thiserror_impl3ast7Variant4iterBy_, symObjAddr: 0x88, symBinAddr: 0x48844, symSize: 0x28 }
  - { offset: 0x10B4F1, size: 0x8, addend: 0x0, symName: __RNvXs_NtNtCsaNl6UpbT7bw_4core5slice4iterRSNtNtCs9PzovR4aYST_14thiserror_impl3ast5FieldNtNtNtNtB8_4iter6traits7collect12IntoIterator9into_iterBI_, symObjAddr: 0x1518, symBinAddr: 0x49CD4, symSize: 0x58 }
  - { offset: 0x10B726, size: 0x8, addend: 0x0, symName: __RNvNtNtCsaNl6UpbT7bw_4core4hash3sip9u8to64_leCs9PzovR4aYST_14thiserror_impl, symObjAddr: 0x400, symBinAddr: 0x48BBC, symSize: 0x240 }
  - { offset: 0x10B8E3, size: 0x8, addend: 0x0, symName: __RNvXs3_NtNtCsaNl6UpbT7bw_4core4hash3sipINtB5_6HasherNtB5_11Sip13RoundsENtB7_6Hasher5writeCs9PzovR4aYST_14thiserror_impl, symObjAddr: 0xAF0, symBinAddr: 0x492AC, symSize: 0x238 }
  - { offset: 0x10BA59, size: 0x8, addend: 0x0, symName: __RNvXs3_NtNtCsaNl6UpbT7bw_4core4hash3sipINtB5_6HasherNtB5_11Sip13RoundsENtB7_6Hasher6finishCs9PzovR4aYST_14thiserror_impl, symObjAddr: 0xD28, symBinAddr: 0x494E4, symSize: 0xA0 }
  - { offset: 0x10BACC, size: 0x8, addend: 0x0, symName: __RNvXs3_NtNtCsaNl6UpbT7bw_4core4hash3sipINtB5_6HasherNtB5_11Sip13RoundsENtB7_6Hasher9write_strCs9PzovR4aYST_14thiserror_impl, symObjAddr: 0xDC8, symBinAddr: 0x49584, symSize: 0x5C }
  - { offset: 0x10BB32, size: 0x8, addend: 0x0, symName: __RNvXs6_NtNtCsaNl6UpbT7bw_4core4hash3sipNtB5_11Sip13RoundsNtB5_3Sip8c_roundsCs9PzovR4aYST_14thiserror_impl, symObjAddr: 0xE24, symBinAddr: 0x495E0, symSize: 0x170 }
  - { offset: 0x10BCA8, size: 0x8, addend: 0x0, symName: __RNvXs6_NtNtCsaNl6UpbT7bw_4core4hash3sipNtB5_11Sip13RoundsNtB5_3Sip8d_roundsCs9PzovR4aYST_14thiserror_impl, symObjAddr: 0xF94, symBinAddr: 0x49750, symSize: 0x408 }
  - { offset: 0x10C66B, size: 0x8, addend: 0x0, symName: __RNvNvMs1_NtNtCsaNl6UpbT7bw_4core3ptr8non_nullINtB7_7NonNullpE13new_unchecked18precondition_checkCs9PzovR4aYST_14thiserror_impl, symObjAddr: 0x6FC, symBinAddr: 0x48EB8, symSize: 0xA4 }
  - { offset: 0x10CB61, size: 0x8, addend: 0x0, symName: __RNvNvMsd_NtNtCsaNl6UpbT7bw_4core3num7nonzeroINtB7_7NonZeropE13new_unchecked18precondition_checkCs9PzovR4aYST_14thiserror_impl, symObjAddr: 0x7A0, symBinAddr: 0x48F5C, symSize: 0x84 }
  - { offset: 0x10F7D5, size: 0x8, addend: 0x0, symName: __RNvNvMNtNtCsaNl6UpbT7bw_4core5alloc6layoutNtB4_6Layout25from_size_align_unchecked18precondition_checkCs9PzovR4aYST_14thiserror_impl, symObjAddr: 0x640, symBinAddr: 0x48DFC, symSize: 0xBC }
  - { offset: 0x10F8DF, size: 0x8, addend: 0x0, symName: __RNvMs0_NtNtCsaNl6UpbT7bw_4core4hash3sipINtB5_6HasherNtB5_11Sip13RoundsE5resetCs9PzovR4aYST_14thiserror_impl, symObjAddr: 0xB0, symBinAddr: 0x4886C, symSize: 0x8C }
  - { offset: 0x115957, size: 0x8, addend: 0x0, symName: __RNvNtCsiTraAjBDcu4_5alloc3fmt6formatCs9PzovR4aYST_14thiserror_impl, symObjAddr: 0x32C, symBinAddr: 0x48AE8, symSize: 0xD4 }
  - { offset: 0x116000, size: 0x8, addend: 0x0, symName: __RNvMs1_NtNtCsaNl6UpbT7bw_4core3ptr8non_nullINtB5_7NonNullNtNtCs9PzovR4aYST_14thiserror_impl3ast7VariantE20offset_from_unsignedBX_, symObjAddr: 0x13C, symBinAddr: 0x488F8, symSize: 0x7C }
  - { offset: 0x116113, size: 0x8, addend: 0x0, symName: __RNvMs1_NtNtCsaNl6UpbT7bw_4core3ptr8non_nullINtB5_7NonNullRNtCshnvkK9b4wzu_11proc_macro25IdentE20offset_from_unsignedCs9PzovR4aYST_14thiserror_impl, symObjAddr: 0x1B8, symBinAddr: 0x48974, symSize: 0x7C }
  - { offset: 0x116219, size: 0x8, addend: 0x0, symName: __RNvMs1_NtNtCsaNl6UpbT7bw_4core3ptr8non_nullINtB5_7NonNullTNtNtCsc29TF2YcYso_3syn4data7VariantNtNtBY_5token5CommaEE20offset_from_unsignedCs9PzovR4aYST_14thiserror_impl, symObjAddr: 0x234, symBinAddr: 0x489F0, symSize: 0x7C }
  - { offset: 0x11631F, size: 0x8, addend: 0x0, symName: __RNvMs1_NtNtCsaNl6UpbT7bw_4core3ptr8non_nullINtB5_7NonNullTNtNtCsc29TF2YcYso_3syn4path15GenericArgumentNtNtBY_5token5CommaEE20offset_from_unsignedCs9PzovR4aYST_14thiserror_impl, symObjAddr: 0x2B0, symBinAddr: 0x48A6C, symSize: 0x7C }
  - { offset: 0x11676F, size: 0x8, addend: 0x0, symName: __RNvMNtCs9PzovR4aYST_14thiserror_impl3astNtB2_5Input8from_syn, symObjAddr: 0x15E4, symBinAddr: 0x49DA0, symSize: 0x130 }
  - { offset: 0x1167D8, size: 0x8, addend: 0x0, symName: __RNvMs_NtCs9PzovR4aYST_14thiserror_impl3astNtB4_6Struct8from_syn, symObjAddr: 0x1714, symBinAddr: 0x49ED0, symSize: 0x3BC }
  - { offset: 0x116901, size: 0x8, addend: 0x0, symName: __RNvMs0_NtCs9PzovR4aYST_14thiserror_impl3astNtB5_4Enum8from_syn, symObjAddr: 0x1AD0, symBinAddr: 0x4A28C, symSize: 0x390 }
  - { offset: 0x116A75, size: 0x8, addend: 0x0, symName: __RNvMs1_NtCs9PzovR4aYST_14thiserror_impl3astNtB5_7Variant8from_syn, symObjAddr: 0x20D8, symBinAddr: 0x4A894, symSize: 0x330 }
  - { offset: 0x116B45, size: 0x8, addend: 0x0, symName: __RNvMs2_NtCs9PzovR4aYST_14thiserror_impl3astNtB5_5Field17multiple_from_syn, symObjAddr: 0x2408, symBinAddr: 0x4ABC4, symSize: 0x7C }
  - { offset: 0x116B83, size: 0x8, addend: 0x0, symName: __RNvMs2_NtCs9PzovR4aYST_14thiserror_impl3astNtB5_5Field8from_syn, symObjAddr: 0x24E8, symBinAddr: 0x4ACA4, symSize: 0x1EC }
  - { offset: 0x116C1A, size: 0x8, addend: 0x0, symName: __RNvMNtCs9PzovR4aYST_14thiserror_impl4propNtNtB4_3ast6Struct10from_field, symObjAddr: 0x271C, symBinAddr: 0x4AED8, symSize: 0x38 }
  - { offset: 0x116C3C, size: 0x8, addend: 0x0, symName: __RNvMNtCs9PzovR4aYST_14thiserror_impl4propNtNtB4_3ast6Struct12source_field, symObjAddr: 0x2754, symBinAddr: 0x4AF10, symSize: 0x38 }
  - { offset: 0x116C5E, size: 0x8, addend: 0x0, symName: __RNvMNtCs9PzovR4aYST_14thiserror_impl4propNtNtB4_3ast6Struct15backtrace_field, symObjAddr: 0x278C, symBinAddr: 0x4AF48, symSize: 0x38 }
  - { offset: 0x116C80, size: 0x8, addend: 0x0, symName: __RNvMNtCs9PzovR4aYST_14thiserror_impl4propNtNtB4_3ast6Struct24distinct_backtrace_field, symObjAddr: 0x27C4, symBinAddr: 0x4AF80, symSize: 0xA4 }
  - { offset: 0x116CE9, size: 0x8, addend: 0x0, symName: __RNvMs_NtCs9PzovR4aYST_14thiserror_impl4propNtNtB6_3ast4Enum10has_source, symObjAddr: 0x2868, symBinAddr: 0x4B024, symSize: 0x4C }
  - { offset: 0x116D0B, size: 0x8, addend: 0x0, symName: __RNvMs_NtCs9PzovR4aYST_14thiserror_impl4propNtNtB6_3ast4Enum13has_backtrace, symObjAddr: 0x28B4, symBinAddr: 0x4B070, symSize: 0x4C }
  - { offset: 0x116D2D, size: 0x8, addend: 0x0, symName: __RNvMs_NtCs9PzovR4aYST_14thiserror_impl4propNtNtB6_3ast4Enum11has_display, symObjAddr: 0x2900, symBinAddr: 0x4B0BC, symSize: 0x100 }
  - { offset: 0x116D5C, size: 0x8, addend: 0x0, symName: __RNvMs0_NtCs9PzovR4aYST_14thiserror_impl4propNtNtB7_3ast7Variant10from_field, symObjAddr: 0x2A00, symBinAddr: 0x4B1BC, symSize: 0x38 }
  - { offset: 0x116D7E, size: 0x8, addend: 0x0, symName: __RNvMs0_NtCs9PzovR4aYST_14thiserror_impl4propNtNtB7_3ast7Variant12source_field, symObjAddr: 0x2A38, symBinAddr: 0x4B1F4, symSize: 0x38 }
  - { offset: 0x116DA0, size: 0x8, addend: 0x0, symName: __RNvMs0_NtCs9PzovR4aYST_14thiserror_impl4propNtNtB7_3ast7Variant15backtrace_field, symObjAddr: 0x2A70, symBinAddr: 0x4B22C, symSize: 0x38 }
  - { offset: 0x116DC2, size: 0x8, addend: 0x0, symName: __RNvMs0_NtCs9PzovR4aYST_14thiserror_impl4propNtNtB7_3ast7Variant24distinct_backtrace_field, symObjAddr: 0x2AA8, symBinAddr: 0x4B264, symSize: 0xA4 }
  - { offset: 0x116E1E, size: 0x8, addend: 0x0, symName: __RNvMs1_NtCs9PzovR4aYST_14thiserror_impl4propNtNtB7_3ast5Field12is_backtrace, symObjAddr: 0x2B4C, symBinAddr: 0x4B308, symSize: 0x38 }
  - { offset: 0x116E6B, size: 0x8, addend: 0x0, symName: __RNvMs1_NtCs9PzovR4aYST_14thiserror_impl4propNtNtB7_3ast5Field11source_span, symObjAddr: 0x2B84, symBinAddr: 0x4B340, symSize: 0x14C }
  - { offset: 0x116F06, size: 0x8, addend: 0x0, symName: __RNvMNtCs9PzovR4aYST_14thiserror_impl5validNtNtB4_3ast5Input8validate, symObjAddr: 0x2CD0, symBinAddr: 0x4B48C, symSize: 0x90 }
  - { offset: 0x116F5A, size: 0x8, addend: 0x0, symName: __RNvMs_NtCs9PzovR4aYST_14thiserror_impl5validNtNtB6_3ast6Struct8validate, symObjAddr: 0x2D60, symBinAddr: 0x4B51C, symSize: 0x320 }
  - { offset: 0x11702B, size: 0x8, addend: 0x0, symName: __RNvMs0_NtCs9PzovR4aYST_14thiserror_impl5validNtNtB7_3ast4Enum8validate, symObjAddr: 0x30AC, symBinAddr: 0x4B868, symSize: 0x4C8 }
  - { offset: 0x117136, size: 0x8, addend: 0x0, symName: __RNvMs1_NtCs9PzovR4aYST_14thiserror_impl5validNtNtB7_3ast7Variant8validate, symObjAddr: 0x3574, symBinAddr: 0x4BD30, symSize: 0x30C }
  - { offset: 0x1171F2, size: 0x8, addend: 0x0, symName: __RNvMs2_NtCs9PzovR4aYST_14thiserror_impl5validNtNtB7_3ast5Field8validate, symObjAddr: 0x38AC, symBinAddr: 0x4C068, symSize: 0xB4 }
  - { offset: 0x117477, size: 0x8, addend: 0x0, symName: __RINvNtCsaNl6UpbT7bw_4core9panicking13panic_displayNtNtCsc29TF2YcYso_3syn5error5ErrorECs9PzovR4aYST_14thiserror_impl, symObjAddr: 0x0, symBinAddr: 0x4CDFC, symSize: 0x88 }
  - { offset: 0x11749B, size: 0x8, addend: 0x0, symName: __RNvNtCs9PzovR4aYST_14thiserror_impl9scan_expr4INIT, symObjAddr: 0x3AD8, symBinAddr: 0x255990, symSize: 0x0 }
  - { offset: 0x1176C0, size: 0x8, addend: 0x0, symName: __RNvNtCs9PzovR4aYST_14thiserror_impl9scan_expr7POSTFIX, symObjAddr: 0x4048, symBinAddr: 0x255F00, symSize: 0x0 }
  - { offset: 0x1176DA, size: 0x8, addend: 0x0, symName: __RNvNtCs9PzovR4aYST_14thiserror_impl9scan_expr5ASYNC, symObjAddr: 0x4228, symBinAddr: 0x2560E0, symSize: 0x0 }
  - { offset: 0x1176F4, size: 0x8, addend: 0x0, symName: __RNvNtCs9PzovR4aYST_14thiserror_impl9scan_expr5BLOCK, symObjAddr: 0x42B8, symBinAddr: 0x256170, symSize: 0x0 }
  - { offset: 0x11770E, size: 0x8, addend: 0x0, symName: __RNvNtCs9PzovR4aYST_14thiserror_impl9scan_expr11BREAK_LABEL, symObjAddr: 0x42E8, symBinAddr: 0x2561A0, symSize: 0x0 }
  - { offset: 0x117728, size: 0x8, addend: 0x0, symName: __RNvNtCs9PzovR4aYST_14thiserror_impl9scan_expr11BREAK_VALUE, symObjAddr: 0x4348, symBinAddr: 0x256200, symSize: 0x0 }
  - { offset: 0x117742, size: 0x8, addend: 0x0, symName: __RNvNtCs9PzovR4aYST_14thiserror_impl9scan_expr7CLOSURE, symObjAddr: 0x43D8, symBinAddr: 0x256290, symSize: 0x0 }
  - { offset: 0x11775C, size: 0x8, addend: 0x0, symName: __RNvNtCs9PzovR4aYST_14thiserror_impl9scan_expr12CLOSURE_ARGS, symObjAddr: 0x44F8, symBinAddr: 0x2563B0, symSize: 0x0 }
  - { offset: 0x117776, size: 0x8, addend: 0x0, symName: __RNvNtCs9PzovR4aYST_14thiserror_impl9scan_expr11CLOSURE_RET, symObjAddr: 0x4588, symBinAddr: 0x256440, symSize: 0x0 }
  - { offset: 0x117790, size: 0x8, addend: 0x0, symName: __RNvNtCs9PzovR4aYST_14thiserror_impl9scan_expr5CONST, symObjAddr: 0x45E8, symBinAddr: 0x2564A0, symSize: 0x0 }
  - { offset: 0x1177AA, size: 0x8, addend: 0x0, symName: __RNvNtCs9PzovR4aYST_14thiserror_impl9scan_expr8CONTINUE, symObjAddr: 0x4648, symBinAddr: 0x256500, symSize: 0x0 }
  - { offset: 0x1177C4, size: 0x8, addend: 0x0, symName: __RNvNtCs9PzovR4aYST_14thiserror_impl9scan_expr3DOT, symObjAddr: 0x46A8, symBinAddr: 0x256560, symSize: 0x0 }
  - { offset: 0x1177DE, size: 0x8, addend: 0x0, symName: __RNvNtCs9PzovR4aYST_14thiserror_impl9scan_expr3FOR, symObjAddr: 0x4738, symBinAddr: 0x2565F0, symSize: 0x0 }
  - { offset: 0x1177F8, size: 0x8, addend: 0x0, symName: __RNvNtCs9PzovR4aYST_14thiserror_impl9scan_expr7IF_ELSE, symObjAddr: 0x4798, symBinAddr: 0x256650, symSize: 0x0 }
  - { offset: 0x117812, size: 0x8, addend: 0x0, symName: __RNvNtCs9PzovR4aYST_14thiserror_impl9scan_expr7IF_THEN, symObjAddr: 0x47F8, symBinAddr: 0x2566B0, symSize: 0x0 }
  - { offset: 0x11782C, size: 0x8, addend: 0x0, symName: __RNvNtCs9PzovR4aYST_14thiserror_impl9scan_expr6METHOD, symObjAddr: 0x4858, symBinAddr: 0x256710, symSize: 0x0 }
  - { offset: 0x117846, size: 0x8, addend: 0x0, symName: __RNvNtCs9PzovR4aYST_14thiserror_impl9scan_expr4PATH, symObjAddr: 0x4888, symBinAddr: 0x256740, symSize: 0x0 }
  - { offset: 0x117860, size: 0x8, addend: 0x0, symName: __RNvNtCs9PzovR4aYST_14thiserror_impl9scan_expr7PATTERN, symObjAddr: 0x4948, symBinAddr: 0x256800, symSize: 0x0 }
  - { offset: 0x11787A, size: 0x8, addend: 0x0, symName: __RNvNtCs9PzovR4aYST_14thiserror_impl9scan_expr5RANGE, symObjAddr: 0x4C18, symBinAddr: 0x256AD0, symSize: 0x0 }
  - { offset: 0x117894, size: 0x8, addend: 0x0, symName: __RNvNtCs9PzovR4aYST_14thiserror_impl9scan_expr3RAW, symObjAddr: 0x4D38, symBinAddr: 0x256BF0, symSize: 0x0 }
  - { offset: 0x1178AE, size: 0x8, addend: 0x0, symName: __RNvNtCs9PzovR4aYST_14thiserror_impl9scan_expr9REFERENCE, symObjAddr: 0x4DC8, symBinAddr: 0x256C80, symSize: 0x0 }
  - { offset: 0x1178C8, size: 0x8, addend: 0x0, symName: __RNvNtCs9PzovR4aYST_14thiserror_impl9scan_expr6RETURN, symObjAddr: 0x4E58, symBinAddr: 0x256D10, symSize: 0x0 }
  - { offset: 0x1178D5, size: 0x8, addend: 0x0, symName: __RNvNtCs9PzovR4aYST_14thiserror_impl9scan_expr9scan_expr, symObjAddr: 0x2020, symBinAddr: 0x4EE1C, symSize: 0xD78 }
  - { offset: 0x117C39, size: 0x8, addend: 0x0, symName: __RNCNvNtCs9PzovR4aYST_14thiserror_impl9scan_expr9scan_expr0B5_, symObjAddr: 0x2D98, symBinAddr: 0x4FB94, symSize: 0x1E8 }
  - { offset: 0x117CC1, size: 0x8, addend: 0x0, symName: __RNCNvNtCs9PzovR4aYST_14thiserror_impl9scan_expr9scan_exprs_0B5_, symObjAddr: 0x2F80, symBinAddr: 0x4FD7C, symSize: 0x2C8 }
  - { offset: 0x117DDF, size: 0x8, addend: 0x0, symName: __RNCNvNtCs9PzovR4aYST_14thiserror_impl9scan_expr9scan_exprs0_0B5_, symObjAddr: 0x3248, symBinAddr: 0x50044, symSize: 0x108 }
  - { offset: 0x117E52, size: 0x8, addend: 0x0, symName: __RNCNvNtCs9PzovR4aYST_14thiserror_impl9scan_expr9scan_exprs1_0B5_, symObjAddr: 0x3350, symBinAddr: 0x5014C, symSize: 0x10C }
  - { offset: 0x11B638, size: 0x8, addend: 0x0, symName: __RINvNtCsaNl6UpbT7bw_4core9panicking13panic_displayNtNtCsc29TF2YcYso_3syn5error5ErrorECs9PzovR4aYST_14thiserror_impl, symObjAddr: 0x0, symBinAddr: 0x4CDFC, symSize: 0x88 }
  - { offset: 0x11B74C, size: 0x8, addend: 0x0, symName: __RINvNtNtNtNtCsaNl6UpbT7bw_4core5slice4sort6shared5pivot11median3_recRNtCshnvkK9b4wzu_11proc_macro25IdentNvYB14_NtNtBa_3cmp10PartialOrd2ltECs9PzovR4aYST_14thiserror_impl, symObjAddr: 0x88, symBinAddr: 0x4CE84, symSize: 0x1CC }
  - { offset: 0x11B946, size: 0x8, addend: 0x0, symName: __RINvNtNtNtNtCsaNl6UpbT7bw_4core5slice4sort6shared5pivot12choose_pivotRNtCshnvkK9b4wzu_11proc_macro25IdentNvYB15_NtNtBa_3cmp10PartialOrd2ltECs9PzovR4aYST_14thiserror_impl, symObjAddr: 0x254, symBinAddr: 0x4D050, symSize: 0x208 }
  - { offset: 0x11BB98, size: 0x8, addend: 0x0, symName: __RINvNtNtNtNtCsaNl6UpbT7bw_4core5slice4sort6shared9smallsort11insert_tailRNtCshnvkK9b4wzu_11proc_macro25IdentNvYB18_NtNtBa_3cmp10PartialOrd2ltECs9PzovR4aYST_14thiserror_impl, symObjAddr: 0x45C, symBinAddr: 0x4D258, symSize: 0x1A8 }
  - { offset: 0x11BCF2, size: 0x8, addend: 0x0, symName: __RINvNtNtNtNtCsaNl6UpbT7bw_4core5slice4sort6shared9smallsort12sort4_stableRNtCshnvkK9b4wzu_11proc_macro25IdentNvYB19_NtNtBa_3cmp10PartialOrd2ltECs9PzovR4aYST_14thiserror_impl, symObjAddr: 0x604, symBinAddr: 0x4D400, symSize: 0x5B0 }
  - { offset: 0x11C689, size: 0x8, addend: 0x0, symName: __RINvNtNtNtNtCsaNl6UpbT7bw_4core5slice4sort6shared9smallsort12sort8_stableRNtCshnvkK9b4wzu_11proc_macro25IdentNvYB19_NtNtBa_3cmp10PartialOrd2ltECs9PzovR4aYST_14thiserror_impl, symObjAddr: 0xBB4, symBinAddr: 0x4D9B0, symSize: 0x94 }
  - { offset: 0x11C838, size: 0x8, addend: 0x0, symName: __RINvNtNtNtNtCsaNl6UpbT7bw_4core5slice4sort6shared9smallsort19bidirectional_mergeRNtCshnvkK9b4wzu_11proc_macro25IdentNvYB1g_NtNtBa_3cmp10PartialOrd2ltECs9PzovR4aYST_14thiserror_impl, symObjAddr: 0xC48, symBinAddr: 0x4DA44, symSize: 0x558 }
  - { offset: 0x11CECC, size: 0x8, addend: 0x0, symName: __RINvNtNtNtNtCsaNl6UpbT7bw_4core5slice4sort6shared9smallsort25insertion_sort_shift_leftRNtCshnvkK9b4wzu_11proc_macro25IdentNvYB1m_NtNtBa_3cmp10PartialOrd2ltECs9PzovR4aYST_14thiserror_impl, symObjAddr: 0x11A0, symBinAddr: 0x4DF9C, symSize: 0xC4 }
  - { offset: 0x11D006, size: 0x8, addend: 0x0, symName: __RINvNtNtNtNtCsaNl6UpbT7bw_4core5slice4sort6shared9smallsort31small_sort_general_with_scratchRNtCshnvkK9b4wzu_11proc_macro25IdentNvYB1s_NtNtBa_3cmp10PartialOrd2ltECs9PzovR4aYST_14thiserror_impl, symObjAddr: 0x1264, symBinAddr: 0x4E060, symSize: 0x520 }
  - { offset: 0x11D4E3, size: 0x8, addend: 0x0, symName: __RNvXs5_NtNtNtNtCsaNl6UpbT7bw_4core5slice4sort6shared9smallsortINtB5_10CopyOnDropRNtCshnvkK9b4wzu_11proc_macro25IdentENtNtNtBd_3ops4drop4Drop4dropCs9PzovR4aYST_14thiserror_impl, symObjAddr: 0x1E90, symBinAddr: 0x4EC8C, symSize: 0x84 }
  - { offset: 0x11D73E, size: 0x8, addend: 0x0, symName: __RNvXs_NtNtCsaNl6UpbT7bw_4core5slice4iterRSTNtNtCs9PzovR4aYST_14thiserror_impl9scan_expr5InputNtBH_6ActionENtNtNtNtB8_4iter6traits7collect12IntoIterator9into_iterBJ_, symObjAddr: 0x1FC8, symBinAddr: 0x4EDC4, symSize: 0x58 }
  - { offset: 0x11DC3C, size: 0x8, addend: 0x0, symName: __RINvYINtNtNtCsaNl6UpbT7bw_4core3str4iter5SplitcENtNtNtNtBa_4iter6traits8iterator8Iterator3mapINtNtBa_6result6ResultNtNtCsc29TF2YcYso_3syn4expr5IndexNtNtB1T_5error5ErrorEINvB1T_9parse_strB1P_EECs9PzovR4aYST_14thiserror_impl, symObjAddr: 0x179C, symBinAddr: 0x4E598, symSize: 0x30 }
  - { offset: 0x11DECD, size: 0x8, addend: 0x0, symName: __RNvMsl_NtCsaNl6UpbT7bw_4core5arrayATNtNtCs9PzovR4aYST_14thiserror_impl9scan_expr5InputNtBA_6ActionEj1c_8as_sliceBC_, symObjAddr: 0x19D0, symBinAddr: 0x4E7CC, symSize: 0x1C }
  - { offset: 0x11DF1A, size: 0x8, addend: 0x0, symName: __RINvNtNtNtNtCsaNl6UpbT7bw_4core9core_arch10arm_shared4neon9generated13vget_lane_u64Kl0_ECs9PzovR4aYST_14thiserror_impl, symObjAddr: 0x1784, symBinAddr: 0x4E580, symSize: 0x18 }
  - { offset: 0x11DF49, size: 0x8, addend: 0x0, symName: __RNvNtNtNtNtCsaNl6UpbT7bw_4core9core_arch10arm_shared4neon9generated18vreinterpret_s8_u8Cs9PzovR4aYST_14thiserror_impl, symObjAddr: 0x1A98, symBinAddr: 0x4E894, symSize: 0xC }
  - { offset: 0x11DF77, size: 0x8, addend: 0x0, symName: __RNvNtNtNtNtCsaNl6UpbT7bw_4core9core_arch10arm_shared4neon9generated19vreinterpret_u64_u8Cs9PzovR4aYST_14thiserror_impl, symObjAddr: 0x1AA4, symBinAddr: 0x4E8A0, symSize: 0xC }
  - { offset: 0x11DFA5, size: 0x8, addend: 0x0, symName: __RNvNtNtNtNtCsaNl6UpbT7bw_4core9core_arch10arm_shared4neon9generated7vceq_u8Cs9PzovR4aYST_14thiserror_impl, symObjAddr: 0x1AB0, symBinAddr: 0x4E8AC, symSize: 0x14 }
  - { offset: 0x11DFE2, size: 0x8, addend: 0x0, symName: __RNvNtNtNtNtCsaNl6UpbT7bw_4core9core_arch10arm_shared4neon9generated7vorr_u8Cs9PzovR4aYST_14thiserror_impl, symObjAddr: 0x1AC4, symBinAddr: 0x4E8C0, symSize: 0x14 }
  - { offset: 0x11E01F, size: 0x8, addend: 0x0, symName: __RNvNtNtNtNtCsaNl6UpbT7bw_4core9core_arch10arm_shared4neon9generated9vdup_n_u8Cs9PzovR4aYST_14thiserror_impl, symObjAddr: 0x1AD8, symBinAddr: 0x4E8D4, symSize: 0x34 }
  - { offset: 0x11E108, size: 0x8, addend: 0x0, symName: __RNvNtNtNtNtCsaNl6UpbT7bw_4core9core_arch7aarch644neon9generated7vld1_u8Cs9PzovR4aYST_14thiserror_impl, symObjAddr: 0x1B0C, symBinAddr: 0x4E908, symSize: 0x34 }
  - { offset: 0x11E136, size: 0x8, addend: 0x0, symName: __RNvNtNtNtNtCsaNl6UpbT7bw_4core9core_arch7aarch644neon9generated7vst1_u8Cs9PzovR4aYST_14thiserror_impl, symObjAddr: 0x1B40, symBinAddr: 0x4E93C, symSize: 0x40 }
  - { offset: 0x11E170, size: 0x8, addend: 0x0, symName: __RNvNtNtNtNtCsaNl6UpbT7bw_4core9core_arch7aarch644neon9generated8vcgez_s8Cs9PzovR4aYST_14thiserror_impl, symObjAddr: 0x1B80, symBinAddr: 0x4E97C, symSize: 0x68 }
  - { offset: 0x11E212, size: 0x8, addend: 0x0, symName: __RNvNtNtNtNtCsaNl6UpbT7bw_4core9core_arch7aarch644neon9generated8vcltz_s8Cs9PzovR4aYST_14thiserror_impl, symObjAddr: 0x1BE8, symBinAddr: 0x4E9E4, symSize: 0x68 }
  - { offset: 0x11E3CB, size: 0x8, addend: 0x0, symName: __RNvXNtNtCsaNl6UpbT7bw_4core3str4iterNtB2_5CharsNtNtNtNtB6_4iter6traits8iterator8Iterator4nextCs9PzovR4aYST_14thiserror_impl, symObjAddr: 0x1C50, symBinAddr: 0x4EA4C, symSize: 0x80 }
  - { offset: 0x11E4AD, size: 0x8, addend: 0x0, symName: __RNvXs0_NtNtCsaNl6UpbT7bw_4core3str4iterNtB5_5CharsNtNtNtNtB9_4iter6traits12double_ended19DoubleEndedIterator9next_backCs9PzovR4aYST_14thiserror_impl, symObjAddr: 0x1CD0, symBinAddr: 0x4EACC, symSize: 0x80 }
  - { offset: 0x11E55F, size: 0x8, addend: 0x0, symName: __RNvXs3_NtNtCsaNl6UpbT7bw_4core3str4iterNtB5_11CharIndicesNtNtNtNtB9_4iter6traits8iterator8Iterator4nextCs9PzovR4aYST_14thiserror_impl, symObjAddr: 0x1D60, symBinAddr: 0x4EB5C, symSize: 0x130 }
  - { offset: 0x1249CA, size: 0x8, addend: 0x0, symName: __RNvXs_NtCsiTraAjBDcu4_5alloc5allocNtB4_6GlobalNtNtCsaNl6UpbT7bw_4core5alloc9Allocator10deallocateCs9PzovR4aYST_14thiserror_impl, symObjAddr: 0x1F14, symBinAddr: 0x4ED10, symSize: 0x80 }
  - { offset: 0x124A91, size: 0x8, addend: 0x0, symName: __RNvXs_NtCsiTraAjBDcu4_5alloc5allocNtB4_6GlobalNtNtCsaNl6UpbT7bw_4core5alloc9Allocator8allocateCs9PzovR4aYST_14thiserror_impl, symObjAddr: 0x1F94, symBinAddr: 0x4ED90, symSize: 0x34 }
  - { offset: 0x124ACC, size: 0x8, addend: 0x0, symName: __RNvNtCsiTraAjBDcu4_5alloc5alloc15exchange_mallocCs9PzovR4aYST_14thiserror_impl, symObjAddr: 0x19EC, symBinAddr: 0x4E7E8, symSize: 0xAC }
  - { offset: 0x124B68, size: 0x8, addend: 0x0, symName: __RNvXs1_NtCsiTraAjBDcu4_5alloc5allocNtB5_6GlobalNtNtCsaNl6UpbT7bw_4core5clone5Clone5cloneCs9PzovR4aYST_14thiserror_impl, symObjAddr: 0x1D50, symBinAddr: 0x4EB4C, symSize: 0x10 }
  - { offset: 0x1255FB, size: 0x8, addend: 0x0, symName: __RNvMNtCsiTraAjBDcu4_5alloc5allocNtB2_6Global10alloc_implCs9PzovR4aYST_14thiserror_impl, symObjAddr: 0x17CC, symBinAddr: 0x4E5C8, symSize: 0x204 }
  - { offset: 0x126261, size: 0x8, addend: 0x0, symName: __RINvMNtCsc29TF2YcYso_3syn5errorNtB3_5Error11new_spannedINtNtCsaNl6UpbT7bw_4core6option6OptionRNtNtB5_4attr9AttributeEReECs9PzovR4aYST_14thiserror_impl, symObjAddr: 0x0, symBinAddr: 0x50258, symSize: 0xC4 }
  - { offset: 0x126759, size: 0x8, addend: 0x0, symName: __RNCNCNvXsx_NtCsc29TF2YcYso_3syn10punctuatedINtB9_11PrivateIterNtNtBb_4data7VariantNtNtBb_5token5CommaENtNtNtNtCsaNl6UpbT7bw_4core4iter6traits12double_ended19DoubleEndedIterator9next_back00Cs9PzovR4aYST_14thiserror_impl, symObjAddr: 0x105C, symBinAddr: 0x512B4, symSize: 0x24 }
  - { offset: 0x1267A4, size: 0x8, addend: 0x0, symName: __RNCNCNvXsx_NtCsc29TF2YcYso_3syn10punctuatedINtB9_11PrivateIterNtNtBb_4path15GenericArgumentNtNtBb_5token5CommaENtNtNtNtCsaNl6UpbT7bw_4core4iter6traits12double_ended19DoubleEndedIterator9next_back00Cs9PzovR4aYST_14thiserror_impl, symObjAddr: 0x1080, symBinAddr: 0x512D8, symSize: 0x24 }
  - { offset: 0x1267FE, size: 0x8, addend: 0x0, symName: __RNCNvXsx_NtCsc29TF2YcYso_3syn10punctuatedINtB7_11PrivateIterNtNtB9_4data7VariantNtNtB9_5token5CommaENtNtNtNtCsaNl6UpbT7bw_4core4iter6traits12double_ended19DoubleEndedIterator9next_back0Cs9PzovR4aYST_14thiserror_impl, symObjAddr: 0x1250, symBinAddr: 0x514A8, symSize: 0x38 }
  - { offset: 0x126840, size: 0x8, addend: 0x0, symName: __RNCNvXsx_NtCsc29TF2YcYso_3syn10punctuatedINtB7_11PrivateIterNtNtB9_4path15GenericArgumentNtNtB9_5token5CommaENtNtNtNtCsaNl6UpbT7bw_4core4iter6traits12double_ended19DoubleEndedIterator9next_back0Cs9PzovR4aYST_14thiserror_impl, symObjAddr: 0x1288, symBinAddr: 0x514E0, symSize: 0x38 }
  - { offset: 0x126883, size: 0x8, addend: 0x0, symName: __RNvXsx_NtCsc29TF2YcYso_3syn10punctuatedINtB5_11PrivateIterNtNtB7_4data7VariantNtNtB7_5token5CommaENtNtNtNtCsaNl6UpbT7bw_4core4iter6traits12double_ended19DoubleEndedIterator9next_backCs9PzovR4aYST_14thiserror_impl, symObjAddr: 0x33A0, symBinAddr: 0x535F8, symSize: 0x40 }
  - { offset: 0x1268C3, size: 0x8, addend: 0x0, symName: __RNvXsx_NtCsc29TF2YcYso_3syn10punctuatedINtB5_11PrivateIterNtNtB7_4path15GenericArgumentNtNtB7_5token5CommaENtNtNtNtCsaNl6UpbT7bw_4core4iter6traits12double_ended19DoubleEndedIterator9next_backCs9PzovR4aYST_14thiserror_impl, symObjAddr: 0x33E0, symBinAddr: 0x53638, symSize: 0x40 }
  - { offset: 0x12690E, size: 0x8, addend: 0x0, symName: __RNCNvXsc_NtCsc29TF2YcYso_3syn10punctuatedINtB7_5PairsNtCshnvkK9b4wzu_11proc_macro211TokenStreamNtNtB9_5token4PlusENtNtNtNtCsaNl6UpbT7bw_4core4iter6traits8iterator8Iterator4next0Cs9PzovR4aYST_14thiserror_impl, symObjAddr: 0x1120, symBinAddr: 0x51378, symSize: 0x40 }
  - { offset: 0x126983, size: 0x8, addend: 0x0, symName: __RNCNvXsc_NtCsc29TF2YcYso_3syn10punctuatedINtB7_5PairsNtCshnvkK9b4wzu_11proc_macro211TokenStreamNtNtB9_5token4PlusENtNtNtNtCsaNl6UpbT7bw_4core4iter6traits8iterator8Iterator4nexts_0Cs9PzovR4aYST_14thiserror_impl, symObjAddr: 0x1160, symBinAddr: 0x513B8, symSize: 0x40 }
  - { offset: 0x1269CD, size: 0x8, addend: 0x0, symName: __RNvXsc_NtCsc29TF2YcYso_3syn10punctuatedINtB5_5PairsNtCshnvkK9b4wzu_11proc_macro211TokenStreamNtNtB7_5token4PlusENtNtNtNtCsaNl6UpbT7bw_4core4iter6traits8iterator8Iterator4nextCs9PzovR4aYST_14thiserror_impl, symObjAddr: 0x3084, symBinAddr: 0x532DC, symSize: 0x58 }
  - { offset: 0x126A18, size: 0x8, addend: 0x0, symName: __RNCNvXsw_NtCsc29TF2YcYso_3syn10punctuatedINtB7_11PrivateIterNtNtB9_4data7VariantNtNtB9_5token5CommaENtNtNtNtCsaNl6UpbT7bw_4core4iter6traits8iterator8Iterator4next0Cs9PzovR4aYST_14thiserror_impl, symObjAddr: 0x11A0, symBinAddr: 0x513F8, symSize: 0x24 }
  - { offset: 0x126A63, size: 0x8, addend: 0x0, symName: __RNCNvXsw_NtCsc29TF2YcYso_3syn10punctuatedINtB7_11PrivateIterNtNtB9_4data7VariantNtNtB9_5token5CommaENtNtNtNtCsaNl6UpbT7bw_4core4iter6traits8iterator8Iterator4nexts_0Cs9PzovR4aYST_14thiserror_impl, symObjAddr: 0x11C4, symBinAddr: 0x5141C, symSize: 0x34 }
  - { offset: 0x126AA5, size: 0x8, addend: 0x0, symName: __RNCNvXsw_NtCsc29TF2YcYso_3syn10punctuatedINtB7_11PrivateIterNtNtB9_4path15GenericArgumentNtNtB9_5token5CommaENtNtNtNtCsaNl6UpbT7bw_4core4iter6traits8iterator8Iterator4next0Cs9PzovR4aYST_14thiserror_impl, symObjAddr: 0x11F8, symBinAddr: 0x51450, symSize: 0x24 }
  - { offset: 0x126AF0, size: 0x8, addend: 0x0, symName: __RNCNvXsw_NtCsc29TF2YcYso_3syn10punctuatedINtB7_11PrivateIterNtNtB9_4path15GenericArgumentNtNtB9_5token5CommaENtNtNtNtCsaNl6UpbT7bw_4core4iter6traits8iterator8Iterator4nexts_0Cs9PzovR4aYST_14thiserror_impl, symObjAddr: 0x121C, symBinAddr: 0x51474, symSize: 0x34 }
  - { offset: 0x126B41, size: 0x8, addend: 0x0, symName: __RNvXsw_NtCsc29TF2YcYso_3syn10punctuatedINtB5_11PrivateIterNtNtB7_4data7VariantNtNtB7_5token5CommaENtNtNtNtCsaNl6UpbT7bw_4core4iter6traits8iterator8Iterator4nextCs9PzovR4aYST_14thiserror_impl, symObjAddr: 0x32F4, symBinAddr: 0x5354C, symSize: 0x44 }
  - { offset: 0x126B81, size: 0x8, addend: 0x0, symName: __RNvXsw_NtCsc29TF2YcYso_3syn10punctuatedINtB5_11PrivateIterNtNtB7_4path15GenericArgumentNtNtB7_5token5CommaENtNtNtNtCsaNl6UpbT7bw_4core4iter6traits8iterator8Iterator4nextCs9PzovR4aYST_14thiserror_impl, symObjAddr: 0x3338, symBinAddr: 0x53590, symSize: 0x44 }
  - { offset: 0x126BCC, size: 0x8, addend: 0x0, symName: __RNcNtINtNtCsc29TF2YcYso_3syn10punctuated4PairRNtCshnvkK9b4wzu_11proc_macro211TokenStreamRNtNtB8_5token4PlusE3End0Cs9PzovR4aYST_14thiserror_impl, symObjAddr: 0x12C0, symBinAddr: 0x51518, symSize: 0x1C }
  - { offset: 0x126D80, size: 0x8, addend: 0x0, symName: __RNvXNtNtCsc29TF2YcYso_3syn10punctuated8printingINtB4_10PunctuatedNtCshnvkK9b4wzu_11proc_macro211TokenStreamNtNtB6_5token4PlusENtNtCs4EAaWzSXu1l_5quote9to_tokens8ToTokens9to_tokensCs9PzovR4aYST_14thiserror_impl, symObjAddr: 0x2924, symBinAddr: 0x52B7C, symSize: 0x50 }
  - { offset: 0x126DD1, size: 0x8, addend: 0x0, symName: __RNvXs_NtNtCsc29TF2YcYso_3syn10punctuated8printingINtB6_4PairRNtCshnvkK9b4wzu_11proc_macro211TokenStreamRNtNtB8_5token4PlusENtNtCs4EAaWzSXu1l_5quote9to_tokens8ToTokens9to_tokensCs9PzovR4aYST_14thiserror_impl, symObjAddr: 0x2E94, symBinAddr: 0x530EC, symSize: 0xB4 }
  - { offset: 0x126E67, size: 0x8, addend: 0x0, symName: __RNvXs9_NtCsc29TF2YcYso_3syn10punctuatedRINtB5_10PunctuatedNtNtB7_4path11PathSegmentNtNtB7_5token7PathSepENtNtNtNtCsaNl6UpbT7bw_4core4iter6traits7collect12IntoIterator9into_iterCs9PzovR4aYST_14thiserror_impl, symObjAddr: 0x2A64, symBinAddr: 0x52CBC, symSize: 0x34 }
  - { offset: 0x126EA7, size: 0x8, addend: 0x0, symName: __RNvXs9_NtCsc29TF2YcYso_3syn10punctuatedRINtB5_10PunctuatedNtNtB7_4path15GenericArgumentNtNtB7_5token5CommaENtNtNtNtCsaNl6UpbT7bw_4core4iter6traits7collect12IntoIterator9into_iterCs9PzovR4aYST_14thiserror_impl, symObjAddr: 0x2A98, symBinAddr: 0x52CF0, symSize: 0x34 }
  - { offset: 0x126EED, size: 0x8, addend: 0x0, symName: __RNvXsA_NtCsc29TF2YcYso_3syn10punctuatedINtB5_11PrivateIterNtNtB7_4data7VariantNtNtB7_5token5CommaEINtB5_9IterTraitBU_E9clone_boxCs9PzovR4aYST_14thiserror_impl, symObjAddr: 0x2ACC, symBinAddr: 0x52D24, symSize: 0x94 }
  - { offset: 0x126F4B, size: 0x8, addend: 0x0, symName: __RNvXsA_NtCsc29TF2YcYso_3syn10punctuatedINtB5_11PrivateIterNtNtB7_4path15GenericArgumentNtNtB7_5token5CommaEINtB5_9IterTraitBU_E9clone_boxCs9PzovR4aYST_14thiserror_impl, symObjAddr: 0x2B60, symBinAddr: 0x52DB8, symSize: 0x94 }
  - { offset: 0x126FAF, size: 0x8, addend: 0x0, symName: __RNvXsN_NtCsc29TF2YcYso_3syn10punctuatedINtB5_10PunctuatedNtNtB7_4path15GenericArgumentNtNtB7_5token5CommaEINtNtNtCsaNl6UpbT7bw_4core3ops5index5IndexjE5indexCs9PzovR4aYST_14thiserror_impl, symObjAddr: 0x2C6C, symBinAddr: 0x52EC4, symSize: 0x174 }
  - { offset: 0x12701A, size: 0x8, addend: 0x0, symName: __RNvXsb_NtCsc29TF2YcYso_3syn10punctuatedINtB5_10PunctuatedNtCshnvkK9b4wzu_11proc_macro211TokenStreamNtNtB7_5token4PlusENtNtCsaNl6UpbT7bw_4core7default7Default7defaultCs9PzovR4aYST_14thiserror_impl, symObjAddr: 0x3060, symBinAddr: 0x532B8, symSize: 0x24 }
  - { offset: 0x127051, size: 0x8, addend: 0x0, symName: __RNvXst_NtCsc29TF2YcYso_3syn10punctuatedINtB5_4IterNtNtB7_4data5FieldENtNtNtNtCsaNl6UpbT7bw_4core4iter6traits8iterator8Iterator9size_hintCs9PzovR4aYST_14thiserror_impl, symObjAddr: 0x30DC, symBinAddr: 0x53334, symSize: 0x7C }
  - { offset: 0x127088, size: 0x8, addend: 0x0, symName: __RNvXst_NtCsc29TF2YcYso_3syn10punctuatedINtB5_4IterNtNtB7_4data7VariantENtNtNtNtCsaNl6UpbT7bw_4core4iter6traits8iterator8Iterator4nextCs9PzovR4aYST_14thiserror_impl, symObjAddr: 0x3158, symBinAddr: 0x533B0, symSize: 0x48 }
  - { offset: 0x1270BF, size: 0x8, addend: 0x0, symName: __RNvXst_NtCsc29TF2YcYso_3syn10punctuatedINtB5_4IterNtNtB7_4data7VariantENtNtNtNtCsaNl6UpbT7bw_4core4iter6traits8iterator8Iterator9size_hintCs9PzovR4aYST_14thiserror_impl, symObjAddr: 0x31A0, symBinAddr: 0x533F8, symSize: 0x7C }
  - { offset: 0x1270F6, size: 0x8, addend: 0x0, symName: __RNvXst_NtCsc29TF2YcYso_3syn10punctuatedINtB5_4IterNtNtB7_4path15GenericArgumentENtNtNtNtCsaNl6UpbT7bw_4core4iter6traits8iterator8Iterator4nextCs9PzovR4aYST_14thiserror_impl, symObjAddr: 0x321C, symBinAddr: 0x53474, symSize: 0x48 }
  - { offset: 0x127133, size: 0x8, addend: 0x0, symName: __RNvXsv_NtCsc29TF2YcYso_3syn10punctuatedINtB5_4IterNtNtB7_4data5FieldENtNtNtNtCsaNl6UpbT7bw_4core4iter6traits10exact_size17ExactSizeIterator3lenCs9PzovR4aYST_14thiserror_impl, symObjAddr: 0x3264, symBinAddr: 0x534BC, symSize: 0x48 }
  - { offset: 0x12716A, size: 0x8, addend: 0x0, symName: __RNvXsv_NtCsc29TF2YcYso_3syn10punctuatedINtB5_4IterNtNtB7_4data7VariantENtNtNtNtCsaNl6UpbT7bw_4core4iter6traits10exact_size17ExactSizeIterator3lenCs9PzovR4aYST_14thiserror_impl, symObjAddr: 0x32AC, symBinAddr: 0x53504, symSize: 0x48 }
  - { offset: 0x1271A7, size: 0x8, addend: 0x0, symName: __RNvXsy_NtCsc29TF2YcYso_3syn10punctuatedINtB5_11PrivateIterNtNtB7_4data7VariantNtNtB7_5token5CommaENtNtNtNtCsaNl6UpbT7bw_4core4iter6traits10exact_size17ExactSizeIterator3lenCs9PzovR4aYST_14thiserror_impl, symObjAddr: 0x3514, symBinAddr: 0x5376C, symSize: 0x94 }
  - { offset: 0x12721B, size: 0x8, addend: 0x0, symName: __RNvXsy_NtCsc29TF2YcYso_3syn10punctuatedINtB5_11PrivateIterNtNtB7_4path15GenericArgumentNtNtB7_5token5CommaENtNtNtNtCsaNl6UpbT7bw_4core4iter6traits10exact_size17ExactSizeIterator3lenCs9PzovR4aYST_14thiserror_impl, symObjAddr: 0x35A8, symBinAddr: 0x53800, symSize: 0x94 }
  - { offset: 0x127295, size: 0x8, addend: 0x0, symName: __RNvXsz_NtCsc29TF2YcYso_3syn10punctuatedINtB5_11PrivateIterNtNtB7_4data7VariantNtNtB7_5token5CommaENtNtCsaNl6UpbT7bw_4core5clone5Clone5cloneCs9PzovR4aYST_14thiserror_impl, symObjAddr: 0x363C, symBinAddr: 0x53894, symSize: 0x68 }
  - { offset: 0x1272D5, size: 0x8, addend: 0x0, symName: __RNvXsz_NtCsc29TF2YcYso_3syn10punctuatedINtB5_11PrivateIterNtNtB7_4path15GenericArgumentNtNtB7_5token5CommaENtNtCsaNl6UpbT7bw_4core5clone5Clone5cloneCs9PzovR4aYST_14thiserror_impl, symObjAddr: 0x36A4, symBinAddr: 0x538FC, symSize: 0x68 }
  - { offset: 0x12CE28, size: 0x8, addend: 0x0, symName: __RNvXsw_NtCsiTraAjBDcu4_5alloc6stringNtCshnvkK9b4wzu_11proc_macro211TokenStreamNtB5_8ToString9to_stringCs9PzovR4aYST_14thiserror_impl, symObjAddr: 0x337C, symBinAddr: 0x535D4, symSize: 0x24 }
  - { offset: 0x12CE65, size: 0x8, addend: 0x0, symName: __RNvXsx_NtCsiTraAjBDcu4_5alloc6stringNtCshnvkK9b4wzu_11proc_macro211TokenStreamNtB5_12SpecToString14spec_to_stringCs9PzovR4aYST_14thiserror_impl, symObjAddr: 0x3420, symBinAddr: 0x53678, symSize: 0xF4 }
  - { offset: 0x12D882, size: 0x8, addend: 0x0, symName: __RINvXs4_CshnvkK9b4wzu_11proc_macro2NtB6_11TokenStreamINtNtNtNtCsaNl6UpbT7bw_4core4iter6traits7collect6ExtendNtB6_9TokenTreeE6extendBx_ECs9PzovR4aYST_14thiserror_impl, symObjAddr: 0x840, symBinAddr: 0x50A98, symSize: 0x34 }
  - { offset: 0x12D8CB, size: 0x8, addend: 0x0, symName: __RINvXs6_CshnvkK9b4wzu_11proc_macro2NtB6_11TokenStreamINtNtNtNtCsaNl6UpbT7bw_4core4iter6traits7collect12FromIteratorNtB6_9TokenTreeE9from_iterINtNtCsiTraAjBDcu4_5alloc3vec3VecB1P_EECs9PzovR4aYST_14thiserror_impl, symObjAddr: 0x874, symBinAddr: 0x50ACC, symSize: 0x54 }
  - { offset: 0x12D909, size: 0x8, addend: 0x0, symName: __RINvXsz_CshnvkK9b4wzu_11proc_macro2NtB6_5IdentNtNtCsaNl6UpbT7bw_4core4hash4Hash4hashNtNtNtCsht3nMU9UgFu_3std4hash6random13DefaultHasherECs9PzovR4aYST_14thiserror_impl, symObjAddr: 0x8C8, symBinAddr: 0x50B20, symSize: 0x84 }
  - { offset: 0x12D951, size: 0x8, addend: 0x0, symName: __RNvXsG_CshnvkK9b4wzu_11proc_macro2NtB5_11TokenStreamNtNtCsaNl6UpbT7bw_4core5clone5Clone5cloneCs9PzovR4aYST_14thiserror_impl, symObjAddr: 0x2BF4, symBinAddr: 0x52E4C, symSize: 0x78 }
  - { offset: 0x12D983, size: 0x8, addend: 0x0, symName: __RNvXsX_CshnvkK9b4wzu_11proc_macro2NtB5_7SpacingNtNtCsaNl6UpbT7bw_4core3cmp9PartialEq2eqCs9PzovR4aYST_14thiserror_impl, symObjAddr: 0x2DE0, symBinAddr: 0x53038, symSize: 0x3C }
  - { offset: 0x12DA02, size: 0x8, addend: 0x0, symName: __RNvXsY_CshnvkK9b4wzu_11proc_macro2NtB5_5IdentNtNtCsaNl6UpbT7bw_4core5clone5Clone5cloneCs9PzovR4aYST_14thiserror_impl, symObjAddr: 0x2E1C, symBinAddr: 0x53074, symSize: 0x78 }
  - { offset: 0x12EB67, size: 0x8, addend: 0x0, symName: __RNvNvMNtNtCsaNl6UpbT7bw_4core3ptr9const_ptrPp20offset_from_unsigned18precondition_checkCs9PzovR4aYST_14thiserror_impl, symObjAddr: 0x272C, symBinAddr: 0x52984, symSize: 0xAC }
  - { offset: 0x131337, size: 0x8, addend: 0x0, symName: __RNvMNtCsaNl6UpbT7bw_4core5sliceSNtCshnvkK9b4wzu_11proc_macro211TokenStream4iterCs9PzovR4aYST_14thiserror_impl, symObjAddr: 0x12DC, symBinAddr: 0x51534, symSize: 0x28 }
  - { offset: 0x131395, size: 0x8, addend: 0x0, symName: __RNvMNtCsaNl6UpbT7bw_4core5sliceSRNtCshnvkK9b4wzu_11proc_macro25Ident22split_at_mut_uncheckedCs9PzovR4aYST_14thiserror_impl, symObjAddr: 0x1304, symBinAddr: 0x5155C, symSize: 0xF8 }
  - { offset: 0x131535, size: 0x8, addend: 0x0, symName: __RNvMNtCsaNl6UpbT7bw_4core5sliceSRNtCshnvkK9b4wzu_11proc_macro25Ident7reverseCs9PzovR4aYST_14thiserror_impl, symObjAddr: 0x13FC, symBinAddr: 0x51654, symSize: 0x10C }
  - { offset: 0x1316C5, size: 0x8, addend: 0x0, symName: __RNvMNtCsaNl6UpbT7bw_4core5sliceSTNtCshnvkK9b4wzu_11proc_macro211TokenStreamNtNtCsc29TF2YcYso_3syn5token4PlusE4iterCs9PzovR4aYST_14thiserror_impl, symObjAddr: 0x1508, symBinAddr: 0x51760, symSize: 0x28 }
  - { offset: 0x131777, size: 0x8, addend: 0x0, symName: __RNvXs0_NtNtNtNtCsaNl6UpbT7bw_4core5slice4sort6stable9quicksortRNtCshnvkK9b4wzu_11proc_macro25IdentNtB5_8IsFreeze9is_freezeCs9PzovR4aYST_14thiserror_impl, symObjAddr: 0x29A4, symBinAddr: 0x52BFC, symSize: 0xC }
  - { offset: 0x131807, size: 0x8, addend: 0x0, symName: __RNvXs7_NtNtCsaNl6UpbT7bw_4core3cmp5implsRNtCshnvkK9b4wzu_11proc_macro25IdentNtB7_9PartialEq2neCs9PzovR4aYST_14thiserror_impl, symObjAddr: 0x29FC, symBinAddr: 0x52C54, symSize: 0x34 }
  - { offset: 0x13185C, size: 0x8, addend: 0x0, symName: __RNvXs8_NtNtCsaNl6UpbT7bw_4core3cmp5implsRNtCshnvkK9b4wzu_11proc_macro25IdentNtB7_10PartialOrd2ltCs9PzovR4aYST_14thiserror_impl, symObjAddr: 0x2A30, symBinAddr: 0x52C88, symSize: 0x34 }
  - { offset: 0x13190C, size: 0x8, addend: 0x0, symName: __RNvYNtCshnvkK9b4wzu_11proc_macro25IdentINtNtCsaNl6UpbT7bw_4core3cmp9PartialEqReE2neCs9PzovR4aYST_14thiserror_impl, symObjAddr: 0x3D48, symBinAddr: 0x53FA0, symSize: 0x30 }
  - { offset: 0x13195B, size: 0x8, addend: 0x0, symName: __RNvYNtCshnvkK9b4wzu_11proc_macro25IdentNtNtCsaNl6UpbT7bw_4core3cmp9PartialEq2neCs9PzovR4aYST_14thiserror_impl, symObjAddr: 0x3DE8, symBinAddr: 0x54040, symSize: 0x30 }
  - { offset: 0x1319B0, size: 0x8, addend: 0x0, symName: __RNvYNtCshnvkK9b4wzu_11proc_macro25IdentNtNtCsaNl6UpbT7bw_4core3cmp10PartialOrd2ltCs9PzovR4aYST_14thiserror_impl, symObjAddr: 0x3D78, symBinAddr: 0x53FD0, symSize: 0x70 }
  - { offset: 0x131FC7, size: 0x8, addend: 0x0, symName: __RINvYINtNtCsc29TF2YcYso_3syn10punctuated11PrivateIterNtNtB8_4data7VariantNtNtB8_5token5CommaENtNtNtNtCsaNl6UpbT7bw_4core4iter6traits8iterator8Iterator8try_foldINtNtNtB1B_3num7nonzero7NonZerojENCNvXs_NvB1t_10advance_byB3_NtB3b_13SpecAdvanceBy15spec_advance_by0INtNtB1B_6option6OptionB2x_EECs9PzovR4aYST_14thiserror_impl, symObjAddr: 0x94C, symBinAddr: 0x50BA4, symSize: 0x154 }
  - { offset: 0x13207B, size: 0x8, addend: 0x0, symName: __RINvYINtNtCsc29TF2YcYso_3syn10punctuated11PrivateIterNtNtB8_4path15GenericArgumentNtNtB8_5token5CommaENtNtNtNtCsaNl6UpbT7bw_4core4iter6traits8iterator8Iterator8try_foldINtNtNtB1K_3num7nonzero7NonZerojENCNvXs_NvB1C_10advance_byB3_NtB3k_13SpecAdvanceBy15spec_advance_by0INtNtB1K_6option6OptionB2G_EECs9PzovR4aYST_14thiserror_impl, symObjAddr: 0xAA0, symBinAddr: 0x50CF8, symSize: 0x154 }
  - { offset: 0x13212F, size: 0x8, addend: 0x0, symName: __RINvYINtNtCsc29TF2YcYso_3syn10punctuated4IterNtNtB8_4data5FieldENtNtNtNtCsaNl6UpbT7bw_4core4iter6traits8iterator8Iterator8try_folduNCINvNvXs_NtNtB16_8adapters9enumerateINtB2f_9EnumeratepEB10_8try_fold9enumerateRBH_uINtNtNtB18_3ops12control_flow11ControlFlowIB3s_NtNtCs9PzovR4aYST_14thiserror_impl3ast5FieldEENCINvNtB2h_3map12map_try_foldTjB3m_EINtNtB18_6result6ResultB4c_NtNtB8_5error5ErrorEuB3r_NCNvMs2_B4e_B4c_17multiple_from_syn0NCINvXB2h_INtB2h_12GenericShuntINtB51_3MapIB2H_B3_EB6m_EIB5x_NtNtB18_7convert10InfallibleB5X_EEB10_8try_folduNCINvNvB10_12try_for_each4callB4c_B47_NcNtB47_5Break0E0B47_E0E0E0B3r_EB4g_, symObjAddr: 0xBF4, symBinAddr: 0x50E4C, symSize: 0x148 }
  - { offset: 0x1321EB, size: 0x8, addend: 0x0, symName: __RINvYINtNtCsc29TF2YcYso_3syn10punctuated4IterNtNtB8_4data7VariantENtNtNtNtCsaNl6UpbT7bw_4core4iter6traits8iterator8Iterator3mapINtNtB1a_6result6ResultNtNtCs9PzovR4aYST_14thiserror_impl3ast7VariantNtNtB8_5error5ErrorENCNvMs0_B2q_NtB2q_4Enum8from_syn0EB2s_, symObjAddr: 0xD3C, symBinAddr: 0x50F94, symSize: 0x34 }
  - { offset: 0x132258, size: 0x8, addend: 0x0, symName: __RINvYINtNtCsc29TF2YcYso_3syn10punctuated4IterNtNtB8_4data7VariantENtNtNtNtCsaNl6UpbT7bw_4core4iter6traits8iterator8Iterator8try_folduNCINvNtNtB18_8adapters3map12map_try_foldRBH_INtNtB1a_6result6ResultNtNtCs9PzovR4aYST_14thiserror_impl3ast7VariantNtNtB8_5error5ErrorEuINtNtNtB1a_3ops12control_flow11ControlFlowIB4i_B3c_EENCNvMs0_B3e_NtB3e_4Enum8from_syn0NCINvXB2e_INtB2e_12GenericShuntINtB2c_3MapB3_B58_EIB2Q_NtNtB1a_7convert10InfallibleB3W_EEB12_8try_folduNCINvNvB12_12try_for_each4callB3c_B4X_NcNtB4X_5Break0E0B4X_E0E0B4h_EB3g_, symObjAddr: 0xD70, symBinAddr: 0x50FC8, symSize: 0x148 }
  - { offset: 0x13231E, size: 0x8, addend: 0x0, symName: __RNCINvNvNtNtNtNtCsaNl6UpbT7bw_4core4iter6traits8iterator8Iterator12try_for_each4callNtNtCs9PzovR4aYST_14thiserror_impl3ast5FieldINtNtNtBe_3ops12control_flow11ControlFlowB1k_ENcNtB22_5Break0E0B1o_, symObjAddr: 0xF54, symBinAddr: 0x511AC, symSize: 0x48 }
  - { offset: 0x132384, size: 0x8, addend: 0x0, symName: __RNCINvNvNtNtNtNtCsaNl6UpbT7bw_4core4iter6traits8iterator8Iterator12try_for_each4callNtNtCs9PzovR4aYST_14thiserror_impl3ast7VariantINtNtNtBe_3ops12control_flow11ControlFlowB1k_ENcNtB24_5Break0E0B1o_, symObjAddr: 0xF9C, symBinAddr: 0x511F4, symSize: 0x48 }
  - { offset: 0x13241C, size: 0x8, addend: 0x0, symName: __RNCINvNvNtNtNtNtCsaNl6UpbT7bw_4core4iter6traits8iterator8Iterator8for_each4callNtCshnvkK9b4wzu_11proc_macro211TokenStreamNCINvMsi_NtCsiTraAjBDcu4_5alloc3vecINtB24_3VecB1f_E14extend_trustedINtNtNtBc_8adapters3map3MapINtNtNtBe_5slice4iter4IterNtNtCs9PzovR4aYST_14thiserror_impl3ast7VariantENCNvNtB3V_6expand9impl_enums1_0EE0E0B3V_, symObjAddr: 0xFE4, symBinAddr: 0x5123C, symSize: 0x3C }
  - { offset: 0x132475, size: 0x8, addend: 0x0, symName: __RNCINvNvNtNtNtNtCsaNl6UpbT7bw_4core4iter6traits8iterator8Iterator8for_each4callNtCshnvkK9b4wzu_11proc_macro29TokenTreeNCINvXsa_NtB1h_8fallbackNtB21_11TokenStreamINtNtBa_7collect6ExtendB1f_E6extendNtB1h_11TokenStreamE0E0Cs9PzovR4aYST_14thiserror_impl, symObjAddr: 0x1020, symBinAddr: 0x51278, symSize: 0x3C }
  - { offset: 0x1324DF, size: 0x8, addend: 0x0, symName: __RNCNvXs_NvNtNtNtNtCsaNl6UpbT7bw_4core4iter6traits8iterator8Iterator10advance_byINtNtCsc29TF2YcYso_3syn10punctuated11PrivateIterNtNtB1k_4data7VariantNtNtB1k_5token5CommaENtB6_13SpecAdvanceBy15spec_advance_by0Cs9PzovR4aYST_14thiserror_impl, symObjAddr: 0x10E0, symBinAddr: 0x51338, symSize: 0x20 }
  - { offset: 0x13252C, size: 0x8, addend: 0x0, symName: __RNCNvXs_NvNtNtNtNtCsaNl6UpbT7bw_4core4iter6traits8iterator8Iterator10advance_byINtNtCsc29TF2YcYso_3syn10punctuated11PrivateIterNtNtB1k_4path15GenericArgumentNtNtB1k_5token5CommaENtB6_13SpecAdvanceBy15spec_advance_by0Cs9PzovR4aYST_14thiserror_impl, symObjAddr: 0x1100, symBinAddr: 0x51358, symSize: 0x20 }
  - { offset: 0x132588, size: 0x8, addend: 0x0, symName: __RNvXs_NvNtNtNtNtCsaNl6UpbT7bw_4core4iter6traits8iterator8Iterator10advance_byINtNtCsc29TF2YcYso_3syn10punctuated11PrivateIterNtNtB1i_4data7VariantNtNtB1i_5token5CommaENtB4_13SpecAdvanceBy15spec_advance_byCs9PzovR4aYST_14thiserror_impl, symObjAddr: 0x2F48, symBinAddr: 0x531A0, symSize: 0x8C }
  - { offset: 0x132636, size: 0x8, addend: 0x0, symName: __RNvXs_NvNtNtNtNtCsaNl6UpbT7bw_4core4iter6traits8iterator8Iterator10advance_byINtNtCsc29TF2YcYso_3syn10punctuated11PrivateIterNtNtB1i_4path15GenericArgumentNtNtB1i_5token5CommaENtB4_13SpecAdvanceBy15spec_advance_byCs9PzovR4aYST_14thiserror_impl, symObjAddr: 0x2FD4, symBinAddr: 0x5322C, symSize: 0x8C }
  - { offset: 0x1326E6, size: 0x8, addend: 0x0, symName: __RNvYINtNtCsc29TF2YcYso_3syn10punctuated11PrivateIterNtNtB7_4data7VariantNtNtB7_5token5CommaENtNtNtNtCsaNl6UpbT7bw_4core4iter6traits8iterator8Iterator10advance_byCs9PzovR4aYST_14thiserror_impl, symObjAddr: 0x38F8, symBinAddr: 0x53B50, symSize: 0x28 }
  - { offset: 0x13272C, size: 0x8, addend: 0x0, symName: __RNvYINtNtCsc29TF2YcYso_3syn10punctuated11PrivateIterNtNtB7_4data7VariantNtNtB7_5token5CommaENtNtNtNtCsaNl6UpbT7bw_4core4iter6traits8iterator8Iterator3nthCs9PzovR4aYST_14thiserror_impl, symObjAddr: 0x3920, symBinAddr: 0x53B78, symSize: 0x7C }
  - { offset: 0x1327F8, size: 0x8, addend: 0x0, symName: __RNvYINtNtCsc29TF2YcYso_3syn10punctuated11PrivateIterNtNtB7_4data7VariantNtNtB7_5token5CommaENtNtNtNtCsaNl6UpbT7bw_4core4iter6traits8iterator8Iterator9size_hintCs9PzovR4aYST_14thiserror_impl, symObjAddr: 0x399C, symBinAddr: 0x53BF4, symSize: 0x34 }
  - { offset: 0x13282D, size: 0x8, addend: 0x0, symName: __RNvYINtNtCsc29TF2YcYso_3syn10punctuated11PrivateIterNtNtB7_4path15GenericArgumentNtNtB7_5token5CommaENtNtNtNtCsaNl6UpbT7bw_4core4iter6traits8iterator8Iterator10advance_byCs9PzovR4aYST_14thiserror_impl, symObjAddr: 0x3BBC, symBinAddr: 0x53E14, symSize: 0x28 }
  - { offset: 0x132873, size: 0x8, addend: 0x0, symName: __RNvYINtNtCsc29TF2YcYso_3syn10punctuated11PrivateIterNtNtB7_4path15GenericArgumentNtNtB7_5token5CommaENtNtNtNtCsaNl6UpbT7bw_4core4iter6traits8iterator8Iterator3nthCs9PzovR4aYST_14thiserror_impl, symObjAddr: 0x3BE4, symBinAddr: 0x53E3C, symSize: 0x7C }
  - { offset: 0x13293F, size: 0x8, addend: 0x0, symName: __RNvYINtNtCsc29TF2YcYso_3syn10punctuated11PrivateIterNtNtB7_4path15GenericArgumentNtNtB7_5token5CommaENtNtNtNtCsaNl6UpbT7bw_4core4iter6traits8iterator8Iterator9size_hintCs9PzovR4aYST_14thiserror_impl, symObjAddr: 0x3C60, symBinAddr: 0x53EB8, symSize: 0x34 }
  - { offset: 0x132974, size: 0x8, addend: 0x0, symName: __RNvYINtNtCsc29TF2YcYso_3syn10punctuated4IterNtNtB7_4data5FieldENtNtNtNtCsaNl6UpbT7bw_4core4iter6traits8iterator8Iterator9enumerateCs9PzovR4aYST_14thiserror_impl, symObjAddr: 0x3C94, symBinAddr: 0x53EEC, symSize: 0x28 }
  - { offset: 0x1329CC, size: 0x8, addend: 0x0, symName: __RNvXNtNtNtCsaNl6UpbT7bw_4core4iter6traits7collectINtNtCsc29TF2YcYso_3syn10punctuated5PairsNtCshnvkK9b4wzu_11proc_macro211TokenStreamNtNtBQ_5token4PlusENtB2_12IntoIterator9into_iterCs9PzovR4aYST_14thiserror_impl, symObjAddr: 0x2974, symBinAddr: 0x52BCC, symSize: 0x18 }
  - { offset: 0x132A0F, size: 0x8, addend: 0x0, symName: __RNvYINtNtCsc29TF2YcYso_3syn10punctuated11PrivateIterNtNtB7_4data7VariantNtNtB7_5token5CommaENtNtNtNtCsaNl6UpbT7bw_4core4iter6traits10exact_size17ExactSizeIterator8is_emptyCs9PzovR4aYST_14thiserror_impl, symObjAddr: 0x370C, symBinAddr: 0x53964, symSize: 0x2C }
  - { offset: 0x132A44, size: 0x8, addend: 0x0, symName: __RNvYINtNtCsc29TF2YcYso_3syn10punctuated11PrivateIterNtNtB7_4path15GenericArgumentNtNtB7_5token5CommaENtNtNtNtCsaNl6UpbT7bw_4core4iter6traits10exact_size17ExactSizeIterator8is_emptyCs9PzovR4aYST_14thiserror_impl, symObjAddr: 0x39D0, symBinAddr: 0x53C28, symSize: 0x2C }
  - { offset: 0x132A85, size: 0x8, addend: 0x0, symName: __RNvYINtNtCsc29TF2YcYso_3syn10punctuated11PrivateIterNtNtB7_4data7VariantNtNtB7_5token5CommaENtNtNtNtCsaNl6UpbT7bw_4core4iter6traits12double_ended19DoubleEndedIterator15advance_back_byCs9PzovR4aYST_14thiserror_impl, symObjAddr: 0x3738, symBinAddr: 0x53990, symSize: 0x158 }
  - { offset: 0x132BFF, size: 0x8, addend: 0x0, symName: __RNvYINtNtCsc29TF2YcYso_3syn10punctuated11PrivateIterNtNtB7_4data7VariantNtNtB7_5token5CommaENtNtNtNtCsaNl6UpbT7bw_4core4iter6traits12double_ended19DoubleEndedIterator8nth_backCs9PzovR4aYST_14thiserror_impl, symObjAddr: 0x3890, symBinAddr: 0x53AE8, symSize: 0x68 }
  - { offset: 0x132C7D, size: 0x8, addend: 0x0, symName: __RNvYINtNtCsc29TF2YcYso_3syn10punctuated11PrivateIterNtNtB7_4path15GenericArgumentNtNtB7_5token5CommaENtNtNtNtCsaNl6UpbT7bw_4core4iter6traits12double_ended19DoubleEndedIterator15advance_back_byCs9PzovR4aYST_14thiserror_impl, symObjAddr: 0x39FC, symBinAddr: 0x53C54, symSize: 0x158 }
  - { offset: 0x132DF7, size: 0x8, addend: 0x0, symName: __RNvYINtNtCsc29TF2YcYso_3syn10punctuated11PrivateIterNtNtB7_4path15GenericArgumentNtNtB7_5token5CommaENtNtNtNtCsaNl6UpbT7bw_4core4iter6traits12double_ended19DoubleEndedIterator8nth_backCs9PzovR4aYST_14thiserror_impl, symObjAddr: 0x3B54, symBinAddr: 0x53DAC, symSize: 0x68 }
  - { offset: 0x1337E0, size: 0x8, addend: 0x0, symName: __RNvXNtCsaNl6UpbT7bw_4core6borrowNtCshnvkK9b4wzu_11proc_macro25IdentINtB2_6BorrowBu_E6borrowCs9PzovR4aYST_14thiserror_impl, symObjAddr: 0x2910, symBinAddr: 0x52B68, symSize: 0x14 }
  - { offset: 0x13381B, size: 0x8, addend: 0x0, symName: __RNvXs0_NtCsaNl6UpbT7bw_4core6borrowRNtCshnvkK9b4wzu_11proc_macro25IdentINtB5_6BorrowBy_E6borrowCs9PzovR4aYST_14thiserror_impl, symObjAddr: 0x298C, symBinAddr: 0x52BE4, symSize: 0x18 }
  - { offset: 0x13385C, size: 0x8, addend: 0x0, symName: __RNvXs1_NtCsaNl6UpbT7bw_4core7convertNtCshnvkK9b4wzu_11proc_macro211TokenStreamINtB5_4IntoNtCs7yrEGia95Wz_10proc_macro11TokenStreamE4intoCs9PzovR4aYST_14thiserror_impl, symObjAddr: 0x29B0, symBinAddr: 0x52C08, symSize: 0x14 }
  - { offset: 0x133F08, size: 0x8, addend: 0x0, symName: ___rustc_proc_macro_decls_7284550e9f913a4d__, symObjAddr: 0x49D8, symBinAddr: 0x257328, symSize: 0x0 }
  - { offset: 0x13411E, size: 0x8, addend: 0x0, symName: __RNvCs9PzovR4aYST_14thiserror_impl12derive_error, symObjAddr: 0x3E18, symBinAddr: 0x54070, symSize: 0x180 }
  - { offset: 0x1344BD, size: 0x8, addend: 0x0, symName: __RNCNvXs1_NtNtNtCsht3nMU9UgFu_3std2io5error14repr_bitpackedNtB7_4ReprNtNtNtCsaNl6UpbT7bw_4core3ops4drop4Drop4drop0Cs9PzovR4aYST_14thiserror_impl, symObjAddr: 0x10A4, symBinAddr: 0x512FC, symSize: 0x3C }
  - { offset: 0x134572, size: 0x8, addend: 0x0, symName: __RNvXs1_NtNtNtCsht3nMU9UgFu_3std2io5error14repr_bitpackedNtB5_4ReprNtNtNtCsaNl6UpbT7bw_4core3ops4drop4Drop4dropCs9PzovR4aYST_14thiserror_impl, symObjAddr: 0x29C4, symBinAddr: 0x52C1C, symSize: 0x38 }
  - { offset: 0x13459B, size: 0x8, addend: 0x0, symName: __RINvNtNtNtCsht3nMU9UgFu_3std2io5error14repr_bitpacked11decode_reprINtNtCsiTraAjBDcu4_5alloc5boxed3BoxNtB4_6CustomENCNvXs1_B2_NtB2_4ReprNtNtNtCsaNl6UpbT7bw_4core3ops4drop4Drop4drop0ECs9PzovR4aYST_14thiserror_impl, symObjAddr: 0x594, symBinAddr: 0x507EC, symSize: 0x1DC }
  - { offset: 0x1347F7, size: 0x8, addend: 0x0, symName: __RNvNtNtNtCsht3nMU9UgFu_3std2io5error14repr_bitpacked14kind_from_primCs9PzovR4aYST_14thiserror_impl, symObjAddr: 0x1FD4, symBinAddr: 0x5222C, symSize: 0x758 }
  - { offset: 0x13515B, size: 0x8, addend: 0x0, symName: __RINvMNtCsc29TF2YcYso_3syn5errorNtB3_5Error11new_spannedINtNtCsaNl6UpbT7bw_4core6option6OptionRNtNtB5_4attr9AttributeEReECs9PzovR4aYST_14thiserror_impl, symObjAddr: 0x0, symBinAddr: 0x50258, symSize: 0xC4 }
  - { offset: 0x13519D, size: 0x8, addend: 0x0, symName: __RINvMNtCsc29TF2YcYso_3syn5errorNtB3_5Error11new_spannedRNtNtB5_4attr9AttributeReECs9PzovR4aYST_14thiserror_impl, symObjAddr: 0xC4, symBinAddr: 0x5031C, symSize: 0xC4 }
  - { offset: 0x1351EC, size: 0x8, addend: 0x0, symName: __RINvMNtCsc29TF2YcYso_3syn5errorNtB3_5Error11new_spannedRNtNtB5_4data5FieldReECs9PzovR4aYST_14thiserror_impl, symObjAddr: 0x188, symBinAddr: 0x503E0, symSize: 0xC4 }
  - { offset: 0x13522E, size: 0x8, addend: 0x0, symName: __RINvMNtCsc29TF2YcYso_3syn5errorNtB3_5Error11new_spannedRNtNtB5_4data7VariantReECs9PzovR4aYST_14thiserror_impl, symObjAddr: 0x24C, symBinAddr: 0x504A4, symSize: 0xC4 }
  - { offset: 0x13527D, size: 0x8, addend: 0x0, symName: __RINvMNtCsc29TF2YcYso_3syn5errorNtB3_5Error11new_spannedRNtNtB5_6derive11DeriveInputReECs9PzovR4aYST_14thiserror_impl, symObjAddr: 0x310, symBinAddr: 0x50568, symSize: 0xC4 }
  - { offset: 0x1352CC, size: 0x8, addend: 0x0, symName: __RINvMNtCsc29TF2YcYso_3syn5errorNtB3_5Error11new_spannedRRNtNtB5_4attr9AttributeReECs9PzovR4aYST_14thiserror_impl, symObjAddr: 0x3D4, symBinAddr: 0x5062C, symSize: 0xC4 }
  - { offset: 0x135501, size: 0x8, addend: 0x0, symName: __RNCINvNtCsg4dki62PTrg_9hashbrown3map14equivalent_keyNtNtCsc29TF2YcYso_3syn4expr6MemberRBO_jE0Cs9PzovR4aYST_14thiserror_impl, symObjAddr: 0xEF4, symBinAddr: 0x5114C, symSize: 0x30 }
  - { offset: 0x135558, size: 0x8, addend: 0x0, symName: __RNCINvNtCsg4dki62PTrg_9hashbrown3map14equivalent_keyRNtNtCsc29TF2YcYso_3syn4expr6MemberBO_jE0Cs9PzovR4aYST_14thiserror_impl, symObjAddr: 0xF24, symBinAddr: 0x5117C, symSize: 0x30 }
  - { offset: 0x13577C, size: 0x8, addend: 0x0, symName: __RNCINvNtCsg4dki62PTrg_9hashbrown3map11make_hasherRNtNtCsc29TF2YcYso_3syn4expr6MemberjNtNtNtCsht3nMU9UgFu_3std4hash6random11RandomStateE0Cs9PzovR4aYST_14thiserror_impl, symObjAddr: 0xEB8, symBinAddr: 0x51110, symSize: 0x3C }
  - { offset: 0x135975, size: 0x8, addend: 0x0, symName: __RINvMs1_NtCsg4dki62PTrg_9hashbrown3mapINtB6_7HashMapRNtNtCsc29TF2YcYso_3syn4expr6MemberjNtNtNtCsht3nMU9UgFu_3std4hash6random11RandomStateE9get_innerBP_ECs9PzovR4aYST_14thiserror_impl, symObjAddr: 0x498, symBinAddr: 0x506F0, symSize: 0xFC }
  - { offset: 0x135CDC, size: 0x8, addend: 0x0, symName: __RINvXNtCs4EAaWzSXu1l_5quote3extNtCshnvkK9b4wzu_11proc_macro211TokenStreamNtB3_14TokenStreamExt10append_allINtNtCsc29TF2YcYso_3syn10punctuated5PairsBt_NtNtB1L_5token4PlusEECs9PzovR4aYST_14thiserror_impl, symObjAddr: 0x770, symBinAddr: 0x509C8, symSize: 0xD0 }
  - { offset: 0x135D5A, size: 0x8, addend: 0x0, symName: __RNvXNtCs4EAaWzSXu1l_5quote14ident_fragmentRNtCshnvkK9b4wzu_11proc_macro25IdentNtB2_13IdentFragment3fmtCs9PzovR4aYST_14thiserror_impl, symObjAddr: 0x27D8, symBinAddr: 0x52A30, symSize: 0x40 }
  - { offset: 0x135D9D, size: 0x8, addend: 0x0, symName: __RNvXNtCs4EAaWzSXu1l_5quote14ident_fragmentRNtCshnvkK9b4wzu_11proc_macro25IdentNtB2_13IdentFragment4spanCs9PzovR4aYST_14thiserror_impl, symObjAddr: 0x2818, symBinAddr: 0x52A70, symSize: 0x38 }
  - { offset: 0x135DDE, size: 0x8, addend: 0x0, symName: __RNvXNtCs4EAaWzSXu1l_5quote9to_tokensRINtNtCsc29TF2YcYso_3syn10punctuated10PunctuatedNtCshnvkK9b4wzu_11proc_macro211TokenStreamNtNtBE_5token4PlusENtB2_8ToTokens9to_tokensCs9PzovR4aYST_14thiserror_impl, symObjAddr: 0x2850, symBinAddr: 0x52AA8, symSize: 0x40 }
  - { offset: 0x135E1D, size: 0x8, addend: 0x0, symName: __RNvXNtCs4EAaWzSXu1l_5quote9to_tokensRNtCshnvkK9b4wzu_11proc_macro211TokenStreamNtB2_8ToTokens9to_tokensCs9PzovR4aYST_14thiserror_impl, symObjAddr: 0x2890, symBinAddr: 0x52AE8, symSize: 0x40 }
  - { offset: 0x135E5C, size: 0x8, addend: 0x0, symName: __RNvXNtCs4EAaWzSXu1l_5quote9to_tokensRNtCshnvkK9b4wzu_11proc_macro25IdentNtB2_8ToTokens9to_tokensCs9PzovR4aYST_14thiserror_impl, symObjAddr: 0x28D0, symBinAddr: 0x52B28, symSize: 0x40 }
  - { offset: 0x135EA1, size: 0x8, addend: 0x0, symName: __RNvYNtCshnvkK9b4wzu_11proc_macro211TokenStreamNtNtCs4EAaWzSXu1l_5quote9to_tokens8ToTokens15to_token_streamCs9PzovR4aYST_14thiserror_impl, symObjAddr: 0x3CBC, symBinAddr: 0x53F14, symSize: 0x8C }
  - { offset: 0x13619C, size: 0x8, addend: 0x0, symName: __RNvMNtCsc29TF2YcYso_3syn10punctuatedINtB2_10PunctuatedNtCshnvkK9b4wzu_11proc_macro211TokenStreamNtNtB4_5token4PlusE10push_punctCs9PzovR4aYST_14thiserror_impl, symObjAddr: 0x1530, symBinAddr: 0x51788, symSize: 0x200 }
  - { offset: 0x136219, size: 0x8, addend: 0x0, symName: __RNvMNtCsc29TF2YcYso_3syn10punctuatedINtB2_10PunctuatedNtCshnvkK9b4wzu_11proc_macro211TokenStreamNtNtB4_5token4PlusE10push_valueCs9PzovR4aYST_14thiserror_impl, symObjAddr: 0x1730, symBinAddr: 0x51988, symSize: 0x1A4 }
  - { offset: 0x136287, size: 0x8, addend: 0x0, symName: __RNvMNtCsc29TF2YcYso_3syn10punctuatedINtB2_10PunctuatedNtCshnvkK9b4wzu_11proc_macro211TokenStreamNtNtB4_5token4PlusE17empty_or_trailingCs9PzovR4aYST_14thiserror_impl, symObjAddr: 0x18D4, symBinAddr: 0x51B2C, symSize: 0x34 }
  - { offset: 0x1362BB, size: 0x8, addend: 0x0, symName: __RNvMNtCsc29TF2YcYso_3syn10punctuatedINtB2_10PunctuatedNtCshnvkK9b4wzu_11proc_macro211TokenStreamNtNtB4_5token4PlusE3newCs9PzovR4aYST_14thiserror_impl, symObjAddr: 0x1908, symBinAddr: 0x51B60, symSize: 0x54 }
  - { offset: 0x1362E1, size: 0x8, addend: 0x0, symName: __RNvMNtCsc29TF2YcYso_3syn10punctuatedINtB2_10PunctuatedNtCshnvkK9b4wzu_11proc_macro211TokenStreamNtNtB4_5token4PlusE4pushCs9PzovR4aYST_14thiserror_impl, symObjAddr: 0x195C, symBinAddr: 0x51BB4, symSize: 0x108 }
  - { offset: 0x13634B, size: 0x8, addend: 0x0, symName: __RNvMNtCsc29TF2YcYso_3syn10punctuatedINtB2_10PunctuatedNtCshnvkK9b4wzu_11proc_macro211TokenStreamNtNtB4_5token4PlusE5pairsCs9PzovR4aYST_14thiserror_impl, symObjAddr: 0x1A64, symBinAddr: 0x51CBC, symSize: 0x74 }
  - { offset: 0x136399, size: 0x8, addend: 0x0, symName: __RNvMNtCsc29TF2YcYso_3syn10punctuatedINtB2_10PunctuatedNtNtB4_4data7VariantNtNtB4_5token5CommaE4iterCs9PzovR4aYST_14thiserror_impl, symObjAddr: 0x1AD8, symBinAddr: 0x51D30, symSize: 0xC8 }
  - { offset: 0x1363F7, size: 0x8, addend: 0x0, symName: __RNvMNtCsc29TF2YcYso_3syn10punctuatedINtB2_10PunctuatedNtNtB4_4path15GenericArgumentNtNtB4_5token5CommaE3lenCs9PzovR4aYST_14thiserror_impl, symObjAddr: 0x1BA0, symBinAddr: 0x51DF8, symSize: 0xA0 }
  - { offset: 0x136466, size: 0x8, addend: 0x0, symName: __RNvMNtCsc29TF2YcYso_3syn10punctuatedINtB2_10PunctuatedNtNtB4_4path15GenericArgumentNtNtB4_5token5CommaE4iterCs9PzovR4aYST_14thiserror_impl, symObjAddr: 0x1C40, symBinAddr: 0x51E98, symSize: 0xC8 }
  - { offset: 0x1364C4, size: 0x8, addend: 0x0, symName: __RNvMNtCsc29TF2YcYso_3syn10punctuatedINtB2_10PunctuatedNtNtB4_8generics14WherePredicateNtNtB4_5token5CommaE4pushCs9PzovR4aYST_14thiserror_impl, symObjAddr: 0x1D08, symBinAddr: 0x51F60, symSize: 0x124 }
  - { offset: 0x1365DA, size: 0x8, addend: 0x0, symName: __RNvMs1_NtCsg4dki62PTrg_9hashbrown3mapINtB5_7HashMapRNtNtCsc29TF2YcYso_3syn4expr6MemberjNtNtNtCsht3nMU9UgFu_3std4hash6random11RandomStateE6insertCs9PzovR4aYST_14thiserror_impl, symObjAddr: 0x1E2C, symBinAddr: 0x52084, symSize: 0x1A8 }
  - { offset: 0x136E45, size: 0x8, addend: 0x0, symName: __RINvXNvMNtCsiTraAjBDcu4_5alloc5sliceSp9to_vec_inNtNtCsc29TF2YcYso_3syn4item11ForeignItemNtB3_10ConvertVec6to_vecNtNtB8_5alloc6GlobalEBO_, symObjAddr: 0x0, symBinAddr: 0x54208, symSize: 0x374 }
  - { offset: 0x1383BC, size: 0x8, addend: 0x0, symName: __RNvXNtNtCsc29TF2YcYso_3syn4item7parsingNtB4_4ItemNtNtB6_5parse5Parse5parse, symObjAddr: 0x35A4, symBinAddr: 0x55C40, symSize: 0x1B4 }
  - { offset: 0x138462, size: 0x8, addend: 0x0, symName: __RNvXs0_NtNtCsc29TF2YcYso_3syn4item7parsingNtB7_9ItemMacroNtNtB9_5parse5Parse5parse, symObjAddr: 0x3758, symBinAddr: 0x55DF4, symSize: 0x628 }
  - { offset: 0x138630, size: 0x8, addend: 0x0, symName: __RNvXs1_NtNtCsc29TF2YcYso_3syn4item7parsingNtB7_15ItemExternCrateNtNtB9_5parse5Parse5parse, symObjAddr: 0x3D80, symBinAddr: 0x5641C, symSize: 0x93C }
  - { offset: 0x13883A, size: 0x8, addend: 0x0, symName: __RNvXs3_NtNtCsc29TF2YcYso_3syn4item7parsingNtB7_7UseTreeNtNtB9_5parse5Parse5parse, symObjAddr: 0x4714, symBinAddr: 0x56D58, symSize: 0x58 }
  - { offset: 0x13888C, size: 0x8, addend: 0x0, symName: __RNvXs6_NtNtCsc29TF2YcYso_3syn4item7parsingNtB7_9SignatureNtNtB9_5parse5Parse5parse, symObjAddr: 0x5C94, symBinAddr: 0x56DB0, symSize: 0x60 }
  - { offset: 0x1388DE, size: 0x8, addend: 0x0, symName: __RNvXs9_NtNtCsc29TF2YcYso_3syn4item7parsingNtB7_8ReceiverNtNtB9_5parse5Parse5parse, symObjAddr: 0x6324, symBinAddr: 0x56E10, symSize: 0x94C }
  - { offset: 0x138B3F, size: 0x8, addend: 0x0, symName: __RNvXsa_NtNtCsc29TF2YcYso_3syn4item7parsingNtB7_7ItemModNtNtB9_5parse5Parse5parse, symObjAddr: 0x6C70, symBinAddr: 0x5775C, symSize: 0xC34 }
  - { offset: 0x138DA2, size: 0x8, addend: 0x0, symName: __RNvXsb_NtNtCsc29TF2YcYso_3syn4item7parsingNtB7_14ItemForeignModNtNtB9_5parse5Parse5parse, symObjAddr: 0x78A4, symBinAddr: 0x58390, symSize: 0x610 }
  - { offset: 0x138F53, size: 0x8, addend: 0x0, symName: __RNvXsc_NtNtCsc29TF2YcYso_3syn4item7parsingNtB7_11ForeignItemNtNtB9_5parse5Parse5parse, symObjAddr: 0x7EB4, symBinAddr: 0x589A0, symSize: 0x1D8C }
  - { offset: 0x1395C3, size: 0x8, addend: 0x0, symName: __RNvXsg_NtNtCsc29TF2YcYso_3syn4item7parsingNtB7_16ForeignItemMacroNtNtB9_5parse5Parse5parse, symObjAddr: 0xAF68, symBinAddr: 0x5A72C, symSize: 0x32C }
  - { offset: 0x1396D7, size: 0x8, addend: 0x0, symName: __RNvXsi_NtNtCsc29TF2YcYso_3syn4item7parsingNtB7_10ItemStructNtNtB9_5parse5Parse5parse, symObjAddr: 0xBC6C, symBinAddr: 0x5AA58, symSize: 0x638 }
  - { offset: 0x1398D4, size: 0x8, addend: 0x0, symName: __RNvXsj_NtNtCsc29TF2YcYso_3syn4item7parsingNtB7_8ItemEnumNtNtB9_5parse5Parse5parse, symObjAddr: 0xC2A4, symBinAddr: 0x5B090, symSize: 0x63C }
  - { offset: 0x139AD1, size: 0x8, addend: 0x0, symName: __RNvXsk_NtNtCsc29TF2YcYso_3syn4item7parsingNtB7_9ItemUnionNtNtB9_5parse5Parse5parse, symObjAddr: 0xC8E0, symBinAddr: 0x5B6CC, symSize: 0x62C }
  - { offset: 0x139CBD, size: 0x8, addend: 0x0, symName: __RNvXsl_NtNtCsc29TF2YcYso_3syn4item7parsingNtB7_9ItemTraitNtNtB9_5parse5Parse5parse, symObjAddr: 0xCF0C, symBinAddr: 0x5BCF8, symSize: 0x634 }
  - { offset: 0x139EC4, size: 0x8, addend: 0x0, symName: __RNvXsn_NtNtCsc29TF2YcYso_3syn4item7parsingNtB7_9TraitItemNtNtB9_5parse5Parse5parse, symObjAddr: 0xD7B0, symBinAddr: 0x5C32C, symSize: 0x1648 }
  - { offset: 0x13A338, size: 0x8, addend: 0x0, symName: __RNvXsp_NtNtCsc29TF2YcYso_3syn4item7parsingNtB7_11TraitItemFnNtNtB9_5parse5Parse5parse, symObjAddr: 0xF66C, symBinAddr: 0x5D974, symSize: 0x7DC }
  - { offset: 0x13A544, size: 0x8, addend: 0x0, symName: __RNvXsr_NtNtCsc29TF2YcYso_3syn4item7parsingNtB7_14TraitItemMacroNtNtB9_5parse5Parse5parse, symObjAddr: 0x1056C, symBinAddr: 0x5E150, symSize: 0x32C }
  - { offset: 0x13A658, size: 0x8, addend: 0x0, symName: __RNvXst_NtNtCsc29TF2YcYso_3syn4item7parsingNtB7_8ImplItemNtNtB9_5parse5Parse5parse, symObjAddr: 0x108F8, symBinAddr: 0x5E47C, symSize: 0x1A6C }
  - { offset: 0x13AB82, size: 0x8, addend: 0x0, symName: __RNvXsx_NtNtCsc29TF2YcYso_3syn4item7parsingNtB7_13ImplItemMacroNtNtB9_5parse5Parse5parse, symObjAddr: 0x135D4, symBinAddr: 0x5FEE8, symSize: 0x32C }
  - { offset: 0x13AC96, size: 0x8, addend: 0x0, symName: __RNvXsz_NtNtCsc29TF2YcYso_3syn4item7parsingNtB7_16StaticMutabilityNtNtB9_5parse5Parse5parse, symObjAddr: 0x13900, symBinAddr: 0x60214, symSize: 0xDC }
  - { offset: 0x13AD0C, size: 0x8, addend: 0x0, symName: __RNvXNtNtCsc29TF2YcYso_3syn4item8printingNtB4_15ItemExternCrateNtNtCs4EAaWzSXu1l_5quote9to_tokens8ToTokens9to_tokens, symObjAddr: 0x139DC, symBinAddr: 0x602F0, symSize: 0x10C }
  - { offset: 0x13AD79, size: 0x8, addend: 0x0, symName: __RNvXs_NtNtCsc29TF2YcYso_3syn4item8printingNtB6_7ItemUseNtNtCs4EAaWzSXu1l_5quote9to_tokens8ToTokens9to_tokens, symObjAddr: 0x13AE8, symBinAddr: 0x603FC, symSize: 0xA4 }
  - { offset: 0x13ADB8, size: 0x8, addend: 0x0, symName: __RNvXs0_NtNtCsc29TF2YcYso_3syn4item8printingNtB7_10ItemStaticNtNtCs4EAaWzSXu1l_5quote9to_tokens8ToTokens9to_tokens, symObjAddr: 0x13B8C, symBinAddr: 0x604A0, symSize: 0xE4 }
  - { offset: 0x13ADF7, size: 0x8, addend: 0x0, symName: __RNvXs1_NtNtCsc29TF2YcYso_3syn4item8printingNtB7_9ItemConstNtNtCs4EAaWzSXu1l_5quote9to_tokens8ToTokens9to_tokens, symObjAddr: 0x13C70, symBinAddr: 0x60584, symSize: 0xD4 }
  - { offset: 0x13AE36, size: 0x8, addend: 0x0, symName: __RNvXs2_NtNtCsc29TF2YcYso_3syn4item8printingNtB7_6ItemFnNtNtCs4EAaWzSXu1l_5quote9to_tokens8ToTokens9to_tokens, symObjAddr: 0x13D44, symBinAddr: 0x60658, symSize: 0xDC }
  - { offset: 0x13AE75, size: 0x8, addend: 0x0, symName: __RNvXs3_NtNtCsc29TF2YcYso_3syn4item8printingNtB7_7ItemModNtNtCs4EAaWzSXu1l_5quote9to_tokens8ToTokens9to_tokens, symObjAddr: 0x13E20, symBinAddr: 0x60734, symSize: 0x10C }
  - { offset: 0x13AEE2, size: 0x8, addend: 0x0, symName: __RNvXs4_NtNtCsc29TF2YcYso_3syn4item8printingNtB7_14ItemForeignModNtNtCs4EAaWzSXu1l_5quote9to_tokens8ToTokens9to_tokens, symObjAddr: 0x13F2C, symBinAddr: 0x60840, symSize: 0x88 }
  - { offset: 0x13AF21, size: 0x8, addend: 0x0, symName: __RNvXs5_NtNtCsc29TF2YcYso_3syn4item8printingNtB7_8ItemTypeNtNtCs4EAaWzSXu1l_5quote9to_tokens8ToTokens9to_tokens, symObjAddr: 0x13FB4, symBinAddr: 0x608C8, symSize: 0xD4 }
  - { offset: 0x13AF60, size: 0x8, addend: 0x0, symName: __RNvXs6_NtNtCsc29TF2YcYso_3syn4item8printingNtB7_8ItemEnumNtNtCs4EAaWzSXu1l_5quote9to_tokens8ToTokens9to_tokens, symObjAddr: 0x14088, symBinAddr: 0x6099C, symSize: 0xB8 }
  - { offset: 0x13AF9F, size: 0x8, addend: 0x0, symName: __RNvXs7_NtNtCsc29TF2YcYso_3syn4item8printingNtB7_10ItemStructNtNtCs4EAaWzSXu1l_5quote9to_tokens8ToTokens9to_tokens, symObjAddr: 0x14140, symBinAddr: 0x60A54, symSize: 0x188 }
  - { offset: 0x13B01A, size: 0x8, addend: 0x0, symName: __RNvXs8_NtNtCsc29TF2YcYso_3syn4item8printingNtB7_9ItemUnionNtNtCs4EAaWzSXu1l_5quote9to_tokens8ToTokens9to_tokens, symObjAddr: 0x142C8, symBinAddr: 0x60BDC, symSize: 0xB4 }
  - { offset: 0x13B059, size: 0x8, addend: 0x0, symName: __RNvXs9_NtNtCsc29TF2YcYso_3syn4item8printingNtB7_9ItemTraitNtNtCs4EAaWzSXu1l_5quote9to_tokens8ToTokens9to_tokens, symObjAddr: 0x1437C, symBinAddr: 0x60C90, symSize: 0x130 }
  - { offset: 0x13B098, size: 0x8, addend: 0x0, symName: __RNvXsa_NtNtCsc29TF2YcYso_3syn4item8printingNtB7_14ItemTraitAliasNtNtCs4EAaWzSXu1l_5quote9to_tokens8ToTokens9to_tokens, symObjAddr: 0x144AC, symBinAddr: 0x60DC0, symSize: 0xD4 }
  - { offset: 0x13B0D7, size: 0x8, addend: 0x0, symName: __RNvXsb_NtNtCsc29TF2YcYso_3syn4item8printingNtB7_8ItemImplNtNtCs4EAaWzSXu1l_5quote9to_tokens8ToTokens9to_tokens, symObjAddr: 0x14580, symBinAddr: 0x60E94, symSize: 0x148 }
  - { offset: 0x13B154, size: 0x8, addend: 0x0, symName: __RNvXsc_NtNtCsc29TF2YcYso_3syn4item8printingNtB7_9ItemMacroNtNtCs4EAaWzSXu1l_5quote9to_tokens8ToTokens9to_tokens, symObjAddr: 0x146C8, symBinAddr: 0x60FDC, symSize: 0x148 }
  - { offset: 0x13B1E5, size: 0x8, addend: 0x0, symName: __RNvXsd_NtNtCsc29TF2YcYso_3syn4item8printingNtB7_7UsePathNtNtCs4EAaWzSXu1l_5quote9to_tokens8ToTokens9to_tokens, symObjAddr: 0x14810, symBinAddr: 0x61124, symSize: 0x60 }
  - { offset: 0x13B224, size: 0x8, addend: 0x0, symName: __RNvXse_NtNtCsc29TF2YcYso_3syn4item8printingNtB7_7UseNameNtNtCs4EAaWzSXu1l_5quote9to_tokens8ToTokens9to_tokens, symObjAddr: 0x14870, symBinAddr: 0x61184, symSize: 0x3C }
  - { offset: 0x13B263, size: 0x8, addend: 0x0, symName: __RNvXsf_NtNtCsc29TF2YcYso_3syn4item8printingNtB7_9UseRenameNtNtCs4EAaWzSXu1l_5quote9to_tokens8ToTokens9to_tokens, symObjAddr: 0x148AC, symBinAddr: 0x611C0, symSize: 0x60 }
  - { offset: 0x13B2A2, size: 0x8, addend: 0x0, symName: __RNvXsg_NtNtCsc29TF2YcYso_3syn4item8printingNtB7_7UseGlobNtNtCs4EAaWzSXu1l_5quote9to_tokens8ToTokens9to_tokens, symObjAddr: 0x1490C, symBinAddr: 0x61220, symSize: 0x3C }
  - { offset: 0x13B2E1, size: 0x8, addend: 0x0, symName: __RNvXsh_NtNtCsc29TF2YcYso_3syn4item8printingNtB7_8UseGroupNtNtCs4EAaWzSXu1l_5quote9to_tokens8ToTokens9to_tokens, symObjAddr: 0x14948, symBinAddr: 0x6125C, symSize: 0x44 }
  - { offset: 0x13B320, size: 0x8, addend: 0x0, symName: __RNvXsi_NtNtCsc29TF2YcYso_3syn4item8printingNtB7_14TraitItemConstNtNtCs4EAaWzSXu1l_5quote9to_tokens8ToTokens9to_tokens, symObjAddr: 0x1498C, symBinAddr: 0x612A0, symSize: 0x10C }
  - { offset: 0x13B38D, size: 0x8, addend: 0x0, symName: __RNvXsj_NtNtCsc29TF2YcYso_3syn4item8printingNtB7_11TraitItemFnNtNtCs4EAaWzSXu1l_5quote9to_tokens8ToTokens9to_tokens, symObjAddr: 0x14A98, symBinAddr: 0x613AC, symSize: 0xD4 }
  - { offset: 0x13B3EA, size: 0x8, addend: 0x0, symName: __RNvXsk_NtNtCsc29TF2YcYso_3syn4item8printingNtB7_13TraitItemTypeNtNtCs4EAaWzSXu1l_5quote9to_tokens8ToTokens9to_tokens, symObjAddr: 0x14B6C, symBinAddr: 0x61480, symSize: 0x164 }
  - { offset: 0x13B457, size: 0x8, addend: 0x0, symName: __RNvXsl_NtNtCsc29TF2YcYso_3syn4item8printingNtB7_14TraitItemMacroNtNtCs4EAaWzSXu1l_5quote9to_tokens8ToTokens9to_tokens, symObjAddr: 0x14CD0, symBinAddr: 0x615E4, symSize: 0x74 }
  - { offset: 0x13B496, size: 0x8, addend: 0x0, symName: __RNvXsm_NtNtCsc29TF2YcYso_3syn4item8printingNtB7_13ImplItemConstNtNtCs4EAaWzSXu1l_5quote9to_tokens8ToTokens9to_tokens, symObjAddr: 0x14D44, symBinAddr: 0x61658, symSize: 0xE4 }
  - { offset: 0x13B4D5, size: 0x8, addend: 0x0, symName: __RNvXsn_NtNtCsc29TF2YcYso_3syn4item8printingNtB7_10ImplItemFnNtNtCs4EAaWzSXu1l_5quote9to_tokens8ToTokens9to_tokens, symObjAddr: 0x14E28, symBinAddr: 0x6173C, symSize: 0x98 }
  - { offset: 0x13B514, size: 0x8, addend: 0x0, symName: __RNvXso_NtNtCsc29TF2YcYso_3syn4item8printingNtB7_12ImplItemTypeNtNtCs4EAaWzSXu1l_5quote9to_tokens8ToTokens9to_tokens, symObjAddr: 0x14EC0, symBinAddr: 0x617D4, symSize: 0xE4 }
  - { offset: 0x13B553, size: 0x8, addend: 0x0, symName: __RNvXsp_NtNtCsc29TF2YcYso_3syn4item8printingNtB7_13ImplItemMacroNtNtCs4EAaWzSXu1l_5quote9to_tokens8ToTokens9to_tokens, symObjAddr: 0x14FA4, symBinAddr: 0x618B8, symSize: 0x74 }
  - { offset: 0x13B592, size: 0x8, addend: 0x0, symName: __RNvXsq_NtNtCsc29TF2YcYso_3syn4item8printingNtB7_13ForeignItemFnNtNtCs4EAaWzSXu1l_5quote9to_tokens8ToTokens9to_tokens, symObjAddr: 0x15018, symBinAddr: 0x6192C, symSize: 0x84 }
  - { offset: 0x13B5D1, size: 0x8, addend: 0x0, symName: __RNvXsr_NtNtCsc29TF2YcYso_3syn4item8printingNtB7_17ForeignItemStaticNtNtCs4EAaWzSXu1l_5quote9to_tokens8ToTokens9to_tokens, symObjAddr: 0x1509C, symBinAddr: 0x619B0, symSize: 0xC4 }
  - { offset: 0x13B610, size: 0x8, addend: 0x0, symName: __RNvXss_NtNtCsc29TF2YcYso_3syn4item8printingNtB7_15ForeignItemTypeNtNtCs4EAaWzSXu1l_5quote9to_tokens8ToTokens9to_tokens, symObjAddr: 0x15160, symBinAddr: 0x61A74, symSize: 0xB4 }
  - { offset: 0x13B64F, size: 0x8, addend: 0x0, symName: __RNvXst_NtNtCsc29TF2YcYso_3syn4item8printingNtB7_16ForeignItemMacroNtNtCs4EAaWzSXu1l_5quote9to_tokens8ToTokens9to_tokens, symObjAddr: 0x15214, symBinAddr: 0x61B28, symSize: 0x74 }
  - { offset: 0x13B68E, size: 0x8, addend: 0x0, symName: __RNvXsu_NtNtCsc29TF2YcYso_3syn4item8printingNtB7_9SignatureNtNtCs4EAaWzSXu1l_5quote9to_tokens8ToTokens9to_tokens, symObjAddr: 0x15288, symBinAddr: 0x61B9C, symSize: 0xD4 }
  - { offset: 0x13B6CD, size: 0x8, addend: 0x0, symName: __RNvXsv_NtNtCsc29TF2YcYso_3syn4item8printingNtB7_8ReceiverNtNtCs4EAaWzSXu1l_5quote9to_tokens8ToTokens9to_tokens, symObjAddr: 0x1535C, symBinAddr: 0x61C70, symSize: 0x450 }
  - { offset: 0x13B7C5, size: 0x8, addend: 0x0, symName: __RNvXsw_NtNtCsc29TF2YcYso_3syn4item8printingNtB7_8VariadicNtNtCs4EAaWzSXu1l_5quote9to_tokens8ToTokens9to_tokens, symObjAddr: 0x157AC, symBinAddr: 0x620C0, symSize: 0xDC }
  - { offset: 0x13B832, size: 0x8, addend: 0x0, symName: __RNvXsx_NtNtCsc29TF2YcYso_3syn4item8printingNtB7_16StaticMutabilityNtNtCs4EAaWzSXu1l_5quote9to_tokens8ToTokens9to_tokens, symObjAddr: 0x15888, symBinAddr: 0x6219C, symSize: 0x84 }
  - { offset: 0x13B895, size: 0x8, addend: 0x0, symName: __RNcNtNtNtCsc29TF2YcYso_3syn4item4Item4Enum0B7_, symObjAddr: 0x1590C, symBinAddr: 0x62220, symSize: 0x3C }
  - { offset: 0x13B8C4, size: 0x8, addend: 0x0, symName: __RNcNtNtNtCsc29TF2YcYso_3syn4item4Item11ExternCrate0B7_, symObjAddr: 0x15948, symBinAddr: 0x6225C, symSize: 0x3C }
  - { offset: 0x13B8F3, size: 0x8, addend: 0x0, symName: __RNcNtNtNtCsc29TF2YcYso_3syn4item4Item2Fn0B7_, symObjAddr: 0x15984, symBinAddr: 0x62298, symSize: 0x30 }
  - { offset: 0x13B922, size: 0x8, addend: 0x0, symName: __RNcNtNtNtCsc29TF2YcYso_3syn4item4Item10ForeignMod0B7_, symObjAddr: 0x159B4, symBinAddr: 0x622C8, symSize: 0x3C }
  - { offset: 0x13B951, size: 0x8, addend: 0x0, symName: __RNcNtNtNtCsc29TF2YcYso_3syn4item4Item5Macro0B7_, symObjAddr: 0x159F0, symBinAddr: 0x62304, symSize: 0x3C }
  - { offset: 0x13B980, size: 0x8, addend: 0x0, symName: __RNcNtNtNtCsc29TF2YcYso_3syn4item4Item3Mod0B7_, symObjAddr: 0x15A2C, symBinAddr: 0x62340, symSize: 0x3C }
  - { offset: 0x13B9AF, size: 0x8, addend: 0x0, symName: __RNcNtNtNtCsc29TF2YcYso_3syn4item4Item6Struct0B7_, symObjAddr: 0x15A68, symBinAddr: 0x6237C, symSize: 0x3C }
  - { offset: 0x13B9DE, size: 0x8, addend: 0x0, symName: __RNcNtNtNtCsc29TF2YcYso_3syn4item4Item5Trait0B7_, symObjAddr: 0x15AA4, symBinAddr: 0x623B8, symSize: 0x3C }
  - { offset: 0x13BA0D, size: 0x8, addend: 0x0, symName: __RNcNtNtNtCsc29TF2YcYso_3syn4item4Item10TraitAlias0B7_, symObjAddr: 0x15AE0, symBinAddr: 0x623F4, symSize: 0x3C }
  - { offset: 0x13BA3C, size: 0x8, addend: 0x0, symName: __RNcNtNtNtCsc29TF2YcYso_3syn4item4Item5Union0B7_, symObjAddr: 0x15B1C, symBinAddr: 0x62430, symSize: 0x3C }
  - { offset: 0x13BA6C, size: 0x8, addend: 0x0, symName: __RNvXsk_NtCsc29TF2YcYso_3syn4itemNtB5_4ItemNtNtCs4EAaWzSXu1l_5quote9to_tokens8ToTokens9to_tokens, symObjAddr: 0x15FC0, symBinAddr: 0x6246C, symSize: 0x230 }
  - { offset: 0x13BC7E, size: 0x8, addend: 0x0, symName: __RNvXsq_NtCsc29TF2YcYso_3syn4itemNtB5_7UseTreeNtNtCs4EAaWzSXu1l_5quote9to_tokens8ToTokens9to_tokens, symObjAddr: 0x1633C, symBinAddr: 0x6269C, symSize: 0x10C }
  - { offset: 0x13BD50, size: 0x8, addend: 0x0, symName: __RNcNtNtNtCsc29TF2YcYso_3syn4item11ForeignItem5Macro0B7_, symObjAddr: 0x16448, symBinAddr: 0x627A8, symSize: 0x3C }
  - { offset: 0x13BD82, size: 0x8, addend: 0x0, symName: __RNvXsv_NtCsc29TF2YcYso_3syn4itemNtB5_11ForeignItemNtNtCs4EAaWzSXu1l_5quote9to_tokens8ToTokens9to_tokens, symObjAddr: 0x165A8, symBinAddr: 0x627E4, symSize: 0x118 }
  - { offset: 0x13BE54, size: 0x8, addend: 0x0, symName: __RNcNtNtNtCsc29TF2YcYso_3syn4item9TraitItem2Fn0B7_, symObjAddr: 0x166C0, symBinAddr: 0x628FC, symSize: 0x3C }
  - { offset: 0x13BE85, size: 0x8, addend: 0x0, symName: __RNcNtNtNtCsc29TF2YcYso_3syn4item9TraitItem5Macro0B7_, symObjAddr: 0x166FC, symBinAddr: 0x62938, symSize: 0x3C }
  - { offset: 0x13BEB7, size: 0x8, addend: 0x0, symName: __RNvXsA_NtCsc29TF2YcYso_3syn4itemNtB5_9TraitItemNtNtCs4EAaWzSXu1l_5quote9to_tokens8ToTokens9to_tokens, symObjAddr: 0x1685C, symBinAddr: 0x62974, symSize: 0x118 }
  - { offset: 0x13BF89, size: 0x8, addend: 0x0, symName: __RNcNtNtNtCsc29TF2YcYso_3syn4item8ImplItem5Macro0B7_, symObjAddr: 0x16974, symBinAddr: 0x62A8C, symSize: 0x3C }
  - { offset: 0x13BFBB, size: 0x8, addend: 0x0, symName: __RNvXsF_NtCsc29TF2YcYso_3syn4itemNtB5_8ImplItemNtNtCs4EAaWzSXu1l_5quote9to_tokens8ToTokens9to_tokens, symObjAddr: 0x16AD4, symBinAddr: 0x62AC8, symSize: 0x118 }
  - { offset: 0x13C088, size: 0x8, addend: 0x0, symName: __RNvXsI_NtCsc29TF2YcYso_3syn4itemNtB5_5FnArgNtNtCs4EAaWzSXu1l_5quote9to_tokens8ToTokens9to_tokens, symObjAddr: 0x16C78, symBinAddr: 0x62BE0, symSize: 0x8C }
  - { offset: 0x13C103, size: 0x8, addend: 0x0, symName: __RNcNtNtNtCsc29TF2YcYso_3syn4item16StaticMutability3Mut0B7_, symObjAddr: 0x16D04, symBinAddr: 0x62C6C, symSize: 0x20 }
  - { offset: 0x13FBB1, size: 0x8, addend: 0x0, symName: __RNvXs16_NtNtCsc29TF2YcYso_3syn3gen5cloneNtNtBa_4item5FnArgNtNtCsaNl6UpbT7bw_4core5clone5Clone5clone, symObjAddr: 0x16D24, symBinAddr: 0x62C8C, symSize: 0xDC }
  - { offset: 0x13FC19, size: 0x8, addend: 0x0, symName: __RNvXs17_NtNtCsc29TF2YcYso_3syn3gen5cloneNtNtBa_4item11ForeignItemNtNtCsaNl6UpbT7bw_4core5clone5Clone5clone, symObjAddr: 0x16E00, symBinAddr: 0x62D68, symSize: 0x224 }
  - { offset: 0x13FCDB, size: 0x8, addend: 0x0, symName: __RNvXs18_NtNtCsc29TF2YcYso_3syn3gen5cloneNtNtBa_4item13ForeignItemFnNtNtCsaNl6UpbT7bw_4core5clone5Clone5clone, symObjAddr: 0x17024, symBinAddr: 0x62F8C, symSize: 0x13C }
  - { offset: 0x13FD0F, size: 0x8, addend: 0x0, symName: __RNvXs19_NtNtCsc29TF2YcYso_3syn3gen5cloneNtNtBa_4item16ForeignItemMacroNtNtCsaNl6UpbT7bw_4core5clone5Clone5clone, symObjAddr: 0x17160, symBinAddr: 0x630C8, symSize: 0xF4 }
  - { offset: 0x13FD43, size: 0x8, addend: 0x0, symName: __RNvXs1a_NtNtCsc29TF2YcYso_3syn3gen5cloneNtNtBa_4item17ForeignItemStaticNtNtCsaNl6UpbT7bw_4core5clone5Clone5clone, symObjAddr: 0x17254, symBinAddr: 0x631BC, symSize: 0x1DC }
  - { offset: 0x13FD77, size: 0x8, addend: 0x0, symName: __RNvXs1b_NtNtCsc29TF2YcYso_3syn3gen5cloneNtNtBa_4item15ForeignItemTypeNtNtCsaNl6UpbT7bw_4core5clone5Clone5clone, symObjAddr: 0x17430, symBinAddr: 0x63398, symSize: 0x198 }
  - { offset: 0x13FDAB, size: 0x8, addend: 0x0, symName: __RNvXs1f_NtNtCsc29TF2YcYso_3syn3gen5cloneNtNtBa_4item8ImplItemNtNtCsaNl6UpbT7bw_4core5clone5Clone5clone, symObjAddr: 0x175C8, symBinAddr: 0x63530, symSize: 0x21C }
  - { offset: 0x13FE6D, size: 0x8, addend: 0x0, symName: __RNvXs1g_NtNtCsc29TF2YcYso_3syn3gen5cloneNtNtBa_4item13ImplItemConstNtNtCsaNl6UpbT7bw_4core5clone5Clone5clone, symObjAddr: 0x177E4, symBinAddr: 0x6374C, symSize: 0x2AC }
  - { offset: 0x13FEA1, size: 0x8, addend: 0x0, symName: __RNvXs1h_NtNtCsc29TF2YcYso_3syn3gen5cloneNtNtBa_4item10ImplItemFnNtNtCsaNl6UpbT7bw_4core5clone5Clone5clone, symObjAddr: 0x17A90, symBinAddr: 0x639F8, symSize: 0x160 }
  - { offset: 0x13FED5, size: 0x8, addend: 0x0, symName: __RNvXs1i_NtNtCsc29TF2YcYso_3syn3gen5cloneNtNtBa_4item13ImplItemMacroNtNtCsaNl6UpbT7bw_4core5clone5Clone5clone, symObjAddr: 0x17BF0, symBinAddr: 0x63B58, symSize: 0xF4 }
  - { offset: 0x13FF09, size: 0x8, addend: 0x0, symName: __RNvXs1j_NtNtCsc29TF2YcYso_3syn3gen5cloneNtNtBa_4item12ImplItemTypeNtNtCsaNl6UpbT7bw_4core5clone5Clone5clone, symObjAddr: 0x17CE4, symBinAddr: 0x63C4C, symSize: 0x238 }
  - { offset: 0x13FF3D, size: 0x8, addend: 0x0, symName: __RNvXs1m_NtNtCsc29TF2YcYso_3syn3gen5cloneNtNtBa_4item4ItemNtNtCsaNl6UpbT7bw_4core5clone5Clone5clone, symObjAddr: 0x17F28, symBinAddr: 0x63E84, symSize: 0x5D0 }
  - { offset: 0x140154, size: 0x8, addend: 0x0, symName: __RNvXs1n_NtNtCsc29TF2YcYso_3syn3gen5cloneNtNtBa_4item9ItemConstNtNtCsaNl6UpbT7bw_4core5clone5Clone5clone, symObjAddr: 0x184F8, symBinAddr: 0x64454, symSize: 0x270 }
  - { offset: 0x140188, size: 0x8, addend: 0x0, symName: __RNvXs1o_NtNtCsc29TF2YcYso_3syn3gen5cloneNtNtBa_4item8ItemEnumNtNtCsaNl6UpbT7bw_4core5clone5Clone5clone, symObjAddr: 0x18768, symBinAddr: 0x646C4, symSize: 0x1C0 }
  - { offset: 0x1401BC, size: 0x8, addend: 0x0, symName: __RNvXs1p_NtNtCsc29TF2YcYso_3syn3gen5cloneNtNtBa_4item15ItemExternCrateNtNtCsaNl6UpbT7bw_4core5clone5Clone5clone, symObjAddr: 0x18928, symBinAddr: 0x64884, symSize: 0x1A4 }
  - { offset: 0x1401F0, size: 0x8, addend: 0x0, symName: __RNvXs1q_NtNtCsc29TF2YcYso_3syn3gen5cloneNtNtBa_4item6ItemFnNtNtCsaNl6UpbT7bw_4core5clone5Clone5clone, symObjAddr: 0x18ACC, symBinAddr: 0x64A28, symSize: 0x12C }
  - { offset: 0x140224, size: 0x8, addend: 0x0, symName: __RNvXs1r_NtNtCsc29TF2YcYso_3syn3gen5cloneNtNtBa_4item14ItemForeignModNtNtCsaNl6UpbT7bw_4core5clone5Clone5clone, symObjAddr: 0x18BF8, symBinAddr: 0x64B54, symSize: 0x14C }
  - { offset: 0x140258, size: 0x8, addend: 0x0, symName: __RNvXs1s_NtNtCsc29TF2YcYso_3syn3gen5cloneNtNtBa_4item8ItemImplNtNtCsaNl6UpbT7bw_4core5clone5Clone5clone, symObjAddr: 0x18D44, symBinAddr: 0x64CA0, symSize: 0x220 }
  - { offset: 0x14028C, size: 0x8, addend: 0x0, symName: __RNvXs1t_NtNtCsc29TF2YcYso_3syn3gen5cloneNtNtBa_4item9ItemMacroNtNtCsaNl6UpbT7bw_4core5clone5Clone5clone, symObjAddr: 0x18F64, symBinAddr: 0x64EC0, symSize: 0x134 }
  - { offset: 0x1402C0, size: 0x8, addend: 0x0, symName: __RNvXs1u_NtNtCsc29TF2YcYso_3syn3gen5cloneNtNtBa_4item7ItemModNtNtCsaNl6UpbT7bw_4core5clone5Clone5clone, symObjAddr: 0x19098, symBinAddr: 0x64FF4, symSize: 0x1B8 }
  - { offset: 0x1402F4, size: 0x8, addend: 0x0, symName: __RNvXs1v_NtNtCsc29TF2YcYso_3syn3gen5cloneNtNtBa_4item10ItemStaticNtNtCsaNl6UpbT7bw_4core5clone5Clone5clone, symObjAddr: 0x19250, symBinAddr: 0x651AC, symSize: 0x248 }
  - { offset: 0x140328, size: 0x8, addend: 0x0, symName: __RNvXs1w_NtNtCsc29TF2YcYso_3syn3gen5cloneNtNtBa_4item10ItemStructNtNtCsaNl6UpbT7bw_4core5clone5Clone5clone, symObjAddr: 0x19498, symBinAddr: 0x653F4, symSize: 0x1DC }
  - { offset: 0x14035C, size: 0x8, addend: 0x0, symName: __RNvXs1x_NtNtCsc29TF2YcYso_3syn3gen5cloneNtNtBa_4item9ItemTraitNtNtCsaNl6UpbT7bw_4core5clone5Clone5clone, symObjAddr: 0x19674, symBinAddr: 0x655D0, symSize: 0x288 }
  - { offset: 0x140390, size: 0x8, addend: 0x0, symName: __RNvXs1y_NtNtCsc29TF2YcYso_3syn3gen5cloneNtNtBa_4item14ItemTraitAliasNtNtCsaNl6UpbT7bw_4core5clone5Clone5clone, symObjAddr: 0x198FC, symBinAddr: 0x65858, symSize: 0x204 }
  - { offset: 0x1403C4, size: 0x8, addend: 0x0, symName: __RNvXs1z_NtNtCsc29TF2YcYso_3syn3gen5cloneNtNtBa_4item8ItemTypeNtNtCsaNl6UpbT7bw_4core5clone5Clone5clone, symObjAddr: 0x19B00, symBinAddr: 0x65A5C, symSize: 0x204 }
  - { offset: 0x1403F8, size: 0x8, addend: 0x0, symName: __RNvXs1A_NtNtCsc29TF2YcYso_3syn3gen5cloneNtNtBa_4item9ItemUnionNtNtCsaNl6UpbT7bw_4core5clone5Clone5clone, symObjAddr: 0x19D04, symBinAddr: 0x65C60, symSize: 0x194 }
  - { offset: 0x14042C, size: 0x8, addend: 0x0, symName: __RNvXs1B_NtNtCsc29TF2YcYso_3syn3gen5cloneNtNtBa_4item7ItemUseNtNtCsaNl6UpbT7bw_4core5clone5Clone5clone, symObjAddr: 0x19E98, symBinAddr: 0x65DF4, symSize: 0x174 }
  - { offset: 0x140460, size: 0x8, addend: 0x0, symName: __RNvXs2b_NtNtCsc29TF2YcYso_3syn3gen5cloneNtNtBa_4item8ReceiverNtNtCsaNl6UpbT7bw_4core5clone5Clone5clone, symObjAddr: 0x1A00C, symBinAddr: 0x65F68, symSize: 0x154 }
  - { offset: 0x140494, size: 0x8, addend: 0x0, symName: __RNvXs2d_NtNtCsc29TF2YcYso_3syn3gen5cloneNtNtBa_4item9SignatureNtNtCsaNl6UpbT7bw_4core5clone5Clone5clone, symObjAddr: 0x1A160, symBinAddr: 0x660BC, symSize: 0x278 }
  - { offset: 0x1404C8, size: 0x8, addend: 0x0, symName: __RNvXs2e_NtNtCsc29TF2YcYso_3syn3gen5cloneNtNtBa_4item16StaticMutabilityNtNtCsaNl6UpbT7bw_4core5clone5Clone5clone, symObjAddr: 0x1A3D8, symBinAddr: 0x66334, symSize: 0x90 }
  - { offset: 0x14051A, size: 0x8, addend: 0x0, symName: __RNvXs2k_NtNtCsc29TF2YcYso_3syn3gen5cloneNtNtBa_4item9TraitItemNtNtCsaNl6UpbT7bw_4core5clone5Clone5clone, symObjAddr: 0x1A468, symBinAddr: 0x663C4, symSize: 0x21C }
  - { offset: 0x1405DC, size: 0x8, addend: 0x0, symName: __RNvXs2l_NtNtCsc29TF2YcYso_3syn3gen5cloneNtNtBa_4item14TraitItemConstNtNtCsaNl6UpbT7bw_4core5clone5Clone5clone, symObjAddr: 0x1A684, symBinAddr: 0x665E0, symSize: 0x218 }
  - { offset: 0x140610, size: 0x8, addend: 0x0, symName: __RNvXs2m_NtNtCsc29TF2YcYso_3syn3gen5cloneNtNtBa_4item11TraitItemFnNtNtCsaNl6UpbT7bw_4core5clone5Clone5clone, symObjAddr: 0x1A89C, symBinAddr: 0x667F8, symSize: 0x140 }
  - { offset: 0x140644, size: 0x8, addend: 0x0, symName: __RNvXs2n_NtNtCsc29TF2YcYso_3syn3gen5cloneNtNtBa_4item14TraitItemMacroNtNtCsaNl6UpbT7bw_4core5clone5Clone5clone, symObjAddr: 0x1A9DC, symBinAddr: 0x66938, symSize: 0xF4 }
  - { offset: 0x140678, size: 0x8, addend: 0x0, symName: __RNvXs2o_NtNtCsc29TF2YcYso_3syn3gen5cloneNtNtBa_4item13TraitItemTypeNtNtCsaNl6UpbT7bw_4core5clone5Clone5clone, symObjAddr: 0x1AAD0, symBinAddr: 0x66A2C, symSize: 0x20C }
  - { offset: 0x1406AC, size: 0x8, addend: 0x0, symName: __RNvXs2I_NtNtCsc29TF2YcYso_3syn3gen5cloneNtNtBa_4item7UseGlobNtNtCsaNl6UpbT7bw_4core5clone5Clone5clone, symObjAddr: 0x1ACDC, symBinAddr: 0x66C38, symSize: 0x4C }
  - { offset: 0x1406E0, size: 0x8, addend: 0x0, symName: __RNvXs2J_NtNtCsc29TF2YcYso_3syn3gen5cloneNtNtBa_4item8UseGroupNtNtCsaNl6UpbT7bw_4core5clone5Clone5clone, symObjAddr: 0x1AD28, symBinAddr: 0x66C84, symSize: 0x70 }
  - { offset: 0x140714, size: 0x8, addend: 0x0, symName: __RNvXs2K_NtNtCsc29TF2YcYso_3syn3gen5cloneNtNtBa_4item7UseNameNtNtCsaNl6UpbT7bw_4core5clone5Clone5clone, symObjAddr: 0x1AD98, symBinAddr: 0x66CF4, symSize: 0x50 }
  - { offset: 0x140748, size: 0x8, addend: 0x0, symName: __RNvXs2L_NtNtCsc29TF2YcYso_3syn3gen5cloneNtNtBa_4item7UsePathNtNtCsaNl6UpbT7bw_4core5clone5Clone5clone, symObjAddr: 0x1ADE8, symBinAddr: 0x66D44, symSize: 0xC0 }
  - { offset: 0x14077C, size: 0x8, addend: 0x0, symName: __RNvXs2M_NtNtCsc29TF2YcYso_3syn3gen5cloneNtNtBa_4item9UseRenameNtNtCsaNl6UpbT7bw_4core5clone5Clone5clone, symObjAddr: 0x1AEA8, symBinAddr: 0x66E04, symSize: 0xB8 }
  - { offset: 0x1407B0, size: 0x8, addend: 0x0, symName: __RNvXs2N_NtNtCsc29TF2YcYso_3syn3gen5cloneNtNtBa_4item7UseTreeNtNtCsaNl6UpbT7bw_4core5clone5Clone5clone, symObjAddr: 0x1AF60, symBinAddr: 0x66EBC, symSize: 0x20C }
  - { offset: 0x140873, size: 0x8, addend: 0x0, symName: __RNvXs2O_NtNtCsc29TF2YcYso_3syn3gen5cloneNtNtBa_4item8VariadicNtNtCsaNl6UpbT7bw_4core5clone5Clone5clone, symObjAddr: 0x1B16C, symBinAddr: 0x670C8, symSize: 0x108 }
  - { offset: 0x142241, size: 0x8, addend: 0x0, symName: __RINvXNvMNtCsiTraAjBDcu4_5alloc5sliceSp9to_vec_inNtNtCsc29TF2YcYso_3syn4item11ForeignItemNtB3_10ConvertVec6to_vecNtNtB8_5alloc6GlobalEBO_, symObjAddr: 0x0, symBinAddr: 0x54208, symSize: 0x374 }
  - { offset: 0x1426F6, size: 0x8, addend: 0x0, symName: __RINvXNvMNtCsiTraAjBDcu4_5alloc5sliceSp9to_vec_inNtNtCsc29TF2YcYso_3syn4item4ItemNtB3_10ConvertVec6to_vecNtNtB8_5alloc6GlobalEBO_, symObjAddr: 0x374, symBinAddr: 0x5457C, symSize: 0x374 }
  - { offset: 0x142BAB, size: 0x8, addend: 0x0, symName: __RINvXNvMNtCsiTraAjBDcu4_5alloc5sliceSp9to_vec_inNtNtCsc29TF2YcYso_3syn4item8ImplItemNtB3_10ConvertVec6to_vecNtNtB8_5alloc6GlobalEBO_, symObjAddr: 0x6E8, symBinAddr: 0x548F0, symSize: 0x374 }
  - { offset: 0x143060, size: 0x8, addend: 0x0, symName: __RINvXNvMNtCsiTraAjBDcu4_5alloc5sliceSp9to_vec_inNtNtCsc29TF2YcYso_3syn4item9TraitItemNtB3_10ConvertVec6to_vecNtNtB8_5alloc6GlobalEBO_, symObjAddr: 0xA5C, symBinAddr: 0x54C64, symSize: 0x374 }
  - { offset: 0x143515, size: 0x8, addend: 0x0, symName: __RINvXNvMNtCsiTraAjBDcu4_5alloc5sliceSp9to_vec_inTNtNtCsc29TF2YcYso_3syn4item5FnArgNtNtBP_5token5CommaENtB3_10ConvertVec6to_vecNtNtB8_5alloc6GlobalEBP_, symObjAddr: 0xDD0, symBinAddr: 0x54FD8, symSize: 0x370 }
  - { offset: 0x1439CA, size: 0x8, addend: 0x0, symName: __RINvXNvMNtCsiTraAjBDcu4_5alloc5sliceSp9to_vec_inTNtNtCsc29TF2YcYso_3syn4item7UseTreeNtNtBP_5token5CommaENtB3_10ConvertVec6to_vecNtNtB8_5alloc6GlobalEBP_, symObjAddr: 0x1140, symBinAddr: 0x55348, symSize: 0x370 }
  - { offset: 0x147F2D, size: 0x8, addend: 0x0, symName: __RNvMNtCsaNl6UpbT7bw_4core5sliceSTNtNtCsc29TF2YcYso_3syn4item5FnArgNtNtBz_5token5CommaE4iterBz_, symObjAddr: 0x14B0, symBinAddr: 0x556B8, symSize: 0x28 }
  - { offset: 0x147F64, size: 0x8, addend: 0x0, symName: __RNvMNtCsaNl6UpbT7bw_4core5sliceSTNtNtCsc29TF2YcYso_3syn4item7UseTreeNtNtBz_5token5CommaE4iterBz_, symObjAddr: 0x14D8, symBinAddr: 0x556E0, symSize: 0x28 }
  - { offset: 0x148654, size: 0x8, addend: 0x0, symName: __RNvXNtNtCsaNl6UpbT7bw_4core5clone6uninitNtNtCsc29TF2YcYso_3syn4item5FnArgNtB2_8CopySpec9clone_oneBG_, symObjAddr: 0x1680, symBinAddr: 0x55888, symSize: 0x48 }
  - { offset: 0x1486B8, size: 0x8, addend: 0x0, symName: __RNvXNtNtCsaNl6UpbT7bw_4core5clone6uninitNtNtCsc29TF2YcYso_3syn4item7UseTreeNtB2_8CopySpec9clone_oneBG_, symObjAddr: 0x16C8, symBinAddr: 0x558D0, symSize: 0x48 }
  - { offset: 0x14AEA4, size: 0x8, addend: 0x0, symName: __RNvXNtCs4EAaWzSXu1l_5quote9to_tokensRNtNtCsc29TF2YcYso_3syn4item11ForeignItemNtB2_8ToTokens9to_tokensBD_, symObjAddr: 0x1500, symBinAddr: 0x55708, symSize: 0x40 }
  - { offset: 0x14AEE3, size: 0x8, addend: 0x0, symName: __RNvXNtCs4EAaWzSXu1l_5quote9to_tokensRNtNtCsc29TF2YcYso_3syn4item4ItemNtB2_8ToTokens9to_tokensBD_, symObjAddr: 0x1540, symBinAddr: 0x55748, symSize: 0x40 }
  - { offset: 0x14AF22, size: 0x8, addend: 0x0, symName: __RNvXNtCs4EAaWzSXu1l_5quote9to_tokensRNtNtCsc29TF2YcYso_3syn4item5FnArgNtB2_8ToTokens9to_tokensBD_, symObjAddr: 0x1580, symBinAddr: 0x55788, symSize: 0x40 }
  - { offset: 0x14AF61, size: 0x8, addend: 0x0, symName: __RNvXNtCs4EAaWzSXu1l_5quote9to_tokensRNtNtCsc29TF2YcYso_3syn4item7UseTreeNtB2_8ToTokens9to_tokensBD_, symObjAddr: 0x15C0, symBinAddr: 0x557C8, symSize: 0x40 }
  - { offset: 0x14AFA0, size: 0x8, addend: 0x0, symName: __RNvXNtCs4EAaWzSXu1l_5quote9to_tokensRNtNtCsc29TF2YcYso_3syn4item8ImplItemNtB2_8ToTokens9to_tokensBD_, symObjAddr: 0x1600, symBinAddr: 0x55808, symSize: 0x40 }
  - { offset: 0x14AFDF, size: 0x8, addend: 0x0, symName: __RNvXNtCs4EAaWzSXu1l_5quote9to_tokensRNtNtCsc29TF2YcYso_3syn4item9TraitItemNtB2_8ToTokens9to_tokensBD_, symObjAddr: 0x1640, symBinAddr: 0x55848, symSize: 0x40 }
  - { offset: 0x14B03B, size: 0x8, addend: 0x0, symName: __RNvMNtCsc29TF2YcYso_3syn4itemNtB2_4Item13replace_attrs, symObjAddr: 0x2CE8, symBinAddr: 0x55918, symSize: 0x328 }
  - { offset: 0x14B612, size: 0x8, addend: 0x0, symName: __RINvMs_NtCsiTraAjBDcu4_5alloc3vecINtB5_3VecReE10retain_mutNCNvMNtCsc29TF2YcYso_3syn9lookaheadNtBZ_10Lookahead15error0EB11_, symObjAddr: 0x0, symBinAddr: 0x671D0, symSize: 0xE4 }
  - { offset: 0x15395A, size: 0x8, addend: 0x0, symName: __RNvXs1_NtCsaNl6UpbT7bw_4core7convertINtNtCsiTraAjBDcu4_5alloc3vec3VechEINtB5_4IntoBy_E4intoCsc29TF2YcYso_3syn, symObjAddr: 0x6F84, symBinAddr: 0x6BB30, symSize: 0x18 }
  - { offset: 0x153B97, size: 0x8, addend: 0x0, symName: __RINvNvMs_NtCsiTraAjBDcu4_5alloc3vecINtB7_3VecppE10retain_mut12process_loopNCNvMNtCsc29TF2YcYso_3syn9lookaheadNtB1f_10Lookahead15error0ReNtNtB9_5alloc6GlobalKb0_EB1h_, symObjAddr: 0xC48, symBinAddr: 0x677A4, symSize: 0xCC }
  - { offset: 0x153CEB, size: 0x8, addend: 0x0, symName: __RINvNvMs_NtCsiTraAjBDcu4_5alloc3vecINtB7_3VecppE10retain_mut12process_loopNCNvMNtCsc29TF2YcYso_3syn9lookaheadNtB1f_10Lookahead15error0ReNtNtB9_5alloc6GlobalKb1_EB1h_, symObjAddr: 0xD14, symBinAddr: 0x67870, symSize: 0x170 }
  - { offset: 0x153EE1, size: 0x8, addend: 0x0, symName: __RNvXNvMs_NtCsiTraAjBDcu4_5alloc3vecINtB7_3VecppE10retain_mutINtB2_15BackshiftOnDropReNtNtB9_5alloc6GlobalENtNtNtCsaNl6UpbT7bw_4core3ops4drop4Drop4dropCsc29TF2YcYso_3syn, symObjAddr: 0x6B78, symBinAddr: 0x6B7EC, symSize: 0x12C }
  - { offset: 0x156950, size: 0x8, addend: 0x0, symName: __RINvXsh_NtCsiTraAjBDcu4_5alloc3vecINtB6_3VecNtCshnvkK9b4wzu_11proc_macro29TokenTreeEINtNtNtNtCsaNl6UpbT7bw_4core4iter6traits7collect6ExtendBG_E6extendINtNtNtB1r_8adapters7flatten7FlattenINtNtB2t_3map3MapIB2Z_IB2Z_INtNtNtB1t_5slice4iter4IterNtNtCsc29TF2YcYso_3syn5error12ErrorMessageENvMs_B3S_B3Q_16to_compile_errorENCINvXs7_BI_NtBI_11TokenStreamINtB1n_12FromIteratorB5f_E9from_iterB3k_E0ENCINvXs6_NtBI_3impNtB6n_11TokenStreamIB5y_B6w_E9from_iterB3f_Es_0EEEB3U_, symObjAddr: 0xEC0, symBinAddr: 0x679E0, symSize: 0x48 }
  - { offset: 0x1569A5, size: 0x8, addend: 0x0, symName: __RINvXsh_NtCsiTraAjBDcu4_5alloc3vecINtB6_3VecNtNtCsc29TF2YcYso_3syn4attr9AttributeEINtNtNtNtCsaNl6UpbT7bw_4core4iter6traits7collect6ExtendBG_E6extendBw_EBK_, symObjAddr: 0xF08, symBinAddr: 0x67A28, symSize: 0x48 }
  - { offset: 0x1569FA, size: 0x8, addend: 0x0, symName: __RINvXsh_NtCsiTraAjBDcu4_5alloc3vecINtB6_3VecNtNtCsc29TF2YcYso_3syn8generics14TypeParamBoundEINtNtNtNtCsaNl6UpbT7bw_4core4iter6traits7collect6ExtendBG_E6extendINtNtB1B_6option6OptionBG_EEBK_, symObjAddr: 0x1078, symBinAddr: 0x67A70, symSize: 0x48 }
  - { offset: 0x156A4F, size: 0x8, addend: 0x0, symName: __RINvXsh_NtCsiTraAjBDcu4_5alloc3vecINtB6_3VecNtNtCsc29TF2YcYso_3syn8generics14TypeParamBoundEINtNtNtNtCsaNl6UpbT7bw_4core4iter6traits7collect6ExtendBG_E6extendINtNtNtB1z_8adapters3map3MapINtNtB6_9into_iter8IntoIterTBG_NtNtBK_5token4PlusEENCNvXs8_NtBK_10punctuatedINtB3V_10PunctuatedBG_B3t_ENtB1v_12IntoIterator9into_iter0EEBK_, symObjAddr: 0x10C0, symBinAddr: 0x67AB8, symSize: 0x48 }
  - { offset: 0x156AAF, size: 0x8, addend: 0x0, symName: __RNCINvMsi_NtCsiTraAjBDcu4_5alloc3vecINtB8_3VecNtNtCsc29TF2YcYso_3syn8generics14TypeParamBoundE14extend_trustedINtNtCsaNl6UpbT7bw_4core6option8IntoIterBI_EE0BM_, symObjAddr: 0x1204, symBinAddr: 0x67B00, symSize: 0x54 }
  - { offset: 0x156B6D, size: 0x8, addend: 0x0, symName: __RNCINvMsi_NtCsiTraAjBDcu4_5alloc3vecINtB8_3VecNtNtCsc29TF2YcYso_3syn8generics14TypeParamBoundE14extend_trustedINtNtNtNtCsaNl6UpbT7bw_4core4iter8adapters3map3MapINtNtB8_9into_iter8IntoIterTBI_NtNtBM_5token4PlusEENCNvXs8_NtBM_10punctuatedINtB3v_10PunctuatedBI_B33_ENtNtNtB1R_6traits7collect12IntoIterator9into_iter0EE0BM_, symObjAddr: 0x1258, symBinAddr: 0x67B54, symSize: 0x54 }
  - { offset: 0x15706D, size: 0x8, addend: 0x0, symName: __RNvXs6_NtCsiTraAjBDcu4_5alloc3vecINtB5_3VecNtNtCsc29TF2YcYso_3syn4attr9AttributeENtNtNtCsaNl6UpbT7bw_4core3ops5deref5Deref5derefBJ_, symObjAddr: 0x6F9C, symBinAddr: 0x6BB48, symSize: 0x24 }
  - { offset: 0x1570AD, size: 0x8, addend: 0x0, symName: __RNvXs6_NtCsiTraAjBDcu4_5alloc3vecINtB5_3VecNtNtCsc29TF2YcYso_3syn4expr3ArmENtNtNtCsaNl6UpbT7bw_4core3ops5deref5Deref5derefBJ_, symObjAddr: 0x6FC0, symBinAddr: 0x6BB6C, symSize: 0x24 }
  - { offset: 0x1570ED, size: 0x8, addend: 0x0, symName: __RNvXs6_NtCsiTraAjBDcu4_5alloc3vecINtB5_3VecNtNtCsc29TF2YcYso_3syn5error12ErrorMessageENtNtNtCsaNl6UpbT7bw_4core3ops5deref5Deref5derefBJ_, symObjAddr: 0x6FE4, symBinAddr: 0x6BB90, symSize: 0x24 }
  - { offset: 0x15712D, size: 0x8, addend: 0x0, symName: __RNvXs6_NtCsiTraAjBDcu4_5alloc3vecINtB5_3VecReENtNtNtCsaNl6UpbT7bw_4core3ops5deref5Deref5derefCsc29TF2YcYso_3syn, symObjAddr: 0x7008, symBinAddr: 0x6BBB4, symSize: 0x24 }
  - { offset: 0x15716D, size: 0x8, addend: 0x0, symName: __RNvXs6_NtCsiTraAjBDcu4_5alloc3vecINtB5_3VecTNtNtCsc29TF2YcYso_3syn2ty4TypeNtNtBK_5token5CommaEENtNtNtCsaNl6UpbT7bw_4core3ops5deref5Deref5derefBK_, symObjAddr: 0x702C, symBinAddr: 0x6BBD8, symSize: 0x24 }
  - { offset: 0x1571AD, size: 0x8, addend: 0x0, symName: __RNvXs6_NtCsiTraAjBDcu4_5alloc3vecINtB5_3VecTNtNtCsc29TF2YcYso_3syn2ty9BareFnArgNtNtBK_5token5CommaEENtNtNtCsaNl6UpbT7bw_4core3ops5deref5Deref5derefBK_, symObjAddr: 0x7050, symBinAddr: 0x6BBFC, symSize: 0x24 }
  - { offset: 0x1571ED, size: 0x8, addend: 0x0, symName: __RNvXs6_NtCsiTraAjBDcu4_5alloc3vecINtB5_3VecTNtNtCsc29TF2YcYso_3syn3pat3PatNtNtBK_5token2OrEENtNtNtCsaNl6UpbT7bw_4core3ops5deref5Deref5derefBK_, symObjAddr: 0x7074, symBinAddr: 0x6BC20, symSize: 0x24 }
  - { offset: 0x15722D, size: 0x8, addend: 0x0, symName: __RNvXs6_NtCsiTraAjBDcu4_5alloc3vecINtB5_3VecTNtNtCsc29TF2YcYso_3syn3pat3PatNtNtBK_5token5CommaEENtNtNtCsaNl6UpbT7bw_4core3ops5deref5Deref5derefBK_, symObjAddr: 0x7098, symBinAddr: 0x6BC44, symSize: 0x24 }
  - { offset: 0x15726D, size: 0x8, addend: 0x0, symName: __RNvXs6_NtCsiTraAjBDcu4_5alloc3vecINtB5_3VecTNtNtCsc29TF2YcYso_3syn3pat8FieldPatNtNtBK_5token5CommaEENtNtNtCsaNl6UpbT7bw_4core3ops5deref5Deref5derefBK_, symObjAddr: 0x70BC, symBinAddr: 0x6BC68, symSize: 0x24 }
  - { offset: 0x1572AD, size: 0x8, addend: 0x0, symName: __RNvXs6_NtCsiTraAjBDcu4_5alloc3vecINtB5_3VecTNtNtCsc29TF2YcYso_3syn4data5FieldNtNtBK_5token5CommaEENtNtNtCsaNl6UpbT7bw_4core3ops5deref5Deref5derefBK_, symObjAddr: 0x70E0, symBinAddr: 0x6BC8C, symSize: 0x24 }
  - { offset: 0x1572ED, size: 0x8, addend: 0x0, symName: __RNvXs6_NtCsiTraAjBDcu4_5alloc3vecINtB5_3VecTNtNtCsc29TF2YcYso_3syn4data7VariantNtNtBK_5token5CommaEENtNtNtCsaNl6UpbT7bw_4core3ops5deref5Deref5derefBK_, symObjAddr: 0x7104, symBinAddr: 0x6BCB0, symSize: 0x24 }
  - { offset: 0x15732D, size: 0x8, addend: 0x0, symName: __RNvXs6_NtCsiTraAjBDcu4_5alloc3vecINtB5_3VecTNtNtCsc29TF2YcYso_3syn4expr10FieldValueNtNtBK_5token5CommaEENtNtNtCsaNl6UpbT7bw_4core3ops5deref5Deref5derefBK_, symObjAddr: 0x7128, symBinAddr: 0x6BCD4, symSize: 0x24 }
  - { offset: 0x15736D, size: 0x8, addend: 0x0, symName: __RNvXs6_NtCsiTraAjBDcu4_5alloc3vecINtB5_3VecTNtNtCsc29TF2YcYso_3syn4expr4ExprNtNtBK_5token5CommaEENtNtNtCsaNl6UpbT7bw_4core3ops5deref5Deref5derefBK_, symObjAddr: 0x714C, symBinAddr: 0x6BCF8, symSize: 0x24 }
  - { offset: 0x1573AD, size: 0x8, addend: 0x0, symName: __RNvXs6_NtCsiTraAjBDcu4_5alloc3vecINtB5_3VecTNtNtCsc29TF2YcYso_3syn4item5FnArgNtNtBK_5token5CommaEENtNtNtCsaNl6UpbT7bw_4core3ops5deref5Deref5derefBK_, symObjAddr: 0x7170, symBinAddr: 0x6BD1C, symSize: 0x24 }
  - { offset: 0x1573ED, size: 0x8, addend: 0x0, symName: __RNvXs6_NtCsiTraAjBDcu4_5alloc3vecINtB5_3VecTNtNtCsc29TF2YcYso_3syn4item7UseTreeNtNtBK_5token5CommaEENtNtNtCsaNl6UpbT7bw_4core3ops5deref5Deref5derefBK_, symObjAddr: 0x7194, symBinAddr: 0x6BD40, symSize: 0x24 }
  - { offset: 0x15742D, size: 0x8, addend: 0x0, symName: __RNvXs6_NtCsiTraAjBDcu4_5alloc3vecINtB5_3VecTNtNtCsc29TF2YcYso_3syn4path11PathSegmentNtNtBK_5token7PathSepEENtNtNtCsaNl6UpbT7bw_4core3ops5deref5Deref5derefBK_, symObjAddr: 0x71B8, symBinAddr: 0x6BD64, symSize: 0x24 }
  - { offset: 0x15746D, size: 0x8, addend: 0x0, symName: __RNvXs6_NtCsiTraAjBDcu4_5alloc3vecINtB5_3VecTNtNtCsc29TF2YcYso_3syn4path15GenericArgumentNtNtBK_5token5CommaEENtNtNtCsaNl6UpbT7bw_4core3ops5deref5Deref5derefBK_, symObjAddr: 0x71DC, symBinAddr: 0x6BD88, symSize: 0x24 }
  - { offset: 0x1574AD, size: 0x8, addend: 0x0, symName: __RNvXs6_NtCsiTraAjBDcu4_5alloc3vecINtB5_3VecTNtNtCsc29TF2YcYso_3syn8generics12GenericParamNtNtBK_5token5CommaEENtNtNtCsaNl6UpbT7bw_4core3ops5deref5Deref5derefBK_, symObjAddr: 0x7200, symBinAddr: 0x6BDAC, symSize: 0x24 }
  - { offset: 0x1574ED, size: 0x8, addend: 0x0, symName: __RNvXs6_NtCsiTraAjBDcu4_5alloc3vecINtB5_3VecTNtNtCsc29TF2YcYso_3syn8generics13CapturedParamNtNtBK_5token5CommaEENtNtNtCsaNl6UpbT7bw_4core3ops5deref5Deref5derefBK_, symObjAddr: 0x7224, symBinAddr: 0x6BDD0, symSize: 0x24 }
  - { offset: 0x15752D, size: 0x8, addend: 0x0, symName: __RNvXs6_NtCsiTraAjBDcu4_5alloc3vecINtB5_3VecTNtNtCsc29TF2YcYso_3syn8generics14TypeParamBoundNtNtBK_5token4PlusEENtNtNtCsaNl6UpbT7bw_4core3ops5deref5Deref5derefBK_, symObjAddr: 0x7248, symBinAddr: 0x6BDF4, symSize: 0x24 }
  - { offset: 0x15756D, size: 0x8, addend: 0x0, symName: __RNvXs6_NtCsiTraAjBDcu4_5alloc3vecINtB5_3VecTNtNtCsc29TF2YcYso_3syn8generics14WherePredicateNtNtBK_5token5CommaEENtNtNtCsaNl6UpbT7bw_4core3ops5deref5Deref5derefBK_, symObjAddr: 0x726C, symBinAddr: 0x6BE18, symSize: 0x24 }
  - { offset: 0x1575AD, size: 0x8, addend: 0x0, symName: __RNvXs6_NtCsiTraAjBDcu4_5alloc3vecINtB5_3VecTNtNtCsc29TF2YcYso_3syn8lifetime8LifetimeNtNtBK_5token4PlusEENtNtNtCsaNl6UpbT7bw_4core3ops5deref5Deref5derefBK_, symObjAddr: 0x7290, symBinAddr: 0x6BE3C, symSize: 0x24 }
  - { offset: 0x1575ED, size: 0x8, addend: 0x0, symName: __RNvXs6_NtCsiTraAjBDcu4_5alloc3vecINtB5_3VechENtNtNtCsaNl6UpbT7bw_4core3ops5deref5Deref5derefCsc29TF2YcYso_3syn, symObjAddr: 0x72B4, symBinAddr: 0x6BE60, symSize: 0x24 }
  - { offset: 0x157D83, size: 0x8, addend: 0x0, symName: __RNvXsb_NtCsiTraAjBDcu4_5alloc3vecINtB5_3VecNtNtCsc29TF2YcYso_3syn5error12ErrorMessageEINtNtNtCsaNl6UpbT7bw_4core3ops5index5IndexjE5indexBJ_, symObjAddr: 0x82B0, symBinAddr: 0x6CD18, symSize: 0x8C }
  - { offset: 0x157F05, size: 0x8, addend: 0x0, symName: __RNvXsb_NtCsiTraAjBDcu4_5alloc3vecINtB5_3VecReEINtNtNtCsaNl6UpbT7bw_4core3ops5index5IndexjE5indexCsc29TF2YcYso_3syn, symObjAddr: 0x833C, symBinAddr: 0x6CDA4, symSize: 0x8C }
  - { offset: 0x158087, size: 0x8, addend: 0x0, symName: __RNvXsb_NtCsiTraAjBDcu4_5alloc3vecINtB5_3VecTNtNtCsc29TF2YcYso_3syn3pat3PatNtNtBK_5token5CommaEEINtNtNtCsaNl6UpbT7bw_4core3ops5index5IndexjE5indexBK_, symObjAddr: 0x83C8, symBinAddr: 0x6CE30, symSize: 0x8C }
  - { offset: 0x158209, size: 0x8, addend: 0x0, symName: __RNvXsb_NtCsiTraAjBDcu4_5alloc3vecINtB5_3VecTNtNtCsc29TF2YcYso_3syn4path11PathSegmentNtNtBK_5token7PathSepEEINtNtNtCsaNl6UpbT7bw_4core3ops5index5IndexjE5indexBK_, symObjAddr: 0x8454, symBinAddr: 0x6CEBC, symSize: 0x8C }
  - { offset: 0x15838B, size: 0x8, addend: 0x0, symName: __RNvXsb_NtCsiTraAjBDcu4_5alloc3vecINtB5_3VechEINtNtNtCsaNl6UpbT7bw_4core3ops5index5IndexINtNtBM_5range9RangeFromjEE5indexCsc29TF2YcYso_3syn, symObjAddr: 0x84E0, symBinAddr: 0x6CF48, symSize: 0x88 }
  - { offset: 0x15850D, size: 0x8, addend: 0x0, symName: __RNvXsb_NtCsiTraAjBDcu4_5alloc3vecINtB5_3VechEINtNtNtCsaNl6UpbT7bw_4core3ops5index5IndexjE5indexCsc29TF2YcYso_3syn, symObjAddr: 0x8568, symBinAddr: 0x6CFD0, symSize: 0x88 }
  - { offset: 0x15869A, size: 0x8, addend: 0x0, symName: __RNvXNtNtCsiTraAjBDcu4_5alloc3vec11spec_extendINtB4_3VecNtCshnvkK9b4wzu_11proc_macro29TokenTreeEINtB2_10SpecExtendBR_INtNtNtNtCsaNl6UpbT7bw_4core4iter8adapters7flatten7FlattenINtNtB1V_3map3MapIB2N_IB2N_INtNtNtB1Z_5slice4iter4IterNtNtCsc29TF2YcYso_3syn5error12ErrorMessageENvMs_B3G_B3E_16to_compile_errorENCINvXs7_BT_NtBT_11TokenStreamINtNtNtB1X_6traits7collect12FromIteratorB53_E9from_iterB38_E0ENCINvXs6_NtBT_3impNtB6u_11TokenStreamIB5m_B6D_E9from_iterB33_Es_0EEE11spec_extendB3I_, symObjAddr: 0x68EC, symBinAddr: 0x6B7C8, symSize: 0x24 }
  - { offset: 0x1586F2, size: 0x8, addend: 0x0, symName: __RNvXs0_NtNtCsiTraAjBDcu4_5alloc3vec11spec_extendINtB7_3VecNtNtCsc29TF2YcYso_3syn4attr9AttributeEINtB5_10SpecExtendBU_INtNtB7_9into_iter8IntoIterBU_EE11spec_extendBY_, symObjAddr: 0x6E24, symBinAddr: 0x6BA98, symSize: 0x98 }
  - { offset: 0x15875E, size: 0x8, addend: 0x0, symName: __RNvXs_NtNtCsiTraAjBDcu4_5alloc3vec11spec_extendINtB6_3VecNtNtCsc29TF2YcYso_3syn8generics14TypeParamBoundEINtB4_10SpecExtendBT_INtNtCsaNl6UpbT7bw_4core6option8IntoIterBT_EE11spec_extendBX_, symObjAddr: 0x8268, symBinAddr: 0x6CCD0, symSize: 0x24 }
  - { offset: 0x1587B0, size: 0x8, addend: 0x0, symName: __RNvXs_NtNtCsiTraAjBDcu4_5alloc3vec11spec_extendINtB6_3VecNtNtCsc29TF2YcYso_3syn8generics14TypeParamBoundEINtB4_10SpecExtendBT_INtNtNtNtCsaNl6UpbT7bw_4core4iter8adapters3map3MapINtNtB6_9into_iter8IntoIterTBT_NtNtBX_5token4PlusEENCNvXs8_NtBX_10punctuatedINtB3L_10PunctuatedBT_B3j_ENtNtNtB27_6traits7collect12IntoIterator9into_iter0EE11spec_extendBX_, symObjAddr: 0x828C, symBinAddr: 0x6CCF4, symSize: 0x24 }
  - { offset: 0x158809, size: 0x8, addend: 0x0, symName: __RNvXs7_NtCsiTraAjBDcu4_5alloc3vecINtB5_3VecTNtNtCsc29TF2YcYso_3syn4path11PathSegmentNtNtBK_5token7PathSepEENtNtNtCsaNl6UpbT7bw_4core3ops5deref8DerefMut9deref_mutBK_, symObjAddr: 0x72FC, symBinAddr: 0x6BE84, symSize: 0x24 }
  - { offset: 0x1588DF, size: 0x8, addend: 0x0, symName: __RNvXs9_NtCsiTraAjBDcu4_5alloc3vecINtB5_3VecNtNtCsc29TF2YcYso_3syn4attr9AttributeENtNtCsaNl6UpbT7bw_4core5clone5Clone5cloneBJ_, symObjAddr: 0x7344, symBinAddr: 0x6BEA8, symSize: 0x90 }
  - { offset: 0x158AB0, size: 0x8, addend: 0x0, symName: __RNvXs9_NtCsiTraAjBDcu4_5alloc3vecINtB5_3VecNtNtCsc29TF2YcYso_3syn4expr3ArmENtNtCsaNl6UpbT7bw_4core5clone5Clone5cloneBJ_, symObjAddr: 0x73D4, symBinAddr: 0x6BF38, symSize: 0x90 }
  - { offset: 0x158C81, size: 0x8, addend: 0x0, symName: __RNvXs9_NtCsiTraAjBDcu4_5alloc3vecINtB5_3VecNtNtCsc29TF2YcYso_3syn4item11ForeignItemENtNtCsaNl6UpbT7bw_4core5clone5Clone5cloneBJ_, symObjAddr: 0x7464, symBinAddr: 0x6BFC8, symSize: 0x90 }
  - { offset: 0x158E52, size: 0x8, addend: 0x0, symName: __RNvXs9_NtCsiTraAjBDcu4_5alloc3vecINtB5_3VecNtNtCsc29TF2YcYso_3syn4item4ItemENtNtCsaNl6UpbT7bw_4core5clone5Clone5cloneBJ_, symObjAddr: 0x74F4, symBinAddr: 0x6C058, symSize: 0x90 }
  - { offset: 0x159023, size: 0x8, addend: 0x0, symName: __RNvXs9_NtCsiTraAjBDcu4_5alloc3vecINtB5_3VecNtNtCsc29TF2YcYso_3syn4item8ImplItemENtNtCsaNl6UpbT7bw_4core5clone5Clone5cloneBJ_, symObjAddr: 0x7584, symBinAddr: 0x6C0E8, symSize: 0x90 }
  - { offset: 0x1591F4, size: 0x8, addend: 0x0, symName: __RNvXs9_NtCsiTraAjBDcu4_5alloc3vecINtB5_3VecNtNtCsc29TF2YcYso_3syn4item9TraitItemENtNtCsaNl6UpbT7bw_4core5clone5Clone5cloneBJ_, symObjAddr: 0x7614, symBinAddr: 0x6C178, symSize: 0x90 }
  - { offset: 0x1593C5, size: 0x8, addend: 0x0, symName: __RNvXs9_NtCsiTraAjBDcu4_5alloc3vecINtB5_3VecNtNtCsc29TF2YcYso_3syn4stmt4StmtENtNtCsaNl6UpbT7bw_4core5clone5Clone5cloneBJ_, symObjAddr: 0x76A4, symBinAddr: 0x6C208, symSize: 0x90 }
  - { offset: 0x159596, size: 0x8, addend: 0x0, symName: __RNvXs9_NtCsiTraAjBDcu4_5alloc3vecINtB5_3VecTNtNtCsc29TF2YcYso_3syn2ty4TypeNtNtBK_5token5CommaEENtNtCsaNl6UpbT7bw_4core5clone5Clone5cloneBK_, symObjAddr: 0x77C4, symBinAddr: 0x6C298, symSize: 0x90 }
  - { offset: 0x159767, size: 0x8, addend: 0x0, symName: __RNvXs9_NtCsiTraAjBDcu4_5alloc3vecINtB5_3VecTNtNtCsc29TF2YcYso_3syn2ty9BareFnArgNtNtBK_5token5CommaEENtNtCsaNl6UpbT7bw_4core5clone5Clone5cloneBK_, symObjAddr: 0x7854, symBinAddr: 0x6C328, symSize: 0x90 }
  - { offset: 0x159938, size: 0x8, addend: 0x0, symName: __RNvXs9_NtCsiTraAjBDcu4_5alloc3vecINtB5_3VecTNtNtCsc29TF2YcYso_3syn3pat3PatNtNtBK_5token2OrEENtNtCsaNl6UpbT7bw_4core5clone5Clone5cloneBK_, symObjAddr: 0x78E4, symBinAddr: 0x6C3B8, symSize: 0x90 }
  - { offset: 0x159B09, size: 0x8, addend: 0x0, symName: __RNvXs9_NtCsiTraAjBDcu4_5alloc3vecINtB5_3VecTNtNtCsc29TF2YcYso_3syn3pat3PatNtNtBK_5token5CommaEENtNtCsaNl6UpbT7bw_4core5clone5Clone5cloneBK_, symObjAddr: 0x7974, symBinAddr: 0x6C448, symSize: 0x90 }
  - { offset: 0x159CDA, size: 0x8, addend: 0x0, symName: __RNvXs9_NtCsiTraAjBDcu4_5alloc3vecINtB5_3VecTNtNtCsc29TF2YcYso_3syn3pat8FieldPatNtNtBK_5token5CommaEENtNtCsaNl6UpbT7bw_4core5clone5Clone5cloneBK_, symObjAddr: 0x7A04, symBinAddr: 0x6C4D8, symSize: 0x90 }
  - { offset: 0x159EAB, size: 0x8, addend: 0x0, symName: __RNvXs9_NtCsiTraAjBDcu4_5alloc3vecINtB5_3VecTNtNtCsc29TF2YcYso_3syn4data5FieldNtNtBK_5token5CommaEENtNtCsaNl6UpbT7bw_4core5clone5Clone5cloneBK_, symObjAddr: 0x7A94, symBinAddr: 0x6C568, symSize: 0x90 }
  - { offset: 0x15A07C, size: 0x8, addend: 0x0, symName: __RNvXs9_NtCsiTraAjBDcu4_5alloc3vecINtB5_3VecTNtNtCsc29TF2YcYso_3syn4data7VariantNtNtBK_5token5CommaEENtNtCsaNl6UpbT7bw_4core5clone5Clone5cloneBK_, symObjAddr: 0x7B24, symBinAddr: 0x6C5F8, symSize: 0x90 }
  - { offset: 0x15A24D, size: 0x8, addend: 0x0, symName: __RNvXs9_NtCsiTraAjBDcu4_5alloc3vecINtB5_3VecTNtNtCsc29TF2YcYso_3syn4expr10FieldValueNtNtBK_5token5CommaEENtNtCsaNl6UpbT7bw_4core5clone5Clone5cloneBK_, symObjAddr: 0x7BB4, symBinAddr: 0x6C688, symSize: 0x90 }
  - { offset: 0x15A41E, size: 0x8, addend: 0x0, symName: __RNvXs9_NtCsiTraAjBDcu4_5alloc3vecINtB5_3VecTNtNtCsc29TF2YcYso_3syn4expr4ExprNtNtBK_5token5CommaEENtNtCsaNl6UpbT7bw_4core5clone5Clone5cloneBK_, symObjAddr: 0x7C44, symBinAddr: 0x6C718, symSize: 0x90 }
  - { offset: 0x15A5EF, size: 0x8, addend: 0x0, symName: __RNvXs9_NtCsiTraAjBDcu4_5alloc3vecINtB5_3VecTNtNtCsc29TF2YcYso_3syn4item5FnArgNtNtBK_5token5CommaEENtNtCsaNl6UpbT7bw_4core5clone5Clone5cloneBK_, symObjAddr: 0x7CD4, symBinAddr: 0x6C7A8, symSize: 0x90 }
  - { offset: 0x15A7C0, size: 0x8, addend: 0x0, symName: __RNvXs9_NtCsiTraAjBDcu4_5alloc3vecINtB5_3VecTNtNtCsc29TF2YcYso_3syn4item7UseTreeNtNtBK_5token5CommaEENtNtCsaNl6UpbT7bw_4core5clone5Clone5cloneBK_, symObjAddr: 0x7D64, symBinAddr: 0x6C838, symSize: 0x90 }
  - { offset: 0x15A991, size: 0x8, addend: 0x0, symName: __RNvXs9_NtCsiTraAjBDcu4_5alloc3vecINtB5_3VecTNtNtCsc29TF2YcYso_3syn4path11PathSegmentNtNtBK_5token7PathSepEENtNtCsaNl6UpbT7bw_4core5clone5Clone5cloneBK_, symObjAddr: 0x7DF4, symBinAddr: 0x6C8C8, symSize: 0x90 }
  - { offset: 0x15AB62, size: 0x8, addend: 0x0, symName: __RNvXs9_NtCsiTraAjBDcu4_5alloc3vecINtB5_3VecTNtNtCsc29TF2YcYso_3syn4path15GenericArgumentNtNtBK_5token5CommaEENtNtCsaNl6UpbT7bw_4core5clone5Clone5cloneBK_, symObjAddr: 0x7E84, symBinAddr: 0x6C958, symSize: 0x90 }
  - { offset: 0x15AD33, size: 0x8, addend: 0x0, symName: __RNvXs9_NtCsiTraAjBDcu4_5alloc3vecINtB5_3VecTNtNtCsc29TF2YcYso_3syn8generics12GenericParamNtNtBK_5token5CommaEENtNtCsaNl6UpbT7bw_4core5clone5Clone5cloneBK_, symObjAddr: 0x7F14, symBinAddr: 0x6C9E8, symSize: 0x90 }
  - { offset: 0x15AF04, size: 0x8, addend: 0x0, symName: __RNvXs9_NtCsiTraAjBDcu4_5alloc3vecINtB5_3VecTNtNtCsc29TF2YcYso_3syn8generics13CapturedParamNtNtBK_5token5CommaEENtNtCsaNl6UpbT7bw_4core5clone5Clone5cloneBK_, symObjAddr: 0x7FA4, symBinAddr: 0x6CA78, symSize: 0x90 }
  - { offset: 0x15B0D5, size: 0x8, addend: 0x0, symName: __RNvXs9_NtCsiTraAjBDcu4_5alloc3vecINtB5_3VecTNtNtCsc29TF2YcYso_3syn8generics14TypeParamBoundNtNtBK_5token4PlusEENtNtCsaNl6UpbT7bw_4core5clone5Clone5cloneBK_, symObjAddr: 0x8034, symBinAddr: 0x6CB08, symSize: 0x90 }
  - { offset: 0x15B2A6, size: 0x8, addend: 0x0, symName: __RNvXs9_NtCsiTraAjBDcu4_5alloc3vecINtB5_3VecTNtNtCsc29TF2YcYso_3syn8generics14WherePredicateNtNtBK_5token5CommaEENtNtCsaNl6UpbT7bw_4core5clone5Clone5cloneBK_, symObjAddr: 0x80C4, symBinAddr: 0x6CB98, symSize: 0x90 }
  - { offset: 0x15B477, size: 0x8, addend: 0x0, symName: __RNvXs9_NtCsiTraAjBDcu4_5alloc3vecINtB5_3VecTNtNtCsc29TF2YcYso_3syn8lifetime8LifetimeNtNtBK_5token4PlusEENtNtCsaNl6UpbT7bw_4core5clone5Clone5cloneBK_, symObjAddr: 0x8154, symBinAddr: 0x6CC28, symSize: 0x90 }
  - { offset: 0x15B64E, size: 0x8, addend: 0x0, symName: __RNvXsc_NtCsiTraAjBDcu4_5alloc3vecINtB5_3VecNtNtCsc29TF2YcYso_3syn6buffer5EntryEINtNtNtCsaNl6UpbT7bw_4core3ops5index8IndexMutjE9index_mutBJ_, symObjAddr: 0x85F0, symBinAddr: 0x6D058, symSize: 0x8C }
  - { offset: 0x15B7A2, size: 0x8, addend: 0x0, symName: __RNvXsc_NtCsiTraAjBDcu4_5alloc3vecINtB5_3VechEINtNtNtCsaNl6UpbT7bw_4core3ops5index8IndexMutjE9index_mutCsc29TF2YcYso_3syn, symObjAddr: 0x867C, symBinAddr: 0x6D0E4, symSize: 0x88 }
  - { offset: 0x15B8FC, size: 0x8, addend: 0x0, symName: __RNvXse_NtCsiTraAjBDcu4_5alloc3vecINtB5_3VecNtNtCsc29TF2YcYso_3syn4attr9AttributeENtNtNtNtCsaNl6UpbT7bw_4core4iter6traits7collect12IntoIterator9into_iterBJ_, symObjAddr: 0x8704, symBinAddr: 0x6D16C, symSize: 0xDC }
  - { offset: 0x15BB8E, size: 0x8, addend: 0x0, symName: __RNvXse_NtCsiTraAjBDcu4_5alloc3vecINtB5_3VecNtNtCsc29TF2YcYso_3syn8generics14TypeParamBoundENtNtNtNtCsaNl6UpbT7bw_4core4iter6traits7collect12IntoIterator9into_iterBJ_, symObjAddr: 0x89A8, symBinAddr: 0x6D248, symSize: 0xE4 }
  - { offset: 0x15BE20, size: 0x8, addend: 0x0, symName: __RNvXse_NtCsiTraAjBDcu4_5alloc3vecINtB5_3VecTNtNtCsc29TF2YcYso_3syn4path11PathSegmentNtNtBK_5token7PathSepEENtNtNtNtCsaNl6UpbT7bw_4core4iter6traits7collect12IntoIterator9into_iterBK_, symObjAddr: 0x8C54, symBinAddr: 0x6D32C, symSize: 0xE4 }
  - { offset: 0x15C0B2, size: 0x8, addend: 0x0, symName: __RNvXse_NtCsiTraAjBDcu4_5alloc3vecINtB5_3VecTNtNtCsc29TF2YcYso_3syn8generics14TypeParamBoundNtNtBK_5token4PlusEENtNtNtNtCsaNl6UpbT7bw_4core4iter6traits7collect12IntoIterator9into_iterBK_, symObjAddr: 0x8D38, symBinAddr: 0x6D410, symSize: 0xDC }
  - { offset: 0x15C34A, size: 0x8, addend: 0x0, symName: __RNvXsf_NtCsiTraAjBDcu4_5alloc3vecRINtB5_3VecNtNtCsc29TF2YcYso_3syn4attr9AttributeENtNtNtNtCsaNl6UpbT7bw_4core4iter6traits7collect12IntoIterator9into_iterBK_, symObjAddr: 0x8E14, symBinAddr: 0x6D4EC, symSize: 0xA4 }
  - { offset: 0x15C588, size: 0x8, addend: 0x0, symName: __RNvXsf_NtCsiTraAjBDcu4_5alloc3vecRINtB5_3VecNtNtCsc29TF2YcYso_3syn4item11ForeignItemENtNtNtNtCsaNl6UpbT7bw_4core4iter6traits7collect12IntoIterator9into_iterBK_, symObjAddr: 0x8EB8, symBinAddr: 0x6D590, symSize: 0xAC }
  - { offset: 0x15C7C6, size: 0x8, addend: 0x0, symName: __RNvXsf_NtCsiTraAjBDcu4_5alloc3vecRINtB5_3VecNtNtCsc29TF2YcYso_3syn4item4ItemENtNtNtNtCsaNl6UpbT7bw_4core4iter6traits7collect12IntoIterator9into_iterBK_, symObjAddr: 0x8F64, symBinAddr: 0x6D63C, symSize: 0xAC }
  - { offset: 0x15CA04, size: 0x8, addend: 0x0, symName: __RNvXsf_NtCsiTraAjBDcu4_5alloc3vecRINtB5_3VecNtNtCsc29TF2YcYso_3syn4item8ImplItemENtNtNtNtCsaNl6UpbT7bw_4core4iter6traits7collect12IntoIterator9into_iterBK_, symObjAddr: 0x9010, symBinAddr: 0x6D6E8, symSize: 0xAC }
  - { offset: 0x15CC42, size: 0x8, addend: 0x0, symName: __RNvXsf_NtCsiTraAjBDcu4_5alloc3vecRINtB5_3VecNtNtCsc29TF2YcYso_3syn4item9TraitItemENtNtNtNtCsaNl6UpbT7bw_4core4iter6traits7collect12IntoIterator9into_iterBK_, symObjAddr: 0x90BC, symBinAddr: 0x6D794, symSize: 0xAC }
  - { offset: 0x15CE80, size: 0x8, addend: 0x0, symName: __RNvXsf_NtCsiTraAjBDcu4_5alloc3vecRINtB5_3VecNtNtCsc29TF2YcYso_3syn4stmt4StmtENtNtNtNtCsaNl6UpbT7bw_4core4iter6traits7collect12IntoIterator9into_iterBK_, symObjAddr: 0x9168, symBinAddr: 0x6D840, symSize: 0xAC }
  - { offset: 0x15D0C4, size: 0x8, addend: 0x0, symName: __RNvXsg_NtCsiTraAjBDcu4_5alloc3vecQINtB5_3VechENtNtNtNtCsaNl6UpbT7bw_4core4iter6traits7collect12IntoIterator9into_iterCsc29TF2YcYso_3syn, symObjAddr: 0x9E24, symBinAddr: 0x6D8EC, symSize: 0xA0 }
  - { offset: 0x15D2DA, size: 0x8, addend: 0x0, symName: __RNvXsn_NtCsiTraAjBDcu4_5alloc3vecINtB5_3VecNtNtCsc29TF2YcYso_3syn4attr9AttributeENtNtNtCsaNl6UpbT7bw_4core3ops4drop4Drop4dropBJ_, symObjAddr: 0x9EC4, symBinAddr: 0x6D98C, symSize: 0x38 }
  - { offset: 0x15D38A, size: 0x8, addend: 0x0, symName: __RNvXsn_NtCsiTraAjBDcu4_5alloc3vecINtB5_3VecNtNtCsc29TF2YcYso_3syn4expr3ArmENtNtNtCsaNl6UpbT7bw_4core3ops4drop4Drop4dropBJ_, symObjAddr: 0x9F34, symBinAddr: 0x6D9C4, symSize: 0x38 }
  - { offset: 0x15D43A, size: 0x8, addend: 0x0, symName: __RNvXsn_NtCsiTraAjBDcu4_5alloc3vecINtB5_3VecNtNtCsc29TF2YcYso_3syn4expr6ExprIfENtNtNtCsaNl6UpbT7bw_4core3ops4drop4Drop4dropBJ_, symObjAddr: 0x9F6C, symBinAddr: 0x6D9FC, symSize: 0x38 }
  - { offset: 0x15D4EA, size: 0x8, addend: 0x0, symName: __RNvXsn_NtCsiTraAjBDcu4_5alloc3vecINtB5_3VecNtNtCsc29TF2YcYso_3syn4item11ForeignItemENtNtNtCsaNl6UpbT7bw_4core3ops4drop4Drop4dropBJ_, symObjAddr: 0x9FA4, symBinAddr: 0x6DA34, symSize: 0x38 }
  - { offset: 0x15D59A, size: 0x8, addend: 0x0, symName: __RNvXsn_NtCsiTraAjBDcu4_5alloc3vecINtB5_3VecNtNtCsc29TF2YcYso_3syn4item4ItemENtNtNtCsaNl6UpbT7bw_4core3ops4drop4Drop4dropBJ_, symObjAddr: 0x9FDC, symBinAddr: 0x6DA6C, symSize: 0x38 }
  - { offset: 0x15D64A, size: 0x8, addend: 0x0, symName: __RNvXsn_NtCsiTraAjBDcu4_5alloc3vecINtB5_3VecNtNtCsc29TF2YcYso_3syn4item8ImplItemENtNtNtCsaNl6UpbT7bw_4core3ops4drop4Drop4dropBJ_, symObjAddr: 0xA014, symBinAddr: 0x6DAA4, symSize: 0x38 }
  - { offset: 0x15D6FA, size: 0x8, addend: 0x0, symName: __RNvXsn_NtCsiTraAjBDcu4_5alloc3vecINtB5_3VecNtNtCsc29TF2YcYso_3syn4item9TraitItemENtNtNtCsaNl6UpbT7bw_4core3ops4drop4Drop4dropBJ_, symObjAddr: 0xA04C, symBinAddr: 0x6DADC, symSize: 0x38 }
  - { offset: 0x15D7AA, size: 0x8, addend: 0x0, symName: __RNvXsn_NtCsiTraAjBDcu4_5alloc3vecINtB5_3VecNtNtCsc29TF2YcYso_3syn4stmt4StmtENtNtNtCsaNl6UpbT7bw_4core3ops4drop4Drop4dropBJ_, symObjAddr: 0xA084, symBinAddr: 0x6DB14, symSize: 0x38 }
  - { offset: 0x15D85A, size: 0x8, addend: 0x0, symName: __RNvXsn_NtCsiTraAjBDcu4_5alloc3vecINtB5_3VecNtNtCsc29TF2YcYso_3syn5error12ErrorMessageENtNtNtCsaNl6UpbT7bw_4core3ops4drop4Drop4dropBJ_, symObjAddr: 0xA0BC, symBinAddr: 0x6DB4C, symSize: 0x38 }
  - { offset: 0x15D90A, size: 0x8, addend: 0x0, symName: __RNvXsn_NtCsiTraAjBDcu4_5alloc3vecINtB5_3VecNtNtCsc29TF2YcYso_3syn6buffer5EntryENtNtNtCsaNl6UpbT7bw_4core3ops4drop4Drop4dropBJ_, symObjAddr: 0xA0F4, symBinAddr: 0x6DB84, symSize: 0x38 }
  - { offset: 0x15D9BA, size: 0x8, addend: 0x0, symName: __RNvXsn_NtCsiTraAjBDcu4_5alloc3vecINtB5_3VecNtNtCsc29TF2YcYso_3syn8generics14TypeParamBoundENtNtNtCsaNl6UpbT7bw_4core3ops4drop4Drop4dropBJ_, symObjAddr: 0xA12C, symBinAddr: 0x6DBBC, symSize: 0x38 }
  - { offset: 0x15DA6A, size: 0x8, addend: 0x0, symName: __RNvXsn_NtCsiTraAjBDcu4_5alloc3vecINtB5_3VecReENtNtNtCsaNl6UpbT7bw_4core3ops4drop4Drop4dropCsc29TF2YcYso_3syn, symObjAddr: 0xA164, symBinAddr: 0x6DBF4, symSize: 0x24 }
  - { offset: 0x15DB1A, size: 0x8, addend: 0x0, symName: __RNvXsn_NtCsiTraAjBDcu4_5alloc3vecINtB5_3VecTNtNtCsc29TF2YcYso_3syn2ty4TypeNtNtBK_5token5CommaEENtNtNtCsaNl6UpbT7bw_4core3ops4drop4Drop4dropBK_, symObjAddr: 0xA188, symBinAddr: 0x6DC18, symSize: 0x38 }
  - { offset: 0x15DBCA, size: 0x8, addend: 0x0, symName: __RNvXsn_NtCsiTraAjBDcu4_5alloc3vecINtB5_3VecTNtNtCsc29TF2YcYso_3syn2ty9BareFnArgNtNtBK_5token5CommaEENtNtNtCsaNl6UpbT7bw_4core3ops4drop4Drop4dropBK_, symObjAddr: 0xA1C0, symBinAddr: 0x6DC50, symSize: 0x38 }
  - { offset: 0x15DC7A, size: 0x8, addend: 0x0, symName: __RNvXsn_NtCsiTraAjBDcu4_5alloc3vecINtB5_3VecTNtNtCsc29TF2YcYso_3syn3pat3PatNtNtBK_5token2OrEENtNtNtCsaNl6UpbT7bw_4core3ops4drop4Drop4dropBK_, symObjAddr: 0xA1F8, symBinAddr: 0x6DC88, symSize: 0x38 }
  - { offset: 0x15DD2A, size: 0x8, addend: 0x0, symName: __RNvXsn_NtCsiTraAjBDcu4_5alloc3vecINtB5_3VecTNtNtCsc29TF2YcYso_3syn3pat3PatNtNtBK_5token5CommaEENtNtNtCsaNl6UpbT7bw_4core3ops4drop4Drop4dropBK_, symObjAddr: 0xA230, symBinAddr: 0x6DCC0, symSize: 0x38 }
  - { offset: 0x15DDDA, size: 0x8, addend: 0x0, symName: __RNvXsn_NtCsiTraAjBDcu4_5alloc3vecINtB5_3VecTNtNtCsc29TF2YcYso_3syn3pat8FieldPatNtNtBK_5token5CommaEENtNtNtCsaNl6UpbT7bw_4core3ops4drop4Drop4dropBK_, symObjAddr: 0xA268, symBinAddr: 0x6DCF8, symSize: 0x38 }
  - { offset: 0x15DE8A, size: 0x8, addend: 0x0, symName: __RNvXsn_NtCsiTraAjBDcu4_5alloc3vecINtB5_3VecTNtNtCsc29TF2YcYso_3syn4data5FieldNtNtBK_5token5CommaEENtNtNtCsaNl6UpbT7bw_4core3ops4drop4Drop4dropBK_, symObjAddr: 0xA2A0, symBinAddr: 0x6DD30, symSize: 0x38 }
  - { offset: 0x15DF3A, size: 0x8, addend: 0x0, symName: __RNvXsn_NtCsiTraAjBDcu4_5alloc3vecINtB5_3VecTNtNtCsc29TF2YcYso_3syn4data7VariantNtNtBK_5token5CommaEENtNtNtCsaNl6UpbT7bw_4core3ops4drop4Drop4dropBK_, symObjAddr: 0xA310, symBinAddr: 0x6DD68, symSize: 0x38 }
  - { offset: 0x15DFEA, size: 0x8, addend: 0x0, symName: __RNvXsn_NtCsiTraAjBDcu4_5alloc3vecINtB5_3VecTNtNtCsc29TF2YcYso_3syn4expr10FieldValueNtNtBK_5token5CommaEENtNtNtCsaNl6UpbT7bw_4core3ops4drop4Drop4dropBK_, symObjAddr: 0xA348, symBinAddr: 0x6DDA0, symSize: 0x38 }
  - { offset: 0x15E09A, size: 0x8, addend: 0x0, symName: __RNvXsn_NtCsiTraAjBDcu4_5alloc3vecINtB5_3VecTNtNtCsc29TF2YcYso_3syn4expr4ExprNtNtBK_5token5CommaEENtNtNtCsaNl6UpbT7bw_4core3ops4drop4Drop4dropBK_, symObjAddr: 0xA380, symBinAddr: 0x6DDD8, symSize: 0x38 }
  - { offset: 0x15E14A, size: 0x8, addend: 0x0, symName: __RNvXsn_NtCsiTraAjBDcu4_5alloc3vecINtB5_3VecTNtNtCsc29TF2YcYso_3syn4item5FnArgNtNtBK_5token5CommaEENtNtNtCsaNl6UpbT7bw_4core3ops4drop4Drop4dropBK_, symObjAddr: 0xA3B8, symBinAddr: 0x6DE10, symSize: 0x38 }
  - { offset: 0x15E1FA, size: 0x8, addend: 0x0, symName: __RNvXsn_NtCsiTraAjBDcu4_5alloc3vecINtB5_3VecTNtNtCsc29TF2YcYso_3syn4item7UseTreeNtNtBK_5token5CommaEENtNtNtCsaNl6UpbT7bw_4core3ops4drop4Drop4dropBK_, symObjAddr: 0xA3F0, symBinAddr: 0x6DE48, symSize: 0x38 }
  - { offset: 0x15E2AA, size: 0x8, addend: 0x0, symName: __RNvXsn_NtCsiTraAjBDcu4_5alloc3vecINtB5_3VecTNtNtCsc29TF2YcYso_3syn4path11PathSegmentNtNtBK_5token7PathSepEENtNtNtCsaNl6UpbT7bw_4core3ops4drop4Drop4dropBK_, symObjAddr: 0xA428, symBinAddr: 0x6DE80, symSize: 0x38 }
  - { offset: 0x15E35A, size: 0x8, addend: 0x0, symName: __RNvXsn_NtCsiTraAjBDcu4_5alloc3vecINtB5_3VecTNtNtCsc29TF2YcYso_3syn4path15GenericArgumentNtNtBK_5token5CommaEENtNtNtCsaNl6UpbT7bw_4core3ops4drop4Drop4dropBK_, symObjAddr: 0xA460, symBinAddr: 0x6DEB8, symSize: 0x38 }
  - { offset: 0x15E40A, size: 0x8, addend: 0x0, symName: __RNvXsn_NtCsiTraAjBDcu4_5alloc3vecINtB5_3VecTNtNtCsc29TF2YcYso_3syn8generics12GenericParamNtNtBK_5token5CommaEENtNtNtCsaNl6UpbT7bw_4core3ops4drop4Drop4dropBK_, symObjAddr: 0xA498, symBinAddr: 0x6DEF0, symSize: 0x38 }
  - { offset: 0x15E4BA, size: 0x8, addend: 0x0, symName: __RNvXsn_NtCsiTraAjBDcu4_5alloc3vecINtB5_3VecTNtNtCsc29TF2YcYso_3syn8generics13CapturedParamNtNtBK_5token5CommaEENtNtNtCsaNl6UpbT7bw_4core3ops4drop4Drop4dropBK_, symObjAddr: 0xA4D0, symBinAddr: 0x6DF28, symSize: 0x38 }
  - { offset: 0x15E56A, size: 0x8, addend: 0x0, symName: __RNvXsn_NtCsiTraAjBDcu4_5alloc3vecINtB5_3VecTNtNtCsc29TF2YcYso_3syn8generics14TypeParamBoundNtNtBK_5token4PlusEENtNtNtCsaNl6UpbT7bw_4core3ops4drop4Drop4dropBK_, symObjAddr: 0xA508, symBinAddr: 0x6DF60, symSize: 0x38 }
  - { offset: 0x15E61A, size: 0x8, addend: 0x0, symName: __RNvXsn_NtCsiTraAjBDcu4_5alloc3vecINtB5_3VecTNtNtCsc29TF2YcYso_3syn8generics14WherePredicateNtNtBK_5token5CommaEENtNtNtCsaNl6UpbT7bw_4core3ops4drop4Drop4dropBK_, symObjAddr: 0xA540, symBinAddr: 0x6DF98, symSize: 0x38 }
  - { offset: 0x15E6CA, size: 0x8, addend: 0x0, symName: __RNvXsn_NtCsiTraAjBDcu4_5alloc3vecINtB5_3VecTNtNtCsc29TF2YcYso_3syn8lifetime8LifetimeNtNtBK_5token4PlusEENtNtNtCsaNl6UpbT7bw_4core3ops4drop4Drop4dropBK_, symObjAddr: 0xA578, symBinAddr: 0x6DFD0, symSize: 0x38 }
  - { offset: 0x15E780, size: 0x8, addend: 0x0, symName: __RNvXsp_NtCsiTraAjBDcu4_5alloc3vecINtB5_3VecNtNtCsc29TF2YcYso_3syn5error12ErrorMessageENtNtCsaNl6UpbT7bw_4core3fmt5Debug3fmtBJ_, symObjAddr: 0xA914, symBinAddr: 0x6E008, symSize: 0x7C }
  - { offset: 0x15E890, size: 0x8, addend: 0x0, symName: __RNvXsp_NtCsiTraAjBDcu4_5alloc3vecINtB5_3VechENtNtCsaNl6UpbT7bw_4core3fmt5Debug3fmtCsc29TF2YcYso_3syn, symObjAddr: 0xA990, symBinAddr: 0x6E084, symSize: 0x78 }
  - { offset: 0x160DBE, size: 0x8, addend: 0x0, symName: __RNvXsT_NtCsiTraAjBDcu4_5alloc6stringINtNtB7_3vec3VechEINtNtCsaNl6UpbT7bw_4core7convert4FromNtB5_6StringE4fromCsc29TF2YcYso_3syn, symObjAddr: 0x81E4, symBinAddr: 0x6CCB8, symSize: 0x18 }
  - { offset: 0x161013, size: 0x8, addend: 0x0, symName: __RNvXNvMs_NtNtCsiTraAjBDcu4_5alloc3ffi5c_strNtB7_7CString3newINtNtBb_3vec3VechENtB2_11SpecNewImpl13spec_new_implCsc29TF2YcYso_3syn, symObjAddr: 0x6CA4, symBinAddr: 0x6B918, symSize: 0x180 }
  - { offset: 0x16667E, size: 0x8, addend: 0x0, symName: __RINvMs_NtCsiTraAjBDcu4_5alloc3vecINtB5_3VecReE10retain_mutNCNvMNtCsc29TF2YcYso_3syn9lookaheadNtBZ_10Lookahead15error0EB11_, symObjAddr: 0x0, symBinAddr: 0x671D0, symSize: 0xE4 }
  - { offset: 0x166978, size: 0x8, addend: 0x0, symName: __RINvMsi_NtCsiTraAjBDcu4_5alloc3vecINtB6_3VecNtCshnvkK9b4wzu_11proc_macro29TokenTreeE16extend_desugaredINtNtNtNtCsaNl6UpbT7bw_4core4iter8adapters7flatten7FlattenINtNtB1H_3map3MapIB2z_IB2z_INtNtNtB1L_5slice4iter4IterNtNtCsc29TF2YcYso_3syn5error12ErrorMessageENvMs_B3s_B3q_16to_compile_errorENCINvXs7_BI_NtBI_11TokenStreamINtNtNtB1J_6traits7collect12FromIteratorB4P_E9from_iterB2U_E0ENCINvXs6_NtBI_3impNtB6g_11TokenStreamIB58_B6p_E9from_iterB2P_Es_0EEEB3u_, symObjAddr: 0xE4, symBinAddr: 0x672B4, symSize: 0x1D0 }
  - { offset: 0x16731E, size: 0x8, addend: 0x0, symName: __RINvMsi_NtCsiTraAjBDcu4_5alloc3vecINtB6_3VecNtNtCsc29TF2YcYso_3syn8generics14TypeParamBoundE14extend_trustedINtNtCsaNl6UpbT7bw_4core6option8IntoIterBG_EEBK_, symObjAddr: 0x928, symBinAddr: 0x67484, symSize: 0x19C }
  - { offset: 0x1675E2, size: 0x8, addend: 0x0, symName: __RINvMsi_NtCsiTraAjBDcu4_5alloc3vecINtB6_3VecNtNtCsc29TF2YcYso_3syn8generics14TypeParamBoundE14extend_trustedINtNtNtNtCsaNl6UpbT7bw_4core4iter8adapters3map3MapINtNtB6_9into_iter8IntoIterTBG_NtNtBK_5token4PlusEENCNvXs8_NtBK_10punctuatedINtB3t_10PunctuatedBG_B31_ENtNtNtB1P_6traits7collect12IntoIterator9into_iter0EEBK_, symObjAddr: 0xAC4, symBinAddr: 0x67620, symSize: 0x184 }
  - { offset: 0x16793B, size: 0x8, addend: 0x0, symName: __RNvMNtCsiTraAjBDcu4_5alloc3vecINtB2_3VecNtNtCsc29TF2YcYso_3syn4attr9AttributeE3newBG_, symObjAddr: 0x12AC, symBinAddr: 0x67BA8, symSize: 0x14 }
  - { offset: 0x167958, size: 0x8, addend: 0x0, symName: __RNvMNtCsiTraAjBDcu4_5alloc3vecINtB2_3VecNtNtCsc29TF2YcYso_3syn4expr3ArmE3newBG_, symObjAddr: 0x1308, symBinAddr: 0x67BBC, symSize: 0x14 }
  - { offset: 0x167975, size: 0x8, addend: 0x0, symName: __RNvMNtCsiTraAjBDcu4_5alloc3vecINtB2_3VecNtNtCsc29TF2YcYso_3syn4expr6ExprIfE3newBG_, symObjAddr: 0x131C, symBinAddr: 0x67BD0, symSize: 0x14 }
  - { offset: 0x167992, size: 0x8, addend: 0x0, symName: __RNvMNtCsiTraAjBDcu4_5alloc3vecINtB2_3VecNtNtCsc29TF2YcYso_3syn4item11ForeignItemE3newBG_, symObjAddr: 0x1330, symBinAddr: 0x67BE4, symSize: 0x14 }
  - { offset: 0x1679AF, size: 0x8, addend: 0x0, symName: __RNvMNtCsiTraAjBDcu4_5alloc3vecINtB2_3VecNtNtCsc29TF2YcYso_3syn4item4ItemE3newBG_, symObjAddr: 0x1344, symBinAddr: 0x67BF8, symSize: 0x14 }
  - { offset: 0x1679CC, size: 0x8, addend: 0x0, symName: __RNvMNtCsiTraAjBDcu4_5alloc3vecINtB2_3VecNtNtCsc29TF2YcYso_3syn4item8ImplItemE3newBG_, symObjAddr: 0x1358, symBinAddr: 0x67C0C, symSize: 0x14 }
  - { offset: 0x1679E9, size: 0x8, addend: 0x0, symName: __RNvMNtCsiTraAjBDcu4_5alloc3vecINtB2_3VecNtNtCsc29TF2YcYso_3syn4item9TraitItemE3newBG_, symObjAddr: 0x136C, symBinAddr: 0x67C20, symSize: 0x14 }
  - { offset: 0x167A06, size: 0x8, addend: 0x0, symName: __RNvMNtCsiTraAjBDcu4_5alloc3vecINtB2_3VecNtNtCsc29TF2YcYso_3syn4stmt4StmtE3newBG_, symObjAddr: 0x1380, symBinAddr: 0x67C34, symSize: 0x14 }
  - { offset: 0x167A23, size: 0x8, addend: 0x0, symName: __RNvMNtCsiTraAjBDcu4_5alloc3vecINtB2_3VecNtNtCsc29TF2YcYso_3syn6buffer5EntryE3newBG_, symObjAddr: 0x1394, symBinAddr: 0x67C48, symSize: 0x14 }
  - { offset: 0x167AA2, size: 0x8, addend: 0x0, symName: __RNvMNtCsiTraAjBDcu4_5alloc3vecINtB2_3VecNtNtCsc29TF2YcYso_3syn8generics14TypeParamBoundE13with_capacityBG_, symObjAddr: 0x13A8, symBinAddr: 0x67C5C, symSize: 0x48 }
  - { offset: 0x167B1A, size: 0x8, addend: 0x0, symName: __RNvMNtCsiTraAjBDcu4_5alloc3vecINtB2_3VecReE3newCsc29TF2YcYso_3syn, symObjAddr: 0x13F0, symBinAddr: 0x67CA4, symSize: 0x14 }
  - { offset: 0x167B37, size: 0x8, addend: 0x0, symName: __RNvMNtCsiTraAjBDcu4_5alloc3vecINtB2_3VecTNtNtCsc29TF2YcYso_3syn2ty4TypeNtNtBH_5token5CommaEE3newBH_, symObjAddr: 0x1404, symBinAddr: 0x67CB8, symSize: 0x14 }
  - { offset: 0x167B54, size: 0x8, addend: 0x0, symName: __RNvMNtCsiTraAjBDcu4_5alloc3vecINtB2_3VecTNtNtCsc29TF2YcYso_3syn2ty9BareFnArgNtNtBH_5token5CommaEE3newBH_, symObjAddr: 0x1418, symBinAddr: 0x67CCC, symSize: 0x14 }
  - { offset: 0x167B71, size: 0x8, addend: 0x0, symName: __RNvMNtCsiTraAjBDcu4_5alloc3vecINtB2_3VecTNtNtCsc29TF2YcYso_3syn3pat3PatNtNtBH_5token2OrEE3newBH_, symObjAddr: 0x142C, symBinAddr: 0x67CE0, symSize: 0x14 }
  - { offset: 0x167B8E, size: 0x8, addend: 0x0, symName: __RNvMNtCsiTraAjBDcu4_5alloc3vecINtB2_3VecTNtNtCsc29TF2YcYso_3syn3pat3PatNtNtBH_5token5CommaEE3newBH_, symObjAddr: 0x1440, symBinAddr: 0x67CF4, symSize: 0x14 }
  - { offset: 0x167BAB, size: 0x8, addend: 0x0, symName: __RNvMNtCsiTraAjBDcu4_5alloc3vecINtB2_3VecTNtNtCsc29TF2YcYso_3syn3pat8FieldPatNtNtBH_5token5CommaEE3newBH_, symObjAddr: 0x1454, symBinAddr: 0x67D08, symSize: 0x14 }
  - { offset: 0x167BC8, size: 0x8, addend: 0x0, symName: __RNvMNtCsiTraAjBDcu4_5alloc3vecINtB2_3VecTNtNtCsc29TF2YcYso_3syn4data5FieldNtNtBH_5token5CommaEE3newBH_, symObjAddr: 0x1468, symBinAddr: 0x67D1C, symSize: 0x14 }
  - { offset: 0x167BE5, size: 0x8, addend: 0x0, symName: __RNvMNtCsiTraAjBDcu4_5alloc3vecINtB2_3VecTNtNtCsc29TF2YcYso_3syn4data7VariantNtNtBH_5token5CommaEE3newBH_, symObjAddr: 0x1490, symBinAddr: 0x67D30, symSize: 0x14 }
  - { offset: 0x167C02, size: 0x8, addend: 0x0, symName: __RNvMNtCsiTraAjBDcu4_5alloc3vecINtB2_3VecTNtNtCsc29TF2YcYso_3syn4expr10FieldValueNtNtBH_5token5CommaEE3newBH_, symObjAddr: 0x14A4, symBinAddr: 0x67D44, symSize: 0x14 }
  - { offset: 0x167C1F, size: 0x8, addend: 0x0, symName: __RNvMNtCsiTraAjBDcu4_5alloc3vecINtB2_3VecTNtNtCsc29TF2YcYso_3syn4expr4ExprNtNtBH_5token5CommaEE3newBH_, symObjAddr: 0x14B8, symBinAddr: 0x67D58, symSize: 0x14 }
  - { offset: 0x167C3C, size: 0x8, addend: 0x0, symName: __RNvMNtCsiTraAjBDcu4_5alloc3vecINtB2_3VecTNtNtCsc29TF2YcYso_3syn4item5FnArgNtNtBH_5token5CommaEE3newBH_, symObjAddr: 0x14CC, symBinAddr: 0x67D6C, symSize: 0x14 }
  - { offset: 0x167C59, size: 0x8, addend: 0x0, symName: __RNvMNtCsiTraAjBDcu4_5alloc3vecINtB2_3VecTNtNtCsc29TF2YcYso_3syn4item7UseTreeNtNtBH_5token5CommaEE3newBH_, symObjAddr: 0x14E0, symBinAddr: 0x67D80, symSize: 0x14 }
  - { offset: 0x167C76, size: 0x8, addend: 0x0, symName: __RNvMNtCsiTraAjBDcu4_5alloc3vecINtB2_3VecTNtNtCsc29TF2YcYso_3syn4path11PathSegmentNtNtBH_5token7PathSepEE3newBH_, symObjAddr: 0x14F4, symBinAddr: 0x67D94, symSize: 0x14 }
  - { offset: 0x167C93, size: 0x8, addend: 0x0, symName: __RNvMNtCsiTraAjBDcu4_5alloc3vecINtB2_3VecTNtNtCsc29TF2YcYso_3syn4path15GenericArgumentNtNtBH_5token5CommaEE3newBH_, symObjAddr: 0x1508, symBinAddr: 0x67DA8, symSize: 0x14 }
  - { offset: 0x167CB0, size: 0x8, addend: 0x0, symName: __RNvMNtCsiTraAjBDcu4_5alloc3vecINtB2_3VecTNtNtCsc29TF2YcYso_3syn8generics12GenericParamNtNtBH_5token5CommaEE3newBH_, symObjAddr: 0x151C, symBinAddr: 0x67DBC, symSize: 0x14 }
  - { offset: 0x167CCD, size: 0x8, addend: 0x0, symName: __RNvMNtCsiTraAjBDcu4_5alloc3vecINtB2_3VecTNtNtCsc29TF2YcYso_3syn8generics13CapturedParamNtNtBH_5token5CommaEE3newBH_, symObjAddr: 0x1530, symBinAddr: 0x67DD0, symSize: 0x14 }
  - { offset: 0x167CEA, size: 0x8, addend: 0x0, symName: __RNvMNtCsiTraAjBDcu4_5alloc3vecINtB2_3VecTNtNtCsc29TF2YcYso_3syn8generics14TypeParamBoundNtNtBH_5token4PlusEE3newBH_, symObjAddr: 0x1544, symBinAddr: 0x67DE4, symSize: 0x14 }
  - { offset: 0x167D07, size: 0x8, addend: 0x0, symName: __RNvMNtCsiTraAjBDcu4_5alloc3vecINtB2_3VecTNtNtCsc29TF2YcYso_3syn8generics14WherePredicateNtNtBH_5token5CommaEE3newBH_, symObjAddr: 0x1558, symBinAddr: 0x67DF8, symSize: 0x14 }
  - { offset: 0x167D24, size: 0x8, addend: 0x0, symName: __RNvMNtCsiTraAjBDcu4_5alloc3vecINtB2_3VecTNtNtCsc29TF2YcYso_3syn8lifetime8LifetimeNtNtBH_5token4PlusEE3newBH_, symObjAddr: 0x156C, symBinAddr: 0x67E0C, symSize: 0x14 }
  - { offset: 0x167D41, size: 0x8, addend: 0x0, symName: __RNvMNtCsiTraAjBDcu4_5alloc3vecINtB2_3VechE3newCsc29TF2YcYso_3syn, symObjAddr: 0x1580, symBinAddr: 0x67E20, symSize: 0x14 }
  - { offset: 0x167E45, size: 0x8, addend: 0x0, symName: __RNvMs0_NtCsiTraAjBDcu4_5alloc3vecINtB5_3VechE17extend_from_sliceCsc29TF2YcYso_3syn, symObjAddr: 0x1594, symBinAddr: 0x67E34, symSize: 0x74 }
  - { offset: 0x1680AF, size: 0x8, addend: 0x0, symName: __RNvMs0_NtCsiTraAjBDcu4_5alloc3vecINtB5_3VechE6resizeCsc29TF2YcYso_3syn, symObjAddr: 0x1608, symBinAddr: 0x67EA8, symSize: 0x100 }
  - { offset: 0x168350, size: 0x8, addend: 0x0, symName: __RNvMs2_NtCsiTraAjBDcu4_5alloc3vecINtB5_3VechE11extend_withCsc29TF2YcYso_3syn, symObjAddr: 0x1708, symBinAddr: 0x67FA8, symSize: 0x22C }
  - { offset: 0x16873E, size: 0x8, addend: 0x0, symName: __RNvMs_NtCsiTraAjBDcu4_5alloc3vecINtB4_3VecNtNtCsc29TF2YcYso_3syn4attr9AttributeE15append_elementsBI_, symObjAddr: 0x1934, symBinAddr: 0x681D4, symSize: 0xE0 }
  - { offset: 0x1689AF, size: 0x8, addend: 0x0, symName: __RNvMs_NtCsiTraAjBDcu4_5alloc3vecINtB4_3VecNtNtCsc29TF2YcYso_3syn4attr9AttributeE4pushBI_, symObjAddr: 0x1A14, symBinAddr: 0x682B4, symSize: 0x118 }
  - { offset: 0x168C4B, size: 0x8, addend: 0x0, symName: __RNvMs_NtCsiTraAjBDcu4_5alloc3vecINtB4_3VecNtNtCsc29TF2YcYso_3syn4attr9AttributeE6appendBI_, symObjAddr: 0x1B2C, symBinAddr: 0x683CC, symSize: 0x94 }
  - { offset: 0x168E80, size: 0x8, addend: 0x0, symName: __RNvMs_NtCsiTraAjBDcu4_5alloc3vecINtB4_3VecNtNtCsc29TF2YcYso_3syn4attr9AttributeE7reserveBI_, symObjAddr: 0x1BC0, symBinAddr: 0x68460, symSize: 0xC8 }
  - { offset: 0x169057, size: 0x8, addend: 0x0, symName: __RNvMs_NtCsiTraAjBDcu4_5alloc3vecINtB4_3VecNtNtCsc29TF2YcYso_3syn4attr9AttributeE8as_sliceBI_, symObjAddr: 0x1C88, symBinAddr: 0x68528, symSize: 0x6C }
  - { offset: 0x169136, size: 0x8, addend: 0x0, symName: __RNvMs_NtCsiTraAjBDcu4_5alloc3vecINtB4_3VecNtNtCsc29TF2YcYso_3syn4attr9AttributeE8is_emptyBI_, symObjAddr: 0x1CF4, symBinAddr: 0x68594, symSize: 0x20 }
  - { offset: 0x169196, size: 0x8, addend: 0x0, symName: __RNvMs_NtCsiTraAjBDcu4_5alloc3vecINtB4_3VecNtNtCsc29TF2YcYso_3syn4expr3ArmE3lenBI_, symObjAddr: 0x1DDC, symBinAddr: 0x685B4, symSize: 0x18 }
  - { offset: 0x1692DE, size: 0x8, addend: 0x0, symName: __RNvMs_NtCsiTraAjBDcu4_5alloc3vecINtB4_3VecNtNtCsc29TF2YcYso_3syn4expr3ArmE4pushBI_, symObjAddr: 0x1DF4, symBinAddr: 0x685CC, symSize: 0x120 }
  - { offset: 0x16952C, size: 0x8, addend: 0x0, symName: __RNvMs_NtCsiTraAjBDcu4_5alloc3vecINtB4_3VecNtNtCsc29TF2YcYso_3syn4expr3ArmE8as_sliceBI_, symObjAddr: 0x1F14, symBinAddr: 0x686EC, symSize: 0x6C }
  - { offset: 0x169740, size: 0x8, addend: 0x0, symName: __RNvMs_NtCsiTraAjBDcu4_5alloc3vecINtB4_3VecNtNtCsc29TF2YcYso_3syn4expr6ExprIfE3popBI_, symObjAddr: 0x1F80, symBinAddr: 0x68758, symSize: 0x108 }
  - { offset: 0x1699B4, size: 0x8, addend: 0x0, symName: __RNvMs_NtCsiTraAjBDcu4_5alloc3vecINtB4_3VecNtNtCsc29TF2YcYso_3syn4expr6ExprIfE4pushBI_, symObjAddr: 0x2088, symBinAddr: 0x68860, symSize: 0x120 }
  - { offset: 0x169C7E, size: 0x8, addend: 0x0, symName: __RNvMs_NtCsiTraAjBDcu4_5alloc3vecINtB4_3VecNtNtCsc29TF2YcYso_3syn4item11ForeignItemE4pushBI_, symObjAddr: 0x21A8, symBinAddr: 0x68980, symSize: 0x120 }
  - { offset: 0x169F48, size: 0x8, addend: 0x0, symName: __RNvMs_NtCsiTraAjBDcu4_5alloc3vecINtB4_3VecNtNtCsc29TF2YcYso_3syn4item4ItemE4pushBI_, symObjAddr: 0x22C8, symBinAddr: 0x68AA0, symSize: 0x120 }
  - { offset: 0x16A212, size: 0x8, addend: 0x0, symName: __RNvMs_NtCsiTraAjBDcu4_5alloc3vecINtB4_3VecNtNtCsc29TF2YcYso_3syn4item8ImplItemE4pushBI_, symObjAddr: 0x23E8, symBinAddr: 0x68BC0, symSize: 0x120 }
  - { offset: 0x16A4DC, size: 0x8, addend: 0x0, symName: __RNvMs_NtCsiTraAjBDcu4_5alloc3vecINtB4_3VecNtNtCsc29TF2YcYso_3syn4item9TraitItemE4pushBI_, symObjAddr: 0x2508, symBinAddr: 0x68CE0, symSize: 0x120 }
  - { offset: 0x16A7A6, size: 0x8, addend: 0x0, symName: __RNvMs_NtCsiTraAjBDcu4_5alloc3vecINtB4_3VecNtNtCsc29TF2YcYso_3syn4stmt4StmtE4pushBI_, symObjAddr: 0x2628, symBinAddr: 0x68E00, symSize: 0x120 }
  - { offset: 0x16A9B8, size: 0x8, addend: 0x0, symName: __RNvMs_NtCsiTraAjBDcu4_5alloc3vecINtB4_3VecNtNtCsc29TF2YcYso_3syn5error12ErrorMessageE3lenBI_, symObjAddr: 0x2830, symBinAddr: 0x68F20, symSize: 0x18 }
  - { offset: 0x16AA88, size: 0x8, addend: 0x0, symName: __RNvMs_NtCsiTraAjBDcu4_5alloc3vecINtB4_3VecNtNtCsc29TF2YcYso_3syn5error12ErrorMessageE8as_sliceBI_, symObjAddr: 0x2910, symBinAddr: 0x68F38, symSize: 0x6C }
  - { offset: 0x16AC6F, size: 0x8, addend: 0x0, symName: __RNvMs_NtCsiTraAjBDcu4_5alloc3vecINtB4_3VecNtNtCsc29TF2YcYso_3syn6buffer5EntryE13shrink_to_fitBI_, symObjAddr: 0x297C, symBinAddr: 0x68FA4, symSize: 0xE8 }
  - { offset: 0x16AEE2, size: 0x8, addend: 0x0, symName: __RNvMs_NtCsiTraAjBDcu4_5alloc3vecINtB4_3VecNtNtCsc29TF2YcYso_3syn6buffer5EntryE16into_boxed_sliceBI_, symObjAddr: 0x2A64, symBinAddr: 0x6908C, symSize: 0x118 }
  - { offset: 0x16B0AB, size: 0x8, addend: 0x0, symName: __RNvMs_NtCsiTraAjBDcu4_5alloc3vecINtB4_3VecNtNtCsc29TF2YcYso_3syn6buffer5EntryE3lenBI_, symObjAddr: 0x2B7C, symBinAddr: 0x691A4, symSize: 0x18 }
  - { offset: 0x16B1CC, size: 0x8, addend: 0x0, symName: __RNvMs_NtCsiTraAjBDcu4_5alloc3vecINtB4_3VecNtNtCsc29TF2YcYso_3syn6buffer5EntryE4pushBI_, symObjAddr: 0x2B94, symBinAddr: 0x691BC, symSize: 0x100 }
  - { offset: 0x16B496, size: 0x8, addend: 0x0, symName: __RNvMs_NtCsiTraAjBDcu4_5alloc3vecINtB4_3VecNtNtCsc29TF2YcYso_3syn8generics14TypeParamBoundE7reserveBI_, symObjAddr: 0x2C94, symBinAddr: 0x692BC, symSize: 0xC8 }
  - { offset: 0x16B5FD, size: 0x8, addend: 0x0, symName: __RNvMs_NtCsiTraAjBDcu4_5alloc3vecINtB4_3VecReE3lenCsc29TF2YcYso_3syn, symObjAddr: 0x2D5C, symBinAddr: 0x69384, symSize: 0x18 }
  - { offset: 0x16B711, size: 0x8, addend: 0x0, symName: __RNvMs_NtCsiTraAjBDcu4_5alloc3vecINtB4_3VecReE4pushCsc29TF2YcYso_3syn, symObjAddr: 0x2D74, symBinAddr: 0x6939C, symSize: 0xF4 }
  - { offset: 0x16B934, size: 0x8, addend: 0x0, symName: __RNvMs_NtCsiTraAjBDcu4_5alloc3vecINtB4_3VecReE8as_sliceCsc29TF2YcYso_3syn, symObjAddr: 0x2E68, symBinAddr: 0x69490, symSize: 0x6C }
  - { offset: 0x16B9FB, size: 0x8, addend: 0x0, symName: __RNvMs_NtCsiTraAjBDcu4_5alloc3vecINtB4_3VecTNtNtCsc29TF2YcYso_3syn2ty4TypeNtNtBJ_5token5CommaEE3lenBJ_, symObjAddr: 0x2ED4, symBinAddr: 0x694FC, symSize: 0x18 }
  - { offset: 0x16BB43, size: 0x8, addend: 0x0, symName: __RNvMs_NtCsiTraAjBDcu4_5alloc3vecINtB4_3VecTNtNtCsc29TF2YcYso_3syn2ty4TypeNtNtBJ_5token5CommaEE4pushBJ_, symObjAddr: 0x2EEC, symBinAddr: 0x69514, symSize: 0x120 }
  - { offset: 0x16BD91, size: 0x8, addend: 0x0, symName: __RNvMs_NtCsiTraAjBDcu4_5alloc3vecINtB4_3VecTNtNtCsc29TF2YcYso_3syn2ty4TypeNtNtBJ_5token5CommaEE8as_sliceBJ_, symObjAddr: 0x300C, symBinAddr: 0x69634, symSize: 0x6C }
  - { offset: 0x16BE58, size: 0x8, addend: 0x0, symName: __RNvMs_NtCsiTraAjBDcu4_5alloc3vecINtB4_3VecTNtNtCsc29TF2YcYso_3syn2ty9BareFnArgNtNtBJ_5token5CommaEE3lenBJ_, symObjAddr: 0x3078, symBinAddr: 0x696A0, symSize: 0x18 }
  - { offset: 0x16BFA0, size: 0x8, addend: 0x0, symName: __RNvMs_NtCsiTraAjBDcu4_5alloc3vecINtB4_3VecTNtNtCsc29TF2YcYso_3syn2ty9BareFnArgNtNtBJ_5token5CommaEE4pushBJ_, symObjAddr: 0x3090, symBinAddr: 0x696B8, symSize: 0x120 }
  - { offset: 0x16C1EE, size: 0x8, addend: 0x0, symName: __RNvMs_NtCsiTraAjBDcu4_5alloc3vecINtB4_3VecTNtNtCsc29TF2YcYso_3syn2ty9BareFnArgNtNtBJ_5token5CommaEE8as_sliceBJ_, symObjAddr: 0x31B0, symBinAddr: 0x697D8, symSize: 0x6C }
  - { offset: 0x16C3BB, size: 0x8, addend: 0x0, symName: __RNvMs_NtCsiTraAjBDcu4_5alloc3vecINtB4_3VecTNtNtCsc29TF2YcYso_3syn3pat3PatNtNtBJ_5token2OrEE4pushBJ_, symObjAddr: 0x321C, symBinAddr: 0x69844, symSize: 0x120 }
  - { offset: 0x16C616, size: 0x8, addend: 0x0, symName: __RNvMs_NtCsiTraAjBDcu4_5alloc3vecINtB4_3VecTNtNtCsc29TF2YcYso_3syn3pat3PatNtNtBJ_5token2OrEE8as_sliceBJ_, symObjAddr: 0x333C, symBinAddr: 0x69964, symSize: 0x6C }
  - { offset: 0x16C6DD, size: 0x8, addend: 0x0, symName: __RNvMs_NtCsiTraAjBDcu4_5alloc3vecINtB4_3VecTNtNtCsc29TF2YcYso_3syn3pat3PatNtNtBJ_5token5CommaEE3lenBJ_, symObjAddr: 0x33A8, symBinAddr: 0x699D0, symSize: 0x18 }
  - { offset: 0x16C825, size: 0x8, addend: 0x0, symName: __RNvMs_NtCsiTraAjBDcu4_5alloc3vecINtB4_3VecTNtNtCsc29TF2YcYso_3syn3pat3PatNtNtBJ_5token5CommaEE4pushBJ_, symObjAddr: 0x33C0, symBinAddr: 0x699E8, symSize: 0x120 }
  - { offset: 0x16CA73, size: 0x8, addend: 0x0, symName: __RNvMs_NtCsiTraAjBDcu4_5alloc3vecINtB4_3VecTNtNtCsc29TF2YcYso_3syn3pat3PatNtNtBJ_5token5CommaEE8as_sliceBJ_, symObjAddr: 0x34E0, symBinAddr: 0x69B08, symSize: 0x6C }
  - { offset: 0x16CC40, size: 0x8, addend: 0x0, symName: __RNvMs_NtCsiTraAjBDcu4_5alloc3vecINtB4_3VecTNtNtCsc29TF2YcYso_3syn3pat8FieldPatNtNtBJ_5token5CommaEE4pushBJ_, symObjAddr: 0x354C, symBinAddr: 0x69B74, symSize: 0x118 }
  - { offset: 0x16CE99, size: 0x8, addend: 0x0, symName: __RNvMs_NtCsiTraAjBDcu4_5alloc3vecINtB4_3VecTNtNtCsc29TF2YcYso_3syn3pat8FieldPatNtNtBJ_5token5CommaEE8as_sliceBJ_, symObjAddr: 0x3664, symBinAddr: 0x69C8C, symSize: 0x6C }
  - { offset: 0x16D08D, size: 0x8, addend: 0x0, symName: __RNvMs_NtCsiTraAjBDcu4_5alloc3vecINtB4_3VecTNtNtCsc29TF2YcYso_3syn4data5FieldNtNtBJ_5token5CommaEE4pushBJ_, symObjAddr: 0x3754, symBinAddr: 0x69CF8, symSize: 0x120 }
  - { offset: 0x16D2D2, size: 0x8, addend: 0x0, symName: __RNvMs_NtCsiTraAjBDcu4_5alloc3vecINtB4_3VecTNtNtCsc29TF2YcYso_3syn4data5FieldNtNtBJ_5token5CommaEE8as_sliceBJ_, symObjAddr: 0x3874, symBinAddr: 0x69E18, symSize: 0x6C }
  - { offset: 0x16D49F, size: 0x8, addend: 0x0, symName: __RNvMs_NtCsiTraAjBDcu4_5alloc3vecINtB4_3VecTNtNtCsc29TF2YcYso_3syn4data7VariantNtNtBJ_5token5CommaEE4pushBJ_, symObjAddr: 0x38F8, symBinAddr: 0x69E84, symSize: 0x120 }
  - { offset: 0x16D6FA, size: 0x8, addend: 0x0, symName: __RNvMs_NtCsiTraAjBDcu4_5alloc3vecINtB4_3VecTNtNtCsc29TF2YcYso_3syn4data7VariantNtNtBJ_5token5CommaEE8as_sliceBJ_, symObjAddr: 0x3A18, symBinAddr: 0x69FA4, symSize: 0x6C }
  - { offset: 0x16D8C7, size: 0x8, addend: 0x0, symName: __RNvMs_NtCsiTraAjBDcu4_5alloc3vecINtB4_3VecTNtNtCsc29TF2YcYso_3syn4expr10FieldValueNtNtBJ_5token5CommaEE4pushBJ_, symObjAddr: 0x3A84, symBinAddr: 0x6A010, symSize: 0x120 }
  - { offset: 0x16DB22, size: 0x8, addend: 0x0, symName: __RNvMs_NtCsiTraAjBDcu4_5alloc3vecINtB4_3VecTNtNtCsc29TF2YcYso_3syn4expr10FieldValueNtNtBJ_5token5CommaEE8as_sliceBJ_, symObjAddr: 0x3BA4, symBinAddr: 0x6A130, symSize: 0x6C }
  - { offset: 0x16DBE9, size: 0x8, addend: 0x0, symName: __RNvMs_NtCsiTraAjBDcu4_5alloc3vecINtB4_3VecTNtNtCsc29TF2YcYso_3syn4expr4ExprNtNtBJ_5token5CommaEE3lenBJ_, symObjAddr: 0x3C10, symBinAddr: 0x6A19C, symSize: 0x18 }
  - { offset: 0x16DD31, size: 0x8, addend: 0x0, symName: __RNvMs_NtCsiTraAjBDcu4_5alloc3vecINtB4_3VecTNtNtCsc29TF2YcYso_3syn4expr4ExprNtNtBJ_5token5CommaEE4pushBJ_, symObjAddr: 0x3C28, symBinAddr: 0x6A1B4, symSize: 0x120 }
  - { offset: 0x16DF7F, size: 0x8, addend: 0x0, symName: __RNvMs_NtCsiTraAjBDcu4_5alloc3vecINtB4_3VecTNtNtCsc29TF2YcYso_3syn4expr4ExprNtNtBJ_5token5CommaEE8as_sliceBJ_, symObjAddr: 0x3D48, symBinAddr: 0x6A2D4, symSize: 0x6C }
  - { offset: 0x16E046, size: 0x8, addend: 0x0, symName: __RNvMs_NtCsiTraAjBDcu4_5alloc3vecINtB4_3VecTNtNtCsc29TF2YcYso_3syn4item5FnArgNtNtBJ_5token5CommaEE3lenBJ_, symObjAddr: 0x3DB4, symBinAddr: 0x6A340, symSize: 0x18 }
  - { offset: 0x16E18E, size: 0x8, addend: 0x0, symName: __RNvMs_NtCsiTraAjBDcu4_5alloc3vecINtB4_3VecTNtNtCsc29TF2YcYso_3syn4item5FnArgNtNtBJ_5token5CommaEE4pushBJ_, symObjAddr: 0x3DCC, symBinAddr: 0x6A358, symSize: 0x120 }
