---
triple:          'arm64-apple-darwin'
binary-path:     '/Users/tyler/fall25/cse380/final_project/final_project_sqlite/target/debug/deps/libserde_derive-686c97b59e730d78.dylib'
relocations:
  - { offset: 0x1E, size: 0x8, addend: 0x0, symName: __RINvMNtNtNtCsiTraAjBDcu4_5alloc11collections5btree4nodeINtB3_8LeafNodeNtNtCsc29TF2YcYso_3syn8lifetime8LifetimeNtNtB5_7set_val9SetValZSTE3newNtNtB9_5alloc6GlobalECs87DMVckFIdB_12serde_derive, symObjAddr: 0x0, symBinAddr: 0xC50, symSize: 0x70 }
  - { offset: 0xB11C, size: 0x8, addend: 0x0, symName: __RINvNtNtNtCsiTraAjBDcu4_5alloc11collections5btree4node12slice_insertINtNtNtCsaNl6UpbT7bw_4core3ptr8non_null7NonNullINtB2_8LeafNodeNtNtCsc29TF2YcYso_3syn8lifetime8LifetimeNtNtB4_7set_val9SetValZSTEEECs87DMVckFIdB_12serde_derive, symObjAddr: 0x411C, symBinAddr: 0x4D6C, symSize: 0x11C }
  - { offset: 0xB2A0, size: 0x8, addend: 0x0, symName: __RINvNtNtNtCsiTraAjBDcu4_5alloc11collections5btree4node12slice_insertINtNtNtCsaNl6UpbT7bw_4core3ptr8non_null7NonNullINtB2_8LeafNodeNtNtNtCs87DMVckFIdB_12serde_derive9internals4name4NameNtNtB4_7set_val9SetValZSTEEEB2a_, symObjAddr: 0x4238, symBinAddr: 0x4E88, symSize: 0x11C }
  - { offset: 0xB424, size: 0x8, addend: 0x0, symName: __RINvNtNtNtCsiTraAjBDcu4_5alloc11collections5btree4node12slice_insertNtNtB4_7set_val9SetValZSTECs87DMVckFIdB_12serde_derive, symObjAddr: 0x4354, symBinAddr: 0x4FA4, symSize: 0xD8 }
  - { offset: 0xB539, size: 0x8, addend: 0x0, symName: __RINvNtNtNtCsiTraAjBDcu4_5alloc11collections5btree4node12slice_insertNtNtCsc29TF2YcYso_3syn8lifetime8LifetimeECs87DMVckFIdB_12serde_derive, symObjAddr: 0x442C, symBinAddr: 0x507C, symSize: 0x144 }
  - { offset: 0xB6C0, size: 0x8, addend: 0x0, symName: __RINvNtNtNtCsiTraAjBDcu4_5alloc11collections5btree4node12slice_insertNtNtNtCs87DMVckFIdB_12serde_derive9internals4name4NameEB1a_, symObjAddr: 0x4570, symBinAddr: 0x51C0, symSize: 0x144 }
  - { offset: 0xB847, size: 0x8, addend: 0x0, symName: __RINvNtNtNtCsiTraAjBDcu4_5alloc11collections5btree4node13move_to_sliceINtNtNtCsaNl6UpbT7bw_4core3ptr8non_null7NonNullINtB2_8LeafNodeNtNtCsc29TF2YcYso_3syn8lifetime8LifetimeNtNtB4_7set_val9SetValZSTEEECs87DMVckFIdB_12serde_derive, symObjAddr: 0x46B4, symBinAddr: 0x5304, symSize: 0xB0 }
  - { offset: 0xB8F3, size: 0x8, addend: 0x0, symName: __RINvNtNtNtCsiTraAjBDcu4_5alloc11collections5btree4node13move_to_sliceINtNtNtCsaNl6UpbT7bw_4core3ptr8non_null7NonNullINtB2_8LeafNodeNtNtNtCs87DMVckFIdB_12serde_derive9internals4name4NameNtNtB4_7set_val9SetValZSTEEEB2b_, symObjAddr: 0x4764, symBinAddr: 0x53B4, symSize: 0xB0 }
  - { offset: 0xB99F, size: 0x8, addend: 0x0, symName: __RINvNtNtNtCsiTraAjBDcu4_5alloc11collections5btree4node13move_to_sliceNtNtB4_7set_val9SetValZSTECs87DMVckFIdB_12serde_derive, symObjAddr: 0x4814, symBinAddr: 0x5464, symSize: 0xB4 }
  - { offset: 0xBA4B, size: 0x8, addend: 0x0, symName: __RINvNtNtNtCsiTraAjBDcu4_5alloc11collections5btree4node13move_to_sliceNtNtCsc29TF2YcYso_3syn8lifetime8LifetimeECs87DMVckFIdB_12serde_derive, symObjAddr: 0x48C8, symBinAddr: 0x5518, symSize: 0xB4 }
  - { offset: 0xBAF7, size: 0x8, addend: 0x0, symName: __RINvNtNtNtCsiTraAjBDcu4_5alloc11collections5btree4node13move_to_sliceNtNtNtCs87DMVckFIdB_12serde_derive9internals4name4NameEB1b_, symObjAddr: 0x497C, symBinAddr: 0x55CC, symSize: 0xB4 }
  - { offset: 0xBBAD, size: 0x8, addend: 0x0, symName: __RNCINvMss_NtNtNtCsiTraAjBDcu4_5alloc11collections5btree4nodeINtB8_7NodeRefNtNtB8_6marker5OwnedNtNtCsc29TF2YcYso_3syn8lifetime8LifetimeNtNtBa_7set_val9SetValZSTNtB1c_14LeafOrInternalE19push_internal_levelNtNtBe_5alloc6GlobalE0Cs87DMVckFIdB_12serde_derive, symObjAddr: 0x4A30, symBinAddr: 0x5680, symSize: 0x34 }
  - { offset: 0xBC06, size: 0x8, addend: 0x0, symName: __RNCINvMss_NtNtNtCsiTraAjBDcu4_5alloc11collections5btree4nodeINtB8_7NodeRefNtNtB8_6marker5OwnedNtNtNtCs87DMVckFIdB_12serde_derive9internals4name4NameNtNtBa_7set_val9SetValZSTNtB1c_14LeafOrInternalE19push_internal_levelNtNtBe_5alloc6GlobalE0B1A_, symObjAddr: 0x4A64, symBinAddr: 0x56B4, symSize: 0x34 }
  - { offset: 0xCBDB, size: 0x8, addend: 0x0, symName: __RNvXNvMsT_NtNtNtCsiTraAjBDcu4_5alloc11collections5btree4nodeINtB8_6HandleINtB8_7NodeRefNtNtB8_6marker5DyingpppENtB1p_2KVE12drop_key_valINtB2_7DropperNtNtBa_7set_val9SetValZSTENtNtNtCsaNl6UpbT7bw_4core3ops4drop4Drop4dropCs87DMVckFIdB_12serde_derive, symObjAddr: 0x8F2C, symBinAddr: 0x9B7C, symSize: 0x1C }
  - { offset: 0xDCCD, size: 0x8, addend: 0x0, symName: __RINvMNtNtNtCsiTraAjBDcu4_5alloc11collections5btree4nodeINtB3_8LeafNodeNtNtCsc29TF2YcYso_3syn8lifetime8LifetimeNtNtB5_7set_val9SetValZSTE3newNtNtB9_5alloc6GlobalECs87DMVckFIdB_12serde_derive, symObjAddr: 0x0, symBinAddr: 0xC50, symSize: 0x70 }
  - { offset: 0xDFC6, size: 0x8, addend: 0x0, symName: __RINvMNtNtNtCsiTraAjBDcu4_5alloc11collections5btree4nodeINtB3_8LeafNodeNtNtNtCs87DMVckFIdB_12serde_derive9internals4name4NameNtNtB5_7set_val9SetValZSTE3newNtNtB9_5alloc6GlobalEB1c_, symObjAddr: 0x70, symBinAddr: 0xCC0, symSize: 0x70 }
  - { offset: 0xE321, size: 0x8, addend: 0x0, symName: __RINvMs0_NtNtNtCsiTraAjBDcu4_5alloc11collections5btree6searchINtNtB8_4node7NodeRefNtNtBZ_6marker3MutNtNtCsc29TF2YcYso_3syn8lifetime8LifetimeNtNtB8_7set_val9SetValZSTNtB1j_14LeafOrInternalE14find_key_indexB1z_ECs87DMVckFIdB_12serde_derive, symObjAddr: 0xE0, symBinAddr: 0xD30, symSize: 0x1DC }
  - { offset: 0xE7AB, size: 0x8, addend: 0x0, symName: __RINvMs0_NtNtNtCsiTraAjBDcu4_5alloc11collections5btree6searchINtNtB8_4node7NodeRefNtNtBZ_6marker3MutNtNtNtCs87DMVckFIdB_12serde_derive9internals4name4NameNtNtB8_7set_val9SetValZSTNtB1j_14LeafOrInternalE14find_key_indexB1z_EB1F_, symObjAddr: 0x2BC, symBinAddr: 0xF0C, symSize: 0x1DC }
  - { offset: 0xEBC9, size: 0x8, addend: 0x0, symName: __RINvMs0_NtNtNtCsiTraAjBDcu4_5alloc11collections5btree6searchINtNtB8_4node7NodeRefNtNtBZ_6marker5ImmutNtNtCsc29TF2YcYso_3syn8lifetime8LifetimeNtNtB8_7set_val9SetValZSTNtB1j_14LeafOrInternalE14find_key_indexB1B_ECs87DMVckFIdB_12serde_derive, symObjAddr: 0x498, symBinAddr: 0x10E8, symSize: 0x1DC }
  - { offset: 0xEF49, size: 0x8, addend: 0x0, symName: __RINvMs8_NtNtNtCsiTraAjBDcu4_5alloc11collections5btree4nodeINtB6_7NodeRefNtNtB6_6marker5OwnedNtNtCsc29TF2YcYso_3syn8lifetime8LifetimeNtNtB8_7set_val9SetValZSTNtB1a_4LeafE8new_leafNtNtBc_5alloc6GlobalECs87DMVckFIdB_12serde_derive, symObjAddr: 0x674, symBinAddr: 0x12C4, symSize: 0x38 }
  - { offset: 0xF018, size: 0x8, addend: 0x0, symName: __RINvMs8_NtNtNtCsiTraAjBDcu4_5alloc11collections5btree4nodeINtB6_7NodeRefNtNtB6_6marker5OwnedNtNtNtCs87DMVckFIdB_12serde_derive9internals4name4NameNtNtB8_7set_val9SetValZSTNtB1a_4LeafE8new_leafNtNtBc_5alloc6GlobalEB1y_, symObjAddr: 0x6AC, symBinAddr: 0x12FC, symSize: 0x38 }
  - { offset: 0xF147, size: 0x8, addend: 0x0, symName: __RINvMs9_NtNtNtCsiTraAjBDcu4_5alloc11collections5btree4nodeINtB6_7NodeRefNtNtB6_6marker5OwnedNtNtCsc29TF2YcYso_3syn8lifetime8LifetimeNtNtB8_7set_val9SetValZSTNtB1a_8InternalE12new_internalNtNtBc_5alloc6GlobalECs87DMVckFIdB_12serde_derive, symObjAddr: 0x6E4, symBinAddr: 0x1334, symSize: 0x98 }
  - { offset: 0xF398, size: 0x8, addend: 0x0, symName: __RINvMs9_NtNtNtCsiTraAjBDcu4_5alloc11collections5btree4nodeINtB6_7NodeRefNtNtB6_6marker5OwnedNtNtCsc29TF2YcYso_3syn8lifetime8LifetimeNtNtB8_7set_val9SetValZSTNtB1a_8InternalE17from_new_internalNtNtBc_5alloc6GlobalECs87DMVckFIdB_12serde_derive, symObjAddr: 0x77C, symBinAddr: 0x13CC, symSize: 0xC0 }
  - { offset: 0xF5B1, size: 0x8, addend: 0x0, symName: __RINvMs9_NtNtNtCsiTraAjBDcu4_5alloc11collections5btree4nodeINtB6_7NodeRefNtNtB6_6marker5OwnedNtNtNtCs87DMVckFIdB_12serde_derive9internals4name4NameNtNtB8_7set_val9SetValZSTNtB1a_8InternalE12new_internalNtNtBc_5alloc6GlobalEB1y_, symObjAddr: 0x83C, symBinAddr: 0x148C, symSize: 0x98 }
  - { offset: 0xF7E4, size: 0x8, addend: 0x0, symName: __RINvMs9_NtNtNtCsiTraAjBDcu4_5alloc11collections5btree4nodeINtB6_7NodeRefNtNtB6_6marker5OwnedNtNtNtCs87DMVckFIdB_12serde_derive9internals4name4NameNtNtB8_7set_val9SetValZSTNtB1a_8InternalE17from_new_internalNtNtBc_5alloc6GlobalEB1y_, symObjAddr: 0x8D4, symBinAddr: 0x1524, symSize: 0xC0 }
  - { offset: 0xFC12, size: 0x8, addend: 0x0, symName: __RINvMsK_NtNtNtCsiTraAjBDcu4_5alloc11collections5btree4nodeINtB6_6HandleINtB6_7NodeRefNtNtB6_6marker3MutNtNtCsc29TF2YcYso_3syn8lifetime8LifetimeNtNtB8_7set_val9SetValZSTNtB1n_4LeafENtB1n_4EdgeE6insertNtNtBc_5alloc6GlobalECs87DMVckFIdB_12serde_derive, symObjAddr: 0x994, symBinAddr: 0x15E4, symSize: 0x508 }
  - { offset: 0x100ED, size: 0x8, addend: 0x0, symName: __RINvMsK_NtNtNtCsiTraAjBDcu4_5alloc11collections5btree4nodeINtB6_6HandleINtB6_7NodeRefNtNtB6_6marker3MutNtNtNtCs87DMVckFIdB_12serde_derive9internals4name4NameNtNtB8_7set_val9SetValZSTNtB1n_4LeafENtB1n_4EdgeE6insertNtNtBc_5alloc6GlobalEB1J_, symObjAddr: 0xE9C, symBinAddr: 0x1AEC, symSize: 0x50C }
  - { offset: 0x104FF, size: 0x8, addend: 0x0, symName: __RINvMsM_NtNtNtCsiTraAjBDcu4_5alloc11collections5btree4nodeINtB6_6HandleINtB6_7NodeRefNtNtB6_6marker3MutNtNtCsc29TF2YcYso_3syn8lifetime8LifetimeNtNtB8_7set_val9SetValZSTNtB1n_8InternalENtB1n_4EdgeE6insertNtNtBc_5alloc6GlobalECs87DMVckFIdB_12serde_derive, symObjAddr: 0x13A8, symBinAddr: 0x1FF8, symSize: 0x4F4 }
  - { offset: 0x10877, size: 0x8, addend: 0x0, symName: __RINvMsM_NtNtNtCsiTraAjBDcu4_5alloc11collections5btree4nodeINtB6_6HandleINtB6_7NodeRefNtNtB6_6marker3MutNtNtNtCs87DMVckFIdB_12serde_derive9internals4name4NameNtNtB8_7set_val9SetValZSTNtB1n_8InternalENtB1n_4EdgeE6insertNtNtBc_5alloc6GlobalEB1J_, symObjAddr: 0x189C, symBinAddr: 0x24EC, symSize: 0x4F8 }
  - { offset: 0x10B64, size: 0x8, addend: 0x0, symName: __RINvMsN_NtNtNtCsiTraAjBDcu4_5alloc11collections5btree4nodeINtB6_6HandleINtB6_7NodeRefNtNtB6_6marker3MutNtNtCsc29TF2YcYso_3syn8lifetime8LifetimeNtNtB8_7set_val9SetValZSTNtB1n_4LeafENtB1n_4EdgeE16insert_recursingNtNtBc_5alloc6GlobalNCNvMs6_NtNtB8_3map5entryINtB3O_11VacantEntryB1D_B2h_E12insert_entry0ECs87DMVckFIdB_12serde_derive, symObjAddr: 0x1D94, symBinAddr: 0x29E4, symSize: 0x480 }
  - { offset: 0x10E9A, size: 0x8, addend: 0x0, symName: __RINvMsN_NtNtNtCsiTraAjBDcu4_5alloc11collections5btree4nodeINtB6_6HandleINtB6_7NodeRefNtNtB6_6marker3MutNtNtNtCs87DMVckFIdB_12serde_derive9internals4name4NameNtNtB8_7set_val9SetValZSTNtB1n_4LeafENtB1n_4EdgeE16insert_recursingNtNtBc_5alloc6GlobalNCNvMs6_NtNtB8_3map5entryINtB42_11VacantEntryB1D_B2v_E12insert_entry0EB1J_, symObjAddr: 0x2214, symBinAddr: 0x2E64, symSize: 0x488 }
  - { offset: 0x11146, size: 0x8, addend: 0x0, symName: __RINvMsV_NtNtNtCsiTraAjBDcu4_5alloc11collections5btree4nodeINtB6_6HandleINtB6_7NodeRefNtNtB6_6marker3MutNtNtCsc29TF2YcYso_3syn8lifetime8LifetimeNtNtB8_7set_val9SetValZSTNtB1n_4LeafENtB1n_2KVE5splitNtNtBc_5alloc6GlobalECs87DMVckFIdB_12serde_derive, symObjAddr: 0x269C, symBinAddr: 0x32EC, symSize: 0xE0 }
  - { offset: 0x1126D, size: 0x8, addend: 0x0, symName: __RINvMsV_NtNtNtCsiTraAjBDcu4_5alloc11collections5btree4nodeINtB6_6HandleINtB6_7NodeRefNtNtB6_6marker3MutNtNtNtCs87DMVckFIdB_12serde_derive9internals4name4NameNtNtB8_7set_val9SetValZSTNtB1n_4LeafENtB1n_2KVE5splitNtNtBc_5alloc6GlobalEB1J_, symObjAddr: 0x277C, symBinAddr: 0x33CC, symSize: 0xE0 }
  - { offset: 0x114BD, size: 0x8, addend: 0x0, symName: __RINvMsW_NtNtNtCsiTraAjBDcu4_5alloc11collections5btree4nodeINtB6_6HandleINtB6_7NodeRefNtNtB6_6marker3MutNtNtCsc29TF2YcYso_3syn8lifetime8LifetimeNtNtB8_7set_val9SetValZSTNtB1n_8InternalENtB1n_2KVE5splitNtNtBc_5alloc6GlobalECs87DMVckFIdB_12serde_derive, symObjAddr: 0x285C, symBinAddr: 0x34AC, symSize: 0x248 }
  - { offset: 0x11911, size: 0x8, addend: 0x0, symName: __RINvMsW_NtNtNtCsiTraAjBDcu4_5alloc11collections5btree4nodeINtB6_6HandleINtB6_7NodeRefNtNtB6_6marker3MutNtNtNtCs87DMVckFIdB_12serde_derive9internals4name4NameNtNtB8_7set_val9SetValZSTNtB1n_8InternalENtB1n_2KVE5splitNtNtBc_5alloc6GlobalEB1J_, symObjAddr: 0x2AA4, symBinAddr: 0x36F4, symSize: 0x248 }
  - { offset: 0x11CA0, size: 0x8, addend: 0x0, symName: __RINvMs_NtNtNtCsiTraAjBDcu4_5alloc11collections5btree4nodeINtB5_12InternalNodeNtNtCsc29TF2YcYso_3syn8lifetime8LifetimeNtNtB7_7set_val9SetValZSTE3newNtNtBb_5alloc6GlobalECs87DMVckFIdB_12serde_derive, symObjAddr: 0x2CEC, symBinAddr: 0x393C, symSize: 0x70 }
  - { offset: 0x11EB8, size: 0x8, addend: 0x0, symName: __RINvMs_NtNtNtCsiTraAjBDcu4_5alloc11collections5btree4nodeINtB5_12InternalNodeNtNtNtCs87DMVckFIdB_12serde_derive9internals4name4NameNtNtB7_7set_val9SetValZSTE3newNtNtBb_5alloc6GlobalEB1j_, symObjAddr: 0x2D5C, symBinAddr: 0x39AC, symSize: 0x70 }
  - { offset: 0x121B1, size: 0x8, addend: 0x0, symName: __RINvMs_NtNtNtCsiTraAjBDcu4_5alloc11collections5btree6searchINtNtB7_4node7NodeRefNtNtBY_6marker3MutNtNtCsc29TF2YcYso_3syn8lifetime8LifetimeNtNtB7_7set_val9SetValZSTNtB1i_14LeafOrInternalE11search_treeB1y_ECs87DMVckFIdB_12serde_derive, symObjAddr: 0x2DCC, symBinAddr: 0x3A1C, symSize: 0x260 }
  - { offset: 0x12506, size: 0x8, addend: 0x0, symName: __RINvMs_NtNtNtCsiTraAjBDcu4_5alloc11collections5btree6searchINtNtB7_4node7NodeRefNtNtBY_6marker3MutNtNtNtCs87DMVckFIdB_12serde_derive9internals4name4NameNtNtB7_7set_val9SetValZSTNtB1i_14LeafOrInternalE11search_treeB1y_EB1E_, symObjAddr: 0x302C, symBinAddr: 0x3C7C, symSize: 0x260 }
  - { offset: 0x12897, size: 0x8, addend: 0x0, symName: __RINvMs_NtNtNtCsiTraAjBDcu4_5alloc11collections5btree6searchINtNtB7_4node7NodeRefNtNtBY_6marker5ImmutNtNtCsc29TF2YcYso_3syn8lifetime8LifetimeNtNtB7_7set_val9SetValZSTNtB1i_14LeafOrInternalE11search_treeB1A_ECs87DMVckFIdB_12serde_derive, symObjAddr: 0x328C, symBinAddr: 0x3EDC, symSize: 0x260 }
  - { offset: 0x12B78, size: 0x8, addend: 0x0, symName: __RINvMsh_NtNtNtCsiTraAjBDcu4_5alloc11collections5btree4nodeINtB6_7NodeRefNtNtB6_6marker5DyingNtNtCsc29TF2YcYso_3syn8lifetime8LifetimeNtNtB8_7set_val9SetValZSTNtB1a_14LeafOrInternalE21deallocate_and_ascendNtNtBc_5alloc6GlobalECs87DMVckFIdB_12serde_derive, symObjAddr: 0x34EC, symBinAddr: 0x413C, symSize: 0x188 }
  - { offset: 0x12DEB, size: 0x8, addend: 0x0, symName: __RINvMsh_NtNtNtCsiTraAjBDcu4_5alloc11collections5btree4nodeINtB6_7NodeRefNtNtB6_6marker5DyingNtNtNtCs87DMVckFIdB_12serde_derive9internals4name4NameNtNtB8_7set_val9SetValZSTNtB1a_14LeafOrInternalE21deallocate_and_ascendNtNtBc_5alloc6GlobalEB1y_, symObjAddr: 0x3674, symBinAddr: 0x42C4, symSize: 0x188 }
  - { offset: 0x13031, size: 0x8, addend: 0x0, symName: __RINvMsj_NtNtNtCsiTraAjBDcu4_5alloc11collections5btree8navigateINtNtB8_4node6HandleINtB11_7NodeRefNtNtB11_6marker5DyingNtNtCsc29TF2YcYso_3syn8lifetime8LifetimeNtNtB8_7set_val9SetValZSTNtB1z_4LeafENtB1z_4EdgeE16deallocating_endNtNtBc_5alloc6GlobalECs87DMVckFIdB_12serde_derive, symObjAddr: 0x37FC, symBinAddr: 0x444C, symSize: 0xD4 }
  - { offset: 0x132A5, size: 0x8, addend: 0x0, symName: __RINvMsj_NtNtNtCsiTraAjBDcu4_5alloc11collections5btree8navigateINtNtB8_4node6HandleINtB11_7NodeRefNtNtB11_6marker5DyingNtNtCsc29TF2YcYso_3syn8lifetime8LifetimeNtNtB8_7set_val9SetValZSTNtB1z_4LeafENtB1z_4EdgeE17deallocating_nextNtNtBc_5alloc6GlobalECs87DMVckFIdB_12serde_derive, symObjAddr: 0x38D0, symBinAddr: 0x4520, symSize: 0x254 }
  - { offset: 0x134D9, size: 0x8, addend: 0x0, symName: __RINvMsj_NtNtNtCsiTraAjBDcu4_5alloc11collections5btree8navigateINtNtB8_4node6HandleINtB11_7NodeRefNtNtB11_6marker5DyingNtNtNtCs87DMVckFIdB_12serde_derive9internals4name4NameNtNtB8_7set_val9SetValZSTNtB1z_4LeafENtB1z_4EdgeE16deallocating_endNtNtBc_5alloc6GlobalEB1Y_, symObjAddr: 0x3B24, symBinAddr: 0x4774, symSize: 0xD4 }
  - { offset: 0x1374D, size: 0x8, addend: 0x0, symName: __RINvMsj_NtNtNtCsiTraAjBDcu4_5alloc11collections5btree8navigateINtNtB8_4node6HandleINtB11_7NodeRefNtNtB11_6marker5DyingNtNtNtCs87DMVckFIdB_12serde_derive9internals4name4NameNtNtB8_7set_val9SetValZSTNtB1z_4LeafENtB1z_4EdgeE17deallocating_nextNtNtBc_5alloc6GlobalEB1Y_, symObjAddr: 0x3BF8, symBinAddr: 0x4848, symSize: 0x254 }
  - { offset: 0x13998, size: 0x8, addend: 0x0, symName: __RINvMsp_NtNtNtCsiTraAjBDcu4_5alloc11collections5btree4nodeINtB6_7NodeRefNtNtB6_6marker3MutNtNtCsc29TF2YcYso_3syn8lifetime8LifetimeNtNtB8_7set_val9SetValZSTNtB1a_8InternalE30correct_childrens_parent_linksINtNtNtCsaNl6UpbT7bw_4core3ops5range14RangeInclusivejEECs87DMVckFIdB_12serde_derive, symObjAddr: 0x3E4C, symBinAddr: 0x4A9C, symSize: 0xB4 }
  - { offset: 0x13ACF, size: 0x8, addend: 0x0, symName: __RINvMsp_NtNtNtCsiTraAjBDcu4_5alloc11collections5btree4nodeINtB6_7NodeRefNtNtB6_6marker3MutNtNtCsc29TF2YcYso_3syn8lifetime8LifetimeNtNtB8_7set_val9SetValZSTNtB1a_8InternalE30correct_childrens_parent_linksINtNtNtCsaNl6UpbT7bw_4core3ops5range5RangejEECs87DMVckFIdB_12serde_derive, symObjAddr: 0x3F00, symBinAddr: 0x4B50, symSize: 0xB4 }
  - { offset: 0x13C05, size: 0x8, addend: 0x0, symName: __RINvMsp_NtNtNtCsiTraAjBDcu4_5alloc11collections5btree4nodeINtB6_7NodeRefNtNtB6_6marker3MutNtNtNtCs87DMVckFIdB_12serde_derive9internals4name4NameNtNtB8_7set_val9SetValZSTNtB1a_8InternalE30correct_childrens_parent_linksINtNtNtCsaNl6UpbT7bw_4core3ops5range14RangeInclusivejEEB1w_, symObjAddr: 0x3FB4, symBinAddr: 0x4C04, symSize: 0xB4 }
  - { offset: 0x13D3C, size: 0x8, addend: 0x0, symName: __RINvMsp_NtNtNtCsiTraAjBDcu4_5alloc11collections5btree4nodeINtB6_7NodeRefNtNtB6_6marker3MutNtNtNtCs87DMVckFIdB_12serde_derive9internals4name4NameNtNtB8_7set_val9SetValZSTNtB1a_8InternalE30correct_childrens_parent_linksINtNtNtCsaNl6UpbT7bw_4core3ops5range5RangejEEB1w_, symObjAddr: 0x4068, symBinAddr: 0x4CB8, symSize: 0xB4 }
  - { offset: 0x14266, size: 0x8, addend: 0x0, symName: __RNvMsJ_NtNtNtCsiTraAjBDcu4_5alloc11collections5btree4nodeINtB5_6HandleINtB5_7NodeRefNtNtB5_6marker3MutNtNtCsc29TF2YcYso_3syn8lifetime8LifetimeNtNtB7_7set_val9SetValZSTNtB1m_4LeafENtB1m_4EdgeE10insert_fitCs87DMVckFIdB_12serde_derive, symObjAddr: 0x4A98, symBinAddr: 0x56E8, symSize: 0x1E4 }
  - { offset: 0x147B0, size: 0x8, addend: 0x0, symName: __RNvMsJ_NtNtNtCsiTraAjBDcu4_5alloc11collections5btree4nodeINtB5_6HandleINtB5_7NodeRefNtNtB5_6marker3MutNtNtNtCs87DMVckFIdB_12serde_derive9internals4name4NameNtNtB7_7set_val9SetValZSTNtB1m_4LeafENtB1m_4EdgeE10insert_fitB1I_, symObjAddr: 0x4C7C, symBinAddr: 0x58CC, symSize: 0x1E4 }
  - { offset: 0x14C1F, size: 0x8, addend: 0x0, symName: __RNvMsL_NtNtNtCsiTraAjBDcu4_5alloc11collections5btree4nodeINtB5_6HandleINtB5_7NodeRefNtNtB5_6marker3MutNtNtCsc29TF2YcYso_3syn8lifetime8LifetimeNtNtB7_7set_val9SetValZSTNtB1m_8InternalENtB1m_4EdgeE19correct_parent_linkCs87DMVckFIdB_12serde_derive, symObjAddr: 0x4E60, symBinAddr: 0x5AB0, symSize: 0xAC }
  - { offset: 0x14E4D, size: 0x8, addend: 0x0, symName: __RNvMsL_NtNtNtCsiTraAjBDcu4_5alloc11collections5btree4nodeINtB5_6HandleINtB5_7NodeRefNtNtB5_6marker3MutNtNtNtCs87DMVckFIdB_12serde_derive9internals4name4NameNtNtB7_7set_val9SetValZSTNtB1m_8InternalENtB1m_4EdgeE19correct_parent_linkB1I_, symObjAddr: 0x4F0C, symBinAddr: 0x5B5C, symSize: 0xAC }
  - { offset: 0x15199, size: 0x8, addend: 0x0, symName: __RNvMsM_NtNtNtCsiTraAjBDcu4_5alloc11collections5btree4nodeINtB5_6HandleINtB5_7NodeRefNtNtB5_6marker3MutNtNtCsc29TF2YcYso_3syn8lifetime8LifetimeNtNtB7_7set_val9SetValZSTNtB1m_8InternalENtB1m_4EdgeE10insert_fitCs87DMVckFIdB_12serde_derive, symObjAddr: 0x4FB8, symBinAddr: 0x5C08, symSize: 0x284 }
  - { offset: 0x1581E, size: 0x8, addend: 0x0, symName: __RNvMsM_NtNtNtCsiTraAjBDcu4_5alloc11collections5btree4nodeINtB5_6HandleINtB5_7NodeRefNtNtB5_6marker3MutNtNtNtCs87DMVckFIdB_12serde_derive9internals4name4NameNtNtB7_7set_val9SetValZSTNtB1m_8InternalENtB1m_4EdgeE10insert_fitB1I_, symObjAddr: 0x523C, symBinAddr: 0x5E8C, symSize: 0x284 }
  - { offset: 0x15D39, size: 0x8, addend: 0x0, symName: __RNvMsO_NtNtNtCsiTraAjBDcu4_5alloc11collections5btree4nodeINtB5_6HandleINtB5_7NodeRefNtNtB5_6marker3MutNtNtCsc29TF2YcYso_3syn8lifetime8LifetimeNtNtB7_7set_val9SetValZSTNtB1m_8InternalENtB1m_4EdgeE7descendCs87DMVckFIdB_12serde_derive, symObjAddr: 0x54C0, symBinAddr: 0x6110, symSize: 0x9C }
  - { offset: 0x15F24, size: 0x8, addend: 0x0, symName: __RNvMsO_NtNtNtCsiTraAjBDcu4_5alloc11collections5btree4nodeINtB5_6HandleINtB5_7NodeRefNtNtB5_6marker3MutNtNtNtCs87DMVckFIdB_12serde_derive9internals4name4NameNtNtB7_7set_val9SetValZSTNtB1m_8InternalENtB1m_4EdgeE7descendB1I_, symObjAddr: 0x555C, symBinAddr: 0x61AC, symSize: 0x9C }
  - { offset: 0x160E4, size: 0x8, addend: 0x0, symName: __RNvMsO_NtNtNtCsiTraAjBDcu4_5alloc11collections5btree4nodeINtB5_6HandleINtB5_7NodeRefNtNtB5_6marker5DyingNtNtCsc29TF2YcYso_3syn8lifetime8LifetimeNtNtB7_7set_val9SetValZSTNtB1m_8InternalENtB1m_4EdgeE7descendCs87DMVckFIdB_12serde_derive, symObjAddr: 0x55F8, symBinAddr: 0x6248, symSize: 0x9C }
  - { offset: 0x162A4, size: 0x8, addend: 0x0, symName: __RNvMsO_NtNtNtCsiTraAjBDcu4_5alloc11collections5btree4nodeINtB5_6HandleINtB5_7NodeRefNtNtB5_6marker5DyingNtNtNtCs87DMVckFIdB_12serde_derive9internals4name4NameNtNtB7_7set_val9SetValZSTNtB1m_8InternalENtB1m_4EdgeE7descendB1K_, symObjAddr: 0x5694, symBinAddr: 0x62E4, symSize: 0x9C }
  - { offset: 0x16464, size: 0x8, addend: 0x0, symName: __RNvMsO_NtNtNtCsiTraAjBDcu4_5alloc11collections5btree4nodeINtB5_6HandleINtB5_7NodeRefNtNtB5_6marker5ImmutNtNtCsc29TF2YcYso_3syn8lifetime8LifetimeNtNtB7_7set_val9SetValZSTNtB1m_8InternalENtB1m_4EdgeE7descendCs87DMVckFIdB_12serde_derive, symObjAddr: 0x5730, symBinAddr: 0x6380, symSize: 0x9C }
  - { offset: 0x16624, size: 0x8, addend: 0x0, symName: __RNvMsO_NtNtNtCsiTraAjBDcu4_5alloc11collections5btree4nodeINtB5_6HandleINtB5_7NodeRefNtNtB5_6marker5ImmutNtNtNtCs87DMVckFIdB_12serde_derive9internals4name4NameNtNtB7_7set_val9SetValZSTNtB1m_8InternalENtB1m_4EdgeE7descendB1K_, symObjAddr: 0x57CC, symBinAddr: 0x641C, symSize: 0x9C }
  - { offset: 0x168F2, size: 0x8, addend: 0x0, symName: __RNvMsP_NtNtNtCsiTraAjBDcu4_5alloc11collections5btree4nodeINtB5_6HandleINtB5_7NodeRefNtNtB5_6marker5ImmutNtNtCsc29TF2YcYso_3syn8lifetime8LifetimeNtNtB7_7set_val9SetValZSTNtB1m_14LeafOrInternalENtB1m_2KVE7into_kvCs87DMVckFIdB_12serde_derive, symObjAddr: 0x5868, symBinAddr: 0x64B8, symSize: 0xE0 }
  - { offset: 0x16BE2, size: 0x8, addend: 0x0, symName: __RNvMsP_NtNtNtCsiTraAjBDcu4_5alloc11collections5btree4nodeINtB5_6HandleINtB5_7NodeRefNtNtB5_6marker5ImmutNtNtCsc29TF2YcYso_3syn8lifetime8LifetimeNtNtB7_7set_val9SetValZSTNtB1m_4LeafENtB1m_2KVE7into_kvCs87DMVckFIdB_12serde_derive, symObjAddr: 0x5948, symBinAddr: 0x6598, symSize: 0xE0 }
  - { offset: 0x16EC5, size: 0x8, addend: 0x0, symName: __RNvMsP_NtNtNtCsiTraAjBDcu4_5alloc11collections5btree4nodeINtB5_6HandleINtB5_7NodeRefNtNtB5_6marker5ImmutNtNtCsc29TF2YcYso_3syn8lifetime8LifetimeNtNtB7_7set_val9SetValZSTNtB1m_8InternalENtB1m_2KVE7into_kvCs87DMVckFIdB_12serde_derive, symObjAddr: 0x5A28, symBinAddr: 0x6678, symSize: 0xE0 }
  - { offset: 0x1720B, size: 0x8, addend: 0x0, symName: __RNvMsP_NtNtNtCsiTraAjBDcu4_5alloc11collections5btree4nodeINtB5_6HandleINtB5_7NodeRefNtNtB5_6marker5ImmutNtNtNtCs87DMVckFIdB_12serde_derive9internals4name4NameNtNtB7_7set_val9SetValZSTNtB1m_14LeafOrInternalENtB1m_2KVE7into_kvB1K_, symObjAddr: 0x5B08, symBinAddr: 0x6758, symSize: 0xE0 }
  - { offset: 0x17498, size: 0x8, addend: 0x0, symName: __RNvMsQ_NtNtNtCsiTraAjBDcu4_5alloc11collections5btree4nodeINtB5_6HandleINtB5_7NodeRefNtNtB5_6marker3MutNtNtCsc29TF2YcYso_3syn8lifetime8LifetimeNtNtB7_7set_val9SetValZSTNtB1m_14LeafOrInternalENtB1m_2KVE12into_val_mutCs87DMVckFIdB_12serde_derive, symObjAddr: 0x5BE8, symBinAddr: 0x6838, symSize: 0x94 }
  - { offset: 0x175F7, size: 0x8, addend: 0x0, symName: __RNvMsQ_NtNtNtCsiTraAjBDcu4_5alloc11collections5btree4nodeINtB5_6HandleINtB5_7NodeRefNtNtB5_6marker3MutNtNtCsc29TF2YcYso_3syn8lifetime8LifetimeNtNtB7_7set_val9SetValZSTNtB1m_4LeafENtB1m_2KVE12into_val_mutCs87DMVckFIdB_12serde_derive, symObjAddr: 0x5C7C, symBinAddr: 0x68CC, symSize: 0x94 }
  - { offset: 0x17756, size: 0x8, addend: 0x0, symName: __RNvMsQ_NtNtNtCsiTraAjBDcu4_5alloc11collections5btree4nodeINtB5_6HandleINtB5_7NodeRefNtNtB5_6marker3MutNtNtNtCs87DMVckFIdB_12serde_derive9internals4name4NameNtNtB7_7set_val9SetValZSTNtB1m_14LeafOrInternalENtB1m_2KVE12into_val_mutB1I_, symObjAddr: 0x5D10, symBinAddr: 0x6960, symSize: 0x94 }
  - { offset: 0x17917, size: 0x8, addend: 0x0, symName: __RNvMsS_NtNtNtCsiTraAjBDcu4_5alloc11collections5btree4nodeINtB5_6HandleINtB5_7NodeRefNtNtB5_6marker3MutNtNtCsc29TF2YcYso_3syn8lifetime8LifetimeNtNtB7_7set_val9SetValZSTNtB1m_14LeafOrInternalENtB1m_2KVE6kv_mutCs87DMVckFIdB_12serde_derive, symObjAddr: 0x5DA4, symBinAddr: 0x69F4, symSize: 0xF4 }
  - { offset: 0x17BB3, size: 0x8, addend: 0x0, symName: __RNvMsS_NtNtNtCsiTraAjBDcu4_5alloc11collections5btree4nodeINtB5_6HandleINtB5_7NodeRefNtNtB5_6marker3MutNtNtNtCs87DMVckFIdB_12serde_derive9internals4name4NameNtNtB7_7set_val9SetValZSTNtB1m_14LeafOrInternalENtB1m_2KVE6kv_mutB1I_, symObjAddr: 0x5E98, symBinAddr: 0x6AE8, symSize: 0xF4 }
  - { offset: 0x17E31, size: 0x8, addend: 0x0, symName: __RNvMsT_NtNtNtCsiTraAjBDcu4_5alloc11collections5btree4nodeINtB5_6HandleINtB5_7NodeRefNtNtB5_6marker5DyingNtNtCsc29TF2YcYso_3syn8lifetime8LifetimeNtNtB7_7set_val9SetValZSTNtB1m_14LeafOrInternalENtB1m_2KVE12drop_key_valCs87DMVckFIdB_12serde_derive, symObjAddr: 0x5F8C, symBinAddr: 0x6BDC, symSize: 0x120 }
  - { offset: 0x180CE, size: 0x8, addend: 0x0, symName: __RNvMsT_NtNtNtCsiTraAjBDcu4_5alloc11collections5btree4nodeINtB5_6HandleINtB5_7NodeRefNtNtB5_6marker5DyingNtNtNtCs87DMVckFIdB_12serde_derive9internals4name4NameNtNtB7_7set_val9SetValZSTNtB1m_14LeafOrInternalENtB1m_2KVE12drop_key_valB1K_, symObjAddr: 0x60AC, symBinAddr: 0x6CFC, symSize: 0x120 }
  - { offset: 0x1852A, size: 0x8, addend: 0x0, symName: __RNvMsU_NtNtNtCsiTraAjBDcu4_5alloc11collections5btree4nodeINtB5_6HandleINtB5_7NodeRefNtNtB5_6marker3MutNtNtCsc29TF2YcYso_3syn8lifetime8LifetimeNtNtB7_7set_val9SetValZSTNtB1m_4LeafENtB1m_2KVE15split_leaf_dataCs87DMVckFIdB_12serde_derive, symObjAddr: 0x61CC, symBinAddr: 0x6E1C, symSize: 0x3B4 }
  - { offset: 0x18ECE, size: 0x8, addend: 0x0, symName: __RNvMsU_NtNtNtCsiTraAjBDcu4_5alloc11collections5btree4nodeINtB5_6HandleINtB5_7NodeRefNtNtB5_6marker3MutNtNtCsc29TF2YcYso_3syn8lifetime8LifetimeNtNtB7_7set_val9SetValZSTNtB1m_8InternalENtB1m_2KVE15split_leaf_dataCs87DMVckFIdB_12serde_derive, symObjAddr: 0x6580, symBinAddr: 0x71D0, symSize: 0x3B4 }
  - { offset: 0x19872, size: 0x8, addend: 0x0, symName: __RNvMsU_NtNtNtCsiTraAjBDcu4_5alloc11collections5btree4nodeINtB5_6HandleINtB5_7NodeRefNtNtB5_6marker3MutNtNtNtCs87DMVckFIdB_12serde_derive9internals4name4NameNtNtB7_7set_val9SetValZSTNtB1m_4LeafENtB1m_2KVE15split_leaf_dataB1I_, symObjAddr: 0x6934, symBinAddr: 0x7584, symSize: 0x3B4 }
  - { offset: 0x1A216, size: 0x8, addend: 0x0, symName: __RNvMsU_NtNtNtCsiTraAjBDcu4_5alloc11collections5btree4nodeINtB5_6HandleINtB5_7NodeRefNtNtB5_6marker3MutNtNtNtCs87DMVckFIdB_12serde_derive9internals4name4NameNtNtB7_7set_val9SetValZSTNtB1m_8InternalENtB1m_2KVE15split_leaf_dataB1I_, symObjAddr: 0x6CE8, symBinAddr: 0x7938, symSize: 0x3B4 }
  - { offset: 0x1AA61, size: 0x8, addend: 0x0, symName: __RNvMse_NtNtNtCsiTraAjBDcu4_5alloc11collections5btree4nodeINtB5_7NodeRefNtNtB5_6marker3MutNtNtCsc29TF2YcYso_3syn8lifetime8LifetimeNtNtB7_7set_val9SetValZSTNtB19_14LeafOrInternalE6ascendCs87DMVckFIdB_12serde_derive, symObjAddr: 0x709C, symBinAddr: 0x7CEC, symSize: 0x160 }
  - { offset: 0x1ACCC, size: 0x8, addend: 0x0, symName: __RNvMse_NtNtNtCsiTraAjBDcu4_5alloc11collections5btree4nodeINtB5_7NodeRefNtNtB5_6marker3MutNtNtNtCs87DMVckFIdB_12serde_derive9internals4name4NameNtNtB7_7set_val9SetValZSTNtB19_14LeafOrInternalE6ascendB1v_, symObjAddr: 0x71FC, symBinAddr: 0x7E4C, symSize: 0x160 }
  - { offset: 0x1AF10, size: 0x8, addend: 0x0, symName: __RNvMse_NtNtNtCsiTraAjBDcu4_5alloc11collections5btree4nodeINtB5_7NodeRefNtNtB5_6marker5DyingNtNtCsc29TF2YcYso_3syn8lifetime8LifetimeNtNtB7_7set_val9SetValZSTNtB19_14LeafOrInternalE6ascendCs87DMVckFIdB_12serde_derive, symObjAddr: 0x735C, symBinAddr: 0x7FAC, symSize: 0x160 }
  - { offset: 0x1B154, size: 0x8, addend: 0x0, symName: __RNvMse_NtNtNtCsiTraAjBDcu4_5alloc11collections5btree4nodeINtB5_7NodeRefNtNtB5_6marker5DyingNtNtNtCs87DMVckFIdB_12serde_derive9internals4name4NameNtNtB7_7set_val9SetValZSTNtB19_14LeafOrInternalE6ascendB1x_, symObjAddr: 0x74BC, symBinAddr: 0x810C, symSize: 0x160 }
  - { offset: 0x1B398, size: 0x8, addend: 0x0, symName: __RNvMse_NtNtNtCsiTraAjBDcu4_5alloc11collections5btree4nodeINtB5_7NodeRefNtNtB5_6marker5ImmutNtNtCsc29TF2YcYso_3syn8lifetime8LifetimeNtNtB7_7set_val9SetValZSTNtB19_14LeafOrInternalE6ascendCs87DMVckFIdB_12serde_derive, symObjAddr: 0x761C, symBinAddr: 0x826C, symSize: 0x160 }
  - { offset: 0x1B5DC, size: 0x8, addend: 0x0, symName: __RNvMse_NtNtNtCsiTraAjBDcu4_5alloc11collections5btree4nodeINtB5_7NodeRefNtNtB5_6marker5ImmutNtNtNtCs87DMVckFIdB_12serde_derive9internals4name4NameNtNtB7_7set_val9SetValZSTNtB19_14LeafOrInternalE6ascendB1x_, symObjAddr: 0x777C, symBinAddr: 0x83CC, symSize: 0x160 }
  - { offset: 0x1B7BC, size: 0x8, addend: 0x0, symName: __RNvMsg_NtNtNtCsiTraAjBDcu4_5alloc11collections5btree4nodeINtB5_7NodeRefNtNtB5_6marker5ImmutNtNtCsc29TF2YcYso_3syn8lifetime8LifetimeNtNtB7_7set_val9SetValZSTNtB19_14LeafOrInternalE4keysCs87DMVckFIdB_12serde_derive, symObjAddr: 0x78DC, symBinAddr: 0x852C, symSize: 0xA4 }
  - { offset: 0x1B999, size: 0x8, addend: 0x0, symName: __RNvMsg_NtNtNtCsiTraAjBDcu4_5alloc11collections5btree4nodeINtB5_7NodeRefNtNtB5_6marker5ImmutNtNtNtCs87DMVckFIdB_12serde_derive9internals4name4NameNtNtB7_7set_val9SetValZSTNtB19_14LeafOrInternalE4keysB1x_, symObjAddr: 0x7980, symBinAddr: 0x85D0, symSize: 0xA4 }
  - { offset: 0x1BC5F, size: 0x8, addend: 0x0, symName: __RNvMsh_NtNtNtCsiTraAjBDcu4_5alloc11collections5btree8navigateINtNtB7_4node6HandleINtB10_7NodeRefNtNtB10_6marker5ImmutNtNtCsc29TF2YcYso_3syn8lifetime8LifetimeNtNtB7_7set_val9SetValZSTNtB1y_4LeafENtB1y_4EdgeE7next_kvCs87DMVckFIdB_12serde_derive, symObjAddr: 0x7A24, symBinAddr: 0x8674, symSize: 0x194 }
  - { offset: 0x1BFAC, size: 0x8, addend: 0x0, symName: __RNvMsh_NtNtNtCsiTraAjBDcu4_5alloc11collections5btree8navigateINtNtB7_4node6HandleINtB10_7NodeRefNtNtB10_6marker5ImmutNtNtNtCs87DMVckFIdB_12serde_derive9internals4name4NameNtNtB7_7set_val9SetValZSTNtB1y_4LeafENtB1y_4EdgeE7next_kvB1X_, symObjAddr: 0x7BB8, symBinAddr: 0x8808, symSize: 0x194 }
  - { offset: 0x1C39C, size: 0x8, addend: 0x0, symName: __RNvMsp_NtNtNtCsiTraAjBDcu4_5alloc11collections5btree8navigateINtNtB7_4node6HandleINtB10_7NodeRefNtNtB10_6marker5DyingNtNtCsc29TF2YcYso_3syn8lifetime8LifetimeNtNtB7_7set_val9SetValZSTNtB1y_14LeafOrInternalENtB1y_2KVE14next_leaf_edgeCs87DMVckFIdB_12serde_derive, symObjAddr: 0x7D4C, symBinAddr: 0x899C, symSize: 0x210 }
  - { offset: 0x1C80C, size: 0x8, addend: 0x0, symName: __RNvMsp_NtNtNtCsiTraAjBDcu4_5alloc11collections5btree8navigateINtNtB7_4node6HandleINtB10_7NodeRefNtNtB10_6marker5DyingNtNtNtCs87DMVckFIdB_12serde_derive9internals4name4NameNtNtB7_7set_val9SetValZSTNtB1y_14LeafOrInternalENtB1y_2KVE14next_leaf_edgeB1X_, symObjAddr: 0x7F5C, symBinAddr: 0x8BAC, symSize: 0x210 }
  - { offset: 0x1CC7C, size: 0x8, addend: 0x0, symName: __RNvMsp_NtNtNtCsiTraAjBDcu4_5alloc11collections5btree8navigateINtNtB7_4node6HandleINtB10_7NodeRefNtNtB10_6marker5ImmutNtNtCsc29TF2YcYso_3syn8lifetime8LifetimeNtNtB7_7set_val9SetValZSTNtB1y_14LeafOrInternalENtB1y_2KVE14next_leaf_edgeCs87DMVckFIdB_12serde_derive, symObjAddr: 0x816C, symBinAddr: 0x8DBC, symSize: 0x210 }
  - { offset: 0x1D0EC, size: 0x8, addend: 0x0, symName: __RNvMsp_NtNtNtCsiTraAjBDcu4_5alloc11collections5btree8navigateINtNtB7_4node6HandleINtB10_7NodeRefNtNtB10_6marker5ImmutNtNtNtCs87DMVckFIdB_12serde_derive9internals4name4NameNtNtB7_7set_val9SetValZSTNtB1y_14LeafOrInternalENtB1y_2KVE14next_leaf_edgeB1X_, symObjAddr: 0x837C, symBinAddr: 0x8FCC, symSize: 0x210 }
  - { offset: 0x1D50A, size: 0x8, addend: 0x0, symName: __RNvMsu_NtNtNtCsiTraAjBDcu4_5alloc11collections5btree4nodeINtB5_7NodeRefNtNtB5_6marker3MutNtNtCsc29TF2YcYso_3syn8lifetime8LifetimeNtNtB7_7set_val9SetValZSTNtB19_4LeafE16push_with_handleCs87DMVckFIdB_12serde_derive, symObjAddr: 0x858C, symBinAddr: 0x91DC, symSize: 0x1E8 }
  - { offset: 0x1D9E2, size: 0x8, addend: 0x0, symName: __RNvMsu_NtNtNtCsiTraAjBDcu4_5alloc11collections5btree4nodeINtB5_7NodeRefNtNtB5_6marker3MutNtNtNtCs87DMVckFIdB_12serde_derive9internals4name4NameNtNtB7_7set_val9SetValZSTNtB19_4LeafE16push_with_handleB1v_, symObjAddr: 0x8774, symBinAddr: 0x93C4, symSize: 0x1E8 }
  - { offset: 0x1DFC2, size: 0x8, addend: 0x0, symName: __RNvMsv_NtNtNtCsiTraAjBDcu4_5alloc11collections5btree4nodeINtB5_7NodeRefNtNtB5_6marker3MutNtNtCsc29TF2YcYso_3syn8lifetime8LifetimeNtNtB7_7set_val9SetValZSTNtB19_8InternalE4pushCs87DMVckFIdB_12serde_derive, symObjAddr: 0x895C, symBinAddr: 0x95AC, symSize: 0x2E8 }
  - { offset: 0x1E705, size: 0x8, addend: 0x0, symName: __RNvMsv_NtNtNtCsiTraAjBDcu4_5alloc11collections5btree4nodeINtB5_7NodeRefNtNtB5_6marker3MutNtNtNtCs87DMVckFIdB_12serde_derive9internals4name4NameNtNtB7_7set_val9SetValZSTNtB19_8InternalE4pushB1v_, symObjAddr: 0x8C44, symBinAddr: 0x9894, symSize: 0x2E8 }
  - { offset: 0x1EBA9, size: 0x8, addend: 0x0, symName: __RNvXs1_NtNtNtCsaNl6UpbT7bw_4core3ops8function5implsQNCNvNtCs87DMVckFIdB_12serde_derive3ser22serialize_tuple_struct0INtB7_5FnMutTRTjRNtNtNtBU_9internals3ast5FieldEEE8call_mutBU_, symObjAddr: 0x0, symBinAddr: 0x9B98, symSize: 0x30 }
  - { offset: 0x1FB7C, size: 0x8, addend: 0x0, symName: __RNvNtCs87DMVckFIdB_12serde_derive3ser23expand_derive_serialize, symObjAddr: 0x180, symBinAddr: 0x9D18, symSize: 0x11EC }
  - { offset: 0x1FDD2, size: 0x8, addend: 0x0, symName: __RNvNtCs87DMVckFIdB_12serde_derive3ser12precondition, symObjAddr: 0x136C, symBinAddr: 0xAF04, symSize: 0xE4 }
  - { offset: 0x1FE83, size: 0x8, addend: 0x0, symName: __RNvNtCs87DMVckFIdB_12serde_derive3ser14build_generics, symObjAddr: 0x16E8, symBinAddr: 0xB280, symSize: 0x260 }
  - { offset: 0x1FF1B, size: 0x8, addend: 0x0, symName: __RNvNtCs87DMVckFIdB_12serde_derive3ser21needs_serialize_bound, symObjAddr: 0x1948, symBinAddr: 0xB4E0, symSize: 0xFC }
  - { offset: 0x1FF5A, size: 0x8, addend: 0x0, symName: __RNCNvNtCs87DMVckFIdB_12serde_derive3ser21needs_serialize_bound0B5_, symObjAddr: 0x1A44, symBinAddr: 0xB5DC, symSize: 0xC4 }
  - { offset: 0x1FF98, size: 0x8, addend: 0x0, symName: __RNvNtCs87DMVckFIdB_12serde_derive3ser14serialize_body, symObjAddr: 0x1B08, symBinAddr: 0xB6A0, symSize: 0x258 }
  - { offset: 0x2005B, size: 0x8, addend: 0x0, symName: __RNvNtCs87DMVckFIdB_12serde_derive3ser21serialize_transparent, symObjAddr: 0x1D60, symBinAddr: 0xB8F8, symSize: 0x3D8 }
  - { offset: 0x201CF, size: 0x8, addend: 0x0, symName: __RNCNvNtCs87DMVckFIdB_12serde_derive3ser21serialize_transparent0B5_, symObjAddr: 0x2138, symBinAddr: 0xBCD0, symSize: 0x3C }
  - { offset: 0x2020D, size: 0x8, addend: 0x0, symName: __RNvNtCs87DMVckFIdB_12serde_derive3ser14serialize_into, symObjAddr: 0x2174, symBinAddr: 0xBD0C, symSize: 0x3A4 }
  - { offset: 0x202B4, size: 0x8, addend: 0x0, symName: __RNvNtCs87DMVckFIdB_12serde_derive3ser21serialize_unit_struct, symObjAddr: 0x2518, symBinAddr: 0xC0B0, symSize: 0x190 }
  - { offset: 0x20328, size: 0x8, addend: 0x0, symName: __RNvNtCs87DMVckFIdB_12serde_derive3ser24serialize_newtype_struct, symObjAddr: 0x26A8, symBinAddr: 0xC240, symSize: 0x3CC }
  - { offset: 0x20453, size: 0x8, addend: 0x0, symName: __RNvNtCs87DMVckFIdB_12serde_derive3ser22serialize_tuple_struct, symObjAddr: 0x2A74, symBinAddr: 0xC60C, symSize: 0x5C8 }
  - { offset: 0x205F4, size: 0x8, addend: 0x0, symName: __RNCNvNtCs87DMVckFIdB_12serde_derive3ser22serialize_tuple_struct0B5_, symObjAddr: 0x303C, symBinAddr: 0xCBD4, symSize: 0x48 }
  - { offset: 0x2063F, size: 0x8, addend: 0x0, symName: __RNCNvNtCs87DMVckFIdB_12serde_derive3ser22serialize_tuple_structs_0B5_, symObjAddr: 0x3084, symBinAddr: 0xCC1C, symSize: 0x36C }
  - { offset: 0x20761, size: 0x8, addend: 0x0, symName: __RNCNvNtCs87DMVckFIdB_12serde_derive3ser22serialize_tuple_structs0_0B5_, symObjAddr: 0x33F0, symBinAddr: 0xCF88, symSize: 0xF8 }
  - { offset: 0x207D0, size: 0x8, addend: 0x0, symName: __RNvNtCs87DMVckFIdB_12serde_derive3ser16serialize_struct, symObjAddr: 0x34E8, symBinAddr: 0xD080, symSize: 0x190 }
  - { offset: 0x2087D, size: 0x8, addend: 0x0, symName: __RNCNvNtCs87DMVckFIdB_12serde_derive3ser16serialize_struct0B5_, symObjAddr: 0x3678, symBinAddr: 0xD210, symSize: 0x8C }
  - { offset: 0x208BE, size: 0x8, addend: 0x0, symName: __RNvNtCs87DMVckFIdB_12serde_derive3ser26serialize_struct_tag_field, symObjAddr: 0x3704, symBinAddr: 0xD29C, symSize: 0x220 }
  - { offset: 0x2096A, size: 0x8, addend: 0x0, symName: __RNvNtCs87DMVckFIdB_12serde_derive3ser26serialize_struct_as_struct, symObjAddr: 0x3924, symBinAddr: 0xD4BC, symSize: 0x698 }
  - { offset: 0x20B39, size: 0x8, addend: 0x0, symName: __RNCNvNtCs87DMVckFIdB_12serde_derive3ser26serialize_struct_as_struct0B5_, symObjAddr: 0x3FBC, symBinAddr: 0xDB54, symSize: 0x44 }
  - { offset: 0x20B84, size: 0x8, addend: 0x0, symName: __RNCNvNtCs87DMVckFIdB_12serde_derive3ser26serialize_struct_as_structs_0B5_, symObjAddr: 0x4000, symBinAddr: 0xDB98, symSize: 0x308 }
  - { offset: 0x20C64, size: 0x8, addend: 0x0, symName: __RNCNvNtCs87DMVckFIdB_12serde_derive3ser26serialize_struct_as_structs0_0B5_, symObjAddr: 0x4308, symBinAddr: 0xDEA0, symSize: 0xF8 }
  - { offset: 0x20CD3, size: 0x8, addend: 0x0, symName: __RNvNtCs87DMVckFIdB_12serde_derive3ser23serialize_struct_as_map, symObjAddr: 0x4400, symBinAddr: 0xDF98, symSize: 0x5D8 }
  - { offset: 0x20E5C, size: 0x8, addend: 0x0, symName: __RNCNvNtCs87DMVckFIdB_12serde_derive3ser23serialize_struct_as_map0B5_, symObjAddr: 0x49D8, symBinAddr: 0xE570, symSize: 0x44 }
  - { offset: 0x20EAF, size: 0x8, addend: 0x0, symName: __RNvNtCs87DMVckFIdB_12serde_derive3ser14serialize_enum, symObjAddr: 0x4A1C, symBinAddr: 0xE5B4, symSize: 0x684 }
  - { offset: 0x2103A, size: 0x8, addend: 0x0, symName: __RNCNvNtCs87DMVckFIdB_12serde_derive3ser14serialize_enum0B5_, symObjAddr: 0x50A0, symBinAddr: 0xEC38, symSize: 0x64 }
  - { offset: 0x210B1, size: 0x8, addend: 0x0, symName: __RNvNtCs87DMVckFIdB_12serde_derive3ser17serialize_variant, symObjAddr: 0x5104, symBinAddr: 0xEC9C, symSize: 0xEE0 }
  - { offset: 0x21539, size: 0x8, addend: 0x0, symName: __RNCNvNtCs87DMVckFIdB_12serde_derive3ser17serialize_variant0B5_, symObjAddr: 0x5FE4, symBinAddr: 0xFB7C, symSize: 0xF0 }
  - { offset: 0x215AF, size: 0x8, addend: 0x0, symName: __RNCNvNtCs87DMVckFIdB_12serde_derive3ser17serialize_variants_0B5_, symObjAddr: 0x60D4, symBinAddr: 0xFC6C, symSize: 0x28 }
  - { offset: 0x215F7, size: 0x8, addend: 0x0, symName: __RNvNtCs87DMVckFIdB_12serde_derive3ser35serialize_externally_tagged_variant, symObjAddr: 0x60FC, symBinAddr: 0xFC94, symSize: 0x994 }
  - { offset: 0x217F9, size: 0x8, addend: 0x0, symName: __RNvNtCs87DMVckFIdB_12serde_derive3ser35serialize_internally_tagged_variant, symObjAddr: 0x6A90, symBinAddr: 0x10628, symSize: 0xD58 }
  - { offset: 0x21A5D, size: 0x8, addend: 0x0, symName: __RNvNtCs87DMVckFIdB_12serde_derive3ser35serialize_adjacently_tagged_variant, symObjAddr: 0x77E8, symBinAddr: 0x11380, symSize: 0x2BD8 }
  - { offset: 0x2211E, size: 0x8, addend: 0x0, symName: __RNCNvNtCs87DMVckFIdB_12serde_derive3ser35serialize_adjacently_tagged_variant0B5_, symObjAddr: 0xA3C0, symBinAddr: 0x13F58, symSize: 0x28 }
  - { offset: 0x22157, size: 0x8, addend: 0x0, symName: __RNCNvNtCs87DMVckFIdB_12serde_derive3ser35serialize_adjacently_tagged_variants_0B5_, symObjAddr: 0xA3E8, symBinAddr: 0x13F80, symSize: 0x10C }
  - { offset: 0x221CE, size: 0x8, addend: 0x0, symName: __RNCNvNtCs87DMVckFIdB_12serde_derive3ser35serialize_adjacently_tagged_variants0_0B5_, symObjAddr: 0xA4F4, symBinAddr: 0x1408C, symSize: 0x38 }
  - { offset: 0x2221D, size: 0x8, addend: 0x0, symName: __RNvNtCs87DMVckFIdB_12serde_derive3ser26serialize_untagged_variant, symObjAddr: 0xA52C, symBinAddr: 0x140C4, symSize: 0x7DC }
  - { offset: 0x22400, size: 0x8, addend: 0x0, symName: __RNvNtCs87DMVckFIdB_12serde_derive3ser23serialize_tuple_variant, symObjAddr: 0xAD08, symBinAddr: 0x148A0, symSize: 0xA30 }
  - { offset: 0x2269F, size: 0x8, addend: 0x0, symName: __RNCNvNtCs87DMVckFIdB_12serde_derive3ser23serialize_tuple_variant0B5_, symObjAddr: 0xB738, symBinAddr: 0x152D0, symSize: 0x48 }
  - { offset: 0x226EA, size: 0x8, addend: 0x0, symName: __RNCNvNtCs87DMVckFIdB_12serde_derive3ser23serialize_tuple_variants_0B5_, symObjAddr: 0xB780, symBinAddr: 0x15318, symSize: 0x3AC }
  - { offset: 0x2282D, size: 0x8, addend: 0x0, symName: __RNCNvNtCs87DMVckFIdB_12serde_derive3ser23serialize_tuple_variants0_0B5_, symObjAddr: 0xBB2C, symBinAddr: 0x156C4, symSize: 0xF8 }
  - { offset: 0x228A3, size: 0x8, addend: 0x0, symName: __RNvNtCs87DMVckFIdB_12serde_derive3ser24serialize_struct_variant, symObjAddr: 0xBC24, symBinAddr: 0x157BC, symSize: 0xFDC }
  - { offset: 0x22C44, size: 0x8, addend: 0x0, symName: __RNCNvNtCs87DMVckFIdB_12serde_derive3ser24serialize_struct_variant0B5_, symObjAddr: 0xCC00, symBinAddr: 0x16798, symSize: 0x40 }
  - { offset: 0x22C7D, size: 0x8, addend: 0x0, symName: __RNCNvNtCs87DMVckFIdB_12serde_derive3ser24serialize_struct_variants_0B5_, symObjAddr: 0xCC40, symBinAddr: 0x167D8, symSize: 0x44 }
  - { offset: 0x22CC8, size: 0x8, addend: 0x0, symName: __RNCNvNtCs87DMVckFIdB_12serde_derive3ser24serialize_struct_variants0_0B5_, symObjAddr: 0xCC84, symBinAddr: 0x1681C, symSize: 0x2C4 }
  - { offset: 0x22D9F, size: 0x8, addend: 0x0, symName: __RNCNvNtCs87DMVckFIdB_12serde_derive3ser24serialize_struct_variants1_0B5_, symObjAddr: 0xCF48, symBinAddr: 0x16AE0, symSize: 0xF8 }
  - { offset: 0x22E1C, size: 0x8, addend: 0x0, symName: __RNvNtCs87DMVckFIdB_12serde_derive3ser37serialize_struct_variant_with_flatten, symObjAddr: 0xD040, symBinAddr: 0x16BD8, symSize: 0x1E98 }
  - { offset: 0x234DA, size: 0x8, addend: 0x0, symName: __RNCNvNtCs87DMVckFIdB_12serde_derive3ser37serialize_struct_variant_with_flatten0B5_, symObjAddr: 0xEED8, symBinAddr: 0x18A70, symSize: 0x44 }
  - { offset: 0x23525, size: 0x8, addend: 0x0, symName: __RNCNvNtCs87DMVckFIdB_12serde_derive3ser37serialize_struct_variant_with_flattens_0B5_, symObjAddr: 0xEF1C, symBinAddr: 0x18AB4, symSize: 0x28 }
  - { offset: 0x2355E, size: 0x8, addend: 0x0, symName: __RNCNvNtCs87DMVckFIdB_12serde_derive3ser37serialize_struct_variant_with_flattens0_0B5_, symObjAddr: 0xEF44, symBinAddr: 0x18ADC, symSize: 0x28 }
  - { offset: 0x235AD, size: 0x8, addend: 0x0, symName: __RNvNtCs87DMVckFIdB_12serde_derive3ser30serialize_tuple_struct_visitor, symObjAddr: 0xEF6C, symBinAddr: 0x18B04, symSize: 0xBC }
  - { offset: 0x2360E, size: 0x8, addend: 0x0, symName: __RNCNvNtCs87DMVckFIdB_12serde_derive3ser30serialize_tuple_struct_visitor0B5_, symObjAddr: 0xF028, symBinAddr: 0x18BC0, symSize: 0x48 }
  - { offset: 0x23659, size: 0x8, addend: 0x0, symName: __RNCNvNtCs87DMVckFIdB_12serde_derive3ser30serialize_tuple_struct_visitors_0B5_, symObjAddr: 0xF070, symBinAddr: 0x18C08, symSize: 0x6A8 }
  - { offset: 0x23864, size: 0x8, addend: 0x0, symName: __RNCNCNvNtCs87DMVckFIdB_12serde_derive3ser30serialize_tuple_struct_visitors_00B7_, symObjAddr: 0xF718, symBinAddr: 0x192B0, symSize: 0xF4 }
  - { offset: 0x238D8, size: 0x8, addend: 0x0, symName: __RNvNtCs87DMVckFIdB_12serde_derive3ser24serialize_struct_visitor, symObjAddr: 0xF80C, symBinAddr: 0x193A4, symSize: 0x90 }
  - { offset: 0x23938, size: 0x8, addend: 0x0, symName: __RNCNvNtCs87DMVckFIdB_12serde_derive3ser24serialize_struct_visitor0B5_, symObjAddr: 0xF89C, symBinAddr: 0x19434, symSize: 0x44 }
  - { offset: 0x23983, size: 0x8, addend: 0x0, symName: __RNCNvNtCs87DMVckFIdB_12serde_derive3ser24serialize_struct_visitors_0B5_, symObjAddr: 0xF8E0, symBinAddr: 0x19478, symSize: 0xC6C }
  - { offset: 0x23C34, size: 0x8, addend: 0x0, symName: __RNCNCNvNtCs87DMVckFIdB_12serde_derive3ser24serialize_struct_visitors_00B7_, symObjAddr: 0x1054C, symBinAddr: 0x1A0E4, symSize: 0xF4 }
  - { offset: 0x23CA8, size: 0x8, addend: 0x0, symName: __RNvNtCs87DMVckFIdB_12serde_derive3ser25wrap_serialize_field_with, symObjAddr: 0x10640, symBinAddr: 0x1A1D8, symSize: 0x104 }
  - { offset: 0x23D1A, size: 0x8, addend: 0x0, symName: __RNvNtCs87DMVckFIdB_12serde_derive3ser27wrap_serialize_variant_with, symObjAddr: 0x10744, symBinAddr: 0x1A2DC, symSize: 0x15C }
  - { offset: 0x23D98, size: 0x8, addend: 0x0, symName: __RNCNvNtCs87DMVckFIdB_12serde_derive3ser27wrap_serialize_variant_with0B5_, symObjAddr: 0x108A0, symBinAddr: 0x1A438, symSize: 0x2C }
  - { offset: 0x23DD1, size: 0x8, addend: 0x0, symName: __RNCNvNtCs87DMVckFIdB_12serde_derive3ser27wrap_serialize_variant_withs_0B5_, symObjAddr: 0x108CC, symBinAddr: 0x1A464, symSize: 0x1D4 }
  - { offset: 0x23EB8, size: 0x8, addend: 0x0, symName: __RNvNtCs87DMVckFIdB_12serde_derive3ser19wrap_serialize_with, symObjAddr: 0x10AA0, symBinAddr: 0x1A638, symSize: 0x1184 }
  - { offset: 0x243A7, size: 0x8, addend: 0x0, symName: __RNCNvNtCs87DMVckFIdB_12serde_derive3ser19wrap_serialize_with0B5_, symObjAddr: 0x11C24, symBinAddr: 0x1B7BC, symSize: 0x58 }
  - { offset: 0x243E8, size: 0x8, addend: 0x0, symName: __RNvNtCs87DMVckFIdB_12serde_derive3ser6mut_if, symObjAddr: 0x11C7C, symBinAddr: 0x1B814, symSize: 0xD4 }
  - { offset: 0x2442C, size: 0x8, addend: 0x0, symName: __RNvNtCs87DMVckFIdB_12serde_derive3ser10get_member, symObjAddr: 0x11D50, symBinAddr: 0x1B8E8, symSize: 0x7A8 }
  - { offset: 0x245E9, size: 0x8, addend: 0x0, symName: __RNvNtCs87DMVckFIdB_12serde_derive3ser15effective_style, symObjAddr: 0x124F8, symBinAddr: 0x1C090, symSize: 0xB8 }
  - { offset: 0x247CD, size: 0x8, addend: 0x0, symName: __RNvXs1_NtNtNtCsaNl6UpbT7bw_4core3ops8function5implsQNCNvNtCs87DMVckFIdB_12serde_derive3ser22serialize_tuple_struct0INtB7_5FnMutTRTjRNtNtNtBU_9internals3ast5FieldEEE8call_mutBU_, symObjAddr: 0x0, symBinAddr: 0x9B98, symSize: 0x30 }
  - { offset: 0x2481C, size: 0x8, addend: 0x0, symName: __RNvXs1_NtNtNtCsaNl6UpbT7bw_4core3ops8function5implsQNCNvNtCs87DMVckFIdB_12serde_derive3ser23serialize_struct_as_map0INtB7_5FnMutTRRNtNtNtBU_9internals3ast5FieldEE8call_mutBU_, symObjAddr: 0x30, symBinAddr: 0x9BC8, symSize: 0x30 }
  - { offset: 0x2486B, size: 0x8, addend: 0x0, symName: __RNvXs1_NtNtNtCsaNl6UpbT7bw_4core3ops8function5implsQNCNvNtCs87DMVckFIdB_12serde_derive3ser23serialize_tuple_variant0INtB7_5FnMutTRTjRNtNtNtBU_9internals3ast5FieldEEE8call_mutBU_, symObjAddr: 0x60, symBinAddr: 0x9BF8, symSize: 0x30 }
  - { offset: 0x248BA, size: 0x8, addend: 0x0, symName: __RNvXs1_NtNtNtCsaNl6UpbT7bw_4core3ops8function5implsQNCNvNtCs87DMVckFIdB_12serde_derive3ser24serialize_struct_variants_0INtB7_5FnMutTRRNtNtNtBU_9internals3ast5FieldEE8call_mutBU_, symObjAddr: 0x90, symBinAddr: 0x9C28, symSize: 0x30 }
  - { offset: 0x24909, size: 0x8, addend: 0x0, symName: __RNvXs1_NtNtNtCsaNl6UpbT7bw_4core3ops8function5implsQNCNvNtCs87DMVckFIdB_12serde_derive3ser24serialize_struct_visitor0INtB7_5FnMutTRRNtNtNtBU_9internals3ast5FieldEE8call_mutBU_, symObjAddr: 0xC0, symBinAddr: 0x9C58, symSize: 0x30 }
  - { offset: 0x24958, size: 0x8, addend: 0x0, symName: __RNvXs1_NtNtNtCsaNl6UpbT7bw_4core3ops8function5implsQNCNvNtCs87DMVckFIdB_12serde_derive3ser26serialize_struct_as_struct0INtB7_5FnMutTRRNtNtNtBU_9internals3ast5FieldEE8call_mutBU_, symObjAddr: 0xF0, symBinAddr: 0x9C88, symSize: 0x30 }
  - { offset: 0x249A7, size: 0x8, addend: 0x0, symName: __RNvXs1_NtNtNtCsaNl6UpbT7bw_4core3ops8function5implsQNCNvNtCs87DMVckFIdB_12serde_derive3ser30serialize_tuple_struct_visitor0INtB7_5FnMutTRTjRNtNtNtBU_9internals3ast5FieldEEE8call_mutBU_, symObjAddr: 0x120, symBinAddr: 0x9CB8, symSize: 0x30 }
  - { offset: 0x249F6, size: 0x8, addend: 0x0, symName: __RNvXs1_NtNtNtCsaNl6UpbT7bw_4core3ops8function5implsQNCNvNtCs87DMVckFIdB_12serde_derive3ser37serialize_struct_variant_with_flatten0INtB7_5FnMutTRRNtNtNtBU_9internals3ast5FieldEE8call_mutBU_, symObjAddr: 0x150, symBinAddr: 0x9CE8, symSize: 0x30 }
  - { offset: 0x2E415, size: 0x8, addend: 0x0, symName: __RNvMNtCs87DMVckFIdB_12serde_derive3serNtB2_10Parameters3new, symObjAddr: 0x1450, symBinAddr: 0xAFE8, symSize: 0x228 }
  - { offset: 0x2E541, size: 0x8, addend: 0x0, symName: __RNvMNtCs87DMVckFIdB_12serde_derive3serNtB2_10Parameters9type_name, symObjAddr: 0x1678, symBinAddr: 0xB210, symSize: 0x70 }
  - { offset: 0x2E5C5, size: 0x8, addend: 0x0, symName: __RNvMs_NtCs87DMVckFIdB_12serde_derive3serNtB4_11StructTrait15serialize_field, symObjAddr: 0x125B0, symBinAddr: 0x1C148, symSize: 0x3C4 }
  - { offset: 0x2E695, size: 0x8, addend: 0x0, symName: __RNvMs_NtCs87DMVckFIdB_12serde_derive3serNtB4_11StructTrait10skip_field, symObjAddr: 0x12974, symBinAddr: 0x1C50C, symSize: 0x2E4 }
  - { offset: 0x2E73E, size: 0x8, addend: 0x0, symName: __RNvMs0_NtCs87DMVckFIdB_12serde_derive3serNtB5_10TupleTrait17serialize_element, symObjAddr: 0x12C58, symBinAddr: 0x1C7F0, symSize: 0x3C4 }
  - { offset: 0x2EEEF, size: 0x8, addend: 0x0, symName: __RNvXsh_NtCsc29TF2YcYso_3syn5parseNCNvMs3_NtNtCs87DMVckFIdB_12serde_derive9internals4attrNtBD_9Container8from_asts_0NtB5_6Parser14___parse_scopedBH_, symObjAddr: 0x0, symBinAddr: 0x1CBB4, symSize: 0x354 }
  - { offset: 0x306D2, size: 0x8, addend: 0x0, symName: __RNvNtNtCs87DMVckFIdB_12serde_derive9internals4attr5unraw, symObjAddr: 0x43C0, symBinAddr: 0x20F74, symSize: 0xE0 }
  - { offset: 0x30A83, size: 0x8, addend: 0x0, symName: __RNCNvMs3_NtNtCs87DMVckFIdB_12serde_derive9internals4attrNtB7_9Container8from_ast0Bb_, symObjAddr: 0x5B20, symBinAddr: 0x226D4, symSize: 0x2D78 }
  - { offset: 0x313BA, size: 0x8, addend: 0x0, symName: __RNCNvMs3_NtNtCs87DMVckFIdB_12serde_derive9internals4attrNtB7_9Container8from_asts_0Bb_, symObjAddr: 0x8898, symBinAddr: 0x2544C, symSize: 0x250 }
  - { offset: 0x3147F, size: 0x8, addend: 0x0, symName: __RNCNvMs3_NtNtCs87DMVckFIdB_12serde_derive9internals4attrNtB7_9Container9ser_bound0Bb_, symObjAddr: 0x8C20, symBinAddr: 0x257D4, symSize: 0x3C }
  - { offset: 0x314C5, size: 0x8, addend: 0x0, symName: __RNCNvMs3_NtNtCs87DMVckFIdB_12serde_derive9internals4attrNtB7_9Container8de_bound0Bb_, symObjAddr: 0x8C94, symBinAddr: 0x25848, symSize: 0x3C }
  - { offset: 0x31507, size: 0x8, addend: 0x0, symName: __RNvNtNtCs87DMVckFIdB_12serde_derive9internals4attr10decide_tag, symObjAddr: 0x8EB0, symBinAddr: 0x25A64, symSize: 0xB90 }
  - { offset: 0x31729, size: 0x8, addend: 0x0, symName: __RNvNtNtCs87DMVckFIdB_12serde_derive9internals4attr17decide_identifier, symObjAddr: 0x9A40, symBinAddr: 0x265F4, symSize: 0x5E8 }
  - { offset: 0x31A3C, size: 0x8, addend: 0x0, symName: __RNCNvMs4_NtNtCs87DMVckFIdB_12serde_derive9internals4attrNtB7_7Variant8from_ast0Bb_, symObjAddr: 0xAC78, symBinAddr: 0x2782C, symSize: 0x1A60 }
  - { offset: 0x31FC2, size: 0x8, addend: 0x0, symName: __RNCNvMs4_NtNtCs87DMVckFIdB_12serde_derive9internals4attrNtB7_7Variant9ser_bound0Bb_, symObjAddr: 0xC948, symBinAddr: 0x294FC, symSize: 0x3C }
  - { offset: 0x32008, size: 0x8, addend: 0x0, symName: __RNCNvMs4_NtNtCs87DMVckFIdB_12serde_derive9internals4attrNtB7_7Variant8de_bound0Bb_, symObjAddr: 0xC9BC, symBinAddr: 0x29570, symSize: 0x3C }
  - { offset: 0x32290, size: 0x8, addend: 0x0, symName: __RNCNvMs6_NtNtCs87DMVckFIdB_12serde_derive9internals4attrNtB7_5Field8from_ast0Bb_, symObjAddr: 0xE404, symBinAddr: 0x2AFB8, symSize: 0x34 }
  - { offset: 0x322C9, size: 0x8, addend: 0x0, symName: __RNCNvMs6_NtNtCs87DMVckFIdB_12serde_derive9internals4attrNtB7_5Field8from_asts_0Bb_, symObjAddr: 0xE438, symBinAddr: 0x2AFEC, symSize: 0x1D54 }
  - { offset: 0x328E7, size: 0x8, addend: 0x0, symName: __RNCNvMs6_NtNtCs87DMVckFIdB_12serde_derive9internals4attrNtB7_5Field9ser_bound0Bb_, symObjAddr: 0x104DC, symBinAddr: 0x2D090, symSize: 0x3C }
  - { offset: 0x3292D, size: 0x8, addend: 0x0, symName: __RNCNvMs6_NtNtCs87DMVckFIdB_12serde_derive9internals4attrNtB7_5Field8de_bound0Bb_, symObjAddr: 0x10550, symBinAddr: 0x2D104, symSize: 0x3C }
  - { offset: 0x3296F, size: 0x8, addend: 0x0, symName: __RINvNtNtCs87DMVckFIdB_12serde_derive9internals4attr14get_ser_and_deINtNtCsiTraAjBDcu4_5alloc3vec3VecNtNtCsc29TF2YcYso_3syn8generics14WherePredicateENvB2_20parse_lit_into_whereB13_EB6_, symObjAddr: 0x10668, symBinAddr: 0x2D21C, symSize: 0x59C }
  - { offset: 0x32A79, size: 0x8, addend: 0x0, symName: __RINvNtNtCs87DMVckFIdB_12serde_derive9internals4attr14get_ser_and_deNtNtCsc29TF2YcYso_3syn3lit6LitStrNvB2_12get_lit_str2INtNtCsaNl6UpbT7bw_4core6option6OptionB13_EEB6_, symObjAddr: 0x10C04, symBinAddr: 0x2D7B8, symSize: 0x564 }
  - { offset: 0x32B88, size: 0x8, addend: 0x0, symName: __RNCINvNtNtCs87DMVckFIdB_12serde_derive9internals4attr14get_ser_and_deINtNtCsiTraAjBDcu4_5alloc3vec3VecNtNtCsc29TF2YcYso_3syn8generics14WherePredicateENvB4_20parse_lit_into_whereB15_E0B8_, symObjAddr: 0x11168, symBinAddr: 0x2DD1C, symSize: 0x4DC }
  - { offset: 0x32CBF, size: 0x8, addend: 0x0, symName: __RNCINvNtNtCs87DMVckFIdB_12serde_derive9internals4attr14get_ser_and_deNtNtCsc29TF2YcYso_3syn3lit6LitStrNvB4_12get_lit_str2INtNtCsaNl6UpbT7bw_4core6option6OptionB15_EE0B8_, symObjAddr: 0x11644, symBinAddr: 0x2E1F8, symSize: 0x49C }
  - { offset: 0x32DFA, size: 0x8, addend: 0x0, symName: __RNvNtNtCs87DMVckFIdB_12serde_derive9internals4attr11get_renames, symObjAddr: 0x11AE0, symBinAddr: 0x2E694, symSize: 0x214 }
  - { offset: 0x32E8D, size: 0x8, addend: 0x0, symName: __RNvNtNtCs87DMVckFIdB_12serde_derive9internals4attr20get_multiple_renames, symObjAddr: 0x11CF4, symBinAddr: 0x2E8A8, symSize: 0x240 }
  - { offset: 0x32F11, size: 0x8, addend: 0x0, symName: __RNvNtNtCs87DMVckFIdB_12serde_derive9internals4attr20get_where_predicates, symObjAddr: 0x11F34, symBinAddr: 0x2EAE8, symSize: 0x234 }
  - { offset: 0x32F95, size: 0x8, addend: 0x0, symName: __RNvNtNtCs87DMVckFIdB_12serde_derive9internals4attr11get_lit_str, symObjAddr: 0x12168, symBinAddr: 0x2ED1C, symSize: 0x60 }
  - { offset: 0x32FE1, size: 0x8, addend: 0x0, symName: __RNvNtNtCs87DMVckFIdB_12serde_derive9internals4attr12get_lit_str2, symObjAddr: 0x121C8, symBinAddr: 0x2ED7C, symSize: 0x4F8 }
  - { offset: 0x331A8, size: 0x8, addend: 0x0, symName: __RNvNtNtCs87DMVckFIdB_12serde_derive9internals4attr19parse_lit_into_path, symObjAddr: 0x126C0, symBinAddr: 0x2F274, symSize: 0x310 }
  - { offset: 0x332A5, size: 0x8, addend: 0x0, symName: __RNvNtNtCs87DMVckFIdB_12serde_derive9internals4attr24parse_lit_into_expr_path, symObjAddr: 0x129D0, symBinAddr: 0x2F584, symSize: 0x310 }
  - { offset: 0x333A2, size: 0x8, addend: 0x0, symName: __RNvNtNtCs87DMVckFIdB_12serde_derive9internals4attr20parse_lit_into_where, symObjAddr: 0x12CE0, symBinAddr: 0x2F894, symSize: 0x280 }
  - { offset: 0x33480, size: 0x8, addend: 0x0, symName: __RNvNtNtCs87DMVckFIdB_12serde_derive9internals4attr17parse_lit_into_ty, symObjAddr: 0x12F60, symBinAddr: 0x2FB14, symSize: 0x334 }
  - { offset: 0x33594, size: 0x8, addend: 0x0, symName: __RNvNtNtCs87DMVckFIdB_12serde_derive9internals4attr24parse_lit_into_lifetimes, symObjAddr: 0x13294, symBinAddr: 0x2FE48, symSize: 0x3A0 }
  - { offset: 0x3367E, size: 0x8, addend: 0x0, symName: __RNCNvNtNtCs87DMVckFIdB_12serde_derive9internals4attr24parse_lit_into_lifetimes0B7_, symObjAddr: 0x13634, symBinAddr: 0x301E8, symSize: 0x398 }
  - { offset: 0x337B2, size: 0x8, addend: 0x0, symName: __RNvNtNtCs87DMVckFIdB_12serde_derive9internals4attr22is_implicitly_borrowed, symObjAddr: 0x139CC, symBinAddr: 0x30580, symSize: 0x80 }
  - { offset: 0x337E0, size: 0x8, addend: 0x0, symName: __RNvNtNtCs87DMVckFIdB_12serde_derive9internals4attr32is_implicitly_borrowed_reference, symObjAddr: 0x13A4C, symBinAddr: 0x30600, symSize: 0x88 }
  - { offset: 0x3380E, size: 0x8, addend: 0x0, symName: __RNvNtNtCs87DMVckFIdB_12serde_derive9internals4attr6is_cow, symObjAddr: 0x13AD4, symBinAddr: 0x30688, symSize: 0x26C }
  - { offset: 0x338E7, size: 0x8, addend: 0x0, symName: __RNvNtNtCs87DMVckFIdB_12serde_derive9internals4attr9is_option, symObjAddr: 0x13D40, symBinAddr: 0x308F4, symSize: 0x220 }
  - { offset: 0x339C1, size: 0x8, addend: 0x0, symName: __RNvNtNtCs87DMVckFIdB_12serde_derive9internals4attr12is_reference, symObjAddr: 0x13F60, symBinAddr: 0x30B14, symSize: 0x120 }
  - { offset: 0x33A14, size: 0x8, addend: 0x0, symName: __RNvNtNtCs87DMVckFIdB_12serde_derive9internals4attr6is_str, symObjAddr: 0x14080, symBinAddr: 0x30C34, symSize: 0x44 }
  - { offset: 0x33A42, size: 0x8, addend: 0x0, symName: __RNvNtNtCs87DMVckFIdB_12serde_derive9internals4attr11is_slice_u8, symObjAddr: 0x140C4, symBinAddr: 0x30C78, symSize: 0xF0 }
  - { offset: 0x33A86, size: 0x8, addend: 0x0, symName: __RNvNtNtCs87DMVckFIdB_12serde_derive9internals4attr17is_primitive_type, symObjAddr: 0x141B4, symBinAddr: 0x30D68, symSize: 0xE0 }
  - { offset: 0x33AD9, size: 0x8, addend: 0x0, symName: __RNvNtNtCs87DMVckFIdB_12serde_derive9internals4attr17is_primitive_path, symObjAddr: 0x14294, symBinAddr: 0x30E48, symSize: 0xFC }
  - { offset: 0x33B16, size: 0x8, addend: 0x0, symName: __RNvNtNtCs87DMVckFIdB_12serde_derive9internals4attr20borrowable_lifetimes, symObjAddr: 0x14390, symBinAddr: 0x30F44, symSize: 0x18C }
  - { offset: 0x33BD5, size: 0x8, addend: 0x0, symName: __RNvNtNtCs87DMVckFIdB_12serde_derive9internals4attr17collect_lifetimes, symObjAddr: 0x1451C, symBinAddr: 0x310D0, symSize: 0x7A8 }
  - { offset: 0x33DDE, size: 0x8, addend: 0x0, symName: __RNvNtNtCs87DMVckFIdB_12serde_derive9internals4attr29collect_lifetimes_from_tokens, symObjAddr: 0x14CC4, symBinAddr: 0x31878, symSize: 0x3C4 }
  - { offset: 0x33F6C, size: 0x8, addend: 0x0, symName: __RNvXsh_NtCsc29TF2YcYso_3syn5parseNCNvMs3_NtNtCs87DMVckFIdB_12serde_derive9internals4attrNtBD_9Container8from_asts_0NtB5_6Parser14___parse_scopedBH_, symObjAddr: 0x0, symBinAddr: 0x1CBB4, symSize: 0x354 }
  - { offset: 0x340B9, size: 0x8, addend: 0x0, symName: __RNvXsh_NtCsc29TF2YcYso_3syn5parseNCNvNtNtCs87DMVckFIdB_12serde_derive9internals4attr24parse_lit_into_lifetimes0NtB5_6Parser14___parse_scopedBD_, symObjAddr: 0x354, symBinAddr: 0x1CF08, symSize: 0x3B8 }
  - { offset: 0x3E6D9, size: 0x8, addend: 0x0, symName: __RNvMNtNtCs87DMVckFIdB_12serde_derive9internals4attrINtB2_4AttrINtNtCsiTraAjBDcu4_5alloc3vec3VecNtNtCsc29TF2YcYso_3syn8generics14WherePredicateEE4noneB6_, symObjAddr: 0x70C, symBinAddr: 0x1D2C0, symSize: 0x90 }
  - { offset: 0x3E7A3, size: 0x8, addend: 0x0, symName: __RNvMNtNtCs87DMVckFIdB_12serde_derive9internals4attrINtB2_4AttrINtNtNtNtCsiTraAjBDcu4_5alloc11collections5btree3set8BTreeSetNtNtCsc29TF2YcYso_3syn8lifetime8LifetimeEE4noneB6_, symObjAddr: 0x79C, symBinAddr: 0x1D350, symSize: 0x8C }
  - { offset: 0x3E7DC, size: 0x8, addend: 0x0, symName: __RNvMNtNtCs87DMVckFIdB_12serde_derive9internals4attrINtB2_4AttrNtB2_15BorrowAttributeE4noneB6_, symObjAddr: 0x828, symBinAddr: 0x1D3DC, symSize: 0x90 }
  - { offset: 0x3E815, size: 0x8, addend: 0x0, symName: __RNvMNtNtCs87DMVckFIdB_12serde_derive9internals4attrINtB2_4AttrNtB2_7DefaultE4noneB6_, symObjAddr: 0x8B8, symBinAddr: 0x1D46C, symSize: 0x98 }
  - { offset: 0x3E84E, size: 0x8, addend: 0x0, symName: __RNvMNtNtCs87DMVckFIdB_12serde_derive9internals4attrINtB2_4AttrNtNtB4_4case10RenameRuleE4noneB6_, symObjAddr: 0x950, symBinAddr: 0x1D504, symSize: 0x88 }
  - { offset: 0x3E887, size: 0x8, addend: 0x0, symName: __RNvMNtNtCs87DMVckFIdB_12serde_derive9internals4attrINtB2_4AttrNtNtB4_4name4NameE4noneB6_, symObjAddr: 0x9D8, symBinAddr: 0x1D58C, symSize: 0x90 }
  - { offset: 0x3E8C0, size: 0x8, addend: 0x0, symName: __RNvMNtNtCs87DMVckFIdB_12serde_derive9internals4attrINtB2_4AttrNtNtCsc29TF2YcYso_3syn2ty4TypeE4noneB6_, symObjAddr: 0xA68, symBinAddr: 0x1D61C, symSize: 0x98 }
  - { offset: 0x3E8F9, size: 0x8, addend: 0x0, symName: __RNvMNtNtCs87DMVckFIdB_12serde_derive9internals4attrINtB2_4AttrNtNtCsc29TF2YcYso_3syn4expr8ExprPathE4noneB6_, symObjAddr: 0xB00, symBinAddr: 0x1D6B4, symSize: 0x94 }
  - { offset: 0x3E932, size: 0x8, addend: 0x0, symName: __RNvMNtNtCs87DMVckFIdB_12serde_derive9internals4attrINtB2_4AttrNtNtCsc29TF2YcYso_3syn4path4PathE4noneB6_, symObjAddr: 0xB94, symBinAddr: 0x1D748, symSize: 0x94 }
  - { offset: 0x3E96B, size: 0x8, addend: 0x0, symName: __RNvMNtNtCs87DMVckFIdB_12serde_derive9internals4attrINtB2_4AttrNtNtCsiTraAjBDcu4_5alloc6string6StringE4noneB6_, symObjAddr: 0xC28, symBinAddr: 0x1D7DC, symSize: 0x90 }
  - { offset: 0x3E9A4, size: 0x8, addend: 0x0, symName: __RNvMNtNtCs87DMVckFIdB_12serde_derive9internals4attrINtB2_4AttruE4noneB6_, symObjAddr: 0xCB8, symBinAddr: 0x1D86C, symSize: 0x88 }
  - { offset: 0x3E9F7, size: 0x8, addend: 0x0, symName: __RINvMNtNtCs87DMVckFIdB_12serde_derive9internals4attrINtB3_4AttrINtNtCsiTraAjBDcu4_5alloc3vec3VecNtNtCsc29TF2YcYso_3syn8generics14WherePredicateEE3setRNtNtB1A_4path4PathEB7_, symObjAddr: 0xD40, symBinAddr: 0x1D8F4, symSize: 0x274 }
  - { offset: 0x3EAC4, size: 0x8, addend: 0x0, symName: __RINvMNtNtCs87DMVckFIdB_12serde_derive9internals4attrINtB3_4AttrINtNtNtNtCsiTraAjBDcu4_5alloc11collections5btree3set8BTreeSetNtNtCsc29TF2YcYso_3syn8lifetime8LifetimeEE3setRNtNtB22_4path4PathEB7_, symObjAddr: 0xFB4, symBinAddr: 0x1DB68, symSize: 0x27C }
  - { offset: 0x3EB91, size: 0x8, addend: 0x0, symName: __RINvMNtNtCs87DMVckFIdB_12serde_derive9internals4attrINtB3_4AttrNtB3_15BorrowAttributeE3setRNtNtCsc29TF2YcYso_3syn4path4PathEB7_, symObjAddr: 0x1230, symBinAddr: 0x1DDE4, symSize: 0x27C }
  - { offset: 0x3EC5E, size: 0x8, addend: 0x0, symName: __RINvMNtNtCs87DMVckFIdB_12serde_derive9internals4attrINtB3_4AttrNtB3_7DefaultE3setNtNtCsc29TF2YcYso_3syn4path4PathEB7_, symObjAddr: 0x14AC, symBinAddr: 0x1E060, symSize: 0x280 }
  - { offset: 0x3ED1F, size: 0x8, addend: 0x0, symName: __RINvMNtNtCs87DMVckFIdB_12serde_derive9internals4attrINtB3_4AttrNtB3_7DefaultE3setRNtNtCsc29TF2YcYso_3syn4path4PathEB7_, symObjAddr: 0x172C, symBinAddr: 0x1E2E0, symSize: 0x288 }
  - { offset: 0x3EDEC, size: 0x8, addend: 0x0, symName: __RINvMNtNtCs87DMVckFIdB_12serde_derive9internals4attrINtB3_4AttrNtNtB5_4case10RenameRuleE3setRNtNtCsc29TF2YcYso_3syn4path4PathEB7_, symObjAddr: 0x19B4, symBinAddr: 0x1E568, symSize: 0x214 }
  - { offset: 0x3EEB8, size: 0x8, addend: 0x0, symName: __RINvMNtNtCs87DMVckFIdB_12serde_derive9internals4attrINtB3_4AttrNtNtB5_4name4NameE3setRNtNtCsc29TF2YcYso_3syn4path4PathEB7_, symObjAddr: 0x1BC8, symBinAddr: 0x1E77C, symSize: 0x274 }
  - { offset: 0x3EF85, size: 0x8, addend: 0x0, symName: __RINvMNtNtCs87DMVckFIdB_12serde_derive9internals4attrINtB3_4AttrNtNtCsc29TF2YcYso_3syn2ty4TypeE3setRNtNtB13_4path4PathEB7_, symObjAddr: 0x1E3C, symBinAddr: 0x1E9F0, symSize: 0x27C }
  - { offset: 0x3F052, size: 0x8, addend: 0x0, symName: __RINvMNtNtCs87DMVckFIdB_12serde_derive9internals4attrINtB3_4AttrNtNtCsc29TF2YcYso_3syn4expr8ExprPathE3setRNtNtB13_4path4PathEB7_, symObjAddr: 0x20B8, symBinAddr: 0x1EC6C, symSize: 0x288 }
  - { offset: 0x3F11F, size: 0x8, addend: 0x0, symName: __RINvMNtNtCs87DMVckFIdB_12serde_derive9internals4attrINtB3_4AttrNtNtCsc29TF2YcYso_3syn4path4PathE3setRBZ_EB7_, symObjAddr: 0x2340, symBinAddr: 0x1EEF4, symSize: 0x288 }
  - { offset: 0x3F1EC, size: 0x8, addend: 0x0, symName: __RINvMNtNtCs87DMVckFIdB_12serde_derive9internals4attrINtB3_4AttrNtNtCsiTraAjBDcu4_5alloc6string6StringE3setRNtNtCsc29TF2YcYso_3syn4path4PathEB7_, symObjAddr: 0x25C8, symBinAddr: 0x1F17C, symSize: 0x274 }
  - { offset: 0x3F2B9, size: 0x8, addend: 0x0, symName: __RINvMNtNtCs87DMVckFIdB_12serde_derive9internals4attrINtB3_4AttruE3setNtNtCsc29TF2YcYso_3syn4path4PathEB7_, symObjAddr: 0x283C, symBinAddr: 0x1F3F0, symSize: 0x208 }
  - { offset: 0x3F378, size: 0x8, addend: 0x0, symName: __RINvMNtNtCs87DMVckFIdB_12serde_derive9internals4attrINtB3_4AttruE3setRNtNtCsc29TF2YcYso_3syn4path4PathEB7_, symObjAddr: 0x2A44, symBinAddr: 0x1F5F8, symSize: 0x210 }
  - { offset: 0x3F436, size: 0x8, addend: 0x0, symName: __RINvMNtNtCs87DMVckFIdB_12serde_derive9internals4attrINtB3_4AttrINtNtCsiTraAjBDcu4_5alloc3vec3VecNtNtCsc29TF2YcYso_3syn8generics14WherePredicateEE7set_optRNtNtB1A_4path4PathEB7_, symObjAddr: 0x2C54, symBinAddr: 0x1F808, symSize: 0x120 }
  - { offset: 0x3F49C, size: 0x8, addend: 0x0, symName: __RINvMNtNtCs87DMVckFIdB_12serde_derive9internals4attrINtB3_4AttrNtNtB5_4name4NameE7set_optRNtNtCsc29TF2YcYso_3syn4path4PathEB7_, symObjAddr: 0x2D74, symBinAddr: 0x1F928, symSize: 0x120 }
  - { offset: 0x3F502, size: 0x8, addend: 0x0, symName: __RINvMNtNtCs87DMVckFIdB_12serde_derive9internals4attrINtB3_4AttrNtNtCsc29TF2YcYso_3syn2ty4TypeE7set_optRNtNtB13_4path4PathEB7_, symObjAddr: 0x2E94, symBinAddr: 0x1FA48, symSize: 0x124 }
  - { offset: 0x3F568, size: 0x8, addend: 0x0, symName: __RNvMNtNtCs87DMVckFIdB_12serde_derive9internals4attrINtB2_4AttrNtB2_7DefaultE11set_if_noneB6_, symObjAddr: 0x2FB8, symBinAddr: 0x1FB6C, symSize: 0x150 }
  - { offset: 0x3F5A2, size: 0x8, addend: 0x0, symName: __RNvMNtNtCs87DMVckFIdB_12serde_derive9internals4attrINtB2_4AttrNtNtB4_4name4NameE11set_if_noneB6_, symObjAddr: 0x3108, symBinAddr: 0x1FCBC, symSize: 0x13C }
  - { offset: 0x3F5DC, size: 0x8, addend: 0x0, symName: __RNvMNtNtCs87DMVckFIdB_12serde_derive9internals4attrINtB2_4AttrNtNtCsc29TF2YcYso_3syn4expr8ExprPathE11set_if_noneB6_, symObjAddr: 0x3244, symBinAddr: 0x1FDF8, symSize: 0x150 }
  - { offset: 0x3F616, size: 0x8, addend: 0x0, symName: __RNvMNtNtCs87DMVckFIdB_12serde_derive9internals4attrINtB2_4AttrINtNtCsiTraAjBDcu4_5alloc3vec3VecNtNtCsc29TF2YcYso_3syn8generics14WherePredicateEE3getB6_, symObjAddr: 0x3394, symBinAddr: 0x1FF48, symSize: 0x38 }
  - { offset: 0x3F642, size: 0x8, addend: 0x0, symName: __RNvMNtNtCs87DMVckFIdB_12serde_derive9internals4attrINtB2_4AttrINtNtNtNtCsiTraAjBDcu4_5alloc11collections5btree3set8BTreeSetNtNtCsc29TF2YcYso_3syn8lifetime8LifetimeEE3getB6_, symObjAddr: 0x33CC, symBinAddr: 0x1FF80, symSize: 0x38 }
  - { offset: 0x3F66E, size: 0x8, addend: 0x0, symName: __RNvMNtNtCs87DMVckFIdB_12serde_derive9internals4attrINtB2_4AttrNtB2_15BorrowAttributeE3getB6_, symObjAddr: 0x3404, symBinAddr: 0x1FFB8, symSize: 0x50 }
  - { offset: 0x3F69A, size: 0x8, addend: 0x0, symName: __RNvMNtNtCs87DMVckFIdB_12serde_derive9internals4attrINtB2_4AttrNtB2_7DefaultE3getB6_, symObjAddr: 0x3454, symBinAddr: 0x20008, symSize: 0x50 }
  - { offset: 0x3F6C6, size: 0x8, addend: 0x0, symName: __RNvMNtNtCs87DMVckFIdB_12serde_derive9internals4attrINtB2_4AttrNtNtB4_4case10RenameRuleE3getB6_, symObjAddr: 0x34A4, symBinAddr: 0x20058, symSize: 0x38 }
  - { offset: 0x3F6F2, size: 0x8, addend: 0x0, symName: __RNvMNtNtCs87DMVckFIdB_12serde_derive9internals4attrINtB2_4AttrNtNtB4_4name4NameE3getB6_, symObjAddr: 0x34DC, symBinAddr: 0x20090, symSize: 0x34 }
  - { offset: 0x3F71E, size: 0x8, addend: 0x0, symName: __RNvMNtNtCs87DMVckFIdB_12serde_derive9internals4attrINtB2_4AttrNtNtCsc29TF2YcYso_3syn2ty4TypeE3getB6_, symObjAddr: 0x3510, symBinAddr: 0x200C4, symSize: 0x50 }
  - { offset: 0x3F74A, size: 0x8, addend: 0x0, symName: __RNvMNtNtCs87DMVckFIdB_12serde_derive9internals4attrINtB2_4AttrNtNtCsc29TF2YcYso_3syn4expr8ExprPathE3getB6_, symObjAddr: 0x3560, symBinAddr: 0x20114, symSize: 0x50 }
  - { offset: 0x3F776, size: 0x8, addend: 0x0, symName: __RNvMNtNtCs87DMVckFIdB_12serde_derive9internals4attrINtB2_4AttrNtNtCsc29TF2YcYso_3syn4path4PathE3getB6_, symObjAddr: 0x35B0, symBinAddr: 0x20164, symSize: 0x50 }
  - { offset: 0x3F7A2, size: 0x8, addend: 0x0, symName: __RNvMNtNtCs87DMVckFIdB_12serde_derive9internals4attrINtB2_4AttrNtNtCsiTraAjBDcu4_5alloc6string6StringE3getB6_, symObjAddr: 0x3600, symBinAddr: 0x201B4, symSize: 0x38 }
  - { offset: 0x3F7EC, size: 0x8, addend: 0x0, symName: __RNvMNtNtCs87DMVckFIdB_12serde_derive9internals4attrINtB2_4AttrNtNtCsiTraAjBDcu4_5alloc6string6StringE15get_with_tokensB6_, symObjAddr: 0x3638, symBinAddr: 0x201EC, symSize: 0xF0 }
  - { offset: 0x3F853, size: 0x8, addend: 0x0, symName: __RNvMNtNtCs87DMVckFIdB_12serde_derive9internals4attrINtB2_4AttruE15get_with_tokensB6_, symObjAddr: 0x3728, symBinAddr: 0x202DC, symSize: 0xC4 }
  - { offset: 0x3F89C, size: 0x8, addend: 0x0, symName: __RNvMs_NtNtCs87DMVckFIdB_12serde_derive9internals4attrNtB4_8BoolAttr4none, symObjAddr: 0x37EC, symBinAddr: 0x203A0, symSize: 0x60 }
  - { offset: 0x3F8D9, size: 0x8, addend: 0x0, symName: __RINvMs_NtNtCs87DMVckFIdB_12serde_derive9internals4attrNtB5_8BoolAttr8set_trueNtNtCsc29TF2YcYso_3syn4path4PathEB9_, symObjAddr: 0x384C, symBinAddr: 0x20400, symSize: 0x34 }
  - { offset: 0x3F913, size: 0x8, addend: 0x0, symName: __RINvMs_NtNtCs87DMVckFIdB_12serde_derive9internals4attrNtB5_8BoolAttr8set_trueRNtNtCsc29TF2YcYso_3syn4path4PathEB9_, symObjAddr: 0x3880, symBinAddr: 0x20434, symSize: 0x3C }
  - { offset: 0x3F959, size: 0x8, addend: 0x0, symName: __RNvMs_NtNtCs87DMVckFIdB_12serde_derive9internals4attrNtB4_8BoolAttr3get, symObjAddr: 0x38BC, symBinAddr: 0x20470, symSize: 0x34 }
  - { offset: 0x3F97B, size: 0x8, addend: 0x0, symName: __RNvMs0_NtNtCs87DMVckFIdB_12serde_derive9internals4attrINtB5_7VecAttrINtNtCsiTraAjBDcu4_5alloc3vec3VecNtNtCsc29TF2YcYso_3syn8generics14WherePredicateEE4noneB9_, symObjAddr: 0x38F0, symBinAddr: 0x204A4, symSize: 0xBC }
  - { offset: 0x3F9B4, size: 0x8, addend: 0x0, symName: __RNvMs0_NtNtCs87DMVckFIdB_12serde_derive9internals4attrINtB5_7VecAttrNtNtB7_4name4NameE4noneB9_, symObjAddr: 0x39AC, symBinAddr: 0x20560, symSize: 0xBC }
  - { offset: 0x3F9ED, size: 0x8, addend: 0x0, symName: __RNvMs0_NtNtCs87DMVckFIdB_12serde_derive9internals4attrINtB5_7VecAttrNtNtCsc29TF2YcYso_3syn3lit6LitStrE4noneB9_, symObjAddr: 0x3A68, symBinAddr: 0x2061C, symSize: 0xBC }
  - { offset: 0x3FA33, size: 0x8, addend: 0x0, symName: __RINvMs0_NtNtCs87DMVckFIdB_12serde_derive9internals4attrINtB6_7VecAttrINtNtCsiTraAjBDcu4_5alloc3vec3VecNtNtCsc29TF2YcYso_3syn8generics14WherePredicateEE6insertRNtNtB1G_4path4PathEBa_, symObjAddr: 0x3B24, symBinAddr: 0x206D8, symSize: 0x170 }
  - { offset: 0x3FA91, size: 0x8, addend: 0x0, symName: __RINvMs0_NtNtCs87DMVckFIdB_12serde_derive9internals4attrINtB6_7VecAttrNtNtB8_4name4NameE6insertRNtNtCsc29TF2YcYso_3syn4path4PathEBa_, symObjAddr: 0x3C94, symBinAddr: 0x20848, symSize: 0x170 }
  - { offset: 0x3FAEF, size: 0x8, addend: 0x0, symName: __RINvMs0_NtNtCs87DMVckFIdB_12serde_derive9internals4attrINtB6_7VecAttrNtNtCsc29TF2YcYso_3syn3lit6LitStrE6insertRNtNtB19_4path4PathEBa_, symObjAddr: 0x3E04, symBinAddr: 0x209B8, symSize: 0x15C }
  - { offset: 0x3FB3F, size: 0x8, addend: 0x0, symName: __RNvMs0_NtNtCs87DMVckFIdB_12serde_derive9internals4attrINtB5_7VecAttrINtNtCsiTraAjBDcu4_5alloc3vec3VecNtNtCsc29TF2YcYso_3syn8generics14WherePredicateEE11at_most_oneB9_, symObjAddr: 0x3F60, symBinAddr: 0x20B14, symSize: 0x1EC }
  - { offset: 0x3FBDA, size: 0x8, addend: 0x0, symName: __RNvMs0_NtNtCs87DMVckFIdB_12serde_derive9internals4attrINtB5_7VecAttrNtNtCsc29TF2YcYso_3syn3lit6LitStrE11at_most_oneB9_, symObjAddr: 0x414C, symBinAddr: 0x20D00, symSize: 0x1FC }
  - { offset: 0x3FC75, size: 0x8, addend: 0x0, symName: __RNvMs0_NtNtCs87DMVckFIdB_12serde_derive9internals4attrINtB5_7VecAttrNtNtB7_4name4NameE3getB9_, symObjAddr: 0x4348, symBinAddr: 0x20EFC, symSize: 0x3C }
  - { offset: 0x3FCA1, size: 0x8, addend: 0x0, symName: __RNvMs0_NtNtCs87DMVckFIdB_12serde_derive9internals4attrINtB5_7VecAttrNtNtCsc29TF2YcYso_3syn3lit6LitStrE3getB9_, symObjAddr: 0x4384, symBinAddr: 0x20F38, symSize: 0x3C }
  - { offset: 0x3FCCD, size: 0x8, addend: 0x0, symName: __RNvMs1_NtNtCs87DMVckFIdB_12serde_derive9internals4attrNtB5_14RenameAllRules2or, symObjAddr: 0x44A0, symBinAddr: 0x21054, symSize: 0x68 }
  - { offset: 0x3FD69, size: 0x8, addend: 0x0, symName: __RNvMs3_NtNtCs87DMVckFIdB_12serde_derive9internals4attrNtB5_9Container8from_ast, symObjAddr: 0x4508, symBinAddr: 0x210BC, symSize: 0x1618 }
  - { offset: 0x40081, size: 0x8, addend: 0x0, symName: __RNvMs3_NtNtCs87DMVckFIdB_12serde_derive9internals4attrNtB5_9Container4name, symObjAddr: 0x8AE8, symBinAddr: 0x2569C, symSize: 0x24 }
  - { offset: 0x400A4, size: 0x8, addend: 0x0, symName: __RNvMs3_NtNtCs87DMVckFIdB_12serde_derive9internals4attrNtB5_9Container16rename_all_rules, symObjAddr: 0x8B0C, symBinAddr: 0x256C0, symSize: 0x30 }
  - { offset: 0x400C7, size: 0x8, addend: 0x0, symName: __RNvMs3_NtNtCs87DMVckFIdB_12serde_derive9internals4attrNtB5_9Container23rename_all_fields_rules, symObjAddr: 0x8B3C, symBinAddr: 0x256F0, symSize: 0x30 }
  - { offset: 0x400EA, size: 0x8, addend: 0x0, symName: __RNvMs3_NtNtCs87DMVckFIdB_12serde_derive9internals4attrNtB5_9Container11transparent, symObjAddr: 0x8B6C, symBinAddr: 0x25720, symSize: 0x2C }
  - { offset: 0x4010D, size: 0x8, addend: 0x0, symName: __RNvMs3_NtNtCs87DMVckFIdB_12serde_derive9internals4attrNtB5_9Container19deny_unknown_fields, symObjAddr: 0x8B98, symBinAddr: 0x2574C, symSize: 0x2C }
  - { offset: 0x4013D, size: 0x8, addend: 0x0, symName: __RNvMs3_NtNtCs87DMVckFIdB_12serde_derive9internals4attrNtB5_9Container7default, symObjAddr: 0x8BC4, symBinAddr: 0x25778, symSize: 0x24 }
  - { offset: 0x40187, size: 0x8, addend: 0x0, symName: __RNvMs3_NtNtCs87DMVckFIdB_12serde_derive9internals4attrNtB5_9Container9ser_bound, symObjAddr: 0x8BE8, symBinAddr: 0x2579C, symSize: 0x38 }
  - { offset: 0x401AA, size: 0x8, addend: 0x0, symName: __RNvMs3_NtNtCs87DMVckFIdB_12serde_derive9internals4attrNtB5_9Container8de_bound, symObjAddr: 0x8C5C, symBinAddr: 0x25810, symSize: 0x38 }
  - { offset: 0x401DA, size: 0x8, addend: 0x0, symName: __RNvMs3_NtNtCs87DMVckFIdB_12serde_derive9internals4attrNtB5_9Container3tag, symObjAddr: 0x8CD0, symBinAddr: 0x25884, symSize: 0x24 }
  - { offset: 0x4020A, size: 0x8, addend: 0x0, symName: __RNvMs3_NtNtCs87DMVckFIdB_12serde_derive9internals4attrNtB5_9Container9type_from, symObjAddr: 0x8CF4, symBinAddr: 0x258A8, symSize: 0x34 }
  - { offset: 0x4022D, size: 0x8, addend: 0x0, symName: __RNvMs3_NtNtCs87DMVckFIdB_12serde_derive9internals4attrNtB5_9Container13type_try_from, symObjAddr: 0x8D28, symBinAddr: 0x258DC, symSize: 0x34 }
  - { offset: 0x40250, size: 0x8, addend: 0x0, symName: __RNvMs3_NtNtCs87DMVckFIdB_12serde_derive9internals4attrNtB5_9Container9type_into, symObjAddr: 0x8D5C, symBinAddr: 0x25910, symSize: 0x34 }
  - { offset: 0x40273, size: 0x8, addend: 0x0, symName: __RNvMs3_NtNtCs87DMVckFIdB_12serde_derive9internals4attrNtB5_9Container6remote, symObjAddr: 0x8D90, symBinAddr: 0x25944, symSize: 0x34 }
  - { offset: 0x40296, size: 0x8, addend: 0x0, symName: __RNvMs3_NtNtCs87DMVckFIdB_12serde_derive9internals4attrNtB5_9Container9is_packed, symObjAddr: 0x8DC4, symBinAddr: 0x25978, symSize: 0x2C }
  - { offset: 0x402B9, size: 0x8, addend: 0x0, symName: __RNvMs3_NtNtCs87DMVckFIdB_12serde_derive9internals4attrNtB5_9Container10identifier, symObjAddr: 0x8DF0, symBinAddr: 0x259A4, symSize: 0x28 }
  - { offset: 0x402DC, size: 0x8, addend: 0x0, symName: __RNvMs3_NtNtCs87DMVckFIdB_12serde_derive9internals4attrNtB5_9Container17custom_serde_path, symObjAddr: 0x8E18, symBinAddr: 0x259CC, symSize: 0x34 }
  - { offset: 0x402FF, size: 0x8, addend: 0x0, symName: __RNvMs3_NtNtCs87DMVckFIdB_12serde_derive9internals4attrNtB5_9Container9expecting, symObjAddr: 0x8E4C, symBinAddr: 0x25A00, symSize: 0x38 }
  - { offset: 0x40322, size: 0x8, addend: 0x0, symName: __RNvMs3_NtNtCs87DMVckFIdB_12serde_derive9internals4attrNtB5_9Container14non_exhaustive, symObjAddr: 0x8E84, symBinAddr: 0x25A38, symSize: 0x2C }
  - { offset: 0x40352, size: 0x8, addend: 0x0, symName: __RNvMs4_NtNtCs87DMVckFIdB_12serde_derive9internals4attrNtB5_7Variant8from_ast, symObjAddr: 0xA028, symBinAddr: 0x26BDC, symSize: 0xC50 }
  - { offset: 0x4052E, size: 0x8, addend: 0x0, symName: __RNvMs4_NtNtCs87DMVckFIdB_12serde_derive9internals4attrNtB5_7Variant4name, symObjAddr: 0xC6D8, symBinAddr: 0x2928C, symSize: 0x24 }
  - { offset: 0x4055E, size: 0x8, addend: 0x0, symName: __RNvMs4_NtNtCs87DMVckFIdB_12serde_derive9internals4attrNtB5_7Variant7aliases, symObjAddr: 0xC6FC, symBinAddr: 0x292B0, symSize: 0x34 }
  - { offset: 0x4058E, size: 0x8, addend: 0x0, symName: __RNvMs4_NtNtCs87DMVckFIdB_12serde_derive9internals4attrNtB5_7Variant15rename_by_rules, symObjAddr: 0xC730, symBinAddr: 0x292E4, symSize: 0x1B0 }
  - { offset: 0x405C0, size: 0x8, addend: 0x0, symName: __RNvMs4_NtNtCs87DMVckFIdB_12serde_derive9internals4attrNtB5_7Variant16rename_all_rules, symObjAddr: 0xC8E0, symBinAddr: 0x29494, symSize: 0x30 }
  - { offset: 0x405E3, size: 0x8, addend: 0x0, symName: __RNvMs4_NtNtCs87DMVckFIdB_12serde_derive9internals4attrNtB5_7Variant9ser_bound, symObjAddr: 0xC910, symBinAddr: 0x294C4, symSize: 0x38 }
  - { offset: 0x40606, size: 0x8, addend: 0x0, symName: __RNvMs4_NtNtCs87DMVckFIdB_12serde_derive9internals4attrNtB5_7Variant8de_bound, symObjAddr: 0xC984, symBinAddr: 0x29538, symSize: 0x38 }
  - { offset: 0x40629, size: 0x8, addend: 0x0, symName: __RNvMs4_NtNtCs87DMVckFIdB_12serde_derive9internals4attrNtB5_7Variant18skip_deserializing, symObjAddr: 0xC9F8, symBinAddr: 0x295AC, symSize: 0x2C }
  - { offset: 0x4064C, size: 0x8, addend: 0x0, symName: __RNvMs4_NtNtCs87DMVckFIdB_12serde_derive9internals4attrNtB5_7Variant16skip_serializing, symObjAddr: 0xCA24, symBinAddr: 0x295D8, symSize: 0x2C }
  - { offset: 0x4066F, size: 0x8, addend: 0x0, symName: __RNvMs4_NtNtCs87DMVckFIdB_12serde_derive9internals4attrNtB5_7Variant5other, symObjAddr: 0xCA50, symBinAddr: 0x29604, symSize: 0x2C }
  - { offset: 0x4069F, size: 0x8, addend: 0x0, symName: __RNvMs4_NtNtCs87DMVckFIdB_12serde_derive9internals4attrNtB5_7Variant14serialize_with, symObjAddr: 0xCA7C, symBinAddr: 0x29630, symSize: 0x34 }
  - { offset: 0x406C2, size: 0x8, addend: 0x0, symName: __RNvMs4_NtNtCs87DMVckFIdB_12serde_derive9internals4attrNtB5_7Variant16deserialize_with, symObjAddr: 0xCAB0, symBinAddr: 0x29664, symSize: 0x34 }
  - { offset: 0x406E5, size: 0x8, addend: 0x0, symName: __RNvMs4_NtNtCs87DMVckFIdB_12serde_derive9internals4attrNtB5_7Variant8untagged, symObjAddr: 0xCAE4, symBinAddr: 0x29698, symSize: 0x2C }
  - { offset: 0x40708, size: 0x8, addend: 0x0, symName: __RNvMs5_NtNtCs87DMVckFIdB_12serde_derive9internals4attrNtB5_7Default7is_none, symObjAddr: 0xCB10, symBinAddr: 0x296C4, symSize: 0x78 }
  - { offset: 0x40745, size: 0x8, addend: 0x0, symName: __RNvMs6_NtNtCs87DMVckFIdB_12serde_derive9internals4attrNtB5_5Field8from_ast, symObjAddr: 0xCB88, symBinAddr: 0x2973C, symSize: 0x187C }
  - { offset: 0x40B33, size: 0x8, addend: 0x0, symName: __RNvMs6_NtNtCs87DMVckFIdB_12serde_derive9internals4attrNtB5_5Field4name, symObjAddr: 0x1018C, symBinAddr: 0x2CD40, symSize: 0x24 }
  - { offset: 0x40B56, size: 0x8, addend: 0x0, symName: __RNvMs6_NtNtCs87DMVckFIdB_12serde_derive9internals4attrNtB5_5Field7aliases, symObjAddr: 0x101B0, symBinAddr: 0x2CD64, symSize: 0x34 }
  - { offset: 0x40B86, size: 0x8, addend: 0x0, symName: __RNvMs6_NtNtCs87DMVckFIdB_12serde_derive9internals4attrNtB5_5Field15rename_by_rules, symObjAddr: 0x101E4, symBinAddr: 0x2CD98, symSize: 0x1A8 }
  - { offset: 0x40BB8, size: 0x8, addend: 0x0, symName: __RNvMs6_NtNtCs87DMVckFIdB_12serde_derive9internals4attrNtB5_5Field16skip_serializing, symObjAddr: 0x1038C, symBinAddr: 0x2CF40, symSize: 0x2C }
  - { offset: 0x40BDB, size: 0x8, addend: 0x0, symName: __RNvMs6_NtNtCs87DMVckFIdB_12serde_derive9internals4attrNtB5_5Field18skip_deserializing, symObjAddr: 0x103B8, symBinAddr: 0x2CF6C, symSize: 0x2C }
  - { offset: 0x40BFE, size: 0x8, addend: 0x0, symName: __RNvMs6_NtNtCs87DMVckFIdB_12serde_derive9internals4attrNtB5_5Field19skip_serializing_if, symObjAddr: 0x103E4, symBinAddr: 0x2CF98, symSize: 0x34 }
  - { offset: 0x40C21, size: 0x8, addend: 0x0, symName: __RNvMs6_NtNtCs87DMVckFIdB_12serde_derive9internals4attrNtB5_5Field7default, symObjAddr: 0x10418, symBinAddr: 0x2CFCC, symSize: 0x24 }
  - { offset: 0x40C44, size: 0x8, addend: 0x0, symName: __RNvMs6_NtNtCs87DMVckFIdB_12serde_derive9internals4attrNtB5_5Field14serialize_with, symObjAddr: 0x1043C, symBinAddr: 0x2CFF0, symSize: 0x34 }
  - { offset: 0x40C67, size: 0x8, addend: 0x0, symName: __RNvMs6_NtNtCs87DMVckFIdB_12serde_derive9internals4attrNtB5_5Field16deserialize_with, symObjAddr: 0x10470, symBinAddr: 0x2D024, symSize: 0x34 }
  - { offset: 0x40C8A, size: 0x8, addend: 0x0, symName: __RNvMs6_NtNtCs87DMVckFIdB_12serde_derive9internals4attrNtB5_5Field9ser_bound, symObjAddr: 0x104A4, symBinAddr: 0x2D058, symSize: 0x38 }
  - { offset: 0x40CAD, size: 0x8, addend: 0x0, symName: __RNvMs6_NtNtCs87DMVckFIdB_12serde_derive9internals4attrNtB5_5Field8de_bound, symObjAddr: 0x10518, symBinAddr: 0x2D0CC, symSize: 0x38 }
  - { offset: 0x40CDD, size: 0x8, addend: 0x0, symName: __RNvMs6_NtNtCs87DMVckFIdB_12serde_derive9internals4attrNtB5_5Field18borrowed_lifetimes, symObjAddr: 0x1058C, symBinAddr: 0x2D140, symSize: 0x24 }
  - { offset: 0x40D00, size: 0x8, addend: 0x0, symName: __RNvMs6_NtNtCs87DMVckFIdB_12serde_derive9internals4attrNtB5_5Field6getter, symObjAddr: 0x105B0, symBinAddr: 0x2D164, symSize: 0x34 }
  - { offset: 0x40D23, size: 0x8, addend: 0x0, symName: __RNvMs6_NtNtCs87DMVckFIdB_12serde_derive9internals4attrNtB5_5Field7flatten, symObjAddr: 0x105E4, symBinAddr: 0x2D198, symSize: 0x2C }
  - { offset: 0x40D46, size: 0x8, addend: 0x0, symName: __RNvMs6_NtNtCs87DMVckFIdB_12serde_derive9internals4attrNtB5_5Field11transparent, symObjAddr: 0x10610, symBinAddr: 0x2D1C4, symSize: 0x2C }
  - { offset: 0x40D69, size: 0x8, addend: 0x0, symName: __RNvMs6_NtNtCs87DMVckFIdB_12serde_derive9internals4attrNtB5_5Field16mark_transparent, symObjAddr: 0x1063C, symBinAddr: 0x2D1F0, symSize: 0x2C }
  - { offset: 0x4134B, size: 0x8, addend: 0x0, symName: __RINvXs2V_NtNtCsaNl6UpbT7bw_4core5slice4iterINtB7_4IterNtNtCs87DMVckFIdB_12serde_derive2de16FieldWithAliasesENtNtNtNtBb_4iter6traits8iterator8Iterator4folduNCINvNtNtB1O_8adapters3map8map_foldRBQ_RNtCshnvkK9b4wzu_11proc_macro25IdentuNCNvNtBS_10identifier21deserialize_generated0NCINvNvB1I_8for_each4callB36_NCINvMsi_NtCsiTraAjBDcu4_5alloc3vecINtB52_3VecB36_E14extend_trustedINtB2y_3MapBF_B3H_EE0E0E0EBU_, symObjAddr: 0x0, symBinAddr: 0x31C3C, symSize: 0x1B8 }
  - { offset: 0x48B1C, size: 0x8, addend: 0x0, symName: __RINvXs2V_NtNtCsaNl6UpbT7bw_4core5slice4iterINtB7_4IterNtNtCs87DMVckFIdB_12serde_derive2de16FieldWithAliasesENtNtNtNtBb_4iter6traits8iterator8Iterator4folduNCINvNtNtB1O_8adapters3map8map_foldRBQ_RNtCshnvkK9b4wzu_11proc_macro25IdentuNCNvNtBS_10identifier21deserialize_generated0NCINvNvB1I_8for_each4callB36_NCINvMsi_NtCsiTraAjBDcu4_5alloc3vecINtB52_3VecB36_E14extend_trustedINtB2y_3MapBF_B3H_EE0E0E0EBU_, symObjAddr: 0x0, symBinAddr: 0x31C3C, symSize: 0x1B8 }
  - { offset: 0x48C71, size: 0x8, addend: 0x0, symName: __RINvXs2V_NtNtCsaNl6UpbT7bw_4core5slice4iterINtB7_4IterNtNtNtCs87DMVckFIdB_12serde_derive9internals3ast5FieldENtNtNtNtBb_4iter6traits8iterator8Iterator3allNCNvNtNtBW_2de7struct_15deserialize_maps3_0EBW_, symObjAddr: 0x1B8, symBinAddr: 0x31DF4, symSize: 0xAC }
  - { offset: 0x48CD6, size: 0x8, addend: 0x0, symName: __RINvXs2V_NtNtCsaNl6UpbT7bw_4core5slice4iterINtB7_4IterNtNtNtCs87DMVckFIdB_12serde_derive9internals3ast5FieldENtNtNtNtBb_4iter6traits8iterator8Iterator3anyNCNvNtBW_2de11has_flatten0EBW_, symObjAddr: 0x264, symBinAddr: 0x31EA0, symSize: 0xAC }
  - { offset: 0x48D3B, size: 0x8, addend: 0x0, symName: __RINvXs2V_NtNtCsaNl6UpbT7bw_4core5slice4iterINtB7_4IterNtNtNtCs87DMVckFIdB_12serde_derive9internals3ast5FieldENtNtNtNtBb_4iter6traits8iterator8Iterator3anyNCNvNtBW_3ser16serialize_struct0EBW_, symObjAddr: 0x310, symBinAddr: 0x31F4C, symSize: 0xAC }
  - { offset: 0x48DA0, size: 0x8, addend: 0x0, symName: __RINvXs2V_NtNtCsaNl6UpbT7bw_4core5slice4iterINtB7_4IterNtNtNtCs87DMVckFIdB_12serde_derive9internals3ast5FieldENtNtNtNtBb_4iter6traits8iterator8Iterator3anyNCNvNtBW_3ser24serialize_struct_variant0EBW_, symObjAddr: 0x3BC, symBinAddr: 0x31FF8, symSize: 0xAC }
  - { offset: 0x48E05, size: 0x8, addend: 0x0, symName: __RINvXs2V_NtNtCsaNl6UpbT7bw_4core5slice4iterINtB7_4IterNtNtNtCs87DMVckFIdB_12serde_derive9internals3ast5FieldENtNtNtNtBb_4iter6traits8iterator8Iterator4findNCNvNtBW_2de23deserialize_transparent0EBW_, symObjAddr: 0x468, symBinAddr: 0x320A4, symSize: 0xAC }
  - { offset: 0x48E6A, size: 0x8, addend: 0x0, symName: __RINvXs2V_NtNtCsaNl6UpbT7bw_4core5slice4iterINtB7_4IterNtNtNtCs87DMVckFIdB_12serde_derive9internals3ast5FieldENtNtNtNtBb_4iter6traits8iterator8Iterator4findNCNvNtBW_3ser21serialize_transparent0EBW_, symObjAddr: 0x514, symBinAddr: 0x32150, symSize: 0xAC }
  - { offset: 0x48ECF, size: 0x8, addend: 0x0, symName: __RINvXs2V_NtNtCsaNl6UpbT7bw_4core5slice4iterINtB7_4IterNtNtNtCs87DMVckFIdB_12serde_derive9internals3ast5FieldENtNtNtNtBb_4iter6traits8iterator8Iterator4findQNCNvNtBW_3ser23serialize_struct_as_map0EBW_, symObjAddr: 0x5C0, symBinAddr: 0x321FC, symSize: 0xB0 }
  - { offset: 0x48F34, size: 0x8, addend: 0x0, symName: __RINvXs2V_NtNtCsaNl6UpbT7bw_4core5slice4iterINtB7_4IterNtNtNtCs87DMVckFIdB_12serde_derive9internals3ast5FieldENtNtNtNtBb_4iter6traits8iterator8Iterator4findQNCNvNtBW_3ser24serialize_struct_variants_0EBW_, symObjAddr: 0x670, symBinAddr: 0x322AC, symSize: 0xB0 }
  - { offset: 0x48F99, size: 0x8, addend: 0x0, symName: __RINvXs2V_NtNtCsaNl6UpbT7bw_4core5slice4iterINtB7_4IterNtNtNtCs87DMVckFIdB_12serde_derive9internals3ast5FieldENtNtNtNtBb_4iter6traits8iterator8Iterator4findQNCNvNtBW_3ser24serialize_struct_visitor0EBW_, symObjAddr: 0x720, symBinAddr: 0x3235C, symSize: 0xB0 }
  - { offset: 0x48FFE, size: 0x8, addend: 0x0, symName: __RINvXs2V_NtNtCsaNl6UpbT7bw_4core5slice4iterINtB7_4IterNtNtNtCs87DMVckFIdB_12serde_derive9internals3ast5FieldENtNtNtNtBb_4iter6traits8iterator8Iterator4findQNCNvNtBW_3ser26serialize_struct_as_struct0EBW_, symObjAddr: 0x7D0, symBinAddr: 0x3240C, symSize: 0xB0 }
  - { offset: 0x49063, size: 0x8, addend: 0x0, symName: __RINvXs2V_NtNtCsaNl6UpbT7bw_4core5slice4iterINtB7_4IterNtNtNtCs87DMVckFIdB_12serde_derive9internals3ast5FieldENtNtNtNtBb_4iter6traits8iterator8Iterator4findQNCNvNtBW_3ser37serialize_struct_variant_with_flatten0EBW_, symObjAddr: 0x880, symBinAddr: 0x324BC, symSize: 0xB0 }
  - { offset: 0x490C8, size: 0x8, addend: 0x0, symName: __RINvXs2V_NtNtCsaNl6UpbT7bw_4core5slice4iterINtB7_4IterNtNtNtCs87DMVckFIdB_12serde_derive9internals3ast5FieldENtNtNtNtBb_4iter6traits8iterator8Iterator4findQNCNvNtBW_5bound10with_bounds0_0EBW_, symObjAddr: 0x930, symBinAddr: 0x3256C, symSize: 0xB0 }
  - { offset: 0x4912D, size: 0x8, addend: 0x0, symName: __RINvXs2V_NtNtCsaNl6UpbT7bw_4core5slice4iterINtB7_4IterNtNtNtCs87DMVckFIdB_12serde_derive9internals3ast5FieldENtNtNtNtBb_4iter6traits8iterator8Iterator4findQNCNvNtBW_5bound10with_bounds_0EBW_, symObjAddr: 0x9E0, symBinAddr: 0x3261C, symSize: 0xB0 }
  - { offset: 0x49192, size: 0x8, addend: 0x0, symName: __RINvXs2V_NtNtCsaNl6UpbT7bw_4core5slice4iterINtB7_4IterNtNtNtCs87DMVckFIdB_12serde_derive9internals3ast5FieldENtNtNtNtBb_4iter6traits8iterator8Iterator4foldNtCshnvkK9b4wzu_11proc_macro211TokenStreamNCINvNtNtB1P_8adapters6filter11filter_foldRBQ_B2t_NCNvNtBW_3ser24serialize_struct_variants_0NCINvNtB3g_3map8map_foldB3P_B2t_B2t_NCB3Z_s0_0NCB3Z_s1_0E0E0EBW_, symObjAddr: 0xA90, symBinAddr: 0x326CC, symSize: 0x234 }
  - { offset: 0x492ED, size: 0x8, addend: 0x0, symName: __RINvXs2V_NtNtCsaNl6UpbT7bw_4core5slice4iterINtB7_4IterNtNtNtCs87DMVckFIdB_12serde_derive9internals3ast5FieldENtNtNtNtBb_4iter6traits8iterator8Iterator4foldNtCshnvkK9b4wzu_11proc_macro211TokenStreamNCINvNtNtB1P_8adapters6filter11filter_foldRBQ_B2t_NCNvNtBW_3ser26serialize_struct_as_struct0NCINvNtB3g_3map8map_foldB3P_B2t_B2t_NCB3Z_s_0NCB3Z_s0_0E0E0EBW_, symObjAddr: 0xCC4, symBinAddr: 0x32900, symSize: 0x244 }
  - { offset: 0x49448, size: 0x8, addend: 0x0, symName: __RINvXs2V_NtNtCsaNl6UpbT7bw_4core5slice4iterINtB7_4IterNtNtNtCs87DMVckFIdB_12serde_derive9internals3ast5FieldENtNtNtNtBb_4iter6traits8iterator8Iterator4foldNtCshnvkK9b4wzu_11proc_macro211TokenStreamNCINvNvXs_NtNtB1P_8adapters9enumerateINtB3j_9EnumeratepEB1J_4fold9enumerateRBQ_B2t_NCINvNtB3l_6filter11filter_foldTjB4m_EB2t_NCNvNtBW_3ser22serialize_tuple_struct0NCINvNtB3l_3map8map_foldB4Z_B2t_B2t_NCB5c_s_0NCB5c_s0_0E0E0E0EBW_, symObjAddr: 0xF08, symBinAddr: 0x32B44, symSize: 0x23C }
  - { offset: 0x495A3, size: 0x8, addend: 0x0, symName: __RINvXs2V_NtNtCsaNl6UpbT7bw_4core5slice4iterINtB7_4IterNtNtNtCs87DMVckFIdB_12serde_derive9internals3ast5FieldENtNtNtNtBb_4iter6traits8iterator8Iterator4foldNtCshnvkK9b4wzu_11proc_macro211TokenStreamNCINvNvXs_NtNtB1P_8adapters9enumerateINtB3j_9EnumeratepEB1J_4fold9enumerateRBQ_B2t_NCINvNtB3l_6filter11filter_foldTjB4m_EB2t_NCNvNtBW_3ser23serialize_tuple_variant0NCINvNtB3l_3map8map_foldB4Z_B2t_B2t_NCB5c_s_0NCB5c_s0_0E0E0E0EBW_, symObjAddr: 0x1144, symBinAddr: 0x32D80, symSize: 0x244 }
  - { offset: 0x496FE, size: 0x8, addend: 0x0, symName: __RINvXs2V_NtNtCsaNl6UpbT7bw_4core5slice4iterINtB7_4IterNtNtNtCs87DMVckFIdB_12serde_derive9internals3ast5FieldENtNtNtNtBb_4iter6traits8iterator8Iterator4foldjNCINvNtNtB1P_8adapters3map8map_foldRBQ_jjNCINvNvXs1_NtB2B_6filterINtB3k_6FilterppEB1J_5count8to_usizeB33_NCNvNtBW_2de15deserialize_seq0E0NCINvXsK_NtB1N_5accumjNtB4Q_3Sum3sumINtB2z_3MapBF_B39_EE0E0EBW_, symObjAddr: 0x1388, symBinAddr: 0x32FC4, symSize: 0x1C4 }
  - { offset: 0x49857, size: 0x8, addend: 0x0, symName: __RINvXs2V_NtNtCsaNl6UpbT7bw_4core5slice4iterINtB7_4IterNtNtNtCs87DMVckFIdB_12serde_derive9internals3ast5FieldENtNtNtNtBb_4iter6traits8iterator8Iterator4foldjNCINvNtNtB1P_8adapters3map8map_foldRBQ_jjNCINvNvXs1_NtB2B_6filterINtB3k_6FilterppEB1J_5count8to_usizeB33_NCNvNtNtBW_2de5tuple11deserialize0E0NCINvXsK_NtB1N_5accumjNtB4U_3Sum3sumINtB2z_3MapBF_B39_EE0E0EBW_, symObjAddr: 0x154C, symBinAddr: 0x33188, symSize: 0x1C4 }
  - { offset: 0x499B0, size: 0x8, addend: 0x0, symName: __RINvXs2V_NtNtCsaNl6UpbT7bw_4core5slice4iterINtB7_4IterNtNtNtCs87DMVckFIdB_12serde_derive9internals3ast5FieldENtNtNtNtBb_4iter6traits8iterator8Iterator4folduNCINvNtNtB1P_8adapters3map8map_foldRBQ_NtCshnvkK9b4wzu_11proc_macro211TokenStreamuNCNvNtBW_3ser27wrap_serialize_variant_withs_0NCINvNvB1J_8for_each4callB37_NCINvMsi_NtCsiTraAjBDcu4_5alloc3vecINtB59_3VecB37_E14extend_trustedINtB2z_3MapBF_B3O_EE0E0E0EBW_, symObjAddr: 0x1710, symBinAddr: 0x3334C, symSize: 0x1C0 }
  - { offset: 0x49B05, size: 0x8, addend: 0x0, symName: __RINvXs2V_NtNtCsaNl6UpbT7bw_4core5slice4iterINtB7_4IterNtNtNtCs87DMVckFIdB_12serde_derive9internals3ast5FieldENtNtNtNtBb_4iter6traits8iterator8Iterator4folduNCINvNtNtB1P_8adapters3map8map_foldRBQ_NtNtCsc29TF2YcYso_3syn4expr6MemberuNCNvNtBW_3ser35serialize_adjacently_tagged_variants0_0NCINvNvB1J_8for_each4callB37_NCINvMsi_NtCsiTraAjBDcu4_5alloc3vecINtB5a_3VecB37_E14extend_trustedINtB2z_3MapBF_B3G_EE0E0E0EBW_, symObjAddr: 0x18D0, symBinAddr: 0x3350C, symSize: 0x1C0 }
  - { offset: 0x49C5A, size: 0x8, addend: 0x0, symName: __RINvXs2V_NtNtCsaNl6UpbT7bw_4core5slice4iterINtB7_4IterNtNtNtCs87DMVckFIdB_12serde_derive9internals3ast5FieldENtNtNtNtBb_4iter6traits8iterator8Iterator4folduNCINvNtNtB1P_8adapters3map8map_foldRBQ_RNtNtCsc29TF2YcYso_3syn2ty4TypeuNCNvNtBW_3ser27wrap_serialize_variant_with0NCINvNvB1J_8for_each4callB37_NCINvMsi_NtCsiTraAjBDcu4_5alloc3vecINtB4W_3VecB37_E14extend_trustedINtB2z_3MapBF_B3D_EE0E0E0EBW_, symObjAddr: 0x1A90, symBinAddr: 0x336CC, symSize: 0x1C0 }
  - { offset: 0x49DAF, size: 0x8, addend: 0x0, symName: __RINvXs2V_NtNtCsaNl6UpbT7bw_4core5slice4iterINtB7_4IterNtNtNtCs87DMVckFIdB_12serde_derive9internals3ast5FieldENtNtNtNtBb_4iter6traits8iterator8Iterator4folduNCINvNtNtB1P_8adapters3map8map_foldRBQ_RNtNtCsc29TF2YcYso_3syn4expr6MemberuNCNvNtBW_3ser37serialize_struct_variant_with_flattens0_0NCINvNvB1J_8for_each4callB37_NCINvMsi_NtCsiTraAjBDcu4_5alloc3vecINtB5d_3VecB37_E14extend_trustedINtB2z_3MapBF_B3H_EE0E0E0EBW_, symObjAddr: 0x1C50, symBinAddr: 0x3388C, symSize: 0x1C0 }
  - { offset: 0x49F04, size: 0x8, addend: 0x0, symName: __RINvXs2V_NtNtCsaNl6UpbT7bw_4core5slice4iterINtB7_4IterNtNtNtCs87DMVckFIdB_12serde_derive9internals3ast5FieldENtNtNtNtBb_4iter6traits8iterator8Iterator4folduNCINvNtNtB1P_8adapters3map8map_foldRBQ_RNtNtCsc29TF2YcYso_3syn4expr6MemberuNCNvNtBW_7pretend33pretend_fields_used_struct_packed0NCINvNvB1J_8for_each4callB37_NCINvMsi_NtCsiTraAjBDcu4_5alloc3vecINtB5a_3VecB37_E14extend_trustedINtB2z_3MapBF_B3H_EE0E0E0EBW_, symObjAddr: 0x1E10, symBinAddr: 0x33A4C, symSize: 0x1C0 }
  - { offset: 0x4A059, size: 0x8, addend: 0x0, symName: __RINvXs2V_NtNtCsaNl6UpbT7bw_4core5slice4iterINtB7_4IterNtNtNtCs87DMVckFIdB_12serde_derive9internals3ast5FieldENtNtNtNtBb_4iter6traits8iterator8Iterator4folduNCINvNvXs_NtNtB1P_8adapters9enumerateINtB2E_9EnumeratepEB1J_4fold9enumerateRBQ_uNCINvNtB2G_3map8map_foldTjB3H_ETB3H_NtCshnvkK9b4wzu_11proc_macro25IdentEuNCNvNtNtBW_2de7struct_15deserialize_map0NCINvNvB1J_8for_each4callB4h_NCINvMsi_NtCsiTraAjBDcu4_5alloc3vecINtB6d_3VecB4h_E14extend_trustedINtB3R_3MapIB36_BF_EB4X_EE0E0E0E0EBW_, symObjAddr: 0x1FD0, symBinAddr: 0x33C0C, symSize: 0x1C0 }
  - { offset: 0x4A1AE, size: 0x8, addend: 0x0, symName: __RINvXs2V_NtNtCsaNl6UpbT7bw_4core5slice4iterINtB7_4IterNtNtNtCs87DMVckFIdB_12serde_derive9internals3ast7VariantENtNtNtNtBb_4iter6traits8iterator8Iterator3allNCNvNtNtBW_2de15enum_externally11deserializes0_0EBW_, symObjAddr: 0x2190, symBinAddr: 0x33DCC, symSize: 0xAC }
  - { offset: 0x4A213, size: 0x8, addend: 0x0, symName: __RINvXs2V_NtNtCsaNl6UpbT7bw_4core5slice4iterINtB7_4IterNtNtNtCs87DMVckFIdB_12serde_derive9internals3ast7VariantENtNtNtNtBb_4iter6traits8iterator8Iterator4findQNCNvNtNtBW_2de13enum_untagged11deserialize0EBW_, symObjAddr: 0x223C, symBinAddr: 0x33E78, symSize: 0xB0 }
  - { offset: 0x4A278, size: 0x8, addend: 0x0, symName: __RINvXs2V_NtNtCsaNl6UpbT7bw_4core5slice4iterINtB7_4IterNtNtNtCs87DMVckFIdB_12serde_derive9internals3ast7VariantENtNtNtNtBb_4iter6traits8iterator8Iterator4folduNCINvNtNtB1R_8adapters3map8map_foldRBQ_NtNtBW_2de16FieldWithAliasesuNCNvNtB3b_10identifier18deserialize_customs_0NCINvNvB1L_8for_each4callB39_NCINvMsi_NtCsiTraAjBDcu4_5alloc3vecINtB4X_3VecB39_E14extend_trustedINtB2B_3MapBF_B3C_EE0E0E0EBW_, symObjAddr: 0x22EC, symBinAddr: 0x33F28, symSize: 0x1C0 }
  - { offset: 0x4A3CD, size: 0x8, addend: 0x0, symName: __RINvXs2V_NtNtCsaNl6UpbT7bw_4core5slice4iterINtB7_4IterNtNtNtCs87DMVckFIdB_12serde_derive9internals3ast7VariantENtNtNtNtBb_4iter6traits8iterator8Iterator4folduNCINvNvXs_NtNtB1R_8adapters9enumerateINtB2G_9EnumeratepEB1L_4fold9enumerateRBQ_uNCINvNtB2I_3map8map_foldTjB3J_ENtCshnvkK9b4wzu_11proc_macro211TokenStreamuNCNvNtBW_3ser14serialize_enum0NCINvNvB1L_8for_each4callB4j_NCINvMsi_NtCsiTraAjBDcu4_5alloc3vecINtB66_3VecB4j_E14extend_trustedINtB3T_3MapIB38_BF_EB50_EE0E0E0E0EBW_, symObjAddr: 0x24AC, symBinAddr: 0x340E8, symSize: 0x1C0 }
  - { offset: 0x4A522, size: 0x8, addend: 0x0, symName: __RINvXs2V_NtNtCsaNl6UpbT7bw_4core5slice4iterINtB7_4IterNtNtNtCs87DMVckFIdB_12serde_derive9internals3ast7VariantENtNtNtNtBb_4iter6traits8iterator8Iterator8find_mapNtCshnvkK9b4wzu_11proc_macro211TokenStreamQNCNvNtBW_7pretend24pretend_fields_used_enum0EBW_, symObjAddr: 0x266C, symBinAddr: 0x342A8, symSize: 0xE8 }
  - { offset: 0x4A5A6, size: 0x8, addend: 0x0, symName: __RINvXs2V_NtNtCsaNl6UpbT7bw_4core5slice4iterINtB7_4IterNtNtNtCs87DMVckFIdB_12serde_derive9internals3ast7VariantENtNtNtNtBb_4iter6traits8iterator8Iterator8find_mapRSNtNtCsc29TF2YcYso_3syn8generics14WherePredicateQNCNvNtBW_5bound35with_where_predicates_from_variants0EBW_, symObjAddr: 0x2754, symBinAddr: 0x34390, symSize: 0xE0 }
  - { offset: 0x4A62A, size: 0x8, addend: 0x0, symName: __RINvXs2V_NtNtCsaNl6UpbT7bw_4core5slice4iterINtB7_4IterNtNtNtCs87DMVckFIdB_12serde_derive9internals3ast7VariantENtNtNtNtBb_4iter6traits8iterator8Iterator8positionNCNvNtNtBW_2de5enum_11deserialize0EBW_, symObjAddr: 0x2834, symBinAddr: 0x34470, symSize: 0x184 }
  - { offset: 0x4A6E8, size: 0x8, addend: 0x0, symName: __RINvXs2V_NtNtCsaNl6UpbT7bw_4core5slice4iterINtB7_4IterNtNtNtCs87DMVckFIdB_12serde_derive9internals3ast7VariantENtNtNtNtBb_4iter6traits8iterator8Iterator9rpositionNCNvBS_13enum_from_asts_0EBW_, symObjAddr: 0x29B8, symBinAddr: 0x345F4, symSize: 0x164 }
  - { offset: 0x4A7AD, size: 0x8, addend: 0x0, symName: __RINvXs2V_NtNtCsaNl6UpbT7bw_4core5slice4iterINtB7_4IterTRNtNtNtCs87DMVckFIdB_12serde_derive9internals3ast5FieldNtCshnvkK9b4wzu_11proc_macro25IdentEENtNtNtNtBb_4iter6traits8iterator8Iterator4findQNCNvNtNtBY_2de7struct_15deserialize_maps1_0EBY_, symObjAddr: 0x2B1C, symBinAddr: 0x34758, symSize: 0xB0 }
  - { offset: 0x4A812, size: 0x8, addend: 0x0, symName: __RINvXs2V_NtNtCsaNl6UpbT7bw_4core5slice4iterINtB7_4IterTRNtNtNtCs87DMVckFIdB_12serde_derive9internals3ast5FieldNtCshnvkK9b4wzu_11proc_macro25IdentEENtNtNtNtBb_4iter6traits8iterator8Iterator4findQNCNvNtNtBY_2de7struct_15deserialize_maps4_0EBY_, symObjAddr: 0x2BCC, symBinAddr: 0x34808, symSize: 0xB0 }
  - { offset: 0x4A877, size: 0x8, addend: 0x0, symName: __RINvXs2V_NtNtCsaNl6UpbT7bw_4core5slice4iterINtB7_4IterTRNtNtNtCs87DMVckFIdB_12serde_derive9internals3ast5FieldNtCshnvkK9b4wzu_11proc_macro25IdentEENtNtNtNtBb_4iter6traits8iterator8Iterator4findQNCNvNtNtBY_2de7struct_15deserialize_maps6_0EBY_, symObjAddr: 0x2C7C, symBinAddr: 0x348B8, symSize: 0xB0 }
  - { offset: 0x4A8DC, size: 0x8, addend: 0x0, symName: __RINvXs2V_NtNtCsaNl6UpbT7bw_4core5slice4iterINtB7_4IterTRNtNtNtCs87DMVckFIdB_12serde_derive9internals3ast5FieldNtCshnvkK9b4wzu_11proc_macro25IdentEENtNtNtNtBb_4iter6traits8iterator8Iterator4findQNCNvNtNtBY_2de7struct_15deserialize_maps_0EBY_, symObjAddr: 0x2D2C, symBinAddr: 0x34968, symSize: 0xB0 }
  - { offset: 0x4A941, size: 0x8, addend: 0x0, symName: __RINvXs2V_NtNtCsaNl6UpbT7bw_4core5slice4iterINtB7_4IterhENtNtNtNtBb_4iter6traits8iterator8Iterator4folduNCINvNtNtBY_8adapters3map8map_foldRhhuNCNvNtCsiTraAjBDcu4_5alloc3str13replace_ascii0NCINvNvBS_8for_each4callhNCINvMsi_NtB2l_3vecINtB3x_3VechE14extend_trustedINtB1I_3MapBF_B2f_EE0E0E0ECs87DMVckFIdB_12serde_derive, symObjAddr: 0x2DDC, symBinAddr: 0x34A18, symSize: 0x1B8 }
  - { offset: 0x4AA96, size: 0x8, addend: 0x0, symName: __RNvXs2V_NtNtCsaNl6UpbT7bw_4core5slice4iterINtB6_4IterNtCshnvkK9b4wzu_11proc_macro211TokenStreamENtNtNtNtBa_4iter6traits8iterator8Iterator4nextCs87DMVckFIdB_12serde_derive, symObjAddr: 0x4DA0, symBinAddr: 0x369DC, symSize: 0xB0 }
  - { offset: 0x4ABD0, size: 0x8, addend: 0x0, symName: __RNvXs2V_NtNtCsaNl6UpbT7bw_4core5slice4iterINtB6_4IterNtCshnvkK9b4wzu_11proc_macro25IdentENtNtNtNtBa_4iter6traits8iterator8Iterator4nextCs87DMVckFIdB_12serde_derive, symObjAddr: 0x4E50, symBinAddr: 0x36A8C, symSize: 0xB0 }
  - { offset: 0x4AD0A, size: 0x8, addend: 0x0, symName: __RNvXs2V_NtNtCsaNl6UpbT7bw_4core5slice4iterINtB6_4IterNtNtCs87DMVckFIdB_12serde_derive2de16FieldWithAliasesENtNtNtNtBa_4iter6traits8iterator8Iterator4nextBT_, symObjAddr: 0x4F00, symBinAddr: 0x36B3C, symSize: 0xB0 }
  - { offset: 0x4AE44, size: 0x8, addend: 0x0, symName: __RNvXs2V_NtNtCsaNl6UpbT7bw_4core5slice4iterINtB6_4IterNtNtCs87DMVckFIdB_12serde_derive2de16FieldWithAliasesENtNtNtNtBa_4iter6traits8iterator8Iterator9size_hintBT_, symObjAddr: 0x4FB0, symBinAddr: 0x36BEC, symSize: 0x70 }
  - { offset: 0x4AEB3, size: 0x8, addend: 0x0, symName: __RNvXs2V_NtNtCsaNl6UpbT7bw_4core5slice4iterINtB6_4IterNtNtCsc29TF2YcYso_3syn4expr6MemberENtNtNtNtBa_4iter6traits8iterator8Iterator4nextCs87DMVckFIdB_12serde_derive, symObjAddr: 0x5020, symBinAddr: 0x36C5C, symSize: 0xB0 }
  - { offset: 0x4AFED, size: 0x8, addend: 0x0, symName: __RNvXs2V_NtNtCsaNl6UpbT7bw_4core5slice4iterINtB6_4IterNtNtCsc29TF2YcYso_3syn8generics14WherePredicateENtNtNtNtBa_4iter6traits8iterator8Iterator4nextCs87DMVckFIdB_12serde_derive, symObjAddr: 0x50D0, symBinAddr: 0x36D0C, symSize: 0xB0 }
  - { offset: 0x4B127, size: 0x8, addend: 0x0, symName: __RNvXs2V_NtNtCsaNl6UpbT7bw_4core5slice4iterINtB6_4IterNtNtCsc29TF2YcYso_3syn8lifetime8LifetimeENtNtNtNtBa_4iter6traits8iterator8Iterator4nextCs87DMVckFIdB_12serde_derive, symObjAddr: 0x5180, symBinAddr: 0x36DBC, symSize: 0xB0 }
  - { offset: 0x4B261, size: 0x8, addend: 0x0, symName: __RNvXs2V_NtNtCsaNl6UpbT7bw_4core5slice4iterINtB6_4IterNtNtNtCs87DMVckFIdB_12serde_derive9internals3ast5FieldENtNtNtNtBa_4iter6traits8iterator8Iterator10advance_byBV_, symObjAddr: 0x5230, symBinAddr: 0x36E6C, symSize: 0xB8 }
  - { offset: 0x4B396, size: 0x8, addend: 0x0, symName: __RNvXs2V_NtNtCsaNl6UpbT7bw_4core5slice4iterINtB6_4IterNtNtNtCs87DMVckFIdB_12serde_derive9internals3ast5FieldENtNtNtNtBa_4iter6traits8iterator8Iterator24___iterator_get_uncheckedBV_, symObjAddr: 0x52E8, symBinAddr: 0x36F24, symSize: 0x28 }
  - { offset: 0x4B3F1, size: 0x8, addend: 0x0, symName: __RNvXs2V_NtNtCsaNl6UpbT7bw_4core5slice4iterINtB6_4IterNtNtNtCs87DMVckFIdB_12serde_derive9internals3ast5FieldENtNtNtNtBa_4iter6traits8iterator8Iterator3nthBV_, symObjAddr: 0x5310, symBinAddr: 0x36F4C, symSize: 0x128 }
  - { offset: 0x4B5D1, size: 0x8, addend: 0x0, symName: __RNvXs2V_NtNtCsaNl6UpbT7bw_4core5slice4iterINtB6_4IterNtNtNtCs87DMVckFIdB_12serde_derive9internals3ast5FieldENtNtNtNtBa_4iter6traits8iterator8Iterator4nextBV_, symObjAddr: 0x5438, symBinAddr: 0x37074, symSize: 0xB0 }
  - { offset: 0x4B70B, size: 0x8, addend: 0x0, symName: __RNvXs2V_NtNtCsaNl6UpbT7bw_4core5slice4iterINtB6_4IterNtNtNtCs87DMVckFIdB_12serde_derive9internals3ast5FieldENtNtNtNtBa_4iter6traits8iterator8Iterator9size_hintBV_, symObjAddr: 0x54E8, symBinAddr: 0x37124, symSize: 0x70 }
  - { offset: 0x4B77A, size: 0x8, addend: 0x0, symName: __RNvXs2V_NtNtCsaNl6UpbT7bw_4core5slice4iterINtB6_4IterNtNtNtCs87DMVckFIdB_12serde_derive9internals3ast7VariantENtNtNtNtBa_4iter6traits8iterator8Iterator4nextBV_, symObjAddr: 0x5558, symBinAddr: 0x37194, symSize: 0xB0 }
  - { offset: 0x4B8B4, size: 0x8, addend: 0x0, symName: __RNvXs2V_NtNtCsaNl6UpbT7bw_4core5slice4iterINtB6_4IterNtNtNtCs87DMVckFIdB_12serde_derive9internals3ast7VariantENtNtNtNtBa_4iter6traits8iterator8Iterator9size_hintBV_, symObjAddr: 0x5608, symBinAddr: 0x37244, symSize: 0x70 }
  - { offset: 0x4B923, size: 0x8, addend: 0x0, symName: __RNvXs2V_NtNtCsaNl6UpbT7bw_4core5slice4iterINtB6_4IterNtNtNtCs87DMVckFIdB_12serde_derive9internals4name4NameENtNtNtNtBa_4iter6traits8iterator8Iterator4nextBV_, symObjAddr: 0x5678, symBinAddr: 0x372B4, symSize: 0xB0 }
  - { offset: 0x4BA5D, size: 0x8, addend: 0x0, symName: __RNvXs2V_NtNtCsaNl6UpbT7bw_4core5slice4iterINtB6_4IterRNtCshnvkK9b4wzu_11proc_macro25IdentENtNtNtNtBa_4iter6traits8iterator8Iterator4nextCs87DMVckFIdB_12serde_derive, symObjAddr: 0x5728, symBinAddr: 0x37364, symSize: 0xB0 }
  - { offset: 0x4BB97, size: 0x8, addend: 0x0, symName: __RNvXs2V_NtNtCsaNl6UpbT7bw_4core5slice4iterINtB6_4IterRNtNtCsc29TF2YcYso_3syn2ty4TypeENtNtNtNtBa_4iter6traits8iterator8Iterator4nextCs87DMVckFIdB_12serde_derive, symObjAddr: 0x57D8, symBinAddr: 0x37414, symSize: 0xB0 }
  - { offset: 0x4BCD1, size: 0x8, addend: 0x0, symName: __RNvXs2V_NtNtCsaNl6UpbT7bw_4core5slice4iterINtB6_4IterRNtNtCsc29TF2YcYso_3syn4expr6MemberENtNtNtNtBa_4iter6traits8iterator8Iterator4nextCs87DMVckFIdB_12serde_derive, symObjAddr: 0x5888, symBinAddr: 0x374C4, symSize: 0xB0 }
  - { offset: 0x4BE0B, size: 0x8, addend: 0x0, symName: __RNvXs2V_NtNtCsaNl6UpbT7bw_4core5slice4iterINtB6_4IterTRNtNtNtCs87DMVckFIdB_12serde_derive9internals3ast5FieldNtCshnvkK9b4wzu_11proc_macro25IdentEENtNtNtNtBa_4iter6traits8iterator8Iterator4nextBX_, symObjAddr: 0x5938, symBinAddr: 0x37574, symSize: 0xB0 }
  - { offset: 0x4BF45, size: 0x8, addend: 0x0, symName: __RNvXs2V_NtNtCsaNl6UpbT7bw_4core5slice4iterINtB6_4IterTReNtNtNtCs87DMVckFIdB_12serde_derive9internals4case10RenameRuleEENtNtNtNtBa_4iter6traits8iterator8Iterator4nextBY_, symObjAddr: 0x59E8, symBinAddr: 0x37624, symSize: 0xB0 }
  - { offset: 0x4C07F, size: 0x8, addend: 0x0, symName: __RNvXs2V_NtNtCsaNl6UpbT7bw_4core5slice4iterINtB6_4IterhENtNtNtNtBa_4iter6traits8iterator8Iterator9size_hintCs87DMVckFIdB_12serde_derive, symObjAddr: 0x5A98, symBinAddr: 0x376D4, symSize: 0x70 }
  - { offset: 0x4C988, size: 0x8, addend: 0x0, symName: __RNvXs2W_NtNtCsaNl6UpbT7bw_4core5slice4iterINtB6_4IterNtNtNtCs87DMVckFIdB_12serde_derive9internals3ast7VariantENtNtNtNtBa_4iter6traits12double_ended19DoubleEndedIterator9next_backBV_, symObjAddr: 0x5B08, symBinAddr: 0x37744, symSize: 0x108 }
  - { offset: 0x4CAE4, size: 0x8, addend: 0x0, symName: __RNvXs2W_NtNtCsaNl6UpbT7bw_4core5slice4iterINtB6_4IterTNtNtCsc29TF2YcYso_3syn2ty4TypeNtNtBU_5token5CommaEENtNtNtNtBa_4iter6traits12double_ended19DoubleEndedIterator9next_backCs87DMVckFIdB_12serde_derive, symObjAddr: 0x5C10, symBinAddr: 0x3784C, symSize: 0x108 }
  - { offset: 0x4CC40, size: 0x8, addend: 0x0, symName: __RNvXs2W_NtNtCsaNl6UpbT7bw_4core5slice4iterINtB6_4IterTNtNtCsc29TF2YcYso_3syn2ty9BareFnArgNtNtBU_5token5CommaEENtNtNtNtBa_4iter6traits12double_ended19DoubleEndedIterator9next_backCs87DMVckFIdB_12serde_derive, symObjAddr: 0x5D18, symBinAddr: 0x37954, symSize: 0x108 }
  - { offset: 0x4CD9C, size: 0x8, addend: 0x0, symName: __RNvXs2W_NtNtCsaNl6UpbT7bw_4core5slice4iterINtB6_4IterTNtNtCsc29TF2YcYso_3syn4data7VariantNtNtBU_5token5CommaEENtNtNtNtBa_4iter6traits12double_ended19DoubleEndedIterator9next_backCs87DMVckFIdB_12serde_derive, symObjAddr: 0x5E20, symBinAddr: 0x37A5C, symSize: 0x108 }
  - { offset: 0x4CEF8, size: 0x8, addend: 0x0, symName: __RNvXs2W_NtNtCsaNl6UpbT7bw_4core5slice4iterINtB6_4IterTNtNtCsc29TF2YcYso_3syn4path15GenericArgumentNtNtBU_5token5CommaEENtNtNtNtBa_4iter6traits12double_ended19DoubleEndedIterator9next_backCs87DMVckFIdB_12serde_derive, symObjAddr: 0x5F28, symBinAddr: 0x37B64, symSize: 0x108 }
  - { offset: 0x4D236, size: 0x8, addend: 0x0, symName: __RNvXs33_NtNtCsaNl6UpbT7bw_4core5slice4iterINtB6_7IterMutNtNtNtCs87DMVckFIdB_12serde_derive9internals3ast5FieldENtNtNtNtBa_4iter6traits8iterator8Iterator4nextBY_, symObjAddr: 0x6030, symBinAddr: 0x37C6C, symSize: 0xB0 }
  - { offset: 0x4D35B, size: 0x8, addend: 0x0, symName: __RNvXs33_NtNtCsaNl6UpbT7bw_4core5slice4iterINtB6_7IterMutNtNtNtCs87DMVckFIdB_12serde_derive9internals3ast7VariantENtNtNtNtBa_4iter6traits8iterator8Iterator4nextBY_, symObjAddr: 0x60E0, symBinAddr: 0x37D1C, symSize: 0xB0 }
  - { offset: 0x4D480, size: 0x8, addend: 0x0, symName: __RNvXs33_NtNtCsaNl6UpbT7bw_4core5slice4iterINtB6_7IterMutTNtNtCsc29TF2YcYso_3syn2ty4TypeNtNtBX_5token5CommaEENtNtNtNtBa_4iter6traits8iterator8Iterator4nextCs87DMVckFIdB_12serde_derive, symObjAddr: 0x6190, symBinAddr: 0x37DCC, symSize: 0xB0 }
  - { offset: 0x4D5A5, size: 0x8, addend: 0x0, symName: __RNvXs33_NtNtCsaNl6UpbT7bw_4core5slice4iterINtB6_7IterMutTNtNtCsc29TF2YcYso_3syn2ty9BareFnArgNtNtBX_5token5CommaEENtNtNtNtBa_4iter6traits8iterator8Iterator4nextCs87DMVckFIdB_12serde_derive, symObjAddr: 0x6240, symBinAddr: 0x37E7C, symSize: 0xB0 }
  - { offset: 0x4D6CA, size: 0x8, addend: 0x0, symName: __RNvXs33_NtNtCsaNl6UpbT7bw_4core5slice4iterINtB6_7IterMutTNtNtCsc29TF2YcYso_3syn4data7VariantNtNtBX_5token5CommaEENtNtNtNtBa_4iter6traits8iterator8Iterator4nextCs87DMVckFIdB_12serde_derive, symObjAddr: 0x62F0, symBinAddr: 0x37F2C, symSize: 0xB0 }
  - { offset: 0x4D7EF, size: 0x8, addend: 0x0, symName: __RNvXs33_NtNtCsaNl6UpbT7bw_4core5slice4iterINtB6_7IterMutTNtNtCsc29TF2YcYso_3syn4expr4ExprNtNtBX_5token5CommaEENtNtNtNtBa_4iter6traits8iterator8Iterator4nextCs87DMVckFIdB_12serde_derive, symObjAddr: 0x63A0, symBinAddr: 0x37FDC, symSize: 0xB0 }
  - { offset: 0x4D914, size: 0x8, addend: 0x0, symName: __RNvXs33_NtNtCsaNl6UpbT7bw_4core5slice4iterINtB6_7IterMutTNtNtCsc29TF2YcYso_3syn4path15GenericArgumentNtNtBX_5token5CommaEENtNtNtNtBa_4iter6traits8iterator8Iterator4nextCs87DMVckFIdB_12serde_derive, symObjAddr: 0x6450, symBinAddr: 0x3808C, symSize: 0xB0 }
  - { offset: 0x4DA39, size: 0x8, addend: 0x0, symName: __RNvXs33_NtNtCsaNl6UpbT7bw_4core5slice4iterINtB6_7IterMutTNtNtCsc29TF2YcYso_3syn8generics14TypeParamBoundNtNtBX_5token4PlusEENtNtNtNtBa_4iter6traits8iterator8Iterator4nextCs87DMVckFIdB_12serde_derive, symObjAddr: 0x6500, symBinAddr: 0x3813C, symSize: 0xB0 }
  - { offset: 0x4DB5E, size: 0x8, addend: 0x0, symName: __RNvXs33_NtNtCsaNl6UpbT7bw_4core5slice4iterINtB6_7IterMutTNtNtCsc29TF2YcYso_3syn8generics14WherePredicateNtNtBX_5token5CommaEENtNtNtNtBa_4iter6traits8iterator8Iterator4nextCs87DMVckFIdB_12serde_derive, symObjAddr: 0x65B0, symBinAddr: 0x381EC, symSize: 0xB0 }
  - { offset: 0x4DC89, size: 0x8, addend: 0x0, symName: __RNvXs34_NtNtCsaNl6UpbT7bw_4core5slice4iterINtB6_7IterMutTNtNtCsc29TF2YcYso_3syn2ty4TypeNtNtBX_5token5CommaEENtNtNtNtBa_4iter6traits12double_ended19DoubleEndedIterator9next_backCs87DMVckFIdB_12serde_derive, symObjAddr: 0x6660, symBinAddr: 0x3829C, symSize: 0x108 }
  - { offset: 0x4DDE5, size: 0x8, addend: 0x0, symName: __RNvXs34_NtNtCsaNl6UpbT7bw_4core5slice4iterINtB6_7IterMutTNtNtCsc29TF2YcYso_3syn2ty9BareFnArgNtNtBX_5token5CommaEENtNtNtNtBa_4iter6traits12double_ended19DoubleEndedIterator9next_backCs87DMVckFIdB_12serde_derive, symObjAddr: 0x6768, symBinAddr: 0x383A4, symSize: 0x108 }
  - { offset: 0x4DF41, size: 0x8, addend: 0x0, symName: __RNvXs34_NtNtCsaNl6UpbT7bw_4core5slice4iterINtB6_7IterMutTNtNtCsc29TF2YcYso_3syn4data7VariantNtNtBX_5token5CommaEENtNtNtNtBa_4iter6traits12double_ended19DoubleEndedIterator9next_backCs87DMVckFIdB_12serde_derive, symObjAddr: 0x6870, symBinAddr: 0x384AC, symSize: 0x108 }
  - { offset: 0x4E09D, size: 0x8, addend: 0x0, symName: __RNvXs34_NtNtCsaNl6UpbT7bw_4core5slice4iterINtB6_7IterMutTNtNtCsc29TF2YcYso_3syn4expr4ExprNtNtBX_5token5CommaEENtNtNtNtBa_4iter6traits12double_ended19DoubleEndedIterator9next_backCs87DMVckFIdB_12serde_derive, symObjAddr: 0x6978, symBinAddr: 0x385B4, symSize: 0x108 }
  - { offset: 0x4E1F9, size: 0x8, addend: 0x0, symName: __RNvXs34_NtNtCsaNl6UpbT7bw_4core5slice4iterINtB6_7IterMutTNtNtCsc29TF2YcYso_3syn4path15GenericArgumentNtNtBX_5token5CommaEENtNtNtNtBa_4iter6traits12double_ended19DoubleEndedIterator9next_backCs87DMVckFIdB_12serde_derive, symObjAddr: 0x6A80, symBinAddr: 0x386BC, symSize: 0x108 }
  - { offset: 0x4E355, size: 0x8, addend: 0x0, symName: __RNvXs34_NtNtCsaNl6UpbT7bw_4core5slice4iterINtB6_7IterMutTNtNtCsc29TF2YcYso_3syn8generics14TypeParamBoundNtNtBX_5token4PlusEENtNtNtNtBa_4iter6traits12double_ended19DoubleEndedIterator9next_backCs87DMVckFIdB_12serde_derive, symObjAddr: 0x6B88, symBinAddr: 0x387C4, symSize: 0x108 }
  - { offset: 0x4E4B1, size: 0x8, addend: 0x0, symName: __RNvXs34_NtNtCsaNl6UpbT7bw_4core5slice4iterINtB6_7IterMutTNtNtCsc29TF2YcYso_3syn8generics14WherePredicateNtNtBX_5token5CommaEENtNtNtNtBa_4iter6traits12double_ended19DoubleEndedIterator9next_backCs87DMVckFIdB_12serde_derive, symObjAddr: 0x6C90, symBinAddr: 0x388CC, symSize: 0x108 }
  - { offset: 0x4E613, size: 0x8, addend: 0x0, symName: __RNvXs5_NtNtCsaNl6UpbT7bw_4core5slice4iterINtB5_4IterNtNtCs87DMVckFIdB_12serde_derive2de16FieldWithAliasesENtNtB9_5clone5Clone5cloneBS_, symObjAddr: 0x6D98, symBinAddr: 0x389D4, symSize: 0x20 }
  - { offset: 0x4E648, size: 0x8, addend: 0x0, symName: __RNvXs5_NtNtCsaNl6UpbT7bw_4core5slice4iterINtB5_4IterNtNtNtCs87DMVckFIdB_12serde_derive9internals3ast7VariantENtNtB9_5clone5Clone5cloneBU_, symObjAddr: 0x6DB8, symBinAddr: 0x389F4, symSize: 0x20 }
  - { offset: 0x4E67D, size: 0x8, addend: 0x0, symName: __RNvXs5_NtNtCsaNl6UpbT7bw_4core5slice4iterINtB5_4IterTNtNtCsc29TF2YcYso_3syn2ty4TypeNtNtBT_5token5CommaEENtNtB9_5clone5Clone5cloneCs87DMVckFIdB_12serde_derive, symObjAddr: 0x6DD8, symBinAddr: 0x38A14, symSize: 0x20 }
  - { offset: 0x4E6B2, size: 0x8, addend: 0x0, symName: __RNvXs5_NtNtCsaNl6UpbT7bw_4core5slice4iterINtB5_4IterTNtNtCsc29TF2YcYso_3syn2ty9BareFnArgNtNtBT_5token5CommaEENtNtB9_5clone5Clone5cloneCs87DMVckFIdB_12serde_derive, symObjAddr: 0x6DF8, symBinAddr: 0x38A34, symSize: 0x20 }
  - { offset: 0x4E6E7, size: 0x8, addend: 0x0, symName: __RNvXs5_NtNtCsaNl6UpbT7bw_4core5slice4iterINtB5_4IterTNtNtCsc29TF2YcYso_3syn4data7VariantNtNtBT_5token5CommaEENtNtB9_5clone5Clone5cloneCs87DMVckFIdB_12serde_derive, symObjAddr: 0x6E18, symBinAddr: 0x38A54, symSize: 0x20 }
  - { offset: 0x4E71C, size: 0x8, addend: 0x0, symName: __RNvXs5_NtNtCsaNl6UpbT7bw_4core5slice4iterINtB5_4IterTNtNtCsc29TF2YcYso_3syn4path15GenericArgumentNtNtBT_5token5CommaEENtNtB9_5clone5Clone5cloneCs87DMVckFIdB_12serde_derive, symObjAddr: 0x6E38, symBinAddr: 0x38A74, symSize: 0x20 }
  - { offset: 0x4F35D, size: 0x8, addend: 0x0, symName: __RNvXsn_NtNtNtCsaNl6UpbT7bw_4core4iter8adapters7flattenINtNtNtBb_5slice4iter4IterNtNtNtCs87DMVckFIdB_12serde_derive9internals3ast5FieldENtB5_21ConstSizeIntoIterator4sizeB1m_, symObjAddr: 0x6E58, symBinAddr: 0x38A94, symSize: 0x18 }
  - { offset: 0x4FC47, size: 0x8, addend: 0x0, symName: __RNvYINtNtNtCsaNl6UpbT7bw_4core5slice4iter4IterNtNtNtCs87DMVckFIdB_12serde_derive9internals3ast5FieldENtNtNtNtB9_4iter8adapters3zip27TrustedRandomAccessNoCoerce4sizeBO_, symObjAddr: 0x6EC0, symBinAddr: 0x38AFC, symSize: 0x2C }
  - { offset: 0x4FCB4, size: 0x8, addend: 0x0, symName: __RINvYINtNtNtCsaNl6UpbT7bw_4core5slice4iter4IterNtNtCs87DMVckFIdB_12serde_derive2de16FieldWithAliasesENtNtNtNtBa_4iter6traits8iterator8Iterator3mapNtCshnvkK9b4wzu_11proc_macro211TokenStreamNCNvNtBL_10identifier22deserialize_identifier0EBN_, symObjAddr: 0x2F94, symBinAddr: 0x34BD0, symSize: 0x30 }
  - { offset: 0x4FD21, size: 0x8, addend: 0x0, symName: __RINvYINtNtNtCsaNl6UpbT7bw_4core5slice4iter4IterNtNtCs87DMVckFIdB_12serde_derive2de16FieldWithAliasesENtNtNtNtBa_4iter6traits8iterator8Iterator3mapNtCshnvkK9b4wzu_11proc_macro211TokenStreamNCNvNtBL_10identifier22deserialize_identifiers_0EBN_, symObjAddr: 0x2FC4, symBinAddr: 0x34C00, symSize: 0x30 }
  - { offset: 0x4FD8E, size: 0x8, addend: 0x0, symName: __RINvYINtNtNtCsaNl6UpbT7bw_4core5slice4iter4IterNtNtCs87DMVckFIdB_12serde_derive2de16FieldWithAliasesENtNtNtNtBa_4iter6traits8iterator8Iterator3mapRINtNtNtNtCsiTraAjBDcu4_5alloc11collections5btree3set8BTreeSetNtNtNtBN_9internals4name4NameENCNvNtBL_10identifier18deserialize_customs0_0EBN_, symObjAddr: 0x2FF4, symBinAddr: 0x34C30, symSize: 0x1C }
  - { offset: 0x4FDE6, size: 0x8, addend: 0x0, symName: __RINvYINtNtNtCsaNl6UpbT7bw_4core5slice4iter4IterNtNtCs87DMVckFIdB_12serde_derive2de16FieldWithAliasesENtNtNtNtBa_4iter6traits8iterator8Iterator3mapRINtNtNtNtCsiTraAjBDcu4_5alloc11collections5btree3set8BTreeSetNtNtNtBN_9internals4name4NameENCNvNtBL_7struct_11deserializes0_0EBN_, symObjAddr: 0x3010, symBinAddr: 0x34C4C, symSize: 0x1C }
  - { offset: 0x4FE3E, size: 0x8, addend: 0x0, symName: __RINvYINtNtNtCsaNl6UpbT7bw_4core5slice4iter4IterNtNtCs87DMVckFIdB_12serde_derive2de16FieldWithAliasesENtNtNtNtBa_4iter6traits8iterator8Iterator3mapRNtCshnvkK9b4wzu_11proc_macro25IdentNCNvNtBL_10identifier21deserialize_generated0EBN_, symObjAddr: 0x302C, symBinAddr: 0x34C68, symSize: 0x1C }
  - { offset: 0x4FEBD, size: 0x8, addend: 0x0, symName: __RINvYINtNtNtCsaNl6UpbT7bw_4core5slice4iter4IterNtNtCs87DMVckFIdB_12serde_derive2de16FieldWithAliasesENtNtNtNtBa_4iter6traits8iterator8Iterator8flat_mapRINtNtNtNtCsiTraAjBDcu4_5alloc11collections5btree3set8BTreeSetNtNtNtBN_9internals4name4NameENCNvNtBL_10identifier18deserialize_customs0_0EBN_, symObjAddr: 0x3048, symBinAddr: 0x34C84, symSize: 0xB0 }
  - { offset: 0x4FFB2, size: 0x8, addend: 0x0, symName: __RINvYINtNtNtCsaNl6UpbT7bw_4core5slice4iter4IterNtNtCs87DMVckFIdB_12serde_derive2de16FieldWithAliasesENtNtNtNtBa_4iter6traits8iterator8Iterator8flat_mapRINtNtNtNtCsiTraAjBDcu4_5alloc11collections5btree3set8BTreeSetNtNtNtBN_9internals4name4NameENCNvNtBL_7struct_11deserializes0_0EBN_, symObjAddr: 0x30F8, symBinAddr: 0x34D34, symSize: 0xB0 }
  - { offset: 0x50080, size: 0x8, addend: 0x0, symName: __RINvYINtNtNtCsaNl6UpbT7bw_4core5slice4iter4IterNtNtCsc29TF2YcYso_3syn8generics14WherePredicateENtNtNtNtBa_4iter6traits8iterator8Iterator6clonedBJ_ECs87DMVckFIdB_12serde_derive, symObjAddr: 0x31A8, symBinAddr: 0x34DE4, symSize: 0x1C }
  - { offset: 0x500C0, size: 0x8, addend: 0x0, symName: __RINvYINtNtNtCsaNl6UpbT7bw_4core5slice4iter4IterNtNtNtCs87DMVckFIdB_12serde_derive9internals3ast5FieldENtNtNtNtBa_4iter6traits8iterator8Iterator3mapNtCshnvkK9b4wzu_11proc_macro211TokenStreamNCNvNtBP_2de23deserialize_transparents_0EBP_, symObjAddr: 0x31C4, symBinAddr: 0x34E00, symSize: 0x30 }
  - { offset: 0x5012D, size: 0x8, addend: 0x0, symName: __RINvYINtNtNtCsaNl6UpbT7bw_4core5slice4iter4IterNtNtNtCs87DMVckFIdB_12serde_derive9internals3ast5FieldENtNtNtNtBa_4iter6traits8iterator8Iterator3mapNtCshnvkK9b4wzu_11proc_macro211TokenStreamNCNvNtBP_3ser27wrap_serialize_variant_withs_0EBP_, symObjAddr: 0x31F4, symBinAddr: 0x34E30, symSize: 0x1C }
  - { offset: 0x50185, size: 0x8, addend: 0x0, symName: __RINvYINtNtNtCsaNl6UpbT7bw_4core5slice4iter4IterNtNtNtCs87DMVckFIdB_12serde_derive9internals3ast5FieldENtNtNtNtBa_4iter6traits8iterator8Iterator3mapNtNtCsc29TF2YcYso_3syn4expr6MemberNCNvNtBP_3ser35serialize_adjacently_tagged_variants0_0EBP_, symObjAddr: 0x3210, symBinAddr: 0x34E4C, symSize: 0x1C }
  - { offset: 0x501DD, size: 0x8, addend: 0x0, symName: __RINvYINtNtNtCsaNl6UpbT7bw_4core5slice4iter4IterNtNtNtCs87DMVckFIdB_12serde_derive9internals3ast5FieldENtNtNtNtBa_4iter6traits8iterator8Iterator3mapRNtNtCsc29TF2YcYso_3syn2ty4TypeNCNvNtBP_2de25unwrap_to_variant_closure0EBP_, symObjAddr: 0x322C, symBinAddr: 0x34E68, symSize: 0x1C }
  - { offset: 0x50235, size: 0x8, addend: 0x0, symName: __RINvYINtNtNtCsaNl6UpbT7bw_4core5slice4iter4IterNtNtNtCs87DMVckFIdB_12serde_derive9internals3ast5FieldENtNtNtNtBa_4iter6traits8iterator8Iterator3mapRNtNtCsc29TF2YcYso_3syn2ty4TypeNCNvNtBP_3ser27wrap_serialize_variant_with0EBP_, symObjAddr: 0x3248, symBinAddr: 0x34E84, symSize: 0x1C }
  - { offset: 0x5028D, size: 0x8, addend: 0x0, symName: __RINvYINtNtNtCsaNl6UpbT7bw_4core5slice4iter4IterNtNtNtCs87DMVckFIdB_12serde_derive9internals3ast5FieldENtNtNtNtBa_4iter6traits8iterator8Iterator3mapRNtNtCsc29TF2YcYso_3syn2ty4TypeNCNvNtNtBP_2de15enum_externally29wrap_deserialize_variant_with0EBP_, symObjAddr: 0x3264, symBinAddr: 0x34EA0, symSize: 0x1C }
  - { offset: 0x502E5, size: 0x8, addend: 0x0, symName: __RINvYINtNtNtCsaNl6UpbT7bw_4core5slice4iter4IterNtNtNtCs87DMVckFIdB_12serde_derive9internals3ast5FieldENtNtNtNtBa_4iter6traits8iterator8Iterator3mapRNtNtCsc29TF2YcYso_3syn4expr6MemberNCNCNvNtBP_7pretend21pretend_variants_used0s_0EBP_, symObjAddr: 0x3280, symBinAddr: 0x34EBC, symSize: 0x1C }
  - { offset: 0x5033D, size: 0x8, addend: 0x0, symName: __RINvYINtNtNtCsaNl6UpbT7bw_4core5slice4iter4IterNtNtNtCs87DMVckFIdB_12serde_derive9internals3ast5FieldENtNtNtNtBa_4iter6traits8iterator8Iterator3mapRNtNtCsc29TF2YcYso_3syn4expr6MemberNCNCNvNtBP_7pretend24pretend_fields_used_enum00EBP_, symObjAddr: 0x329C, symBinAddr: 0x34ED8, symSize: 0x1C }
  - { offset: 0x50395, size: 0x8, addend: 0x0, symName: __RINvYINtNtNtCsaNl6UpbT7bw_4core5slice4iter4IterNtNtNtCs87DMVckFIdB_12serde_derive9internals3ast5FieldENtNtNtNtBa_4iter6traits8iterator8Iterator3mapRNtNtCsc29TF2YcYso_3syn4expr6MemberNCNvNtBP_2de15deserialize_seqs0_0EBP_, symObjAddr: 0x32B8, symBinAddr: 0x34EF4, symSize: 0x1C }
  - { offset: 0x503ED, size: 0x8, addend: 0x0, symName: __RINvYINtNtNtCsaNl6UpbT7bw_4core5slice4iter4IterNtNtNtCs87DMVckFIdB_12serde_derive9internals3ast5FieldENtNtNtNtBa_4iter6traits8iterator8Iterator3mapRNtNtCsc29TF2YcYso_3syn4expr6MemberNCNvNtBP_2de25unwrap_to_variant_closures0_0EBP_, symObjAddr: 0x32D4, symBinAddr: 0x34F10, symSize: 0x1C }
  - { offset: 0x50445, size: 0x8, addend: 0x0, symName: __RINvYINtNtNtCsaNl6UpbT7bw_4core5slice4iter4IterNtNtNtCs87DMVckFIdB_12serde_derive9internals3ast5FieldENtNtNtNtBa_4iter6traits8iterator8Iterator3mapRNtNtCsc29TF2YcYso_3syn4expr6MemberNCNvNtBP_3ser17serialize_variants_0EBP_, symObjAddr: 0x32F0, symBinAddr: 0x34F2C, symSize: 0x1C }
  - { offset: 0x5049D, size: 0x8, addend: 0x0, symName: __RINvYINtNtNtCsaNl6UpbT7bw_4core5slice4iter4IterNtNtNtCs87DMVckFIdB_12serde_derive9internals3ast5FieldENtNtNtNtBa_4iter6traits8iterator8Iterator3mapRNtNtCsc29TF2YcYso_3syn4expr6MemberNCNvNtBP_3ser37serialize_struct_variant_with_flattens0_0EBP_, symObjAddr: 0x330C, symBinAddr: 0x34F48, symSize: 0x1C }
  - { offset: 0x504F5, size: 0x8, addend: 0x0, symName: __RINvYINtNtNtCsaNl6UpbT7bw_4core5slice4iter4IterNtNtNtCs87DMVckFIdB_12serde_derive9internals3ast5FieldENtNtNtNtBa_4iter6traits8iterator8Iterator3mapRNtNtCsc29TF2YcYso_3syn4expr6MemberNCNvNtBP_7pretend26pretend_fields_used_struct0EBP_, symObjAddr: 0x3328, symBinAddr: 0x34F64, symSize: 0x1C }
  - { offset: 0x5054D, size: 0x8, addend: 0x0, symName: __RINvYINtNtNtCsaNl6UpbT7bw_4core5slice4iter4IterNtNtNtCs87DMVckFIdB_12serde_derive9internals3ast5FieldENtNtNtNtBa_4iter6traits8iterator8Iterator3mapRNtNtCsc29TF2YcYso_3syn4expr6MemberNCNvNtBP_7pretend33pretend_fields_used_struct_packed0EBP_, symObjAddr: 0x3344, symBinAddr: 0x34F80, symSize: 0x1C }
  - { offset: 0x505A5, size: 0x8, addend: 0x0, symName: __RINvYINtNtNtCsaNl6UpbT7bw_4core5slice4iter4IterNtNtNtCs87DMVckFIdB_12serde_derive9internals3ast5FieldENtNtNtNtBa_4iter6traits8iterator8Iterator3mapRRNtNtCsc29TF2YcYso_3syn2ty4TypeNCNvNtBP_3ser35serialize_adjacently_tagged_variant0EBP_, symObjAddr: 0x3360, symBinAddr: 0x34F9C, symSize: 0x1C }
  - { offset: 0x505FD, size: 0x8, addend: 0x0, symName: __RINvYINtNtNtCsaNl6UpbT7bw_4core5slice4iter4IterNtNtNtCs87DMVckFIdB_12serde_derive9internals3ast5FieldENtNtNtNtBa_4iter6traits8iterator8Iterator3mapRRNtNtCsc29TF2YcYso_3syn2ty4TypeNCNvNtBP_3ser37serialize_struct_variant_with_flattens_0EBP_, symObjAddr: 0x337C, symBinAddr: 0x34FB8, symSize: 0x1C }
  - { offset: 0x50655, size: 0x8, addend: 0x0, symName: __RINvYINtNtNtCsaNl6UpbT7bw_4core5slice4iter4IterNtNtNtCs87DMVckFIdB_12serde_derive9internals3ast5FieldENtNtNtNtBa_4iter6traits8iterator8Iterator3mapjNCINvNvXs1_NtNtB1I_8adapters6filterINtB2x_6FilterppEB1C_5count8to_usizeRBJ_NCNvNtBP_2de15deserialize_seq0E0EBP_, symObjAddr: 0x3398, symBinAddr: 0x34FD4, symSize: 0x1C }
  - { offset: 0x506AD, size: 0x8, addend: 0x0, symName: __RINvYINtNtNtCsaNl6UpbT7bw_4core5slice4iter4IterNtNtNtCs87DMVckFIdB_12serde_derive9internals3ast5FieldENtNtNtNtBa_4iter6traits8iterator8Iterator3mapjNCINvNvXs1_NtNtB1I_8adapters6filterINtB2x_6FilterppEB1C_5count8to_usizeRBJ_NCNvNtNtBP_2de5tuple11deserialize0E0EBP_, symObjAddr: 0x33B4, symBinAddr: 0x34FF0, symSize: 0x1C }
  - { offset: 0x50705, size: 0x8, addend: 0x0, symName: __RINvYINtNtNtCsaNl6UpbT7bw_4core5slice4iter4IterNtNtNtCs87DMVckFIdB_12serde_derive9internals3ast5FieldENtNtNtNtBa_4iter6traits8iterator8Iterator6filterNCNvNtBP_2de15deserialize_seq0EBP_, symObjAddr: 0x33D0, symBinAddr: 0x3500C, symSize: 0x1C }
  - { offset: 0x50754, size: 0x8, addend: 0x0, symName: __RINvYINtNtNtCsaNl6UpbT7bw_4core5slice4iter4IterNtNtNtCs87DMVckFIdB_12serde_derive9internals3ast5FieldENtNtNtNtBa_4iter6traits8iterator8Iterator6filterNCNvNtBP_3ser23serialize_struct_as_map0EBP_, symObjAddr: 0x33EC, symBinAddr: 0x35028, symSize: 0x1C }
  - { offset: 0x507A3, size: 0x8, addend: 0x0, symName: __RINvYINtNtNtCsaNl6UpbT7bw_4core5slice4iter4IterNtNtNtCs87DMVckFIdB_12serde_derive9internals3ast5FieldENtNtNtNtBa_4iter6traits8iterator8Iterator6filterNCNvNtBP_3ser24serialize_struct_variants_0EBP_, symObjAddr: 0x3408, symBinAddr: 0x35044, symSize: 0x1C }
  - { offset: 0x507F2, size: 0x8, addend: 0x0, symName: __RINvYINtNtNtCsaNl6UpbT7bw_4core5slice4iter4IterNtNtNtCs87DMVckFIdB_12serde_derive9internals3ast5FieldENtNtNtNtBa_4iter6traits8iterator8Iterator6filterNCNvNtBP_3ser24serialize_struct_visitor0EBP_, symObjAddr: 0x3424, symBinAddr: 0x35060, symSize: 0x1C }
  - { offset: 0x50841, size: 0x8, addend: 0x0, symName: __RINvYINtNtNtCsaNl6UpbT7bw_4core5slice4iter4IterNtNtNtCs87DMVckFIdB_12serde_derive9internals3ast5FieldENtNtNtNtBa_4iter6traits8iterator8Iterator6filterNCNvNtBP_3ser26serialize_struct_as_struct0EBP_, symObjAddr: 0x3440, symBinAddr: 0x3507C, symSize: 0x1C }
  - { offset: 0x50890, size: 0x8, addend: 0x0, symName: __RINvYINtNtNtCsaNl6UpbT7bw_4core5slice4iter4IterNtNtNtCs87DMVckFIdB_12serde_derive9internals3ast5FieldENtNtNtNtBa_4iter6traits8iterator8Iterator6filterNCNvNtBP_3ser37serialize_struct_variant_with_flatten0EBP_, symObjAddr: 0x345C, symBinAddr: 0x35098, symSize: 0x1C }
  - { offset: 0x508DF, size: 0x8, addend: 0x0, symName: __RINvYINtNtNtCsaNl6UpbT7bw_4core5slice4iter4IterNtNtNtCs87DMVckFIdB_12serde_derive9internals3ast5FieldENtNtNtNtBa_4iter6traits8iterator8Iterator6filterNCNvNtBP_5bound10with_bounds0_0EBP_, symObjAddr: 0x3478, symBinAddr: 0x350B4, symSize: 0x30 }
  - { offset: 0x50943, size: 0x8, addend: 0x0, symName: __RINvYINtNtNtCsaNl6UpbT7bw_4core5slice4iter4IterNtNtNtCs87DMVckFIdB_12serde_derive9internals3ast5FieldENtNtNtNtBa_4iter6traits8iterator8Iterator6filterNCNvNtBP_5bound10with_bounds_0EBP_, symObjAddr: 0x34A8, symBinAddr: 0x350E4, symSize: 0x3C }
  - { offset: 0x509A7, size: 0x8, addend: 0x0, symName: __RINvYINtNtNtCsaNl6UpbT7bw_4core5slice4iter4IterNtNtNtCs87DMVckFIdB_12serde_derive9internals3ast5FieldENtNtNtNtBa_4iter6traits8iterator8Iterator6filterNCNvNtNtBP_2de5tuple11deserialize0EBP_, symObjAddr: 0x34E4, symBinAddr: 0x35120, symSize: 0x1C }
  - { offset: 0x509F6, size: 0x8, addend: 0x0, symName: __RINvYINtNtNtCsaNl6UpbT7bw_4core5slice4iter4IterNtNtNtCs87DMVckFIdB_12serde_derive9internals3ast5FieldENtNtNtNtBa_4iter6traits8iterator8Iterator8try_folduNCINvNvXs_NtNtB1I_8adapters9enumerateINtB2B_9EnumeratepEB1C_8try_fold9enumerateRBJ_uINtNtNtBa_3ops12control_flow11ControlFlowTjB3I_EENCINvNvB1C_4find5checkB4s_QNCNvNtBP_3ser22serialize_tuple_struct0E0E0B3N_EBP_, symObjAddr: 0x3500, symBinAddr: 0x3513C, symSize: 0x17C }
  - { offset: 0x50AA9, size: 0x8, addend: 0x0, symName: __RINvYINtNtNtCsaNl6UpbT7bw_4core5slice4iter4IterNtNtNtCs87DMVckFIdB_12serde_derive9internals3ast5FieldENtNtNtNtBa_4iter6traits8iterator8Iterator8try_folduNCINvNvXs_NtNtB1I_8adapters9enumerateINtB2B_9EnumeratepEB1C_8try_fold9enumerateRBJ_uINtNtNtBa_3ops12control_flow11ControlFlowTjB3I_EENCINvNvB1C_4find5checkB4s_QNCNvNtBP_3ser23serialize_tuple_variant0E0E0B3N_EBP_, symObjAddr: 0x367C, symBinAddr: 0x352B8, symSize: 0x17C }
  - { offset: 0x50B5C, size: 0x8, addend: 0x0, symName: __RINvYINtNtNtCsaNl6UpbT7bw_4core5slice4iter4IterNtNtNtCs87DMVckFIdB_12serde_derive9internals3ast5FieldENtNtNtNtBa_4iter6traits8iterator8Iterator8try_folduNCINvNvXs_NtNtB1I_8adapters9enumerateINtB2B_9EnumeratepEB1C_8try_fold9enumerateRBJ_uINtNtNtBa_3ops12control_flow11ControlFlowTjB3I_EENCINvNvB1C_4find5checkB4s_QNCNvNtBP_3ser30serialize_tuple_struct_visitor0E0E0B3N_EBP_, symObjAddr: 0x37F8, symBinAddr: 0x35434, symSize: 0x17C }
  - { offset: 0x50C0F, size: 0x8, addend: 0x0, symName: __RINvYINtNtNtCsaNl6UpbT7bw_4core5slice4iter4IterNtNtNtCs87DMVckFIdB_12serde_derive9internals3ast5FieldENtNtNtNtBa_4iter6traits8iterator8Iterator8try_folduNCINvNvXs_NtNtB1I_8adapters9enumerateINtB2B_9EnumeratepEB1C_8try_fold9enumerateRBJ_uINtNtNtBa_3ops12control_flow11ControlFlowTjB3I_EENCINvNvB1C_4find5checkB4s_QNCNvNtNtBP_2de7struct_11deserialize0E0E0B3N_EBP_, symObjAddr: 0x3974, symBinAddr: 0x355B0, symSize: 0x17C }
  - { offset: 0x50CC2, size: 0x8, addend: 0x0, symName: __RINvYINtNtNtCsaNl6UpbT7bw_4core5slice4iter4IterNtNtNtCs87DMVckFIdB_12serde_derive9internals3ast7VariantENtNtNtNtBa_4iter6traits8iterator8Iterator10filter_mapNtCshnvkK9b4wzu_11proc_macro211TokenStreamNCNvNtBP_7pretend24pretend_fields_used_enum0EBP_, symObjAddr: 0x3AF0, symBinAddr: 0x3572C, symSize: 0x30 }
  - { offset: 0x50D2F, size: 0x8, addend: 0x0, symName: __RINvYINtNtNtCsaNl6UpbT7bw_4core5slice4iter4IterNtNtNtCs87DMVckFIdB_12serde_derive9internals3ast7VariantENtNtNtNtBa_4iter6traits8iterator8Iterator10filter_mapRSNtNtCsc29TF2YcYso_3syn8generics14WherePredicateNCNvNtBP_5bound35with_where_predicates_from_variants0EBP_, symObjAddr: 0x3B20, symBinAddr: 0x3575C, symSize: 0x30 }
  - { offset: 0x50D9C, size: 0x8, addend: 0x0, symName: __RINvYINtNtNtCsaNl6UpbT7bw_4core5slice4iter4IterNtNtNtCs87DMVckFIdB_12serde_derive9internals3ast7VariantENtNtNtNtBa_4iter6traits8iterator8Iterator3mapIB4_NtBL_5FieldENCNvMs_BL_NtBL_4Data10all_fields0EBP_, symObjAddr: 0x3B50, symBinAddr: 0x3578C, symSize: 0x1C }
  - { offset: 0x50DF4, size: 0x8, addend: 0x0, symName: __RINvYINtNtNtCsaNl6UpbT7bw_4core5slice4iter4IterNtNtNtCs87DMVckFIdB_12serde_derive9internals3ast7VariantENtNtNtNtBa_4iter6traits8iterator8Iterator3mapNtCshnvkK9b4wzu_11proc_macro211TokenStreamNCNvNtBP_7pretend21pretend_variants_used0EBP_, symObjAddr: 0x3B6C, symBinAddr: 0x357A8, symSize: 0x3C }
  - { offset: 0x50E61, size: 0x8, addend: 0x0, symName: __RINvYINtNtNtCsaNl6UpbT7bw_4core5slice4iter4IterNtNtNtCs87DMVckFIdB_12serde_derive9internals3ast7VariantENtNtNtNtBa_4iter6traits8iterator8Iterator3mapNtNtBP_2de16FieldWithAliasesNCNvNtB2p_10identifier18deserialize_customs_0EBP_, symObjAddr: 0x3BA8, symBinAddr: 0x357E4, symSize: 0x1C }
  - { offset: 0x50EB9, size: 0x8, addend: 0x0, symName: __RINvYINtNtNtCsaNl6UpbT7bw_4core5slice4iter4IterNtNtNtCs87DMVckFIdB_12serde_derive9internals3ast7VariantENtNtNtNtBa_4iter6traits8iterator8Iterator6filterNCNvNtNtBP_2de13enum_untagged11deserialize0EBP_, symObjAddr: 0x3BC4, symBinAddr: 0x35800, symSize: 0x1C }
  - { offset: 0x50F2F, size: 0x8, addend: 0x0, symName: __RINvYINtNtNtCsaNl6UpbT7bw_4core5slice4iter4IterNtNtNtCs87DMVckFIdB_12serde_derive9internals3ast7VariantENtNtNtNtBa_4iter6traits8iterator8Iterator8flat_mapIB4_NtBL_5FieldENCNvMs_BL_NtBL_4Data10all_fields0EBP_, symObjAddr: 0x3BE0, symBinAddr: 0x3581C, symSize: 0x94 }
  - { offset: 0x50FFD, size: 0x8, addend: 0x0, symName: __RINvYINtNtNtCsaNl6UpbT7bw_4core5slice4iter4IterNtNtNtCs87DMVckFIdB_12serde_derive9internals3ast7VariantENtNtNtNtBa_4iter6traits8iterator8Iterator8try_foldjNCINvNtNtB1K_8adapters3map12map_try_foldRBJ_IB4_NtBL_5FieldEjINtNtNtBa_3ops12control_flow11ControlFlowujENCNvMs_BL_NtBL_4Data10all_fields0NCINvNvMsg_NtB2A_7flattenINtB4S_13FlattenCompatppE13iter_try_fold7flattenB3b_jB3s_INvNvXsi_B4S_B56_B1E_10advance_by7advanceB3b_EE0E0B3s_EBP_, symObjAddr: 0x3C74, symBinAddr: 0x358B0, symSize: 0x17C }
  - { offset: 0x510B1, size: 0x8, addend: 0x0, symName: __RINvYINtNtNtCsaNl6UpbT7bw_4core5slice4iter4IterNtNtNtCs87DMVckFIdB_12serde_derive9internals3ast7VariantENtNtNtNtBa_4iter6traits8iterator8Iterator8try_folduNCINvNvXs_NtNtB1K_8adapters9enumerateINtB2D_9EnumeratepEB1E_8try_fold9enumerateRBJ_uINtNtNtBa_3ops12control_flow11ControlFlowNtCshnvkK9b4wzu_11proc_macro211TokenStreamENCINvNtB2F_6filter15filter_try_foldTjB3K_EuB3P_NCNvNtNtBP_2de15enum_adjacently11deserializes0_0NCINvNvB1E_8find_map5checkB5K_B4u_QNCB5Y_s1_0E0E0E0B3P_EBP_, symObjAddr: 0x3DF0, symBinAddr: 0x35A2C, symSize: 0x138 }
  - { offset: 0x5116D, size: 0x8, addend: 0x0, symName: __RINvYINtNtNtCsaNl6UpbT7bw_4core5slice4iter4IterNtNtNtCs87DMVckFIdB_12serde_derive9internals3ast7VariantENtNtNtNtBa_4iter6traits8iterator8Iterator8try_folduNCINvNvXs_NtNtB1K_8adapters9enumerateINtB2D_9EnumeratepEB1E_8try_fold9enumerateRBJ_uINtNtNtBa_3ops12control_flow11ControlFlowTjB3K_EENCINvNtB2F_6filter15filter_try_foldB4u_uB3P_NCNvNtNtBP_2de5enum_25prepare_enum_variant_enum0NCINvNvB1E_4find5checkB4u_NCB5m_s_0E0E0E0B3P_EBP_, symObjAddr: 0x3F28, symBinAddr: 0x35B64, symSize: 0x17C }
  - { offset: 0x51220, size: 0x8, addend: 0x0, symName: __RINvYINtNtNtCsaNl6UpbT7bw_4core5slice4iter4IterNtNtNtCs87DMVckFIdB_12serde_derive9internals3ast7VariantENtNtNtNtBa_4iter6traits8iterator8Iterator8try_folduNCINvNvXs_NtNtB1K_8adapters9enumerateINtB2D_9EnumeratepEB1E_8try_fold9enumerateRBJ_uINtNtNtBa_3ops12control_flow11ControlFlowTjB3K_EENCINvNvB1E_4find5checkB4u_QNCNvNtNtBP_2de15enum_adjacently11deserialize0E0E0B3P_EBP_, symObjAddr: 0x40A4, symBinAddr: 0x35CE0, symSize: 0x17C }
  - { offset: 0x512D3, size: 0x8, addend: 0x0, symName: __RINvYINtNtNtCsaNl6UpbT7bw_4core5slice4iter4IterNtNtNtCs87DMVckFIdB_12serde_derive9internals3ast7VariantENtNtNtNtBa_4iter6traits8iterator8Iterator8try_folduNCINvNvXs_NtNtB1K_8adapters9enumerateINtB2D_9EnumeratepEB1E_8try_fold9enumerateRBJ_uINtNtNtBa_3ops12control_flow11ControlFlowTjB3K_EENCINvNvB1E_4find5checkB4u_QNCNvNtNtBP_2de15enum_externally11deserialize0E0E0B3P_EBP_, symObjAddr: 0x4220, symBinAddr: 0x35E5C, symSize: 0x17C }
  - { offset: 0x51386, size: 0x8, addend: 0x0, symName: __RINvYINtNtNtCsaNl6UpbT7bw_4core5slice4iter4IterNtNtNtCs87DMVckFIdB_12serde_derive9internals3ast7VariantENtNtNtNtBa_4iter6traits8iterator8Iterator8try_folduNCINvNvXs_NtNtB1K_8adapters9enumerateINtB2D_9EnumeratepEB1E_8try_fold9enumerateRBJ_uINtNtNtBa_3ops12control_flow11ControlFlowTjB3K_EENCINvNvB1E_4find5checkB4u_QNCNvNtNtBP_2de15enum_internally11deserialize0E0E0B3P_EBP_, symObjAddr: 0x439C, symBinAddr: 0x35FD8, symSize: 0x17C }
  - { offset: 0x51439, size: 0x8, addend: 0x0, symName: __RINvYINtNtNtCsaNl6UpbT7bw_4core5slice4iter4IterNtNtNtCs87DMVckFIdB_12serde_derive9internals3ast7VariantENtNtNtNtBa_4iter6traits8iterator8Iterator8try_folduNCINvNvXs_NtNtB1K_8adapters9enumerateINtB2D_9EnumeratepEB1E_8try_fold9enumerateRBJ_uINtNtNtBa_3ops12control_flow11ControlFlowTjB3K_EENCINvNvB1E_4find5checkB4u_QNCNvNtNtBP_2de5enum_25prepare_enum_variant_enum0E0E0B3P_EBP_, symObjAddr: 0x4518, symBinAddr: 0x36154, symSize: 0x17C }
  - { offset: 0x514EC, size: 0x8, addend: 0x0, symName: __RINvYINtNtNtCsaNl6UpbT7bw_4core5slice4iter4IterTRNtNtNtCs87DMVckFIdB_12serde_derive9internals3ast5FieldNtCshnvkK9b4wzu_11proc_macro25IdentEENtNtNtNtBa_4iter6traits8iterator8Iterator3mapNtB1F_11TokenStreamNCNvNtNtBR_2de7struct_15deserialize_maps8_0EBR_, symObjAddr: 0x4694, symBinAddr: 0x362D0, symSize: 0x30 }
  - { offset: 0x51559, size: 0x8, addend: 0x0, symName: __RINvYINtNtNtCsaNl6UpbT7bw_4core5slice4iter4IterTRNtNtNtCs87DMVckFIdB_12serde_derive9internals3ast5FieldNtCshnvkK9b4wzu_11proc_macro25IdentEENtNtNtNtBa_4iter6traits8iterator8Iterator6filterNCNvNtNtBR_2de7struct_15deserialize_maps1_0EBR_, symObjAddr: 0x46C4, symBinAddr: 0x36300, symSize: 0x1C }
  - { offset: 0x515A8, size: 0x8, addend: 0x0, symName: __RINvYINtNtNtCsaNl6UpbT7bw_4core5slice4iter4IterTRNtNtNtCs87DMVckFIdB_12serde_derive9internals3ast5FieldNtCshnvkK9b4wzu_11proc_macro25IdentEENtNtNtNtBa_4iter6traits8iterator8Iterator6filterNCNvNtNtBR_2de7struct_15deserialize_maps4_0EBR_, symObjAddr: 0x46E0, symBinAddr: 0x3631C, symSize: 0x1C }
  - { offset: 0x515F7, size: 0x8, addend: 0x0, symName: __RINvYINtNtNtCsaNl6UpbT7bw_4core5slice4iter4IterTRNtNtNtCs87DMVckFIdB_12serde_derive9internals3ast5FieldNtCshnvkK9b4wzu_11proc_macro25IdentEENtNtNtNtBa_4iter6traits8iterator8Iterator6filterNCNvNtNtBR_2de7struct_15deserialize_maps6_0EBR_, symObjAddr: 0x46FC, symBinAddr: 0x36338, symSize: 0x1C }
  - { offset: 0x51646, size: 0x8, addend: 0x0, symName: __RINvYINtNtNtCsaNl6UpbT7bw_4core5slice4iter4IterTRNtNtNtCs87DMVckFIdB_12serde_derive9internals3ast5FieldNtCshnvkK9b4wzu_11proc_macro25IdentEENtNtNtNtBa_4iter6traits8iterator8Iterator6filterNCNvNtNtBR_2de7struct_15deserialize_maps_0EBR_, symObjAddr: 0x4718, symBinAddr: 0x36354, symSize: 0x1C }
  - { offset: 0x51695, size: 0x8, addend: 0x0, symName: __RNvYINtNtNtCsaNl6UpbT7bw_4core5slice4iter4IterNtNtCs87DMVckFIdB_12serde_derive2de16FieldWithAliasesENtNtNtNtB9_4iter6traits8iterator8Iterator9enumerateBM_, symObjAddr: 0x6E70, symBinAddr: 0x38AAC, symSize: 0x28 }
  - { offset: 0x516E1, size: 0x8, addend: 0x0, symName: __RNvYINtNtNtCsaNl6UpbT7bw_4core5slice4iter4IterNtNtNtCs87DMVckFIdB_12serde_derive9internals3ast5FieldENtNtNtNtB9_4iter6traits8iterator8Iterator9enumerateBO_, symObjAddr: 0x6E98, symBinAddr: 0x38AD4, symSize: 0x28 }
  - { offset: 0x5172D, size: 0x8, addend: 0x0, symName: __RNvYINtNtNtCsaNl6UpbT7bw_4core5slice4iter4IterNtNtNtCs87DMVckFIdB_12serde_derive9internals3ast7VariantENtNtNtNtB9_4iter6traits8iterator8Iterator9enumerateBO_, symObjAddr: 0x6EEC, symBinAddr: 0x38B28, symSize: 0x28 }
  - { offset: 0x51779, size: 0x8, addend: 0x0, symName: __RNvYINtNtNtCsaNl6UpbT7bw_4core5slice4iter4IterTReNtNtNtCs87DMVckFIdB_12serde_derive9internals4case10RenameRuleEENtNtNtNtB9_4iter6traits8iterator8Iterator9enumerateBR_, symObjAddr: 0x6F14, symBinAddr: 0x38B50, symSize: 0x28 }
  - { offset: 0x51971, size: 0x8, addend: 0x0, symName: __RNvXNtNtNtCsaNl6UpbT7bw_4core4iter6traits7collectINtNtNtB8_5slice4iter4IterNtNtNtCs87DMVckFIdB_12serde_derive9internals3ast5FieldENtB2_12IntoIterator9into_iterB1h_, symObjAddr: 0x4D84, symBinAddr: 0x369C0, symSize: 0x1C }
  - { offset: 0x58E89, size: 0x8, addend: 0x0, symName: __RNvMs4_NtNtCsaNl6UpbT7bw_4core5slice4iterINtB5_4IterNtCshnvkK9b4wzu_11proc_macro211TokenStreamE3newCs87DMVckFIdB_12serde_derive, symObjAddr: 0x4734, symBinAddr: 0x36370, symSize: 0x50 }
  - { offset: 0x59046, size: 0x8, addend: 0x0, symName: __RNvMs4_NtNtCsaNl6UpbT7bw_4core5slice4iterINtB5_4IterNtCshnvkK9b4wzu_11proc_macro25IdentE3newCs87DMVckFIdB_12serde_derive, symObjAddr: 0x4784, symBinAddr: 0x363C0, symSize: 0x58 }
  - { offset: 0x591E9, size: 0x8, addend: 0x0, symName: __RNvMs4_NtNtCsaNl6UpbT7bw_4core5slice4iterINtB5_4IterNtNtCs87DMVckFIdB_12serde_derive2de16FieldWithAliasesE3newBS_, symObjAddr: 0x47DC, symBinAddr: 0x36418, symSize: 0x50 }
  - { offset: 0x593B3, size: 0x8, addend: 0x0, symName: __RNvMs4_NtNtCsaNl6UpbT7bw_4core5slice4iterINtB5_4IterNtNtCsc29TF2YcYso_3syn4expr6MemberE3newCs87DMVckFIdB_12serde_derive, symObjAddr: 0x482C, symBinAddr: 0x36468, symSize: 0x58 }
  - { offset: 0x59556, size: 0x8, addend: 0x0, symName: __RNvMs4_NtNtCsaNl6UpbT7bw_4core5slice4iterINtB5_4IterNtNtCsc29TF2YcYso_3syn8generics14WherePredicateE3newCs87DMVckFIdB_12serde_derive, symObjAddr: 0x4884, symBinAddr: 0x364C0, symSize: 0x58 }
  - { offset: 0x596F9, size: 0x8, addend: 0x0, symName: __RNvMs4_NtNtCsaNl6UpbT7bw_4core5slice4iterINtB5_4IterNtNtNtCs87DMVckFIdB_12serde_derive9internals3ast5FieldE3newBU_, symObjAddr: 0x48DC, symBinAddr: 0x36518, symSize: 0x58 }
  - { offset: 0x5989C, size: 0x8, addend: 0x0, symName: __RNvMs4_NtNtCsaNl6UpbT7bw_4core5slice4iterINtB5_4IterNtNtNtCs87DMVckFIdB_12serde_derive9internals3ast7VariantE3newBU_, symObjAddr: 0x4934, symBinAddr: 0x36570, symSize: 0x58 }
  - { offset: 0x59A59, size: 0x8, addend: 0x0, symName: __RNvMs4_NtNtCsaNl6UpbT7bw_4core5slice4iterINtB5_4IterRNtCshnvkK9b4wzu_11proc_macro25IdentE3newCs87DMVckFIdB_12serde_derive, symObjAddr: 0x498C, symBinAddr: 0x365C8, symSize: 0x50 }
  - { offset: 0x59C23, size: 0x8, addend: 0x0, symName: __RNvMs4_NtNtCsaNl6UpbT7bw_4core5slice4iterINtB5_4IterRNtNtCsc29TF2YcYso_3syn2ty4TypeE3newCs87DMVckFIdB_12serde_derive, symObjAddr: 0x49DC, symBinAddr: 0x36618, symSize: 0x50 }
  - { offset: 0x59DED, size: 0x8, addend: 0x0, symName: __RNvMs4_NtNtCsaNl6UpbT7bw_4core5slice4iterINtB5_4IterRNtNtCsc29TF2YcYso_3syn4expr6MemberE3newCs87DMVckFIdB_12serde_derive, symObjAddr: 0x4A2C, symBinAddr: 0x36668, symSize: 0x50 }
  - { offset: 0x59F9D, size: 0x8, addend: 0x0, symName: __RNvMs4_NtNtCsaNl6UpbT7bw_4core5slice4iterINtB5_4IterTRNtNtNtCs87DMVckFIdB_12serde_derive9internals3ast5FieldNtCshnvkK9b4wzu_11proc_macro25IdentEE3newBW_, symObjAddr: 0x4A7C, symBinAddr: 0x366B8, symSize: 0x50 }
  - { offset: 0x5A1A3, size: 0x8, addend: 0x0, symName: __RNvMs4_NtNtCsaNl6UpbT7bw_4core5slice4iterINtB5_4IterTReNtNtNtCs87DMVckFIdB_12serde_derive9internals4case10RenameRuleEE3newBX_, symObjAddr: 0x4ACC, symBinAddr: 0x36708, symSize: 0x58 }
  - { offset: 0x5A36D, size: 0x8, addend: 0x0, symName: __RNvMsa_NtNtCsaNl6UpbT7bw_4core5slice4iterINtB5_7IterMutTNtNtCsc29TF2YcYso_3syn2ty4TypeNtNtBW_5token5CommaEE3newCs87DMVckFIdB_12serde_derive, symObjAddr: 0x4B24, symBinAddr: 0x36760, symSize: 0x58 }
  - { offset: 0x5A537, size: 0x8, addend: 0x0, symName: __RNvMsa_NtNtCsaNl6UpbT7bw_4core5slice4iterINtB5_7IterMutTNtNtCsc29TF2YcYso_3syn2ty9BareFnArgNtNtBW_5token5CommaEE3newCs87DMVckFIdB_12serde_derive, symObjAddr: 0x4B7C, symBinAddr: 0x367B8, symSize: 0x58 }
  - { offset: 0x5A701, size: 0x8, addend: 0x0, symName: __RNvMsa_NtNtCsaNl6UpbT7bw_4core5slice4iterINtB5_7IterMutTNtNtCsc29TF2YcYso_3syn4data7VariantNtNtBW_5token5CommaEE3newCs87DMVckFIdB_12serde_derive, symObjAddr: 0x4BD4, symBinAddr: 0x36810, symSize: 0x58 }
  - { offset: 0x5A8CB, size: 0x8, addend: 0x0, symName: __RNvMsa_NtNtCsaNl6UpbT7bw_4core5slice4iterINtB5_7IterMutTNtNtCsc29TF2YcYso_3syn4expr4ExprNtNtBW_5token5CommaEE3newCs87DMVckFIdB_12serde_derive, symObjAddr: 0x4C2C, symBinAddr: 0x36868, symSize: 0x58 }
  - { offset: 0x5AA95, size: 0x8, addend: 0x0, symName: __RNvMsa_NtNtCsaNl6UpbT7bw_4core5slice4iterINtB5_7IterMutTNtNtCsc29TF2YcYso_3syn4path15GenericArgumentNtNtBW_5token5CommaEE3newCs87DMVckFIdB_12serde_derive, symObjAddr: 0x4C84, symBinAddr: 0x368C0, symSize: 0x58 }
  - { offset: 0x5AC5F, size: 0x8, addend: 0x0, symName: __RNvMsa_NtNtCsaNl6UpbT7bw_4core5slice4iterINtB5_7IterMutTNtNtCsc29TF2YcYso_3syn8generics14TypeParamBoundNtNtBW_5token4PlusEE3newCs87DMVckFIdB_12serde_derive, symObjAddr: 0x4CDC, symBinAddr: 0x36918, symSize: 0x50 }
  - { offset: 0x5AE29, size: 0x8, addend: 0x0, symName: __RNvMsa_NtNtCsaNl6UpbT7bw_4core5slice4iterINtB5_7IterMutTNtNtCsc29TF2YcYso_3syn8generics14WherePredicateNtNtBW_5token5CommaEE3newCs87DMVckFIdB_12serde_derive, symObjAddr: 0x4D2C, symBinAddr: 0x36968, symSize: 0x58 }
  - { offset: 0x5C9EF, size: 0x8, addend: 0x0, symName: __RINvMsi_NtCsiTraAjBDcu4_5alloc3vecINtB6_3VecNtCshnvkK9b4wzu_11proc_macro211TokenStreamE14extend_trustedINtNtNtNtCsaNl6UpbT7bw_4core4iter8adapters3map3MapINtNtB1I_9enumerate9EnumerateINtNtNtB1M_5slice4iter4IterNtNtNtCs87DMVckFIdB_12serde_derive9internals3ast7VariantEENCNvNtB3r_3ser14serialize_enum0EEB3r_, symObjAddr: 0x0, symBinAddr: 0x38B78, symSize: 0x190 }
  - { offset: 0x64755, size: 0x8, addend: 0x0, symName: __RNvXs1_NtCsaNl6UpbT7bw_4core7convertINtNtCsiTraAjBDcu4_5alloc3vec3VecNtNtCsc29TF2YcYso_3syn8generics14WherePredicateEINtB5_4IntoINtNtB7_6option6OptionBy_EE4intoCs87DMVckFIdB_12serde_derive, symObjAddr: 0x67C0, symBinAddr: 0x3F338, symSize: 0x14 }
  - { offset: 0x68D7E, size: 0x8, addend: 0x0, symName: __RINvXsd_NtCsiTraAjBDcu4_5alloc3vecINtB6_3VecNtCshnvkK9b4wzu_11proc_macro211TokenStreamEINtNtNtNtCsaNl6UpbT7bw_4core4iter6traits7collect12FromIteratorBG_E9from_iterINtNtNtB1u_8adapters10filter_map9FilterMapINtNtB2G_6filter6FilterINtNtB2G_9enumerate9EnumerateINtNtNtB1w_5slice4iter4IterNtNtNtCs87DMVckFIdB_12serde_derive9internals3ast7VariantEENCNvNtNtB4E_2de15enum_adjacently11deserializes0_0ENCB5w_s1_0EEB4E_, symObjAddr: 0x29B0, symBinAddr: 0x3B528, symSize: 0x3C }
  - { offset: 0x68DBF, size: 0x8, addend: 0x0, symName: __RINvXsd_NtCsiTraAjBDcu4_5alloc3vecINtB6_3VecNtCshnvkK9b4wzu_11proc_macro211TokenStreamEINtNtNtNtCsaNl6UpbT7bw_4core4iter6traits7collect12FromIteratorBG_E9from_iterINtNtNtB1u_8adapters10filter_map9FilterMapINtNtNtB1w_5slice4iter4IterNtNtNtCs87DMVckFIdB_12serde_derive9internals3ast7VariantENCNvNtB3O_7pretend24pretend_fields_used_enum0EEB3O_, symObjAddr: 0x29EC, symBinAddr: 0x3B564, symSize: 0x3C }
  - { offset: 0x68E00, size: 0x8, addend: 0x0, symName: __RINvXsd_NtCsiTraAjBDcu4_5alloc3vecINtB6_3VecNtCshnvkK9b4wzu_11proc_macro211TokenStreamEINtNtNtNtCsaNl6UpbT7bw_4core4iter6traits7collect12FromIteratorBG_E9from_iterINtNtNtB1u_8adapters3map3MapINtNtB2G_6filter6FilterINtNtB2G_9enumerate9EnumerateINtNtNtB1w_5slice4iter4IterNtNtNtCs87DMVckFIdB_12serde_derive9internals3ast5FieldEENCNvNtB4q_3ser30serialize_tuple_struct_visitor0ENCB5g_s_0EEB4q_, symObjAddr: 0x2A28, symBinAddr: 0x3B5A0, symSize: 0x3C }
  - { offset: 0x68E41, size: 0x8, addend: 0x0, symName: __RINvXsd_NtCsiTraAjBDcu4_5alloc3vecINtB6_3VecNtCshnvkK9b4wzu_11proc_macro211TokenStreamEINtNtNtNtCsaNl6UpbT7bw_4core4iter6traits7collect12FromIteratorBG_E9from_iterINtNtNtB1u_8adapters3map3MapINtNtB2G_6filter6FilterINtNtB2G_9enumerate9EnumerateINtNtNtB1w_5slice4iter4IterNtNtNtCs87DMVckFIdB_12serde_derive9internals3ast7VariantEENCNvNtNtB4q_2de15enum_adjacently11deserialize0ENCB5i_s_0EEB4q_, symObjAddr: 0x2A64, symBinAddr: 0x3B5DC, symSize: 0x3C }
  - { offset: 0x68E82, size: 0x8, addend: 0x0, symName: __RINvXsd_NtCsiTraAjBDcu4_5alloc3vecINtB6_3VecNtCshnvkK9b4wzu_11proc_macro211TokenStreamEINtNtNtNtCsaNl6UpbT7bw_4core4iter6traits7collect12FromIteratorBG_E9from_iterINtNtNtB1u_8adapters3map3MapINtNtB2G_6filter6FilterINtNtNtB1w_5slice4iter4IterNtNtNtCs87DMVckFIdB_12serde_derive9internals3ast5FieldENCNvNtB3X_3ser24serialize_struct_visitor0ENCB4M_s_0EEB3X_, symObjAddr: 0x2AA0, symBinAddr: 0x3B618, symSize: 0x3C }
  - { offset: 0x68EC3, size: 0x8, addend: 0x0, symName: __RINvXsd_NtCsiTraAjBDcu4_5alloc3vecINtB6_3VecNtCshnvkK9b4wzu_11proc_macro211TokenStreamEINtNtNtNtCsaNl6UpbT7bw_4core4iter6traits7collect12FromIteratorBG_E9from_iterINtNtNtB1u_8adapters3map3MapINtNtB2G_9enumerate9EnumerateINtNtNtB1w_5slice4iter4IterNtNtNtCs87DMVckFIdB_12serde_derive9internals3ast7VariantEENCNvNtB43_3ser14serialize_enum0EEB43_, symObjAddr: 0x2ADC, symBinAddr: 0x3B654, symSize: 0x3C }
  - { offset: 0x68F04, size: 0x8, addend: 0x0, symName: __RINvXsd_NtCsiTraAjBDcu4_5alloc3vecINtB6_3VecNtCshnvkK9b4wzu_11proc_macro211TokenStreamEINtNtNtNtCsaNl6UpbT7bw_4core4iter6traits7collect12FromIteratorBG_E9from_iterINtNtNtB1u_8adapters3map3MapINtNtNtB1w_5slice4iter4IterNtNtNtCs87DMVckFIdB_12serde_derive9internals3ast5FieldENCNvNtB3A_3ser27wrap_serialize_variant_withs_0EEB3A_, symObjAddr: 0x2B18, symBinAddr: 0x3B690, symSize: 0x40 }
  - { offset: 0x68F44, size: 0x8, addend: 0x0, symName: __RINvXsd_NtCsiTraAjBDcu4_5alloc3vecINtB6_3VecNtCshnvkK9b4wzu_11proc_macro25IdentEINtNtNtNtCsaNl6UpbT7bw_4core4iter6traits7collect12FromIteratorBG_E9from_iterINtNtNtB1n_8adapters3map3MapINtNtNtB1p_3ops5range5RangejENCNCNvNtCs87DMVckFIdB_12serde_derive7pretend21pretend_variants_used00EEB3x_, symObjAddr: 0x2B58, symBinAddr: 0x3B6D0, symSize: 0x38 }
  - { offset: 0x68F84, size: 0x8, addend: 0x0, symName: __RINvXsd_NtCsiTraAjBDcu4_5alloc3vecINtB6_3VecNtNtCs87DMVckFIdB_12serde_derive2de16FieldWithAliasesEINtNtNtNtCsaNl6UpbT7bw_4core4iter6traits7collect12FromIteratorBG_E9from_iterINtNtNtB1F_8adapters3map3MapINtNtB2R_6filter6FilterINtNtB2R_9enumerate9EnumerateINtNtNtB1H_5slice4iter4IterNtNtNtBK_9internals3ast5FieldEENCNvNtBI_7struct_11deserialize0ENCB52_s_0EEBK_, symObjAddr: 0x2B90, symBinAddr: 0x3B708, symSize: 0x3C }
  - { offset: 0x68FC5, size: 0x8, addend: 0x0, symName: __RINvXsd_NtCsiTraAjBDcu4_5alloc3vecINtB6_3VecNtNtCs87DMVckFIdB_12serde_derive2de16FieldWithAliasesEINtNtNtNtCsaNl6UpbT7bw_4core4iter6traits7collect12FromIteratorBG_E9from_iterINtNtNtB1F_8adapters3map3MapINtNtB2R_6filter6FilterINtNtB2R_9enumerate9EnumerateINtNtNtB1H_5slice4iter4IterNtNtNtBK_9internals3ast7VariantEENCNvNtBI_5enum_25prepare_enum_variant_enum0ENCB54_s2_0EEBK_, symObjAddr: 0x2BCC, symBinAddr: 0x3B744, symSize: 0x3C }
  - { offset: 0x69006, size: 0x8, addend: 0x0, symName: __RINvXsd_NtCsiTraAjBDcu4_5alloc3vecINtB6_3VecNtNtCs87DMVckFIdB_12serde_derive2de16FieldWithAliasesEINtNtNtNtCsaNl6UpbT7bw_4core4iter6traits7collect12FromIteratorBG_E9from_iterINtNtNtB1F_8adapters3map3MapINtNtNtB1H_5slice4iter4IterNtNtNtBK_9internals3ast7VariantENCNvNtBI_10identifier18deserialize_customs_0EEBK_, symObjAddr: 0x2C08, symBinAddr: 0x3B780, symSize: 0x40 }
  - { offset: 0x69046, size: 0x8, addend: 0x0, symName: __RINvXsd_NtCsiTraAjBDcu4_5alloc3vecINtB6_3VecNtNtCsc29TF2YcYso_3syn4expr6MemberEINtNtNtNtCsaNl6UpbT7bw_4core4iter6traits7collect12FromIteratorBG_E9from_iterINtNtNtB1m_8adapters3map3MapINtNtNtB1o_3ops5range5RangejENCNvNtCs87DMVckFIdB_12serde_derive3ser35serialize_adjacently_tagged_variants_0EEB3u_, symObjAddr: 0x2C48, symBinAddr: 0x3B7C0, symSize: 0x38 }
  - { offset: 0x69086, size: 0x8, addend: 0x0, symName: __RINvXsd_NtCsiTraAjBDcu4_5alloc3vecINtB6_3VecNtNtCsc29TF2YcYso_3syn4expr6MemberEINtNtNtNtCsaNl6UpbT7bw_4core4iter6traits7collect12FromIteratorBG_E9from_iterINtNtNtB1m_8adapters3map3MapINtNtNtB1o_5slice4iter4IterNtNtNtCs87DMVckFIdB_12serde_derive9internals3ast5FieldENCNvNtB3s_3ser35serialize_adjacently_tagged_variants0_0EEB3s_, symObjAddr: 0x2C80, symBinAddr: 0x3B7F8, symSize: 0x40 }
  - { offset: 0x690C6, size: 0x8, addend: 0x0, symName: __RINvXsd_NtCsiTraAjBDcu4_5alloc3vecINtB6_3VecNtNtCsc29TF2YcYso_3syn8generics14WherePredicateEINtNtNtNtCsaNl6UpbT7bw_4core4iter6traits7collect12FromIteratorBG_E9from_iterINtNtBK_10punctuated10PunctuatedBG_NtNtBK_5token5CommaEECs87DMVckFIdB_12serde_derive, symObjAddr: 0x2CC0, symBinAddr: 0x3B838, symSize: 0x3C }
  - { offset: 0x69107, size: 0x8, addend: 0x0, symName: __RINvXsd_NtCsiTraAjBDcu4_5alloc3vecINtB6_3VecNtNtNtCs87DMVckFIdB_12serde_derive9internals3ast5FieldEINtNtNtNtCsaNl6UpbT7bw_4core4iter6traits7collect12FromIteratorBG_E9from_iterINtNtNtB1G_8adapters3map3MapINtNtB2S_9enumerate9EnumerateINtNtCsc29TF2YcYso_3syn10punctuated4IterNtNtB3N_4data5FieldEENCNvBI_15fields_from_ast0EEBM_, symObjAddr: 0x2CFC, symBinAddr: 0x3B874, symSize: 0x3C }
  - { offset: 0x69148, size: 0x8, addend: 0x0, symName: __RINvXsd_NtCsiTraAjBDcu4_5alloc3vecINtB6_3VecNtNtNtCs87DMVckFIdB_12serde_derive9internals3ast7VariantEINtNtNtNtCsaNl6UpbT7bw_4core4iter6traits7collect12FromIteratorBG_E9from_iterINtNtNtB1I_8adapters3map3MapINtNtCsc29TF2YcYso_3syn10punctuated4IterNtNtB3m_4data7VariantENCNvBI_13enum_from_ast0EEBM_, symObjAddr: 0x2D38, symBinAddr: 0x3B8B0, symSize: 0x3C }
  - { offset: 0x69189, size: 0x8, addend: 0x0, symName: __RINvXsd_NtCsiTraAjBDcu4_5alloc3vecINtB6_3VecRNtCshnvkK9b4wzu_11proc_macro25IdentEINtNtNtNtCsaNl6UpbT7bw_4core4iter6traits7collect12FromIteratorBG_E9from_iterINtNtNtB1o_8adapters3map3MapINtNtNtB1q_5slice4iter4IterNtNtCs87DMVckFIdB_12serde_derive2de16FieldWithAliasesENCNvNtB3q_10identifier21deserialize_generated0EEB3s_, symObjAddr: 0x2D74, symBinAddr: 0x3B8EC, symSize: 0x40 }
  - { offset: 0x691C9, size: 0x8, addend: 0x0, symName: __RINvXsd_NtCsiTraAjBDcu4_5alloc3vecINtB6_3VecRNtNtCsc29TF2YcYso_3syn2ty4TypeEINtNtNtNtCsaNl6UpbT7bw_4core4iter6traits7collect12FromIteratorBG_E9from_iterINtNtNtB1j_8adapters3map3MapINtNtNtB1l_5slice4iter4IterNtNtNtCs87DMVckFIdB_12serde_derive9internals3ast5FieldENCNvNtB3p_3ser27wrap_serialize_variant_with0EEB3p_, symObjAddr: 0x2DB4, symBinAddr: 0x3B92C, symSize: 0x40 }
  - { offset: 0x69209, size: 0x8, addend: 0x0, symName: __RINvXsd_NtCsiTraAjBDcu4_5alloc3vecINtB6_3VecRNtNtCsc29TF2YcYso_3syn4expr6MemberEINtNtNtNtCsaNl6UpbT7bw_4core4iter6traits7collect12FromIteratorBG_E9from_iterINtNtNtB1n_8adapters3map3MapINtNtNtB1p_5slice4iter4IterNtNtNtCs87DMVckFIdB_12serde_derive9internals3ast5FieldENCNvNtB3t_3ser37serialize_struct_variant_with_flattens0_0EEB3t_, symObjAddr: 0x2DF4, symBinAddr: 0x3B96C, symSize: 0x40 }
  - { offset: 0x69249, size: 0x8, addend: 0x0, symName: __RINvXsd_NtCsiTraAjBDcu4_5alloc3vecINtB6_3VecRNtNtCsc29TF2YcYso_3syn4expr6MemberEINtNtNtNtCsaNl6UpbT7bw_4core4iter6traits7collect12FromIteratorBG_E9from_iterINtNtNtB1n_8adapters3map3MapINtNtNtB1p_5slice4iter4IterNtNtNtCs87DMVckFIdB_12serde_derive9internals3ast5FieldENCNvNtB3t_7pretend33pretend_fields_used_struct_packed0EEB3t_, symObjAddr: 0x2E34, symBinAddr: 0x3B9AC, symSize: 0x40 }
  - { offset: 0x69289, size: 0x8, addend: 0x0, symName: __RINvXsd_NtCsiTraAjBDcu4_5alloc3vecINtB6_3VecTRNtNtNtCs87DMVckFIdB_12serde_derive9internals3ast5FieldNtCshnvkK9b4wzu_11proc_macro25IdentEEINtNtNtNtCsaNl6UpbT7bw_4core4iter6traits7collect12FromIteratorBG_E9from_iterINtNtNtB2i_8adapters3map3MapINtNtB3u_9enumerate9EnumerateINtNtNtB2k_5slice4iter4IterBI_EENCNvNtNtBO_2de7struct_15deserialize_map0EEBO_, symObjAddr: 0x2E74, symBinAddr: 0x3B9EC, symSize: 0x3C }
  - { offset: 0x692CA, size: 0x8, addend: 0x0, symName: __RINvXsd_NtCsiTraAjBDcu4_5alloc3vecINtB6_3VechEINtNtNtNtCsaNl6UpbT7bw_4core4iter6traits7collect12FromIteratorhE9from_iterINtNtNtBP_8adapters3map3MapINtNtNtBR_5slice4iter4IterhENCNvNtB8_3str13replace_ascii0EECs87DMVckFIdB_12serde_derive, symObjAddr: 0x2EB0, symBinAddr: 0x3BA28, symSize: 0x3C }
  - { offset: 0x69311, size: 0x8, addend: 0x0, symName: __RINvXsh_NtCsiTraAjBDcu4_5alloc3vecINtB6_3VecNtNtCsc29TF2YcYso_3syn8generics12GenericParamEINtNtNtNtCsaNl6UpbT7bw_4core4iter6traits7collect6ExtendBG_E6extendINtNtB1z_6option6OptionBG_EECs87DMVckFIdB_12serde_derive, symObjAddr: 0x2EEC, symBinAddr: 0x3BA64, symSize: 0x50 }
  - { offset: 0x69366, size: 0x8, addend: 0x0, symName: __RINvXsh_NtCsiTraAjBDcu4_5alloc3vecINtB6_3VecNtNtCsc29TF2YcYso_3syn8generics12GenericParamEINtNtNtNtCsaNl6UpbT7bw_4core4iter6traits7collect6ExtendBG_E6extendINtNtNtB1x_8adapters3map3MapINtNtB6_9into_iter8IntoIterTBG_NtNtBK_5token5CommaEENCNvXs8_NtBK_10punctuatedINtB3U_10PunctuatedBG_B3r_ENtB1t_12IntoIterator9into_iter0EECs87DMVckFIdB_12serde_derive, symObjAddr: 0x2F3C, symBinAddr: 0x3BAB4, symSize: 0x48 }
  - { offset: 0x693BB, size: 0x8, addend: 0x0, symName: __RINvXsh_NtCsiTraAjBDcu4_5alloc3vecINtB6_3VecNtNtCsc29TF2YcYso_3syn8generics14WherePredicateEINtNtNtNtCsaNl6UpbT7bw_4core4iter6traits7collect6ExtendBG_E6extendINtNtB1B_6option6OptionBG_EECs87DMVckFIdB_12serde_derive, symObjAddr: 0x2F84, symBinAddr: 0x3BAFC, symSize: 0x50 }
  - { offset: 0x69410, size: 0x8, addend: 0x0, symName: __RINvXsh_NtCsiTraAjBDcu4_5alloc3vecINtB6_3VecNtNtCsc29TF2YcYso_3syn8generics14WherePredicateEINtNtNtNtCsaNl6UpbT7bw_4core4iter6traits7collect6ExtendBG_E6extendINtNtNtB1z_8adapters3map3MapINtNtB6_9into_iter8IntoIterTBG_NtNtBK_5token5CommaEENCNvXs8_NtBK_10punctuatedINtB3W_10PunctuatedBG_B3t_ENtB1v_12IntoIterator9into_iter0EECs87DMVckFIdB_12serde_derive, symObjAddr: 0x2FD4, symBinAddr: 0x3BB4C, symSize: 0x48 }
  - { offset: 0x69470, size: 0x8, addend: 0x0, symName: __RNCINvMsi_NtCsiTraAjBDcu4_5alloc3vecINtB8_3VecNtCshnvkK9b4wzu_11proc_macro211TokenStreamE14extend_trustedINtNtNtNtCsaNl6UpbT7bw_4core4iter8adapters3map3MapINtNtB1K_9enumerate9EnumerateINtNtNtB1O_5slice4iter4IterNtNtNtCs87DMVckFIdB_12serde_derive9internals3ast7VariantEENCNvNtB3t_3ser14serialize_enum0EE0B3t_, symObjAddr: 0x301C, symBinAddr: 0x3BB94, symSize: 0x3C }
  - { offset: 0x69525, size: 0x8, addend: 0x0, symName: __RNCINvMsi_NtCsiTraAjBDcu4_5alloc3vecINtB8_3VecNtCshnvkK9b4wzu_11proc_macro211TokenStreamE14extend_trustedINtNtNtNtCsaNl6UpbT7bw_4core4iter8adapters3map3MapINtNtNtB1O_5slice4iter4IterNtNtNtCs87DMVckFIdB_12serde_derive9internals3ast5FieldENCNvNtB30_3ser27wrap_serialize_variant_withs_0EE0B30_, symObjAddr: 0x3058, symBinAddr: 0x3BBD0, symSize: 0x3C }
  - { offset: 0x695DA, size: 0x8, addend: 0x0, symName: __RNCINvMsi_NtCsiTraAjBDcu4_5alloc3vecINtB8_3VecNtCshnvkK9b4wzu_11proc_macro25IdentE14extend_trustedINtNtNtNtCsaNl6UpbT7bw_4core4iter8adapters3map3MapINtNtNtB1H_3ops5range5RangejENCNCNvNtCs87DMVckFIdB_12serde_derive7pretend21pretend_variants_used00EE0B2X_, symObjAddr: 0x3094, symBinAddr: 0x3BC0C, symSize: 0x44 }
  - { offset: 0x69687, size: 0x8, addend: 0x0, symName: __RNCINvMsi_NtCsiTraAjBDcu4_5alloc3vecINtB8_3VecNtNtCs87DMVckFIdB_12serde_derive2de16FieldWithAliasesE14extend_trustedINtNtNtNtCsaNl6UpbT7bw_4core4iter8adapters3map3MapINtNtNtB1Z_5slice4iter4IterNtNtNtBM_9internals3ast7VariantENCNvNtBK_10identifier18deserialize_customs_0EE0BM_, symObjAddr: 0x30D8, symBinAddr: 0x3BC50, symSize: 0x3C }
  - { offset: 0x6973C, size: 0x8, addend: 0x0, symName: __RNCINvMsi_NtCsiTraAjBDcu4_5alloc3vecINtB8_3VecNtNtCsc29TF2YcYso_3syn4expr6MemberE14extend_trustedINtNtNtNtCsaNl6UpbT7bw_4core4iter8adapters3map3MapINtNtNtB1G_3ops5range5RangejENCNvNtCs87DMVckFIdB_12serde_derive3ser35serialize_adjacently_tagged_variants_0EE0B2U_, symObjAddr: 0x3114, symBinAddr: 0x3BC8C, symSize: 0x44 }
  - { offset: 0x697E9, size: 0x8, addend: 0x0, symName: __RNCINvMsi_NtCsiTraAjBDcu4_5alloc3vecINtB8_3VecNtNtCsc29TF2YcYso_3syn4expr6MemberE14extend_trustedINtNtNtNtCsaNl6UpbT7bw_4core4iter8adapters3map3MapINtNtNtB1G_5slice4iter4IterNtNtNtCs87DMVckFIdB_12serde_derive9internals3ast5FieldENCNvNtB2S_3ser35serialize_adjacently_tagged_variants0_0EE0B2S_, symObjAddr: 0x3158, symBinAddr: 0x3BCD0, symSize: 0x44 }
  - { offset: 0x69896, size: 0x8, addend: 0x0, symName: __RNCINvMsi_NtCsiTraAjBDcu4_5alloc3vecINtB8_3VecNtNtCsc29TF2YcYso_3syn8generics12GenericParamE14extend_trustedINtNtCsaNl6UpbT7bw_4core6option8IntoIterBI_EE0Cs87DMVckFIdB_12serde_derive, symObjAddr: 0x319C, symBinAddr: 0x3BD14, symSize: 0x54 }
  - { offset: 0x69954, size: 0x8, addend: 0x0, symName: __RNCINvMsi_NtCsiTraAjBDcu4_5alloc3vecINtB8_3VecNtNtCsc29TF2YcYso_3syn8generics12GenericParamE14extend_trustedINtNtNtNtCsaNl6UpbT7bw_4core4iter8adapters3map3MapINtNtB8_9into_iter8IntoIterTBI_NtNtBM_5token5CommaEENCNvXs8_NtBM_10punctuatedINtB3u_10PunctuatedBI_B31_ENtNtNtB1P_6traits7collect12IntoIterator9into_iter0EE0Cs87DMVckFIdB_12serde_derive, symObjAddr: 0x31F0, symBinAddr: 0x3BD68, symSize: 0x54 }
  - { offset: 0x69A12, size: 0x8, addend: 0x0, symName: __RNCINvMsi_NtCsiTraAjBDcu4_5alloc3vecINtB8_3VecNtNtCsc29TF2YcYso_3syn8generics14WherePredicateE14extend_trustedINtNtCsaNl6UpbT7bw_4core6option8IntoIterBI_EE0Cs87DMVckFIdB_12serde_derive, symObjAddr: 0x3244, symBinAddr: 0x3BDBC, symSize: 0x54 }
  - { offset: 0x69AD0, size: 0x8, addend: 0x0, symName: __RNCINvMsi_NtCsiTraAjBDcu4_5alloc3vecINtB8_3VecNtNtCsc29TF2YcYso_3syn8generics14WherePredicateE14extend_trustedINtNtNtNtCsaNl6UpbT7bw_4core4iter8adapters3map3MapINtNtB8_9into_iter8IntoIterTBI_NtNtBM_5token5CommaEENCNvXs8_NtBM_10punctuatedINtB3w_10PunctuatedBI_B33_ENtNtNtB1R_6traits7collect12IntoIterator9into_iter0EE0Cs87DMVckFIdB_12serde_derive, symObjAddr: 0x3298, symBinAddr: 0x3BE10, symSize: 0x54 }
  - { offset: 0x69B8E, size: 0x8, addend: 0x0, symName: __RNCINvMsi_NtCsiTraAjBDcu4_5alloc3vecINtB8_3VecRNtCshnvkK9b4wzu_11proc_macro25IdentE14extend_trustedINtNtNtNtCsaNl6UpbT7bw_4core4iter8adapters3map3MapINtNtNtB1I_5slice4iter4IterNtNtCs87DMVckFIdB_12serde_derive2de16FieldWithAliasesENCNvNtB2Q_10identifier21deserialize_generated0EE0B2S_, symObjAddr: 0x32EC, symBinAddr: 0x3BE64, symSize: 0x34 }
  - { offset: 0x69C36, size: 0x8, addend: 0x0, symName: __RNCINvMsi_NtCsiTraAjBDcu4_5alloc3vecINtB8_3VecRNtNtCsc29TF2YcYso_3syn2ty4TypeE14extend_trustedINtNtNtNtCsaNl6UpbT7bw_4core4iter8adapters3map3MapINtNtNtB1D_5slice4iter4IterNtNtNtCs87DMVckFIdB_12serde_derive9internals3ast5FieldENCNvNtB2P_3ser27wrap_serialize_variant_with0EE0B2P_, symObjAddr: 0x3320, symBinAddr: 0x3BE98, symSize: 0x34 }
  - { offset: 0x69CDE, size: 0x8, addend: 0x0, symName: __RNCINvMsi_NtCsiTraAjBDcu4_5alloc3vecINtB8_3VecRNtNtCsc29TF2YcYso_3syn4expr6MemberE14extend_trustedINtNtNtNtCsaNl6UpbT7bw_4core4iter8adapters3map3MapINtNtNtB1H_5slice4iter4IterNtNtNtCs87DMVckFIdB_12serde_derive9internals3ast5FieldENCNvNtB2T_3ser37serialize_struct_variant_with_flattens0_0EE0B2T_, symObjAddr: 0x3354, symBinAddr: 0x3BECC, symSize: 0x34 }
  - { offset: 0x69D86, size: 0x8, addend: 0x0, symName: __RNCINvMsi_NtCsiTraAjBDcu4_5alloc3vecINtB8_3VecRNtNtCsc29TF2YcYso_3syn4expr6MemberE14extend_trustedINtNtNtNtCsaNl6UpbT7bw_4core4iter8adapters3map3MapINtNtNtB1H_5slice4iter4IterNtNtNtCs87DMVckFIdB_12serde_derive9internals3ast5FieldENCNvNtB2T_7pretend33pretend_fields_used_struct_packed0EE0B2T_, symObjAddr: 0x3388, symBinAddr: 0x3BF00, symSize: 0x34 }
  - { offset: 0x69E2E, size: 0x8, addend: 0x0, symName: __RNCINvMsi_NtCsiTraAjBDcu4_5alloc3vecINtB8_3VecTRNtNtNtCs87DMVckFIdB_12serde_derive9internals3ast5FieldNtCshnvkK9b4wzu_11proc_macro25IdentEE14extend_trustedINtNtNtNtCsaNl6UpbT7bw_4core4iter8adapters3map3MapINtNtB2y_9enumerate9EnumerateINtNtNtB2C_5slice4iter4IterBK_EENCNvNtNtBQ_2de7struct_15deserialize_map0EE0BQ_, symObjAddr: 0x33BC, symBinAddr: 0x3BF34, symSize: 0x3C }
  - { offset: 0x69EE3, size: 0x8, addend: 0x0, symName: __RNCINvMsi_NtCsiTraAjBDcu4_5alloc3vecINtB8_3VechE14extend_trustedINtNtNtNtCsaNl6UpbT7bw_4core4iter8adapters3map3MapINtNtNtB19_5slice4iter4IterhENCNvNtBa_3str13replace_ascii0EE0Cs87DMVckFIdB_12serde_derive, symObjAddr: 0x33F8, symBinAddr: 0x3BF70, symSize: 0x30 }
  - { offset: 0x6A3B3, size: 0x8, addend: 0x0, symName: __RNvXNtNtCsiTraAjBDcu4_5alloc3vec11spec_extendINtB4_3VecNtCshnvkK9b4wzu_11proc_macro211TokenStreamEINtB2_10SpecExtendBR_INtNtNtNtCsaNl6UpbT7bw_4core4iter8adapters10filter_map9FilterMapINtNtB1Y_6filter6FilterINtNtB1Y_9enumerate9EnumerateINtNtNtB22_5slice4iter4IterNtNtNtCs87DMVckFIdB_12serde_derive9internals3ast7VariantEENCNvNtNtB4i_2de15enum_adjacently11deserializes0_0ENCB5a_s1_0EE11spec_extendB4i_, symObjAddr: 0x4E34, symBinAddr: 0x3D9AC, symSize: 0x24 }
  - { offset: 0x6A405, size: 0x8, addend: 0x0, symName: __RNvXNtNtCsiTraAjBDcu4_5alloc3vec11spec_extendINtB4_3VecNtCshnvkK9b4wzu_11proc_macro211TokenStreamEINtB2_10SpecExtendBR_INtNtNtNtCsaNl6UpbT7bw_4core4iter8adapters10filter_map9FilterMapINtNtNtB22_5slice4iter4IterNtNtNtCs87DMVckFIdB_12serde_derive9internals3ast7VariantENCNvNtB3s_7pretend24pretend_fields_used_enum0EE11spec_extendB3s_, symObjAddr: 0x4E58, symBinAddr: 0x3D9D0, symSize: 0x24 }
  - { offset: 0x6A457, size: 0x8, addend: 0x0, symName: __RNvXNtNtCsiTraAjBDcu4_5alloc3vec11spec_extendINtB4_3VecNtCshnvkK9b4wzu_11proc_macro211TokenStreamEINtB2_10SpecExtendBR_INtNtNtNtCsaNl6UpbT7bw_4core4iter8adapters3map3MapINtNtB1Y_6filter6FilterINtNtB1Y_9enumerate9EnumerateINtNtNtB22_5slice4iter4IterNtNtNtCs87DMVckFIdB_12serde_derive9internals3ast5FieldEENCNvNtB44_3ser30serialize_tuple_struct_visitor0ENCB4U_s_0EE11spec_extendB44_, symObjAddr: 0x4E7C, symBinAddr: 0x3D9F4, symSize: 0x24 }
  - { offset: 0x6A4A9, size: 0x8, addend: 0x0, symName: __RNvXNtNtCsiTraAjBDcu4_5alloc3vec11spec_extendINtB4_3VecNtCshnvkK9b4wzu_11proc_macro211TokenStreamEINtB2_10SpecExtendBR_INtNtNtNtCsaNl6UpbT7bw_4core4iter8adapters3map3MapINtNtB1Y_6filter6FilterINtNtB1Y_9enumerate9EnumerateINtNtNtB22_5slice4iter4IterNtNtNtCs87DMVckFIdB_12serde_derive9internals3ast7VariantEENCNvNtNtB44_2de15enum_adjacently11deserialize0ENCB4W_s_0EE11spec_extendB44_, symObjAddr: 0x4EA0, symBinAddr: 0x3DA18, symSize: 0x24 }
  - { offset: 0x6A4FB, size: 0x8, addend: 0x0, symName: __RNvXNtNtCsiTraAjBDcu4_5alloc3vec11spec_extendINtB4_3VecNtCshnvkK9b4wzu_11proc_macro211TokenStreamEINtB2_10SpecExtendBR_INtNtNtNtCsaNl6UpbT7bw_4core4iter8adapters3map3MapINtNtB1Y_6filter6FilterINtNtNtB22_5slice4iter4IterNtNtNtCs87DMVckFIdB_12serde_derive9internals3ast5FieldENCNvNtB3B_3ser24serialize_struct_visitor0ENCB4q_s_0EE11spec_extendB3B_, symObjAddr: 0x4EC4, symBinAddr: 0x3DA3C, symSize: 0x24 }
  - { offset: 0x6A54D, size: 0x8, addend: 0x0, symName: __RNvXNtNtCsiTraAjBDcu4_5alloc3vec11spec_extendINtB4_3VecNtNtCs87DMVckFIdB_12serde_derive2de16FieldWithAliasesEINtB2_10SpecExtendBR_INtNtNtNtCsaNl6UpbT7bw_4core4iter8adapters3map3MapINtNtB29_6filter6FilterINtNtB29_9enumerate9EnumerateINtNtNtB2d_5slice4iter4IterNtNtNtBV_9internals3ast5FieldEENCNvNtBT_7struct_11deserialize0ENCB4G_s_0EE11spec_extendBV_, symObjAddr: 0x4EE8, symBinAddr: 0x3DA60, symSize: 0x24 }
  - { offset: 0x6A59F, size: 0x8, addend: 0x0, symName: __RNvXNtNtCsiTraAjBDcu4_5alloc3vec11spec_extendINtB4_3VecNtNtCs87DMVckFIdB_12serde_derive2de16FieldWithAliasesEINtB2_10SpecExtendBR_INtNtNtNtCsaNl6UpbT7bw_4core4iter8adapters3map3MapINtNtB29_6filter6FilterINtNtB29_9enumerate9EnumerateINtNtNtB2d_5slice4iter4IterNtNtNtBV_9internals3ast7VariantEENCNvNtBT_5enum_25prepare_enum_variant_enum0ENCB4I_s2_0EE11spec_extendBV_, symObjAddr: 0x4F0C, symBinAddr: 0x3DA84, symSize: 0x24 }
  - { offset: 0x6A5F1, size: 0x8, addend: 0x0, symName: __RNvXNtNtCsiTraAjBDcu4_5alloc3vec11spec_extendINtB4_3VecNtNtCsc29TF2YcYso_3syn8generics14WherePredicateEINtB2_10SpecExtendBR_INtNtBV_10punctuated8IntoIterBR_EE11spec_extendCs87DMVckFIdB_12serde_derive, symObjAddr: 0x4F30, symBinAddr: 0x3DAA8, symSize: 0x24 }
  - { offset: 0x6A643, size: 0x8, addend: 0x0, symName: __RNvXNtNtCsiTraAjBDcu4_5alloc3vec11spec_extendINtB4_3VecNtNtNtCs87DMVckFIdB_12serde_derive9internals3ast5FieldEINtB2_10SpecExtendBR_INtNtNtNtCsaNl6UpbT7bw_4core4iter8adapters3map3MapINtNtB2a_9enumerate9EnumerateINtNtCsc29TF2YcYso_3syn10punctuated4IterNtNtB3r_4data5FieldEENCNvBT_15fields_from_ast0EE11spec_extendBX_, symObjAddr: 0x4F54, symBinAddr: 0x3DACC, symSize: 0x24 }
  - { offset: 0x6A695, size: 0x8, addend: 0x0, symName: __RNvXNtNtCsiTraAjBDcu4_5alloc3vec11spec_extendINtB4_3VecNtNtNtCs87DMVckFIdB_12serde_derive9internals3ast7VariantEINtB2_10SpecExtendBR_INtNtNtNtCsaNl6UpbT7bw_4core4iter8adapters3map3MapINtNtCsc29TF2YcYso_3syn10punctuated4IterNtNtB30_4data7VariantENCNvBT_13enum_from_ast0EE11spec_extendBX_, symObjAddr: 0x4F78, symBinAddr: 0x3DAF0, symSize: 0x24 }
  - { offset: 0x6A6ED, size: 0x8, addend: 0x0, symName: __RNvXs_NtNtCsiTraAjBDcu4_5alloc3vec11spec_extendINtB6_3VecNtCshnvkK9b4wzu_11proc_macro211TokenStreamEINtB4_10SpecExtendBT_INtNtNtNtCsaNl6UpbT7bw_4core4iter8adapters3map3MapINtNtB20_9enumerate9EnumerateINtNtNtB24_5slice4iter4IterNtNtNtCs87DMVckFIdB_12serde_derive9internals3ast7VariantEENCNvNtB3J_3ser14serialize_enum0EE11spec_extendB3J_, symObjAddr: 0x6B84, symBinAddr: 0x3F6FC, symSize: 0x24 }
  - { offset: 0x6A73F, size: 0x8, addend: 0x0, symName: __RNvXs_NtNtCsiTraAjBDcu4_5alloc3vec11spec_extendINtB6_3VecNtCshnvkK9b4wzu_11proc_macro211TokenStreamEINtB4_10SpecExtendBT_INtNtNtNtCsaNl6UpbT7bw_4core4iter8adapters3map3MapINtNtNtB24_5slice4iter4IterNtNtNtCs87DMVckFIdB_12serde_derive9internals3ast5FieldENCNvNtB3g_3ser27wrap_serialize_variant_withs_0EE11spec_extendB3g_, symObjAddr: 0x6BA8, symBinAddr: 0x3F720, symSize: 0x34 }
  - { offset: 0x6A790, size: 0x8, addend: 0x0, symName: __RNvXs_NtNtCsiTraAjBDcu4_5alloc3vec11spec_extendINtB6_3VecNtCshnvkK9b4wzu_11proc_macro25IdentEINtB4_10SpecExtendBT_INtNtNtNtCsaNl6UpbT7bw_4core4iter8adapters3map3MapINtNtNtB1X_3ops5range5RangejENCNCNvNtCs87DMVckFIdB_12serde_derive7pretend21pretend_variants_used00EE11spec_extendB3d_, symObjAddr: 0x6BDC, symBinAddr: 0x3F754, symSize: 0x2C }
  - { offset: 0x6A7E1, size: 0x8, addend: 0x0, symName: __RNvXs_NtNtCsiTraAjBDcu4_5alloc3vec11spec_extendINtB6_3VecNtNtCs87DMVckFIdB_12serde_derive2de16FieldWithAliasesEINtB4_10SpecExtendBT_INtNtNtNtCsaNl6UpbT7bw_4core4iter8adapters3map3MapINtNtNtB2f_5slice4iter4IterNtNtNtBX_9internals3ast7VariantENCNvNtBV_10identifier18deserialize_customs_0EE11spec_extendBX_, symObjAddr: 0x6C08, symBinAddr: 0x3F780, symSize: 0x34 }
  - { offset: 0x6A832, size: 0x8, addend: 0x0, symName: __RNvXs_NtNtCsiTraAjBDcu4_5alloc3vec11spec_extendINtB6_3VecNtNtCsc29TF2YcYso_3syn4expr6MemberEINtB4_10SpecExtendBT_INtNtNtNtCsaNl6UpbT7bw_4core4iter8adapters3map3MapINtNtNtB1W_3ops5range5RangejENCNvNtCs87DMVckFIdB_12serde_derive3ser35serialize_adjacently_tagged_variants_0EE11spec_extendB3a_, symObjAddr: 0x6C3C, symBinAddr: 0x3F7B4, symSize: 0x2C }
  - { offset: 0x6A883, size: 0x8, addend: 0x0, symName: __RNvXs_NtNtCsiTraAjBDcu4_5alloc3vec11spec_extendINtB6_3VecNtNtCsc29TF2YcYso_3syn4expr6MemberEINtB4_10SpecExtendBT_INtNtNtNtCsaNl6UpbT7bw_4core4iter8adapters3map3MapINtNtNtB1W_5slice4iter4IterNtNtNtCs87DMVckFIdB_12serde_derive9internals3ast5FieldENCNvNtB38_3ser35serialize_adjacently_tagged_variants0_0EE11spec_extendB38_, symObjAddr: 0x6C68, symBinAddr: 0x3F7E0, symSize: 0x34 }
  - { offset: 0x6A8D4, size: 0x8, addend: 0x0, symName: __RNvXs_NtNtCsiTraAjBDcu4_5alloc3vec11spec_extendINtB6_3VecNtNtCsc29TF2YcYso_3syn8generics12GenericParamEINtB4_10SpecExtendBT_INtNtCsaNl6UpbT7bw_4core6option8IntoIterBT_EE11spec_extendCs87DMVckFIdB_12serde_derive, symObjAddr: 0x6C9C, symBinAddr: 0x3F814, symSize: 0x24 }
  - { offset: 0x6A926, size: 0x8, addend: 0x0, symName: __RNvXs_NtNtCsiTraAjBDcu4_5alloc3vec11spec_extendINtB6_3VecNtNtCsc29TF2YcYso_3syn8generics12GenericParamEINtB4_10SpecExtendBT_INtNtNtNtCsaNl6UpbT7bw_4core4iter8adapters3map3MapINtNtB6_9into_iter8IntoIterTBT_NtNtBX_5token5CommaEENCNvXs8_NtBX_10punctuatedINtB3K_10PunctuatedBT_B3h_ENtNtNtB25_6traits7collect12IntoIterator9into_iter0EE11spec_extendCs87DMVckFIdB_12serde_derive, symObjAddr: 0x6CC0, symBinAddr: 0x3F838, symSize: 0x24 }
  - { offset: 0x6A978, size: 0x8, addend: 0x0, symName: __RNvXs_NtNtCsiTraAjBDcu4_5alloc3vec11spec_extendINtB6_3VecNtNtCsc29TF2YcYso_3syn8generics14WherePredicateEINtB4_10SpecExtendBT_INtNtCsaNl6UpbT7bw_4core6option8IntoIterBT_EE11spec_extendCs87DMVckFIdB_12serde_derive, symObjAddr: 0x6CE4, symBinAddr: 0x3F85C, symSize: 0x24 }
  - { offset: 0x6A9CA, size: 0x8, addend: 0x0, symName: __RNvXs_NtNtCsiTraAjBDcu4_5alloc3vec11spec_extendINtB6_3VecNtNtCsc29TF2YcYso_3syn8generics14WherePredicateEINtB4_10SpecExtendBT_INtNtNtNtCsaNl6UpbT7bw_4core4iter8adapters3map3MapINtNtB6_9into_iter8IntoIterTBT_NtNtBX_5token5CommaEENCNvXs8_NtBX_10punctuatedINtB3M_10PunctuatedBT_B3j_ENtNtNtB27_6traits7collect12IntoIterator9into_iter0EE11spec_extendCs87DMVckFIdB_12serde_derive, symObjAddr: 0x6D08, symBinAddr: 0x3F880, symSize: 0x24 }
  - { offset: 0x6AA1C, size: 0x8, addend: 0x0, symName: __RNvXs_NtNtCsiTraAjBDcu4_5alloc3vec11spec_extendINtB6_3VecRNtCshnvkK9b4wzu_11proc_macro25IdentEINtB4_10SpecExtendBT_INtNtNtNtCsaNl6UpbT7bw_4core4iter8adapters3map3MapINtNtNtB1Y_5slice4iter4IterNtNtCs87DMVckFIdB_12serde_derive2de16FieldWithAliasesENCNvNtB36_10identifier21deserialize_generated0EE11spec_extendB38_, symObjAddr: 0x6D2C, symBinAddr: 0x3F8A4, symSize: 0x34 }
  - { offset: 0x6AA6D, size: 0x8, addend: 0x0, symName: __RNvXs_NtNtCsiTraAjBDcu4_5alloc3vec11spec_extendINtB6_3VecRNtNtCsc29TF2YcYso_3syn2ty4TypeEINtB4_10SpecExtendBT_INtNtNtNtCsaNl6UpbT7bw_4core4iter8adapters3map3MapINtNtNtB1T_5slice4iter4IterNtNtNtCs87DMVckFIdB_12serde_derive9internals3ast5FieldENCNvNtB35_3ser27wrap_serialize_variant_with0EE11spec_extendB35_, symObjAddr: 0x6D60, symBinAddr: 0x3F8D8, symSize: 0x34 }
  - { offset: 0x6AABE, size: 0x8, addend: 0x0, symName: __RNvXs_NtNtCsiTraAjBDcu4_5alloc3vec11spec_extendINtB6_3VecRNtNtCsc29TF2YcYso_3syn4expr6MemberEINtB4_10SpecExtendBT_INtNtNtNtCsaNl6UpbT7bw_4core4iter8adapters3map3MapINtNtNtB1X_5slice4iter4IterNtNtNtCs87DMVckFIdB_12serde_derive9internals3ast5FieldENCNvNtB39_3ser37serialize_struct_variant_with_flattens0_0EE11spec_extendB39_, symObjAddr: 0x6D94, symBinAddr: 0x3F90C, symSize: 0x34 }
  - { offset: 0x6AB0F, size: 0x8, addend: 0x0, symName: __RNvXs_NtNtCsiTraAjBDcu4_5alloc3vec11spec_extendINtB6_3VecRNtNtCsc29TF2YcYso_3syn4expr6MemberEINtB4_10SpecExtendBT_INtNtNtNtCsaNl6UpbT7bw_4core4iter8adapters3map3MapINtNtNtB1X_5slice4iter4IterNtNtNtCs87DMVckFIdB_12serde_derive9internals3ast5FieldENCNvNtB39_7pretend33pretend_fields_used_struct_packed0EE11spec_extendB39_, symObjAddr: 0x6DC8, symBinAddr: 0x3F940, symSize: 0x34 }
  - { offset: 0x6AB60, size: 0x8, addend: 0x0, symName: __RNvXs_NtNtCsiTraAjBDcu4_5alloc3vec11spec_extendINtB6_3VecTRNtNtNtCs87DMVckFIdB_12serde_derive9internals3ast5FieldNtCshnvkK9b4wzu_11proc_macro25IdentEEINtB4_10SpecExtendBT_INtNtNtNtCsaNl6UpbT7bw_4core4iter8adapters3map3MapINtNtB2O_9enumerate9EnumerateINtNtNtB2S_5slice4iter4IterBV_EENCNvNtNtB11_2de7struct_15deserialize_map0EE11spec_extendB11_, symObjAddr: 0x6DFC, symBinAddr: 0x3F974, symSize: 0x24 }
  - { offset: 0x6ABB2, size: 0x8, addend: 0x0, symName: __RNvXs_NtNtCsiTraAjBDcu4_5alloc3vec11spec_extendINtB6_3VechEINtB4_10SpecExtendhINtNtNtNtCsaNl6UpbT7bw_4core4iter8adapters3map3MapINtNtNtB1n_5slice4iter4IterhENCNvNtB8_3str13replace_ascii0EE11spec_extendCs87DMVckFIdB_12serde_derive, symObjAddr: 0x6E20, symBinAddr: 0x3F998, symSize: 0x24 }
  - { offset: 0x6AC10, size: 0x8, addend: 0x0, symName: __RNvXNtNtCsiTraAjBDcu4_5alloc3vec14spec_from_iterINtB4_3VecNtCshnvkK9b4wzu_11proc_macro211TokenStreamEINtB2_12SpecFromIterBU_INtNtNtNtCsaNl6UpbT7bw_4core4iter8adapters10filter_map9FilterMapINtNtB23_6filter6FilterINtNtB23_9enumerate9EnumerateINtNtNtB27_5slice4iter4IterNtNtNtCs87DMVckFIdB_12serde_derive9internals3ast7VariantEENCNvNtNtB4n_2de15enum_adjacently11deserializes0_0ENCB5f_s1_0EE9from_iterB4n_, symObjAddr: 0x4F9C, symBinAddr: 0x3DB14, symSize: 0x14 }
  - { offset: 0x6AC4F, size: 0x8, addend: 0x0, symName: __RNvXNtNtCsiTraAjBDcu4_5alloc3vec14spec_from_iterINtB4_3VecNtCshnvkK9b4wzu_11proc_macro211TokenStreamEINtB2_12SpecFromIterBU_INtNtNtNtCsaNl6UpbT7bw_4core4iter8adapters10filter_map9FilterMapINtNtNtB27_5slice4iter4IterNtNtNtCs87DMVckFIdB_12serde_derive9internals3ast7VariantENCNvNtB3x_7pretend24pretend_fields_used_enum0EE9from_iterB3x_, symObjAddr: 0x4FB0, symBinAddr: 0x3DB28, symSize: 0x14 }
  - { offset: 0x6AC8E, size: 0x8, addend: 0x0, symName: __RNvXNtNtCsiTraAjBDcu4_5alloc3vec14spec_from_iterINtB4_3VecNtCshnvkK9b4wzu_11proc_macro211TokenStreamEINtB2_12SpecFromIterBU_INtNtNtNtCsaNl6UpbT7bw_4core4iter8adapters3map3MapINtNtB23_6filter6FilterINtNtB23_9enumerate9EnumerateINtNtNtB27_5slice4iter4IterNtNtNtCs87DMVckFIdB_12serde_derive9internals3ast5FieldEENCNvNtB49_3ser30serialize_tuple_struct_visitor0ENCB4Z_s_0EE9from_iterB49_, symObjAddr: 0x4FC4, symBinAddr: 0x3DB3C, symSize: 0x14 }
  - { offset: 0x6ACCD, size: 0x8, addend: 0x0, symName: __RNvXNtNtCsiTraAjBDcu4_5alloc3vec14spec_from_iterINtB4_3VecNtCshnvkK9b4wzu_11proc_macro211TokenStreamEINtB2_12SpecFromIterBU_INtNtNtNtCsaNl6UpbT7bw_4core4iter8adapters3map3MapINtNtB23_6filter6FilterINtNtB23_9enumerate9EnumerateINtNtNtB27_5slice4iter4IterNtNtNtCs87DMVckFIdB_12serde_derive9internals3ast7VariantEENCNvNtNtB49_2de15enum_adjacently11deserialize0ENCB51_s_0EE9from_iterB49_, symObjAddr: 0x4FD8, symBinAddr: 0x3DB50, symSize: 0x14 }
  - { offset: 0x6AD0C, size: 0x8, addend: 0x0, symName: __RNvXNtNtCsiTraAjBDcu4_5alloc3vec14spec_from_iterINtB4_3VecNtCshnvkK9b4wzu_11proc_macro211TokenStreamEINtB2_12SpecFromIterBU_INtNtNtNtCsaNl6UpbT7bw_4core4iter8adapters3map3MapINtNtB23_6filter6FilterINtNtNtB27_5slice4iter4IterNtNtNtCs87DMVckFIdB_12serde_derive9internals3ast5FieldENCNvNtB3G_3ser24serialize_struct_visitor0ENCB4v_s_0EE9from_iterB3G_, symObjAddr: 0x4FEC, symBinAddr: 0x3DB64, symSize: 0x14 }
  - { offset: 0x6AD4B, size: 0x8, addend: 0x0, symName: __RNvXNtNtCsiTraAjBDcu4_5alloc3vec14spec_from_iterINtB4_3VecNtCshnvkK9b4wzu_11proc_macro211TokenStreamEINtB2_12SpecFromIterBU_INtNtNtNtCsaNl6UpbT7bw_4core4iter8adapters3map3MapINtNtB23_9enumerate9EnumerateINtNtNtB27_5slice4iter4IterNtNtNtCs87DMVckFIdB_12serde_derive9internals3ast7VariantEENCNvNtB3M_3ser14serialize_enum0EE9from_iterB3M_, symObjAddr: 0x5000, symBinAddr: 0x3DB78, symSize: 0x14 }
  - { offset: 0x6AD8A, size: 0x8, addend: 0x0, symName: __RNvXNtNtCsiTraAjBDcu4_5alloc3vec14spec_from_iterINtB4_3VecNtCshnvkK9b4wzu_11proc_macro211TokenStreamEINtB2_12SpecFromIterBU_INtNtNtNtCsaNl6UpbT7bw_4core4iter8adapters3map3MapINtNtNtB27_5slice4iter4IterNtNtNtCs87DMVckFIdB_12serde_derive9internals3ast5FieldENCNvNtB3j_3ser27wrap_serialize_variant_withs_0EE9from_iterB3j_, symObjAddr: 0x5014, symBinAddr: 0x3DB8C, symSize: 0x2C }
  - { offset: 0x6ADC8, size: 0x8, addend: 0x0, symName: __RNvXNtNtCsiTraAjBDcu4_5alloc3vec14spec_from_iterINtB4_3VecNtCshnvkK9b4wzu_11proc_macro25IdentEINtB2_12SpecFromIterBU_INtNtNtNtCsaNl6UpbT7bw_4core4iter8adapters3map3MapINtNtNtB20_3ops5range5RangejENCNCNvNtCs87DMVckFIdB_12serde_derive7pretend21pretend_variants_used00EE9from_iterB3g_, symObjAddr: 0x5040, symBinAddr: 0x3DBB8, symSize: 0x24 }
  - { offset: 0x6AE06, size: 0x8, addend: 0x0, symName: __RNvXNtNtCsiTraAjBDcu4_5alloc3vec14spec_from_iterINtB4_3VecNtNtCs87DMVckFIdB_12serde_derive2de16FieldWithAliasesEINtB2_12SpecFromIterBU_INtNtNtNtCsaNl6UpbT7bw_4core4iter8adapters3map3MapINtNtB2e_6filter6FilterINtNtB2e_9enumerate9EnumerateINtNtNtB2i_5slice4iter4IterNtNtNtBY_9internals3ast5FieldEENCNvNtBW_7struct_11deserialize0ENCB4L_s_0EE9from_iterBY_, symObjAddr: 0x5064, symBinAddr: 0x3DBDC, symSize: 0x14 }
  - { offset: 0x6AE45, size: 0x8, addend: 0x0, symName: __RNvXNtNtCsiTraAjBDcu4_5alloc3vec14spec_from_iterINtB4_3VecNtNtCs87DMVckFIdB_12serde_derive2de16FieldWithAliasesEINtB2_12SpecFromIterBU_INtNtNtNtCsaNl6UpbT7bw_4core4iter8adapters3map3MapINtNtB2e_6filter6FilterINtNtB2e_9enumerate9EnumerateINtNtNtB2i_5slice4iter4IterNtNtNtBY_9internals3ast7VariantEENCNvNtBW_5enum_25prepare_enum_variant_enum0ENCB4N_s2_0EE9from_iterBY_, symObjAddr: 0x5078, symBinAddr: 0x3DBF0, symSize: 0x14 }
  - { offset: 0x6AE84, size: 0x8, addend: 0x0, symName: __RNvXNtNtCsiTraAjBDcu4_5alloc3vec14spec_from_iterINtB4_3VecNtNtCs87DMVckFIdB_12serde_derive2de16FieldWithAliasesEINtB2_12SpecFromIterBU_INtNtNtNtCsaNl6UpbT7bw_4core4iter8adapters3map3MapINtNtNtB2i_5slice4iter4IterNtNtNtBY_9internals3ast7VariantENCNvNtBW_10identifier18deserialize_customs_0EE9from_iterBY_, symObjAddr: 0x508C, symBinAddr: 0x3DC04, symSize: 0x2C }
  - { offset: 0x6AEC2, size: 0x8, addend: 0x0, symName: __RNvXNtNtCsiTraAjBDcu4_5alloc3vec14spec_from_iterINtB4_3VecNtNtCsc29TF2YcYso_3syn4expr6MemberEINtB2_12SpecFromIterBU_INtNtNtNtCsaNl6UpbT7bw_4core4iter8adapters3map3MapINtNtNtB1Z_3ops5range5RangejENCNvNtCs87DMVckFIdB_12serde_derive3ser35serialize_adjacently_tagged_variants_0EE9from_iterB3d_, symObjAddr: 0x50B8, symBinAddr: 0x3DC30, symSize: 0x24 }
  - { offset: 0x6AF00, size: 0x8, addend: 0x0, symName: __RNvXNtNtCsiTraAjBDcu4_5alloc3vec14spec_from_iterINtB4_3VecNtNtCsc29TF2YcYso_3syn4expr6MemberEINtB2_12SpecFromIterBU_INtNtNtNtCsaNl6UpbT7bw_4core4iter8adapters3map3MapINtNtNtB1Z_5slice4iter4IterNtNtNtCs87DMVckFIdB_12serde_derive9internals3ast5FieldENCNvNtB3b_3ser35serialize_adjacently_tagged_variants0_0EE9from_iterB3b_, symObjAddr: 0x50DC, symBinAddr: 0x3DC54, symSize: 0x2C }
  - { offset: 0x6AF3E, size: 0x8, addend: 0x0, symName: __RNvXNtNtCsiTraAjBDcu4_5alloc3vec14spec_from_iterINtB4_3VecNtNtCsc29TF2YcYso_3syn8generics14WherePredicateEINtB2_12SpecFromIterBU_INtNtBY_10punctuated8IntoIterBU_EE9from_iterCs87DMVckFIdB_12serde_derive, symObjAddr: 0x5108, symBinAddr: 0x3DC80, symSize: 0x14 }
  - { offset: 0x6AF7D, size: 0x8, addend: 0x0, symName: __RNvXNtNtCsiTraAjBDcu4_5alloc3vec14spec_from_iterINtB4_3VecNtNtNtCs87DMVckFIdB_12serde_derive9internals3ast5FieldEINtB2_12SpecFromIterBU_INtNtNtNtCsaNl6UpbT7bw_4core4iter8adapters3map3MapINtNtB2f_9enumerate9EnumerateINtNtCsc29TF2YcYso_3syn10punctuated4IterNtNtB3w_4data5FieldEENCNvBW_15fields_from_ast0EE9from_iterB10_, symObjAddr: 0x511C, symBinAddr: 0x3DC94, symSize: 0x14 }
  - { offset: 0x6AFBC, size: 0x8, addend: 0x0, symName: __RNvXNtNtCsiTraAjBDcu4_5alloc3vec14spec_from_iterINtB4_3VecNtNtNtCs87DMVckFIdB_12serde_derive9internals3ast7VariantEINtB2_12SpecFromIterBU_INtNtNtNtCsaNl6UpbT7bw_4core4iter8adapters3map3MapINtNtCsc29TF2YcYso_3syn10punctuated4IterNtNtB35_4data7VariantENCNvBW_13enum_from_ast0EE9from_iterB10_, symObjAddr: 0x5130, symBinAddr: 0x3DCA8, symSize: 0x14 }
  - { offset: 0x6AFFB, size: 0x8, addend: 0x0, symName: __RNvXNtNtCsiTraAjBDcu4_5alloc3vec14spec_from_iterINtB4_3VecRNtCshnvkK9b4wzu_11proc_macro25IdentEINtB2_12SpecFromIterBU_INtNtNtNtCsaNl6UpbT7bw_4core4iter8adapters3map3MapINtNtNtB21_5slice4iter4IterNtNtCs87DMVckFIdB_12serde_derive2de16FieldWithAliasesENCNvNtB39_10identifier21deserialize_generated0EE9from_iterB3b_, symObjAddr: 0x5144, symBinAddr: 0x3DCBC, symSize: 0x2C }
  - { offset: 0x6B039, size: 0x8, addend: 0x0, symName: __RNvXNtNtCsiTraAjBDcu4_5alloc3vec14spec_from_iterINtB4_3VecRNtNtCsc29TF2YcYso_3syn2ty4TypeEINtB2_12SpecFromIterBU_INtNtNtNtCsaNl6UpbT7bw_4core4iter8adapters3map3MapINtNtNtB1W_5slice4iter4IterNtNtNtCs87DMVckFIdB_12serde_derive9internals3ast5FieldENCNvNtB38_3ser27wrap_serialize_variant_with0EE9from_iterB38_, symObjAddr: 0x5170, symBinAddr: 0x3DCE8, symSize: 0x2C }
  - { offset: 0x6B077, size: 0x8, addend: 0x0, symName: __RNvXNtNtCsiTraAjBDcu4_5alloc3vec14spec_from_iterINtB4_3VecRNtNtCsc29TF2YcYso_3syn4expr6MemberEINtB2_12SpecFromIterBU_INtNtNtNtCsaNl6UpbT7bw_4core4iter8adapters3map3MapINtNtNtB20_5slice4iter4IterNtNtNtCs87DMVckFIdB_12serde_derive9internals3ast5FieldENCNvNtB3c_3ser37serialize_struct_variant_with_flattens0_0EE9from_iterB3c_, symObjAddr: 0x519C, symBinAddr: 0x3DD14, symSize: 0x2C }
  - { offset: 0x6B0B5, size: 0x8, addend: 0x0, symName: __RNvXNtNtCsiTraAjBDcu4_5alloc3vec14spec_from_iterINtB4_3VecRNtNtCsc29TF2YcYso_3syn4expr6MemberEINtB2_12SpecFromIterBU_INtNtNtNtCsaNl6UpbT7bw_4core4iter8adapters3map3MapINtNtNtB20_5slice4iter4IterNtNtNtCs87DMVckFIdB_12serde_derive9internals3ast5FieldENCNvNtB3c_7pretend33pretend_fields_used_struct_packed0EE9from_iterB3c_, symObjAddr: 0x51C8, symBinAddr: 0x3DD40, symSize: 0x2C }
  - { offset: 0x6B0F3, size: 0x8, addend: 0x0, symName: __RNvXNtNtCsiTraAjBDcu4_5alloc3vec14spec_from_iterINtB4_3VecTRNtNtNtCs87DMVckFIdB_12serde_derive9internals3ast5FieldNtCshnvkK9b4wzu_11proc_macro25IdentEEINtB2_12SpecFromIterBU_INtNtNtNtCsaNl6UpbT7bw_4core4iter8adapters3map3MapINtNtB2R_9enumerate9EnumerateINtNtNtB2V_5slice4iter4IterBW_EENCNvNtNtB12_2de7struct_15deserialize_map0EE9from_iterB12_, symObjAddr: 0x51F4, symBinAddr: 0x3DD6C, symSize: 0x14 }
  - { offset: 0x6B132, size: 0x8, addend: 0x0, symName: __RNvXNtNtCsiTraAjBDcu4_5alloc3vec14spec_from_iterINtB4_3VechEINtB2_12SpecFromIterhINtNtNtNtCsaNl6UpbT7bw_4core4iter8adapters3map3MapINtNtNtB1q_5slice4iter4IterhENCNvNtB6_3str13replace_ascii0EE9from_iterCs87DMVckFIdB_12serde_derive, symObjAddr: 0x5208, symBinAddr: 0x3DD80, symSize: 0x14 }
  - { offset: 0x6B17D, size: 0x8, addend: 0x0, symName: __RNvXNtNtCsiTraAjBDcu4_5alloc3vec21spec_from_iter_nestedINtB4_3VecNtCshnvkK9b4wzu_11proc_macro211TokenStreamEINtB2_18SpecFromIterNestedB11_INtNtNtNtCsaNl6UpbT7bw_4core4iter8adapters10filter_map9FilterMapINtNtB2h_6filter6FilterINtNtB2h_9enumerate9EnumerateINtNtNtB2l_5slice4iter4IterNtNtNtCs87DMVckFIdB_12serde_derive9internals3ast7VariantEENCNvNtNtB4B_2de15enum_adjacently11deserializes0_0ENCB5t_s1_0EE9from_iterB4B_, symObjAddr: 0x521C, symBinAddr: 0x3DD94, symSize: 0x224 }
  - { offset: 0x6B39C, size: 0x8, addend: 0x0, symName: __RNvXNtNtCsiTraAjBDcu4_5alloc3vec21spec_from_iter_nestedINtB4_3VecNtCshnvkK9b4wzu_11proc_macro211TokenStreamEINtB2_18SpecFromIterNestedB11_INtNtNtNtCsaNl6UpbT7bw_4core4iter8adapters10filter_map9FilterMapINtNtNtB2l_5slice4iter4IterNtNtNtCs87DMVckFIdB_12serde_derive9internals3ast7VariantENCNvNtB3L_7pretend24pretend_fields_used_enum0EE9from_iterB3L_, symObjAddr: 0x5440, symBinAddr: 0x3DFB8, symSize: 0x218 }
  - { offset: 0x6B5BA, size: 0x8, addend: 0x0, symName: __RNvXNtNtCsiTraAjBDcu4_5alloc3vec21spec_from_iter_nestedINtB4_3VecNtCshnvkK9b4wzu_11proc_macro211TokenStreamEINtB2_18SpecFromIterNestedB11_INtNtNtNtCsaNl6UpbT7bw_4core4iter8adapters3map3MapINtNtB2h_6filter6FilterINtNtB2h_9enumerate9EnumerateINtNtNtB2l_5slice4iter4IterNtNtNtCs87DMVckFIdB_12serde_derive9internals3ast5FieldEENCNvNtB4n_3ser30serialize_tuple_struct_visitor0ENCB5d_s_0EE9from_iterB4n_, symObjAddr: 0x5658, symBinAddr: 0x3E1D0, symSize: 0x224 }
  - { offset: 0x6B7D9, size: 0x8, addend: 0x0, symName: __RNvXNtNtCsiTraAjBDcu4_5alloc3vec21spec_from_iter_nestedINtB4_3VecNtCshnvkK9b4wzu_11proc_macro211TokenStreamEINtB2_18SpecFromIterNestedB11_INtNtNtNtCsaNl6UpbT7bw_4core4iter8adapters3map3MapINtNtB2h_6filter6FilterINtNtB2h_9enumerate9EnumerateINtNtNtB2l_5slice4iter4IterNtNtNtCs87DMVckFIdB_12serde_derive9internals3ast7VariantEENCNvNtNtB4n_2de15enum_adjacently11deserialize0ENCB5f_s_0EE9from_iterB4n_, symObjAddr: 0x587C, symBinAddr: 0x3E3F4, symSize: 0x224 }
  - { offset: 0x6B9F8, size: 0x8, addend: 0x0, symName: __RNvXNtNtCsiTraAjBDcu4_5alloc3vec21spec_from_iter_nestedINtB4_3VecNtCshnvkK9b4wzu_11proc_macro211TokenStreamEINtB2_18SpecFromIterNestedB11_INtNtNtNtCsaNl6UpbT7bw_4core4iter8adapters3map3MapINtNtB2h_6filter6FilterINtNtNtB2l_5slice4iter4IterNtNtNtCs87DMVckFIdB_12serde_derive9internals3ast5FieldENCNvNtB3U_3ser24serialize_struct_visitor0ENCB4J_s_0EE9from_iterB3U_, symObjAddr: 0x5AA0, symBinAddr: 0x3E618, symSize: 0x224 }
  - { offset: 0x6BC17, size: 0x8, addend: 0x0, symName: __RNvXNtNtCsiTraAjBDcu4_5alloc3vec21spec_from_iter_nestedINtB4_3VecNtNtCs87DMVckFIdB_12serde_derive2de16FieldWithAliasesEINtB2_18SpecFromIterNestedB11_INtNtNtNtCsaNl6UpbT7bw_4core4iter8adapters3map3MapINtNtB2s_6filter6FilterINtNtB2s_9enumerate9EnumerateINtNtNtB2w_5slice4iter4IterNtNtNtB15_9internals3ast5FieldEENCNvNtB13_7struct_11deserialize0ENCB50_s_0EE9from_iterB15_, symObjAddr: 0x5CC4, symBinAddr: 0x3E83C, symSize: 0x214 }
  - { offset: 0x6BE35, size: 0x8, addend: 0x0, symName: __RNvXNtNtCsiTraAjBDcu4_5alloc3vec21spec_from_iter_nestedINtB4_3VecNtNtCs87DMVckFIdB_12serde_derive2de16FieldWithAliasesEINtB2_18SpecFromIterNestedB11_INtNtNtNtCsaNl6UpbT7bw_4core4iter8adapters3map3MapINtNtB2s_6filter6FilterINtNtB2s_9enumerate9EnumerateINtNtNtB2w_5slice4iter4IterNtNtNtB15_9internals3ast7VariantEENCNvNtB13_5enum_25prepare_enum_variant_enum0ENCB52_s2_0EE9from_iterB15_, symObjAddr: 0x5ED8, symBinAddr: 0x3EA50, symSize: 0x214 }
  - { offset: 0x6C053, size: 0x8, addend: 0x0, symName: __RNvXNtNtCsiTraAjBDcu4_5alloc3vec21spec_from_iter_nestedINtB4_3VecNtNtCsc29TF2YcYso_3syn8generics14WherePredicateEINtB2_18SpecFromIterNestedB11_INtNtB15_10punctuated8IntoIterB11_EE9from_iterCs87DMVckFIdB_12serde_derive, symObjAddr: 0x60EC, symBinAddr: 0x3EC64, symSize: 0x23C }
  - { offset: 0x6C272, size: 0x8, addend: 0x0, symName: __RNvXNtNtCsiTraAjBDcu4_5alloc3vec21spec_from_iter_nestedINtB4_3VecNtNtNtCs87DMVckFIdB_12serde_derive9internals3ast5FieldEINtB2_18SpecFromIterNestedB11_INtNtNtNtCsaNl6UpbT7bw_4core4iter8adapters3map3MapINtNtB2t_9enumerate9EnumerateINtNtCsc29TF2YcYso_3syn10punctuated4IterNtNtB3K_4data5FieldEENCNvB13_15fields_from_ast0EE9from_iterB17_, symObjAddr: 0x6328, symBinAddr: 0x3EEA0, symSize: 0x24C }
  - { offset: 0x6C491, size: 0x8, addend: 0x0, symName: __RNvXNtNtCsiTraAjBDcu4_5alloc3vec21spec_from_iter_nestedINtB4_3VecNtNtNtCs87DMVckFIdB_12serde_derive9internals3ast7VariantEINtB2_18SpecFromIterNestedB11_INtNtNtNtCsaNl6UpbT7bw_4core4iter8adapters3map3MapINtNtCsc29TF2YcYso_3syn10punctuated4IterNtNtB3j_4data7VariantENCNvB13_13enum_from_ast0EE9from_iterB17_, symObjAddr: 0x6574, symBinAddr: 0x3F0EC, symSize: 0x24C }
  - { offset: 0x6C6B6, size: 0x8, addend: 0x0, symName: __RNvXs_NtNtCsiTraAjBDcu4_5alloc3vec21spec_from_iter_nestedINtB6_3VecNtCshnvkK9b4wzu_11proc_macro211TokenStreamEINtB4_18SpecFromIterNestedB13_INtNtNtNtCsaNl6UpbT7bw_4core4iter8adapters3map3MapINtNtB2j_9enumerate9EnumerateINtNtNtB2n_5slice4iter4IterNtNtNtCs87DMVckFIdB_12serde_derive9internals3ast7VariantEENCNvNtB42_3ser14serialize_enum0EE9from_iterB42_, symObjAddr: 0x6E44, symBinAddr: 0x3F9BC, symSize: 0x17C }
  - { offset: 0x6C78D, size: 0x8, addend: 0x0, symName: __RNvXs_NtNtCsiTraAjBDcu4_5alloc3vec21spec_from_iter_nestedINtB6_3VecNtCshnvkK9b4wzu_11proc_macro211TokenStreamEINtB4_18SpecFromIterNestedB13_INtNtNtNtCsaNl6UpbT7bw_4core4iter8adapters3map3MapINtNtNtB2n_5slice4iter4IterNtNtNtCs87DMVckFIdB_12serde_derive9internals3ast5FieldENCNvNtB3z_3ser27wrap_serialize_variant_withs_0EE9from_iterB3z_, symObjAddr: 0x6FC0, symBinAddr: 0x3FB38, symSize: 0x164 }
  - { offset: 0x6C863, size: 0x8, addend: 0x0, symName: __RNvXs_NtNtCsiTraAjBDcu4_5alloc3vec21spec_from_iter_nestedINtB6_3VecNtCshnvkK9b4wzu_11proc_macro25IdentEINtB4_18SpecFromIterNestedB13_INtNtNtNtCsaNl6UpbT7bw_4core4iter8adapters3map3MapINtNtNtB2g_3ops5range5RangejENCNCNvNtCs87DMVckFIdB_12serde_derive7pretend21pretend_variants_used00EE9from_iterB3w_, symObjAddr: 0x7124, symBinAddr: 0x3FC9C, symSize: 0x164 }
  - { offset: 0x6C939, size: 0x8, addend: 0x0, symName: __RNvXs_NtNtCsiTraAjBDcu4_5alloc3vec21spec_from_iter_nestedINtB6_3VecNtNtCs87DMVckFIdB_12serde_derive2de16FieldWithAliasesEINtB4_18SpecFromIterNestedB13_INtNtNtNtCsaNl6UpbT7bw_4core4iter8adapters3map3MapINtNtNtB2y_5slice4iter4IterNtNtNtB17_9internals3ast7VariantENCNvNtB15_10identifier18deserialize_customs_0EE9from_iterB17_, symObjAddr: 0x7288, symBinAddr: 0x3FE00, symSize: 0x164 }
  - { offset: 0x6CA0F, size: 0x8, addend: 0x0, symName: __RNvXs_NtNtCsiTraAjBDcu4_5alloc3vec21spec_from_iter_nestedINtB6_3VecNtNtCsc29TF2YcYso_3syn4expr6MemberEINtB4_18SpecFromIterNestedB13_INtNtNtNtCsaNl6UpbT7bw_4core4iter8adapters3map3MapINtNtNtB2f_3ops5range5RangejENCNvNtCs87DMVckFIdB_12serde_derive3ser35serialize_adjacently_tagged_variants_0EE9from_iterB3t_, symObjAddr: 0x73EC, symBinAddr: 0x3FF64, symSize: 0x164 }
  - { offset: 0x6CAE5, size: 0x8, addend: 0x0, symName: __RNvXs_NtNtCsiTraAjBDcu4_5alloc3vec21spec_from_iter_nestedINtB6_3VecNtNtCsc29TF2YcYso_3syn4expr6MemberEINtB4_18SpecFromIterNestedB13_INtNtNtNtCsaNl6UpbT7bw_4core4iter8adapters3map3MapINtNtNtB2f_5slice4iter4IterNtNtNtCs87DMVckFIdB_12serde_derive9internals3ast5FieldENCNvNtB3r_3ser35serialize_adjacently_tagged_variants0_0EE9from_iterB3r_, symObjAddr: 0x7550, symBinAddr: 0x400C8, symSize: 0x164 }
  - { offset: 0x6CBBB, size: 0x8, addend: 0x0, symName: __RNvXs_NtNtCsiTraAjBDcu4_5alloc3vec21spec_from_iter_nestedINtB6_3VecRNtCshnvkK9b4wzu_11proc_macro25IdentEINtB4_18SpecFromIterNestedB13_INtNtNtNtCsaNl6UpbT7bw_4core4iter8adapters3map3MapINtNtNtB2h_5slice4iter4IterNtNtCs87DMVckFIdB_12serde_derive2de16FieldWithAliasesENCNvNtB3p_10identifier21deserialize_generated0EE9from_iterB3r_, symObjAddr: 0x76B4, symBinAddr: 0x4022C, symSize: 0x160 }
  - { offset: 0x6CC91, size: 0x8, addend: 0x0, symName: __RNvXs_NtNtCsiTraAjBDcu4_5alloc3vec21spec_from_iter_nestedINtB6_3VecRNtNtCsc29TF2YcYso_3syn2ty4TypeEINtB4_18SpecFromIterNestedB13_INtNtNtNtCsaNl6UpbT7bw_4core4iter8adapters3map3MapINtNtNtB2c_5slice4iter4IterNtNtNtCs87DMVckFIdB_12serde_derive9internals3ast5FieldENCNvNtB3o_3ser27wrap_serialize_variant_with0EE9from_iterB3o_, symObjAddr: 0x7814, symBinAddr: 0x4038C, symSize: 0x160 }
  - { offset: 0x6CD67, size: 0x8, addend: 0x0, symName: __RNvXs_NtNtCsiTraAjBDcu4_5alloc3vec21spec_from_iter_nestedINtB6_3VecRNtNtCsc29TF2YcYso_3syn4expr6MemberEINtB4_18SpecFromIterNestedB13_INtNtNtNtCsaNl6UpbT7bw_4core4iter8adapters3map3MapINtNtNtB2g_5slice4iter4IterNtNtNtCs87DMVckFIdB_12serde_derive9internals3ast5FieldENCNvNtB3s_3ser37serialize_struct_variant_with_flattens0_0EE9from_iterB3s_, symObjAddr: 0x7974, symBinAddr: 0x404EC, symSize: 0x160 }
  - { offset: 0x6CE3D, size: 0x8, addend: 0x0, symName: __RNvXs_NtNtCsiTraAjBDcu4_5alloc3vec21spec_from_iter_nestedINtB6_3VecRNtNtCsc29TF2YcYso_3syn4expr6MemberEINtB4_18SpecFromIterNestedB13_INtNtNtNtCsaNl6UpbT7bw_4core4iter8adapters3map3MapINtNtNtB2g_5slice4iter4IterNtNtNtCs87DMVckFIdB_12serde_derive9internals3ast5FieldENCNvNtB3s_7pretend33pretend_fields_used_struct_packed0EE9from_iterB3s_, symObjAddr: 0x7AD4, symBinAddr: 0x4064C, symSize: 0x160 }
  - { offset: 0x6CF13, size: 0x8, addend: 0x0, symName: __RNvXs_NtNtCsiTraAjBDcu4_5alloc3vec21spec_from_iter_nestedINtB6_3VecTRNtNtNtCs87DMVckFIdB_12serde_derive9internals3ast5FieldNtCshnvkK9b4wzu_11proc_macro25IdentEEINtB4_18SpecFromIterNestedB13_INtNtNtNtCsaNl6UpbT7bw_4core4iter8adapters3map3MapINtNtB37_9enumerate9EnumerateINtNtNtB3b_5slice4iter4IterB15_EENCNvNtNtB1b_2de7struct_15deserialize_map0EE9from_iterB1b_, symObjAddr: 0x7C34, symBinAddr: 0x407AC, symSize: 0x168 }
  - { offset: 0x6CFEA, size: 0x8, addend: 0x0, symName: __RNvXs_NtNtCsiTraAjBDcu4_5alloc3vec21spec_from_iter_nestedINtB6_3VechEINtB4_18SpecFromIterNestedhINtNtNtNtCsaNl6UpbT7bw_4core4iter8adapters3map3MapINtNtNtB1F_5slice4iter4IterhENCNvNtB8_3str13replace_ascii0EE9from_iterCs87DMVckFIdB_12serde_derive, symObjAddr: 0x7D9C, symBinAddr: 0x40914, symSize: 0x164 }
  - { offset: 0x6D0C8, size: 0x8, addend: 0x0, symName: __RNvXs6_NtCsiTraAjBDcu4_5alloc3vecINtB5_3VecNtCshnvkK9b4wzu_11proc_macro211TokenStreamENtNtNtCsaNl6UpbT7bw_4core3ops5deref5Deref5derefCs87DMVckFIdB_12serde_derive, symObjAddr: 0x68B4, symBinAddr: 0x3F42C, symSize: 0x24 }
  - { offset: 0x6D108, size: 0x8, addend: 0x0, symName: __RNvXs6_NtCsiTraAjBDcu4_5alloc3vecINtB5_3VecNtCshnvkK9b4wzu_11proc_macro25IdentENtNtNtCsaNl6UpbT7bw_4core3ops5deref5Deref5derefCs87DMVckFIdB_12serde_derive, symObjAddr: 0x68D8, symBinAddr: 0x3F450, symSize: 0x24 }
  - { offset: 0x6D148, size: 0x8, addend: 0x0, symName: __RNvXs6_NtCsiTraAjBDcu4_5alloc3vecINtB5_3VecNtNtCs87DMVckFIdB_12serde_derive2de16FieldWithAliasesENtNtNtCsaNl6UpbT7bw_4core3ops5deref5Deref5derefBJ_, symObjAddr: 0x68FC, symBinAddr: 0x3F474, symSize: 0x24 }
  - { offset: 0x6D188, size: 0x8, addend: 0x0, symName: __RNvXs6_NtCsiTraAjBDcu4_5alloc3vecINtB5_3VecNtNtCsc29TF2YcYso_3syn4expr6MemberENtNtNtCsaNl6UpbT7bw_4core3ops5deref5Deref5derefCs87DMVckFIdB_12serde_derive, symObjAddr: 0x6920, symBinAddr: 0x3F498, symSize: 0x24 }
  - { offset: 0x6D1C8, size: 0x8, addend: 0x0, symName: __RNvXs6_NtCsiTraAjBDcu4_5alloc3vecINtB5_3VecNtNtNtCs87DMVckFIdB_12serde_derive9internals3ast5FieldENtNtNtCsaNl6UpbT7bw_4core3ops5deref5Deref5derefBL_, symObjAddr: 0x6944, symBinAddr: 0x3F4BC, symSize: 0x24 }
  - { offset: 0x6D208, size: 0x8, addend: 0x0, symName: __RNvXs6_NtCsiTraAjBDcu4_5alloc3vecINtB5_3VecNtNtNtCs87DMVckFIdB_12serde_derive9internals3ast7VariantENtNtNtCsaNl6UpbT7bw_4core3ops5deref5Deref5derefBL_, symObjAddr: 0x6968, symBinAddr: 0x3F4E0, symSize: 0x24 }
  - { offset: 0x6D248, size: 0x8, addend: 0x0, symName: __RNvXs6_NtCsiTraAjBDcu4_5alloc3vecINtB5_3VecRNtCshnvkK9b4wzu_11proc_macro25IdentENtNtNtCsaNl6UpbT7bw_4core3ops5deref5Deref5derefCs87DMVckFIdB_12serde_derive, symObjAddr: 0x698C, symBinAddr: 0x3F504, symSize: 0x24 }
  - { offset: 0x6D288, size: 0x8, addend: 0x0, symName: __RNvXs6_NtCsiTraAjBDcu4_5alloc3vecINtB5_3VecRNtNtCsc29TF2YcYso_3syn4expr6MemberENtNtNtCsaNl6UpbT7bw_4core3ops5deref5Deref5derefCs87DMVckFIdB_12serde_derive, symObjAddr: 0x69B0, symBinAddr: 0x3F528, symSize: 0x24 }
  - { offset: 0x6D2C8, size: 0x8, addend: 0x0, symName: __RNvXs6_NtCsiTraAjBDcu4_5alloc3vecINtB5_3VecTRNtNtNtCs87DMVckFIdB_12serde_derive9internals3ast5FieldNtCshnvkK9b4wzu_11proc_macro25IdentEENtNtNtCsaNl6UpbT7bw_4core3ops5deref5Deref5derefBN_, symObjAddr: 0x69D4, symBinAddr: 0x3F54C, symSize: 0x24 }
  - { offset: 0x6D45E, size: 0x8, addend: 0x0, symName: __RNvXs7_NtCsiTraAjBDcu4_5alloc3vecINtB5_3VecTNtNtCsc29TF2YcYso_3syn2ty4TypeNtNtBK_5token5CommaEENtNtNtCsaNl6UpbT7bw_4core3ops5deref8DerefMut9deref_mutCs87DMVckFIdB_12serde_derive, symObjAddr: 0x69F8, symBinAddr: 0x3F570, symSize: 0x24 }
  - { offset: 0x6D49E, size: 0x8, addend: 0x0, symName: __RNvXs7_NtCsiTraAjBDcu4_5alloc3vecINtB5_3VecTNtNtCsc29TF2YcYso_3syn2ty9BareFnArgNtNtBK_5token5CommaEENtNtNtCsaNl6UpbT7bw_4core3ops5deref8DerefMut9deref_mutCs87DMVckFIdB_12serde_derive, symObjAddr: 0x6A1C, symBinAddr: 0x3F594, symSize: 0x24 }
  - { offset: 0x6D4DE, size: 0x8, addend: 0x0, symName: __RNvXs7_NtCsiTraAjBDcu4_5alloc3vecINtB5_3VecTNtNtCsc29TF2YcYso_3syn4data7VariantNtNtBK_5token5CommaEENtNtNtCsaNl6UpbT7bw_4core3ops5deref8DerefMut9deref_mutCs87DMVckFIdB_12serde_derive, symObjAddr: 0x6A40, symBinAddr: 0x3F5B8, symSize: 0x24 }
  - { offset: 0x6D51E, size: 0x8, addend: 0x0, symName: __RNvXs7_NtCsiTraAjBDcu4_5alloc3vecINtB5_3VecTNtNtCsc29TF2YcYso_3syn4expr4ExprNtNtBK_5token5CommaEENtNtNtCsaNl6UpbT7bw_4core3ops5deref8DerefMut9deref_mutCs87DMVckFIdB_12serde_derive, symObjAddr: 0x6A64, symBinAddr: 0x3F5DC, symSize: 0x24 }
  - { offset: 0x6D55E, size: 0x8, addend: 0x0, symName: __RNvXs7_NtCsiTraAjBDcu4_5alloc3vecINtB5_3VecTNtNtCsc29TF2YcYso_3syn4path15GenericArgumentNtNtBK_5token5CommaEENtNtNtCsaNl6UpbT7bw_4core3ops5deref8DerefMut9deref_mutCs87DMVckFIdB_12serde_derive, symObjAddr: 0x6A88, symBinAddr: 0x3F600, symSize: 0x24 }
  - { offset: 0x6D59E, size: 0x8, addend: 0x0, symName: __RNvXs7_NtCsiTraAjBDcu4_5alloc3vecINtB5_3VecTNtNtCsc29TF2YcYso_3syn8generics14TypeParamBoundNtNtBK_5token4PlusEENtNtNtCsaNl6UpbT7bw_4core3ops5deref8DerefMut9deref_mutCs87DMVckFIdB_12serde_derive, symObjAddr: 0x6AAC, symBinAddr: 0x3F624, symSize: 0x24 }
  - { offset: 0x6D5DE, size: 0x8, addend: 0x0, symName: __RNvXs7_NtCsiTraAjBDcu4_5alloc3vecINtB5_3VecTNtNtCsc29TF2YcYso_3syn8generics14WherePredicateNtNtBK_5token5CommaEENtNtNtCsaNl6UpbT7bw_4core3ops5deref8DerefMut9deref_mutCs87DMVckFIdB_12serde_derive, symObjAddr: 0x6AD0, symBinAddr: 0x3F648, symSize: 0x24 }
  - { offset: 0x6D684, size: 0x8, addend: 0x0, symName: __RNvXs9_NtCsiTraAjBDcu4_5alloc3vecINtB5_3VecNtNtCsc29TF2YcYso_3syn8generics14WherePredicateENtNtCsaNl6UpbT7bw_4core5clone5Clone5cloneCs87DMVckFIdB_12serde_derive, symObjAddr: 0x6AF4, symBinAddr: 0x3F66C, symSize: 0x90 }
  - { offset: 0x6D85B, size: 0x8, addend: 0x0, symName: __RNvXsb_NtCsiTraAjBDcu4_5alloc3vecINtB5_3VecNtNtCsc29TF2YcYso_3syn8generics14WherePredicateEINtNtNtCsaNl6UpbT7bw_4core3ops5index5IndexNtNtB1w_5range9RangeFullE5indexCs87DMVckFIdB_12serde_derive, symObjAddr: 0x7F00, symBinAddr: 0x40A78, symSize: 0x80 }
  - { offset: 0x6D9DD, size: 0x8, addend: 0x0, symName: __RNvXsb_NtCsiTraAjBDcu4_5alloc3vecINtB5_3VecNtNtNtCs87DMVckFIdB_12serde_derive9internals3ast5FieldEINtNtNtCsaNl6UpbT7bw_4core3ops5index5IndexjE5indexBL_, symObjAddr: 0x7F80, symBinAddr: 0x40AF8, symSize: 0x8C }
  - { offset: 0x6DB5F, size: 0x8, addend: 0x0, symName: __RNvXsb_NtCsiTraAjBDcu4_5alloc3vecINtB5_3VecNtNtNtCs87DMVckFIdB_12serde_derive9internals3ast7VariantEINtNtNtCsaNl6UpbT7bw_4core3ops5index5IndexINtNtB1F_5range7RangeTojEE5indexBL_, symObjAddr: 0x800C, symBinAddr: 0x40B84, symSize: 0xE4 }
  - { offset: 0x6DD70, size: 0x8, addend: 0x0, symName: __RNvXsb_NtCsiTraAjBDcu4_5alloc3vecINtB5_3VecTNtNtCsc29TF2YcYso_3syn4path15GenericArgumentNtNtBK_5token5CommaEEINtNtNtCsaNl6UpbT7bw_4core3ops5index5IndexjE5indexCs87DMVckFIdB_12serde_derive, symObjAddr: 0x80F0, symBinAddr: 0x40C68, symSize: 0x8C }
  - { offset: 0x6DEF8, size: 0x8, addend: 0x0, symName: __RNvXse_NtCsiTraAjBDcu4_5alloc3vecINtB5_3VecNtNtCsc29TF2YcYso_3syn3lit6LitStrENtNtNtNtCsaNl6UpbT7bw_4core4iter6traits7collect12IntoIterator9into_iterCs87DMVckFIdB_12serde_derive, symObjAddr: 0x817C, symBinAddr: 0x40CF4, symSize: 0xDC }
  - { offset: 0x6E18A, size: 0x8, addend: 0x0, symName: __RNvXse_NtCsiTraAjBDcu4_5alloc3vecINtB5_3VecNtNtCsc29TF2YcYso_3syn4path11PathSegmentENtNtNtNtCsaNl6UpbT7bw_4core4iter6traits7collect12IntoIterator9into_iterCs87DMVckFIdB_12serde_derive, symObjAddr: 0x8258, symBinAddr: 0x40DD0, symSize: 0xE4 }
  - { offset: 0x6E41C, size: 0x8, addend: 0x0, symName: __RNvXse_NtCsiTraAjBDcu4_5alloc3vecINtB5_3VecNtNtCsc29TF2YcYso_3syn5error5ErrorENtNtNtNtCsaNl6UpbT7bw_4core4iter6traits7collect12IntoIterator9into_iterCs87DMVckFIdB_12serde_derive, symObjAddr: 0x833C, symBinAddr: 0x40EB4, symSize: 0xE4 }
  - { offset: 0x6E6AE, size: 0x8, addend: 0x0, symName: __RNvXse_NtCsiTraAjBDcu4_5alloc3vecINtB5_3VecNtNtCsc29TF2YcYso_3syn8generics12GenericParamENtNtNtNtCsaNl6UpbT7bw_4core4iter6traits7collect12IntoIterator9into_iterCs87DMVckFIdB_12serde_derive, symObjAddr: 0x8420, symBinAddr: 0x40F98, symSize: 0xE4 }
  - { offset: 0x6E940, size: 0x8, addend: 0x0, symName: __RNvXse_NtCsiTraAjBDcu4_5alloc3vecINtB5_3VecNtNtCsc29TF2YcYso_3syn8generics14WherePredicateENtNtNtNtCsaNl6UpbT7bw_4core4iter6traits7collect12IntoIterator9into_iterCs87DMVckFIdB_12serde_derive, symObjAddr: 0x8504, symBinAddr: 0x4107C, symSize: 0xE4 }
  - { offset: 0x6EBD2, size: 0x8, addend: 0x0, symName: __RNvXse_NtCsiTraAjBDcu4_5alloc3vecINtB5_3VecNtNtNtCs87DMVckFIdB_12serde_derive9internals4name4NameENtNtNtNtCsaNl6UpbT7bw_4core4iter6traits7collect12IntoIterator9into_iterBL_, symObjAddr: 0x85E8, symBinAddr: 0x41160, symSize: 0xDC }
  - { offset: 0x6EE64, size: 0x8, addend: 0x0, symName: __RNvXse_NtCsiTraAjBDcu4_5alloc3vecINtB5_3VecRNtNtCsc29TF2YcYso_3syn2ty8TypePathENtNtNtNtCsaNl6UpbT7bw_4core4iter6traits7collect12IntoIterator9into_iterCs87DMVckFIdB_12serde_derive, symObjAddr: 0x86C4, symBinAddr: 0x4123C, symSize: 0xDC }
  - { offset: 0x6F0F6, size: 0x8, addend: 0x0, symName: __RNvXse_NtCsiTraAjBDcu4_5alloc3vecINtB5_3VecTNtNtCsc29TF2YcYso_3syn8generics12GenericParamNtNtBK_5token5CommaEENtNtNtNtCsaNl6UpbT7bw_4core4iter6traits7collect12IntoIterator9into_iterCs87DMVckFIdB_12serde_derive, symObjAddr: 0x87A0, symBinAddr: 0x41318, symSize: 0xE4 }
  - { offset: 0x6F388, size: 0x8, addend: 0x0, symName: __RNvXse_NtCsiTraAjBDcu4_5alloc3vecINtB5_3VecTNtNtCsc29TF2YcYso_3syn8generics14WherePredicateNtNtBK_5token5CommaEENtNtNtNtCsaNl6UpbT7bw_4core4iter6traits7collect12IntoIterator9into_iterCs87DMVckFIdB_12serde_derive, symObjAddr: 0x8884, symBinAddr: 0x413FC, symSize: 0xE4 }
  - { offset: 0x6F67B, size: 0x8, addend: 0x0, symName: __RNvXsf_NtCsiTraAjBDcu4_5alloc3vecRINtB5_3VecNtNtNtCs87DMVckFIdB_12serde_derive9internals3ast5FieldENtNtNtNtCsaNl6UpbT7bw_4core4iter6traits7collect12IntoIterator9into_iterBM_, symObjAddr: 0x8968, symBinAddr: 0x414E0, symSize: 0xAC }
  - { offset: 0x6F8B9, size: 0x8, addend: 0x0, symName: __RNvXsf_NtCsiTraAjBDcu4_5alloc3vecRINtB5_3VecNtNtNtCs87DMVckFIdB_12serde_derive9internals3ast7VariantENtNtNtNtCsaNl6UpbT7bw_4core4iter6traits7collect12IntoIterator9into_iterBM_, symObjAddr: 0x8A14, symBinAddr: 0x4158C, symSize: 0xAC }
  - { offset: 0x6FAFD, size: 0x8, addend: 0x0, symName: __RNvXsg_NtCsiTraAjBDcu4_5alloc3vecQINtB5_3VecNtNtNtCs87DMVckFIdB_12serde_derive9internals3ast5FieldENtNtNtNtCsaNl6UpbT7bw_4core4iter6traits7collect12IntoIterator9into_iterBM_, symObjAddr: 0x8AC0, symBinAddr: 0x41638, symSize: 0xAC }
  - { offset: 0x6FD0D, size: 0x8, addend: 0x0, symName: __RNvXsg_NtCsiTraAjBDcu4_5alloc3vecQINtB5_3VecNtNtNtCs87DMVckFIdB_12serde_derive9internals3ast7VariantENtNtNtNtCsaNl6UpbT7bw_4core4iter6traits7collect12IntoIterator9into_iterBM_, symObjAddr: 0x8B6C, symBinAddr: 0x416E4, symSize: 0xAC }
  - { offset: 0x6FF23, size: 0x8, addend: 0x0, symName: __RNvXsn_NtCsiTraAjBDcu4_5alloc3vecINtB5_3VecIBw_NtNtCsc29TF2YcYso_3syn8generics14WherePredicateEENtNtNtCsaNl6UpbT7bw_4core3ops4drop4Drop4dropCs87DMVckFIdB_12serde_derive, symObjAddr: 0x8C18, symBinAddr: 0x41790, symSize: 0x38 }
  - { offset: 0x6FFD3, size: 0x8, addend: 0x0, symName: __RNvXsn_NtCsiTraAjBDcu4_5alloc3vecINtB5_3VecNtCshnvkK9b4wzu_11proc_macro211TokenStreamENtNtNtCsaNl6UpbT7bw_4core3ops4drop4Drop4dropCs87DMVckFIdB_12serde_derive, symObjAddr: 0x8C50, symBinAddr: 0x417C8, symSize: 0x38 }
  - { offset: 0x70083, size: 0x8, addend: 0x0, symName: __RNvXsn_NtCsiTraAjBDcu4_5alloc3vecINtB5_3VecNtCshnvkK9b4wzu_11proc_macro25IdentENtNtNtCsaNl6UpbT7bw_4core3ops4drop4Drop4dropCs87DMVckFIdB_12serde_derive, symObjAddr: 0x8C88, symBinAddr: 0x41800, symSize: 0x38 }
  - { offset: 0x70133, size: 0x8, addend: 0x0, symName: __RNvXsn_NtCsiTraAjBDcu4_5alloc3vecINtB5_3VecNtNtCs87DMVckFIdB_12serde_derive2de16FieldWithAliasesENtNtNtCsaNl6UpbT7bw_4core3ops4drop4Drop4dropBJ_, symObjAddr: 0x8CC0, symBinAddr: 0x41838, symSize: 0x38 }
  - { offset: 0x701E3, size: 0x8, addend: 0x0, symName: __RNvXsn_NtCsiTraAjBDcu4_5alloc3vecINtB5_3VecNtNtCsc29TF2YcYso_3syn3lit6LitStrENtNtNtCsaNl6UpbT7bw_4core3ops4drop4Drop4dropCs87DMVckFIdB_12serde_derive, symObjAddr: 0x8CF8, symBinAddr: 0x41870, symSize: 0x38 }
  - { offset: 0x70293, size: 0x8, addend: 0x0, symName: __RNvXsn_NtCsiTraAjBDcu4_5alloc3vecINtB5_3VecNtNtCsc29TF2YcYso_3syn4expr6MemberENtNtNtCsaNl6UpbT7bw_4core3ops4drop4Drop4dropCs87DMVckFIdB_12serde_derive, symObjAddr: 0x8D30, symBinAddr: 0x418A8, symSize: 0x38 }
  - { offset: 0x70343, size: 0x8, addend: 0x0, symName: __RNvXsn_NtCsiTraAjBDcu4_5alloc3vecINtB5_3VecNtNtCsc29TF2YcYso_3syn5error5ErrorENtNtNtCsaNl6UpbT7bw_4core3ops4drop4Drop4dropCs87DMVckFIdB_12serde_derive, symObjAddr: 0x8D68, symBinAddr: 0x418E0, symSize: 0x38 }
  - { offset: 0x703F3, size: 0x8, addend: 0x0, symName: __RNvXsn_NtCsiTraAjBDcu4_5alloc3vecINtB5_3VecNtNtCsc29TF2YcYso_3syn8generics12GenericParamENtNtNtCsaNl6UpbT7bw_4core3ops4drop4Drop4dropCs87DMVckFIdB_12serde_derive, symObjAddr: 0x8DA0, symBinAddr: 0x41918, symSize: 0x38 }
  - { offset: 0x704A3, size: 0x8, addend: 0x0, symName: __RNvXsn_NtCsiTraAjBDcu4_5alloc3vecINtB5_3VecNtNtCsc29TF2YcYso_3syn8generics14WherePredicateENtNtNtCsaNl6UpbT7bw_4core3ops4drop4Drop4dropCs87DMVckFIdB_12serde_derive, symObjAddr: 0x8DD8, symBinAddr: 0x41950, symSize: 0x38 }
  - { offset: 0x70553, size: 0x8, addend: 0x0, symName: __RNvXsn_NtCsiTraAjBDcu4_5alloc3vecINtB5_3VecNtNtNtCs87DMVckFIdB_12serde_derive9internals3ast5FieldENtNtNtCsaNl6UpbT7bw_4core3ops4drop4Drop4dropBL_, symObjAddr: 0x8E10, symBinAddr: 0x41988, symSize: 0x38 }
  - { offset: 0x70603, size: 0x8, addend: 0x0, symName: __RNvXsn_NtCsiTraAjBDcu4_5alloc3vecINtB5_3VecNtNtNtCs87DMVckFIdB_12serde_derive9internals3ast7VariantENtNtNtCsaNl6UpbT7bw_4core3ops4drop4Drop4dropBL_, symObjAddr: 0x8E48, symBinAddr: 0x419C0, symSize: 0x38 }
  - { offset: 0x706B3, size: 0x8, addend: 0x0, symName: __RNvXsn_NtCsiTraAjBDcu4_5alloc3vecINtB5_3VecNtNtNtCs87DMVckFIdB_12serde_derive9internals4name4NameENtNtNtCsaNl6UpbT7bw_4core3ops4drop4Drop4dropBL_, symObjAddr: 0x8E80, symBinAddr: 0x419F8, symSize: 0x38 }
  - { offset: 0x70763, size: 0x8, addend: 0x0, symName: __RNvXsn_NtCsiTraAjBDcu4_5alloc3vecINtB5_3VecRNtCshnvkK9b4wzu_11proc_macro25IdentENtNtNtCsaNl6UpbT7bw_4core3ops4drop4Drop4dropCs87DMVckFIdB_12serde_derive, symObjAddr: 0x8EB8, symBinAddr: 0x41A30, symSize: 0x24 }
  - { offset: 0x70813, size: 0x8, addend: 0x0, symName: __RNvXsn_NtCsiTraAjBDcu4_5alloc3vecINtB5_3VecRNtNtCsc29TF2YcYso_3syn2ty4TypeENtNtNtCsaNl6UpbT7bw_4core3ops4drop4Drop4dropCs87DMVckFIdB_12serde_derive, symObjAddr: 0x8EDC, symBinAddr: 0x41A54, symSize: 0x24 }
  - { offset: 0x708C3, size: 0x8, addend: 0x0, symName: __RNvXsn_NtCsiTraAjBDcu4_5alloc3vecINtB5_3VecRNtNtCsc29TF2YcYso_3syn2ty8TypePathENtNtNtCsaNl6UpbT7bw_4core3ops4drop4Drop4dropCs87DMVckFIdB_12serde_derive, symObjAddr: 0x8F00, symBinAddr: 0x41A78, symSize: 0x24 }
  - { offset: 0x70973, size: 0x8, addend: 0x0, symName: __RNvXsn_NtCsiTraAjBDcu4_5alloc3vecINtB5_3VecRNtNtCsc29TF2YcYso_3syn4expr6MemberENtNtNtCsaNl6UpbT7bw_4core3ops4drop4Drop4dropCs87DMVckFIdB_12serde_derive, symObjAddr: 0x8F24, symBinAddr: 0x41A9C, symSize: 0x24 }
  - { offset: 0x70A23, size: 0x8, addend: 0x0, symName: __RNvXsn_NtCsiTraAjBDcu4_5alloc3vecINtB5_3VecTRNtNtNtCs87DMVckFIdB_12serde_derive9internals3ast5FieldNtCshnvkK9b4wzu_11proc_macro25IdentEENtNtNtCsaNl6UpbT7bw_4core3ops4drop4Drop4dropBN_, symObjAddr: 0x8F48, symBinAddr: 0x41AC0, symSize: 0x38 }
  - { offset: 0x76406, size: 0x8, addend: 0x0, symName: __RINvMsi_NtCsiTraAjBDcu4_5alloc3vecINtB6_3VecNtCshnvkK9b4wzu_11proc_macro211TokenStreamE14extend_trustedINtNtNtNtCsaNl6UpbT7bw_4core4iter8adapters3map3MapINtNtB1I_9enumerate9EnumerateINtNtNtB1M_5slice4iter4IterNtNtNtCs87DMVckFIdB_12serde_derive9internals3ast7VariantEENCNvNtB3r_3ser14serialize_enum0EEB3r_, symObjAddr: 0x0, symBinAddr: 0x38B78, symSize: 0x190 }
  - { offset: 0x766D7, size: 0x8, addend: 0x0, symName: __RINvMsi_NtCsiTraAjBDcu4_5alloc3vecINtB6_3VecNtCshnvkK9b4wzu_11proc_macro211TokenStreamE14extend_trustedINtNtNtNtCsaNl6UpbT7bw_4core4iter8adapters3map3MapINtNtNtB1M_5slice4iter4IterNtNtNtCs87DMVckFIdB_12serde_derive9internals3ast5FieldENCNvNtB2Y_3ser27wrap_serialize_variant_withs_0EEB2Y_, symObjAddr: 0x190, symBinAddr: 0x38D08, symSize: 0x16C }
  - { offset: 0x76A71, size: 0x8, addend: 0x0, symName: __RINvMsi_NtCsiTraAjBDcu4_5alloc3vecINtB6_3VecNtCshnvkK9b4wzu_11proc_macro211TokenStreamE16extend_desugaredINtNtNtNtCsaNl6UpbT7bw_4core4iter8adapters10filter_map9FilterMapINtNtB1K_6filter6FilterINtNtB1K_9enumerate9EnumerateINtNtNtB1O_5slice4iter4IterNtNtNtCs87DMVckFIdB_12serde_derive9internals3ast7VariantEENCNvNtNtB44_2de15enum_adjacently11deserializes0_0ENCB4W_s1_0EEB44_, symObjAddr: 0x2FC, symBinAddr: 0x38E74, symSize: 0x1C0 }
  - { offset: 0x76E21, size: 0x8, addend: 0x0, symName: __RINvMsi_NtCsiTraAjBDcu4_5alloc3vecINtB6_3VecNtCshnvkK9b4wzu_11proc_macro211TokenStreamE16extend_desugaredINtNtNtNtCsaNl6UpbT7bw_4core4iter8adapters10filter_map9FilterMapINtNtNtB1O_5slice4iter4IterNtNtNtCs87DMVckFIdB_12serde_derive9internals3ast7VariantENCNvNtB3e_7pretend24pretend_fields_used_enum0EEB3e_, symObjAddr: 0x4BC, symBinAddr: 0x39034, symSize: 0x1C0 }
  - { offset: 0x771D1, size: 0x8, addend: 0x0, symName: __RINvMsi_NtCsiTraAjBDcu4_5alloc3vecINtB6_3VecNtCshnvkK9b4wzu_11proc_macro211TokenStreamE16extend_desugaredINtNtNtNtCsaNl6UpbT7bw_4core4iter8adapters3map3MapINtNtB1K_6filter6FilterINtNtB1K_9enumerate9EnumerateINtNtNtB1O_5slice4iter4IterNtNtNtCs87DMVckFIdB_12serde_derive9internals3ast5FieldEENCNvNtB3Q_3ser30serialize_tuple_struct_visitor0ENCB4G_s_0EEB3Q_, symObjAddr: 0x67C, symBinAddr: 0x391F4, symSize: 0x1C0 }
  - { offset: 0x77574, size: 0x8, addend: 0x0, symName: __RINvMsi_NtCsiTraAjBDcu4_5alloc3vecINtB6_3VecNtCshnvkK9b4wzu_11proc_macro211TokenStreamE16extend_desugaredINtNtNtNtCsaNl6UpbT7bw_4core4iter8adapters3map3MapINtNtB1K_6filter6FilterINtNtB1K_9enumerate9EnumerateINtNtNtB1O_5slice4iter4IterNtNtNtCs87DMVckFIdB_12serde_derive9internals3ast7VariantEENCNvNtNtB3Q_2de15enum_adjacently11deserialize0ENCB4I_s_0EEB3Q_, symObjAddr: 0x83C, symBinAddr: 0x393B4, symSize: 0x1C0 }
  - { offset: 0x77917, size: 0x8, addend: 0x0, symName: __RINvMsi_NtCsiTraAjBDcu4_5alloc3vecINtB6_3VecNtCshnvkK9b4wzu_11proc_macro211TokenStreamE16extend_desugaredINtNtNtNtCsaNl6UpbT7bw_4core4iter8adapters3map3MapINtNtB1K_6filter6FilterINtNtNtB1O_5slice4iter4IterNtNtNtCs87DMVckFIdB_12serde_derive9internals3ast5FieldENCNvNtB3n_3ser24serialize_struct_visitor0ENCB4c_s_0EEB3n_, symObjAddr: 0x9FC, symBinAddr: 0x39574, symSize: 0x1C0 }
  - { offset: 0x77C4A, size: 0x8, addend: 0x0, symName: __RINvMsi_NtCsiTraAjBDcu4_5alloc3vecINtB6_3VecNtCshnvkK9b4wzu_11proc_macro25IdentE14extend_trustedINtNtNtNtCsaNl6UpbT7bw_4core4iter8adapters3map3MapINtNtNtB1F_3ops5range5RangejENCNCNvNtCs87DMVckFIdB_12serde_derive7pretend21pretend_variants_used00EEB2V_, symObjAddr: 0xBBC, symBinAddr: 0x39734, symSize: 0x16C }
  - { offset: 0x77F40, size: 0x8, addend: 0x0, symName: __RINvMsi_NtCsiTraAjBDcu4_5alloc3vecINtB6_3VecNtNtCs87DMVckFIdB_12serde_derive2de16FieldWithAliasesE14extend_trustedINtNtNtNtCsaNl6UpbT7bw_4core4iter8adapters3map3MapINtNtNtB1X_5slice4iter4IterNtNtNtBK_9internals3ast7VariantENCNvNtBI_10identifier18deserialize_customs_0EEBK_, symObjAddr: 0xD28, symBinAddr: 0x398A0, symSize: 0x16C }
  - { offset: 0x78299, size: 0x8, addend: 0x0, symName: __RINvMsi_NtCsiTraAjBDcu4_5alloc3vecINtB6_3VecNtNtCs87DMVckFIdB_12serde_derive2de16FieldWithAliasesE16extend_desugaredINtNtNtNtCsaNl6UpbT7bw_4core4iter8adapters3map3MapINtNtB1V_6filter6FilterINtNtB1V_9enumerate9EnumerateINtNtNtB1Z_5slice4iter4IterNtNtNtBK_9internals3ast5FieldEENCNvNtBI_7struct_11deserialize0ENCB4s_s_0EEBK_, symObjAddr: 0xE94, symBinAddr: 0x39A0C, symSize: 0x1BC }
  - { offset: 0x7862F, size: 0x8, addend: 0x0, symName: __RINvMsi_NtCsiTraAjBDcu4_5alloc3vecINtB6_3VecNtNtCs87DMVckFIdB_12serde_derive2de16FieldWithAliasesE16extend_desugaredINtNtNtNtCsaNl6UpbT7bw_4core4iter8adapters3map3MapINtNtB1V_6filter6FilterINtNtB1V_9enumerate9EnumerateINtNtNtB1Z_5slice4iter4IterNtNtNtBK_9internals3ast7VariantEENCNvNtBI_5enum_25prepare_enum_variant_enum0ENCB4u_s2_0EEBK_, symObjAddr: 0x1050, symBinAddr: 0x39BC8, symSize: 0x1BC }
  - { offset: 0x78962, size: 0x8, addend: 0x0, symName: __RINvMsi_NtCsiTraAjBDcu4_5alloc3vecINtB6_3VecNtNtCsc29TF2YcYso_3syn4expr6MemberE14extend_trustedINtNtNtNtCsaNl6UpbT7bw_4core4iter8adapters3map3MapINtNtNtB1E_3ops5range5RangejENCNvNtCs87DMVckFIdB_12serde_derive3ser35serialize_adjacently_tagged_variants_0EEB2S_, symObjAddr: 0x120C, symBinAddr: 0x39D84, symSize: 0x16C }
  - { offset: 0x78C17, size: 0x8, addend: 0x0, symName: __RINvMsi_NtCsiTraAjBDcu4_5alloc3vecINtB6_3VecNtNtCsc29TF2YcYso_3syn4expr6MemberE14extend_trustedINtNtNtNtCsaNl6UpbT7bw_4core4iter8adapters3map3MapINtNtNtB1E_5slice4iter4IterNtNtNtCs87DMVckFIdB_12serde_derive9internals3ast5FieldENCNvNtB2Q_3ser35serialize_adjacently_tagged_variants0_0EEB2Q_, symObjAddr: 0x1378, symBinAddr: 0x39EF0, symSize: 0x16C }
  - { offset: 0x78F00, size: 0x8, addend: 0x0, symName: __RINvMsi_NtCsiTraAjBDcu4_5alloc3vecINtB6_3VecNtNtCsc29TF2YcYso_3syn8generics12GenericParamE14extend_trustedINtNtCsaNl6UpbT7bw_4core6option8IntoIterBG_EECs87DMVckFIdB_12serde_derive, symObjAddr: 0x14E4, symBinAddr: 0x3A05C, symSize: 0x19C }
  - { offset: 0x791C3, size: 0x8, addend: 0x0, symName: __RINvMsi_NtCsiTraAjBDcu4_5alloc3vecINtB6_3VecNtNtCsc29TF2YcYso_3syn8generics12GenericParamE14extend_trustedINtNtNtNtCsaNl6UpbT7bw_4core4iter8adapters3map3MapINtNtB6_9into_iter8IntoIterTBG_NtNtBK_5token5CommaEENCNvXs8_NtBK_10punctuatedINtB3s_10PunctuatedBG_B2Z_ENtNtNtB1N_6traits7collect12IntoIterator9into_iter0EECs87DMVckFIdB_12serde_derive, symObjAddr: 0x1680, symBinAddr: 0x3A1F8, symSize: 0x184 }
  - { offset: 0x794AD, size: 0x8, addend: 0x0, symName: __RINvMsi_NtCsiTraAjBDcu4_5alloc3vecINtB6_3VecNtNtCsc29TF2YcYso_3syn8generics14WherePredicateE14extend_trustedINtNtCsaNl6UpbT7bw_4core6option8IntoIterBG_EECs87DMVckFIdB_12serde_derive, symObjAddr: 0x1804, symBinAddr: 0x3A37C, symSize: 0x19C }
  - { offset: 0x79791, size: 0x8, addend: 0x0, symName: __RINvMsi_NtCsiTraAjBDcu4_5alloc3vecINtB6_3VecNtNtCsc29TF2YcYso_3syn8generics14WherePredicateE14extend_trustedINtNtNtNtCsaNl6UpbT7bw_4core4iter8adapters3map3MapINtNtB6_9into_iter8IntoIterTBG_NtNtBK_5token5CommaEENCNvXs8_NtBK_10punctuatedINtB3u_10PunctuatedBG_B31_ENtNtNtB1P_6traits7collect12IntoIterator9into_iter0EECs87DMVckFIdB_12serde_derive, symObjAddr: 0x19A0, symBinAddr: 0x3A518, symSize: 0x184 }
  - { offset: 0x79AEB, size: 0x8, addend: 0x0, symName: __RINvMsi_NtCsiTraAjBDcu4_5alloc3vecINtB6_3VecNtNtCsc29TF2YcYso_3syn8generics14WherePredicateE16extend_desugaredINtNtBK_10punctuated8IntoIterBG_EECs87DMVckFIdB_12serde_derive, symObjAddr: 0x1B24, symBinAddr: 0x3A69C, symSize: 0x1F8 }
  - { offset: 0x79F59, size: 0x8, addend: 0x0, symName: __RINvMsi_NtCsiTraAjBDcu4_5alloc3vecINtB6_3VecNtNtNtCs87DMVckFIdB_12serde_derive9internals3ast5FieldE16extend_desugaredINtNtNtNtCsaNl6UpbT7bw_4core4iter8adapters3map3MapINtNtB1W_9enumerate9EnumerateINtNtCsc29TF2YcYso_3syn10punctuated4IterNtNtB3d_4data5FieldEENCNvBI_15fields_from_ast0EEBM_, symObjAddr: 0x1D1C, symBinAddr: 0x3A894, symSize: 0x1FC }
  - { offset: 0x7A351, size: 0x8, addend: 0x0, symName: __RINvMsi_NtCsiTraAjBDcu4_5alloc3vecINtB6_3VecNtNtNtCs87DMVckFIdB_12serde_derive9internals3ast7VariantE16extend_desugaredINtNtNtNtCsaNl6UpbT7bw_4core4iter8adapters3map3MapINtNtCsc29TF2YcYso_3syn10punctuated4IterNtNtB2M_4data7VariantENCNvBI_13enum_from_ast0EEBM_, symObjAddr: 0x1F18, symBinAddr: 0x3AA90, symSize: 0x1F8 }
  - { offset: 0x7A691, size: 0x8, addend: 0x0, symName: __RINvMsi_NtCsiTraAjBDcu4_5alloc3vecINtB6_3VecRNtCshnvkK9b4wzu_11proc_macro25IdentE14extend_trustedINtNtNtNtCsaNl6UpbT7bw_4core4iter8adapters3map3MapINtNtNtB1G_5slice4iter4IterNtNtCs87DMVckFIdB_12serde_derive2de16FieldWithAliasesENCNvNtB2O_10identifier21deserialize_generated0EEB2Q_, symObjAddr: 0x2110, symBinAddr: 0x3AC88, symSize: 0x16C }
  - { offset: 0x7A97A, size: 0x8, addend: 0x0, symName: __RINvMsi_NtCsiTraAjBDcu4_5alloc3vecINtB6_3VecRNtNtCsc29TF2YcYso_3syn2ty4TypeE14extend_trustedINtNtNtNtCsaNl6UpbT7bw_4core4iter8adapters3map3MapINtNtNtB1B_5slice4iter4IterNtNtNtCs87DMVckFIdB_12serde_derive9internals3ast5FieldENCNvNtB2N_3ser27wrap_serialize_variant_with0EEB2N_, symObjAddr: 0x227C, symBinAddr: 0x3ADF4, symSize: 0x16C }
  - { offset: 0x7AC70, size: 0x8, addend: 0x0, symName: __RINvMsi_NtCsiTraAjBDcu4_5alloc3vecINtB6_3VecRNtNtCsc29TF2YcYso_3syn4expr6MemberE14extend_trustedINtNtNtNtCsaNl6UpbT7bw_4core4iter8adapters3map3MapINtNtNtB1F_5slice4iter4IterNtNtNtCs87DMVckFIdB_12serde_derive9internals3ast5FieldENCNvNtB2R_3ser37serialize_struct_variant_with_flattens0_0EEB2R_, symObjAddr: 0x23E8, symBinAddr: 0x3AF60, symSize: 0x16C }
  - { offset: 0x7AF25, size: 0x8, addend: 0x0, symName: __RINvMsi_NtCsiTraAjBDcu4_5alloc3vecINtB6_3VecRNtNtCsc29TF2YcYso_3syn4expr6MemberE14extend_trustedINtNtNtNtCsaNl6UpbT7bw_4core4iter8adapters3map3MapINtNtNtB1F_5slice4iter4IterNtNtNtCs87DMVckFIdB_12serde_derive9internals3ast5FieldENCNvNtB2R_7pretend33pretend_fields_used_struct_packed0EEB2R_, symObjAddr: 0x2554, symBinAddr: 0x3B0CC, symSize: 0x16C }
  - { offset: 0x7B22C, size: 0x8, addend: 0x0, symName: __RINvMsi_NtCsiTraAjBDcu4_5alloc3vecINtB6_3VecTRNtNtNtCs87DMVckFIdB_12serde_derive9internals3ast5FieldNtCshnvkK9b4wzu_11proc_macro25IdentEE14extend_trustedINtNtNtNtCsaNl6UpbT7bw_4core4iter8adapters3map3MapINtNtB2w_9enumerate9EnumerateINtNtNtB2A_5slice4iter4IterBI_EENCNvNtNtBO_2de7struct_15deserialize_map0EEBO_, symObjAddr: 0x26C0, symBinAddr: 0x3B238, symSize: 0x178 }
  - { offset: 0x7B516, size: 0x8, addend: 0x0, symName: __RINvMsi_NtCsiTraAjBDcu4_5alloc3vecINtB6_3VechE14extend_trustedINtNtNtNtCsaNl6UpbT7bw_4core4iter8adapters3map3MapINtNtNtB17_5slice4iter4IterhENCNvNtB8_3str13replace_ascii0EECs87DMVckFIdB_12serde_derive, symObjAddr: 0x2838, symBinAddr: 0x3B3B0, symSize: 0x178 }
  - { offset: 0x7B7E3, size: 0x8, addend: 0x0, symName: __RNvMNtCsiTraAjBDcu4_5alloc3vecINtB2_3VecIBt_NtNtCsc29TF2YcYso_3syn8generics14WherePredicateEE3newCs87DMVckFIdB_12serde_derive, symObjAddr: 0x3428, symBinAddr: 0x3BFA0, symSize: 0x14 }
  - { offset: 0x7B800, size: 0x8, addend: 0x0, symName: __RNvMNtCsiTraAjBDcu4_5alloc3vecINtB2_3VecNtNtCsc29TF2YcYso_3syn3lit6LitStrE3newCs87DMVckFIdB_12serde_derive, symObjAddr: 0x343C, symBinAddr: 0x3BFB4, symSize: 0x14 }
  - { offset: 0x7B81D, size: 0x8, addend: 0x0, symName: __RNvMNtCsiTraAjBDcu4_5alloc3vecINtB2_3VecNtNtCsc29TF2YcYso_3syn4expr6MemberE3newCs87DMVckFIdB_12serde_derive, symObjAddr: 0x3450, symBinAddr: 0x3BFC8, symSize: 0x14 }
  - { offset: 0x7B83A, size: 0x8, addend: 0x0, symName: __RNvMNtCsiTraAjBDcu4_5alloc3vecINtB2_3VecNtNtCsc29TF2YcYso_3syn5error5ErrorE3newCs87DMVckFIdB_12serde_derive, symObjAddr: 0x3464, symBinAddr: 0x3BFDC, symSize: 0x14 }
  - { offset: 0x7B8B9, size: 0x8, addend: 0x0, symName: __RNvMNtCsiTraAjBDcu4_5alloc3vecINtB2_3VecNtNtCsc29TF2YcYso_3syn8generics12GenericParamE13with_capacityCs87DMVckFIdB_12serde_derive, symObjAddr: 0x3478, symBinAddr: 0x3BFF0, symSize: 0x48 }
  - { offset: 0x7B993, size: 0x8, addend: 0x0, symName: __RNvMNtCsiTraAjBDcu4_5alloc3vecINtB2_3VecNtNtCsc29TF2YcYso_3syn8generics14WherePredicateE13with_capacityCs87DMVckFIdB_12serde_derive, symObjAddr: 0x34C0, symBinAddr: 0x3C038, symSize: 0x48 }
  - { offset: 0x7BA0B, size: 0x8, addend: 0x0, symName: __RNvMNtCsiTraAjBDcu4_5alloc3vecINtB2_3VecNtNtCsc29TF2YcYso_3syn8generics14WherePredicateE3newCs87DMVckFIdB_12serde_derive, symObjAddr: 0x3508, symBinAddr: 0x3C080, symSize: 0x14 }
  - { offset: 0x7BA28, size: 0x8, addend: 0x0, symName: __RNvMNtCsiTraAjBDcu4_5alloc3vecINtB2_3VecNtNtNtCs87DMVckFIdB_12serde_derive9internals3ast5FieldE3newBI_, symObjAddr: 0x351C, symBinAddr: 0x3C094, symSize: 0x14 }
  - { offset: 0x7BA45, size: 0x8, addend: 0x0, symName: __RNvMNtCsiTraAjBDcu4_5alloc3vecINtB2_3VecNtNtNtCs87DMVckFIdB_12serde_derive9internals4name4NameE3newBI_, symObjAddr: 0x3530, symBinAddr: 0x3C0A8, symSize: 0x14 }
  - { offset: 0x7BA6F, size: 0x8, addend: 0x0, symName: __RNvMNtCsiTraAjBDcu4_5alloc3vecINtB2_3VecRNtNtCsc29TF2YcYso_3syn2ty8TypePathE3newCs87DMVckFIdB_12serde_derive, symObjAddr: 0x3544, symBinAddr: 0x3C0BC, symSize: 0x14 }
  - { offset: 0x7BA99, size: 0x8, addend: 0x0, symName: __RNvMs_NtCsiTraAjBDcu4_5alloc3vecINtB4_3VecIBv_NtNtCsc29TF2YcYso_3syn8generics14WherePredicateEE3lenCs87DMVckFIdB_12serde_derive, symObjAddr: 0x3558, symBinAddr: 0x3C0D0, symSize: 0x18 }
  - { offset: 0x7BC1B, size: 0x8, addend: 0x0, symName: __RNvMs_NtCsiTraAjBDcu4_5alloc3vecINtB4_3VecIBv_NtNtCsc29TF2YcYso_3syn8generics14WherePredicateEE3popCs87DMVckFIdB_12serde_derive, symObjAddr: 0x3570, symBinAddr: 0x3C0E8, symSize: 0x108 }
  - { offset: 0x7BE8F, size: 0x8, addend: 0x0, symName: __RNvMs_NtCsiTraAjBDcu4_5alloc3vecINtB4_3VecIBv_NtNtCsc29TF2YcYso_3syn8generics14WherePredicateEE4pushCs87DMVckFIdB_12serde_derive, symObjAddr: 0x3678, symBinAddr: 0x3C1F0, symSize: 0x108 }
  - { offset: 0x7C122, size: 0x8, addend: 0x0, symName: __RNvMs_NtCsiTraAjBDcu4_5alloc3vecINtB4_3VecNtCshnvkK9b4wzu_11proc_macro211TokenStreamE4pushCs87DMVckFIdB_12serde_derive, symObjAddr: 0x3780, symBinAddr: 0x3C2F8, symSize: 0x100 }
  - { offset: 0x7C406, size: 0x8, addend: 0x0, symName: __RNvMs_NtCsiTraAjBDcu4_5alloc3vecINtB4_3VecNtCshnvkK9b4wzu_11proc_macro211TokenStreamE7reserveCs87DMVckFIdB_12serde_derive, symObjAddr: 0x3880, symBinAddr: 0x3C3F8, symSize: 0xC8 }
  - { offset: 0x7C604, size: 0x8, addend: 0x0, symName: __RNvMs_NtCsiTraAjBDcu4_5alloc3vecINtB4_3VecNtCshnvkK9b4wzu_11proc_macro211TokenStreamE8as_sliceCs87DMVckFIdB_12serde_derive, symObjAddr: 0x3948, symBinAddr: 0x3C4C0, symSize: 0x6C }
  - { offset: 0x7C6E3, size: 0x8, addend: 0x0, symName: __RNvMs_NtCsiTraAjBDcu4_5alloc3vecINtB4_3VecNtCshnvkK9b4wzu_11proc_macro211TokenStreamE8is_emptyCs87DMVckFIdB_12serde_derive, symObjAddr: 0x39B4, symBinAddr: 0x3C52C, symSize: 0x20 }
  - { offset: 0x7C84C, size: 0x8, addend: 0x0, symName: __RNvMs_NtCsiTraAjBDcu4_5alloc3vecINtB4_3VecNtCshnvkK9b4wzu_11proc_macro25IdentE7reserveCs87DMVckFIdB_12serde_derive, symObjAddr: 0x39D4, symBinAddr: 0x3C54C, symSize: 0xC8 }
  - { offset: 0x7CA57, size: 0x8, addend: 0x0, symName: __RNvMs_NtCsiTraAjBDcu4_5alloc3vecINtB4_3VecNtCshnvkK9b4wzu_11proc_macro25IdentE8as_sliceCs87DMVckFIdB_12serde_derive, symObjAddr: 0x3A9C, symBinAddr: 0x3C614, symSize: 0x6C }
  - { offset: 0x7CC27, size: 0x8, addend: 0x0, symName: __RNvMs_NtCsiTraAjBDcu4_5alloc3vecINtB4_3VecNtNtCs87DMVckFIdB_12serde_derive2de16FieldWithAliasesE7reserveBI_, symObjAddr: 0x3B08, symBinAddr: 0x3C680, symSize: 0xC8 }
  - { offset: 0x7CE25, size: 0x8, addend: 0x0, symName: __RNvMs_NtCsiTraAjBDcu4_5alloc3vecINtB4_3VecNtNtCs87DMVckFIdB_12serde_derive2de16FieldWithAliasesE8as_sliceBI_, symObjAddr: 0x3BD0, symBinAddr: 0x3C748, symSize: 0x6C }
  - { offset: 0x7CF04, size: 0x8, addend: 0x0, symName: __RNvMs_NtCsiTraAjBDcu4_5alloc3vecINtB4_3VecNtNtCs87DMVckFIdB_12serde_derive2de16FieldWithAliasesE8is_emptyBI_, symObjAddr: 0x3C3C, symBinAddr: 0x3C7B4, symSize: 0x20 }
  - { offset: 0x7CF64, size: 0x8, addend: 0x0, symName: __RNvMs_NtCsiTraAjBDcu4_5alloc3vecINtB4_3VecNtNtCsc29TF2YcYso_3syn3lit6LitStrE3lenCs87DMVckFIdB_12serde_derive, symObjAddr: 0x3C5C, symBinAddr: 0x3C7D4, symSize: 0x18 }
  - { offset: 0x7D0E6, size: 0x8, addend: 0x0, symName: __RNvMs_NtCsiTraAjBDcu4_5alloc3vecINtB4_3VecNtNtCsc29TF2YcYso_3syn3lit6LitStrE3popCs87DMVckFIdB_12serde_derive, symObjAddr: 0x3C74, symBinAddr: 0x3C7EC, symSize: 0xE0 }
  - { offset: 0x7D356, size: 0x8, addend: 0x0, symName: __RNvMs_NtCsiTraAjBDcu4_5alloc3vecINtB4_3VecNtNtCsc29TF2YcYso_3syn3lit6LitStrE4pushCs87DMVckFIdB_12serde_derive, symObjAddr: 0x3D54, symBinAddr: 0x3C8CC, symSize: 0xEC }
  - { offset: 0x7D61C, size: 0x8, addend: 0x0, symName: __RNvMs_NtCsiTraAjBDcu4_5alloc3vecINtB4_3VecNtNtCsc29TF2YcYso_3syn4expr6MemberE7reserveCs87DMVckFIdB_12serde_derive, symObjAddr: 0x3E40, symBinAddr: 0x3C9B8, symSize: 0xC8 }
  - { offset: 0x7D827, size: 0x8, addend: 0x0, symName: __RNvMs_NtCsiTraAjBDcu4_5alloc3vecINtB4_3VecNtNtCsc29TF2YcYso_3syn4expr6MemberE8as_sliceCs87DMVckFIdB_12serde_derive, symObjAddr: 0x3F08, symBinAddr: 0x3CA80, symSize: 0x6C }
  - { offset: 0x7D9F4, size: 0x8, addend: 0x0, symName: __RNvMs_NtCsiTraAjBDcu4_5alloc3vecINtB4_3VecNtNtCsc29TF2YcYso_3syn5error5ErrorE4pushCs87DMVckFIdB_12serde_derive, symObjAddr: 0x3F74, symBinAddr: 0x3CAEC, symSize: 0x108 }
  - { offset: 0x7DCBE, size: 0x8, addend: 0x0, symName: __RNvMs_NtCsiTraAjBDcu4_5alloc3vecINtB4_3VecNtNtCsc29TF2YcYso_3syn8generics12GenericParamE7reserveCs87DMVckFIdB_12serde_derive, symObjAddr: 0x407C, symBinAddr: 0x3CBF4, symSize: 0xC8 }
  - { offset: 0x7DF3B, size: 0x8, addend: 0x0, symName: __RNvMs_NtCsiTraAjBDcu4_5alloc3vecINtB4_3VecNtNtCsc29TF2YcYso_3syn8generics14WherePredicateE7reserveCs87DMVckFIdB_12serde_derive, symObjAddr: 0x4144, symBinAddr: 0x3CCBC, symSize: 0xC8 }
  - { offset: 0x7E0A2, size: 0x8, addend: 0x0, symName: __RNvMs_NtCsiTraAjBDcu4_5alloc3vecINtB4_3VecNtNtNtCs87DMVckFIdB_12serde_derive9internals3ast5FieldE3lenBK_, symObjAddr: 0x420C, symBinAddr: 0x3CD84, symSize: 0x18 }
  - { offset: 0x7E1ED, size: 0x8, addend: 0x0, symName: __RNvMs_NtCsiTraAjBDcu4_5alloc3vecINtB4_3VecNtNtNtCs87DMVckFIdB_12serde_derive9internals3ast5FieldE7reserveBK_, symObjAddr: 0x4224, symBinAddr: 0x3CD9C, symSize: 0xC8 }
  - { offset: 0x7E3EB, size: 0x8, addend: 0x0, symName: __RNvMs_NtCsiTraAjBDcu4_5alloc3vecINtB4_3VecNtNtNtCs87DMVckFIdB_12serde_derive9internals3ast5FieldE8as_sliceBK_, symObjAddr: 0x42EC, symBinAddr: 0x3CE64, symSize: 0x6C }
  - { offset: 0x7E4A5, size: 0x8, addend: 0x0, symName: __RNvMs_NtCsiTraAjBDcu4_5alloc3vecINtB4_3VecNtNtNtCs87DMVckFIdB_12serde_derive9internals3ast7VariantE3lenBK_, symObjAddr: 0x4358, symBinAddr: 0x3CED0, symSize: 0x18 }
  - { offset: 0x7E5F0, size: 0x8, addend: 0x0, symName: __RNvMs_NtCsiTraAjBDcu4_5alloc3vecINtB4_3VecNtNtNtCs87DMVckFIdB_12serde_derive9internals3ast7VariantE7reserveBK_, symObjAddr: 0x4370, symBinAddr: 0x3CEE8, symSize: 0xC8 }
  - { offset: 0x7E7EE, size: 0x8, addend: 0x0, symName: __RNvMs_NtCsiTraAjBDcu4_5alloc3vecINtB4_3VecNtNtNtCs87DMVckFIdB_12serde_derive9internals3ast7VariantE8as_sliceBK_, symObjAddr: 0x4438, symBinAddr: 0x3CFB0, symSize: 0x6C }
  - { offset: 0x7E8B5, size: 0x8, addend: 0x0, symName: __RNvMs_NtCsiTraAjBDcu4_5alloc3vecINtB4_3VecNtNtNtCs87DMVckFIdB_12serde_derive9internals4name4NameE3lenBK_, symObjAddr: 0x44A4, symBinAddr: 0x3D01C, symSize: 0x18 }
  - { offset: 0x7E9FD, size: 0x8, addend: 0x0, symName: __RNvMs_NtCsiTraAjBDcu4_5alloc3vecINtB4_3VecNtNtNtCs87DMVckFIdB_12serde_derive9internals4name4NameE4pushBK_, symObjAddr: 0x44BC, symBinAddr: 0x3D034, symSize: 0x100 }
  - { offset: 0x7ECC7, size: 0x8, addend: 0x0, symName: __RNvMs_NtCsiTraAjBDcu4_5alloc3vecINtB4_3VecRNtCshnvkK9b4wzu_11proc_macro25IdentE7reserveCs87DMVckFIdB_12serde_derive, symObjAddr: 0x45BC, symBinAddr: 0x3D134, symSize: 0xBC }
  - { offset: 0x7EED2, size: 0x8, addend: 0x0, symName: __RNvMs_NtCsiTraAjBDcu4_5alloc3vecINtB4_3VecRNtCshnvkK9b4wzu_11proc_macro25IdentE8as_sliceCs87DMVckFIdB_12serde_derive, symObjAddr: 0x4678, symBinAddr: 0x3D1F0, symSize: 0x68 }
  - { offset: 0x7F0A2, size: 0x8, addend: 0x0, symName: __RNvMs_NtCsiTraAjBDcu4_5alloc3vecINtB4_3VecRNtNtCsc29TF2YcYso_3syn2ty4TypeE7reserveCs87DMVckFIdB_12serde_derive, symObjAddr: 0x46E0, symBinAddr: 0x3D258, symSize: 0xBC }
  - { offset: 0x7F2AD, size: 0x8, addend: 0x0, symName: __RNvMs_NtCsiTraAjBDcu4_5alloc3vecINtB4_3VecRNtNtCsc29TF2YcYso_3syn2ty4TypeE8as_sliceCs87DMVckFIdB_12serde_derive, symObjAddr: 0x479C, symBinAddr: 0x3D314, symSize: 0x68 }
  - { offset: 0x7F47A, size: 0x8, addend: 0x0, symName: __RNvMs_NtCsiTraAjBDcu4_5alloc3vecINtB4_3VecRNtNtCsc29TF2YcYso_3syn2ty8TypePathE4pushCs87DMVckFIdB_12serde_derive, symObjAddr: 0x4804, symBinAddr: 0x3D37C, symSize: 0xE4 }
  - { offset: 0x7F742, size: 0x8, addend: 0x0, symName: __RNvMs_NtCsiTraAjBDcu4_5alloc3vecINtB4_3VecRNtNtCsc29TF2YcYso_3syn4expr6MemberE7reserveCs87DMVckFIdB_12serde_derive, symObjAddr: 0x48E8, symBinAddr: 0x3D460, symSize: 0xBC }
  - { offset: 0x7F94D, size: 0x8, addend: 0x0, symName: __RNvMs_NtCsiTraAjBDcu4_5alloc3vecINtB4_3VecRNtNtCsc29TF2YcYso_3syn4expr6MemberE8as_sliceCs87DMVckFIdB_12serde_derive, symObjAddr: 0x49A4, symBinAddr: 0x3D51C, symSize: 0x68 }
  - { offset: 0x7FAE2, size: 0x8, addend: 0x0, symName: __RNvMs_NtCsiTraAjBDcu4_5alloc3vecINtB4_3VecTNtNtCsc29TF2YcYso_3syn2ty4TypeNtNtBJ_5token5CommaEE12as_mut_sliceCs87DMVckFIdB_12serde_derive, symObjAddr: 0x4A0C, symBinAddr: 0x3D584, symSize: 0x6C }
  - { offset: 0x7FC8C, size: 0x8, addend: 0x0, symName: __RNvMs_NtCsiTraAjBDcu4_5alloc3vecINtB4_3VecTNtNtCsc29TF2YcYso_3syn2ty9BareFnArgNtNtBJ_5token5CommaEE12as_mut_sliceCs87DMVckFIdB_12serde_derive, symObjAddr: 0x4A78, symBinAddr: 0x3D5F0, symSize: 0x6C }
  - { offset: 0x7FE36, size: 0x8, addend: 0x0, symName: __RNvMs_NtCsiTraAjBDcu4_5alloc3vecINtB4_3VecTNtNtCsc29TF2YcYso_3syn4data7VariantNtNtBJ_5token5CommaEE12as_mut_sliceCs87DMVckFIdB_12serde_derive, symObjAddr: 0x4AE4, symBinAddr: 0x3D65C, symSize: 0x6C }
  - { offset: 0x7FFE0, size: 0x8, addend: 0x0, symName: __RNvMs_NtCsiTraAjBDcu4_5alloc3vecINtB4_3VecTNtNtCsc29TF2YcYso_3syn4expr4ExprNtNtBJ_5token5CommaEE12as_mut_sliceCs87DMVckFIdB_12serde_derive, symObjAddr: 0x4B50, symBinAddr: 0x3D6C8, symSize: 0x6C }
  - { offset: 0x8018A, size: 0x8, addend: 0x0, symName: __RNvMs_NtCsiTraAjBDcu4_5alloc3vecINtB4_3VecTNtNtCsc29TF2YcYso_3syn4path15GenericArgumentNtNtBJ_5token5CommaEE12as_mut_sliceCs87DMVckFIdB_12serde_derive, symObjAddr: 0x4BBC, symBinAddr: 0x3D734, symSize: 0x6C }
  - { offset: 0x80334, size: 0x8, addend: 0x0, symName: __RNvMs_NtCsiTraAjBDcu4_5alloc3vecINtB4_3VecTNtNtCsc29TF2YcYso_3syn8generics14TypeParamBoundNtNtBJ_5token4PlusEE12as_mut_sliceCs87DMVckFIdB_12serde_derive, symObjAddr: 0x4C28, symBinAddr: 0x3D7A0, symSize: 0x6C }
  - { offset: 0x804D1, size: 0x8, addend: 0x0, symName: __RNvMs_NtCsiTraAjBDcu4_5alloc3vecINtB4_3VecTNtNtCsc29TF2YcYso_3syn8generics14WherePredicateNtNtBJ_5token5CommaEE12as_mut_sliceCs87DMVckFIdB_12serde_derive, symObjAddr: 0x4C94, symBinAddr: 0x3D80C, symSize: 0x6C }
  - { offset: 0x806B6, size: 0x8, addend: 0x0, symName: __RNvMs_NtCsiTraAjBDcu4_5alloc3vecINtB4_3VecTRNtNtNtCs87DMVckFIdB_12serde_derive9internals3ast5FieldNtCshnvkK9b4wzu_11proc_macro25IdentEE7reserveBM_, symObjAddr: 0x4D00, symBinAddr: 0x3D878, symSize: 0xC8 }
  - { offset: 0x808C1, size: 0x8, addend: 0x0, symName: __RNvMs_NtCsiTraAjBDcu4_5alloc3vecINtB4_3VecTRNtNtNtCs87DMVckFIdB_12serde_derive9internals3ast5FieldNtCshnvkK9b4wzu_11proc_macro25IdentEE8as_sliceBM_, symObjAddr: 0x4DC8, symBinAddr: 0x3D940, symSize: 0x6C }
  - { offset: 0x8160F, size: 0x8, addend: 0x0, symName: __RNvXs4_NtNtCs4EAaWzSXu1l_5quote9___private3extINtNtCsiTraAjBDcu4_5alloc3vec3VecNtCshnvkK9b4wzu_11proc_macro211TokenStreamENtB5_16RepAsIteratorExt15quote_into_iterCs87DMVckFIdB_12serde_derive, symObjAddr: 0x67D4, symBinAddr: 0x3F34C, symSize: 0x38 }
  - { offset: 0x81644, size: 0x8, addend: 0x0, symName: __RNvXs4_NtNtCs4EAaWzSXu1l_5quote9___private3extINtNtCsiTraAjBDcu4_5alloc3vec3VecNtCshnvkK9b4wzu_11proc_macro25IdentENtB5_16RepAsIteratorExt15quote_into_iterCs87DMVckFIdB_12serde_derive, symObjAddr: 0x680C, symBinAddr: 0x3F384, symSize: 0x38 }
  - { offset: 0x81679, size: 0x8, addend: 0x0, symName: __RNvXs4_NtNtCs4EAaWzSXu1l_5quote9___private3extINtNtCsiTraAjBDcu4_5alloc3vec3VecRNtCshnvkK9b4wzu_11proc_macro25IdentENtB5_16RepAsIteratorExt15quote_into_iterCs87DMVckFIdB_12serde_derive, symObjAddr: 0x6844, symBinAddr: 0x3F3BC, symSize: 0x38 }
  - { offset: 0x816AE, size: 0x8, addend: 0x0, symName: __RNvXs4_NtNtCs4EAaWzSXu1l_5quote9___private3extINtNtCsiTraAjBDcu4_5alloc3vec3VecRNtNtCsc29TF2YcYso_3syn4expr6MemberENtB5_16RepAsIteratorExt15quote_into_iterCs87DMVckFIdB_12serde_derive, symObjAddr: 0x687C, symBinAddr: 0x3F3F4, symSize: 0x38 }
  - { offset: 0x83BBF, size: 0x8, addend: 0x0, symName: __RINvMs0_NtNtNtCsht3nMU9UgFu_3std11collections4hash3setINtB6_7HashSetNtCshnvkK9b4wzu_11proc_macro25IdentE8containsB14_ECs87DMVckFIdB_12serde_derive, symObjAddr: 0x0, symBinAddr: 0x41AF8, symSize: 0x5C }
  - { offset: 0x8451F, size: 0x8, addend: 0x0, symName: __RINvNtCsc29TF2YcYso_3syn10punctuated9do_extendNtNtB4_4path11PathSegmentNtNtB4_5token7PathSepINtNtNtNtCsaNl6UpbT7bw_4core4iter8adapters4skip4SkipINtB2_9IntoPairsBI_B17_EEECs87DMVckFIdB_12serde_derive, symObjAddr: 0x55C, symBinAddr: 0x42054, symSize: 0x3B4 }
  - { offset: 0x8461C, size: 0x8, addend: 0x0, symName: __RINvXs4_NtCsc29TF2YcYso_3syn10punctuatedINtB6_10PunctuatedNtNtB8_4path11PathSegmentNtNtB8_5token7PathSepEINtNtNtNtCsaNl6UpbT7bw_4core4iter6traits7collect12FromIteratorBU_E9from_iterINtNtNtCsiTraAjBDcu4_5alloc3vec9into_iter8IntoIterBU_EECs87DMVckFIdB_12serde_derive, symObjAddr: 0xAD8, symBinAddr: 0x425D0, symSize: 0xD4 }
  - { offset: 0x8467C, size: 0x8, addend: 0x0, symName: __RINvXs4_NtCsc29TF2YcYso_3syn10punctuatedINtB6_10PunctuatedNtNtB8_4path15GenericArgumentNtNtB8_5token5CommaEINtNtNtNtCsaNl6UpbT7bw_4core4iter6traits7collect12FromIteratorBU_E9from_iterINtNtNtB1O_8adapters3map3MapINtB6_4IterNtNtB8_8generics12GenericParamENCNvNtCs87DMVckFIdB_12serde_derive5bound12type_of_item0EEB49_, symObjAddr: 0xBAC, symBinAddr: 0x426A4, symSize: 0xC8 }
  - { offset: 0x846DB, size: 0x8, addend: 0x0, symName: __RINvXs4_NtCsc29TF2YcYso_3syn10punctuatedINtB6_10PunctuatedNtNtB8_8generics12GenericParamNtNtB8_5token5CommaEINtNtNtNtCsaNl6UpbT7bw_4core4iter6traits7collect12FromIteratorBU_E9from_iterINtNtNtB1P_8adapters3map3MapINtB6_4IterBU_ENCNvNtCs87DMVckFIdB_12serde_derive5bound16without_defaults0EEB3J_, symObjAddr: 0xC74, symBinAddr: 0x4276C, symSize: 0xC8 }
  - { offset: 0x8473A, size: 0x8, addend: 0x0, symName: __RINvXs4_NtCsc29TF2YcYso_3syn10punctuatedINtB6_10PunctuatedNtNtB8_8generics12GenericParamNtNtB8_5token5CommaEINtNtNtNtCsaNl6UpbT7bw_4core4iter6traits7collect12FromIteratorBU_E9from_iterINtNtNtB1P_8adapters5chain5ChainINtNtB1R_6option8IntoIterBU_EINtB6_8IntoIterBU_EEECs87DMVckFIdB_12serde_derive, symObjAddr: 0xD3C, symBinAddr: 0x42834, symSize: 0xE0 }
  - { offset: 0x8479A, size: 0x8, addend: 0x0, symName: __RINvXs4_NtCsc29TF2YcYso_3syn10punctuatedINtB6_10PunctuatedNtNtB8_8generics12GenericParamNtNtB8_5token5CommaEINtNtNtNtCsaNl6UpbT7bw_4core4iter6traits7collect12FromIteratorBU_E9from_iterINtNtNtB1P_8adapters5chain5ChainINtNtB1R_6option8IntoIterBU_EINtNtB31_3map3MapINtNtB31_6cloned6ClonedINtB6_4IterBU_EENCNvNtCs87DMVckFIdB_12serde_derive5bound19with_lifetime_bound0EEEB4V_, symObjAddr: 0xE1C, symBinAddr: 0x42914, symSize: 0xE0 }
  - { offset: 0x847FA, size: 0x8, addend: 0x0, symName: __RINvXs4_NtCsc29TF2YcYso_3syn10punctuatedINtB6_10PunctuatedNtNtB8_8generics14TypeParamBoundNtNtB8_5token4PlusEINtNtNtNtCsaNl6UpbT7bw_4core4iter6traits7collect12FromIteratorBU_E9from_iterINtNtNtCsiTraAjBDcu4_5alloc3vec9into_iter8IntoIterBU_EECs87DMVckFIdB_12serde_derive, symObjAddr: 0xEFC, symBinAddr: 0x429F4, symSize: 0xD4 }
  - { offset: 0x8485A, size: 0x8, addend: 0x0, symName: __RINvXs4_NtCsc29TF2YcYso_3syn10punctuatedINtB6_10PunctuatedNtNtB8_8lifetime8LifetimeNtNtB8_5token4PlusEINtNtNtNtCsaNl6UpbT7bw_4core4iter6traits7collect12FromIteratorBU_E9from_iterINtNtNtB1J_8adapters6cloned6ClonedINtNtNtNtCsiTraAjBDcu4_5alloc11collections5btree3set4IterBU_EEECs87DMVckFIdB_12serde_derive, symObjAddr: 0xFD0, symBinAddr: 0x42AC8, symSize: 0xD0 }
  - { offset: 0x848C0, size: 0x8, addend: 0x0, symName: __RINvXs5_NtCsc29TF2YcYso_3syn10punctuatedINtB6_10PunctuatedNtNtB8_4path11PathSegmentNtNtB8_5token7PathSepEINtNtNtNtCsaNl6UpbT7bw_4core4iter6traits7collect6ExtendBU_E6extendINtNtNtCsiTraAjBDcu4_5alloc3vec9into_iter8IntoIterBU_EECs87DMVckFIdB_12serde_derive, symObjAddr: 0x10A0, symBinAddr: 0x42B98, symSize: 0xF8 }
  - { offset: 0x84942, size: 0x8, addend: 0x0, symName: __RINvXs5_NtCsc29TF2YcYso_3syn10punctuatedINtB6_10PunctuatedNtNtB8_4path15GenericArgumentNtNtB8_5token5CommaEINtNtNtNtCsaNl6UpbT7bw_4core4iter6traits7collect6ExtendBU_E6extendINtNtNtB1O_8adapters3map3MapINtB6_4IterNtNtB8_8generics12GenericParamENCNvNtCs87DMVckFIdB_12serde_derive5bound12type_of_item0EEB3Z_, symObjAddr: 0x1198, symBinAddr: 0x42C90, symSize: 0xF8 }
  - { offset: 0x849C3, size: 0x8, addend: 0x0, symName: __RINvXs5_NtCsc29TF2YcYso_3syn10punctuatedINtB6_10PunctuatedNtNtB8_8generics12GenericParamNtNtB8_5token5CommaEINtNtNtNtCsaNl6UpbT7bw_4core4iter6traits7collect6ExtendBU_E6extendINtNtNtB1P_8adapters3map3MapINtB6_4IterBU_ENCNvNtCs87DMVckFIdB_12serde_derive5bound16without_defaults0EEB3z_, symObjAddr: 0x1290, symBinAddr: 0x42D88, symSize: 0xF8 }
  - { offset: 0x84A44, size: 0x8, addend: 0x0, symName: __RINvXs5_NtCsc29TF2YcYso_3syn10punctuatedINtB6_10PunctuatedNtNtB8_8generics12GenericParamNtNtB8_5token5CommaEINtNtNtNtCsaNl6UpbT7bw_4core4iter6traits7collect6ExtendBU_E6extendINtNtNtB1P_8adapters5chain5ChainINtNtB1R_6option8IntoIterBU_EINtB6_8IntoIterBU_EEECs87DMVckFIdB_12serde_derive, symObjAddr: 0x1388, symBinAddr: 0x42E80, symSize: 0xFC }
  - { offset: 0x84AC7, size: 0x8, addend: 0x0, symName: __RINvXs5_NtCsc29TF2YcYso_3syn10punctuatedINtB6_10PunctuatedNtNtB8_8generics12GenericParamNtNtB8_5token5CommaEINtNtNtNtCsaNl6UpbT7bw_4core4iter6traits7collect6ExtendBU_E6extendINtNtNtB1P_8adapters5chain5ChainINtNtB1R_6option8IntoIterBU_EINtNtB2R_3map3MapINtNtB2R_6cloned6ClonedINtB6_4IterBU_EENCNvNtCs87DMVckFIdB_12serde_derive5bound19with_lifetime_bound0EEEB4L_, symObjAddr: 0x1484, symBinAddr: 0x42F7C, symSize: 0xFC }
  - { offset: 0x84B4A, size: 0x8, addend: 0x0, symName: __RINvXs5_NtCsc29TF2YcYso_3syn10punctuatedINtB6_10PunctuatedNtNtB8_8generics14TypeParamBoundNtNtB8_5token4PlusEINtNtNtNtCsaNl6UpbT7bw_4core4iter6traits7collect6ExtendBU_E6extendINtNtNtCsiTraAjBDcu4_5alloc3vec9into_iter8IntoIterBU_EECs87DMVckFIdB_12serde_derive, symObjAddr: 0x1580, symBinAddr: 0x43078, symSize: 0xF4 }
  - { offset: 0x84BCC, size: 0x8, addend: 0x0, symName: __RINvXs5_NtCsc29TF2YcYso_3syn10punctuatedINtB6_10PunctuatedNtNtB8_8generics14WherePredicateNtNtB8_5token5CommaEINtNtNtNtCsaNl6UpbT7bw_4core4iter6traits7collect6ExtendBU_E6extendINtNtNtB1R_8adapters3map3MapINtNtB2T_5chain5ChainIB2P_INtNtB2T_6filter6FilterIB2P_NtBW_10TypeParamsNCNvNtCs87DMVckFIdB_12serde_derive5bound10with_bounds1_0ENCB4r_s2_0ENCB4r_s3_0EINtNtB2T_6cloned6ClonedINtNtNtCsiTraAjBDcu4_5alloc3vec9into_iter8IntoIterRNtNtB8_2ty8TypePathEEENCB4r_s4_0EEB4v_, symObjAddr: 0x1674, symBinAddr: 0x4316C, symSize: 0xF8 }
  - { offset: 0x84C4F, size: 0x8, addend: 0x0, symName: __RINvXs5_NtCsc29TF2YcYso_3syn10punctuatedINtB6_10PunctuatedNtNtB8_8generics14WherePredicateNtNtB8_5token5CommaEINtNtNtNtCsaNl6UpbT7bw_4core4iter6traits7collect6ExtendBU_E6extendINtNtNtB1R_8adapters6cloned6ClonedINtNtNtB1T_5slice4iter4IterBU_EEECs87DMVckFIdB_12serde_derive, symObjAddr: 0x176C, symBinAddr: 0x43264, symSize: 0xE0 }
  - { offset: 0x84CD0, size: 0x8, addend: 0x0, symName: __RINvXs5_NtCsc29TF2YcYso_3syn10punctuatedINtB6_10PunctuatedNtNtB8_8generics14WherePredicateNtNtB8_5token5CommaEINtNtNtNtCsaNl6UpbT7bw_4core4iter6traits7collect6ExtendBU_E6extendINtNtNtB1R_8adapters7flatten7FlatMapINtNtB2T_10filter_map9FilterMapINtNtCsiTraAjBDcu4_5alloc5boxed3BoxDNtNtB1P_8iterator8Iteratorp4ItemRNtNtNtCs87DMVckFIdB_12serde_derive9internals3ast5FieldEL_ENCNvNtB56_5bound33with_where_predicates_from_fields0EINtNtB3Y_3vec3VecBU_ENvMNtB3Y_5sliceSBU_6to_vecEEB56_, symObjAddr: 0x184C, symBinAddr: 0x43344, symSize: 0xF8 }
  - { offset: 0x84D53, size: 0x8, addend: 0x0, symName: __RINvXs5_NtCsc29TF2YcYso_3syn10punctuatedINtB6_10PunctuatedNtNtB8_8generics14WherePredicateNtNtB8_5token5CommaEINtNtNtNtCsaNl6UpbT7bw_4core4iter6traits7collect6ExtendBU_E6extendINtNtNtB1R_8adapters7flatten7FlatMapINtNtB2T_10filter_map9FilterMapINtNtNtB1T_5slice4iter4IterNtNtNtCs87DMVckFIdB_12serde_derive9internals3ast7VariantENCNvNtB4q_5bound35with_where_predicates_from_variants0EINtNtCsiTraAjBDcu4_5alloc3vec3VecBU_ENvMNtB6d_5sliceSBU_6to_vecEEB4q_, symObjAddr: 0x1944, symBinAddr: 0x4343C, symSize: 0xF8 }
  - { offset: 0x84DD6, size: 0x8, addend: 0x0, symName: __RINvXs5_NtCsc29TF2YcYso_3syn10punctuatedINtB6_10PunctuatedNtNtB8_8lifetime8LifetimeNtNtB8_5token4PlusEINtNtNtNtCsaNl6UpbT7bw_4core4iter6traits7collect6ExtendBU_E6extendINtNtNtB1J_8adapters6cloned6ClonedINtNtNtNtCsiTraAjBDcu4_5alloc11collections5btree3set4IterBU_EEECs87DMVckFIdB_12serde_derive, symObjAddr: 0x1A3C, symBinAddr: 0x43534, symSize: 0xD8 }
  - { offset: 0x84E7D, size: 0x8, addend: 0x0, symName: __RINvXs6_NtCsc29TF2YcYso_3syn10punctuatedINtB6_10PunctuatedNtNtB8_4path11PathSegmentNtNtB8_5token7PathSepEINtNtNtNtCsaNl6UpbT7bw_4core4iter6traits7collect12FromIteratorINtB6_4PairBU_B1j_EE9from_iterINtNtNtB1M_8adapters4skip4SkipINtB6_9IntoPairsBU_B1j_EEECs87DMVckFIdB_12serde_derive, symObjAddr: 0x1C60, symBinAddr: 0x43758, symSize: 0xF0 }
  - { offset: 0x84EE3, size: 0x8, addend: 0x0, symName: __RINvXs7_NtCsc29TF2YcYso_3syn10punctuatedINtB6_10PunctuatedNtNtB8_4path11PathSegmentNtNtB8_5token7PathSepEINtNtNtNtCsaNl6UpbT7bw_4core4iter6traits7collect6ExtendINtB6_4PairBU_B1j_EE6extendINtNtNtB1M_8adapters4skip4SkipINtB6_9IntoPairsBU_B1j_EEECs87DMVckFIdB_12serde_derive, symObjAddr: 0x1D50, symBinAddr: 0x43848, symSize: 0x124 }
  - { offset: 0x84F66, size: 0x8, addend: 0x0, symName: __RNCNCNvXsG_NtCsc29TF2YcYso_3syn10punctuatedINtB9_14PrivateIterMutNtNtBb_2ty4TypeNtNtBb_5token5CommaENtNtNtNtCsaNl6UpbT7bw_4core4iter6traits12double_ended19DoubleEndedIterator9next_back00Cs87DMVckFIdB_12serde_derive, symObjAddr: 0x3644, symBinAddr: 0x4513C, symSize: 0x24 }
  - { offset: 0x84FB1, size: 0x8, addend: 0x0, symName: __RNCNCNvXsG_NtCsc29TF2YcYso_3syn10punctuatedINtB9_14PrivateIterMutNtNtBb_2ty9BareFnArgNtNtBb_5token5CommaENtNtNtNtCsaNl6UpbT7bw_4core4iter6traits12double_ended19DoubleEndedIterator9next_back00Cs87DMVckFIdB_12serde_derive, symObjAddr: 0x3668, symBinAddr: 0x45160, symSize: 0x24 }
  - { offset: 0x84FFC, size: 0x8, addend: 0x0, symName: __RNCNCNvXsG_NtCsc29TF2YcYso_3syn10punctuatedINtB9_14PrivateIterMutNtNtBb_4data7VariantNtNtBb_5token5CommaENtNtNtNtCsaNl6UpbT7bw_4core4iter6traits12double_ended19DoubleEndedIterator9next_back00Cs87DMVckFIdB_12serde_derive, symObjAddr: 0x368C, symBinAddr: 0x45184, symSize: 0x24 }
  - { offset: 0x85047, size: 0x8, addend: 0x0, symName: __RNCNCNvXsG_NtCsc29TF2YcYso_3syn10punctuatedINtB9_14PrivateIterMutNtNtBb_4expr4ExprNtNtBb_5token5CommaENtNtNtNtCsaNl6UpbT7bw_4core4iter6traits12double_ended19DoubleEndedIterator9next_back00Cs87DMVckFIdB_12serde_derive, symObjAddr: 0x36B0, symBinAddr: 0x451A8, symSize: 0x24 }
  - { offset: 0x85092, size: 0x8, addend: 0x0, symName: __RNCNCNvXsG_NtCsc29TF2YcYso_3syn10punctuatedINtB9_14PrivateIterMutNtNtBb_4path15GenericArgumentNtNtBb_5token5CommaENtNtNtNtCsaNl6UpbT7bw_4core4iter6traits12double_ended19DoubleEndedIterator9next_back00Cs87DMVckFIdB_12serde_derive, symObjAddr: 0x36D4, symBinAddr: 0x451CC, symSize: 0x24 }
  - { offset: 0x850DD, size: 0x8, addend: 0x0, symName: __RNCNCNvXsG_NtCsc29TF2YcYso_3syn10punctuatedINtB9_14PrivateIterMutNtNtBb_8generics14TypeParamBoundNtNtBb_5token4PlusENtNtNtNtCsaNl6UpbT7bw_4core4iter6traits12double_ended19DoubleEndedIterator9next_back00Cs87DMVckFIdB_12serde_derive, symObjAddr: 0x36F8, symBinAddr: 0x451F0, symSize: 0x24 }
  - { offset: 0x85128, size: 0x8, addend: 0x0, symName: __RNCNCNvXsG_NtCsc29TF2YcYso_3syn10punctuatedINtB9_14PrivateIterMutNtNtBb_8generics14WherePredicateNtNtBb_5token5CommaENtNtNtNtCsaNl6UpbT7bw_4core4iter6traits12double_ended19DoubleEndedIterator9next_back00Cs87DMVckFIdB_12serde_derive, symObjAddr: 0x371C, symBinAddr: 0x45214, symSize: 0x24 }
  - { offset: 0x851A5, size: 0x8, addend: 0x0, symName: __RNCNvXsG_NtCsc29TF2YcYso_3syn10punctuatedINtB7_14PrivateIterMutNtNtB9_2ty4TypeNtNtB9_5token5CommaENtNtNtNtCsaNl6UpbT7bw_4core4iter6traits12double_ended19DoubleEndedIterator9next_back0Cs87DMVckFIdB_12serde_derive, symObjAddr: 0x3CC8, symBinAddr: 0x457C0, symSize: 0x38 }
  - { offset: 0x851E7, size: 0x8, addend: 0x0, symName: __RNCNvXsG_NtCsc29TF2YcYso_3syn10punctuatedINtB7_14PrivateIterMutNtNtB9_2ty9BareFnArgNtNtB9_5token5CommaENtNtNtNtCsaNl6UpbT7bw_4core4iter6traits12double_ended19DoubleEndedIterator9next_back0Cs87DMVckFIdB_12serde_derive, symObjAddr: 0x3D00, symBinAddr: 0x457F8, symSize: 0x38 }
  - { offset: 0x85229, size: 0x8, addend: 0x0, symName: __RNCNvXsG_NtCsc29TF2YcYso_3syn10punctuatedINtB7_14PrivateIterMutNtNtB9_4data7VariantNtNtB9_5token5CommaENtNtNtNtCsaNl6UpbT7bw_4core4iter6traits12double_ended19DoubleEndedIterator9next_back0Cs87DMVckFIdB_12serde_derive, symObjAddr: 0x3D38, symBinAddr: 0x45830, symSize: 0x38 }
  - { offset: 0x8526B, size: 0x8, addend: 0x0, symName: __RNCNvXsG_NtCsc29TF2YcYso_3syn10punctuatedINtB7_14PrivateIterMutNtNtB9_4expr4ExprNtNtB9_5token5CommaENtNtNtNtCsaNl6UpbT7bw_4core4iter6traits12double_ended19DoubleEndedIterator9next_back0Cs87DMVckFIdB_12serde_derive, symObjAddr: 0x3D70, symBinAddr: 0x45868, symSize: 0x38 }
  - { offset: 0x852AD, size: 0x8, addend: 0x0, symName: __RNCNvXsG_NtCsc29TF2YcYso_3syn10punctuatedINtB7_14PrivateIterMutNtNtB9_4path15GenericArgumentNtNtB9_5token5CommaENtNtNtNtCsaNl6UpbT7bw_4core4iter6traits12double_ended19DoubleEndedIterator9next_back0Cs87DMVckFIdB_12serde_derive, symObjAddr: 0x3DA8, symBinAddr: 0x458A0, symSize: 0x38 }
  - { offset: 0x852EF, size: 0x8, addend: 0x0, symName: __RNCNvXsG_NtCsc29TF2YcYso_3syn10punctuatedINtB7_14PrivateIterMutNtNtB9_8generics14TypeParamBoundNtNtB9_5token4PlusENtNtNtNtCsaNl6UpbT7bw_4core4iter6traits12double_ended19DoubleEndedIterator9next_back0Cs87DMVckFIdB_12serde_derive, symObjAddr: 0x3DE0, symBinAddr: 0x458D8, symSize: 0x38 }
  - { offset: 0x85331, size: 0x8, addend: 0x0, symName: __RNCNvXsG_NtCsc29TF2YcYso_3syn10punctuatedINtB7_14PrivateIterMutNtNtB9_8generics14WherePredicateNtNtB9_5token5CommaENtNtNtNtCsaNl6UpbT7bw_4core4iter6traits12double_ended19DoubleEndedIterator9next_back0Cs87DMVckFIdB_12serde_derive, symObjAddr: 0x3E18, symBinAddr: 0x45910, symSize: 0x38 }
  - { offset: 0x85374, size: 0x8, addend: 0x0, symName: __RNvXsG_NtCsc29TF2YcYso_3syn10punctuatedINtB5_14PrivateIterMutNtNtB7_2ty4TypeNtNtB7_5token5CommaENtNtNtNtCsaNl6UpbT7bw_4core4iter6traits12double_ended19DoubleEndedIterator9next_backCs87DMVckFIdB_12serde_derive, symObjAddr: 0x7488, symBinAddr: 0x48F80, symSize: 0x40 }
  - { offset: 0x853B4, size: 0x8, addend: 0x0, symName: __RNvXsG_NtCsc29TF2YcYso_3syn10punctuatedINtB5_14PrivateIterMutNtNtB7_2ty9BareFnArgNtNtB7_5token5CommaENtNtNtNtCsaNl6UpbT7bw_4core4iter6traits12double_ended19DoubleEndedIterator9next_backCs87DMVckFIdB_12serde_derive, symObjAddr: 0x74C8, symBinAddr: 0x48FC0, symSize: 0x40 }
  - { offset: 0x853F4, size: 0x8, addend: 0x0, symName: __RNvXsG_NtCsc29TF2YcYso_3syn10punctuatedINtB5_14PrivateIterMutNtNtB7_4data7VariantNtNtB7_5token5CommaENtNtNtNtCsaNl6UpbT7bw_4core4iter6traits12double_ended19DoubleEndedIterator9next_backCs87DMVckFIdB_12serde_derive, symObjAddr: 0x7508, symBinAddr: 0x49000, symSize: 0x40 }
  - { offset: 0x85434, size: 0x8, addend: 0x0, symName: __RNvXsG_NtCsc29TF2YcYso_3syn10punctuatedINtB5_14PrivateIterMutNtNtB7_4expr4ExprNtNtB7_5token5CommaENtNtNtNtCsaNl6UpbT7bw_4core4iter6traits12double_ended19DoubleEndedIterator9next_backCs87DMVckFIdB_12serde_derive, symObjAddr: 0x7548, symBinAddr: 0x49040, symSize: 0x40 }
  - { offset: 0x85474, size: 0x8, addend: 0x0, symName: __RNvXsG_NtCsc29TF2YcYso_3syn10punctuatedINtB5_14PrivateIterMutNtNtB7_4path15GenericArgumentNtNtB7_5token5CommaENtNtNtNtCsaNl6UpbT7bw_4core4iter6traits12double_ended19DoubleEndedIterator9next_backCs87DMVckFIdB_12serde_derive, symObjAddr: 0x7588, symBinAddr: 0x49080, symSize: 0x40 }
  - { offset: 0x854B4, size: 0x8, addend: 0x0, symName: __RNvXsG_NtCsc29TF2YcYso_3syn10punctuatedINtB5_14PrivateIterMutNtNtB7_8generics14TypeParamBoundNtNtB7_5token4PlusENtNtNtNtCsaNl6UpbT7bw_4core4iter6traits12double_ended19DoubleEndedIterator9next_backCs87DMVckFIdB_12serde_derive, symObjAddr: 0x75C8, symBinAddr: 0x490C0, symSize: 0x40 }
  - { offset: 0x854F4, size: 0x8, addend: 0x0, symName: __RNvXsG_NtCsc29TF2YcYso_3syn10punctuatedINtB5_14PrivateIterMutNtNtB7_8generics14WherePredicateNtNtB7_5token5CommaENtNtNtNtCsaNl6UpbT7bw_4core4iter6traits12double_ended19DoubleEndedIterator9next_backCs87DMVckFIdB_12serde_derive, symObjAddr: 0x7608, symBinAddr: 0x49100, symSize: 0x40 }
  - { offset: 0x85544, size: 0x8, addend: 0x0, symName: __RNCNCNvXsx_NtCsc29TF2YcYso_3syn10punctuatedINtB9_11PrivateIterNtNtBb_2ty4TypeNtNtBb_5token5CommaENtNtNtNtCsaNl6UpbT7bw_4core4iter6traits12double_ended19DoubleEndedIterator9next_back00Cs87DMVckFIdB_12serde_derive, symObjAddr: 0x3740, symBinAddr: 0x45238, symSize: 0x24 }
  - { offset: 0x8558F, size: 0x8, addend: 0x0, symName: __RNCNCNvXsx_NtCsc29TF2YcYso_3syn10punctuatedINtB9_11PrivateIterNtNtBb_2ty9BareFnArgNtNtBb_5token5CommaENtNtNtNtCsaNl6UpbT7bw_4core4iter6traits12double_ended19DoubleEndedIterator9next_back00Cs87DMVckFIdB_12serde_derive, symObjAddr: 0x3764, symBinAddr: 0x4525C, symSize: 0x24 }
  - { offset: 0x855DA, size: 0x8, addend: 0x0, symName: __RNCNCNvXsx_NtCsc29TF2YcYso_3syn10punctuatedINtB9_11PrivateIterNtNtBb_4data7VariantNtNtBb_5token5CommaENtNtNtNtCsaNl6UpbT7bw_4core4iter6traits12double_ended19DoubleEndedIterator9next_back00Cs87DMVckFIdB_12serde_derive, symObjAddr: 0x3788, symBinAddr: 0x45280, symSize: 0x24 }
  - { offset: 0x85625, size: 0x8, addend: 0x0, symName: __RNCNCNvXsx_NtCsc29TF2YcYso_3syn10punctuatedINtB9_11PrivateIterNtNtBb_4path15GenericArgumentNtNtBb_5token5CommaENtNtNtNtCsaNl6UpbT7bw_4core4iter6traits12double_ended19DoubleEndedIterator9next_back00Cs87DMVckFIdB_12serde_derive, symObjAddr: 0x37AC, symBinAddr: 0x452A4, symSize: 0x24 }
  - { offset: 0x8568D, size: 0x8, addend: 0x0, symName: __RNCNvXsx_NtCsc29TF2YcYso_3syn10punctuatedINtB7_11PrivateIterNtNtB9_2ty4TypeNtNtB9_5token5CommaENtNtNtNtCsaNl6UpbT7bw_4core4iter6traits12double_ended19DoubleEndedIterator9next_back0Cs87DMVckFIdB_12serde_derive, symObjAddr: 0x3FB0, symBinAddr: 0x45AA8, symSize: 0x38 }
  - { offset: 0x856CF, size: 0x8, addend: 0x0, symName: __RNCNvXsx_NtCsc29TF2YcYso_3syn10punctuatedINtB7_11PrivateIterNtNtB9_2ty9BareFnArgNtNtB9_5token5CommaENtNtNtNtCsaNl6UpbT7bw_4core4iter6traits12double_ended19DoubleEndedIterator9next_back0Cs87DMVckFIdB_12serde_derive, symObjAddr: 0x3FE8, symBinAddr: 0x45AE0, symSize: 0x38 }
  - { offset: 0x85711, size: 0x8, addend: 0x0, symName: __RNCNvXsx_NtCsc29TF2YcYso_3syn10punctuatedINtB7_11PrivateIterNtNtB9_4data7VariantNtNtB9_5token5CommaENtNtNtNtCsaNl6UpbT7bw_4core4iter6traits12double_ended19DoubleEndedIterator9next_back0Cs87DMVckFIdB_12serde_derive, symObjAddr: 0x4020, symBinAddr: 0x45B18, symSize: 0x38 }
  - { offset: 0x85753, size: 0x8, addend: 0x0, symName: __RNCNvXsx_NtCsc29TF2YcYso_3syn10punctuatedINtB7_11PrivateIterNtNtB9_4path15GenericArgumentNtNtB9_5token5CommaENtNtNtNtCsaNl6UpbT7bw_4core4iter6traits12double_ended19DoubleEndedIterator9next_back0Cs87DMVckFIdB_12serde_derive, symObjAddr: 0x4058, symBinAddr: 0x45B50, symSize: 0x38 }
  - { offset: 0x85796, size: 0x8, addend: 0x0, symName: __RNvXsx_NtCsc29TF2YcYso_3syn10punctuatedINtB5_11PrivateIterNtNtB7_2ty4TypeNtNtB7_5token5CommaENtNtNtNtCsaNl6UpbT7bw_4core4iter6traits12double_ended19DoubleEndedIterator9next_backCs87DMVckFIdB_12serde_derive, symObjAddr: 0x8D38, symBinAddr: 0x4A830, symSize: 0x40 }
  - { offset: 0x857D6, size: 0x8, addend: 0x0, symName: __RNvXsx_NtCsc29TF2YcYso_3syn10punctuatedINtB5_11PrivateIterNtNtB7_2ty9BareFnArgNtNtB7_5token5CommaENtNtNtNtCsaNl6UpbT7bw_4core4iter6traits12double_ended19DoubleEndedIterator9next_backCs87DMVckFIdB_12serde_derive, symObjAddr: 0x8D78, symBinAddr: 0x4A870, symSize: 0x40 }
  - { offset: 0x85816, size: 0x8, addend: 0x0, symName: __RNvXsx_NtCsc29TF2YcYso_3syn10punctuatedINtB5_11PrivateIterNtNtB7_4data7VariantNtNtB7_5token5CommaENtNtNtNtCsaNl6UpbT7bw_4core4iter6traits12double_ended19DoubleEndedIterator9next_backCs87DMVckFIdB_12serde_derive, symObjAddr: 0x8DB8, symBinAddr: 0x4A8B0, symSize: 0x40 }
  - { offset: 0x85856, size: 0x8, addend: 0x0, symName: __RNvXsx_NtCsc29TF2YcYso_3syn10punctuatedINtB5_11PrivateIterNtNtB7_4path15GenericArgumentNtNtB7_5token5CommaENtNtNtNtCsaNl6UpbT7bw_4core4iter6traits12double_ended19DoubleEndedIterator9next_backCs87DMVckFIdB_12serde_derive, symObjAddr: 0x8DF8, symBinAddr: 0x4A8F0, symSize: 0x40 }
  - { offset: 0x858A1, size: 0x8, addend: 0x0, symName: __RNCNvXs8_NtCsc29TF2YcYso_3syn10punctuatedINtB7_10PunctuatedNtNtB9_8generics12GenericParamNtNtB9_5token5CommaENtNtNtNtCsaNl6UpbT7bw_4core4iter6traits7collect12IntoIterator9into_iter0Cs87DMVckFIdB_12serde_derive, symObjAddr: 0x38A8, symBinAddr: 0x453A0, symSize: 0x44 }
  - { offset: 0x858ED, size: 0x8, addend: 0x0, symName: __RNCNvXs8_NtCsc29TF2YcYso_3syn10punctuatedINtB7_10PunctuatedNtNtB9_8generics12GenericParamNtNtB9_5token5CommaENtNtNtNtCsaNl6UpbT7bw_4core4iter6traits7collect12IntoIterator9into_iters_0Cs87DMVckFIdB_12serde_derive, symObjAddr: 0x38EC, symBinAddr: 0x453E4, symSize: 0x98 }
  - { offset: 0x85938, size: 0x8, addend: 0x0, symName: __RNCNvXs8_NtCsc29TF2YcYso_3syn10punctuatedINtB7_10PunctuatedNtNtB9_8generics14WherePredicateNtNtB9_5token5CommaENtNtNtNtCsaNl6UpbT7bw_4core4iter6traits7collect12IntoIterator9into_iter0Cs87DMVckFIdB_12serde_derive, symObjAddr: 0x3984, symBinAddr: 0x4547C, symSize: 0x44 }
  - { offset: 0x85984, size: 0x8, addend: 0x0, symName: __RNCNvXs8_NtCsc29TF2YcYso_3syn10punctuatedINtB7_10PunctuatedNtNtB9_8generics14WherePredicateNtNtB9_5token5CommaENtNtNtNtCsaNl6UpbT7bw_4core4iter6traits7collect12IntoIterator9into_iters_0Cs87DMVckFIdB_12serde_derive, symObjAddr: 0x39C8, symBinAddr: 0x454C0, symSize: 0x98 }
  - { offset: 0x859EC, size: 0x8, addend: 0x0, symName: __RNvXs8_NtCsc29TF2YcYso_3syn10punctuatedINtB5_10PunctuatedNtNtB7_8generics12GenericParamNtNtB7_5token5CommaENtNtNtNtCsaNl6UpbT7bw_4core4iter6traits7collect12IntoIterator9into_iterCs87DMVckFIdB_12serde_derive, symObjAddr: 0x6950, symBinAddr: 0x48448, symSize: 0x1C0 }
  - { offset: 0x85A43, size: 0x8, addend: 0x0, symName: __RNvXs8_NtCsc29TF2YcYso_3syn10punctuatedINtB5_10PunctuatedNtNtB7_8generics14WherePredicateNtNtB7_5token5CommaENtNtNtNtCsaNl6UpbT7bw_4core4iter6traits7collect12IntoIterator9into_iterCs87DMVckFIdB_12serde_derive, symObjAddr: 0x6B10, symBinAddr: 0x48608, symSize: 0x1C0 }
  - { offset: 0x85AA5, size: 0x8, addend: 0x0, symName: __RNCNvXsF_NtCsc29TF2YcYso_3syn10punctuatedINtB7_14PrivateIterMutNtNtB9_2ty4TypeNtNtB9_5token5CommaENtNtNtNtCsaNl6UpbT7bw_4core4iter6traits8iterator8Iterator4next0Cs87DMVckFIdB_12serde_derive, symObjAddr: 0x3A60, symBinAddr: 0x45558, symSize: 0x24 }
  - { offset: 0x85AF0, size: 0x8, addend: 0x0, symName: __RNCNvXsF_NtCsc29TF2YcYso_3syn10punctuatedINtB7_14PrivateIterMutNtNtB9_2ty4TypeNtNtB9_5token5CommaENtNtNtNtCsaNl6UpbT7bw_4core4iter6traits8iterator8Iterator4nexts_0Cs87DMVckFIdB_12serde_derive, symObjAddr: 0x3A84, symBinAddr: 0x4557C, symSize: 0x34 }
  - { offset: 0x85B32, size: 0x8, addend: 0x0, symName: __RNCNvXsF_NtCsc29TF2YcYso_3syn10punctuatedINtB7_14PrivateIterMutNtNtB9_2ty9BareFnArgNtNtB9_5token5CommaENtNtNtNtCsaNl6UpbT7bw_4core4iter6traits8iterator8Iterator4next0Cs87DMVckFIdB_12serde_derive, symObjAddr: 0x3AB8, symBinAddr: 0x455B0, symSize: 0x24 }
  - { offset: 0x85B7D, size: 0x8, addend: 0x0, symName: __RNCNvXsF_NtCsc29TF2YcYso_3syn10punctuatedINtB7_14PrivateIterMutNtNtB9_2ty9BareFnArgNtNtB9_5token5CommaENtNtNtNtCsaNl6UpbT7bw_4core4iter6traits8iterator8Iterator4nexts_0Cs87DMVckFIdB_12serde_derive, symObjAddr: 0x3ADC, symBinAddr: 0x455D4, symSize: 0x34 }
  - { offset: 0x85BBF, size: 0x8, addend: 0x0, symName: __RNCNvXsF_NtCsc29TF2YcYso_3syn10punctuatedINtB7_14PrivateIterMutNtNtB9_4data7VariantNtNtB9_5token5CommaENtNtNtNtCsaNl6UpbT7bw_4core4iter6traits8iterator8Iterator4next0Cs87DMVckFIdB_12serde_derive, symObjAddr: 0x3B10, symBinAddr: 0x45608, symSize: 0x24 }
  - { offset: 0x85C0A, size: 0x8, addend: 0x0, symName: __RNCNvXsF_NtCsc29TF2YcYso_3syn10punctuatedINtB7_14PrivateIterMutNtNtB9_4data7VariantNtNtB9_5token5CommaENtNtNtNtCsaNl6UpbT7bw_4core4iter6traits8iterator8Iterator4nexts_0Cs87DMVckFIdB_12serde_derive, symObjAddr: 0x3B34, symBinAddr: 0x4562C, symSize: 0x34 }
  - { offset: 0x85C4C, size: 0x8, addend: 0x0, symName: __RNCNvXsF_NtCsc29TF2YcYso_3syn10punctuatedINtB7_14PrivateIterMutNtNtB9_4expr4ExprNtNtB9_5token5CommaENtNtNtNtCsaNl6UpbT7bw_4core4iter6traits8iterator8Iterator4next0Cs87DMVckFIdB_12serde_derive, symObjAddr: 0x3B68, symBinAddr: 0x45660, symSize: 0x24 }
  - { offset: 0x85C97, size: 0x8, addend: 0x0, symName: __RNCNvXsF_NtCsc29TF2YcYso_3syn10punctuatedINtB7_14PrivateIterMutNtNtB9_4expr4ExprNtNtB9_5token5CommaENtNtNtNtCsaNl6UpbT7bw_4core4iter6traits8iterator8Iterator4nexts_0Cs87DMVckFIdB_12serde_derive, symObjAddr: 0x3B8C, symBinAddr: 0x45684, symSize: 0x34 }
  - { offset: 0x85CD9, size: 0x8, addend: 0x0, symName: __RNCNvXsF_NtCsc29TF2YcYso_3syn10punctuatedINtB7_14PrivateIterMutNtNtB9_4path15GenericArgumentNtNtB9_5token5CommaENtNtNtNtCsaNl6UpbT7bw_4core4iter6traits8iterator8Iterator4next0Cs87DMVckFIdB_12serde_derive, symObjAddr: 0x3BC0, symBinAddr: 0x456B8, symSize: 0x24 }
  - { offset: 0x85D24, size: 0x8, addend: 0x0, symName: __RNCNvXsF_NtCsc29TF2YcYso_3syn10punctuatedINtB7_14PrivateIterMutNtNtB9_4path15GenericArgumentNtNtB9_5token5CommaENtNtNtNtCsaNl6UpbT7bw_4core4iter6traits8iterator8Iterator4nexts_0Cs87DMVckFIdB_12serde_derive, symObjAddr: 0x3BE4, symBinAddr: 0x456DC, symSize: 0x34 }
  - { offset: 0x85D66, size: 0x8, addend: 0x0, symName: __RNCNvXsF_NtCsc29TF2YcYso_3syn10punctuatedINtB7_14PrivateIterMutNtNtB9_8generics14TypeParamBoundNtNtB9_5token4PlusENtNtNtNtCsaNl6UpbT7bw_4core4iter6traits8iterator8Iterator4next0Cs87DMVckFIdB_12serde_derive, symObjAddr: 0x3C18, symBinAddr: 0x45710, symSize: 0x24 }
  - { offset: 0x85DB1, size: 0x8, addend: 0x0, symName: __RNCNvXsF_NtCsc29TF2YcYso_3syn10punctuatedINtB7_14PrivateIterMutNtNtB9_8generics14TypeParamBoundNtNtB9_5token4PlusENtNtNtNtCsaNl6UpbT7bw_4core4iter6traits8iterator8Iterator4nexts_0Cs87DMVckFIdB_12serde_derive, symObjAddr: 0x3C3C, symBinAddr: 0x45734, symSize: 0x34 }
  - { offset: 0x85DF3, size: 0x8, addend: 0x0, symName: __RNCNvXsF_NtCsc29TF2YcYso_3syn10punctuatedINtB7_14PrivateIterMutNtNtB9_8generics14WherePredicateNtNtB9_5token5CommaENtNtNtNtCsaNl6UpbT7bw_4core4iter6traits8iterator8Iterator4next0Cs87DMVckFIdB_12serde_derive, symObjAddr: 0x3C70, symBinAddr: 0x45768, symSize: 0x24 }
  - { offset: 0x85E3E, size: 0x8, addend: 0x0, symName: __RNCNvXsF_NtCsc29TF2YcYso_3syn10punctuatedINtB7_14PrivateIterMutNtNtB9_8generics14WherePredicateNtNtB9_5token5CommaENtNtNtNtCsaNl6UpbT7bw_4core4iter6traits8iterator8Iterator4nexts_0Cs87DMVckFIdB_12serde_derive, symObjAddr: 0x3C94, symBinAddr: 0x4578C, symSize: 0x34 }
  - { offset: 0x85EB2, size: 0x8, addend: 0x0, symName: __RNvXsF_NtCsc29TF2YcYso_3syn10punctuatedINtB5_14PrivateIterMutNtNtB7_2ty4TypeNtNtB7_5token5CommaENtNtNtNtCsaNl6UpbT7bw_4core4iter6traits8iterator8Iterator4nextCs87DMVckFIdB_12serde_derive, symObjAddr: 0x72AC, symBinAddr: 0x48DA4, symSize: 0x44 }
  - { offset: 0x85EF2, size: 0x8, addend: 0x0, symName: __RNvXsF_NtCsc29TF2YcYso_3syn10punctuatedINtB5_14PrivateIterMutNtNtB7_2ty9BareFnArgNtNtB7_5token5CommaENtNtNtNtCsaNl6UpbT7bw_4core4iter6traits8iterator8Iterator4nextCs87DMVckFIdB_12serde_derive, symObjAddr: 0x72F0, symBinAddr: 0x48DE8, symSize: 0x44 }
  - { offset: 0x85F32, size: 0x8, addend: 0x0, symName: __RNvXsF_NtCsc29TF2YcYso_3syn10punctuatedINtB5_14PrivateIterMutNtNtB7_4data7VariantNtNtB7_5token5CommaENtNtNtNtCsaNl6UpbT7bw_4core4iter6traits8iterator8Iterator4nextCs87DMVckFIdB_12serde_derive, symObjAddr: 0x7334, symBinAddr: 0x48E2C, symSize: 0x44 }
  - { offset: 0x85F72, size: 0x8, addend: 0x0, symName: __RNvXsF_NtCsc29TF2YcYso_3syn10punctuatedINtB5_14PrivateIterMutNtNtB7_4expr4ExprNtNtB7_5token5CommaENtNtNtNtCsaNl6UpbT7bw_4core4iter6traits8iterator8Iterator4nextCs87DMVckFIdB_12serde_derive, symObjAddr: 0x7378, symBinAddr: 0x48E70, symSize: 0x44 }
  - { offset: 0x85FB2, size: 0x8, addend: 0x0, symName: __RNvXsF_NtCsc29TF2YcYso_3syn10punctuatedINtB5_14PrivateIterMutNtNtB7_4path15GenericArgumentNtNtB7_5token5CommaENtNtNtNtCsaNl6UpbT7bw_4core4iter6traits8iterator8Iterator4nextCs87DMVckFIdB_12serde_derive, symObjAddr: 0x73BC, symBinAddr: 0x48EB4, symSize: 0x44 }
  - { offset: 0x85FF2, size: 0x8, addend: 0x0, symName: __RNvXsF_NtCsc29TF2YcYso_3syn10punctuatedINtB5_14PrivateIterMutNtNtB7_8generics14TypeParamBoundNtNtB7_5token4PlusENtNtNtNtCsaNl6UpbT7bw_4core4iter6traits8iterator8Iterator4nextCs87DMVckFIdB_12serde_derive, symObjAddr: 0x7400, symBinAddr: 0x48EF8, symSize: 0x44 }
  - { offset: 0x86032, size: 0x8, addend: 0x0, symName: __RNvXsF_NtCsc29TF2YcYso_3syn10punctuatedINtB5_14PrivateIterMutNtNtB7_8generics14WherePredicateNtNtB7_5token5CommaENtNtNtNtCsaNl6UpbT7bw_4core4iter6traits8iterator8Iterator4nextCs87DMVckFIdB_12serde_derive, symObjAddr: 0x7444, symBinAddr: 0x48F3C, symSize: 0x44 }
  - { offset: 0x8607D, size: 0x8, addend: 0x0, symName: __RNCNvXsw_NtCsc29TF2YcYso_3syn10punctuatedINtB7_11PrivateIterNtNtB9_2ty4TypeNtNtB9_5token5CommaENtNtNtNtCsaNl6UpbT7bw_4core4iter6traits8iterator8Iterator4next0Cs87DMVckFIdB_12serde_derive, symObjAddr: 0x3E50, symBinAddr: 0x45948, symSize: 0x24 }
  - { offset: 0x860C8, size: 0x8, addend: 0x0, symName: __RNCNvXsw_NtCsc29TF2YcYso_3syn10punctuatedINtB7_11PrivateIterNtNtB9_2ty4TypeNtNtB9_5token5CommaENtNtNtNtCsaNl6UpbT7bw_4core4iter6traits8iterator8Iterator4nexts_0Cs87DMVckFIdB_12serde_derive, symObjAddr: 0x3E74, symBinAddr: 0x4596C, symSize: 0x34 }
  - { offset: 0x8610A, size: 0x8, addend: 0x0, symName: __RNCNvXsw_NtCsc29TF2YcYso_3syn10punctuatedINtB7_11PrivateIterNtNtB9_2ty9BareFnArgNtNtB9_5token5CommaENtNtNtNtCsaNl6UpbT7bw_4core4iter6traits8iterator8Iterator4next0Cs87DMVckFIdB_12serde_derive, symObjAddr: 0x3EA8, symBinAddr: 0x459A0, symSize: 0x24 }
  - { offset: 0x86155, size: 0x8, addend: 0x0, symName: __RNCNvXsw_NtCsc29TF2YcYso_3syn10punctuatedINtB7_11PrivateIterNtNtB9_2ty9BareFnArgNtNtB9_5token5CommaENtNtNtNtCsaNl6UpbT7bw_4core4iter6traits8iterator8Iterator4nexts_0Cs87DMVckFIdB_12serde_derive, symObjAddr: 0x3ECC, symBinAddr: 0x459C4, symSize: 0x34 }
  - { offset: 0x86197, size: 0x8, addend: 0x0, symName: __RNCNvXsw_NtCsc29TF2YcYso_3syn10punctuatedINtB7_11PrivateIterNtNtB9_4data7VariantNtNtB9_5token5CommaENtNtNtNtCsaNl6UpbT7bw_4core4iter6traits8iterator8Iterator4next0Cs87DMVckFIdB_12serde_derive, symObjAddr: 0x3F00, symBinAddr: 0x459F8, symSize: 0x24 }
  - { offset: 0x861E2, size: 0x8, addend: 0x0, symName: __RNCNvXsw_NtCsc29TF2YcYso_3syn10punctuatedINtB7_11PrivateIterNtNtB9_4data7VariantNtNtB9_5token5CommaENtNtNtNtCsaNl6UpbT7bw_4core4iter6traits8iterator8Iterator4nexts_0Cs87DMVckFIdB_12serde_derive, symObjAddr: 0x3F24, symBinAddr: 0x45A1C, symSize: 0x34 }
  - { offset: 0x86224, size: 0x8, addend: 0x0, symName: __RNCNvXsw_NtCsc29TF2YcYso_3syn10punctuatedINtB7_11PrivateIterNtNtB9_4path15GenericArgumentNtNtB9_5token5CommaENtNtNtNtCsaNl6UpbT7bw_4core4iter6traits8iterator8Iterator4next0Cs87DMVckFIdB_12serde_derive, symObjAddr: 0x3F58, symBinAddr: 0x45A50, symSize: 0x24 }
  - { offset: 0x8626F, size: 0x8, addend: 0x0, symName: __RNCNvXsw_NtCsc29TF2YcYso_3syn10punctuatedINtB7_11PrivateIterNtNtB9_4path15GenericArgumentNtNtB9_5token5CommaENtNtNtNtCsaNl6UpbT7bw_4core4iter6traits8iterator8Iterator4nexts_0Cs87DMVckFIdB_12serde_derive, symObjAddr: 0x3F7C, symBinAddr: 0x45A74, symSize: 0x34 }
  - { offset: 0x862CE, size: 0x8, addend: 0x0, symName: __RNvXsw_NtCsc29TF2YcYso_3syn10punctuatedINtB5_11PrivateIterNtNtB7_2ty4TypeNtNtB7_5token5CommaENtNtNtNtCsaNl6UpbT7bw_4core4iter6traits8iterator8Iterator4nextCs87DMVckFIdB_12serde_derive, symObjAddr: 0x8C28, symBinAddr: 0x4A720, symSize: 0x44 }
  - { offset: 0x8630E, size: 0x8, addend: 0x0, symName: __RNvXsw_NtCsc29TF2YcYso_3syn10punctuatedINtB5_11PrivateIterNtNtB7_2ty9BareFnArgNtNtB7_5token5CommaENtNtNtNtCsaNl6UpbT7bw_4core4iter6traits8iterator8Iterator4nextCs87DMVckFIdB_12serde_derive, symObjAddr: 0x8C6C, symBinAddr: 0x4A764, symSize: 0x44 }
  - { offset: 0x8634E, size: 0x8, addend: 0x0, symName: __RNvXsw_NtCsc29TF2YcYso_3syn10punctuatedINtB5_11PrivateIterNtNtB7_4data7VariantNtNtB7_5token5CommaENtNtNtNtCsaNl6UpbT7bw_4core4iter6traits8iterator8Iterator4nextCs87DMVckFIdB_12serde_derive, symObjAddr: 0x8CB0, symBinAddr: 0x4A7A8, symSize: 0x44 }
  - { offset: 0x8638E, size: 0x8, addend: 0x0, symName: __RNvXsw_NtCsc29TF2YcYso_3syn10punctuatedINtB5_11PrivateIterNtNtB7_4path15GenericArgumentNtNtB7_5token5CommaENtNtNtNtCsaNl6UpbT7bw_4core4iter6traits8iterator8Iterator4nextCs87DMVckFIdB_12serde_derive, symObjAddr: 0x8CF4, symBinAddr: 0x4A7EC, symSize: 0x44 }
  - { offset: 0x86500, size: 0x8, addend: 0x0, symName: __RNvXs9_NtCsc29TF2YcYso_3syn10punctuatedRINtB5_10PunctuatedNtNtB7_2ty4TypeNtNtB7_5token5CommaENtNtNtNtCsaNl6UpbT7bw_4core4iter6traits7collect12IntoIterator9into_iterCs87DMVckFIdB_12serde_derive, symObjAddr: 0x6CD0, symBinAddr: 0x487C8, symSize: 0x34 }
  - { offset: 0x86540, size: 0x8, addend: 0x0, symName: __RNvXs9_NtCsc29TF2YcYso_3syn10punctuatedRINtB5_10PunctuatedNtNtB7_2ty9BareFnArgNtNtB7_5token5CommaENtNtNtNtCsaNl6UpbT7bw_4core4iter6traits7collect12IntoIterator9into_iterCs87DMVckFIdB_12serde_derive, symObjAddr: 0x6D04, symBinAddr: 0x487FC, symSize: 0x34 }
  - { offset: 0x86580, size: 0x8, addend: 0x0, symName: __RNvXs9_NtCsc29TF2YcYso_3syn10punctuatedRINtB5_10PunctuatedNtNtB7_4data7VariantNtNtB7_5token5CommaENtNtNtNtCsaNl6UpbT7bw_4core4iter6traits7collect12IntoIterator9into_iterCs87DMVckFIdB_12serde_derive, symObjAddr: 0x6D38, symBinAddr: 0x48830, symSize: 0x34 }
  - { offset: 0x865C0, size: 0x8, addend: 0x0, symName: __RNvXs9_NtCsc29TF2YcYso_3syn10punctuatedRINtB5_10PunctuatedNtNtB7_4path11PathSegmentNtNtB7_5token7PathSepENtNtNtNtCsaNl6UpbT7bw_4core4iter6traits7collect12IntoIterator9into_iterCs87DMVckFIdB_12serde_derive, symObjAddr: 0x6D6C, symBinAddr: 0x48864, symSize: 0x34 }
  - { offset: 0x86600, size: 0x8, addend: 0x0, symName: __RNvXs9_NtCsc29TF2YcYso_3syn10punctuatedRINtB5_10PunctuatedNtNtB7_4path15GenericArgumentNtNtB7_5token5CommaENtNtNtNtCsaNl6UpbT7bw_4core4iter6traits7collect12IntoIterator9into_iterCs87DMVckFIdB_12serde_derive, symObjAddr: 0x6DA0, symBinAddr: 0x48898, symSize: 0x34 }
  - { offset: 0x86646, size: 0x8, addend: 0x0, symName: __RNvXsA_NtCsc29TF2YcYso_3syn10punctuatedINtB5_11PrivateIterNtNtB7_2ty4TypeNtNtB7_5token5CommaEINtB5_9IterTraitBU_E9clone_boxCs87DMVckFIdB_12serde_derive, symObjAddr: 0x6DD4, symBinAddr: 0x488CC, symSize: 0x94 }
  - { offset: 0x866A4, size: 0x8, addend: 0x0, symName: __RNvXsA_NtCsc29TF2YcYso_3syn10punctuatedINtB5_11PrivateIterNtNtB7_2ty9BareFnArgNtNtB7_5token5CommaEINtB5_9IterTraitBU_E9clone_boxCs87DMVckFIdB_12serde_derive, symObjAddr: 0x6E68, symBinAddr: 0x48960, symSize: 0x94 }
  - { offset: 0x86702, size: 0x8, addend: 0x0, symName: __RNvXsA_NtCsc29TF2YcYso_3syn10punctuatedINtB5_11PrivateIterNtNtB7_4data7VariantNtNtB7_5token5CommaEINtB5_9IterTraitBU_E9clone_boxCs87DMVckFIdB_12serde_derive, symObjAddr: 0x6EFC, symBinAddr: 0x489F4, symSize: 0x94 }
  - { offset: 0x86760, size: 0x8, addend: 0x0, symName: __RNvXsA_NtCsc29TF2YcYso_3syn10punctuatedINtB5_11PrivateIterNtNtB7_4path15GenericArgumentNtNtB7_5token5CommaEINtB5_9IterTraitBU_E9clone_boxCs87DMVckFIdB_12serde_derive, symObjAddr: 0x6F90, symBinAddr: 0x48A88, symSize: 0x94 }
  - { offset: 0x867C4, size: 0x8, addend: 0x0, symName: __RNvXsC_NtCsc29TF2YcYso_3syn10punctuatedINtB5_7IterMutNtNtB7_2ty4TypeENtNtNtNtCsaNl6UpbT7bw_4core4iter6traits8iterator8Iterator4nextCs87DMVckFIdB_12serde_derive, symObjAddr: 0x7024, symBinAddr: 0x48B1C, symSize: 0x48 }
  - { offset: 0x867FB, size: 0x8, addend: 0x0, symName: __RNvXsC_NtCsc29TF2YcYso_3syn10punctuatedINtB5_7IterMutNtNtB7_2ty9BareFnArgENtNtNtNtCsaNl6UpbT7bw_4core4iter6traits8iterator8Iterator4nextCs87DMVckFIdB_12serde_derive, symObjAddr: 0x706C, symBinAddr: 0x48B64, symSize: 0x48 }
  - { offset: 0x86832, size: 0x8, addend: 0x0, symName: __RNvXsC_NtCsc29TF2YcYso_3syn10punctuatedINtB5_7IterMutNtNtB7_4data5FieldENtNtNtNtCsaNl6UpbT7bw_4core4iter6traits8iterator8Iterator4nextCs87DMVckFIdB_12serde_derive, symObjAddr: 0x70B4, symBinAddr: 0x48BAC, symSize: 0x48 }
  - { offset: 0x86869, size: 0x8, addend: 0x0, symName: __RNvXsC_NtCsc29TF2YcYso_3syn10punctuatedINtB5_7IterMutNtNtB7_4data7VariantENtNtNtNtCsaNl6UpbT7bw_4core4iter6traits8iterator8Iterator4nextCs87DMVckFIdB_12serde_derive, symObjAddr: 0x70FC, symBinAddr: 0x48BF4, symSize: 0x48 }
  - { offset: 0x868A0, size: 0x8, addend: 0x0, symName: __RNvXsC_NtCsc29TF2YcYso_3syn10punctuatedINtB5_7IterMutNtNtB7_4expr4ExprENtNtNtNtCsaNl6UpbT7bw_4core4iter6traits8iterator8Iterator4nextCs87DMVckFIdB_12serde_derive, symObjAddr: 0x7144, symBinAddr: 0x48C3C, symSize: 0x48 }
  - { offset: 0x868D7, size: 0x8, addend: 0x0, symName: __RNvXsC_NtCsc29TF2YcYso_3syn10punctuatedINtB5_7IterMutNtNtB7_4path11PathSegmentENtNtNtNtCsaNl6UpbT7bw_4core4iter6traits8iterator8Iterator4nextCs87DMVckFIdB_12serde_derive, symObjAddr: 0x718C, symBinAddr: 0x48C84, symSize: 0x48 }
  - { offset: 0x8690E, size: 0x8, addend: 0x0, symName: __RNvXsC_NtCsc29TF2YcYso_3syn10punctuatedINtB5_7IterMutNtNtB7_4path15GenericArgumentENtNtNtNtCsaNl6UpbT7bw_4core4iter6traits8iterator8Iterator4nextCs87DMVckFIdB_12serde_derive, symObjAddr: 0x71D4, symBinAddr: 0x48CCC, symSize: 0x48 }
  - { offset: 0x86945, size: 0x8, addend: 0x0, symName: __RNvXsC_NtCsc29TF2YcYso_3syn10punctuatedINtB5_7IterMutNtNtB7_8generics14TypeParamBoundENtNtNtNtCsaNl6UpbT7bw_4core4iter6traits8iterator8Iterator4nextCs87DMVckFIdB_12serde_derive, symObjAddr: 0x721C, symBinAddr: 0x48D14, symSize: 0x48 }
  - { offset: 0x8697C, size: 0x8, addend: 0x0, symName: __RNvXsC_NtCsc29TF2YcYso_3syn10punctuatedINtB5_7IterMutNtNtB7_8generics14WherePredicateENtNtNtNtCsaNl6UpbT7bw_4core4iter6traits8iterator8Iterator4nextCs87DMVckFIdB_12serde_derive, symObjAddr: 0x7264, symBinAddr: 0x48D5C, symSize: 0x48 }
  - { offset: 0x869B9, size: 0x8, addend: 0x0, symName: __RNvXsH_NtCsc29TF2YcYso_3syn10punctuatedINtB5_14PrivateIterMutNtNtB7_2ty4TypeNtNtB7_5token5CommaENtNtNtNtCsaNl6UpbT7bw_4core4iter6traits10exact_size17ExactSizeIterator3lenCs87DMVckFIdB_12serde_derive, symObjAddr: 0x7648, symBinAddr: 0x49140, symSize: 0x94 }
  - { offset: 0x86A2D, size: 0x8, addend: 0x0, symName: __RNvXsH_NtCsc29TF2YcYso_3syn10punctuatedINtB5_14PrivateIterMutNtNtB7_2ty9BareFnArgNtNtB7_5token5CommaENtNtNtNtCsaNl6UpbT7bw_4core4iter6traits10exact_size17ExactSizeIterator3lenCs87DMVckFIdB_12serde_derive, symObjAddr: 0x76DC, symBinAddr: 0x491D4, symSize: 0x94 }
  - { offset: 0x86AA1, size: 0x8, addend: 0x0, symName: __RNvXsH_NtCsc29TF2YcYso_3syn10punctuatedINtB5_14PrivateIterMutNtNtB7_4data7VariantNtNtB7_5token5CommaENtNtNtNtCsaNl6UpbT7bw_4core4iter6traits10exact_size17ExactSizeIterator3lenCs87DMVckFIdB_12serde_derive, symObjAddr: 0x7770, symBinAddr: 0x49268, symSize: 0x94 }
  - { offset: 0x86B15, size: 0x8, addend: 0x0, symName: __RNvXsH_NtCsc29TF2YcYso_3syn10punctuatedINtB5_14PrivateIterMutNtNtB7_4expr4ExprNtNtB7_5token5CommaENtNtNtNtCsaNl6UpbT7bw_4core4iter6traits10exact_size17ExactSizeIterator3lenCs87DMVckFIdB_12serde_derive, symObjAddr: 0x7804, symBinAddr: 0x492FC, symSize: 0x94 }
  - { offset: 0x86B89, size: 0x8, addend: 0x0, symName: __RNvXsH_NtCsc29TF2YcYso_3syn10punctuatedINtB5_14PrivateIterMutNtNtB7_4path15GenericArgumentNtNtB7_5token5CommaENtNtNtNtCsaNl6UpbT7bw_4core4iter6traits10exact_size17ExactSizeIterator3lenCs87DMVckFIdB_12serde_derive, symObjAddr: 0x7898, symBinAddr: 0x49390, symSize: 0x94 }
  - { offset: 0x86BFD, size: 0x8, addend: 0x0, symName: __RNvXsH_NtCsc29TF2YcYso_3syn10punctuatedINtB5_14PrivateIterMutNtNtB7_8generics14TypeParamBoundNtNtB7_5token4PlusENtNtNtNtCsaNl6UpbT7bw_4core4iter6traits10exact_size17ExactSizeIterator3lenCs87DMVckFIdB_12serde_derive, symObjAddr: 0x792C, symBinAddr: 0x49424, symSize: 0x94 }
  - { offset: 0x86C71, size: 0x8, addend: 0x0, symName: __RNvXsH_NtCsc29TF2YcYso_3syn10punctuatedINtB5_14PrivateIterMutNtNtB7_8generics14WherePredicateNtNtB7_5token5CommaENtNtNtNtCsaNl6UpbT7bw_4core4iter6traits10exact_size17ExactSizeIterator3lenCs87DMVckFIdB_12serde_derive, symObjAddr: 0x79C0, symBinAddr: 0x494B8, symSize: 0x94 }
  - { offset: 0x86CEB, size: 0x8, addend: 0x0, symName: __RNvXsN_NtCsc29TF2YcYso_3syn10punctuatedINtB5_10PunctuatedNtNtB7_4path15GenericArgumentNtNtB7_5token5CommaEINtNtNtCsaNl6UpbT7bw_4core3ops5index5IndexjE5indexCs87DMVckFIdB_12serde_derive, symObjAddr: 0x7A54, symBinAddr: 0x4954C, symSize: 0x174 }
  - { offset: 0x86D56, size: 0x8, addend: 0x0, symName: __RNvXsa_NtCsc29TF2YcYso_3syn10punctuatedQINtB5_10PunctuatedNtNtB7_2ty4TypeNtNtB7_5token5CommaENtNtNtNtCsaNl6UpbT7bw_4core4iter6traits7collect12IntoIterator9into_iterCs87DMVckFIdB_12serde_derive, symObjAddr: 0x8258, symBinAddr: 0x49D50, symSize: 0x34 }
  - { offset: 0x86D96, size: 0x8, addend: 0x0, symName: __RNvXsa_NtCsc29TF2YcYso_3syn10punctuatedQINtB5_10PunctuatedNtNtB7_2ty9BareFnArgNtNtB7_5token5CommaENtNtNtNtCsaNl6UpbT7bw_4core4iter6traits7collect12IntoIterator9into_iterCs87DMVckFIdB_12serde_derive, symObjAddr: 0x828C, symBinAddr: 0x49D84, symSize: 0x34 }
  - { offset: 0x86DD6, size: 0x8, addend: 0x0, symName: __RNvXsa_NtCsc29TF2YcYso_3syn10punctuatedQINtB5_10PunctuatedNtNtB7_4data7VariantNtNtB7_5token5CommaENtNtNtNtCsaNl6UpbT7bw_4core4iter6traits7collect12IntoIterator9into_iterCs87DMVckFIdB_12serde_derive, symObjAddr: 0x82C0, symBinAddr: 0x49DB8, symSize: 0x34 }
  - { offset: 0x86E16, size: 0x8, addend: 0x0, symName: __RNvXsa_NtCsc29TF2YcYso_3syn10punctuatedQINtB5_10PunctuatedNtNtB7_4expr4ExprNtNtB7_5token5CommaENtNtNtNtCsaNl6UpbT7bw_4core4iter6traits7collect12IntoIterator9into_iterCs87DMVckFIdB_12serde_derive, symObjAddr: 0x82F4, symBinAddr: 0x49DEC, symSize: 0x34 }
  - { offset: 0x86E56, size: 0x8, addend: 0x0, symName: __RNvXsa_NtCsc29TF2YcYso_3syn10punctuatedQINtB5_10PunctuatedNtNtB7_4path11PathSegmentNtNtB7_5token7PathSepENtNtNtNtCsaNl6UpbT7bw_4core4iter6traits7collect12IntoIterator9into_iterCs87DMVckFIdB_12serde_derive, symObjAddr: 0x8328, symBinAddr: 0x49E20, symSize: 0x34 }
  - { offset: 0x86E96, size: 0x8, addend: 0x0, symName: __RNvXsa_NtCsc29TF2YcYso_3syn10punctuatedQINtB5_10PunctuatedNtNtB7_4path15GenericArgumentNtNtB7_5token5CommaENtNtNtNtCsaNl6UpbT7bw_4core4iter6traits7collect12IntoIterator9into_iterCs87DMVckFIdB_12serde_derive, symObjAddr: 0x835C, symBinAddr: 0x49E54, symSize: 0x34 }
  - { offset: 0x86ED6, size: 0x8, addend: 0x0, symName: __RNvXsa_NtCsc29TF2YcYso_3syn10punctuatedQINtB5_10PunctuatedNtNtB7_8generics12GenericParamNtNtB7_5token5CommaENtNtNtNtCsaNl6UpbT7bw_4core4iter6traits7collect12IntoIterator9into_iterCs87DMVckFIdB_12serde_derive, symObjAddr: 0x8390, symBinAddr: 0x49E88, symSize: 0x34 }
  - { offset: 0x86F16, size: 0x8, addend: 0x0, symName: __RNvXsa_NtCsc29TF2YcYso_3syn10punctuatedQINtB5_10PunctuatedNtNtB7_8generics14TypeParamBoundNtNtB7_5token4PlusENtNtNtNtCsaNl6UpbT7bw_4core4iter6traits7collect12IntoIterator9into_iterCs87DMVckFIdB_12serde_derive, symObjAddr: 0x83C4, symBinAddr: 0x49EBC, symSize: 0x34 }
  - { offset: 0x86F56, size: 0x8, addend: 0x0, symName: __RNvXsa_NtCsc29TF2YcYso_3syn10punctuatedQINtB5_10PunctuatedNtNtB7_8generics14WherePredicateNtNtB7_5token5CommaENtNtNtNtCsaNl6UpbT7bw_4core4iter6traits7collect12IntoIterator9into_iterCs87DMVckFIdB_12serde_derive, symObjAddr: 0x83F8, symBinAddr: 0x49EF0, symSize: 0x34 }
  - { offset: 0x86F9C, size: 0x8, addend: 0x0, symName: __RNvXsb_NtCsc29TF2YcYso_3syn10punctuatedINtB5_10PunctuatedNtNtB7_4path11PathSegmentNtNtB7_5token7PathSepENtNtCsaNl6UpbT7bw_4core7default7Default7defaultCs87DMVckFIdB_12serde_derive, symObjAddr: 0x842C, symBinAddr: 0x49F24, symSize: 0x24 }
  - { offset: 0x86FD3, size: 0x8, addend: 0x0, symName: __RNvXsn_NtCsc29TF2YcYso_3syn10punctuatedINtB5_8IntoIterNtNtB7_8generics12GenericParamENtNtNtNtCsaNl6UpbT7bw_4core4iter6traits8iterator8Iterator4nextCs87DMVckFIdB_12serde_derive, symObjAddr: 0x87F8, symBinAddr: 0x4A2F0, symSize: 0x34 }
  - { offset: 0x8700A, size: 0x8, addend: 0x0, symName: __RNvXsn_NtCsc29TF2YcYso_3syn10punctuatedINtB5_8IntoIterNtNtB7_8generics14WherePredicateENtNtNtNtCsaNl6UpbT7bw_4core4iter6traits8iterator8Iterator4nextCs87DMVckFIdB_12serde_derive, symObjAddr: 0x882C, symBinAddr: 0x4A324, symSize: 0x34 }
  - { offset: 0x87041, size: 0x8, addend: 0x0, symName: __RNvXsn_NtCsc29TF2YcYso_3syn10punctuatedINtB5_8IntoIterNtNtB7_8generics14WherePredicateENtNtNtNtCsaNl6UpbT7bw_4core4iter6traits8iterator8Iterator9size_hintCs87DMVckFIdB_12serde_derive, symObjAddr: 0x8860, symBinAddr: 0x4A358, symSize: 0x7C }
  - { offset: 0x8707E, size: 0x8, addend: 0x0, symName: __RNvXsp_NtCsc29TF2YcYso_3syn10punctuatedINtB5_8IntoIterNtNtB7_8generics14WherePredicateENtNtNtNtCsaNl6UpbT7bw_4core4iter6traits10exact_size17ExactSizeIterator3lenCs87DMVckFIdB_12serde_derive, symObjAddr: 0x894C, symBinAddr: 0x4A444, symSize: 0x34 }
  - { offset: 0x870BB, size: 0x8, addend: 0x0, symName: __RNvXst_NtCsc29TF2YcYso_3syn10punctuatedINtB5_4IterNtNtB7_2ty4TypeENtNtNtNtCsaNl6UpbT7bw_4core4iter6traits8iterator8Iterator4nextCs87DMVckFIdB_12serde_derive, symObjAddr: 0x8980, symBinAddr: 0x4A478, symSize: 0x48 }
  - { offset: 0x870F2, size: 0x8, addend: 0x0, symName: __RNvXst_NtCsc29TF2YcYso_3syn10punctuatedINtB5_4IterNtNtB7_2ty9BareFnArgENtNtNtNtCsaNl6UpbT7bw_4core4iter6traits8iterator8Iterator4nextCs87DMVckFIdB_12serde_derive, symObjAddr: 0x89C8, symBinAddr: 0x4A4C0, symSize: 0x48 }
  - { offset: 0x87129, size: 0x8, addend: 0x0, symName: __RNvXst_NtCsc29TF2YcYso_3syn10punctuatedINtB5_4IterNtNtB7_4data5FieldENtNtNtNtCsaNl6UpbT7bw_4core4iter6traits8iterator8Iterator9size_hintCs87DMVckFIdB_12serde_derive, symObjAddr: 0x8A10, symBinAddr: 0x4A508, symSize: 0x7C }
  - { offset: 0x87160, size: 0x8, addend: 0x0, symName: __RNvXst_NtCsc29TF2YcYso_3syn10punctuatedINtB5_4IterNtNtB7_4data7VariantENtNtNtNtCsaNl6UpbT7bw_4core4iter6traits8iterator8Iterator4nextCs87DMVckFIdB_12serde_derive, symObjAddr: 0x8A8C, symBinAddr: 0x4A584, symSize: 0x48 }
  - { offset: 0x87197, size: 0x8, addend: 0x0, symName: __RNvXst_NtCsc29TF2YcYso_3syn10punctuatedINtB5_4IterNtNtB7_4data7VariantENtNtNtNtCsaNl6UpbT7bw_4core4iter6traits8iterator8Iterator9size_hintCs87DMVckFIdB_12serde_derive, symObjAddr: 0x8AD4, symBinAddr: 0x4A5CC, symSize: 0x7C }
  - { offset: 0x871CE, size: 0x8, addend: 0x0, symName: __RNvXst_NtCsc29TF2YcYso_3syn10punctuatedINtB5_4IterNtNtB7_4path15GenericArgumentENtNtNtNtCsaNl6UpbT7bw_4core4iter6traits8iterator8Iterator4nextCs87DMVckFIdB_12serde_derive, symObjAddr: 0x8B50, symBinAddr: 0x4A648, symSize: 0x48 }
  - { offset: 0x8720B, size: 0x8, addend: 0x0, symName: __RNvXsv_NtCsc29TF2YcYso_3syn10punctuatedINtB5_4IterNtNtB7_4data5FieldENtNtNtNtCsaNl6UpbT7bw_4core4iter6traits10exact_size17ExactSizeIterator3lenCs87DMVckFIdB_12serde_derive, symObjAddr: 0x8B98, symBinAddr: 0x4A690, symSize: 0x48 }
  - { offset: 0x87242, size: 0x8, addend: 0x0, symName: __RNvXsv_NtCsc29TF2YcYso_3syn10punctuatedINtB5_4IterNtNtB7_4data7VariantENtNtNtNtCsaNl6UpbT7bw_4core4iter6traits10exact_size17ExactSizeIterator3lenCs87DMVckFIdB_12serde_derive, symObjAddr: 0x8BE0, symBinAddr: 0x4A6D8, symSize: 0x48 }
  - { offset: 0x8727F, size: 0x8, addend: 0x0, symName: __RNvXsy_NtCsc29TF2YcYso_3syn10punctuatedINtB5_11PrivateIterNtNtB7_2ty4TypeNtNtB7_5token5CommaENtNtNtNtCsaNl6UpbT7bw_4core4iter6traits10exact_size17ExactSizeIterator3lenCs87DMVckFIdB_12serde_derive, symObjAddr: 0x8E38, symBinAddr: 0x4A930, symSize: 0x94 }
  - { offset: 0x872F3, size: 0x8, addend: 0x0, symName: __RNvXsy_NtCsc29TF2YcYso_3syn10punctuatedINtB5_11PrivateIterNtNtB7_2ty9BareFnArgNtNtB7_5token5CommaENtNtNtNtCsaNl6UpbT7bw_4core4iter6traits10exact_size17ExactSizeIterator3lenCs87DMVckFIdB_12serde_derive, symObjAddr: 0x8ECC, symBinAddr: 0x4A9C4, symSize: 0x94 }
  - { offset: 0x87367, size: 0x8, addend: 0x0, symName: __RNvXsy_NtCsc29TF2YcYso_3syn10punctuatedINtB5_11PrivateIterNtNtB7_4data7VariantNtNtB7_5token5CommaENtNtNtNtCsaNl6UpbT7bw_4core4iter6traits10exact_size17ExactSizeIterator3lenCs87DMVckFIdB_12serde_derive, symObjAddr: 0x8F60, symBinAddr: 0x4AA58, symSize: 0x94 }
  - { offset: 0x873DB, size: 0x8, addend: 0x0, symName: __RNvXsy_NtCsc29TF2YcYso_3syn10punctuatedINtB5_11PrivateIterNtNtB7_4path15GenericArgumentNtNtB7_5token5CommaENtNtNtNtCsaNl6UpbT7bw_4core4iter6traits10exact_size17ExactSizeIterator3lenCs87DMVckFIdB_12serde_derive, symObjAddr: 0x8FF4, symBinAddr: 0x4AAEC, symSize: 0x94 }
  - { offset: 0x87455, size: 0x8, addend: 0x0, symName: __RNvXsz_NtCsc29TF2YcYso_3syn10punctuatedINtB5_11PrivateIterNtNtB7_2ty4TypeNtNtB7_5token5CommaENtNtCsaNl6UpbT7bw_4core5clone5Clone5cloneCs87DMVckFIdB_12serde_derive, symObjAddr: 0x9088, symBinAddr: 0x4AB80, symSize: 0x68 }
  - { offset: 0x87495, size: 0x8, addend: 0x0, symName: __RNvXsz_NtCsc29TF2YcYso_3syn10punctuatedINtB5_11PrivateIterNtNtB7_2ty9BareFnArgNtNtB7_5token5CommaENtNtCsaNl6UpbT7bw_4core5clone5Clone5cloneCs87DMVckFIdB_12serde_derive, symObjAddr: 0x90F0, symBinAddr: 0x4ABE8, symSize: 0x68 }
  - { offset: 0x874D5, size: 0x8, addend: 0x0, symName: __RNvXsz_NtCsc29TF2YcYso_3syn10punctuatedINtB5_11PrivateIterNtNtB7_4data7VariantNtNtB7_5token5CommaENtNtCsaNl6UpbT7bw_4core5clone5Clone5cloneCs87DMVckFIdB_12serde_derive, symObjAddr: 0x9158, symBinAddr: 0x4AC50, symSize: 0x68 }
  - { offset: 0x87515, size: 0x8, addend: 0x0, symName: __RNvXsz_NtCsc29TF2YcYso_3syn10punctuatedINtB5_11PrivateIterNtNtB7_4path15GenericArgumentNtNtB7_5token5CommaENtNtCsaNl6UpbT7bw_4core5clone5Clone5cloneCs87DMVckFIdB_12serde_derive, symObjAddr: 0x91C0, symBinAddr: 0x4ACB8, symSize: 0x68 }
  - { offset: 0x883B9, size: 0x8, addend: 0x0, symName: __RINvNtCsc29TF2YcYso_3syn5token7PathSepNtCshnvkK9b4wzu_11proc_macro24SpanECs87DMVckFIdB_12serde_derive, symObjAddr: 0x910, symBinAddr: 0x42408, symSize: 0x48 }
  - { offset: 0x8C49D, size: 0x8, addend: 0x0, symName: __RNvXsh_NtCsc29TF2YcYso_3syn5parseNvMNtB7_10punctuatedINtBy_10PunctuatedNtNtB7_8generics14WherePredicateNtNtB7_5token5CommaE16parse_terminatedNtB5_6Parser14___parse_scopedCs87DMVckFIdB_12serde_derive, symObjAddr: 0x8450, symBinAddr: 0x49F48, symSize: 0x3A8 }
  - { offset: 0x8D131, size: 0x8, addend: 0x0, symName: __RNvXs5_NtNtCs7yrEGia95Wz_10proc_macro6bridge6bufferNtB5_6BufferNtNtNtCsaNl6UpbT7bw_4core3ops4drop4Drop4dropCs87DMVckFIdB_12serde_derive, symObjAddr: 0x68C4, symBinAddr: 0x483BC, symSize: 0x8C }
  - { offset: 0x8E2FD, size: 0x8, addend: 0x0, symName: __RNvNvMs1_NtNtCsaNl6UpbT7bw_4core3ptr8non_nullINtB7_7NonNullpE13new_unchecked18precondition_checkCs87DMVckFIdB_12serde_derive, symObjAddr: 0x62E4, symBinAddr: 0x47DDC, symSize: 0xA4 }
  - { offset: 0x92D58, size: 0x8, addend: 0x0, symName: __RNvNvNtNtCsaNl6UpbT7bw_4core5slice3raw14from_raw_parts18precondition_checkCs87DMVckFIdB_12serde_derive, symObjAddr: 0x648C, symBinAddr: 0x47F84, symSize: 0x1DC }
  - { offset: 0x92EDC, size: 0x8, addend: 0x0, symName: __RNvNvNtNtCsaNl6UpbT7bw_4core5slice3raw18from_raw_parts_mut18precondition_checkCs87DMVckFIdB_12serde_derive, symObjAddr: 0x6668, symBinAddr: 0x48160, symSize: 0x1DC }
  - { offset: 0x939A8, size: 0x8, addend: 0x0, symName: __RNvXsn_NtNtCsaNl6UpbT7bw_4core5panic11unwind_safeINtB5_16AssertUnwindSafeNCINvNtNtCs7yrEGia95Wz_10proc_macro6bridge6client10run_clientNtB1e_11TokenStreamINtNtB9_6option6OptionB28_ENCNCINvMs6_B1e_INtB1e_6ClientNtB1i_11TokenStreamB3l_E7expand1NvCs87DMVckFIdB_12serde_derive16derive_serializeE00E0EINtNtNtB9_3ops8function6FnOnceuE9call_onceB3T_, symObjAddr: 0x88DC, symBinAddr: 0x4A3D4, symSize: 0x38 }
  - { offset: 0x93A00, size: 0x8, addend: 0x0, symName: __RNvXsn_NtNtCsaNl6UpbT7bw_4core5panic11unwind_safeINtB5_16AssertUnwindSafeNCINvNtNtCs7yrEGia95Wz_10proc_macro6bridge6client10run_clientNtB1e_11TokenStreamINtNtB9_6option6OptionB28_ENCNCINvMs6_B1e_INtB1e_6ClientNtB1i_11TokenStreamB3l_E7expand1NvCs87DMVckFIdB_12serde_derive18derive_deserializeE00E0EINtNtNtB9_3ops8function6FnOnceuE9call_onceB3T_, symObjAddr: 0x8914, symBinAddr: 0x4A40C, symSize: 0x38 }
  - { offset: 0x93F32, size: 0x8, addend: 0x0, symName: __RINvXs_NtNtNtCsaNl6UpbT7bw_4core4iter8adapters8peekableINtB5_8PeekableINtNtB7_6filter6FilterINtNtB7_9enumerate9EnumerateINtNtNtBb_5slice4iter4IterNtNtNtCs87DMVckFIdB_12serde_derive9internals3ast5FieldEENCNvNtB2q_3ser22serialize_tuple_struct0EENtNtNtB9_6traits8iterator8Iterator4foldNtCshnvkK9b4wzu_11proc_macro211TokenStreamNCINvNtB7_3map8map_foldTjRB2k_EB4w_B4w_NCB3g_s_0NCB3g_s0_0E0EB2q_, symObjAddr: 0x1E74, symBinAddr: 0x4396C, symSize: 0x16C }
  - { offset: 0x93FD1, size: 0x8, addend: 0x0, symName: __RINvXs_NtNtNtCsaNl6UpbT7bw_4core4iter8adapters8peekableINtB5_8PeekableINtNtB7_6filter6FilterINtNtB7_9enumerate9EnumerateINtNtNtBb_5slice4iter4IterNtNtNtCs87DMVckFIdB_12serde_derive9internals3ast5FieldEENCNvNtB2q_3ser23serialize_tuple_variant0EENtNtNtB9_6traits8iterator8Iterator4foldNtCshnvkK9b4wzu_11proc_macro211TokenStreamNCINvNtB7_3map8map_foldTjRB2k_EB4x_B4x_NCB3g_s_0NCB3g_s0_0E0EB2q_, symObjAddr: 0x1FE0, symBinAddr: 0x43AD8, symSize: 0x184 }
  - { offset: 0x94070, size: 0x8, addend: 0x0, symName: __RINvXs_NtNtNtCsaNl6UpbT7bw_4core4iter8adapters8peekableINtB5_8PeekableINtNtB7_6filter6FilterINtNtNtBb_5slice4iter4IterNtNtNtCs87DMVckFIdB_12serde_derive9internals3ast5FieldENCNvNtB1Y_3ser24serialize_struct_variants_0EENtNtNtB9_6traits8iterator8Iterator4foldNtCshnvkK9b4wzu_11proc_macro211TokenStreamNCINvNtB7_3map8map_foldRB1S_B47_B47_NCB2N_s0_0NCB2N_s1_0E0EB1Y_, symObjAddr: 0x2164, symBinAddr: 0x43C5C, symSize: 0x158 }
  - { offset: 0x9410F, size: 0x8, addend: 0x0, symName: __RINvXs_NtNtNtCsaNl6UpbT7bw_4core4iter8adapters8peekableINtB5_8PeekableINtNtB7_6filter6FilterINtNtNtBb_5slice4iter4IterNtNtNtCs87DMVckFIdB_12serde_derive9internals3ast5FieldENCNvNtB1Y_3ser26serialize_struct_as_struct0EENtNtNtB9_6traits8iterator8Iterator4foldNtCshnvkK9b4wzu_11proc_macro211TokenStreamNCINvNtB7_3map8map_foldRB1S_B47_B47_NCB2N_s_0NCB2N_s0_0E0EB1Y_, symObjAddr: 0x22BC, symBinAddr: 0x43DB4, symSize: 0x150 }
  - { offset: 0x942D9, size: 0x8, addend: 0x0, symName: __RNCNvMs3_NtNtNtCsaNl6UpbT7bw_4core4iter8adapters8peekableINtB7_8PeekableINtNtB9_6filter6FilterINtNtB9_9enumerate9EnumerateINtNtNtBd_5slice4iter4IterNtNtNtCs87DMVckFIdB_12serde_derive9internals3ast5FieldEENCNvNtB2s_3ser22serialize_tuple_struct0EE4peek0B2s_, symObjAddr: 0x37D0, symBinAddr: 0x452C8, symSize: 0x24 }
  - { offset: 0x94310, size: 0x8, addend: 0x0, symName: __RNCNvMs3_NtNtNtCsaNl6UpbT7bw_4core4iter8adapters8peekableINtB7_8PeekableINtNtB9_6filter6FilterINtNtB9_9enumerate9EnumerateINtNtNtBd_5slice4iter4IterNtNtNtCs87DMVckFIdB_12serde_derive9internals3ast5FieldEENCNvNtB2s_3ser23serialize_tuple_variant0EE4peek0B2s_, symObjAddr: 0x37F4, symBinAddr: 0x452EC, symSize: 0x24 }
  - { offset: 0x94347, size: 0x8, addend: 0x0, symName: __RNCNvMs3_NtNtNtCsaNl6UpbT7bw_4core4iter8adapters8peekableINtB7_8PeekableINtNtB9_6filter6FilterINtNtNtBd_5slice4iter4IterNtNtNtCs87DMVckFIdB_12serde_derive9internals3ast5FieldENCNvNtB20_3ser23serialize_struct_as_map0EE4peek0B20_, symObjAddr: 0x3818, symBinAddr: 0x45310, symSize: 0x24 }
  - { offset: 0x9437E, size: 0x8, addend: 0x0, symName: __RNCNvMs3_NtNtNtCsaNl6UpbT7bw_4core4iter8adapters8peekableINtB7_8PeekableINtNtB9_6filter6FilterINtNtNtBd_5slice4iter4IterNtNtNtCs87DMVckFIdB_12serde_derive9internals3ast5FieldENCNvNtB20_3ser24serialize_struct_variants_0EE4peek0B20_, symObjAddr: 0x383C, symBinAddr: 0x45334, symSize: 0x24 }
  - { offset: 0x943B5, size: 0x8, addend: 0x0, symName: __RNCNvMs3_NtNtNtCsaNl6UpbT7bw_4core4iter8adapters8peekableINtB7_8PeekableINtNtB9_6filter6FilterINtNtNtBd_5slice4iter4IterNtNtNtCs87DMVckFIdB_12serde_derive9internals3ast5FieldENCNvNtB20_3ser26serialize_struct_as_struct0EE4peek0B20_, symObjAddr: 0x3860, symBinAddr: 0x45358, symSize: 0x24 }
  - { offset: 0x943EC, size: 0x8, addend: 0x0, symName: __RNCNvMs3_NtNtNtCsaNl6UpbT7bw_4core4iter8adapters8peekableINtB7_8PeekableINtNtB9_6filter6FilterINtNtNtBd_5slice4iter4IterNtNtNtCs87DMVckFIdB_12serde_derive9internals3ast5FieldENCNvNtB20_3ser37serialize_struct_variant_with_flatten0EE4peek0B20_, symObjAddr: 0x3884, symBinAddr: 0x4537C, symSize: 0x24 }
  - { offset: 0x949E7, size: 0x8, addend: 0x0, symName: __RINvYINtNtCsc29TF2YcYso_3syn10punctuated11PrivateIterNtNtB8_2ty4TypeNtNtB8_5token5CommaENtNtNtNtCsaNl6UpbT7bw_4core4iter6traits8iterator8Iterator8try_foldINtNtNtB1w_3num7nonzero7NonZerojENCNvXs_NvB1o_10advance_byB3_NtB36_13SpecAdvanceBy15spec_advance_by0INtNtB1w_6option6OptionB2s_EECs87DMVckFIdB_12serde_derive, symObjAddr: 0x240C, symBinAddr: 0x43F04, symSize: 0x154 }
  - { offset: 0x94A9B, size: 0x8, addend: 0x0, symName: __RINvYINtNtCsc29TF2YcYso_3syn10punctuated11PrivateIterNtNtB8_2ty9BareFnArgNtNtB8_5token5CommaENtNtNtNtCsaNl6UpbT7bw_4core4iter6traits8iterator8Iterator8try_foldINtNtNtB1B_3num7nonzero7NonZerojENCNvXs_NvB1t_10advance_byB3_NtB3b_13SpecAdvanceBy15spec_advance_by0INtNtB1B_6option6OptionB2x_EECs87DMVckFIdB_12serde_derive, symObjAddr: 0x2560, symBinAddr: 0x44058, symSize: 0x154 }
  - { offset: 0x94B4F, size: 0x8, addend: 0x0, symName: __RINvYINtNtCsc29TF2YcYso_3syn10punctuated11PrivateIterNtNtB8_4data7VariantNtNtB8_5token5CommaENtNtNtNtCsaNl6UpbT7bw_4core4iter6traits8iterator8Iterator8try_foldINtNtNtB1B_3num7nonzero7NonZerojENCNvXs_NvB1t_10advance_byB3_NtB3b_13SpecAdvanceBy15spec_advance_by0INtNtB1B_6option6OptionB2x_EECs87DMVckFIdB_12serde_derive, symObjAddr: 0x26B4, symBinAddr: 0x441AC, symSize: 0x154 }
  - { offset: 0x94C03, size: 0x8, addend: 0x0, symName: __RINvYINtNtCsc29TF2YcYso_3syn10punctuated11PrivateIterNtNtB8_4path15GenericArgumentNtNtB8_5token5CommaENtNtNtNtCsaNl6UpbT7bw_4core4iter6traits8iterator8Iterator8try_foldINtNtNtB1K_3num7nonzero7NonZerojENCNvXs_NvB1C_10advance_byB3_NtB3k_13SpecAdvanceBy15spec_advance_by0INtNtB1K_6option6OptionB2G_EECs87DMVckFIdB_12serde_derive, symObjAddr: 0x2808, symBinAddr: 0x44300, symSize: 0x154 }
  - { offset: 0x94CB7, size: 0x8, addend: 0x0, symName: __RINvYINtNtCsc29TF2YcYso_3syn10punctuated14PrivateIterMutNtNtB8_2ty4TypeNtNtB8_5token5CommaENtNtNtNtCsaNl6UpbT7bw_4core4iter6traits8iterator8Iterator8try_foldINtNtNtB1z_3num7nonzero7NonZerojENCNvXs_NvB1r_10advance_byB3_NtB39_13SpecAdvanceBy15spec_advance_by0INtNtB1z_6option6OptionB2v_EECs87DMVckFIdB_12serde_derive, symObjAddr: 0x295C, symBinAddr: 0x44454, symSize: 0x154 }
  - { offset: 0x94D6B, size: 0x8, addend: 0x0, symName: __RINvYINtNtCsc29TF2YcYso_3syn10punctuated14PrivateIterMutNtNtB8_2ty9BareFnArgNtNtB8_5token5CommaENtNtNtNtCsaNl6UpbT7bw_4core4iter6traits8iterator8Iterator8try_foldINtNtNtB1E_3num7nonzero7NonZerojENCNvXs_NvB1w_10advance_byB3_NtB3e_13SpecAdvanceBy15spec_advance_by0INtNtB1E_6option6OptionB2A_EECs87DMVckFIdB_12serde_derive, symObjAddr: 0x2AB0, symBinAddr: 0x445A8, symSize: 0x154 }
  - { offset: 0x94E1F, size: 0x8, addend: 0x0, symName: __RINvYINtNtCsc29TF2YcYso_3syn10punctuated14PrivateIterMutNtNtB8_4data7VariantNtNtB8_5token5CommaENtNtNtNtCsaNl6UpbT7bw_4core4iter6traits8iterator8Iterator8try_foldINtNtNtB1E_3num7nonzero7NonZerojENCNvXs_NvB1w_10advance_byB3_NtB3e_13SpecAdvanceBy15spec_advance_by0INtNtB1E_6option6OptionB2A_EECs87DMVckFIdB_12serde_derive, symObjAddr: 0x2C04, symBinAddr: 0x446FC, symSize: 0x154 }
  - { offset: 0x94ED3, size: 0x8, addend: 0x0, symName: __RINvYINtNtCsc29TF2YcYso_3syn10punctuated14PrivateIterMutNtNtB8_4expr4ExprNtNtB8_5token5CommaENtNtNtNtCsaNl6UpbT7bw_4core4iter6traits8iterator8Iterator8try_foldINtNtNtB1B_3num7nonzero7NonZerojENCNvXs_NvB1t_10advance_byB3_NtB3b_13SpecAdvanceBy15spec_advance_by0INtNtB1B_6option6OptionB2x_EECs87DMVckFIdB_12serde_derive, symObjAddr: 0x2D58, symBinAddr: 0x44850, symSize: 0x154 }
  - { offset: 0x94F87, size: 0x8, addend: 0x0, symName: __RINvYINtNtCsc29TF2YcYso_3syn10punctuated14PrivateIterMutNtNtB8_4path15GenericArgumentNtNtB8_5token5CommaENtNtNtNtCsaNl6UpbT7bw_4core4iter6traits8iterator8Iterator8try_foldINtNtNtB1N_3num7nonzero7NonZerojENCNvXs_NvB1F_10advance_byB3_NtB3n_13SpecAdvanceBy15spec_advance_by0INtNtB1N_6option6OptionB2J_EECs87DMVckFIdB_12serde_derive, symObjAddr: 0x2EAC, symBinAddr: 0x449A4, symSize: 0x154 }
  - { offset: 0x9503B, size: 0x8, addend: 0x0, symName: __RINvYINtNtCsc29TF2YcYso_3syn10punctuated14PrivateIterMutNtNtB8_8generics14TypeParamBoundNtNtB8_5token4PlusENtNtNtNtCsaNl6UpbT7bw_4core4iter6traits8iterator8Iterator8try_foldINtNtNtB1P_3num7nonzero7NonZerojENCNvXs_NvB1H_10advance_byB3_NtB3p_13SpecAdvanceBy15spec_advance_by0INtNtB1P_6option6OptionB2L_EECs87DMVckFIdB_12serde_derive, symObjAddr: 0x3000, symBinAddr: 0x44AF8, symSize: 0x154 }
  - { offset: 0x950EF, size: 0x8, addend: 0x0, symName: __RINvYINtNtCsc29TF2YcYso_3syn10punctuated14PrivateIterMutNtNtB8_8generics14WherePredicateNtNtB8_5token5CommaENtNtNtNtCsaNl6UpbT7bw_4core4iter6traits8iterator8Iterator8try_foldINtNtNtB1Q_3num7nonzero7NonZerojENCNvXs_NvB1I_10advance_byB3_NtB3q_13SpecAdvanceBy15spec_advance_by0INtNtB1Q_6option6OptionB2M_EECs87DMVckFIdB_12serde_derive, symObjAddr: 0x3154, symBinAddr: 0x44C4C, symSize: 0x154 }
  - { offset: 0x951A3, size: 0x8, addend: 0x0, symName: __RINvYINtNtCsc29TF2YcYso_3syn10punctuated4IterNtNtB8_4data7VariantENtNtNtNtCsaNl6UpbT7bw_4core4iter6traits8iterator8Iterator3mapNtNtNtCs87DMVckFIdB_12serde_derive9internals3ast7VariantNCNvB23_13enum_from_ast0EB27_, symObjAddr: 0x32A8, symBinAddr: 0x44DA0, symSize: 0x38 }
  - { offset: 0x95210, size: 0x8, addend: 0x0, symName: __RINvYINtNtCsc29TF2YcYso_3syn10punctuated4IterNtNtB8_8generics12GenericParamENtNtNtNtCsaNl6UpbT7bw_4core4iter6traits8iterator8Iterator3mapBH_NCNvNtCs87DMVckFIdB_12serde_derive5bound16without_defaults0EB2k_, symObjAddr: 0x32E0, symBinAddr: 0x44DD8, symSize: 0x1C }
  - { offset: 0x95268, size: 0x8, addend: 0x0, symName: __RINvYINtNtCsc29TF2YcYso_3syn10punctuated4IterNtNtB8_8generics12GenericParamENtNtNtNtCsaNl6UpbT7bw_4core4iter6traits8iterator8Iterator3mapNtNtB8_4path15GenericArgumentNCNvNtCs87DMVckFIdB_12serde_derive5bound12type_of_item0EB2K_, symObjAddr: 0x32FC, symBinAddr: 0x44DF4, symSize: 0x1C }
  - { offset: 0x952C0, size: 0x8, addend: 0x0, symName: __RINvYINtNtCsc29TF2YcYso_3syn10punctuated4IterNtNtB8_8generics12GenericParamENtNtNtNtCsaNl6UpbT7bw_4core4iter6traits8iterator8Iterator6clonedBH_ECs87DMVckFIdB_12serde_derive, symObjAddr: 0x3318, symBinAddr: 0x44E10, symSize: 0x1C }
  - { offset: 0x95300, size: 0x8, addend: 0x0, symName: __RINvYINtNtCsc29TF2YcYso_3syn10punctuated9IntoPairsNtNtB8_4path11PathSegmentNtNtB8_5token7PathSepENtNtNtNtCsaNl6UpbT7bw_4core4iter6traits8iterator8Iterator8try_foldINtNtNtB1F_3num7nonzero7NonZerojENCNvXs_NvB1x_10advance_byB3_NtB3f_13SpecAdvanceBy15spec_advance_by0INtNtB1F_6option6OptionB2B_EECs87DMVckFIdB_12serde_derive, symObjAddr: 0x3334, symBinAddr: 0x44E2C, symSize: 0x1BC }
  - { offset: 0x953B5, size: 0x8, addend: 0x0, symName: __RINvYINtNtNtNtCsaNl6UpbT7bw_4core4iter8adapters8peekable8PeekableINtNtB8_6filter6FilterINtNtB8_9enumerate9EnumerateINtNtNtBc_5slice4iter4IterNtNtNtCs87DMVckFIdB_12serde_derive9internals3ast5FieldEENCNvNtB2l_3ser22serialize_tuple_struct0EENtNtNtBa_6traits8iterator8Iterator3mapNtCshnvkK9b4wzu_11proc_macro211TokenStreamNCB3b_s_0EB2l_, symObjAddr: 0x34F0, symBinAddr: 0x44FE8, symSize: 0x50 }
  - { offset: 0x95423, size: 0x8, addend: 0x0, symName: __RINvYINtNtNtNtCsaNl6UpbT7bw_4core4iter8adapters8peekable8PeekableINtNtB8_6filter6FilterINtNtB8_9enumerate9EnumerateINtNtNtBc_5slice4iter4IterNtNtNtCs87DMVckFIdB_12serde_derive9internals3ast5FieldEENCNvNtB2l_3ser23serialize_tuple_variant0EENtNtNtBa_6traits8iterator8Iterator3mapNtCshnvkK9b4wzu_11proc_macro211TokenStreamNCB3b_s_0EB2l_, symObjAddr: 0x3540, symBinAddr: 0x45038, symSize: 0x30 }
  - { offset: 0x95491, size: 0x8, addend: 0x0, symName: __RINvYINtNtNtNtCsaNl6UpbT7bw_4core4iter8adapters8peekable8PeekableINtNtB8_6filter6FilterINtNtNtBc_5slice4iter4IterNtNtNtCs87DMVckFIdB_12serde_derive9internals3ast5FieldENCNvNtB1T_3ser24serialize_struct_variants_0EENtNtNtBa_6traits8iterator8Iterator3mapNtCshnvkK9b4wzu_11proc_macro211TokenStreamNCB2I_s0_0EB1T_, symObjAddr: 0x3570, symBinAddr: 0x45068, symSize: 0x1C }
  - { offset: 0x954FE, size: 0x8, addend: 0x0, symName: __RINvYINtNtNtNtCsaNl6UpbT7bw_4core4iter8adapters8peekable8PeekableINtNtB8_6filter6FilterINtNtNtBc_5slice4iter4IterNtNtNtCs87DMVckFIdB_12serde_derive9internals3ast5FieldENCNvNtB1T_3ser26serialize_struct_as_struct0EENtNtNtBa_6traits8iterator8Iterator3mapNtCshnvkK9b4wzu_11proc_macro211TokenStreamNCB2I_s_0EB1T_, symObjAddr: 0x358C, symBinAddr: 0x45084, symSize: 0x28 }
  - { offset: 0x95575, size: 0x8, addend: 0x0, symName: __RNvXs_NvNtNtNtNtCsaNl6UpbT7bw_4core4iter6traits8iterator8Iterator10advance_byINtNtCsc29TF2YcYso_3syn10punctuated11PrivateIterNtNtB1i_2ty4TypeNtNtB1i_5token5CommaENtB4_13SpecAdvanceBy15spec_advance_byCs87DMVckFIdB_12serde_derive, symObjAddr: 0x7BC8, symBinAddr: 0x496C0, symSize: 0x8C }
  - { offset: 0x95623, size: 0x8, addend: 0x0, symName: __RNvXs_NvNtNtNtNtCsaNl6UpbT7bw_4core4iter6traits8iterator8Iterator10advance_byINtNtCsc29TF2YcYso_3syn10punctuated11PrivateIterNtNtB1i_2ty9BareFnArgNtNtB1i_5token5CommaENtB4_13SpecAdvanceBy15spec_advance_byCs87DMVckFIdB_12serde_derive, symObjAddr: 0x7C54, symBinAddr: 0x4974C, symSize: 0x8C }
  - { offset: 0x956D1, size: 0x8, addend: 0x0, symName: __RNvXs_NvNtNtNtNtCsaNl6UpbT7bw_4core4iter6traits8iterator8Iterator10advance_byINtNtCsc29TF2YcYso_3syn10punctuated11PrivateIterNtNtB1i_4data7VariantNtNtB1i_5token5CommaENtB4_13SpecAdvanceBy15spec_advance_byCs87DMVckFIdB_12serde_derive, symObjAddr: 0x7CE0, symBinAddr: 0x497D8, symSize: 0x8C }
  - { offset: 0x9577F, size: 0x8, addend: 0x0, symName: __RNvXs_NvNtNtNtNtCsaNl6UpbT7bw_4core4iter6traits8iterator8Iterator10advance_byINtNtCsc29TF2YcYso_3syn10punctuated11PrivateIterNtNtB1i_4path15GenericArgumentNtNtB1i_5token5CommaENtB4_13SpecAdvanceBy15spec_advance_byCs87DMVckFIdB_12serde_derive, symObjAddr: 0x7D6C, symBinAddr: 0x49864, symSize: 0x8C }
  - { offset: 0x9582D, size: 0x8, addend: 0x0, symName: __RNvXs_NvNtNtNtNtCsaNl6UpbT7bw_4core4iter6traits8iterator8Iterator10advance_byINtNtCsc29TF2YcYso_3syn10punctuated14PrivateIterMutNtNtB1i_2ty4TypeNtNtB1i_5token5CommaENtB4_13SpecAdvanceBy15spec_advance_byCs87DMVckFIdB_12serde_derive, symObjAddr: 0x7DF8, symBinAddr: 0x498F0, symSize: 0x8C }
  - { offset: 0x958DB, size: 0x8, addend: 0x0, symName: __RNvXs_NvNtNtNtNtCsaNl6UpbT7bw_4core4iter6traits8iterator8Iterator10advance_byINtNtCsc29TF2YcYso_3syn10punctuated14PrivateIterMutNtNtB1i_2ty9BareFnArgNtNtB1i_5token5CommaENtB4_13SpecAdvanceBy15spec_advance_byCs87DMVckFIdB_12serde_derive, symObjAddr: 0x7E84, symBinAddr: 0x4997C, symSize: 0x8C }
  - { offset: 0x95989, size: 0x8, addend: 0x0, symName: __RNvXs_NvNtNtNtNtCsaNl6UpbT7bw_4core4iter6traits8iterator8Iterator10advance_byINtNtCsc29TF2YcYso_3syn10punctuated14PrivateIterMutNtNtB1i_4data7VariantNtNtB1i_5token5CommaENtB4_13SpecAdvanceBy15spec_advance_byCs87DMVckFIdB_12serde_derive, symObjAddr: 0x7F10, symBinAddr: 0x49A08, symSize: 0x8C }
  - { offset: 0x95A37, size: 0x8, addend: 0x0, symName: __RNvXs_NvNtNtNtNtCsaNl6UpbT7bw_4core4iter6traits8iterator8Iterator10advance_byINtNtCsc29TF2YcYso_3syn10punctuated14PrivateIterMutNtNtB1i_4expr4ExprNtNtB1i_5token5CommaENtB4_13SpecAdvanceBy15spec_advance_byCs87DMVckFIdB_12serde_derive, symObjAddr: 0x7F9C, symBinAddr: 0x49A94, symSize: 0x8C }
  - { offset: 0x95AE5, size: 0x8, addend: 0x0, symName: __RNvXs_NvNtNtNtNtCsaNl6UpbT7bw_4core4iter6traits8iterator8Iterator10advance_byINtNtCsc29TF2YcYso_3syn10punctuated14PrivateIterMutNtNtB1i_4path15GenericArgumentNtNtB1i_5token5CommaENtB4_13SpecAdvanceBy15spec_advance_byCs87DMVckFIdB_12serde_derive, symObjAddr: 0x8028, symBinAddr: 0x49B20, symSize: 0x8C }
  - { offset: 0x95B93, size: 0x8, addend: 0x0, symName: __RNvXs_NvNtNtNtNtCsaNl6UpbT7bw_4core4iter6traits8iterator8Iterator10advance_byINtNtCsc29TF2YcYso_3syn10punctuated14PrivateIterMutNtNtB1i_8generics14TypeParamBoundNtNtB1i_5token4PlusENtB4_13SpecAdvanceBy15spec_advance_byCs87DMVckFIdB_12serde_derive, symObjAddr: 0x80B4, symBinAddr: 0x49BAC, symSize: 0x8C }
  - { offset: 0x95C41, size: 0x8, addend: 0x0, symName: __RNvXs_NvNtNtNtNtCsaNl6UpbT7bw_4core4iter6traits8iterator8Iterator10advance_byINtNtCsc29TF2YcYso_3syn10punctuated14PrivateIterMutNtNtB1i_8generics14WherePredicateNtNtB1i_5token5CommaENtB4_13SpecAdvanceBy15spec_advance_byCs87DMVckFIdB_12serde_derive, symObjAddr: 0x8140, symBinAddr: 0x49C38, symSize: 0x8C }
  - { offset: 0x95CEF, size: 0x8, addend: 0x0, symName: __RNvXs_NvNtNtNtNtCsaNl6UpbT7bw_4core4iter6traits8iterator8Iterator10advance_byINtNtCsc29TF2YcYso_3syn10punctuated9IntoPairsNtNtB1i_4path11PathSegmentNtNtB1i_5token7PathSepENtB4_13SpecAdvanceBy15spec_advance_byCs87DMVckFIdB_12serde_derive, symObjAddr: 0x81CC, symBinAddr: 0x49CC4, symSize: 0x8C }
  - { offset: 0x95DF9, size: 0x8, addend: 0x0, symName: __RNvYINtNtCsc29TF2YcYso_3syn10punctuated11PrivateIterNtNtB7_2ty4TypeNtNtB7_5token5CommaENtNtNtNtCsaNl6UpbT7bw_4core4iter6traits8iterator8Iterator10advance_byCs87DMVckFIdB_12serde_derive, symObjAddr: 0x9414, symBinAddr: 0x4AF0C, symSize: 0x28 }
  - { offset: 0x95E3F, size: 0x8, addend: 0x0, symName: __RNvYINtNtCsc29TF2YcYso_3syn10punctuated11PrivateIterNtNtB7_2ty4TypeNtNtB7_5token5CommaENtNtNtNtCsaNl6UpbT7bw_4core4iter6traits8iterator8Iterator3nthCs87DMVckFIdB_12serde_derive, symObjAddr: 0x943C, symBinAddr: 0x4AF34, symSize: 0x7C }
  - { offset: 0x95F0B, size: 0x8, addend: 0x0, symName: __RNvYINtNtCsc29TF2YcYso_3syn10punctuated11PrivateIterNtNtB7_2ty4TypeNtNtB7_5token5CommaENtNtNtNtCsaNl6UpbT7bw_4core4iter6traits8iterator8Iterator9size_hintCs87DMVckFIdB_12serde_derive, symObjAddr: 0x94B8, symBinAddr: 0x4AFB0, symSize: 0x34 }
  - { offset: 0x95F40, size: 0x8, addend: 0x0, symName: __RNvYINtNtCsc29TF2YcYso_3syn10punctuated11PrivateIterNtNtB7_2ty9BareFnArgNtNtB7_5token5CommaENtNtNtNtCsaNl6UpbT7bw_4core4iter6traits8iterator8Iterator10advance_byCs87DMVckFIdB_12serde_derive, symObjAddr: 0x96D8, symBinAddr: 0x4B1D0, symSize: 0x28 }
  - { offset: 0x95F86, size: 0x8, addend: 0x0, symName: __RNvYINtNtCsc29TF2YcYso_3syn10punctuated11PrivateIterNtNtB7_2ty9BareFnArgNtNtB7_5token5CommaENtNtNtNtCsaNl6UpbT7bw_4core4iter6traits8iterator8Iterator3nthCs87DMVckFIdB_12serde_derive, symObjAddr: 0x9700, symBinAddr: 0x4B1F8, symSize: 0x7C }
  - { offset: 0x96052, size: 0x8, addend: 0x0, symName: __RNvYINtNtCsc29TF2YcYso_3syn10punctuated11PrivateIterNtNtB7_2ty9BareFnArgNtNtB7_5token5CommaENtNtNtNtCsaNl6UpbT7bw_4core4iter6traits8iterator8Iterator9size_hintCs87DMVckFIdB_12serde_derive, symObjAddr: 0x977C, symBinAddr: 0x4B274, symSize: 0x34 }
  - { offset: 0x96087, size: 0x8, addend: 0x0, symName: __RNvYINtNtCsc29TF2YcYso_3syn10punctuated11PrivateIterNtNtB7_4data7VariantNtNtB7_5token5CommaENtNtNtNtCsaNl6UpbT7bw_4core4iter6traits8iterator8Iterator10advance_byCs87DMVckFIdB_12serde_derive, symObjAddr: 0x999C, symBinAddr: 0x4B494, symSize: 0x28 }
  - { offset: 0x960CD, size: 0x8, addend: 0x0, symName: __RNvYINtNtCsc29TF2YcYso_3syn10punctuated11PrivateIterNtNtB7_4data7VariantNtNtB7_5token5CommaENtNtNtNtCsaNl6UpbT7bw_4core4iter6traits8iterator8Iterator3nthCs87DMVckFIdB_12serde_derive, symObjAddr: 0x99C4, symBinAddr: 0x4B4BC, symSize: 0x7C }
  - { offset: 0x96199, size: 0x8, addend: 0x0, symName: __RNvYINtNtCsc29TF2YcYso_3syn10punctuated11PrivateIterNtNtB7_4data7VariantNtNtB7_5token5CommaENtNtNtNtCsaNl6UpbT7bw_4core4iter6traits8iterator8Iterator9size_hintCs87DMVckFIdB_12serde_derive, symObjAddr: 0x9A40, symBinAddr: 0x4B538, symSize: 0x34 }
  - { offset: 0x961CE, size: 0x8, addend: 0x0, symName: __RNvYINtNtCsc29TF2YcYso_3syn10punctuated11PrivateIterNtNtB7_4path15GenericArgumentNtNtB7_5token5CommaENtNtNtNtCsaNl6UpbT7bw_4core4iter6traits8iterator8Iterator10advance_byCs87DMVckFIdB_12serde_derive, symObjAddr: 0x9C60, symBinAddr: 0x4B758, symSize: 0x28 }
  - { offset: 0x96214, size: 0x8, addend: 0x0, symName: __RNvYINtNtCsc29TF2YcYso_3syn10punctuated11PrivateIterNtNtB7_4path15GenericArgumentNtNtB7_5token5CommaENtNtNtNtCsaNl6UpbT7bw_4core4iter6traits8iterator8Iterator3nthCs87DMVckFIdB_12serde_derive, symObjAddr: 0x9C88, symBinAddr: 0x4B780, symSize: 0x7C }
  - { offset: 0x962E0, size: 0x8, addend: 0x0, symName: __RNvYINtNtCsc29TF2YcYso_3syn10punctuated11PrivateIterNtNtB7_4path15GenericArgumentNtNtB7_5token5CommaENtNtNtNtCsaNl6UpbT7bw_4core4iter6traits8iterator8Iterator9size_hintCs87DMVckFIdB_12serde_derive, symObjAddr: 0x9D04, symBinAddr: 0x4B7FC, symSize: 0x34 }
  - { offset: 0x96315, size: 0x8, addend: 0x0, symName: __RNvYINtNtCsc29TF2YcYso_3syn10punctuated14PrivateIterMutNtNtB7_2ty4TypeNtNtB7_5token5CommaENtNtNtNtCsaNl6UpbT7bw_4core4iter6traits8iterator8Iterator10advance_byCs87DMVckFIdB_12serde_derive, symObjAddr: 0x9F24, symBinAddr: 0x4BA1C, symSize: 0x28 }
  - { offset: 0x9635B, size: 0x8, addend: 0x0, symName: __RNvYINtNtCsc29TF2YcYso_3syn10punctuated14PrivateIterMutNtNtB7_2ty4TypeNtNtB7_5token5CommaENtNtNtNtCsaNl6UpbT7bw_4core4iter6traits8iterator8Iterator3nthCs87DMVckFIdB_12serde_derive, symObjAddr: 0x9F4C, symBinAddr: 0x4BA44, symSize: 0x7C }
  - { offset: 0x96427, size: 0x8, addend: 0x0, symName: __RNvYINtNtCsc29TF2YcYso_3syn10punctuated14PrivateIterMutNtNtB7_2ty4TypeNtNtB7_5token5CommaENtNtNtNtCsaNl6UpbT7bw_4core4iter6traits8iterator8Iterator9size_hintCs87DMVckFIdB_12serde_derive, symObjAddr: 0x9FC8, symBinAddr: 0x4BAC0, symSize: 0x34 }
  - { offset: 0x9645C, size: 0x8, addend: 0x0, symName: __RNvYINtNtCsc29TF2YcYso_3syn10punctuated14PrivateIterMutNtNtB7_2ty9BareFnArgNtNtB7_5token5CommaENtNtNtNtCsaNl6UpbT7bw_4core4iter6traits8iterator8Iterator10advance_byCs87DMVckFIdB_12serde_derive, symObjAddr: 0xA1E8, symBinAddr: 0x4BCE0, symSize: 0x28 }
  - { offset: 0x964A2, size: 0x8, addend: 0x0, symName: __RNvYINtNtCsc29TF2YcYso_3syn10punctuated14PrivateIterMutNtNtB7_2ty9BareFnArgNtNtB7_5token5CommaENtNtNtNtCsaNl6UpbT7bw_4core4iter6traits8iterator8Iterator3nthCs87DMVckFIdB_12serde_derive, symObjAddr: 0xA210, symBinAddr: 0x4BD08, symSize: 0x7C }
  - { offset: 0x9656E, size: 0x8, addend: 0x0, symName: __RNvYINtNtCsc29TF2YcYso_3syn10punctuated14PrivateIterMutNtNtB7_2ty9BareFnArgNtNtB7_5token5CommaENtNtNtNtCsaNl6UpbT7bw_4core4iter6traits8iterator8Iterator9size_hintCs87DMVckFIdB_12serde_derive, symObjAddr: 0xA28C, symBinAddr: 0x4BD84, symSize: 0x34 }
  - { offset: 0x965A3, size: 0x8, addend: 0x0, symName: __RNvYINtNtCsc29TF2YcYso_3syn10punctuated14PrivateIterMutNtNtB7_4data7VariantNtNtB7_5token5CommaENtNtNtNtCsaNl6UpbT7bw_4core4iter6traits8iterator8Iterator10advance_byCs87DMVckFIdB_12serde_derive, symObjAddr: 0xA4AC, symBinAddr: 0x4BFA4, symSize: 0x28 }
  - { offset: 0x965E9, size: 0x8, addend: 0x0, symName: __RNvYINtNtCsc29TF2YcYso_3syn10punctuated14PrivateIterMutNtNtB7_4data7VariantNtNtB7_5token5CommaENtNtNtNtCsaNl6UpbT7bw_4core4iter6traits8iterator8Iterator3nthCs87DMVckFIdB_12serde_derive, symObjAddr: 0xA4D4, symBinAddr: 0x4BFCC, symSize: 0x7C }
  - { offset: 0x966B5, size: 0x8, addend: 0x0, symName: __RNvYINtNtCsc29TF2YcYso_3syn10punctuated14PrivateIterMutNtNtB7_4data7VariantNtNtB7_5token5CommaENtNtNtNtCsaNl6UpbT7bw_4core4iter6traits8iterator8Iterator9size_hintCs87DMVckFIdB_12serde_derive, symObjAddr: 0xA550, symBinAddr: 0x4C048, symSize: 0x34 }
  - { offset: 0x966EA, size: 0x8, addend: 0x0, symName: __RNvYINtNtCsc29TF2YcYso_3syn10punctuated14PrivateIterMutNtNtB7_4expr4ExprNtNtB7_5token5CommaENtNtNtNtCsaNl6UpbT7bw_4core4iter6traits8iterator8Iterator10advance_byCs87DMVckFIdB_12serde_derive, symObjAddr: 0xA770, symBinAddr: 0x4C268, symSize: 0x28 }
  - { offset: 0x96730, size: 0x8, addend: 0x0, symName: __RNvYINtNtCsc29TF2YcYso_3syn10punctuated14PrivateIterMutNtNtB7_4expr4ExprNtNtB7_5token5CommaENtNtNtNtCsaNl6UpbT7bw_4core4iter6traits8iterator8Iterator3nthCs87DMVckFIdB_12serde_derive, symObjAddr: 0xA798, symBinAddr: 0x4C290, symSize: 0x7C }
  - { offset: 0x967FC, size: 0x8, addend: 0x0, symName: __RNvYINtNtCsc29TF2YcYso_3syn10punctuated14PrivateIterMutNtNtB7_4expr4ExprNtNtB7_5token5CommaENtNtNtNtCsaNl6UpbT7bw_4core4iter6traits8iterator8Iterator9size_hintCs87DMVckFIdB_12serde_derive, symObjAddr: 0xA814, symBinAddr: 0x4C30C, symSize: 0x34 }
  - { offset: 0x96831, size: 0x8, addend: 0x0, symName: __RNvYINtNtCsc29TF2YcYso_3syn10punctuated14PrivateIterMutNtNtB7_4path15GenericArgumentNtNtB7_5token5CommaENtNtNtNtCsaNl6UpbT7bw_4core4iter6traits8iterator8Iterator10advance_byCs87DMVckFIdB_12serde_derive, symObjAddr: 0xAA34, symBinAddr: 0x4C52C, symSize: 0x28 }
  - { offset: 0x96877, size: 0x8, addend: 0x0, symName: __RNvYINtNtCsc29TF2YcYso_3syn10punctuated14PrivateIterMutNtNtB7_4path15GenericArgumentNtNtB7_5token5CommaENtNtNtNtCsaNl6UpbT7bw_4core4iter6traits8iterator8Iterator3nthCs87DMVckFIdB_12serde_derive, symObjAddr: 0xAA5C, symBinAddr: 0x4C554, symSize: 0x7C }
  - { offset: 0x96943, size: 0x8, addend: 0x0, symName: __RNvYINtNtCsc29TF2YcYso_3syn10punctuated14PrivateIterMutNtNtB7_4path15GenericArgumentNtNtB7_5token5CommaENtNtNtNtCsaNl6UpbT7bw_4core4iter6traits8iterator8Iterator9size_hintCs87DMVckFIdB_12serde_derive, symObjAddr: 0xAAD8, symBinAddr: 0x4C5D0, symSize: 0x34 }
  - { offset: 0x96978, size: 0x8, addend: 0x0, symName: __RNvYINtNtCsc29TF2YcYso_3syn10punctuated14PrivateIterMutNtNtB7_8generics14TypeParamBoundNtNtB7_5token4PlusENtNtNtNtCsaNl6UpbT7bw_4core4iter6traits8iterator8Iterator10advance_byCs87DMVckFIdB_12serde_derive, symObjAddr: 0xACF8, symBinAddr: 0x4C7F0, symSize: 0x28 }
  - { offset: 0x969BE, size: 0x8, addend: 0x0, symName: __RNvYINtNtCsc29TF2YcYso_3syn10punctuated14PrivateIterMutNtNtB7_8generics14TypeParamBoundNtNtB7_5token4PlusENtNtNtNtCsaNl6UpbT7bw_4core4iter6traits8iterator8Iterator3nthCs87DMVckFIdB_12serde_derive, symObjAddr: 0xAD20, symBinAddr: 0x4C818, symSize: 0x7C }
  - { offset: 0x96A8A, size: 0x8, addend: 0x0, symName: __RNvYINtNtCsc29TF2YcYso_3syn10punctuated14PrivateIterMutNtNtB7_8generics14TypeParamBoundNtNtB7_5token4PlusENtNtNtNtCsaNl6UpbT7bw_4core4iter6traits8iterator8Iterator9size_hintCs87DMVckFIdB_12serde_derive, symObjAddr: 0xAD9C, symBinAddr: 0x4C894, symSize: 0x34 }
  - { offset: 0x96ABF, size: 0x8, addend: 0x0, symName: __RNvYINtNtCsc29TF2YcYso_3syn10punctuated14PrivateIterMutNtNtB7_8generics14WherePredicateNtNtB7_5token5CommaENtNtNtNtCsaNl6UpbT7bw_4core4iter6traits8iterator8Iterator10advance_byCs87DMVckFIdB_12serde_derive, symObjAddr: 0xAFBC, symBinAddr: 0x4CAB4, symSize: 0x28 }
  - { offset: 0x96B05, size: 0x8, addend: 0x0, symName: __RNvYINtNtCsc29TF2YcYso_3syn10punctuated14PrivateIterMutNtNtB7_8generics14WherePredicateNtNtB7_5token5CommaENtNtNtNtCsaNl6UpbT7bw_4core4iter6traits8iterator8Iterator3nthCs87DMVckFIdB_12serde_derive, symObjAddr: 0xAFE4, symBinAddr: 0x4CADC, symSize: 0x7C }
  - { offset: 0x96BD1, size: 0x8, addend: 0x0, symName: __RNvYINtNtCsc29TF2YcYso_3syn10punctuated14PrivateIterMutNtNtB7_8generics14WherePredicateNtNtB7_5token5CommaENtNtNtNtCsaNl6UpbT7bw_4core4iter6traits8iterator8Iterator9size_hintCs87DMVckFIdB_12serde_derive, symObjAddr: 0xB060, symBinAddr: 0x4CB58, symSize: 0x34 }
  - { offset: 0x96C06, size: 0x8, addend: 0x0, symName: __RNvYINtNtCsc29TF2YcYso_3syn10punctuated4IterNtNtB7_4data5FieldENtNtNtNtCsaNl6UpbT7bw_4core4iter6traits8iterator8Iterator9enumerateCs87DMVckFIdB_12serde_derive, symObjAddr: 0xB094, symBinAddr: 0x4CB8C, symSize: 0x28 }
  - { offset: 0x96C52, size: 0x8, addend: 0x0, symName: __RNvYINtNtCsc29TF2YcYso_3syn10punctuated9IntoPairsNtNtB7_4path11PathSegmentNtNtB7_5token7PathSepENtNtNtNtCsaNl6UpbT7bw_4core4iter6traits8iterator8Iterator10advance_byCs87DMVckFIdB_12serde_derive, symObjAddr: 0xB0BC, symBinAddr: 0x4CBB4, symSize: 0x28 }
  - { offset: 0x96C98, size: 0x8, addend: 0x0, symName: __RNvYINtNtCsc29TF2YcYso_3syn10punctuated9IntoPairsNtNtB7_4path11PathSegmentNtNtB7_5token7PathSepENtNtNtNtCsaNl6UpbT7bw_4core4iter6traits8iterator8Iterator3nthCs87DMVckFIdB_12serde_derive, symObjAddr: 0xB0E4, symBinAddr: 0x4CBDC, symSize: 0x84 }
  - { offset: 0x96D64, size: 0x8, addend: 0x0, symName: __RNvYINtNtCsc29TF2YcYso_3syn10punctuated9IntoPairsNtNtB7_4path11PathSegmentNtNtB7_5token7PathSepENtNtNtNtCsaNl6UpbT7bw_4core4iter6traits8iterator8Iterator4skipCs87DMVckFIdB_12serde_derive, symObjAddr: 0xB168, symBinAddr: 0x4CC60, symSize: 0x50 }
  - { offset: 0x96DD1, size: 0x8, addend: 0x0, symName: __RNCINvXsK_NtNtNtCsaNl6UpbT7bw_4core4iter6traits5accumjNtB8_3Sum3sumINtNtNtBc_8adapters3map3MapINtNtNtBe_5slice4iter4IterNtNtNtCs87DMVckFIdB_12serde_derive9internals3ast5FieldENCINvNvXs1_NtB18_6filterINtB2Y_6FilterppENtNtBa_8iterator8Iterator5count8to_usizeRB1U_NCNvNtB20_2de15deserialize_seq0E0EE0B20_, symObjAddr: 0x35B4, symBinAddr: 0x450AC, symSize: 0x48 }
  - { offset: 0x96E1E, size: 0x8, addend: 0x0, symName: __RNCINvXsK_NtNtNtCsaNl6UpbT7bw_4core4iter6traits5accumjNtB8_3Sum3sumINtNtNtBc_8adapters3map3MapINtNtNtBe_5slice4iter4IterNtNtNtCs87DMVckFIdB_12serde_derive9internals3ast5FieldENCINvNvXs1_NtB18_6filterINtB2Y_6FilterppENtNtBa_8iterator8Iterator5count8to_usizeRB1U_NCNvNtNtB20_2de5tuple11deserialize0E0EE0B20_, symObjAddr: 0x35FC, symBinAddr: 0x450F4, symSize: 0x48 }
  - { offset: 0x96E86, size: 0x8, addend: 0x0, symName: __RNvYINtNtCsc29TF2YcYso_3syn10punctuated11PrivateIterNtNtB7_2ty4TypeNtNtB7_5token5CommaENtNtNtNtCsaNl6UpbT7bw_4core4iter6traits10exact_size17ExactSizeIterator8is_emptyCs87DMVckFIdB_12serde_derive, symObjAddr: 0x9228, symBinAddr: 0x4AD20, symSize: 0x2C }
  - { offset: 0x96EBB, size: 0x8, addend: 0x0, symName: __RNvYINtNtCsc29TF2YcYso_3syn10punctuated11PrivateIterNtNtB7_2ty9BareFnArgNtNtB7_5token5CommaENtNtNtNtCsaNl6UpbT7bw_4core4iter6traits10exact_size17ExactSizeIterator8is_emptyCs87DMVckFIdB_12serde_derive, symObjAddr: 0x94EC, symBinAddr: 0x4AFE4, symSize: 0x2C }
  - { offset: 0x96EF0, size: 0x8, addend: 0x0, symName: __RNvYINtNtCsc29TF2YcYso_3syn10punctuated11PrivateIterNtNtB7_4data7VariantNtNtB7_5token5CommaENtNtNtNtCsaNl6UpbT7bw_4core4iter6traits10exact_size17ExactSizeIterator8is_emptyCs87DMVckFIdB_12serde_derive, symObjAddr: 0x97B0, symBinAddr: 0x4B2A8, symSize: 0x2C }
  - { offset: 0x96F25, size: 0x8, addend: 0x0, symName: __RNvYINtNtCsc29TF2YcYso_3syn10punctuated11PrivateIterNtNtB7_4path15GenericArgumentNtNtB7_5token5CommaENtNtNtNtCsaNl6UpbT7bw_4core4iter6traits10exact_size17ExactSizeIterator8is_emptyCs87DMVckFIdB_12serde_derive, symObjAddr: 0x9A74, symBinAddr: 0x4B56C, symSize: 0x2C }
  - { offset: 0x96F5A, size: 0x8, addend: 0x0, symName: __RNvYINtNtCsc29TF2YcYso_3syn10punctuated14PrivateIterMutNtNtB7_2ty4TypeNtNtB7_5token5CommaENtNtNtNtCsaNl6UpbT7bw_4core4iter6traits10exact_size17ExactSizeIterator8is_emptyCs87DMVckFIdB_12serde_derive, symObjAddr: 0x9D38, symBinAddr: 0x4B830, symSize: 0x2C }
  - { offset: 0x96F8F, size: 0x8, addend: 0x0, symName: __RNvYINtNtCsc29TF2YcYso_3syn10punctuated14PrivateIterMutNtNtB7_2ty9BareFnArgNtNtB7_5token5CommaENtNtNtNtCsaNl6UpbT7bw_4core4iter6traits10exact_size17ExactSizeIterator8is_emptyCs87DMVckFIdB_12serde_derive, symObjAddr: 0x9FFC, symBinAddr: 0x4BAF4, symSize: 0x2C }
  - { offset: 0x96FC4, size: 0x8, addend: 0x0, symName: __RNvYINtNtCsc29TF2YcYso_3syn10punctuated14PrivateIterMutNtNtB7_4data7VariantNtNtB7_5token5CommaENtNtNtNtCsaNl6UpbT7bw_4core4iter6traits10exact_size17ExactSizeIterator8is_emptyCs87DMVckFIdB_12serde_derive, symObjAddr: 0xA2C0, symBinAddr: 0x4BDB8, symSize: 0x2C }
  - { offset: 0x96FF9, size: 0x8, addend: 0x0, symName: __RNvYINtNtCsc29TF2YcYso_3syn10punctuated14PrivateIterMutNtNtB7_4expr4ExprNtNtB7_5token5CommaENtNtNtNtCsaNl6UpbT7bw_4core4iter6traits10exact_size17ExactSizeIterator8is_emptyCs87DMVckFIdB_12serde_derive, symObjAddr: 0xA584, symBinAddr: 0x4C07C, symSize: 0x2C }
  - { offset: 0x9702E, size: 0x8, addend: 0x0, symName: __RNvYINtNtCsc29TF2YcYso_3syn10punctuated14PrivateIterMutNtNtB7_4path15GenericArgumentNtNtB7_5token5CommaENtNtNtNtCsaNl6UpbT7bw_4core4iter6traits10exact_size17ExactSizeIterator8is_emptyCs87DMVckFIdB_12serde_derive, symObjAddr: 0xA848, symBinAddr: 0x4C340, symSize: 0x2C }
  - { offset: 0x97063, size: 0x8, addend: 0x0, symName: __RNvYINtNtCsc29TF2YcYso_3syn10punctuated14PrivateIterMutNtNtB7_8generics14TypeParamBoundNtNtB7_5token4PlusENtNtNtNtCsaNl6UpbT7bw_4core4iter6traits10exact_size17ExactSizeIterator8is_emptyCs87DMVckFIdB_12serde_derive, symObjAddr: 0xAB0C, symBinAddr: 0x4C604, symSize: 0x2C }
  - { offset: 0x97098, size: 0x8, addend: 0x0, symName: __RNvYINtNtCsc29TF2YcYso_3syn10punctuated14PrivateIterMutNtNtB7_8generics14WherePredicateNtNtB7_5token5CommaENtNtNtNtCsaNl6UpbT7bw_4core4iter6traits10exact_size17ExactSizeIterator8is_emptyCs87DMVckFIdB_12serde_derive, symObjAddr: 0xADD0, symBinAddr: 0x4C8C8, symSize: 0x2C }
  - { offset: 0x970D9, size: 0x8, addend: 0x0, symName: __RNvYINtNtCsc29TF2YcYso_3syn10punctuated11PrivateIterNtNtB7_2ty4TypeNtNtB7_5token5CommaENtNtNtNtCsaNl6UpbT7bw_4core4iter6traits12double_ended19DoubleEndedIterator15advance_back_byCs87DMVckFIdB_12serde_derive, symObjAddr: 0x9254, symBinAddr: 0x4AD4C, symSize: 0x158 }
  - { offset: 0x97253, size: 0x8, addend: 0x0, symName: __RNvYINtNtCsc29TF2YcYso_3syn10punctuated11PrivateIterNtNtB7_2ty4TypeNtNtB7_5token5CommaENtNtNtNtCsaNl6UpbT7bw_4core4iter6traits12double_ended19DoubleEndedIterator8nth_backCs87DMVckFIdB_12serde_derive, symObjAddr: 0x93AC, symBinAddr: 0x4AEA4, symSize: 0x68 }
  - { offset: 0x972D1, size: 0x8, addend: 0x0, symName: __RNvYINtNtCsc29TF2YcYso_3syn10punctuated11PrivateIterNtNtB7_2ty9BareFnArgNtNtB7_5token5CommaENtNtNtNtCsaNl6UpbT7bw_4core4iter6traits12double_ended19DoubleEndedIterator15advance_back_byCs87DMVckFIdB_12serde_derive, symObjAddr: 0x9518, symBinAddr: 0x4B010, symSize: 0x158 }
  - { offset: 0x9744B, size: 0x8, addend: 0x0, symName: __RNvYINtNtCsc29TF2YcYso_3syn10punctuated11PrivateIterNtNtB7_2ty9BareFnArgNtNtB7_5token5CommaENtNtNtNtCsaNl6UpbT7bw_4core4iter6traits12double_ended19DoubleEndedIterator8nth_backCs87DMVckFIdB_12serde_derive, symObjAddr: 0x9670, symBinAddr: 0x4B168, symSize: 0x68 }
  - { offset: 0x974C9, size: 0x8, addend: 0x0, symName: __RNvYINtNtCsc29TF2YcYso_3syn10punctuated11PrivateIterNtNtB7_4data7VariantNtNtB7_5token5CommaENtNtNtNtCsaNl6UpbT7bw_4core4iter6traits12double_ended19DoubleEndedIterator15advance_back_byCs87DMVckFIdB_12serde_derive, symObjAddr: 0x97DC, symBinAddr: 0x4B2D4, symSize: 0x158 }
  - { offset: 0x97643, size: 0x8, addend: 0x0, symName: __RNvYINtNtCsc29TF2YcYso_3syn10punctuated11PrivateIterNtNtB7_4data7VariantNtNtB7_5token5CommaENtNtNtNtCsaNl6UpbT7bw_4core4iter6traits12double_ended19DoubleEndedIterator8nth_backCs87DMVckFIdB_12serde_derive, symObjAddr: 0x9934, symBinAddr: 0x4B42C, symSize: 0x68 }
  - { offset: 0x976C1, size: 0x8, addend: 0x0, symName: __RNvYINtNtCsc29TF2YcYso_3syn10punctuated11PrivateIterNtNtB7_4path15GenericArgumentNtNtB7_5token5CommaENtNtNtNtCsaNl6UpbT7bw_4core4iter6traits12double_ended19DoubleEndedIterator15advance_back_byCs87DMVckFIdB_12serde_derive, symObjAddr: 0x9AA0, symBinAddr: 0x4B598, symSize: 0x158 }
  - { offset: 0x9783B, size: 0x8, addend: 0x0, symName: __RNvYINtNtCsc29TF2YcYso_3syn10punctuated11PrivateIterNtNtB7_4path15GenericArgumentNtNtB7_5token5CommaENtNtNtNtCsaNl6UpbT7bw_4core4iter6traits12double_ended19DoubleEndedIterator8nth_backCs87DMVckFIdB_12serde_derive, symObjAddr: 0x9BF8, symBinAddr: 0x4B6F0, symSize: 0x68 }
  - { offset: 0x978B9, size: 0x8, addend: 0x0, symName: __RNvYINtNtCsc29TF2YcYso_3syn10punctuated14PrivateIterMutNtNtB7_2ty4TypeNtNtB7_5token5CommaENtNtNtNtCsaNl6UpbT7bw_4core4iter6traits12double_ended19DoubleEndedIterator15advance_back_byCs87DMVckFIdB_12serde_derive, symObjAddr: 0x9D64, symBinAddr: 0x4B85C, symSize: 0x158 }
  - { offset: 0x97A33, size: 0x8, addend: 0x0, symName: __RNvYINtNtCsc29TF2YcYso_3syn10punctuated14PrivateIterMutNtNtB7_2ty4TypeNtNtB7_5token5CommaENtNtNtNtCsaNl6UpbT7bw_4core4iter6traits12double_ended19DoubleEndedIterator8nth_backCs87DMVckFIdB_12serde_derive, symObjAddr: 0x9EBC, symBinAddr: 0x4B9B4, symSize: 0x68 }
  - { offset: 0x97AB1, size: 0x8, addend: 0x0, symName: __RNvYINtNtCsc29TF2YcYso_3syn10punctuated14PrivateIterMutNtNtB7_2ty9BareFnArgNtNtB7_5token5CommaENtNtNtNtCsaNl6UpbT7bw_4core4iter6traits12double_ended19DoubleEndedIterator15advance_back_byCs87DMVckFIdB_12serde_derive, symObjAddr: 0xA028, symBinAddr: 0x4BB20, symSize: 0x158 }
  - { offset: 0x97C2B, size: 0x8, addend: 0x0, symName: __RNvYINtNtCsc29TF2YcYso_3syn10punctuated14PrivateIterMutNtNtB7_2ty9BareFnArgNtNtB7_5token5CommaENtNtNtNtCsaNl6UpbT7bw_4core4iter6traits12double_ended19DoubleEndedIterator8nth_backCs87DMVckFIdB_12serde_derive, symObjAddr: 0xA180, symBinAddr: 0x4BC78, symSize: 0x68 }
  - { offset: 0x97CA9, size: 0x8, addend: 0x0, symName: __RNvYINtNtCsc29TF2YcYso_3syn10punctuated14PrivateIterMutNtNtB7_4data7VariantNtNtB7_5token5CommaENtNtNtNtCsaNl6UpbT7bw_4core4iter6traits12double_ended19DoubleEndedIterator15advance_back_byCs87DMVckFIdB_12serde_derive, symObjAddr: 0xA2EC, symBinAddr: 0x4BDE4, symSize: 0x158 }
  - { offset: 0x97E23, size: 0x8, addend: 0x0, symName: __RNvYINtNtCsc29TF2YcYso_3syn10punctuated14PrivateIterMutNtNtB7_4data7VariantNtNtB7_5token5CommaENtNtNtNtCsaNl6UpbT7bw_4core4iter6traits12double_ended19DoubleEndedIterator8nth_backCs87DMVckFIdB_12serde_derive, symObjAddr: 0xA444, symBinAddr: 0x4BF3C, symSize: 0x68 }
  - { offset: 0x97EA1, size: 0x8, addend: 0x0, symName: __RNvYINtNtCsc29TF2YcYso_3syn10punctuated14PrivateIterMutNtNtB7_4expr4ExprNtNtB7_5token5CommaENtNtNtNtCsaNl6UpbT7bw_4core4iter6traits12double_ended19DoubleEndedIterator15advance_back_byCs87DMVckFIdB_12serde_derive, symObjAddr: 0xA5B0, symBinAddr: 0x4C0A8, symSize: 0x158 }
  - { offset: 0x9801B, size: 0x8, addend: 0x0, symName: __RNvYINtNtCsc29TF2YcYso_3syn10punctuated14PrivateIterMutNtNtB7_4expr4ExprNtNtB7_5token5CommaENtNtNtNtCsaNl6UpbT7bw_4core4iter6traits12double_ended19DoubleEndedIterator8nth_backCs87DMVckFIdB_12serde_derive, symObjAddr: 0xA708, symBinAddr: 0x4C200, symSize: 0x68 }
  - { offset: 0x98099, size: 0x8, addend: 0x0, symName: __RNvYINtNtCsc29TF2YcYso_3syn10punctuated14PrivateIterMutNtNtB7_4path15GenericArgumentNtNtB7_5token5CommaENtNtNtNtCsaNl6UpbT7bw_4core4iter6traits12double_ended19DoubleEndedIterator15advance_back_byCs87DMVckFIdB_12serde_derive, symObjAddr: 0xA874, symBinAddr: 0x4C36C, symSize: 0x158 }
  - { offset: 0x98213, size: 0x8, addend: 0x0, symName: __RNvYINtNtCsc29TF2YcYso_3syn10punctuated14PrivateIterMutNtNtB7_4path15GenericArgumentNtNtB7_5token5CommaENtNtNtNtCsaNl6UpbT7bw_4core4iter6traits12double_ended19DoubleEndedIterator8nth_backCs87DMVckFIdB_12serde_derive, symObjAddr: 0xA9CC, symBinAddr: 0x4C4C4, symSize: 0x68 }
  - { offset: 0x98291, size: 0x8, addend: 0x0, symName: __RNvYINtNtCsc29TF2YcYso_3syn10punctuated14PrivateIterMutNtNtB7_8generics14TypeParamBoundNtNtB7_5token4PlusENtNtNtNtCsaNl6UpbT7bw_4core4iter6traits12double_ended19DoubleEndedIterator15advance_back_byCs87DMVckFIdB_12serde_derive, symObjAddr: 0xAB38, symBinAddr: 0x4C630, symSize: 0x158 }
  - { offset: 0x9840B, size: 0x8, addend: 0x0, symName: __RNvYINtNtCsc29TF2YcYso_3syn10punctuated14PrivateIterMutNtNtB7_8generics14TypeParamBoundNtNtB7_5token4PlusENtNtNtNtCsaNl6UpbT7bw_4core4iter6traits12double_ended19DoubleEndedIterator8nth_backCs87DMVckFIdB_12serde_derive, symObjAddr: 0xAC90, symBinAddr: 0x4C788, symSize: 0x68 }
  - { offset: 0x98489, size: 0x8, addend: 0x0, symName: __RNvYINtNtCsc29TF2YcYso_3syn10punctuated14PrivateIterMutNtNtB7_8generics14WherePredicateNtNtB7_5token5CommaENtNtNtNtCsaNl6UpbT7bw_4core4iter6traits12double_ended19DoubleEndedIterator15advance_back_byCs87DMVckFIdB_12serde_derive, symObjAddr: 0xADFC, symBinAddr: 0x4C8F4, symSize: 0x158 }
  - { offset: 0x98603, size: 0x8, addend: 0x0, symName: __RNvYINtNtCsc29TF2YcYso_3syn10punctuated14PrivateIterMutNtNtB7_8generics14WherePredicateNtNtB7_5token5CommaENtNtNtNtCsaNl6UpbT7bw_4core4iter6traits12double_ended19DoubleEndedIterator8nth_backCs87DMVckFIdB_12serde_derive, symObjAddr: 0xAF54, symBinAddr: 0x4CA4C, symSize: 0x68 }
  - { offset: 0x9920D, size: 0x8, addend: 0x0, symName: __RNvNvNtNtCsaNl6UpbT7bw_4core4char7convert18from_u32_unchecked18precondition_checkCs87DMVckFIdB_12serde_derive, symObjAddr: 0x6388, symBinAddr: 0x47E80, symSize: 0x104 }
  - { offset: 0x9BFF3, size: 0x8, addend: 0x0, symName: __RINvXs5_NtNtNtCsht3nMU9UgFu_3std11collections4hash3setINtB6_7HashSetNtCshnvkK9b4wzu_11proc_macro25IdentEINtNtNtNtCsaNl6UpbT7bw_4core4iter6traits7collect12FromIteratorB14_E9from_iterINtNtNtB1L_8adapters3map3MapNtNtCsc29TF2YcYso_3syn8generics10TypeParamsNCNvNtCs87DMVckFIdB_12serde_derive5bound10with_bound0EEB48_, symObjAddr: 0x1B14, symBinAddr: 0x4360C, symSize: 0x14C }
  - { offset: 0x9C110, size: 0x8, addend: 0x0, symName: __RINvNvNtCsht3nMU9UgFu_3std9panicking12catch_unwind7do_callINtNtNtCsaNl6UpbT7bw_4core5panic11unwind_safe16AssertUnwindSafeNCINvNtNtCs7yrEGia95Wz_10proc_macro6bridge6client10run_clientNtB20_11TokenStreamINtNtB11_6option6OptionB2U_ENCNCINvMs6_B20_INtB20_6ClientNtB24_11TokenStreamB48_E7expand1NvCs87DMVckFIdB_12serde_derive16derive_serializeE00E0EuEB4G_, symObjAddr: 0x958, symBinAddr: 0x42450, symSize: 0x50 }
  - { offset: 0x9C1D8, size: 0x8, addend: 0x0, symName: __RINvNvNtCsht3nMU9UgFu_3std9panicking12catch_unwind7do_callINtNtNtCsaNl6UpbT7bw_4core5panic11unwind_safe16AssertUnwindSafeNCINvNtNtCs7yrEGia95Wz_10proc_macro6bridge6client10run_clientNtB20_11TokenStreamINtNtB11_6option6OptionB2U_ENCNCINvMs6_B20_INtB20_6ClientNtB24_11TokenStreamB48_E7expand1NvCs87DMVckFIdB_12serde_derive18derive_deserializeE00E0EuEB4G_, symObjAddr: 0x9A8, symBinAddr: 0x424A0, symSize: 0x50 }
  - { offset: 0x9C2A0, size: 0x8, addend: 0x0, symName: __RINvNvNtCsht3nMU9UgFu_3std9panicking12catch_unwind8do_catchINtNtNtCsaNl6UpbT7bw_4core5panic11unwind_safe16AssertUnwindSafeNCINvNtNtCs7yrEGia95Wz_10proc_macro6bridge6client10run_clientNtB21_11TokenStreamINtNtB12_6option6OptionB2V_ENCNCINvMs6_B21_INtB21_6ClientNtB25_11TokenStreamB49_E7expand1NvCs87DMVckFIdB_12serde_derive16derive_serializeE00E0EuEB4H_, symObjAddr: 0x9F8, symBinAddr: 0x424F0, symSize: 0x70 }
  - { offset: 0x9C335, size: 0x8, addend: 0x0, symName: __RINvNvNtCsht3nMU9UgFu_3std9panicking12catch_unwind8do_catchINtNtNtCsaNl6UpbT7bw_4core5panic11unwind_safe16AssertUnwindSafeNCINvNtNtCs7yrEGia95Wz_10proc_macro6bridge6client10run_clientNtB21_11TokenStreamINtNtB12_6option6OptionB2V_ENCNCINvMs6_B21_INtB21_6ClientNtB25_11TokenStreamB49_E7expand1NvCs87DMVckFIdB_12serde_derive18derive_deserializeE00E0EuEB4H_, symObjAddr: 0xA68, symBinAddr: 0x42560, symSize: 0x70 }
  - { offset: 0x9C575, size: 0x8, addend: 0x0, symName: __RINvMs0_NtNtNtCsht3nMU9UgFu_3std11collections4hash3setINtB6_7HashSetNtCshnvkK9b4wzu_11proc_macro25IdentE8containsB14_ECs87DMVckFIdB_12serde_derive, symObjAddr: 0x0, symBinAddr: 0x41AF8, symSize: 0x5C }
  - { offset: 0x9C6C1, size: 0x8, addend: 0x0, symName: __RINvMs3_NtNtCs7yrEGia95Wz_10proc_macro6bridge6bufferNtB6_6Buffer17extend_from_arrayKj4_ECs87DMVckFIdB_12serde_derive, symObjAddr: 0x5C, symBinAddr: 0x41B54, symSize: 0x16C }
  - { offset: 0x9C849, size: 0x8, addend: 0x0, symName: __RINvMs3_NtNtCs7yrEGia95Wz_10proc_macro6bridge6bufferNtB6_6Buffer17extend_from_arrayKj8_ECs87DMVckFIdB_12serde_derive, symObjAddr: 0x1C8, symBinAddr: 0x41CC0, symSize: 0x16C }
  - { offset: 0x9C9CC, size: 0x8, addend: 0x0, symName: __RINvMsiX_NtCsc29TF2YcYso_3syn5tokenNtB7_5Brace8surroundNCNvXNtCs87DMVckFIdB_12serde_derive8fragmentNtBW_4ExprNtNtCs4EAaWzSXu1l_5quote9to_tokens8ToTokens9to_tokens0EBY_, symObjAddr: 0x334, symBinAddr: 0x41E2C, symSize: 0x114 }
  - { offset: 0x9CA2C, size: 0x8, addend: 0x0, symName: __RINvMsiX_NtCsc29TF2YcYso_3syn5tokenNtB7_5Brace8surroundNCNvXs0_NtCs87DMVckFIdB_12serde_derive8fragmentNtBZ_5MatchNtNtCs4EAaWzSXu1l_5quote9to_tokens8ToTokens9to_tokens0EB11_, symObjAddr: 0x448, symBinAddr: 0x41F40, symSize: 0x114 }
  - { offset: 0x9CE6D, size: 0x8, addend: 0x0, symName: __RNvMNtCsc29TF2YcYso_3syn10punctuatedINtB2_10PunctuatedNtNtB4_2ty4TypeNtNtB4_5token5CommaE4iterCs87DMVckFIdB_12serde_derive, symObjAddr: 0x4090, symBinAddr: 0x45B88, symSize: 0xC8 }
  - { offset: 0x9CF20, size: 0x8, addend: 0x0, symName: __RNvMNtCsc29TF2YcYso_3syn10punctuatedINtB2_10PunctuatedNtNtB4_2ty4TypeNtNtB4_5token5CommaE8iter_mutCs87DMVckFIdB_12serde_derive, symObjAddr: 0x4158, symBinAddr: 0x45C50, symSize: 0xC8 }
  - { offset: 0x9CFB9, size: 0x8, addend: 0x0, symName: __RNvMNtCsc29TF2YcYso_3syn10punctuatedINtB2_10PunctuatedNtNtB4_2ty9BareFnArgNtNtB4_5token5CommaE4iterCs87DMVckFIdB_12serde_derive, symObjAddr: 0x4220, symBinAddr: 0x45D18, symSize: 0xC8 }
  - { offset: 0x9D052, size: 0x8, addend: 0x0, symName: __RNvMNtCsc29TF2YcYso_3syn10punctuatedINtB2_10PunctuatedNtNtB4_2ty9BareFnArgNtNtB4_5token5CommaE8iter_mutCs87DMVckFIdB_12serde_derive, symObjAddr: 0x42E8, symBinAddr: 0x45DE0, symSize: 0xC8 }
  - { offset: 0x9D0BD, size: 0x8, addend: 0x0, symName: __RNvMNtCsc29TF2YcYso_3syn10punctuatedINtB2_10PunctuatedNtNtB4_4data7VariantNtNtB4_5token5CommaE4iterCs87DMVckFIdB_12serde_derive, symObjAddr: 0x43B0, symBinAddr: 0x45EA8, symSize: 0xC8 }
  - { offset: 0x9D156, size: 0x8, addend: 0x0, symName: __RNvMNtCsc29TF2YcYso_3syn10punctuatedINtB2_10PunctuatedNtNtB4_4data7VariantNtNtB4_5token5CommaE8iter_mutCs87DMVckFIdB_12serde_derive, symObjAddr: 0x4478, symBinAddr: 0x45F70, symSize: 0xC8 }
  - { offset: 0x9D1EF, size: 0x8, addend: 0x0, symName: __RNvMNtCsc29TF2YcYso_3syn10punctuatedINtB2_10PunctuatedNtNtB4_4expr4ExprNtNtB4_5token5CommaE8iter_mutCs87DMVckFIdB_12serde_derive, symObjAddr: 0x4540, symBinAddr: 0x46038, symSize: 0xC8 }
  - { offset: 0x9D24D, size: 0x8, addend: 0x0, symName: __RNvMNtCsc29TF2YcYso_3syn10punctuatedINtB2_10PunctuatedNtNtB4_4path11PathSegmentNtNtB4_5token7PathSepE4pushCs87DMVckFIdB_12serde_derive, symObjAddr: 0x4608, symBinAddr: 0x46100, symSize: 0x10C }
  - { offset: 0x9D29D, size: 0x8, addend: 0x0, symName: __RNvMNtCsc29TF2YcYso_3syn10punctuatedINtB2_10PunctuatedNtNtB4_4path15GenericArgumentNtNtB4_5token5CommaE3lenCs87DMVckFIdB_12serde_derive, symObjAddr: 0x4714, symBinAddr: 0x4620C, symSize: 0xA0 }
  - { offset: 0x9D30C, size: 0x8, addend: 0x0, symName: __RNvMNtCsc29TF2YcYso_3syn10punctuatedINtB2_10PunctuatedNtNtB4_4path15GenericArgumentNtNtB4_5token5CommaE4iterCs87DMVckFIdB_12serde_derive, symObjAddr: 0x47B4, symBinAddr: 0x462AC, symSize: 0xC8 }
  - { offset: 0x9D36A, size: 0x8, addend: 0x0, symName: __RNvMNtCsc29TF2YcYso_3syn10punctuatedINtB2_10PunctuatedNtNtB4_4path15GenericArgumentNtNtB4_5token5CommaE4pushCs87DMVckFIdB_12serde_derive, symObjAddr: 0x487C, symBinAddr: 0x46374, symSize: 0x124 }
  - { offset: 0x9D3E8, size: 0x8, addend: 0x0, symName: __RNvMNtCsc29TF2YcYso_3syn10punctuatedINtB2_10PunctuatedNtNtB4_4path15GenericArgumentNtNtB4_5token5CommaE8iter_mutCs87DMVckFIdB_12serde_derive, symObjAddr: 0x49A0, symBinAddr: 0x46498, symSize: 0xC8 }
  - { offset: 0x9D446, size: 0x8, addend: 0x0, symName: __RNvMNtCsc29TF2YcYso_3syn10punctuatedINtB2_10PunctuatedNtNtB4_8generics12GenericParamNtNtB4_5token5CommaE3lenCs87DMVckFIdB_12serde_derive, symObjAddr: 0x4A68, symBinAddr: 0x46560, symSize: 0xA0 }
  - { offset: 0x9D487, size: 0x8, addend: 0x0, symName: __RNvMNtCsc29TF2YcYso_3syn10punctuatedINtB2_10PunctuatedNtNtB4_8generics12GenericParamNtNtB4_5token5CommaE4pushCs87DMVckFIdB_12serde_derive, symObjAddr: 0x4B08, symBinAddr: 0x46600, symSize: 0x124 }
  - { offset: 0x9D4D7, size: 0x8, addend: 0x0, symName: __RNvMNtCsc29TF2YcYso_3syn10punctuatedINtB2_10PunctuatedNtNtB4_8generics14TypeParamBoundNtNtB4_5token4PlusE4pushCs87DMVckFIdB_12serde_derive, symObjAddr: 0x4C2C, symBinAddr: 0x46724, symSize: 0x11C }
  - { offset: 0x9D555, size: 0x8, addend: 0x0, symName: __RNvMNtCsc29TF2YcYso_3syn10punctuatedINtB2_10PunctuatedNtNtB4_8generics14TypeParamBoundNtNtB4_5token4PlusE8iter_mutCs87DMVckFIdB_12serde_derive, symObjAddr: 0x4D48, symBinAddr: 0x46840, symSize: 0xC8 }
  - { offset: 0x9D5DA, size: 0x8, addend: 0x0, symName: __RNvMNtCsc29TF2YcYso_3syn10punctuatedINtB2_10PunctuatedNtNtB4_8generics14WherePredicateNtNtB4_5token5CommaE16parse_terminatedCs87DMVckFIdB_12serde_derive, symObjAddr: 0x4E10, symBinAddr: 0x46908, symSize: 0x3C }
  - { offset: 0x9D627, size: 0x8, addend: 0x0, symName: __RNvMNtCsc29TF2YcYso_3syn10punctuatedINtB2_10PunctuatedNtNtB4_8generics14WherePredicateNtNtB4_5token5CommaE21parse_terminated_withCs87DMVckFIdB_12serde_derive, symObjAddr: 0x4E4C, symBinAddr: 0x46944, symSize: 0x370 }
  - { offset: 0x9D739, size: 0x8, addend: 0x0, symName: __RNvMNtCsc29TF2YcYso_3syn10punctuatedINtB2_10PunctuatedNtNtB4_8generics14WherePredicateNtNtB4_5token5CommaE3lenCs87DMVckFIdB_12serde_derive, symObjAddr: 0x51BC, symBinAddr: 0x46CB4, symSize: 0xA0 }
  - { offset: 0x9D77A, size: 0x8, addend: 0x0, symName: __RNvMNtCsc29TF2YcYso_3syn10punctuatedINtB2_10PunctuatedNtNtB4_8generics14WherePredicateNtNtB4_5token5CommaE4pushCs87DMVckFIdB_12serde_derive, symObjAddr: 0x525C, symBinAddr: 0x46D54, symSize: 0x124 }
  - { offset: 0x9D7F8, size: 0x8, addend: 0x0, symName: __RNvMNtCsc29TF2YcYso_3syn10punctuatedINtB2_10PunctuatedNtNtB4_8generics14WherePredicateNtNtB4_5token5CommaE8iter_mutCs87DMVckFIdB_12serde_derive, symObjAddr: 0x5380, symBinAddr: 0x46E78, symSize: 0xC8 }
  - { offset: 0x9D856, size: 0x8, addend: 0x0, symName: __RNvMNtCsc29TF2YcYso_3syn10punctuatedINtB2_10PunctuatedNtNtB4_8lifetime8LifetimeNtNtB4_5token4PlusE4pushCs87DMVckFIdB_12serde_derive, symObjAddr: 0x5448, symBinAddr: 0x46F40, symSize: 0x108 }
  - { offset: 0x9D899, size: 0x8, addend: 0x0, symName: __RNvMNtNtNtCsht3nMU9UgFu_3std11collections4hash3setINtB2_7HashSetNtCshnvkK9b4wzu_11proc_macro25IdentE3newCs87DMVckFIdB_12serde_derive, symObjAddr: 0x5550, symBinAddr: 0x47048, symSize: 0x54 }
  - { offset: 0x9D96C, size: 0x8, addend: 0x0, symName: __RNvMs0_NtNtNtCsht3nMU9UgFu_3std11collections4hash3setINtB5_7HashSetNtCshnvkK9b4wzu_11proc_macro25IdentE6insertCs87DMVckFIdB_12serde_derive, symObjAddr: 0x55A4, symBinAddr: 0x4709C, symSize: 0x48 }
  - { offset: 0x9DA57, size: 0x8, addend: 0x0, symName: __RNvMs1_NtNtCsaNl6UpbT7bw_4core3ptr8non_nullINtB5_7NonNullNtNtCs87DMVckFIdB_12serde_derive2de16FieldWithAliasesE20offset_from_unsignedBX_, symObjAddr: 0x55EC, symBinAddr: 0x470E4, symSize: 0x7C }
  - { offset: 0x9DB5D, size: 0x8, addend: 0x0, symName: __RNvMs1_NtNtCsaNl6UpbT7bw_4core3ptr8non_nullINtB5_7NonNullNtNtCsc29TF2YcYso_3syn3lit6LitStrE20offset_from_unsignedCs87DMVckFIdB_12serde_derive, symObjAddr: 0x5668, symBinAddr: 0x47160, symSize: 0x7C }
  - { offset: 0x9DC63, size: 0x8, addend: 0x0, symName: __RNvMs1_NtNtCsaNl6UpbT7bw_4core3ptr8non_nullINtB5_7NonNullNtNtCsc29TF2YcYso_3syn4path11PathSegmentE20offset_from_unsignedCs87DMVckFIdB_12serde_derive, symObjAddr: 0x56E4, symBinAddr: 0x471DC, symSize: 0x7C }
  - { offset: 0x9DD69, size: 0x8, addend: 0x0, symName: __RNvMs1_NtNtCsaNl6UpbT7bw_4core3ptr8non_nullINtB5_7NonNullNtNtCsc29TF2YcYso_3syn5error5ErrorE20offset_from_unsignedCs87DMVckFIdB_12serde_derive, symObjAddr: 0x5760, symBinAddr: 0x47258, symSize: 0x7C }
  - { offset: 0x9DE6F, size: 0x8, addend: 0x0, symName: __RNvMs1_NtNtCsaNl6UpbT7bw_4core3ptr8non_nullINtB5_7NonNullNtNtCsc29TF2YcYso_3syn8generics12GenericParamE20offset_from_unsignedCs87DMVckFIdB_12serde_derive, symObjAddr: 0x57DC, symBinAddr: 0x472D4, symSize: 0x7C }
  - { offset: 0x9DF75, size: 0x8, addend: 0x0, symName: __RNvMs1_NtNtCsaNl6UpbT7bw_4core3ptr8non_nullINtB5_7NonNullNtNtCsc29TF2YcYso_3syn8generics14WherePredicateE20offset_from_unsignedCs87DMVckFIdB_12serde_derive, symObjAddr: 0x5858, symBinAddr: 0x47350, symSize: 0x7C }
  - { offset: 0x9E06E, size: 0x8, addend: 0x0, symName: __RNvMs1_NtNtCsaNl6UpbT7bw_4core3ptr8non_nullINtB5_7NonNullNtNtNtCs87DMVckFIdB_12serde_derive9internals3ast5FieldE20offset_from_unsignedBZ_, symObjAddr: 0x58D4, symBinAddr: 0x473CC, symSize: 0x7C }
  - { offset: 0x9E174, size: 0x8, addend: 0x0, symName: __RNvMs1_NtNtCsaNl6UpbT7bw_4core3ptr8non_nullINtB5_7NonNullNtNtNtCs87DMVckFIdB_12serde_derive9internals3ast7VariantE20offset_from_unsignedBZ_, symObjAddr: 0x5950, symBinAddr: 0x47448, symSize: 0x7C }
  - { offset: 0x9E27A, size: 0x8, addend: 0x0, symName: __RNvMs1_NtNtCsaNl6UpbT7bw_4core3ptr8non_nullINtB5_7NonNullNtNtNtCs87DMVckFIdB_12serde_derive9internals4name4NameE20offset_from_unsignedBZ_, symObjAddr: 0x59CC, symBinAddr: 0x474C4, symSize: 0x7C }
  - { offset: 0x9E38D, size: 0x8, addend: 0x0, symName: __RNvMs1_NtNtCsaNl6UpbT7bw_4core3ptr8non_nullINtB5_7NonNullRNtNtCsc29TF2YcYso_3syn2ty8TypePathE20offset_from_unsignedCs87DMVckFIdB_12serde_derive, symObjAddr: 0x5A48, symBinAddr: 0x47540, symSize: 0x7C }
  - { offset: 0x9E479, size: 0x8, addend: 0x0, symName: __RNvMs1_NtNtCsaNl6UpbT7bw_4core3ptr8non_nullINtB5_7NonNullTNtNtCsc29TF2YcYso_3syn2ty4TypeNtNtBY_5token5CommaEE20offset_from_unsignedCs87DMVckFIdB_12serde_derive, symObjAddr: 0x5AC4, symBinAddr: 0x475BC, symSize: 0x7C }
  - { offset: 0x9E565, size: 0x8, addend: 0x0, symName: __RNvMs1_NtNtCsaNl6UpbT7bw_4core3ptr8non_nullINtB5_7NonNullTNtNtCsc29TF2YcYso_3syn2ty9BareFnArgNtNtBY_5token5CommaEE20offset_from_unsignedCs87DMVckFIdB_12serde_derive, symObjAddr: 0x5B40, symBinAddr: 0x47638, symSize: 0x7C }
  - { offset: 0x9E651, size: 0x8, addend: 0x0, symName: __RNvMs1_NtNtCsaNl6UpbT7bw_4core3ptr8non_nullINtB5_7NonNullTNtNtCsc29TF2YcYso_3syn4data7VariantNtNtBY_5token5CommaEE20offset_from_unsignedCs87DMVckFIdB_12serde_derive, symObjAddr: 0x5BBC, symBinAddr: 0x476B4, symSize: 0x7C }
  - { offset: 0x9E73D, size: 0x8, addend: 0x0, symName: __RNvMs1_NtNtCsaNl6UpbT7bw_4core3ptr8non_nullINtB5_7NonNullTNtNtCsc29TF2YcYso_3syn4expr4ExprNtNtBY_5token5CommaEE20offset_from_unsignedCs87DMVckFIdB_12serde_derive, symObjAddr: 0x5C38, symBinAddr: 0x47730, symSize: 0x7C }
  - { offset: 0x9E829, size: 0x8, addend: 0x0, symName: __RNvMs1_NtNtCsaNl6UpbT7bw_4core3ptr8non_nullINtB5_7NonNullTNtNtCsc29TF2YcYso_3syn4path15GenericArgumentNtNtBY_5token5CommaEE20offset_from_unsignedCs87DMVckFIdB_12serde_derive, symObjAddr: 0x5CB4, symBinAddr: 0x477AC, symSize: 0x7C }
  - { offset: 0x9E915, size: 0x8, addend: 0x0, symName: __RNvMs1_NtNtCsaNl6UpbT7bw_4core3ptr8non_nullINtB5_7NonNullTNtNtCsc29TF2YcYso_3syn8generics14WherePredicateNtNtBY_5token5CommaEE20offset_from_unsignedCs87DMVckFIdB_12serde_derive, symObjAddr: 0x5D30, symBinAddr: 0x47828, symSize: 0x7C }
  - { offset: 0x9E9F7, size: 0x8, addend: 0x0, symName: __RNvMs3_NtNtCs7yrEGia95Wz_10proc_macro6bridge6bufferNtB5_6Buffer17extend_from_sliceCs87DMVckFIdB_12serde_derive, symObjAddr: 0x5DAC, symBinAddr: 0x478A4, symSize: 0x164 }
  - { offset: 0x9EB75, size: 0x8, addend: 0x0, symName: __RNvMs3_NtNtCs7yrEGia95Wz_10proc_macro6bridge6bufferNtB5_6Buffer4pushCs87DMVckFIdB_12serde_derive, symObjAddr: 0x5F10, symBinAddr: 0x47A08, symSize: 0x134 }
  - { offset: 0x9EC9B, size: 0x8, addend: 0x0, symName: __RNvMs3_NtNtNtCsaNl6UpbT7bw_4core4iter8adapters8peekableINtB5_8PeekableINtNtB7_6filter6FilterINtNtB7_9enumerate9EnumerateINtNtNtBb_5slice4iter4IterNtNtNtCs87DMVckFIdB_12serde_derive9internals3ast5FieldEENCNvNtB2q_3ser22serialize_tuple_struct0EE4peekB2q_, symObjAddr: 0x6044, symBinAddr: 0x47B3C, symSize: 0x70 }
  - { offset: 0x9ED4E, size: 0x8, addend: 0x0, symName: __RNvMs3_NtNtNtCsaNl6UpbT7bw_4core4iter8adapters8peekableINtB5_8PeekableINtNtB7_6filter6FilterINtNtB7_9enumerate9EnumerateINtNtNtBb_5slice4iter4IterNtNtNtCs87DMVckFIdB_12serde_derive9internals3ast5FieldEENCNvNtB2q_3ser23serialize_tuple_variant0EE4peekB2q_, symObjAddr: 0x60B4, symBinAddr: 0x47BAC, symSize: 0x70 }
  - { offset: 0x9EE28, size: 0x8, addend: 0x0, symName: __RNvMs3_NtNtNtCsaNl6UpbT7bw_4core4iter8adapters8peekableINtB5_8PeekableINtNtB7_6filter6FilterINtNtNtBb_5slice4iter4IterNtNtNtCs87DMVckFIdB_12serde_derive9internals3ast5FieldENCNvNtB1Y_3ser23serialize_struct_as_map0EE4peekB1Y_, symObjAddr: 0x6124, symBinAddr: 0x47C1C, symSize: 0x70 }
  - { offset: 0x9EEDB, size: 0x8, addend: 0x0, symName: __RNvMs3_NtNtNtCsaNl6UpbT7bw_4core4iter8adapters8peekableINtB5_8PeekableINtNtB7_6filter6FilterINtNtNtBb_5slice4iter4IterNtNtNtCs87DMVckFIdB_12serde_derive9internals3ast5FieldENCNvNtB1Y_3ser24serialize_struct_variants_0EE4peekB1Y_, symObjAddr: 0x6194, symBinAddr: 0x47C8C, symSize: 0x70 }
  - { offset: 0x9EF8E, size: 0x8, addend: 0x0, symName: __RNvMs3_NtNtNtCsaNl6UpbT7bw_4core4iter8adapters8peekableINtB5_8PeekableINtNtB7_6filter6FilterINtNtNtBb_5slice4iter4IterNtNtNtCs87DMVckFIdB_12serde_derive9internals3ast5FieldENCNvNtB1Y_3ser26serialize_struct_as_struct0EE4peekB1Y_, symObjAddr: 0x6204, symBinAddr: 0x47CFC, symSize: 0x70 }
  - { offset: 0x9F041, size: 0x8, addend: 0x0, symName: __RNvMs3_NtNtNtCsaNl6UpbT7bw_4core4iter8adapters8peekableINtB5_8PeekableINtNtB7_6filter6FilterINtNtNtBb_5slice4iter4IterNtNtNtCs87DMVckFIdB_12serde_derive9internals3ast5FieldENCNvNtB1Y_3ser37serialize_struct_variant_with_flatten0EE4peekB1Y_, symObjAddr: 0x6274, symBinAddr: 0x47D6C, symSize: 0x70 }
  - { offset: 0x9F289, size: 0x8, addend: 0x0, symName: __RNvXNtCs4EAaWzSXu1l_5quote9to_tokensRNtNtCsc29TF2YcYso_3syn5token5UnionNtB2_8ToTokens9to_tokensCs87DMVckFIdB_12serde_derive, symObjAddr: 0x6844, symBinAddr: 0x4833C, symSize: 0x40 }
  - { offset: 0x9F2C8, size: 0x8, addend: 0x0, symName: __RNvXNtCs4EAaWzSXu1l_5quote9to_tokensRNtNtCsc29TF2YcYso_3syn5token6StructNtB2_8ToTokens9to_tokensCs87DMVckFIdB_12serde_derive, symObjAddr: 0x6884, symBinAddr: 0x4837C, symSize: 0x40 }
  - { offset: 0x9F30D, size: 0x8, addend: 0x0, symName: __RNvYRNtNtCsc29TF2YcYso_3syn5token5UnionNtNtCs4EAaWzSXu1l_5quote9to_tokens8ToTokens15to_token_streamCs87DMVckFIdB_12serde_derive, symObjAddr: 0xB1B8, symBinAddr: 0x4CCB0, symSize: 0x8C }
  - { offset: 0x9F357, size: 0x8, addend: 0x0, symName: __RNvYRNtNtCsc29TF2YcYso_3syn5token5UnionNtNtCs4EAaWzSXu1l_5quote9to_tokens8ToTokens17into_token_streamCs87DMVckFIdB_12serde_derive, symObjAddr: 0xB244, symBinAddr: 0x4CD3C, symSize: 0x54 }
  - { offset: 0x9F38C, size: 0x8, addend: 0x0, symName: __RNvYRNtNtCsc29TF2YcYso_3syn5token6StructNtNtCs4EAaWzSXu1l_5quote9to_tokens8ToTokens15to_token_streamCs87DMVckFIdB_12serde_derive, symObjAddr: 0xB298, symBinAddr: 0x4CD90, symSize: 0x8C }
  - { offset: 0x9F3D6, size: 0x8, addend: 0x0, symName: __RNvYRNtNtCsc29TF2YcYso_3syn5token6StructNtNtCs4EAaWzSXu1l_5quote9to_tokens8ToTokens17into_token_streamCs87DMVckFIdB_12serde_derive, symObjAddr: 0xB324, symBinAddr: 0x4CE1C, symSize: 0x54 }
  - { offset: 0xA082C, size: 0x8, addend: 0x0, symName: __RINvCsc29TF2YcYso_3syn5parseNtNtB2_6derive11DeriveInputECs87DMVckFIdB_12serde_derive, symObjAddr: 0x0, symBinAddr: 0x4CE70, symSize: 0x30 }
  - { offset: 0xA2969, size: 0x8, addend: 0x0, symName: __RINvNtCsaNl6UpbT7bw_4core3ptr10swap_chunkKj1_ECs87DMVckFIdB_12serde_derive, symObjAddr: 0x164, symBinAddr: 0x4CFD4, symSize: 0x3C }
  - { offset: 0xA29A2, size: 0x8, addend: 0x0, symName: __RINvNtCsaNl6UpbT7bw_4core3ptr10swap_chunkKj2_ECs87DMVckFIdB_12serde_derive, symObjAddr: 0x1A0, symBinAddr: 0x4D010, symSize: 0x3C }
  - { offset: 0xA29DB, size: 0x8, addend: 0x0, symName: __RINvNtCsaNl6UpbT7bw_4core3ptr10swap_chunkKj4_ECs87DMVckFIdB_12serde_derive, symObjAddr: 0x1DC, symBinAddr: 0x4D04C, symSize: 0x3C }
  - { offset: 0xA2A14, size: 0x8, addend: 0x0, symName: __RINvNtCsaNl6UpbT7bw_4core3ptr10swap_chunkKj8_ECs87DMVckFIdB_12serde_derive, symObjAddr: 0x218, symBinAddr: 0x4D088, symSize: 0x3C }
  - { offset: 0xA2A88, size: 0x8, addend: 0x0, symName: __RINvNtCsaNl6UpbT7bw_4core3ptr14read_unalignedNtNtNtNtB4_9core_arch10arm_shared4neon9uint8x8_tECs87DMVckFIdB_12serde_derive, symObjAddr: 0x254, symBinAddr: 0x4D0C4, symSize: 0x94 }
  - { offset: 0xA2B97, size: 0x8, addend: 0x0, symName: __RINvNtCsaNl6UpbT7bw_4core3ptr15write_unalignedNtNtNtNtB4_9core_arch10arm_shared4neon9uint8x8_tECs87DMVckFIdB_12serde_derive, symObjAddr: 0x2E8, symBinAddr: 0x4D158, symSize: 0x78 }
  - { offset: 0xA2CB3, size: 0x8, addend: 0x0, symName: __RNvNvNtCsaNl6UpbT7bw_4core3ptr19swap_nonoverlapping18precondition_checkCs87DMVckFIdB_12serde_derive, symObjAddr: 0x224C, symBinAddr: 0x4EFFC, symSize: 0x38C }
  - { offset: 0xA2F93, size: 0x8, addend: 0x0, symName: __RINvNtCsaNl6UpbT7bw_4core3ptr19swap_nonoverlappinghECs87DMVckFIdB_12serde_derive, symObjAddr: 0x420, symBinAddr: 0x4D1D0, symSize: 0xBC }
  - { offset: 0xA30D3, size: 0x8, addend: 0x0, symName: __RINvNvNtCsaNl6UpbT7bw_4core3ptr25swap_nonoverlapping_bytes26swap_nonoverlapping_chunksKj8_ECs87DMVckFIdB_12serde_derive, symObjAddr: 0x4DC, symBinAddr: 0x4D28C, symSize: 0xE4 }
  - { offset: 0xA3271, size: 0x8, addend: 0x0, symName: __RNvNvNtCsaNl6UpbT7bw_4core3ptr25swap_nonoverlapping_bytes25swap_nonoverlapping_shortCs87DMVckFIdB_12serde_derive, symObjAddr: 0x25D8, symBinAddr: 0x4F388, symSize: 0x120 }
  - { offset: 0xA3433, size: 0x8, addend: 0x0, symName: __RNvNtCsaNl6UpbT7bw_4core3ptr25swap_nonoverlapping_bytesCs87DMVckFIdB_12serde_derive, symObjAddr: 0x1AD8, symBinAddr: 0x4E888, symSize: 0xD8 }
  - { offset: 0xA3770, size: 0x8, addend: 0x0, symName: __RNvNvNtCsaNl6UpbT7bw_4core3ptr19copy_nonoverlapping18precondition_checkCs87DMVckFIdB_12serde_derive, symObjAddr: 0x1EE0, symBinAddr: 0x4EC90, symSize: 0x36C }
  - { offset: 0xA3A23, size: 0x8, addend: 0x0, symName: __RNvNvNtCsaNl6UpbT7bw_4core3ptr4copy18precondition_checkCs87DMVckFIdB_12serde_derive, symObjAddr: 0x26F8, symBinAddr: 0x4F4A8, symSize: 0x240 }
  - { offset: 0xA3C3E, size: 0x8, addend: 0x0, symName: __RNvNvNtCsaNl6UpbT7bw_4core3ptr7replace18precondition_checkCs87DMVckFIdB_12serde_derive, symObjAddr: 0x2938, symBinAddr: 0x4F6E8, symSize: 0x16C }
  - { offset: 0xA8399, size: 0x8, addend: 0x0, symName: __RNvXs_NtNtNtCsaNl6UpbT7bw_4core4iter8adapters4skipINtB4_4SkipINtNtCsc29TF2YcYso_3syn10punctuated9IntoPairsNtNtB12_4path11PathSegmentNtNtB12_5token7PathSepEENtNtNtB8_6traits8iterator8Iterator4nextCs87DMVckFIdB_12serde_derive, symObjAddr: 0x4A64, symBinAddr: 0x51814, symSize: 0x78 }
  - { offset: 0xA84C3, size: 0x8, addend: 0x0, symName: __RINvYINtNtCsiTraAjBDcu4_5alloc5boxed3BoxDNtNtNtNtCsaNl6UpbT7bw_4core4iter6traits8iterator8Iteratorp4ItemRNtNtNtCs87DMVckFIdB_12serde_derive9internals3ast5FieldEL_EBD_10filter_mapRSNtNtCsc29TF2YcYso_3syn8generics14WherePredicateNCNvNtB1L_5bound33with_where_predicates_from_fields0EB1L_, symObjAddr: 0x63C, symBinAddr: 0x4D3EC, symSize: 0x30 }
  - { offset: 0xA8530, size: 0x8, addend: 0x0, symName: __RINvYINtNtCsiTraAjBDcu4_5alloc5boxed3BoxDNtNtNtNtCsaNl6UpbT7bw_4core4iter6traits8iterator8Iteratorp4ItemRNtNtNtCs87DMVckFIdB_12serde_derive9internals3ast5FieldEL_EBD_3anyNCNvMs_B1H_NtB1H_4Data10has_getter0EB1L_, symObjAddr: 0x66C, symBinAddr: 0x4D41C, symSize: 0x3C }
  - { offset: 0xA857F, size: 0x8, addend: 0x0, symName: __RINvYINtNtCsiTraAjBDcu4_5alloc5boxed3BoxDNtNtNtNtCsaNl6UpbT7bw_4core4iter6traits8iterator8Iteratorp4ItemRNtNtNtCs87DMVckFIdB_12serde_derive9internals3ast5FieldEL_EBD_8find_mapRSNtNtCsc29TF2YcYso_3syn8generics14WherePredicateQNCNvNtB1L_5bound33with_where_predicates_from_fields0EB1L_, symObjAddr: 0x6A8, symBinAddr: 0x4D458, symSize: 0x8C }
  - { offset: 0xA8603, size: 0x8, addend: 0x0, symName: __RINvYINtNtCsiTraAjBDcu4_5alloc5boxed3BoxDNtNtNtNtCsaNl6UpbT7bw_4core4iter6traits8iterator8Iteratorp4ItemRNtNtNtCs87DMVckFIdB_12serde_derive9internals3ast5FieldEL_EBD_8try_folduNCINvNvBD_3any5checkB1E_NCNvMs_B1H_NtB1H_4Data10has_getter0E0INtNtNtBL_3ops12control_flow11ControlFlowuEEB1L_, symObjAddr: 0x734, symBinAddr: 0x4D4E4, symSize: 0x128 }
  - { offset: 0xA86B5, size: 0x8, addend: 0x0, symName: __RINvYINtNtCsiTraAjBDcu4_5alloc5boxed3BoxDNtNtNtNtCsaNl6UpbT7bw_4core4iter6traits8iterator8Iteratorp4ItemRNtNtNtCs87DMVckFIdB_12serde_derive9internals3ast5FieldEL_EBD_8try_folduNCINvNvBD_8find_map5checkB1E_RSNtNtCsc29TF2YcYso_3syn8generics14WherePredicateQNCNvNtB1L_5bound33with_where_predicates_from_fields0E0INtNtNtBL_3ops12control_flow11ControlFlowB3h_EEB1L_, symObjAddr: 0x85C, symBinAddr: 0x4D60C, symSize: 0x178 }
  - { offset: 0xA8768, size: 0x8, addend: 0x0, symName: __RINvYINtNtNtNtCsaNl6UpbT7bw_4core4iter8adapters4skip4SkipINtNtCsc29TF2YcYso_3syn10punctuated9IntoPairsNtNtBY_4path11PathSegmentNtNtBY_5token7PathSepEENtNtNtBa_6traits8iterator8Iterator7collectINtBW_10PunctuatedB1C_B21_EECs87DMVckFIdB_12serde_derive, symObjAddr: 0x9D4, symBinAddr: 0x4D784, symSize: 0x6C }
  - { offset: 0xA87FE, size: 0x8, addend: 0x0, symName: __RINvYINtNtNtNtCsiTraAjBDcu4_5alloc11collections5btree3set4IterNtNtCsc29TF2YcYso_3syn8lifetime8LifetimeENtNtNtNtCsaNl6UpbT7bw_4core4iter6traits8iterator8Iterator3anyNCNvNtCs87DMVckFIdB_12serde_derive2de18borrowed_lifetimes0EB2I_, symObjAddr: 0xA40, symBinAddr: 0x4D7F0, symSize: 0x3C }
  - { offset: 0xA884D, size: 0x8, addend: 0x0, symName: __RINvYINtNtNtNtCsiTraAjBDcu4_5alloc11collections5btree3set4IterNtNtCsc29TF2YcYso_3syn8lifetime8LifetimeENtNtNtNtCsaNl6UpbT7bw_4core4iter6traits8iterator8Iterator3mapBY_NvYBY_NtNtB1L_5clone5Clone5cloneECs87DMVckFIdB_12serde_derive, symObjAddr: 0xA7C, symBinAddr: 0x4D82C, symSize: 0x30 }
  - { offset: 0xA88BB, size: 0x8, addend: 0x0, symName: __RINvYINtNtNtNtCsiTraAjBDcu4_5alloc11collections5btree3set4IterNtNtCsc29TF2YcYso_3syn8lifetime8LifetimeENtNtNtNtCsaNl6UpbT7bw_4core4iter6traits8iterator8Iterator4folduNCINvNtNtB1J_8adapters3map8map_foldRBY_BY_uNvYBY_NtNtB1L_5clone5Clone5cloneNCINvNvB1D_8for_each4callBY_NCINvXsl_B6_INtB6_8BTreeSetBY_EINtNtB1H_7collect6ExtendBY_E6extendINtNtB2L_6cloned6ClonedB3_EE0E0E0ECs87DMVckFIdB_12serde_derive, symObjAddr: 0xAAC, symBinAddr: 0x4D85C, symSize: 0xB0 }
  - { offset: 0xA894B, size: 0x8, addend: 0x0, symName: __RINvYINtNtNtNtCsiTraAjBDcu4_5alloc11collections5btree3set4IterNtNtCsc29TF2YcYso_3syn8lifetime8LifetimeENtNtNtNtCsaNl6UpbT7bw_4core4iter6traits8iterator8Iterator6clonedBY_ECs87DMVckFIdB_12serde_derive, symObjAddr: 0xB5C, symBinAddr: 0x4D90C, symSize: 0x30 }
  - { offset: 0xA89A1, size: 0x8, addend: 0x0, symName: __RINvYINtNtNtNtCsiTraAjBDcu4_5alloc11collections5btree3set4IterNtNtCsc29TF2YcYso_3syn8lifetime8LifetimeENtNtNtNtCsaNl6UpbT7bw_4core4iter6traits8iterator8Iterator8try_folduNCINvNvB1D_3any5checkRBY_NCNvNtCs87DMVckFIdB_12serde_derive2de18borrowed_lifetimes0E0INtNtNtB1L_3ops12control_flow11ControlFlowuEEB3d_, symObjAddr: 0xB8C, symBinAddr: 0x4D93C, symSize: 0x128 }
  - { offset: 0xA8A53, size: 0x8, addend: 0x0, symName: __RINvYINtNtNtNtCsiTraAjBDcu4_5alloc11collections5btree3set4IterNtNtNtCs87DMVckFIdB_12serde_derive9internals4name4NameENtNtNtNtCsaNl6UpbT7bw_4core4iter6traits8iterator8Iterator3mapNtCshnvkK9b4wzu_11proc_macro27LiteralNCNCNvNtNtB14_2de10identifier22deserialize_identifiers_00EB14_, symObjAddr: 0xCB4, symBinAddr: 0x4DA64, symSize: 0x30 }
  - { offset: 0xA8B3D, size: 0x8, addend: 0x0, symName: __RNvXNtNtNtCsaNl6UpbT7bw_4core4iter6traits7collectINtNtCsiTraAjBDcu4_5alloc5boxed3BoxDNtNtB4_8iterator8Iteratorp4ItemRNtNtNtCs87DMVckFIdB_12serde_derive9internals3ast5FieldEL_ENtB2_12IntoIterator9into_iterB1X_, symObjAddr: 0x2C44, symBinAddr: 0x4F9F4, symSize: 0x1C }
  - { offset: 0xA8B74, size: 0x8, addend: 0x0, symName: __RNvXNtNtNtCsaNl6UpbT7bw_4core4iter6traits7collectINtNtNtB6_8adapters4skip4SkipINtNtCsc29TF2YcYso_3syn10punctuated9IntoPairsNtNtB1j_4path11PathSegmentNtNtB1j_5token7PathSepEENtB2_12IntoIterator9into_iterCs87DMVckFIdB_12serde_derive, symObjAddr: 0x2C60, symBinAddr: 0x4FA10, symSize: 0x30 }
  - { offset: 0xA8EA3, size: 0x8, addend: 0x0, symName: __RNvXs1_NtNtNtCsaNl6UpbT7bw_4core3ops8function5implsQNCNvNtCs87DMVckFIdB_12serde_derive7pretend24pretend_fields_used_enum0INtB7_5FnMutTRNtNtNtBU_9internals3ast7VariantEE8call_mutBU_, symObjAddr: 0x2CD4, symBinAddr: 0x4FA84, symSize: 0x30 }
  - { offset: 0xA8EF2, size: 0x8, addend: 0x0, symName: __RNvXs1_NtNtNtCsaNl6UpbT7bw_4core3ops8function5implsQNCNvNtNtCs87DMVckFIdB_12serde_derive2de15enum_internally11deserialize0INtB7_5FnMutTRTjRNtNtNtBW_9internals3ast7VariantEEE8call_mutBW_, symObjAddr: 0x2D04, symBinAddr: 0x4FAB4, symSize: 0x30 }
  - { offset: 0xA98F9, size: 0x8, addend: 0x0, symName: __RNvMNtCsaNl6UpbT7bw_4core5sliceSNtNtCsc29TF2YcYso_3syn4expr6Member4iterCs87DMVckFIdB_12serde_derive, symObjAddr: 0xD54, symBinAddr: 0x4DB04, symSize: 0x28 }
  - { offset: 0xA9930, size: 0x8, addend: 0x0, symName: __RNvMNtCsaNl6UpbT7bw_4core5sliceSNtNtCsc29TF2YcYso_3syn4expr6Member8is_emptyCs87DMVckFIdB_12serde_derive, symObjAddr: 0xD7C, symBinAddr: 0x4DB2C, symSize: 0x1C }
  - { offset: 0xA9965, size: 0x8, addend: 0x0, symName: __RNvMNtCsaNl6UpbT7bw_4core5sliceSRNtNtCsc29TF2YcYso_3syn4expr6Member4iterCs87DMVckFIdB_12serde_derive, symObjAddr: 0xD98, symBinAddr: 0x4DB48, symSize: 0x28 }
  - { offset: 0xA999C, size: 0x8, addend: 0x0, symName: __RNvMNtCsaNl6UpbT7bw_4core5sliceSTNtNtCsc29TF2YcYso_3syn4expr4ExprNtNtBz_5token5CommaE8iter_mutCs87DMVckFIdB_12serde_derive, symObjAddr: 0xDC0, symBinAddr: 0x4DB70, symSize: 0x28 }
  - { offset: 0xA9BF7, size: 0x8, addend: 0x0, symName: __RNvMNtNtCsaNl6UpbT7bw_4core4char7methodsc12is_uppercaseCs87DMVckFIdB_12serde_derive, symObjAddr: 0xDE8, symBinAddr: 0x4DB98, symSize: 0x80 }
  - { offset: 0xA9C59, size: 0x8, addend: 0x0, symName: __RNvMNtNtCsaNl6UpbT7bw_4core4char7methodsc18to_ascii_lowercaseCs87DMVckFIdB_12serde_derive, symObjAddr: 0xE68, symBinAddr: 0x4DC18, symSize: 0x80 }
  - { offset: 0xA9CD9, size: 0x8, addend: 0x0, symName: __RNvMNtNtCsaNl6UpbT7bw_4core4char7methodsc18to_ascii_uppercaseCs87DMVckFIdB_12serde_derive, symObjAddr: 0xEE8, symBinAddr: 0x4DC98, symSize: 0x80 }
  - { offset: 0xA9D8E, size: 0x8, addend: 0x0, symName: __RNvNtNtCsaNl6UpbT7bw_4core4char7methods15encode_utf8_rawCs87DMVckFIdB_12serde_derive, symObjAddr: 0x1C84, symBinAddr: 0x4EA34, symSize: 0x110 }
  - { offset: 0xA9E8E, size: 0x8, addend: 0x0, symName: __RNvNtNtCsaNl6UpbT7bw_4core4char7methods25encode_utf8_raw_uncheckedCs87DMVckFIdB_12serde_derive, symObjAddr: 0x1D94, symBinAddr: 0x4EB44, symSize: 0x14C }
  - { offset: 0xAAD15, size: 0x8, addend: 0x0, symName: __RNvNtNtCs87DMVckFIdB_12serde_derive2de15enum_internally11deserialize, symObjAddr: 0x4FBC, symBinAddr: 0x51D6C, symSize: 0x95C }
  - { offset: 0xAAF25, size: 0x8, addend: 0x0, symName: __RNCNvNtNtCs87DMVckFIdB_12serde_derive2de15enum_internally11deserialize0B7_, symObjAddr: 0x5918, symBinAddr: 0x526C8, symSize: 0x44 }
  - { offset: 0xAAF6C, size: 0x8, addend: 0x0, symName: __RNCNvNtNtCs87DMVckFIdB_12serde_derive2de15enum_internally11deserializes_0B7_, symObjAddr: 0x595C, symBinAddr: 0x5270C, symSize: 0x174 }
  - { offset: 0xAB042, size: 0x8, addend: 0x0, symName: __RNvNtNtCs87DMVckFIdB_12serde_derive2de15enum_internally37deserialize_internally_tagged_variant, symObjAddr: 0x5AD0, symBinAddr: 0x52880, symSize: 0x848 }
  - { offset: 0xAB1C3, size: 0x8, addend: 0x0, symName: __RNCNvNtNtCs87DMVckFIdB_12serde_derive2de15enum_internally37deserialize_internally_tagged_variant0B7_, symObjAddr: 0x6318, symBinAddr: 0x530C8, symSize: 0x144 }
  - { offset: 0xAB247, size: 0x8, addend: 0x0, symName: __RNvNtNtCs87DMVckFIdB_12serde_derive2de5tuple11deserialize, symObjAddr: 0x645C, symBinAddr: 0x5320C, symSize: 0x1F2C }
  - { offset: 0xAB793, size: 0x8, addend: 0x0, symName: __RNCNvNtNtCs87DMVckFIdB_12serde_derive2de5tuple11deserialize0B7_, symObjAddr: 0x8388, symBinAddr: 0x55138, symSize: 0x40 }
  - { offset: 0xAB7D1, size: 0x8, addend: 0x0, symName: __RNvNtNtCs87DMVckFIdB_12serde_derive2de5tuple26deserialize_newtype_struct, symObjAddr: 0x83C8, symBinAddr: 0x55178, symSize: 0xD08 }
  - { offset: 0xABBED, size: 0x8, addend: 0x0, symName: __RNvNtCs87DMVckFIdB_12serde_derive10deprecated16allow_deprecated, symObjAddr: 0x90D0, symBinAddr: 0x55E80, symSize: 0x1C0 }
  - { offset: 0xABC5B, size: 0x8, addend: 0x0, symName: __RNvNtCs87DMVckFIdB_12serde_derive10deprecated23should_allow_deprecated, symObjAddr: 0x9290, symBinAddr: 0x56040, symSize: 0x1B0 }
  - { offset: 0xABCC6, size: 0x8, addend: 0x0, symName: __RNvNtCs87DMVckFIdB_12serde_derive10deprecated19contains_deprecated, symObjAddr: 0x9440, symBinAddr: 0x561F0, symSize: 0x1B8 }
  - { offset: 0xABD4B, size: 0x8, addend: 0x0, symName: __RNCNvNtCs87DMVckFIdB_12serde_derive10deprecated19contains_deprecated0B5_, symObjAddr: 0x95F8, symBinAddr: 0x563A8, symSize: 0xD0 }
  - { offset: 0xABD90, size: 0x8, addend: 0x0, symName: __RNvNtCs87DMVckFIdB_12serde_derive7pretend12pretend_used, symObjAddr: 0x96C8, symBinAddr: 0x56478, symSize: 0x108 }
  - { offset: 0xABE09, size: 0x8, addend: 0x0, symName: __RNvNtCs87DMVckFIdB_12serde_derive7pretend19pretend_fields_used, symObjAddr: 0x97D0, symBinAddr: 0x56580, symSize: 0x164 }
  - { offset: 0xABE75, size: 0x8, addend: 0x0, symName: __RNvNtCs87DMVckFIdB_12serde_derive7pretend26pretend_fields_used_struct, symObjAddr: 0x9934, symBinAddr: 0x566E4, symSize: 0x580 }
  - { offset: 0xAC06F, size: 0x8, addend: 0x0, symName: __RNCNvNtCs87DMVckFIdB_12serde_derive7pretend26pretend_fields_used_struct0B5_, symObjAddr: 0x9EB4, symBinAddr: 0x56C64, symSize: 0x28 }
  - { offset: 0xAC0A5, size: 0x8, addend: 0x0, symName: __RNCNvNtCs87DMVckFIdB_12serde_derive7pretend26pretend_fields_used_structs_0B5_, symObjAddr: 0x9EDC, symBinAddr: 0x56C8C, symSize: 0x11C }
  - { offset: 0xAC13A, size: 0x8, addend: 0x0, symName: __RNvNtCs87DMVckFIdB_12serde_derive7pretend33pretend_fields_used_struct_packed, symObjAddr: 0x9FF8, symBinAddr: 0x56DA8, symSize: 0x774 }
  - { offset: 0xAC3E5, size: 0x8, addend: 0x0, symName: __RNCNvNtCs87DMVckFIdB_12serde_derive7pretend33pretend_fields_used_struct_packed0B5_, symObjAddr: 0xA76C, symBinAddr: 0x5751C, symSize: 0x28 }
  - { offset: 0xAC423, size: 0x8, addend: 0x0, symName: __RNvNtCs87DMVckFIdB_12serde_derive7pretend24pretend_fields_used_enum, symObjAddr: 0xA794, symBinAddr: 0x57544, symSize: 0x46C }
  - { offset: 0xAC5EB, size: 0x8, addend: 0x0, symName: __RNCNvNtCs87DMVckFIdB_12serde_derive7pretend24pretend_fields_used_enum0B5_, symObjAddr: 0xAC00, symBinAddr: 0x579B0, symSize: 0x388 }
  - { offset: 0xAC7A6, size: 0x8, addend: 0x0, symName: __RNCNCNvNtCs87DMVckFIdB_12serde_derive7pretend24pretend_fields_used_enum00B7_, symObjAddr: 0xAF88, symBinAddr: 0x57D38, symSize: 0x28 }
  - { offset: 0xAC7DC, size: 0x8, addend: 0x0, symName: __RNCNCNvNtCs87DMVckFIdB_12serde_derive7pretend24pretend_fields_used_enum0s_0B7_, symObjAddr: 0xAFB0, symBinAddr: 0x57D60, symSize: 0x11C }
  - { offset: 0xAC885, size: 0x8, addend: 0x0, symName: __RNvNtCs87DMVckFIdB_12serde_derive7pretend21pretend_variants_used, symObjAddr: 0xB0CC, symBinAddr: 0x57E7C, symSize: 0x204 }
  - { offset: 0xAC9C4, size: 0x8, addend: 0x0, symName: __RNCNvNtCs87DMVckFIdB_12serde_derive7pretend21pretend_variants_used0B5_, symObjAddr: 0xB2D0, symBinAddr: 0x58080, symSize: 0x95C }
  - { offset: 0xACD63, size: 0x8, addend: 0x0, symName: __RNCNCNvNtCs87DMVckFIdB_12serde_derive7pretend21pretend_variants_used00B7_, symObjAddr: 0xBC2C, symBinAddr: 0x589DC, symSize: 0x11C }
  - { offset: 0xACDE9, size: 0x8, addend: 0x0, symName: __RNCNCNvNtCs87DMVckFIdB_12serde_derive7pretend21pretend_variants_used0s_0B7_, symObjAddr: 0xBD48, symBinAddr: 0x58AF8, symSize: 0x28 }
  - { offset: 0xAD04B, size: 0x8, addend: 0x0, symName: __RINvCsc29TF2YcYso_3syn5parseNtNtB2_6derive11DeriveInputECs87DMVckFIdB_12serde_derive, symObjAddr: 0x0, symBinAddr: 0x4CE70, symSize: 0x30 }
  - { offset: 0xAD082, size: 0x8, addend: 0x0, symName: __RINvCsc29TF2YcYso_3syn6parse2NtNtB2_2ty8TypePathECs87DMVckFIdB_12serde_derive, symObjAddr: 0x30, symBinAddr: 0x4CEA0, symSize: 0x24 }
  - { offset: 0xB1DEA, size: 0x8, addend: 0x0, symName: __RNvXNtCsc29TF2YcYso_3syn7spannedNtNtB4_4expr8ExprPathNtB2_7Spanned4spanCs87DMVckFIdB_12serde_derive, symObjAddr: 0x2BDC, symBinAddr: 0x4F98C, symSize: 0x34 }
  - { offset: 0xB24E3, size: 0x8, addend: 0x0, symName: __RNvMs_NtCsiTraAjBDcu4_5alloc5boxedINtB4_3BoxINtNtNtNtB6_11collections5btree4node12InternalNodeNtNtCsc29TF2YcYso_3syn8lifetime8LifetimeNtNtBL_7set_val9SetValZSTEE13new_uninit_inCs87DMVckFIdB_12serde_derive, symObjAddr: 0xFC8, symBinAddr: 0x4DD78, symSize: 0x98 }
  - { offset: 0xB25D7, size: 0x8, addend: 0x0, symName: __RNvMs_NtCsiTraAjBDcu4_5alloc5boxedINtB4_3BoxINtNtNtNtB6_11collections5btree4node12InternalNodeNtNtCsc29TF2YcYso_3syn8lifetime8LifetimeNtNtBL_7set_val9SetValZSTEE17try_new_uninit_inCs87DMVckFIdB_12serde_derive, symObjAddr: 0x1060, symBinAddr: 0x4DE10, symSize: 0x13C }
  - { offset: 0xB2807, size: 0x8, addend: 0x0, symName: __RNvMs_NtCsiTraAjBDcu4_5alloc5boxedINtB4_3BoxINtNtNtNtB6_11collections5btree4node12InternalNodeNtNtNtCs87DMVckFIdB_12serde_derive9internals4name4NameNtNtBL_7set_val9SetValZSTEE13new_uninit_inB1A_, symObjAddr: 0x119C, symBinAddr: 0x4DF4C, symSize: 0x98 }
  - { offset: 0xB28FB, size: 0x8, addend: 0x0, symName: __RNvMs_NtCsiTraAjBDcu4_5alloc5boxedINtB4_3BoxINtNtNtNtB6_11collections5btree4node12InternalNodeNtNtNtCs87DMVckFIdB_12serde_derive9internals4name4NameNtNtBL_7set_val9SetValZSTEE17try_new_uninit_inB1A_, symObjAddr: 0x1234, symBinAddr: 0x4DFE4, symSize: 0x13C }
  - { offset: 0xB2B2B, size: 0x8, addend: 0x0, symName: __RNvMs_NtCsiTraAjBDcu4_5alloc5boxedINtB4_3BoxINtNtNtNtB6_11collections5btree4node8LeafNodeNtNtCsc29TF2YcYso_3syn8lifetime8LifetimeNtNtBL_7set_val9SetValZSTEE13new_uninit_inCs87DMVckFIdB_12serde_derive, symObjAddr: 0x1370, symBinAddr: 0x4E120, symSize: 0x98 }
  - { offset: 0xB2C1F, size: 0x8, addend: 0x0, symName: __RNvMs_NtCsiTraAjBDcu4_5alloc5boxedINtB4_3BoxINtNtNtNtB6_11collections5btree4node8LeafNodeNtNtCsc29TF2YcYso_3syn8lifetime8LifetimeNtNtBL_7set_val9SetValZSTEE17try_new_uninit_inCs87DMVckFIdB_12serde_derive, symObjAddr: 0x1408, symBinAddr: 0x4E1B8, symSize: 0x13C }
  - { offset: 0xB2E4F, size: 0x8, addend: 0x0, symName: __RNvMs_NtCsiTraAjBDcu4_5alloc5boxedINtB4_3BoxINtNtNtNtB6_11collections5btree4node8LeafNodeNtNtNtCs87DMVckFIdB_12serde_derive9internals4name4NameNtNtBL_7set_val9SetValZSTEE13new_uninit_inB1v_, symObjAddr: 0x1544, symBinAddr: 0x4E2F4, symSize: 0x98 }
  - { offset: 0xB2F43, size: 0x8, addend: 0x0, symName: __RNvMs_NtCsiTraAjBDcu4_5alloc5boxedINtB4_3BoxINtNtNtNtB6_11collections5btree4node8LeafNodeNtNtNtCs87DMVckFIdB_12serde_derive9internals4name4NameNtNtBL_7set_val9SetValZSTEE17try_new_uninit_inB1v_, symObjAddr: 0x15DC, symBinAddr: 0x4E38C, symSize: 0x13C }
  - { offset: 0xB317E, size: 0x8, addend: 0x0, symName: __RNvXNtNtCsiTraAjBDcu4_5alloc5boxed4iterINtB4_3BoxDNtNtNtNtCsaNl6UpbT7bw_4core4iter6traits8iterator8Iteratorp4ItemRNtNtNtCs87DMVckFIdB_12serde_derive9internals3ast5FieldEL_EBM_4nextB1U_, symObjAddr: 0x2C10, symBinAddr: 0x4F9C0, symSize: 0x34 }
  - { offset: 0xB31C3, size: 0x8, addend: 0x0, symName: __RNvXs6_NtCsiTraAjBDcu4_5alloc5boxedINtB5_3BoxANtNtCsc29TF2YcYso_3syn4expr6Memberj1_ENtNtNtCsaNl6UpbT7bw_4core3ops4drop4Drop4dropCs87DMVckFIdB_12serde_derive, symObjAddr: 0x3148, symBinAddr: 0x4FEF8, symSize: 0xB8 }
  - { offset: 0xB32FA, size: 0x8, addend: 0x0, symName: __RNvXs6_NtCsiTraAjBDcu4_5alloc5boxedINtB5_3BoxANtNtCsc29TF2YcYso_3syn4path11PathSegmentj1_ENtNtNtCsaNl6UpbT7bw_4core3ops4drop4Drop4dropCs87DMVckFIdB_12serde_derive, symObjAddr: 0x3200, symBinAddr: 0x4FFB0, symSize: 0xB8 }
  - { offset: 0xB3431, size: 0x8, addend: 0x0, symName: __RNvXs6_NtCsiTraAjBDcu4_5alloc5boxedINtB5_3BoxANtNtCsc29TF2YcYso_3syn8generics14TypeParamBoundj1_ENtNtNtCsaNl6UpbT7bw_4core3ops4drop4Drop4dropCs87DMVckFIdB_12serde_derive, symObjAddr: 0x32B8, symBinAddr: 0x50068, symSize: 0xB8 }
  - { offset: 0xB3568, size: 0x8, addend: 0x0, symName: __RNvXs6_NtCsiTraAjBDcu4_5alloc5boxedINtB5_3BoxDNtNtCsaNl6UpbT7bw_4core5error5ErrorNtNtBM_6marker4SyncNtB1j_4SendEL_ENtNtNtBM_3ops4drop4Drop4dropCs87DMVckFIdB_12serde_derive, symObjAddr: 0x3370, symBinAddr: 0x50120, symSize: 0xCC }
  - { offset: 0xB369F, size: 0x8, addend: 0x0, symName: __RNvXs6_NtCsiTraAjBDcu4_5alloc5boxedINtB5_3BoxDNtNtNtNtCsaNl6UpbT7bw_4core4iter6traits8iterator8Iteratorp4ItemRNtNtNtCs87DMVckFIdB_12serde_derive9internals3ast5FieldEL_ENtNtNtBQ_3ops4drop4Drop4dropB1Q_, symObjAddr: 0x343C, symBinAddr: 0x501EC, symSize: 0xCC }
  - { offset: 0xB37D6, size: 0x8, addend: 0x0, symName: __RNvXs6_NtCsiTraAjBDcu4_5alloc5boxedINtB5_3BoxINtNtCsc29TF2YcYso_3syn5drops6NoDropDINtNtBM_10punctuated12IterMutTraitNtNtBM_2ty4TypeEp4ItemQB1Q_EL_EENtNtNtCsaNl6UpbT7bw_4core3ops4drop4Drop4dropCs87DMVckFIdB_12serde_derive, symObjAddr: 0x3508, symBinAddr: 0x502B8, symSize: 0x120 }
  - { offset: 0xB390D, size: 0x8, addend: 0x0, symName: __RNvXs6_NtCsiTraAjBDcu4_5alloc5boxedINtB5_3BoxINtNtCsc29TF2YcYso_3syn5drops6NoDropDINtNtBM_10punctuated12IterMutTraitNtNtBM_2ty9BareFnArgEp4ItemQB1Q_EL_EENtNtNtCsaNl6UpbT7bw_4core3ops4drop4Drop4dropCs87DMVckFIdB_12serde_derive, symObjAddr: 0x3628, symBinAddr: 0x503D8, symSize: 0x120 }
  - { offset: 0xB3A44, size: 0x8, addend: 0x0, symName: __RNvXs6_NtCsiTraAjBDcu4_5alloc5boxedINtB5_3BoxINtNtCsc29TF2YcYso_3syn5drops6NoDropDINtNtBM_10punctuated12IterMutTraitNtNtBM_4data5FieldEp4ItemQB1Q_EL_EENtNtNtCsaNl6UpbT7bw_4core3ops4drop4Drop4dropCs87DMVckFIdB_12serde_derive, symObjAddr: 0x3748, symBinAddr: 0x504F8, symSize: 0x120 }
  - { offset: 0xB3B7B, size: 0x8, addend: 0x0, symName: __RNvXs6_NtCsiTraAjBDcu4_5alloc5boxedINtB5_3BoxINtNtCsc29TF2YcYso_3syn5drops6NoDropDINtNtBM_10punctuated12IterMutTraitNtNtBM_4data7VariantEp4ItemQB1Q_EL_EENtNtNtCsaNl6UpbT7bw_4core3ops4drop4Drop4dropCs87DMVckFIdB_12serde_derive, symObjAddr: 0x3868, symBinAddr: 0x50618, symSize: 0x120 }
  - { offset: 0xB3CB2, size: 0x8, addend: 0x0, symName: __RNvXs6_NtCsiTraAjBDcu4_5alloc5boxedINtB5_3BoxINtNtCsc29TF2YcYso_3syn5drops6NoDropDINtNtBM_10punctuated12IterMutTraitNtNtBM_4expr4ExprEp4ItemQB1Q_EL_EENtNtNtCsaNl6UpbT7bw_4core3ops4drop4Drop4dropCs87DMVckFIdB_12serde_derive, symObjAddr: 0x3988, symBinAddr: 0x50738, symSize: 0x120 }
  - { offset: 0xB3DE9, size: 0x8, addend: 0x0, symName: __RNvXs6_NtCsiTraAjBDcu4_5alloc5boxedINtB5_3BoxINtNtCsc29TF2YcYso_3syn5drops6NoDropDINtNtBM_10punctuated12IterMutTraitNtNtBM_4path15GenericArgumentEp4ItemQB1Q_EL_EENtNtNtCsaNl6UpbT7bw_4core3ops4drop4Drop4dropCs87DMVckFIdB_12serde_derive, symObjAddr: 0x3AA8, symBinAddr: 0x50858, symSize: 0x120 }
  - { offset: 0xB3F20, size: 0x8, addend: 0x0, symName: __RNvXs6_NtCsiTraAjBDcu4_5alloc5boxedINtB5_3BoxINtNtCsc29TF2YcYso_3syn5drops6NoDropDINtNtBM_10punctuated12IterMutTraitNtNtBM_8generics12GenericParamEp4ItemQB1Q_EL_EENtNtNtCsaNl6UpbT7bw_4core3ops4drop4Drop4dropCs87DMVckFIdB_12serde_derive, symObjAddr: 0x3BC8, symBinAddr: 0x50978, symSize: 0x120 }
  - { offset: 0xB4057, size: 0x8, addend: 0x0, symName: __RNvXs6_NtCsiTraAjBDcu4_5alloc5boxedINtB5_3BoxINtNtCsc29TF2YcYso_3syn5drops6NoDropDINtNtBM_10punctuated12IterMutTraitNtNtBM_8generics14TypeParamBoundEp4ItemQB1Q_EL_EENtNtNtCsaNl6UpbT7bw_4core3ops4drop4Drop4dropCs87DMVckFIdB_12serde_derive, symObjAddr: 0x3CE8, symBinAddr: 0x50A98, symSize: 0x120 }
  - { offset: 0xB418E, size: 0x8, addend: 0x0, symName: __RNvXs6_NtCsiTraAjBDcu4_5alloc5boxedINtB5_3BoxINtNtCsc29TF2YcYso_3syn5drops6NoDropDINtNtBM_10punctuated12IterMutTraitNtNtBM_8generics14WherePredicateEp4ItemQB1Q_EL_EENtNtNtCsaNl6UpbT7bw_4core3ops4drop4Drop4dropCs87DMVckFIdB_12serde_derive, symObjAddr: 0x3E08, symBinAddr: 0x50BB8, symSize: 0x120 }
  - { offset: 0xB42C5, size: 0x8, addend: 0x0, symName: __RNvXs6_NtCsiTraAjBDcu4_5alloc5boxedINtB5_3BoxINtNtCsc29TF2YcYso_3syn5drops6NoDropDINtNtBM_10punctuated9IterTraitNtNtBM_2ty4TypeEp4ItemRB1M_EL_EENtNtNtCsaNl6UpbT7bw_4core3ops4drop4Drop4dropCs87DMVckFIdB_12serde_derive, symObjAddr: 0x3F28, symBinAddr: 0x50CD8, symSize: 0x120 }
  - { offset: 0xB43FC, size: 0x8, addend: 0x0, symName: __RNvXs6_NtCsiTraAjBDcu4_5alloc5boxedINtB5_3BoxINtNtCsc29TF2YcYso_3syn5drops6NoDropDINtNtBM_10punctuated9IterTraitNtNtBM_2ty9BareFnArgEp4ItemRB1M_EL_EENtNtNtCsaNl6UpbT7bw_4core3ops4drop4Drop4dropCs87DMVckFIdB_12serde_derive, symObjAddr: 0x4048, symBinAddr: 0x50DF8, symSize: 0x120 }
  - { offset: 0xB4533, size: 0x8, addend: 0x0, symName: __RNvXs6_NtCsiTraAjBDcu4_5alloc5boxedINtB5_3BoxINtNtCsc29TF2YcYso_3syn5drops6NoDropDINtNtBM_10punctuated9IterTraitNtNtBM_4data5FieldEp4ItemRB1M_EL_EENtNtNtCsaNl6UpbT7bw_4core3ops4drop4Drop4dropCs87DMVckFIdB_12serde_derive, symObjAddr: 0x4168, symBinAddr: 0x50F18, symSize: 0x120 }
  - { offset: 0xB466A, size: 0x8, addend: 0x0, symName: __RNvXs6_NtCsiTraAjBDcu4_5alloc5boxedINtB5_3BoxINtNtCsc29TF2YcYso_3syn5drops6NoDropDINtNtBM_10punctuated9IterTraitNtNtBM_4data7VariantEp4ItemRB1M_EL_EENtNtNtCsaNl6UpbT7bw_4core3ops4drop4Drop4dropCs87DMVckFIdB_12serde_derive, symObjAddr: 0x4288, symBinAddr: 0x51038, symSize: 0x120 }
  - { offset: 0xB47A1, size: 0x8, addend: 0x0, symName: __RNvXs6_NtCsiTraAjBDcu4_5alloc5boxedINtB5_3BoxINtNtCsc29TF2YcYso_3syn5drops6NoDropDINtNtBM_10punctuated9IterTraitNtNtBM_4path15GenericArgumentEp4ItemRB1M_EL_EENtNtNtCsaNl6UpbT7bw_4core3ops4drop4Drop4dropCs87DMVckFIdB_12serde_derive, symObjAddr: 0x43A8, symBinAddr: 0x51158, symSize: 0x120 }
  - { offset: 0xB48D8, size: 0x8, addend: 0x0, symName: __RNvXs6_NtCsiTraAjBDcu4_5alloc5boxedINtB5_3BoxINtNtCsc29TF2YcYso_3syn5drops6NoDropDINtNtBM_10punctuated9IterTraitNtNtBM_8generics12GenericParamEp4ItemRB1M_EL_EENtNtNtCsaNl6UpbT7bw_4core3ops4drop4Drop4dropCs87DMVckFIdB_12serde_derive, symObjAddr: 0x44C8, symBinAddr: 0x51278, symSize: 0x120 }
  - { offset: 0xB4A0F, size: 0x8, addend: 0x0, symName: __RNvXs6_NtCsiTraAjBDcu4_5alloc5boxedINtB5_3BoxINtNtNtNtB7_11collections5btree4node12InternalNodeNtNtCsc29TF2YcYso_3syn8lifetime8LifetimeNtNtBM_7set_val9SetValZSTEENtNtNtCsaNl6UpbT7bw_4core3ops4drop4Drop4dropCs87DMVckFIdB_12serde_derive, symObjAddr: 0x45E8, symBinAddr: 0x51398, symSize: 0xB8 }
  - { offset: 0xB4B46, size: 0x8, addend: 0x0, symName: __RNvXs6_NtCsiTraAjBDcu4_5alloc5boxedINtB5_3BoxINtNtNtNtB7_11collections5btree4node12InternalNodeNtNtNtCs87DMVckFIdB_12serde_derive9internals4name4NameNtNtBM_7set_val9SetValZSTEENtNtNtCsaNl6UpbT7bw_4core3ops4drop4Drop4dropB1B_, symObjAddr: 0x46A0, symBinAddr: 0x51450, symSize: 0xB8 }
  - { offset: 0xB4C7D, size: 0x8, addend: 0x0, symName: __RNvXs6_NtCsiTraAjBDcu4_5alloc5boxedINtB5_3BoxINtNtNtNtB7_11collections5btree4node8LeafNodeNtNtCsc29TF2YcYso_3syn8lifetime8LifetimeNtNtBM_7set_val9SetValZSTEENtNtNtCsaNl6UpbT7bw_4core3ops4drop4Drop4dropCs87DMVckFIdB_12serde_derive, symObjAddr: 0x4758, symBinAddr: 0x51508, symSize: 0xB8 }
  - { offset: 0xB4DB4, size: 0x8, addend: 0x0, symName: __RNvXs6_NtCsiTraAjBDcu4_5alloc5boxedINtB5_3BoxINtNtNtNtB7_11collections5btree4node8LeafNodeNtNtNtCs87DMVckFIdB_12serde_derive9internals4name4NameNtNtBM_7set_val9SetValZSTEENtNtNtCsaNl6UpbT7bw_4core3ops4drop4Drop4dropB1w_, symObjAddr: 0x4810, symBinAddr: 0x515C0, symSize: 0xB8 }
  - { offset: 0xB4EEB, size: 0x8, addend: 0x0, symName: __RNvXs6_NtCsiTraAjBDcu4_5alloc5boxedINtB5_3BoxNtNtNtCsht3nMU9UgFu_3std2io5error6CustomENtNtNtCsaNl6UpbT7bw_4core3ops4drop4Drop4dropCs87DMVckFIdB_12serde_derive, symObjAddr: 0x48C8, symBinAddr: 0x51678, symSize: 0xB8 }
  - { offset: 0xB5028, size: 0x8, addend: 0x0, symName: __RNvXsC_NtCsiTraAjBDcu4_5alloc5boxedINtB5_3BoxNtNtCsc29TF2YcYso_3syn2ty4TypeEINtNtCsaNl6UpbT7bw_4core7convert5AsMutBH_E6as_mutCs87DMVckFIdB_12serde_derive, symObjAddr: 0x49BC, symBinAddr: 0x5176C, symSize: 0x18 }
  - { offset: 0xB5068, size: 0x8, addend: 0x0, symName: __RNvXsC_NtCsiTraAjBDcu4_5alloc5boxedINtB5_3BoxNtNtCsc29TF2YcYso_3syn2ty9BareFnArgEINtNtCsaNl6UpbT7bw_4core7convert5AsMutBH_E6as_mutCs87DMVckFIdB_12serde_derive, symObjAddr: 0x49D4, symBinAddr: 0x51784, symSize: 0x18 }
  - { offset: 0xB50A8, size: 0x8, addend: 0x0, symName: __RNvXsC_NtCsiTraAjBDcu4_5alloc5boxedINtB5_3BoxNtNtCsc29TF2YcYso_3syn4data7VariantEINtNtCsaNl6UpbT7bw_4core7convert5AsMutBH_E6as_mutCs87DMVckFIdB_12serde_derive, symObjAddr: 0x49EC, symBinAddr: 0x5179C, symSize: 0x18 }
  - { offset: 0xB50E8, size: 0x8, addend: 0x0, symName: __RNvXsC_NtCsiTraAjBDcu4_5alloc5boxedINtB5_3BoxNtNtCsc29TF2YcYso_3syn4expr4ExprEINtNtCsaNl6UpbT7bw_4core7convert5AsMutBH_E6as_mutCs87DMVckFIdB_12serde_derive, symObjAddr: 0x4A04, symBinAddr: 0x517B4, symSize: 0x18 }
  - { offset: 0xB5128, size: 0x8, addend: 0x0, symName: __RNvXsC_NtCsiTraAjBDcu4_5alloc5boxedINtB5_3BoxNtNtCsc29TF2YcYso_3syn4path15GenericArgumentEINtNtCsaNl6UpbT7bw_4core7convert5AsMutBH_E6as_mutCs87DMVckFIdB_12serde_derive, symObjAddr: 0x4A1C, symBinAddr: 0x517CC, symSize: 0x18 }
  - { offset: 0xB5168, size: 0x8, addend: 0x0, symName: __RNvXsC_NtCsiTraAjBDcu4_5alloc5boxedINtB5_3BoxNtNtCsc29TF2YcYso_3syn8generics14TypeParamBoundEINtNtCsaNl6UpbT7bw_4core7convert5AsMutBH_E6as_mutCs87DMVckFIdB_12serde_derive, symObjAddr: 0x4A34, symBinAddr: 0x517E4, symSize: 0x18 }
  - { offset: 0xB51A8, size: 0x8, addend: 0x0, symName: __RNvXsC_NtCsiTraAjBDcu4_5alloc5boxedINtB5_3BoxNtNtCsc29TF2YcYso_3syn8generics14WherePredicateEINtNtCsaNl6UpbT7bw_4core7convert5AsMutBH_E6as_mutCs87DMVckFIdB_12serde_derive, symObjAddr: 0x4A4C, symBinAddr: 0x517FC, symSize: 0x18 }
  - { offset: 0xB6320, size: 0x8, addend: 0x0, symName: __RINvMNtCsiTraAjBDcu4_5alloc5sliceSNtNtCsc29TF2YcYso_3syn4expr6Member8into_vecNtNtB5_5alloc6GlobalECs87DMVckFIdB_12serde_derive, symObjAddr: 0x54, symBinAddr: 0x4CEC4, symSize: 0x9C }
  - { offset: 0xB6E45, size: 0x8, addend: 0x0, symName: __RINvXsl_NtNtNtCsiTraAjBDcu4_5alloc11collections5btree3setINtB6_8BTreeSetNtNtCsc29TF2YcYso_3syn8lifetime8LifetimeEINtNtNtNtCsaNl6UpbT7bw_4core4iter6traits7collect6ExtendB18_E6extendINtNtNtB1U_8adapters6cloned6ClonedINtB6_4IterB18_EEECs87DMVckFIdB_12serde_derive, symObjAddr: 0x5C0, symBinAddr: 0x4D370, symSize: 0x40 }
  - { offset: 0xB6E9A, size: 0x8, addend: 0x0, symName: __RINvXsl_NtNtNtCsiTraAjBDcu4_5alloc11collections5btree3setINtB6_8BTreeSetNtNtCsc29TF2YcYso_3syn8lifetime8LifetimeEINtNtNtNtCsaNl6UpbT7bw_4core4iter6traits7collect6ExtendB18_E6extendINtNtNtB1U_8adapters6cloned6ClonedINtNtB1W_6option4IterB18_EEECs87DMVckFIdB_12serde_derive, symObjAddr: 0x600, symBinAddr: 0x4D3B0, symSize: 0x3C }
  - { offset: 0xB6EF3, size: 0x8, addend: 0x0, symName: __RNCINvXsl_NtNtNtCsiTraAjBDcu4_5alloc11collections5btree3setINtB8_8BTreeSetNtNtCsc29TF2YcYso_3syn8lifetime8LifetimeEINtNtNtNtCsaNl6UpbT7bw_4core4iter6traits7collect6ExtendB1a_E6extendINtNtNtB1W_8adapters6cloned6ClonedINtB8_4IterB1a_EEE0Cs87DMVckFIdB_12serde_derive, symObjAddr: 0xCE4, symBinAddr: 0x4DA94, symSize: 0x38 }
  - { offset: 0xB6F71, size: 0x8, addend: 0x0, symName: __RNCINvXsl_NtNtNtCsiTraAjBDcu4_5alloc11collections5btree3setINtB8_8BTreeSetNtNtCsc29TF2YcYso_3syn8lifetime8LifetimeEINtNtNtNtCsaNl6UpbT7bw_4core4iter6traits7collect6ExtendB1a_E6extendINtNtNtB1W_8adapters6cloned6ClonedINtNtB1Y_6option4IterB1a_EEE0Cs87DMVckFIdB_12serde_derive, symObjAddr: 0xD1C, symBinAddr: 0x4DACC, symSize: 0x38 }
  - { offset: 0xB70DB, size: 0x8, addend: 0x0, symName: __RNvXs3_NtNtNtCsiTraAjBDcu4_5alloc11collections5btree3setINtB5_8BTreeSetNtNtCsc29TF2YcYso_3syn8lifetime8LifetimeENtNtCsaNl6UpbT7bw_4core5clone5Clone5cloneCs87DMVckFIdB_12serde_derive, symObjAddr: 0x2D6C, symBinAddr: 0x4FB1C, symSize: 0x40 }
  - { offset: 0xB711F, size: 0x8, addend: 0x0, symName: __RNvXsh_NtNtNtCsiTraAjBDcu4_5alloc11collections5btree3setRINtB5_8BTreeSetNtNtCsc29TF2YcYso_3syn8lifetime8LifetimeENtNtNtNtCsaNl6UpbT7bw_4core4iter6traits7collect12IntoIterator9into_iterCs87DMVckFIdB_12serde_derive, symObjAddr: 0x4ADC, symBinAddr: 0x5188C, symSize: 0x150 }
  - { offset: 0xB724C, size: 0x8, addend: 0x0, symName: __RNvXsh_NtNtNtCsiTraAjBDcu4_5alloc11collections5btree3setRINtB5_8BTreeSetNtNtNtCs87DMVckFIdB_12serde_derive9internals4name4NameENtNtNtNtCsaNl6UpbT7bw_4core4iter6traits7collect12IntoIterator9into_iterB1e_, symObjAddr: 0x4C2C, symBinAddr: 0x519DC, symSize: 0x150 }
  - { offset: 0xB737F, size: 0x8, addend: 0x0, symName: __RNvXsn_NtNtNtCsiTraAjBDcu4_5alloc11collections5btree3setINtB5_8BTreeSetNtNtCsc29TF2YcYso_3syn8lifetime8LifetimeENtNtCsaNl6UpbT7bw_4core7default7Default7defaultCs87DMVckFIdB_12serde_derive, symObjAddr: 0x4D7C, symBinAddr: 0x51B2C, symSize: 0x40 }
  - { offset: 0xB73D8, size: 0x8, addend: 0x0, symName: __RNvXsu_NtNtNtCsiTraAjBDcu4_5alloc11collections5btree3setINtB5_4IterNtNtCsc29TF2YcYso_3syn8lifetime8LifetimeENtNtNtNtCsaNl6UpbT7bw_4core4iter6traits8iterator8Iterator4nextCs87DMVckFIdB_12serde_derive, symObjAddr: 0x4DBC, symBinAddr: 0x51B6C, symSize: 0x6C }
  - { offset: 0xB746F, size: 0x8, addend: 0x0, symName: __RNvXsu_NtNtNtCsiTraAjBDcu4_5alloc11collections5btree3setINtB5_4IterNtNtNtCs87DMVckFIdB_12serde_derive9internals4name4NameENtNtNtNtCsaNl6UpbT7bw_4core4iter6traits8iterator8Iterator4nextB19_, symObjAddr: 0x4E28, symBinAddr: 0x51BD8, symSize: 0x6C }
  - { offset: 0xB77D4, size: 0x8, addend: 0x0, symName: __RNvNtCsiTraAjBDcu4_5alloc3fmt6formatCs87DMVckFIdB_12serde_derive, symObjAddr: 0x1BB0, symBinAddr: 0x4E960, symSize: 0xD4 }
  - { offset: 0xB7B98, size: 0x8, addend: 0x0, symName: __RINvMsc_NtNtNtCsiTraAjBDcu4_5alloc11collections5btree3setINtB6_8BTreeSetNtNtCsc29TF2YcYso_3syn8lifetime8LifetimeE8containsB18_ECs87DMVckFIdB_12serde_derive, symObjAddr: 0xF0, symBinAddr: 0x4CF60, symSize: 0x54 }
  - { offset: 0xB7C33, size: 0x8, addend: 0x0, symName: __RINvNtCs4EAaWzSXu1l_5quote9___private8get_spanNtCshnvkK9b4wzu_11proc_macro24SpanECs87DMVckFIdB_12serde_derive, symObjAddr: 0x144, symBinAddr: 0x4CFB4, symSize: 0x20 }
  - { offset: 0xB7CEB, size: 0x8, addend: 0x0, symName: __RNvXs2_NtNtCs4EAaWzSXu1l_5quote9___private3extSNtNtCsc29TF2YcYso_3syn4expr6MemberNtB5_16RepAsIteratorExt15quote_into_iterCs87DMVckFIdB_12serde_derive, symObjAddr: 0x2D34, symBinAddr: 0x4FAE4, symSize: 0x38 }
  - { offset: 0xB7D26, size: 0x8, addend: 0x0, symName: __RNvXs5_NtNtCs4EAaWzSXu1l_5quote9___private3extINtNtNtNtCsiTraAjBDcu4_5alloc11collections5btree3set8BTreeSetNtNtNtCs87DMVckFIdB_12serde_derive9internals4name4NameENtB5_16RepAsIteratorExt15quote_into_iterB1N_, symObjAddr: 0x30F4, symBinAddr: 0x4FEA4, symSize: 0x54 }
  - { offset: 0xB7D62, size: 0x8, addend: 0x0, symName: __RNvXs5_NtCs4EAaWzSXu1l_5quote9___privateINtB5_9RepInterpNtCshnvkK9b4wzu_11proc_macro211TokenStreamENtNtB7_9to_tokens8ToTokens9to_tokensCs87DMVckFIdB_12serde_derive, symObjAddr: 0x2DAC, symBinAddr: 0x4FB5C, symSize: 0x3C }
  - { offset: 0xB7DA1, size: 0x8, addend: 0x0, symName: __RNvXs5_NtCs4EAaWzSXu1l_5quote9___privateINtB5_9RepInterpNtCshnvkK9b4wzu_11proc_macro25IdentENtNtB7_9to_tokens8ToTokens9to_tokensCs87DMVckFIdB_12serde_derive, symObjAddr: 0x2DE8, symBinAddr: 0x4FB98, symSize: 0x3C }
  - { offset: 0xB7DE0, size: 0x8, addend: 0x0, symName: __RNvXs5_NtCs4EAaWzSXu1l_5quote9___privateINtB5_9RepInterpNtCshnvkK9b4wzu_11proc_macro27LiteralENtNtB7_9to_tokens8ToTokens9to_tokensCs87DMVckFIdB_12serde_derive, symObjAddr: 0x2E24, symBinAddr: 0x4FBD4, symSize: 0x3C }
  - { offset: 0xB7E1F, size: 0x8, addend: 0x0, symName: __RNvXs5_NtCs4EAaWzSXu1l_5quote9___privateINtB5_9RepInterpNtNtCs87DMVckFIdB_12serde_derive8fragment4ExprENtNtB7_9to_tokens8ToTokens9to_tokensBW_, symObjAddr: 0x2E60, symBinAddr: 0x4FC10, symSize: 0x3C }
  - { offset: 0xB7E5E, size: 0x8, addend: 0x0, symName: __RNvXs5_NtCs4EAaWzSXu1l_5quote9___privateINtB5_9RepInterpNtNtCsc29TF2YcYso_3syn4expr6MemberENtNtB7_9to_tokens8ToTokens9to_tokensCs87DMVckFIdB_12serde_derive, symObjAddr: 0x2E9C, symBinAddr: 0x4FC4C, symSize: 0x3C }
  - { offset: 0xB7E9D, size: 0x8, addend: 0x0, symName: __RNvXs5_NtCs4EAaWzSXu1l_5quote9___privateINtB5_9RepInterpRNtCs87DMVckFIdB_12serde_derive7privateENtNtB7_9to_tokens8ToTokens9to_tokensBV_, symObjAddr: 0x2ED8, symBinAddr: 0x4FC88, symSize: 0x3C }
  - { offset: 0xB7EDC, size: 0x8, addend: 0x0, symName: __RNvXs5_NtCs4EAaWzSXu1l_5quote9___privateINtB5_9RepInterpRNtCshnvkK9b4wzu_11proc_macro211TokenStreamENtNtB7_9to_tokens8ToTokens9to_tokensCs87DMVckFIdB_12serde_derive, symObjAddr: 0x2F14, symBinAddr: 0x4FCC4, symSize: 0x3C }
  - { offset: 0xB7F1B, size: 0x8, addend: 0x0, symName: __RNvXs5_NtCs4EAaWzSXu1l_5quote9___privateINtB5_9RepInterpRNtCshnvkK9b4wzu_11proc_macro25IdentENtNtB7_9to_tokens8ToTokens9to_tokensCs87DMVckFIdB_12serde_derive, symObjAddr: 0x2F50, symBinAddr: 0x4FD00, symSize: 0x3C }
  - { offset: 0xB7F5A, size: 0x8, addend: 0x0, symName: __RNvXs5_NtCs4EAaWzSXu1l_5quote9___privateINtB5_9RepInterpRNtNtCsc29TF2YcYso_3syn2ty4TypeENtNtB7_9to_tokens8ToTokens9to_tokensCs87DMVckFIdB_12serde_derive, symObjAddr: 0x2F8C, symBinAddr: 0x4FD3C, symSize: 0x3C }
  - { offset: 0xB7F99, size: 0x8, addend: 0x0, symName: __RNvXs5_NtCs4EAaWzSXu1l_5quote9___privateINtB5_9RepInterpRNtNtCsc29TF2YcYso_3syn4expr6MemberENtNtB7_9to_tokens8ToTokens9to_tokensCs87DMVckFIdB_12serde_derive, symObjAddr: 0x2FC8, symBinAddr: 0x4FD78, symSize: 0x3C }
  - { offset: 0xB7FD8, size: 0x8, addend: 0x0, symName: __RNvXs5_NtCs4EAaWzSXu1l_5quote9___privateINtB5_9RepInterpRNtNtNtCs87DMVckFIdB_12serde_derive9internals4name4NameENtNtB7_9to_tokens8ToTokens9to_tokensBZ_, symObjAddr: 0x3004, symBinAddr: 0x4FDB4, symSize: 0x3C }
  - { offset: 0xB8017, size: 0x8, addend: 0x0, symName: __RNvXs5_NtCs4EAaWzSXu1l_5quote9___privateINtB5_9RepInterpRRNtCshnvkK9b4wzu_11proc_macro25IdentENtNtB7_9to_tokens8ToTokens9to_tokensCs87DMVckFIdB_12serde_derive, symObjAddr: 0x3040, symBinAddr: 0x4FDF0, symSize: 0x3C }
  - { offset: 0xB8056, size: 0x8, addend: 0x0, symName: __RNvXs5_NtCs4EAaWzSXu1l_5quote9___privateINtB5_9RepInterpRRNtNtCsc29TF2YcYso_3syn2ty4TypeENtNtB7_9to_tokens8ToTokens9to_tokensCs87DMVckFIdB_12serde_derive, symObjAddr: 0x307C, symBinAddr: 0x4FE2C, symSize: 0x3C }
  - { offset: 0xB8095, size: 0x8, addend: 0x0, symName: __RNvXs5_NtCs4EAaWzSXu1l_5quote9___privateINtB5_9RepInterpRRNtNtCsc29TF2YcYso_3syn4expr6MemberENtNtB7_9to_tokens8ToTokens9to_tokensCs87DMVckFIdB_12serde_derive, symObjAddr: 0x30B8, symBinAddr: 0x4FE68, symSize: 0x3C }
  - { offset: 0xB80DA, size: 0x8, addend: 0x0, symName: __RNvXs7_NtCs4EAaWzSXu1l_5quote9___privateINtB5_20IdentFragmentAdapterRjENtNtCsaNl6UpbT7bw_4core3fmt7Display3fmtCs87DMVckFIdB_12serde_derive, symObjAddr: 0x4980, symBinAddr: 0x51730, symSize: 0x3C }
  - { offset: 0xB8126, size: 0x8, addend: 0x0, symName: __RNvYINtNtCs4EAaWzSXu1l_5quote9___private11HasIteratorKb1_EINtB5_16CheckHasIteratorKBQ_E5checkCs87DMVckFIdB_12serde_derive, symObjAddr: 0x4E94, symBinAddr: 0x51C44, symSize: 0x1C }
  - { offset: 0xB8359, size: 0x8, addend: 0x0, symName: __RNvXNtCs4EAaWzSXu1l_5quote14ident_fragmentRjNtB2_13IdentFragment3fmtCs87DMVckFIdB_12serde_derive, symObjAddr: 0x2AA4, symBinAddr: 0x4F854, symSize: 0x40 }
  - { offset: 0xB839C, size: 0x8, addend: 0x0, symName: __RNvXNtCs4EAaWzSXu1l_5quote14ident_fragmentRjNtB2_13IdentFragment4spanCs87DMVckFIdB_12serde_derive, symObjAddr: 0x2AE4, symBinAddr: 0x4F894, symSize: 0x38 }
  - { offset: 0xB83D7, size: 0x8, addend: 0x0, symName: __RNvYjNtNtCs4EAaWzSXu1l_5quote14ident_fragment13IdentFragment4spanCs87DMVckFIdB_12serde_derive, symObjAddr: 0x4F90, symBinAddr: 0x51D40, symSize: 0x2C }
  - { offset: 0xB8418, size: 0x8, addend: 0x0, symName: __RNvXNtCs4EAaWzSXu1l_5quote9to_tokensRNtNtCsc29TF2YcYso_3syn4expr6MemberNtB2_8ToTokens9to_tokensCs87DMVckFIdB_12serde_derive, symObjAddr: 0x2B1C, symBinAddr: 0x4F8CC, symSize: 0x40 }
  - { offset: 0xB8457, size: 0x8, addend: 0x0, symName: __RNvXNtCs4EAaWzSXu1l_5quote9to_tokensRNtNtCsc29TF2YcYso_3syn4expr8ExprPathNtB2_8ToTokens9to_tokensCs87DMVckFIdB_12serde_derive, symObjAddr: 0x2B5C, symBinAddr: 0x4F90C, symSize: 0x40 }
  - { offset: 0xB8496, size: 0x8, addend: 0x0, symName: __RNvXNtCs4EAaWzSXu1l_5quote9to_tokensRRNtNtCsc29TF2YcYso_3syn4expr6MemberNtB2_8ToTokens9to_tokensCs87DMVckFIdB_12serde_derive, symObjAddr: 0x2B9C, symBinAddr: 0x4F94C, symSize: 0x40 }
  - { offset: 0xB84DB, size: 0x8, addend: 0x0, symName: __RNvYRNtNtCsc29TF2YcYso_3syn4expr8ExprPathNtNtCs4EAaWzSXu1l_5quote9to_tokens8ToTokens15to_token_streamCs87DMVckFIdB_12serde_derive, symObjAddr: 0x4EB0, symBinAddr: 0x51C60, symSize: 0x8C }
  - { offset: 0xB8525, size: 0x8, addend: 0x0, symName: __RNvYRNtNtCsc29TF2YcYso_3syn4expr8ExprPathNtNtCs4EAaWzSXu1l_5quote9to_tokens8ToTokens17into_token_streamCs87DMVckFIdB_12serde_derive, symObjAddr: 0x4F3C, symBinAddr: 0x51CEC, symSize: 0x54 }
  - { offset: 0xB8566, size: 0x8, addend: 0x0, symName: __RNvXs0_NtCs4EAaWzSXu1l_5quote7spannedNtNtCsc29TF2YcYso_3syn4expr8ExprPathNtB5_7Spanned6___spanCs87DMVckFIdB_12serde_derive, symObjAddr: 0x2C90, symBinAddr: 0x4FA40, symSize: 0x44 }
  - { offset: 0xB8F3B, size: 0x8, addend: 0x0, symName: __RNvMs3_NtCs4EAaWzSXu1l_5quote9___privateINtB5_9RepInterpRNtCs87DMVckFIdB_12serde_derive7privateE4nextBV_, symObjAddr: 0xF68, symBinAddr: 0x4DD18, symSize: 0x2C }
  - { offset: 0xB8F73, size: 0x8, addend: 0x0, symName: __RNvMs6_NtCs4EAaWzSXu1l_5quote9___privateINtB5_20IdentFragmentAdapterRjE4spanCs87DMVckFIdB_12serde_derive, symObjAddr: 0xF94, symBinAddr: 0x4DD44, symSize: 0x34 }
  - { offset: 0xB9486, size: 0x8, addend: 0x0, symName: __RNvMsb_NtNtNtCsiTraAjBDcu4_5alloc11collections5btree3setINtB5_8BTreeSetNtNtCsc29TF2YcYso_3syn8lifetime8LifetimeE3newCs87DMVckFIdB_12serde_derive, symObjAddr: 0x1718, symBinAddr: 0x4E4C8, symSize: 0x40 }
  - { offset: 0xB94D1, size: 0x8, addend: 0x0, symName: __RNvMsb_NtNtNtCsiTraAjBDcu4_5alloc11collections5btree3setINtB5_8BTreeSetNtNtNtCs87DMVckFIdB_12serde_derive9internals4name4NameE3newB1d_, symObjAddr: 0x1758, symBinAddr: 0x4E508, symSize: 0x40 }
  - { offset: 0xB9608, size: 0x8, addend: 0x0, symName: __RNvMsc_NtNtNtCsiTraAjBDcu4_5alloc11collections5btree3setINtB5_8BTreeSetNtNtCsc29TF2YcYso_3syn8lifetime8LifetimeE4iterCs87DMVckFIdB_12serde_derive, symObjAddr: 0x1798, symBinAddr: 0x4E548, symSize: 0x150 }
  - { offset: 0xB9751, size: 0x8, addend: 0x0, symName: __RNvMsc_NtNtNtCsiTraAjBDcu4_5alloc11collections5btree3setINtB5_8BTreeSetNtNtCsc29TF2YcYso_3syn8lifetime8LifetimeE6insertCs87DMVckFIdB_12serde_derive, symObjAddr: 0x18E8, symBinAddr: 0x4E698, symSize: 0x40 }
  - { offset: 0xB9819, size: 0x8, addend: 0x0, symName: __RNvMsc_NtNtNtCsiTraAjBDcu4_5alloc11collections5btree3setINtB5_8BTreeSetNtNtCsc29TF2YcYso_3syn8lifetime8LifetimeE8is_emptyCs87DMVckFIdB_12serde_derive, symObjAddr: 0x1928, symBinAddr: 0x4E6D8, symSize: 0x20 }
  - { offset: 0xB99A0, size: 0x8, addend: 0x0, symName: __RNvMsc_NtNtNtCsiTraAjBDcu4_5alloc11collections5btree3setINtB5_8BTreeSetNtNtNtCs87DMVckFIdB_12serde_derive9internals4name4NameE4iterB1d_, symObjAddr: 0x1948, symBinAddr: 0x4E6F8, symSize: 0x150 }
  - { offset: 0xB9AE9, size: 0x8, addend: 0x0, symName: __RNvMsc_NtNtNtCsiTraAjBDcu4_5alloc11collections5btree3setINtB5_8BTreeSetNtNtNtCs87DMVckFIdB_12serde_derive9internals4name4NameE6insertB1d_, symObjAddr: 0x1A98, symBinAddr: 0x4E848, symSize: 0x40 }
  - { offset: 0xBBC2B, size: 0x8, addend: 0x0, symName: __RINvMNtCsiTraAjBDcu4_5alloc5sliceSNtNtCsc29TF2YcYso_3syn4path11PathSegment8into_vecNtNtB5_5alloc6GlobalECs87DMVckFIdB_12serde_derive, symObjAddr: 0x0, symBinAddr: 0x58B20, symSize: 0x9C }
  - { offset: 0xC1073, size: 0x8, addend: 0x0, symName: __RNvXs0_NtCsc29TF2YcYso_3syn5dropsINtB5_6NoDropDINtNtB7_10punctuated12IterMutTraitNtNtB7_2ty4TypeEp4ItemQB1h_EL_ENtNtNtCsaNl6UpbT7bw_4core3ops5deref8DerefMut9deref_mutCs87DMVckFIdB_12serde_derive, symObjAddr: 0x46A4, symBinAddr: 0x5D1C4, symSize: 0x3C }
  - { offset: 0xC10A8, size: 0x8, addend: 0x0, symName: __RNvXs0_NtCsc29TF2YcYso_3syn5dropsINtB5_6NoDropDINtNtB7_10punctuated12IterMutTraitNtNtB7_2ty9BareFnArgEp4ItemQB1h_EL_ENtNtNtCsaNl6UpbT7bw_4core3ops5deref8DerefMut9deref_mutCs87DMVckFIdB_12serde_derive, symObjAddr: 0x46E0, symBinAddr: 0x5D200, symSize: 0x3C }
  - { offset: 0xC10DD, size: 0x8, addend: 0x0, symName: __RNvXs0_NtCsc29TF2YcYso_3syn5dropsINtB5_6NoDropDINtNtB7_10punctuated12IterMutTraitNtNtB7_4data5FieldEp4ItemQB1h_EL_ENtNtNtCsaNl6UpbT7bw_4core3ops5deref8DerefMut9deref_mutCs87DMVckFIdB_12serde_derive, symObjAddr: 0x471C, symBinAddr: 0x5D23C, symSize: 0x3C }
  - { offset: 0xC1112, size: 0x8, addend: 0x0, symName: __RNvXs0_NtCsc29TF2YcYso_3syn5dropsINtB5_6NoDropDINtNtB7_10punctuated12IterMutTraitNtNtB7_4data7VariantEp4ItemQB1h_EL_ENtNtNtCsaNl6UpbT7bw_4core3ops5deref8DerefMut9deref_mutCs87DMVckFIdB_12serde_derive, symObjAddr: 0x4758, symBinAddr: 0x5D278, symSize: 0x3C }
  - { offset: 0xC1147, size: 0x8, addend: 0x0, symName: __RNvXs0_NtCsc29TF2YcYso_3syn5dropsINtB5_6NoDropDINtNtB7_10punctuated12IterMutTraitNtNtB7_4expr4ExprEp4ItemQB1h_EL_ENtNtNtCsaNl6UpbT7bw_4core3ops5deref8DerefMut9deref_mutCs87DMVckFIdB_12serde_derive, symObjAddr: 0x4794, symBinAddr: 0x5D2B4, symSize: 0x3C }
  - { offset: 0xC117C, size: 0x8, addend: 0x0, symName: __RNvXs0_NtCsc29TF2YcYso_3syn5dropsINtB5_6NoDropDINtNtB7_10punctuated12IterMutTraitNtNtB7_4path15GenericArgumentEp4ItemQB1h_EL_ENtNtNtCsaNl6UpbT7bw_4core3ops5deref8DerefMut9deref_mutCs87DMVckFIdB_12serde_derive, symObjAddr: 0x47D0, symBinAddr: 0x5D2F0, symSize: 0x3C }
  - { offset: 0xC11B1, size: 0x8, addend: 0x0, symName: __RNvXs0_NtCsc29TF2YcYso_3syn5dropsINtB5_6NoDropDINtNtB7_10punctuated12IterMutTraitNtNtB7_8generics14TypeParamBoundEp4ItemQB1h_EL_ENtNtNtCsaNl6UpbT7bw_4core3ops5deref8DerefMut9deref_mutCs87DMVckFIdB_12serde_derive, symObjAddr: 0x480C, symBinAddr: 0x5D32C, symSize: 0x3C }
  - { offset: 0xC11E6, size: 0x8, addend: 0x0, symName: __RNvXs0_NtCsc29TF2YcYso_3syn5dropsINtB5_6NoDropDINtNtB7_10punctuated12IterMutTraitNtNtB7_8generics14WherePredicateEp4ItemQB1h_EL_ENtNtNtCsaNl6UpbT7bw_4core3ops5deref8DerefMut9deref_mutCs87DMVckFIdB_12serde_derive, symObjAddr: 0x4848, symBinAddr: 0x5D368, symSize: 0x3C }
  - { offset: 0xC121B, size: 0x8, addend: 0x0, symName: __RNvXs0_NtCsc29TF2YcYso_3syn5dropsINtB5_6NoDropDINtNtB7_10punctuated9IterTraitNtNtB7_2ty4TypeEp4ItemRB1d_EL_ENtNtNtCsaNl6UpbT7bw_4core3ops5deref8DerefMut9deref_mutCs87DMVckFIdB_12serde_derive, symObjAddr: 0x4884, symBinAddr: 0x5D3A4, symSize: 0x3C }
  - { offset: 0xC1250, size: 0x8, addend: 0x0, symName: __RNvXs0_NtCsc29TF2YcYso_3syn5dropsINtB5_6NoDropDINtNtB7_10punctuated9IterTraitNtNtB7_2ty9BareFnArgEp4ItemRB1d_EL_ENtNtNtCsaNl6UpbT7bw_4core3ops5deref8DerefMut9deref_mutCs87DMVckFIdB_12serde_derive, symObjAddr: 0x48C0, symBinAddr: 0x5D3E0, symSize: 0x3C }
  - { offset: 0xC1285, size: 0x8, addend: 0x0, symName: __RNvXs0_NtCsc29TF2YcYso_3syn5dropsINtB5_6NoDropDINtNtB7_10punctuated9IterTraitNtNtB7_4data7VariantEp4ItemRB1d_EL_ENtNtNtCsaNl6UpbT7bw_4core3ops5deref8DerefMut9deref_mutCs87DMVckFIdB_12serde_derive, symObjAddr: 0x48FC, symBinAddr: 0x5D41C, symSize: 0x3C }
  - { offset: 0xC12BA, size: 0x8, addend: 0x0, symName: __RNvXs0_NtCsc29TF2YcYso_3syn5dropsINtB5_6NoDropDINtNtB7_10punctuated9IterTraitNtNtB7_4path15GenericArgumentEp4ItemRB1d_EL_ENtNtNtCsaNl6UpbT7bw_4core3ops5deref8DerefMut9deref_mutCs87DMVckFIdB_12serde_derive, symObjAddr: 0x4938, symBinAddr: 0x5D458, symSize: 0x3C }
  - { offset: 0xC12F5, size: 0x8, addend: 0x0, symName: __RNvXs_NtCsc29TF2YcYso_3syn5dropsINtB4_6NoDropDINtNtB6_10punctuated9IterTraitNtNtB6_4data7VariantEp4ItemRB1c_EL_ENtNtNtCsaNl6UpbT7bw_4core3ops5deref5Deref5derefCs87DMVckFIdB_12serde_derive, symObjAddr: 0x7300, symBinAddr: 0x5FE20, symSize: 0x3C }
  - { offset: 0xC14F8, size: 0x8, addend: 0x0, symName: __RNvXNtCsc29TF2YcYso_3syn11parse_quoteNtNtB4_4path4PathNtB2_10ParseQuote5parseCs87DMVckFIdB_12serde_derive, symObjAddr: 0x4248, symBinAddr: 0x5CD68, symSize: 0x34 }
  - { offset: 0xC305A, size: 0x8, addend: 0x0, symName: __RINvMNtCsiTraAjBDcu4_5alloc5sliceSNtNtCsc29TF2YcYso_3syn4path11PathSegment8into_vecNtNtB5_5alloc6GlobalECs87DMVckFIdB_12serde_derive, symObjAddr: 0x0, symBinAddr: 0x58B20, symSize: 0x9C }
  - { offset: 0xC326A, size: 0x8, addend: 0x0, symName: __RNvXNvXNvMNtCsiTraAjBDcu4_5alloc5sliceSp9to_vec_inpNtB5_10ConvertVec6to_vecINtB2_9DropGuardNtNtCsc29TF2YcYso_3syn8generics14WherePredicateNtNtBa_5alloc6GlobalENtNtNtCsaNl6UpbT7bw_4core3ops4drop4Drop4dropCs87DMVckFIdB_12serde_derive, symObjAddr: 0x4684, symBinAddr: 0x5D1A4, symSize: 0x20 }
  - { offset: 0xC345E, size: 0x8, addend: 0x0, symName: __RNCNvMs6_NtNtNtNtCsiTraAjBDcu4_5alloc11collections5btree3map5entryINtB7_11VacantEntryNtNtCsc29TF2YcYso_3syn8lifetime8LifetimeNtNtBb_7set_val9SetValZSTE12insert_entry0Cs87DMVckFIdB_12serde_derive, symObjAddr: 0x318C, symBinAddr: 0x5BCAC, symSize: 0x158 }
  - { offset: 0xC35B8, size: 0x8, addend: 0x0, symName: __RNCNvMs6_NtNtNtNtCsiTraAjBDcu4_5alloc11collections5btree3map5entryINtB7_11VacantEntryNtNtNtCs87DMVckFIdB_12serde_derive9internals4name4NameNtNtBb_7set_val9SetValZSTE12insert_entry0B1r_, symObjAddr: 0x32E4, symBinAddr: 0x5BE04, symSize: 0x154 }
  - { offset: 0xC4D56, size: 0x8, addend: 0x0, symName: __RINvNtNtNtCs7yrEGia95Wz_10proc_macro6bridge6client5state3setINtNtCsaNl6UpbT7bw_4core6option6OptionNtB4_11TokenStreamENCNCINvB4_10run_clientB1y_BW_NCNCINvMs6_B4_INtB4_6ClientNtB8_11TokenStreamB2L_E7expand1NvCs87DMVckFIdB_12serde_derive16derive_serializeE00E00EB3i_, symObjAddr: 0x124, symBinAddr: 0x58C44, symSize: 0xE8 }
  - { offset: 0xC4E2B, size: 0x8, addend: 0x0, symName: __RINvNtNtNtCs7yrEGia95Wz_10proc_macro6bridge6client5state3setINtNtCsaNl6UpbT7bw_4core6option6OptionNtB4_11TokenStreamENCNCINvB4_10run_clientB1y_BW_NCNCINvMs6_B4_INtB4_6ClientNtB8_11TokenStreamB2L_E7expand1NvCs87DMVckFIdB_12serde_derive18derive_deserializeE00E00EB3i_, symObjAddr: 0x20C, symBinAddr: 0x58D2C, symSize: 0xE8 }
  - { offset: 0xC4F0A, size: 0x8, addend: 0x0, symName: __RNCNkNvNtNtNtCs7yrEGia95Wz_10proc_macro6bridge6client5state12BRIDGE_STATE0s_0Cs87DMVckFIdB_12serde_derive, symObjAddr: 0x315C, symBinAddr: 0x5BC7C, symSize: 0x30 }
  - { offset: 0xC5570, size: 0x8, addend: 0x0, symName: __RINvXsg_Cs7yrEGia95Wz_10proc_macroNtB6_11TokenStreamINtNtNtNtCsaNl6UpbT7bw_4core4iter6traits7collect12FromIteratorNtB6_9TokenTreeE9from_iterINtNtNtBV_8adapters3map3MapIB2f_NtNtCshnvkK9b4wzu_11proc_macro212token_stream8IntoIterNCNvNtNtCs87DMVckFIdB_12serde_derive9internals6respan6respan0ENvNtB2O_3imp19into_compiler_tokenEEB3K_, symObjAddr: 0xCA8, symBinAddr: 0x597C8, symSize: 0x104 }
  - { offset: 0xC55DA, size: 0x8, addend: 0x0, symName: __RNCINvXsg_Cs7yrEGia95Wz_10proc_macroNtB8_11TokenStreamINtNtNtNtCsaNl6UpbT7bw_4core4iter6traits7collect12FromIteratorNtB8_9TokenTreeE9from_iterINtNtNtBX_8adapters3map3MapIB2h_NtNtCshnvkK9b4wzu_11proc_macro212token_stream8IntoIterNCNvNtNtCs87DMVckFIdB_12serde_derive9internals6respan6respan0ENvNtB2Q_3imp19into_compiler_tokenEE0B3M_, symObjAddr: 0x3134, symBinAddr: 0x5BC54, symSize: 0x28 }
  - { offset: 0xC5655, size: 0x8, addend: 0x0, symName: __RNvXs1e_Cs7yrEGia95Wz_10proc_macroNtB6_5IdentNtNtCsaNl6UpbT7bw_4core5clone5Clone5cloneCs87DMVckFIdB_12serde_derive, symObjAddr: 0x69B0, symBinAddr: 0x5F4D0, symSize: 0x40 }
  - { offset: 0xC5689, size: 0x8, addend: 0x0, symName: __RNvXsU_Cs7yrEGia95Wz_10proc_macroNtB5_11TokenStreamNtNtCsaNl6UpbT7bw_4core5clone5Clone5cloneCs87DMVckFIdB_12serde_derive, symObjAddr: 0x729C, symBinAddr: 0x5FDBC, symSize: 0x64 }
  - { offset: 0xCB2A6, size: 0x8, addend: 0x0, symName: __RINvNtCsaNl6UpbT7bw_4core9panicking13panic_displayNtNtCsc29TF2YcYso_3syn5error5ErrorECs87DMVckFIdB_12serde_derive, symObjAddr: 0x9C, symBinAddr: 0x58BBC, symSize: 0x88 }
  - { offset: 0xCB3A7, size: 0x8, addend: 0x0, symName: __RINvXs0_NtNtNtCsaNl6UpbT7bw_4core4iter8adapters3mapINtB6_3MapIBO_NtNtCsc29TF2YcYso_3syn8generics10TypeParamsNCNvNtCs87DMVckFIdB_12serde_derive5bound10with_bound0ENCINvXs8_NtCsg4dki62PTrg_9hashbrown3setINtB2J_7HashSetNtCshnvkK9b4wzu_11proc_macro25IdentNtNtNtCsht3nMU9UgFu_3std4hash6random11RandomStateEINtNtNtBa_6traits7collect6ExtendB3s_E6extendBX_E0ENtNtB4U_8iterator8Iterator4folduNCINvNvB5D_8for_each4callTB3s_uENCINvXs1i_NtB2L_3mapINtB6P_7HashMapB3s_uB41_EIB4Q_B6y_E6extendBN_E0E0EB1O_, symObjAddr: 0x548, symBinAddr: 0x59068, symSize: 0x34 }
  - { offset: 0xCB418, size: 0x8, addend: 0x0, symName: __RINvXs0_NtNtNtCsaNl6UpbT7bw_4core4iter8adapters3mapINtB6_3MapIBO_NtNtCshnvkK9b4wzu_11proc_macro212token_stream8IntoIterNCNvNtNtCs87DMVckFIdB_12serde_derive9internals6respan6respan0ENvNtB15_3imp19into_compiler_tokenENtNtNtBa_6traits8iterator8Iterator4folduNCINvNvB3r_8for_each4callNtCs7yrEGia95Wz_10proc_macro9TokenTreeNCINvXsg_B4w_NtB4w_11TokenStreamINtNtB3v_7collect12FromIteratorB4u_E9from_iterBN_E0E0EB21_, symObjAddr: 0x57C, symBinAddr: 0x5909C, symSize: 0x4C }
  - { offset: 0xCB48A, size: 0x8, addend: 0x0, symName: __RINvXs0_NtNtNtCsaNl6UpbT7bw_4core4iter8adapters3mapINtB6_3MapINtNtB8_8peekable8PeekableINtNtB8_6filter6FilterINtNtB8_9enumerate9EnumerateINtNtNtBc_5slice4iter4IterNtNtNtCs87DMVckFIdB_12serde_derive9internals3ast5FieldEENCNvNtB2H_3ser22serialize_tuple_struct0EENCB3x_s_0ENtNtNtBa_6traits8iterator8Iterator4foldNtCshnvkK9b4wzu_11proc_macro211TokenStreamNCB3x_s0_0EB2H_, symObjAddr: 0x5C8, symBinAddr: 0x590E8, symSize: 0x5C }
  - { offset: 0xCB501, size: 0x8, addend: 0x0, symName: __RINvXs0_NtNtNtCsaNl6UpbT7bw_4core4iter8adapters3mapINtB6_3MapINtNtB8_8peekable8PeekableINtNtB8_6filter6FilterINtNtB8_9enumerate9EnumerateINtNtNtBc_5slice4iter4IterNtNtNtCs87DMVckFIdB_12serde_derive9internals3ast5FieldEENCNvNtB2H_3ser23serialize_tuple_variant0EENCB3x_s_0ENtNtNtBa_6traits8iterator8Iterator4foldNtCshnvkK9b4wzu_11proc_macro211TokenStreamNCB3x_s0_0EB2H_, symObjAddr: 0x624, symBinAddr: 0x59144, symSize: 0x50 }
  - { offset: 0xCB578, size: 0x8, addend: 0x0, symName: __RINvXs0_NtNtNtCsaNl6UpbT7bw_4core4iter8adapters3mapINtB6_3MapINtNtB8_8peekable8PeekableINtNtB8_6filter6FilterINtNtNtBc_5slice4iter4IterNtNtNtCs87DMVckFIdB_12serde_derive9internals3ast5FieldENCNvNtB2f_3ser24serialize_struct_variants_0EENCB34_s0_0ENtNtNtBa_6traits8iterator8Iterator4foldNtCshnvkK9b4wzu_11proc_macro211TokenStreamNCB34_s1_0EB2f_, symObjAddr: 0x674, symBinAddr: 0x59194, symSize: 0x34 }
  - { offset: 0xCB5EF, size: 0x8, addend: 0x0, symName: __RINvXs0_NtNtNtCsaNl6UpbT7bw_4core4iter8adapters3mapINtB6_3MapINtNtB8_8peekable8PeekableINtNtB8_6filter6FilterINtNtNtBc_5slice4iter4IterNtNtNtCs87DMVckFIdB_12serde_derive9internals3ast5FieldENCNvNtB2f_3ser26serialize_struct_as_struct0EENCB34_s_0ENtNtNtBa_6traits8iterator8Iterator4foldNtCshnvkK9b4wzu_11proc_macro211TokenStreamNCB34_s0_0EB2f_, symObjAddr: 0x6A8, symBinAddr: 0x591C8, symSize: 0x3C }
  - { offset: 0xCB666, size: 0x8, addend: 0x0, symName: __RINvXs0_NtNtNtCsaNl6UpbT7bw_4core4iter8adapters3mapINtB6_3MapINtNtB8_9enumerate9EnumerateINtNtNtBc_5slice4iter4IterNtNtNtCs87DMVckFIdB_12serde_derive9internals3ast5FieldEENCNvNtNtB1V_2de7struct_15deserialize_map0ENtNtNtBa_6traits8iterator8Iterator4folduNCINvNvB3p_8for_each4callTRB1P_NtCshnvkK9b4wzu_11proc_macro25IdentENCINvMsi_NtCsiTraAjBDcu4_5alloc3vecINtB5h_3VecB4s_E14extend_trustedBN_E0E0EB1V_, symObjAddr: 0x6E4, symBinAddr: 0x59204, symSize: 0x4C }
  - { offset: 0xCB6FF, size: 0x8, addend: 0x0, symName: __RINvXs0_NtNtNtCsaNl6UpbT7bw_4core4iter8adapters3mapINtB6_3MapINtNtB8_9enumerate9EnumerateINtNtNtBc_5slice4iter4IterNtNtNtCs87DMVckFIdB_12serde_derive9internals3ast7VariantEENCNvNtB1V_3ser14serialize_enum0ENtNtNtBa_6traits8iterator8Iterator4folduNCINvNvB3h_8for_each4callNtCshnvkK9b4wzu_11proc_macro211TokenStreamNCINvMsi_NtCsiTraAjBDcu4_5alloc3vecINtB59_3VecB4k_E14extend_trustedBN_E0E0EB1V_, symObjAddr: 0x730, symBinAddr: 0x59250, symSize: 0x64 }
  - { offset: 0xCB798, size: 0x8, addend: 0x0, symName: __RINvXs0_NtNtNtCsaNl6UpbT7bw_4core4iter8adapters3mapINtB6_3MapINtNtNtBc_3ops5range5RangejENCNCNvNtCs87DMVckFIdB_12serde_derive7pretend21pretend_variants_used00ENtNtNtBa_6traits8iterator8Iterator4folduNCINvNvB2x_8for_each4callNtCshnvkK9b4wzu_11proc_macro25IdentNCINvMsi_NtCsiTraAjBDcu4_5alloc3vecINtB4i_3VecB3A_E14extend_trustedBN_E0E0EB1x_, symObjAddr: 0x794, symBinAddr: 0x592B4, symSize: 0x3C }
  - { offset: 0xCB830, size: 0x8, addend: 0x0, symName: __RINvXs0_NtNtNtCsaNl6UpbT7bw_4core4iter8adapters3mapINtB6_3MapINtNtNtBc_3ops5range5RangejENCNvNtCs87DMVckFIdB_12serde_derive3ser35serialize_adjacently_tagged_variants_0ENtNtNtBa_6traits8iterator8Iterator4folduNCINvNvB2G_8for_each4callNtNtCsc29TF2YcYso_3syn4expr6MemberNCINvMsi_NtCsiTraAjBDcu4_5alloc3vecINtB4q_3VecB3J_E14extend_trustedBN_E0E0EB1v_, symObjAddr: 0x7D0, symBinAddr: 0x592F0, symSize: 0x3C }
  - { offset: 0xCB8C8, size: 0x8, addend: 0x0, symName: __RINvXs0_NtNtNtCsaNl6UpbT7bw_4core4iter8adapters3mapINtB6_3MapINtNtNtBc_5slice4iter4IterNtNtCs87DMVckFIdB_12serde_derive2de16FieldWithAliasesENCNvNtB1p_10identifier21deserialize_generated0ENtNtNtBa_6traits8iterator8Iterator4folduNCINvNvB30_8for_each4callRNtCshnvkK9b4wzu_11proc_macro25IdentNCINvMsi_NtCsiTraAjBDcu4_5alloc3vecINtB4M_3VecB43_E14extend_trustedBN_E0E0EB1r_, symObjAddr: 0x80C, symBinAddr: 0x5932C, symSize: 0x44 }
  - { offset: 0xCB960, size: 0x8, addend: 0x0, symName: __RINvXs0_NtNtNtCsaNl6UpbT7bw_4core4iter8adapters3mapINtB6_3MapINtNtNtBc_5slice4iter4IterNtNtNtCs87DMVckFIdB_12serde_derive9internals3ast5FieldENCNvNtB1t_3ser27wrap_serialize_variant_with0ENtNtNtBa_6traits8iterator8Iterator4folduNCINvNvB2Z_8for_each4callRNtNtCsc29TF2YcYso_3syn2ty4TypeNCINvMsi_NtCsiTraAjBDcu4_5alloc3vecINtB4G_3VecB42_E14extend_trustedBN_E0E0EB1t_, symObjAddr: 0x850, symBinAddr: 0x59370, symSize: 0x44 }
  - { offset: 0xCB9F8, size: 0x8, addend: 0x0, symName: __RINvXs0_NtNtNtCsaNl6UpbT7bw_4core4iter8adapters3mapINtB6_3MapINtNtNtBc_5slice4iter4IterNtNtNtCs87DMVckFIdB_12serde_derive9internals3ast5FieldENCNvNtB1t_3ser27wrap_serialize_variant_withs_0ENtNtNtBa_6traits8iterator8Iterator4folduNCINvNvB31_8for_each4callNtCshnvkK9b4wzu_11proc_macro211TokenStreamNCINvMsi_NtCsiTraAjBDcu4_5alloc3vecINtB4T_3VecB44_E14extend_trustedBN_E0E0EB1t_, symObjAddr: 0x894, symBinAddr: 0x593B4, symSize: 0x44 }
  - { offset: 0xCBA90, size: 0x8, addend: 0x0, symName: __RINvXs0_NtNtNtCsaNl6UpbT7bw_4core4iter8adapters3mapINtB6_3MapINtNtNtBc_5slice4iter4IterNtNtNtCs87DMVckFIdB_12serde_derive9internals3ast5FieldENCNvNtB1t_3ser35serialize_adjacently_tagged_variants0_0ENtNtNtBa_6traits8iterator8Iterator4folduNCINvNvB3a_8for_each4callNtNtCsc29TF2YcYso_3syn4expr6MemberNCINvMsi_NtCsiTraAjBDcu4_5alloc3vecINtB4U_3VecB4d_E14extend_trustedBN_E0E0EB1t_, symObjAddr: 0x8D8, symBinAddr: 0x593F8, symSize: 0x44 }
  - { offset: 0xCBB28, size: 0x8, addend: 0x0, symName: __RINvXs0_NtNtNtCsaNl6UpbT7bw_4core4iter8adapters3mapINtB6_3MapINtNtNtBc_5slice4iter4IterNtNtNtCs87DMVckFIdB_12serde_derive9internals3ast5FieldENCNvNtB1t_3ser37serialize_struct_variant_with_flattens0_0ENtNtNtBa_6traits8iterator8Iterator4folduNCINvNvB3c_8for_each4callRNtNtCsc29TF2YcYso_3syn4expr6MemberNCINvMsi_NtCsiTraAjBDcu4_5alloc3vecINtB4X_3VecB4f_E14extend_trustedBN_E0E0EB1t_, symObjAddr: 0x91C, symBinAddr: 0x5943C, symSize: 0x44 }
  - { offset: 0xCBBC0, size: 0x8, addend: 0x0, symName: __RINvXs0_NtNtNtCsaNl6UpbT7bw_4core4iter8adapters3mapINtB6_3MapINtNtNtBc_5slice4iter4IterNtNtNtCs87DMVckFIdB_12serde_derive9internals3ast5FieldENCNvNtB1t_7pretend33pretend_fields_used_struct_packed0ENtNtNtBa_6traits8iterator8Iterator4folduNCINvNvB39_8for_each4callRNtNtCsc29TF2YcYso_3syn4expr6MemberNCINvMsi_NtCsiTraAjBDcu4_5alloc3vecINtB4U_3VecB4c_E14extend_trustedBN_E0E0EB1t_, symObjAddr: 0x960, symBinAddr: 0x59480, symSize: 0x44 }
  - { offset: 0xCBC58, size: 0x8, addend: 0x0, symName: __RINvXs0_NtNtNtCsaNl6UpbT7bw_4core4iter8adapters3mapINtB6_3MapINtNtNtBc_5slice4iter4IterNtNtNtCs87DMVckFIdB_12serde_derive9internals3ast7VariantENCNvMs_B1p_NtB1p_4Data10all_fields0ENtNtNtBa_6traits8iterator8Iterator8try_foldjNCINvNvMsg_NtB8_7flattenINtB3L_13FlattenCompatppE13iter_try_fold7flattenIBY_NtB1p_5FieldEjINtNtNtBc_3ops12control_flow11ControlFlowujEINvNvXsi_B3L_B3Y_B2S_10advance_by7advanceB4K_EE0B52_EB1t_, symObjAddr: 0x9A4, symBinAddr: 0x594C4, symSize: 0x58 }
  - { offset: 0xCBCFB, size: 0x8, addend: 0x0, symName: __RINvXs0_NtNtNtCsaNl6UpbT7bw_4core4iter8adapters3mapINtB6_3MapINtNtNtBc_5slice4iter4IterNtNtNtCs87DMVckFIdB_12serde_derive9internals3ast7VariantENCNvNtNtB1t_2de10identifier18deserialize_customs_0ENtNtNtBa_6traits8iterator8Iterator4folduNCINvNvB37_8for_each4callNtB2o_16FieldWithAliasesNCINvMsi_NtCsiTraAjBDcu4_5alloc3vecINtB4H_3VecB4a_E14extend_trustedBN_E0E0EB1t_, symObjAddr: 0x9FC, symBinAddr: 0x5951C, symSize: 0x44 }
  - { offset: 0xCBD93, size: 0x8, addend: 0x0, symName: __RINvXs0_NtNtNtCsaNl6UpbT7bw_4core4iter8adapters3mapINtB6_3MapINtNtNtBc_5slice4iter4IterhENCNvNtCsiTraAjBDcu4_5alloc3str13replace_ascii0ENtNtNtBa_6traits8iterator8Iterator4folduNCINvNvB2a_8for_each4callhNCINvMsi_NtB1v_3vecINtB3n_3VechE14extend_trustedBN_E0E0ECs87DMVckFIdB_12serde_derive, symObjAddr: 0xA40, symBinAddr: 0x59560, symSize: 0x58 }
  - { offset: 0xCBE2C, size: 0x8, addend: 0x0, symName: __RINvXs0_NtNtNtCsaNl6UpbT7bw_4core4iter8adapters3mapINtB6_3MapINtNtNtCsiTraAjBDcu4_5alloc3vec9into_iter8IntoIterTNtNtCsc29TF2YcYso_3syn8generics12GenericParamNtNtB1Q_5token5CommaEENCNvXs8_NtB1Q_10punctuatedINtB2Z_10PunctuatedB1M_B2v_ENtNtNtBa_6traits7collect12IntoIterator9into_iter0ENtNtB3N_8iterator8Iterator4folduNCINvNvB4x_8for_each4callB1M_NCINvMsi_B12_INtB12_3VecB1M_E14extend_trustedBN_E0E0ECs87DMVckFIdB_12serde_derive, symObjAddr: 0xA98, symBinAddr: 0x595B8, symSize: 0x4C }
  - { offset: 0xCBEC5, size: 0x8, addend: 0x0, symName: __RINvXs0_NtNtNtCsaNl6UpbT7bw_4core4iter8adapters3mapINtB6_3MapINtNtNtCsiTraAjBDcu4_5alloc3vec9into_iter8IntoIterTNtNtCsc29TF2YcYso_3syn8generics14WherePredicateNtNtB1Q_5token5CommaEENCNvXs8_NtB1Q_10punctuatedINtB31_10PunctuatedB1M_B2x_ENtNtNtBa_6traits7collect12IntoIterator9into_iter0ENtNtB3P_8iterator8Iterator4folduNCINvNvB4z_8for_each4callB1M_NCINvMsi_B12_INtB12_3VecB1M_E14extend_trustedBN_E0E0ECs87DMVckFIdB_12serde_derive, symObjAddr: 0xAE4, symBinAddr: 0x59604, symSize: 0x4C }
  - { offset: 0xCBF5E, size: 0x8, addend: 0x0, symName: __RINvXs0_NtNtNtCsaNl6UpbT7bw_4core4iter8adapters3mapINtB6_3MapNtNtCsc29TF2YcYso_3syn8generics10TypeParamsNCNvNtCs87DMVckFIdB_12serde_derive5bound10with_bound0ENtNtNtBa_6traits8iterator8Iterator4folduNCINvB6_8map_foldNtCshnvkK9b4wzu_11proc_macro25IdentTB3r_uEuNCINvXs8_NtCsg4dki62PTrg_9hashbrown3setINtB4h_7HashSetB3r_NtNtNtCsht3nMU9UgFu_3std4hash6random11RandomStateEINtNtB2A_7collect6ExtendB3r_E6extendBN_E0NCINvNvB2w_8for_each4callB40_NCINvXs1i_NtB4j_3mapINtB7a_7HashMapB3r_uB54_EIB5T_B40_E6extendIBO_BN_B48_EE0E0E0EB1K_, symObjAddr: 0xB30, symBinAddr: 0x59650, symSize: 0x34 }
  - { offset: 0xCBFCF, size: 0x8, addend: 0x0, symName: __RINvXs0_NtNtNtCsaNl6UpbT7bw_4core4iter8adapters3mapINtB6_3MapNtNtCsc29TF2YcYso_3syn8generics10TypeParamsNCNvNtCs87DMVckFIdB_12serde_derive5bound10with_bounds1_0ENtNtNtBa_6traits8iterator8Iterator8try_folduNCINvNvB2z_4find5checkNtCshnvkK9b4wzu_11proc_macro25IdentQNCB1G_s2_0E0INtNtNtBc_3ops12control_flow11ControlFlowB3D_EEB1K_, symObjAddr: 0xB64, symBinAddr: 0x59684, symSize: 0x38 }
  - { offset: 0xCC04D, size: 0x8, addend: 0x0, symName: __RINvXs0_NtNtNtCsaNl6UpbT7bw_4core4iter8adapters3mapINtB6_3MapNtNtCshnvkK9b4wzu_11proc_macro212token_stream8IntoIterNCNvNtNtCs87DMVckFIdB_12serde_derive9internals6respan6respan0ENtNtNtBa_6traits8iterator8Iterator4folduNCINvB6_8map_foldNtB11_9TokenTreeNtCs7yrEGia95Wz_10proc_macro9TokenTreeuNvNtB11_3imp19into_compiler_tokenNCINvNvB2P_8for_each4callB40_NCINvXsg_B42_NtB42_11TokenStreamINtNtB2T_7collect12FromIteratorB40_E9from_iterIBO_BN_B4D_EE0E0E0EB1X_, symObjAddr: 0xB9C, symBinAddr: 0x596BC, symSize: 0x58 }
  - { offset: 0xCC0BF, size: 0x8, addend: 0x0, symName: __RINvXs0_NtNtNtCsaNl6UpbT7bw_4core4iter8adapters3mapINtB6_3MapNtNtCshnvkK9b4wzu_11proc_macro212token_stream8IntoIterNCNvNtNtCs87DMVckFIdB_12serde_derive9internals6respan6respan0ENtNtNtBa_6traits8iterator8Iterator4folduNCINvNvB2P_8for_each4callNtB11_9TokenTreeNCINvXsa_NtB11_8fallbackNtB4h_11TokenStreamINtNtB2T_7collect6ExtendB3S_E6extendBN_E0E0EB1X_, symObjAddr: 0xBF4, symBinAddr: 0x59714, symSize: 0x58 }
  - { offset: 0xCC131, size: 0x8, addend: 0x0, symName: __RNvXs0_NtNtNtCsaNl6UpbT7bw_4core4iter8adapters3mapINtB5_3MapIBN_NtNtCsc29TF2YcYso_3syn8generics10TypeParamsNCNvNtCs87DMVckFIdB_12serde_derive5bound10with_bound0ENCINvXs8_NtCsg4dki62PTrg_9hashbrown3setINtB2I_7HashSetNtCshnvkK9b4wzu_11proc_macro25IdentNtNtNtCsht3nMU9UgFu_3std4hash6random11RandomStateEINtNtNtB9_6traits7collect6ExtendB3r_E6extendBW_E0ENtNtB4T_8iterator8Iterator9size_hintB1N_, symObjAddr: 0x4974, symBinAddr: 0x5D494, symSize: 0x24 }
  - { offset: 0xCC178, size: 0x8, addend: 0x0, symName: __RNvXs0_NtNtNtCsaNl6UpbT7bw_4core4iter8adapters3mapINtB5_3MapIBN_NtNtCshnvkK9b4wzu_11proc_macro212token_stream8IntoIterNCNvNtNtCs87DMVckFIdB_12serde_derive9internals6respan6respan0ENvNtB14_3imp19into_compiler_tokenENtNtNtB9_6traits8iterator8Iterator9size_hintB20_, symObjAddr: 0x4998, symBinAddr: 0x5D4B8, symSize: 0x24 }
  - { offset: 0xCC1BF, size: 0x8, addend: 0x0, symName: __RNvXs0_NtNtNtCsaNl6UpbT7bw_4core4iter8adapters3mapINtB5_3MapINtNtB7_10filter_map9FilterMapINtNtCsiTraAjBDcu4_5alloc5boxed3BoxDNtNtNtB9_6traits8iterator8Iteratorp4ItemRNtNtNtCs87DMVckFIdB_12serde_derive9internals3ast5FieldEL_ENCNvNtB2L_5bound33with_where_predicates_from_fields0ENvMNtB1v_5sliceSNtNtCsc29TF2YcYso_3syn8generics14WherePredicate6to_vecEB20_4nextB2L_, symObjAddr: 0x49BC, symBinAddr: 0x5D4DC, symSize: 0xA4 }
  - { offset: 0xCC257, size: 0x8, addend: 0x0, symName: __RNvXs0_NtNtNtCsaNl6UpbT7bw_4core4iter8adapters3mapINtB5_3MapINtNtB7_10filter_map9FilterMapINtNtNtBb_5slice4iter4IterNtNtNtCs87DMVckFIdB_12serde_derive9internals3ast7VariantENCNvNtB1W_5bound35with_where_predicates_from_variants0ENvMNtCsiTraAjBDcu4_5alloc5sliceSNtNtCsc29TF2YcYso_3syn8generics14WherePredicate6to_vecENtNtNtB9_6traits8iterator8Iterator4nextB1W_, symObjAddr: 0x4A60, symBinAddr: 0x5D580, symSize: 0xA4 }
  - { offset: 0xCC2EF, size: 0x8, addend: 0x0, symName: __RNvXs0_NtNtNtCsaNl6UpbT7bw_4core4iter8adapters3mapINtB5_3MapINtNtB7_3zip3ZipIBN_INtNtNtBb_3ops5range5RangejEFjENtCshnvkK9b4wzu_11proc_macro25IdentEINtNtNtBb_5slice4iter4IterNtNtNtCs87DMVckFIdB_12serde_derive9internals3ast5FieldEENCNvNtB2R_2de15deserialize_seqs_0ENtNtNtB9_6traits8iterator8Iterator4nextB2R_, symObjAddr: 0x4B04, symBinAddr: 0x5D624, symSize: 0xA8 }
  - { offset: 0xCC387, size: 0x8, addend: 0x0, symName: __RNvXs0_NtNtNtCsaNl6UpbT7bw_4core4iter8adapters3mapINtB5_3MapINtNtB7_5chain5ChainIBN_INtNtB7_6filter6FilterIBN_NtNtCsc29TF2YcYso_3syn8generics10TypeParamsNCNvNtCs87DMVckFIdB_12serde_derive5bound10with_bounds1_0ENCB2t_s2_0ENCB2t_s3_0EINtNtB7_6cloned6ClonedINtNtNtCsiTraAjBDcu4_5alloc3vec9into_iter8IntoIterRNtNtB1O_2ty8TypePathEEENCB2t_s4_0ENtNtNtB9_6traits8iterator8Iterator4nextB2x_, symObjAddr: 0x4BAC, symBinAddr: 0x5D6CC, symSize: 0xC4 }
  - { offset: 0xCC431, size: 0x8, addend: 0x0, symName: __RNvXs0_NtNtNtCsaNl6UpbT7bw_4core4iter8adapters3mapINtB5_3MapINtNtB7_6cloned6ClonedINtNtCsc29TF2YcYso_3syn10punctuated4IterNtNtB1n_8generics12GenericParamEENCNvNtCs87DMVckFIdB_12serde_derive5bound19with_lifetime_bound0ENtNtNtB9_6traits8iterator8Iterator4nextB2z_, symObjAddr: 0x4C70, symBinAddr: 0x5D790, symSize: 0xC4 }
  - { offset: 0xCC4CB, size: 0x8, addend: 0x0, symName: __RNvXs0_NtNtNtCsaNl6UpbT7bw_4core4iter8adapters3mapINtB5_3MapINtNtB7_6filter6FilterIBN_NtNtCsc29TF2YcYso_3syn8generics10TypeParamsNCNvNtCs87DMVckFIdB_12serde_derive5bound10with_bounds1_0ENCB25_s2_0ENCB25_s3_0ENtNtNtB9_6traits8iterator8Iterator4nextB29_, symObjAddr: 0x4D34, symBinAddr: 0x5D854, symSize: 0xAC }
  - { offset: 0xCC563, size: 0x8, addend: 0x0, symName: __RNvXs0_NtNtNtCsaNl6UpbT7bw_4core4iter8adapters3mapINtB5_3MapINtNtB7_6filter6FilterINtNtB7_9enumerate9EnumerateINtNtNtBb_5slice4iter4IterNtNtNtCs87DMVckFIdB_12serde_derive9internals3ast5FieldEENCNvNtB2g_3ser30serialize_tuple_struct_visitor0ENCB36_s_0ENtNtNtB9_6traits8iterator8Iterator4nextB2g_, symObjAddr: 0x4DE0, symBinAddr: 0x5D900, symSize: 0xA4 }
  - { offset: 0xCC5FB, size: 0x8, addend: 0x0, symName: __RNvXs0_NtNtNtCsaNl6UpbT7bw_4core4iter8adapters3mapINtB5_3MapINtNtB7_6filter6FilterINtNtB7_9enumerate9EnumerateINtNtNtBb_5slice4iter4IterNtNtNtCs87DMVckFIdB_12serde_derive9internals3ast5FieldEENCNvNtB2g_3ser30serialize_tuple_struct_visitor0ENCB36_s_0ENtNtNtB9_6traits8iterator8Iterator9size_hintB2g_, symObjAddr: 0x4E84, symBinAddr: 0x5D9A4, symSize: 0x24 }
  - { offset: 0xCC642, size: 0x8, addend: 0x0, symName: __RNvXs0_NtNtNtCsaNl6UpbT7bw_4core4iter8adapters3mapINtB5_3MapINtNtB7_6filter6FilterINtNtB7_9enumerate9EnumerateINtNtNtBb_5slice4iter4IterNtNtNtCs87DMVckFIdB_12serde_derive9internals3ast5FieldEENCNvNtNtB2g_2de7struct_11deserialize0ENCB36_s_0ENtNtNtB9_6traits8iterator8Iterator4nextB2g_, symObjAddr: 0x4EA8, symBinAddr: 0x5D9C8, symSize: 0xA4 }
  - { offset: 0xCC6DA, size: 0x8, addend: 0x0, symName: __RNvXs0_NtNtNtCsaNl6UpbT7bw_4core4iter8adapters3mapINtB5_3MapINtNtB7_6filter6FilterINtNtB7_9enumerate9EnumerateINtNtNtBb_5slice4iter4IterNtNtNtCs87DMVckFIdB_12serde_derive9internals3ast5FieldEENCNvNtNtB2g_2de7struct_11deserialize0ENCB36_s_0ENtNtNtB9_6traits8iterator8Iterator9size_hintB2g_, symObjAddr: 0x4F4C, symBinAddr: 0x5DA6C, symSize: 0x24 }
  - { offset: 0xCC721, size: 0x8, addend: 0x0, symName: __RNvXs0_NtNtNtCsaNl6UpbT7bw_4core4iter8adapters3mapINtB5_3MapINtNtB7_6filter6FilterINtNtB7_9enumerate9EnumerateINtNtNtBb_5slice4iter4IterNtNtNtCs87DMVckFIdB_12serde_derive9internals3ast7VariantEENCNvNtNtB2g_2de15enum_adjacently11deserialize0ENCB38_s_0ENtNtNtB9_6traits8iterator8Iterator4nextB2g_, symObjAddr: 0x4F70, symBinAddr: 0x5DA90, symSize: 0xA4 }
  - { offset: 0xCC7B9, size: 0x8, addend: 0x0, symName: __RNvXs0_NtNtNtCsaNl6UpbT7bw_4core4iter8adapters3mapINtB5_3MapINtNtB7_6filter6FilterINtNtB7_9enumerate9EnumerateINtNtNtBb_5slice4iter4IterNtNtNtCs87DMVckFIdB_12serde_derive9internals3ast7VariantEENCNvNtNtB2g_2de15enum_adjacently11deserialize0ENCB38_s_0ENtNtNtB9_6traits8iterator8Iterator9size_hintB2g_, symObjAddr: 0x5014, symBinAddr: 0x5DB34, symSize: 0x24 }
  - { offset: 0xCC800, size: 0x8, addend: 0x0, symName: __RNvXs0_NtNtNtCsaNl6UpbT7bw_4core4iter8adapters3mapINtB5_3MapINtNtB7_6filter6FilterINtNtB7_9enumerate9EnumerateINtNtNtBb_5slice4iter4IterNtNtNtCs87DMVckFIdB_12serde_derive9internals3ast7VariantEENCNvNtNtB2g_2de15enum_externally11deserialize0ENCB38_s_0ENtNtNtB9_6traits8iterator8Iterator4nextB2g_, symObjAddr: 0x5038, symBinAddr: 0x5DB58, symSize: 0xA4 }
  - { offset: 0xCC898, size: 0x8, addend: 0x0, symName: __RNvXs0_NtNtNtCsaNl6UpbT7bw_4core4iter8adapters3mapINtB5_3MapINtNtB7_6filter6FilterINtNtB7_9enumerate9EnumerateINtNtNtBb_5slice4iter4IterNtNtNtCs87DMVckFIdB_12serde_derive9internals3ast7VariantEENCNvNtNtB2g_2de15enum_internally11deserialize0ENCB38_s_0ENtNtNtB9_6traits8iterator8Iterator4nextB2g_, symObjAddr: 0x50DC, symBinAddr: 0x5DBFC, symSize: 0xA4 }
  - { offset: 0xCC930, size: 0x8, addend: 0x0, symName: __RNvXs0_NtNtNtCsaNl6UpbT7bw_4core4iter8adapters3mapINtB5_3MapINtNtB7_6filter6FilterINtNtB7_9enumerate9EnumerateINtNtNtBb_5slice4iter4IterNtNtNtCs87DMVckFIdB_12serde_derive9internals3ast7VariantEENCNvNtNtB2g_2de5enum_25prepare_enum_variant_enum0ENCB38_s1_0ENtNtNtB9_6traits8iterator8Iterator4nextB2g_, symObjAddr: 0x5180, symBinAddr: 0x5DCA0, symSize: 0x88 }
  - { offset: 0xCC9C8, size: 0x8, addend: 0x0, symName: __RNvXs0_NtNtNtCsaNl6UpbT7bw_4core4iter8adapters3mapINtB5_3MapINtNtB7_6filter6FilterINtNtB7_9enumerate9EnumerateINtNtNtBb_5slice4iter4IterNtNtNtCs87DMVckFIdB_12serde_derive9internals3ast7VariantEENCNvNtNtB2g_2de5enum_25prepare_enum_variant_enum0ENCB38_s2_0ENtNtNtB9_6traits8iterator8Iterator4nextB2g_, symObjAddr: 0x5208, symBinAddr: 0x5DD28, symSize: 0xA4 }
  - { offset: 0xCCA60, size: 0x8, addend: 0x0, symName: __RNvXs0_NtNtNtCsaNl6UpbT7bw_4core4iter8adapters3mapINtB5_3MapINtNtB7_6filter6FilterINtNtB7_9enumerate9EnumerateINtNtNtBb_5slice4iter4IterNtNtNtCs87DMVckFIdB_12serde_derive9internals3ast7VariantEENCNvNtNtB2g_2de5enum_25prepare_enum_variant_enum0ENCB38_s2_0ENtNtNtB9_6traits8iterator8Iterator9size_hintB2g_, symObjAddr: 0x52AC, symBinAddr: 0x5DDCC, symSize: 0x24 }
  - { offset: 0xCCAA7, size: 0x8, addend: 0x0, symName: __RNvXs0_NtNtNtCsaNl6UpbT7bw_4core4iter8adapters3mapINtB5_3MapINtNtB7_6filter6FilterINtNtNtBb_5slice4iter4IterNtNtNtCs87DMVckFIdB_12serde_derive9internals3ast5FieldENCNvNtB1O_3ser24serialize_struct_visitor0ENCB2D_s_0ENtNtNtB9_6traits8iterator8Iterator4nextB1O_, symObjAddr: 0x52D0, symBinAddr: 0x5DDF0, symSize: 0x94 }
  - { offset: 0xCCB3F, size: 0x8, addend: 0x0, symName: __RNvXs0_NtNtNtCsaNl6UpbT7bw_4core4iter8adapters3mapINtB5_3MapINtNtB7_6filter6FilterINtNtNtBb_5slice4iter4IterNtNtNtCs87DMVckFIdB_12serde_derive9internals3ast5FieldENCNvNtB1O_3ser24serialize_struct_visitor0ENCB2D_s_0ENtNtNtB9_6traits8iterator8Iterator9size_hintB1O_, symObjAddr: 0x5364, symBinAddr: 0x5DE84, symSize: 0x24 }
  - { offset: 0xCCB86, size: 0x8, addend: 0x0, symName: __RNvXs0_NtNtNtCsaNl6UpbT7bw_4core4iter8adapters3mapINtB5_3MapINtNtB7_6filter6FilterINtNtNtBb_5slice4iter4IterNtNtNtCs87DMVckFIdB_12serde_derive9internals3ast7VariantENCNvNtNtB1O_2de13enum_untagged11deserialize0ENCB2F_s_0ENtNtNtB9_6traits8iterator8Iterator4nextB1O_, symObjAddr: 0x5388, symBinAddr: 0x5DEA8, symSize: 0x98 }
  - { offset: 0xCCC1E, size: 0x8, addend: 0x0, symName: __RNvXs0_NtNtNtCsaNl6UpbT7bw_4core4iter8adapters3mapINtB5_3MapINtNtB7_6filter6FilterINtNtNtBb_5slice4iter4IterTRNtNtNtCs87DMVckFIdB_12serde_derive9internals3ast5FieldNtCshnvkK9b4wzu_11proc_macro25IdentEENCNvNtNtB1Q_2de7struct_15deserialize_maps1_0ENCB3f_s2_0ENtNtNtB9_6traits8iterator8Iterator4nextB1Q_, symObjAddr: 0x5420, symBinAddr: 0x5DF40, symSize: 0x94 }
  - { offset: 0xCCCB6, size: 0x8, addend: 0x0, symName: __RNvXs0_NtNtNtCsaNl6UpbT7bw_4core4iter8adapters3mapINtB5_3MapINtNtB7_6filter6FilterINtNtNtBb_5slice4iter4IterTRNtNtNtCs87DMVckFIdB_12serde_derive9internals3ast5FieldNtCshnvkK9b4wzu_11proc_macro25IdentEENCNvNtNtB1Q_2de7struct_15deserialize_maps4_0ENCB3f_s5_0ENtNtNtB9_6traits8iterator8Iterator4nextB1Q_, symObjAddr: 0x54B4, symBinAddr: 0x5DFD4, symSize: 0x94 }
  - { offset: 0xCCD4E, size: 0x8, addend: 0x0, symName: __RNvXs0_NtNtNtCsaNl6UpbT7bw_4core4iter8adapters3mapINtB5_3MapINtNtB7_6filter6FilterINtNtNtBb_5slice4iter4IterTRNtNtNtCs87DMVckFIdB_12serde_derive9internals3ast5FieldNtCshnvkK9b4wzu_11proc_macro25IdentEENCNvNtNtB1Q_2de7struct_15deserialize_maps6_0ENCB3f_s7_0ENtNtNtB9_6traits8iterator8Iterator4nextB1Q_, symObjAddr: 0x5548, symBinAddr: 0x5E068, symSize: 0x94 }
  - { offset: 0xCCDE6, size: 0x8, addend: 0x0, symName: __RNvXs0_NtNtNtCsaNl6UpbT7bw_4core4iter8adapters3mapINtB5_3MapINtNtB7_6filter6FilterINtNtNtBb_5slice4iter4IterTRNtNtNtCs87DMVckFIdB_12serde_derive9internals3ast5FieldNtCshnvkK9b4wzu_11proc_macro25IdentEENCNvNtNtB1Q_2de7struct_15deserialize_maps_0ENCB3f_s0_0ENtNtNtB9_6traits8iterator8Iterator4nextB1Q_, symObjAddr: 0x55DC, symBinAddr: 0x5E0FC, symSize: 0x94 }
  - { offset: 0xCCE7E, size: 0x8, addend: 0x0, symName: __RNvXs0_NtNtNtCsaNl6UpbT7bw_4core4iter8adapters3mapINtB5_3MapINtNtB7_9enumerate9EnumerateINtNtCsc29TF2YcYso_3syn10punctuated4IterNtNtB1t_4data5FieldEENCNvNtNtCs87DMVckFIdB_12serde_derive9internals3ast15fields_from_ast0ENtNtNtB9_6traits8iterator8Iterator4nextB2v_, symObjAddr: 0x5670, symBinAddr: 0x5E190, symSize: 0xB0 }
  - { offset: 0xCCF16, size: 0x8, addend: 0x0, symName: __RNvXs0_NtNtNtCsaNl6UpbT7bw_4core4iter8adapters3mapINtB5_3MapINtNtB7_9enumerate9EnumerateINtNtCsc29TF2YcYso_3syn10punctuated4IterNtNtB1t_4data5FieldEENCNvNtNtCs87DMVckFIdB_12serde_derive9internals3ast15fields_from_ast0ENtNtNtB9_6traits8iterator8Iterator9size_hintB2v_, symObjAddr: 0x5720, symBinAddr: 0x5E240, symSize: 0x24 }
  - { offset: 0xCCF5D, size: 0x8, addend: 0x0, symName: __RNvXs0_NtNtNtCsaNl6UpbT7bw_4core4iter8adapters3mapINtB5_3MapINtNtB7_9enumerate9EnumerateINtNtNtBb_5slice4iter4IterNtNtCs87DMVckFIdB_12serde_derive2de16FieldWithAliasesEENCNvNtB1Q_10identifier22deserialize_identifiers0_0ENtNtNtB9_6traits8iterator8Iterator4nextB1S_, symObjAddr: 0x5744, symBinAddr: 0x5E264, symSize: 0xA4 }
  - { offset: 0xCCFF5, size: 0x8, addend: 0x0, symName: __RNvXs0_NtNtNtCsaNl6UpbT7bw_4core4iter8adapters3mapINtB5_3MapINtNtB7_9enumerate9EnumerateINtNtNtBb_5slice4iter4IterNtNtNtCs87DMVckFIdB_12serde_derive9internals3ast5FieldEENCNvNtNtB1U_2de7struct_15deserialize_map0ENtNtNtB9_6traits8iterator8Iterator9size_hintB1U_, symObjAddr: 0x57E8, symBinAddr: 0x5E308, symSize: 0x24 }
  - { offset: 0xCD03C, size: 0x8, addend: 0x0, symName: __RNvXs0_NtNtNtCsaNl6UpbT7bw_4core4iter8adapters3mapINtB5_3MapINtNtB7_9enumerate9EnumerateINtNtNtBb_5slice4iter4IterNtNtNtCs87DMVckFIdB_12serde_derive9internals3ast7VariantEENCNvNtB1U_3ser14serialize_enum0ENtNtNtB9_6traits8iterator8Iterator9size_hintB1U_, symObjAddr: 0x580C, symBinAddr: 0x5E32C, symSize: 0x24 }
  - { offset: 0xCD083, size: 0x8, addend: 0x0, symName: __RNvXs0_NtNtNtCsaNl6UpbT7bw_4core4iter8adapters3mapINtB5_3MapINtNtCsc29TF2YcYso_3syn10punctuated4IterNtNtB11_4data7VariantENCNvNtNtCs87DMVckFIdB_12serde_derive9internals3ast13enum_from_ast0ENtNtNtB9_6traits8iterator8Iterator4nextB24_, symObjAddr: 0x5830, symBinAddr: 0x5E350, symSize: 0xA0 }
  - { offset: 0xCD11B, size: 0x8, addend: 0x0, symName: __RNvXs0_NtNtNtCsaNl6UpbT7bw_4core4iter8adapters3mapINtB5_3MapINtNtCsc29TF2YcYso_3syn10punctuated4IterNtNtB11_4data7VariantENCNvNtNtCs87DMVckFIdB_12serde_derive9internals3ast13enum_from_ast0ENtNtNtB9_6traits8iterator8Iterator9size_hintB24_, symObjAddr: 0x58D0, symBinAddr: 0x5E3F0, symSize: 0x24 }
  - { offset: 0xCD162, size: 0x8, addend: 0x0, symName: __RNvXs0_NtNtNtCsaNl6UpbT7bw_4core4iter8adapters3mapINtB5_3MapINtNtCsc29TF2YcYso_3syn10punctuated4IterNtNtB11_8generics12GenericParamENCNvNtCs87DMVckFIdB_12serde_derive5bound12type_of_item0ENtNtNtB9_6traits8iterator8Iterator4nextB2c_, symObjAddr: 0x58F4, symBinAddr: 0x5E414, symSize: 0xA0 }
  - { offset: 0xCD1FA, size: 0x8, addend: 0x0, symName: __RNvXs0_NtNtNtCsaNl6UpbT7bw_4core4iter8adapters3mapINtB5_3MapINtNtCsc29TF2YcYso_3syn10punctuated4IterNtNtB11_8generics12GenericParamENCNvNtCs87DMVckFIdB_12serde_derive5bound16without_defaults0ENtNtNtB9_6traits8iterator8Iterator4nextB2c_, symObjAddr: 0x5994, symBinAddr: 0x5E4B4, symSize: 0xA0 }
  - { offset: 0xCD292, size: 0x8, addend: 0x0, symName: __RNvXs0_NtNtNtCsaNl6UpbT7bw_4core4iter8adapters3mapINtB5_3MapINtNtNtBb_3ops5range5RangejEFjENtCshnvkK9b4wzu_11proc_macro25IdentENtNtNtB9_6traits8iterator8Iterator24___iterator_get_uncheckedCs87DMVckFIdB_12serde_derive, symObjAddr: 0x5A34, symBinAddr: 0x5E554, symSize: 0x48 }
  - { offset: 0xCD30C, size: 0x8, addend: 0x0, symName: __RNvXs0_NtNtNtCsaNl6UpbT7bw_4core4iter8adapters3mapINtB5_3MapINtNtNtBb_3ops5range5RangejEFjENtCshnvkK9b4wzu_11proc_macro25IdentENtNtNtB9_6traits8iterator8Iterator4nextCs87DMVckFIdB_12serde_derive, symObjAddr: 0x5A7C, symBinAddr: 0x5E59C, symSize: 0x8C }
  - { offset: 0xCD3B4, size: 0x8, addend: 0x0, symName: __RNvXs0_NtNtNtCsaNl6UpbT7bw_4core4iter8adapters3mapINtB5_3MapINtNtNtBb_3ops5range5RangejEFjENtCshnvkK9b4wzu_11proc_macro25IdentENtNtNtB9_6traits8iterator8Iterator9size_hintCs87DMVckFIdB_12serde_derive, symObjAddr: 0x5B08, symBinAddr: 0x5E628, symSize: 0x24 }
  - { offset: 0xCD3FB, size: 0x8, addend: 0x0, symName: __RNvXs0_NtNtNtCsaNl6UpbT7bw_4core4iter8adapters3mapINtB5_3MapINtNtNtBb_3ops5range5RangejENCNCNvNtCs87DMVckFIdB_12serde_derive7pretend21pretend_variants_used00ENtNtNtB9_6traits8iterator8Iterator9size_hintB1w_, symObjAddr: 0x5B2C, symBinAddr: 0x5E64C, symSize: 0x24 }
  - { offset: 0xCD442, size: 0x8, addend: 0x0, symName: __RNvXs0_NtNtNtCsaNl6UpbT7bw_4core4iter8adapters3mapINtB5_3MapINtNtNtBb_3ops5range5RangejENCNvNtCs87DMVckFIdB_12serde_derive2de25unwrap_to_variant_closures_0ENtNtNtB9_6traits8iterator8Iterator4nextB1u_, symObjAddr: 0x5B50, symBinAddr: 0x5E670, symSize: 0x90 }
  - { offset: 0xCD4DA, size: 0x8, addend: 0x0, symName: __RNvXs0_NtNtNtCsaNl6UpbT7bw_4core4iter8adapters3mapINtB5_3MapINtNtNtBb_3ops5range5RangejENCNvNtCs87DMVckFIdB_12serde_derive3ser17serialize_variant0ENtNtNtB9_6traits8iterator8Iterator4nextB1u_, symObjAddr: 0x5BE0, symBinAddr: 0x5E700, symSize: 0x90 }
  - { offset: 0xCD572, size: 0x8, addend: 0x0, symName: __RNvXs0_NtNtNtCsaNl6UpbT7bw_4core4iter8adapters3mapINtB5_3MapINtNtNtBb_3ops5range5RangejENCNvNtCs87DMVckFIdB_12serde_derive3ser19wrap_serialize_with0ENtNtNtB9_6traits8iterator8Iterator4nextB1u_, symObjAddr: 0x5C70, symBinAddr: 0x5E790, symSize: 0x90 }
  - { offset: 0xCD60A, size: 0x8, addend: 0x0, symName: __RNvXs0_NtNtNtCsaNl6UpbT7bw_4core4iter8adapters3mapINtB5_3MapINtNtNtBb_3ops5range5RangejENCNvNtCs87DMVckFIdB_12serde_derive3ser35serialize_adjacently_tagged_variants_0ENtNtNtB9_6traits8iterator8Iterator9size_hintB1u_, symObjAddr: 0x5D00, symBinAddr: 0x5E820, symSize: 0x24 }
  - { offset: 0xCD651, size: 0x8, addend: 0x0, symName: __RNvXs0_NtNtNtCsaNl6UpbT7bw_4core4iter8adapters3mapINtB5_3MapINtNtNtBb_3ops5range9RangeFromjENCNCNvNtCs87DMVckFIdB_12serde_derive7pretend24pretend_fields_used_enum0s_0ENtNtNtB9_6traits8iterator8Iterator4nextB1A_, symObjAddr: 0x5D24, symBinAddr: 0x5E844, symSize: 0x90 }
  - { offset: 0xCD6E9, size: 0x8, addend: 0x0, symName: __RNvXs0_NtNtNtCsaNl6UpbT7bw_4core4iter8adapters3mapINtB5_3MapINtNtNtBb_3ops5range9RangeFromjENCNvNtCs87DMVckFIdB_12serde_derive7pretend26pretend_fields_used_structs_0ENtNtNtB9_6traits8iterator8Iterator4nextB1y_, symObjAddr: 0x5DB4, symBinAddr: 0x5E8D4, symSize: 0x90 }
  - { offset: 0xCD781, size: 0x8, addend: 0x0, symName: __RNvXs0_NtNtNtCsaNl6UpbT7bw_4core4iter8adapters3mapINtB5_3MapINtNtNtBb_5slice4iter4IterNtNtCs87DMVckFIdB_12serde_derive2de16FieldWithAliasesENCNvNtB1o_10identifier18deserialize_customs0_0ENtNtNtB9_6traits8iterator8Iterator4nextB1q_, symObjAddr: 0x5E44, symBinAddr: 0x5E964, symSize: 0x78 }
  - { offset: 0xCD819, size: 0x8, addend: 0x0, symName: __RNvXs0_NtNtNtCsaNl6UpbT7bw_4core4iter8adapters3mapINtB5_3MapINtNtNtBb_5slice4iter4IterNtNtCs87DMVckFIdB_12serde_derive2de16FieldWithAliasesENCNvNtB1o_10identifier21deserialize_generated0ENtNtNtB9_6traits8iterator8Iterator9size_hintB1q_, symObjAddr: 0x5EBC, symBinAddr: 0x5E9DC, symSize: 0x24 }
  - { offset: 0xCD860, size: 0x8, addend: 0x0, symName: __RNvXs0_NtNtNtCsaNl6UpbT7bw_4core4iter8adapters3mapINtB5_3MapINtNtNtBb_5slice4iter4IterNtNtCs87DMVckFIdB_12serde_derive2de16FieldWithAliasesENCNvNtB1o_10identifier22deserialize_identifier0ENtNtNtB9_6traits8iterator8Iterator4nextB1q_, symObjAddr: 0x5EE0, symBinAddr: 0x5EA00, symSize: 0x94 }
  - { offset: 0xCD8F8, size: 0x8, addend: 0x0, symName: __RNvXs0_NtNtNtCsaNl6UpbT7bw_4core4iter8adapters3mapINtB5_3MapINtNtNtBb_5slice4iter4IterNtNtCs87DMVckFIdB_12serde_derive2de16FieldWithAliasesENCNvNtB1o_10identifier22deserialize_identifiers_0ENtNtNtB9_6traits8iterator8Iterator4nextB1q_, symObjAddr: 0x5F74, symBinAddr: 0x5EA94, symSize: 0x94 }
  - { offset: 0xCD990, size: 0x8, addend: 0x0, symName: __RNvXs0_NtNtNtCsaNl6UpbT7bw_4core4iter8adapters3mapINtB5_3MapINtNtNtBb_5slice4iter4IterNtNtCs87DMVckFIdB_12serde_derive2de16FieldWithAliasesENCNvNtB1o_7struct_11deserializes0_0ENtNtNtB9_6traits8iterator8Iterator4nextB1q_, symObjAddr: 0x6008, symBinAddr: 0x5EB28, symSize: 0x78 }
  - { offset: 0xCDA28, size: 0x8, addend: 0x0, symName: __RNvXs0_NtNtNtCsaNl6UpbT7bw_4core4iter8adapters3mapINtB5_3MapINtNtNtBb_5slice4iter4IterNtNtNtCs87DMVckFIdB_12serde_derive9internals3ast5FieldENCNCNvNtB1s_7pretend21pretend_variants_used0s_0ENtNtNtB9_6traits8iterator8Iterator4nextB1s_, symObjAddr: 0x6080, symBinAddr: 0x5EBA0, symSize: 0x78 }
  - { offset: 0xCDAC0, size: 0x8, addend: 0x0, symName: __RNvXs0_NtNtNtCsaNl6UpbT7bw_4core4iter8adapters3mapINtB5_3MapINtNtNtBb_5slice4iter4IterNtNtNtCs87DMVckFIdB_12serde_derive9internals3ast5FieldENCNCNvNtB1s_7pretend24pretend_fields_used_enum00ENtNtNtB9_6traits8iterator8Iterator4nextB1s_, symObjAddr: 0x60F8, symBinAddr: 0x5EC18, symSize: 0x78 }
  - { offset: 0xCDB58, size: 0x8, addend: 0x0, symName: __RNvXs0_NtNtNtCsaNl6UpbT7bw_4core4iter8adapters3mapINtB5_3MapINtNtNtBb_5slice4iter4IterNtNtNtCs87DMVckFIdB_12serde_derive9internals3ast5FieldENCNvNtB1s_2de15deserialize_seqs0_0ENtNtNtB9_6traits8iterator8Iterator4nextB1s_, symObjAddr: 0x6170, symBinAddr: 0x5EC90, symSize: 0x78 }
  - { offset: 0xCDBF0, size: 0x8, addend: 0x0, symName: __RNvXs0_NtNtNtCsaNl6UpbT7bw_4core4iter8adapters3mapINtB5_3MapINtNtNtBb_5slice4iter4IterNtNtNtCs87DMVckFIdB_12serde_derive9internals3ast5FieldENCNvNtB1s_2de23deserialize_transparents_0ENtNtNtB9_6traits8iterator8Iterator4nextB1s_, symObjAddr: 0x61E8, symBinAddr: 0x5ED08, symSize: 0x94 }
  - { offset: 0xCDC88, size: 0x8, addend: 0x0, symName: __RNvXs0_NtNtNtCsaNl6UpbT7bw_4core4iter8adapters3mapINtB5_3MapINtNtNtBb_5slice4iter4IterNtNtNtCs87DMVckFIdB_12serde_derive9internals3ast5FieldENCNvNtB1s_2de25unwrap_to_variant_closure0ENtNtNtB9_6traits8iterator8Iterator4nextB1s_, symObjAddr: 0x627C, symBinAddr: 0x5ED9C, symSize: 0x78 }
  - { offset: 0xCDD20, size: 0x8, addend: 0x0, symName: __RNvXs0_NtNtNtCsaNl6UpbT7bw_4core4iter8adapters3mapINtB5_3MapINtNtNtBb_5slice4iter4IterNtNtNtCs87DMVckFIdB_12serde_derive9internals3ast5FieldENCNvNtB1s_2de25unwrap_to_variant_closures0_0ENtNtNtB9_6traits8iterator8Iterator4nextB1s_, symObjAddr: 0x62F4, symBinAddr: 0x5EE14, symSize: 0x78 }
  - { offset: 0xCDDB8, size: 0x8, addend: 0x0, symName: __RNvXs0_NtNtNtCsaNl6UpbT7bw_4core4iter8adapters3mapINtB5_3MapINtNtNtBb_5slice4iter4IterNtNtNtCs87DMVckFIdB_12serde_derive9internals3ast5FieldENCNvNtB1s_3ser17serialize_variants_0ENtNtNtB9_6traits8iterator8Iterator4nextB1s_, symObjAddr: 0x636C, symBinAddr: 0x5EE8C, symSize: 0x78 }
  - { offset: 0xCDE50, size: 0x8, addend: 0x0, symName: __RNvXs0_NtNtNtCsaNl6UpbT7bw_4core4iter8adapters3mapINtB5_3MapINtNtNtBb_5slice4iter4IterNtNtNtCs87DMVckFIdB_12serde_derive9internals3ast5FieldENCNvNtB1s_3ser27wrap_serialize_variant_with0ENtNtNtB9_6traits8iterator8Iterator9size_hintB1s_, symObjAddr: 0x63E4, symBinAddr: 0x5EF04, symSize: 0x24 }
  - { offset: 0xCDE97, size: 0x8, addend: 0x0, symName: __RNvXs0_NtNtNtCsaNl6UpbT7bw_4core4iter8adapters3mapINtB5_3MapINtNtNtBb_5slice4iter4IterNtNtNtCs87DMVckFIdB_12serde_derive9internals3ast5FieldENCNvNtB1s_3ser27wrap_serialize_variant_withs_0ENtNtNtB9_6traits8iterator8Iterator9size_hintB1s_, symObjAddr: 0x6408, symBinAddr: 0x5EF28, symSize: 0x24 }
  - { offset: 0xCDEDE, size: 0x8, addend: 0x0, symName: __RNvXs0_NtNtNtCsaNl6UpbT7bw_4core4iter8adapters3mapINtB5_3MapINtNtNtBb_5slice4iter4IterNtNtNtCs87DMVckFIdB_12serde_derive9internals3ast5FieldENCNvNtB1s_3ser35serialize_adjacently_tagged_variant0ENtNtNtB9_6traits8iterator8Iterator4nextB1s_, symObjAddr: 0x642C, symBinAddr: 0x5EF4C, symSize: 0x78 }
  - { offset: 0xCDF76, size: 0x8, addend: 0x0, symName: __RNvXs0_NtNtNtCsaNl6UpbT7bw_4core4iter8adapters3mapINtB5_3MapINtNtNtBb_5slice4iter4IterNtNtNtCs87DMVckFIdB_12serde_derive9internals3ast5FieldENCNvNtB1s_3ser35serialize_adjacently_tagged_variants0_0ENtNtNtB9_6traits8iterator8Iterator9size_hintB1s_, symObjAddr: 0x64A4, symBinAddr: 0x5EFC4, symSize: 0x24 }
  - { offset: 0xCDFBD, size: 0x8, addend: 0x0, symName: __RNvXs0_NtNtNtCsaNl6UpbT7bw_4core4iter8adapters3mapINtB5_3MapINtNtNtBb_5slice4iter4IterNtNtNtCs87DMVckFIdB_12serde_derive9internals3ast5FieldENCNvNtB1s_3ser37serialize_struct_variant_with_flattens0_0ENtNtNtB9_6traits8iterator8Iterator9size_hintB1s_, symObjAddr: 0x64C8, symBinAddr: 0x5EFE8, symSize: 0x24 }
  - { offset: 0xCE004, size: 0x8, addend: 0x0, symName: __RNvXs0_NtNtNtCsaNl6UpbT7bw_4core4iter8adapters3mapINtB5_3MapINtNtNtBb_5slice4iter4IterNtNtNtCs87DMVckFIdB_12serde_derive9internals3ast5FieldENCNvNtB1s_3ser37serialize_struct_variant_with_flattens_0ENtNtNtB9_6traits8iterator8Iterator4nextB1s_, symObjAddr: 0x64EC, symBinAddr: 0x5F00C, symSize: 0x78 }
  - { offset: 0xCE09C, size: 0x8, addend: 0x0, symName: __RNvXs0_NtNtNtCsaNl6UpbT7bw_4core4iter8adapters3mapINtB5_3MapINtNtNtBb_5slice4iter4IterNtNtNtCs87DMVckFIdB_12serde_derive9internals3ast5FieldENCNvNtB1s_7pretend26pretend_fields_used_struct0ENtNtNtB9_6traits8iterator8Iterator4nextB1s_, symObjAddr: 0x6564, symBinAddr: 0x5F084, symSize: 0x78 }
  - { offset: 0xCE134, size: 0x8, addend: 0x0, symName: __RNvXs0_NtNtNtCsaNl6UpbT7bw_4core4iter8adapters3mapINtB5_3MapINtNtNtBb_5slice4iter4IterNtNtNtCs87DMVckFIdB_12serde_derive9internals3ast5FieldENCNvNtB1s_7pretend33pretend_fields_used_struct_packed0ENtNtNtB9_6traits8iterator8Iterator9size_hintB1s_, symObjAddr: 0x65DC, symBinAddr: 0x5F0FC, symSize: 0x24 }
  - { offset: 0xCE17B, size: 0x8, addend: 0x0, symName: __RNvXs0_NtNtNtCsaNl6UpbT7bw_4core4iter8adapters3mapINtB5_3MapINtNtNtBb_5slice4iter4IterNtNtNtCs87DMVckFIdB_12serde_derive9internals3ast5FieldENCNvNtNtB1s_2de15enum_externally29wrap_deserialize_variant_with0ENtNtNtB9_6traits8iterator8Iterator4nextB1s_, symObjAddr: 0x6600, symBinAddr: 0x5F120, symSize: 0x78 }
  - { offset: 0xCE213, size: 0x8, addend: 0x0, symName: __RNvXs0_NtNtNtCsaNl6UpbT7bw_4core4iter8adapters3mapINtB5_3MapINtNtNtBb_5slice4iter4IterNtNtNtCs87DMVckFIdB_12serde_derive9internals3ast7VariantENCNvMs_B1o_NtB1o_4Data10all_fields0ENtNtNtB9_6traits8iterator8Iterator4nextB1s_, symObjAddr: 0x6678, symBinAddr: 0x5F198, symSize: 0x80 }
  - { offset: 0xCE2AB, size: 0x8, addend: 0x0, symName: __RNvXs0_NtNtNtCsaNl6UpbT7bw_4core4iter8adapters3mapINtB5_3MapINtNtNtBb_5slice4iter4IterNtNtNtCs87DMVckFIdB_12serde_derive9internals3ast7VariantENCNvMs_B1o_NtB1o_4Data10all_fields0ENtNtNtB9_6traits8iterator8Iterator9size_hintB1s_, symObjAddr: 0x66F8, symBinAddr: 0x5F218, symSize: 0x24 }
  - { offset: 0xCE2F2, size: 0x8, addend: 0x0, symName: __RNvXs0_NtNtNtCsaNl6UpbT7bw_4core4iter8adapters3mapINtB5_3MapINtNtNtBb_5slice4iter4IterNtNtNtCs87DMVckFIdB_12serde_derive9internals3ast7VariantENCNvNtB1s_7pretend21pretend_variants_used0ENtNtNtB9_6traits8iterator8Iterator4nextB1s_, symObjAddr: 0x671C, symBinAddr: 0x5F23C, symSize: 0x94 }
  - { offset: 0xCE38A, size: 0x8, addend: 0x0, symName: __RNvXs0_NtNtNtCsaNl6UpbT7bw_4core4iter8adapters3mapINtB5_3MapINtNtNtBb_5slice4iter4IterNtNtNtCs87DMVckFIdB_12serde_derive9internals3ast7VariantENCNvNtNtB1s_2de10identifier18deserialize_customs_0ENtNtNtB9_6traits8iterator8Iterator9size_hintB1s_, symObjAddr: 0x67B0, symBinAddr: 0x5F2D0, symSize: 0x24 }
  - { offset: 0xCE3D1, size: 0x8, addend: 0x0, symName: __RNvXs0_NtNtNtCsaNl6UpbT7bw_4core4iter8adapters3mapINtB5_3MapINtNtNtBb_5slice4iter4IterTRNtNtNtCs87DMVckFIdB_12serde_derive9internals3ast5FieldNtCshnvkK9b4wzu_11proc_macro25IdentEENCNvNtNtB1u_2de7struct_15deserialize_maps8_0ENtNtNtB9_6traits8iterator8Iterator4nextB1u_, symObjAddr: 0x67D4, symBinAddr: 0x5F2F4, symSize: 0x94 }
  - { offset: 0xCE469, size: 0x8, addend: 0x0, symName: __RNvXs0_NtNtNtCsaNl6UpbT7bw_4core4iter8adapters3mapINtB5_3MapINtNtNtBb_5slice4iter4IterhENCNvNtCsiTraAjBDcu4_5alloc3str13replace_ascii0ENtNtNtB9_6traits8iterator8Iterator9size_hintCs87DMVckFIdB_12serde_derive, symObjAddr: 0x6868, symBinAddr: 0x5F388, symSize: 0x24 }
  - { offset: 0xCE4B0, size: 0x8, addend: 0x0, symName: __RNvXs0_NtNtNtCsaNl6UpbT7bw_4core4iter8adapters3mapINtB5_3MapINtNtNtCsiTraAjBDcu4_5alloc3vec9into_iter8IntoIterTNtNtCsc29TF2YcYso_3syn8generics12GenericParamNtNtB1P_5token5CommaEENCNvXs8_NtB1P_10punctuatedINtB2Y_10PunctuatedB1L_B2u_ENtNtNtB9_6traits7collect12IntoIterator9into_iter0ENtNtB3M_8iterator8Iterator9size_hintCs87DMVckFIdB_12serde_derive, symObjAddr: 0x688C, symBinAddr: 0x5F3AC, symSize: 0x24 }
  - { offset: 0xCE4F7, size: 0x8, addend: 0x0, symName: __RNvXs0_NtNtNtCsaNl6UpbT7bw_4core4iter8adapters3mapINtB5_3MapINtNtNtCsiTraAjBDcu4_5alloc3vec9into_iter8IntoIterTNtNtCsc29TF2YcYso_3syn8generics14WherePredicateNtNtB1P_5token5CommaEENCNvXs8_NtB1P_10punctuatedINtB30_10PunctuatedB1L_B2w_ENtNtNtB9_6traits7collect12IntoIterator9into_iter0ENtNtB3O_8iterator8Iterator9size_hintCs87DMVckFIdB_12serde_derive, symObjAddr: 0x68B0, symBinAddr: 0x5F3D0, symSize: 0x24 }
  - { offset: 0xCE53E, size: 0x8, addend: 0x0, symName: __RNvXs0_NtNtNtCsaNl6UpbT7bw_4core4iter8adapters3mapINtB5_3MapINtNtNtNtCsiTraAjBDcu4_5alloc11collections5btree3set4IterNtNtNtCs87DMVckFIdB_12serde_derive9internals4name4NameENCNCNvNtNtB1X_2de10identifier22deserialize_identifiers_00ENtNtNtB9_6traits8iterator8Iterator4nextB1X_, symObjAddr: 0x68D4, symBinAddr: 0x5F3F4, symSize: 0x94 }
  - { offset: 0xCE5D6, size: 0x8, addend: 0x0, symName: __RNvXs0_NtNtNtCsaNl6UpbT7bw_4core4iter8adapters3mapINtB5_3MapNtNtCsc29TF2YcYso_3syn8generics10TypeParamsNCNvNtCs87DMVckFIdB_12serde_derive5bound10with_bound0ENtNtNtB9_6traits8iterator8Iterator9size_hintB1J_, symObjAddr: 0x6968, symBinAddr: 0x5F488, symSize: 0x24 }
  - { offset: 0xCE61D, size: 0x8, addend: 0x0, symName: __RNvXs0_NtNtNtCsaNl6UpbT7bw_4core4iter8adapters3mapINtB5_3MapNtNtCshnvkK9b4wzu_11proc_macro212token_stream8IntoIterNCNvNtNtCs87DMVckFIdB_12serde_derive9internals6respan6respan0ENtNtNtB9_6traits8iterator8Iterator9size_hintB1W_, symObjAddr: 0x698C, symBinAddr: 0x5F4AC, symSize: 0x24 }
  - { offset: 0xCE862, size: 0x8, addend: 0x0, symName: __RNCINvNtNtNtCsaNl6UpbT7bw_4core4iter8adapters3map8map_foldNtCshnvkK9b4wzu_11proc_macro25IdentTBU_uEuNCINvXs8_NtCsg4dki62PTrg_9hashbrown3setINtB1J_7HashSetBU_NtNtNtCsht3nMU9UgFu_3std4hash6random11RandomStateEINtNtNtB8_6traits7collect6ExtendBU_E6extendINtB4_3MapNtNtCsc29TF2YcYso_3syn8generics10TypeParamsNCNvNtCs87DMVckFIdB_12serde_derive5bound10with_bound0EE0NCINvNvNtNtB3o_8iterator8Iterator8for_each4callB1t_NCINvXs1i_NtB1L_3mapINtB6K_7HashMapBU_uB2v_EIB3k_B1t_E6extendIB41_B40_B1A_EE0E0E0B4X_, symObjAddr: 0x20E8, symBinAddr: 0x5AC08, symSize: 0x9C }
  - { offset: 0xCE8E8, size: 0x8, addend: 0x0, symName: __RNCINvNtNtNtCsaNl6UpbT7bw_4core4iter8adapters3map8map_foldNtCshnvkK9b4wzu_11proc_macro29TokenTreeBU_uNCNvNtNtCs87DMVckFIdB_12serde_derive9internals6respan6respan0NCIB2_BU_NtCs7yrEGia95Wz_10proc_macro9TokenTreeuNvNtBW_3imp19into_compiler_tokenNCINvNvNtNtNtB8_6traits8iterator8Iterator8for_each4callB2J_NCINvXsg_B2L_NtB2L_11TokenStreamINtNtB43_7collect12FromIteratorB2J_E9from_iterINtB4_3MapIB66_NtNtBW_12token_stream8IntoIterB1B_EB3m_EE0E0E0E0B1J_, symObjAddr: 0x2184, symBinAddr: 0x5ACA4, symSize: 0x9C }
  - { offset: 0xCE96E, size: 0x8, addend: 0x0, symName: __RNCINvNtNtNtCsaNl6UpbT7bw_4core4iter8adapters3map8map_foldNtCshnvkK9b4wzu_11proc_macro29TokenTreeBU_uNCNvNtNtCs87DMVckFIdB_12serde_derive9internals6respan6respan0NCINvNvNtNtNtB8_6traits8iterator8Iterator8for_each4callBU_NCINvXsa_NtBW_8fallbackNtB3F_11TokenStreamINtNtB2L_7collect6ExtendBU_E6extendINtB4_3MapNtNtBW_12token_stream8IntoIterB1B_EE0E0E0B1J_, symObjAddr: 0x2220, symBinAddr: 0x5AD40, symSize: 0x9C }
  - { offset: 0xCE9F4, size: 0x8, addend: 0x0, symName: __RNCINvNtNtNtCsaNl6UpbT7bw_4core4iter8adapters3map8map_foldNtCshnvkK9b4wzu_11proc_macro29TokenTreeNtCs7yrEGia95Wz_10proc_macro9TokenTreeuNvNtBW_3imp19into_compiler_tokenNCINvNvNtNtNtB8_6traits8iterator8Iterator8for_each4callB1x_NCINvXsg_B1z_NtB1z_11TokenStreamINtNtB2R_7collect12FromIteratorB1x_E9from_iterINtB4_3MapIB4U_NtNtBW_12token_stream8IntoIterNCNvNtNtCs87DMVckFIdB_12serde_derive9internals6respan6respan0EB2a_EE0E0E0B5K_, symObjAddr: 0x22BC, symBinAddr: 0x5ADDC, symSize: 0x9C }
  - { offset: 0xCEA7A, size: 0x8, addend: 0x0, symName: __RNCINvNtNtNtCsaNl6UpbT7bw_4core4iter8adapters3map8map_foldRNtNtCs87DMVckFIdB_12serde_derive2de16FieldWithAliasesRNtCshnvkK9b4wzu_11proc_macro25IdentuNCNvNtBX_10identifier21deserialize_generated0NCINvNvNtNtNtB8_6traits8iterator8Iterator8for_each4callB1M_NCINvMsi_NtCsiTraAjBDcu4_5alloc3vecINtB4c_3VecB1M_E14extend_trustedINtB4_3MapINtNtNtBa_5slice4iter4IterBV_EB2n_EE0E0E0BZ_, symObjAddr: 0x2358, symBinAddr: 0x5AE78, symSize: 0x7C }
  - { offset: 0xCEAFF, size: 0x8, addend: 0x0, symName: __RNCINvNtNtNtCsaNl6UpbT7bw_4core4iter8adapters3map8map_foldRNtNtCsc29TF2YcYso_3syn8generics9TypeParamNtCshnvkK9b4wzu_11proc_macro25IdentuNCNvNtCs87DMVckFIdB_12serde_derive5bound10with_bound0NCIB2_B1A_TB1A_uEuNCINvXs8_NtCsg4dki62PTrg_9hashbrown3setINtB3s_7HashSetB1A_NtNtNtCsht3nMU9UgFu_3std4hash6random11RandomStateEINtNtNtB8_6traits7collect6ExtendB1A_E6extendINtB4_3MapNtBX_10TypeParamsB2a_EE0NCINvNvNtNtB58_8iterator8Iterator8for_each4callB3b_NCINvXs1i_NtB3u_3mapINtB7i_7HashMapB1A_uB4f_EIB54_B3b_E6extendIB5M_B5L_B3j_EE0E0E0E0B2g_, symObjAddr: 0x23D4, symBinAddr: 0x5AEF4, symSize: 0x8C }
  - { offset: 0xCEB84, size: 0x8, addend: 0x0, symName: __RNCINvNtNtNtCsaNl6UpbT7bw_4core4iter8adapters3map8map_foldRNtNtCsc29TF2YcYso_3syn8lifetime8LifetimeBV_uNvYBV_NtNtBa_5clone5Clone5cloneNCINvNvNtNtNtB8_6traits8iterator8Iterator8for_each4callBV_NCINvXsl_NtNtNtCsiTraAjBDcu4_5alloc11collections5btree3setINtB3d_8BTreeSetBV_EINtNtB2j_7collect6ExtendBV_E6extendINtNtB6_6cloned6ClonedINtB3d_4IterBV_EEE0E0E0Cs87DMVckFIdB_12serde_derive, symObjAddr: 0x2460, symBinAddr: 0x5AF80, symSize: 0x8C }
  - { offset: 0xCEC09, size: 0x8, addend: 0x0, symName: __RNCINvNtNtNtCsaNl6UpbT7bw_4core4iter8adapters3map8map_foldRNtNtCsc29TF2YcYso_3syn8lifetime8LifetimeBV_uNvYBV_NtNtBa_5clone5Clone5cloneNCINvNvNtNtNtB8_6traits8iterator8Iterator8for_each4callBV_NCINvXsl_NtNtNtCsiTraAjBDcu4_5alloc11collections5btree3setINtB3d_8BTreeSetBV_EINtNtB2j_7collect6ExtendBV_E6extendINtNtB6_6cloned6ClonedINtNtBa_6option4IterBV_EEE0E0E0Cs87DMVckFIdB_12serde_derive, symObjAddr: 0x24EC, symBinAddr: 0x5B00C, symSize: 0x8C }
  - { offset: 0xCEC8E, size: 0x8, addend: 0x0, symName: __RNCINvNtNtNtCsaNl6UpbT7bw_4core4iter8adapters3map8map_foldRNtNtNtCs87DMVckFIdB_12serde_derive9internals3ast5FieldNtCshnvkK9b4wzu_11proc_macro211TokenStreamB1N_NCNvNtB11_3ser24serialize_struct_variants0_0NCB2z_s1_0E0B11_, symObjAddr: 0x2578, symBinAddr: 0x5B098, symSize: 0xCC }
  - { offset: 0xCED16, size: 0x8, addend: 0x0, symName: __RNCINvNtNtNtCsaNl6UpbT7bw_4core4iter8adapters3map8map_foldRNtNtNtCs87DMVckFIdB_12serde_derive9internals3ast5FieldNtCshnvkK9b4wzu_11proc_macro211TokenStreamB1N_NCNvNtB11_3ser26serialize_struct_as_structs_0NCB2z_s0_0E0B11_, symObjAddr: 0x2644, symBinAddr: 0x5B164, symSize: 0xCC }
  - { offset: 0xCEDA0, size: 0x8, addend: 0x0, symName: __RNCINvNtNtNtCsaNl6UpbT7bw_4core4iter8adapters3map8map_foldRNtNtNtCs87DMVckFIdB_12serde_derive9internals3ast5FieldNtCshnvkK9b4wzu_11proc_macro211TokenStreamuNCNvNtB11_3ser27wrap_serialize_variant_withs_0NCINvNvNtNtNtB8_6traits8iterator8Iterator8for_each4callB1N_NCINvMsi_NtCsiTraAjBDcu4_5alloc3vecINtB4k_3VecB1N_E14extend_trustedINtB4_3MapINtNtNtBa_5slice4iter4IterBV_EB2u_EE0E0E0B11_, symObjAddr: 0x2710, symBinAddr: 0x5B230, symSize: 0x8C }
  - { offset: 0xCEE25, size: 0x8, addend: 0x0, symName: __RNCINvNtNtNtCsaNl6UpbT7bw_4core4iter8adapters3map8map_foldRNtNtNtCs87DMVckFIdB_12serde_derive9internals3ast5FieldNtNtCsc29TF2YcYso_3syn4expr6MemberuNCNvNtB11_3ser35serialize_adjacently_tagged_variants0_0NCINvNvNtNtNtB8_6traits8iterator8Iterator8for_each4callB1N_NCINvMsi_NtCsiTraAjBDcu4_5alloc3vecINtB4l_3VecB1N_E14extend_trustedINtB4_3MapINtNtNtBa_5slice4iter4IterBV_EB2m_EE0E0E0B11_, symObjAddr: 0x279C, symBinAddr: 0x5B2BC, symSize: 0x8C }
  - { offset: 0xCEEAA, size: 0x8, addend: 0x0, symName: __RNCINvNtNtNtCsaNl6UpbT7bw_4core4iter8adapters3map8map_foldRNtNtNtCs87DMVckFIdB_12serde_derive9internals3ast5FieldRNtNtCsc29TF2YcYso_3syn2ty4TypeuNCNvNtB11_3ser27wrap_serialize_variant_with0NCINvNvNtNtNtB8_6traits8iterator8Iterator8for_each4callB1N_NCINvMsi_NtCsiTraAjBDcu4_5alloc3vecINtB47_3VecB1N_E14extend_trustedINtB4_3MapINtNtNtBa_5slice4iter4IterBV_EB2j_EE0E0E0B11_, symObjAddr: 0x2828, symBinAddr: 0x5B348, symSize: 0x7C }
  - { offset: 0xCEF2F, size: 0x8, addend: 0x0, symName: __RNCINvNtNtNtCsaNl6UpbT7bw_4core4iter8adapters3map8map_foldRNtNtNtCs87DMVckFIdB_12serde_derive9internals3ast5FieldRNtNtCsc29TF2YcYso_3syn4expr6MemberuNCNvNtB11_3ser37serialize_struct_variant_with_flattens0_0NCINvNvNtNtNtB8_6traits8iterator8Iterator8for_each4callB1N_NCINvMsi_NtCsiTraAjBDcu4_5alloc3vecINtB4o_3VecB1N_E14extend_trustedINtB4_3MapINtNtNtBa_5slice4iter4IterBV_EB2n_EE0E0E0B11_, symObjAddr: 0x28A4, symBinAddr: 0x5B3C4, symSize: 0x7C }
  - { offset: 0xCEFB4, size: 0x8, addend: 0x0, symName: __RNCINvNtNtNtCsaNl6UpbT7bw_4core4iter8adapters3map8map_foldRNtNtNtCs87DMVckFIdB_12serde_derive9internals3ast5FieldRNtNtCsc29TF2YcYso_3syn4expr6MemberuNCNvNtB11_7pretend33pretend_fields_used_struct_packed0NCINvNvNtNtNtB8_6traits8iterator8Iterator8for_each4callB1N_NCINvMsi_NtCsiTraAjBDcu4_5alloc3vecINtB4l_3VecB1N_E14extend_trustedINtB4_3MapINtNtNtBa_5slice4iter4IterBV_EB2n_EE0E0E0B11_, symObjAddr: 0x2920, symBinAddr: 0x5B440, symSize: 0x7C }
  - { offset: 0xCF039, size: 0x8, addend: 0x0, symName: __RNCINvNtNtNtCsaNl6UpbT7bw_4core4iter8adapters3map8map_foldRNtNtNtCs87DMVckFIdB_12serde_derive9internals3ast5FieldjjNCINvNvXs1_NtB6_6filterINtB20_6FilterppENtNtNtB8_6traits8iterator8Iterator5count8to_usizeBU_NCNvNtB11_2de15deserialize_seq0E0NCINvXsK_NtB2x_5accumjNtB3Z_3Sum3sumINtB4_3MapINtNtNtBa_5slice4iter4IterBV_EB1P_EE0E0B11_, symObjAddr: 0x299C, symBinAddr: 0x5B4BC, symSize: 0x98 }
  - { offset: 0xCF0C0, size: 0x8, addend: 0x0, symName: __RNCINvNtNtNtCsaNl6UpbT7bw_4core4iter8adapters3map8map_foldRNtNtNtCs87DMVckFIdB_12serde_derive9internals3ast5FieldjjNCINvNvXs1_NtB6_6filterINtB20_6FilterppENtNtNtB8_6traits8iterator8Iterator5count8to_usizeBU_NCNvNtNtB11_2de5tuple11deserialize0E0NCINvXsK_NtB2x_5accumjNtB43_3Sum3sumINtB4_3MapINtNtNtBa_5slice4iter4IterBV_EB1P_EE0E0B11_, symObjAddr: 0x2A34, symBinAddr: 0x5B554, symSize: 0x98 }
  - { offset: 0xCF147, size: 0x8, addend: 0x0, symName: __RNCINvNtNtNtCsaNl6UpbT7bw_4core4iter8adapters3map8map_foldRNtNtNtCs87DMVckFIdB_12serde_derive9internals3ast7VariantNtNtB11_2de16FieldWithAliasesuNCNvNtB1R_10identifier18deserialize_customs_0NCINvNvNtNtNtB8_6traits8iterator8Iterator8for_each4callB1P_NCINvMsi_NtCsiTraAjBDcu4_5alloc3vecINtB48_3VecB1P_E14extend_trustedINtB4_3MapINtNtNtBa_5slice4iter4IterBV_EB2j_EE0E0E0B11_, symObjAddr: 0x2ACC, symBinAddr: 0x5B5EC, symSize: 0x8C }
  - { offset: 0xCF1CC, size: 0x8, addend: 0x0, symName: __RNCINvNtNtNtCsaNl6UpbT7bw_4core4iter8adapters3map8map_foldRhhuNCNvNtCsiTraAjBDcu4_5alloc3str13replace_ascii0NCINvNvNtNtNtB8_6traits8iterator8Iterator8for_each4callhNCINvMsi_NtB14_3vecINtB2L_3VechE14extend_trustedINtB4_3MapINtNtNtBa_5slice4iter4IterhEBY_EE0E0E0Cs87DMVckFIdB_12serde_derive, symObjAddr: 0x2B58, symBinAddr: 0x5B678, symSize: 0x7C }
  - { offset: 0xCF251, size: 0x8, addend: 0x0, symName: __RNCINvNtNtNtCsaNl6UpbT7bw_4core4iter8adapters3map8map_foldTNtNtCsc29TF2YcYso_3syn8generics12GenericParamNtNtBZ_5token5CommaEBV_uNCNvXs8_NtBZ_10punctuatedINtB2a_10PunctuatedBV_B1E_ENtNtNtB8_6traits7collect12IntoIterator9into_iter0NCINvNvNtNtB2W_8iterator8Iterator8for_each4callBV_NCINvMsi_NtCsiTraAjBDcu4_5alloc3vecINtB4C_3VecBV_E14extend_trustedINtB4_3MapINtNtB4C_9into_iter8IntoIterBU_EB22_EE0E0E0Cs87DMVckFIdB_12serde_derive, symObjAddr: 0x2BD4, symBinAddr: 0x5B6F4, symSize: 0xB4 }
  - { offset: 0xCF2D7, size: 0x8, addend: 0x0, symName: __RNCINvNtNtNtCsaNl6UpbT7bw_4core4iter8adapters3map8map_foldTNtNtCsc29TF2YcYso_3syn8generics14WherePredicateNtNtBZ_5token5CommaEBV_uNCNvXs8_NtBZ_10punctuatedINtB2c_10PunctuatedBV_B1G_ENtNtNtB8_6traits7collect12IntoIterator9into_iter0NCINvNvNtNtB2Y_8iterator8Iterator8for_each4callBV_NCINvMsi_NtCsiTraAjBDcu4_5alloc3vecINtB4E_3VecBV_E14extend_trustedINtB4_3MapINtNtB4E_9into_iter8IntoIterBU_EB24_EE0E0E0Cs87DMVckFIdB_12serde_derive, symObjAddr: 0x2C88, symBinAddr: 0x5B7A8, symSize: 0xB0 }
  - { offset: 0xCF35D, size: 0x8, addend: 0x0, symName: __RNCINvNtNtNtCsaNl6UpbT7bw_4core4iter8adapters3map8map_foldTjRNtNtNtCs87DMVckFIdB_12serde_derive9internals3ast5FieldENtCshnvkK9b4wzu_11proc_macro211TokenStreamB1Q_NCNvNtB13_3ser22serialize_tuple_structs_0NCB2C_s0_0E0B13_, symObjAddr: 0x2D38, symBinAddr: 0x5B858, symSize: 0xD4 }
  - { offset: 0xCF3E7, size: 0x8, addend: 0x0, symName: __RNCINvNtNtNtCsaNl6UpbT7bw_4core4iter8adapters3map8map_foldTjRNtNtNtCs87DMVckFIdB_12serde_derive9internals3ast5FieldENtCshnvkK9b4wzu_11proc_macro211TokenStreamB1Q_NCNvNtB13_3ser23serialize_tuple_variants_0NCB2C_s0_0E0B13_, symObjAddr: 0x2E0C, symBinAddr: 0x5B92C, symSize: 0xD4 }
  - { offset: 0xCF46F, size: 0x8, addend: 0x0, symName: __RNCINvNtNtNtCsaNl6UpbT7bw_4core4iter8adapters3map8map_foldTjRNtNtNtCs87DMVckFIdB_12serde_derive9internals3ast5FieldETBW_NtCshnvkK9b4wzu_11proc_macro25IdentEuNCNvNtNtB13_2de7struct_15deserialize_map0NCINvNvNtNtNtB8_6traits8iterator8Iterator8for_each4callB1Q_NCINvMsi_NtCsiTraAjBDcu4_5alloc3vecINtB4g_3VecB1Q_E14extend_trustedINtB4_3MapINtNtB6_9enumerate9EnumerateINtNtNtBa_5slice4iter4IterBX_EEB2v_EE0E0E0B13_, symObjAddr: 0x2EE0, symBinAddr: 0x5BA00, symSize: 0x90 }
  - { offset: 0xCF4F4, size: 0x8, addend: 0x0, symName: __RNCINvNtNtNtCsaNl6UpbT7bw_4core4iter8adapters3map8map_foldTjRNtNtNtCs87DMVckFIdB_12serde_derive9internals3ast7VariantENtCshnvkK9b4wzu_11proc_macro211TokenStreamuNCNvNtB13_3ser14serialize_enum0NCINvNvNtNtNtB8_6traits8iterator8Iterator8for_each4callB1S_NCINvMsi_NtCsiTraAjBDcu4_5alloc3vecINtB4a_3VecB1S_E14extend_trustedINtB4_3MapINtNtB6_9enumerate9EnumerateINtNtNtBa_5slice4iter4IterBX_EEB2z_EE0E0E0B13_, symObjAddr: 0x2F70, symBinAddr: 0x5BA90, symSize: 0x90 }
  - { offset: 0xCF579, size: 0x8, addend: 0x0, symName: __RNCINvNtNtNtCsaNl6UpbT7bw_4core4iter8adapters3map8map_foldjNtCshnvkK9b4wzu_11proc_macro25IdentuNCNCNvNtCs87DMVckFIdB_12serde_derive7pretend21pretend_variants_used00NCINvNvNtNtNtB8_6traits8iterator8Iterator8for_each4callBV_NCINvMsi_NtCsiTraAjBDcu4_5alloc3vecINtB3H_3VecBV_E14extend_trustedINtB4_3MapINtNtNtBa_3ops5range5RangejEB1v_EE0E0E0B1D_, symObjAddr: 0x3000, symBinAddr: 0x5BB20, symSize: 0x88 }
  - { offset: 0xCF5FE, size: 0x8, addend: 0x0, symName: __RNCINvNtNtNtCsaNl6UpbT7bw_4core4iter8adapters3map8map_foldjNtNtCsc29TF2YcYso_3syn4expr6MemberuNCNvNtCs87DMVckFIdB_12serde_derive3ser35serialize_adjacently_tagged_variants_0NCINvNvNtNtNtB8_6traits8iterator8Iterator8for_each4callBV_NCINvMsi_NtCsiTraAjBDcu4_5alloc3vecINtB3P_3VecBV_E14extend_trustedINtB4_3MapINtNtNtBa_3ops5range5RangejEB1u_EE0E0E0B1A_, symObjAddr: 0x3088, symBinAddr: 0x5BBA8, symSize: 0x88 }
  - { offset: 0xCFA34, size: 0x8, addend: 0x0, symName: __RNCINvNtNtNtCsaNl6UpbT7bw_4core4iter8adapters3map12map_try_foldRNtNtCsc29TF2YcYso_3syn8generics9TypeParamNtCshnvkK9b4wzu_11proc_macro25IdentuINtNtNtBa_3ops12control_flow11ControlFlowB1F_ENCNvNtCs87DMVckFIdB_12serde_derive5bound10with_bounds1_0NCINvNvNtNtNtB8_6traits8iterator8Iterator4find5checkB1F_QNCB31_s2_0E0E0B35_, symObjAddr: 0x1F8C, symBinAddr: 0x5AAAC, symSize: 0x98 }
  - { offset: 0xCFAC6, size: 0x8, addend: 0x0, symName: __RNCINvNtNtNtCsaNl6UpbT7bw_4core4iter8adapters3map12map_try_foldRNtNtNtCs87DMVckFIdB_12serde_derive9internals3ast7VariantINtNtNtBa_5slice4iter4IterNtB12_5FieldEjINtNtNtBa_3ops12control_flow11ControlFlowujENCNvMs_B12_NtB12_4Data10all_fields0NCINvNvMsg_NtB6_7flattenINtB40_13FlattenCompatppE13iter_try_fold7flattenB1U_jB2y_INvNvXsi_B40_B4d_NtNtNtB8_6traits8iterator8Iterator10advance_by7advanceB1U_EE0E0B16_, symObjAddr: 0x2024, symBinAddr: 0x5AB44, symSize: 0xC4 }
  - { offset: 0xCFE05, size: 0x8, addend: 0x0, symName: __RNvXsb_NtNtNtCsaNl6UpbT7bw_4core4iter8adapters3mapINtB5_3MapINtNtNtBb_3ops5range5RangejEFjENtCshnvkK9b4wzu_11proc_macro25IdentENtNtBb_5clone5Clone5cloneCs87DMVckFIdB_12serde_derive, symObjAddr: 0x7418, symBinAddr: 0x5FF38, symSize: 0x7C }
  - { offset: 0xCFE43, size: 0x8, addend: 0x0, symName: __RNvXsb_NtNtNtCsaNl6UpbT7bw_4core4iter8adapters3mapINtB5_3MapINtNtNtBb_5slice4iter4IterNtNtCs87DMVckFIdB_12serde_derive2de16FieldWithAliasesENCNvNtB1o_10identifier22deserialize_identifier0ENtNtBb_5clone5Clone5cloneB1q_, symObjAddr: 0x7494, symBinAddr: 0x5FFB4, symSize: 0x7C }
  - { offset: 0xCFE81, size: 0x8, addend: 0x0, symName: __RNvXsb_NtNtNtCsaNl6UpbT7bw_4core4iter8adapters3mapINtB5_3MapINtNtNtBb_5slice4iter4IterNtNtCs87DMVckFIdB_12serde_derive2de16FieldWithAliasesENCNvNtB1o_10identifier22deserialize_identifiers_0ENtNtBb_5clone5Clone5cloneB1q_, symObjAddr: 0x7510, symBinAddr: 0x60030, symSize: 0x7C }
  - { offset: 0xD0F86, size: 0x8, addend: 0x0, symName: __RINvNtNtNtCsaNl6UpbT7bw_4core4iter8adapters5chain17and_then_or_clearINtNtB4_3map3MapINtNtB4_6filter6FilterIB15_NtNtCsc29TF2YcYso_3syn8generics10TypeParamsNCNvNtCs87DMVckFIdB_12serde_derive5bound10with_bounds1_0ENCB2u_s2_0ENCB2u_s3_0ENtNtB1P_2ty8TypePathNvYB14_NtNtNtB6_6traits8iterator8Iterator4nextEB2y_, symObjAddr: 0x2F4, symBinAddr: 0x58E14, symSize: 0x124 }
  - { offset: 0xD10C5, size: 0x8, addend: 0x0, symName: __RINvNtNtNtCsaNl6UpbT7bw_4core4iter8adapters5chain17and_then_or_clearINtNtB8_6option8IntoIterNtNtCsc29TF2YcYso_3syn8generics12GenericParamEB1s_NvYB14_NtNtNtB6_6traits8iterator8Iterator4nextECs87DMVckFIdB_12serde_derive, symObjAddr: 0x418, symBinAddr: 0x58F38, symSize: 0x130 }
  - { offset: 0xD1271, size: 0x8, addend: 0x0, symName: __RNCNvXs_NtNtNtCsaNl6UpbT7bw_4core4iter8adapters5chainINtB6_5ChainINtNtB8_3map3MapINtNtB8_6filter6FilterIB12_NtNtCsc29TF2YcYso_3syn8generics10TypeParamsNCNvNtCs87DMVckFIdB_12serde_derive5bound10with_bounds1_0ENCB2r_s2_0ENCB2r_s3_0EINtNtB8_6cloned6ClonedINtNtNtCsiTraAjBDcu4_5alloc3vec9into_iter8IntoIterRNtNtB1M_2ty8TypePathEEENtNtNtBa_6traits8iterator8Iterator4next0B2v_, symObjAddr: 0x3438, symBinAddr: 0x5BF58, symSize: 0x88 }
  - { offset: 0xD1341, size: 0x8, addend: 0x0, symName: __RNCNvXs_NtNtNtCsaNl6UpbT7bw_4core4iter8adapters5chainINtB6_5ChainINtNtBc_6option8IntoIterNtNtCsc29TF2YcYso_3syn8generics12GenericParamEINtNtB1t_10punctuated8IntoIterB1p_EENtNtNtBa_6traits8iterator8Iterator4next0Cs87DMVckFIdB_12serde_derive, symObjAddr: 0x34C0, symBinAddr: 0x5BFE0, symSize: 0x88 }
  - { offset: 0xD1411, size: 0x8, addend: 0x0, symName: __RNCNvXs_NtNtNtCsaNl6UpbT7bw_4core4iter8adapters5chainINtB6_5ChainINtNtBc_6option8IntoIterNtNtCsc29TF2YcYso_3syn8generics12GenericParamEINtNtB8_3map3MapINtNtB8_6cloned6ClonedINtNtB1t_10punctuated4IterB1p_EENCNvNtCs87DMVckFIdB_12serde_derive5bound19with_lifetime_bound0EENtNtNtBa_6traits8iterator8Iterator4next0B3n_, symObjAddr: 0x3548, symBinAddr: 0x5C068, symSize: 0x88 }
  - { offset: 0xD14E2, size: 0x8, addend: 0x0, symName: __RNvXs_NtNtNtCsaNl6UpbT7bw_4core4iter8adapters5chainINtB4_5ChainINtNtB6_3map3MapINtNtB6_6filter6FilterIB10_NtNtCsc29TF2YcYso_3syn8generics10TypeParamsNCNvNtCs87DMVckFIdB_12serde_derive5bound10with_bounds1_0ENCB2p_s2_0ENCB2p_s3_0EINtNtB6_6cloned6ClonedINtNtNtCsiTraAjBDcu4_5alloc3vec9into_iter8IntoIterRNtNtB1K_2ty8TypePathEEENtNtNtB8_6traits8iterator8Iterator4nextB2t_, symObjAddr: 0x733C, symBinAddr: 0x5FE5C, symSize: 0x44 }
  - { offset: 0xD1520, size: 0x8, addend: 0x0, symName: __RNvXs_NtNtNtCsaNl6UpbT7bw_4core4iter8adapters5chainINtB4_5ChainINtNtBa_6option8IntoIterNtNtCsc29TF2YcYso_3syn8generics12GenericParamEINtNtB1r_10punctuated8IntoIterB1n_EENtNtNtB8_6traits8iterator8Iterator4nextCs87DMVckFIdB_12serde_derive, symObjAddr: 0x7380, symBinAddr: 0x5FEA0, symSize: 0x4C }
  - { offset: 0xD155E, size: 0x8, addend: 0x0, symName: __RNvXs_NtNtNtCsaNl6UpbT7bw_4core4iter8adapters5chainINtB4_5ChainINtNtBa_6option8IntoIterNtNtCsc29TF2YcYso_3syn8generics12GenericParamEINtNtB6_3map3MapINtNtB6_6cloned6ClonedINtNtB1r_10punctuated4IterB1n_EENCNvNtCs87DMVckFIdB_12serde_derive5bound19with_lifetime_bound0EENtNtNtB8_6traits8iterator8Iterator4nextB3l_, symObjAddr: 0x73CC, symBinAddr: 0x5FEEC, symSize: 0x4C }
  - { offset: 0xD1740, size: 0x8, addend: 0x0, symName: __RNvYINtNtNtNtCsaNl6UpbT7bw_4core4iter8adapters3map3MapINtNtNtBb_3ops5range5RangejEFjENtCshnvkK9b4wzu_11proc_macro25IdentENtNtB7_3zip27TrustedRandomAccessNoCoerce4sizeCs87DMVckFIdB_12serde_derive, symObjAddr: 0x773C, symBinAddr: 0x6025C, symSize: 0x2C }
  - { offset: 0xD1D66, size: 0x8, addend: 0x0, symName: __RINvYINtNtNtNtCsaNl6UpbT7bw_4core4iter8adapters3map3MapIB4_NtNtCsc29TF2YcYso_3syn8generics10TypeParamsNCNvNtCs87DMVckFIdB_12serde_derive5bound10with_bound0ENCINvXs8_NtCsg4dki62PTrg_9hashbrown3setINtB2D_7HashSetNtCshnvkK9b4wzu_11proc_macro25IdentNtNtNtCsht3nMU9UgFu_3std4hash6random11RandomStateEINtNtNtBa_6traits7collect6ExtendB3m_E6extendBR_E0ENtNtB4O_8iterator8Iterator8for_eachNCINvXs1i_NtB2F_3mapINtB6g_7HashMapB3m_uB3V_EIB4K_TB3m_uEE6extendB3_E0EB1I_, symObjAddr: 0xDAC, symBinAddr: 0x598CC, symSize: 0x34 }
  - { offset: 0xD1DB1, size: 0x8, addend: 0x0, symName: __RINvYINtNtNtNtCsaNl6UpbT7bw_4core4iter8adapters3map3MapIB4_NtNtCshnvkK9b4wzu_11proc_macro212token_stream8IntoIterNCNvNtNtCs87DMVckFIdB_12serde_derive9internals6respan6respan0ENvNtBZ_3imp19into_compiler_tokenENtNtNtBa_6traits8iterator8Iterator7collectNtCs7yrEGia95Wz_10proc_macro11TokenStreamEB1V_, symObjAddr: 0xDE0, symBinAddr: 0x59900, symSize: 0x6C }
  - { offset: 0xD1E47, size: 0x8, addend: 0x0, symName: __RINvYINtNtNtNtCsaNl6UpbT7bw_4core4iter8adapters3map3MapIB4_NtNtCshnvkK9b4wzu_11proc_macro212token_stream8IntoIterNCNvNtNtCs87DMVckFIdB_12serde_derive9internals6respan6respan0ENvNtBZ_3imp19into_compiler_tokenENtNtNtBa_6traits8iterator8Iterator8for_eachNCINvXsg_Cs7yrEGia95Wz_10proc_macroNtB4a_11TokenStreamINtNtB3o_7collect12FromIteratorNtB4a_9TokenTreeE9from_iterB3_E0EB1V_, symObjAddr: 0xE4C, symBinAddr: 0x5996C, symSize: 0x24 }
  - { offset: 0xD1E93, size: 0x8, addend: 0x0, symName: __RINvYINtNtNtNtCsaNl6UpbT7bw_4core4iter8adapters3map3MapINtNtB8_6filter6FilterIB4_NtNtCsc29TF2YcYso_3syn8generics10TypeParamsNCNvNtCs87DMVckFIdB_12serde_derive5bound10with_bounds1_0ENCB20_s2_0ENCB20_s3_0ENtNtNtBa_6traits8iterator8Iterator5chainINtNtB8_6cloned6ClonedINtNtNtCsiTraAjBDcu4_5alloc3vec9into_iter8IntoIterRNtNtB1l_2ty8TypePathEEEB24_, symObjAddr: 0xE70, symBinAddr: 0x59990, symSize: 0xAC }
  - { offset: 0xD1F0A, size: 0x8, addend: 0x0, symName: __RINvYINtNtNtNtCsaNl6UpbT7bw_4core4iter8adapters3map3MapINtNtB8_6filter6FilterINtNtB8_9enumerate9EnumerateINtNtNtBc_5slice4iter4IterNtNtNtCs87DMVckFIdB_12serde_derive9internals3ast5FieldEENCNvNtB2b_3ser30serialize_tuple_struct_visitor0ENCB31_s_0ENtNtNtBa_6traits8iterator8Iterator7collectINtNtCsiTraAjBDcu4_5alloc3vec3VecNtCshnvkK9b4wzu_11proc_macro211TokenStreamEEB2b_, symObjAddr: 0xF1C, symBinAddr: 0x59A3C, symSize: 0x74 }
  - { offset: 0xD1FA0, size: 0x8, addend: 0x0, symName: __RINvYINtNtNtNtCsaNl6UpbT7bw_4core4iter8adapters3map3MapINtNtB8_6filter6FilterINtNtB8_9enumerate9EnumerateINtNtNtBc_5slice4iter4IterNtNtNtCs87DMVckFIdB_12serde_derive9internals3ast5FieldEENCNvNtNtB2b_2de7struct_11deserialize0ENCB31_s_0ENtNtNtBa_6traits8iterator8Iterator7collectINtNtCsiTraAjBDcu4_5alloc3vec3VecNtB35_16FieldWithAliasesEEB2b_, symObjAddr: 0xF90, symBinAddr: 0x59AB0, symSize: 0x68 }
  - { offset: 0xD2036, size: 0x8, addend: 0x0, symName: __RINvYINtNtNtNtCsaNl6UpbT7bw_4core4iter8adapters3map3MapINtNtB8_6filter6FilterINtNtB8_9enumerate9EnumerateINtNtNtBc_5slice4iter4IterNtNtNtCs87DMVckFIdB_12serde_derive9internals3ast7VariantEENCNvNtNtB2b_2de15enum_adjacently11deserialize0ENCB33_s_0ENtNtNtBa_6traits8iterator8Iterator7collectINtNtCsiTraAjBDcu4_5alloc3vec3VecNtCshnvkK9b4wzu_11proc_macro211TokenStreamEEB2b_, symObjAddr: 0xFF8, symBinAddr: 0x59B18, symSize: 0x74 }
  - { offset: 0xD20CC, size: 0x8, addend: 0x0, symName: __RINvYINtNtNtNtCsaNl6UpbT7bw_4core4iter8adapters3map3MapINtNtB8_6filter6FilterINtNtB8_9enumerate9EnumerateINtNtNtBc_5slice4iter4IterNtNtNtCs87DMVckFIdB_12serde_derive9internals3ast7VariantEENCNvNtNtB2b_2de5enum_25prepare_enum_variant_enum0ENCB33_s2_0ENtNtNtBa_6traits8iterator8Iterator7collectINtNtCsiTraAjBDcu4_5alloc3vec3VecNtB37_16FieldWithAliasesEEB2b_, symObjAddr: 0x106C, symBinAddr: 0x59B8C, symSize: 0x68 }
  - { offset: 0xD2162, size: 0x8, addend: 0x0, symName: __RINvYINtNtNtNtCsaNl6UpbT7bw_4core4iter8adapters3map3MapINtNtB8_6filter6FilterINtNtNtBc_5slice4iter4IterNtNtNtCs87DMVckFIdB_12serde_derive9internals3ast5FieldENCNvNtB1J_3ser24serialize_struct_visitor0ENCB2y_s_0ENtNtNtBa_6traits8iterator8Iterator7collectINtNtCsiTraAjBDcu4_5alloc3vec3VecNtCshnvkK9b4wzu_11proc_macro211TokenStreamEEB1J_, symObjAddr: 0x10D4, symBinAddr: 0x59BF4, symSize: 0x74 }
  - { offset: 0xD21F8, size: 0x8, addend: 0x0, symName: __RINvYINtNtNtNtCsaNl6UpbT7bw_4core4iter8adapters3map3MapINtNtB8_9enumerate9EnumerateINtNtCsc29TF2YcYso_3syn10punctuated4IterNtNtB1o_4data5FieldEENCNvNtNtCs87DMVckFIdB_12serde_derive9internals3ast15fields_from_ast0ENtNtNtBa_6traits8iterator8Iterator7collectINtNtCsiTraAjBDcu4_5alloc3vec3VecNtB2m_5FieldEEB2q_, symObjAddr: 0x1148, symBinAddr: 0x59C68, symSize: 0x74 }
  - { offset: 0xD228E, size: 0x8, addend: 0x0, symName: __RINvYINtNtNtNtCsaNl6UpbT7bw_4core4iter8adapters3map3MapINtNtB8_9enumerate9EnumerateINtNtNtBc_5slice4iter4IterNtNtNtCs87DMVckFIdB_12serde_derive9internals3ast5FieldEENCNvNtNtB1P_2de7struct_15deserialize_map0ENtNtNtBa_6traits8iterator8Iterator7collectINtNtCsiTraAjBDcu4_5alloc3vec3VecTRB1J_NtCshnvkK9b4wzu_11proc_macro25IdentEEEB1P_, symObjAddr: 0x11BC, symBinAddr: 0x59CDC, symSize: 0x68 }
  - { offset: 0xD2324, size: 0x8, addend: 0x0, symName: __RINvYINtNtNtNtCsaNl6UpbT7bw_4core4iter8adapters3map3MapINtNtB8_9enumerate9EnumerateINtNtNtBc_5slice4iter4IterNtNtNtCs87DMVckFIdB_12serde_derive9internals3ast5FieldEENCNvNtNtB1P_2de7struct_15deserialize_map0ENtNtNtBa_6traits8iterator8Iterator8for_eachNCINvMsi_NtCsiTraAjBDcu4_5alloc3vecINtB49_3VecTRB1J_NtCshnvkK9b4wzu_11proc_macro25IdentEE14extend_trustedB3_E0EB1P_, symObjAddr: 0x1224, symBinAddr: 0x59D44, symSize: 0x34 }
  - { offset: 0xD2390, size: 0x8, addend: 0x0, symName: __RINvYINtNtNtNtCsaNl6UpbT7bw_4core4iter8adapters3map3MapINtNtB8_9enumerate9EnumerateINtNtNtBc_5slice4iter4IterNtNtNtCs87DMVckFIdB_12serde_derive9internals3ast7VariantEENCNvNtB1P_3ser14serialize_enum0ENtNtNtBa_6traits8iterator8Iterator7collectINtNtCsiTraAjBDcu4_5alloc3vec3VecNtCshnvkK9b4wzu_11proc_macro211TokenStreamEEB1P_, symObjAddr: 0x1258, symBinAddr: 0x59D78, symSize: 0x74 }
  - { offset: 0xD2426, size: 0x8, addend: 0x0, symName: __RINvYINtNtNtNtCsaNl6UpbT7bw_4core4iter8adapters3map3MapINtNtB8_9enumerate9EnumerateINtNtNtBc_5slice4iter4IterNtNtNtCs87DMVckFIdB_12serde_derive9internals3ast7VariantEENCNvNtB1P_3ser14serialize_enum0ENtNtNtBa_6traits8iterator8Iterator8for_eachNCINvMsi_NtCsiTraAjBDcu4_5alloc3vecINtB41_3VecNtCshnvkK9b4wzu_11proc_macro211TokenStreamE14extend_trustedB3_E0EB1P_, symObjAddr: 0x12CC, symBinAddr: 0x59DEC, symSize: 0x34 }
  - { offset: 0xD2492, size: 0x8, addend: 0x0, symName: __RINvYINtNtNtNtCsaNl6UpbT7bw_4core4iter8adapters3map3MapINtNtCsc29TF2YcYso_3syn10punctuated4IterNtNtBW_4data7VariantENCNvNtNtCs87DMVckFIdB_12serde_derive9internals3ast13enum_from_ast0ENtNtNtBa_6traits8iterator8Iterator7collectINtNtCsiTraAjBDcu4_5alloc3vec3VecNtB1U_7VariantEEB1Y_, symObjAddr: 0x1300, symBinAddr: 0x59E20, symSize: 0x74 }
  - { offset: 0xD2528, size: 0x8, addend: 0x0, symName: __RINvYINtNtNtNtCsaNl6UpbT7bw_4core4iter8adapters3map3MapINtNtCsc29TF2YcYso_3syn10punctuated4IterNtNtBW_8generics12GenericParamENCNvNtCs87DMVckFIdB_12serde_derive5bound12type_of_item0ENtNtNtBa_6traits8iterator8Iterator7collectINtBU_10PunctuatedNtNtBW_4path15GenericArgumentNtNtBW_5token5CommaEEB26_, symObjAddr: 0x1374, symBinAddr: 0x59E94, symSize: 0x58 }
  - { offset: 0xD25BD, size: 0x8, addend: 0x0, symName: __RINvYINtNtNtNtCsaNl6UpbT7bw_4core4iter8adapters3map3MapINtNtCsc29TF2YcYso_3syn10punctuated4IterNtNtBW_8generics12GenericParamENCNvNtCs87DMVckFIdB_12serde_derive5bound16without_defaults0ENtNtNtBa_6traits8iterator8Iterator7collectINtBU_10PunctuatedB1v_NtNtBW_5token5CommaEEB26_, symObjAddr: 0x13CC, symBinAddr: 0x59EEC, symSize: 0x58 }
  - { offset: 0xD2652, size: 0x8, addend: 0x0, symName: __RINvYINtNtNtNtCsaNl6UpbT7bw_4core4iter8adapters3map3MapINtNtNtBc_3ops5range5RangejEFjENtCshnvkK9b4wzu_11proc_macro25IdentENtNtNtBa_6traits8iterator8Iterator3zipRSNtNtNtCs87DMVckFIdB_12serde_derive9internals3ast5FieldEB2G_, symObjAddr: 0x1424, symBinAddr: 0x59F44, symSize: 0xB0 }
  - { offset: 0xD26C8, size: 0x8, addend: 0x0, symName: __RINvYINtNtNtNtCsaNl6UpbT7bw_4core4iter8adapters3map3MapINtNtNtBc_3ops5range5RangejENCNCNvNtCs87DMVckFIdB_12serde_derive7pretend21pretend_variants_used00ENtNtNtBa_6traits8iterator8Iterator7collectINtNtCsiTraAjBDcu4_5alloc3vec3VecNtCshnvkK9b4wzu_11proc_macro25IdentEEB1r_, symObjAddr: 0x14D4, symBinAddr: 0x59FF4, symSize: 0x58 }
  - { offset: 0xD275D, size: 0x8, addend: 0x0, symName: __RINvYINtNtNtNtCsaNl6UpbT7bw_4core4iter8adapters3map3MapINtNtNtBc_3ops5range5RangejENCNCNvNtCs87DMVckFIdB_12serde_derive7pretend21pretend_variants_used00ENtNtNtBa_6traits8iterator8Iterator8for_eachNCINvMsi_NtCsiTraAjBDcu4_5alloc3vecINtB3h_3VecNtCshnvkK9b4wzu_11proc_macro25IdentE14extend_trustedB3_E0EB1r_, symObjAddr: 0x152C, symBinAddr: 0x5A04C, symSize: 0x3C }
  - { offset: 0xD27C8, size: 0x8, addend: 0x0, symName: __RINvYINtNtNtNtCsaNl6UpbT7bw_4core4iter8adapters3map3MapINtNtNtBc_3ops5range5RangejENCNvNtCs87DMVckFIdB_12serde_derive3ser35serialize_adjacently_tagged_variants_0ENtNtNtBa_6traits8iterator8Iterator7collectINtNtCsiTraAjBDcu4_5alloc3vec3VecNtNtCsc29TF2YcYso_3syn4expr6MemberEEB1p_, symObjAddr: 0x1568, symBinAddr: 0x5A088, symSize: 0x58 }
  - { offset: 0xD285D, size: 0x8, addend: 0x0, symName: __RINvYINtNtNtNtCsaNl6UpbT7bw_4core4iter8adapters3map3MapINtNtNtBc_3ops5range5RangejENCNvNtCs87DMVckFIdB_12serde_derive3ser35serialize_adjacently_tagged_variants_0ENtNtNtBa_6traits8iterator8Iterator8for_eachNCINvMsi_NtCsiTraAjBDcu4_5alloc3vecINtB3q_3VecNtNtCsc29TF2YcYso_3syn4expr6MemberE14extend_trustedB3_E0EB1p_, symObjAddr: 0x15C0, symBinAddr: 0x5A0E0, symSize: 0x3C }
  - { offset: 0xD28C8, size: 0x8, addend: 0x0, symName: __RINvYINtNtNtNtCsaNl6UpbT7bw_4core4iter8adapters3map3MapINtNtNtBc_5slice4iter4IterNtNtCs87DMVckFIdB_12serde_derive2de16FieldWithAliasesENCNvNtB1j_10identifier21deserialize_generated0ENtNtNtBa_6traits8iterator8Iterator7collectINtNtCsiTraAjBDcu4_5alloc3vec3VecRNtCshnvkK9b4wzu_11proc_macro25IdentEEB1l_, symObjAddr: 0x15FC, symBinAddr: 0x5A11C, symSize: 0x60 }
  - { offset: 0xD295D, size: 0x8, addend: 0x0, symName: __RINvYINtNtNtNtCsaNl6UpbT7bw_4core4iter8adapters3map3MapINtNtNtBc_5slice4iter4IterNtNtCs87DMVckFIdB_12serde_derive2de16FieldWithAliasesENCNvNtB1j_10identifier21deserialize_generated0ENtNtNtBa_6traits8iterator8Iterator8for_eachNCINvMsi_NtCsiTraAjBDcu4_5alloc3vecINtB3K_3VecRNtCshnvkK9b4wzu_11proc_macro25IdentE14extend_trustedB3_E0EB1l_, symObjAddr: 0x165C, symBinAddr: 0x5A17C, symSize: 0x44 }
  - { offset: 0xD29C8, size: 0x8, addend: 0x0, symName: __RINvYINtNtNtNtCsaNl6UpbT7bw_4core4iter8adapters3map3MapINtNtNtBc_5slice4iter4IterNtNtNtCs87DMVckFIdB_12serde_derive9internals3ast5FieldENCNvNtB1n_3ser27wrap_serialize_variant_with0ENtNtNtBa_6traits8iterator8Iterator7collectINtNtCsiTraAjBDcu4_5alloc3vec3VecRNtNtCsc29TF2YcYso_3syn2ty4TypeEEB1n_, symObjAddr: 0x16A0, symBinAddr: 0x5A1C0, symSize: 0x60 }
  - { offset: 0xD2A5D, size: 0x8, addend: 0x0, symName: __RINvYINtNtNtNtCsaNl6UpbT7bw_4core4iter8adapters3map3MapINtNtNtBc_5slice4iter4IterNtNtNtCs87DMVckFIdB_12serde_derive9internals3ast5FieldENCNvNtB1n_3ser27wrap_serialize_variant_with0ENtNtNtBa_6traits8iterator8Iterator8for_eachNCINvMsi_NtCsiTraAjBDcu4_5alloc3vecINtB3J_3VecRNtNtCsc29TF2YcYso_3syn2ty4TypeE14extend_trustedB3_E0EB1n_, symObjAddr: 0x1700, symBinAddr: 0x5A220, symSize: 0x44 }
  - { offset: 0xD2AC8, size: 0x8, addend: 0x0, symName: __RINvYINtNtNtNtCsaNl6UpbT7bw_4core4iter8adapters3map3MapINtNtNtBc_5slice4iter4IterNtNtNtCs87DMVckFIdB_12serde_derive9internals3ast5FieldENCNvNtB1n_3ser27wrap_serialize_variant_withs_0ENtNtNtBa_6traits8iterator8Iterator7collectINtNtCsiTraAjBDcu4_5alloc3vec3VecNtCshnvkK9b4wzu_11proc_macro211TokenStreamEEB1n_, symObjAddr: 0x1744, symBinAddr: 0x5A264, symSize: 0x60 }
  - { offset: 0xD2B5D, size: 0x8, addend: 0x0, symName: __RINvYINtNtNtNtCsaNl6UpbT7bw_4core4iter8adapters3map3MapINtNtNtBc_5slice4iter4IterNtNtNtCs87DMVckFIdB_12serde_derive9internals3ast5FieldENCNvNtB1n_3ser27wrap_serialize_variant_withs_0ENtNtNtBa_6traits8iterator8Iterator8for_eachNCINvMsi_NtCsiTraAjBDcu4_5alloc3vecINtB3L_3VecNtCshnvkK9b4wzu_11proc_macro211TokenStreamE14extend_trustedB3_E0EB1n_, symObjAddr: 0x17A4, symBinAddr: 0x5A2C4, symSize: 0x44 }
  - { offset: 0xD2BC8, size: 0x8, addend: 0x0, symName: __RINvYINtNtNtNtCsaNl6UpbT7bw_4core4iter8adapters3map3MapINtNtNtBc_5slice4iter4IterNtNtNtCs87DMVckFIdB_12serde_derive9internals3ast5FieldENCNvNtB1n_3ser35serialize_adjacently_tagged_variants0_0ENtNtNtBa_6traits8iterator8Iterator7collectINtNtCsiTraAjBDcu4_5alloc3vec3VecNtNtCsc29TF2YcYso_3syn4expr6MemberEEB1n_, symObjAddr: 0x17E8, symBinAddr: 0x5A308, symSize: 0x60 }
  - { offset: 0xD2C5D, size: 0x8, addend: 0x0, symName: __RINvYINtNtNtNtCsaNl6UpbT7bw_4core4iter8adapters3map3MapINtNtNtBc_5slice4iter4IterNtNtNtCs87DMVckFIdB_12serde_derive9internals3ast5FieldENCNvNtB1n_3ser35serialize_adjacently_tagged_variants0_0ENtNtNtBa_6traits8iterator8Iterator8for_eachNCINvMsi_NtCsiTraAjBDcu4_5alloc3vecINtB3U_3VecNtNtCsc29TF2YcYso_3syn4expr6MemberE14extend_trustedB3_E0EB1n_, symObjAddr: 0x1848, symBinAddr: 0x5A368, symSize: 0x44 }
  - { offset: 0xD2CC8, size: 0x8, addend: 0x0, symName: __RINvYINtNtNtNtCsaNl6UpbT7bw_4core4iter8adapters3map3MapINtNtNtBc_5slice4iter4IterNtNtNtCs87DMVckFIdB_12serde_derive9internals3ast5FieldENCNvNtB1n_3ser37serialize_struct_variant_with_flattens0_0ENtNtNtBa_6traits8iterator8Iterator7collectINtNtCsiTraAjBDcu4_5alloc3vec3VecRNtNtCsc29TF2YcYso_3syn4expr6MemberEEB1n_, symObjAddr: 0x188C, symBinAddr: 0x5A3AC, symSize: 0x60 }
  - { offset: 0xD2D5D, size: 0x8, addend: 0x0, symName: __RINvYINtNtNtNtCsaNl6UpbT7bw_4core4iter8adapters3map3MapINtNtNtBc_5slice4iter4IterNtNtNtCs87DMVckFIdB_12serde_derive9internals3ast5FieldENCNvNtB1n_3ser37serialize_struct_variant_with_flattens0_0ENtNtNtBa_6traits8iterator8Iterator8for_eachNCINvMsi_NtCsiTraAjBDcu4_5alloc3vecINtB3W_3VecRNtNtCsc29TF2YcYso_3syn4expr6MemberE14extend_trustedB3_E0EB1n_, symObjAddr: 0x18EC, symBinAddr: 0x5A40C, symSize: 0x44 }
  - { offset: 0xD2DC8, size: 0x8, addend: 0x0, symName: __RINvYINtNtNtNtCsaNl6UpbT7bw_4core4iter8adapters3map3MapINtNtNtBc_5slice4iter4IterNtNtNtCs87DMVckFIdB_12serde_derive9internals3ast5FieldENCNvNtB1n_7pretend33pretend_fields_used_struct_packed0ENtNtNtBa_6traits8iterator8Iterator7collectINtNtCsiTraAjBDcu4_5alloc3vec3VecRNtNtCsc29TF2YcYso_3syn4expr6MemberEEB1n_, symObjAddr: 0x1930, symBinAddr: 0x5A450, symSize: 0x60 }
  - { offset: 0xD2E5D, size: 0x8, addend: 0x0, symName: __RINvYINtNtNtNtCsaNl6UpbT7bw_4core4iter8adapters3map3MapINtNtNtBc_5slice4iter4IterNtNtNtCs87DMVckFIdB_12serde_derive9internals3ast5FieldENCNvNtB1n_7pretend33pretend_fields_used_struct_packed0ENtNtNtBa_6traits8iterator8Iterator8for_eachNCINvMsi_NtCsiTraAjBDcu4_5alloc3vecINtB3T_3VecRNtNtCsc29TF2YcYso_3syn4expr6MemberE14extend_trustedB3_E0EB1n_, symObjAddr: 0x1990, symBinAddr: 0x5A4B0, symSize: 0x44 }
  - { offset: 0xD2EC8, size: 0x8, addend: 0x0, symName: __RINvYINtNtNtNtCsaNl6UpbT7bw_4core4iter8adapters3map3MapINtNtNtBc_5slice4iter4IterNtNtNtCs87DMVckFIdB_12serde_derive9internals3ast7VariantENCNvNtNtB1n_2de10identifier18deserialize_customs_0ENtNtNtBa_6traits8iterator8Iterator7collectINtNtCsiTraAjBDcu4_5alloc3vec3VecNtB2i_16FieldWithAliasesEEB1n_, symObjAddr: 0x19D4, symBinAddr: 0x5A4F4, symSize: 0x60 }
  - { offset: 0xD2F5D, size: 0x8, addend: 0x0, symName: __RINvYINtNtNtNtCsaNl6UpbT7bw_4core4iter8adapters3map3MapINtNtNtBc_5slice4iter4IterNtNtNtCs87DMVckFIdB_12serde_derive9internals3ast7VariantENCNvNtNtB1n_2de10identifier18deserialize_customs_0ENtNtNtBa_6traits8iterator8Iterator8for_eachNCINvMsi_NtCsiTraAjBDcu4_5alloc3vecINtB3R_3VecNtB2i_16FieldWithAliasesE14extend_trustedB3_E0EB1n_, symObjAddr: 0x1A34, symBinAddr: 0x5A554, symSize: 0x44 }
  - { offset: 0xD2FC8, size: 0x8, addend: 0x0, symName: __RINvYINtNtNtNtCsaNl6UpbT7bw_4core4iter8adapters3map3MapINtNtNtBc_5slice4iter4IterhENCNvNtCsiTraAjBDcu4_5alloc3str13replace_ascii0ENtNtNtBa_6traits8iterator8Iterator7collectINtNtB1p_3vec3VechEECs87DMVckFIdB_12serde_derive, symObjAddr: 0x1A78, symBinAddr: 0x5A598, symSize: 0x68 }
  - { offset: 0xD305E, size: 0x8, addend: 0x0, symName: __RINvYINtNtNtNtCsaNl6UpbT7bw_4core4iter8adapters3map3MapINtNtNtBc_5slice4iter4IterhENCNvNtCsiTraAjBDcu4_5alloc3str13replace_ascii0ENtNtNtBa_6traits8iterator8Iterator8for_eachNCINvMsi_NtB1p_3vecINtB2U_3VechE14extend_trustedB3_E0ECs87DMVckFIdB_12serde_derive, symObjAddr: 0x1AE0, symBinAddr: 0x5A600, symSize: 0x34 }
  - { offset: 0xD30CA, size: 0x8, addend: 0x0, symName: __RINvYINtNtNtNtCsaNl6UpbT7bw_4core4iter8adapters3map3MapINtNtNtCsiTraAjBDcu4_5alloc3vec9into_iter8IntoIterTNtNtCsc29TF2YcYso_3syn8generics12GenericParamNtNtB1K_5token5CommaEENCNvXs8_NtB1K_10punctuatedINtB2T_10PunctuatedB1G_B2p_ENtNtNtBa_6traits7collect12IntoIterator9into_iter0ENtNtB3H_8iterator8Iterator8for_eachNCINvMsi_BW_INtBW_3VecB1G_E14extend_trustedB3_E0ECs87DMVckFIdB_12serde_derive, symObjAddr: 0x1B14, symBinAddr: 0x5A634, symSize: 0x34 }
  - { offset: 0xD3136, size: 0x8, addend: 0x0, symName: __RINvYINtNtNtNtCsaNl6UpbT7bw_4core4iter8adapters3map3MapINtNtNtCsiTraAjBDcu4_5alloc3vec9into_iter8IntoIterTNtNtCsc29TF2YcYso_3syn8generics14WherePredicateNtNtB1K_5token5CommaEENCNvXs8_NtB1K_10punctuatedINtB2V_10PunctuatedB1G_B2r_ENtNtNtBa_6traits7collect12IntoIterator9into_iter0ENtNtB3J_8iterator8Iterator8for_eachNCINvMsi_BW_INtBW_3VecB1G_E14extend_trustedB3_E0ECs87DMVckFIdB_12serde_derive, symObjAddr: 0x1B48, symBinAddr: 0x5A668, symSize: 0x34 }
  - { offset: 0xD31A2, size: 0x8, addend: 0x0, symName: __RINvYINtNtNtNtCsaNl6UpbT7bw_4core4iter8adapters3map3MapNtNtCsc29TF2YcYso_3syn8generics10TypeParamsNCNvNtCs87DMVckFIdB_12serde_derive5bound10with_bound0ENtNtNtBa_6traits8iterator8Iterator3mapTNtCshnvkK9b4wzu_11proc_macro25IdentuENCINvXs8_NtCsg4dki62PTrg_9hashbrown3setINtB3N_7HashSetB33_NtNtNtCsht3nMU9UgFu_3std4hash6random11RandomStateEINtNtB2u_7collect6ExtendB33_E6extendB3_E0EB1E_, symObjAddr: 0x1B7C, symBinAddr: 0x5A69C, symSize: 0x1C }
  - { offset: 0xD31FA, size: 0x8, addend: 0x0, symName: __RINvYINtNtNtNtCsaNl6UpbT7bw_4core4iter8adapters3map3MapNtNtCsc29TF2YcYso_3syn8generics10TypeParamsNCNvNtCs87DMVckFIdB_12serde_derive5bound10with_bound0ENtNtNtBa_6traits8iterator8Iterator7collectINtNtNtNtCsht3nMU9UgFu_3std11collections4hash3set7HashSetNtCshnvkK9b4wzu_11proc_macro25IdentEEB1E_, symObjAddr: 0x1B98, symBinAddr: 0x5A6B8, symSize: 0x58 }
  - { offset: 0xD328F, size: 0x8, addend: 0x0, symName: __RINvYINtNtNtNtCsaNl6UpbT7bw_4core4iter8adapters3map3MapNtNtCsc29TF2YcYso_3syn8generics10TypeParamsNCNvNtCs87DMVckFIdB_12serde_derive5bound10with_bounds1_0ENtNtNtBa_6traits8iterator8Iterator4findQNCB1A_s2_0EB1E_, symObjAddr: 0x1BF0, symBinAddr: 0x5A710, symSize: 0xA0 }
  - { offset: 0xD330A, size: 0x8, addend: 0x0, symName: __RINvYINtNtNtNtCsaNl6UpbT7bw_4core4iter8adapters3map3MapNtNtCsc29TF2YcYso_3syn8generics10TypeParamsNCNvNtCs87DMVckFIdB_12serde_derive5bound10with_bounds1_0ENtNtNtBa_6traits8iterator8Iterator6filterNCB1A_s2_0EB1E_, symObjAddr: 0x1C90, symBinAddr: 0x5A7B0, symSize: 0x30 }
  - { offset: 0xD336E, size: 0x8, addend: 0x0, symName: __RINvYINtNtNtNtCsaNl6UpbT7bw_4core4iter8adapters3map3MapNtNtCshnvkK9b4wzu_11proc_macro212token_stream8IntoIterNCNvNtNtCs87DMVckFIdB_12serde_derive9internals6respan6respan0ENtNtNtBa_6traits8iterator8Iterator3mapNtCs7yrEGia95Wz_10proc_macro9TokenTreeNvNtBV_3imp19into_compiler_tokenEB1R_, symObjAddr: 0x1CC0, symBinAddr: 0x5A7E0, symSize: 0x30 }
  - { offset: 0xD33DC, size: 0x8, addend: 0x0, symName: __RINvYINtNtNtNtCsaNl6UpbT7bw_4core4iter8adapters3map3MapNtNtCshnvkK9b4wzu_11proc_macro212token_stream8IntoIterNCNvNtNtCs87DMVckFIdB_12serde_derive9internals6respan6respan0ENtNtNtBa_6traits8iterator8Iterator7collectNtBV_11TokenStreamEB1R_, symObjAddr: 0x1CF0, symBinAddr: 0x5A810, symSize: 0x6C }
  - { offset: 0xD3472, size: 0x8, addend: 0x0, symName: __RINvYINtNtNtNtCsaNl6UpbT7bw_4core4iter8adapters3map3MapNtNtCshnvkK9b4wzu_11proc_macro212token_stream8IntoIterNCNvNtNtCs87DMVckFIdB_12serde_derive9internals6respan6respan0ENtNtNtBa_6traits8iterator8Iterator7collectNtNtBV_3imp11TokenStreamEB1R_, symObjAddr: 0x1D5C, symBinAddr: 0x5A87C, symSize: 0x6C }
  - { offset: 0xD3508, size: 0x8, addend: 0x0, symName: __RINvYINtNtNtNtCsaNl6UpbT7bw_4core4iter8adapters3map3MapNtNtCshnvkK9b4wzu_11proc_macro212token_stream8IntoIterNCNvNtNtCs87DMVckFIdB_12serde_derive9internals6respan6respan0ENtNtNtBa_6traits8iterator8Iterator7collectNtNtBV_8fallback11TokenStreamEB1R_, symObjAddr: 0x1DC8, symBinAddr: 0x5A8E8, symSize: 0x6C }
  - { offset: 0xD359E, size: 0x8, addend: 0x0, symName: __RINvYINtNtNtNtCsaNl6UpbT7bw_4core4iter8adapters3map3MapNtNtCshnvkK9b4wzu_11proc_macro212token_stream8IntoIterNCNvNtNtCs87DMVckFIdB_12serde_derive9internals6respan6respan0ENtNtNtBa_6traits8iterator8Iterator8for_eachNCINvXsa_NtBV_8fallbackNtB3z_11TokenStreamINtNtB2N_7collect6ExtendNtBV_9TokenTreeE6extendB3_E0EB1R_, symObjAddr: 0x1E34, symBinAddr: 0x5A954, symSize: 0x24 }
  - { offset: 0xD35EA, size: 0x8, addend: 0x0, symName: __RINvYINtNtNtNtCsaNl6UpbT7bw_4core4iter8adapters5chain5ChainINtNtB8_3map3MapINtNtB8_6filter6FilterIBW_NtNtCsc29TF2YcYso_3syn8generics10TypeParamsNCNvNtCs87DMVckFIdB_12serde_derive5bound10with_bounds1_0ENCB2k_s2_0ENCB2k_s3_0EINtNtB8_6cloned6ClonedINtNtNtCsiTraAjBDcu4_5alloc3vec9into_iter8IntoIterRNtNtB1F_2ty8TypePathEEENtNtNtBa_6traits8iterator8Iterator3mapNtB1D_14WherePredicateNCB2k_s4_0EB2o_, symObjAddr: 0x1E58, symBinAddr: 0x5A978, symSize: 0x4C }
  - { offset: 0xD3658, size: 0x8, addend: 0x0, symName: __RINvYINtNtNtNtCsaNl6UpbT7bw_4core4iter8adapters5chain5ChainINtNtBc_6option8IntoIterNtNtCsc29TF2YcYso_3syn8generics12GenericParamEINtNtB1n_10punctuated8IntoIterB1j_EENtNtNtBa_6traits8iterator8Iterator7collectINtB26_10PunctuatedB1j_NtNtB1n_5token5CommaEECs87DMVckFIdB_12serde_derive, symObjAddr: 0x1EA4, symBinAddr: 0x5A9C4, symSize: 0x74 }
  - { offset: 0xD36EE, size: 0x8, addend: 0x0, symName: __RINvYINtNtNtNtCsaNl6UpbT7bw_4core4iter8adapters5chain5ChainINtNtBc_6option8IntoIterNtNtCsc29TF2YcYso_3syn8generics12GenericParamEINtNtB8_3map3MapINtNtB8_6cloned6ClonedINtNtB1n_10punctuated4IterB1j_EENCNvNtCs87DMVckFIdB_12serde_derive5bound19with_lifetime_bound0EENtNtNtBa_6traits8iterator8Iterator7collectINtB2I_10PunctuatedB1j_NtNtB1n_5token5CommaEEB3h_, symObjAddr: 0x1F18, symBinAddr: 0x5AA38, symSize: 0x74 }
  - { offset: 0xD37AF, size: 0x8, addend: 0x0, symName: __RNvXNtNtNtCsaNl6UpbT7bw_4core4iter6traits7collectINtNtNtB6_8adapters3map3MapIBM_NtNtCsc29TF2YcYso_3syn8generics10TypeParamsNCNvNtCs87DMVckFIdB_12serde_derive5bound10with_bound0ENCINvXs8_NtCsg4dki62PTrg_9hashbrown3setINtB2Y_7HashSetNtCshnvkK9b4wzu_11proc_macro25IdentNtNtNtCsht3nMU9UgFu_3std4hash6random11RandomStateEINtB2_6ExtendB3H_E6extendB1c_E0ENtB2_12IntoIterator9into_iterB23_, symObjAddr: 0x427C, symBinAddr: 0x5CD9C, symSize: 0x1C }
  - { offset: 0xD37E6, size: 0x8, addend: 0x0, symName: __RNvXNtNtNtCsaNl6UpbT7bw_4core4iter6traits7collectINtNtNtB6_8adapters3map3MapIBM_NtNtCshnvkK9b4wzu_11proc_macro212token_stream8IntoIterNCNvNtNtCs87DMVckFIdB_12serde_derive9internals6respan6respan0ENvNtB1k_3imp19into_compiler_tokenENtB2_12IntoIterator9into_iterB2g_, symObjAddr: 0x4298, symBinAddr: 0x5CDB8, symSize: 0x30 }
  - { offset: 0xD381E, size: 0x8, addend: 0x0, symName: __RNvXNtNtNtCsaNl6UpbT7bw_4core4iter6traits7collectINtNtNtB6_8adapters3map3MapINtNtBQ_5chain5ChainIBM_INtNtBQ_6filter6FilterIBM_NtNtCsc29TF2YcYso_3syn8generics10TypeParamsNCNvNtCs87DMVckFIdB_12serde_derive5bound10with_bounds1_0ENCB2J_s2_0ENCB2J_s3_0EINtNtBQ_6cloned6ClonedINtNtNtCsiTraAjBDcu4_5alloc3vec9into_iter8IntoIterRNtNtB24_2ty8TypePathEEENCB2J_s4_0ENtB2_12IntoIterator9into_iterB2N_, symObjAddr: 0x42C8, symBinAddr: 0x5CDE8, symSize: 0x30 }
  - { offset: 0xD3856, size: 0x8, addend: 0x0, symName: __RNvXNtNtNtCsaNl6UpbT7bw_4core4iter6traits7collectINtNtNtB6_8adapters3map3MapINtNtBQ_6cloned6ClonedINtNtCsc29TF2YcYso_3syn10punctuated4IterNtNtB1D_8generics12GenericParamEENCNvNtCs87DMVckFIdB_12serde_derive5bound19with_lifetime_bound0ENtB2_12IntoIterator9into_iterB2P_, symObjAddr: 0x42F8, symBinAddr: 0x5CE18, symSize: 0x18 }
  - { offset: 0xD388D, size: 0x8, addend: 0x0, symName: __RNvXNtNtNtCsaNl6UpbT7bw_4core4iter6traits7collectINtNtNtB6_8adapters3map3MapINtNtBQ_6filter6FilterINtNtBQ_9enumerate9EnumerateINtNtNtB8_5slice4iter4IterNtNtNtCs87DMVckFIdB_12serde_derive9internals3ast5FieldEENCNvNtB2w_3ser30serialize_tuple_struct_visitor0ENCB3m_s_0ENtB2_12IntoIterator9into_iterB2w_, symObjAddr: 0x4310, symBinAddr: 0x5CE30, symSize: 0x30 }
  - { offset: 0xD38C5, size: 0x8, addend: 0x0, symName: __RNvXNtNtNtCsaNl6UpbT7bw_4core4iter6traits7collectINtNtNtB6_8adapters3map3MapINtNtBQ_6filter6FilterINtNtBQ_9enumerate9EnumerateINtNtNtB8_5slice4iter4IterNtNtNtCs87DMVckFIdB_12serde_derive9internals3ast5FieldEENCNvNtNtB2w_2de7struct_11deserialize0ENCB3m_s_0ENtB2_12IntoIterator9into_iterB2w_, symObjAddr: 0x4340, symBinAddr: 0x5CE60, symSize: 0x18 }
  - { offset: 0xD38FC, size: 0x8, addend: 0x0, symName: __RNvXNtNtNtCsaNl6UpbT7bw_4core4iter6traits7collectINtNtNtB6_8adapters3map3MapINtNtBQ_6filter6FilterINtNtBQ_9enumerate9EnumerateINtNtNtB8_5slice4iter4IterNtNtNtCs87DMVckFIdB_12serde_derive9internals3ast7VariantEENCNvNtNtB2w_2de15enum_adjacently11deserialize0ENCB3o_s_0ENtB2_12IntoIterator9into_iterB2w_, symObjAddr: 0x4358, symBinAddr: 0x5CE78, symSize: 0x30 }
  - { offset: 0xD3934, size: 0x8, addend: 0x0, symName: __RNvXNtNtNtCsaNl6UpbT7bw_4core4iter6traits7collectINtNtNtB6_8adapters3map3MapINtNtBQ_6filter6FilterINtNtBQ_9enumerate9EnumerateINtNtNtB8_5slice4iter4IterNtNtNtCs87DMVckFIdB_12serde_derive9internals3ast7VariantEENCNvNtNtB2w_2de5enum_25prepare_enum_variant_enum0ENCB3o_s2_0ENtB2_12IntoIterator9into_iterB2w_, symObjAddr: 0x4388, symBinAddr: 0x5CEA8, symSize: 0x18 }
  - { offset: 0xD396B, size: 0x8, addend: 0x0, symName: __RNvXNtNtNtCsaNl6UpbT7bw_4core4iter6traits7collectINtNtNtB6_8adapters3map3MapINtNtBQ_6filter6FilterINtNtNtB8_5slice4iter4IterNtNtNtCs87DMVckFIdB_12serde_derive9internals3ast5FieldENCNvNtB24_3ser24serialize_struct_visitor0ENCB2T_s_0ENtB2_12IntoIterator9into_iterB24_, symObjAddr: 0x43A0, symBinAddr: 0x5CEC0, symSize: 0x30 }
  - { offset: 0xD39A3, size: 0x8, addend: 0x0, symName: __RNvXNtNtNtCsaNl6UpbT7bw_4core4iter6traits7collectINtNtNtB6_8adapters3map3MapINtNtBQ_9enumerate9EnumerateINtNtCsc29TF2YcYso_3syn10punctuated4IterNtNtB1J_4data5FieldEENCNvNtNtCs87DMVckFIdB_12serde_derive9internals3ast15fields_from_ast0ENtB2_12IntoIterator9into_iterB2L_, symObjAddr: 0x43D0, symBinAddr: 0x5CEF0, symSize: 0x30 }
  - { offset: 0xD39DB, size: 0x8, addend: 0x0, symName: __RNvXNtNtNtCsaNl6UpbT7bw_4core4iter6traits7collectINtNtNtB6_8adapters3map3MapINtNtBQ_9enumerate9EnumerateINtNtNtB8_5slice4iter4IterNtNtNtCs87DMVckFIdB_12serde_derive9internals3ast5FieldEENCNvNtNtB2a_2de7struct_15deserialize_map0ENtB2_12IntoIterator9into_iterB2a_, symObjAddr: 0x4400, symBinAddr: 0x5CF20, symSize: 0x18 }
  - { offset: 0xD3A12, size: 0x8, addend: 0x0, symName: __RNvXNtNtNtCsaNl6UpbT7bw_4core4iter6traits7collectINtNtNtB6_8adapters3map3MapINtNtBQ_9enumerate9EnumerateINtNtNtB8_5slice4iter4IterNtNtNtCs87DMVckFIdB_12serde_derive9internals3ast7VariantEENCNvNtB2a_3ser14serialize_enum0ENtB2_12IntoIterator9into_iterB2a_, symObjAddr: 0x4418, symBinAddr: 0x5CF38, symSize: 0x30 }
  - { offset: 0xD3A4A, size: 0x8, addend: 0x0, symName: __RNvXNtNtNtCsaNl6UpbT7bw_4core4iter6traits7collectINtNtNtB6_8adapters3map3MapINtNtCsc29TF2YcYso_3syn10punctuated4IterNtNtB1h_4data7VariantENCNvNtNtCs87DMVckFIdB_12serde_derive9internals3ast13enum_from_ast0ENtB2_12IntoIterator9into_iterB2k_, symObjAddr: 0x4448, symBinAddr: 0x5CF68, symSize: 0x30 }
  - { offset: 0xD3A82, size: 0x8, addend: 0x0, symName: __RNvXNtNtNtCsaNl6UpbT7bw_4core4iter6traits7collectINtNtNtB6_8adapters3map3MapINtNtCsc29TF2YcYso_3syn10punctuated4IterNtNtB1h_8generics12GenericParamENCNvNtCs87DMVckFIdB_12serde_derive5bound12type_of_item0ENtB2_12IntoIterator9into_iterB2s_, symObjAddr: 0x4478, symBinAddr: 0x5CF98, symSize: 0x1C }
  - { offset: 0xD3AB9, size: 0x8, addend: 0x0, symName: __RNvXNtNtNtCsaNl6UpbT7bw_4core4iter6traits7collectINtNtNtB6_8adapters3map3MapINtNtCsc29TF2YcYso_3syn10punctuated4IterNtNtB1h_8generics12GenericParamENCNvNtCs87DMVckFIdB_12serde_derive5bound16without_defaults0ENtB2_12IntoIterator9into_iterB2s_, symObjAddr: 0x4494, symBinAddr: 0x5CFB4, symSize: 0x1C }
  - { offset: 0xD3AF0, size: 0x8, addend: 0x0, symName: __RNvXNtNtNtCsaNl6UpbT7bw_4core4iter6traits7collectINtNtNtB6_8adapters3map3MapINtNtNtB8_3ops5range5RangejENCNCNvNtCs87DMVckFIdB_12serde_derive7pretend21pretend_variants_used00ENtB2_12IntoIterator9into_iterB1M_, symObjAddr: 0x44B0, symBinAddr: 0x5CFD0, symSize: 0x14 }
  - { offset: 0xD3B27, size: 0x8, addend: 0x0, symName: __RNvXNtNtNtCsaNl6UpbT7bw_4core4iter6traits7collectINtNtNtB6_8adapters3map3MapINtNtNtB8_3ops5range5RangejENCNvNtCs87DMVckFIdB_12serde_derive3ser35serialize_adjacently_tagged_variants_0ENtB2_12IntoIterator9into_iterB1K_, symObjAddr: 0x44C4, symBinAddr: 0x5CFE4, symSize: 0x14 }
  - { offset: 0xD3B5E, size: 0x8, addend: 0x0, symName: __RNvXNtNtNtCsaNl6UpbT7bw_4core4iter6traits7collectINtNtNtB6_8adapters3map3MapINtNtNtB8_5slice4iter4IterNtNtCs87DMVckFIdB_12serde_derive2de16FieldWithAliasesENCNvNtB1E_10identifier21deserialize_generated0ENtB2_12IntoIterator9into_iterB1G_, symObjAddr: 0x44D8, symBinAddr: 0x5CFF8, symSize: 0x1C }
  - { offset: 0xD3B95, size: 0x8, addend: 0x0, symName: __RNvXNtNtNtCsaNl6UpbT7bw_4core4iter6traits7collectINtNtNtB6_8adapters3map3MapINtNtNtB8_5slice4iter4IterNtNtNtCs87DMVckFIdB_12serde_derive9internals3ast5FieldENCNvNtB1I_3ser27wrap_serialize_variant_with0ENtB2_12IntoIterator9into_iterB1I_, symObjAddr: 0x44F4, symBinAddr: 0x5D014, symSize: 0x1C }
  - { offset: 0xD3BCC, size: 0x8, addend: 0x0, symName: __RNvXNtNtNtCsaNl6UpbT7bw_4core4iter6traits7collectINtNtNtB6_8adapters3map3MapINtNtNtB8_5slice4iter4IterNtNtNtCs87DMVckFIdB_12serde_derive9internals3ast5FieldENCNvNtB1I_3ser27wrap_serialize_variant_withs_0ENtB2_12IntoIterator9into_iterB1I_, symObjAddr: 0x4510, symBinAddr: 0x5D030, symSize: 0x1C }
  - { offset: 0xD3C03, size: 0x8, addend: 0x0, symName: __RNvXNtNtNtCsaNl6UpbT7bw_4core4iter6traits7collectINtNtNtB6_8adapters3map3MapINtNtNtB8_5slice4iter4IterNtNtNtCs87DMVckFIdB_12serde_derive9internals3ast5FieldENCNvNtB1I_3ser35serialize_adjacently_tagged_variants0_0ENtB2_12IntoIterator9into_iterB1I_, symObjAddr: 0x452C, symBinAddr: 0x5D04C, symSize: 0x1C }
  - { offset: 0xD3C3A, size: 0x8, addend: 0x0, symName: __RNvXNtNtNtCsaNl6UpbT7bw_4core4iter6traits7collectINtNtNtB6_8adapters3map3MapINtNtNtB8_5slice4iter4IterNtNtNtCs87DMVckFIdB_12serde_derive9internals3ast5FieldENCNvNtB1I_3ser37serialize_struct_variant_with_flattens0_0ENtB2_12IntoIterator9into_iterB1I_, symObjAddr: 0x4548, symBinAddr: 0x5D068, symSize: 0x1C }
  - { offset: 0xD3C71, size: 0x8, addend: 0x0, symName: __RNvXNtNtNtCsaNl6UpbT7bw_4core4iter6traits7collectINtNtNtB6_8adapters3map3MapINtNtNtB8_5slice4iter4IterNtNtNtCs87DMVckFIdB_12serde_derive9internals3ast5FieldENCNvNtB1I_7pretend33pretend_fields_used_struct_packed0ENtB2_12IntoIterator9into_iterB1I_, symObjAddr: 0x4564, symBinAddr: 0x5D084, symSize: 0x1C }
  - { offset: 0xD3CA8, size: 0x8, addend: 0x0, symName: __RNvXNtNtNtCsaNl6UpbT7bw_4core4iter6traits7collectINtNtNtB6_8adapters3map3MapINtNtNtB8_5slice4iter4IterNtNtNtCs87DMVckFIdB_12serde_derive9internals3ast7VariantENCNvNtNtB1I_2de10identifier18deserialize_customs_0ENtB2_12IntoIterator9into_iterB1I_, symObjAddr: 0x4580, symBinAddr: 0x5D0A0, symSize: 0x1C }
  - { offset: 0xD3CDF, size: 0x8, addend: 0x0, symName: __RNvXNtNtNtCsaNl6UpbT7bw_4core4iter6traits7collectINtNtNtB6_8adapters3map3MapINtNtNtB8_5slice4iter4IterhENCNvNtCsiTraAjBDcu4_5alloc3str13replace_ascii0ENtB2_12IntoIterator9into_iterCs87DMVckFIdB_12serde_derive, symObjAddr: 0x459C, symBinAddr: 0x5D0BC, symSize: 0x14 }
  - { offset: 0xD3D16, size: 0x8, addend: 0x0, symName: __RNvXNtNtNtCsaNl6UpbT7bw_4core4iter6traits7collectINtNtNtB6_8adapters3map3MapINtNtNtCsiTraAjBDcu4_5alloc3vec9into_iter8IntoIterTNtNtCsc29TF2YcYso_3syn8generics12GenericParamNtNtB25_5token5CommaEENCNvXs8_NtB25_10punctuatedINtB3e_10PunctuatedB21_B2K_ENtB2_12IntoIterator9into_iter0EB3Y_9into_iterCs87DMVckFIdB_12serde_derive, symObjAddr: 0x45B0, symBinAddr: 0x5D0D0, symSize: 0x14 }
  - { offset: 0xD3D4D, size: 0x8, addend: 0x0, symName: __RNvXNtNtNtCsaNl6UpbT7bw_4core4iter6traits7collectINtNtNtB6_8adapters3map3MapINtNtNtCsiTraAjBDcu4_5alloc3vec9into_iter8IntoIterTNtNtCsc29TF2YcYso_3syn8generics14WherePredicateNtNtB25_5token5CommaEENCNvXs8_NtB25_10punctuatedINtB3g_10PunctuatedB21_B2M_ENtB2_12IntoIterator9into_iter0EB40_9into_iterCs87DMVckFIdB_12serde_derive, symObjAddr: 0x45C4, symBinAddr: 0x5D0E4, symSize: 0x14 }
  - { offset: 0xD3D84, size: 0x8, addend: 0x0, symName: __RNvXNtNtNtCsaNl6UpbT7bw_4core4iter6traits7collectINtNtNtB6_8adapters3map3MapNtNtCsc29TF2YcYso_3syn8generics10TypeParamsNCNvNtCs87DMVckFIdB_12serde_derive5bound10with_bound0ENtB2_12IntoIterator9into_iterB1Z_, symObjAddr: 0x45D8, symBinAddr: 0x5D0F8, symSize: 0x1C }
  - { offset: 0xD3DBB, size: 0x8, addend: 0x0, symName: __RNvXNtNtNtCsaNl6UpbT7bw_4core4iter6traits7collectINtNtNtB6_8adapters3map3MapNtNtCshnvkK9b4wzu_11proc_macro212token_stream8IntoIterNCNvNtNtCs87DMVckFIdB_12serde_derive9internals6respan6respan0ENtB2_12IntoIterator9into_iterB2c_, symObjAddr: 0x45F4, symBinAddr: 0x5D114, symSize: 0x30 }
  - { offset: 0xD3DF3, size: 0x8, addend: 0x0, symName: __RNvXNtNtNtCsaNl6UpbT7bw_4core4iter6traits7collectINtNtNtB6_8adapters5chain5ChainINtNtB8_6option8IntoIterNtNtCsc29TF2YcYso_3syn8generics12GenericParamEINtNtB1I_10punctuated8IntoIterB1E_EENtB2_12IntoIterator9into_iterCs87DMVckFIdB_12serde_derive, symObjAddr: 0x4624, symBinAddr: 0x5D144, symSize: 0x30 }
  - { offset: 0xD3E2B, size: 0x8, addend: 0x0, symName: __RNvXNtNtNtCsaNl6UpbT7bw_4core4iter6traits7collectINtNtNtB6_8adapters5chain5ChainINtNtB8_6option8IntoIterNtNtCsc29TF2YcYso_3syn8generics12GenericParamEINtNtBQ_3map3MapINtNtBQ_6cloned6ClonedINtNtB1I_10punctuated4IterB1E_EENCNvNtCs87DMVckFIdB_12serde_derive5bound19with_lifetime_bound0EENtB2_12IntoIterator9into_iterB3C_, symObjAddr: 0x4654, symBinAddr: 0x5D174, symSize: 0x30 }
  - { offset: 0xD57D2, size: 0x8, addend: 0x0, symName: __RNvMNtCsaNl6UpbT7bw_4core5sliceSTNtNtCsc29TF2YcYso_3syn4path15GenericArgumentNtNtBz_5token5CommaE8iter_mutCs87DMVckFIdB_12serde_derive, symObjAddr: 0x35D0, symBinAddr: 0x5C0F0, symSize: 0x28 }
  - { offset: 0xD599C, size: 0x8, addend: 0x0, symName: __RNvNtNtCsaNl6UpbT7bw_4core4hash3sip9u8to64_leCs87DMVckFIdB_12serde_derive, symObjAddr: 0x3FC8, symBinAddr: 0x5CAE8, symSize: 0x240 }
  - { offset: 0xD5B59, size: 0x8, addend: 0x0, symName: __RNvXs3_NtNtCsaNl6UpbT7bw_4core4hash3sipINtB5_6HasherNtB5_11Sip13RoundsENtB7_6Hasher5writeCs87DMVckFIdB_12serde_derive, symObjAddr: 0x69F0, symBinAddr: 0x5F510, symSize: 0x238 }
  - { offset: 0xD5CCF, size: 0x8, addend: 0x0, symName: __RNvXs3_NtNtCsaNl6UpbT7bw_4core4hash3sipINtB5_6HasherNtB5_11Sip13RoundsENtB7_6Hasher6finishCs87DMVckFIdB_12serde_derive, symObjAddr: 0x6C28, symBinAddr: 0x5F748, symSize: 0xA0 }
  - { offset: 0xD5D42, size: 0x8, addend: 0x0, symName: __RNvXs3_NtNtCsaNl6UpbT7bw_4core4hash3sipINtB5_6HasherNtB5_11Sip13RoundsENtB7_6Hasher9write_strCs87DMVckFIdB_12serde_derive, symObjAddr: 0x6CC8, symBinAddr: 0x5F7E8, symSize: 0x5C }
  - { offset: 0xD5DA8, size: 0x8, addend: 0x0, symName: __RNvXs6_NtNtCsaNl6UpbT7bw_4core4hash3sipNtB5_11Sip13RoundsNtB5_3Sip8c_roundsCs87DMVckFIdB_12serde_derive, symObjAddr: 0x6D24, symBinAddr: 0x5F844, symSize: 0x170 }
  - { offset: 0xD5F1E, size: 0x8, addend: 0x0, symName: __RNvXs6_NtNtCsaNl6UpbT7bw_4core4hash3sipNtB5_11Sip13RoundsNtB5_3Sip8d_roundsCs87DMVckFIdB_12serde_derive, symObjAddr: 0x6E94, symBinAddr: 0x5F9B4, symSize: 0x408 }
  - { offset: 0xD63E4, size: 0x8, addend: 0x0, symName: __RNvYRNtNtCsc29TF2YcYso_3syn4path4PathINtNtCsaNl6UpbT7bw_4core3cmp9PartialEqNtNtNtCs87DMVckFIdB_12serde_derive9internals6symbol6SymbolE2neB1h_, symObjAddr: 0x7BE8, symBinAddr: 0x60708, symSize: 0x30 }
  - { offset: 0xD6B1A, size: 0x8, addend: 0x0, symName: __RNvNtNtCs87DMVckFIdB_12serde_derive9internals8receiver16replace_receiver, symObjAddr: 0x7CF8, symBinAddr: 0x60818, symSize: 0x138 }
  - { offset: 0xD6D57, size: 0x8, addend: 0x0, symName: __RNvXs0_NtNtCs87DMVckFIdB_12serde_derive9internals6symbolNtNtCsc29TF2YcYso_3syn4path4PathINtNtCsaNl6UpbT7bw_4core3cmp9PartialEqNtB5_6SymbolE2eq, symObjAddr: 0xA3D0, symBinAddr: 0x62EF0, symSize: 0x48 }
  - { offset: 0xD6D97, size: 0x8, addend: 0x0, symName: __RNvXs1_NtNtCs87DMVckFIdB_12serde_derive9internals6symbolRNtNtCsc29TF2YcYso_3syn4path4PathINtNtCsaNl6UpbT7bw_4core3cmp9PartialEqNtB5_6SymbolE2eq, symObjAddr: 0xA418, symBinAddr: 0x62F38, symSize: 0x4C }
  - { offset: 0xD7EDC, size: 0x8, addend: 0x0, symName: __RINvXs8_NtCsg4dki62PTrg_9hashbrown3setINtB6_7HashSetNtCshnvkK9b4wzu_11proc_macro25IdentNtNtNtCsht3nMU9UgFu_3std4hash6random11RandomStateEINtNtNtNtCsaNl6UpbT7bw_4core4iter6traits7collect6ExtendBO_E6extendINtNtNtB2i_8adapters3map3MapNtNtCsc29TF2YcYso_3syn8generics10TypeParamsNCNvNtCs87DMVckFIdB_12serde_derive5bound10with_bound0EEB4u_, symObjAddr: 0xC4C, symBinAddr: 0x5976C, symSize: 0x5C }
  - { offset: 0xD7F3E, size: 0x8, addend: 0x0, symName: __RNCINvXs8_NtCsg4dki62PTrg_9hashbrown3setINtB8_7HashSetNtCshnvkK9b4wzu_11proc_macro25IdentNtNtNtCsht3nMU9UgFu_3std4hash6random11RandomStateEINtNtNtNtCsaNl6UpbT7bw_4core4iter6traits7collect6ExtendBQ_E6extendINtNtNtB2k_8adapters3map3MapNtNtCsc29TF2YcYso_3syn8generics10TypeParamsNCNvNtCs87DMVckFIdB_12serde_derive5bound10with_bound0EE0B4w_, symObjAddr: 0x3110, symBinAddr: 0x5BC30, symSize: 0x24 }
  - { offset: 0xD8C7B, size: 0x8, addend: 0x0, symName: __RNvMNtCsc29TF2YcYso_3syn5dropsINtB2_6NoDropINtNtB4_10punctuated11PrivateIterNtNtB4_2ty4TypeNtNtB4_5token5CommaEE3newCs87DMVckFIdB_12serde_derive, symObjAddr: 0x35F8, symBinAddr: 0x5C118, symSize: 0x40 }
  - { offset: 0xD8D05, size: 0x8, addend: 0x0, symName: __RNvMNtCsc29TF2YcYso_3syn5dropsINtB2_6NoDropINtNtB4_10punctuated11PrivateIterNtNtB4_2ty9BareFnArgNtNtB4_5token5CommaEE3newCs87DMVckFIdB_12serde_derive, symObjAddr: 0x3638, symBinAddr: 0x5C158, symSize: 0x40 }
  - { offset: 0xD8D82, size: 0x8, addend: 0x0, symName: __RNvMNtCsc29TF2YcYso_3syn5dropsINtB2_6NoDropINtNtB4_10punctuated11PrivateIterNtNtB4_4data7VariantNtNtB4_5token5CommaEE3newCs87DMVckFIdB_12serde_derive, symObjAddr: 0x3678, symBinAddr: 0x5C198, symSize: 0x40 }
  - { offset: 0xD8E0C, size: 0x8, addend: 0x0, symName: __RNvMNtCsc29TF2YcYso_3syn5dropsINtB2_6NoDropINtNtB4_10punctuated11PrivateIterNtNtB4_4path15GenericArgumentNtNtB4_5token5CommaEE3newCs87DMVckFIdB_12serde_derive, symObjAddr: 0x36B8, symBinAddr: 0x5C1D8, symSize: 0x40 }
  - { offset: 0xD8E96, size: 0x8, addend: 0x0, symName: __RNvMNtCsc29TF2YcYso_3syn5dropsINtB2_6NoDropINtNtB4_10punctuated14PrivateIterMutNtNtB4_2ty4TypeNtNtB4_5token5CommaEE3newCs87DMVckFIdB_12serde_derive, symObjAddr: 0x36F8, symBinAddr: 0x5C218, symSize: 0x40 }
  - { offset: 0xD8F20, size: 0x8, addend: 0x0, symName: __RNvMNtCsc29TF2YcYso_3syn5dropsINtB2_6NoDropINtNtB4_10punctuated14PrivateIterMutNtNtB4_2ty9BareFnArgNtNtB4_5token5CommaEE3newCs87DMVckFIdB_12serde_derive, symObjAddr: 0x3738, symBinAddr: 0x5C258, symSize: 0x40 }
  - { offset: 0xD8FAA, size: 0x8, addend: 0x0, symName: __RNvMNtCsc29TF2YcYso_3syn5dropsINtB2_6NoDropINtNtB4_10punctuated14PrivateIterMutNtNtB4_4data7VariantNtNtB4_5token5CommaEE3newCs87DMVckFIdB_12serde_derive, symObjAddr: 0x3778, symBinAddr: 0x5C298, symSize: 0x40 }
  - { offset: 0xD9041, size: 0x8, addend: 0x0, symName: __RNvMNtCsc29TF2YcYso_3syn5dropsINtB2_6NoDropINtNtB4_10punctuated14PrivateIterMutNtNtB4_4expr4ExprNtNtB4_5token5CommaEE3newCs87DMVckFIdB_12serde_derive, symObjAddr: 0x37B8, symBinAddr: 0x5C2D8, symSize: 0x40 }
  - { offset: 0xD90CB, size: 0x8, addend: 0x0, symName: __RNvMNtCsc29TF2YcYso_3syn5dropsINtB2_6NoDropINtNtB4_10punctuated14PrivateIterMutNtNtB4_4path15GenericArgumentNtNtB4_5token5CommaEE3newCs87DMVckFIdB_12serde_derive, symObjAddr: 0x37F8, symBinAddr: 0x5C318, symSize: 0x40 }
  - { offset: 0xD9162, size: 0x8, addend: 0x0, symName: __RNvMNtCsc29TF2YcYso_3syn5dropsINtB2_6NoDropINtNtB4_10punctuated14PrivateIterMutNtNtB4_8generics14TypeParamBoundNtNtB4_5token4PlusEE3newCs87DMVckFIdB_12serde_derive, symObjAddr: 0x3838, symBinAddr: 0x5C358, symSize: 0x40 }
  - { offset: 0xD91F9, size: 0x8, addend: 0x0, symName: __RNvMNtCsc29TF2YcYso_3syn5dropsINtB2_6NoDropINtNtB4_10punctuated14PrivateIterMutNtNtB4_8generics14WherePredicateNtNtB4_5token5CommaEE3newCs87DMVckFIdB_12serde_derive, symObjAddr: 0x3878, symBinAddr: 0x5C398, symSize: 0x40 }
  - { offset: 0xD924E, size: 0x8, addend: 0x0, symName: __RNvMs0_NtNtCsaNl6UpbT7bw_4core4hash3sipINtB5_6HasherNtB5_11Sip13RoundsE5resetCs87DMVckFIdB_12serde_derive, symObjAddr: 0x38B8, symBinAddr: 0x5C3D8, symSize: 0x8C }
  - { offset: 0xD9465, size: 0x8, addend: 0x0, symName: __RNvMs6_NtNtNtNtCsiTraAjBDcu4_5alloc11collections5btree3map5entryINtB5_11VacantEntryNtNtCsc29TF2YcYso_3syn8lifetime8LifetimeNtNtB9_7set_val9SetValZSTE12insert_entryCs87DMVckFIdB_12serde_derive, symObjAddr: 0x3944, symBinAddr: 0x5C464, symSize: 0x2A0 }
  - { offset: 0xD983A, size: 0x8, addend: 0x0, symName: __RNvMs6_NtNtNtNtCsiTraAjBDcu4_5alloc11collections5btree3map5entryINtB5_11VacantEntryNtNtNtCs87DMVckFIdB_12serde_derive9internals4name4NameNtNtB9_7set_val9SetValZSTE12insert_entryB1p_, symObjAddr: 0x3BE4, symBinAddr: 0x5C704, symSize: 0x29C }
  - { offset: 0xD9AC5, size: 0x8, addend: 0x0, symName: __RNvMs7_NtNtNtNtCsiTraAjBDcu4_5alloc11collections5btree3map5entryINtB5_13OccupiedEntryNtNtCsc29TF2YcYso_3syn8lifetime8LifetimeNtNtB9_7set_val9SetValZSTE6insertCs87DMVckFIdB_12serde_derive, symObjAddr: 0x3E80, symBinAddr: 0x5C9A0, symSize: 0x4C }
  - { offset: 0xD9B28, size: 0x8, addend: 0x0, symName: __RNvMs7_NtNtNtNtCsiTraAjBDcu4_5alloc11collections5btree3map5entryINtB5_13OccupiedEntryNtNtCsc29TF2YcYso_3syn8lifetime8LifetimeNtNtB9_7set_val9SetValZSTE8into_mutCs87DMVckFIdB_12serde_derive, symObjAddr: 0x3ECC, symBinAddr: 0x5C9EC, symSize: 0x58 }
  - { offset: 0xD9BA2, size: 0x8, addend: 0x0, symName: __RNvMs7_NtNtNtNtCsiTraAjBDcu4_5alloc11collections5btree3map5entryINtB5_13OccupiedEntryNtNtNtCs87DMVckFIdB_12serde_derive9internals4name4NameNtNtB9_7set_val9SetValZSTE6insertB1r_, symObjAddr: 0x3F24, symBinAddr: 0x5CA44, symSize: 0x4C }
  - { offset: 0xD9C05, size: 0x8, addend: 0x0, symName: __RNvMs7_NtNtNtNtCsiTraAjBDcu4_5alloc11collections5btree3map5entryINtB5_13OccupiedEntryNtNtNtCs87DMVckFIdB_12serde_derive9internals4name4NameNtNtB9_7set_val9SetValZSTE8into_mutB1r_, symObjAddr: 0x3F70, symBinAddr: 0x5CA90, symSize: 0x58 }
  - { offset: 0xD9C53, size: 0x8, addend: 0x0, symName: __RNvXNtCs4EAaWzSXu1l_5quote9to_tokensRNtNtCsc29TF2YcYso_3syn4path4PathNtB2_8ToTokens9to_tokensCs87DMVckFIdB_12serde_derive, symObjAddr: 0x4208, symBinAddr: 0x5CD28, symSize: 0x40 }
  - { offset: 0xD9C98, size: 0x8, addend: 0x0, symName: __RNvYNtNtCsc29TF2YcYso_3syn4path4PathNtNtCs4EAaWzSXu1l_5quote9to_tokens8ToTokens15to_token_streamCs87DMVckFIdB_12serde_derive, symObjAddr: 0x7AF8, symBinAddr: 0x60618, symSize: 0x8C }
  - { offset: 0xD9CE2, size: 0x8, addend: 0x0, symName: __RNvYNtNtCsc29TF2YcYso_3syn4path4PathNtNtCs4EAaWzSXu1l_5quote9to_tokens8ToTokens17into_token_streamCs87DMVckFIdB_12serde_derive, symObjAddr: 0x7B84, symBinAddr: 0x606A4, symSize: 0x64 }
  - { offset: 0xD9D18, size: 0x8, addend: 0x0, symName: __RNvYRNtNtCsc29TF2YcYso_3syn4path4PathNtNtCs4EAaWzSXu1l_5quote9to_tokens8ToTokens15to_token_streamCs87DMVckFIdB_12serde_derive, symObjAddr: 0x7C18, symBinAddr: 0x60738, symSize: 0x8C }
  - { offset: 0xD9D62, size: 0x8, addend: 0x0, symName: __RNvYRNtNtCsc29TF2YcYso_3syn4path4PathNtNtCs4EAaWzSXu1l_5quote9to_tokens8ToTokens17into_token_streamCs87DMVckFIdB_12serde_derive, symObjAddr: 0x7CA4, symBinAddr: 0x607C4, symSize: 0x54 }
  - { offset: 0xD9DA8, size: 0x8, addend: 0x0, symName: __RNvYINtNtNtNtCsaNl6UpbT7bw_4core4iter8adapters3map3MapINtNtB7_3zip3ZipIB3_INtNtNtBb_3ops5range5RangejEFjENtCshnvkK9b4wzu_11proc_macro25IdentEINtNtNtBb_5slice4iter4IterNtNtNtCs87DMVckFIdB_12serde_derive9internals3ast5FieldEENCNvNtB2L_2de15deserialize_seqs_0ENtNtNtCs4EAaWzSXu1l_5quote9___private3ext14RepIteratorExt15quote_into_iterB2L_, symObjAddr: 0x758C, symBinAddr: 0x600AC, symSize: 0x40 }
  - { offset: 0xD9DDE, size: 0x8, addend: 0x0, symName: __RNvYINtNtNtNtCsaNl6UpbT7bw_4core4iter8adapters3map3MapINtNtB7_6filter6FilterINtNtB7_9enumerate9EnumerateINtNtNtBb_5slice4iter4IterNtNtNtCs87DMVckFIdB_12serde_derive9internals3ast7VariantEENCNvNtNtB2a_2de15enum_externally11deserialize0ENCB32_s_0ENtNtNtCs4EAaWzSXu1l_5quote9___private3ext14RepIteratorExt15quote_into_iterB2a_, symObjAddr: 0x75CC, symBinAddr: 0x600EC, symSize: 0x40 }
  - { offset: 0xD9E14, size: 0x8, addend: 0x0, symName: __RNvYINtNtNtNtCsaNl6UpbT7bw_4core4iter8adapters3map3MapINtNtB7_6filter6FilterINtNtB7_9enumerate9EnumerateINtNtNtBb_5slice4iter4IterNtNtNtCs87DMVckFIdB_12serde_derive9internals3ast7VariantEENCNvNtNtB2a_2de15enum_internally11deserialize0ENCB32_s_0ENtNtNtCs4EAaWzSXu1l_5quote9___private3ext14RepIteratorExt15quote_into_iterB2a_, symObjAddr: 0x760C, symBinAddr: 0x6012C, symSize: 0x40 }
  - { offset: 0xD9E4A, size: 0x8, addend: 0x0, symName: __RNvYINtNtNtNtCsaNl6UpbT7bw_4core4iter8adapters3map3MapINtNtB7_6filter6FilterINtNtNtBb_5slice4iter4IterNtNtNtCs87DMVckFIdB_12serde_derive9internals3ast7VariantENCNvNtNtB1I_2de13enum_untagged11deserialize0ENCB2z_s_0ENtNtNtCs4EAaWzSXu1l_5quote9___private3ext14RepIteratorExt15quote_into_iterB1I_, symObjAddr: 0x764C, symBinAddr: 0x6016C, symSize: 0x24 }
  - { offset: 0xD9E7F, size: 0x8, addend: 0x0, symName: __RNvYINtNtNtNtCsaNl6UpbT7bw_4core4iter8adapters3map3MapINtNtB7_6filter6FilterINtNtNtBb_5slice4iter4IterTRNtNtNtCs87DMVckFIdB_12serde_derive9internals3ast5FieldNtCshnvkK9b4wzu_11proc_macro25IdentEENCNvNtNtB1K_2de7struct_15deserialize_maps1_0ENCB39_s2_0ENtNtNtCs4EAaWzSXu1l_5quote9___private3ext14RepIteratorExt15quote_into_iterB1K_, symObjAddr: 0x7670, symBinAddr: 0x60190, symSize: 0x28 }
  - { offset: 0xD9EB4, size: 0x8, addend: 0x0, symName: __RNvYINtNtNtNtCsaNl6UpbT7bw_4core4iter8adapters3map3MapINtNtB7_6filter6FilterINtNtNtBb_5slice4iter4IterTRNtNtNtCs87DMVckFIdB_12serde_derive9internals3ast5FieldNtCshnvkK9b4wzu_11proc_macro25IdentEENCNvNtNtB1K_2de7struct_15deserialize_maps4_0ENCB39_s5_0ENtNtNtCs4EAaWzSXu1l_5quote9___private3ext14RepIteratorExt15quote_into_iterB1K_, symObjAddr: 0x7698, symBinAddr: 0x601B8, symSize: 0x28 }
  - { offset: 0xD9EE9, size: 0x8, addend: 0x0, symName: __RNvYINtNtNtNtCsaNl6UpbT7bw_4core4iter8adapters3map3MapINtNtB7_6filter6FilterINtNtNtBb_5slice4iter4IterTRNtNtNtCs87DMVckFIdB_12serde_derive9internals3ast5FieldNtCshnvkK9b4wzu_11proc_macro25IdentEENCNvNtNtB1K_2de7struct_15deserialize_maps6_0ENCB39_s7_0ENtNtNtCs4EAaWzSXu1l_5quote9___private3ext14RepIteratorExt15quote_into_iterB1K_, symObjAddr: 0x76C0, symBinAddr: 0x601E0, symSize: 0x2C }
  - { offset: 0xD9F1E, size: 0x8, addend: 0x0, symName: __RNvYINtNtNtNtCsaNl6UpbT7bw_4core4iter8adapters3map3MapINtNtB7_6filter6FilterINtNtNtBb_5slice4iter4IterTRNtNtNtCs87DMVckFIdB_12serde_derive9internals3ast5FieldNtCshnvkK9b4wzu_11proc_macro25IdentEENCNvNtNtB1K_2de7struct_15deserialize_maps_0ENCB39_s0_0ENtNtNtCs4EAaWzSXu1l_5quote9___private3ext14RepIteratorExt15quote_into_iterB1K_, symObjAddr: 0x76EC, symBinAddr: 0x6020C, symSize: 0x2C }
  - { offset: 0xD9F53, size: 0x8, addend: 0x0, symName: __RNvYINtNtNtNtCsaNl6UpbT7bw_4core4iter8adapters3map3MapINtNtB7_9enumerate9EnumerateINtNtNtBb_5slice4iter4IterNtNtCs87DMVckFIdB_12serde_derive2de16FieldWithAliasesEENCNvNtB1K_10identifier22deserialize_identifiers0_0ENtNtNtCs4EAaWzSXu1l_5quote9___private3ext14RepIteratorExt15quote_into_iterB1M_, symObjAddr: 0x7718, symBinAddr: 0x60238, symSize: 0x24 }
  - { offset: 0xD9F88, size: 0x8, addend: 0x0, symName: __RNvYINtNtNtNtCsaNl6UpbT7bw_4core4iter8adapters3map3MapINtNtNtBb_3ops5range5RangejEFjENtCshnvkK9b4wzu_11proc_macro25IdentENtNtNtCs4EAaWzSXu1l_5quote9___private3ext14RepIteratorExt15quote_into_iterCs87DMVckFIdB_12serde_derive, symObjAddr: 0x7768, symBinAddr: 0x60288, symSize: 0x28 }
  - { offset: 0xD9FBD, size: 0x8, addend: 0x0, symName: __RNvYINtNtNtNtCsaNl6UpbT7bw_4core4iter8adapters3map3MapINtNtNtBb_3ops5range5RangejENCNvNtCs87DMVckFIdB_12serde_derive2de25unwrap_to_variant_closures_0ENtNtNtCs4EAaWzSXu1l_5quote9___private3ext14RepIteratorExt15quote_into_iterB1o_, symObjAddr: 0x7790, symBinAddr: 0x602B0, symSize: 0x24 }
  - { offset: 0xD9FF2, size: 0x8, addend: 0x0, symName: __RNvYINtNtNtNtCsaNl6UpbT7bw_4core4iter8adapters3map3MapINtNtNtBb_3ops5range5RangejENCNvNtCs87DMVckFIdB_12serde_derive3ser17serialize_variant0ENtNtNtCs4EAaWzSXu1l_5quote9___private3ext14RepIteratorExt15quote_into_iterB1o_, symObjAddr: 0x77B4, symBinAddr: 0x602D4, symSize: 0x24 }
  - { offset: 0xDA027, size: 0x8, addend: 0x0, symName: __RNvYINtNtNtNtCsaNl6UpbT7bw_4core4iter8adapters3map3MapINtNtNtBb_3ops5range5RangejENCNvNtCs87DMVckFIdB_12serde_derive3ser19wrap_serialize_with0ENtNtNtCs4EAaWzSXu1l_5quote9___private3ext14RepIteratorExt15quote_into_iterB1o_, symObjAddr: 0x77D8, symBinAddr: 0x602F8, symSize: 0x24 }
  - { offset: 0xDA05C, size: 0x8, addend: 0x0, symName: __RNvYINtNtNtNtCsaNl6UpbT7bw_4core4iter8adapters3map3MapINtNtNtBb_3ops5range9RangeFromjENCNCNvNtCs87DMVckFIdB_12serde_derive7pretend24pretend_fields_used_enum0s_0ENtNtNtCs4EAaWzSXu1l_5quote9___private3ext14RepIteratorExt15quote_into_iterB1u_, symObjAddr: 0x77FC, symBinAddr: 0x6031C, symSize: 0x20 }
  - { offset: 0xDA091, size: 0x8, addend: 0x0, symName: __RNvYINtNtNtNtCsaNl6UpbT7bw_4core4iter8adapters3map3MapINtNtNtBb_3ops5range9RangeFromjENCNvNtCs87DMVckFIdB_12serde_derive7pretend26pretend_fields_used_structs_0ENtNtNtCs4EAaWzSXu1l_5quote9___private3ext14RepIteratorExt15quote_into_iterB1s_, symObjAddr: 0x781C, symBinAddr: 0x6033C, symSize: 0x20 }
  - { offset: 0xDA0C6, size: 0x8, addend: 0x0, symName: __RNvYINtNtNtNtCsaNl6UpbT7bw_4core4iter8adapters3map3MapINtNtNtBb_5slice4iter4IterNtNtCs87DMVckFIdB_12serde_derive2de16FieldWithAliasesENCNvNtB1i_10identifier22deserialize_identifier0ENtNtNtCs4EAaWzSXu1l_5quote9___private3ext14RepIteratorExt15quote_into_iterB1k_, symObjAddr: 0x783C, symBinAddr: 0x6035C, symSize: 0x28 }
  - { offset: 0xDA0FB, size: 0x8, addend: 0x0, symName: __RNvYINtNtNtNtCsaNl6UpbT7bw_4core4iter8adapters3map3MapINtNtNtBb_5slice4iter4IterNtNtCs87DMVckFIdB_12serde_derive2de16FieldWithAliasesENCNvNtB1i_10identifier22deserialize_identifiers_0ENtNtNtCs4EAaWzSXu1l_5quote9___private3ext14RepIteratorExt15quote_into_iterB1k_, symObjAddr: 0x7864, symBinAddr: 0x60384, symSize: 0x28 }
