---
triple:          'arm64-apple-darwin'
binary-path:     '/Users/tyler/fall25/cse380/final_project/final_project_sqlite/target/debug/deps/libtracing_attributes-90c2ec23013cafe6.dylib'
relocations:
  - { offset: 0x1E, size: 0x8, addend: 0x0, symName: __RINvNtNtCsc29TF2YcYso_3syn3gen9visit_mut13visit_abi_mutNtNtCsemR3zGJppC3_18tracing_attributes6expand15ImplTraitEraserEBV_, symObjAddr: 0x0, symBinAddr: 0xC58, symSize: 0x80 }
  - { offset: 0x975, size: 0x8, addend: 0x0, symName: __RINvNtNtCsc29TF2YcYso_3syn3gen9visit_mut13visit_abi_mutNtNtCsemR3zGJppC3_18tracing_attributes6expand15ImplTraitEraserEBV_, symObjAddr: 0x0, symBinAddr: 0xC58, symSize: 0x80 }
  - { offset: 0x9D5, size: 0x8, addend: 0x0, symName: __RINvNtNtCsc29TF2YcYso_3syn3gen9visit_mut13visit_abi_mutNtNtCsemR3zGJppC3_18tracing_attributes6expand20IdentAndTypesRenamerEBV_, symObjAddr: 0x80, symBinAddr: 0xCD8, symSize: 0x80 }
  - { offset: 0xA35, size: 0x8, addend: 0x0, symName: __RINvNtNtCsc29TF2YcYso_3syn3gen9visit_mut13visit_arm_mutNtNtCsemR3zGJppC3_18tracing_attributes6expand15ImplTraitEraserEBV_, symObjAddr: 0x100, symBinAddr: 0xD58, symSize: 0x148 }
  - { offset: 0xA8D, size: 0x8, addend: 0x0, symName: __RINvNtNtCsc29TF2YcYso_3syn3gen9visit_mut13visit_arm_mutNtNtCsemR3zGJppC3_18tracing_attributes6expand20IdentAndTypesRenamerEBV_, symObjAddr: 0x248, symBinAddr: 0xEA0, symSize: 0x148 }
  - { offset: 0xAE5, size: 0x8, addend: 0x0, symName: __RINvNtNtCsc29TF2YcYso_3syn3gen9visit_mut13visit_lit_mutNtNtCsemR3zGJppC3_18tracing_attributes6expand15ImplTraitEraserEBV_, symObjAddr: 0x390, symBinAddr: 0xFE8, symSize: 0x264 }
  - { offset: 0xC17, size: 0x8, addend: 0x0, symName: __RINvNtNtCsc29TF2YcYso_3syn3gen9visit_mut13visit_lit_mutNtNtCsemR3zGJppC3_18tracing_attributes6expand20IdentAndTypesRenamerEBV_, symObjAddr: 0x5F4, symBinAddr: 0x124C, symSize: 0x264 }
  - { offset: 0xD49, size: 0x8, addend: 0x0, symName: __RINvNtNtCsc29TF2YcYso_3syn3gen9visit_mut13visit_pat_mutNtNtCsemR3zGJppC3_18tracing_attributes6expand15ImplTraitEraserEBV_, symObjAddr: 0x858, symBinAddr: 0x14B0, symSize: 0x390 }
  - { offset: 0xF87, size: 0x8, addend: 0x0, symName: __RINvNtNtCsc29TF2YcYso_3syn3gen9visit_mut13visit_pat_mutNtNtCsemR3zGJppC3_18tracing_attributes6expand20IdentAndTypesRenamerEBV_, symObjAddr: 0xBE8, symBinAddr: 0x1840, symSize: 0x390 }
  - { offset: 0x11C5, size: 0x8, addend: 0x0, symName: __RINvNtNtCsc29TF2YcYso_3syn3gen9visit_mut14visit_expr_mutNtNtCsemR3zGJppC3_18tracing_attributes6expand15ImplTraitEraserEBW_, symObjAddr: 0xF78, symBinAddr: 0x1BD0, symSize: 0x7D8 }
  - { offset: 0x16CF, size: 0x8, addend: 0x0, symName: __RINvNtNtCsc29TF2YcYso_3syn3gen9visit_mut14visit_expr_mutNtNtCsemR3zGJppC3_18tracing_attributes6expand20IdentAndTypesRenamerEBW_, symObjAddr: 0x1750, symBinAddr: 0x23A8, symSize: 0x7D8 }
  - { offset: 0x1BD9, size: 0x8, addend: 0x0, symName: __RINvNtNtCsc29TF2YcYso_3syn3gen9visit_mut14visit_item_mutNtNtCsemR3zGJppC3_18tracing_attributes6expand15ImplTraitEraserEBW_, symObjAddr: 0x1F28, symBinAddr: 0x2B80, symSize: 0x35C }
  - { offset: 0x1DF9, size: 0x8, addend: 0x0, symName: __RINvNtNtCsc29TF2YcYso_3syn3gen9visit_mut14visit_item_mutNtNtCsemR3zGJppC3_18tracing_attributes6expand20IdentAndTypesRenamerEBW_, symObjAddr: 0x2284, symBinAddr: 0x2EDC, symSize: 0x35C }
  - { offset: 0x2019, size: 0x8, addend: 0x0, symName: __RINvNtNtCsc29TF2YcYso_3syn3gen9visit_mut14visit_meta_mutNtNtCsemR3zGJppC3_18tracing_attributes6expand15ImplTraitEraserEBW_, symObjAddr: 0x25E0, symBinAddr: 0x3238, symSize: 0xE8 }
  - { offset: 0x20AD, size: 0x8, addend: 0x0, symName: __RINvNtNtCsc29TF2YcYso_3syn3gen9visit_mut14visit_meta_mutNtNtCsemR3zGJppC3_18tracing_attributes6expand20IdentAndTypesRenamerEBW_, symObjAddr: 0x26C8, symBinAddr: 0x3320, symSize: 0xE8 }
  - { offset: 0x2141, size: 0x8, addend: 0x0, symName: __RINvNtNtCsc29TF2YcYso_3syn3gen9visit_mut14visit_path_mutNtNtCsemR3zGJppC3_18tracing_attributes6expand15ImplTraitEraserEBW_, symObjAddr: 0x27B0, symBinAddr: 0x3408, symSize: 0xC8 }
  - { offset: 0x21DE, size: 0x8, addend: 0x0, symName: __RINvNtNtCsc29TF2YcYso_3syn3gen9visit_mut14visit_path_mutNtNtCsemR3zGJppC3_18tracing_attributes6expand20IdentAndTypesRenamerEBW_, symObjAddr: 0x2878, symBinAddr: 0x34D0, symSize: 0xC8 }
  - { offset: 0x227B, size: 0x8, addend: 0x0, symName: __RINvNtNtCsc29TF2YcYso_3syn3gen9visit_mut14visit_stmt_mutNtNtCsemR3zGJppC3_18tracing_attributes6expand15ImplTraitEraserEBW_, symObjAddr: 0x2940, symBinAddr: 0x3598, symSize: 0x12C }
  - { offset: 0x233D, size: 0x8, addend: 0x0, symName: __RINvNtNtCsc29TF2YcYso_3syn3gen9visit_mut14visit_stmt_mutNtNtCsemR3zGJppC3_18tracing_attributes6expand20IdentAndTypesRenamerEBW_, symObjAddr: 0x2A6C, symBinAddr: 0x36C4, symSize: 0x12C }
  - { offset: 0x23FF, size: 0x8, addend: 0x0, symName: __RINvNtNtCsc29TF2YcYso_3syn3gen9visit_mut14visit_type_mutNtNtCsemR3zGJppC3_18tracing_attributes6expand15ImplTraitEraserEBW_, symObjAddr: 0x2B98, symBinAddr: 0x37F0, symSize: 0x328 }
  - { offset: 0x25FF, size: 0x8, addend: 0x0, symName: __RINvNtNtCsc29TF2YcYso_3syn3gen9visit_mut15visit_block_mutNtNtCsemR3zGJppC3_18tracing_attributes6expand15ImplTraitEraserEBX_, symObjAddr: 0x2EC0, symBinAddr: 0x3B18, symSize: 0x98 }
  - { offset: 0x267D, size: 0x8, addend: 0x0, symName: __RINvNtNtCsc29TF2YcYso_3syn3gen9visit_mut15visit_block_mutNtNtCsemR3zGJppC3_18tracing_attributes6expand20IdentAndTypesRenamerEBX_, symObjAddr: 0x2F58, symBinAddr: 0x3BB0, symSize: 0x98 }
  - { offset: 0x26FB, size: 0x8, addend: 0x0, symName: __RINvNtNtCsc29TF2YcYso_3syn3gen9visit_mut15visit_field_mutNtNtCsemR3zGJppC3_18tracing_attributes6expand15ImplTraitEraserEBX_, symObjAddr: 0x2FF0, symBinAddr: 0x3C48, symSize: 0xC0 }
  - { offset: 0x275B, size: 0x8, addend: 0x0, symName: __RINvNtNtCsc29TF2YcYso_3syn3gen9visit_mut15visit_field_mutNtNtCsemR3zGJppC3_18tracing_attributes6expand20IdentAndTypesRenamerEBX_, symObjAddr: 0x30B0, symBinAddr: 0x3D08, symSize: 0xC0 }
  - { offset: 0x27BB, size: 0x8, addend: 0x0, symName: __RINvNtNtCsc29TF2YcYso_3syn3gen9visit_mut15visit_ident_mutNtNtCsemR3zGJppC3_18tracing_attributes6expand15ImplTraitEraserEBX_, symObjAddr: 0x3170, symBinAddr: 0x3DC8, symSize: 0x68 }
  - { offset: 0x281B, size: 0x8, addend: 0x0, symName: __RINvNtNtCsc29TF2YcYso_3syn3gen9visit_mut15visit_index_mutNtNtCsemR3zGJppC3_18tracing_attributes6expand15ImplTraitEraserEBX_, symObjAddr: 0x31D8, symBinAddr: 0x3E30, symSize: 0x3C }
  - { offset: 0x285D, size: 0x8, addend: 0x0, symName: __RINvNtNtCsc29TF2YcYso_3syn3gen9visit_mut15visit_index_mutNtNtCsemR3zGJppC3_18tracing_attributes6expand20IdentAndTypesRenamerEBX_, symObjAddr: 0x3214, symBinAddr: 0x3E6C, symSize: 0x3C }
  - { offset: 0x289F, size: 0x8, addend: 0x0, symName: __RINvNtNtCsc29TF2YcYso_3syn3gen9visit_mut15visit_label_mutNtNtCsemR3zGJppC3_18tracing_attributes6expand15ImplTraitEraserEBX_, symObjAddr: 0x3250, symBinAddr: 0x3EA8, symSize: 0x3C }
  - { offset: 0x28E1, size: 0x8, addend: 0x0, symName: __RINvNtNtCsc29TF2YcYso_3syn3gen9visit_mut15visit_label_mutNtNtCsemR3zGJppC3_18tracing_attributes6expand20IdentAndTypesRenamerEBX_, symObjAddr: 0x328C, symBinAddr: 0x3EE4, symSize: 0x3C }
  - { offset: 0x2923, size: 0x8, addend: 0x0, symName: __RINvNtNtCsc29TF2YcYso_3syn3gen9visit_mut15visit_local_mutNtNtCsemR3zGJppC3_18tracing_attributes6expand15ImplTraitEraserEBX_, symObjAddr: 0x32C8, symBinAddr: 0x3F20, symSize: 0xA0 }
  - { offset: 0x2983, size: 0x8, addend: 0x0, symName: __RINvNtNtCsc29TF2YcYso_3syn3gen9visit_mut15visit_local_mutNtNtCsemR3zGJppC3_18tracing_attributes6expand20IdentAndTypesRenamerEBX_, symObjAddr: 0x3368, symBinAddr: 0x3FC0, symSize: 0xA0 }
  - { offset: 0x29E3, size: 0x8, addend: 0x0, symName: __RINvNtNtCsc29TF2YcYso_3syn3gen9visit_mut15visit_macro_mutNtNtCsemR3zGJppC3_18tracing_attributes6expand15ImplTraitEraserEBX_, symObjAddr: 0x3408, symBinAddr: 0x4060, symSize: 0x60 }
  - { offset: 0x2A25, size: 0x8, addend: 0x0, symName: __RINvNtNtCsc29TF2YcYso_3syn3gen9visit_mut15visit_macro_mutNtNtCsemR3zGJppC3_18tracing_attributes6expand20IdentAndTypesRenamerEBX_, symObjAddr: 0x3468, symBinAddr: 0x40C0, symSize: 0x60 }
  - { offset: 0x2A67, size: 0x8, addend: 0x0, symName: __RINvNtNtCsc29TF2YcYso_3syn3gen9visit_mut15visit_qself_mutNtNtCsemR3zGJppC3_18tracing_attributes6expand15ImplTraitEraserEBX_, symObjAddr: 0x34C8, symBinAddr: 0x4120, symSize: 0x90 }
  - { offset: 0x2AA9, size: 0x8, addend: 0x0, symName: __RINvNtNtCsc29TF2YcYso_3syn3gen9visit_mut15visit_qself_mutNtNtCsemR3zGJppC3_18tracing_attributes6expand20IdentAndTypesRenamerEBX_, symObjAddr: 0x3558, symBinAddr: 0x41B0, symSize: 0x90 }
  - { offset: 0x2AEB, size: 0x8, addend: 0x0, symName: __RINvNtNtCsc29TF2YcYso_3syn3gen9visit_mut15visit_un_op_mutNtNtCsemR3zGJppC3_18tracing_attributes6expand15ImplTraitEraserEBX_, symObjAddr: 0x35E8, symBinAddr: 0x4240, symSize: 0xA8 }
  - { offset: 0x2B2D, size: 0x8, addend: 0x0, symName: __RINvNtNtCsc29TF2YcYso_3syn3gen9visit_mut15visit_un_op_mutNtNtCsemR3zGJppC3_18tracing_attributes6expand20IdentAndTypesRenamerEBX_, symObjAddr: 0x3690, symBinAddr: 0x42E8, symSize: 0xA8 }
  - { offset: 0x2B6F, size: 0x8, addend: 0x0, symName: __RINvNtNtCsc29TF2YcYso_3syn3gen9visit_mut16visit_bin_op_mutNtNtCsemR3zGJppC3_18tracing_attributes6expand15ImplTraitEraserEBY_, symObjAddr: 0x3738, symBinAddr: 0x4390, symSize: 0x438 }
  - { offset: 0x2BB1, size: 0x8, addend: 0x0, symName: __RINvNtNtCsc29TF2YcYso_3syn3gen9visit_mut16visit_bin_op_mutNtNtCsemR3zGJppC3_18tracing_attributes6expand20IdentAndTypesRenamerEBY_, symObjAddr: 0x3B70, symBinAddr: 0x47C8, symSize: 0x438 }
  - { offset: 0x2BF3, size: 0x8, addend: 0x0, symName: __RINvNtNtCsc29TF2YcYso_3syn3gen9visit_mut16visit_fields_mutNtNtCsemR3zGJppC3_18tracing_attributes6expand15ImplTraitEraserEBY_, symObjAddr: 0x3FA8, symBinAddr: 0x4C00, symSize: 0xC4 }
  - { offset: 0x2C71, size: 0x8, addend: 0x0, symName: __RINvNtNtCsc29TF2YcYso_3syn3gen9visit_mut16visit_fields_mutNtNtCsemR3zGJppC3_18tracing_attributes6expand20IdentAndTypesRenamerEBY_, symObjAddr: 0x406C, symBinAddr: 0x4CC4, symSize: 0xC4 }
  - { offset: 0x2CEF, size: 0x8, addend: 0x0, symName: __RINvNtNtCsc29TF2YcYso_3syn3gen9visit_mut16visit_fn_arg_mutNtNtCsemR3zGJppC3_18tracing_attributes6expand15ImplTraitEraserEBY_, symObjAddr: 0x4130, symBinAddr: 0x4D88, symSize: 0xA0 }
  - { offset: 0x2D65, size: 0x8, addend: 0x0, symName: __RINvNtNtCsc29TF2YcYso_3syn3gen9visit_mut16visit_fn_arg_mutNtNtCsemR3zGJppC3_18tracing_attributes6expand20IdentAndTypesRenamerEBY_, symObjAddr: 0x41D0, symBinAddr: 0x4E28, symSize: 0xA0 }
  - { offset: 0x2DDB, size: 0x8, addend: 0x0, symName: __RINvNtNtCsc29TF2YcYso_3syn3gen9visit_mut16visit_member_mutNtNtCsemR3zGJppC3_18tracing_attributes6expand15ImplTraitEraserEBY_, symObjAddr: 0x4270, symBinAddr: 0x4EC8, symSize: 0x98 }
  - { offset: 0x2E51, size: 0x8, addend: 0x0, symName: __RINvNtNtCsc29TF2YcYso_3syn3gen9visit_mut16visit_member_mutNtNtCsemR3zGJppC3_18tracing_attributes6expand20IdentAndTypesRenamerEBY_, symObjAddr: 0x4308, symBinAddr: 0x4F60, symSize: 0x98 }
  - { offset: 0x2EC7, size: 0x8, addend: 0x0, symName: __RINvNtNtCsc29TF2YcYso_3syn3gen9visit_mut16visit_pat_or_mutNtNtCsemR3zGJppC3_18tracing_attributes6expand15ImplTraitEraserEBY_, symObjAddr: 0x43A0, symBinAddr: 0x4FF8, symSize: 0xD0 }
  - { offset: 0x2F64, size: 0x8, addend: 0x0, symName: __RINvNtNtCsc29TF2YcYso_3syn3gen9visit_mut16visit_pat_or_mutNtNtCsemR3zGJppC3_18tracing_attributes6expand20IdentAndTypesRenamerEBY_, symObjAddr: 0x4470, symBinAddr: 0x50C8, symSize: 0xD0 }
  - { offset: 0x3001, size: 0x8, addend: 0x0, symName: __RINvNtNtCsc29TF2YcYso_3syn3gen9visit_mut17visit_expr_if_mutNtNtCsemR3zGJppC3_18tracing_attributes6expand15ImplTraitEraserEBZ_, symObjAddr: 0x4540, symBinAddr: 0x5198, symSize: 0x150 }
  - { offset: 0x3059, size: 0x8, addend: 0x0, symName: __RINvNtNtCsc29TF2YcYso_3syn3gen9visit_mut17visit_expr_if_mutNtNtCsemR3zGJppC3_18tracing_attributes6expand20IdentAndTypesRenamerEBZ_, symObjAddr: 0x4690, symBinAddr: 0x52E8, symSize: 0x150 }
  - { offset: 0x30B1, size: 0x8, addend: 0x0, symName: __RINvNtNtCsc29TF2YcYso_3syn3gen9visit_mut17visit_item_fn_mutNtNtCsemR3zGJppC3_18tracing_attributes6expand15ImplTraitEraserEBZ_, symObjAddr: 0x47E0, symBinAddr: 0x5438, symSize: 0xC0 }
  - { offset: 0x30F3, size: 0x8, addend: 0x0, symName: __RINvNtNtCsc29TF2YcYso_3syn3gen9visit_mut17visit_item_fn_mutNtNtCsemR3zGJppC3_18tracing_attributes6expand20IdentAndTypesRenamerEBZ_, symObjAddr: 0x48A0, symBinAddr: 0x54F8, symSize: 0xC0 }
  - { offset: 0x3135, size: 0x8, addend: 0x0, symName: __RINvNtNtCsc29TF2YcYso_3syn3gen9visit_mut17visit_lit_int_mutNtNtCsemR3zGJppC3_18tracing_attributes6expand15ImplTraitEraserEBZ_, symObjAddr: 0x4960, symBinAddr: 0x55B8, symSize: 0x24 }
  - { offset: 0x3177, size: 0x8, addend: 0x0, symName: __RINvNtNtCsc29TF2YcYso_3syn3gen9visit_mut17visit_lit_int_mutNtNtCsemR3zGJppC3_18tracing_attributes6expand20IdentAndTypesRenamerEBZ_, symObjAddr: 0x4984, symBinAddr: 0x55DC, symSize: 0x24 }
  - { offset: 0x31B9, size: 0x8, addend: 0x0, symName: __RINvNtNtCsc29TF2YcYso_3syn3gen9visit_mut17visit_lit_str_mutNtNtCsemR3zGJppC3_18tracing_attributes6expand15ImplTraitEraserEBZ_, symObjAddr: 0x49A8, symBinAddr: 0x5600, symSize: 0x24 }
  - { offset: 0x31FB, size: 0x8, addend: 0x0, symName: __RINvNtNtCsc29TF2YcYso_3syn3gen9visit_mut17visit_lit_str_mutNtNtCsemR3zGJppC3_18tracing_attributes6expand20IdentAndTypesRenamerEBZ_, symObjAddr: 0x49CC, symBinAddr: 0x5624, symSize: 0x24 }
  - { offset: 0x323D, size: 0x8, addend: 0x0, symName: __RINvNtNtCsc29TF2YcYso_3syn3gen9visit_mut17visit_variant_mutNtNtCsemR3zGJppC3_18tracing_attributes6expand15ImplTraitEraserEBZ_, symObjAddr: 0x49F0, symBinAddr: 0x5648, symSize: 0xB0 }
  - { offset: 0x329D, size: 0x8, addend: 0x0, symName: __RINvNtNtCsc29TF2YcYso_3syn3gen9visit_mut17visit_variant_mutNtNtCsemR3zGJppC3_18tracing_attributes6expand20IdentAndTypesRenamerEBZ_, symObjAddr: 0x4AA0, symBinAddr: 0x56F8, symSize: 0xB0 }
  - { offset: 0x32FD, size: 0x8, addend: 0x0, symName: __RINvNtNtCsc29TF2YcYso_3syn3gen9visit_mut18visit_expr_let_mutNtNtCsemR3zGJppC3_18tracing_attributes6expand15ImplTraitEraserEB10_, symObjAddr: 0x4B50, symBinAddr: 0x57A8, symSize: 0xFC }
  - { offset: 0x333F, size: 0x8, addend: 0x0, symName: __RINvNtNtCsc29TF2YcYso_3syn3gen9visit_mut18visit_expr_let_mutNtNtCsemR3zGJppC3_18tracing_attributes6expand20IdentAndTypesRenamerEB10_, symObjAddr: 0x4C4C, symBinAddr: 0x58A4, symSize: 0xFC }
  - { offset: 0x3381, size: 0x8, addend: 0x0, symName: __RINvNtNtCsc29TF2YcYso_3syn3gen9visit_mut18visit_expr_lit_mutNtNtCsemR3zGJppC3_18tracing_attributes6expand15ImplTraitEraserEB10_, symObjAddr: 0x4D48, symBinAddr: 0x59A0, symSize: 0x50 }
  - { offset: 0x33C3, size: 0x8, addend: 0x0, symName: __RINvNtNtCsc29TF2YcYso_3syn3gen9visit_mut18visit_expr_lit_mutNtNtCsemR3zGJppC3_18tracing_attributes6expand20IdentAndTypesRenamerEB10_, symObjAddr: 0x4D98, symBinAddr: 0x59F0, symSize: 0x50 }
  - { offset: 0x3405, size: 0x8, addend: 0x0, symName: __RINvNtNtCsc29TF2YcYso_3syn3gen9visit_mut18visit_expr_try_mutNtNtCsemR3zGJppC3_18tracing_attributes6expand15ImplTraitEraserEB10_, symObjAddr: 0x4DE8, symBinAddr: 0x5A40, symSize: 0xA0 }
  - { offset: 0x3447, size: 0x8, addend: 0x0, symName: __RINvNtNtCsc29TF2YcYso_3syn3gen9visit_mut18visit_expr_try_mutNtNtCsemR3zGJppC3_18tracing_attributes6expand20IdentAndTypesRenamerEB10_, symObjAddr: 0x4E88, symBinAddr: 0x5AE0, symSize: 0xA0 }
  - { offset: 0x3489, size: 0x8, addend: 0x0, symName: __RINvNtNtCsc29TF2YcYso_3syn3gen9visit_mut18visit_generics_mutNtNtCsemR3zGJppC3_18tracing_attributes6expand15ImplTraitEraserEB10_, symObjAddr: 0x4F28, symBinAddr: 0x5B80, symSize: 0x120 }
  - { offset: 0x3544, size: 0x8, addend: 0x0, symName: __RINvNtNtCsc29TF2YcYso_3syn3gen9visit_mut18visit_generics_mutNtNtCsemR3zGJppC3_18tracing_attributes6expand20IdentAndTypesRenamerEB10_, symObjAddr: 0x5048, symBinAddr: 0x5CA0, symSize: 0x120 }
  - { offset: 0x35FF, size: 0x8, addend: 0x0, symName: __RINvNtNtCsc29TF2YcYso_3syn3gen9visit_mut18visit_item_mod_mutNtNtCsemR3zGJppC3_18tracing_attributes6expand15ImplTraitEraserEB10_, symObjAddr: 0x5168, symBinAddr: 0x5DC0, symSize: 0x104 }
  - { offset: 0x368B, size: 0x8, addend: 0x0, symName: __RINvNtNtCsc29TF2YcYso_3syn3gen9visit_mut18visit_item_mod_mutNtNtCsemR3zGJppC3_18tracing_attributes6expand20IdentAndTypesRenamerEB10_, symObjAddr: 0x526C, symBinAddr: 0x5EC4, symSize: 0x104 }
  - { offset: 0x3717, size: 0x8, addend: 0x0, symName: __RINvNtNtCsc29TF2YcYso_3syn3gen9visit_mut18visit_item_use_mutNtNtCsemR3zGJppC3_18tracing_attributes6expand15ImplTraitEraserEB10_, symObjAddr: 0x5370, symBinAddr: 0x5FC8, symSize: 0x60 }
  - { offset: 0x3759, size: 0x8, addend: 0x0, symName: __RINvNtNtCsc29TF2YcYso_3syn3gen9visit_mut18visit_item_use_mutNtNtCsemR3zGJppC3_18tracing_attributes6expand20IdentAndTypesRenamerEB10_, symObjAddr: 0x53D0, symBinAddr: 0x6028, symSize: 0x60 }
  - { offset: 0x379B, size: 0x8, addend: 0x0, symName: __RINvNtNtCsc29TF2YcYso_3syn3gen9visit_mut18visit_lifetime_mutNtNtCsemR3zGJppC3_18tracing_attributes6expand15ImplTraitEraserEB10_, symObjAddr: 0x5430, symBinAddr: 0x6088, symSize: 0x50 }
  - { offset: 0x37DD, size: 0x8, addend: 0x0, symName: __RINvNtNtCsc29TF2YcYso_3syn3gen9visit_mut18visit_lifetime_mutNtNtCsemR3zGJppC3_18tracing_attributes6expand20IdentAndTypesRenamerEB10_, symObjAddr: 0x5480, symBinAddr: 0x60D8, symSize: 0x50 }
  - { offset: 0x381F, size: 0x8, addend: 0x0, symName: __RINvNtNtCsc29TF2YcYso_3syn3gen9visit_mut18visit_lit_bool_mutNtNtCsemR3zGJppC3_18tracing_attributes6expand15ImplTraitEraserEB10_, symObjAddr: 0x54D0, symBinAddr: 0x6128, symSize: 0x3C }
  - { offset: 0x3861, size: 0x8, addend: 0x0, symName: __RINvNtNtCsc29TF2YcYso_3syn3gen9visit_mut18visit_lit_bool_mutNtNtCsemR3zGJppC3_18tracing_attributes6expand20IdentAndTypesRenamerEB10_, symObjAddr: 0x550C, symBinAddr: 0x6164, symSize: 0x3C }
  - { offset: 0x38A3, size: 0x8, addend: 0x0, symName: __RINvNtNtCsc29TF2YcYso_3syn3gen9visit_mut18visit_lit_byte_mutNtNtCsemR3zGJppC3_18tracing_attributes6expand15ImplTraitEraserEB10_, symObjAddr: 0x5548, symBinAddr: 0x61A0, symSize: 0x24 }
  - { offset: 0x38E5, size: 0x8, addend: 0x0, symName: __RINvNtNtCsc29TF2YcYso_3syn3gen9visit_mut18visit_lit_byte_mutNtNtCsemR3zGJppC3_18tracing_attributes6expand20IdentAndTypesRenamerEB10_, symObjAddr: 0x556C, symBinAddr: 0x61C4, symSize: 0x24 }
  - { offset: 0x3927, size: 0x8, addend: 0x0, symName: __RINvNtNtCsc29TF2YcYso_3syn3gen9visit_mut18visit_lit_char_mutNtNtCsemR3zGJppC3_18tracing_attributes6expand15ImplTraitEraserEB10_, symObjAddr: 0x5590, symBinAddr: 0x61E8, symSize: 0x24 }
  - { offset: 0x3969, size: 0x8, addend: 0x0, symName: __RINvNtNtCsc29TF2YcYso_3syn3gen9visit_mut18visit_lit_char_mutNtNtCsemR3zGJppC3_18tracing_attributes6expand20IdentAndTypesRenamerEB10_, symObjAddr: 0x55B4, symBinAddr: 0x620C, symSize: 0x24 }
  - { offset: 0x39AB, size: 0x8, addend: 0x0, symName: __RINvNtNtCsc29TF2YcYso_3syn3gen9visit_mut18visit_lit_cstr_mutNtNtCsemR3zGJppC3_18tracing_attributes6expand15ImplTraitEraserEB10_, symObjAddr: 0x55D8, symBinAddr: 0x6230, symSize: 0x24 }
  - { offset: 0x39ED, size: 0x8, addend: 0x0, symName: __RINvNtNtCsc29TF2YcYso_3syn3gen9visit_mut18visit_lit_cstr_mutNtNtCsemR3zGJppC3_18tracing_attributes6expand20IdentAndTypesRenamerEB10_, symObjAddr: 0x55FC, symBinAddr: 0x6254, symSize: 0x24 }
  - { offset: 0x3A2F, size: 0x8, addend: 0x0, symName: __RINvNtNtCsc29TF2YcYso_3syn3gen9visit_mut18visit_pat_rest_mutNtNtCsemR3zGJppC3_18tracing_attributes6expand15ImplTraitEraserEB10_, symObjAddr: 0x5620, symBinAddr: 0x6278, symSize: 0x3C }
  - { offset: 0x3A71, size: 0x8, addend: 0x0, symName: __RINvNtNtCsc29TF2YcYso_3syn3gen9visit_mut18visit_pat_rest_mutNtNtCsemR3zGJppC3_18tracing_attributes6expand20IdentAndTypesRenamerEB10_, symObjAddr: 0x565C, symBinAddr: 0x62B4, symSize: 0x3C }
  - { offset: 0x3AB3, size: 0x8, addend: 0x0, symName: __RINvNtNtCsc29TF2YcYso_3syn3gen9visit_mut18visit_pat_type_mutNtNtCsemR3zGJppC3_18tracing_attributes6expand15ImplTraitEraserEB10_, symObjAddr: 0x5698, symBinAddr: 0x62F0, symSize: 0xFC }
  - { offset: 0x3AF5, size: 0x8, addend: 0x0, symName: __RINvNtNtCsc29TF2YcYso_3syn3gen9visit_mut18visit_pat_type_mutNtNtCsemR3zGJppC3_18tracing_attributes6expand20IdentAndTypesRenamerEB10_, symObjAddr: 0x5794, symBinAddr: 0x63EC, symSize: 0xFC }
  - { offset: 0x3B37, size: 0x8, addend: 0x0, symName: __RINvNtNtCsc29TF2YcYso_3syn3gen9visit_mut18visit_pat_wild_mutNtNtCsemR3zGJppC3_18tracing_attributes6expand15ImplTraitEraserEB10_, symObjAddr: 0x5890, symBinAddr: 0x64E8, symSize: 0x3C }
  - { offset: 0x3B79, size: 0x8, addend: 0x0, symName: __RINvNtNtCsc29TF2YcYso_3syn3gen9visit_mut18visit_pat_wild_mutNtNtCsemR3zGJppC3_18tracing_attributes6expand20IdentAndTypesRenamerEB10_, symObjAddr: 0x58CC, symBinAddr: 0x6524, symSize: 0x3C }
  - { offset: 0x3BBB, size: 0x8, addend: 0x0, symName: __RINvNtNtCsc29TF2YcYso_3syn3gen9visit_mut18visit_receiver_mutNtNtCsemR3zGJppC3_18tracing_attributes6expand15ImplTraitEraserEB10_, symObjAddr: 0x5908, symBinAddr: 0x6560, symSize: 0x12C }
  - { offset: 0x3C29, size: 0x8, addend: 0x0, symName: __RINvNtNtCsc29TF2YcYso_3syn3gen9visit_mut18visit_receiver_mutNtNtCsemR3zGJppC3_18tracing_attributes6expand20IdentAndTypesRenamerEB10_, symObjAddr: 0x5A34, symBinAddr: 0x668C, symSize: 0x12C }
  - { offset: 0x3C97, size: 0x8, addend: 0x0, symName: __RINvNtNtCsc29TF2YcYso_3syn3gen9visit_mut18visit_type_ptr_mutNtNtCsemR3zGJppC3_18tracing_attributes6expand15ImplTraitEraserEB10_, symObjAddr: 0x5B60, symBinAddr: 0x67B8, symSize: 0x90 }
  - { offset: 0x3CD9, size: 0x8, addend: 0x0, symName: __RINvNtNtCsc29TF2YcYso_3syn3gen9visit_mut18visit_use_glob_mutNtNtCsemR3zGJppC3_18tracing_attributes6expand15ImplTraitEraserEB10_, symObjAddr: 0x5BF0, symBinAddr: 0x6848, symSize: 0x24 }
  - { offset: 0x3D1B, size: 0x8, addend: 0x0, symName: __RINvNtNtCsc29TF2YcYso_3syn3gen9visit_mut18visit_use_glob_mutNtNtCsemR3zGJppC3_18tracing_attributes6expand20IdentAndTypesRenamerEB10_, symObjAddr: 0x5C14, symBinAddr: 0x686C, symSize: 0x24 }
  - { offset: 0x3D5D, size: 0x8, addend: 0x0, symName: __RINvNtNtCsc29TF2YcYso_3syn3gen9visit_mut18visit_use_name_mutNtNtCsemR3zGJppC3_18tracing_attributes6expand15ImplTraitEraserEB10_, symObjAddr: 0x5C38, symBinAddr: 0x6890, symSize: 0x3C }
  - { offset: 0x3D9F, size: 0x8, addend: 0x0, symName: __RINvNtNtCsc29TF2YcYso_3syn3gen9visit_mut18visit_use_name_mutNtNtCsemR3zGJppC3_18tracing_attributes6expand20IdentAndTypesRenamerEB10_, symObjAddr: 0x5C74, symBinAddr: 0x68CC, symSize: 0x3C }
  - { offset: 0x3DE1, size: 0x8, addend: 0x0, symName: __RINvNtNtCsc29TF2YcYso_3syn3gen9visit_mut18visit_use_path_mutNtNtCsemR3zGJppC3_18tracing_attributes6expand15ImplTraitEraserEB10_, symObjAddr: 0x5CB0, symBinAddr: 0x6908, symSize: 0xA4 }
  - { offset: 0x3E23, size: 0x8, addend: 0x0, symName: __RINvNtNtCsc29TF2YcYso_3syn3gen9visit_mut18visit_use_path_mutNtNtCsemR3zGJppC3_18tracing_attributes6expand20IdentAndTypesRenamerEB10_, symObjAddr: 0x5D54, symBinAddr: 0x69AC, symSize: 0xA4 }
  - { offset: 0x3E65, size: 0x8, addend: 0x0, symName: __RINvNtNtCsc29TF2YcYso_3syn3gen9visit_mut18visit_use_tree_mutNtNtCsemR3zGJppC3_18tracing_attributes6expand15ImplTraitEraserEB10_, symObjAddr: 0x5DF8, symBinAddr: 0x6A50, symSize: 0x15C }
  - { offset: 0x3F35, size: 0x8, addend: 0x0, symName: __RINvNtNtCsc29TF2YcYso_3syn3gen9visit_mut18visit_use_tree_mutNtNtCsemR3zGJppC3_18tracing_attributes6expand20IdentAndTypesRenamerEB10_, symObjAddr: 0x5F54, symBinAddr: 0x6BAC, symSize: 0x15C }
  - { offset: 0x4005, size: 0x8, addend: 0x0, symName: __RINvNtNtCsc29TF2YcYso_3syn3gen9visit_mut18visit_variadic_mutNtNtCsemR3zGJppC3_18tracing_attributes6expand15ImplTraitEraserEB10_, symObjAddr: 0x60B0, symBinAddr: 0x6D08, symSize: 0xDC }
  - { offset: 0x405D, size: 0x8, addend: 0x0, symName: __RINvNtNtCsc29TF2YcYso_3syn3gen9visit_mut18visit_variadic_mutNtNtCsemR3zGJppC3_18tracing_attributes6expand20IdentAndTypesRenamerEB10_, symObjAddr: 0x618C, symBinAddr: 0x6DE4, symSize: 0xDC }
  - { offset: 0x40B5, size: 0x8, addend: 0x0, symName: __RINvNtNtCsc29TF2YcYso_3syn3gen9visit_mut19visit_attribute_mutNtNtCsemR3zGJppC3_18tracing_attributes6expand15ImplTraitEraserEB11_, symObjAddr: 0x6268, symBinAddr: 0x6EC0, symSize: 0x50 }
  - { offset: 0x40F7, size: 0x8, addend: 0x0, symName: __RINvNtNtCsc29TF2YcYso_3syn3gen9visit_mut19visit_attribute_mutNtNtCsemR3zGJppC3_18tracing_attributes6expand20IdentAndTypesRenamerEB11_, symObjAddr: 0x62B8, symBinAddr: 0x6F10, symSize: 0x50 }
  - { offset: 0x4139, size: 0x8, addend: 0x0, symName: __RINvNtNtCsc29TF2YcYso_3syn3gen9visit_mut19visit_expr_call_mutNtNtCsemR3zGJppC3_18tracing_attributes6expand15ImplTraitEraserEB11_, symObjAddr: 0x6308, symBinAddr: 0x6F60, symSize: 0x130 }
  - { offset: 0x41CE, size: 0x8, addend: 0x0, symName: __RINvNtNtCsc29TF2YcYso_3syn3gen9visit_mut19visit_expr_call_mutNtNtCsemR3zGJppC3_18tracing_attributes6expand20IdentAndTypesRenamerEB11_, symObjAddr: 0x6438, symBinAddr: 0x7090, symSize: 0x130 }
  - { offset: 0x4263, size: 0x8, addend: 0x0, symName: __RINvNtNtCsc29TF2YcYso_3syn3gen9visit_mut19visit_expr_cast_mutNtNtCsemR3zGJppC3_18tracing_attributes6expand15ImplTraitEraserEB11_, symObjAddr: 0x6568, symBinAddr: 0x71C0, symSize: 0xFC }
  - { offset: 0x42A5, size: 0x8, addend: 0x0, symName: __RINvNtNtCsc29TF2YcYso_3syn3gen9visit_mut19visit_expr_cast_mutNtNtCsemR3zGJppC3_18tracing_attributes6expand20IdentAndTypesRenamerEB11_, symObjAddr: 0x6664, symBinAddr: 0x72BC, symSize: 0xFC }
  - { offset: 0x42E7, size: 0x8, addend: 0x0, symName: __RINvNtNtCsc29TF2YcYso_3syn3gen9visit_mut19visit_expr_loop_mutNtNtCsemR3zGJppC3_18tracing_attributes6expand15ImplTraitEraserEB11_, symObjAddr: 0x6760, symBinAddr: 0x73B8, symSize: 0xA0 }
  - { offset: 0x4347, size: 0x8, addend: 0x0, symName: __RINvNtNtCsc29TF2YcYso_3syn3gen9visit_mut19visit_expr_loop_mutNtNtCsemR3zGJppC3_18tracing_attributes6expand20IdentAndTypesRenamerEB11_, symObjAddr: 0x6800, symBinAddr: 0x7458, symSize: 0xA0 }
  - { offset: 0x43A7, size: 0x8, addend: 0x0, symName: __RINvNtNtCsc29TF2YcYso_3syn3gen9visit_mut19visit_expr_path_mutNtNtCsemR3zGJppC3_18tracing_attributes6expand15ImplTraitEraserEB11_, symObjAddr: 0x68A0, symBinAddr: 0x74F8, symSize: 0xA0 }
  - { offset: 0x4407, size: 0x8, addend: 0x0, symName: __RINvNtNtCsc29TF2YcYso_3syn3gen9visit_mut19visit_expr_path_mutNtNtCsemR3zGJppC3_18tracing_attributes6expand20IdentAndTypesRenamerEB11_, symObjAddr: 0x6940, symBinAddr: 0x7598, symSize: 0xA0 }
  - { offset: 0x4467, size: 0x8, addend: 0x0, symName: __RINvNtNtCsc29TF2YcYso_3syn3gen9visit_mut19visit_field_pat_mutNtNtCsemR3zGJppC3_18tracing_attributes6expand15ImplTraitEraserEB11_, symObjAddr: 0x69E0, symBinAddr: 0x7638, symSize: 0xB0 }
  - { offset: 0x44A9, size: 0x8, addend: 0x0, symName: __RINvNtNtCsc29TF2YcYso_3syn3gen9visit_mut19visit_field_pat_mutNtNtCsemR3zGJppC3_18tracing_attributes6expand20IdentAndTypesRenamerEB11_, symObjAddr: 0x6A90, symBinAddr: 0x76E8, symSize: 0xB0 }
  - { offset: 0x44EB, size: 0x8, addend: 0x0, symName: __RINvNtNtCsc29TF2YcYso_3syn3gen9visit_mut19visit_impl_item_mutNtNtCsemR3zGJppC3_18tracing_attributes6expand15ImplTraitEraserEB11_, symObjAddr: 0x6B40, symBinAddr: 0x7798, symSize: 0x168 }
  - { offset: 0x45BB, size: 0x8, addend: 0x0, symName: __RINvNtNtCsc29TF2YcYso_3syn3gen9visit_mut19visit_impl_item_mutNtNtCsemR3zGJppC3_18tracing_attributes6expand20IdentAndTypesRenamerEB11_, symObjAddr: 0x6CA8, symBinAddr: 0x7900, symSize: 0x168 }
  - { offset: 0x468B, size: 0x8, addend: 0x0, symName: __RINvNtNtCsc29TF2YcYso_3syn3gen9visit_mut19visit_item_enum_mutNtNtCsemR3zGJppC3_18tracing_attributes6expand15ImplTraitEraserEB11_, symObjAddr: 0x6E10, symBinAddr: 0x7A68, symSize: 0x100 }
  - { offset: 0x4728, size: 0x8, addend: 0x0, symName: __RINvNtNtCsc29TF2YcYso_3syn3gen9visit_mut19visit_item_enum_mutNtNtCsemR3zGJppC3_18tracing_attributes6expand20IdentAndTypesRenamerEB11_, symObjAddr: 0x6F10, symBinAddr: 0x7B68, symSize: 0x100 }
  - { offset: 0x47C5, size: 0x8, addend: 0x0, symName: __RINvNtNtCsc29TF2YcYso_3syn3gen9visit_mut19visit_item_impl_mutNtNtCsemR3zGJppC3_18tracing_attributes6expand15ImplTraitEraserEB11_, symObjAddr: 0x7010, symBinAddr: 0x7C68, symSize: 0x160 }
  - { offset: 0x4859, size: 0x8, addend: 0x0, symName: __RINvNtNtCsc29TF2YcYso_3syn3gen9visit_mut19visit_item_impl_mutNtNtCsemR3zGJppC3_18tracing_attributes6expand20IdentAndTypesRenamerEB11_, symObjAddr: 0x7170, symBinAddr: 0x7DC8, symSize: 0x160 }
  - { offset: 0x48ED, size: 0x8, addend: 0x0, symName: __RINvNtNtCsc29TF2YcYso_3syn3gen9visit_mut19visit_item_type_mutNtNtCsemR3zGJppC3_18tracing_attributes6expand15ImplTraitEraserEB11_, symObjAddr: 0x72D0, symBinAddr: 0x7F28, symSize: 0xD0 }
  - { offset: 0x492F, size: 0x8, addend: 0x0, symName: __RINvNtNtCsc29TF2YcYso_3syn3gen9visit_mut19visit_item_type_mutNtNtCsemR3zGJppC3_18tracing_attributes6expand20IdentAndTypesRenamerEB11_, symObjAddr: 0x73A0, symBinAddr: 0x7FF8, symSize: 0xD0 }
  - { offset: 0x4971, size: 0x8, addend: 0x0, symName: __RINvNtNtCsc29TF2YcYso_3syn3gen9visit_mut19visit_lit_float_mutNtNtCsemR3zGJppC3_18tracing_attributes6expand15ImplTraitEraserEB11_, symObjAddr: 0x7470, symBinAddr: 0x80C8, symSize: 0x24 }
  - { offset: 0x49B3, size: 0x8, addend: 0x0, symName: __RINvNtNtCsc29TF2YcYso_3syn3gen9visit_mut19visit_lit_float_mutNtNtCsemR3zGJppC3_18tracing_attributes6expand20IdentAndTypesRenamerEB11_, symObjAddr: 0x7494, symBinAddr: 0x80EC, symSize: 0x24 }
  - { offset: 0x49F5, size: 0x8, addend: 0x0, symName: __RINvNtNtCsc29TF2YcYso_3syn3gen9visit_mut19visit_meta_list_mutNtNtCsemR3zGJppC3_18tracing_attributes6expand15ImplTraitEraserEB11_, symObjAddr: 0x74B8, symBinAddr: 0x8110, symSize: 0x60 }
  - { offset: 0x4A37, size: 0x8, addend: 0x0, symName: __RINvNtNtCsc29TF2YcYso_3syn3gen9visit_mut19visit_meta_list_mutNtNtCsemR3zGJppC3_18tracing_attributes6expand20IdentAndTypesRenamerEB11_, symObjAddr: 0x7518, symBinAddr: 0x8170, symSize: 0x60 }
  - { offset: 0x4A79, size: 0x8, addend: 0x0, symName: __RINvNtNtCsc29TF2YcYso_3syn3gen9visit_mut19visit_pat_ident_mutNtNtCsemR3zGJppC3_18tracing_attributes6expand15ImplTraitEraserEB11_, symObjAddr: 0x7578, symBinAddr: 0x81D0, symSize: 0xEC }
  - { offset: 0x4AD1, size: 0x8, addend: 0x0, symName: __RINvNtNtCsc29TF2YcYso_3syn3gen9visit_mut19visit_pat_ident_mutNtNtCsemR3zGJppC3_18tracing_attributes6expand20IdentAndTypesRenamerEB11_, symObjAddr: 0x7664, symBinAddr: 0x82BC, symSize: 0xEC }
  - { offset: 0x4B29, size: 0x8, addend: 0x0, symName: __RINvNtNtCsc29TF2YcYso_3syn3gen9visit_mut19visit_pat_paren_mutNtNtCsemR3zGJppC3_18tracing_attributes6expand15ImplTraitEraserEB11_, symObjAddr: 0x7750, symBinAddr: 0x83A8, symSize: 0xA0 }
  - { offset: 0x4B6B, size: 0x8, addend: 0x0, symName: __RINvNtNtCsc29TF2YcYso_3syn3gen9visit_mut19visit_pat_paren_mutNtNtCsemR3zGJppC3_18tracing_attributes6expand20IdentAndTypesRenamerEB11_, symObjAddr: 0x77F0, symBinAddr: 0x8448, symSize: 0xA0 }
  - { offset: 0x4BAD, size: 0x8, addend: 0x0, symName: __RINvNtNtCsc29TF2YcYso_3syn3gen9visit_mut19visit_pat_slice_mutNtNtCsemR3zGJppC3_18tracing_attributes6expand15ImplTraitEraserEB11_, symObjAddr: 0x7890, symBinAddr: 0x84E8, symSize: 0xD0 }
  - { offset: 0x4C4A, size: 0x8, addend: 0x0, symName: __RINvNtNtCsc29TF2YcYso_3syn3gen9visit_mut19visit_pat_slice_mutNtNtCsemR3zGJppC3_18tracing_attributes6expand20IdentAndTypesRenamerEB11_, symObjAddr: 0x7960, symBinAddr: 0x85B8, symSize: 0xD0 }
  - { offset: 0x4CE7, size: 0x8, addend: 0x0, symName: __RINvNtNtCsc29TF2YcYso_3syn3gen9visit_mut19visit_pat_tuple_mutNtNtCsemR3zGJppC3_18tracing_attributes6expand15ImplTraitEraserEB11_, symObjAddr: 0x7A30, symBinAddr: 0x8688, symSize: 0xD0 }
  - { offset: 0x4D84, size: 0x8, addend: 0x0, symName: __RINvNtNtCsc29TF2YcYso_3syn3gen9visit_mut19visit_pat_tuple_mutNtNtCsemR3zGJppC3_18tracing_attributes6expand20IdentAndTypesRenamerEB11_, symObjAddr: 0x7B00, symBinAddr: 0x8758, symSize: 0xD0 }
  - { offset: 0x4E21, size: 0x8, addend: 0x0, symName: __RINvNtNtCsc29TF2YcYso_3syn3gen9visit_mut19visit_signature_mutNtNtCsemR3zGJppC3_18tracing_attributes6expand15ImplTraitEraserEB11_, symObjAddr: 0x7BD0, symBinAddr: 0x8828, symSize: 0x190 }
  - { offset: 0x4EFA, size: 0x8, addend: 0x0, symName: __RINvNtNtCsc29TF2YcYso_3syn3gen9visit_mut19visit_signature_mutNtNtCsemR3zGJppC3_18tracing_attributes6expand20IdentAndTypesRenamerEB11_, symObjAddr: 0x7D60, symBinAddr: 0x89B8, symSize: 0x190 }
  - { offset: 0x4FD3, size: 0x8, addend: 0x0, symName: __RINvNtNtCsc29TF2YcYso_3syn3gen9visit_mut19visit_type_path_mutNtNtCsemR3zGJppC3_18tracing_attributes6expand15ImplTraitEraserEB11_, symObjAddr: 0x7EF0, symBinAddr: 0x8B48, symSize: 0x90 }
  - { offset: 0x5033, size: 0x8, addend: 0x0, symName: __RINvNtNtCsc29TF2YcYso_3syn3gen9visit_mut19visit_use_group_mutNtNtCsemR3zGJppC3_18tracing_attributes6expand15ImplTraitEraserEB11_, symObjAddr: 0x7F80, symBinAddr: 0x8BD8, symSize: 0xC8 }
  - { offset: 0x50D0, size: 0x8, addend: 0x0, symName: __RINvNtNtCsc29TF2YcYso_3syn3gen9visit_mut19visit_use_group_mutNtNtCsemR3zGJppC3_18tracing_attributes6expand20IdentAndTypesRenamerEB11_, symObjAddr: 0x8048, symBinAddr: 0x8CA0, symSize: 0xC8 }
  - { offset: 0x516D, size: 0x8, addend: 0x0, symName: __RINvNtNtCsc29TF2YcYso_3syn3gen9visit_mut20visit_assoc_type_mutNtNtCsemR3zGJppC3_18tracing_attributes6expand15ImplTraitEraserEB12_, symObjAddr: 0x8110, symBinAddr: 0x8D68, symSize: 0xA4 }
  - { offset: 0x51CD, size: 0x8, addend: 0x0, symName: __RINvNtNtCsc29TF2YcYso_3syn3gen9visit_mut20visit_assoc_type_mutNtNtCsemR3zGJppC3_18tracing_attributes6expand20IdentAndTypesRenamerEB12_, symObjAddr: 0x81B4, symBinAddr: 0x8E0C, symSize: 0xA4 }
  - { offset: 0x522D, size: 0x8, addend: 0x0, symName: __RINvNtNtCsc29TF2YcYso_3syn3gen9visit_mut20visit_attr_style_mutNtNtCsemR3zGJppC3_18tracing_attributes6expand15ImplTraitEraserEB12_, symObjAddr: 0x8258, symBinAddr: 0x8EB0, symSize: 0x68 }
  - { offset: 0x526F, size: 0x8, addend: 0x0, symName: __RINvNtNtCsc29TF2YcYso_3syn3gen9visit_mut20visit_attr_style_mutNtNtCsemR3zGJppC3_18tracing_attributes6expand20IdentAndTypesRenamerEB12_, symObjAddr: 0x82C0, symBinAddr: 0x8F18, symSize: 0x68 }
  - { offset: 0x52B1, size: 0x8, addend: 0x0, symName: __RINvNtNtCsc29TF2YcYso_3syn3gen9visit_mut20visit_constraint_mutNtNtCsemR3zGJppC3_18tracing_attributes6expand15ImplTraitEraserEB12_, symObjAddr: 0x8328, symBinAddr: 0x8F80, symSize: 0x124 }
  - { offset: 0x536C, size: 0x8, addend: 0x0, symName: __RINvNtNtCsc29TF2YcYso_3syn3gen9visit_mut20visit_constraint_mutNtNtCsemR3zGJppC3_18tracing_attributes6expand20IdentAndTypesRenamerEB12_, symObjAddr: 0x844C, symBinAddr: 0x90A4, symSize: 0x124 }
  - { offset: 0x5427, size: 0x8, addend: 0x0, symName: __RINvNtNtCsc29TF2YcYso_3syn3gen9visit_mut20visit_expr_array_mutNtNtCsemR3zGJppC3_18tracing_attributes6expand15ImplTraitEraserEB12_, symObjAddr: 0x8570, symBinAddr: 0x91C8, symSize: 0xD0 }
  - { offset: 0x54C4, size: 0x8, addend: 0x0, symName: __RINvNtNtCsc29TF2YcYso_3syn3gen9visit_mut20visit_expr_array_mutNtNtCsemR3zGJppC3_18tracing_attributes6expand20IdentAndTypesRenamerEB12_, symObjAddr: 0x8640, symBinAddr: 0x9298, symSize: 0xD0 }
  - { offset: 0x5561, size: 0x8, addend: 0x0, symName: __RINvNtNtCsc29TF2YcYso_3syn3gen9visit_mut20visit_expr_async_mutNtNtCsemR3zGJppC3_18tracing_attributes6expand15ImplTraitEraserEB12_, symObjAddr: 0x8710, symBinAddr: 0x9368, symSize: 0x50 }
  - { offset: 0x55A3, size: 0x8, addend: 0x0, symName: __RINvNtNtCsc29TF2YcYso_3syn3gen9visit_mut20visit_expr_async_mutNtNtCsemR3zGJppC3_18tracing_attributes6expand20IdentAndTypesRenamerEB12_, symObjAddr: 0x8760, symBinAddr: 0x93B8, symSize: 0x50 }
  - { offset: 0x55E5, size: 0x8, addend: 0x0, symName: __RINvNtNtCsc29TF2YcYso_3syn3gen9visit_mut20visit_expr_await_mutNtNtCsemR3zGJppC3_18tracing_attributes6expand15ImplTraitEraserEB12_, symObjAddr: 0x87B0, symBinAddr: 0x9408, symSize: 0xA0 }
  - { offset: 0x5627, size: 0x8, addend: 0x0, symName: __RINvNtNtCsc29TF2YcYso_3syn3gen9visit_mut20visit_expr_await_mutNtNtCsemR3zGJppC3_18tracing_attributes6expand20IdentAndTypesRenamerEB12_, symObjAddr: 0x8850, symBinAddr: 0x94A8, symSize: 0xA0 }
  - { offset: 0x5669, size: 0x8, addend: 0x0, symName: __RINvNtNtCsc29TF2YcYso_3syn3gen9visit_mut20visit_expr_block_mutNtNtCsemR3zGJppC3_18tracing_attributes6expand15ImplTraitEraserEB12_, symObjAddr: 0x88F0, symBinAddr: 0x9548, symSize: 0xA0 }
  - { offset: 0x56C9, size: 0x8, addend: 0x0, symName: __RINvNtNtCsc29TF2YcYso_3syn3gen9visit_mut20visit_expr_block_mutNtNtCsemR3zGJppC3_18tracing_attributes6expand20IdentAndTypesRenamerEB12_, symObjAddr: 0x8990, symBinAddr: 0x95E8, symSize: 0xA0 }
  - { offset: 0x5729, size: 0x8, addend: 0x0, symName: __RINvNtNtCsc29TF2YcYso_3syn3gen9visit_mut20visit_expr_break_mutNtNtCsemR3zGJppC3_18tracing_attributes6expand15ImplTraitEraserEB12_, symObjAddr: 0x8A30, symBinAddr: 0x9688, symSize: 0x130 }
  - { offset: 0x579F, size: 0x8, addend: 0x0, symName: __RINvNtNtCsc29TF2YcYso_3syn3gen9visit_mut20visit_expr_break_mutNtNtCsemR3zGJppC3_18tracing_attributes6expand20IdentAndTypesRenamerEB12_, symObjAddr: 0x8B60, symBinAddr: 0x97B8, symSize: 0x130 }
  - { offset: 0x5815, size: 0x8, addend: 0x0, symName: __RINvNtNtCsc29TF2YcYso_3syn3gen9visit_mut20visit_expr_const_mutNtNtCsemR3zGJppC3_18tracing_attributes6expand15ImplTraitEraserEB12_, symObjAddr: 0x8C90, symBinAddr: 0x98E8, symSize: 0x50 }
  - { offset: 0x5857, size: 0x8, addend: 0x0, symName: __RINvNtNtCsc29TF2YcYso_3syn3gen9visit_mut20visit_expr_const_mutNtNtCsemR3zGJppC3_18tracing_attributes6expand20IdentAndTypesRenamerEB12_, symObjAddr: 0x8CE0, symBinAddr: 0x9938, symSize: 0x50 }
  - { offset: 0x5899, size: 0x8, addend: 0x0, symName: __RINvNtNtCsc29TF2YcYso_3syn3gen9visit_mut20visit_expr_field_mutNtNtCsemR3zGJppC3_18tracing_attributes6expand15ImplTraitEraserEB12_, symObjAddr: 0x8D30, symBinAddr: 0x9988, symSize: 0xB0 }
  - { offset: 0x58DB, size: 0x8, addend: 0x0, symName: __RINvNtNtCsc29TF2YcYso_3syn3gen9visit_mut20visit_expr_field_mutNtNtCsemR3zGJppC3_18tracing_attributes6expand20IdentAndTypesRenamerEB12_, symObjAddr: 0x8DE0, symBinAddr: 0x9A38, symSize: 0xB0 }
  - { offset: 0x591D, size: 0x8, addend: 0x0, symName: __RINvNtNtCsc29TF2YcYso_3syn3gen9visit_mut20visit_expr_group_mutNtNtCsemR3zGJppC3_18tracing_attributes6expand15ImplTraitEraserEB12_, symObjAddr: 0x8E90, symBinAddr: 0x9AE8, symSize: 0xA0 }
  - { offset: 0x595F, size: 0x8, addend: 0x0, symName: __RINvNtNtCsc29TF2YcYso_3syn3gen9visit_mut20visit_expr_group_mutNtNtCsemR3zGJppC3_18tracing_attributes6expand20IdentAndTypesRenamerEB12_, symObjAddr: 0x8F30, symBinAddr: 0x9B88, symSize: 0xA0 }
  - { offset: 0x59A1, size: 0x8, addend: 0x0, symName: __RINvNtNtCsc29TF2YcYso_3syn3gen9visit_mut20visit_expr_index_mutNtNtCsemR3zGJppC3_18tracing_attributes6expand15ImplTraitEraserEB12_, symObjAddr: 0x8FD0, symBinAddr: 0x9C28, symSize: 0xFC }
  - { offset: 0x59E3, size: 0x8, addend: 0x0, symName: __RINvNtNtCsc29TF2YcYso_3syn3gen9visit_mut20visit_expr_index_mutNtNtCsemR3zGJppC3_18tracing_attributes6expand20IdentAndTypesRenamerEB12_, symObjAddr: 0x90CC, symBinAddr: 0x9D24, symSize: 0xFC }
  - { offset: 0x5A25, size: 0x8, addend: 0x0, symName: __RINvNtNtCsc29TF2YcYso_3syn3gen9visit_mut20visit_expr_infer_mutNtNtCsemR3zGJppC3_18tracing_attributes6expand15ImplTraitEraserEB12_, symObjAddr: 0x91C8, symBinAddr: 0x9E20, symSize: 0x3C }
  - { offset: 0x5A67, size: 0x8, addend: 0x0, symName: __RINvNtNtCsc29TF2YcYso_3syn3gen9visit_mut20visit_expr_infer_mutNtNtCsemR3zGJppC3_18tracing_attributes6expand20IdentAndTypesRenamerEB12_, symObjAddr: 0x9204, symBinAddr: 0x9E5C, symSize: 0x3C }
  - { offset: 0x5AA9, size: 0x8, addend: 0x0, symName: __RINvNtNtCsc29TF2YcYso_3syn3gen9visit_mut20visit_expr_macro_mutNtNtCsemR3zGJppC3_18tracing_attributes6expand15ImplTraitEraserEB12_, symObjAddr: 0x9240, symBinAddr: 0x9E98, symSize: 0x50 }
  - { offset: 0x5AEB, size: 0x8, addend: 0x0, symName: __RINvNtNtCsc29TF2YcYso_3syn3gen9visit_mut20visit_expr_macro_mutNtNtCsemR3zGJppC3_18tracing_attributes6expand20IdentAndTypesRenamerEB12_, symObjAddr: 0x9290, symBinAddr: 0x9EE8, symSize: 0x50 }
  - { offset: 0x5B2D, size: 0x8, addend: 0x0, symName: __RINvNtNtCsc29TF2YcYso_3syn3gen9visit_mut20visit_expr_match_mutNtNtCsemR3zGJppC3_18tracing_attributes6expand15ImplTraitEraserEB12_, symObjAddr: 0x92E0, symBinAddr: 0x9F38, symSize: 0x100 }
  - { offset: 0x5BA3, size: 0x8, addend: 0x0, symName: __RINvNtNtCsc29TF2YcYso_3syn3gen9visit_mut20visit_expr_match_mutNtNtCsemR3zGJppC3_18tracing_attributes6expand20IdentAndTypesRenamerEB12_, symObjAddr: 0x93E0, symBinAddr: 0xA038, symSize: 0x100 }
  - { offset: 0x5C19, size: 0x8, addend: 0x0, symName: __RINvNtNtCsc29TF2YcYso_3syn3gen9visit_mut20visit_expr_paren_mutNtNtCsemR3zGJppC3_18tracing_attributes6expand15ImplTraitEraserEB12_, symObjAddr: 0x94E0, symBinAddr: 0xA138, symSize: 0xA0 }
  - { offset: 0x5C5B, size: 0x8, addend: 0x0, symName: __RINvNtNtCsc29TF2YcYso_3syn3gen9visit_mut20visit_expr_paren_mutNtNtCsemR3zGJppC3_18tracing_attributes6expand20IdentAndTypesRenamerEB12_, symObjAddr: 0x9580, symBinAddr: 0xA1D8, symSize: 0xA0 }
  - { offset: 0x5C9D, size: 0x8, addend: 0x0, symName: __RINvNtNtCsc29TF2YcYso_3syn3gen9visit_mut20visit_expr_range_mutNtNtCsemR3zGJppC3_18tracing_attributes6expand15ImplTraitEraserEB12_, symObjAddr: 0x9620, symBinAddr: 0xA278, symSize: 0x18C }
  - { offset: 0x5D0B, size: 0x8, addend: 0x0, symName: __RINvNtNtCsc29TF2YcYso_3syn3gen9visit_mut20visit_expr_range_mutNtNtCsemR3zGJppC3_18tracing_attributes6expand20IdentAndTypesRenamerEB12_, symObjAddr: 0x97AC, symBinAddr: 0xA404, symSize: 0x18C }
  - { offset: 0x5D79, size: 0x8, addend: 0x0, symName: __RINvNtNtCsc29TF2YcYso_3syn3gen9visit_mut20visit_expr_tuple_mutNtNtCsemR3zGJppC3_18tracing_attributes6expand15ImplTraitEraserEB12_, symObjAddr: 0x9938, symBinAddr: 0xA590, symSize: 0xD0 }
  - { offset: 0x5E16, size: 0x8, addend: 0x0, symName: __RINvNtNtCsc29TF2YcYso_3syn3gen9visit_mut20visit_expr_tuple_mutNtNtCsemR3zGJppC3_18tracing_attributes6expand20IdentAndTypesRenamerEB12_, symObjAddr: 0x9A08, symBinAddr: 0xA660, symSize: 0xD0 }
  - { offset: 0x5EB3, size: 0x8, addend: 0x0, symName: __RINvNtNtCsc29TF2YcYso_3syn3gen9visit_mut20visit_expr_unary_mutNtNtCsemR3zGJppC3_18tracing_attributes6expand15ImplTraitEraserEB12_, symObjAddr: 0x9AD8, symBinAddr: 0xA730, symSize: 0xB0 }
  - { offset: 0x5EF5, size: 0x8, addend: 0x0, symName: __RINvNtNtCsc29TF2YcYso_3syn3gen9visit_mut20visit_expr_unary_mutNtNtCsemR3zGJppC3_18tracing_attributes6expand20IdentAndTypesRenamerEB12_, symObjAddr: 0x9B88, symBinAddr: 0xA7E0, symSize: 0xB0 }
  - { offset: 0x5F37, size: 0x8, addend: 0x0, symName: __RINvNtNtCsc29TF2YcYso_3syn3gen9visit_mut20visit_expr_while_mutNtNtCsemR3zGJppC3_18tracing_attributes6expand15ImplTraitEraserEB12_, symObjAddr: 0x9C38, symBinAddr: 0xA890, symSize: 0xFC }
  - { offset: 0x5F97, size: 0x8, addend: 0x0, symName: __RINvNtNtCsc29TF2YcYso_3syn3gen9visit_mut20visit_expr_while_mutNtNtCsemR3zGJppC3_18tracing_attributes6expand20IdentAndTypesRenamerEB12_, symObjAddr: 0x9D34, symBinAddr: 0xA98C, symSize: 0xFC }
  - { offset: 0x5FF7, size: 0x8, addend: 0x0, symName: __RINvNtNtCsc29TF2YcYso_3syn3gen9visit_mut20visit_expr_yield_mutNtNtCsemR3zGJppC3_18tracing_attributes6expand15ImplTraitEraserEB12_, symObjAddr: 0x9E30, symBinAddr: 0xAA88, symSize: 0xDC }
  - { offset: 0x604F, size: 0x8, addend: 0x0, symName: __RINvNtNtCsc29TF2YcYso_3syn3gen9visit_mut20visit_expr_yield_mutNtNtCsemR3zGJppC3_18tracing_attributes6expand20IdentAndTypesRenamerEB12_, symObjAddr: 0x9F0C, symBinAddr: 0xAB64, symSize: 0xDC }
  - { offset: 0x60A7, size: 0x8, addend: 0x0, symName: __RINvNtNtCsc29TF2YcYso_3syn3gen9visit_mut20visit_item_const_mutNtNtCsemR3zGJppC3_18tracing_attributes6expand15ImplTraitEraserEB12_, symObjAddr: 0x9FE8, symBinAddr: 0xAC40, symSize: 0x12C }
  - { offset: 0x60E9, size: 0x8, addend: 0x0, symName: __RINvNtNtCsc29TF2YcYso_3syn3gen9visit_mut20visit_item_const_mutNtNtCsemR3zGJppC3_18tracing_attributes6expand20IdentAndTypesRenamerEB12_, symObjAddr: 0xA114, symBinAddr: 0xAD6C, symSize: 0x12C }
  - { offset: 0x612B, size: 0x8, addend: 0x0, symName: __RINvNtNtCsc29TF2YcYso_3syn3gen9visit_mut20visit_item_macro_mutNtNtCsemR3zGJppC3_18tracing_attributes6expand15ImplTraitEraserEB12_, symObjAddr: 0xA240, symBinAddr: 0xAE98, symSize: 0xA0 }
  - { offset: 0x618B, size: 0x8, addend: 0x0, symName: __RINvNtNtCsc29TF2YcYso_3syn3gen9visit_mut20visit_item_macro_mutNtNtCsemR3zGJppC3_18tracing_attributes6expand20IdentAndTypesRenamerEB12_, symObjAddr: 0xA2E0, symBinAddr: 0xAF38, symSize: 0xA0 }
  - { offset: 0x61EB, size: 0x8, addend: 0x0, symName: __RINvNtNtCsc29TF2YcYso_3syn3gen9visit_mut20visit_item_trait_mutNtNtCsemR3zGJppC3_18tracing_attributes6expand15ImplTraitEraserEB12_, symObjAddr: 0xA380, symBinAddr: 0xAFD8, symSize: 0x164 }
  - { offset: 0x62E0, size: 0x8, addend: 0x0, symName: __RINvNtNtCsc29TF2YcYso_3syn3gen9visit_mut20visit_item_trait_mutNtNtCsemR3zGJppC3_18tracing_attributes6expand20IdentAndTypesRenamerEB12_, symObjAddr: 0xA4E4, symBinAddr: 0xB13C, symSize: 0x164 }
  - { offset: 0x63D5, size: 0x8, addend: 0x0, symName: __RINvNtNtCsc29TF2YcYso_3syn3gen9visit_mut20visit_item_union_mutNtNtCsemR3zGJppC3_18tracing_attributes6expand15ImplTraitEraserEB12_, symObjAddr: 0xA648, symBinAddr: 0xB2A0, symSize: 0x80 }
  - { offset: 0x6417, size: 0x8, addend: 0x0, symName: __RINvNtNtCsc29TF2YcYso_3syn3gen9visit_mut20visit_item_union_mutNtNtCsemR3zGJppC3_18tracing_attributes6expand20IdentAndTypesRenamerEB12_, symObjAddr: 0xA6C8, symBinAddr: 0xB320, symSize: 0x80 }
  - { offset: 0x6459, size: 0x8, addend: 0x0, symName: __RINvNtNtCsc29TF2YcYso_3syn3gen9visit_mut20visit_local_init_mutNtNtCsemR3zGJppC3_18tracing_attributes6expand15ImplTraitEraserEB12_, symObjAddr: 0xA748, symBinAddr: 0xB3A0, symSize: 0x134 }
  - { offset: 0x64B1, size: 0x8, addend: 0x0, symName: __RINvNtNtCsc29TF2YcYso_3syn3gen9visit_mut20visit_local_init_mutNtNtCsemR3zGJppC3_18tracing_attributes6expand20IdentAndTypesRenamerEB12_, symObjAddr: 0xA87C, symBinAddr: 0xB4D4, symSize: 0x134 }
  - { offset: 0x6509, size: 0x8, addend: 0x0, symName: __RINvNtNtCsc29TF2YcYso_3syn3gen9visit_mut20visit_pat_struct_mutNtNtCsemR3zGJppC3_18tracing_attributes6expand15ImplTraitEraserEB12_, symObjAddr: 0xA9B0, symBinAddr: 0xB608, symSize: 0x184 }
  - { offset: 0x65E2, size: 0x8, addend: 0x0, symName: __RINvNtNtCsc29TF2YcYso_3syn3gen9visit_mut20visit_pat_struct_mutNtNtCsemR3zGJppC3_18tracing_attributes6expand20IdentAndTypesRenamerEB12_, symObjAddr: 0xAB34, symBinAddr: 0xB78C, symSize: 0x184 }
  - { offset: 0x66BB, size: 0x8, addend: 0x0, symName: __RINvNtNtCsc29TF2YcYso_3syn3gen9visit_mut20visit_stmt_macro_mutNtNtCsemR3zGJppC3_18tracing_attributes6expand15ImplTraitEraserEB12_, symObjAddr: 0xACB8, symBinAddr: 0xB910, symSize: 0x50 }
  - { offset: 0x66FD, size: 0x8, addend: 0x0, symName: __RINvNtNtCsc29TF2YcYso_3syn3gen9visit_mut20visit_stmt_macro_mutNtNtCsemR3zGJppC3_18tracing_attributes6expand20IdentAndTypesRenamerEB12_, symObjAddr: 0xAD08, symBinAddr: 0xB960, symSize: 0x50 }
  - { offset: 0x673F, size: 0x8, addend: 0x0, symName: __RINvNtNtCsc29TF2YcYso_3syn3gen9visit_mut20visit_trait_item_mutNtNtCsemR3zGJppC3_18tracing_attributes6expand15ImplTraitEraserEB12_, symObjAddr: 0xAD58, symBinAddr: 0xB9B0, symSize: 0x168 }
  - { offset: 0x680F, size: 0x8, addend: 0x0, symName: __RINvNtNtCsc29TF2YcYso_3syn3gen9visit_mut20visit_trait_item_mutNtNtCsemR3zGJppC3_18tracing_attributes6expand20IdentAndTypesRenamerEB12_, symObjAddr: 0xAEC0, symBinAddr: 0xBB18, symSize: 0x168 }
  - { offset: 0x68DF, size: 0x8, addend: 0x0, symName: __RINvNtNtCsc29TF2YcYso_3syn3gen9visit_mut20visit_type_array_mutNtNtCsemR3zGJppC3_18tracing_attributes6expand15ImplTraitEraserEB12_, symObjAddr: 0xB028, symBinAddr: 0xBC80, symSize: 0xA0 }
  - { offset: 0x6921, size: 0x8, addend: 0x0, symName: __RINvNtNtCsc29TF2YcYso_3syn3gen9visit_mut20visit_type_group_mutNtNtCsemR3zGJppC3_18tracing_attributes6expand15ImplTraitEraserEB12_, symObjAddr: 0xB0C8, symBinAddr: 0xBD20, symSize: 0x90 }
  - { offset: 0x6963, size: 0x8, addend: 0x0, symName: __RINvNtNtCsc29TF2YcYso_3syn3gen9visit_mut20visit_type_infer_mutNtNtCsemR3zGJppC3_18tracing_attributes6expand15ImplTraitEraserEB12_, symObjAddr: 0xB158, symBinAddr: 0xBDB0, symSize: 0x24 }
  - { offset: 0x69A5, size: 0x8, addend: 0x0, symName: __RINvNtNtCsc29TF2YcYso_3syn3gen9visit_mut20visit_type_macro_mutNtNtCsemR3zGJppC3_18tracing_attributes6expand15ImplTraitEraserEB12_, symObjAddr: 0xB17C, symBinAddr: 0xBDD4, symSize: 0x3C }
  - { offset: 0x69E7, size: 0x8, addend: 0x0, symName: __RINvNtNtCsc29TF2YcYso_3syn3gen9visit_mut20visit_type_never_mutNtNtCsemR3zGJppC3_18tracing_attributes6expand15ImplTraitEraserEB12_, symObjAddr: 0xB1B8, symBinAddr: 0xBE10, symSize: 0x24 }
  - { offset: 0x6A29, size: 0x8, addend: 0x0, symName: __RINvNtNtCsc29TF2YcYso_3syn3gen9visit_mut20visit_type_param_mutNtNtCsemR3zGJppC3_18tracing_attributes6expand15ImplTraitEraserEB12_, symObjAddr: 0xB1DC, symBinAddr: 0xBE34, symSize: 0x130 }
  - { offset: 0x6AE4, size: 0x8, addend: 0x0, symName: __RINvNtNtCsc29TF2YcYso_3syn3gen9visit_mut20visit_type_param_mutNtNtCsemR3zGJppC3_18tracing_attributes6expand20IdentAndTypesRenamerEB12_, symObjAddr: 0xB30C, symBinAddr: 0xBF64, symSize: 0x130 }
  - { offset: 0x6B9F, size: 0x8, addend: 0x0, symName: __RINvNtNtCsc29TF2YcYso_3syn3gen9visit_mut20visit_type_paren_mutNtNtCsemR3zGJppC3_18tracing_attributes6expand15ImplTraitEraserEB12_, symObjAddr: 0xB43C, symBinAddr: 0xC094, symSize: 0x90 }
  - { offset: 0x6BE1, size: 0x8, addend: 0x0, symName: __RINvNtNtCsc29TF2YcYso_3syn3gen9visit_mut20visit_type_slice_mutNtNtCsemR3zGJppC3_18tracing_attributes6expand15ImplTraitEraserEB12_, symObjAddr: 0xB4CC, symBinAddr: 0xC124, symSize: 0x90 }
  - { offset: 0x6C23, size: 0x8, addend: 0x0, symName: __RINvNtNtCsc29TF2YcYso_3syn3gen9visit_mut20visit_type_tuple_mutNtNtCsemR3zGJppC3_18tracing_attributes6expand15ImplTraitEraserEB12_, symObjAddr: 0xB55C, symBinAddr: 0xC1B4, symSize: 0xC8 }
  - { offset: 0x6CC0, size: 0x8, addend: 0x0, symName: __RINvNtNtCsc29TF2YcYso_3syn3gen9visit_mut20visit_use_rename_mutNtNtCsemR3zGJppC3_18tracing_attributes6expand15ImplTraitEraserEB12_, symObjAddr: 0xB624, symBinAddr: 0xC27C, symSize: 0x50 }
  - { offset: 0x6D02, size: 0x8, addend: 0x0, symName: __RINvNtNtCsc29TF2YcYso_3syn3gen9visit_mut20visit_use_rename_mutNtNtCsemR3zGJppC3_18tracing_attributes6expand20IdentAndTypesRenamerEB12_, symObjAddr: 0xB674, symBinAddr: 0xC2CC, symSize: 0x50 }
  - { offset: 0x6D44, size: 0x8, addend: 0x0, symName: __RINvNtNtCsc29TF2YcYso_3syn3gen9visit_mut20visit_visibility_mutNtNtCsemR3zGJppC3_18tracing_attributes6expand15ImplTraitEraserEB12_, symObjAddr: 0xB6C4, symBinAddr: 0xC31C, symSize: 0xC4 }
  - { offset: 0x6DA4, size: 0x8, addend: 0x0, symName: __RINvNtNtCsc29TF2YcYso_3syn3gen9visit_mut20visit_visibility_mutNtNtCsemR3zGJppC3_18tracing_attributes6expand20IdentAndTypesRenamerEB12_, symObjAddr: 0xB788, symBinAddr: 0xC3E0, symSize: 0xC4 }
  - { offset: 0x6E04, size: 0x8, addend: 0x0, symName: __RINvNtNtCsc29TF2YcYso_3syn3gen9visit_mut21visit_assoc_const_mutNtNtCsemR3zGJppC3_18tracing_attributes6expand15ImplTraitEraserEB13_, symObjAddr: 0xB84C, symBinAddr: 0xC4A4, symSize: 0xA4 }
  - { offset: 0x6E64, size: 0x8, addend: 0x0, symName: __RINvNtNtCsc29TF2YcYso_3syn3gen9visit_mut21visit_assoc_const_mutNtNtCsemR3zGJppC3_18tracing_attributes6expand20IdentAndTypesRenamerEB13_, symObjAddr: 0xB8F0, symBinAddr: 0xC548, symSize: 0xA4 }
  - { offset: 0x6EC4, size: 0x8, addend: 0x0, symName: __RINvNtNtCsc29TF2YcYso_3syn3gen9visit_mut21visit_bare_fn_arg_mutNtNtCsemR3zGJppC3_18tracing_attributes6expand15ImplTraitEraserEB13_, symObjAddr: 0xB994, symBinAddr: 0xC5EC, symSize: 0xA0 }
  - { offset: 0x6F24, size: 0x8, addend: 0x0, symName: __RINvNtNtCsc29TF2YcYso_3syn3gen9visit_mut21visit_const_param_mutNtNtCsemR3zGJppC3_18tracing_attributes6expand15ImplTraitEraserEB13_, symObjAddr: 0xBA34, symBinAddr: 0xC68C, symSize: 0xB0 }
  - { offset: 0x6F84, size: 0x8, addend: 0x0, symName: __RINvNtNtCsc29TF2YcYso_3syn3gen9visit_mut21visit_const_param_mutNtNtCsemR3zGJppC3_18tracing_attributes6expand20IdentAndTypesRenamerEB13_, symObjAddr: 0xBAE4, symBinAddr: 0xC73C, symSize: 0xB0 }
  - { offset: 0x6FE4, size: 0x8, addend: 0x0, symName: __RINvNtNtCsc29TF2YcYso_3syn3gen9visit_mut21visit_expr_assign_mutNtNtCsemR3zGJppC3_18tracing_attributes6expand15ImplTraitEraserEB13_, symObjAddr: 0xBB94, symBinAddr: 0xC7EC, symSize: 0xFC }
  - { offset: 0x7026, size: 0x8, addend: 0x0, symName: __RINvNtNtCsc29TF2YcYso_3syn3gen9visit_mut21visit_expr_assign_mutNtNtCsemR3zGJppC3_18tracing_attributes6expand20IdentAndTypesRenamerEB13_, symObjAddr: 0xBC90, symBinAddr: 0xC8E8, symSize: 0xFC }
  - { offset: 0x7068, size: 0x8, addend: 0x0, symName: __RINvNtNtCsc29TF2YcYso_3syn3gen9visit_mut21visit_expr_binary_mutNtNtCsemR3zGJppC3_18tracing_attributes6expand15ImplTraitEraserEB13_, symObjAddr: 0xBD8C, symBinAddr: 0xC9E4, symSize: 0x10C }
  - { offset: 0x70AA, size: 0x8, addend: 0x0, symName: __RINvNtNtCsc29TF2YcYso_3syn3gen9visit_mut21visit_expr_binary_mutNtNtCsemR3zGJppC3_18tracing_attributes6expand20IdentAndTypesRenamerEB13_, symObjAddr: 0xBE98, symBinAddr: 0xCAF0, symSize: 0x10C }
  - { offset: 0x70EC, size: 0x8, addend: 0x0, symName: __RINvNtNtCsc29TF2YcYso_3syn3gen9visit_mut21visit_expr_repeat_mutNtNtCsemR3zGJppC3_18tracing_attributes6expand15ImplTraitEraserEB13_, symObjAddr: 0xBFA4, symBinAddr: 0xCBFC, symSize: 0xFC }
  - { offset: 0x712E, size: 0x8, addend: 0x0, symName: __RINvNtNtCsc29TF2YcYso_3syn3gen9visit_mut21visit_expr_repeat_mutNtNtCsemR3zGJppC3_18tracing_attributes6expand20IdentAndTypesRenamerEB13_, symObjAddr: 0xC0A0, symBinAddr: 0xCCF8, symSize: 0xFC }
  - { offset: 0x7170, size: 0x8, addend: 0x0, symName: __RINvNtNtCsc29TF2YcYso_3syn3gen9visit_mut21visit_expr_return_mutNtNtCsemR3zGJppC3_18tracing_attributes6expand15ImplTraitEraserEB13_, symObjAddr: 0xC19C, symBinAddr: 0xCDF4, symSize: 0xDC }
  - { offset: 0x71C8, size: 0x8, addend: 0x0, symName: __RINvNtNtCsc29TF2YcYso_3syn3gen9visit_mut21visit_expr_return_mutNtNtCsemR3zGJppC3_18tracing_attributes6expand20IdentAndTypesRenamerEB13_, symObjAddr: 0xC278, symBinAddr: 0xCED0, symSize: 0xDC }
  - { offset: 0x7220, size: 0x8, addend: 0x0, symName: __RINvNtNtCsc29TF2YcYso_3syn3gen9visit_mut21visit_expr_struct_mutNtNtCsemR3zGJppC3_18tracing_attributes6expand15ImplTraitEraserEB13_, symObjAddr: 0xC354, symBinAddr: 0xCFAC, symSize: 0x1D0 }
  - { offset: 0x72F1, size: 0x8, addend: 0x0, symName: __RINvNtNtCsc29TF2YcYso_3syn3gen9visit_mut21visit_expr_struct_mutNtNtCsemR3zGJppC3_18tracing_attributes6expand20IdentAndTypesRenamerEB13_, symObjAddr: 0xC524, symBinAddr: 0xD17C, symSize: 0x1D0 }
  - { offset: 0x73C2, size: 0x8, addend: 0x0, symName: __RINvNtNtCsc29TF2YcYso_3syn3gen9visit_mut21visit_expr_unsafe_mutNtNtCsemR3zGJppC3_18tracing_attributes6expand15ImplTraitEraserEB13_, symObjAddr: 0xC6F4, symBinAddr: 0xD34C, symSize: 0x50 }
  - { offset: 0x7404, size: 0x8, addend: 0x0, symName: __RINvNtNtCsc29TF2YcYso_3syn3gen9visit_mut21visit_expr_unsafe_mutNtNtCsemR3zGJppC3_18tracing_attributes6expand20IdentAndTypesRenamerEB13_, symObjAddr: 0xC744, symBinAddr: 0xD39C, symSize: 0x50 }
  - { offset: 0x7446, size: 0x8, addend: 0x0, symName: __RINvNtNtCsc29TF2YcYso_3syn3gen9visit_mut21visit_field_value_mutNtNtCsemR3zGJppC3_18tracing_attributes6expand15ImplTraitEraserEB13_, symObjAddr: 0xC794, symBinAddr: 0xD3EC, symSize: 0x60 }
  - { offset: 0x7488, size: 0x8, addend: 0x0, symName: __RINvNtNtCsc29TF2YcYso_3syn3gen9visit_mut21visit_field_value_mutNtNtCsemR3zGJppC3_18tracing_attributes6expand20IdentAndTypesRenamerEB13_, symObjAddr: 0xC7F4, symBinAddr: 0xD44C, symSize: 0x60 }
  - { offset: 0x74CA, size: 0x8, addend: 0x0, symName: __RINvNtNtCsc29TF2YcYso_3syn3gen9visit_mut21visit_item_static_mutNtNtCsemR3zGJppC3_18tracing_attributes6expand15ImplTraitEraserEB13_, symObjAddr: 0xC854, symBinAddr: 0xD4AC, symSize: 0x12C }
  - { offset: 0x750C, size: 0x8, addend: 0x0, symName: __RINvNtNtCsc29TF2YcYso_3syn3gen9visit_mut21visit_item_static_mutNtNtCsemR3zGJppC3_18tracing_attributes6expand20IdentAndTypesRenamerEB13_, symObjAddr: 0xC980, symBinAddr: 0xD5D8, symSize: 0x12C }
  - { offset: 0x754E, size: 0x8, addend: 0x0, symName: __RINvNtNtCsc29TF2YcYso_3syn3gen9visit_mut21visit_item_struct_mutNtNtCsemR3zGJppC3_18tracing_attributes6expand15ImplTraitEraserEB13_, symObjAddr: 0xCAAC, symBinAddr: 0xD704, symSize: 0x80 }
  - { offset: 0x7590, size: 0x8, addend: 0x0, symName: __RINvNtNtCsc29TF2YcYso_3syn3gen9visit_mut21visit_item_struct_mutNtNtCsemR3zGJppC3_18tracing_attributes6expand20IdentAndTypesRenamerEB13_, symObjAddr: 0xCB2C, symBinAddr: 0xD784, symSize: 0x80 }
  - { offset: 0x75D2, size: 0x8, addend: 0x0, symName: __RINvNtNtCsc29TF2YcYso_3syn3gen9visit_mut21visit_return_type_mutNtNtCsemR3zGJppC3_18tracing_attributes6expand15ImplTraitEraserEB13_, symObjAddr: 0xCBAC, symBinAddr: 0xD804, symSize: 0xD8 }
  - { offset: 0x763A, size: 0x8, addend: 0x0, symName: __RINvNtNtCsc29TF2YcYso_3syn3gen9visit_mut21visit_return_type_mutNtNtCsemR3zGJppC3_18tracing_attributes6expand20IdentAndTypesRenamerEB13_, symObjAddr: 0xCC84, symBinAddr: 0xD8DC, symSize: 0xD8 }
  - { offset: 0x76A2, size: 0x8, addend: 0x0, symName: __RINvNtNtCsc29TF2YcYso_3syn3gen9visit_mut21visit_trait_bound_mutNtNtCsemR3zGJppC3_18tracing_attributes6expand15ImplTraitEraserEB13_, symObjAddr: 0xCD5C, symBinAddr: 0xD9B4, symSize: 0xA4 }
  - { offset: 0x7702, size: 0x8, addend: 0x0, symName: __RINvNtNtCsc29TF2YcYso_3syn3gen9visit_mut21visit_trait_bound_mutNtNtCsemR3zGJppC3_18tracing_attributes6expand20IdentAndTypesRenamerEB13_, symObjAddr: 0xCE00, symBinAddr: 0xDA58, symSize: 0xA4 }
  - { offset: 0x7762, size: 0x8, addend: 0x0, symName: __RINvNtNtCsc29TF2YcYso_3syn3gen9visit_mut22visit_expr_closure_mutNtNtCsemR3zGJppC3_18tracing_attributes6expand15ImplTraitEraserEB14_, symObjAddr: 0xCEA4, symBinAddr: 0xDAFC, symSize: 0x190 }
  - { offset: 0x781D, size: 0x8, addend: 0x0, symName: __RINvNtNtCsc29TF2YcYso_3syn3gen9visit_mut22visit_expr_closure_mutNtNtCsemR3zGJppC3_18tracing_attributes6expand20IdentAndTypesRenamerEB14_, symObjAddr: 0xD034, symBinAddr: 0xDC8C, symSize: 0x190 }
  - { offset: 0x78D8, size: 0x8, addend: 0x0, symName: __RINvNtNtCsc29TF2YcYso_3syn3gen9visit_mut22visit_fields_named_mutNtNtCsemR3zGJppC3_18tracing_attributes6expand15ImplTraitEraserEB14_, symObjAddr: 0xD1C4, symBinAddr: 0xDE1C, symSize: 0xC8 }
  - { offset: 0x7975, size: 0x8, addend: 0x0, symName: __RINvNtNtCsc29TF2YcYso_3syn3gen9visit_mut22visit_fields_named_mutNtNtCsemR3zGJppC3_18tracing_attributes6expand20IdentAndTypesRenamerEB14_, symObjAddr: 0xD28C, symBinAddr: 0xDEE4, symSize: 0xC8 }
  - { offset: 0x7A12, size: 0x8, addend: 0x0, symName: __RINvNtNtCsc29TF2YcYso_3syn3gen9visit_mut22visit_foreign_item_mutNtNtCsemR3zGJppC3_18tracing_attributes6expand15ImplTraitEraserEB14_, symObjAddr: 0xD354, symBinAddr: 0xDFAC, symSize: 0x168 }
  - { offset: 0x7AE2, size: 0x8, addend: 0x0, symName: __RINvNtNtCsc29TF2YcYso_3syn3gen9visit_mut22visit_foreign_item_mutNtNtCsemR3zGJppC3_18tracing_attributes6expand20IdentAndTypesRenamerEB14_, symObjAddr: 0xD4BC, symBinAddr: 0xE114, symSize: 0x168 }
  - { offset: 0x7BB2, size: 0x8, addend: 0x0, symName: __RINvNtNtCsc29TF2YcYso_3syn3gen9visit_mut22visit_impl_item_fn_mutNtNtCsemR3zGJppC3_18tracing_attributes6expand15ImplTraitEraserEB14_, symObjAddr: 0xD624, symBinAddr: 0xE27C, symSize: 0x70 }
  - { offset: 0x7BF4, size: 0x8, addend: 0x0, symName: __RINvNtNtCsc29TF2YcYso_3syn3gen9visit_mut22visit_impl_item_fn_mutNtNtCsemR3zGJppC3_18tracing_attributes6expand20IdentAndTypesRenamerEB14_, symObjAddr: 0xD694, symBinAddr: 0xE2EC, symSize: 0x70 }
  - { offset: 0x7C36, size: 0x8, addend: 0x0, symName: __RINvNtNtCsc29TF2YcYso_3syn3gen9visit_mut22visit_lit_byte_str_mutNtNtCsemR3zGJppC3_18tracing_attributes6expand15ImplTraitEraserEB14_, symObjAddr: 0xD704, symBinAddr: 0xE35C, symSize: 0x24 }
  - { offset: 0x7C78, size: 0x8, addend: 0x0, symName: __RINvNtNtCsc29TF2YcYso_3syn3gen9visit_mut22visit_lit_byte_str_mutNtNtCsemR3zGJppC3_18tracing_attributes6expand20IdentAndTypesRenamerEB14_, symObjAddr: 0xD728, symBinAddr: 0xE380, symSize: 0x24 }
  - { offset: 0x7CBA, size: 0x8, addend: 0x0, symName: __RINvNtNtCsc29TF2YcYso_3syn3gen9visit_mut22visit_path_segment_mutNtNtCsemR3zGJppC3_18tracing_attributes6expand15ImplTraitEraserEB14_, symObjAddr: 0xD74C, symBinAddr: 0xE3A4, symSize: 0x50 }
  - { offset: 0x7CFC, size: 0x8, addend: 0x0, symName: __RINvNtNtCsc29TF2YcYso_3syn3gen9visit_mut22visit_path_segment_mutNtNtCsemR3zGJppC3_18tracing_attributes6expand20IdentAndTypesRenamerEB14_, symObjAddr: 0xD79C, symBinAddr: 0xE3F4, symSize: 0x50 }
  - { offset: 0x7D3E, size: 0x8, addend: 0x0, symName: __RINvNtNtCsc29TF2YcYso_3syn3gen9visit_mut22visit_range_limits_mutNtNtCsemR3zGJppC3_18tracing_attributes6expand15ImplTraitEraserEB14_, symObjAddr: 0xD7EC, symBinAddr: 0xE444, symSize: 0x74 }
  - { offset: 0x7D80, size: 0x8, addend: 0x0, symName: __RINvNtNtCsc29TF2YcYso_3syn3gen9visit_mut22visit_range_limits_mutNtNtCsemR3zGJppC3_18tracing_attributes6expand20IdentAndTypesRenamerEB14_, symObjAddr: 0xD860, symBinAddr: 0xE4B8, symSize: 0x74 }
  - { offset: 0x7DC2, size: 0x8, addend: 0x0, symName: __RINvNtNtCsc29TF2YcYso_3syn3gen9visit_mut22visit_type_bare_fn_mutNtNtCsemR3zGJppC3_18tracing_attributes6expand15ImplTraitEraserEB14_, symObjAddr: 0xD8D4, symBinAddr: 0xE52C, symSize: 0x1C0 }
  - { offset: 0x7EB9, size: 0x8, addend: 0x0, symName: __RINvNtNtCsc29TF2YcYso_3syn3gen9visit_mut22visit_where_clause_mutNtNtCsemR3zGJppC3_18tracing_attributes6expand15ImplTraitEraserEB14_, symObjAddr: 0xDA94, symBinAddr: 0xE6EC, symSize: 0xC8 }
  - { offset: 0x7F56, size: 0x8, addend: 0x0, symName: __RINvNtNtCsc29TF2YcYso_3syn3gen9visit_mut22visit_where_clause_mutNtNtCsemR3zGJppC3_18tracing_attributes6expand20IdentAndTypesRenamerEB14_, symObjAddr: 0xDB5C, symBinAddr: 0xE7B4, symSize: 0xC8 }
  - { offset: 0x7FF3, size: 0x8, addend: 0x0, symName: __RINvNtNtCsc29TF2YcYso_3syn3gen9visit_mut23visit_bare_variadic_mutNtNtCsemR3zGJppC3_18tracing_attributes6expand15ImplTraitEraserEB15_, symObjAddr: 0xDC24, symBinAddr: 0xE87C, symSize: 0x90 }
  - { offset: 0x8053, size: 0x8, addend: 0x0, symName: __RINvNtNtCsc29TF2YcYso_3syn3gen9visit_mut23visit_expr_continue_mutNtNtCsemR3zGJppC3_18tracing_attributes6expand15ImplTraitEraserEB15_, symObjAddr: 0xDCB4, symBinAddr: 0xE90C, symSize: 0x90 }
  - { offset: 0x80B3, size: 0x8, addend: 0x0, symName: __RINvNtNtCsc29TF2YcYso_3syn3gen9visit_mut23visit_expr_continue_mutNtNtCsemR3zGJppC3_18tracing_attributes6expand20IdentAndTypesRenamerEB15_, symObjAddr: 0xDD44, symBinAddr: 0xE99C, symSize: 0x90 }
  - { offset: 0x8113, size: 0x8, addend: 0x0, symName: __RINvNtNtCsc29TF2YcYso_3syn3gen9visit_mut23visit_expr_for_loop_mutNtNtCsemR3zGJppC3_18tracing_attributes6expand15ImplTraitEraserEB15_, symObjAddr: 0xDDD4, symBinAddr: 0xEA2C, symSize: 0x158 }
  - { offset: 0x8173, size: 0x8, addend: 0x0, symName: __RINvNtNtCsc29TF2YcYso_3syn3gen9visit_mut23visit_expr_for_loop_mutNtNtCsemR3zGJppC3_18tracing_attributes6expand20IdentAndTypesRenamerEB15_, symObjAddr: 0xDF2C, symBinAddr: 0xEB84, symSize: 0x158 }
  - { offset: 0x81D3, size: 0x8, addend: 0x0, symName: __RINvNtNtCsc29TF2YcYso_3syn3gen9visit_mut23visit_expr_raw_addr_mutNtNtCsemR3zGJppC3_18tracing_attributes6expand15ImplTraitEraserEB15_, symObjAddr: 0xE084, symBinAddr: 0xECDC, symSize: 0xB0 }
  - { offset: 0x8215, size: 0x8, addend: 0x0, symName: __RINvNtNtCsc29TF2YcYso_3syn3gen9visit_mut23visit_expr_raw_addr_mutNtNtCsemR3zGJppC3_18tracing_attributes6expand20IdentAndTypesRenamerEB15_, symObjAddr: 0xE134, symBinAddr: 0xED8C, symSize: 0xB0 }
  - { offset: 0x8257, size: 0x8, addend: 0x0, symName: __RINvNtNtCsc29TF2YcYso_3syn3gen9visit_mut23visit_generic_param_mutNtNtCsemR3zGJppC3_18tracing_attributes6expand15ImplTraitEraserEB15_, symObjAddr: 0xE1E4, symBinAddr: 0xEE3C, symSize: 0xE8 }
  - { offset: 0x82EB, size: 0x8, addend: 0x0, symName: __RINvNtNtCsc29TF2YcYso_3syn3gen9visit_mut23visit_generic_param_mutNtNtCsemR3zGJppC3_18tracing_attributes6expand20IdentAndTypesRenamerEB15_, symObjAddr: 0xE2CC, symBinAddr: 0xEF24, symSize: 0xE8 }
  - { offset: 0x837F, size: 0x8, addend: 0x0, symName: __RINvNtNtCsc29TF2YcYso_3syn3gen9visit_mut23visit_pat_reference_mutNtNtCsemR3zGJppC3_18tracing_attributes6expand15ImplTraitEraserEB15_, symObjAddr: 0xE3B4, symBinAddr: 0xF00C, symSize: 0xA0 }
  - { offset: 0x83C1, size: 0x8, addend: 0x0, symName: __RINvNtNtCsc29TF2YcYso_3syn3gen9visit_mut23visit_pat_reference_mutNtNtCsemR3zGJppC3_18tracing_attributes6expand20IdentAndTypesRenamerEB15_, symObjAddr: 0xE454, symBinAddr: 0xF0AC, symSize: 0xA0 }
  - { offset: 0x8403, size: 0x8, addend: 0x0, symName: __RINvNtNtCsc29TF2YcYso_3syn3gen9visit_mut23visit_trait_item_fn_mutNtNtCsemR3zGJppC3_18tracing_attributes6expand15ImplTraitEraserEB15_, symObjAddr: 0xE4F4, symBinAddr: 0xF14C, symSize: 0xA4 }
  - { offset: 0x8463, size: 0x8, addend: 0x0, symName: __RINvNtNtCsc29TF2YcYso_3syn3gen9visit_mut23visit_trait_item_fn_mutNtNtCsemR3zGJppC3_18tracing_attributes6expand20IdentAndTypesRenamerEB15_, symObjAddr: 0xE598, symBinAddr: 0xF1F0, symSize: 0xA4 }
  - { offset: 0x84C3, size: 0x8, addend: 0x0, symName: __RINvNtNtCsc29TF2YcYso_3syn3gen9visit_mut24visit_captured_param_mutNtNtCsemR3zGJppC3_18tracing_attributes6expand15ImplTraitEraserEB16_, symObjAddr: 0xE63C, symBinAddr: 0xF294, symSize: 0x94 }
  - { offset: 0x8539, size: 0x8, addend: 0x0, symName: __RINvNtNtCsc29TF2YcYso_3syn3gen9visit_mut24visit_captured_param_mutNtNtCsemR3zGJppC3_18tracing_attributes6expand20IdentAndTypesRenamerEB16_, symObjAddr: 0xE6D0, symBinAddr: 0xF328, symSize: 0x94 }
  - { offset: 0x85AF, size: 0x8, addend: 0x0, symName: __RINvNtNtCsc29TF2YcYso_3syn3gen9visit_mut24visit_expr_reference_mutNtNtCsemR3zGJppC3_18tracing_attributes6expand15ImplTraitEraserEB16_, symObjAddr: 0xE764, symBinAddr: 0xF3BC, symSize: 0xA0 }
  - { offset: 0x85F1, size: 0x8, addend: 0x0, symName: __RINvNtNtCsc29TF2YcYso_3syn3gen9visit_mut24visit_expr_reference_mutNtNtCsemR3zGJppC3_18tracing_attributes6expand20IdentAndTypesRenamerEB16_, symObjAddr: 0xE804, symBinAddr: 0xF45C, symSize: 0xA0 }
  - { offset: 0x8633, size: 0x8, addend: 0x0, symName: __RINvNtNtCsc29TF2YcYso_3syn3gen9visit_mut24visit_expr_try_block_mutNtNtCsemR3zGJppC3_18tracing_attributes6expand15ImplTraitEraserEB16_, symObjAddr: 0xE8A4, symBinAddr: 0xF4FC, symSize: 0x50 }
  - { offset: 0x8675, size: 0x8, addend: 0x0, symName: __RINvNtNtCsc29TF2YcYso_3syn3gen9visit_mut24visit_expr_try_block_mutNtNtCsemR3zGJppC3_18tracing_attributes6expand20IdentAndTypesRenamerEB16_, symObjAddr: 0xE8F4, symBinAddr: 0xF54C, symSize: 0x50 }
  - { offset: 0x86B7, size: 0x8, addend: 0x0, symName: __RINvNtNtCsc29TF2YcYso_3syn3gen9visit_mut24visit_fields_unnamed_mutNtNtCsemR3zGJppC3_18tracing_attributes6expand15ImplTraitEraserEB16_, symObjAddr: 0xE944, symBinAddr: 0xF59C, symSize: 0xC8 }
  - { offset: 0x8754, size: 0x8, addend: 0x0, symName: __RINvNtNtCsc29TF2YcYso_3syn3gen9visit_mut24visit_fields_unnamed_mutNtNtCsemR3zGJppC3_18tracing_attributes6expand20IdentAndTypesRenamerEB16_, symObjAddr: 0xEA0C, symBinAddr: 0xF664, symSize: 0xC8 }
  - { offset: 0x87F1, size: 0x8, addend: 0x0, symName: __RINvNtNtCsc29TF2YcYso_3syn3gen9visit_mut24visit_impl_item_type_mutNtNtCsemR3zGJppC3_18tracing_attributes6expand15ImplTraitEraserEB16_, symObjAddr: 0xEAD4, symBinAddr: 0xF72C, symSize: 0x80 }
  - { offset: 0x8833, size: 0x8, addend: 0x0, symName: __RINvNtNtCsc29TF2YcYso_3syn3gen9visit_mut24visit_impl_item_type_mutNtNtCsemR3zGJppC3_18tracing_attributes6expand20IdentAndTypesRenamerEB16_, symObjAddr: 0xEB54, symBinAddr: 0xF7AC, symSize: 0x80 }
  - { offset: 0x8875, size: 0x8, addend: 0x0, symName: __RINvNtNtCsc29TF2YcYso_3syn3gen9visit_mut24visit_lifetime_param_mutNtNtCsemR3zGJppC3_18tracing_attributes6expand15ImplTraitEraserEB16_, symObjAddr: 0xEBD4, symBinAddr: 0xF82C, symSize: 0xE0 }
  - { offset: 0x8912, size: 0x8, addend: 0x0, symName: __RINvNtNtCsc29TF2YcYso_3syn3gen9visit_mut24visit_lifetime_param_mutNtNtCsemR3zGJppC3_18tracing_attributes6expand20IdentAndTypesRenamerEB16_, symObjAddr: 0xECB4, symBinAddr: 0xF90C, symSize: 0xE0 }
  - { offset: 0x89AF, size: 0x8, addend: 0x0, symName: __RINvNtNtCsc29TF2YcYso_3syn3gen9visit_mut24visit_path_arguments_mutNtNtCsemR3zGJppC3_18tracing_attributes6expand15ImplTraitEraserEB16_, symObjAddr: 0xED94, symBinAddr: 0xF9EC, symSize: 0xD4 }
  - { offset: 0x8A25, size: 0x8, addend: 0x0, symName: __RINvNtNtCsc29TF2YcYso_3syn3gen9visit_mut24visit_path_arguments_mutNtNtCsemR3zGJppC3_18tracing_attributes6expand20IdentAndTypesRenamerEB16_, symObjAddr: 0xEE68, symBinAddr: 0xFAC0, symSize: 0xD4 }
  - { offset: 0x8A9B, size: 0x8, addend: 0x0, symName: __RINvNtNtCsc29TF2YcYso_3syn3gen9visit_mut24visit_predicate_type_mutNtNtCsemR3zGJppC3_18tracing_attributes6expand15ImplTraitEraserEB16_, symObjAddr: 0xEF3C, symBinAddr: 0xFB94, symSize: 0x124 }
  - { offset: 0x8B56, size: 0x8, addend: 0x0, symName: __RINvNtNtCsc29TF2YcYso_3syn3gen9visit_mut24visit_predicate_type_mutNtNtCsemR3zGJppC3_18tracing_attributes6expand20IdentAndTypesRenamerEB16_, symObjAddr: 0xF060, symBinAddr: 0xFCB8, symSize: 0x124 }
  - { offset: 0x8C11, size: 0x8, addend: 0x0, symName: __RINvNtNtCsc29TF2YcYso_3syn3gen9visit_mut24visit_type_reference_mutNtNtCsemR3zGJppC3_18tracing_attributes6expand15ImplTraitEraserEB16_, symObjAddr: 0xF184, symBinAddr: 0xFDDC, symSize: 0xE0 }
  - { offset: 0x8C71, size: 0x8, addend: 0x0, symName: __RINvNtNtCsc29TF2YcYso_3syn3gen9visit_mut24visit_vis_restricted_mutNtNtCsemR3zGJppC3_18tracing_attributes6expand15ImplTraitEraserEB16_, symObjAddr: 0xF264, symBinAddr: 0xFEBC, symSize: 0x90 }
  - { offset: 0x8CB3, size: 0x8, addend: 0x0, symName: __RINvNtNtCsc29TF2YcYso_3syn3gen9visit_mut24visit_vis_restricted_mutNtNtCsemR3zGJppC3_18tracing_attributes6expand20IdentAndTypesRenamerEB16_, symObjAddr: 0xF2F4, symBinAddr: 0xFF4C, symSize: 0x90 }
  - { offset: 0x8CF5, size: 0x8, addend: 0x0, symName: __RINvNtNtCsc29TF2YcYso_3syn3gen9visit_mut25visit_bound_lifetimes_mutNtNtCsemR3zGJppC3_18tracing_attributes6expand15ImplTraitEraserEB17_, symObjAddr: 0xF384, symBinAddr: 0xFFDC, symSize: 0xC8 }
  - { offset: 0x8D92, size: 0x8, addend: 0x0, symName: __RINvNtNtCsc29TF2YcYso_3syn3gen9visit_mut25visit_bound_lifetimes_mutNtNtCsemR3zGJppC3_18tracing_attributes6expand20IdentAndTypesRenamerEB17_, symObjAddr: 0xF44C, symBinAddr: 0x100A4, symSize: 0xC8 }
  - { offset: 0x8E2F, size: 0x8, addend: 0x0, symName: __RINvNtNtCsc29TF2YcYso_3syn3gen9visit_mut25visit_foreign_item_fn_mutNtNtCsemR3zGJppC3_18tracing_attributes6expand15ImplTraitEraserEB17_, symObjAddr: 0xF514, symBinAddr: 0x1016C, symSize: 0x60 }
  - { offset: 0x8E71, size: 0x8, addend: 0x0, symName: __RINvNtNtCsc29TF2YcYso_3syn3gen9visit_mut25visit_foreign_item_fn_mutNtNtCsemR3zGJppC3_18tracing_attributes6expand20IdentAndTypesRenamerEB17_, symObjAddr: 0xF574, symBinAddr: 0x101CC, symSize: 0x60 }
  - { offset: 0x8EB3, size: 0x8, addend: 0x0, symName: __RINvNtNtCsc29TF2YcYso_3syn3gen9visit_mut25visit_impl_item_const_mutNtNtCsemR3zGJppC3_18tracing_attributes6expand15ImplTraitEraserEB17_, symObjAddr: 0xF5D4, symBinAddr: 0x1022C, symSize: 0x90 }
  - { offset: 0x8EF5, size: 0x8, addend: 0x0, symName: __RINvNtNtCsc29TF2YcYso_3syn3gen9visit_mut25visit_impl_item_const_mutNtNtCsemR3zGJppC3_18tracing_attributes6expand20IdentAndTypesRenamerEB17_, symObjAddr: 0xF664, symBinAddr: 0x102BC, symSize: 0x90 }
  - { offset: 0x8F37, size: 0x8, addend: 0x0, symName: __RINvNtNtCsc29TF2YcYso_3syn3gen9visit_mut25visit_impl_item_macro_mutNtNtCsemR3zGJppC3_18tracing_attributes6expand15ImplTraitEraserEB17_, symObjAddr: 0xF6F4, symBinAddr: 0x1034C, symSize: 0x50 }
  - { offset: 0x8F79, size: 0x8, addend: 0x0, symName: __RINvNtNtCsc29TF2YcYso_3syn3gen9visit_mut25visit_impl_item_macro_mutNtNtCsemR3zGJppC3_18tracing_attributes6expand20IdentAndTypesRenamerEB17_, symObjAddr: 0xF744, symBinAddr: 0x1039C, symSize: 0x50 }
  - { offset: 0x8FBB, size: 0x8, addend: 0x0, symName: __RINvNtNtCsc29TF2YcYso_3syn3gen9visit_mut25visit_macro_delimiter_mutNtNtCsemR3zGJppC3_18tracing_attributes6expand15ImplTraitEraserEB17_, symObjAddr: 0xF794, symBinAddr: 0x103EC, symSize: 0xA8 }
  - { offset: 0x8FFD, size: 0x8, addend: 0x0, symName: __RINvNtNtCsc29TF2YcYso_3syn3gen9visit_mut25visit_macro_delimiter_mutNtNtCsemR3zGJppC3_18tracing_attributes6expand20IdentAndTypesRenamerEB17_, symObjAddr: 0xF83C, symBinAddr: 0x10494, symSize: 0xA8 }
  - { offset: 0x903F, size: 0x8, addend: 0x0, symName: __RINvNtNtCsc29TF2YcYso_3syn3gen9visit_mut25visit_meta_name_value_mutNtNtCsemR3zGJppC3_18tracing_attributes6expand15ImplTraitEraserEB17_, symObjAddr: 0xF8E4, symBinAddr: 0x1053C, symSize: 0x50 }
  - { offset: 0x9081, size: 0x8, addend: 0x0, symName: __RINvNtNtCsc29TF2YcYso_3syn3gen9visit_mut25visit_meta_name_value_mutNtNtCsemR3zGJppC3_18tracing_attributes6expand20IdentAndTypesRenamerEB17_, symObjAddr: 0xF934, symBinAddr: 0x1058C, symSize: 0x50 }
  - { offset: 0x90C3, size: 0x8, addend: 0x0, symName: __RINvNtNtCsc29TF2YcYso_3syn3gen9visit_mut25visit_precise_capture_mutNtNtCsemR3zGJppC3_18tracing_attributes6expand15ImplTraitEraserEB17_, symObjAddr: 0xF984, symBinAddr: 0x105DC, symSize: 0xC8 }
  - { offset: 0x9160, size: 0x8, addend: 0x0, symName: __RINvNtNtCsc29TF2YcYso_3syn3gen9visit_mut25visit_precise_capture_mutNtNtCsemR3zGJppC3_18tracing_attributes6expand20IdentAndTypesRenamerEB17_, symObjAddr: 0xFA4C, symBinAddr: 0x106A4, symSize: 0xC8 }
  - { offset: 0x91FD, size: 0x8, addend: 0x0, symName: __RINvNtNtCsc29TF2YcYso_3syn3gen9visit_mut25visit_trait_item_type_mutNtNtCsemR3zGJppC3_18tracing_attributes6expand15ImplTraitEraserEB17_, symObjAddr: 0xFB14, symBinAddr: 0x1076C, symSize: 0x144 }
  - { offset: 0x92B8, size: 0x8, addend: 0x0, symName: __RINvNtNtCsc29TF2YcYso_3syn3gen9visit_mut25visit_trait_item_type_mutNtNtCsemR3zGJppC3_18tracing_attributes6expand20IdentAndTypesRenamerEB17_, symObjAddr: 0xFC58, symBinAddr: 0x108B0, symSize: 0x144 }
  - { offset: 0x9373, size: 0x8, addend: 0x0, symName: __RINvNtNtCsc29TF2YcYso_3syn3gen9visit_mut25visit_type_impl_trait_mutNtNtCsemR3zGJppC3_18tracing_attributes6expand15ImplTraitEraserEB17_, symObjAddr: 0xFD9C, symBinAddr: 0x109F4, symSize: 0xC8 }
  - { offset: 0x9410, size: 0x8, addend: 0x0, symName: __RINvNtNtCsc29TF2YcYso_3syn3gen9visit_mut25visit_where_predicate_mutNtNtCsemR3zGJppC3_18tracing_attributes6expand15ImplTraitEraserEB17_, symObjAddr: 0xFE64, symBinAddr: 0x10ABC, symSize: 0x98 }
  - { offset: 0x9486, size: 0x8, addend: 0x0, symName: __RINvNtNtCsc29TF2YcYso_3syn3gen9visit_mut25visit_where_predicate_mutNtNtCsemR3zGJppC3_18tracing_attributes6expand20IdentAndTypesRenamerEB17_, symObjAddr: 0xFEFC, symBinAddr: 0x10B54, symSize: 0x98 }
  - { offset: 0x94FC, size: 0x8, addend: 0x0, symName: __RINvNtNtCsc29TF2YcYso_3syn3gen9visit_mut26visit_expr_method_call_mutNtNtCsemR3zGJppC3_18tracing_attributes6expand15ImplTraitEraserEB18_, symObjAddr: 0xFF94, symBinAddr: 0x10BEC, symSize: 0x194 }
  - { offset: 0x95AF, size: 0x8, addend: 0x0, symName: __RINvNtNtCsc29TF2YcYso_3syn3gen9visit_mut26visit_expr_method_call_mutNtNtCsemR3zGJppC3_18tracing_attributes6expand20IdentAndTypesRenamerEB18_, symObjAddr: 0x10128, symBinAddr: 0x10D80, symSize: 0x194 }
  - { offset: 0x9662, size: 0x8, addend: 0x0, symName: __RINvNtNtCsc29TF2YcYso_3syn3gen9visit_mut26visit_field_mutability_mutNtNtCsemR3zGJppC3_18tracing_attributes6expand15ImplTraitEraserEB18_, symObjAddr: 0x102BC, symBinAddr: 0x10F14, symSize: 0x24 }
  - { offset: 0x96A4, size: 0x8, addend: 0x0, symName: __RINvNtNtCsc29TF2YcYso_3syn3gen9visit_mut26visit_field_mutability_mutNtNtCsemR3zGJppC3_18tracing_attributes6expand20IdentAndTypesRenamerEB18_, symObjAddr: 0x102E0, symBinAddr: 0x10F38, symSize: 0x24 }
  - { offset: 0x96E6, size: 0x8, addend: 0x0, symName: __RINvNtNtCsc29TF2YcYso_3syn3gen9visit_mut26visit_generic_argument_mutNtNtCsemR3zGJppC3_18tracing_attributes6expand15ImplTraitEraserEB18_, symObjAddr: 0x10304, symBinAddr: 0x10F5C, symSize: 0x1A8 }
  - { offset: 0x97D4, size: 0x8, addend: 0x0, symName: __RINvNtNtCsc29TF2YcYso_3syn3gen9visit_mut26visit_generic_argument_mutNtNtCsemR3zGJppC3_18tracing_attributes6expand20IdentAndTypesRenamerEB18_, symObjAddr: 0x104AC, symBinAddr: 0x11104, symSize: 0x1A8 }
  - { offset: 0x98C2, size: 0x8, addend: 0x0, symName: __RINvNtNtCsc29TF2YcYso_3syn3gen9visit_mut26visit_item_foreign_mod_mutNtNtCsemR3zGJppC3_18tracing_attributes6expand15ImplTraitEraserEB18_, symObjAddr: 0x10654, symBinAddr: 0x112AC, symSize: 0xB0 }
  - { offset: 0x9940, size: 0x8, addend: 0x0, symName: __RINvNtNtCsc29TF2YcYso_3syn3gen9visit_mut26visit_item_foreign_mod_mutNtNtCsemR3zGJppC3_18tracing_attributes6expand20IdentAndTypesRenamerEB18_, symObjAddr: 0x10704, symBinAddr: 0x1135C, symSize: 0xB0 }
  - { offset: 0x99BE, size: 0x8, addend: 0x0, symName: __RINvNtNtCsc29TF2YcYso_3syn3gen9visit_mut26visit_item_trait_alias_mutNtNtCsemR3zGJppC3_18tracing_attributes6expand15ImplTraitEraserEB18_, symObjAddr: 0x107B4, symBinAddr: 0x1140C, symSize: 0x100 }
  - { offset: 0x9A5B, size: 0x8, addend: 0x0, symName: __RINvNtNtCsc29TF2YcYso_3syn3gen9visit_mut26visit_item_trait_alias_mutNtNtCsemR3zGJppC3_18tracing_attributes6expand20IdentAndTypesRenamerEB18_, symObjAddr: 0x108B4, symBinAddr: 0x1150C, symSize: 0x100 }
  - { offset: 0x9AF8, size: 0x8, addend: 0x0, symName: __RINvNtNtCsc29TF2YcYso_3syn3gen9visit_mut26visit_pat_tuple_struct_mutNtNtCsemR3zGJppC3_18tracing_attributes6expand15ImplTraitEraserEB18_, symObjAddr: 0x109B4, symBinAddr: 0x1160C, symSize: 0x130 }
  - { offset: 0x9BB3, size: 0x8, addend: 0x0, symName: __RINvNtNtCsc29TF2YcYso_3syn3gen9visit_mut26visit_pat_tuple_struct_mutNtNtCsemR3zGJppC3_18tracing_attributes6expand20IdentAndTypesRenamerEB18_, symObjAddr: 0x10AE4, symBinAddr: 0x1173C, symSize: 0x130 }
  - { offset: 0x9C6E, size: 0x8, addend: 0x0, symName: __RINvNtNtCsc29TF2YcYso_3syn3gen9visit_mut26visit_trait_item_const_mutNtNtCsemR3zGJppC3_18tracing_attributes6expand15ImplTraitEraserEB18_, symObjAddr: 0x10C14, symBinAddr: 0x1186C, symSize: 0xC0 }
  - { offset: 0x9CCE, size: 0x8, addend: 0x0, symName: __RINvNtNtCsc29TF2YcYso_3syn3gen9visit_mut26visit_trait_item_const_mutNtNtCsemR3zGJppC3_18tracing_attributes6expand20IdentAndTypesRenamerEB18_, symObjAddr: 0x10CD4, symBinAddr: 0x1192C, symSize: 0xC0 }
  - { offset: 0x9D2E, size: 0x8, addend: 0x0, symName: __RINvNtNtCsc29TF2YcYso_3syn3gen9visit_mut26visit_trait_item_macro_mutNtNtCsemR3zGJppC3_18tracing_attributes6expand15ImplTraitEraserEB18_, symObjAddr: 0x10D94, symBinAddr: 0x119EC, symSize: 0x50 }
  - { offset: 0x9D70, size: 0x8, addend: 0x0, symName: __RINvNtNtCsc29TF2YcYso_3syn3gen9visit_mut26visit_trait_item_macro_mutNtNtCsemR3zGJppC3_18tracing_attributes6expand20IdentAndTypesRenamerEB18_, symObjAddr: 0x10DE4, symBinAddr: 0x11A3C, symSize: 0x50 }
  - { offset: 0x9DB2, size: 0x8, addend: 0x0, symName: __RINvNtNtCsc29TF2YcYso_3syn3gen9visit_mut26visit_type_param_bound_mutNtNtCsemR3zGJppC3_18tracing_attributes6expand15ImplTraitEraserEB18_, symObjAddr: 0x10E34, symBinAddr: 0x11A8C, symSize: 0x12C }
  - { offset: 0x9E64, size: 0x8, addend: 0x0, symName: __RINvNtNtCsc29TF2YcYso_3syn3gen9visit_mut26visit_type_param_bound_mutNtNtCsemR3zGJppC3_18tracing_attributes6expand20IdentAndTypesRenamerEB18_, symObjAddr: 0x10F60, symBinAddr: 0x11BB8, symSize: 0x12C }
  - { offset: 0x9F16, size: 0x8, addend: 0x0, symName: __RINvNtNtCsc29TF2YcYso_3syn3gen9visit_mut27visit_foreign_item_type_mutNtNtCsemR3zGJppC3_18tracing_attributes6expand15ImplTraitEraserEB19_, symObjAddr: 0x1108C, symBinAddr: 0x11CE4, symSize: 0x70 }
  - { offset: 0x9F58, size: 0x8, addend: 0x0, symName: __RINvNtNtCsc29TF2YcYso_3syn3gen9visit_mut27visit_foreign_item_type_mutNtNtCsemR3zGJppC3_18tracing_attributes6expand20IdentAndTypesRenamerEB19_, symObjAddr: 0x110FC, symBinAddr: 0x11D54, symSize: 0x70 }
  - { offset: 0x9F9A, size: 0x8, addend: 0x0, symName: __RINvNtNtCsc29TF2YcYso_3syn3gen9visit_mut27visit_item_extern_crate_mutNtNtCsemR3zGJppC3_18tracing_attributes6expand15ImplTraitEraserEB19_, symObjAddr: 0x1116C, symBinAddr: 0x11DC4, symSize: 0xB0 }
  - { offset: 0x9FFA, size: 0x8, addend: 0x0, symName: __RINvNtNtCsc29TF2YcYso_3syn3gen9visit_mut27visit_item_extern_crate_mutNtNtCsemR3zGJppC3_18tracing_attributes6expand20IdentAndTypesRenamerEB19_, symObjAddr: 0x1121C, symBinAddr: 0x11E74, symSize: 0xB0 }
  - { offset: 0xA05A, size: 0x8, addend: 0x0, symName: __RINvNtNtCsc29TF2YcYso_3syn3gen9visit_mut27visit_static_mutability_mutNtNtCsemR3zGJppC3_18tracing_attributes6expand15ImplTraitEraserEB19_, symObjAddr: 0x112CC, symBinAddr: 0x11F24, symSize: 0x68 }
  - { offset: 0xA09C, size: 0x8, addend: 0x0, symName: __RINvNtNtCsc29TF2YcYso_3syn3gen9visit_mut27visit_static_mutability_mutNtNtCsemR3zGJppC3_18tracing_attributes6expand20IdentAndTypesRenamerEB19_, symObjAddr: 0x11334, symBinAddr: 0x11F8C, symSize: 0x68 }
  - { offset: 0xA0DE, size: 0x8, addend: 0x0, symName: __RINvNtNtCsc29TF2YcYso_3syn3gen9visit_mut27visit_type_trait_object_mutNtNtCsemR3zGJppC3_18tracing_attributes6expand15ImplTraitEraserEB19_, symObjAddr: 0x1139C, symBinAddr: 0x11FF4, symSize: 0xC8 }
  - { offset: 0xA17B, size: 0x8, addend: 0x0, symName: __RINvNtNtCsc29TF2YcYso_3syn3gen9visit_mut28visit_foreign_item_macro_mutNtNtCsemR3zGJppC3_18tracing_attributes6expand15ImplTraitEraserEB1a_, symObjAddr: 0x11464, symBinAddr: 0x120BC, symSize: 0x50 }
  - { offset: 0xA1BD, size: 0x8, addend: 0x0, symName: __RINvNtNtCsc29TF2YcYso_3syn3gen9visit_mut28visit_foreign_item_macro_mutNtNtCsemR3zGJppC3_18tracing_attributes6expand20IdentAndTypesRenamerEB1a_, symObjAddr: 0x114B4, symBinAddr: 0x1210C, symSize: 0x50 }
  - { offset: 0xA1FF, size: 0x8, addend: 0x0, symName: __RINvNtNtCsc29TF2YcYso_3syn3gen9visit_mut28visit_pointer_mutability_mutNtNtCsemR3zGJppC3_18tracing_attributes6expand15ImplTraitEraserEB1a_, symObjAddr: 0x11504, symBinAddr: 0x1215C, symSize: 0x74 }
  - { offset: 0xA241, size: 0x8, addend: 0x0, symName: __RINvNtNtCsc29TF2YcYso_3syn3gen9visit_mut28visit_pointer_mutability_mutNtNtCsemR3zGJppC3_18tracing_attributes6expand20IdentAndTypesRenamerEB1a_, symObjAddr: 0x11578, symBinAddr: 0x121D0, symSize: 0x74 }
  - { offset: 0xA283, size: 0x8, addend: 0x0, symName: __RINvNtNtCsc29TF2YcYso_3syn3gen9visit_mut28visit_predicate_lifetime_mutNtNtCsemR3zGJppC3_18tracing_attributes6expand15ImplTraitEraserEB1a_, symObjAddr: 0x115EC, symBinAddr: 0x12244, symSize: 0xD0 }
  - { offset: 0xA320, size: 0x8, addend: 0x0, symName: __RINvNtNtCsc29TF2YcYso_3syn3gen9visit_mut28visit_predicate_lifetime_mutNtNtCsemR3zGJppC3_18tracing_attributes6expand20IdentAndTypesRenamerEB1a_, symObjAddr: 0x116BC, symBinAddr: 0x12314, symSize: 0xD0 }
  - { offset: 0xA3BD, size: 0x8, addend: 0x0, symName: __RINvNtNtCsc29TF2YcYso_3syn3gen9visit_mut29visit_foreign_item_static_mutNtNtCsemR3zGJppC3_18tracing_attributes6expand15ImplTraitEraserEB1b_, symObjAddr: 0x1178C, symBinAddr: 0x123E4, symSize: 0xD0 }
  - { offset: 0xA3FF, size: 0x8, addend: 0x0, symName: __RINvNtNtCsc29TF2YcYso_3syn3gen9visit_mut29visit_foreign_item_static_mutNtNtCsemR3zGJppC3_18tracing_attributes6expand20IdentAndTypesRenamerEB1b_, symObjAddr: 0x1185C, symBinAddr: 0x124B4, symSize: 0xD0 }
  - { offset: 0xA441, size: 0x8, addend: 0x0, symName: __RINvNtNtCsc29TF2YcYso_3syn3gen9visit_mut30visit_trait_bound_modifier_mutNtNtCsemR3zGJppC3_18tracing_attributes6expand15ImplTraitEraserEB1c_, symObjAddr: 0x1192C, symBinAddr: 0x12584, symSize: 0x68 }
  - { offset: 0xA483, size: 0x8, addend: 0x0, symName: __RINvNtNtCsc29TF2YcYso_3syn3gen9visit_mut30visit_trait_bound_modifier_mutNtNtCsemR3zGJppC3_18tracing_attributes6expand20IdentAndTypesRenamerEB1c_, symObjAddr: 0x11994, symBinAddr: 0x125EC, symSize: 0x68 }
  - { offset: 0xA4C5, size: 0x8, addend: 0x0, symName: __RINvNtNtCsc29TF2YcYso_3syn3gen9visit_mut41visit_parenthesized_generic_arguments_mutNtNtCsemR3zGJppC3_18tracing_attributes6expand15ImplTraitEraserEB1n_, symObjAddr: 0x119FC, symBinAddr: 0x12654, symSize: 0xD8 }
  - { offset: 0xA562, size: 0x8, addend: 0x0, symName: __RINvNtNtCsc29TF2YcYso_3syn3gen9visit_mut41visit_parenthesized_generic_arguments_mutNtNtCsemR3zGJppC3_18tracing_attributes6expand20IdentAndTypesRenamerEB1n_, symObjAddr: 0x11AD4, symBinAddr: 0x1272C, symSize: 0xD8 }
  - { offset: 0xA5FF, size: 0x8, addend: 0x0, symName: __RINvNtNtCsc29TF2YcYso_3syn3gen9visit_mut43visit_angle_bracketed_generic_arguments_mutNtNtCsemR3zGJppC3_18tracing_attributes6expand15ImplTraitEraserEB1p_, symObjAddr: 0x11BAC, symBinAddr: 0x12804, symSize: 0xC8 }
  - { offset: 0xA69C, size: 0x8, addend: 0x0, symName: __RINvNtNtCsc29TF2YcYso_3syn3gen9visit_mut43visit_angle_bracketed_generic_arguments_mutNtNtCsemR3zGJppC3_18tracing_attributes6expand20IdentAndTypesRenamerEB1p_, symObjAddr: 0x11C74, symBinAddr: 0x128CC, symSize: 0xC8 }
  - { offset: 0x154FC, size: 0x8, addend: 0x0, symName: __RNvXs1_NtNtNtCsaNl6UpbT7bw_4core3ops8function5implsQNCNCINvNtCsemR3zGJppC3_18tracing_attributes6expand9gen_blockNtCshnvkK9b4wzu_11proc_macro211TokenStreamEs0_0s2_0INtB7_5FnMutTRRTNtB1O_5IdentTB2R_NtBV_10RecordTypeEEEE8call_mutBX_, symObjAddr: 0x0, symBinAddr: 0x12994, symSize: 0x30 }
  - { offset: 0x18271, size: 0x8, addend: 0x0, symName: __RNvXs1_NtNtNtCsaNl6UpbT7bw_4core3ops8function5implsQNCNCINvNtCsemR3zGJppC3_18tracing_attributes6expand9gen_blockNtCshnvkK9b4wzu_11proc_macro211TokenStreamEs0_0s2_0INtB7_5FnMutTRRTNtB1O_5IdentTB2R_NtBV_10RecordTypeEEEE8call_mutBX_, symObjAddr: 0x0, symBinAddr: 0x12994, symSize: 0x30 }
  - { offset: 0x182C0, size: 0x8, addend: 0x0, symName: __RNvXs1_NtNtNtCsaNl6UpbT7bw_4core3ops8function5implsQNCNCINvNtCsemR3zGJppC3_18tracing_attributes6expand9gen_blockNtCshnvkK9b4wzu_11proc_macro211TokenStreamEs0_0s5_0INtB7_5FnMutTQNtNtBX_4attr5FieldEE8call_mutBX_, symObjAddr: 0x30, symBinAddr: 0x129C4, symSize: 0x30 }
  - { offset: 0x1830F, size: 0x8, addend: 0x0, symName: __RNvXs1_NtNtNtCsaNl6UpbT7bw_4core3ops8function5implsQNCNCINvNtCsemR3zGJppC3_18tracing_attributes6expand9gen_blockNtNtCsc29TF2YcYso_3syn4stmt5BlockEs0_0s2_0INtB7_5FnMutTRRTNtCshnvkK9b4wzu_11proc_macro25IdentTB2I_NtBV_10RecordTypeEEEE8call_mutBX_, symObjAddr: 0x60, symBinAddr: 0x129F4, symSize: 0x30 }
  - { offset: 0x1835E, size: 0x8, addend: 0x0, symName: __RNvXs1_NtNtNtCsaNl6UpbT7bw_4core3ops8function5implsQNCNCINvNtCsemR3zGJppC3_18tracing_attributes6expand9gen_blockNtNtCsc29TF2YcYso_3syn4stmt5BlockEs0_0s5_0INtB7_5FnMutTQNtNtBX_4attr5FieldEE8call_mutBX_, symObjAddr: 0x90, symBinAddr: 0x12A24, symSize: 0x30 }
  - { offset: 0x1A286, size: 0x8, addend: 0x0, symName: __RNCNvNtCsemR3zGJppC3_18tracing_attributes6expand11param_names0B5_, symObjAddr: 0x14F84, symBinAddr: 0x27918, symSize: 0x16C }
  - { offset: 0x1A2D2, size: 0x8, addend: 0x0, symName: __RNCNvNtCsemR3zGJppC3_18tracing_attributes6expand11param_namess_0B5_, symObjAddr: 0x150F0, symBinAddr: 0x27A84, symSize: 0x48 }
  - { offset: 0x1A30C, size: 0x8, addend: 0x0, symName: __RNCNvNtCsemR3zGJppC3_18tracing_attributes6expand11param_namess0_0B5_, symObjAddr: 0x15138, symBinAddr: 0x27ACC, symSize: 0x48 }
  - { offset: 0x1A347, size: 0x8, addend: 0x0, symName: __RINvNtCsemR3zGJppC3_18tracing_attributes6expand12gen_functionNtCshnvkK9b4wzu_11proc_macro211TokenStreamEB4_, symObjAddr: 0x51F4, symBinAddr: 0x17B88, symSize: 0xDBC }
  - { offset: 0x1A762, size: 0x8, addend: 0x0, symName: __RNCINvNtCsemR3zGJppC3_18tracing_attributes6expand12gen_functionNtCshnvkK9b4wzu_11proc_macro211TokenStreamE0B6_, symObjAddr: 0x5FB0, symBinAddr: 0x18944, symSize: 0x60 }
  - { offset: 0x1A7B5, size: 0x8, addend: 0x0, symName: __RNCINvNtCsemR3zGJppC3_18tracing_attributes6expand12gen_functionNtCshnvkK9b4wzu_11proc_macro211TokenStreamEs_0B6_, symObjAddr: 0x6010, symBinAddr: 0x189A4, symSize: 0x6C }
  - { offset: 0x1A817, size: 0x8, addend: 0x0, symName: __RINvNtCsemR3zGJppC3_18tracing_attributes6expand9gen_blockNtCshnvkK9b4wzu_11proc_macro211TokenStreamEB4_, symObjAddr: 0x607C, symBinAddr: 0x18A10, symSize: 0x5948 }
  - { offset: 0x1B964, size: 0x8, addend: 0x0, symName: __RINvNtCsemR3zGJppC3_18tracing_attributes6expand9gen_blockNtNtCsc29TF2YcYso_3syn4stmt5BlockEB4_, symObjAddr: 0xB9C4, symBinAddr: 0x1E358, symSize: 0x5948 }
  - { offset: 0x1CAB6, size: 0x8, addend: 0x0, symName: __RNCINvNtCsemR3zGJppC3_18tracing_attributes6expand9gen_blockNtCshnvkK9b4wzu_11proc_macro211TokenStreamE0B6_, symObjAddr: 0x1130C, symBinAddr: 0x23CA0, symSize: 0x90 }
  - { offset: 0x1CB0A, size: 0x8, addend: 0x0, symName: __RNCINvNtCsemR3zGJppC3_18tracing_attributes6expand9gen_blockNtNtCsc29TF2YcYso_3syn4stmt5BlockE0B6_, symObjAddr: 0x1139C, symBinAddr: 0x23D30, symSize: 0x90 }
  - { offset: 0x1CB5E, size: 0x8, addend: 0x0, symName: __RNCINvNtCsemR3zGJppC3_18tracing_attributes6expand9gen_blockNtCshnvkK9b4wzu_11proc_macro211TokenStreamEs_0B6_, symObjAddr: 0x1142C, symBinAddr: 0x23DC0, symSize: 0x88 }
  - { offset: 0x1CBAA, size: 0x8, addend: 0x0, symName: __RNCINvNtCsemR3zGJppC3_18tracing_attributes6expand9gen_blockNtNtCsc29TF2YcYso_3syn4stmt5BlockEs_0B6_, symObjAddr: 0x114B4, symBinAddr: 0x23E48, symSize: 0x88 }
  - { offset: 0x1CBF6, size: 0x8, addend: 0x0, symName: __RNCINvNtCsemR3zGJppC3_18tracing_attributes6expand9gen_blockNtCshnvkK9b4wzu_11proc_macro211TokenStreamEs0_0B6_, symObjAddr: 0x1153C, symBinAddr: 0x23ED0, symSize: 0xA14 }
  - { offset: 0x1CF20, size: 0x8, addend: 0x0, symName: __RNCINvNtCsemR3zGJppC3_18tracing_attributes6expand9gen_blockNtNtCsc29TF2YcYso_3syn4stmt5BlockEs0_0B6_, symObjAddr: 0x11F50, symBinAddr: 0x248E4, symSize: 0xA14 }
  - { offset: 0x1D24F, size: 0x8, addend: 0x0, symName: __RNCNCINvNtCsemR3zGJppC3_18tracing_attributes6expand9gen_blockNtCshnvkK9b4wzu_11proc_macro211TokenStreamEs0_00B8_, symObjAddr: 0x12964, symBinAddr: 0x252F8, symSize: 0x3BC }
  - { offset: 0x1D2D3, size: 0x8, addend: 0x0, symName: __RNCNCINvNtCsemR3zGJppC3_18tracing_attributes6expand9gen_blockNtNtCsc29TF2YcYso_3syn4stmt5BlockEs0_00B8_, symObjAddr: 0x12D20, symBinAddr: 0x256B4, symSize: 0x3BC }
  - { offset: 0x1D357, size: 0x8, addend: 0x0, symName: __RNCNCINvNtCsemR3zGJppC3_18tracing_attributes6expand9gen_blockNtCshnvkK9b4wzu_11proc_macro211TokenStreamEs0_0s_0B8_, symObjAddr: 0x130DC, symBinAddr: 0x25A70, symSize: 0x1E4 }
  - { offset: 0x1D3BE, size: 0x8, addend: 0x0, symName: __RNCNCINvNtCsemR3zGJppC3_18tracing_attributes6expand9gen_blockNtNtCsc29TF2YcYso_3syn4stmt5BlockEs0_0s_0B8_, symObjAddr: 0x132C0, symBinAddr: 0x25C54, symSize: 0x1E4 }
  - { offset: 0x1D425, size: 0x8, addend: 0x0, symName: __RNCNCINvNtCsemR3zGJppC3_18tracing_attributes6expand9gen_blockNtCshnvkK9b4wzu_11proc_macro211TokenStreamEs0_0s0_0B8_, symObjAddr: 0x134A4, symBinAddr: 0x25E38, symSize: 0x38 }
  - { offset: 0x1D460, size: 0x8, addend: 0x0, symName: __RNCNCINvNtCsemR3zGJppC3_18tracing_attributes6expand9gen_blockNtNtCsc29TF2YcYso_3syn4stmt5BlockEs0_0s0_0B8_, symObjAddr: 0x134DC, symBinAddr: 0x25E70, symSize: 0x38 }
  - { offset: 0x1D49B, size: 0x8, addend: 0x0, symName: __RNCNCINvNtCsemR3zGJppC3_18tracing_attributes6expand9gen_blockNtCshnvkK9b4wzu_11proc_macro211TokenStreamEs0_0s1_0B8_, symObjAddr: 0x13514, symBinAddr: 0x25EA8, symSize: 0x44 }
  - { offset: 0x1D4E1, size: 0x8, addend: 0x0, symName: __RNCNCINvNtCsemR3zGJppC3_18tracing_attributes6expand9gen_blockNtNtCsc29TF2YcYso_3syn4stmt5BlockEs0_0s1_0B8_, symObjAddr: 0x13558, symBinAddr: 0x25EEC, symSize: 0x44 }
  - { offset: 0x1D527, size: 0x8, addend: 0x0, symName: __RNCNCINvNtCsemR3zGJppC3_18tracing_attributes6expand9gen_blockNtCshnvkK9b4wzu_11proc_macro211TokenStreamEs0_0s2_0B8_, symObjAddr: 0x1359C, symBinAddr: 0x25F30, symSize: 0x164 }
  - { offset: 0x1D593, size: 0x8, addend: 0x0, symName: __RNCNCINvNtCsemR3zGJppC3_18tracing_attributes6expand9gen_blockNtNtCsc29TF2YcYso_3syn4stmt5BlockEs0_0s2_0B8_, symObjAddr: 0x13700, symBinAddr: 0x26094, symSize: 0x164 }
  - { offset: 0x1D604, size: 0x8, addend: 0x0, symName: __RNCNCNCINvNtCsemR3zGJppC3_18tracing_attributes6expand9gen_blockNtCshnvkK9b4wzu_11proc_macro211TokenStreamEs0_0s2_00Ba_, symObjAddr: 0x13864, symBinAddr: 0x261F8, symSize: 0xD8 }
  - { offset: 0x1D678, size: 0x8, addend: 0x0, symName: __RNCNCNCINvNtCsemR3zGJppC3_18tracing_attributes6expand9gen_blockNtNtCsc29TF2YcYso_3syn4stmt5BlockEs0_0s2_00Ba_, symObjAddr: 0x1393C, symBinAddr: 0x262D0, symSize: 0xD8 }
  - { offset: 0x1D6F1, size: 0x8, addend: 0x0, symName: __RNCNCNCNCINvNtCsemR3zGJppC3_18tracing_attributes6expand9gen_blockNtCshnvkK9b4wzu_11proc_macro211TokenStreamEs0_0s2_000Bc_, symObjAddr: 0x13A14, symBinAddr: 0x263A8, symSize: 0x4C }
  - { offset: 0x1D737, size: 0x8, addend: 0x0, symName: __RNCNCNCNCINvNtCsemR3zGJppC3_18tracing_attributes6expand9gen_blockNtNtCsc29TF2YcYso_3syn4stmt5BlockEs0_0s2_000Bc_, symObjAddr: 0x13A60, symBinAddr: 0x263F4, symSize: 0x4C }
  - { offset: 0x1D77F, size: 0x8, addend: 0x0, symName: __RNCNCINvNtCsemR3zGJppC3_18tracing_attributes6expand9gen_blockNtCshnvkK9b4wzu_11proc_macro211TokenStreamEs0_0s3_0B8_, symObjAddr: 0x13AAC, symBinAddr: 0x26440, symSize: 0x228 }
  - { offset: 0x1D82E, size: 0x8, addend: 0x0, symName: __RNCNCINvNtCsemR3zGJppC3_18tracing_attributes6expand9gen_blockNtNtCsc29TF2YcYso_3syn4stmt5BlockEs0_0s3_0B8_, symObjAddr: 0x13CD4, symBinAddr: 0x26668, symSize: 0x228 }
  - { offset: 0x1D8DD, size: 0x8, addend: 0x0, symName: __RNCNCINvNtCsemR3zGJppC3_18tracing_attributes6expand9gen_blockNtCshnvkK9b4wzu_11proc_macro211TokenStreamEs0_0s4_0B8_, symObjAddr: 0x13EFC, symBinAddr: 0x26890, symSize: 0x64 }
  - { offset: 0x1D93C, size: 0x8, addend: 0x0, symName: __RNCNCINvNtCsemR3zGJppC3_18tracing_attributes6expand9gen_blockNtNtCsc29TF2YcYso_3syn4stmt5BlockEs0_0s4_0B8_, symObjAddr: 0x13F60, symBinAddr: 0x268F4, symSize: 0x64 }
  - { offset: 0x1D99B, size: 0x8, addend: 0x0, symName: __RNCNCINvNtCsemR3zGJppC3_18tracing_attributes6expand9gen_blockNtCshnvkK9b4wzu_11proc_macro211TokenStreamEs0_0s5_0B8_, symObjAddr: 0x13FC4, symBinAddr: 0x26958, symSize: 0x40 }
  - { offset: 0x1D9DA, size: 0x8, addend: 0x0, symName: __RNCNCINvNtCsemR3zGJppC3_18tracing_attributes6expand9gen_blockNtNtCsc29TF2YcYso_3syn4stmt5BlockEs0_0s5_0B8_, symObjAddr: 0x14004, symBinAddr: 0x26998, symSize: 0x40 }
  - { offset: 0x1DA9F, size: 0x8, addend: 0x0, symName: __RNCNvMNtCsemR3zGJppC3_18tracing_attributes6expandNtB4_10RecordType13parse_from_ty0B6_, symObjAddr: 0x14210, symBinAddr: 0x26BA4, symSize: 0xB0 }
  - { offset: 0x1DAF3, size: 0x8, addend: 0x0, symName: __RNCNCNvMNtCsemR3zGJppC3_18tracing_attributes6expandNtB6_10RecordType13parse_from_ty00B8_, symObjAddr: 0x142C0, symBinAddr: 0x26C54, symSize: 0x58 }
  - { offset: 0x1DB4F, size: 0x8, addend: 0x0, symName: __RNvNtCsemR3zGJppC3_18tracing_attributes6expand11param_names, symObjAddr: 0x14318, symBinAddr: 0x26CAC, symSize: 0xC6C }
  - { offset: 0x1DD73, size: 0x8, addend: 0x0, symName: __RNCNvMs_NtCsemR3zGJppC3_18tracing_attributes6expandNtB6_9AsyncInfo7from_fn0B8_, symObjAddr: 0x15E80, symBinAddr: 0x28814, symSize: 0xF8 }
  - { offset: 0x1DDC2, size: 0x8, addend: 0x0, symName: __RNCNvMs_NtCsemR3zGJppC3_18tracing_attributes6expandNtB6_9AsyncInfo7from_fns_0B8_, symObjAddr: 0x15F78, symBinAddr: 0x2890C, symSize: 0x90 }
  - { offset: 0x1DE29, size: 0x8, addend: 0x0, symName: __RNCNvMs_NtCsemR3zGJppC3_18tracing_attributes6expandNtB6_9AsyncInfo7from_fns0_0B8_, symObjAddr: 0x16008, symBinAddr: 0x2899C, symSize: 0x50 }
  - { offset: 0x1DE8F, size: 0x8, addend: 0x0, symName: __RNCNvMs_NtCsemR3zGJppC3_18tracing_attributes6expandNtB6_9AsyncInfo9gen_async0B8_, symObjAddr: 0x16BE4, symBinAddr: 0x29578, symSize: 0x40 }
  - { offset: 0x1DEC8, size: 0x8, addend: 0x0, symName: __RNCNvMs_NtCsemR3zGJppC3_18tracing_attributes6expandNtB6_9AsyncInfo9gen_asyncs_0B8_, symObjAddr: 0x16C24, symBinAddr: 0x295B8, symSize: 0x54 }
  - { offset: 0x1DF33, size: 0x8, addend: 0x0, symName: __RNvNtCsemR3zGJppC3_18tracing_attributes6expand14path_to_string, symObjAddr: 0x16C78, symBinAddr: 0x2960C, symSize: 0x27C }
  - { offset: 0x1DFC9, size: 0x8, addend: 0x0, symName: __RNvXs0_NtCsemR3zGJppC3_18tracing_attributes6expandNtB5_20IdentAndTypesRenamerNtNtNtCsc29TF2YcYso_3syn3gen9visit_mut8VisitMut15visit_ident_mut, symObjAddr: 0x16EF4, symBinAddr: 0x29888, symSize: 0x1B0 }
  - { offset: 0x1E03E, size: 0x8, addend: 0x0, symName: __RNvXs0_NtCsemR3zGJppC3_18tracing_attributes6expandNtB5_20IdentAndTypesRenamerNtNtNtCsc29TF2YcYso_3syn3gen9visit_mut8VisitMut14visit_type_mut, symObjAddr: 0x170A4, symBinAddr: 0x29A38, symSize: 0x1E8 }
  - { offset: 0x1E0D0, size: 0x8, addend: 0x0, symName: __RNvXs2_NtCsemR3zGJppC3_18tracing_attributes6expandNtB5_15ImplTraitEraserNtNtNtCsc29TF2YcYso_3syn3gen9visit_mut8VisitMut14visit_type_mut, symObjAddr: 0x1728C, symBinAddr: 0x29C20, symSize: 0x10C }
  - { offset: 0x1E10A, size: 0x8, addend: 0x0, symName: __RNvNtCsemR3zGJppC3_18tracing_attributes6expand16erase_impl_trait, symObjAddr: 0x17398, symBinAddr: 0x29D2C, symSize: 0x94 }
  - { offset: 0x23195, size: 0x8, addend: 0x0, symName: __RNvYNtNtCsemR3zGJppC3_18tracing_attributes6expand15ImplTraitEraserNtNtNtCsc29TF2YcYso_3syn3gen9visit_mut8VisitMut13visit_abi_mutB6_, symObjAddr: 0xC0, symBinAddr: 0x12A54, symSize: 0x3C }
  - { offset: 0x231D4, size: 0x8, addend: 0x0, symName: __RNvYNtNtCsemR3zGJppC3_18tracing_attributes6expand15ImplTraitEraserNtNtNtCsc29TF2YcYso_3syn3gen9visit_mut8VisitMut13visit_arm_mutB6_, symObjAddr: 0xFC, symBinAddr: 0x12A90, symSize: 0x3C }
  - { offset: 0x23213, size: 0x8, addend: 0x0, symName: __RNvYNtNtCsemR3zGJppC3_18tracing_attributes6expand15ImplTraitEraserNtNtNtCsc29TF2YcYso_3syn3gen9visit_mut8VisitMut13visit_lit_mutB6_, symObjAddr: 0x138, symBinAddr: 0x12ACC, symSize: 0x3C }
  - { offset: 0x23255, size: 0x8, addend: 0x0, symName: __RNvYNtNtCsemR3zGJppC3_18tracing_attributes6expand15ImplTraitEraserNtNtNtCsc29TF2YcYso_3syn3gen9visit_mut8VisitMut13visit_pat_mutB6_, symObjAddr: 0x174, symBinAddr: 0x12B08, symSize: 0x3C }
  - { offset: 0x23297, size: 0x8, addend: 0x0, symName: __RNvYNtNtCsemR3zGJppC3_18tracing_attributes6expand15ImplTraitEraserNtNtNtCsc29TF2YcYso_3syn3gen9visit_mut8VisitMut14visit_expr_mutB6_, symObjAddr: 0x1B0, symBinAddr: 0x12B44, symSize: 0x3C }
  - { offset: 0x232D6, size: 0x8, addend: 0x0, symName: __RNvYNtNtCsemR3zGJppC3_18tracing_attributes6expand15ImplTraitEraserNtNtNtCsc29TF2YcYso_3syn3gen9visit_mut8VisitMut14visit_item_mutB6_, symObjAddr: 0x1EC, symBinAddr: 0x12B80, symSize: 0x3C }
  - { offset: 0x23318, size: 0x8, addend: 0x0, symName: __RNvYNtNtCsemR3zGJppC3_18tracing_attributes6expand15ImplTraitEraserNtNtNtCsc29TF2YcYso_3syn3gen9visit_mut8VisitMut14visit_meta_mutB6_, symObjAddr: 0x228, symBinAddr: 0x12BBC, symSize: 0x3C }
  - { offset: 0x2335A, size: 0x8, addend: 0x0, symName: __RNvYNtNtCsemR3zGJppC3_18tracing_attributes6expand15ImplTraitEraserNtNtNtCsc29TF2YcYso_3syn3gen9visit_mut8VisitMut14visit_path_mutB6_, symObjAddr: 0x264, symBinAddr: 0x12BF8, symSize: 0x3C }
  - { offset: 0x2339C, size: 0x8, addend: 0x0, symName: __RNvYNtNtCsemR3zGJppC3_18tracing_attributes6expand15ImplTraitEraserNtNtNtCsc29TF2YcYso_3syn3gen9visit_mut8VisitMut14visit_span_mutB6_, symObjAddr: 0x2A0, symBinAddr: 0x12C34, symSize: 0x24 }
  - { offset: 0x233DE, size: 0x8, addend: 0x0, symName: __RNvYNtNtCsemR3zGJppC3_18tracing_attributes6expand15ImplTraitEraserNtNtNtCsc29TF2YcYso_3syn3gen9visit_mut8VisitMut14visit_stmt_mutB6_, symObjAddr: 0x2C4, symBinAddr: 0x12C58, symSize: 0x3C }
  - { offset: 0x23420, size: 0x8, addend: 0x0, symName: __RNvYNtNtCsemR3zGJppC3_18tracing_attributes6expand15ImplTraitEraserNtNtNtCsc29TF2YcYso_3syn3gen9visit_mut8VisitMut15visit_block_mutB6_, symObjAddr: 0x300, symBinAddr: 0x12C94, symSize: 0x3C }
  - { offset: 0x2345F, size: 0x8, addend: 0x0, symName: __RNvYNtNtCsemR3zGJppC3_18tracing_attributes6expand15ImplTraitEraserNtNtNtCsc29TF2YcYso_3syn3gen9visit_mut8VisitMut15visit_field_mutB6_, symObjAddr: 0x33C, symBinAddr: 0x12CD0, symSize: 0x3C }
  - { offset: 0x234A1, size: 0x8, addend: 0x0, symName: __RNvYNtNtCsemR3zGJppC3_18tracing_attributes6expand15ImplTraitEraserNtNtNtCsc29TF2YcYso_3syn3gen9visit_mut8VisitMut15visit_ident_mutB6_, symObjAddr: 0x378, symBinAddr: 0x12D0C, symSize: 0x3C }
  - { offset: 0x234E3, size: 0x8, addend: 0x0, symName: __RNvYNtNtCsemR3zGJppC3_18tracing_attributes6expand15ImplTraitEraserNtNtNtCsc29TF2YcYso_3syn3gen9visit_mut8VisitMut15visit_index_mutB6_, symObjAddr: 0x3B4, symBinAddr: 0x12D48, symSize: 0x3C }
  - { offset: 0x23525, size: 0x8, addend: 0x0, symName: __RNvYNtNtCsemR3zGJppC3_18tracing_attributes6expand15ImplTraitEraserNtNtNtCsc29TF2YcYso_3syn3gen9visit_mut8VisitMut15visit_label_mutB6_, symObjAddr: 0x3F0, symBinAddr: 0x12D84, symSize: 0x3C }
  - { offset: 0x23567, size: 0x8, addend: 0x0, symName: __RNvYNtNtCsemR3zGJppC3_18tracing_attributes6expand15ImplTraitEraserNtNtNtCsc29TF2YcYso_3syn3gen9visit_mut8VisitMut15visit_local_mutB6_, symObjAddr: 0x42C, symBinAddr: 0x12DC0, symSize: 0x3C }
  - { offset: 0x235A9, size: 0x8, addend: 0x0, symName: __RNvYNtNtCsemR3zGJppC3_18tracing_attributes6expand15ImplTraitEraserNtNtNtCsc29TF2YcYso_3syn3gen9visit_mut8VisitMut15visit_macro_mutB6_, symObjAddr: 0x468, symBinAddr: 0x12DFC, symSize: 0x3C }
  - { offset: 0x235EB, size: 0x8, addend: 0x0, symName: __RNvYNtNtCsemR3zGJppC3_18tracing_attributes6expand15ImplTraitEraserNtNtNtCsc29TF2YcYso_3syn3gen9visit_mut8VisitMut15visit_qself_mutB6_, symObjAddr: 0x4A4, symBinAddr: 0x12E38, symSize: 0x3C }
  - { offset: 0x2362D, size: 0x8, addend: 0x0, symName: __RNvYNtNtCsemR3zGJppC3_18tracing_attributes6expand15ImplTraitEraserNtNtNtCsc29TF2YcYso_3syn3gen9visit_mut8VisitMut15visit_un_op_mutB6_, symObjAddr: 0x4E0, symBinAddr: 0x12E74, symSize: 0x3C }
  - { offset: 0x2366F, size: 0x8, addend: 0x0, symName: __RNvYNtNtCsemR3zGJppC3_18tracing_attributes6expand15ImplTraitEraserNtNtNtCsc29TF2YcYso_3syn3gen9visit_mut8VisitMut16visit_bin_op_mutB6_, symObjAddr: 0x51C, symBinAddr: 0x12EB0, symSize: 0x3C }
  - { offset: 0x236AE, size: 0x8, addend: 0x0, symName: __RNvYNtNtCsemR3zGJppC3_18tracing_attributes6expand15ImplTraitEraserNtNtNtCsc29TF2YcYso_3syn3gen9visit_mut8VisitMut16visit_fields_mutB6_, symObjAddr: 0x558, symBinAddr: 0x12EEC, symSize: 0x3C }
  - { offset: 0x236F0, size: 0x8, addend: 0x0, symName: __RNvYNtNtCsemR3zGJppC3_18tracing_attributes6expand15ImplTraitEraserNtNtNtCsc29TF2YcYso_3syn3gen9visit_mut8VisitMut16visit_fn_arg_mutB6_, symObjAddr: 0x594, symBinAddr: 0x12F28, symSize: 0x3C }
  - { offset: 0x23732, size: 0x8, addend: 0x0, symName: __RNvYNtNtCsemR3zGJppC3_18tracing_attributes6expand15ImplTraitEraserNtNtNtCsc29TF2YcYso_3syn3gen9visit_mut8VisitMut16visit_member_mutB6_, symObjAddr: 0x5D0, symBinAddr: 0x12F64, symSize: 0x3C }
  - { offset: 0x23774, size: 0x8, addend: 0x0, symName: __RNvYNtNtCsemR3zGJppC3_18tracing_attributes6expand15ImplTraitEraserNtNtNtCsc29TF2YcYso_3syn3gen9visit_mut8VisitMut16visit_pat_or_mutB6_, symObjAddr: 0x60C, symBinAddr: 0x12FA0, symSize: 0x3C }
  - { offset: 0x237B6, size: 0x8, addend: 0x0, symName: __RNvYNtNtCsemR3zGJppC3_18tracing_attributes6expand15ImplTraitEraserNtNtNtCsc29TF2YcYso_3syn3gen9visit_mut8VisitMut17visit_expr_if_mutB6_, symObjAddr: 0x648, symBinAddr: 0x12FDC, symSize: 0x3C }
  - { offset: 0x237F5, size: 0x8, addend: 0x0, symName: __RNvYNtNtCsemR3zGJppC3_18tracing_attributes6expand15ImplTraitEraserNtNtNtCsc29TF2YcYso_3syn3gen9visit_mut8VisitMut17visit_item_fn_mutB6_, symObjAddr: 0x684, symBinAddr: 0x13018, symSize: 0x3C }
  - { offset: 0x23837, size: 0x8, addend: 0x0, symName: __RNvYNtNtCsemR3zGJppC3_18tracing_attributes6expand15ImplTraitEraserNtNtNtCsc29TF2YcYso_3syn3gen9visit_mut8VisitMut17visit_lit_int_mutB6_, symObjAddr: 0x6C0, symBinAddr: 0x13054, symSize: 0x3C }
  - { offset: 0x23879, size: 0x8, addend: 0x0, symName: __RNvYNtNtCsemR3zGJppC3_18tracing_attributes6expand15ImplTraitEraserNtNtNtCsc29TF2YcYso_3syn3gen9visit_mut8VisitMut17visit_lit_str_mutB6_, symObjAddr: 0x6FC, symBinAddr: 0x13090, symSize: 0x3C }
  - { offset: 0x238BB, size: 0x8, addend: 0x0, symName: __RNvYNtNtCsemR3zGJppC3_18tracing_attributes6expand15ImplTraitEraserNtNtNtCsc29TF2YcYso_3syn3gen9visit_mut8VisitMut17visit_variant_mutB6_, symObjAddr: 0x738, symBinAddr: 0x130CC, symSize: 0x3C }
  - { offset: 0x238FD, size: 0x8, addend: 0x0, symName: __RNvYNtNtCsemR3zGJppC3_18tracing_attributes6expand15ImplTraitEraserNtNtNtCsc29TF2YcYso_3syn3gen9visit_mut8VisitMut18visit_expr_let_mutB6_, symObjAddr: 0x774, symBinAddr: 0x13108, symSize: 0x3C }
  - { offset: 0x2393C, size: 0x8, addend: 0x0, symName: __RNvYNtNtCsemR3zGJppC3_18tracing_attributes6expand15ImplTraitEraserNtNtNtCsc29TF2YcYso_3syn3gen9visit_mut8VisitMut18visit_expr_lit_mutB6_, symObjAddr: 0x7B0, symBinAddr: 0x13144, symSize: 0x3C }
  - { offset: 0x2397B, size: 0x8, addend: 0x0, symName: __RNvYNtNtCsemR3zGJppC3_18tracing_attributes6expand15ImplTraitEraserNtNtNtCsc29TF2YcYso_3syn3gen9visit_mut8VisitMut18visit_expr_try_mutB6_, symObjAddr: 0x7EC, symBinAddr: 0x13180, symSize: 0x3C }
  - { offset: 0x239BD, size: 0x8, addend: 0x0, symName: __RNvYNtNtCsemR3zGJppC3_18tracing_attributes6expand15ImplTraitEraserNtNtNtCsc29TF2YcYso_3syn3gen9visit_mut8VisitMut18visit_generics_mutB6_, symObjAddr: 0x828, symBinAddr: 0x131BC, symSize: 0x3C }
  - { offset: 0x239FF, size: 0x8, addend: 0x0, symName: __RNvYNtNtCsemR3zGJppC3_18tracing_attributes6expand15ImplTraitEraserNtNtNtCsc29TF2YcYso_3syn3gen9visit_mut8VisitMut18visit_item_mod_mutB6_, symObjAddr: 0x864, symBinAddr: 0x131F8, symSize: 0x3C }
  - { offset: 0x23A41, size: 0x8, addend: 0x0, symName: __RNvYNtNtCsemR3zGJppC3_18tracing_attributes6expand15ImplTraitEraserNtNtNtCsc29TF2YcYso_3syn3gen9visit_mut8VisitMut18visit_item_use_mutB6_, symObjAddr: 0x8A0, symBinAddr: 0x13234, symSize: 0x3C }
  - { offset: 0x23A83, size: 0x8, addend: 0x0, symName: __RNvYNtNtCsemR3zGJppC3_18tracing_attributes6expand15ImplTraitEraserNtNtNtCsc29TF2YcYso_3syn3gen9visit_mut8VisitMut18visit_lifetime_mutB6_, symObjAddr: 0x8DC, symBinAddr: 0x13270, symSize: 0x3C }
  - { offset: 0x23AC5, size: 0x8, addend: 0x0, symName: __RNvYNtNtCsemR3zGJppC3_18tracing_attributes6expand15ImplTraitEraserNtNtNtCsc29TF2YcYso_3syn3gen9visit_mut8VisitMut18visit_lit_bool_mutB6_, symObjAddr: 0x918, symBinAddr: 0x132AC, symSize: 0x3C }
  - { offset: 0x23B07, size: 0x8, addend: 0x0, symName: __RNvYNtNtCsemR3zGJppC3_18tracing_attributes6expand15ImplTraitEraserNtNtNtCsc29TF2YcYso_3syn3gen9visit_mut8VisitMut18visit_lit_byte_mutB6_, symObjAddr: 0x954, symBinAddr: 0x132E8, symSize: 0x3C }
  - { offset: 0x23B49, size: 0x8, addend: 0x0, symName: __RNvYNtNtCsemR3zGJppC3_18tracing_attributes6expand15ImplTraitEraserNtNtNtCsc29TF2YcYso_3syn3gen9visit_mut8VisitMut18visit_lit_char_mutB6_, symObjAddr: 0x990, symBinAddr: 0x13324, symSize: 0x3C }
  - { offset: 0x23B8B, size: 0x8, addend: 0x0, symName: __RNvYNtNtCsemR3zGJppC3_18tracing_attributes6expand15ImplTraitEraserNtNtNtCsc29TF2YcYso_3syn3gen9visit_mut8VisitMut18visit_lit_cstr_mutB6_, symObjAddr: 0x9CC, symBinAddr: 0x13360, symSize: 0x3C }
  - { offset: 0x23BCD, size: 0x8, addend: 0x0, symName: __RNvYNtNtCsemR3zGJppC3_18tracing_attributes6expand15ImplTraitEraserNtNtNtCsc29TF2YcYso_3syn3gen9visit_mut8VisitMut18visit_pat_rest_mutB6_, symObjAddr: 0xA08, symBinAddr: 0x1339C, symSize: 0x3C }
  - { offset: 0x23C0F, size: 0x8, addend: 0x0, symName: __RNvYNtNtCsemR3zGJppC3_18tracing_attributes6expand15ImplTraitEraserNtNtNtCsc29TF2YcYso_3syn3gen9visit_mut8VisitMut18visit_pat_type_mutB6_, symObjAddr: 0xA44, symBinAddr: 0x133D8, symSize: 0x3C }
  - { offset: 0x23C51, size: 0x8, addend: 0x0, symName: __RNvYNtNtCsemR3zGJppC3_18tracing_attributes6expand15ImplTraitEraserNtNtNtCsc29TF2YcYso_3syn3gen9visit_mut8VisitMut18visit_pat_wild_mutB6_, symObjAddr: 0xA80, symBinAddr: 0x13414, symSize: 0x3C }
  - { offset: 0x23C93, size: 0x8, addend: 0x0, symName: __RNvYNtNtCsemR3zGJppC3_18tracing_attributes6expand15ImplTraitEraserNtNtNtCsc29TF2YcYso_3syn3gen9visit_mut8VisitMut18visit_receiver_mutB6_, symObjAddr: 0xABC, symBinAddr: 0x13450, symSize: 0x3C }
  - { offset: 0x23CD5, size: 0x8, addend: 0x0, symName: __RNvYNtNtCsemR3zGJppC3_18tracing_attributes6expand15ImplTraitEraserNtNtNtCsc29TF2YcYso_3syn3gen9visit_mut8VisitMut18visit_type_ptr_mutB6_, symObjAddr: 0xAF8, symBinAddr: 0x1348C, symSize: 0x3C }
  - { offset: 0x23D17, size: 0x8, addend: 0x0, symName: __RNvYNtNtCsemR3zGJppC3_18tracing_attributes6expand15ImplTraitEraserNtNtNtCsc29TF2YcYso_3syn3gen9visit_mut8VisitMut18visit_use_glob_mutB6_, symObjAddr: 0xB34, symBinAddr: 0x134C8, symSize: 0x3C }
  - { offset: 0x23D59, size: 0x8, addend: 0x0, symName: __RNvYNtNtCsemR3zGJppC3_18tracing_attributes6expand15ImplTraitEraserNtNtNtCsc29TF2YcYso_3syn3gen9visit_mut8VisitMut18visit_use_name_mutB6_, symObjAddr: 0xB70, symBinAddr: 0x13504, symSize: 0x3C }
  - { offset: 0x23D9B, size: 0x8, addend: 0x0, symName: __RNvYNtNtCsemR3zGJppC3_18tracing_attributes6expand15ImplTraitEraserNtNtNtCsc29TF2YcYso_3syn3gen9visit_mut8VisitMut18visit_use_path_mutB6_, symObjAddr: 0xBAC, symBinAddr: 0x13540, symSize: 0x3C }
  - { offset: 0x23DDD, size: 0x8, addend: 0x0, symName: __RNvYNtNtCsemR3zGJppC3_18tracing_attributes6expand15ImplTraitEraserNtNtNtCsc29TF2YcYso_3syn3gen9visit_mut8VisitMut18visit_use_tree_mutB6_, symObjAddr: 0xBE8, symBinAddr: 0x1357C, symSize: 0x3C }
  - { offset: 0x23E1F, size: 0x8, addend: 0x0, symName: __RNvYNtNtCsemR3zGJppC3_18tracing_attributes6expand15ImplTraitEraserNtNtNtCsc29TF2YcYso_3syn3gen9visit_mut8VisitMut18visit_variadic_mutB6_, symObjAddr: 0xC24, symBinAddr: 0x135B8, symSize: 0x3C }
  - { offset: 0x23E61, size: 0x8, addend: 0x0, symName: __RNvYNtNtCsemR3zGJppC3_18tracing_attributes6expand15ImplTraitEraserNtNtNtCsc29TF2YcYso_3syn3gen9visit_mut8VisitMut19visit_attribute_mutB6_, symObjAddr: 0xC60, symBinAddr: 0x135F4, symSize: 0x3C }
  - { offset: 0x23EA0, size: 0x8, addend: 0x0, symName: __RNvYNtNtCsemR3zGJppC3_18tracing_attributes6expand15ImplTraitEraserNtNtNtCsc29TF2YcYso_3syn3gen9visit_mut8VisitMut19visit_expr_call_mutB6_, symObjAddr: 0xC9C, symBinAddr: 0x13630, symSize: 0x3C }
  - { offset: 0x23EDF, size: 0x8, addend: 0x0, symName: __RNvYNtNtCsemR3zGJppC3_18tracing_attributes6expand15ImplTraitEraserNtNtNtCsc29TF2YcYso_3syn3gen9visit_mut8VisitMut19visit_expr_cast_mutB6_, symObjAddr: 0xCD8, symBinAddr: 0x1366C, symSize: 0x3C }
  - { offset: 0x23F1E, size: 0x8, addend: 0x0, symName: __RNvYNtNtCsemR3zGJppC3_18tracing_attributes6expand15ImplTraitEraserNtNtNtCsc29TF2YcYso_3syn3gen9visit_mut8VisitMut19visit_expr_loop_mutB6_, symObjAddr: 0xD14, symBinAddr: 0x136A8, symSize: 0x3C }
  - { offset: 0x23F5D, size: 0x8, addend: 0x0, symName: __RNvYNtNtCsemR3zGJppC3_18tracing_attributes6expand15ImplTraitEraserNtNtNtCsc29TF2YcYso_3syn3gen9visit_mut8VisitMut19visit_expr_path_mutB6_, symObjAddr: 0xD50, symBinAddr: 0x136E4, symSize: 0x3C }
  - { offset: 0x23F9F, size: 0x8, addend: 0x0, symName: __RNvYNtNtCsemR3zGJppC3_18tracing_attributes6expand15ImplTraitEraserNtNtNtCsc29TF2YcYso_3syn3gen9visit_mut8VisitMut19visit_field_pat_mutB6_, symObjAddr: 0xD8C, symBinAddr: 0x13720, symSize: 0x3C }
  - { offset: 0x23FE1, size: 0x8, addend: 0x0, symName: __RNvYNtNtCsemR3zGJppC3_18tracing_attributes6expand15ImplTraitEraserNtNtNtCsc29TF2YcYso_3syn3gen9visit_mut8VisitMut19visit_impl_item_mutB6_, symObjAddr: 0xDC8, symBinAddr: 0x1375C, symSize: 0x3C }
  - { offset: 0x24023, size: 0x8, addend: 0x0, symName: __RNvYNtNtCsemR3zGJppC3_18tracing_attributes6expand15ImplTraitEraserNtNtNtCsc29TF2YcYso_3syn3gen9visit_mut8VisitMut19visit_item_enum_mutB6_, symObjAddr: 0xE04, symBinAddr: 0x13798, symSize: 0x3C }
  - { offset: 0x24065, size: 0x8, addend: 0x0, symName: __RNvYNtNtCsemR3zGJppC3_18tracing_attributes6expand15ImplTraitEraserNtNtNtCsc29TF2YcYso_3syn3gen9visit_mut8VisitMut19visit_item_impl_mutB6_, symObjAddr: 0xE40, symBinAddr: 0x137D4, symSize: 0x3C }
  - { offset: 0x240A7, size: 0x8, addend: 0x0, symName: __RNvYNtNtCsemR3zGJppC3_18tracing_attributes6expand15ImplTraitEraserNtNtNtCsc29TF2YcYso_3syn3gen9visit_mut8VisitMut19visit_item_type_mutB6_, symObjAddr: 0xE7C, symBinAddr: 0x13810, symSize: 0x3C }
  - { offset: 0x240E9, size: 0x8, addend: 0x0, symName: __RNvYNtNtCsemR3zGJppC3_18tracing_attributes6expand15ImplTraitEraserNtNtNtCsc29TF2YcYso_3syn3gen9visit_mut8VisitMut19visit_lit_float_mutB6_, symObjAddr: 0xEB8, symBinAddr: 0x1384C, symSize: 0x3C }
  - { offset: 0x2412B, size: 0x8, addend: 0x0, symName: __RNvYNtNtCsemR3zGJppC3_18tracing_attributes6expand15ImplTraitEraserNtNtNtCsc29TF2YcYso_3syn3gen9visit_mut8VisitMut19visit_meta_list_mutB6_, symObjAddr: 0xEF4, symBinAddr: 0x13888, symSize: 0x3C }
  - { offset: 0x2416D, size: 0x8, addend: 0x0, symName: __RNvYNtNtCsemR3zGJppC3_18tracing_attributes6expand15ImplTraitEraserNtNtNtCsc29TF2YcYso_3syn3gen9visit_mut8VisitMut19visit_pat_ident_mutB6_, symObjAddr: 0xF30, symBinAddr: 0x138C4, symSize: 0x3C }
  - { offset: 0x241AF, size: 0x8, addend: 0x0, symName: __RNvYNtNtCsemR3zGJppC3_18tracing_attributes6expand15ImplTraitEraserNtNtNtCsc29TF2YcYso_3syn3gen9visit_mut8VisitMut19visit_pat_paren_mutB6_, symObjAddr: 0xF6C, symBinAddr: 0x13900, symSize: 0x3C }
  - { offset: 0x241F1, size: 0x8, addend: 0x0, symName: __RNvYNtNtCsemR3zGJppC3_18tracing_attributes6expand15ImplTraitEraserNtNtNtCsc29TF2YcYso_3syn3gen9visit_mut8VisitMut19visit_pat_slice_mutB6_, symObjAddr: 0xFA8, symBinAddr: 0x1393C, symSize: 0x3C }
  - { offset: 0x24233, size: 0x8, addend: 0x0, symName: __RNvYNtNtCsemR3zGJppC3_18tracing_attributes6expand15ImplTraitEraserNtNtNtCsc29TF2YcYso_3syn3gen9visit_mut8VisitMut19visit_pat_tuple_mutB6_, symObjAddr: 0xFE4, symBinAddr: 0x13978, symSize: 0x3C }
  - { offset: 0x24275, size: 0x8, addend: 0x0, symName: __RNvYNtNtCsemR3zGJppC3_18tracing_attributes6expand15ImplTraitEraserNtNtNtCsc29TF2YcYso_3syn3gen9visit_mut8VisitMut19visit_signature_mutB6_, symObjAddr: 0x1020, symBinAddr: 0x139B4, symSize: 0x3C }
  - { offset: 0x242B7, size: 0x8, addend: 0x0, symName: __RNvYNtNtCsemR3zGJppC3_18tracing_attributes6expand15ImplTraitEraserNtNtNtCsc29TF2YcYso_3syn3gen9visit_mut8VisitMut19visit_type_path_mutB6_, symObjAddr: 0x105C, symBinAddr: 0x139F0, symSize: 0x3C }
  - { offset: 0x242F9, size: 0x8, addend: 0x0, symName: __RNvYNtNtCsemR3zGJppC3_18tracing_attributes6expand15ImplTraitEraserNtNtNtCsc29TF2YcYso_3syn3gen9visit_mut8VisitMut19visit_use_group_mutB6_, symObjAddr: 0x1098, symBinAddr: 0x13A2C, symSize: 0x3C }
  - { offset: 0x2433B, size: 0x8, addend: 0x0, symName: __RNvYNtNtCsemR3zGJppC3_18tracing_attributes6expand15ImplTraitEraserNtNtNtCsc29TF2YcYso_3syn3gen9visit_mut8VisitMut20visit_assoc_type_mutB6_, symObjAddr: 0x10D4, symBinAddr: 0x13A68, symSize: 0x3C }
  - { offset: 0x2437A, size: 0x8, addend: 0x0, symName: __RNvYNtNtCsemR3zGJppC3_18tracing_attributes6expand15ImplTraitEraserNtNtNtCsc29TF2YcYso_3syn3gen9visit_mut8VisitMut20visit_attr_style_mutB6_, symObjAddr: 0x1110, symBinAddr: 0x13AA4, symSize: 0x3C }
  - { offset: 0x243B9, size: 0x8, addend: 0x0, symName: __RNvYNtNtCsemR3zGJppC3_18tracing_attributes6expand15ImplTraitEraserNtNtNtCsc29TF2YcYso_3syn3gen9visit_mut8VisitMut20visit_attributes_mutB6_, symObjAddr: 0x114C, symBinAddr: 0x13AE0, symSize: 0x98 }
  - { offset: 0x24432, size: 0x8, addend: 0x0, symName: __RNvYNtNtCsemR3zGJppC3_18tracing_attributes6expand15ImplTraitEraserNtNtNtCsc29TF2YcYso_3syn3gen9visit_mut8VisitMut20visit_constraint_mutB6_, symObjAddr: 0x11E4, symBinAddr: 0x13B78, symSize: 0x3C }
  - { offset: 0x24471, size: 0x8, addend: 0x0, symName: __RNvYNtNtCsemR3zGJppC3_18tracing_attributes6expand15ImplTraitEraserNtNtNtCsc29TF2YcYso_3syn3gen9visit_mut8VisitMut20visit_expr_array_mutB6_, symObjAddr: 0x1220, symBinAddr: 0x13BB4, symSize: 0x3C }
  - { offset: 0x244B0, size: 0x8, addend: 0x0, symName: __RNvYNtNtCsemR3zGJppC3_18tracing_attributes6expand15ImplTraitEraserNtNtNtCsc29TF2YcYso_3syn3gen9visit_mut8VisitMut20visit_expr_async_mutB6_, symObjAddr: 0x125C, symBinAddr: 0x13BF0, symSize: 0x3C }
  - { offset: 0x244EF, size: 0x8, addend: 0x0, symName: __RNvYNtNtCsemR3zGJppC3_18tracing_attributes6expand15ImplTraitEraserNtNtNtCsc29TF2YcYso_3syn3gen9visit_mut8VisitMut20visit_expr_await_mutB6_, symObjAddr: 0x1298, symBinAddr: 0x13C2C, symSize: 0x3C }
  - { offset: 0x2452E, size: 0x8, addend: 0x0, symName: __RNvYNtNtCsemR3zGJppC3_18tracing_attributes6expand15ImplTraitEraserNtNtNtCsc29TF2YcYso_3syn3gen9visit_mut8VisitMut20visit_expr_block_mutB6_, symObjAddr: 0x12D4, symBinAddr: 0x13C68, symSize: 0x3C }
  - { offset: 0x2456D, size: 0x8, addend: 0x0, symName: __RNvYNtNtCsemR3zGJppC3_18tracing_attributes6expand15ImplTraitEraserNtNtNtCsc29TF2YcYso_3syn3gen9visit_mut8VisitMut20visit_expr_break_mutB6_, symObjAddr: 0x1310, symBinAddr: 0x13CA4, symSize: 0x3C }
  - { offset: 0x245AC, size: 0x8, addend: 0x0, symName: __RNvYNtNtCsemR3zGJppC3_18tracing_attributes6expand15ImplTraitEraserNtNtNtCsc29TF2YcYso_3syn3gen9visit_mut8VisitMut20visit_expr_const_mutB6_, symObjAddr: 0x134C, symBinAddr: 0x13CE0, symSize: 0x3C }
  - { offset: 0x245EB, size: 0x8, addend: 0x0, symName: __RNvYNtNtCsemR3zGJppC3_18tracing_attributes6expand15ImplTraitEraserNtNtNtCsc29TF2YcYso_3syn3gen9visit_mut8VisitMut20visit_expr_field_mutB6_, symObjAddr: 0x1388, symBinAddr: 0x13D1C, symSize: 0x3C }
  - { offset: 0x2462A, size: 0x8, addend: 0x0, symName: __RNvYNtNtCsemR3zGJppC3_18tracing_attributes6expand15ImplTraitEraserNtNtNtCsc29TF2YcYso_3syn3gen9visit_mut8VisitMut20visit_expr_group_mutB6_, symObjAddr: 0x13C4, symBinAddr: 0x13D58, symSize: 0x3C }
  - { offset: 0x24669, size: 0x8, addend: 0x0, symName: __RNvYNtNtCsemR3zGJppC3_18tracing_attributes6expand15ImplTraitEraserNtNtNtCsc29TF2YcYso_3syn3gen9visit_mut8VisitMut20visit_expr_index_mutB6_, symObjAddr: 0x1400, symBinAddr: 0x13D94, symSize: 0x3C }
  - { offset: 0x246A8, size: 0x8, addend: 0x0, symName: __RNvYNtNtCsemR3zGJppC3_18tracing_attributes6expand15ImplTraitEraserNtNtNtCsc29TF2YcYso_3syn3gen9visit_mut8VisitMut20visit_expr_infer_mutB6_, symObjAddr: 0x143C, symBinAddr: 0x13DD0, symSize: 0x3C }
  - { offset: 0x246E7, size: 0x8, addend: 0x0, symName: __RNvYNtNtCsemR3zGJppC3_18tracing_attributes6expand15ImplTraitEraserNtNtNtCsc29TF2YcYso_3syn3gen9visit_mut8VisitMut20visit_expr_macro_mutB6_, symObjAddr: 0x1478, symBinAddr: 0x13E0C, symSize: 0x3C }
  - { offset: 0x24726, size: 0x8, addend: 0x0, symName: __RNvYNtNtCsemR3zGJppC3_18tracing_attributes6expand15ImplTraitEraserNtNtNtCsc29TF2YcYso_3syn3gen9visit_mut8VisitMut20visit_expr_match_mutB6_, symObjAddr: 0x14B4, symBinAddr: 0x13E48, symSize: 0x3C }
  - { offset: 0x24768, size: 0x8, addend: 0x0, symName: __RNvYNtNtCsemR3zGJppC3_18tracing_attributes6expand15ImplTraitEraserNtNtNtCsc29TF2YcYso_3syn3gen9visit_mut8VisitMut20visit_expr_paren_mutB6_, symObjAddr: 0x14F0, symBinAddr: 0x13E84, symSize: 0x3C }
  - { offset: 0x247AA, size: 0x8, addend: 0x0, symName: __RNvYNtNtCsemR3zGJppC3_18tracing_attributes6expand15ImplTraitEraserNtNtNtCsc29TF2YcYso_3syn3gen9visit_mut8VisitMut20visit_expr_range_mutB6_, symObjAddr: 0x152C, symBinAddr: 0x13EC0, symSize: 0x3C }
  - { offset: 0x247EC, size: 0x8, addend: 0x0, symName: __RNvYNtNtCsemR3zGJppC3_18tracing_attributes6expand15ImplTraitEraserNtNtNtCsc29TF2YcYso_3syn3gen9visit_mut8VisitMut20visit_expr_tuple_mutB6_, symObjAddr: 0x1568, symBinAddr: 0x13EFC, symSize: 0x3C }
  - { offset: 0x2482E, size: 0x8, addend: 0x0, symName: __RNvYNtNtCsemR3zGJppC3_18tracing_attributes6expand15ImplTraitEraserNtNtNtCsc29TF2YcYso_3syn3gen9visit_mut8VisitMut20visit_expr_unary_mutB6_, symObjAddr: 0x15A4, symBinAddr: 0x13F38, symSize: 0x3C }
  - { offset: 0x24870, size: 0x8, addend: 0x0, symName: __RNvYNtNtCsemR3zGJppC3_18tracing_attributes6expand15ImplTraitEraserNtNtNtCsc29TF2YcYso_3syn3gen9visit_mut8VisitMut20visit_expr_while_mutB6_, symObjAddr: 0x15E0, symBinAddr: 0x13F74, symSize: 0x3C }
  - { offset: 0x248B2, size: 0x8, addend: 0x0, symName: __RNvYNtNtCsemR3zGJppC3_18tracing_attributes6expand15ImplTraitEraserNtNtNtCsc29TF2YcYso_3syn3gen9visit_mut8VisitMut20visit_expr_yield_mutB6_, symObjAddr: 0x161C, symBinAddr: 0x13FB0, symSize: 0x3C }
  - { offset: 0x248F4, size: 0x8, addend: 0x0, symName: __RNvYNtNtCsemR3zGJppC3_18tracing_attributes6expand15ImplTraitEraserNtNtNtCsc29TF2YcYso_3syn3gen9visit_mut8VisitMut20visit_item_const_mutB6_, symObjAddr: 0x1658, symBinAddr: 0x13FEC, symSize: 0x3C }
  - { offset: 0x24936, size: 0x8, addend: 0x0, symName: __RNvYNtNtCsemR3zGJppC3_18tracing_attributes6expand15ImplTraitEraserNtNtNtCsc29TF2YcYso_3syn3gen9visit_mut8VisitMut20visit_item_macro_mutB6_, symObjAddr: 0x1694, symBinAddr: 0x14028, symSize: 0x3C }
  - { offset: 0x24978, size: 0x8, addend: 0x0, symName: __RNvYNtNtCsemR3zGJppC3_18tracing_attributes6expand15ImplTraitEraserNtNtNtCsc29TF2YcYso_3syn3gen9visit_mut8VisitMut20visit_item_trait_mutB6_, symObjAddr: 0x16D0, symBinAddr: 0x14064, symSize: 0x3C }
  - { offset: 0x249BA, size: 0x8, addend: 0x0, symName: __RNvYNtNtCsemR3zGJppC3_18tracing_attributes6expand15ImplTraitEraserNtNtNtCsc29TF2YcYso_3syn3gen9visit_mut8VisitMut20visit_item_union_mutB6_, symObjAddr: 0x170C, symBinAddr: 0x140A0, symSize: 0x3C }
  - { offset: 0x249FC, size: 0x8, addend: 0x0, symName: __RNvYNtNtCsemR3zGJppC3_18tracing_attributes6expand15ImplTraitEraserNtNtNtCsc29TF2YcYso_3syn3gen9visit_mut8VisitMut20visit_local_init_mutB6_, symObjAddr: 0x1748, symBinAddr: 0x140DC, symSize: 0x3C }
  - { offset: 0x24A3E, size: 0x8, addend: 0x0, symName: __RNvYNtNtCsemR3zGJppC3_18tracing_attributes6expand15ImplTraitEraserNtNtNtCsc29TF2YcYso_3syn3gen9visit_mut8VisitMut20visit_pat_struct_mutB6_, symObjAddr: 0x1784, symBinAddr: 0x14118, symSize: 0x3C }
  - { offset: 0x24A80, size: 0x8, addend: 0x0, symName: __RNvYNtNtCsemR3zGJppC3_18tracing_attributes6expand15ImplTraitEraserNtNtNtCsc29TF2YcYso_3syn3gen9visit_mut8VisitMut20visit_stmt_macro_mutB6_, symObjAddr: 0x17C0, symBinAddr: 0x14154, symSize: 0x3C }
  - { offset: 0x24AC2, size: 0x8, addend: 0x0, symName: __RNvYNtNtCsemR3zGJppC3_18tracing_attributes6expand15ImplTraitEraserNtNtNtCsc29TF2YcYso_3syn3gen9visit_mut8VisitMut20visit_trait_item_mutB6_, symObjAddr: 0x17FC, symBinAddr: 0x14190, symSize: 0x3C }
  - { offset: 0x24B04, size: 0x8, addend: 0x0, symName: __RNvYNtNtCsemR3zGJppC3_18tracing_attributes6expand15ImplTraitEraserNtNtNtCsc29TF2YcYso_3syn3gen9visit_mut8VisitMut20visit_type_array_mutB6_, symObjAddr: 0x1838, symBinAddr: 0x141CC, symSize: 0x3C }
  - { offset: 0x24B46, size: 0x8, addend: 0x0, symName: __RNvYNtNtCsemR3zGJppC3_18tracing_attributes6expand15ImplTraitEraserNtNtNtCsc29TF2YcYso_3syn3gen9visit_mut8VisitMut20visit_type_group_mutB6_, symObjAddr: 0x1874, symBinAddr: 0x14208, symSize: 0x3C }
  - { offset: 0x24B88, size: 0x8, addend: 0x0, symName: __RNvYNtNtCsemR3zGJppC3_18tracing_attributes6expand15ImplTraitEraserNtNtNtCsc29TF2YcYso_3syn3gen9visit_mut8VisitMut20visit_type_infer_mutB6_, symObjAddr: 0x18B0, symBinAddr: 0x14244, symSize: 0x3C }
  - { offset: 0x24BCA, size: 0x8, addend: 0x0, symName: __RNvYNtNtCsemR3zGJppC3_18tracing_attributes6expand15ImplTraitEraserNtNtNtCsc29TF2YcYso_3syn3gen9visit_mut8VisitMut20visit_type_macro_mutB6_, symObjAddr: 0x18EC, symBinAddr: 0x14280, symSize: 0x3C }
  - { offset: 0x24C0C, size: 0x8, addend: 0x0, symName: __RNvYNtNtCsemR3zGJppC3_18tracing_attributes6expand15ImplTraitEraserNtNtNtCsc29TF2YcYso_3syn3gen9visit_mut8VisitMut20visit_type_never_mutB6_, symObjAddr: 0x1928, symBinAddr: 0x142BC, symSize: 0x3C }
  - { offset: 0x24C4E, size: 0x8, addend: 0x0, symName: __RNvYNtNtCsemR3zGJppC3_18tracing_attributes6expand15ImplTraitEraserNtNtNtCsc29TF2YcYso_3syn3gen9visit_mut8VisitMut20visit_type_param_mutB6_, symObjAddr: 0x1964, symBinAddr: 0x142F8, symSize: 0x3C }
  - { offset: 0x24C90, size: 0x8, addend: 0x0, symName: __RNvYNtNtCsemR3zGJppC3_18tracing_attributes6expand15ImplTraitEraserNtNtNtCsc29TF2YcYso_3syn3gen9visit_mut8VisitMut20visit_type_paren_mutB6_, symObjAddr: 0x19A0, symBinAddr: 0x14334, symSize: 0x3C }
  - { offset: 0x24CD2, size: 0x8, addend: 0x0, symName: __RNvYNtNtCsemR3zGJppC3_18tracing_attributes6expand15ImplTraitEraserNtNtNtCsc29TF2YcYso_3syn3gen9visit_mut8VisitMut20visit_type_slice_mutB6_, symObjAddr: 0x19DC, symBinAddr: 0x14370, symSize: 0x3C }
  - { offset: 0x24D14, size: 0x8, addend: 0x0, symName: __RNvYNtNtCsemR3zGJppC3_18tracing_attributes6expand15ImplTraitEraserNtNtNtCsc29TF2YcYso_3syn3gen9visit_mut8VisitMut20visit_type_tuple_mutB6_, symObjAddr: 0x1A18, symBinAddr: 0x143AC, symSize: 0x3C }
  - { offset: 0x24D56, size: 0x8, addend: 0x0, symName: __RNvYNtNtCsemR3zGJppC3_18tracing_attributes6expand15ImplTraitEraserNtNtNtCsc29TF2YcYso_3syn3gen9visit_mut8VisitMut20visit_use_rename_mutB6_, symObjAddr: 0x1A54, symBinAddr: 0x143E8, symSize: 0x3C }
  - { offset: 0x24D98, size: 0x8, addend: 0x0, symName: __RNvYNtNtCsemR3zGJppC3_18tracing_attributes6expand15ImplTraitEraserNtNtNtCsc29TF2YcYso_3syn3gen9visit_mut8VisitMut20visit_visibility_mutB6_, symObjAddr: 0x1A90, symBinAddr: 0x14424, symSize: 0x3C }
  - { offset: 0x24DDA, size: 0x8, addend: 0x0, symName: __RNvYNtNtCsemR3zGJppC3_18tracing_attributes6expand15ImplTraitEraserNtNtNtCsc29TF2YcYso_3syn3gen9visit_mut8VisitMut21visit_assoc_const_mutB6_, symObjAddr: 0x1ACC, symBinAddr: 0x14460, symSize: 0x3C }
  - { offset: 0x24E19, size: 0x8, addend: 0x0, symName: __RNvYNtNtCsemR3zGJppC3_18tracing_attributes6expand15ImplTraitEraserNtNtNtCsc29TF2YcYso_3syn3gen9visit_mut8VisitMut21visit_bare_fn_arg_mutB6_, symObjAddr: 0x1B08, symBinAddr: 0x1449C, symSize: 0x3C }
  - { offset: 0x24E58, size: 0x8, addend: 0x0, symName: __RNvYNtNtCsemR3zGJppC3_18tracing_attributes6expand15ImplTraitEraserNtNtNtCsc29TF2YcYso_3syn3gen9visit_mut8VisitMut21visit_const_param_mutB6_, symObjAddr: 0x1B44, symBinAddr: 0x144D8, symSize: 0x3C }
  - { offset: 0x24E97, size: 0x8, addend: 0x0, symName: __RNvYNtNtCsemR3zGJppC3_18tracing_attributes6expand15ImplTraitEraserNtNtNtCsc29TF2YcYso_3syn3gen9visit_mut8VisitMut21visit_expr_assign_mutB6_, symObjAddr: 0x1B80, symBinAddr: 0x14514, symSize: 0x3C }
  - { offset: 0x24ED6, size: 0x8, addend: 0x0, symName: __RNvYNtNtCsemR3zGJppC3_18tracing_attributes6expand15ImplTraitEraserNtNtNtCsc29TF2YcYso_3syn3gen9visit_mut8VisitMut21visit_expr_binary_mutB6_, symObjAddr: 0x1BBC, symBinAddr: 0x14550, symSize: 0x3C }
  - { offset: 0x24F15, size: 0x8, addend: 0x0, symName: __RNvYNtNtCsemR3zGJppC3_18tracing_attributes6expand15ImplTraitEraserNtNtNtCsc29TF2YcYso_3syn3gen9visit_mut8VisitMut21visit_expr_repeat_mutB6_, symObjAddr: 0x1BF8, symBinAddr: 0x1458C, symSize: 0x3C }
  - { offset: 0x24F57, size: 0x8, addend: 0x0, symName: __RNvYNtNtCsemR3zGJppC3_18tracing_attributes6expand15ImplTraitEraserNtNtNtCsc29TF2YcYso_3syn3gen9visit_mut8VisitMut21visit_expr_return_mutB6_, symObjAddr: 0x1C34, symBinAddr: 0x145C8, symSize: 0x3C }
  - { offset: 0x24F99, size: 0x8, addend: 0x0, symName: __RNvYNtNtCsemR3zGJppC3_18tracing_attributes6expand15ImplTraitEraserNtNtNtCsc29TF2YcYso_3syn3gen9visit_mut8VisitMut21visit_expr_struct_mutB6_, symObjAddr: 0x1C70, symBinAddr: 0x14604, symSize: 0x3C }
  - { offset: 0x24FDB, size: 0x8, addend: 0x0, symName: __RNvYNtNtCsemR3zGJppC3_18tracing_attributes6expand15ImplTraitEraserNtNtNtCsc29TF2YcYso_3syn3gen9visit_mut8VisitMut21visit_expr_unsafe_mutB6_, symObjAddr: 0x1CAC, symBinAddr: 0x14640, symSize: 0x3C }
  - { offset: 0x2501D, size: 0x8, addend: 0x0, symName: __RNvYNtNtCsemR3zGJppC3_18tracing_attributes6expand15ImplTraitEraserNtNtNtCsc29TF2YcYso_3syn3gen9visit_mut8VisitMut21visit_field_value_mutB6_, symObjAddr: 0x1CE8, symBinAddr: 0x1467C, symSize: 0x3C }
  - { offset: 0x2505F, size: 0x8, addend: 0x0, symName: __RNvYNtNtCsemR3zGJppC3_18tracing_attributes6expand15ImplTraitEraserNtNtNtCsc29TF2YcYso_3syn3gen9visit_mut8VisitMut21visit_item_static_mutB6_, symObjAddr: 0x1D24, symBinAddr: 0x146B8, symSize: 0x3C }
  - { offset: 0x250A1, size: 0x8, addend: 0x0, symName: __RNvYNtNtCsemR3zGJppC3_18tracing_attributes6expand15ImplTraitEraserNtNtNtCsc29TF2YcYso_3syn3gen9visit_mut8VisitMut21visit_item_struct_mutB6_, symObjAddr: 0x1D60, symBinAddr: 0x146F4, symSize: 0x3C }
  - { offset: 0x250E3, size: 0x8, addend: 0x0, symName: __RNvYNtNtCsemR3zGJppC3_18tracing_attributes6expand15ImplTraitEraserNtNtNtCsc29TF2YcYso_3syn3gen9visit_mut8VisitMut21visit_return_type_mutB6_, symObjAddr: 0x1D9C, symBinAddr: 0x14730, symSize: 0x3C }
  - { offset: 0x25125, size: 0x8, addend: 0x0, symName: __RNvYNtNtCsemR3zGJppC3_18tracing_attributes6expand15ImplTraitEraserNtNtNtCsc29TF2YcYso_3syn3gen9visit_mut8VisitMut21visit_trait_bound_mutB6_, symObjAddr: 0x1DD8, symBinAddr: 0x1476C, symSize: 0x3C }
  - { offset: 0x25167, size: 0x8, addend: 0x0, symName: __RNvYNtNtCsemR3zGJppC3_18tracing_attributes6expand15ImplTraitEraserNtNtNtCsc29TF2YcYso_3syn3gen9visit_mut8VisitMut22visit_expr_closure_mutB6_, symObjAddr: 0x1E14, symBinAddr: 0x147A8, symSize: 0x3C }
  - { offset: 0x251A6, size: 0x8, addend: 0x0, symName: __RNvYNtNtCsemR3zGJppC3_18tracing_attributes6expand15ImplTraitEraserNtNtNtCsc29TF2YcYso_3syn3gen9visit_mut8VisitMut22visit_fields_named_mutB6_, symObjAddr: 0x1E50, symBinAddr: 0x147E4, symSize: 0x3C }
  - { offset: 0x251E8, size: 0x8, addend: 0x0, symName: __RNvYNtNtCsemR3zGJppC3_18tracing_attributes6expand15ImplTraitEraserNtNtNtCsc29TF2YcYso_3syn3gen9visit_mut8VisitMut22visit_foreign_item_mutB6_, symObjAddr: 0x1E8C, symBinAddr: 0x14820, symSize: 0x3C }
  - { offset: 0x2522A, size: 0x8, addend: 0x0, symName: __RNvYNtNtCsemR3zGJppC3_18tracing_attributes6expand15ImplTraitEraserNtNtNtCsc29TF2YcYso_3syn3gen9visit_mut8VisitMut22visit_impl_item_fn_mutB6_, symObjAddr: 0x1EC8, symBinAddr: 0x1485C, symSize: 0x3C }
  - { offset: 0x2526C, size: 0x8, addend: 0x0, symName: __RNvYNtNtCsemR3zGJppC3_18tracing_attributes6expand15ImplTraitEraserNtNtNtCsc29TF2YcYso_3syn3gen9visit_mut8VisitMut22visit_lit_byte_str_mutB6_, symObjAddr: 0x1F04, symBinAddr: 0x14898, symSize: 0x3C }
  - { offset: 0x252AE, size: 0x8, addend: 0x0, symName: __RNvYNtNtCsemR3zGJppC3_18tracing_attributes6expand15ImplTraitEraserNtNtNtCsc29TF2YcYso_3syn3gen9visit_mut8VisitMut22visit_path_segment_mutB6_, symObjAddr: 0x1F40, symBinAddr: 0x148D4, symSize: 0x3C }
  - { offset: 0x252F0, size: 0x8, addend: 0x0, symName: __RNvYNtNtCsemR3zGJppC3_18tracing_attributes6expand15ImplTraitEraserNtNtNtCsc29TF2YcYso_3syn3gen9visit_mut8VisitMut22visit_range_limits_mutB6_, symObjAddr: 0x1F7C, symBinAddr: 0x14910, symSize: 0x3C }
  - { offset: 0x25332, size: 0x8, addend: 0x0, symName: __RNvYNtNtCsemR3zGJppC3_18tracing_attributes6expand15ImplTraitEraserNtNtNtCsc29TF2YcYso_3syn3gen9visit_mut8VisitMut22visit_token_stream_mutB6_, symObjAddr: 0x1FB8, symBinAddr: 0x1494C, symSize: 0x24 }
  - { offset: 0x25374, size: 0x8, addend: 0x0, symName: __RNvYNtNtCsemR3zGJppC3_18tracing_attributes6expand15ImplTraitEraserNtNtNtCsc29TF2YcYso_3syn3gen9visit_mut8VisitMut22visit_type_bare_fn_mutB6_, symObjAddr: 0x1FDC, symBinAddr: 0x14970, symSize: 0x3C }
  - { offset: 0x253B6, size: 0x8, addend: 0x0, symName: __RNvYNtNtCsemR3zGJppC3_18tracing_attributes6expand15ImplTraitEraserNtNtNtCsc29TF2YcYso_3syn3gen9visit_mut8VisitMut22visit_where_clause_mutB6_, symObjAddr: 0x2018, symBinAddr: 0x149AC, symSize: 0x3C }
  - { offset: 0x253F8, size: 0x8, addend: 0x0, symName: __RNvYNtNtCsemR3zGJppC3_18tracing_attributes6expand15ImplTraitEraserNtNtNtCsc29TF2YcYso_3syn3gen9visit_mut8VisitMut23visit_bare_variadic_mutB6_, symObjAddr: 0x2054, symBinAddr: 0x149E8, symSize: 0x3C }
  - { offset: 0x25437, size: 0x8, addend: 0x0, symName: __RNvYNtNtCsemR3zGJppC3_18tracing_attributes6expand15ImplTraitEraserNtNtNtCsc29TF2YcYso_3syn3gen9visit_mut8VisitMut23visit_expr_continue_mutB6_, symObjAddr: 0x2090, symBinAddr: 0x14A24, symSize: 0x3C }
  - { offset: 0x25476, size: 0x8, addend: 0x0, symName: __RNvYNtNtCsemR3zGJppC3_18tracing_attributes6expand15ImplTraitEraserNtNtNtCsc29TF2YcYso_3syn3gen9visit_mut8VisitMut23visit_expr_for_loop_mutB6_, symObjAddr: 0x20CC, symBinAddr: 0x14A60, symSize: 0x3C }
  - { offset: 0x254B5, size: 0x8, addend: 0x0, symName: __RNvYNtNtCsemR3zGJppC3_18tracing_attributes6expand15ImplTraitEraserNtNtNtCsc29TF2YcYso_3syn3gen9visit_mut8VisitMut23visit_expr_raw_addr_mutB6_, symObjAddr: 0x2108, symBinAddr: 0x14A9C, symSize: 0x3C }
  - { offset: 0x254F7, size: 0x8, addend: 0x0, symName: __RNvYNtNtCsemR3zGJppC3_18tracing_attributes6expand15ImplTraitEraserNtNtNtCsc29TF2YcYso_3syn3gen9visit_mut8VisitMut23visit_generic_param_mutB6_, symObjAddr: 0x2144, symBinAddr: 0x14AD8, symSize: 0x3C }
  - { offset: 0x25539, size: 0x8, addend: 0x0, symName: __RNvYNtNtCsemR3zGJppC3_18tracing_attributes6expand15ImplTraitEraserNtNtNtCsc29TF2YcYso_3syn3gen9visit_mut8VisitMut23visit_pat_reference_mutB6_, symObjAddr: 0x2180, symBinAddr: 0x14B14, symSize: 0x3C }
  - { offset: 0x2557B, size: 0x8, addend: 0x0, symName: __RNvYNtNtCsemR3zGJppC3_18tracing_attributes6expand15ImplTraitEraserNtNtNtCsc29TF2YcYso_3syn3gen9visit_mut8VisitMut23visit_trait_item_fn_mutB6_, symObjAddr: 0x21BC, symBinAddr: 0x14B50, symSize: 0x3C }
  - { offset: 0x255BD, size: 0x8, addend: 0x0, symName: __RNvYNtNtCsemR3zGJppC3_18tracing_attributes6expand15ImplTraitEraserNtNtNtCsc29TF2YcYso_3syn3gen9visit_mut8VisitMut24visit_captured_param_mutB6_, symObjAddr: 0x21F8, symBinAddr: 0x14B8C, symSize: 0x3C }
  - { offset: 0x255FC, size: 0x8, addend: 0x0, symName: __RNvYNtNtCsemR3zGJppC3_18tracing_attributes6expand15ImplTraitEraserNtNtNtCsc29TF2YcYso_3syn3gen9visit_mut8VisitMut24visit_expr_reference_mutB6_, symObjAddr: 0x2234, symBinAddr: 0x14BC8, symSize: 0x3C }
  - { offset: 0x2563E, size: 0x8, addend: 0x0, symName: __RNvYNtNtCsemR3zGJppC3_18tracing_attributes6expand15ImplTraitEraserNtNtNtCsc29TF2YcYso_3syn3gen9visit_mut8VisitMut24visit_expr_try_block_mutB6_, symObjAddr: 0x2270, symBinAddr: 0x14C04, symSize: 0x3C }
  - { offset: 0x25680, size: 0x8, addend: 0x0, symName: __RNvYNtNtCsemR3zGJppC3_18tracing_attributes6expand15ImplTraitEraserNtNtNtCsc29TF2YcYso_3syn3gen9visit_mut8VisitMut24visit_fields_unnamed_mutB6_, symObjAddr: 0x22AC, symBinAddr: 0x14C40, symSize: 0x3C }
  - { offset: 0x256C2, size: 0x8, addend: 0x0, symName: __RNvYNtNtCsemR3zGJppC3_18tracing_attributes6expand15ImplTraitEraserNtNtNtCsc29TF2YcYso_3syn3gen9visit_mut8VisitMut24visit_impl_item_type_mutB6_, symObjAddr: 0x22E8, symBinAddr: 0x14C7C, symSize: 0x3C }
  - { offset: 0x25704, size: 0x8, addend: 0x0, symName: __RNvYNtNtCsemR3zGJppC3_18tracing_attributes6expand15ImplTraitEraserNtNtNtCsc29TF2YcYso_3syn3gen9visit_mut8VisitMut24visit_lifetime_param_mutB6_, symObjAddr: 0x2324, symBinAddr: 0x14CB8, symSize: 0x3C }
  - { offset: 0x25746, size: 0x8, addend: 0x0, symName: __RNvYNtNtCsemR3zGJppC3_18tracing_attributes6expand15ImplTraitEraserNtNtNtCsc29TF2YcYso_3syn3gen9visit_mut8VisitMut24visit_path_arguments_mutB6_, symObjAddr: 0x2360, symBinAddr: 0x14CF4, symSize: 0x3C }
  - { offset: 0x25788, size: 0x8, addend: 0x0, symName: __RNvYNtNtCsemR3zGJppC3_18tracing_attributes6expand15ImplTraitEraserNtNtNtCsc29TF2YcYso_3syn3gen9visit_mut8VisitMut24visit_predicate_type_mutB6_, symObjAddr: 0x239C, symBinAddr: 0x14D30, symSize: 0x3C }
  - { offset: 0x257CA, size: 0x8, addend: 0x0, symName: __RNvYNtNtCsemR3zGJppC3_18tracing_attributes6expand15ImplTraitEraserNtNtNtCsc29TF2YcYso_3syn3gen9visit_mut8VisitMut24visit_type_reference_mutB6_, symObjAddr: 0x23D8, symBinAddr: 0x14D6C, symSize: 0x3C }
  - { offset: 0x2580C, size: 0x8, addend: 0x0, symName: __RNvYNtNtCsemR3zGJppC3_18tracing_attributes6expand15ImplTraitEraserNtNtNtCsc29TF2YcYso_3syn3gen9visit_mut8VisitMut24visit_vis_restricted_mutB6_, symObjAddr: 0x2414, symBinAddr: 0x14DA8, symSize: 0x3C }
  - { offset: 0x2584E, size: 0x8, addend: 0x0, symName: __RNvYNtNtCsemR3zGJppC3_18tracing_attributes6expand15ImplTraitEraserNtNtNtCsc29TF2YcYso_3syn3gen9visit_mut8VisitMut25visit_bound_lifetimes_mutB6_, symObjAddr: 0x2450, symBinAddr: 0x14DE4, symSize: 0x3C }
  - { offset: 0x2588D, size: 0x8, addend: 0x0, symName: __RNvYNtNtCsemR3zGJppC3_18tracing_attributes6expand15ImplTraitEraserNtNtNtCsc29TF2YcYso_3syn3gen9visit_mut8VisitMut25visit_foreign_item_fn_mutB6_, symObjAddr: 0x248C, symBinAddr: 0x14E20, symSize: 0x3C }
  - { offset: 0x258CF, size: 0x8, addend: 0x0, symName: __RNvYNtNtCsemR3zGJppC3_18tracing_attributes6expand15ImplTraitEraserNtNtNtCsc29TF2YcYso_3syn3gen9visit_mut8VisitMut25visit_impl_item_const_mutB6_, symObjAddr: 0x24C8, symBinAddr: 0x14E5C, symSize: 0x3C }
  - { offset: 0x25911, size: 0x8, addend: 0x0, symName: __RNvYNtNtCsemR3zGJppC3_18tracing_attributes6expand15ImplTraitEraserNtNtNtCsc29TF2YcYso_3syn3gen9visit_mut8VisitMut25visit_impl_item_macro_mutB6_, symObjAddr: 0x2504, symBinAddr: 0x14E98, symSize: 0x3C }
  - { offset: 0x25953, size: 0x8, addend: 0x0, symName: __RNvYNtNtCsemR3zGJppC3_18tracing_attributes6expand15ImplTraitEraserNtNtNtCsc29TF2YcYso_3syn3gen9visit_mut8VisitMut25visit_macro_delimiter_mutB6_, symObjAddr: 0x2540, symBinAddr: 0x14ED4, symSize: 0x3C }
  - { offset: 0x25995, size: 0x8, addend: 0x0, symName: __RNvYNtNtCsemR3zGJppC3_18tracing_attributes6expand15ImplTraitEraserNtNtNtCsc29TF2YcYso_3syn3gen9visit_mut8VisitMut25visit_meta_name_value_mutB6_, symObjAddr: 0x257C, symBinAddr: 0x14F10, symSize: 0x3C }
  - { offset: 0x259D7, size: 0x8, addend: 0x0, symName: __RNvYNtNtCsemR3zGJppC3_18tracing_attributes6expand15ImplTraitEraserNtNtNtCsc29TF2YcYso_3syn3gen9visit_mut8VisitMut25visit_precise_capture_mutB6_, symObjAddr: 0x25B8, symBinAddr: 0x14F4C, symSize: 0x3C }
  - { offset: 0x25A19, size: 0x8, addend: 0x0, symName: __RNvYNtNtCsemR3zGJppC3_18tracing_attributes6expand15ImplTraitEraserNtNtNtCsc29TF2YcYso_3syn3gen9visit_mut8VisitMut25visit_trait_item_type_mutB6_, symObjAddr: 0x25F4, symBinAddr: 0x14F88, symSize: 0x3C }
  - { offset: 0x25A5B, size: 0x8, addend: 0x0, symName: __RNvYNtNtCsemR3zGJppC3_18tracing_attributes6expand15ImplTraitEraserNtNtNtCsc29TF2YcYso_3syn3gen9visit_mut8VisitMut25visit_type_impl_trait_mutB6_, symObjAddr: 0x2630, symBinAddr: 0x14FC4, symSize: 0x3C }
  - { offset: 0x25A9D, size: 0x8, addend: 0x0, symName: __RNvYNtNtCsemR3zGJppC3_18tracing_attributes6expand15ImplTraitEraserNtNtNtCsc29TF2YcYso_3syn3gen9visit_mut8VisitMut25visit_where_predicate_mutB6_, symObjAddr: 0x266C, symBinAddr: 0x15000, symSize: 0x3C }
  - { offset: 0x25ADF, size: 0x8, addend: 0x0, symName: __RNvYNtNtCsemR3zGJppC3_18tracing_attributes6expand15ImplTraitEraserNtNtNtCsc29TF2YcYso_3syn3gen9visit_mut8VisitMut26visit_expr_method_call_mutB6_, symObjAddr: 0x26A8, symBinAddr: 0x1503C, symSize: 0x3C }
  - { offset: 0x25B21, size: 0x8, addend: 0x0, symName: __RNvYNtNtCsemR3zGJppC3_18tracing_attributes6expand15ImplTraitEraserNtNtNtCsc29TF2YcYso_3syn3gen9visit_mut8VisitMut26visit_field_mutability_mutB6_, symObjAddr: 0x26E4, symBinAddr: 0x15078, symSize: 0x3C }
  - { offset: 0x25B63, size: 0x8, addend: 0x0, symName: __RNvYNtNtCsemR3zGJppC3_18tracing_attributes6expand15ImplTraitEraserNtNtNtCsc29TF2YcYso_3syn3gen9visit_mut8VisitMut26visit_generic_argument_mutB6_, symObjAddr: 0x2720, symBinAddr: 0x150B4, symSize: 0x3C }
  - { offset: 0x25BA5, size: 0x8, addend: 0x0, symName: __RNvYNtNtCsemR3zGJppC3_18tracing_attributes6expand15ImplTraitEraserNtNtNtCsc29TF2YcYso_3syn3gen9visit_mut8VisitMut26visit_item_foreign_mod_mutB6_, symObjAddr: 0x275C, symBinAddr: 0x150F0, symSize: 0x3C }
  - { offset: 0x25BE7, size: 0x8, addend: 0x0, symName: __RNvYNtNtCsemR3zGJppC3_18tracing_attributes6expand15ImplTraitEraserNtNtNtCsc29TF2YcYso_3syn3gen9visit_mut8VisitMut26visit_item_trait_alias_mutB6_, symObjAddr: 0x2798, symBinAddr: 0x1512C, symSize: 0x3C }
  - { offset: 0x25C29, size: 0x8, addend: 0x0, symName: __RNvYNtNtCsemR3zGJppC3_18tracing_attributes6expand15ImplTraitEraserNtNtNtCsc29TF2YcYso_3syn3gen9visit_mut8VisitMut26visit_pat_tuple_struct_mutB6_, symObjAddr: 0x27D4, symBinAddr: 0x15168, symSize: 0x3C }
  - { offset: 0x25C6B, size: 0x8, addend: 0x0, symName: __RNvYNtNtCsemR3zGJppC3_18tracing_attributes6expand15ImplTraitEraserNtNtNtCsc29TF2YcYso_3syn3gen9visit_mut8VisitMut26visit_trait_item_const_mutB6_, symObjAddr: 0x2810, symBinAddr: 0x151A4, symSize: 0x3C }
  - { offset: 0x25CAD, size: 0x8, addend: 0x0, symName: __RNvYNtNtCsemR3zGJppC3_18tracing_attributes6expand15ImplTraitEraserNtNtNtCsc29TF2YcYso_3syn3gen9visit_mut8VisitMut26visit_trait_item_macro_mutB6_, symObjAddr: 0x284C, symBinAddr: 0x151E0, symSize: 0x3C }
  - { offset: 0x25CEF, size: 0x8, addend: 0x0, symName: __RNvYNtNtCsemR3zGJppC3_18tracing_attributes6expand15ImplTraitEraserNtNtNtCsc29TF2YcYso_3syn3gen9visit_mut8VisitMut26visit_type_param_bound_mutB6_, symObjAddr: 0x2888, symBinAddr: 0x1521C, symSize: 0x3C }
  - { offset: 0x25D31, size: 0x8, addend: 0x0, symName: __RNvYNtNtCsemR3zGJppC3_18tracing_attributes6expand15ImplTraitEraserNtNtNtCsc29TF2YcYso_3syn3gen9visit_mut8VisitMut27visit_foreign_item_type_mutB6_, symObjAddr: 0x28C4, symBinAddr: 0x15258, symSize: 0x3C }
  - { offset: 0x25D73, size: 0x8, addend: 0x0, symName: __RNvYNtNtCsemR3zGJppC3_18tracing_attributes6expand15ImplTraitEraserNtNtNtCsc29TF2YcYso_3syn3gen9visit_mut8VisitMut27visit_item_extern_crate_mutB6_, symObjAddr: 0x2900, symBinAddr: 0x15294, symSize: 0x3C }
  - { offset: 0x25DB5, size: 0x8, addend: 0x0, symName: __RNvYNtNtCsemR3zGJppC3_18tracing_attributes6expand15ImplTraitEraserNtNtNtCsc29TF2YcYso_3syn3gen9visit_mut8VisitMut27visit_static_mutability_mutB6_, symObjAddr: 0x293C, symBinAddr: 0x152D0, symSize: 0x3C }
  - { offset: 0x25DF7, size: 0x8, addend: 0x0, symName: __RNvYNtNtCsemR3zGJppC3_18tracing_attributes6expand15ImplTraitEraserNtNtNtCsc29TF2YcYso_3syn3gen9visit_mut8VisitMut27visit_type_trait_object_mutB6_, symObjAddr: 0x2978, symBinAddr: 0x1530C, symSize: 0x3C }
  - { offset: 0x25E39, size: 0x8, addend: 0x0, symName: __RNvYNtNtCsemR3zGJppC3_18tracing_attributes6expand15ImplTraitEraserNtNtNtCsc29TF2YcYso_3syn3gen9visit_mut8VisitMut28visit_foreign_item_macro_mutB6_, symObjAddr: 0x29B4, symBinAddr: 0x15348, symSize: 0x3C }
  - { offset: 0x25E7B, size: 0x8, addend: 0x0, symName: __RNvYNtNtCsemR3zGJppC3_18tracing_attributes6expand15ImplTraitEraserNtNtNtCsc29TF2YcYso_3syn3gen9visit_mut8VisitMut28visit_pointer_mutability_mutB6_, symObjAddr: 0x29F0, symBinAddr: 0x15384, symSize: 0x3C }
  - { offset: 0x25EBD, size: 0x8, addend: 0x0, symName: __RNvYNtNtCsemR3zGJppC3_18tracing_attributes6expand15ImplTraitEraserNtNtNtCsc29TF2YcYso_3syn3gen9visit_mut8VisitMut28visit_predicate_lifetime_mutB6_, symObjAddr: 0x2A2C, symBinAddr: 0x153C0, symSize: 0x3C }
  - { offset: 0x25EFF, size: 0x8, addend: 0x0, symName: __RNvYNtNtCsemR3zGJppC3_18tracing_attributes6expand15ImplTraitEraserNtNtNtCsc29TF2YcYso_3syn3gen9visit_mut8VisitMut29visit_foreign_item_static_mutB6_, symObjAddr: 0x2A68, symBinAddr: 0x153FC, symSize: 0x3C }
  - { offset: 0x25F41, size: 0x8, addend: 0x0, symName: __RNvYNtNtCsemR3zGJppC3_18tracing_attributes6expand15ImplTraitEraserNtNtNtCsc29TF2YcYso_3syn3gen9visit_mut8VisitMut30visit_trait_bound_modifier_mutB6_, symObjAddr: 0x2AA4, symBinAddr: 0x15438, symSize: 0x3C }
  - { offset: 0x25F83, size: 0x8, addend: 0x0, symName: __RNvYNtNtCsemR3zGJppC3_18tracing_attributes6expand15ImplTraitEraserNtNtNtCsc29TF2YcYso_3syn3gen9visit_mut8VisitMut41visit_parenthesized_generic_arguments_mutB6_, symObjAddr: 0x2AE0, symBinAddr: 0x15474, symSize: 0x3C }
  - { offset: 0x25FC5, size: 0x8, addend: 0x0, symName: __RNvYNtNtCsemR3zGJppC3_18tracing_attributes6expand15ImplTraitEraserNtNtNtCsc29TF2YcYso_3syn3gen9visit_mut8VisitMut43visit_angle_bracketed_generic_arguments_mutB6_, symObjAddr: 0x2B1C, symBinAddr: 0x154B0, symSize: 0x3C }
  - { offset: 0x26004, size: 0x8, addend: 0x0, symName: __RNvYNtNtCsemR3zGJppC3_18tracing_attributes6expand20IdentAndTypesRenamerNtNtNtCsc29TF2YcYso_3syn3gen9visit_mut8VisitMut13visit_abi_mutB6_, symObjAddr: 0x2B58, symBinAddr: 0x154EC, symSize: 0x3C }
  - { offset: 0x26043, size: 0x8, addend: 0x0, symName: __RNvYNtNtCsemR3zGJppC3_18tracing_attributes6expand20IdentAndTypesRenamerNtNtNtCsc29TF2YcYso_3syn3gen9visit_mut8VisitMut13visit_arm_mutB6_, symObjAddr: 0x2B94, symBinAddr: 0x15528, symSize: 0x3C }
  - { offset: 0x26082, size: 0x8, addend: 0x0, symName: __RNvYNtNtCsemR3zGJppC3_18tracing_attributes6expand20IdentAndTypesRenamerNtNtNtCsc29TF2YcYso_3syn3gen9visit_mut8VisitMut13visit_lit_mutB6_, symObjAddr: 0x2BD0, symBinAddr: 0x15564, symSize: 0x3C }
  - { offset: 0x260C4, size: 0x8, addend: 0x0, symName: __RNvYNtNtCsemR3zGJppC3_18tracing_attributes6expand20IdentAndTypesRenamerNtNtNtCsc29TF2YcYso_3syn3gen9visit_mut8VisitMut13visit_pat_mutB6_, symObjAddr: 0x2C0C, symBinAddr: 0x155A0, symSize: 0x3C }
  - { offset: 0x26106, size: 0x8, addend: 0x0, symName: __RNvYNtNtCsemR3zGJppC3_18tracing_attributes6expand20IdentAndTypesRenamerNtNtNtCsc29TF2YcYso_3syn3gen9visit_mut8VisitMut14visit_expr_mutB6_, symObjAddr: 0x2C48, symBinAddr: 0x155DC, symSize: 0x3C }
  - { offset: 0x26145, size: 0x8, addend: 0x0, symName: __RNvYNtNtCsemR3zGJppC3_18tracing_attributes6expand20IdentAndTypesRenamerNtNtNtCsc29TF2YcYso_3syn3gen9visit_mut8VisitMut14visit_item_mutB6_, symObjAddr: 0x2C84, symBinAddr: 0x15618, symSize: 0x3C }
  - { offset: 0x26187, size: 0x8, addend: 0x0, symName: __RNvYNtNtCsemR3zGJppC3_18tracing_attributes6expand20IdentAndTypesRenamerNtNtNtCsc29TF2YcYso_3syn3gen9visit_mut8VisitMut14visit_meta_mutB6_, symObjAddr: 0x2CC0, symBinAddr: 0x15654, symSize: 0x3C }
  - { offset: 0x261C9, size: 0x8, addend: 0x0, symName: __RNvYNtNtCsemR3zGJppC3_18tracing_attributes6expand20IdentAndTypesRenamerNtNtNtCsc29TF2YcYso_3syn3gen9visit_mut8VisitMut14visit_path_mutB6_, symObjAddr: 0x2CFC, symBinAddr: 0x15690, symSize: 0x3C }
  - { offset: 0x2620B, size: 0x8, addend: 0x0, symName: __RNvYNtNtCsemR3zGJppC3_18tracing_attributes6expand20IdentAndTypesRenamerNtNtNtCsc29TF2YcYso_3syn3gen9visit_mut8VisitMut14visit_span_mutB6_, symObjAddr: 0x2D38, symBinAddr: 0x156CC, symSize: 0x24 }
  - { offset: 0x2624D, size: 0x8, addend: 0x0, symName: __RNvYNtNtCsemR3zGJppC3_18tracing_attributes6expand20IdentAndTypesRenamerNtNtNtCsc29TF2YcYso_3syn3gen9visit_mut8VisitMut14visit_stmt_mutB6_, symObjAddr: 0x2D5C, symBinAddr: 0x156F0, symSize: 0x3C }
  - { offset: 0x2628F, size: 0x8, addend: 0x0, symName: __RNvYNtNtCsemR3zGJppC3_18tracing_attributes6expand20IdentAndTypesRenamerNtNtNtCsc29TF2YcYso_3syn3gen9visit_mut8VisitMut15visit_block_mutB6_, symObjAddr: 0x2D98, symBinAddr: 0x1572C, symSize: 0x3C }
  - { offset: 0x262CE, size: 0x8, addend: 0x0, symName: __RNvYNtNtCsemR3zGJppC3_18tracing_attributes6expand20IdentAndTypesRenamerNtNtNtCsc29TF2YcYso_3syn3gen9visit_mut8VisitMut15visit_field_mutB6_, symObjAddr: 0x2DD4, symBinAddr: 0x15768, symSize: 0x3C }
  - { offset: 0x26310, size: 0x8, addend: 0x0, symName: __RNvYNtNtCsemR3zGJppC3_18tracing_attributes6expand20IdentAndTypesRenamerNtNtNtCsc29TF2YcYso_3syn3gen9visit_mut8VisitMut15visit_index_mutB6_, symObjAddr: 0x2E10, symBinAddr: 0x157A4, symSize: 0x3C }
  - { offset: 0x26352, size: 0x8, addend: 0x0, symName: __RNvYNtNtCsemR3zGJppC3_18tracing_attributes6expand20IdentAndTypesRenamerNtNtNtCsc29TF2YcYso_3syn3gen9visit_mut8VisitMut15visit_label_mutB6_, symObjAddr: 0x2E4C, symBinAddr: 0x157E0, symSize: 0x3C }
  - { offset: 0x26394, size: 0x8, addend: 0x0, symName: __RNvYNtNtCsemR3zGJppC3_18tracing_attributes6expand20IdentAndTypesRenamerNtNtNtCsc29TF2YcYso_3syn3gen9visit_mut8VisitMut15visit_local_mutB6_, symObjAddr: 0x2E88, symBinAddr: 0x1581C, symSize: 0x3C }
  - { offset: 0x263D6, size: 0x8, addend: 0x0, symName: __RNvYNtNtCsemR3zGJppC3_18tracing_attributes6expand20IdentAndTypesRenamerNtNtNtCsc29TF2YcYso_3syn3gen9visit_mut8VisitMut15visit_macro_mutB6_, symObjAddr: 0x2EC4, symBinAddr: 0x15858, symSize: 0x3C }
  - { offset: 0x26418, size: 0x8, addend: 0x0, symName: __RNvYNtNtCsemR3zGJppC3_18tracing_attributes6expand20IdentAndTypesRenamerNtNtNtCsc29TF2YcYso_3syn3gen9visit_mut8VisitMut15visit_qself_mutB6_, symObjAddr: 0x2F00, symBinAddr: 0x15894, symSize: 0x3C }
  - { offset: 0x2645A, size: 0x8, addend: 0x0, symName: __RNvYNtNtCsemR3zGJppC3_18tracing_attributes6expand20IdentAndTypesRenamerNtNtNtCsc29TF2YcYso_3syn3gen9visit_mut8VisitMut15visit_un_op_mutB6_, symObjAddr: 0x2F3C, symBinAddr: 0x158D0, symSize: 0x3C }
  - { offset: 0x2649C, size: 0x8, addend: 0x0, symName: __RNvYNtNtCsemR3zGJppC3_18tracing_attributes6expand20IdentAndTypesRenamerNtNtNtCsc29TF2YcYso_3syn3gen9visit_mut8VisitMut16visit_bin_op_mutB6_, symObjAddr: 0x2F78, symBinAddr: 0x1590C, symSize: 0x3C }
  - { offset: 0x264DB, size: 0x8, addend: 0x0, symName: __RNvYNtNtCsemR3zGJppC3_18tracing_attributes6expand20IdentAndTypesRenamerNtNtNtCsc29TF2YcYso_3syn3gen9visit_mut8VisitMut16visit_fields_mutB6_, symObjAddr: 0x2FB4, symBinAddr: 0x15948, symSize: 0x3C }
  - { offset: 0x2651D, size: 0x8, addend: 0x0, symName: __RNvYNtNtCsemR3zGJppC3_18tracing_attributes6expand20IdentAndTypesRenamerNtNtNtCsc29TF2YcYso_3syn3gen9visit_mut8VisitMut16visit_fn_arg_mutB6_, symObjAddr: 0x2FF0, symBinAddr: 0x15984, symSize: 0x3C }
  - { offset: 0x2655F, size: 0x8, addend: 0x0, symName: __RNvYNtNtCsemR3zGJppC3_18tracing_attributes6expand20IdentAndTypesRenamerNtNtNtCsc29TF2YcYso_3syn3gen9visit_mut8VisitMut16visit_member_mutB6_, symObjAddr: 0x302C, symBinAddr: 0x159C0, symSize: 0x3C }
  - { offset: 0x265A1, size: 0x8, addend: 0x0, symName: __RNvYNtNtCsemR3zGJppC3_18tracing_attributes6expand20IdentAndTypesRenamerNtNtNtCsc29TF2YcYso_3syn3gen9visit_mut8VisitMut16visit_pat_or_mutB6_, symObjAddr: 0x3068, symBinAddr: 0x159FC, symSize: 0x3C }
  - { offset: 0x265E3, size: 0x8, addend: 0x0, symName: __RNvYNtNtCsemR3zGJppC3_18tracing_attributes6expand20IdentAndTypesRenamerNtNtNtCsc29TF2YcYso_3syn3gen9visit_mut8VisitMut17visit_expr_if_mutB6_, symObjAddr: 0x30A4, symBinAddr: 0x15A38, symSize: 0x3C }
  - { offset: 0x26622, size: 0x8, addend: 0x0, symName: __RNvYNtNtCsemR3zGJppC3_18tracing_attributes6expand20IdentAndTypesRenamerNtNtNtCsc29TF2YcYso_3syn3gen9visit_mut8VisitMut17visit_item_fn_mutB6_, symObjAddr: 0x30E0, symBinAddr: 0x15A74, symSize: 0x3C }
  - { offset: 0x26664, size: 0x8, addend: 0x0, symName: __RNvYNtNtCsemR3zGJppC3_18tracing_attributes6expand20IdentAndTypesRenamerNtNtNtCsc29TF2YcYso_3syn3gen9visit_mut8VisitMut17visit_lit_int_mutB6_, symObjAddr: 0x311C, symBinAddr: 0x15AB0, symSize: 0x3C }
  - { offset: 0x266A6, size: 0x8, addend: 0x0, symName: __RNvYNtNtCsemR3zGJppC3_18tracing_attributes6expand20IdentAndTypesRenamerNtNtNtCsc29TF2YcYso_3syn3gen9visit_mut8VisitMut17visit_lit_str_mutB6_, symObjAddr: 0x3158, symBinAddr: 0x15AEC, symSize: 0x3C }
  - { offset: 0x266E8, size: 0x8, addend: 0x0, symName: __RNvYNtNtCsemR3zGJppC3_18tracing_attributes6expand20IdentAndTypesRenamerNtNtNtCsc29TF2YcYso_3syn3gen9visit_mut8VisitMut17visit_variant_mutB6_, symObjAddr: 0x3194, symBinAddr: 0x15B28, symSize: 0x3C }
  - { offset: 0x2672A, size: 0x8, addend: 0x0, symName: __RNvYNtNtCsemR3zGJppC3_18tracing_attributes6expand20IdentAndTypesRenamerNtNtNtCsc29TF2YcYso_3syn3gen9visit_mut8VisitMut18visit_expr_let_mutB6_, symObjAddr: 0x31D0, symBinAddr: 0x15B64, symSize: 0x3C }
  - { offset: 0x26769, size: 0x8, addend: 0x0, symName: __RNvYNtNtCsemR3zGJppC3_18tracing_attributes6expand20IdentAndTypesRenamerNtNtNtCsc29TF2YcYso_3syn3gen9visit_mut8VisitMut18visit_expr_lit_mutB6_, symObjAddr: 0x320C, symBinAddr: 0x15BA0, symSize: 0x3C }
  - { offset: 0x267A8, size: 0x8, addend: 0x0, symName: __RNvYNtNtCsemR3zGJppC3_18tracing_attributes6expand20IdentAndTypesRenamerNtNtNtCsc29TF2YcYso_3syn3gen9visit_mut8VisitMut18visit_expr_try_mutB6_, symObjAddr: 0x3248, symBinAddr: 0x15BDC, symSize: 0x3C }
  - { offset: 0x267EA, size: 0x8, addend: 0x0, symName: __RNvYNtNtCsemR3zGJppC3_18tracing_attributes6expand20IdentAndTypesRenamerNtNtNtCsc29TF2YcYso_3syn3gen9visit_mut8VisitMut18visit_generics_mutB6_, symObjAddr: 0x3284, symBinAddr: 0x15C18, symSize: 0x3C }
  - { offset: 0x2682C, size: 0x8, addend: 0x0, symName: __RNvYNtNtCsemR3zGJppC3_18tracing_attributes6expand20IdentAndTypesRenamerNtNtNtCsc29TF2YcYso_3syn3gen9visit_mut8VisitMut18visit_item_mod_mutB6_, symObjAddr: 0x32C0, symBinAddr: 0x15C54, symSize: 0x3C }
  - { offset: 0x2686E, size: 0x8, addend: 0x0, symName: __RNvYNtNtCsemR3zGJppC3_18tracing_attributes6expand20IdentAndTypesRenamerNtNtNtCsc29TF2YcYso_3syn3gen9visit_mut8VisitMut18visit_item_use_mutB6_, symObjAddr: 0x32FC, symBinAddr: 0x15C90, symSize: 0x3C }
  - { offset: 0x268B0, size: 0x8, addend: 0x0, symName: __RNvYNtNtCsemR3zGJppC3_18tracing_attributes6expand20IdentAndTypesRenamerNtNtNtCsc29TF2YcYso_3syn3gen9visit_mut8VisitMut18visit_lifetime_mutB6_, symObjAddr: 0x3338, symBinAddr: 0x15CCC, symSize: 0x3C }
  - { offset: 0x268F2, size: 0x8, addend: 0x0, symName: __RNvYNtNtCsemR3zGJppC3_18tracing_attributes6expand20IdentAndTypesRenamerNtNtNtCsc29TF2YcYso_3syn3gen9visit_mut8VisitMut18visit_lit_bool_mutB6_, symObjAddr: 0x3374, symBinAddr: 0x15D08, symSize: 0x3C }
  - { offset: 0x26934, size: 0x8, addend: 0x0, symName: __RNvYNtNtCsemR3zGJppC3_18tracing_attributes6expand20IdentAndTypesRenamerNtNtNtCsc29TF2YcYso_3syn3gen9visit_mut8VisitMut18visit_lit_byte_mutB6_, symObjAddr: 0x33B0, symBinAddr: 0x15D44, symSize: 0x3C }
  - { offset: 0x26976, size: 0x8, addend: 0x0, symName: __RNvYNtNtCsemR3zGJppC3_18tracing_attributes6expand20IdentAndTypesRenamerNtNtNtCsc29TF2YcYso_3syn3gen9visit_mut8VisitMut18visit_lit_char_mutB6_, symObjAddr: 0x33EC, symBinAddr: 0x15D80, symSize: 0x3C }
  - { offset: 0x269B8, size: 0x8, addend: 0x0, symName: __RNvYNtNtCsemR3zGJppC3_18tracing_attributes6expand20IdentAndTypesRenamerNtNtNtCsc29TF2YcYso_3syn3gen9visit_mut8VisitMut18visit_lit_cstr_mutB6_, symObjAddr: 0x3428, symBinAddr: 0x15DBC, symSize: 0x3C }
  - { offset: 0x269FA, size: 0x8, addend: 0x0, symName: __RNvYNtNtCsemR3zGJppC3_18tracing_attributes6expand20IdentAndTypesRenamerNtNtNtCsc29TF2YcYso_3syn3gen9visit_mut8VisitMut18visit_pat_rest_mutB6_, symObjAddr: 0x3464, symBinAddr: 0x15DF8, symSize: 0x3C }
  - { offset: 0x26A3C, size: 0x8, addend: 0x0, symName: __RNvYNtNtCsemR3zGJppC3_18tracing_attributes6expand20IdentAndTypesRenamerNtNtNtCsc29TF2YcYso_3syn3gen9visit_mut8VisitMut18visit_pat_type_mutB6_, symObjAddr: 0x34A0, symBinAddr: 0x15E34, symSize: 0x3C }
  - { offset: 0x26A7E, size: 0x8, addend: 0x0, symName: __RNvYNtNtCsemR3zGJppC3_18tracing_attributes6expand20IdentAndTypesRenamerNtNtNtCsc29TF2YcYso_3syn3gen9visit_mut8VisitMut18visit_pat_wild_mutB6_, symObjAddr: 0x34DC, symBinAddr: 0x15E70, symSize: 0x3C }
  - { offset: 0x26AC0, size: 0x8, addend: 0x0, symName: __RNvYNtNtCsemR3zGJppC3_18tracing_attributes6expand20IdentAndTypesRenamerNtNtNtCsc29TF2YcYso_3syn3gen9visit_mut8VisitMut18visit_receiver_mutB6_, symObjAddr: 0x3518, symBinAddr: 0x15EAC, symSize: 0x3C }
  - { offset: 0x26B02, size: 0x8, addend: 0x0, symName: __RNvYNtNtCsemR3zGJppC3_18tracing_attributes6expand20IdentAndTypesRenamerNtNtNtCsc29TF2YcYso_3syn3gen9visit_mut8VisitMut18visit_use_glob_mutB6_, symObjAddr: 0x3554, symBinAddr: 0x15EE8, symSize: 0x3C }
  - { offset: 0x26B44, size: 0x8, addend: 0x0, symName: __RNvYNtNtCsemR3zGJppC3_18tracing_attributes6expand20IdentAndTypesRenamerNtNtNtCsc29TF2YcYso_3syn3gen9visit_mut8VisitMut18visit_use_name_mutB6_, symObjAddr: 0x3590, symBinAddr: 0x15F24, symSize: 0x3C }
  - { offset: 0x26B86, size: 0x8, addend: 0x0, symName: __RNvYNtNtCsemR3zGJppC3_18tracing_attributes6expand20IdentAndTypesRenamerNtNtNtCsc29TF2YcYso_3syn3gen9visit_mut8VisitMut18visit_use_path_mutB6_, symObjAddr: 0x35CC, symBinAddr: 0x15F60, symSize: 0x3C }
  - { offset: 0x26BC8, size: 0x8, addend: 0x0, symName: __RNvYNtNtCsemR3zGJppC3_18tracing_attributes6expand20IdentAndTypesRenamerNtNtNtCsc29TF2YcYso_3syn3gen9visit_mut8VisitMut18visit_use_tree_mutB6_, symObjAddr: 0x3608, symBinAddr: 0x15F9C, symSize: 0x3C }
  - { offset: 0x26C0A, size: 0x8, addend: 0x0, symName: __RNvYNtNtCsemR3zGJppC3_18tracing_attributes6expand20IdentAndTypesRenamerNtNtNtCsc29TF2YcYso_3syn3gen9visit_mut8VisitMut18visit_variadic_mutB6_, symObjAddr: 0x3644, symBinAddr: 0x15FD8, symSize: 0x3C }
  - { offset: 0x26C4C, size: 0x8, addend: 0x0, symName: __RNvYNtNtCsemR3zGJppC3_18tracing_attributes6expand20IdentAndTypesRenamerNtNtNtCsc29TF2YcYso_3syn3gen9visit_mut8VisitMut19visit_attribute_mutB6_, symObjAddr: 0x3680, symBinAddr: 0x16014, symSize: 0x3C }
  - { offset: 0x26C8B, size: 0x8, addend: 0x0, symName: __RNvYNtNtCsemR3zGJppC3_18tracing_attributes6expand20IdentAndTypesRenamerNtNtNtCsc29TF2YcYso_3syn3gen9visit_mut8VisitMut19visit_expr_call_mutB6_, symObjAddr: 0x36BC, symBinAddr: 0x16050, symSize: 0x3C }
  - { offset: 0x26CCA, size: 0x8, addend: 0x0, symName: __RNvYNtNtCsemR3zGJppC3_18tracing_attributes6expand20IdentAndTypesRenamerNtNtNtCsc29TF2YcYso_3syn3gen9visit_mut8VisitMut19visit_expr_cast_mutB6_, symObjAddr: 0x36F8, symBinAddr: 0x1608C, symSize: 0x3C }
  - { offset: 0x26D09, size: 0x8, addend: 0x0, symName: __RNvYNtNtCsemR3zGJppC3_18tracing_attributes6expand20IdentAndTypesRenamerNtNtNtCsc29TF2YcYso_3syn3gen9visit_mut8VisitMut19visit_expr_loop_mutB6_, symObjAddr: 0x3734, symBinAddr: 0x160C8, symSize: 0x3C }
  - { offset: 0x26D48, size: 0x8, addend: 0x0, symName: __RNvYNtNtCsemR3zGJppC3_18tracing_attributes6expand20IdentAndTypesRenamerNtNtNtCsc29TF2YcYso_3syn3gen9visit_mut8VisitMut19visit_expr_path_mutB6_, symObjAddr: 0x3770, symBinAddr: 0x16104, symSize: 0x3C }
  - { offset: 0x26D8A, size: 0x8, addend: 0x0, symName: __RNvYNtNtCsemR3zGJppC3_18tracing_attributes6expand20IdentAndTypesRenamerNtNtNtCsc29TF2YcYso_3syn3gen9visit_mut8VisitMut19visit_field_pat_mutB6_, symObjAddr: 0x37AC, symBinAddr: 0x16140, symSize: 0x3C }
  - { offset: 0x26DCC, size: 0x8, addend: 0x0, symName: __RNvYNtNtCsemR3zGJppC3_18tracing_attributes6expand20IdentAndTypesRenamerNtNtNtCsc29TF2YcYso_3syn3gen9visit_mut8VisitMut19visit_impl_item_mutB6_, symObjAddr: 0x37E8, symBinAddr: 0x1617C, symSize: 0x3C }
  - { offset: 0x26E0E, size: 0x8, addend: 0x0, symName: __RNvYNtNtCsemR3zGJppC3_18tracing_attributes6expand20IdentAndTypesRenamerNtNtNtCsc29TF2YcYso_3syn3gen9visit_mut8VisitMut19visit_item_enum_mutB6_, symObjAddr: 0x3824, symBinAddr: 0x161B8, symSize: 0x3C }
  - { offset: 0x26E50, size: 0x8, addend: 0x0, symName: __RNvYNtNtCsemR3zGJppC3_18tracing_attributes6expand20IdentAndTypesRenamerNtNtNtCsc29TF2YcYso_3syn3gen9visit_mut8VisitMut19visit_item_impl_mutB6_, symObjAddr: 0x3860, symBinAddr: 0x161F4, symSize: 0x3C }
  - { offset: 0x26E92, size: 0x8, addend: 0x0, symName: __RNvYNtNtCsemR3zGJppC3_18tracing_attributes6expand20IdentAndTypesRenamerNtNtNtCsc29TF2YcYso_3syn3gen9visit_mut8VisitMut19visit_item_type_mutB6_, symObjAddr: 0x389C, symBinAddr: 0x16230, symSize: 0x3C }
  - { offset: 0x26ED4, size: 0x8, addend: 0x0, symName: __RNvYNtNtCsemR3zGJppC3_18tracing_attributes6expand20IdentAndTypesRenamerNtNtNtCsc29TF2YcYso_3syn3gen9visit_mut8VisitMut19visit_lit_float_mutB6_, symObjAddr: 0x38D8, symBinAddr: 0x1626C, symSize: 0x3C }
  - { offset: 0x26F16, size: 0x8, addend: 0x0, symName: __RNvYNtNtCsemR3zGJppC3_18tracing_attributes6expand20IdentAndTypesRenamerNtNtNtCsc29TF2YcYso_3syn3gen9visit_mut8VisitMut19visit_meta_list_mutB6_, symObjAddr: 0x3914, symBinAddr: 0x162A8, symSize: 0x3C }
  - { offset: 0x26F58, size: 0x8, addend: 0x0, symName: __RNvYNtNtCsemR3zGJppC3_18tracing_attributes6expand20IdentAndTypesRenamerNtNtNtCsc29TF2YcYso_3syn3gen9visit_mut8VisitMut19visit_pat_ident_mutB6_, symObjAddr: 0x3950, symBinAddr: 0x162E4, symSize: 0x3C }
  - { offset: 0x26F9A, size: 0x8, addend: 0x0, symName: __RNvYNtNtCsemR3zGJppC3_18tracing_attributes6expand20IdentAndTypesRenamerNtNtNtCsc29TF2YcYso_3syn3gen9visit_mut8VisitMut19visit_pat_paren_mutB6_, symObjAddr: 0x398C, symBinAddr: 0x16320, symSize: 0x3C }
  - { offset: 0x26FDC, size: 0x8, addend: 0x0, symName: __RNvYNtNtCsemR3zGJppC3_18tracing_attributes6expand20IdentAndTypesRenamerNtNtNtCsc29TF2YcYso_3syn3gen9visit_mut8VisitMut19visit_pat_slice_mutB6_, symObjAddr: 0x39C8, symBinAddr: 0x1635C, symSize: 0x3C }
  - { offset: 0x2701E, size: 0x8, addend: 0x0, symName: __RNvYNtNtCsemR3zGJppC3_18tracing_attributes6expand20IdentAndTypesRenamerNtNtNtCsc29TF2YcYso_3syn3gen9visit_mut8VisitMut19visit_pat_tuple_mutB6_, symObjAddr: 0x3A04, symBinAddr: 0x16398, symSize: 0x3C }
  - { offset: 0x27060, size: 0x8, addend: 0x0, symName: __RNvYNtNtCsemR3zGJppC3_18tracing_attributes6expand20IdentAndTypesRenamerNtNtNtCsc29TF2YcYso_3syn3gen9visit_mut8VisitMut19visit_signature_mutB6_, symObjAddr: 0x3A40, symBinAddr: 0x163D4, symSize: 0x3C }
  - { offset: 0x270A2, size: 0x8, addend: 0x0, symName: __RNvYNtNtCsemR3zGJppC3_18tracing_attributes6expand20IdentAndTypesRenamerNtNtNtCsc29TF2YcYso_3syn3gen9visit_mut8VisitMut19visit_use_group_mutB6_, symObjAddr: 0x3A7C, symBinAddr: 0x16410, symSize: 0x3C }
  - { offset: 0x270E4, size: 0x8, addend: 0x0, symName: __RNvYNtNtCsemR3zGJppC3_18tracing_attributes6expand20IdentAndTypesRenamerNtNtNtCsc29TF2YcYso_3syn3gen9visit_mut8VisitMut20visit_assoc_type_mutB6_, symObjAddr: 0x3AB8, symBinAddr: 0x1644C, symSize: 0x3C }
  - { offset: 0x27123, size: 0x8, addend: 0x0, symName: __RNvYNtNtCsemR3zGJppC3_18tracing_attributes6expand20IdentAndTypesRenamerNtNtNtCsc29TF2YcYso_3syn3gen9visit_mut8VisitMut20visit_attr_style_mutB6_, symObjAddr: 0x3AF4, symBinAddr: 0x16488, symSize: 0x3C }
  - { offset: 0x27162, size: 0x8, addend: 0x0, symName: __RNvYNtNtCsemR3zGJppC3_18tracing_attributes6expand20IdentAndTypesRenamerNtNtNtCsc29TF2YcYso_3syn3gen9visit_mut8VisitMut20visit_attributes_mutB6_, symObjAddr: 0x3B30, symBinAddr: 0x164C4, symSize: 0x98 }
  - { offset: 0x271DB, size: 0x8, addend: 0x0, symName: __RNvYNtNtCsemR3zGJppC3_18tracing_attributes6expand20IdentAndTypesRenamerNtNtNtCsc29TF2YcYso_3syn3gen9visit_mut8VisitMut20visit_constraint_mutB6_, symObjAddr: 0x3BC8, symBinAddr: 0x1655C, symSize: 0x3C }
  - { offset: 0x2721A, size: 0x8, addend: 0x0, symName: __RNvYNtNtCsemR3zGJppC3_18tracing_attributes6expand20IdentAndTypesRenamerNtNtNtCsc29TF2YcYso_3syn3gen9visit_mut8VisitMut20visit_expr_array_mutB6_, symObjAddr: 0x3C04, symBinAddr: 0x16598, symSize: 0x3C }
  - { offset: 0x27259, size: 0x8, addend: 0x0, symName: __RNvYNtNtCsemR3zGJppC3_18tracing_attributes6expand20IdentAndTypesRenamerNtNtNtCsc29TF2YcYso_3syn3gen9visit_mut8VisitMut20visit_expr_async_mutB6_, symObjAddr: 0x3C40, symBinAddr: 0x165D4, symSize: 0x3C }
  - { offset: 0x27298, size: 0x8, addend: 0x0, symName: __RNvYNtNtCsemR3zGJppC3_18tracing_attributes6expand20IdentAndTypesRenamerNtNtNtCsc29TF2YcYso_3syn3gen9visit_mut8VisitMut20visit_expr_await_mutB6_, symObjAddr: 0x3C7C, symBinAddr: 0x16610, symSize: 0x3C }
  - { offset: 0x272D7, size: 0x8, addend: 0x0, symName: __RNvYNtNtCsemR3zGJppC3_18tracing_attributes6expand20IdentAndTypesRenamerNtNtNtCsc29TF2YcYso_3syn3gen9visit_mut8VisitMut20visit_expr_block_mutB6_, symObjAddr: 0x3CB8, symBinAddr: 0x1664C, symSize: 0x3C }
  - { offset: 0x27316, size: 0x8, addend: 0x0, symName: __RNvYNtNtCsemR3zGJppC3_18tracing_attributes6expand20IdentAndTypesRenamerNtNtNtCsc29TF2YcYso_3syn3gen9visit_mut8VisitMut20visit_expr_break_mutB6_, symObjAddr: 0x3CF4, symBinAddr: 0x16688, symSize: 0x3C }
  - { offset: 0x27355, size: 0x8, addend: 0x0, symName: __RNvYNtNtCsemR3zGJppC3_18tracing_attributes6expand20IdentAndTypesRenamerNtNtNtCsc29TF2YcYso_3syn3gen9visit_mut8VisitMut20visit_expr_const_mutB6_, symObjAddr: 0x3D30, symBinAddr: 0x166C4, symSize: 0x3C }
  - { offset: 0x27394, size: 0x8, addend: 0x0, symName: __RNvYNtNtCsemR3zGJppC3_18tracing_attributes6expand20IdentAndTypesRenamerNtNtNtCsc29TF2YcYso_3syn3gen9visit_mut8VisitMut20visit_expr_field_mutB6_, symObjAddr: 0x3D6C, symBinAddr: 0x16700, symSize: 0x3C }
  - { offset: 0x273D3, size: 0x8, addend: 0x0, symName: __RNvYNtNtCsemR3zGJppC3_18tracing_attributes6expand20IdentAndTypesRenamerNtNtNtCsc29TF2YcYso_3syn3gen9visit_mut8VisitMut20visit_expr_group_mutB6_, symObjAddr: 0x3DA8, symBinAddr: 0x1673C, symSize: 0x3C }
  - { offset: 0x27412, size: 0x8, addend: 0x0, symName: __RNvYNtNtCsemR3zGJppC3_18tracing_attributes6expand20IdentAndTypesRenamerNtNtNtCsc29TF2YcYso_3syn3gen9visit_mut8VisitMut20visit_expr_index_mutB6_, symObjAddr: 0x3DE4, symBinAddr: 0x16778, symSize: 0x3C }
  - { offset: 0x27451, size: 0x8, addend: 0x0, symName: __RNvYNtNtCsemR3zGJppC3_18tracing_attributes6expand20IdentAndTypesRenamerNtNtNtCsc29TF2YcYso_3syn3gen9visit_mut8VisitMut20visit_expr_infer_mutB6_, symObjAddr: 0x3E20, symBinAddr: 0x167B4, symSize: 0x3C }
  - { offset: 0x27490, size: 0x8, addend: 0x0, symName: __RNvYNtNtCsemR3zGJppC3_18tracing_attributes6expand20IdentAndTypesRenamerNtNtNtCsc29TF2YcYso_3syn3gen9visit_mut8VisitMut20visit_expr_macro_mutB6_, symObjAddr: 0x3E5C, symBinAddr: 0x167F0, symSize: 0x3C }
  - { offset: 0x274CF, size: 0x8, addend: 0x0, symName: __RNvYNtNtCsemR3zGJppC3_18tracing_attributes6expand20IdentAndTypesRenamerNtNtNtCsc29TF2YcYso_3syn3gen9visit_mut8VisitMut20visit_expr_match_mutB6_, symObjAddr: 0x3E98, symBinAddr: 0x1682C, symSize: 0x3C }
  - { offset: 0x27511, size: 0x8, addend: 0x0, symName: __RNvYNtNtCsemR3zGJppC3_18tracing_attributes6expand20IdentAndTypesRenamerNtNtNtCsc29TF2YcYso_3syn3gen9visit_mut8VisitMut20visit_expr_paren_mutB6_, symObjAddr: 0x3ED4, symBinAddr: 0x16868, symSize: 0x3C }
  - { offset: 0x27553, size: 0x8, addend: 0x0, symName: __RNvYNtNtCsemR3zGJppC3_18tracing_attributes6expand20IdentAndTypesRenamerNtNtNtCsc29TF2YcYso_3syn3gen9visit_mut8VisitMut20visit_expr_range_mutB6_, symObjAddr: 0x3F10, symBinAddr: 0x168A4, symSize: 0x3C }
  - { offset: 0x27595, size: 0x8, addend: 0x0, symName: __RNvYNtNtCsemR3zGJppC3_18tracing_attributes6expand20IdentAndTypesRenamerNtNtNtCsc29TF2YcYso_3syn3gen9visit_mut8VisitMut20visit_expr_tuple_mutB6_, symObjAddr: 0x3F4C, symBinAddr: 0x168E0, symSize: 0x3C }
  - { offset: 0x275D7, size: 0x8, addend: 0x0, symName: __RNvYNtNtCsemR3zGJppC3_18tracing_attributes6expand20IdentAndTypesRenamerNtNtNtCsc29TF2YcYso_3syn3gen9visit_mut8VisitMut20visit_expr_unary_mutB6_, symObjAddr: 0x3F88, symBinAddr: 0x1691C, symSize: 0x3C }
  - { offset: 0x27619, size: 0x8, addend: 0x0, symName: __RNvYNtNtCsemR3zGJppC3_18tracing_attributes6expand20IdentAndTypesRenamerNtNtNtCsc29TF2YcYso_3syn3gen9visit_mut8VisitMut20visit_expr_while_mutB6_, symObjAddr: 0x3FC4, symBinAddr: 0x16958, symSize: 0x3C }
  - { offset: 0x2765B, size: 0x8, addend: 0x0, symName: __RNvYNtNtCsemR3zGJppC3_18tracing_attributes6expand20IdentAndTypesRenamerNtNtNtCsc29TF2YcYso_3syn3gen9visit_mut8VisitMut20visit_expr_yield_mutB6_, symObjAddr: 0x4000, symBinAddr: 0x16994, symSize: 0x3C }
  - { offset: 0x2769D, size: 0x8, addend: 0x0, symName: __RNvYNtNtCsemR3zGJppC3_18tracing_attributes6expand20IdentAndTypesRenamerNtNtNtCsc29TF2YcYso_3syn3gen9visit_mut8VisitMut20visit_item_const_mutB6_, symObjAddr: 0x403C, symBinAddr: 0x169D0, symSize: 0x3C }
  - { offset: 0x276DF, size: 0x8, addend: 0x0, symName: __RNvYNtNtCsemR3zGJppC3_18tracing_attributes6expand20IdentAndTypesRenamerNtNtNtCsc29TF2YcYso_3syn3gen9visit_mut8VisitMut20visit_item_macro_mutB6_, symObjAddr: 0x4078, symBinAddr: 0x16A0C, symSize: 0x3C }
  - { offset: 0x27721, size: 0x8, addend: 0x0, symName: __RNvYNtNtCsemR3zGJppC3_18tracing_attributes6expand20IdentAndTypesRenamerNtNtNtCsc29TF2YcYso_3syn3gen9visit_mut8VisitMut20visit_item_trait_mutB6_, symObjAddr: 0x40B4, symBinAddr: 0x16A48, symSize: 0x3C }
  - { offset: 0x27763, size: 0x8, addend: 0x0, symName: __RNvYNtNtCsemR3zGJppC3_18tracing_attributes6expand20IdentAndTypesRenamerNtNtNtCsc29TF2YcYso_3syn3gen9visit_mut8VisitMut20visit_item_union_mutB6_, symObjAddr: 0x40F0, symBinAddr: 0x16A84, symSize: 0x3C }
  - { offset: 0x277A5, size: 0x8, addend: 0x0, symName: __RNvYNtNtCsemR3zGJppC3_18tracing_attributes6expand20IdentAndTypesRenamerNtNtNtCsc29TF2YcYso_3syn3gen9visit_mut8VisitMut20visit_local_init_mutB6_, symObjAddr: 0x412C, symBinAddr: 0x16AC0, symSize: 0x3C }
  - { offset: 0x277E7, size: 0x8, addend: 0x0, symName: __RNvYNtNtCsemR3zGJppC3_18tracing_attributes6expand20IdentAndTypesRenamerNtNtNtCsc29TF2YcYso_3syn3gen9visit_mut8VisitMut20visit_pat_struct_mutB6_, symObjAddr: 0x4168, symBinAddr: 0x16AFC, symSize: 0x3C }
  - { offset: 0x27829, size: 0x8, addend: 0x0, symName: __RNvYNtNtCsemR3zGJppC3_18tracing_attributes6expand20IdentAndTypesRenamerNtNtNtCsc29TF2YcYso_3syn3gen9visit_mut8VisitMut20visit_stmt_macro_mutB6_, symObjAddr: 0x41A4, symBinAddr: 0x16B38, symSize: 0x3C }
  - { offset: 0x2786B, size: 0x8, addend: 0x0, symName: __RNvYNtNtCsemR3zGJppC3_18tracing_attributes6expand20IdentAndTypesRenamerNtNtNtCsc29TF2YcYso_3syn3gen9visit_mut8VisitMut20visit_trait_item_mutB6_, symObjAddr: 0x41E0, symBinAddr: 0x16B74, symSize: 0x3C }
  - { offset: 0x278AD, size: 0x8, addend: 0x0, symName: __RNvYNtNtCsemR3zGJppC3_18tracing_attributes6expand20IdentAndTypesRenamerNtNtNtCsc29TF2YcYso_3syn3gen9visit_mut8VisitMut20visit_type_param_mutB6_, symObjAddr: 0x421C, symBinAddr: 0x16BB0, symSize: 0x3C }
  - { offset: 0x278EF, size: 0x8, addend: 0x0, symName: __RNvYNtNtCsemR3zGJppC3_18tracing_attributes6expand20IdentAndTypesRenamerNtNtNtCsc29TF2YcYso_3syn3gen9visit_mut8VisitMut20visit_use_rename_mutB6_, symObjAddr: 0x4258, symBinAddr: 0x16BEC, symSize: 0x3C }
  - { offset: 0x27931, size: 0x8, addend: 0x0, symName: __RNvYNtNtCsemR3zGJppC3_18tracing_attributes6expand20IdentAndTypesRenamerNtNtNtCsc29TF2YcYso_3syn3gen9visit_mut8VisitMut20visit_visibility_mutB6_, symObjAddr: 0x4294, symBinAddr: 0x16C28, symSize: 0x3C }
  - { offset: 0x27973, size: 0x8, addend: 0x0, symName: __RNvYNtNtCsemR3zGJppC3_18tracing_attributes6expand20IdentAndTypesRenamerNtNtNtCsc29TF2YcYso_3syn3gen9visit_mut8VisitMut21visit_assoc_const_mutB6_, symObjAddr: 0x42D0, symBinAddr: 0x16C64, symSize: 0x3C }
  - { offset: 0x279B2, size: 0x8, addend: 0x0, symName: __RNvYNtNtCsemR3zGJppC3_18tracing_attributes6expand20IdentAndTypesRenamerNtNtNtCsc29TF2YcYso_3syn3gen9visit_mut8VisitMut21visit_const_param_mutB6_, symObjAddr: 0x430C, symBinAddr: 0x16CA0, symSize: 0x3C }
  - { offset: 0x279F1, size: 0x8, addend: 0x0, symName: __RNvYNtNtCsemR3zGJppC3_18tracing_attributes6expand20IdentAndTypesRenamerNtNtNtCsc29TF2YcYso_3syn3gen9visit_mut8VisitMut21visit_expr_assign_mutB6_, symObjAddr: 0x4348, symBinAddr: 0x16CDC, symSize: 0x3C }
  - { offset: 0x27A30, size: 0x8, addend: 0x0, symName: __RNvYNtNtCsemR3zGJppC3_18tracing_attributes6expand20IdentAndTypesRenamerNtNtNtCsc29TF2YcYso_3syn3gen9visit_mut8VisitMut21visit_expr_binary_mutB6_, symObjAddr: 0x4384, symBinAddr: 0x16D18, symSize: 0x3C }
  - { offset: 0x27A6F, size: 0x8, addend: 0x0, symName: __RNvYNtNtCsemR3zGJppC3_18tracing_attributes6expand20IdentAndTypesRenamerNtNtNtCsc29TF2YcYso_3syn3gen9visit_mut8VisitMut21visit_expr_repeat_mutB6_, symObjAddr: 0x43C0, symBinAddr: 0x16D54, symSize: 0x3C }
  - { offset: 0x27AB1, size: 0x8, addend: 0x0, symName: __RNvYNtNtCsemR3zGJppC3_18tracing_attributes6expand20IdentAndTypesRenamerNtNtNtCsc29TF2YcYso_3syn3gen9visit_mut8VisitMut21visit_expr_return_mutB6_, symObjAddr: 0x43FC, symBinAddr: 0x16D90, symSize: 0x3C }
  - { offset: 0x27AF3, size: 0x8, addend: 0x0, symName: __RNvYNtNtCsemR3zGJppC3_18tracing_attributes6expand20IdentAndTypesRenamerNtNtNtCsc29TF2YcYso_3syn3gen9visit_mut8VisitMut21visit_expr_struct_mutB6_, symObjAddr: 0x4438, symBinAddr: 0x16DCC, symSize: 0x3C }
  - { offset: 0x27B35, size: 0x8, addend: 0x0, symName: __RNvYNtNtCsemR3zGJppC3_18tracing_attributes6expand20IdentAndTypesRenamerNtNtNtCsc29TF2YcYso_3syn3gen9visit_mut8VisitMut21visit_expr_unsafe_mutB6_, symObjAddr: 0x4474, symBinAddr: 0x16E08, symSize: 0x3C }
  - { offset: 0x27B77, size: 0x8, addend: 0x0, symName: __RNvYNtNtCsemR3zGJppC3_18tracing_attributes6expand20IdentAndTypesRenamerNtNtNtCsc29TF2YcYso_3syn3gen9visit_mut8VisitMut21visit_field_value_mutB6_, symObjAddr: 0x44B0, symBinAddr: 0x16E44, symSize: 0x3C }
  - { offset: 0x27BB9, size: 0x8, addend: 0x0, symName: __RNvYNtNtCsemR3zGJppC3_18tracing_attributes6expand20IdentAndTypesRenamerNtNtNtCsc29TF2YcYso_3syn3gen9visit_mut8VisitMut21visit_item_static_mutB6_, symObjAddr: 0x44EC, symBinAddr: 0x16E80, symSize: 0x3C }
  - { offset: 0x27BFB, size: 0x8, addend: 0x0, symName: __RNvYNtNtCsemR3zGJppC3_18tracing_attributes6expand20IdentAndTypesRenamerNtNtNtCsc29TF2YcYso_3syn3gen9visit_mut8VisitMut21visit_item_struct_mutB6_, symObjAddr: 0x4528, symBinAddr: 0x16EBC, symSize: 0x3C }
  - { offset: 0x27C3D, size: 0x8, addend: 0x0, symName: __RNvYNtNtCsemR3zGJppC3_18tracing_attributes6expand20IdentAndTypesRenamerNtNtNtCsc29TF2YcYso_3syn3gen9visit_mut8VisitMut21visit_return_type_mutB6_, symObjAddr: 0x4564, symBinAddr: 0x16EF8, symSize: 0x3C }
  - { offset: 0x27C7F, size: 0x8, addend: 0x0, symName: __RNvYNtNtCsemR3zGJppC3_18tracing_attributes6expand20IdentAndTypesRenamerNtNtNtCsc29TF2YcYso_3syn3gen9visit_mut8VisitMut21visit_trait_bound_mutB6_, symObjAddr: 0x45A0, symBinAddr: 0x16F34, symSize: 0x3C }
  - { offset: 0x27CC1, size: 0x8, addend: 0x0, symName: __RNvYNtNtCsemR3zGJppC3_18tracing_attributes6expand20IdentAndTypesRenamerNtNtNtCsc29TF2YcYso_3syn3gen9visit_mut8VisitMut22visit_expr_closure_mutB6_, symObjAddr: 0x45DC, symBinAddr: 0x16F70, symSize: 0x3C }
  - { offset: 0x27D00, size: 0x8, addend: 0x0, symName: __RNvYNtNtCsemR3zGJppC3_18tracing_attributes6expand20IdentAndTypesRenamerNtNtNtCsc29TF2YcYso_3syn3gen9visit_mut8VisitMut22visit_fields_named_mutB6_, symObjAddr: 0x4618, symBinAddr: 0x16FAC, symSize: 0x3C }
  - { offset: 0x27D42, size: 0x8, addend: 0x0, symName: __RNvYNtNtCsemR3zGJppC3_18tracing_attributes6expand20IdentAndTypesRenamerNtNtNtCsc29TF2YcYso_3syn3gen9visit_mut8VisitMut22visit_foreign_item_mutB6_, symObjAddr: 0x4654, symBinAddr: 0x16FE8, symSize: 0x3C }
  - { offset: 0x27D84, size: 0x8, addend: 0x0, symName: __RNvYNtNtCsemR3zGJppC3_18tracing_attributes6expand20IdentAndTypesRenamerNtNtNtCsc29TF2YcYso_3syn3gen9visit_mut8VisitMut22visit_impl_item_fn_mutB6_, symObjAddr: 0x4690, symBinAddr: 0x17024, symSize: 0x3C }
  - { offset: 0x27DC6, size: 0x8, addend: 0x0, symName: __RNvYNtNtCsemR3zGJppC3_18tracing_attributes6expand20IdentAndTypesRenamerNtNtNtCsc29TF2YcYso_3syn3gen9visit_mut8VisitMut22visit_lit_byte_str_mutB6_, symObjAddr: 0x46CC, symBinAddr: 0x17060, symSize: 0x3C }
  - { offset: 0x27E08, size: 0x8, addend: 0x0, symName: __RNvYNtNtCsemR3zGJppC3_18tracing_attributes6expand20IdentAndTypesRenamerNtNtNtCsc29TF2YcYso_3syn3gen9visit_mut8VisitMut22visit_path_segment_mutB6_, symObjAddr: 0x4708, symBinAddr: 0x1709C, symSize: 0x3C }
  - { offset: 0x27E4A, size: 0x8, addend: 0x0, symName: __RNvYNtNtCsemR3zGJppC3_18tracing_attributes6expand20IdentAndTypesRenamerNtNtNtCsc29TF2YcYso_3syn3gen9visit_mut8VisitMut22visit_range_limits_mutB6_, symObjAddr: 0x4744, symBinAddr: 0x170D8, symSize: 0x3C }
  - { offset: 0x27E8C, size: 0x8, addend: 0x0, symName: __RNvYNtNtCsemR3zGJppC3_18tracing_attributes6expand20IdentAndTypesRenamerNtNtNtCsc29TF2YcYso_3syn3gen9visit_mut8VisitMut22visit_token_stream_mutB6_, symObjAddr: 0x4780, symBinAddr: 0x17114, symSize: 0x24 }
  - { offset: 0x27ECE, size: 0x8, addend: 0x0, symName: __RNvYNtNtCsemR3zGJppC3_18tracing_attributes6expand20IdentAndTypesRenamerNtNtNtCsc29TF2YcYso_3syn3gen9visit_mut8VisitMut22visit_where_clause_mutB6_, symObjAddr: 0x47A4, symBinAddr: 0x17138, symSize: 0x3C }
  - { offset: 0x27F10, size: 0x8, addend: 0x0, symName: __RNvYNtNtCsemR3zGJppC3_18tracing_attributes6expand20IdentAndTypesRenamerNtNtNtCsc29TF2YcYso_3syn3gen9visit_mut8VisitMut23visit_expr_continue_mutB6_, symObjAddr: 0x47E0, symBinAddr: 0x17174, symSize: 0x3C }
  - { offset: 0x27F4F, size: 0x8, addend: 0x0, symName: __RNvYNtNtCsemR3zGJppC3_18tracing_attributes6expand20IdentAndTypesRenamerNtNtNtCsc29TF2YcYso_3syn3gen9visit_mut8VisitMut23visit_expr_for_loop_mutB6_, symObjAddr: 0x481C, symBinAddr: 0x171B0, symSize: 0x3C }
  - { offset: 0x27F8E, size: 0x8, addend: 0x0, symName: __RNvYNtNtCsemR3zGJppC3_18tracing_attributes6expand20IdentAndTypesRenamerNtNtNtCsc29TF2YcYso_3syn3gen9visit_mut8VisitMut23visit_expr_raw_addr_mutB6_, symObjAddr: 0x4858, symBinAddr: 0x171EC, symSize: 0x3C }
  - { offset: 0x27FD0, size: 0x8, addend: 0x0, symName: __RNvYNtNtCsemR3zGJppC3_18tracing_attributes6expand20IdentAndTypesRenamerNtNtNtCsc29TF2YcYso_3syn3gen9visit_mut8VisitMut23visit_generic_param_mutB6_, symObjAddr: 0x4894, symBinAddr: 0x17228, symSize: 0x3C }
  - { offset: 0x28012, size: 0x8, addend: 0x0, symName: __RNvYNtNtCsemR3zGJppC3_18tracing_attributes6expand20IdentAndTypesRenamerNtNtNtCsc29TF2YcYso_3syn3gen9visit_mut8VisitMut23visit_pat_reference_mutB6_, symObjAddr: 0x48D0, symBinAddr: 0x17264, symSize: 0x3C }
  - { offset: 0x28054, size: 0x8, addend: 0x0, symName: __RNvYNtNtCsemR3zGJppC3_18tracing_attributes6expand20IdentAndTypesRenamerNtNtNtCsc29TF2YcYso_3syn3gen9visit_mut8VisitMut23visit_trait_item_fn_mutB6_, symObjAddr: 0x490C, symBinAddr: 0x172A0, symSize: 0x3C }
  - { offset: 0x28096, size: 0x8, addend: 0x0, symName: __RNvYNtNtCsemR3zGJppC3_18tracing_attributes6expand20IdentAndTypesRenamerNtNtNtCsc29TF2YcYso_3syn3gen9visit_mut8VisitMut24visit_captured_param_mutB6_, symObjAddr: 0x4948, symBinAddr: 0x172DC, symSize: 0x3C }
  - { offset: 0x280D5, size: 0x8, addend: 0x0, symName: __RNvYNtNtCsemR3zGJppC3_18tracing_attributes6expand20IdentAndTypesRenamerNtNtNtCsc29TF2YcYso_3syn3gen9visit_mut8VisitMut24visit_expr_reference_mutB6_, symObjAddr: 0x4984, symBinAddr: 0x17318, symSize: 0x3C }
  - { offset: 0x28117, size: 0x8, addend: 0x0, symName: __RNvYNtNtCsemR3zGJppC3_18tracing_attributes6expand20IdentAndTypesRenamerNtNtNtCsc29TF2YcYso_3syn3gen9visit_mut8VisitMut24visit_expr_try_block_mutB6_, symObjAddr: 0x49C0, symBinAddr: 0x17354, symSize: 0x3C }
  - { offset: 0x28159, size: 0x8, addend: 0x0, symName: __RNvYNtNtCsemR3zGJppC3_18tracing_attributes6expand20IdentAndTypesRenamerNtNtNtCsc29TF2YcYso_3syn3gen9visit_mut8VisitMut24visit_fields_unnamed_mutB6_, symObjAddr: 0x49FC, symBinAddr: 0x17390, symSize: 0x3C }
  - { offset: 0x2819B, size: 0x8, addend: 0x0, symName: __RNvYNtNtCsemR3zGJppC3_18tracing_attributes6expand20IdentAndTypesRenamerNtNtNtCsc29TF2YcYso_3syn3gen9visit_mut8VisitMut24visit_impl_item_type_mutB6_, symObjAddr: 0x4A38, symBinAddr: 0x173CC, symSize: 0x3C }
  - { offset: 0x281DD, size: 0x8, addend: 0x0, symName: __RNvYNtNtCsemR3zGJppC3_18tracing_attributes6expand20IdentAndTypesRenamerNtNtNtCsc29TF2YcYso_3syn3gen9visit_mut8VisitMut24visit_lifetime_param_mutB6_, symObjAddr: 0x4A74, symBinAddr: 0x17408, symSize: 0x3C }
  - { offset: 0x2821F, size: 0x8, addend: 0x0, symName: __RNvYNtNtCsemR3zGJppC3_18tracing_attributes6expand20IdentAndTypesRenamerNtNtNtCsc29TF2YcYso_3syn3gen9visit_mut8VisitMut24visit_path_arguments_mutB6_, symObjAddr: 0x4AB0, symBinAddr: 0x17444, symSize: 0x3C }
  - { offset: 0x28261, size: 0x8, addend: 0x0, symName: __RNvYNtNtCsemR3zGJppC3_18tracing_attributes6expand20IdentAndTypesRenamerNtNtNtCsc29TF2YcYso_3syn3gen9visit_mut8VisitMut24visit_predicate_type_mutB6_, symObjAddr: 0x4AEC, symBinAddr: 0x17480, symSize: 0x3C }
  - { offset: 0x282A3, size: 0x8, addend: 0x0, symName: __RNvYNtNtCsemR3zGJppC3_18tracing_attributes6expand20IdentAndTypesRenamerNtNtNtCsc29TF2YcYso_3syn3gen9visit_mut8VisitMut24visit_vis_restricted_mutB6_, symObjAddr: 0x4B28, symBinAddr: 0x174BC, symSize: 0x3C }
  - { offset: 0x282E5, size: 0x8, addend: 0x0, symName: __RNvYNtNtCsemR3zGJppC3_18tracing_attributes6expand20IdentAndTypesRenamerNtNtNtCsc29TF2YcYso_3syn3gen9visit_mut8VisitMut25visit_bound_lifetimes_mutB6_, symObjAddr: 0x4B64, symBinAddr: 0x174F8, symSize: 0x3C }
  - { offset: 0x28324, size: 0x8, addend: 0x0, symName: __RNvYNtNtCsemR3zGJppC3_18tracing_attributes6expand20IdentAndTypesRenamerNtNtNtCsc29TF2YcYso_3syn3gen9visit_mut8VisitMut25visit_foreign_item_fn_mutB6_, symObjAddr: 0x4BA0, symBinAddr: 0x17534, symSize: 0x3C }
  - { offset: 0x28366, size: 0x8, addend: 0x0, symName: __RNvYNtNtCsemR3zGJppC3_18tracing_attributes6expand20IdentAndTypesRenamerNtNtNtCsc29TF2YcYso_3syn3gen9visit_mut8VisitMut25visit_impl_item_const_mutB6_, symObjAddr: 0x4BDC, symBinAddr: 0x17570, symSize: 0x3C }
  - { offset: 0x283A8, size: 0x8, addend: 0x0, symName: __RNvYNtNtCsemR3zGJppC3_18tracing_attributes6expand20IdentAndTypesRenamerNtNtNtCsc29TF2YcYso_3syn3gen9visit_mut8VisitMut25visit_impl_item_macro_mutB6_, symObjAddr: 0x4C18, symBinAddr: 0x175AC, symSize: 0x3C }
  - { offset: 0x283EA, size: 0x8, addend: 0x0, symName: __RNvYNtNtCsemR3zGJppC3_18tracing_attributes6expand20IdentAndTypesRenamerNtNtNtCsc29TF2YcYso_3syn3gen9visit_mut8VisitMut25visit_macro_delimiter_mutB6_, symObjAddr: 0x4C54, symBinAddr: 0x175E8, symSize: 0x3C }
  - { offset: 0x2842C, size: 0x8, addend: 0x0, symName: __RNvYNtNtCsemR3zGJppC3_18tracing_attributes6expand20IdentAndTypesRenamerNtNtNtCsc29TF2YcYso_3syn3gen9visit_mut8VisitMut25visit_meta_name_value_mutB6_, symObjAddr: 0x4C90, symBinAddr: 0x17624, symSize: 0x3C }
  - { offset: 0x2846E, size: 0x8, addend: 0x0, symName: __RNvYNtNtCsemR3zGJppC3_18tracing_attributes6expand20IdentAndTypesRenamerNtNtNtCsc29TF2YcYso_3syn3gen9visit_mut8VisitMut25visit_precise_capture_mutB6_, symObjAddr: 0x4CCC, symBinAddr: 0x17660, symSize: 0x3C }
  - { offset: 0x284B0, size: 0x8, addend: 0x0, symName: __RNvYNtNtCsemR3zGJppC3_18tracing_attributes6expand20IdentAndTypesRenamerNtNtNtCsc29TF2YcYso_3syn3gen9visit_mut8VisitMut25visit_trait_item_type_mutB6_, symObjAddr: 0x4D08, symBinAddr: 0x1769C, symSize: 0x3C }
  - { offset: 0x284F2, size: 0x8, addend: 0x0, symName: __RNvYNtNtCsemR3zGJppC3_18tracing_attributes6expand20IdentAndTypesRenamerNtNtNtCsc29TF2YcYso_3syn3gen9visit_mut8VisitMut25visit_where_predicate_mutB6_, symObjAddr: 0x4D44, symBinAddr: 0x176D8, symSize: 0x3C }
  - { offset: 0x28534, size: 0x8, addend: 0x0, symName: __RNvYNtNtCsemR3zGJppC3_18tracing_attributes6expand20IdentAndTypesRenamerNtNtNtCsc29TF2YcYso_3syn3gen9visit_mut8VisitMut26visit_expr_method_call_mutB6_, symObjAddr: 0x4D80, symBinAddr: 0x17714, symSize: 0x3C }
  - { offset: 0x28576, size: 0x8, addend: 0x0, symName: __RNvYNtNtCsemR3zGJppC3_18tracing_attributes6expand20IdentAndTypesRenamerNtNtNtCsc29TF2YcYso_3syn3gen9visit_mut8VisitMut26visit_field_mutability_mutB6_, symObjAddr: 0x4DBC, symBinAddr: 0x17750, symSize: 0x3C }
  - { offset: 0x285B8, size: 0x8, addend: 0x0, symName: __RNvYNtNtCsemR3zGJppC3_18tracing_attributes6expand20IdentAndTypesRenamerNtNtNtCsc29TF2YcYso_3syn3gen9visit_mut8VisitMut26visit_generic_argument_mutB6_, symObjAddr: 0x4DF8, symBinAddr: 0x1778C, symSize: 0x3C }
  - { offset: 0x285FA, size: 0x8, addend: 0x0, symName: __RNvYNtNtCsemR3zGJppC3_18tracing_attributes6expand20IdentAndTypesRenamerNtNtNtCsc29TF2YcYso_3syn3gen9visit_mut8VisitMut26visit_item_foreign_mod_mutB6_, symObjAddr: 0x4E34, symBinAddr: 0x177C8, symSize: 0x3C }
  - { offset: 0x2863C, size: 0x8, addend: 0x0, symName: __RNvYNtNtCsemR3zGJppC3_18tracing_attributes6expand20IdentAndTypesRenamerNtNtNtCsc29TF2YcYso_3syn3gen9visit_mut8VisitMut26visit_item_trait_alias_mutB6_, symObjAddr: 0x4E70, symBinAddr: 0x17804, symSize: 0x3C }
  - { offset: 0x2867E, size: 0x8, addend: 0x0, symName: __RNvYNtNtCsemR3zGJppC3_18tracing_attributes6expand20IdentAndTypesRenamerNtNtNtCsc29TF2YcYso_3syn3gen9visit_mut8VisitMut26visit_pat_tuple_struct_mutB6_, symObjAddr: 0x4EAC, symBinAddr: 0x17840, symSize: 0x3C }
  - { offset: 0x286C0, size: 0x8, addend: 0x0, symName: __RNvYNtNtCsemR3zGJppC3_18tracing_attributes6expand20IdentAndTypesRenamerNtNtNtCsc29TF2YcYso_3syn3gen9visit_mut8VisitMut26visit_trait_item_const_mutB6_, symObjAddr: 0x4EE8, symBinAddr: 0x1787C, symSize: 0x3C }
  - { offset: 0x28702, size: 0x8, addend: 0x0, symName: __RNvYNtNtCsemR3zGJppC3_18tracing_attributes6expand20IdentAndTypesRenamerNtNtNtCsc29TF2YcYso_3syn3gen9visit_mut8VisitMut26visit_trait_item_macro_mutB6_, symObjAddr: 0x4F24, symBinAddr: 0x178B8, symSize: 0x3C }
  - { offset: 0x28744, size: 0x8, addend: 0x0, symName: __RNvYNtNtCsemR3zGJppC3_18tracing_attributes6expand20IdentAndTypesRenamerNtNtNtCsc29TF2YcYso_3syn3gen9visit_mut8VisitMut26visit_type_param_bound_mutB6_, symObjAddr: 0x4F60, symBinAddr: 0x178F4, symSize: 0x3C }
  - { offset: 0x28786, size: 0x8, addend: 0x0, symName: __RNvYNtNtCsemR3zGJppC3_18tracing_attributes6expand20IdentAndTypesRenamerNtNtNtCsc29TF2YcYso_3syn3gen9visit_mut8VisitMut27visit_foreign_item_type_mutB6_, symObjAddr: 0x4F9C, symBinAddr: 0x17930, symSize: 0x3C }
  - { offset: 0x287C8, size: 0x8, addend: 0x0, symName: __RNvYNtNtCsemR3zGJppC3_18tracing_attributes6expand20IdentAndTypesRenamerNtNtNtCsc29TF2YcYso_3syn3gen9visit_mut8VisitMut27visit_item_extern_crate_mutB6_, symObjAddr: 0x4FD8, symBinAddr: 0x1796C, symSize: 0x3C }
  - { offset: 0x2880A, size: 0x8, addend: 0x0, symName: __RNvYNtNtCsemR3zGJppC3_18tracing_attributes6expand20IdentAndTypesRenamerNtNtNtCsc29TF2YcYso_3syn3gen9visit_mut8VisitMut27visit_static_mutability_mutB6_, symObjAddr: 0x5014, symBinAddr: 0x179A8, symSize: 0x3C }
  - { offset: 0x2884C, size: 0x8, addend: 0x0, symName: __RNvYNtNtCsemR3zGJppC3_18tracing_attributes6expand20IdentAndTypesRenamerNtNtNtCsc29TF2YcYso_3syn3gen9visit_mut8VisitMut28visit_foreign_item_macro_mutB6_, symObjAddr: 0x5050, symBinAddr: 0x179E4, symSize: 0x3C }
  - { offset: 0x2888E, size: 0x8, addend: 0x0, symName: __RNvYNtNtCsemR3zGJppC3_18tracing_attributes6expand20IdentAndTypesRenamerNtNtNtCsc29TF2YcYso_3syn3gen9visit_mut8VisitMut28visit_pointer_mutability_mutB6_, symObjAddr: 0x508C, symBinAddr: 0x17A20, symSize: 0x3C }
  - { offset: 0x288D0, size: 0x8, addend: 0x0, symName: __RNvYNtNtCsemR3zGJppC3_18tracing_attributes6expand20IdentAndTypesRenamerNtNtNtCsc29TF2YcYso_3syn3gen9visit_mut8VisitMut28visit_predicate_lifetime_mutB6_, symObjAddr: 0x50C8, symBinAddr: 0x17A5C, symSize: 0x3C }
  - { offset: 0x28912, size: 0x8, addend: 0x0, symName: __RNvYNtNtCsemR3zGJppC3_18tracing_attributes6expand20IdentAndTypesRenamerNtNtNtCsc29TF2YcYso_3syn3gen9visit_mut8VisitMut29visit_foreign_item_static_mutB6_, symObjAddr: 0x5104, symBinAddr: 0x17A98, symSize: 0x3C }
  - { offset: 0x28954, size: 0x8, addend: 0x0, symName: __RNvYNtNtCsemR3zGJppC3_18tracing_attributes6expand20IdentAndTypesRenamerNtNtNtCsc29TF2YcYso_3syn3gen9visit_mut8VisitMut30visit_trait_bound_modifier_mutB6_, symObjAddr: 0x5140, symBinAddr: 0x17AD4, symSize: 0x3C }
  - { offset: 0x28996, size: 0x8, addend: 0x0, symName: __RNvYNtNtCsemR3zGJppC3_18tracing_attributes6expand20IdentAndTypesRenamerNtNtNtCsc29TF2YcYso_3syn3gen9visit_mut8VisitMut41visit_parenthesized_generic_arguments_mutB6_, symObjAddr: 0x517C, symBinAddr: 0x17B10, symSize: 0x3C }
  - { offset: 0x289D8, size: 0x8, addend: 0x0, symName: __RNvYNtNtCsemR3zGJppC3_18tracing_attributes6expand20IdentAndTypesRenamerNtNtNtCsc29TF2YcYso_3syn3gen9visit_mut8VisitMut43visit_angle_bracketed_generic_arguments_mutB6_, symObjAddr: 0x51B8, symBinAddr: 0x17B4C, symSize: 0x3C }
  - { offset: 0x29069, size: 0x8, addend: 0x0, symName: __RNvMNtCsemR3zGJppC3_18tracing_attributes6expandNtB2_10RecordType13parse_from_ty, symObjAddr: 0x14044, symBinAddr: 0x269D8, symSize: 0x1CC }
  - { offset: 0x2912B, size: 0x8, addend: 0x0, symName: __RNvMs_NtCsemR3zGJppC3_18tracing_attributes6expandNtB4_9AsyncInfo7from_fn, symObjAddr: 0x15180, symBinAddr: 0x27B14, symSize: 0xD00 }
  - { offset: 0x29714, size: 0x8, addend: 0x0, symName: __RNvMs_NtCsemR3zGJppC3_18tracing_attributes6expandNtB4_9AsyncInfo9gen_async, symObjAddr: 0x16058, symBinAddr: 0x289EC, symSize: 0xB8C }
  - { offset: 0x2AB69, size: 0x8, addend: 0x0, symName: __RINvMsi_NtCsiTraAjBDcu4_5alloc3vecINtB6_3VecNtCshnvkK9b4wzu_11proc_macro211TokenStreamE14extend_trustedINtNtNtNtCsaNl6UpbT7bw_4core4iter8adapters3map3MapINtNtNtB1M_5slice4iter4IterNtNtCsc29TF2YcYso_3syn4stmt4StmtENCNvMs_NtCsemR3zGJppC3_18tracing_attributes6expandNtB3w_9AsyncInfo9gen_async0EEB3y_, symObjAddr: 0x0, symBinAddr: 0x29DC0, symSize: 0x16C }
  - { offset: 0x35D57, size: 0x8, addend: 0x0, symName: __RINvXsd_NtCsiTraAjBDcu4_5alloc3vecINtB6_3VecNtCshnvkK9b4wzu_11proc_macro211TokenStreamEINtNtNtNtCsaNl6UpbT7bw_4core4iter6traits7collect12FromIteratorBG_E9from_iterINtNtNtB1u_8adapters3map3MapINtNtB2G_6filter6FilterINtNtNtB1w_5slice4iter4IterTNtBI_5IdentTB3S_NtNtCsemR3zGJppC3_18tracing_attributes6expand10RecordTypeEEENCNCINvB4a_9gen_blockBG_Es0_0s2_0ENCB58_s3_0EEB4c_, symObjAddr: 0x153C, symBinAddr: 0x2B2FC, symSize: 0x3C }
  - { offset: 0x35D98, size: 0x8, addend: 0x0, symName: __RINvXsd_NtCsiTraAjBDcu4_5alloc3vecINtB6_3VecNtCshnvkK9b4wzu_11proc_macro211TokenStreamEINtNtNtNtCsaNl6UpbT7bw_4core4iter6traits7collect12FromIteratorBG_E9from_iterINtNtNtB1u_8adapters3map3MapINtNtB2G_6filter6FilterINtNtNtB1w_5slice4iter4IterTNtBI_5IdentTB3S_NtNtCsemR3zGJppC3_18tracing_attributes6expand10RecordTypeEEENCNCINvB4a_9gen_blockNtNtCsc29TF2YcYso_3syn4stmt5BlockEs0_0s2_0ENCB58_s3_0EEB4c_, symObjAddr: 0x1578, symBinAddr: 0x2B338, symSize: 0x3C }
  - { offset: 0x35DD9, size: 0x8, addend: 0x0, symName: __RINvXsd_NtCsiTraAjBDcu4_5alloc3vecINtB6_3VecNtCshnvkK9b4wzu_11proc_macro211TokenStreamEINtNtNtNtCsaNl6UpbT7bw_4core4iter6traits7collect12FromIteratorBG_E9from_iterINtNtNtB1u_8adapters3map3MapINtNtNtB1w_5slice4iter4IterNtNtCsc29TF2YcYso_3syn4stmt4StmtENCNvMs_NtCsemR3zGJppC3_18tracing_attributes6expandNtB48_9AsyncInfo9gen_async0EEB4a_, symObjAddr: 0x15B4, symBinAddr: 0x2B374, symSize: 0x40 }
  - { offset: 0x35E19, size: 0x8, addend: 0x0, symName: __RINvXsd_NtCsiTraAjBDcu4_5alloc3vecINtB6_3VecTNtCshnvkK9b4wzu_11proc_macro25IdentBH_EEINtNtNtNtCsaNl6UpbT7bw_4core4iter6traits7collect12FromIteratorBG_E9from_iterINtNtNtB1s_8adapters3map3MapINtNtB6_9into_iter8IntoIterTBH_TBH_NtNtCsemR3zGJppC3_18tracing_attributes6expand10RecordTypeEEENCNCINvB3C_9gen_blockNtBJ_11TokenStreamEs0_0s4_0EEB3E_, symObjAddr: 0x15F4, symBinAddr: 0x2B3B4, symSize: 0x3C }
  - { offset: 0x35E5A, size: 0x8, addend: 0x0, symName: __RINvXsd_NtCsiTraAjBDcu4_5alloc3vecINtB6_3VecTNtCshnvkK9b4wzu_11proc_macro25IdentBH_EEINtNtNtNtCsaNl6UpbT7bw_4core4iter6traits7collect12FromIteratorBG_E9from_iterINtNtNtB1s_8adapters3map3MapINtNtB6_9into_iter8IntoIterTBH_TBH_NtNtCsemR3zGJppC3_18tracing_attributes6expand10RecordTypeEEENCNCINvB3C_9gen_blockNtNtCsc29TF2YcYso_3syn4stmt5BlockEs0_0s4_0EEB3E_, symObjAddr: 0x1630, symBinAddr: 0x2B3F0, symSize: 0x3C }
  - { offset: 0x35E9B, size: 0x8, addend: 0x0, symName: __RINvXsd_NtCsiTraAjBDcu4_5alloc3vecINtB6_3VecTNtCshnvkK9b4wzu_11proc_macro25IdentTBH_NtNtCsemR3zGJppC3_18tracing_attributes6expand10RecordTypeEEEINtNtNtNtCsaNl6UpbT7bw_4core4iter6traits7collect12FromIteratorBG_E9from_iterINtNtNtB2p_8adapters3map3MapINtNtB3B_7flatten7FlatMapINtNtCsc29TF2YcYso_3syn10punctuated8IntoIterNtNtB4s_4item5FnArgEINtNtB8_5boxed3BoxDNtNtB2n_8iterator8Iteratorp4ItemB1g_EL_ENCNCINvB1m_9gen_blockNtBJ_11TokenStreamEs0_00ENCB6o_s_0EEB1o_, symObjAddr: 0x166C, symBinAddr: 0x2B42C, symSize: 0x3C }
  - { offset: 0x35EDC, size: 0x8, addend: 0x0, symName: __RINvXsd_NtCsiTraAjBDcu4_5alloc3vecINtB6_3VecTNtCshnvkK9b4wzu_11proc_macro25IdentTBH_NtNtCsemR3zGJppC3_18tracing_attributes6expand10RecordTypeEEEINtNtNtNtCsaNl6UpbT7bw_4core4iter6traits7collect12FromIteratorBG_E9from_iterINtNtNtB2p_8adapters3map3MapINtNtB3B_7flatten7FlatMapINtNtCsc29TF2YcYso_3syn10punctuated8IntoIterNtNtB4s_4item5FnArgEINtNtB8_5boxed3BoxDNtNtB2n_8iterator8Iteratorp4ItemB1g_EL_ENCNCINvB1m_9gen_blockNtNtB4s_4stmt5BlockEs0_00ENCB6o_s_0EEB1o_, symObjAddr: 0x16A8, symBinAddr: 0x2B468, symSize: 0x3C }
  - { offset: 0x35F23, size: 0x8, addend: 0x0, symName: __RINvXsh_NtCsiTraAjBDcu4_5alloc3vecINtB6_3VecNtCshnvkK9b4wzu_11proc_macro25IdentEINtNtNtNtCsaNl6UpbT7bw_4core4iter6traits7collect6ExtendBG_E6extendINtNtB1p_6option6OptionBG_EECsemR3zGJppC3_18tracing_attributes, symObjAddr: 0x16E4, symBinAddr: 0x2B4A4, symSize: 0x48 }
  - { offset: 0x35F78, size: 0x8, addend: 0x0, symName: __RINvXsh_NtCsiTraAjBDcu4_5alloc3vecINtB6_3VecNtCshnvkK9b4wzu_11proc_macro25IdentEINtNtNtNtCsaNl6UpbT7bw_4core4iter6traits7collect6ExtendBG_E6extendINtNtNtB1n_8adapters3map3MapINtNtB6_9into_iter8IntoIterTBG_NtNtCsc29TF2YcYso_3syn5token5CommaEENCNvXs8_NtB3l_10punctuatedINtB3Z_10PunctuatedBG_B3h_ENtB1j_12IntoIterator9into_iter0EECsemR3zGJppC3_18tracing_attributes, symObjAddr: 0x172C, symBinAddr: 0x2B4EC, symSize: 0x48 }
  - { offset: 0x35FCD, size: 0x8, addend: 0x0, symName: __RINvXsh_NtCsiTraAjBDcu4_5alloc3vecINtB6_3VecNtNtCsc29TF2YcYso_3syn3pat3PatEINtNtNtNtCsaNl6UpbT7bw_4core4iter6traits7collect6ExtendBG_E6extendINtNtB1k_6option6OptionBG_EECsemR3zGJppC3_18tracing_attributes, symObjAddr: 0x1774, symBinAddr: 0x2B534, symSize: 0x48 }
  - { offset: 0x36022, size: 0x8, addend: 0x0, symName: __RINvXsh_NtCsiTraAjBDcu4_5alloc3vecINtB6_3VecNtNtCsc29TF2YcYso_3syn3pat3PatEINtNtNtNtCsaNl6UpbT7bw_4core4iter6traits7collect6ExtendBG_E6extendINtNtNtB1i_8adapters3map3MapINtNtB6_9into_iter8IntoIterTBG_NtNtBK_5token5CommaEENCNvXs8_NtBK_10punctuatedINtB3F_10PunctuatedBG_B3c_ENtB1e_12IntoIterator9into_iter0EECsemR3zGJppC3_18tracing_attributes, symObjAddr: 0x17BC, symBinAddr: 0x2B57C, symSize: 0x48 }
  - { offset: 0x36077, size: 0x8, addend: 0x0, symName: __RINvXsh_NtCsiTraAjBDcu4_5alloc3vecINtB6_3VecNtNtCsc29TF2YcYso_3syn3pat8FieldPatEINtNtNtNtCsaNl6UpbT7bw_4core4iter6traits7collect6ExtendBG_E6extendINtNtB1p_6option6OptionBG_EECsemR3zGJppC3_18tracing_attributes, symObjAddr: 0x1804, symBinAddr: 0x2B5C4, symSize: 0x48 }
  - { offset: 0x360CC, size: 0x8, addend: 0x0, symName: __RINvXsh_NtCsiTraAjBDcu4_5alloc3vecINtB6_3VecNtNtCsc29TF2YcYso_3syn3pat8FieldPatEINtNtNtNtCsaNl6UpbT7bw_4core4iter6traits7collect6ExtendBG_E6extendINtNtNtB1n_8adapters3map3MapINtNtB6_9into_iter8IntoIterTBG_NtNtBK_5token5CommaEENCNvXs8_NtBK_10punctuatedINtB3K_10PunctuatedBG_B3h_ENtB1j_12IntoIterator9into_iter0EECsemR3zGJppC3_18tracing_attributes, symObjAddr: 0x184C, symBinAddr: 0x2B60C, symSize: 0x48 }
  - { offset: 0x36121, size: 0x8, addend: 0x0, symName: __RINvXsh_NtCsiTraAjBDcu4_5alloc3vecINtB6_3VecNtNtCsc29TF2YcYso_3syn4item5FnArgEINtNtNtNtCsaNl6UpbT7bw_4core4iter6traits7collect6ExtendBG_E6extendINtNtB1n_6option6OptionBG_EECsemR3zGJppC3_18tracing_attributes, symObjAddr: 0x1894, symBinAddr: 0x2B654, symSize: 0x48 }
  - { offset: 0x36176, size: 0x8, addend: 0x0, symName: __RINvXsh_NtCsiTraAjBDcu4_5alloc3vecINtB6_3VecNtNtCsc29TF2YcYso_3syn4item5FnArgEINtNtNtNtCsaNl6UpbT7bw_4core4iter6traits7collect6ExtendBG_E6extendINtNtNtB1l_8adapters3map3MapINtNtB6_9into_iter8IntoIterTBG_NtNtBK_5token5CommaEENCNvXs8_NtBK_10punctuatedINtB3I_10PunctuatedBG_B3f_ENtB1h_12IntoIterator9into_iter0EECsemR3zGJppC3_18tracing_attributes, symObjAddr: 0x18DC, symBinAddr: 0x2B69C, symSize: 0x48 }
  - { offset: 0x361CB, size: 0x8, addend: 0x0, symName: __RNvXsh_NtCsiTraAjBDcu4_5alloc3vecINtB5_3VecNtNtCsc29TF2YcYso_3syn4attr9AttributeEINtNtNtNtCsaNl6UpbT7bw_4core4iter6traits7collect6ExtendBF_E10extend_oneCsemR3zGJppC3_18tracing_attributes, symObjAddr: 0x52B0, symBinAddr: 0x2F070, symSize: 0x24 }
  - { offset: 0x36222, size: 0x8, addend: 0x0, symName: __RNCINvMsi_NtCsiTraAjBDcu4_5alloc3vecINtB8_3VecNtCshnvkK9b4wzu_11proc_macro211TokenStreamE14extend_trustedINtNtNtNtCsaNl6UpbT7bw_4core4iter8adapters3map3MapINtNtNtB1O_5slice4iter4IterNtNtCsc29TF2YcYso_3syn4stmt4StmtENCNvMs_NtCsemR3zGJppC3_18tracing_attributes6expandNtB3y_9AsyncInfo9gen_async0EE0B3A_, symObjAddr: 0x1924, symBinAddr: 0x2B6E4, symSize: 0x3C }
  - { offset: 0x362D7, size: 0x8, addend: 0x0, symName: __RNCINvMsi_NtCsiTraAjBDcu4_5alloc3vecINtB8_3VecNtCshnvkK9b4wzu_11proc_macro25IdentE14extend_trustedINtNtCsaNl6UpbT7bw_4core6option8IntoIterBI_EE0CsemR3zGJppC3_18tracing_attributes, symObjAddr: 0x1960, symBinAddr: 0x2B720, symSize: 0x44 }
  - { offset: 0x36384, size: 0x8, addend: 0x0, symName: __RNCINvMsi_NtCsiTraAjBDcu4_5alloc3vecINtB8_3VecNtCshnvkK9b4wzu_11proc_macro25IdentE14extend_trustedINtNtNtNtCsaNl6UpbT7bw_4core4iter8adapters3map3MapINtNtB8_9into_iter8IntoIterTBI_NtNtCsc29TF2YcYso_3syn5token5CommaEENCNvXs8_NtB2V_10punctuatedINtB3z_10PunctuatedBI_B2R_ENtNtNtB1F_6traits7collect12IntoIterator9into_iter0EE0CsemR3zGJppC3_18tracing_attributes, symObjAddr: 0x19A4, symBinAddr: 0x2B764, symSize: 0x44 }
  - { offset: 0x36431, size: 0x8, addend: 0x0, symName: __RNCINvMsi_NtCsiTraAjBDcu4_5alloc3vecINtB8_3VecNtNtCsc29TF2YcYso_3syn3pat3PatE14extend_trustedINtNtCsaNl6UpbT7bw_4core6option8IntoIterBI_EE0CsemR3zGJppC3_18tracing_attributes, symObjAddr: 0x19E8, symBinAddr: 0x2B7A8, symSize: 0x54 }
  - { offset: 0x364EF, size: 0x8, addend: 0x0, symName: __RNCINvMsi_NtCsiTraAjBDcu4_5alloc3vecINtB8_3VecNtNtCsc29TF2YcYso_3syn3pat3PatE14extend_trustedINtNtNtNtCsaNl6UpbT7bw_4core4iter8adapters3map3MapINtNtB8_9into_iter8IntoIterTBI_NtNtBM_5token5CommaEENCNvXs8_NtBM_10punctuatedINtB3f_10PunctuatedBI_B2M_ENtNtNtB1A_6traits7collect12IntoIterator9into_iter0EE0CsemR3zGJppC3_18tracing_attributes, symObjAddr: 0x1A3C, symBinAddr: 0x2B7FC, symSize: 0x54 }
  - { offset: 0x365AD, size: 0x8, addend: 0x0, symName: __RNCINvMsi_NtCsiTraAjBDcu4_5alloc3vecINtB8_3VecNtNtCsc29TF2YcYso_3syn3pat8FieldPatE14extend_trustedINtNtCsaNl6UpbT7bw_4core6option8IntoIterBI_EE0CsemR3zGJppC3_18tracing_attributes, symObjAddr: 0x1A90, symBinAddr: 0x2B850, symSize: 0x4C }
  - { offset: 0x3666B, size: 0x8, addend: 0x0, symName: __RNCINvMsi_NtCsiTraAjBDcu4_5alloc3vecINtB8_3VecNtNtCsc29TF2YcYso_3syn3pat8FieldPatE14extend_trustedINtNtNtNtCsaNl6UpbT7bw_4core4iter8adapters3map3MapINtNtB8_9into_iter8IntoIterTBI_NtNtBM_5token5CommaEENCNvXs8_NtBM_10punctuatedINtB3k_10PunctuatedBI_B2R_ENtNtNtB1F_6traits7collect12IntoIterator9into_iter0EE0CsemR3zGJppC3_18tracing_attributes, symObjAddr: 0x1ADC, symBinAddr: 0x2B89C, symSize: 0x4C }
  - { offset: 0x36729, size: 0x8, addend: 0x0, symName: __RNCINvMsi_NtCsiTraAjBDcu4_5alloc3vecINtB8_3VecNtNtCsc29TF2YcYso_3syn4item5FnArgE14extend_trustedINtNtCsaNl6UpbT7bw_4core6option8IntoIterBI_EE0CsemR3zGJppC3_18tracing_attributes, symObjAddr: 0x1B28, symBinAddr: 0x2B8E8, symSize: 0x54 }
  - { offset: 0x367E7, size: 0x8, addend: 0x0, symName: __RNCINvMsi_NtCsiTraAjBDcu4_5alloc3vecINtB8_3VecNtNtCsc29TF2YcYso_3syn4item5FnArgE14extend_trustedINtNtNtNtCsaNl6UpbT7bw_4core4iter8adapters3map3MapINtNtB8_9into_iter8IntoIterTBI_NtNtBM_5token5CommaEENCNvXs8_NtBM_10punctuatedINtB3i_10PunctuatedBI_B2P_ENtNtNtB1D_6traits7collect12IntoIterator9into_iter0EE0CsemR3zGJppC3_18tracing_attributes, symObjAddr: 0x1B7C, symBinAddr: 0x2B93C, symSize: 0x54 }
  - { offset: 0x36A6F, size: 0x8, addend: 0x0, symName: __RNvXNtNtCsiTraAjBDcu4_5alloc3vec11spec_extendINtB4_3VecNtCshnvkK9b4wzu_11proc_macro211TokenStreamEINtB2_10SpecExtendBR_INtNtNtNtCsaNl6UpbT7bw_4core4iter8adapters3map3MapINtNtB1Y_6filter6FilterINtNtNtB22_5slice4iter4IterTNtBT_5IdentTB3w_NtNtCsemR3zGJppC3_18tracing_attributes6expand10RecordTypeEEENCNCINvB3O_9gen_blockBR_Es0_0s2_0ENCB4M_s3_0EE11spec_extendB3Q_, symObjAddr: 0x30B0, symBinAddr: 0x2CE70, symSize: 0x24 }
  - { offset: 0x36AC1, size: 0x8, addend: 0x0, symName: __RNvXNtNtCsiTraAjBDcu4_5alloc3vec11spec_extendINtB4_3VecNtCshnvkK9b4wzu_11proc_macro211TokenStreamEINtB2_10SpecExtendBR_INtNtNtNtCsaNl6UpbT7bw_4core4iter8adapters3map3MapINtNtB1Y_6filter6FilterINtNtNtB22_5slice4iter4IterTNtBT_5IdentTB3w_NtNtCsemR3zGJppC3_18tracing_attributes6expand10RecordTypeEEENCNCINvB3O_9gen_blockNtNtCsc29TF2YcYso_3syn4stmt5BlockEs0_0s2_0ENCB4M_s3_0EE11spec_extendB3Q_, symObjAddr: 0x30D4, symBinAddr: 0x2CE94, symSize: 0x24 }
  - { offset: 0x36B13, size: 0x8, addend: 0x0, symName: __RNvXNtNtCsiTraAjBDcu4_5alloc3vec11spec_extendINtB4_3VecTNtCshnvkK9b4wzu_11proc_macro25IdentTBS_NtNtCsemR3zGJppC3_18tracing_attributes6expand10RecordTypeEEEINtB2_10SpecExtendBR_INtNtNtNtCsaNl6UpbT7bw_4core4iter8adapters3map3MapINtNtB2T_7flatten7FlatMapINtNtCsc29TF2YcYso_3syn10punctuated8IntoIterNtNtB46_4item5FnArgEINtNtB6_5boxed3BoxDNtNtNtB2V_6traits8iterator8Iteratorp4ItemB1r_EL_ENCNCINvB1x_9gen_blockNtBU_11TokenStreamEs0_00ENCB6b_s_0EE11spec_extendB1z_, symObjAddr: 0x30F8, symBinAddr: 0x2CEB8, symSize: 0x24 }
  - { offset: 0x36B65, size: 0x8, addend: 0x0, symName: __RNvXNtNtCsiTraAjBDcu4_5alloc3vec11spec_extendINtB4_3VecTNtCshnvkK9b4wzu_11proc_macro25IdentTBS_NtNtCsemR3zGJppC3_18tracing_attributes6expand10RecordTypeEEEINtB2_10SpecExtendBR_INtNtNtNtCsaNl6UpbT7bw_4core4iter8adapters3map3MapINtNtB2T_7flatten7FlatMapINtNtCsc29TF2YcYso_3syn10punctuated8IntoIterNtNtB46_4item5FnArgEINtNtB6_5boxed3BoxDNtNtNtB2V_6traits8iterator8Iteratorp4ItemB1r_EL_ENCNCINvB1x_9gen_blockNtNtB46_4stmt5BlockEs0_00ENCB6b_s_0EE11spec_extendB1z_, symObjAddr: 0x311C, symBinAddr: 0x2CEDC, symSize: 0x24 }
  - { offset: 0x36BBD, size: 0x8, addend: 0x0, symName: __RNvXs_NtNtCsiTraAjBDcu4_5alloc3vec11spec_extendINtB6_3VecNtCshnvkK9b4wzu_11proc_macro211TokenStreamEINtB4_10SpecExtendBT_INtNtNtNtCsaNl6UpbT7bw_4core4iter8adapters3map3MapINtNtNtB24_5slice4iter4IterNtNtCsc29TF2YcYso_3syn4stmt4StmtENCNvMs_NtCsemR3zGJppC3_18tracing_attributes6expandNtB3O_9AsyncInfo9gen_async0EE11spec_extendB3Q_, symObjAddr: 0x3FB4, symBinAddr: 0x2DD74, symSize: 0x34 }
  - { offset: 0x36C0E, size: 0x8, addend: 0x0, symName: __RNvXs_NtNtCsiTraAjBDcu4_5alloc3vec11spec_extendINtB6_3VecNtCshnvkK9b4wzu_11proc_macro25IdentEINtB4_10SpecExtendBT_INtNtCsaNl6UpbT7bw_4core6option8IntoIterBT_EE11spec_extendCsemR3zGJppC3_18tracing_attributes, symObjAddr: 0x3FE8, symBinAddr: 0x2DDA8, symSize: 0x24 }
  - { offset: 0x36C60, size: 0x8, addend: 0x0, symName: __RNvXs_NtNtCsiTraAjBDcu4_5alloc3vec11spec_extendINtB6_3VecNtCshnvkK9b4wzu_11proc_macro25IdentEINtB4_10SpecExtendBT_INtNtNtNtCsaNl6UpbT7bw_4core4iter8adapters3map3MapINtNtB6_9into_iter8IntoIterTBT_NtNtCsc29TF2YcYso_3syn5token5CommaEENCNvXs8_NtB3b_10punctuatedINtB3P_10PunctuatedBT_B37_ENtNtNtB1V_6traits7collect12IntoIterator9into_iter0EE11spec_extendCsemR3zGJppC3_18tracing_attributes, symObjAddr: 0x400C, symBinAddr: 0x2DDCC, symSize: 0x24 }
  - { offset: 0x36CB2, size: 0x8, addend: 0x0, symName: __RNvXs_NtNtCsiTraAjBDcu4_5alloc3vec11spec_extendINtB6_3VecNtNtCsc29TF2YcYso_3syn3pat3PatEINtB4_10SpecExtendBT_INtNtCsaNl6UpbT7bw_4core6option8IntoIterBT_EE11spec_extendCsemR3zGJppC3_18tracing_attributes, symObjAddr: 0x4030, symBinAddr: 0x2DDF0, symSize: 0x24 }
  - { offset: 0x36D04, size: 0x8, addend: 0x0, symName: __RNvXs_NtNtCsiTraAjBDcu4_5alloc3vec11spec_extendINtB6_3VecNtNtCsc29TF2YcYso_3syn3pat3PatEINtB4_10SpecExtendBT_INtNtNtNtCsaNl6UpbT7bw_4core4iter8adapters3map3MapINtNtB6_9into_iter8IntoIterTBT_NtNtBX_5token5CommaEENCNvXs8_NtBX_10punctuatedINtB3v_10PunctuatedBT_B32_ENtNtNtB1Q_6traits7collect12IntoIterator9into_iter0EE11spec_extendCsemR3zGJppC3_18tracing_attributes, symObjAddr: 0x4054, symBinAddr: 0x2DE14, symSize: 0x24 }
  - { offset: 0x36D56, size: 0x8, addend: 0x0, symName: __RNvXs_NtNtCsiTraAjBDcu4_5alloc3vec11spec_extendINtB6_3VecNtNtCsc29TF2YcYso_3syn3pat8FieldPatEINtB4_10SpecExtendBT_INtNtCsaNl6UpbT7bw_4core6option8IntoIterBT_EE11spec_extendCsemR3zGJppC3_18tracing_attributes, symObjAddr: 0x4078, symBinAddr: 0x2DE38, symSize: 0x24 }
  - { offset: 0x36DA8, size: 0x8, addend: 0x0, symName: __RNvXs_NtNtCsiTraAjBDcu4_5alloc3vec11spec_extendINtB6_3VecNtNtCsc29TF2YcYso_3syn3pat8FieldPatEINtB4_10SpecExtendBT_INtNtNtNtCsaNl6UpbT7bw_4core4iter8adapters3map3MapINtNtB6_9into_iter8IntoIterTBT_NtNtBX_5token5CommaEENCNvXs8_NtBX_10punctuatedINtB3A_10PunctuatedBT_B37_ENtNtNtB1V_6traits7collect12IntoIterator9into_iter0EE11spec_extendCsemR3zGJppC3_18tracing_attributes, symObjAddr: 0x409C, symBinAddr: 0x2DE5C, symSize: 0x24 }
  - { offset: 0x36DFA, size: 0x8, addend: 0x0, symName: __RNvXs_NtNtCsiTraAjBDcu4_5alloc3vec11spec_extendINtB6_3VecNtNtCsc29TF2YcYso_3syn4item5FnArgEINtB4_10SpecExtendBT_INtNtCsaNl6UpbT7bw_4core6option8IntoIterBT_EE11spec_extendCsemR3zGJppC3_18tracing_attributes, symObjAddr: 0x40C0, symBinAddr: 0x2DE80, symSize: 0x24 }
  - { offset: 0x36E4C, size: 0x8, addend: 0x0, symName: __RNvXs_NtNtCsiTraAjBDcu4_5alloc3vec11spec_extendINtB6_3VecNtNtCsc29TF2YcYso_3syn4item5FnArgEINtB4_10SpecExtendBT_INtNtNtNtCsaNl6UpbT7bw_4core4iter8adapters3map3MapINtNtB6_9into_iter8IntoIterTBT_NtNtBX_5token5CommaEENCNvXs8_NtBX_10punctuatedINtB3y_10PunctuatedBT_B35_ENtNtNtB1T_6traits7collect12IntoIterator9into_iter0EE11spec_extendCsemR3zGJppC3_18tracing_attributes, symObjAddr: 0x40E4, symBinAddr: 0x2DEA4, symSize: 0x24 }
  - { offset: 0x36EAA, size: 0x8, addend: 0x0, symName: __RNvXNtNtCsiTraAjBDcu4_5alloc3vec14spec_from_iterINtB4_3VecNtCshnvkK9b4wzu_11proc_macro211TokenStreamEINtB2_12SpecFromIterBU_INtNtNtNtCsaNl6UpbT7bw_4core4iter8adapters3map3MapINtNtB23_6filter6FilterINtNtNtB27_5slice4iter4IterTNtBW_5IdentTB3B_NtNtCsemR3zGJppC3_18tracing_attributes6expand10RecordTypeEEENCNCINvB3T_9gen_blockBU_Es0_0s2_0ENCB4R_s3_0EE9from_iterB3V_, symObjAddr: 0x3140, symBinAddr: 0x2CF00, symSize: 0x14 }
  - { offset: 0x36EE9, size: 0x8, addend: 0x0, symName: __RNvXNtNtCsiTraAjBDcu4_5alloc3vec14spec_from_iterINtB4_3VecNtCshnvkK9b4wzu_11proc_macro211TokenStreamEINtB2_12SpecFromIterBU_INtNtNtNtCsaNl6UpbT7bw_4core4iter8adapters3map3MapINtNtB23_6filter6FilterINtNtNtB27_5slice4iter4IterTNtBW_5IdentTB3B_NtNtCsemR3zGJppC3_18tracing_attributes6expand10RecordTypeEEENCNCINvB3T_9gen_blockNtNtCsc29TF2YcYso_3syn4stmt5BlockEs0_0s2_0ENCB4R_s3_0EE9from_iterB3V_, symObjAddr: 0x3154, symBinAddr: 0x2CF14, symSize: 0x14 }
  - { offset: 0x36F28, size: 0x8, addend: 0x0, symName: __RNvXNtNtCsiTraAjBDcu4_5alloc3vec14spec_from_iterINtB4_3VecNtCshnvkK9b4wzu_11proc_macro211TokenStreamEINtB2_12SpecFromIterBU_INtNtNtNtCsaNl6UpbT7bw_4core4iter8adapters3map3MapINtNtNtB27_5slice4iter4IterNtNtCsc29TF2YcYso_3syn4stmt4StmtENCNvMs_NtCsemR3zGJppC3_18tracing_attributes6expandNtB3R_9AsyncInfo9gen_async0EE9from_iterB3T_, symObjAddr: 0x3168, symBinAddr: 0x2CF28, symSize: 0x2C }
  - { offset: 0x36F66, size: 0x8, addend: 0x0, symName: __RNvXNtNtCsiTraAjBDcu4_5alloc3vec14spec_from_iterINtB4_3VecTNtCshnvkK9b4wzu_11proc_macro25IdentTBV_NtNtCsemR3zGJppC3_18tracing_attributes6expand10RecordTypeEEEINtB2_12SpecFromIterBU_INtNtNtNtCsaNl6UpbT7bw_4core4iter8adapters3map3MapINtNtB2Y_7flatten7FlatMapINtNtCsc29TF2YcYso_3syn10punctuated8IntoIterNtNtB4b_4item5FnArgEINtNtB6_5boxed3BoxDNtNtNtB30_6traits8iterator8Iteratorp4ItemB1u_EL_ENCNCINvB1A_9gen_blockNtBX_11TokenStreamEs0_00ENCB6g_s_0EE9from_iterB1C_, symObjAddr: 0x3194, symBinAddr: 0x2CF54, symSize: 0x14 }
  - { offset: 0x36FA5, size: 0x8, addend: 0x0, symName: __RNvXNtNtCsiTraAjBDcu4_5alloc3vec14spec_from_iterINtB4_3VecTNtCshnvkK9b4wzu_11proc_macro25IdentTBV_NtNtCsemR3zGJppC3_18tracing_attributes6expand10RecordTypeEEEINtB2_12SpecFromIterBU_INtNtNtNtCsaNl6UpbT7bw_4core4iter8adapters3map3MapINtNtB2Y_7flatten7FlatMapINtNtCsc29TF2YcYso_3syn10punctuated8IntoIterNtNtB4b_4item5FnArgEINtNtB6_5boxed3BoxDNtNtNtB30_6traits8iterator8Iteratorp4ItemB1u_EL_ENCNCINvB1A_9gen_blockNtNtB4b_4stmt5BlockEs0_00ENCB6g_s_0EE9from_iterB1C_, symObjAddr: 0x31A8, symBinAddr: 0x2CF68, symSize: 0x14 }
  - { offset: 0x36FF0, size: 0x8, addend: 0x0, symName: __RNvXNtNtCsiTraAjBDcu4_5alloc3vec21spec_from_iter_nestedINtB4_3VecNtCshnvkK9b4wzu_11proc_macro211TokenStreamEINtB2_18SpecFromIterNestedB11_INtNtNtNtCsaNl6UpbT7bw_4core4iter8adapters3map3MapINtNtB2h_6filter6FilterINtNtNtB2l_5slice4iter4IterTNtB13_5IdentTB3P_NtNtCsemR3zGJppC3_18tracing_attributes6expand10RecordTypeEEENCNCINvB48_9gen_blockB11_Es0_0s2_0ENCB56_s3_0EE9from_iterB4a_, symObjAddr: 0x31BC, symBinAddr: 0x2CF7C, symSize: 0x218 }
  - { offset: 0x3720E, size: 0x8, addend: 0x0, symName: __RNvXNtNtCsiTraAjBDcu4_5alloc3vec21spec_from_iter_nestedINtB4_3VecNtCshnvkK9b4wzu_11proc_macro211TokenStreamEINtB2_18SpecFromIterNestedB11_INtNtNtNtCsaNl6UpbT7bw_4core4iter8adapters3map3MapINtNtB2h_6filter6FilterINtNtNtB2l_5slice4iter4IterTNtB13_5IdentTB3P_NtNtCsemR3zGJppC3_18tracing_attributes6expand10RecordTypeEEENCNCINvB48_9gen_blockNtNtCsc29TF2YcYso_3syn4stmt5BlockEs0_0s2_0ENCB56_s3_0EE9from_iterB4a_, symObjAddr: 0x33D4, symBinAddr: 0x2D194, symSize: 0x218 }
  - { offset: 0x3742C, size: 0x8, addend: 0x0, symName: __RNvXNtNtCsiTraAjBDcu4_5alloc3vec21spec_from_iter_nestedINtB4_3VecTNtCshnvkK9b4wzu_11proc_macro25IdentTB12_NtNtCsemR3zGJppC3_18tracing_attributes6expand10RecordTypeEEEINtB2_18SpecFromIterNestedB11_INtNtNtNtCsaNl6UpbT7bw_4core4iter8adapters3map3MapINtNtB3d_7flatten7FlatMapINtNtCsc29TF2YcYso_3syn10punctuated8IntoIterNtNtB4q_4item5FnArgEINtNtB6_5boxed3BoxDNtNtNtB3f_6traits8iterator8Iteratorp4ItemB1B_EL_ENCNCINvB1I_9gen_blockNtB14_11TokenStreamEs0_00ENCB6v_s_0EE9from_iterB1K_, symObjAddr: 0x35EC, symBinAddr: 0x2D3AC, symSize: 0x248 }
  - { offset: 0x3764B, size: 0x8, addend: 0x0, symName: __RNvXNtNtCsiTraAjBDcu4_5alloc3vec21spec_from_iter_nestedINtB4_3VecTNtCshnvkK9b4wzu_11proc_macro25IdentTB12_NtNtCsemR3zGJppC3_18tracing_attributes6expand10RecordTypeEEEINtB2_18SpecFromIterNestedB11_INtNtNtNtCsaNl6UpbT7bw_4core4iter8adapters3map3MapINtNtB3d_7flatten7FlatMapINtNtCsc29TF2YcYso_3syn10punctuated8IntoIterNtNtB4q_4item5FnArgEINtNtB6_5boxed3BoxDNtNtNtB3f_6traits8iterator8Iteratorp4ItemB1B_EL_ENCNCINvB1I_9gen_blockNtNtB4q_4stmt5BlockEs0_00ENCB6v_s_0EE9from_iterB1K_, symObjAddr: 0x3834, symBinAddr: 0x2D5F4, symSize: 0x248 }
  - { offset: 0x37870, size: 0x8, addend: 0x0, symName: __RNvXs_NtNtCsiTraAjBDcu4_5alloc3vec21spec_from_iter_nestedINtB6_3VecNtCshnvkK9b4wzu_11proc_macro211TokenStreamEINtB4_18SpecFromIterNestedB13_INtNtNtNtCsaNl6UpbT7bw_4core4iter8adapters3map3MapINtNtNtB2n_5slice4iter4IterNtNtCsc29TF2YcYso_3syn4stmt4StmtENCNvMs_NtCsemR3zGJppC3_18tracing_attributes6expandNtB47_9AsyncInfo9gen_async0EE9from_iterB49_, symObjAddr: 0x4158, symBinAddr: 0x2DF18, symSize: 0x164 }
  - { offset: 0x3794D, size: 0x8, addend: 0x0, symName: __RNvXs6_NtCsiTraAjBDcu4_5alloc3vecINtB5_3VecNtCshnvkK9b4wzu_11proc_macro211TokenStreamENtNtNtCsaNl6UpbT7bw_4core3ops5deref5Deref5derefCsemR3zGJppC3_18tracing_attributes, symObjAddr: 0x3AEC, symBinAddr: 0x2D8AC, symSize: 0x24 }
  - { offset: 0x3798D, size: 0x8, addend: 0x0, symName: __RNvXs6_NtCsiTraAjBDcu4_5alloc3vecINtB5_3VecNtNtCsc29TF2YcYso_3syn4stmt4StmtENtNtNtCsaNl6UpbT7bw_4core3ops5deref5Deref5derefCsemR3zGJppC3_18tracing_attributes, symObjAddr: 0x3B10, symBinAddr: 0x2D8D0, symSize: 0x24 }
  - { offset: 0x379CD, size: 0x8, addend: 0x0, symName: __RNvXs6_NtCsiTraAjBDcu4_5alloc3vecINtB5_3VecNtNtCsc29TF2YcYso_3syn5error5ErrorENtNtNtCsaNl6UpbT7bw_4core3ops5deref5Deref5derefCsemR3zGJppC3_18tracing_attributes, symObjAddr: 0x3B34, symBinAddr: 0x2D8F4, symSize: 0x24 }
  - { offset: 0x37A0D, size: 0x8, addend: 0x0, symName: __RNvXs6_NtCsiTraAjBDcu4_5alloc3vecINtB5_3VecTNtCshnvkK9b4wzu_11proc_macro25IdentNtNtCsc29TF2YcYso_3syn5token3DotEENtNtNtCsaNl6UpbT7bw_4core3ops5deref5Deref5derefCsemR3zGJppC3_18tracing_attributes, symObjAddr: 0x3B58, symBinAddr: 0x2D918, symSize: 0x24 }
  - { offset: 0x37A4D, size: 0x8, addend: 0x0, symName: __RNvXs6_NtCsiTraAjBDcu4_5alloc3vecINtB5_3VecTNtCshnvkK9b4wzu_11proc_macro25IdentTBG_NtNtCsemR3zGJppC3_18tracing_attributes6expand10RecordTypeEEENtNtNtCsaNl6UpbT7bw_4core3ops5deref5Deref5derefB1n_, symObjAddr: 0x3B7C, symBinAddr: 0x2D93C, symSize: 0x24 }
  - { offset: 0x37A8D, size: 0x8, addend: 0x0, symName: __RNvXs6_NtCsiTraAjBDcu4_5alloc3vecINtB5_3VecTNtNtCsemR3zGJppC3_18tracing_attributes4attr5FieldNtNtCsc29TF2YcYso_3syn5token5CommaEENtNtNtCsaNl6UpbT7bw_4core3ops5deref5Deref5derefBK_, symObjAddr: 0x3BA0, symBinAddr: 0x2D960, symSize: 0x24 }
  - { offset: 0x37BF3, size: 0x8, addend: 0x0, symName: __RNvXs7_NtCsiTraAjBDcu4_5alloc3vecINtB5_3VecTNtNtCsc29TF2YcYso_3syn2ty4TypeNtNtBK_5token5CommaEENtNtNtCsaNl6UpbT7bw_4core3ops5deref8DerefMut9deref_mutCsemR3zGJppC3_18tracing_attributes, symObjAddr: 0x3BC4, symBinAddr: 0x2D984, symSize: 0x24 }
  - { offset: 0x37C33, size: 0x8, addend: 0x0, symName: __RNvXs7_NtCsiTraAjBDcu4_5alloc3vecINtB5_3VecTNtNtCsc29TF2YcYso_3syn2ty9BareFnArgNtNtBK_5token5CommaEENtNtNtCsaNl6UpbT7bw_4core3ops5deref8DerefMut9deref_mutCsemR3zGJppC3_18tracing_attributes, symObjAddr: 0x3BE8, symBinAddr: 0x2D9A8, symSize: 0x24 }
  - { offset: 0x37C73, size: 0x8, addend: 0x0, symName: __RNvXs7_NtCsiTraAjBDcu4_5alloc3vecINtB5_3VecTNtNtCsc29TF2YcYso_3syn3pat3PatNtNtBK_5token2OrEENtNtNtCsaNl6UpbT7bw_4core3ops5deref8DerefMut9deref_mutCsemR3zGJppC3_18tracing_attributes, symObjAddr: 0x3C0C, symBinAddr: 0x2D9CC, symSize: 0x24 }
  - { offset: 0x37CB3, size: 0x8, addend: 0x0, symName: __RNvXs7_NtCsiTraAjBDcu4_5alloc3vecINtB5_3VecTNtNtCsc29TF2YcYso_3syn3pat3PatNtNtBK_5token5CommaEENtNtNtCsaNl6UpbT7bw_4core3ops5deref8DerefMut9deref_mutCsemR3zGJppC3_18tracing_attributes, symObjAddr: 0x3C30, symBinAddr: 0x2D9F0, symSize: 0x24 }
  - { offset: 0x37CF3, size: 0x8, addend: 0x0, symName: __RNvXs7_NtCsiTraAjBDcu4_5alloc3vecINtB5_3VecTNtNtCsc29TF2YcYso_3syn3pat8FieldPatNtNtBK_5token5CommaEENtNtNtCsaNl6UpbT7bw_4core3ops5deref8DerefMut9deref_mutCsemR3zGJppC3_18tracing_attributes, symObjAddr: 0x3C54, symBinAddr: 0x2DA14, symSize: 0x24 }
  - { offset: 0x37D33, size: 0x8, addend: 0x0, symName: __RNvXs7_NtCsiTraAjBDcu4_5alloc3vecINtB5_3VecTNtNtCsc29TF2YcYso_3syn4data7VariantNtNtBK_5token5CommaEENtNtNtCsaNl6UpbT7bw_4core3ops5deref8DerefMut9deref_mutCsemR3zGJppC3_18tracing_attributes, symObjAddr: 0x3C78, symBinAddr: 0x2DA38, symSize: 0x24 }
  - { offset: 0x37D73, size: 0x8, addend: 0x0, symName: __RNvXs7_NtCsiTraAjBDcu4_5alloc3vecINtB5_3VecTNtNtCsc29TF2YcYso_3syn4expr10FieldValueNtNtBK_5token5CommaEENtNtNtCsaNl6UpbT7bw_4core3ops5deref8DerefMut9deref_mutCsemR3zGJppC3_18tracing_attributes, symObjAddr: 0x3C9C, symBinAddr: 0x2DA5C, symSize: 0x24 }
  - { offset: 0x37DB3, size: 0x8, addend: 0x0, symName: __RNvXs7_NtCsiTraAjBDcu4_5alloc3vecINtB5_3VecTNtNtCsc29TF2YcYso_3syn4expr4ExprNtNtBK_5token5CommaEENtNtNtCsaNl6UpbT7bw_4core3ops5deref8DerefMut9deref_mutCsemR3zGJppC3_18tracing_attributes, symObjAddr: 0x3CC0, symBinAddr: 0x2DA80, symSize: 0x24 }
  - { offset: 0x37DF3, size: 0x8, addend: 0x0, symName: __RNvXs7_NtCsiTraAjBDcu4_5alloc3vecINtB5_3VecTNtNtCsc29TF2YcYso_3syn4item5FnArgNtNtBK_5token5CommaEENtNtNtCsaNl6UpbT7bw_4core3ops5deref8DerefMut9deref_mutCsemR3zGJppC3_18tracing_attributes, symObjAddr: 0x3CE4, symBinAddr: 0x2DAA4, symSize: 0x24 }
  - { offset: 0x37E33, size: 0x8, addend: 0x0, symName: __RNvXs7_NtCsiTraAjBDcu4_5alloc3vecINtB5_3VecTNtNtCsc29TF2YcYso_3syn4item7UseTreeNtNtBK_5token5CommaEENtNtNtCsaNl6UpbT7bw_4core3ops5deref8DerefMut9deref_mutCsemR3zGJppC3_18tracing_attributes, symObjAddr: 0x3D08, symBinAddr: 0x2DAC8, symSize: 0x24 }
  - { offset: 0x37E73, size: 0x8, addend: 0x0, symName: __RNvXs7_NtCsiTraAjBDcu4_5alloc3vecINtB5_3VecTNtNtCsc29TF2YcYso_3syn4path15GenericArgumentNtNtBK_5token5CommaEENtNtNtCsaNl6UpbT7bw_4core3ops5deref8DerefMut9deref_mutCsemR3zGJppC3_18tracing_attributes, symObjAddr: 0x3D2C, symBinAddr: 0x2DAEC, symSize: 0x24 }
  - { offset: 0x37EB3, size: 0x8, addend: 0x0, symName: __RNvXs7_NtCsiTraAjBDcu4_5alloc3vecINtB5_3VecTNtNtCsc29TF2YcYso_3syn8generics13CapturedParamNtNtBK_5token5CommaEENtNtNtCsaNl6UpbT7bw_4core3ops5deref8DerefMut9deref_mutCsemR3zGJppC3_18tracing_attributes, symObjAddr: 0x3D50, symBinAddr: 0x2DB10, symSize: 0x24 }
  - { offset: 0x37EF3, size: 0x8, addend: 0x0, symName: __RNvXs7_NtCsiTraAjBDcu4_5alloc3vecINtB5_3VecTNtNtCsc29TF2YcYso_3syn8generics14TypeParamBoundNtNtBK_5token4PlusEENtNtNtCsaNl6UpbT7bw_4core3ops5deref8DerefMut9deref_mutCsemR3zGJppC3_18tracing_attributes, symObjAddr: 0x3D74, symBinAddr: 0x2DB34, symSize: 0x24 }
  - { offset: 0x37F33, size: 0x8, addend: 0x0, symName: __RNvXs7_NtCsiTraAjBDcu4_5alloc3vecINtB5_3VecTNtNtCsc29TF2YcYso_3syn8generics14WherePredicateNtNtBK_5token5CommaEENtNtNtCsaNl6UpbT7bw_4core3ops5deref8DerefMut9deref_mutCsemR3zGJppC3_18tracing_attributes, symObjAddr: 0x3D98, symBinAddr: 0x2DB58, symSize: 0x24 }
  - { offset: 0x37F73, size: 0x8, addend: 0x0, symName: __RNvXs7_NtCsiTraAjBDcu4_5alloc3vecINtB5_3VecTNtNtCsc29TF2YcYso_3syn8lifetime8LifetimeNtNtBK_5token4PlusEENtNtNtCsaNl6UpbT7bw_4core3ops5deref8DerefMut9deref_mutCsemR3zGJppC3_18tracing_attributes, symObjAddr: 0x3DBC, symBinAddr: 0x2DB7C, symSize: 0x24 }
  - { offset: 0x37FB3, size: 0x8, addend: 0x0, symName: __RNvXs7_NtCsiTraAjBDcu4_5alloc3vecINtB5_3VecTNtNtCsemR3zGJppC3_18tracing_attributes4attr5FieldNtNtCsc29TF2YcYso_3syn5token5CommaEENtNtNtCsaNl6UpbT7bw_4core3ops5deref8DerefMut9deref_mutBK_, symObjAddr: 0x3DE0, symBinAddr: 0x2DBA0, symSize: 0x24 }
  - { offset: 0x38179, size: 0x8, addend: 0x0, symName: __RNvXs9_NtCsiTraAjBDcu4_5alloc3vecINtB5_3VecNtNtCsc29TF2YcYso_3syn5error5ErrorENtNtCsaNl6UpbT7bw_4core5clone5Clone5cloneCsemR3zGJppC3_18tracing_attributes, symObjAddr: 0x3E04, symBinAddr: 0x2DBC4, symSize: 0x90 }
  - { offset: 0x3834A, size: 0x8, addend: 0x0, symName: __RNvXs9_NtCsiTraAjBDcu4_5alloc3vecINtB5_3VecTNtCshnvkK9b4wzu_11proc_macro25IdentNtNtCsc29TF2YcYso_3syn5token3DotEENtNtCsaNl6UpbT7bw_4core5clone5Clone5cloneCsemR3zGJppC3_18tracing_attributes, symObjAddr: 0x3E94, symBinAddr: 0x2DC54, symSize: 0x90 }
  - { offset: 0x3851B, size: 0x8, addend: 0x0, symName: __RNvXs9_NtCsiTraAjBDcu4_5alloc3vecINtB5_3VecTNtNtCsemR3zGJppC3_18tracing_attributes4attr5FieldNtNtCsc29TF2YcYso_3syn5token5CommaEENtNtCsaNl6UpbT7bw_4core5clone5Clone5cloneBK_, symObjAddr: 0x3F24, symBinAddr: 0x2DCE4, symSize: 0x90 }
  - { offset: 0x386F7, size: 0x8, addend: 0x0, symName: __RNvXs_NtNtCsiTraAjBDcu4_5alloc3vec16in_place_collectINtB6_3VecTNtCshnvkK9b4wzu_11proc_macro25IdentBZ_EEINtNtB6_14spec_from_iter12SpecFromIterBY_INtNtNtNtCsaNl6UpbT7bw_4core4iter8adapters3map3MapINtNtB6_9into_iter8IntoIterTBZ_TBZ_NtNtCsemR3zGJppC3_18tracing_attributes6expand10RecordTypeEEENCNCINvB3H_9gen_blockNtB11_11TokenStreamEs0_0s4_0EE9from_iterB3J_, symObjAddr: 0x4108, symBinAddr: 0x2DEC8, symSize: 0x28 }
  - { offset: 0x38753, size: 0x8, addend: 0x0, symName: __RNvXs_NtNtCsiTraAjBDcu4_5alloc3vec16in_place_collectINtB6_3VecTNtCshnvkK9b4wzu_11proc_macro25IdentBZ_EEINtNtB6_14spec_from_iter12SpecFromIterBY_INtNtNtNtCsaNl6UpbT7bw_4core4iter8adapters3map3MapINtNtB6_9into_iter8IntoIterTBZ_TBZ_NtNtCsemR3zGJppC3_18tracing_attributes6expand10RecordTypeEEENCNCINvB3H_9gen_blockNtNtCsc29TF2YcYso_3syn4stmt5BlockEs0_0s4_0EE9from_iterB3J_, symObjAddr: 0x4130, symBinAddr: 0x2DEF0, symSize: 0x28 }
  - { offset: 0x387B6, size: 0x8, addend: 0x0, symName: __RNvXsb_NtCsiTraAjBDcu4_5alloc3vecINtB5_3VecTNtNtCsc29TF2YcYso_3syn4expr4ExprNtNtBK_5token5CommaEEINtNtNtCsaNl6UpbT7bw_4core3ops5index5IndexjE5indexCsemR3zGJppC3_18tracing_attributes, symObjAddr: 0x42BC, symBinAddr: 0x2E07C, symSize: 0x8C }
  - { offset: 0x3893E, size: 0x8, addend: 0x0, symName: __RNvXsc_NtCsiTraAjBDcu4_5alloc3vecINtB5_3VecNtCshnvkK9b4wzu_11proc_macro211TokenStreamEINtNtNtCsaNl6UpbT7bw_4core3ops5index8IndexMutjE9index_mutCsemR3zGJppC3_18tracing_attributes, symObjAddr: 0x4348, symBinAddr: 0x2E108, symSize: 0x8C }
  - { offset: 0x38A98, size: 0x8, addend: 0x0, symName: __RNvXse_NtCsiTraAjBDcu4_5alloc3vecINtB5_3VecNtCshnvkK9b4wzu_11proc_macro25IdentENtNtNtNtCsaNl6UpbT7bw_4core4iter6traits7collect12IntoIterator9into_iterCsemR3zGJppC3_18tracing_attributes, symObjAddr: 0x43D4, symBinAddr: 0x2E194, symSize: 0xE4 }
  - { offset: 0x38D2A, size: 0x8, addend: 0x0, symName: __RNvXse_NtCsiTraAjBDcu4_5alloc3vecINtB5_3VecNtNtCsc29TF2YcYso_3syn3pat3PatENtNtNtNtCsaNl6UpbT7bw_4core4iter6traits7collect12IntoIterator9into_iterCsemR3zGJppC3_18tracing_attributes, symObjAddr: 0x44B8, symBinAddr: 0x2E278, symSize: 0xE4 }
  - { offset: 0x38FBC, size: 0x8, addend: 0x0, symName: __RNvXse_NtCsiTraAjBDcu4_5alloc3vecINtB5_3VecNtNtCsc29TF2YcYso_3syn3pat8FieldPatENtNtNtNtCsaNl6UpbT7bw_4core4iter6traits7collect12IntoIterator9into_iterCsemR3zGJppC3_18tracing_attributes, symObjAddr: 0x459C, symBinAddr: 0x2E35C, symSize: 0xDC }
  - { offset: 0x3924E, size: 0x8, addend: 0x0, symName: __RNvXse_NtCsiTraAjBDcu4_5alloc3vecINtB5_3VecNtNtCsc29TF2YcYso_3syn4item5FnArgENtNtNtNtCsaNl6UpbT7bw_4core4iter6traits7collect12IntoIterator9into_iterCsemR3zGJppC3_18tracing_attributes, symObjAddr: 0x4678, symBinAddr: 0x2E438, symSize: 0xE4 }
  - { offset: 0x394E0, size: 0x8, addend: 0x0, symName: __RNvXse_NtCsiTraAjBDcu4_5alloc3vecINtB5_3VecNtNtCsc29TF2YcYso_3syn4stmt4StmtENtNtNtNtCsaNl6UpbT7bw_4core4iter6traits7collect12IntoIterator9into_iterCsemR3zGJppC3_18tracing_attributes, symObjAddr: 0x475C, symBinAddr: 0x2E51C, symSize: 0xE4 }
  - { offset: 0x39772, size: 0x8, addend: 0x0, symName: __RNvXse_NtCsiTraAjBDcu4_5alloc3vecINtB5_3VecTNtCshnvkK9b4wzu_11proc_macro25IdentNtNtCsc29TF2YcYso_3syn5token5CommaEENtNtNtNtCsaNl6UpbT7bw_4core4iter6traits7collect12IntoIterator9into_iterCsemR3zGJppC3_18tracing_attributes, symObjAddr: 0x4840, symBinAddr: 0x2E600, symSize: 0xDC }
  - { offset: 0x39A04, size: 0x8, addend: 0x0, symName: __RNvXse_NtCsiTraAjBDcu4_5alloc3vecINtB5_3VecTNtCshnvkK9b4wzu_11proc_macro25IdentTBG_NtNtCsemR3zGJppC3_18tracing_attributes6expand10RecordTypeEEENtNtNtNtCsaNl6UpbT7bw_4core4iter6traits7collect12IntoIterator9into_iterB1n_, symObjAddr: 0x491C, symBinAddr: 0x2E6DC, symSize: 0xE4 }
  - { offset: 0x39C96, size: 0x8, addend: 0x0, symName: __RNvXse_NtCsiTraAjBDcu4_5alloc3vecINtB5_3VecTNtNtCsc29TF2YcYso_3syn3pat3PatNtNtBK_5token5CommaEENtNtNtNtCsaNl6UpbT7bw_4core4iter6traits7collect12IntoIterator9into_iterCsemR3zGJppC3_18tracing_attributes, symObjAddr: 0x4A00, symBinAddr: 0x2E7C0, symSize: 0xE4 }
  - { offset: 0x39F28, size: 0x8, addend: 0x0, symName: __RNvXse_NtCsiTraAjBDcu4_5alloc3vecINtB5_3VecTNtNtCsc29TF2YcYso_3syn3pat8FieldPatNtNtBK_5token5CommaEENtNtNtNtCsaNl6UpbT7bw_4core4iter6traits7collect12IntoIterator9into_iterCsemR3zGJppC3_18tracing_attributes, symObjAddr: 0x4AE4, symBinAddr: 0x2E8A4, symSize: 0xE4 }
  - { offset: 0x3A1BA, size: 0x8, addend: 0x0, symName: __RNvXse_NtCsiTraAjBDcu4_5alloc3vecINtB5_3VecTNtNtCsc29TF2YcYso_3syn4item5FnArgNtNtBK_5token5CommaEENtNtNtNtCsaNl6UpbT7bw_4core4iter6traits7collect12IntoIterator9into_iterCsemR3zGJppC3_18tracing_attributes, symObjAddr: 0x4BC8, symBinAddr: 0x2E988, symSize: 0xE4 }
  - { offset: 0x3A4FD, size: 0x8, addend: 0x0, symName: __RNvXsf_NtCsiTraAjBDcu4_5alloc3vecRINtB5_3VecTNtCshnvkK9b4wzu_11proc_macro25IdentBH_EENtNtNtNtCsaNl6UpbT7bw_4core4iter6traits7collect12IntoIterator9into_iterCsemR3zGJppC3_18tracing_attributes, symObjAddr: 0x4CAC, symBinAddr: 0x2EA6C, symSize: 0xAC }
  - { offset: 0x3A73B, size: 0x8, addend: 0x0, symName: __RNvXsf_NtCsiTraAjBDcu4_5alloc3vecRINtB5_3VecTReNtNtCsc29TF2YcYso_3syn2ty8TypePathEENtNtNtNtCsaNl6UpbT7bw_4core4iter6traits7collect12IntoIterator9into_iterCsemR3zGJppC3_18tracing_attributes, symObjAddr: 0x4D58, symBinAddr: 0x2EB18, symSize: 0xAC }
  - { offset: 0x3A97F, size: 0x8, addend: 0x0, symName: __RNvXsg_NtCsiTraAjBDcu4_5alloc3vecQINtB5_3VecNtNtCsc29TF2YcYso_3syn4attr9AttributeENtNtNtNtCsaNl6UpbT7bw_4core4iter6traits7collect12IntoIterator9into_iterCsemR3zGJppC3_18tracing_attributes, symObjAddr: 0x4E04, symBinAddr: 0x2EBC4, symSize: 0xA4 }
  - { offset: 0x3AB8F, size: 0x8, addend: 0x0, symName: __RNvXsg_NtCsiTraAjBDcu4_5alloc3vecQINtB5_3VecNtNtCsc29TF2YcYso_3syn4expr3ArmENtNtNtNtCsaNl6UpbT7bw_4core4iter6traits7collect12IntoIterator9into_iterCsemR3zGJppC3_18tracing_attributes, symObjAddr: 0x4EA8, symBinAddr: 0x2EC68, symSize: 0xAC }
  - { offset: 0x3AD9F, size: 0x8, addend: 0x0, symName: __RNvXsg_NtCsiTraAjBDcu4_5alloc3vecQINtB5_3VecNtNtCsc29TF2YcYso_3syn4item11ForeignItemENtNtNtNtCsaNl6UpbT7bw_4core4iter6traits7collect12IntoIterator9into_iterCsemR3zGJppC3_18tracing_attributes, symObjAddr: 0x4F54, symBinAddr: 0x2ED14, symSize: 0xAC }
  - { offset: 0x3AFAF, size: 0x8, addend: 0x0, symName: __RNvXsg_NtCsiTraAjBDcu4_5alloc3vecQINtB5_3VecNtNtCsc29TF2YcYso_3syn4item4ItemENtNtNtNtCsaNl6UpbT7bw_4core4iter6traits7collect12IntoIterator9into_iterCsemR3zGJppC3_18tracing_attributes, symObjAddr: 0x5000, symBinAddr: 0x2EDC0, symSize: 0xAC }
  - { offset: 0x3B1BF, size: 0x8, addend: 0x0, symName: __RNvXsg_NtCsiTraAjBDcu4_5alloc3vecQINtB5_3VecNtNtCsc29TF2YcYso_3syn4item8ImplItemENtNtNtNtCsaNl6UpbT7bw_4core4iter6traits7collect12IntoIterator9into_iterCsemR3zGJppC3_18tracing_attributes, symObjAddr: 0x50AC, symBinAddr: 0x2EE6C, symSize: 0xAC }
  - { offset: 0x3B3CF, size: 0x8, addend: 0x0, symName: __RNvXsg_NtCsiTraAjBDcu4_5alloc3vecQINtB5_3VecNtNtCsc29TF2YcYso_3syn4item9TraitItemENtNtNtNtCsaNl6UpbT7bw_4core4iter6traits7collect12IntoIterator9into_iterCsemR3zGJppC3_18tracing_attributes, symObjAddr: 0x5158, symBinAddr: 0x2EF18, symSize: 0xAC }
  - { offset: 0x3B5DF, size: 0x8, addend: 0x0, symName: __RNvXsg_NtCsiTraAjBDcu4_5alloc3vecQINtB5_3VecNtNtCsc29TF2YcYso_3syn4stmt4StmtENtNtNtNtCsaNl6UpbT7bw_4core4iter6traits7collect12IntoIterator9into_iterCsemR3zGJppC3_18tracing_attributes, symObjAddr: 0x5204, symBinAddr: 0x2EFC4, symSize: 0xAC }
  - { offset: 0x3B7F5, size: 0x8, addend: 0x0, symName: __RNvXsn_NtCsiTraAjBDcu4_5alloc3vecINtB5_3VecNtCshnvkK9b4wzu_11proc_macro211TokenStreamENtNtNtCsaNl6UpbT7bw_4core3ops4drop4Drop4dropCsemR3zGJppC3_18tracing_attributes, symObjAddr: 0x52D4, symBinAddr: 0x2F094, symSize: 0x38 }
  - { offset: 0x3B8A5, size: 0x8, addend: 0x0, symName: __RNvXsn_NtCsiTraAjBDcu4_5alloc3vecINtB5_3VecNtCshnvkK9b4wzu_11proc_macro25IdentENtNtNtCsaNl6UpbT7bw_4core3ops4drop4Drop4dropCsemR3zGJppC3_18tracing_attributes, symObjAddr: 0x530C, symBinAddr: 0x2F0CC, symSize: 0x38 }
  - { offset: 0x3B955, size: 0x8, addend: 0x0, symName: __RNvXsn_NtCsiTraAjBDcu4_5alloc3vecINtB5_3VecNtNtCsc29TF2YcYso_3syn3pat3PatENtNtNtCsaNl6UpbT7bw_4core3ops4drop4Drop4dropCsemR3zGJppC3_18tracing_attributes, symObjAddr: 0x5344, symBinAddr: 0x2F104, symSize: 0x38 }
  - { offset: 0x3BA05, size: 0x8, addend: 0x0, symName: __RNvXsn_NtCsiTraAjBDcu4_5alloc3vecINtB5_3VecNtNtCsc29TF2YcYso_3syn3pat8FieldPatENtNtNtCsaNl6UpbT7bw_4core3ops4drop4Drop4dropCsemR3zGJppC3_18tracing_attributes, symObjAddr: 0x537C, symBinAddr: 0x2F13C, symSize: 0x38 }
  - { offset: 0x3BAB5, size: 0x8, addend: 0x0, symName: __RNvXsn_NtCsiTraAjBDcu4_5alloc3vecINtB5_3VecNtNtCsc29TF2YcYso_3syn4item5FnArgENtNtNtCsaNl6UpbT7bw_4core3ops4drop4Drop4dropCsemR3zGJppC3_18tracing_attributes, symObjAddr: 0x53B4, symBinAddr: 0x2F174, symSize: 0x38 }
  - { offset: 0x3BB65, size: 0x8, addend: 0x0, symName: __RNvXsn_NtCsiTraAjBDcu4_5alloc3vecINtB5_3VecNtNtCsc29TF2YcYso_3syn5error5ErrorENtNtNtCsaNl6UpbT7bw_4core3ops4drop4Drop4dropCsemR3zGJppC3_18tracing_attributes, symObjAddr: 0x53EC, symBinAddr: 0x2F1AC, symSize: 0x38 }
  - { offset: 0x3BC15, size: 0x8, addend: 0x0, symName: __RNvXsn_NtCsiTraAjBDcu4_5alloc3vecINtB5_3VecTNtCshnvkK9b4wzu_11proc_macro25IdentBG_EENtNtNtCsaNl6UpbT7bw_4core3ops4drop4Drop4dropCsemR3zGJppC3_18tracing_attributes, symObjAddr: 0x5424, symBinAddr: 0x2F1E4, symSize: 0x38 }
  - { offset: 0x3BCC5, size: 0x8, addend: 0x0, symName: __RNvXsn_NtCsiTraAjBDcu4_5alloc3vecINtB5_3VecTNtCshnvkK9b4wzu_11proc_macro25IdentNtNtCsc29TF2YcYso_3syn5token3DotEENtNtNtCsaNl6UpbT7bw_4core3ops4drop4Drop4dropCsemR3zGJppC3_18tracing_attributes, symObjAddr: 0x545C, symBinAddr: 0x2F21C, symSize: 0x38 }
  - { offset: 0x3BD75, size: 0x8, addend: 0x0, symName: __RNvXsn_NtCsiTraAjBDcu4_5alloc3vecINtB5_3VecTNtCshnvkK9b4wzu_11proc_macro25IdentNtNtCsc29TF2YcYso_3syn5token5CommaEENtNtNtCsaNl6UpbT7bw_4core3ops4drop4Drop4dropCsemR3zGJppC3_18tracing_attributes, symObjAddr: 0x5494, symBinAddr: 0x2F254, symSize: 0x38 }
  - { offset: 0x3BE25, size: 0x8, addend: 0x0, symName: __RNvXsn_NtCsiTraAjBDcu4_5alloc3vecINtB5_3VecTNtCshnvkK9b4wzu_11proc_macro25IdentTBG_NtNtCsemR3zGJppC3_18tracing_attributes6expand10RecordTypeEEENtNtNtCsaNl6UpbT7bw_4core3ops4drop4Drop4dropB1n_, symObjAddr: 0x54CC, symBinAddr: 0x2F28C, symSize: 0x38 }
  - { offset: 0x3BED5, size: 0x8, addend: 0x0, symName: __RNvXsn_NtCsiTraAjBDcu4_5alloc3vecINtB5_3VecTNtNtCsemR3zGJppC3_18tracing_attributes4attr5FieldNtNtCsc29TF2YcYso_3syn5token5CommaEENtNtNtCsaNl6UpbT7bw_4core3ops4drop4Drop4dropBK_, symObjAddr: 0x5504, symBinAddr: 0x2F2C4, symSize: 0x38 }
  - { offset: 0x3BF85, size: 0x8, addend: 0x0, symName: __RNvXsn_NtCsiTraAjBDcu4_5alloc3vecINtB5_3VecTReNtNtCsc29TF2YcYso_3syn2ty8TypePathEENtNtNtCsaNl6UpbT7bw_4core3ops4drop4Drop4dropCsemR3zGJppC3_18tracing_attributes, symObjAddr: 0x553C, symBinAddr: 0x2F2FC, symSize: 0x38 }
  - { offset: 0x3C03B, size: 0x8, addend: 0x0, symName: __RNvXso_NtCsiTraAjBDcu4_5alloc3vecINtB5_3VecNtNtCsc29TF2YcYso_3syn4attr9AttributeENtNtCsaNl6UpbT7bw_4core7default7Default7defaultCsemR3zGJppC3_18tracing_attributes, symObjAddr: 0x5574, symBinAddr: 0x2F334, symSize: 0x14 }
  - { offset: 0x3C05D, size: 0x8, addend: 0x0, symName: __RNvXso_NtCsiTraAjBDcu4_5alloc3vecINtB5_3VecNtNtCsc29TF2YcYso_3syn4attr9AttributeENtNtCsaNl6UpbT7bw_4core7default7Default7defaultCsemR3zGJppC3_18tracing_attributes, symObjAddr: 0x5574, symBinAddr: 0x2F334, symSize: 0x14 }
  - { offset: 0x3C078, size: 0x8, addend: 0x0, symName: __RNvXso_NtCsiTraAjBDcu4_5alloc3vecINtB5_3VecNtNtCsc29TF2YcYso_3syn5error5ErrorENtNtCsaNl6UpbT7bw_4core7default7Default7defaultCsemR3zGJppC3_18tracing_attributes, symObjAddr: 0x5588, symBinAddr: 0x2F348, symSize: 0x14 }
  - { offset: 0x3C09A, size: 0x8, addend: 0x0, symName: __RNvXso_NtCsiTraAjBDcu4_5alloc3vecINtB5_3VecNtNtCsc29TF2YcYso_3syn5error5ErrorENtNtCsaNl6UpbT7bw_4core7default7Default7defaultCsemR3zGJppC3_18tracing_attributes, symObjAddr: 0x5588, symBinAddr: 0x2F348, symSize: 0x14 }
  - { offset: 0x41622, size: 0x8, addend: 0x0, symName: __RINvMsi_NtCsiTraAjBDcu4_5alloc3vecINtB6_3VecNtCshnvkK9b4wzu_11proc_macro211TokenStreamE14extend_trustedINtNtNtNtCsaNl6UpbT7bw_4core4iter8adapters3map3MapINtNtNtB1M_5slice4iter4IterNtNtCsc29TF2YcYso_3syn4stmt4StmtENCNvMs_NtCsemR3zGJppC3_18tracing_attributes6expandNtB3w_9AsyncInfo9gen_async0EEB3y_, symObjAddr: 0x0, symBinAddr: 0x29DC0, symSize: 0x16C }
  - { offset: 0x41BDE, size: 0x8, addend: 0x0, symName: __RINvMsi_NtCsiTraAjBDcu4_5alloc3vecINtB6_3VecNtCshnvkK9b4wzu_11proc_macro211TokenStreamE16extend_desugaredINtNtNtNtCsaNl6UpbT7bw_4core4iter8adapters3map3MapINtNtB1K_6filter6FilterINtNtNtB1O_5slice4iter4IterTNtBI_5IdentTB3i_NtNtCsemR3zGJppC3_18tracing_attributes6expand10RecordTypeEEENCNCINvB3A_9gen_blockBG_Es0_0s2_0ENCB4y_s3_0EEB3C_, symObjAddr: 0x16C, symBinAddr: 0x29F2C, symSize: 0x1C0 }
  - { offset: 0x41F74, size: 0x8, addend: 0x0, symName: __RINvMsi_NtCsiTraAjBDcu4_5alloc3vecINtB6_3VecNtCshnvkK9b4wzu_11proc_macro211TokenStreamE16extend_desugaredINtNtNtNtCsaNl6UpbT7bw_4core4iter8adapters3map3MapINtNtB1K_6filter6FilterINtNtNtB1O_5slice4iter4IterTNtBI_5IdentTB3i_NtNtCsemR3zGJppC3_18tracing_attributes6expand10RecordTypeEEENCNCINvB3A_9gen_blockNtNtCsc29TF2YcYso_3syn4stmt5BlockEs0_0s2_0ENCB4y_s3_0EEB3C_, symObjAddr: 0x32C, symBinAddr: 0x2A0EC, symSize: 0x1C0 }
  - { offset: 0x422A7, size: 0x8, addend: 0x0, symName: __RINvMsi_NtCsiTraAjBDcu4_5alloc3vecINtB6_3VecNtCshnvkK9b4wzu_11proc_macro25IdentE14extend_trustedINtNtCsaNl6UpbT7bw_4core6option8IntoIterBG_EECsemR3zGJppC3_18tracing_attributes, symObjAddr: 0x4EC, symBinAddr: 0x2A2AC, symSize: 0x184 }
  - { offset: 0x42588, size: 0x8, addend: 0x0, symName: __RINvMsi_NtCsiTraAjBDcu4_5alloc3vecINtB6_3VecNtCshnvkK9b4wzu_11proc_macro25IdentE14extend_trustedINtNtNtNtCsaNl6UpbT7bw_4core4iter8adapters3map3MapINtNtB6_9into_iter8IntoIterTBG_NtNtCsc29TF2YcYso_3syn5token5CommaEENCNvXs8_NtB2T_10punctuatedINtB3x_10PunctuatedBG_B2P_ENtNtNtB1D_6traits7collect12IntoIterator9into_iter0EECsemR3zGJppC3_18tracing_attributes, symObjAddr: 0x670, symBinAddr: 0x2A430, symSize: 0x184 }
  - { offset: 0x42872, size: 0x8, addend: 0x0, symName: __RINvMsi_NtCsiTraAjBDcu4_5alloc3vecINtB6_3VecNtNtCsc29TF2YcYso_3syn3pat3PatE14extend_trustedINtNtCsaNl6UpbT7bw_4core6option8IntoIterBG_EECsemR3zGJppC3_18tracing_attributes, symObjAddr: 0x7F4, symBinAddr: 0x2A5B4, symSize: 0x19C }
  - { offset: 0x42B36, size: 0x8, addend: 0x0, symName: __RINvMsi_NtCsiTraAjBDcu4_5alloc3vecINtB6_3VecNtNtCsc29TF2YcYso_3syn3pat3PatE14extend_trustedINtNtNtNtCsaNl6UpbT7bw_4core4iter8adapters3map3MapINtNtB6_9into_iter8IntoIterTBG_NtNtBK_5token5CommaEENCNvXs8_NtBK_10punctuatedINtB3d_10PunctuatedBG_B2K_ENtNtNtB1y_6traits7collect12IntoIterator9into_iter0EECsemR3zGJppC3_18tracing_attributes, symObjAddr: 0x990, symBinAddr: 0x2A750, symSize: 0x184 }
  - { offset: 0x42E20, size: 0x8, addend: 0x0, symName: __RINvMsi_NtCsiTraAjBDcu4_5alloc3vecINtB6_3VecNtNtCsc29TF2YcYso_3syn3pat8FieldPatE14extend_trustedINtNtCsaNl6UpbT7bw_4core6option8IntoIterBG_EECsemR3zGJppC3_18tracing_attributes, symObjAddr: 0xB14, symBinAddr: 0x2A8D4, symSize: 0x19C }
  - { offset: 0x430E3, size: 0x8, addend: 0x0, symName: __RINvMsi_NtCsiTraAjBDcu4_5alloc3vecINtB6_3VecNtNtCsc29TF2YcYso_3syn3pat8FieldPatE14extend_trustedINtNtNtNtCsaNl6UpbT7bw_4core4iter8adapters3map3MapINtNtB6_9into_iter8IntoIterTBG_NtNtBK_5token5CommaEENCNvXs8_NtBK_10punctuatedINtB3i_10PunctuatedBG_B2P_ENtNtNtB1D_6traits7collect12IntoIterator9into_iter0EECsemR3zGJppC3_18tracing_attributes, symObjAddr: 0xCB0, symBinAddr: 0x2AA70, symSize: 0x184 }
  - { offset: 0x433CD, size: 0x8, addend: 0x0, symName: __RINvMsi_NtCsiTraAjBDcu4_5alloc3vecINtB6_3VecNtNtCsc29TF2YcYso_3syn4item5FnArgE14extend_trustedINtNtCsaNl6UpbT7bw_4core6option8IntoIterBG_EECsemR3zGJppC3_18tracing_attributes, symObjAddr: 0xE34, symBinAddr: 0x2ABF4, symSize: 0x19C }
  - { offset: 0x43690, size: 0x8, addend: 0x0, symName: __RINvMsi_NtCsiTraAjBDcu4_5alloc3vecINtB6_3VecNtNtCsc29TF2YcYso_3syn4item5FnArgE14extend_trustedINtNtNtNtCsaNl6UpbT7bw_4core4iter8adapters3map3MapINtNtB6_9into_iter8IntoIterTBG_NtNtBK_5token5CommaEENCNvXs8_NtBK_10punctuatedINtB3g_10PunctuatedBG_B2N_ENtNtNtB1B_6traits7collect12IntoIterator9into_iter0EECsemR3zGJppC3_18tracing_attributes, symObjAddr: 0xFD0, symBinAddr: 0x2AD90, symSize: 0x184 }
  - { offset: 0x43A73, size: 0x8, addend: 0x0, symName: __RINvMsi_NtCsiTraAjBDcu4_5alloc3vecINtB6_3VecTNtCshnvkK9b4wzu_11proc_macro25IdentTBH_NtNtCsemR3zGJppC3_18tracing_attributes6expand10RecordTypeEEE16extend_desugaredINtNtNtNtCsaNl6UpbT7bw_4core4iter8adapters3map3MapINtNtB2F_7flatten7FlatMapINtNtCsc29TF2YcYso_3syn10punctuated8IntoIterNtNtB3S_4item5FnArgEINtNtB8_5boxed3BoxDNtNtNtB2H_6traits8iterator8Iteratorp4ItemB1g_EL_ENCNCINvB1m_9gen_blockNtBJ_11TokenStreamEs0_00ENCB5X_s_0EEB1o_, symObjAddr: 0x1154, symBinAddr: 0x2AF14, symSize: 0x1F4 }
  - { offset: 0x43E09, size: 0x8, addend: 0x0, symName: __RINvMsi_NtCsiTraAjBDcu4_5alloc3vecINtB6_3VecTNtCshnvkK9b4wzu_11proc_macro25IdentTBH_NtNtCsemR3zGJppC3_18tracing_attributes6expand10RecordTypeEEE16extend_desugaredINtNtNtNtCsaNl6UpbT7bw_4core4iter8adapters3map3MapINtNtB2F_7flatten7FlatMapINtNtCsc29TF2YcYso_3syn10punctuated8IntoIterNtNtB3S_4item5FnArgEINtNtB8_5boxed3BoxDNtNtNtB2H_6traits8iterator8Iteratorp4ItemB1g_EL_ENCNCINvB1m_9gen_blockNtNtB3S_4stmt5BlockEs0_00ENCB5X_s_0EEB1o_, symObjAddr: 0x1348, symBinAddr: 0x2B108, symSize: 0x1F4 }
  - { offset: 0x4412D, size: 0x8, addend: 0x0, symName: __RNvMNtCsiTraAjBDcu4_5alloc3vecINtB2_3VecNtCshnvkK9b4wzu_11proc_macro25IdentE13with_capacityCsemR3zGJppC3_18tracing_attributes, symObjAddr: 0x1BD0, symBinAddr: 0x2B990, symSize: 0x48 }
  - { offset: 0x44207, size: 0x8, addend: 0x0, symName: __RNvMNtCsiTraAjBDcu4_5alloc3vecINtB2_3VecNtNtCsc29TF2YcYso_3syn3pat3PatE13with_capacityCsemR3zGJppC3_18tracing_attributes, symObjAddr: 0x1C18, symBinAddr: 0x2B9D8, symSize: 0x48 }
  - { offset: 0x442E1, size: 0x8, addend: 0x0, symName: __RNvMNtCsiTraAjBDcu4_5alloc3vecINtB2_3VecNtNtCsc29TF2YcYso_3syn3pat8FieldPatE13with_capacityCsemR3zGJppC3_18tracing_attributes, symObjAddr: 0x1C60, symBinAddr: 0x2BA20, symSize: 0x48 }
  - { offset: 0x443BB, size: 0x8, addend: 0x0, symName: __RNvMNtCsiTraAjBDcu4_5alloc3vecINtB2_3VecNtNtCsc29TF2YcYso_3syn4item5FnArgE13with_capacityCsemR3zGJppC3_18tracing_attributes, symObjAddr: 0x1CA8, symBinAddr: 0x2BA68, symSize: 0x48 }
  - { offset: 0x44433, size: 0x8, addend: 0x0, symName: __RNvMNtCsiTraAjBDcu4_5alloc3vecINtB2_3VecTNtCshnvkK9b4wzu_11proc_macro25IdentNtNtCsc29TF2YcYso_3syn5token3DotEE3newCsemR3zGJppC3_18tracing_attributes, symObjAddr: 0x1CF0, symBinAddr: 0x2BAB0, symSize: 0x14 }
  - { offset: 0x44450, size: 0x8, addend: 0x0, symName: __RNvMNtCsiTraAjBDcu4_5alloc3vecINtB2_3VecTNtCshnvkK9b4wzu_11proc_macro25IdentNtNtCsc29TF2YcYso_3syn5token5CommaEE3newCsemR3zGJppC3_18tracing_attributes, symObjAddr: 0x1D04, symBinAddr: 0x2BAC4, symSize: 0x14 }
  - { offset: 0x4446D, size: 0x8, addend: 0x0, symName: __RNvMNtCsiTraAjBDcu4_5alloc3vecINtB2_3VecTNtNtCsemR3zGJppC3_18tracing_attributes4attr5FieldNtNtCsc29TF2YcYso_3syn5token5CommaEE3newBH_, symObjAddr: 0x1D18, symBinAddr: 0x2BAD8, symSize: 0x14 }
  - { offset: 0x444A8, size: 0x8, addend: 0x0, symName: __RNvMNtCsiTraAjBDcu4_5alloc3vecINtB2_3VecTReNtNtCsc29TF2YcYso_3syn2ty8TypePathEE3newCsemR3zGJppC3_18tracing_attributes, symObjAddr: 0x1D2C, symBinAddr: 0x2BAEC, symSize: 0x14 }
  - { offset: 0x445F5, size: 0x8, addend: 0x0, symName: __RNvMs_NtCsiTraAjBDcu4_5alloc3vecINtB4_3VecNtCshnvkK9b4wzu_11proc_macro211TokenStreamE7reserveCsemR3zGJppC3_18tracing_attributes, symObjAddr: 0x1D40, symBinAddr: 0x2BB00, symSize: 0xC8 }
  - { offset: 0x447F3, size: 0x8, addend: 0x0, symName: __RNvMs_NtCsiTraAjBDcu4_5alloc3vecINtB4_3VecNtCshnvkK9b4wzu_11proc_macro211TokenStreamE8as_sliceCsemR3zGJppC3_18tracing_attributes, symObjAddr: 0x1E08, symBinAddr: 0x2BBC8, symSize: 0x6C }
  - { offset: 0x449C3, size: 0x8, addend: 0x0, symName: __RNvMs_NtCsiTraAjBDcu4_5alloc3vecINtB4_3VecNtCshnvkK9b4wzu_11proc_macro25IdentE7reserveCsemR3zGJppC3_18tracing_attributes, symObjAddr: 0x1E74, symBinAddr: 0x2BC34, symSize: 0xC8 }
  - { offset: 0x44C40, size: 0x8, addend: 0x0, symName: __RNvMs_NtCsiTraAjBDcu4_5alloc3vecINtB4_3VecNtNtCsc29TF2YcYso_3syn3pat3PatE7reserveCsemR3zGJppC3_18tracing_attributes, symObjAddr: 0x1F3C, symBinAddr: 0x2BCFC, symSize: 0xC8 }
  - { offset: 0x44EBD, size: 0x8, addend: 0x0, symName: __RNvMs_NtCsiTraAjBDcu4_5alloc3vecINtB4_3VecNtNtCsc29TF2YcYso_3syn3pat8FieldPatE7reserveCsemR3zGJppC3_18tracing_attributes, symObjAddr: 0x2004, symBinAddr: 0x2BDC4, symSize: 0xC8 }
  - { offset: 0x4513A, size: 0x8, addend: 0x0, symName: __RNvMs_NtCsiTraAjBDcu4_5alloc3vecINtB4_3VecNtNtCsc29TF2YcYso_3syn4item5FnArgE7reserveCsemR3zGJppC3_18tracing_attributes, symObjAddr: 0x20CC, symBinAddr: 0x2BE8C, symSize: 0xC8 }
  - { offset: 0x4535F, size: 0x8, addend: 0x0, symName: __RNvMs_NtCsiTraAjBDcu4_5alloc3vecINtB4_3VecNtNtCsc29TF2YcYso_3syn4stmt4StmtE8as_sliceCsemR3zGJppC3_18tracing_attributes, symObjAddr: 0x2194, symBinAddr: 0x2BF54, symSize: 0x6C }
  - { offset: 0x4552C, size: 0x8, addend: 0x0, symName: __RNvMs_NtCsiTraAjBDcu4_5alloc3vecINtB4_3VecNtNtCsc29TF2YcYso_3syn5error5ErrorE4pushCsemR3zGJppC3_18tracing_attributes, symObjAddr: 0x2200, symBinAddr: 0x2BFC0, symSize: 0x108 }
  - { offset: 0x45784, size: 0x8, addend: 0x0, symName: __RNvMs_NtCsiTraAjBDcu4_5alloc3vecINtB4_3VecNtNtCsc29TF2YcYso_3syn5error5ErrorE8as_sliceCsemR3zGJppC3_18tracing_attributes, symObjAddr: 0x2308, symBinAddr: 0x2C0C8, symSize: 0x6C }
  - { offset: 0x45951, size: 0x8, addend: 0x0, symName: __RNvMs_NtCsiTraAjBDcu4_5alloc3vecINtB4_3VecTNtCshnvkK9b4wzu_11proc_macro25IdentNtNtCsc29TF2YcYso_3syn5token3DotEE4pushCsemR3zGJppC3_18tracing_attributes, symObjAddr: 0x2374, symBinAddr: 0x2C134, symSize: 0x100 }
  - { offset: 0x45BA9, size: 0x8, addend: 0x0, symName: __RNvMs_NtCsiTraAjBDcu4_5alloc3vecINtB4_3VecTNtCshnvkK9b4wzu_11proc_macro25IdentNtNtCsc29TF2YcYso_3syn5token3DotEE8as_sliceCsemR3zGJppC3_18tracing_attributes, symObjAddr: 0x2474, symBinAddr: 0x2C234, symSize: 0x6C }
  - { offset: 0x45C70, size: 0x8, addend: 0x0, symName: __RNvMs_NtCsiTraAjBDcu4_5alloc3vecINtB4_3VecTNtCshnvkK9b4wzu_11proc_macro25IdentNtNtCsc29TF2YcYso_3syn5token5CommaEE3lenCsemR3zGJppC3_18tracing_attributes, symObjAddr: 0x24E0, symBinAddr: 0x2C2A0, symSize: 0x18 }
  - { offset: 0x45DAB, size: 0x8, addend: 0x0, symName: __RNvMs_NtCsiTraAjBDcu4_5alloc3vecINtB4_3VecTNtCshnvkK9b4wzu_11proc_macro25IdentNtNtCsc29TF2YcYso_3syn5token5CommaEE4pushCsemR3zGJppC3_18tracing_attributes, symObjAddr: 0x24F8, symBinAddr: 0x2C2B8, symSize: 0x100 }
  - { offset: 0x46075, size: 0x8, addend: 0x0, symName: __RNvMs_NtCsiTraAjBDcu4_5alloc3vecINtB4_3VecTNtCshnvkK9b4wzu_11proc_macro25IdentTBF_NtNtCsemR3zGJppC3_18tracing_attributes6expand10RecordTypeEEE7reserveB1m_, symObjAddr: 0x25F8, symBinAddr: 0x2C3B8, symSize: 0xC8 }
  - { offset: 0x46273, size: 0x8, addend: 0x0, symName: __RNvMs_NtCsiTraAjBDcu4_5alloc3vecINtB4_3VecTNtCshnvkK9b4wzu_11proc_macro25IdentTBF_NtNtCsemR3zGJppC3_18tracing_attributes6expand10RecordTypeEEE8as_sliceB1m_, symObjAddr: 0x26C0, symBinAddr: 0x2C480, symSize: 0x6C }
  - { offset: 0x46408, size: 0x8, addend: 0x0, symName: __RNvMs_NtCsiTraAjBDcu4_5alloc3vecINtB4_3VecTNtNtCsc29TF2YcYso_3syn2ty4TypeNtNtBJ_5token5CommaEE12as_mut_sliceCsemR3zGJppC3_18tracing_attributes, symObjAddr: 0x272C, symBinAddr: 0x2C4EC, symSize: 0x6C }
  - { offset: 0x465B2, size: 0x8, addend: 0x0, symName: __RNvMs_NtCsiTraAjBDcu4_5alloc3vecINtB4_3VecTNtNtCsc29TF2YcYso_3syn2ty9BareFnArgNtNtBJ_5token5CommaEE12as_mut_sliceCsemR3zGJppC3_18tracing_attributes, symObjAddr: 0x2798, symBinAddr: 0x2C558, symSize: 0x6C }
  - { offset: 0x4675C, size: 0x8, addend: 0x0, symName: __RNvMs_NtCsiTraAjBDcu4_5alloc3vecINtB4_3VecTNtNtCsc29TF2YcYso_3syn3pat3PatNtNtBJ_5token2OrEE12as_mut_sliceCsemR3zGJppC3_18tracing_attributes, symObjAddr: 0x2804, symBinAddr: 0x2C5C4, symSize: 0x6C }
  - { offset: 0x468F9, size: 0x8, addend: 0x0, symName: __RNvMs_NtCsiTraAjBDcu4_5alloc3vecINtB4_3VecTNtNtCsc29TF2YcYso_3syn3pat3PatNtNtBJ_5token5CommaEE12as_mut_sliceCsemR3zGJppC3_18tracing_attributes, symObjAddr: 0x2870, symBinAddr: 0x2C630, symSize: 0x6C }
  - { offset: 0x46A96, size: 0x8, addend: 0x0, symName: __RNvMs_NtCsiTraAjBDcu4_5alloc3vecINtB4_3VecTNtNtCsc29TF2YcYso_3syn3pat8FieldPatNtNtBJ_5token5CommaEE12as_mut_sliceCsemR3zGJppC3_18tracing_attributes, symObjAddr: 0x28DC, symBinAddr: 0x2C69C, symSize: 0x6C }
  - { offset: 0x46B72, size: 0x8, addend: 0x0, symName: __RNvMs_NtCsiTraAjBDcu4_5alloc3vecINtB4_3VecTNtNtCsc29TF2YcYso_3syn3pat8FieldPatNtNtBJ_5token5CommaEE3lenCsemR3zGJppC3_18tracing_attributes, symObjAddr: 0x2948, symBinAddr: 0x2C708, symSize: 0x18 }
  - { offset: 0x46C82, size: 0x8, addend: 0x0, symName: __RNvMs_NtCsiTraAjBDcu4_5alloc3vecINtB4_3VecTNtNtCsc29TF2YcYso_3syn4data7VariantNtNtBJ_5token5CommaEE12as_mut_sliceCsemR3zGJppC3_18tracing_attributes, symObjAddr: 0x2960, symBinAddr: 0x2C720, symSize: 0x6C }
  - { offset: 0x46E2C, size: 0x8, addend: 0x0, symName: __RNvMs_NtCsiTraAjBDcu4_5alloc3vecINtB4_3VecTNtNtCsc29TF2YcYso_3syn4expr10FieldValueNtNtBJ_5token5CommaEE12as_mut_sliceCsemR3zGJppC3_18tracing_attributes, symObjAddr: 0x29CC, symBinAddr: 0x2C78C, symSize: 0x6C }
  - { offset: 0x46FD6, size: 0x8, addend: 0x0, symName: __RNvMs_NtCsiTraAjBDcu4_5alloc3vecINtB4_3VecTNtNtCsc29TF2YcYso_3syn4expr4ExprNtNtBJ_5token5CommaEE12as_mut_sliceCsemR3zGJppC3_18tracing_attributes, symObjAddr: 0x2A38, symBinAddr: 0x2C7F8, symSize: 0x6C }
  - { offset: 0x47173, size: 0x8, addend: 0x0, symName: __RNvMs_NtCsiTraAjBDcu4_5alloc3vecINtB4_3VecTNtNtCsc29TF2YcYso_3syn4item5FnArgNtNtBJ_5token5CommaEE12as_mut_sliceCsemR3zGJppC3_18tracing_attributes, symObjAddr: 0x2AA4, symBinAddr: 0x2C864, symSize: 0x6C }
  - { offset: 0x4731D, size: 0x8, addend: 0x0, symName: __RNvMs_NtCsiTraAjBDcu4_5alloc3vecINtB4_3VecTNtNtCsc29TF2YcYso_3syn4item7UseTreeNtNtBJ_5token5CommaEE12as_mut_sliceCsemR3zGJppC3_18tracing_attributes, symObjAddr: 0x2B10, symBinAddr: 0x2C8D0, symSize: 0x6C }
  - { offset: 0x474C7, size: 0x8, addend: 0x0, symName: __RNvMs_NtCsiTraAjBDcu4_5alloc3vecINtB4_3VecTNtNtCsc29TF2YcYso_3syn4path15GenericArgumentNtNtBJ_5token5CommaEE12as_mut_sliceCsemR3zGJppC3_18tracing_attributes, symObjAddr: 0x2B7C, symBinAddr: 0x2C93C, symSize: 0x6C }
  - { offset: 0x47671, size: 0x8, addend: 0x0, symName: __RNvMs_NtCsiTraAjBDcu4_5alloc3vecINtB4_3VecTNtNtCsc29TF2YcYso_3syn8generics13CapturedParamNtNtBJ_5token5CommaEE12as_mut_sliceCsemR3zGJppC3_18tracing_attributes, symObjAddr: 0x2BE8, symBinAddr: 0x2C9A8, symSize: 0x6C }
  - { offset: 0x4781B, size: 0x8, addend: 0x0, symName: __RNvMs_NtCsiTraAjBDcu4_5alloc3vecINtB4_3VecTNtNtCsc29TF2YcYso_3syn8generics14TypeParamBoundNtNtBJ_5token4PlusEE12as_mut_sliceCsemR3zGJppC3_18tracing_attributes, symObjAddr: 0x2C54, symBinAddr: 0x2CA14, symSize: 0x6C }
  - { offset: 0x479C5, size: 0x8, addend: 0x0, symName: __RNvMs_NtCsiTraAjBDcu4_5alloc3vecINtB4_3VecTNtNtCsc29TF2YcYso_3syn8generics14WherePredicateNtNtBJ_5token5CommaEE12as_mut_sliceCsemR3zGJppC3_18tracing_attributes, symObjAddr: 0x2CC0, symBinAddr: 0x2CA80, symSize: 0x6C }
  - { offset: 0x47B6F, size: 0x8, addend: 0x0, symName: __RNvMs_NtCsiTraAjBDcu4_5alloc3vecINtB4_3VecTNtNtCsc29TF2YcYso_3syn8lifetime8LifetimeNtNtBJ_5token4PlusEE12as_mut_sliceCsemR3zGJppC3_18tracing_attributes, symObjAddr: 0x2D2C, symBinAddr: 0x2CAEC, symSize: 0x6C }
  - { offset: 0x47D19, size: 0x8, addend: 0x0, symName: __RNvMs_NtCsiTraAjBDcu4_5alloc3vecINtB4_3VecTNtNtCsemR3zGJppC3_18tracing_attributes4attr5FieldNtNtCsc29TF2YcYso_3syn5token5CommaEE12as_mut_sliceBJ_, symObjAddr: 0x2D98, symBinAddr: 0x2CB58, symSize: 0x6C }
  - { offset: 0x47EC7, size: 0x8, addend: 0x0, symName: __RNvMs_NtCsiTraAjBDcu4_5alloc3vecINtB4_3VecTNtNtCsemR3zGJppC3_18tracing_attributes4attr5FieldNtNtCsc29TF2YcYso_3syn5token5CommaEE4pushBJ_, symObjAddr: 0x2E04, symBinAddr: 0x2CBC4, symSize: 0x120 }
  - { offset: 0x48119, size: 0x8, addend: 0x0, symName: __RNvMs_NtCsiTraAjBDcu4_5alloc3vecINtB4_3VecTNtNtCsemR3zGJppC3_18tracing_attributes4attr5FieldNtNtCsc29TF2YcYso_3syn5token5CommaEE8as_sliceBJ_, symObjAddr: 0x2F24, symBinAddr: 0x2CCE4, symSize: 0x6C }
  - { offset: 0x482E6, size: 0x8, addend: 0x0, symName: __RNvMs_NtCsiTraAjBDcu4_5alloc3vecINtB4_3VecTReNtNtCsc29TF2YcYso_3syn2ty8TypePathEE4pushCsemR3zGJppC3_18tracing_attributes, symObjAddr: 0x2F90, symBinAddr: 0x2CD50, symSize: 0x120 }
  - { offset: 0x489B1, size: 0x8, addend: 0x0, symName: __RNvXs4_NtNtCs4EAaWzSXu1l_5quote9___private3extINtNtCsiTraAjBDcu4_5alloc3vec3VecNtCshnvkK9b4wzu_11proc_macro211TokenStreamENtB5_16RepAsIteratorExt15quote_into_iterCsemR3zGJppC3_18tracing_attributes, symObjAddr: 0x3A7C, symBinAddr: 0x2D83C, symSize: 0x38 }
  - { offset: 0x489E6, size: 0x8, addend: 0x0, symName: __RNvXs4_NtNtCs4EAaWzSXu1l_5quote9___private3extINtNtCsiTraAjBDcu4_5alloc3vec3VecNtNtCsc29TF2YcYso_3syn4attr9AttributeENtB5_16RepAsIteratorExt15quote_into_iterCsemR3zGJppC3_18tracing_attributes, symObjAddr: 0x3AB4, symBinAddr: 0x2D874, symSize: 0x38 }
  - { offset: 0x4B258, size: 0x8, addend: 0x0, symName: __RINvMs6_NtCsg4dki62PTrg_9hashbrown3rawINtB6_8RawTableTNtCshnvkK9b4wzu_11proc_macro25IdentuEE14reserve_rehashNCINvNtB8_3map11make_hasherBQ_uNtNtNtCsht3nMU9UgFu_3std4hash6random11RandomStateE0ECsemR3zGJppC3_18tracing_attributes, symObjAddr: 0x0, symBinAddr: 0x1E023C, symSize: 0x838 }
  - { offset: 0x4B294, size: 0x8, addend: 0x0, symName: __RNCINvMs6_NtCsg4dki62PTrg_9hashbrown3rawINtB8_8RawTableTNtCshnvkK9b4wzu_11proc_macro25IdentuEE14reserve_rehashNCINvNtBa_3map11make_hasherBS_uNtNtNtCsht3nMU9UgFu_3std4hash6random11RandomStateE0E0CsemR3zGJppC3_18tracing_attributes, symObjAddr: 0x15F8, symBinAddr: 0x3011C, symSize: 0xC8 }
  - { offset: 0x4B451, size: 0x8, addend: 0x0, symName: __RNCINvMs6_NtCsg4dki62PTrg_9hashbrown3rawINtB8_8RawTableTNtCshnvkK9b4wzu_11proc_macro25IdentuEE14reserve_rehashNCINvNtBa_3map11make_hasherBS_uNtNtNtCsht3nMU9UgFu_3std4hash6random11RandomStateE0Es_0CsemR3zGJppC3_18tracing_attributes, symObjAddr: 0x16C0, symBinAddr: 0x301E4, symSize: 0x30 }
  - { offset: 0x4B4AE, size: 0x8, addend: 0x0, symName: __RNCINvMs6_NtCsg4dki62PTrg_9hashbrown3rawINtB8_8RawTableTNtCshnvkK9b4wzu_11proc_macro25IdentuEE24find_or_find_insert_slotNCINvNtBa_3map14equivalent_keyBS_BS_uE0NCINvB1Z_11make_hasherBS_uNtNtNtCsht3nMU9UgFu_3std4hash6random11RandomStateE0E0CsemR3zGJppC3_18tracing_attributes, symObjAddr: 0x16F0, symBinAddr: 0x30214, symSize: 0xCC }
  - { offset: 0x4B681, size: 0x8, addend: 0x0, symName: __RNCINvMs6_NtCsg4dki62PTrg_9hashbrown3rawINtB8_8RawTableTNtCshnvkK9b4wzu_11proc_macro25IdentuEE4findNCINvNtBa_3map14equivalent_keyBS_BS_uE0E0CsemR3zGJppC3_18tracing_attributes, symObjAddr: 0x17BC, symBinAddr: 0x302E0, symSize: 0xCC }
  - { offset: 0x4C0A0, size: 0x8, addend: 0x0, symName: __RNCINvMsa_NtCsg4dki62PTrg_9hashbrown3rawNtB8_13RawTableInner14prepare_resizeNtNtCsiTraAjBDcu4_5alloc5alloc6GlobalE0CsemR3zGJppC3_18tracing_attributes, symObjAddr: 0x1888, symBinAddr: 0x303AC, symSize: 0xBC }
  - { offset: 0x4C283, size: 0x8, addend: 0x0, symName: __RNCNvMsa_NtCsg4dki62PTrg_9hashbrown3rawNtB7_13RawTableInner15rehash_in_place0CsemR3zGJppC3_18tracing_attributes, symObjAddr: 0x1944, symBinAddr: 0x30468, symSize: 0x22C }
  - { offset: 0x4C8D4, size: 0x8, addend: 0x0, symName: __RNCNvMse_NtCsg4dki62PTrg_9hashbrown3rawINtB7_8RawTableTNtCshnvkK9b4wzu_11proc_macro25IdentuEE15clone_from_impl0CsemR3zGJppC3_18tracing_attributes, symObjAddr: 0x1B70, symBinAddr: 0x30694, symSize: 0x198 }
  - { offset: 0x4CC52, size: 0x8, addend: 0x0, symName: __RNvNtCsg4dki62PTrg_9hashbrown3raw19capacity_to_bucketsCsemR3zGJppC3_18tracing_attributes, symObjAddr: 0x33F8, symBinAddr: 0x31F1C, symSize: 0x218 }
  - { offset: 0x4CE5B, size: 0x8, addend: 0x0, symName: __RNvXsb_NtCsg4dki62PTrg_9hashbrown3rawINtB5_8RawTableTNtCshnvkK9b4wzu_11proc_macro25IdentuEENtNtCsaNl6UpbT7bw_4core5clone5Clone5cloneCsemR3zGJppC3_18tracing_attributes, symObjAddr: 0x3610, symBinAddr: 0x32134, symSize: 0x124 }
  - { offset: 0x4CF30, size: 0x8, addend: 0x0, symName: __RNvXsc_NtCsg4dki62PTrg_9hashbrown3rawINtB5_8RawTableTNtCshnvkK9b4wzu_11proc_macro25IdentuEENtB5_13RawTableClone15clone_from_specCsemR3zGJppC3_18tracing_attributes, symObjAddr: 0x3734, symBinAddr: 0x32258, symSize: 0x2C }
  - { offset: 0x4CF80, size: 0x8, addend: 0x0, symName: __RNvXsg_NtCsg4dki62PTrg_9hashbrown3rawINtB5_8RawTableTNtCshnvkK9b4wzu_11proc_macro25IdentuEENtNtNtCsaNl6UpbT7bw_4core3ops4drop4Drop4dropCsemR3zGJppC3_18tracing_attributes, symObjAddr: 0x3760, symBinAddr: 0x32284, symSize: 0x3C }
  - { offset: 0x50D4D, size: 0x8, addend: 0x0, symName: __RINvMs6_NtCsg4dki62PTrg_9hashbrown3rawINtB6_8RawTableTNtCshnvkK9b4wzu_11proc_macro25IdentuEE14reserve_rehashNCINvNtB8_3map11make_hasherBQ_uNtNtNtCsht3nMU9UgFu_3std4hash6random11RandomStateE0ECsemR3zGJppC3_18tracing_attributes, symObjAddr: 0x0, symBinAddr: 0x1E023C, symSize: 0x838 }
  - { offset: 0x5173D, size: 0x8, addend: 0x0, symName: __RINvMs6_NtCsg4dki62PTrg_9hashbrown3rawINtB6_8RawTableTNtCshnvkK9b4wzu_11proc_macro25IdentuEE24find_or_find_insert_slotNCINvNtB8_3map14equivalent_keyBQ_BQ_uE0NCINvB1X_11make_hasherBQ_uNtNtNtCsht3nMU9UgFu_3std4hash6random11RandomStateE0ECsemR3zGJppC3_18tracing_attributes, symObjAddr: 0x838, symBinAddr: 0x2F35C, symSize: 0x140 }
  - { offset: 0x51BBF, size: 0x8, addend: 0x0, symName: __RINvMs6_NtCsg4dki62PTrg_9hashbrown3rawINtB6_8RawTableTNtCshnvkK9b4wzu_11proc_macro25IdentuEE4findNCINvNtB8_3map14equivalent_keyBQ_BQ_uE0ECsemR3zGJppC3_18tracing_attributes, symObjAddr: 0x978, symBinAddr: 0x2F49C, symSize: 0x330 }
  - { offset: 0x5207A, size: 0x8, addend: 0x0, symName: __RINvMs6_NtCsg4dki62PTrg_9hashbrown3rawINtB6_8RawTableTNtCshnvkK9b4wzu_11proc_macro25IdentuEE7reserveNCINvNtB8_3map11make_hasherBQ_uNtNtNtCsht3nMU9UgFu_3std4hash6random11RandomStateE0ECsemR3zGJppC3_18tracing_attributes, symObjAddr: 0xCA8, symBinAddr: 0x2F7CC, symSize: 0xCC }
  - { offset: 0x5225E, size: 0x8, addend: 0x0, symName: __RINvMsa_NtCsg4dki62PTrg_9hashbrown3rawNtB6_13RawTableInner13drop_elementsTNtCshnvkK9b4wzu_11proc_macro25IdentuEECsemR3zGJppC3_18tracing_attributes, symObjAddr: 0xD74, symBinAddr: 0x2F898, symSize: 0x178 }
  - { offset: 0x525C9, size: 0x8, addend: 0x0, symName: __RINvMsa_NtCsg4dki62PTrg_9hashbrown3rawNtB6_13RawTableInner16drop_inner_tableTNtCshnvkK9b4wzu_11proc_macro25IdentuENtNtCsiTraAjBDcu4_5alloc5alloc6GlobalECsemR3zGJppC3_18tracing_attributes, symObjAddr: 0xEEC, symBinAddr: 0x2FA10, symSize: 0xBC }
  - { offset: 0x527DC, size: 0x8, addend: 0x0, symName: __RINvMsa_NtCsg4dki62PTrg_9hashbrown3rawNtB6_13RawTableInner17new_uninitializedNtNtCsiTraAjBDcu4_5alloc5alloc6GlobalECsemR3zGJppC3_18tracing_attributes, symObjAddr: 0xFA8, symBinAddr: 0x2FACC, symSize: 0x1B0 }
  - { offset: 0x52A2D, size: 0x8, addend: 0x0, symName: __RINvMsa_NtCsg4dki62PTrg_9hashbrown3rawNtB6_13RawTableInner22fallible_with_capacityNtNtCsiTraAjBDcu4_5alloc5alloc6GlobalECsemR3zGJppC3_18tracing_attributes, symObjAddr: 0x1158, symBinAddr: 0x2FC7C, symSize: 0x2B0 }
  - { offset: 0x52EA3, size: 0x8, addend: 0x0, symName: __RINvMsi_NtCsg4dki62PTrg_9hashbrown3rawINtB6_12RawIterRangeTNtCshnvkK9b4wzu_11proc_macro25IdentuEE9next_implKb0_ECsemR3zGJppC3_18tracing_attributes, symObjAddr: 0x1408, symBinAddr: 0x2FF2C, symSize: 0x1F0 }
  - { offset: 0x538FE, size: 0x8, addend: 0x0, symName: __RNvMs1_NtCsg4dki62PTrg_9hashbrown3rawNtB5_11TableLayout20calculate_layout_forCsemR3zGJppC3_18tracing_attributes, symObjAddr: 0x1D08, symBinAddr: 0x3082C, symSize: 0x210 }
  - { offset: 0x53D8B, size: 0x8, addend: 0x0, symName: __RNvMs6_NtCsg4dki62PTrg_9hashbrown3rawINtB5_8RawTableTNtCshnvkK9b4wzu_11proc_macro25IdentuEE14insert_in_slotCsemR3zGJppC3_18tracing_attributes, symObjAddr: 0x1F18, symBinAddr: 0x30A3C, symSize: 0x140 }
  - { offset: 0x54107, size: 0x8, addend: 0x0, symName: __RNvMs6_NtCsg4dki62PTrg_9hashbrown3rawINtB5_8RawTableTNtCshnvkK9b4wzu_11proc_macro25IdentuEE17new_uninitializedCsemR3zGJppC3_18tracing_attributes, symObjAddr: 0x2058, symBinAddr: 0x30B7C, symSize: 0x15C }
  - { offset: 0x54321, size: 0x8, addend: 0x0, symName: __RNvMsa_NtCsg4dki62PTrg_9hashbrown3rawNtB5_13RawTableInner15fix_insert_slotCsemR3zGJppC3_18tracing_attributes, symObjAddr: 0x21B4, symBinAddr: 0x30CD8, symSize: 0x12C }
  - { offset: 0x546A1, size: 0x8, addend: 0x0, symName: __RNvMsa_NtCsg4dki62PTrg_9hashbrown3rawNtB5_13RawTableInner15rehash_in_placeCsemR3zGJppC3_18tracing_attributes, symObjAddr: 0x22E0, symBinAddr: 0x30E04, symSize: 0x4AC }
  - { offset: 0x54EA9, size: 0x8, addend: 0x0, symName: __RNvMsa_NtCsg4dki62PTrg_9hashbrown3rawNtB5_13RawTableInner16find_insert_slotCsemR3zGJppC3_18tracing_attributes, symObjAddr: 0x278C, symBinAddr: 0x312B0, symSize: 0x11C }
  - { offset: 0x550A4, size: 0x8, addend: 0x0, symName: __RNvMsa_NtCsg4dki62PTrg_9hashbrown3rawNtB5_13RawTableInner19prepare_insert_slotCsemR3zGJppC3_18tracing_attributes, symObjAddr: 0x28A8, symBinAddr: 0x313CC, symSize: 0x74 }
  - { offset: 0x55395, size: 0x8, addend: 0x0, symName: __RNvMsa_NtCsg4dki62PTrg_9hashbrown3rawNtB5_13RawTableInner23prepare_rehash_in_placeCsemR3zGJppC3_18tracing_attributes, symObjAddr: 0x291C, symBinAddr: 0x31440, symSize: 0x258 }
  - { offset: 0x55AA1, size: 0x8, addend: 0x0, symName: __RNvMsa_NtCsg4dki62PTrg_9hashbrown3rawNtB5_13RawTableInner25find_insert_slot_in_groupCsemR3zGJppC3_18tracing_attributes, symObjAddr: 0x2B74, symBinAddr: 0x31698, symSize: 0x15C }
  - { offset: 0x55D3F, size: 0x8, addend: 0x0, symName: __RNvMsa_NtCsg4dki62PTrg_9hashbrown3rawNtB5_13RawTableInner30find_or_find_insert_slot_innerCsemR3zGJppC3_18tracing_attributes, symObjAddr: 0x2CD0, symBinAddr: 0x317F4, symSize: 0x2C0 }
  - { offset: 0x5639F, size: 0x8, addend: 0x0, symName: __RNvMse_NtCsg4dki62PTrg_9hashbrown3rawINtB5_8RawTableTNtCshnvkK9b4wzu_11proc_macro25IdentuEE15clone_from_implCsemR3zGJppC3_18tracing_attributes, symObjAddr: 0x2F90, symBinAddr: 0x31AB4, symSize: 0x3A0 }
  - { offset: 0x56A26, size: 0x8, addend: 0x0, symName: __RNvMsi_NtCsg4dki62PTrg_9hashbrown3rawINtB5_12RawIterRangeTNtCshnvkK9b4wzu_11proc_macro25IdentuEE3newCsemR3zGJppC3_18tracing_attributes, symObjAddr: 0x3330, symBinAddr: 0x31E54, symSize: 0xC8 }
  - { offset: 0x56D31, size: 0x8, addend: 0x0, symName: __RINvXs2V_NtNtCsaNl6UpbT7bw_4core5slice4iterINtB7_4IterNtNtCsc29TF2YcYso_3syn4stmt4StmtENtNtNtNtBb_4iter6traits8iterator8Iterator4folduNCINvNtNtB1t_8adapters3map8map_foldRBQ_NtCshnvkK9b4wzu_11proc_macro211TokenStreamuNCNvMs_NtCsemR3zGJppC3_18tracing_attributes6expandNtB3z_9AsyncInfo9gen_async0NCINvNvB1n_8for_each4callB2L_NCINvMsi_NtCsiTraAjBDcu4_5alloc3vecINtB5j_3VecB2L_E14extend_trustedINtB2d_3MapBF_B3s_EE0E0E0EB3B_, symObjAddr: 0x0, symBinAddr: 0x322C0, symSize: 0x1C0 }
  - { offset: 0x5D551, size: 0x8, addend: 0x0, symName: __RINvXs2V_NtNtCsaNl6UpbT7bw_4core5slice4iterINtB7_4IterNtNtCsc29TF2YcYso_3syn4stmt4StmtENtNtNtNtBb_4iter6traits8iterator8Iterator4folduNCINvNtNtB1t_8adapters3map8map_foldRBQ_NtCshnvkK9b4wzu_11proc_macro211TokenStreamuNCNvMs_NtCsemR3zGJppC3_18tracing_attributes6expandNtB3z_9AsyncInfo9gen_async0NCINvNvB1n_8for_each4callB2L_NCINvMsi_NtCsiTraAjBDcu4_5alloc3vecINtB5j_3VecB2L_E14extend_trustedINtB2d_3MapBF_B3s_EE0E0E0EB3B_, symObjAddr: 0x0, symBinAddr: 0x322C0, symSize: 0x1C0 }
  - { offset: 0x5D6A6, size: 0x8, addend: 0x0, symName: __RINvXs2V_NtNtCsaNl6UpbT7bw_4core5slice4iterINtB7_4IterReENtNtNtNtBb_4iter6traits8iterator8Iterator3anyNCNCNvMNtCsemR3zGJppC3_18tracing_attributes6expandNtB1J_10RecordType13parse_from_ty00EB1L_, symObjAddr: 0x1C0, symBinAddr: 0x32480, symSize: 0xB0 }
  - { offset: 0x5D70B, size: 0x8, addend: 0x0, symName: __RINvXs2V_NtNtCsaNl6UpbT7bw_4core5slice4iterINtB7_4IterTNtCshnvkK9b4wzu_11proc_macro25IdentTBR_NtNtCsemR3zGJppC3_18tracing_attributes6expand10RecordTypeEEENtNtNtNtBb_4iter6traits8iterator8Iterator4findQNCNCINvB1w_9gen_blockNtBT_11TokenStreamEs0_0s2_0EB1y_, symObjAddr: 0x270, symBinAddr: 0x32530, symSize: 0xB0 }
  - { offset: 0x5D770, size: 0x8, addend: 0x0, symName: __RINvXs2V_NtNtCsaNl6UpbT7bw_4core5slice4iterINtB7_4IterTNtCshnvkK9b4wzu_11proc_macro25IdentTBR_NtNtCsemR3zGJppC3_18tracing_attributes6expand10RecordTypeEEENtNtNtNtBb_4iter6traits8iterator8Iterator4findQNCNCINvB1w_9gen_blockNtNtCsc29TF2YcYso_3syn4stmt5BlockEs0_0s2_0EB1y_, symObjAddr: 0x320, symBinAddr: 0x325E0, symSize: 0xB0 }
  - { offset: 0x5D7D5, size: 0x8, addend: 0x0, symName: __RNvXs2V_NtNtCsaNl6UpbT7bw_4core5slice4iterINtB6_4IterNtCshnvkK9b4wzu_11proc_macro211TokenStreamENtNtNtNtBa_4iter6traits8iterator8Iterator4nextCsemR3zGJppC3_18tracing_attributes, symObjAddr: 0x1300, symBinAddr: 0x335C0, symSize: 0xB0 }
  - { offset: 0x5D90F, size: 0x8, addend: 0x0, symName: __RNvXs2V_NtNtCsaNl6UpbT7bw_4core5slice4iterINtB6_4IterNtNtCsc29TF2YcYso_3syn4stmt4StmtENtNtNtNtBa_4iter6traits8iterator8Iterator9size_hintCsemR3zGJppC3_18tracing_attributes, symObjAddr: 0x13B0, symBinAddr: 0x33670, symSize: 0x70 }
  - { offset: 0x5D97E, size: 0x8, addend: 0x0, symName: __RNvXs2V_NtNtCsaNl6UpbT7bw_4core5slice4iterINtB6_4IterNtNtCsc29TF2YcYso_3syn5error5ErrorENtNtNtNtBa_4iter6traits8iterator8Iterator4nextCsemR3zGJppC3_18tracing_attributes, symObjAddr: 0x1420, symBinAddr: 0x336E0, symSize: 0xB0 }
  - { offset: 0x5DAB8, size: 0x8, addend: 0x0, symName: __RNvXs2V_NtNtCsaNl6UpbT7bw_4core5slice4iterINtB6_4IterTNtCshnvkK9b4wzu_11proc_macro25IdentBQ_EENtNtNtNtBa_4iter6traits8iterator8Iterator4nextCsemR3zGJppC3_18tracing_attributes, symObjAddr: 0x14D0, symBinAddr: 0x33790, symSize: 0xB0 }
  - { offset: 0x5DBF2, size: 0x8, addend: 0x0, symName: __RNvXs2V_NtNtCsaNl6UpbT7bw_4core5slice4iterINtB6_4IterTNtCshnvkK9b4wzu_11proc_macro25IdentNtNtCsc29TF2YcYso_3syn5token3DotEENtNtNtNtBa_4iter6traits8iterator8Iterator4nextCsemR3zGJppC3_18tracing_attributes, symObjAddr: 0x1580, symBinAddr: 0x33840, symSize: 0xB0 }
  - { offset: 0x5DD2C, size: 0x8, addend: 0x0, symName: __RNvXs2V_NtNtCsaNl6UpbT7bw_4core5slice4iterINtB6_4IterTNtCshnvkK9b4wzu_11proc_macro25IdentTBQ_NtNtCsemR3zGJppC3_18tracing_attributes6expand10RecordTypeEEENtNtNtNtBa_4iter6traits8iterator8Iterator4nextB1x_, symObjAddr: 0x1630, symBinAddr: 0x338F0, symSize: 0xB0 }
  - { offset: 0x5DE66, size: 0x8, addend: 0x0, symName: __RNvXs2V_NtNtCsaNl6UpbT7bw_4core5slice4iterINtB6_4IterTNtCshnvkK9b4wzu_11proc_macro25IdentTBQ_NtNtCsemR3zGJppC3_18tracing_attributes6expand10RecordTypeEEENtNtNtNtBa_4iter6traits8iterator8Iterator9size_hintB1x_, symObjAddr: 0x16E0, symBinAddr: 0x339A0, symSize: 0x70 }
  - { offset: 0x5DED5, size: 0x8, addend: 0x0, symName: __RNvXs2V_NtNtCsaNl6UpbT7bw_4core5slice4iterINtB6_4IterTNtNtCsemR3zGJppC3_18tracing_attributes4attr5FieldNtNtCsc29TF2YcYso_3syn5token5CommaEENtNtNtNtBa_4iter6traits8iterator8Iterator4nextBU_, symObjAddr: 0x1750, symBinAddr: 0x33A10, symSize: 0xB0 }
  - { offset: 0x5E00F, size: 0x8, addend: 0x0, symName: __RNvXs2V_NtNtCsaNl6UpbT7bw_4core5slice4iterINtB6_4IterTReNtNtCsc29TF2YcYso_3syn2ty8TypePathEENtNtNtNtBa_4iter6traits8iterator8Iterator4nextCsemR3zGJppC3_18tracing_attributes, symObjAddr: 0x1800, symBinAddr: 0x33AC0, symSize: 0xB0 }
  - { offset: 0x5E98B, size: 0x8, addend: 0x0, symName: __RNvXs2W_NtNtCsaNl6UpbT7bw_4core5slice4iterINtB6_4IterNtNtCsc29TF2YcYso_3syn4stmt4StmtENtNtNtNtBa_4iter6traits12double_ended19DoubleEndedIterator9next_backCsemR3zGJppC3_18tracing_attributes, symObjAddr: 0x18B0, symBinAddr: 0x33B70, symSize: 0x108 }
  - { offset: 0x5EAE7, size: 0x8, addend: 0x0, symName: __RNvXs2W_NtNtCsaNl6UpbT7bw_4core5slice4iterINtB6_4IterTNtCshnvkK9b4wzu_11proc_macro25IdentNtNtCsc29TF2YcYso_3syn5token3DotEENtNtNtNtBa_4iter6traits12double_ended19DoubleEndedIterator9next_backCsemR3zGJppC3_18tracing_attributes, symObjAddr: 0x19B8, symBinAddr: 0x33C78, symSize: 0x108 }
  - { offset: 0x5EC43, size: 0x8, addend: 0x0, symName: __RNvXs2W_NtNtCsaNl6UpbT7bw_4core5slice4iterINtB6_4IterTNtNtCsemR3zGJppC3_18tracing_attributes4attr5FieldNtNtCsc29TF2YcYso_3syn5token5CommaEENtNtNtNtBa_4iter6traits12double_ended19DoubleEndedIterator9next_backBU_, symObjAddr: 0x1AC0, symBinAddr: 0x33D80, symSize: 0x108 }
  - { offset: 0x5EDA5, size: 0x8, addend: 0x0, symName: __RNvXs33_NtNtCsaNl6UpbT7bw_4core5slice4iterINtB6_7IterMutNtNtCsc29TF2YcYso_3syn4attr9AttributeENtNtNtNtBa_4iter6traits8iterator8Iterator4nextCsemR3zGJppC3_18tracing_attributes, symObjAddr: 0x1BC8, symBinAddr: 0x33E88, symSize: 0xB0 }
  - { offset: 0x5EECA, size: 0x8, addend: 0x0, symName: __RNvXs33_NtNtCsaNl6UpbT7bw_4core5slice4iterINtB6_7IterMutNtNtCsc29TF2YcYso_3syn4expr3ArmENtNtNtNtBa_4iter6traits8iterator8Iterator4nextCsemR3zGJppC3_18tracing_attributes, symObjAddr: 0x1C78, symBinAddr: 0x33F38, symSize: 0xB0 }
  - { offset: 0x5EFEF, size: 0x8, addend: 0x0, symName: __RNvXs33_NtNtCsaNl6UpbT7bw_4core5slice4iterINtB6_7IterMutNtNtCsc29TF2YcYso_3syn4item11ForeignItemENtNtNtNtBa_4iter6traits8iterator8Iterator4nextCsemR3zGJppC3_18tracing_attributes, symObjAddr: 0x1D28, symBinAddr: 0x33FE8, symSize: 0xB0 }
  - { offset: 0x5F114, size: 0x8, addend: 0x0, symName: __RNvXs33_NtNtCsaNl6UpbT7bw_4core5slice4iterINtB6_7IterMutNtNtCsc29TF2YcYso_3syn4item4ItemENtNtNtNtBa_4iter6traits8iterator8Iterator4nextCsemR3zGJppC3_18tracing_attributes, symObjAddr: 0x1DD8, symBinAddr: 0x34098, symSize: 0xB0 }
  - { offset: 0x5F239, size: 0x8, addend: 0x0, symName: __RNvXs33_NtNtCsaNl6UpbT7bw_4core5slice4iterINtB6_7IterMutNtNtCsc29TF2YcYso_3syn4item8ImplItemENtNtNtNtBa_4iter6traits8iterator8Iterator4nextCsemR3zGJppC3_18tracing_attributes, symObjAddr: 0x1E88, symBinAddr: 0x34148, symSize: 0xB0 }
  - { offset: 0x5F35E, size: 0x8, addend: 0x0, symName: __RNvXs33_NtNtCsaNl6UpbT7bw_4core5slice4iterINtB6_7IterMutNtNtCsc29TF2YcYso_3syn4item9TraitItemENtNtNtNtBa_4iter6traits8iterator8Iterator4nextCsemR3zGJppC3_18tracing_attributes, symObjAddr: 0x1F38, symBinAddr: 0x341F8, symSize: 0xB0 }
  - { offset: 0x5F483, size: 0x8, addend: 0x0, symName: __RNvXs33_NtNtCsaNl6UpbT7bw_4core5slice4iterINtB6_7IterMutNtNtCsc29TF2YcYso_3syn4stmt4StmtENtNtNtNtBa_4iter6traits8iterator8Iterator4nextCsemR3zGJppC3_18tracing_attributes, symObjAddr: 0x1FE8, symBinAddr: 0x342A8, symSize: 0xB0 }
  - { offset: 0x5F5A8, size: 0x8, addend: 0x0, symName: __RNvXs33_NtNtCsaNl6UpbT7bw_4core5slice4iterINtB6_7IterMutTNtNtCsc29TF2YcYso_3syn2ty4TypeNtNtBX_5token5CommaEENtNtNtNtBa_4iter6traits8iterator8Iterator4nextCsemR3zGJppC3_18tracing_attributes, symObjAddr: 0x2098, symBinAddr: 0x34358, symSize: 0xB0 }
  - { offset: 0x5F6CD, size: 0x8, addend: 0x0, symName: __RNvXs33_NtNtCsaNl6UpbT7bw_4core5slice4iterINtB6_7IterMutTNtNtCsc29TF2YcYso_3syn2ty9BareFnArgNtNtBX_5token5CommaEENtNtNtNtBa_4iter6traits8iterator8Iterator4nextCsemR3zGJppC3_18tracing_attributes, symObjAddr: 0x2148, symBinAddr: 0x34408, symSize: 0xB0 }
  - { offset: 0x5F7F2, size: 0x8, addend: 0x0, symName: __RNvXs33_NtNtCsaNl6UpbT7bw_4core5slice4iterINtB6_7IterMutTNtNtCsc29TF2YcYso_3syn3pat3PatNtNtBX_5token2OrEENtNtNtNtBa_4iter6traits8iterator8Iterator4nextCsemR3zGJppC3_18tracing_attributes, symObjAddr: 0x21F8, symBinAddr: 0x344B8, symSize: 0xB0 }
  - { offset: 0x5F917, size: 0x8, addend: 0x0, symName: __RNvXs33_NtNtCsaNl6UpbT7bw_4core5slice4iterINtB6_7IterMutTNtNtCsc29TF2YcYso_3syn3pat3PatNtNtBX_5token5CommaEENtNtNtNtBa_4iter6traits8iterator8Iterator4nextCsemR3zGJppC3_18tracing_attributes, symObjAddr: 0x22A8, symBinAddr: 0x34568, symSize: 0xB0 }
  - { offset: 0x5FA3C, size: 0x8, addend: 0x0, symName: __RNvXs33_NtNtCsaNl6UpbT7bw_4core5slice4iterINtB6_7IterMutTNtNtCsc29TF2YcYso_3syn3pat8FieldPatNtNtBX_5token5CommaEENtNtNtNtBa_4iter6traits8iterator8Iterator4nextCsemR3zGJppC3_18tracing_attributes, symObjAddr: 0x2358, symBinAddr: 0x34618, symSize: 0xB0 }
  - { offset: 0x5FB61, size: 0x8, addend: 0x0, symName: __RNvXs33_NtNtCsaNl6UpbT7bw_4core5slice4iterINtB6_7IterMutTNtNtCsc29TF2YcYso_3syn4data7VariantNtNtBX_5token5CommaEENtNtNtNtBa_4iter6traits8iterator8Iterator4nextCsemR3zGJppC3_18tracing_attributes, symObjAddr: 0x2408, symBinAddr: 0x346C8, symSize: 0xB0 }
  - { offset: 0x5FC86, size: 0x8, addend: 0x0, symName: __RNvXs33_NtNtCsaNl6UpbT7bw_4core5slice4iterINtB6_7IterMutTNtNtCsc29TF2YcYso_3syn4expr10FieldValueNtNtBX_5token5CommaEENtNtNtNtBa_4iter6traits8iterator8Iterator4nextCsemR3zGJppC3_18tracing_attributes, symObjAddr: 0x24B8, symBinAddr: 0x34778, symSize: 0xB0 }
  - { offset: 0x5FDAB, size: 0x8, addend: 0x0, symName: __RNvXs33_NtNtCsaNl6UpbT7bw_4core5slice4iterINtB6_7IterMutTNtNtCsc29TF2YcYso_3syn4expr4ExprNtNtBX_5token5CommaEENtNtNtNtBa_4iter6traits8iterator8Iterator4nextCsemR3zGJppC3_18tracing_attributes, symObjAddr: 0x2568, symBinAddr: 0x34828, symSize: 0xB0 }
  - { offset: 0x5FED0, size: 0x8, addend: 0x0, symName: __RNvXs33_NtNtCsaNl6UpbT7bw_4core5slice4iterINtB6_7IterMutTNtNtCsc29TF2YcYso_3syn4item5FnArgNtNtBX_5token5CommaEENtNtNtNtBa_4iter6traits8iterator8Iterator4nextCsemR3zGJppC3_18tracing_attributes, symObjAddr: 0x2618, symBinAddr: 0x348D8, symSize: 0xB0 }
  - { offset: 0x5FFF5, size: 0x8, addend: 0x0, symName: __RNvXs33_NtNtCsaNl6UpbT7bw_4core5slice4iterINtB6_7IterMutTNtNtCsc29TF2YcYso_3syn4item7UseTreeNtNtBX_5token5CommaEENtNtNtNtBa_4iter6traits8iterator8Iterator4nextCsemR3zGJppC3_18tracing_attributes, symObjAddr: 0x26C8, symBinAddr: 0x34988, symSize: 0xB0 }
  - { offset: 0x6011A, size: 0x8, addend: 0x0, symName: __RNvXs33_NtNtCsaNl6UpbT7bw_4core5slice4iterINtB6_7IterMutTNtNtCsc29TF2YcYso_3syn4path15GenericArgumentNtNtBX_5token5CommaEENtNtNtNtBa_4iter6traits8iterator8Iterator4nextCsemR3zGJppC3_18tracing_attributes, symObjAddr: 0x2778, symBinAddr: 0x34A38, symSize: 0xB0 }
  - { offset: 0x6023F, size: 0x8, addend: 0x0, symName: __RNvXs33_NtNtCsaNl6UpbT7bw_4core5slice4iterINtB6_7IterMutTNtNtCsc29TF2YcYso_3syn8generics13CapturedParamNtNtBX_5token5CommaEENtNtNtNtBa_4iter6traits8iterator8Iterator4nextCsemR3zGJppC3_18tracing_attributes, symObjAddr: 0x2828, symBinAddr: 0x34AE8, symSize: 0xB0 }
  - { offset: 0x60364, size: 0x8, addend: 0x0, symName: __RNvXs33_NtNtCsaNl6UpbT7bw_4core5slice4iterINtB6_7IterMutTNtNtCsc29TF2YcYso_3syn8generics14TypeParamBoundNtNtBX_5token4PlusEENtNtNtNtBa_4iter6traits8iterator8Iterator4nextCsemR3zGJppC3_18tracing_attributes, symObjAddr: 0x28D8, symBinAddr: 0x34B98, symSize: 0xB0 }
  - { offset: 0x60489, size: 0x8, addend: 0x0, symName: __RNvXs33_NtNtCsaNl6UpbT7bw_4core5slice4iterINtB6_7IterMutTNtNtCsc29TF2YcYso_3syn8generics14WherePredicateNtNtBX_5token5CommaEENtNtNtNtBa_4iter6traits8iterator8Iterator4nextCsemR3zGJppC3_18tracing_attributes, symObjAddr: 0x2988, symBinAddr: 0x34C48, symSize: 0xB0 }
  - { offset: 0x605AE, size: 0x8, addend: 0x0, symName: __RNvXs33_NtNtCsaNl6UpbT7bw_4core5slice4iterINtB6_7IterMutTNtNtCsc29TF2YcYso_3syn8lifetime8LifetimeNtNtBX_5token4PlusEENtNtNtNtBa_4iter6traits8iterator8Iterator4nextCsemR3zGJppC3_18tracing_attributes, symObjAddr: 0x2A38, symBinAddr: 0x34CF8, symSize: 0xB0 }
  - { offset: 0x606D3, size: 0x8, addend: 0x0, symName: __RNvXs33_NtNtCsaNl6UpbT7bw_4core5slice4iterINtB6_7IterMutTNtNtCsemR3zGJppC3_18tracing_attributes4attr5FieldNtNtCsc29TF2YcYso_3syn5token5CommaEENtNtNtNtBa_4iter6traits8iterator8Iterator4nextBX_, symObjAddr: 0x2AE8, symBinAddr: 0x34DA8, symSize: 0xB0 }
  - { offset: 0x607FE, size: 0x8, addend: 0x0, symName: __RNvXs34_NtNtCsaNl6UpbT7bw_4core5slice4iterINtB6_7IterMutTNtNtCsemR3zGJppC3_18tracing_attributes4attr5FieldNtNtCsc29TF2YcYso_3syn5token5CommaEENtNtNtNtBa_4iter6traits12double_ended19DoubleEndedIterator9next_backBX_, symObjAddr: 0x2B98, symBinAddr: 0x34E58, symSize: 0x108 }
  - { offset: 0x60960, size: 0x8, addend: 0x0, symName: __RNvXs5_NtNtCsaNl6UpbT7bw_4core5slice4iterINtB5_4IterTNtCshnvkK9b4wzu_11proc_macro25IdentNtNtCsc29TF2YcYso_3syn5token3DotEENtNtB9_5clone5Clone5cloneCsemR3zGJppC3_18tracing_attributes, symObjAddr: 0x2CA0, symBinAddr: 0x34F60, symSize: 0x20 }
  - { offset: 0x60995, size: 0x8, addend: 0x0, symName: __RNvXs5_NtNtCsaNl6UpbT7bw_4core5slice4iterINtB5_4IterTNtNtCsemR3zGJppC3_18tracing_attributes4attr5FieldNtNtCsc29TF2YcYso_3syn5token5CommaEENtNtB9_5clone5Clone5cloneBT_, symObjAddr: 0x2CC0, symBinAddr: 0x34F80, symSize: 0x20 }
  - { offset: 0x60BFD, size: 0x8, addend: 0x0, symName: __RINvYINtNtNtCsaNl6UpbT7bw_4core5slice4iter4IterNtNtCsc29TF2YcYso_3syn4stmt4StmtENtNtNtNtBa_4iter6traits12double_ended19DoubleEndedIterator9try_rfolduNCINvNvNtNtB1k_8iterator8Iterator8find_map5checkRBJ_TB39_RNtNtBN_4expr4ExprENCNvMs_NtCsemR3zGJppC3_18tracing_attributes6expandNtB3I_9AsyncInfo7from_fns_0E0INtNtNtBa_3ops12control_flow11ControlFlowB3d_EEB3K_, symObjAddr: 0x3D0, symBinAddr: 0x32690, symSize: 0x174 }
  - { offset: 0x60CB5, size: 0x8, addend: 0x0, symName: __RINvYINtNtNtCsaNl6UpbT7bw_4core5slice4iter4IterNtNtCsc29TF2YcYso_3syn4stmt4StmtENtNtNtNtBa_4iter6traits8iterator8Iterator10filter_mapTRBJ_RNtNtBN_4item6ItemFnENCNvMs_NtCsemR3zGJppC3_18tracing_attributes6expandNtB2E_9AsyncInfo7from_fn0EB2G_, symObjAddr: 0x544, symBinAddr: 0x32804, symSize: 0x1C }
  - { offset: 0x60D0D, size: 0x8, addend: 0x0, symName: __RINvYINtNtNtCsaNl6UpbT7bw_4core5slice4iter4IterNtNtCsc29TF2YcYso_3syn4stmt4StmtENtNtNtNtBa_4iter6traits8iterator8Iterator3mapNtCshnvkK9b4wzu_11proc_macro211TokenStreamNCNvMs_NtCsemR3zGJppC3_18tracing_attributes6expandNtB2M_9AsyncInfo9gen_async0EB2O_, symObjAddr: 0x560, symBinAddr: 0x32820, symSize: 0x1C }
  - { offset: 0x60D65, size: 0x8, addend: 0x0, symName: __RINvYINtNtNtCsaNl6UpbT7bw_4core5slice4iter4IterNtNtCsc29TF2YcYso_3syn4stmt4StmtENtNtNtNtBa_4iter6traits8iterator8Iterator8try_folduNCINvNtNtB1m_8adapters10filter_map19filter_map_try_foldRBJ_TB2Y_RNtNtBN_4item6ItemFnEuINtNtNtBa_3ops12control_flow11ControlFlowB32_ENCNvMs_NtCsemR3zGJppC3_18tracing_attributes6expandNtB4k_9AsyncInfo7from_fn0NCINvNvB1g_4find5checkB32_NCB4f_s0_0E0E0B3t_EB4m_, symObjAddr: 0x57C, symBinAddr: 0x3283C, symSize: 0x17C }
  - { offset: 0x60E18, size: 0x8, addend: 0x0, symName: __RINvYINtNtNtCsaNl6UpbT7bw_4core5slice4iter4IterNtNtCsc29TF2YcYso_3syn4stmt4StmtENtNtNtNtBa_4iter6traits8iterator8Iterator8try_folduNCINvNvXs_NtNtB1m_8adapters9enumerateINtB2f_9EnumeratepEB1g_8try_fold9enumerateRBJ_uINtNtNtBa_3ops12control_flow11ControlFlowTjB3m_EENCINvNvB1g_4find5checkB46_NCNvMs_NtCsemR3zGJppC3_18tracing_attributes6expandNtB4L_9AsyncInfo9gen_asyncs_0E0E0B3r_EB4N_, symObjAddr: 0x6F8, symBinAddr: 0x329B8, symSize: 0x17C }
  - { offset: 0x60ECB, size: 0x8, addend: 0x0, symName: __RINvYINtNtNtCsaNl6UpbT7bw_4core5slice4iter4IterNtNtCsc29TF2YcYso_3syn5error5ErrorENtNtNtNtBa_4iter6traits8iterator8Iterator3mapNtCshnvkK9b4wzu_11proc_macro211TokenStreamNCNvMNtCsemR3zGJppC3_18tracing_attributes4attrNtB2M_14InstrumentArgs8warnings0EB2O_, symObjAddr: 0x874, symBinAddr: 0x32B34, symSize: 0x1C }
  - { offset: 0x60F23, size: 0x8, addend: 0x0, symName: __RINvYINtNtNtCsaNl6UpbT7bw_4core5slice4iter4IterTNtCshnvkK9b4wzu_11proc_macro25IdentTBK_NtNtCsemR3zGJppC3_18tracing_attributes6expand10RecordTypeEEENtNtNtNtBa_4iter6traits8iterator8Iterator3mapRBK_NCNCINvB1p_9gen_blockNtBM_11TokenStreamEs0_0s0_0EB1r_, symObjAddr: 0x890, symBinAddr: 0x32B50, symSize: 0x1C }
  - { offset: 0x60F7B, size: 0x8, addend: 0x0, symName: __RINvYINtNtNtCsaNl6UpbT7bw_4core5slice4iter4IterTNtCshnvkK9b4wzu_11proc_macro25IdentTBK_NtNtCsemR3zGJppC3_18tracing_attributes6expand10RecordTypeEEENtNtNtNtBa_4iter6traits8iterator8Iterator3mapRBK_NCNCINvB1p_9gen_blockNtNtCsc29TF2YcYso_3syn4stmt5BlockEs0_0s0_0EB1r_, symObjAddr: 0x8AC, symBinAddr: 0x32B6C, symSize: 0x1C }
  - { offset: 0x60FD3, size: 0x8, addend: 0x0, symName: __RINvYINtNtNtCsaNl6UpbT7bw_4core5slice4iter4IterTNtCshnvkK9b4wzu_11proc_macro25IdentTBK_NtNtCsemR3zGJppC3_18tracing_attributes6expand10RecordTypeEEENtNtNtNtBa_4iter6traits8iterator8Iterator6filterNCNCINvB1p_9gen_blockNtBM_11TokenStreamEs0_0s2_0EB1r_, symObjAddr: 0x8C8, symBinAddr: 0x32B88, symSize: 0x30 }
  - { offset: 0x61037, size: 0x8, addend: 0x0, symName: __RINvYINtNtNtCsaNl6UpbT7bw_4core5slice4iter4IterTNtCshnvkK9b4wzu_11proc_macro25IdentTBK_NtNtCsemR3zGJppC3_18tracing_attributes6expand10RecordTypeEEENtNtNtNtBa_4iter6traits8iterator8Iterator6filterNCNCINvB1p_9gen_blockNtNtCsc29TF2YcYso_3syn4stmt5BlockEs0_0s2_0EB1r_, symObjAddr: 0x8F8, symBinAddr: 0x32BB8, symSize: 0x30 }
  - { offset: 0x6109B, size: 0x8, addend: 0x0, symName: __RINvYINtNtNtCsaNl6UpbT7bw_4core5slice4iter4IterTNtCshnvkK9b4wzu_11proc_macro25IdentTBK_NtNtCsemR3zGJppC3_18tracing_attributes6expand10RecordTypeEEENtNtNtNtBa_4iter6traits8iterator8Iterator8try_folduNCINvNtNtB2r_8adapters3map12map_try_foldRBJ_RBK_uINtNtNtBa_3ops12control_flow11ControlFlowuENCNCINvB1p_9gen_blockNtBM_11TokenStreamEs0_0s0_0NCINvNvB2l_3any5checkB3S_NCB4G_s1_0E0E0B3X_EB1r_, symObjAddr: 0x928, symBinAddr: 0x32BE8, symSize: 0x130 }
  - { offset: 0x6114D, size: 0x8, addend: 0x0, symName: __RINvYINtNtNtCsaNl6UpbT7bw_4core5slice4iter4IterTNtCshnvkK9b4wzu_11proc_macro25IdentTBK_NtNtCsemR3zGJppC3_18tracing_attributes6expand10RecordTypeEEENtNtNtNtBa_4iter6traits8iterator8Iterator8try_folduNCINvNtNtB2r_8adapters3map12map_try_foldRBJ_RBK_uINtNtNtBa_3ops12control_flow11ControlFlowuENCNCINvB1p_9gen_blockNtNtCsc29TF2YcYso_3syn4stmt5BlockEs0_0s0_0NCINvNvB2l_3any5checkB3S_NCB4G_s1_0E0E0B3X_EB1r_, symObjAddr: 0xA58, symBinAddr: 0x32D18, symSize: 0x130 }
  - { offset: 0x611FF, size: 0x8, addend: 0x0, symName: __RNvYINtNtNtCsaNl6UpbT7bw_4core5slice4iter4IterNtNtCsc29TF2YcYso_3syn4stmt4StmtENtNtNtNtB9_4iter6traits8iterator8Iterator3revCsemR3zGJppC3_18tracing_attributes, symObjAddr: 0x2CE0, symBinAddr: 0x34FA0, symSize: 0x1C }
  - { offset: 0x61236, size: 0x8, addend: 0x0, symName: __RNvYINtNtNtCsaNl6UpbT7bw_4core5slice4iter4IterNtNtCsc29TF2YcYso_3syn4stmt4StmtENtNtNtNtB9_4iter6traits8iterator8Iterator9enumerateCsemR3zGJppC3_18tracing_attributes, symObjAddr: 0x2CFC, symBinAddr: 0x34FBC, symSize: 0x28 }
  - { offset: 0x67EAA, size: 0x8, addend: 0x0, symName: __RNvMs4_NtNtCsaNl6UpbT7bw_4core5slice4iterINtB5_4IterNtCshnvkK9b4wzu_11proc_macro211TokenStreamE3newCsemR3zGJppC3_18tracing_attributes, symObjAddr: 0xB88, symBinAddr: 0x32E48, symSize: 0x50 }
  - { offset: 0x6805A, size: 0x8, addend: 0x0, symName: __RNvMs4_NtNtCsaNl6UpbT7bw_4core5slice4iterINtB5_4IterNtNtCsc29TF2YcYso_3syn4stmt4StmtE3newCsemR3zGJppC3_18tracing_attributes, symObjAddr: 0xBD8, symBinAddr: 0x32E98, symSize: 0x58 }
  - { offset: 0x68224, size: 0x8, addend: 0x0, symName: __RNvMs4_NtNtCsaNl6UpbT7bw_4core5slice4iterINtB5_4IterNtNtCsc29TF2YcYso_3syn5error5ErrorE3newCsemR3zGJppC3_18tracing_attributes, symObjAddr: 0xC30, symBinAddr: 0x32EF0, symSize: 0x58 }
  - { offset: 0x683EE, size: 0x8, addend: 0x0, symName: __RNvMs4_NtNtCsaNl6UpbT7bw_4core5slice4iterINtB5_4IterTNtCshnvkK9b4wzu_11proc_macro25IdentNtNtCsc29TF2YcYso_3syn5token3DotEE3newCsemR3zGJppC3_18tracing_attributes, symObjAddr: 0xC88, symBinAddr: 0x32F48, symSize: 0x50 }
  - { offset: 0x6859E, size: 0x8, addend: 0x0, symName: __RNvMs4_NtNtCsaNl6UpbT7bw_4core5slice4iterINtB5_4IterTNtCshnvkK9b4wzu_11proc_macro25IdentTBP_NtNtCsemR3zGJppC3_18tracing_attributes6expand10RecordTypeEEE3newB1w_, symObjAddr: 0xCD8, symBinAddr: 0x32F98, symSize: 0x58 }
  - { offset: 0x68768, size: 0x8, addend: 0x0, symName: __RNvMs4_NtNtCsaNl6UpbT7bw_4core5slice4iterINtB5_4IterTNtNtCsemR3zGJppC3_18tracing_attributes4attr5FieldNtNtCsc29TF2YcYso_3syn5token5CommaEE3newBT_, symObjAddr: 0xD30, symBinAddr: 0x32FF0, symSize: 0x58 }
  - { offset: 0x68932, size: 0x8, addend: 0x0, symName: __RNvMsa_NtNtCsaNl6UpbT7bw_4core5slice4iterINtB5_7IterMutTNtNtCsc29TF2YcYso_3syn2ty4TypeNtNtBW_5token5CommaEE3newCsemR3zGJppC3_18tracing_attributes, symObjAddr: 0xD88, symBinAddr: 0x33048, symSize: 0x58 }
  - { offset: 0x68AFC, size: 0x8, addend: 0x0, symName: __RNvMsa_NtNtCsaNl6UpbT7bw_4core5slice4iterINtB5_7IterMutTNtNtCsc29TF2YcYso_3syn2ty9BareFnArgNtNtBW_5token5CommaEE3newCsemR3zGJppC3_18tracing_attributes, symObjAddr: 0xDE0, symBinAddr: 0x330A0, symSize: 0x58 }
  - { offset: 0x68CC6, size: 0x8, addend: 0x0, symName: __RNvMsa_NtNtCsaNl6UpbT7bw_4core5slice4iterINtB5_7IterMutTNtNtCsc29TF2YcYso_3syn3pat3PatNtNtBW_5token2OrEE3newCsemR3zGJppC3_18tracing_attributes, symObjAddr: 0xE38, symBinAddr: 0x330F8, symSize: 0x58 }
  - { offset: 0x68E90, size: 0x8, addend: 0x0, symName: __RNvMsa_NtNtCsaNl6UpbT7bw_4core5slice4iterINtB5_7IterMutTNtNtCsc29TF2YcYso_3syn3pat3PatNtNtBW_5token5CommaEE3newCsemR3zGJppC3_18tracing_attributes, symObjAddr: 0xE90, symBinAddr: 0x33150, symSize: 0x58 }
  - { offset: 0x6905A, size: 0x8, addend: 0x0, symName: __RNvMsa_NtNtCsaNl6UpbT7bw_4core5slice4iterINtB5_7IterMutTNtNtCsc29TF2YcYso_3syn3pat8FieldPatNtNtBW_5token5CommaEE3newCsemR3zGJppC3_18tracing_attributes, symObjAddr: 0xEE8, symBinAddr: 0x331A8, symSize: 0x58 }
  - { offset: 0x69224, size: 0x8, addend: 0x0, symName: __RNvMsa_NtNtCsaNl6UpbT7bw_4core5slice4iterINtB5_7IterMutTNtNtCsc29TF2YcYso_3syn4data7VariantNtNtBW_5token5CommaEE3newCsemR3zGJppC3_18tracing_attributes, symObjAddr: 0xF40, symBinAddr: 0x33200, symSize: 0x58 }
  - { offset: 0x693EE, size: 0x8, addend: 0x0, symName: __RNvMsa_NtNtCsaNl6UpbT7bw_4core5slice4iterINtB5_7IterMutTNtNtCsc29TF2YcYso_3syn4expr10FieldValueNtNtBW_5token5CommaEE3newCsemR3zGJppC3_18tracing_attributes, symObjAddr: 0xF98, symBinAddr: 0x33258, symSize: 0x58 }
  - { offset: 0x695B8, size: 0x8, addend: 0x0, symName: __RNvMsa_NtNtCsaNl6UpbT7bw_4core5slice4iterINtB5_7IterMutTNtNtCsc29TF2YcYso_3syn4expr4ExprNtNtBW_5token5CommaEE3newCsemR3zGJppC3_18tracing_attributes, symObjAddr: 0xFF0, symBinAddr: 0x332B0, symSize: 0x58 }
  - { offset: 0x69782, size: 0x8, addend: 0x0, symName: __RNvMsa_NtNtCsaNl6UpbT7bw_4core5slice4iterINtB5_7IterMutTNtNtCsc29TF2YcYso_3syn4item5FnArgNtNtBW_5token5CommaEE3newCsemR3zGJppC3_18tracing_attributes, symObjAddr: 0x1048, symBinAddr: 0x33308, symSize: 0x58 }
  - { offset: 0x6994C, size: 0x8, addend: 0x0, symName: __RNvMsa_NtNtCsaNl6UpbT7bw_4core5slice4iterINtB5_7IterMutTNtNtCsc29TF2YcYso_3syn4item7UseTreeNtNtBW_5token5CommaEE3newCsemR3zGJppC3_18tracing_attributes, symObjAddr: 0x10A0, symBinAddr: 0x33360, symSize: 0x58 }
  - { offset: 0x69B16, size: 0x8, addend: 0x0, symName: __RNvMsa_NtNtCsaNl6UpbT7bw_4core5slice4iterINtB5_7IterMutTNtNtCsc29TF2YcYso_3syn4path15GenericArgumentNtNtBW_5token5CommaEE3newCsemR3zGJppC3_18tracing_attributes, symObjAddr: 0x10F8, symBinAddr: 0x333B8, symSize: 0x58 }
  - { offset: 0x69CE0, size: 0x8, addend: 0x0, symName: __RNvMsa_NtNtCsaNl6UpbT7bw_4core5slice4iterINtB5_7IterMutTNtNtCsc29TF2YcYso_3syn8generics13CapturedParamNtNtBW_5token5CommaEE3newCsemR3zGJppC3_18tracing_attributes, symObjAddr: 0x1150, symBinAddr: 0x33410, symSize: 0x58 }
  - { offset: 0x69EAA, size: 0x8, addend: 0x0, symName: __RNvMsa_NtNtCsaNl6UpbT7bw_4core5slice4iterINtB5_7IterMutTNtNtCsc29TF2YcYso_3syn8generics14TypeParamBoundNtNtBW_5token4PlusEE3newCsemR3zGJppC3_18tracing_attributes, symObjAddr: 0x11A8, symBinAddr: 0x33468, symSize: 0x50 }
  - { offset: 0x6A074, size: 0x8, addend: 0x0, symName: __RNvMsa_NtNtCsaNl6UpbT7bw_4core5slice4iterINtB5_7IterMutTNtNtCsc29TF2YcYso_3syn8generics14WherePredicateNtNtBW_5token5CommaEE3newCsemR3zGJppC3_18tracing_attributes, symObjAddr: 0x11F8, symBinAddr: 0x334B8, symSize: 0x58 }
  - { offset: 0x6A23E, size: 0x8, addend: 0x0, symName: __RNvMsa_NtNtCsaNl6UpbT7bw_4core5slice4iterINtB5_7IterMutTNtNtCsc29TF2YcYso_3syn8lifetime8LifetimeNtNtBW_5token4PlusEE3newCsemR3zGJppC3_18tracing_attributes, symObjAddr: 0x1250, symBinAddr: 0x33510, symSize: 0x58 }
  - { offset: 0x6A3C7, size: 0x8, addend: 0x0, symName: __RNvMsa_NtNtCsaNl6UpbT7bw_4core5slice4iterINtB5_7IterMutTNtNtCsemR3zGJppC3_18tracing_attributes4attr5FieldNtNtCsc29TF2YcYso_3syn5token5CommaEE3newBW_, symObjAddr: 0x12A8, symBinAddr: 0x33568, symSize: 0x58 }
  - { offset: 0x6BA10, size: 0x8, addend: 0x0, symName: __RINvYINtNtCsc29TF2YcYso_3syn10punctuated11PrivateIterNtCshnvkK9b4wzu_11proc_macro25IdentNtNtB8_5token3DotENtNtNtNtCsaNl6UpbT7bw_4core4iter6traits8iterator8Iterator8try_foldINtNtNtB1O_3num7nonzero7NonZerojENCNvXs_NvB1G_10advance_byB3_NtB3o_13SpecAdvanceBy15spec_advance_by0INtNtB1O_6option6OptionB2K_EECsemR3zGJppC3_18tracing_attributes, symObjAddr: 0x0, symBinAddr: 0x34FE4, symSize: 0x154 }
  - { offset: 0x6C36E, size: 0x8, addend: 0x0, symName: __RNCNCNvXsG_NtCsc29TF2YcYso_3syn10punctuatedINtB9_14PrivateIterMutNtNtCsemR3zGJppC3_18tracing_attributes4attr5FieldNtNtBb_5token5CommaENtNtNtNtCsaNl6UpbT7bw_4core4iter6traits12double_ended19DoubleEndedIterator9next_back00B15_, symObjAddr: 0x1320, symBinAddr: 0x36304, symSize: 0x24 }
  - { offset: 0x6C3C1, size: 0x8, addend: 0x0, symName: __RNCNvXsG_NtCsc29TF2YcYso_3syn10punctuatedINtB7_14PrivateIterMutNtNtCsemR3zGJppC3_18tracing_attributes4attr5FieldNtNtB9_5token5CommaENtNtNtNtCsaNl6UpbT7bw_4core4iter6traits12double_ended19DoubleEndedIterator9next_back0B13_, symObjAddr: 0x174C, symBinAddr: 0x36730, symSize: 0x38 }
  - { offset: 0x6C404, size: 0x8, addend: 0x0, symName: __RNvXsG_NtCsc29TF2YcYso_3syn10punctuatedINtB5_14PrivateIterMutNtNtCsemR3zGJppC3_18tracing_attributes4attr5FieldNtNtB7_5token5CommaENtNtNtNtCsaNl6UpbT7bw_4core4iter6traits12double_ended19DoubleEndedIterator9next_backB11_, symObjAddr: 0x5D88, symBinAddr: 0x3AD6C, symSize: 0x40 }
  - { offset: 0x6C454, size: 0x8, addend: 0x0, symName: __RNCNCNvXsx_NtCsc29TF2YcYso_3syn10punctuatedINtB9_11PrivateIterNtCshnvkK9b4wzu_11proc_macro25IdentNtNtBb_5token3DotENtNtNtNtCsaNl6UpbT7bw_4core4iter6traits12double_ended19DoubleEndedIterator9next_back00CsemR3zGJppC3_18tracing_attributes, symObjAddr: 0x1344, symBinAddr: 0x36328, symSize: 0x24 }
  - { offset: 0x6C49F, size: 0x8, addend: 0x0, symName: __RNCNCNvXsx_NtCsc29TF2YcYso_3syn10punctuatedINtB9_11PrivateIterNtNtCsemR3zGJppC3_18tracing_attributes4attr5FieldNtNtBb_5token5CommaENtNtNtNtCsaNl6UpbT7bw_4core4iter6traits12double_ended19DoubleEndedIterator9next_back00B12_, symObjAddr: 0x1368, symBinAddr: 0x3634C, symSize: 0x24 }
  - { offset: 0x6C4F9, size: 0x8, addend: 0x0, symName: __RNCNvXsx_NtCsc29TF2YcYso_3syn10punctuatedINtB7_11PrivateIterNtCshnvkK9b4wzu_11proc_macro25IdentNtNtB9_5token3DotENtNtNtNtCsaNl6UpbT7bw_4core4iter6traits12double_ended19DoubleEndedIterator9next_back0CsemR3zGJppC3_18tracing_attributes, symObjAddr: 0x2234, symBinAddr: 0x37218, symSize: 0x38 }
  - { offset: 0x6C53B, size: 0x8, addend: 0x0, symName: __RNCNvXsx_NtCsc29TF2YcYso_3syn10punctuatedINtB7_11PrivateIterNtNtCsemR3zGJppC3_18tracing_attributes4attr5FieldNtNtB9_5token5CommaENtNtNtNtCsaNl6UpbT7bw_4core4iter6traits12double_ended19DoubleEndedIterator9next_back0B10_, symObjAddr: 0x226C, symBinAddr: 0x37250, symSize: 0x38 }
  - { offset: 0x6C57E, size: 0x8, addend: 0x0, symName: __RNvXsx_NtCsc29TF2YcYso_3syn10punctuatedINtB5_11PrivateIterNtCshnvkK9b4wzu_11proc_macro25IdentNtNtB7_5token3DotENtNtNtNtCsaNl6UpbT7bw_4core4iter6traits12double_ended19DoubleEndedIterator9next_backCsemR3zGJppC3_18tracing_attributes, symObjAddr: 0x6F34, symBinAddr: 0x3BF18, symSize: 0x40 }
  - { offset: 0x6C5BE, size: 0x8, addend: 0x0, symName: __RNvXsx_NtCsc29TF2YcYso_3syn10punctuatedINtB5_11PrivateIterNtNtCsemR3zGJppC3_18tracing_attributes4attr5FieldNtNtB7_5token5CommaENtNtNtNtCsaNl6UpbT7bw_4core4iter6traits12double_ended19DoubleEndedIterator9next_backBY_, symObjAddr: 0x6F74, symBinAddr: 0x3BF58, symSize: 0x40 }
  - { offset: 0x6C609, size: 0x8, addend: 0x0, symName: __RNCNvXs8_NtCsc29TF2YcYso_3syn10punctuatedINtB7_10PunctuatedNtCshnvkK9b4wzu_11proc_macro25IdentNtNtB9_5token5CommaENtNtNtNtCsaNl6UpbT7bw_4core4iter6traits7collect12IntoIterator9into_iter0CsemR3zGJppC3_18tracing_attributes, symObjAddr: 0x138C, symBinAddr: 0x36370, symSize: 0x34 }
  - { offset: 0x6C654, size: 0x8, addend: 0x0, symName: __RNCNvXs8_NtCsc29TF2YcYso_3syn10punctuatedINtB7_10PunctuatedNtCshnvkK9b4wzu_11proc_macro25IdentNtNtB9_5token5CommaENtNtNtNtCsaNl6UpbT7bw_4core4iter6traits7collect12IntoIterator9into_iters_0CsemR3zGJppC3_18tracing_attributes, symObjAddr: 0x13C0, symBinAddr: 0x363A4, symSize: 0xA0 }
  - { offset: 0x6C69F, size: 0x8, addend: 0x0, symName: __RNCNvXs8_NtCsc29TF2YcYso_3syn10punctuatedINtB7_10PunctuatedNtNtB9_3pat3PatNtNtB9_5token5CommaENtNtNtNtCsaNl6UpbT7bw_4core4iter6traits7collect12IntoIterator9into_iter0CsemR3zGJppC3_18tracing_attributes, symObjAddr: 0x1460, symBinAddr: 0x36444, symSize: 0x44 }
  - { offset: 0x6C6EB, size: 0x8, addend: 0x0, symName: __RNCNvXs8_NtCsc29TF2YcYso_3syn10punctuatedINtB7_10PunctuatedNtNtB9_3pat3PatNtNtB9_5token5CommaENtNtNtNtCsaNl6UpbT7bw_4core4iter6traits7collect12IntoIterator9into_iters_0CsemR3zGJppC3_18tracing_attributes, symObjAddr: 0x14A4, symBinAddr: 0x36488, symSize: 0x98 }
  - { offset: 0x6C736, size: 0x8, addend: 0x0, symName: __RNCNvXs8_NtCsc29TF2YcYso_3syn10punctuatedINtB7_10PunctuatedNtNtB9_3pat8FieldPatNtNtB9_5token5CommaENtNtNtNtCsaNl6UpbT7bw_4core4iter6traits7collect12IntoIterator9into_iter0CsemR3zGJppC3_18tracing_attributes, symObjAddr: 0x153C, symBinAddr: 0x36520, symSize: 0x44 }
  - { offset: 0x6C782, size: 0x8, addend: 0x0, symName: __RNCNvXs8_NtCsc29TF2YcYso_3syn10punctuatedINtB7_10PunctuatedNtNtB9_3pat8FieldPatNtNtB9_5token5CommaENtNtNtNtCsaNl6UpbT7bw_4core4iter6traits7collect12IntoIterator9into_iters_0CsemR3zGJppC3_18tracing_attributes, symObjAddr: 0x1580, symBinAddr: 0x36564, symSize: 0x98 }
  - { offset: 0x6C7CD, size: 0x8, addend: 0x0, symName: __RNCNvXs8_NtCsc29TF2YcYso_3syn10punctuatedINtB7_10PunctuatedNtNtB9_4item5FnArgNtNtB9_5token5CommaENtNtNtNtCsaNl6UpbT7bw_4core4iter6traits7collect12IntoIterator9into_iter0CsemR3zGJppC3_18tracing_attributes, symObjAddr: 0x1618, symBinAddr: 0x365FC, symSize: 0x44 }
  - { offset: 0x6C819, size: 0x8, addend: 0x0, symName: __RNCNvXs8_NtCsc29TF2YcYso_3syn10punctuatedINtB7_10PunctuatedNtNtB9_4item5FnArgNtNtB9_5token5CommaENtNtNtNtCsaNl6UpbT7bw_4core4iter6traits7collect12IntoIterator9into_iters_0CsemR3zGJppC3_18tracing_attributes, symObjAddr: 0x165C, symBinAddr: 0x36640, symSize: 0x98 }
  - { offset: 0x6C89D, size: 0x8, addend: 0x0, symName: __RNvXs8_NtCsc29TF2YcYso_3syn10punctuatedINtB5_10PunctuatedNtCshnvkK9b4wzu_11proc_macro25IdentNtNtB7_5token5CommaENtNtNtNtCsaNl6UpbT7bw_4core4iter6traits7collect12IntoIterator9into_iterCsemR3zGJppC3_18tracing_attributes, symObjAddr: 0x54A0, symBinAddr: 0x3A484, symSize: 0x1C0 }
  - { offset: 0x6C8F4, size: 0x8, addend: 0x0, symName: __RNvXs8_NtCsc29TF2YcYso_3syn10punctuatedINtB5_10PunctuatedNtNtB7_3pat3PatNtNtB7_5token5CommaENtNtNtNtCsaNl6UpbT7bw_4core4iter6traits7collect12IntoIterator9into_iterCsemR3zGJppC3_18tracing_attributes, symObjAddr: 0x5660, symBinAddr: 0x3A644, symSize: 0x1C0 }
  - { offset: 0x6C94B, size: 0x8, addend: 0x0, symName: __RNvXs8_NtCsc29TF2YcYso_3syn10punctuatedINtB5_10PunctuatedNtNtB7_3pat8FieldPatNtNtB7_5token5CommaENtNtNtNtCsaNl6UpbT7bw_4core4iter6traits7collect12IntoIterator9into_iterCsemR3zGJppC3_18tracing_attributes, symObjAddr: 0x5820, symBinAddr: 0x3A804, symSize: 0x1C0 }
  - { offset: 0x6C9A2, size: 0x8, addend: 0x0, symName: __RNvXs8_NtCsc29TF2YcYso_3syn10punctuatedINtB5_10PunctuatedNtNtB7_4item5FnArgNtNtB7_5token5CommaENtNtNtNtCsaNl6UpbT7bw_4core4iter6traits7collect12IntoIterator9into_iterCsemR3zGJppC3_18tracing_attributes, symObjAddr: 0x59E0, symBinAddr: 0x3A9C4, symSize: 0x1C0 }
  - { offset: 0x6CA04, size: 0x8, addend: 0x0, symName: __RNCNvXsF_NtCsc29TF2YcYso_3syn10punctuatedINtB7_14PrivateIterMutNtNtCsemR3zGJppC3_18tracing_attributes4attr5FieldNtNtB9_5token5CommaENtNtNtNtCsaNl6UpbT7bw_4core4iter6traits8iterator8Iterator4next0B13_, symObjAddr: 0x16F4, symBinAddr: 0x366D8, symSize: 0x24 }
  - { offset: 0x6CA4F, size: 0x8, addend: 0x0, symName: __RNCNvXsF_NtCsc29TF2YcYso_3syn10punctuatedINtB7_14PrivateIterMutNtNtCsemR3zGJppC3_18tracing_attributes4attr5FieldNtNtB9_5token5CommaENtNtNtNtCsaNl6UpbT7bw_4core4iter6traits8iterator8Iterator4nexts_0B13_, symObjAddr: 0x1718, symBinAddr: 0x366FC, symSize: 0x34 }
  - { offset: 0x6CA99, size: 0x8, addend: 0x0, symName: __RNvXsF_NtCsc29TF2YcYso_3syn10punctuatedINtB5_14PrivateIterMutNtNtCsemR3zGJppC3_18tracing_attributes4attr5FieldNtNtB7_5token5CommaENtNtNtNtCsaNl6UpbT7bw_4core4iter6traits8iterator8Iterator4nextB11_, symObjAddr: 0x5D44, symBinAddr: 0x3AD28, symSize: 0x44 }
  - { offset: 0x6CAE4, size: 0x8, addend: 0x0, symName: __RNCNvXsc_NtCsc29TF2YcYso_3syn10punctuatedINtB7_5PairsNtCshnvkK9b4wzu_11proc_macro25IdentNtNtB9_5token3DotENtNtNtNtCsaNl6UpbT7bw_4core4iter6traits8iterator8Iterator4next0CsemR3zGJppC3_18tracing_attributes, symObjAddr: 0x1784, symBinAddr: 0x36768, symSize: 0x40 }
  - { offset: 0x6CB59, size: 0x8, addend: 0x0, symName: __RNCNvXsc_NtCsc29TF2YcYso_3syn10punctuatedINtB7_5PairsNtCshnvkK9b4wzu_11proc_macro25IdentNtNtB9_5token3DotENtNtNtNtCsaNl6UpbT7bw_4core4iter6traits8iterator8Iterator4nexts_0CsemR3zGJppC3_18tracing_attributes, symObjAddr: 0x17C4, symBinAddr: 0x367A8, symSize: 0x40 }
  - { offset: 0x6CB9B, size: 0x8, addend: 0x0, symName: __RNCNvXsc_NtCsc29TF2YcYso_3syn10punctuatedINtB7_5PairsNtNtCsemR3zGJppC3_18tracing_attributes4attr5FieldNtNtB9_5token5CommaENtNtNtNtCsaNl6UpbT7bw_4core4iter6traits8iterator8Iterator4next0BT_, symObjAddr: 0x1804, symBinAddr: 0x367E8, symSize: 0x40 }
  - { offset: 0x6CC10, size: 0x8, addend: 0x0, symName: __RNCNvXsc_NtCsc29TF2YcYso_3syn10punctuatedINtB7_5PairsNtNtCsemR3zGJppC3_18tracing_attributes4attr5FieldNtNtB9_5token5CommaENtNtNtNtCsaNl6UpbT7bw_4core4iter6traits8iterator8Iterator4nexts_0BT_, symObjAddr: 0x1844, symBinAddr: 0x36828, symSize: 0x40 }
  - { offset: 0x6CC61, size: 0x8, addend: 0x0, symName: __RNvXsc_NtCsc29TF2YcYso_3syn10punctuatedINtB5_5PairsNtCshnvkK9b4wzu_11proc_macro25IdentNtNtB7_5token3DotENtNtNtNtCsaNl6UpbT7bw_4core4iter6traits8iterator8Iterator4nextCsemR3zGJppC3_18tracing_attributes, symObjAddr: 0x6414, symBinAddr: 0x3B3F8, symSize: 0x58 }
  - { offset: 0x6CCA1, size: 0x8, addend: 0x0, symName: __RNvXsc_NtCsc29TF2YcYso_3syn10punctuatedINtB5_5PairsNtNtCsemR3zGJppC3_18tracing_attributes4attr5FieldNtNtB7_5token5CommaENtNtNtNtCsaNl6UpbT7bw_4core4iter6traits8iterator8Iterator4nextBR_, symObjAddr: 0x646C, symBinAddr: 0x3B450, symSize: 0x58 }
  - { offset: 0x6CCEC, size: 0x8, addend: 0x0, symName: __RNCNvXsg_NtCsc29TF2YcYso_3syn10punctuatedINtB7_8PairsMutNtNtB9_2ty4TypeNtNtB9_5token5CommaENtNtNtNtCsaNl6UpbT7bw_4core4iter6traits8iterator8Iterator4next0CsemR3zGJppC3_18tracing_attributes, symObjAddr: 0x1884, symBinAddr: 0x36868, symSize: 0x40 }
  - { offset: 0x6CD61, size: 0x8, addend: 0x0, symName: __RNCNvXsg_NtCsc29TF2YcYso_3syn10punctuatedINtB7_8PairsMutNtNtB9_2ty4TypeNtNtB9_5token5CommaENtNtNtNtCsaNl6UpbT7bw_4core4iter6traits8iterator8Iterator4nexts_0CsemR3zGJppC3_18tracing_attributes, symObjAddr: 0x18C4, symBinAddr: 0x368A8, symSize: 0x40 }
  - { offset: 0x6CDA3, size: 0x8, addend: 0x0, symName: __RNCNvXsg_NtCsc29TF2YcYso_3syn10punctuatedINtB7_8PairsMutNtNtB9_2ty9BareFnArgNtNtB9_5token5CommaENtNtNtNtCsaNl6UpbT7bw_4core4iter6traits8iterator8Iterator4next0CsemR3zGJppC3_18tracing_attributes, symObjAddr: 0x1904, symBinAddr: 0x368E8, symSize: 0x40 }
  - { offset: 0x6CE18, size: 0x8, addend: 0x0, symName: __RNCNvXsg_NtCsc29TF2YcYso_3syn10punctuatedINtB7_8PairsMutNtNtB9_2ty9BareFnArgNtNtB9_5token5CommaENtNtNtNtCsaNl6UpbT7bw_4core4iter6traits8iterator8Iterator4nexts_0CsemR3zGJppC3_18tracing_attributes, symObjAddr: 0x1944, symBinAddr: 0x36928, symSize: 0x40 }
  - { offset: 0x6CE5A, size: 0x8, addend: 0x0, symName: __RNCNvXsg_NtCsc29TF2YcYso_3syn10punctuatedINtB7_8PairsMutNtNtB9_3pat3PatNtNtB9_5token2OrENtNtNtNtCsaNl6UpbT7bw_4core4iter6traits8iterator8Iterator4next0CsemR3zGJppC3_18tracing_attributes, symObjAddr: 0x1984, symBinAddr: 0x36968, symSize: 0x40 }
  - { offset: 0x6CECF, size: 0x8, addend: 0x0, symName: __RNCNvXsg_NtCsc29TF2YcYso_3syn10punctuatedINtB7_8PairsMutNtNtB9_3pat3PatNtNtB9_5token2OrENtNtNtNtCsaNl6UpbT7bw_4core4iter6traits8iterator8Iterator4nexts_0CsemR3zGJppC3_18tracing_attributes, symObjAddr: 0x19C4, symBinAddr: 0x369A8, symSize: 0x40 }
  - { offset: 0x6CF11, size: 0x8, addend: 0x0, symName: __RNCNvXsg_NtCsc29TF2YcYso_3syn10punctuatedINtB7_8PairsMutNtNtB9_3pat3PatNtNtB9_5token5CommaENtNtNtNtCsaNl6UpbT7bw_4core4iter6traits8iterator8Iterator4next0CsemR3zGJppC3_18tracing_attributes, symObjAddr: 0x1A04, symBinAddr: 0x369E8, symSize: 0x40 }
  - { offset: 0x6CF86, size: 0x8, addend: 0x0, symName: __RNCNvXsg_NtCsc29TF2YcYso_3syn10punctuatedINtB7_8PairsMutNtNtB9_3pat3PatNtNtB9_5token5CommaENtNtNtNtCsaNl6UpbT7bw_4core4iter6traits8iterator8Iterator4nexts_0CsemR3zGJppC3_18tracing_attributes, symObjAddr: 0x1A44, symBinAddr: 0x36A28, symSize: 0x40 }
  - { offset: 0x6CFC8, size: 0x8, addend: 0x0, symName: __RNCNvXsg_NtCsc29TF2YcYso_3syn10punctuatedINtB7_8PairsMutNtNtB9_3pat8FieldPatNtNtB9_5token5CommaENtNtNtNtCsaNl6UpbT7bw_4core4iter6traits8iterator8Iterator4next0CsemR3zGJppC3_18tracing_attributes, symObjAddr: 0x1A84, symBinAddr: 0x36A68, symSize: 0x40 }
  - { offset: 0x6D03D, size: 0x8, addend: 0x0, symName: __RNCNvXsg_NtCsc29TF2YcYso_3syn10punctuatedINtB7_8PairsMutNtNtB9_3pat8FieldPatNtNtB9_5token5CommaENtNtNtNtCsaNl6UpbT7bw_4core4iter6traits8iterator8Iterator4nexts_0CsemR3zGJppC3_18tracing_attributes, symObjAddr: 0x1AC4, symBinAddr: 0x36AA8, symSize: 0x40 }
  - { offset: 0x6D07F, size: 0x8, addend: 0x0, symName: __RNCNvXsg_NtCsc29TF2YcYso_3syn10punctuatedINtB7_8PairsMutNtNtB9_4data5FieldNtNtB9_5token5CommaENtNtNtNtCsaNl6UpbT7bw_4core4iter6traits8iterator8Iterator4next0CsemR3zGJppC3_18tracing_attributes, symObjAddr: 0x1B04, symBinAddr: 0x36AE8, symSize: 0x40 }
  - { offset: 0x6D0F4, size: 0x8, addend: 0x0, symName: __RNCNvXsg_NtCsc29TF2YcYso_3syn10punctuatedINtB7_8PairsMutNtNtB9_4data5FieldNtNtB9_5token5CommaENtNtNtNtCsaNl6UpbT7bw_4core4iter6traits8iterator8Iterator4nexts_0CsemR3zGJppC3_18tracing_attributes, symObjAddr: 0x1B44, symBinAddr: 0x36B28, symSize: 0x40 }
  - { offset: 0x6D136, size: 0x8, addend: 0x0, symName: __RNCNvXsg_NtCsc29TF2YcYso_3syn10punctuatedINtB7_8PairsMutNtNtB9_4data7VariantNtNtB9_5token5CommaENtNtNtNtCsaNl6UpbT7bw_4core4iter6traits8iterator8Iterator4next0CsemR3zGJppC3_18tracing_attributes, symObjAddr: 0x1B84, symBinAddr: 0x36B68, symSize: 0x40 }
  - { offset: 0x6D1AB, size: 0x8, addend: 0x0, symName: __RNCNvXsg_NtCsc29TF2YcYso_3syn10punctuatedINtB7_8PairsMutNtNtB9_4data7VariantNtNtB9_5token5CommaENtNtNtNtCsaNl6UpbT7bw_4core4iter6traits8iterator8Iterator4nexts_0CsemR3zGJppC3_18tracing_attributes, symObjAddr: 0x1BC4, symBinAddr: 0x36BA8, symSize: 0x40 }
  - { offset: 0x6D1ED, size: 0x8, addend: 0x0, symName: __RNCNvXsg_NtCsc29TF2YcYso_3syn10punctuatedINtB7_8PairsMutNtNtB9_4expr10FieldValueNtNtB9_5token5CommaENtNtNtNtCsaNl6UpbT7bw_4core4iter6traits8iterator8Iterator4next0CsemR3zGJppC3_18tracing_attributes, symObjAddr: 0x1C04, symBinAddr: 0x36BE8, symSize: 0x40 }
  - { offset: 0x6D262, size: 0x8, addend: 0x0, symName: __RNCNvXsg_NtCsc29TF2YcYso_3syn10punctuatedINtB7_8PairsMutNtNtB9_4expr10FieldValueNtNtB9_5token5CommaENtNtNtNtCsaNl6UpbT7bw_4core4iter6traits8iterator8Iterator4nexts_0CsemR3zGJppC3_18tracing_attributes, symObjAddr: 0x1C44, symBinAddr: 0x36C28, symSize: 0x40 }
  - { offset: 0x6D2A4, size: 0x8, addend: 0x0, symName: __RNCNvXsg_NtCsc29TF2YcYso_3syn10punctuatedINtB7_8PairsMutNtNtB9_4expr4ExprNtNtB9_5token5CommaENtNtNtNtCsaNl6UpbT7bw_4core4iter6traits8iterator8Iterator4next0CsemR3zGJppC3_18tracing_attributes, symObjAddr: 0x1C84, symBinAddr: 0x36C68, symSize: 0x40 }
  - { offset: 0x6D319, size: 0x8, addend: 0x0, symName: __RNCNvXsg_NtCsc29TF2YcYso_3syn10punctuatedINtB7_8PairsMutNtNtB9_4expr4ExprNtNtB9_5token5CommaENtNtNtNtCsaNl6UpbT7bw_4core4iter6traits8iterator8Iterator4nexts_0CsemR3zGJppC3_18tracing_attributes, symObjAddr: 0x1CC4, symBinAddr: 0x36CA8, symSize: 0x40 }
  - { offset: 0x6D35B, size: 0x8, addend: 0x0, symName: __RNCNvXsg_NtCsc29TF2YcYso_3syn10punctuatedINtB7_8PairsMutNtNtB9_4item5FnArgNtNtB9_5token5CommaENtNtNtNtCsaNl6UpbT7bw_4core4iter6traits8iterator8Iterator4next0CsemR3zGJppC3_18tracing_attributes, symObjAddr: 0x1D04, symBinAddr: 0x36CE8, symSize: 0x40 }
  - { offset: 0x6D3D0, size: 0x8, addend: 0x0, symName: __RNCNvXsg_NtCsc29TF2YcYso_3syn10punctuatedINtB7_8PairsMutNtNtB9_4item5FnArgNtNtB9_5token5CommaENtNtNtNtCsaNl6UpbT7bw_4core4iter6traits8iterator8Iterator4nexts_0CsemR3zGJppC3_18tracing_attributes, symObjAddr: 0x1D44, symBinAddr: 0x36D28, symSize: 0x40 }
  - { offset: 0x6D412, size: 0x8, addend: 0x0, symName: __RNCNvXsg_NtCsc29TF2YcYso_3syn10punctuatedINtB7_8PairsMutNtNtB9_4item7UseTreeNtNtB9_5token5CommaENtNtNtNtCsaNl6UpbT7bw_4core4iter6traits8iterator8Iterator4next0CsemR3zGJppC3_18tracing_attributes, symObjAddr: 0x1D84, symBinAddr: 0x36D68, symSize: 0x40 }
  - { offset: 0x6D487, size: 0x8, addend: 0x0, symName: __RNCNvXsg_NtCsc29TF2YcYso_3syn10punctuatedINtB7_8PairsMutNtNtB9_4item7UseTreeNtNtB9_5token5CommaENtNtNtNtCsaNl6UpbT7bw_4core4iter6traits8iterator8Iterator4nexts_0CsemR3zGJppC3_18tracing_attributes, symObjAddr: 0x1DC4, symBinAddr: 0x36DA8, symSize: 0x40 }
  - { offset: 0x6D4C9, size: 0x8, addend: 0x0, symName: __RNCNvXsg_NtCsc29TF2YcYso_3syn10punctuatedINtB7_8PairsMutNtNtB9_4path11PathSegmentNtNtB9_5token7PathSepENtNtNtNtCsaNl6UpbT7bw_4core4iter6traits8iterator8Iterator4next0CsemR3zGJppC3_18tracing_attributes, symObjAddr: 0x1E04, symBinAddr: 0x36DE8, symSize: 0x40 }
  - { offset: 0x6D53E, size: 0x8, addend: 0x0, symName: __RNCNvXsg_NtCsc29TF2YcYso_3syn10punctuatedINtB7_8PairsMutNtNtB9_4path11PathSegmentNtNtB9_5token7PathSepENtNtNtNtCsaNl6UpbT7bw_4core4iter6traits8iterator8Iterator4nexts_0CsemR3zGJppC3_18tracing_attributes, symObjAddr: 0x1E44, symBinAddr: 0x36E28, symSize: 0x40 }
  - { offset: 0x6D580, size: 0x8, addend: 0x0, symName: __RNCNvXsg_NtCsc29TF2YcYso_3syn10punctuatedINtB7_8PairsMutNtNtB9_4path15GenericArgumentNtNtB9_5token5CommaENtNtNtNtCsaNl6UpbT7bw_4core4iter6traits8iterator8Iterator4next0CsemR3zGJppC3_18tracing_attributes, symObjAddr: 0x1E84, symBinAddr: 0x36E68, symSize: 0x40 }
  - { offset: 0x6D5F5, size: 0x8, addend: 0x0, symName: __RNCNvXsg_NtCsc29TF2YcYso_3syn10punctuatedINtB7_8PairsMutNtNtB9_4path15GenericArgumentNtNtB9_5token5CommaENtNtNtNtCsaNl6UpbT7bw_4core4iter6traits8iterator8Iterator4nexts_0CsemR3zGJppC3_18tracing_attributes, symObjAddr: 0x1EC4, symBinAddr: 0x36EA8, symSize: 0x40 }
  - { offset: 0x6D637, size: 0x8, addend: 0x0, symName: __RNCNvXsg_NtCsc29TF2YcYso_3syn10punctuatedINtB7_8PairsMutNtNtB9_8generics12GenericParamNtNtB9_5token5CommaENtNtNtNtCsaNl6UpbT7bw_4core4iter6traits8iterator8Iterator4next0CsemR3zGJppC3_18tracing_attributes, symObjAddr: 0x1F04, symBinAddr: 0x36EE8, symSize: 0x40 }
  - { offset: 0x6D6AC, size: 0x8, addend: 0x0, symName: __RNCNvXsg_NtCsc29TF2YcYso_3syn10punctuatedINtB7_8PairsMutNtNtB9_8generics12GenericParamNtNtB9_5token5CommaENtNtNtNtCsaNl6UpbT7bw_4core4iter6traits8iterator8Iterator4nexts_0CsemR3zGJppC3_18tracing_attributes, symObjAddr: 0x1F44, symBinAddr: 0x36F28, symSize: 0x40 }
  - { offset: 0x6D6EE, size: 0x8, addend: 0x0, symName: __RNCNvXsg_NtCsc29TF2YcYso_3syn10punctuatedINtB7_8PairsMutNtNtB9_8generics13CapturedParamNtNtB9_5token5CommaENtNtNtNtCsaNl6UpbT7bw_4core4iter6traits8iterator8Iterator4next0CsemR3zGJppC3_18tracing_attributes, symObjAddr: 0x1F84, symBinAddr: 0x36F68, symSize: 0x40 }
  - { offset: 0x6D763, size: 0x8, addend: 0x0, symName: __RNCNvXsg_NtCsc29TF2YcYso_3syn10punctuatedINtB7_8PairsMutNtNtB9_8generics13CapturedParamNtNtB9_5token5CommaENtNtNtNtCsaNl6UpbT7bw_4core4iter6traits8iterator8Iterator4nexts_0CsemR3zGJppC3_18tracing_attributes, symObjAddr: 0x1FC4, symBinAddr: 0x36FA8, symSize: 0x40 }
  - { offset: 0x6D7A5, size: 0x8, addend: 0x0, symName: __RNCNvXsg_NtCsc29TF2YcYso_3syn10punctuatedINtB7_8PairsMutNtNtB9_8generics14TypeParamBoundNtNtB9_5token4PlusENtNtNtNtCsaNl6UpbT7bw_4core4iter6traits8iterator8Iterator4next0CsemR3zGJppC3_18tracing_attributes, symObjAddr: 0x2004, symBinAddr: 0x36FE8, symSize: 0x40 }
  - { offset: 0x6D81A, size: 0x8, addend: 0x0, symName: __RNCNvXsg_NtCsc29TF2YcYso_3syn10punctuatedINtB7_8PairsMutNtNtB9_8generics14TypeParamBoundNtNtB9_5token4PlusENtNtNtNtCsaNl6UpbT7bw_4core4iter6traits8iterator8Iterator4nexts_0CsemR3zGJppC3_18tracing_attributes, symObjAddr: 0x2044, symBinAddr: 0x37028, symSize: 0x40 }
  - { offset: 0x6D85C, size: 0x8, addend: 0x0, symName: __RNCNvXsg_NtCsc29TF2YcYso_3syn10punctuatedINtB7_8PairsMutNtNtB9_8generics14WherePredicateNtNtB9_5token5CommaENtNtNtNtCsaNl6UpbT7bw_4core4iter6traits8iterator8Iterator4next0CsemR3zGJppC3_18tracing_attributes, symObjAddr: 0x2084, symBinAddr: 0x37068, symSize: 0x40 }
  - { offset: 0x6D8D1, size: 0x8, addend: 0x0, symName: __RNCNvXsg_NtCsc29TF2YcYso_3syn10punctuatedINtB7_8PairsMutNtNtB9_8generics14WherePredicateNtNtB9_5token5CommaENtNtNtNtCsaNl6UpbT7bw_4core4iter6traits8iterator8Iterator4nexts_0CsemR3zGJppC3_18tracing_attributes, symObjAddr: 0x20C4, symBinAddr: 0x370A8, symSize: 0x40 }
  - { offset: 0x6D913, size: 0x8, addend: 0x0, symName: __RNCNvXsg_NtCsc29TF2YcYso_3syn10punctuatedINtB7_8PairsMutNtNtB9_8lifetime8LifetimeNtNtB9_5token4PlusENtNtNtNtCsaNl6UpbT7bw_4core4iter6traits8iterator8Iterator4next0CsemR3zGJppC3_18tracing_attributes, symObjAddr: 0x2104, symBinAddr: 0x370E8, symSize: 0x40 }
  - { offset: 0x6D988, size: 0x8, addend: 0x0, symName: __RNCNvXsg_NtCsc29TF2YcYso_3syn10punctuatedINtB7_8PairsMutNtNtB9_8lifetime8LifetimeNtNtB9_5token4PlusENtNtNtNtCsaNl6UpbT7bw_4core4iter6traits8iterator8Iterator4nexts_0CsemR3zGJppC3_18tracing_attributes, symObjAddr: 0x2144, symBinAddr: 0x37128, symSize: 0x40 }
  - { offset: 0x6DA49, size: 0x8, addend: 0x0, symName: __RNvXsg_NtCsc29TF2YcYso_3syn10punctuatedINtB5_8PairsMutNtNtB7_2ty4TypeNtNtB7_5token5CommaENtNtNtNtCsaNl6UpbT7bw_4core4iter6traits8iterator8Iterator4nextCsemR3zGJppC3_18tracing_attributes, symObjAddr: 0x64C4, symBinAddr: 0x3B4A8, symSize: 0x58 }
  - { offset: 0x6DA89, size: 0x8, addend: 0x0, symName: __RNvXsg_NtCsc29TF2YcYso_3syn10punctuatedINtB5_8PairsMutNtNtB7_2ty9BareFnArgNtNtB7_5token5CommaENtNtNtNtCsaNl6UpbT7bw_4core4iter6traits8iterator8Iterator4nextCsemR3zGJppC3_18tracing_attributes, symObjAddr: 0x651C, symBinAddr: 0x3B500, symSize: 0x58 }
  - { offset: 0x6DAC9, size: 0x8, addend: 0x0, symName: __RNvXsg_NtCsc29TF2YcYso_3syn10punctuatedINtB5_8PairsMutNtNtB7_3pat3PatNtNtB7_5token2OrENtNtNtNtCsaNl6UpbT7bw_4core4iter6traits8iterator8Iterator4nextCsemR3zGJppC3_18tracing_attributes, symObjAddr: 0x6574, symBinAddr: 0x3B558, symSize: 0x58 }
  - { offset: 0x6DB09, size: 0x8, addend: 0x0, symName: __RNvXsg_NtCsc29TF2YcYso_3syn10punctuatedINtB5_8PairsMutNtNtB7_3pat3PatNtNtB7_5token5CommaENtNtNtNtCsaNl6UpbT7bw_4core4iter6traits8iterator8Iterator4nextCsemR3zGJppC3_18tracing_attributes, symObjAddr: 0x65CC, symBinAddr: 0x3B5B0, symSize: 0x58 }
  - { offset: 0x6DB49, size: 0x8, addend: 0x0, symName: __RNvXsg_NtCsc29TF2YcYso_3syn10punctuatedINtB5_8PairsMutNtNtB7_3pat8FieldPatNtNtB7_5token5CommaENtNtNtNtCsaNl6UpbT7bw_4core4iter6traits8iterator8Iterator4nextCsemR3zGJppC3_18tracing_attributes, symObjAddr: 0x6624, symBinAddr: 0x3B608, symSize: 0x58 }
  - { offset: 0x6DB89, size: 0x8, addend: 0x0, symName: __RNvXsg_NtCsc29TF2YcYso_3syn10punctuatedINtB5_8PairsMutNtNtB7_4data5FieldNtNtB7_5token5CommaENtNtNtNtCsaNl6UpbT7bw_4core4iter6traits8iterator8Iterator4nextCsemR3zGJppC3_18tracing_attributes, symObjAddr: 0x667C, symBinAddr: 0x3B660, symSize: 0x58 }
  - { offset: 0x6DBC9, size: 0x8, addend: 0x0, symName: __RNvXsg_NtCsc29TF2YcYso_3syn10punctuatedINtB5_8PairsMutNtNtB7_4data7VariantNtNtB7_5token5CommaENtNtNtNtCsaNl6UpbT7bw_4core4iter6traits8iterator8Iterator4nextCsemR3zGJppC3_18tracing_attributes, symObjAddr: 0x66D4, symBinAddr: 0x3B6B8, symSize: 0x58 }
  - { offset: 0x6DC09, size: 0x8, addend: 0x0, symName: __RNvXsg_NtCsc29TF2YcYso_3syn10punctuatedINtB5_8PairsMutNtNtB7_4expr10FieldValueNtNtB7_5token5CommaENtNtNtNtCsaNl6UpbT7bw_4core4iter6traits8iterator8Iterator4nextCsemR3zGJppC3_18tracing_attributes, symObjAddr: 0x672C, symBinAddr: 0x3B710, symSize: 0x58 }
  - { offset: 0x6DC49, size: 0x8, addend: 0x0, symName: __RNvXsg_NtCsc29TF2YcYso_3syn10punctuatedINtB5_8PairsMutNtNtB7_4expr4ExprNtNtB7_5token5CommaENtNtNtNtCsaNl6UpbT7bw_4core4iter6traits8iterator8Iterator4nextCsemR3zGJppC3_18tracing_attributes, symObjAddr: 0x6784, symBinAddr: 0x3B768, symSize: 0x58 }
  - { offset: 0x6DC89, size: 0x8, addend: 0x0, symName: __RNvXsg_NtCsc29TF2YcYso_3syn10punctuatedINtB5_8PairsMutNtNtB7_4item5FnArgNtNtB7_5token5CommaENtNtNtNtCsaNl6UpbT7bw_4core4iter6traits8iterator8Iterator4nextCsemR3zGJppC3_18tracing_attributes, symObjAddr: 0x67DC, symBinAddr: 0x3B7C0, symSize: 0x58 }
  - { offset: 0x6DCC9, size: 0x8, addend: 0x0, symName: __RNvXsg_NtCsc29TF2YcYso_3syn10punctuatedINtB5_8PairsMutNtNtB7_4item7UseTreeNtNtB7_5token5CommaENtNtNtNtCsaNl6UpbT7bw_4core4iter6traits8iterator8Iterator4nextCsemR3zGJppC3_18tracing_attributes, symObjAddr: 0x6834, symBinAddr: 0x3B818, symSize: 0x58 }
  - { offset: 0x6DD09, size: 0x8, addend: 0x0, symName: __RNvXsg_NtCsc29TF2YcYso_3syn10punctuatedINtB5_8PairsMutNtNtB7_4path11PathSegmentNtNtB7_5token7PathSepENtNtNtNtCsaNl6UpbT7bw_4core4iter6traits8iterator8Iterator4nextCsemR3zGJppC3_18tracing_attributes, symObjAddr: 0x688C, symBinAddr: 0x3B870, symSize: 0x58 }
  - { offset: 0x6DD49, size: 0x8, addend: 0x0, symName: __RNvXsg_NtCsc29TF2YcYso_3syn10punctuatedINtB5_8PairsMutNtNtB7_4path15GenericArgumentNtNtB7_5token5CommaENtNtNtNtCsaNl6UpbT7bw_4core4iter6traits8iterator8Iterator4nextCsemR3zGJppC3_18tracing_attributes, symObjAddr: 0x68E4, symBinAddr: 0x3B8C8, symSize: 0x58 }
  - { offset: 0x6DD89, size: 0x8, addend: 0x0, symName: __RNvXsg_NtCsc29TF2YcYso_3syn10punctuatedINtB5_8PairsMutNtNtB7_8generics12GenericParamNtNtB7_5token5CommaENtNtNtNtCsaNl6UpbT7bw_4core4iter6traits8iterator8Iterator4nextCsemR3zGJppC3_18tracing_attributes, symObjAddr: 0x693C, symBinAddr: 0x3B920, symSize: 0x58 }
  - { offset: 0x6DDC9, size: 0x8, addend: 0x0, symName: __RNvXsg_NtCsc29TF2YcYso_3syn10punctuatedINtB5_8PairsMutNtNtB7_8generics13CapturedParamNtNtB7_5token5CommaENtNtNtNtCsaNl6UpbT7bw_4core4iter6traits8iterator8Iterator4nextCsemR3zGJppC3_18tracing_attributes, symObjAddr: 0x6994, symBinAddr: 0x3B978, symSize: 0x58 }
  - { offset: 0x6DE09, size: 0x8, addend: 0x0, symName: __RNvXsg_NtCsc29TF2YcYso_3syn10punctuatedINtB5_8PairsMutNtNtB7_8generics14TypeParamBoundNtNtB7_5token4PlusENtNtNtNtCsaNl6UpbT7bw_4core4iter6traits8iterator8Iterator4nextCsemR3zGJppC3_18tracing_attributes, symObjAddr: 0x69EC, symBinAddr: 0x3B9D0, symSize: 0x58 }
  - { offset: 0x6DE49, size: 0x8, addend: 0x0, symName: __RNvXsg_NtCsc29TF2YcYso_3syn10punctuatedINtB5_8PairsMutNtNtB7_8generics14WherePredicateNtNtB7_5token5CommaENtNtNtNtCsaNl6UpbT7bw_4core4iter6traits8iterator8Iterator4nextCsemR3zGJppC3_18tracing_attributes, symObjAddr: 0x6A44, symBinAddr: 0x3BA28, symSize: 0x58 }
  - { offset: 0x6DE89, size: 0x8, addend: 0x0, symName: __RNvXsg_NtCsc29TF2YcYso_3syn10punctuatedINtB5_8PairsMutNtNtB7_8lifetime8LifetimeNtNtB7_5token4PlusENtNtNtNtCsaNl6UpbT7bw_4core4iter6traits8iterator8Iterator4nextCsemR3zGJppC3_18tracing_attributes, symObjAddr: 0x6A9C, symBinAddr: 0x3BA80, symSize: 0x58 }
  - { offset: 0x6DED4, size: 0x8, addend: 0x0, symName: __RNCNvXsw_NtCsc29TF2YcYso_3syn10punctuatedINtB7_11PrivateIterNtCshnvkK9b4wzu_11proc_macro25IdentNtNtB9_5token3DotENtNtNtNtCsaNl6UpbT7bw_4core4iter6traits8iterator8Iterator4next0CsemR3zGJppC3_18tracing_attributes, symObjAddr: 0x2184, symBinAddr: 0x37168, symSize: 0x24 }
  - { offset: 0x6DF1F, size: 0x8, addend: 0x0, symName: __RNCNvXsw_NtCsc29TF2YcYso_3syn10punctuatedINtB7_11PrivateIterNtCshnvkK9b4wzu_11proc_macro25IdentNtNtB9_5token3DotENtNtNtNtCsaNl6UpbT7bw_4core4iter6traits8iterator8Iterator4nexts_0CsemR3zGJppC3_18tracing_attributes, symObjAddr: 0x21A8, symBinAddr: 0x3718C, symSize: 0x34 }
  - { offset: 0x6DF61, size: 0x8, addend: 0x0, symName: __RNCNvXsw_NtCsc29TF2YcYso_3syn10punctuatedINtB7_11PrivateIterNtNtCsemR3zGJppC3_18tracing_attributes4attr5FieldNtNtB9_5token5CommaENtNtNtNtCsaNl6UpbT7bw_4core4iter6traits8iterator8Iterator4next0B10_, symObjAddr: 0x21DC, symBinAddr: 0x371C0, symSize: 0x24 }
  - { offset: 0x6DFAC, size: 0x8, addend: 0x0, symName: __RNCNvXsw_NtCsc29TF2YcYso_3syn10punctuatedINtB7_11PrivateIterNtNtCsemR3zGJppC3_18tracing_attributes4attr5FieldNtNtB9_5token5CommaENtNtNtNtCsaNl6UpbT7bw_4core4iter6traits8iterator8Iterator4nexts_0B10_, symObjAddr: 0x2200, symBinAddr: 0x371E4, symSize: 0x34 }
  - { offset: 0x6DFFD, size: 0x8, addend: 0x0, symName: __RNvXsw_NtCsc29TF2YcYso_3syn10punctuatedINtB5_11PrivateIterNtCshnvkK9b4wzu_11proc_macro25IdentNtNtB7_5token3DotENtNtNtNtCsaNl6UpbT7bw_4core4iter6traits8iterator8Iterator4nextCsemR3zGJppC3_18tracing_attributes, symObjAddr: 0x6EAC, symBinAddr: 0x3BE90, symSize: 0x44 }
  - { offset: 0x6E03D, size: 0x8, addend: 0x0, symName: __RNvXsw_NtCsc29TF2YcYso_3syn10punctuatedINtB5_11PrivateIterNtNtCsemR3zGJppC3_18tracing_attributes4attr5FieldNtNtB7_5token5CommaENtNtNtNtCsaNl6UpbT7bw_4core4iter6traits8iterator8Iterator4nextBY_, symObjAddr: 0x6EF0, symBinAddr: 0x3BED4, symSize: 0x44 }
  - { offset: 0x6E088, size: 0x8, addend: 0x0, symName: __RNcNtINtNtCsc29TF2YcYso_3syn10punctuated4PairQNtNtB8_2ty4TypeQNtNtB8_5token5CommaE3End0CsemR3zGJppC3_18tracing_attributes, symObjAddr: 0x22A4, symBinAddr: 0x37288, symSize: 0x1C }
  - { offset: 0x6E0C4, size: 0x8, addend: 0x0, symName: __RNcNtINtNtCsc29TF2YcYso_3syn10punctuated4PairQNtNtB8_2ty9BareFnArgQNtNtB8_5token5CommaE3End0CsemR3zGJppC3_18tracing_attributes, symObjAddr: 0x22C0, symBinAddr: 0x372A4, symSize: 0x1C }
  - { offset: 0x6E100, size: 0x8, addend: 0x0, symName: __RNcNtINtNtCsc29TF2YcYso_3syn10punctuated4PairQNtNtB8_3pat3PatQNtNtB8_5token2OrE3End0CsemR3zGJppC3_18tracing_attributes, symObjAddr: 0x22DC, symBinAddr: 0x372C0, symSize: 0x1C }
  - { offset: 0x6E13C, size: 0x8, addend: 0x0, symName: __RNcNtINtNtCsc29TF2YcYso_3syn10punctuated4PairQNtNtB8_3pat3PatQNtNtB8_5token5CommaE3End0CsemR3zGJppC3_18tracing_attributes, symObjAddr: 0x22F8, symBinAddr: 0x372DC, symSize: 0x1C }
  - { offset: 0x6E178, size: 0x8, addend: 0x0, symName: __RNcNtINtNtCsc29TF2YcYso_3syn10punctuated4PairQNtNtB8_3pat8FieldPatQNtNtB8_5token5CommaE3End0CsemR3zGJppC3_18tracing_attributes, symObjAddr: 0x2314, symBinAddr: 0x372F8, symSize: 0x1C }
  - { offset: 0x6E1B4, size: 0x8, addend: 0x0, symName: __RNcNtINtNtCsc29TF2YcYso_3syn10punctuated4PairQNtNtB8_4data5FieldQNtNtB8_5token5CommaE3End0CsemR3zGJppC3_18tracing_attributes, symObjAddr: 0x2330, symBinAddr: 0x37314, symSize: 0x1C }
  - { offset: 0x6E1F0, size: 0x8, addend: 0x0, symName: __RNcNtINtNtCsc29TF2YcYso_3syn10punctuated4PairQNtNtB8_4data7VariantQNtNtB8_5token5CommaE3End0CsemR3zGJppC3_18tracing_attributes, symObjAddr: 0x234C, symBinAddr: 0x37330, symSize: 0x1C }
  - { offset: 0x6E22C, size: 0x8, addend: 0x0, symName: __RNcNtINtNtCsc29TF2YcYso_3syn10punctuated4PairQNtNtB8_4expr10FieldValueQNtNtB8_5token5CommaE3End0CsemR3zGJppC3_18tracing_attributes, symObjAddr: 0x2368, symBinAddr: 0x3734C, symSize: 0x1C }
  - { offset: 0x6E268, size: 0x8, addend: 0x0, symName: __RNcNtINtNtCsc29TF2YcYso_3syn10punctuated4PairQNtNtB8_4expr4ExprQNtNtB8_5token5CommaE3End0CsemR3zGJppC3_18tracing_attributes, symObjAddr: 0x2384, symBinAddr: 0x37368, symSize: 0x1C }
  - { offset: 0x6E2A4, size: 0x8, addend: 0x0, symName: __RNcNtINtNtCsc29TF2YcYso_3syn10punctuated4PairQNtNtB8_4item5FnArgQNtNtB8_5token5CommaE3End0CsemR3zGJppC3_18tracing_attributes, symObjAddr: 0x23A0, symBinAddr: 0x37384, symSize: 0x1C }
  - { offset: 0x6E2E0, size: 0x8, addend: 0x0, symName: __RNcNtINtNtCsc29TF2YcYso_3syn10punctuated4PairQNtNtB8_4item7UseTreeQNtNtB8_5token5CommaE3End0CsemR3zGJppC3_18tracing_attributes, symObjAddr: 0x23BC, symBinAddr: 0x373A0, symSize: 0x1C }
  - { offset: 0x6E31C, size: 0x8, addend: 0x0, symName: __RNcNtINtNtCsc29TF2YcYso_3syn10punctuated4PairQNtNtB8_4path11PathSegmentQNtNtB8_5token7PathSepE3End0CsemR3zGJppC3_18tracing_attributes, symObjAddr: 0x23D8, symBinAddr: 0x373BC, symSize: 0x1C }
  - { offset: 0x6E358, size: 0x8, addend: 0x0, symName: __RNcNtINtNtCsc29TF2YcYso_3syn10punctuated4PairQNtNtB8_4path15GenericArgumentQNtNtB8_5token5CommaE3End0CsemR3zGJppC3_18tracing_attributes, symObjAddr: 0x23F4, symBinAddr: 0x373D8, symSize: 0x1C }
  - { offset: 0x6E394, size: 0x8, addend: 0x0, symName: __RNcNtINtNtCsc29TF2YcYso_3syn10punctuated4PairQNtNtB8_8generics12GenericParamQNtNtB8_5token5CommaE3End0CsemR3zGJppC3_18tracing_attributes, symObjAddr: 0x2410, symBinAddr: 0x373F4, symSize: 0x1C }
  - { offset: 0x6E3D0, size: 0x8, addend: 0x0, symName: __RNcNtINtNtCsc29TF2YcYso_3syn10punctuated4PairQNtNtB8_8generics13CapturedParamQNtNtB8_5token5CommaE3End0CsemR3zGJppC3_18tracing_attributes, symObjAddr: 0x242C, symBinAddr: 0x37410, symSize: 0x1C }
  - { offset: 0x6E40C, size: 0x8, addend: 0x0, symName: __RNcNtINtNtCsc29TF2YcYso_3syn10punctuated4PairQNtNtB8_8generics14TypeParamBoundQNtNtB8_5token4PlusE3End0CsemR3zGJppC3_18tracing_attributes, symObjAddr: 0x2448, symBinAddr: 0x3742C, symSize: 0x1C }
  - { offset: 0x6E448, size: 0x8, addend: 0x0, symName: __RNcNtINtNtCsc29TF2YcYso_3syn10punctuated4PairQNtNtB8_8generics14WherePredicateQNtNtB8_5token5CommaE3End0CsemR3zGJppC3_18tracing_attributes, symObjAddr: 0x2464, symBinAddr: 0x37448, symSize: 0x1C }
  - { offset: 0x6E484, size: 0x8, addend: 0x0, symName: __RNcNtINtNtCsc29TF2YcYso_3syn10punctuated4PairQNtNtB8_8lifetime8LifetimeQNtNtB8_5token4PlusE3End0CsemR3zGJppC3_18tracing_attributes, symObjAddr: 0x2480, symBinAddr: 0x37464, symSize: 0x1C }
  - { offset: 0x6E4C0, size: 0x8, addend: 0x0, symName: __RNcNtINtNtCsc29TF2YcYso_3syn10punctuated4PairRNtCshnvkK9b4wzu_11proc_macro25IdentRNtNtB8_5token3DotE3End0CsemR3zGJppC3_18tracing_attributes, symObjAddr: 0x249C, symBinAddr: 0x37480, symSize: 0x1C }
  - { offset: 0x6E4FC, size: 0x8, addend: 0x0, symName: __RNcNtINtNtCsc29TF2YcYso_3syn10punctuated4PairRNtNtCsemR3zGJppC3_18tracing_attributes4attr5FieldRNtNtB8_5token5CommaE3End0BM_, symObjAddr: 0x24B8, symBinAddr: 0x3749C, symSize: 0x1C }
  - { offset: 0x6F8BE, size: 0x8, addend: 0x0, symName: __RNvXNtNtCsc29TF2YcYso_3syn10punctuated8printingINtB4_10PunctuatedNtCshnvkK9b4wzu_11proc_macro25IdentNtNtB6_5token3DotENtNtCs4EAaWzSXu1l_5quote9to_tokens8ToTokens9to_tokensCsemR3zGJppC3_18tracing_attributes, symObjAddr: 0x5220, symBinAddr: 0x3A204, symSize: 0x50 }
  - { offset: 0x6F909, size: 0x8, addend: 0x0, symName: __RNvXNtNtCsc29TF2YcYso_3syn10punctuated8printingINtB4_10PunctuatedNtNtCsemR3zGJppC3_18tracing_attributes4attr5FieldNtNtB6_5token5CommaENtNtCs4EAaWzSXu1l_5quote9to_tokens8ToTokens9to_tokensB15_, symObjAddr: 0x5270, symBinAddr: 0x3A254, symSize: 0x50 }
  - { offset: 0x6F95A, size: 0x8, addend: 0x0, symName: __RNvXs_NtNtCsc29TF2YcYso_3syn10punctuated8printingINtB6_4PairRNtCshnvkK9b4wzu_11proc_macro25IdentRNtNtB8_5token3DotENtNtCs4EAaWzSXu1l_5quote9to_tokens8ToTokens9to_tokensCsemR3zGJppC3_18tracing_attributes, symObjAddr: 0x6108, symBinAddr: 0x3B0EC, symSize: 0xB4 }
  - { offset: 0x6F9E9, size: 0x8, addend: 0x0, symName: __RNvXs_NtNtCsc29TF2YcYso_3syn10punctuated8printingINtB6_4PairRNtNtCsemR3zGJppC3_18tracing_attributes4attr5FieldRNtNtB8_5token5CommaENtNtCs4EAaWzSXu1l_5quote9to_tokens8ToTokens9to_tokensB11_, symObjAddr: 0x61BC, symBinAddr: 0x3B1A0, symSize: 0xB4 }
  - { offset: 0x6FA7F, size: 0x8, addend: 0x0, symName: __RNvXs9_NtCsc29TF2YcYso_3syn10punctuatedRINtB5_10PunctuatedNtNtB7_4item5FnArgNtNtB7_5token5CommaENtNtNtNtCsaNl6UpbT7bw_4core4iter6traits7collect12IntoIterator9into_iterCsemR3zGJppC3_18tracing_attributes, symObjAddr: 0x5BA0, symBinAddr: 0x3AB84, symSize: 0x34 }
  - { offset: 0x6FAC5, size: 0x8, addend: 0x0, symName: __RNvXsA_NtCsc29TF2YcYso_3syn10punctuatedINtB5_11PrivateIterNtCshnvkK9b4wzu_11proc_macro25IdentNtNtB7_5token3DotEINtB5_9IterTraitBU_E9clone_boxCsemR3zGJppC3_18tracing_attributes, symObjAddr: 0x5BD4, symBinAddr: 0x3ABB8, symSize: 0x94 }
  - { offset: 0x6FB23, size: 0x8, addend: 0x0, symName: __RNvXsA_NtCsc29TF2YcYso_3syn10punctuatedINtB5_11PrivateIterNtNtCsemR3zGJppC3_18tracing_attributes4attr5FieldNtNtB7_5token5CommaEINtB5_9IterTraitBU_E9clone_boxBY_, symObjAddr: 0x5C68, symBinAddr: 0x3AC4C, symSize: 0x94 }
  - { offset: 0x6FB87, size: 0x8, addend: 0x0, symName: __RNvXsC_NtCsc29TF2YcYso_3syn10punctuatedINtB5_7IterMutNtNtCsemR3zGJppC3_18tracing_attributes4attr5FieldENtNtNtNtCsaNl6UpbT7bw_4core4iter6traits8iterator8Iterator4nextBT_, symObjAddr: 0x5CFC, symBinAddr: 0x3ACE0, symSize: 0x48 }
  - { offset: 0x6FBC4, size: 0x8, addend: 0x0, symName: __RNvXsH_NtCsc29TF2YcYso_3syn10punctuatedINtB5_14PrivateIterMutNtNtCsemR3zGJppC3_18tracing_attributes4attr5FieldNtNtB7_5token5CommaENtNtNtNtCsaNl6UpbT7bw_4core4iter6traits10exact_size17ExactSizeIterator3lenB11_, symObjAddr: 0x5DC8, symBinAddr: 0x3ADAC, symSize: 0x94 }
  - { offset: 0x6FC3E, size: 0x8, addend: 0x0, symName: __RNvXsN_NtCsc29TF2YcYso_3syn10punctuatedINtB5_10PunctuatedNtNtB7_4expr4ExprNtNtB7_5token5CommaEINtNtNtCsaNl6UpbT7bw_4core3ops5index5IndexjE5indexCsemR3zGJppC3_18tracing_attributes, symObjAddr: 0x5E5C, symBinAddr: 0x3AE40, symSize: 0x174 }
  - { offset: 0x6FCA9, size: 0x8, addend: 0x0, symName: __RNvXs_NtCsc29TF2YcYso_3syn10punctuatedINtB4_10PunctuatedNtCshnvkK9b4wzu_11proc_macro25IdentNtNtB6_5token3DotENtNtCsaNl6UpbT7bw_4core5clone5Clone5cloneCsemR3zGJppC3_18tracing_attributes, symObjAddr: 0x5FD0, symBinAddr: 0x3AFB4, symSize: 0x9C }
  - { offset: 0x6FCE9, size: 0x8, addend: 0x0, symName: __RNvXs_NtCsc29TF2YcYso_3syn10punctuatedINtB4_10PunctuatedNtNtCsemR3zGJppC3_18tracing_attributes4attr5FieldNtNtB6_5token5CommaENtNtCsaNl6UpbT7bw_4core5clone5Clone5cloneBW_, symObjAddr: 0x606C, symBinAddr: 0x3B050, symSize: 0x9C }
  - { offset: 0x6FD2F, size: 0x8, addend: 0x0, symName: __RNvXsn_NtCsc29TF2YcYso_3syn10punctuatedINtB5_8IntoIterNtCshnvkK9b4wzu_11proc_macro25IdentENtNtNtNtCsaNl6UpbT7bw_4core4iter6traits8iterator8Iterator4nextCsemR3zGJppC3_18tracing_attributes, symObjAddr: 0x6AF4, symBinAddr: 0x3BAD8, symSize: 0x34 }
  - { offset: 0x6FD66, size: 0x8, addend: 0x0, symName: __RNvXsn_NtCsc29TF2YcYso_3syn10punctuatedINtB5_8IntoIterNtNtB7_3pat3PatENtNtNtNtCsaNl6UpbT7bw_4core4iter6traits8iterator8Iterator4nextCsemR3zGJppC3_18tracing_attributes, symObjAddr: 0x6B28, symBinAddr: 0x3BB0C, symSize: 0x34 }
  - { offset: 0x6FD9D, size: 0x8, addend: 0x0, symName: __RNvXsn_NtCsc29TF2YcYso_3syn10punctuatedINtB5_8IntoIterNtNtB7_3pat3PatENtNtNtNtCsaNl6UpbT7bw_4core4iter6traits8iterator8Iterator9size_hintCsemR3zGJppC3_18tracing_attributes, symObjAddr: 0x6B5C, symBinAddr: 0x3BB40, symSize: 0x7C }
  - { offset: 0x6FDD4, size: 0x8, addend: 0x0, symName: __RNvXsn_NtCsc29TF2YcYso_3syn10punctuatedINtB5_8IntoIterNtNtB7_3pat8FieldPatENtNtNtNtCsaNl6UpbT7bw_4core4iter6traits8iterator8Iterator4nextCsemR3zGJppC3_18tracing_attributes, symObjAddr: 0x6BD8, symBinAddr: 0x3BBBC, symSize: 0x34 }
  - { offset: 0x6FE0B, size: 0x8, addend: 0x0, symName: __RNvXsn_NtCsc29TF2YcYso_3syn10punctuatedINtB5_8IntoIterNtNtB7_3pat8FieldPatENtNtNtNtCsaNl6UpbT7bw_4core4iter6traits8iterator8Iterator9size_hintCsemR3zGJppC3_18tracing_attributes, symObjAddr: 0x6C0C, symBinAddr: 0x3BBF0, symSize: 0x7C }
  - { offset: 0x6FE42, size: 0x8, addend: 0x0, symName: __RNvXsn_NtCsc29TF2YcYso_3syn10punctuatedINtB5_8IntoIterNtNtB7_4item5FnArgENtNtNtNtCsaNl6UpbT7bw_4core4iter6traits8iterator8Iterator4nextCsemR3zGJppC3_18tracing_attributes, symObjAddr: 0x6C88, symBinAddr: 0x3BC6C, symSize: 0x34 }
  - { offset: 0x6FE79, size: 0x8, addend: 0x0, symName: __RNvXsn_NtCsc29TF2YcYso_3syn10punctuatedINtB5_8IntoIterNtNtB7_4item5FnArgENtNtNtNtCsaNl6UpbT7bw_4core4iter6traits8iterator8Iterator9size_hintCsemR3zGJppC3_18tracing_attributes, symObjAddr: 0x6CBC, symBinAddr: 0x3BCA0, symSize: 0x7C }
  - { offset: 0x6FEB6, size: 0x8, addend: 0x0, symName: __RNvXsp_NtCsc29TF2YcYso_3syn10punctuatedINtB5_8IntoIterNtNtB7_3pat3PatENtNtNtNtCsaNl6UpbT7bw_4core4iter6traits10exact_size17ExactSizeIterator3lenCsemR3zGJppC3_18tracing_attributes, symObjAddr: 0x6D38, symBinAddr: 0x3BD1C, symSize: 0x34 }
  - { offset: 0x6FEED, size: 0x8, addend: 0x0, symName: __RNvXsp_NtCsc29TF2YcYso_3syn10punctuatedINtB5_8IntoIterNtNtB7_3pat8FieldPatENtNtNtNtCsaNl6UpbT7bw_4core4iter6traits10exact_size17ExactSizeIterator3lenCsemR3zGJppC3_18tracing_attributes, symObjAddr: 0x6D6C, symBinAddr: 0x3BD50, symSize: 0x34 }
  - { offset: 0x6FF24, size: 0x8, addend: 0x0, symName: __RNvXsp_NtCsc29TF2YcYso_3syn10punctuatedINtB5_8IntoIterNtNtB7_4item5FnArgENtNtNtNtCsaNl6UpbT7bw_4core4iter6traits10exact_size17ExactSizeIterator3lenCsemR3zGJppC3_18tracing_attributes, symObjAddr: 0x6DA0, symBinAddr: 0x3BD84, symSize: 0x34 }
  - { offset: 0x6FF61, size: 0x8, addend: 0x0, symName: __RNvXst_NtCsc29TF2YcYso_3syn10punctuatedINtB5_4IterNtCshnvkK9b4wzu_11proc_macro25IdentENtNtNtNtCsaNl6UpbT7bw_4core4iter6traits8iterator8Iterator4nextCsemR3zGJppC3_18tracing_attributes, symObjAddr: 0x6DD4, symBinAddr: 0x3BDB8, symSize: 0x48 }
  - { offset: 0x6FF98, size: 0x8, addend: 0x0, symName: __RNvXst_NtCsc29TF2YcYso_3syn10punctuatedINtB5_4IterNtNtCsemR3zGJppC3_18tracing_attributes4attr5FieldENtNtNtNtCsaNl6UpbT7bw_4core4iter6traits8iterator8Iterator4nextBQ_, symObjAddr: 0x6E1C, symBinAddr: 0x3BE00, symSize: 0x48 }
  - { offset: 0x6FFD5, size: 0x8, addend: 0x0, symName: __RNvXsu_NtCsc29TF2YcYso_3syn10punctuatedINtB5_4IterNtCshnvkK9b4wzu_11proc_macro25IdentENtNtNtNtCsaNl6UpbT7bw_4core4iter6traits12double_ended19DoubleEndedIterator9next_backCsemR3zGJppC3_18tracing_attributes, symObjAddr: 0x6E64, symBinAddr: 0x3BE48, symSize: 0x48 }
  - { offset: 0x70012, size: 0x8, addend: 0x0, symName: __RNvXsy_NtCsc29TF2YcYso_3syn10punctuatedINtB5_11PrivateIterNtCshnvkK9b4wzu_11proc_macro25IdentNtNtB7_5token3DotENtNtNtNtCsaNl6UpbT7bw_4core4iter6traits10exact_size17ExactSizeIterator3lenCsemR3zGJppC3_18tracing_attributes, symObjAddr: 0x6FB4, symBinAddr: 0x3BF98, symSize: 0x94 }
  - { offset: 0x70086, size: 0x8, addend: 0x0, symName: __RNvXsy_NtCsc29TF2YcYso_3syn10punctuatedINtB5_11PrivateIterNtNtCsemR3zGJppC3_18tracing_attributes4attr5FieldNtNtB7_5token5CommaENtNtNtNtCsaNl6UpbT7bw_4core4iter6traits10exact_size17ExactSizeIterator3lenBY_, symObjAddr: 0x7048, symBinAddr: 0x3C02C, symSize: 0x94 }
  - { offset: 0x70100, size: 0x8, addend: 0x0, symName: __RNvXsz_NtCsc29TF2YcYso_3syn10punctuatedINtB5_11PrivateIterNtCshnvkK9b4wzu_11proc_macro25IdentNtNtB7_5token3DotENtNtCsaNl6UpbT7bw_4core5clone5Clone5cloneCsemR3zGJppC3_18tracing_attributes, symObjAddr: 0x70DC, symBinAddr: 0x3C0C0, symSize: 0x68 }
  - { offset: 0x70140, size: 0x8, addend: 0x0, symName: __RNvXsz_NtCsc29TF2YcYso_3syn10punctuatedINtB5_11PrivateIterNtNtCsemR3zGJppC3_18tracing_attributes4attr5FieldNtNtB7_5token5CommaENtNtCsaNl6UpbT7bw_4core5clone5Clone5cloneBY_, symObjAddr: 0x7144, symBinAddr: 0x3C128, symSize: 0x68 }
  - { offset: 0x79D10, size: 0x8, addend: 0x0, symName: __RINvYINtNtCsc29TF2YcYso_3syn10punctuated11PrivateIterNtCshnvkK9b4wzu_11proc_macro25IdentNtNtB8_5token3DotENtNtNtNtCsaNl6UpbT7bw_4core4iter6traits8iterator8Iterator8try_foldINtNtNtB1O_3num7nonzero7NonZerojENCNvXs_NvB1G_10advance_byB3_NtB3o_13SpecAdvanceBy15spec_advance_by0INtNtB1O_6option6OptionB2K_EECsemR3zGJppC3_18tracing_attributes, symObjAddr: 0x0, symBinAddr: 0x34FE4, symSize: 0x154 }
  - { offset: 0x79DC4, size: 0x8, addend: 0x0, symName: __RINvYINtNtCsc29TF2YcYso_3syn10punctuated11PrivateIterNtNtCsemR3zGJppC3_18tracing_attributes4attr5FieldNtNtB8_5token5CommaENtNtNtNtCsaNl6UpbT7bw_4core4iter6traits8iterator8Iterator8try_foldINtNtNtB24_3num7nonzero7NonZerojENCNvXs_NvB1W_10advance_byB3_NtB3E_13SpecAdvanceBy15spec_advance_by0INtNtB24_6option6OptionB30_EEBT_, symObjAddr: 0x154, symBinAddr: 0x35138, symSize: 0x154 }
  - { offset: 0x79E78, size: 0x8, addend: 0x0, symName: __RINvYINtNtCsc29TF2YcYso_3syn10punctuated14PrivateIterMutNtNtCsemR3zGJppC3_18tracing_attributes4attr5FieldNtNtB8_5token5CommaENtNtNtNtCsaNl6UpbT7bw_4core4iter6traits8iterator8Iterator8try_foldINtNtNtB27_3num7nonzero7NonZerojENCNvXs_NvB1Z_10advance_byB3_NtB3H_13SpecAdvanceBy15spec_advance_by0INtNtB27_6option6OptionB33_EEBW_, symObjAddr: 0x2A8, symBinAddr: 0x3528C, symSize: 0x154 }
  - { offset: 0x79F2C, size: 0x8, addend: 0x0, symName: __RINvYINtNtCsc29TF2YcYso_3syn10punctuated4IterNtNtCsemR3zGJppC3_18tracing_attributes4attr5FieldENtNtNtNtCsaNl6UpbT7bw_4core4iter6traits8iterator8Iterator3allNCNCNCINvNtBL_6expand9gen_blockNtCshnvkK9b4wzu_11proc_macro211TokenStreamEs0_0s2_00EBL_, symObjAddr: 0x3FC, symBinAddr: 0x353E0, symSize: 0x44 }
  - { offset: 0x79F7B, size: 0x8, addend: 0x0, symName: __RINvYINtNtCsc29TF2YcYso_3syn10punctuated4IterNtNtCsemR3zGJppC3_18tracing_attributes4attr5FieldENtNtNtNtCsaNl6UpbT7bw_4core4iter6traits8iterator8Iterator3allNCNCNCINvNtBL_6expand9gen_blockNtNtB8_4stmt5BlockEs0_0s2_00EBL_, symObjAddr: 0x440, symBinAddr: 0x35424, symSize: 0x44 }
  - { offset: 0x79FCA, size: 0x8, addend: 0x0, symName: __RINvYINtNtCsc29TF2YcYso_3syn10punctuated4IterNtNtCsemR3zGJppC3_18tracing_attributes4attr5FieldENtNtNtNtCsaNl6UpbT7bw_4core4iter6traits8iterator8Iterator8try_folduNCINvNvB1v_3all5checkRBH_NCNCNCINvNtBL_6expand9gen_blockNtCshnvkK9b4wzu_11proc_macro211TokenStreamEs0_0s2_00E0INtNtNtB1D_3ops12control_flow11ControlFlowuEEBL_, symObjAddr: 0x484, symBinAddr: 0x35468, symSize: 0x12C }
  - { offset: 0x7A07C, size: 0x8, addend: 0x0, symName: __RINvYINtNtCsc29TF2YcYso_3syn10punctuated4IterNtNtCsemR3zGJppC3_18tracing_attributes4attr5FieldENtNtNtNtCsaNl6UpbT7bw_4core4iter6traits8iterator8Iterator8try_folduNCINvNvB1v_3all5checkRBH_NCNCNCINvNtBL_6expand9gen_blockNtNtB8_4stmt5BlockEs0_0s2_00E0INtNtNtB1D_3ops12control_flow11ControlFlowuEEBL_, symObjAddr: 0x5B0, symBinAddr: 0x35594, symSize: 0x12C }
  - { offset: 0x7A12E, size: 0x8, addend: 0x0, symName: __RINvYINtNtCsc29TF2YcYso_3syn10punctuated7IterMutNtNtCsemR3zGJppC3_18tracing_attributes4attr5FieldENtNtNtNtCsaNl6UpbT7bw_4core4iter6traits8iterator8Iterator10filter_mapQNtNtB8_4expr4ExprNCNCINvNtBO_6expand9gen_blockNtCshnvkK9b4wzu_11proc_macro211TokenStreamEs0_0s5_0EBO_, symObjAddr: 0x6DC, symBinAddr: 0x356C0, symSize: 0x1C }
  - { offset: 0x7A186, size: 0x8, addend: 0x0, symName: __RINvYINtNtCsc29TF2YcYso_3syn10punctuated7IterMutNtNtCsemR3zGJppC3_18tracing_attributes4attr5FieldENtNtNtNtCsaNl6UpbT7bw_4core4iter6traits8iterator8Iterator10filter_mapQNtNtB8_4expr4ExprNCNCINvNtBO_6expand9gen_blockNtNtB8_4stmt5BlockEs0_0s5_0EBO_, symObjAddr: 0x6F8, symBinAddr: 0x356DC, symSize: 0x1C }
  - { offset: 0x7A1DE, size: 0x8, addend: 0x0, symName: __RINvYINtNtCsc29TF2YcYso_3syn10punctuated7IterMutNtNtCsemR3zGJppC3_18tracing_attributes4attr5FieldENtNtNtNtCsaNl6UpbT7bw_4core4iter6traits8iterator8Iterator8find_mapQNtNtB8_4expr4ExprQNCNCINvNtBO_6expand9gen_blockNtCshnvkK9b4wzu_11proc_macro211TokenStreamEs0_0s5_0EBO_, symObjAddr: 0x714, symBinAddr: 0x356F8, symSize: 0x78 }
  - { offset: 0x7A262, size: 0x8, addend: 0x0, symName: __RINvYINtNtCsc29TF2YcYso_3syn10punctuated7IterMutNtNtCsemR3zGJppC3_18tracing_attributes4attr5FieldENtNtNtNtCsaNl6UpbT7bw_4core4iter6traits8iterator8Iterator8find_mapQNtNtB8_4expr4ExprQNCNCINvNtBO_6expand9gen_blockNtNtB8_4stmt5BlockEs0_0s5_0EBO_, symObjAddr: 0x78C, symBinAddr: 0x35770, symSize: 0x78 }
  - { offset: 0x7A2E6, size: 0x8, addend: 0x0, symName: __RINvYINtNtCsc29TF2YcYso_3syn10punctuated7IterMutNtNtCsemR3zGJppC3_18tracing_attributes4attr5FieldENtNtNtNtCsaNl6UpbT7bw_4core4iter6traits8iterator8Iterator8try_folduNCINvNvB1y_8find_map5checkQBK_QNtNtB8_4expr4ExprQNCNCINvNtBO_6expand9gen_blockNtCshnvkK9b4wzu_11proc_macro211TokenStreamEs0_0s5_0E0INtNtNtB1G_3ops12control_flow11ControlFlowB37_EEBO_, symObjAddr: 0x804, symBinAddr: 0x357E8, symSize: 0x140 }
  - { offset: 0x7A399, size: 0x8, addend: 0x0, symName: __RINvYINtNtCsc29TF2YcYso_3syn10punctuated7IterMutNtNtCsemR3zGJppC3_18tracing_attributes4attr5FieldENtNtNtNtCsaNl6UpbT7bw_4core4iter6traits8iterator8Iterator8try_folduNCINvNvB1y_8find_map5checkQBK_QNtNtB8_4expr4ExprQNCNCINvNtBO_6expand9gen_blockNtNtB8_4stmt5BlockEs0_0s5_0E0INtNtNtB1G_3ops12control_flow11ControlFlowB37_EEBO_, symObjAddr: 0x944, symBinAddr: 0x35928, symSize: 0x140 }
  - { offset: 0x7A44C, size: 0x8, addend: 0x0, symName: __RINvYINtNtCsc29TF2YcYso_3syn10punctuated8IntoIterNtNtB8_3pat3PatENtNtNtNtCsaNl6UpbT7bw_4core4iter6traits8iterator8Iterator3mapINtNtCsiTraAjBDcu4_5alloc5boxed3BoxDB11_p4ItemTNtCshnvkK9b4wzu_11proc_macro25IdentNtNtCsemR3zGJppC3_18tracing_attributes6expand10RecordTypeEEL_ENCNvB3m_11param_namess0_0EB3o_, symObjAddr: 0xA84, symBinAddr: 0x35A68, symSize: 0x1C }
  - { offset: 0x7A4B9, size: 0x8, addend: 0x0, symName: __RINvYINtNtCsc29TF2YcYso_3syn10punctuated8IntoIterNtNtB8_3pat3PatENtNtNtNtCsaNl6UpbT7bw_4core4iter6traits8iterator8Iterator3mapINtNtCsiTraAjBDcu4_5alloc5boxed3BoxDB11_p4ItemTNtCshnvkK9b4wzu_11proc_macro25IdentNtNtCsemR3zGJppC3_18tracing_attributes6expand10RecordTypeEEL_ENCNvB3m_11param_namess_0EB3o_, symObjAddr: 0xAA0, symBinAddr: 0x35A84, symSize: 0x1C }
  - { offset: 0x7A54D, size: 0x8, addend: 0x0, symName: __RINvYINtNtCsc29TF2YcYso_3syn10punctuated8IntoIterNtNtB8_3pat3PatENtNtNtNtCsaNl6UpbT7bw_4core4iter6traits8iterator8Iterator8flat_mapINtNtCsiTraAjBDcu4_5alloc5boxed3BoxDB11_p4ItemTNtCshnvkK9b4wzu_11proc_macro25IdentNtNtCsemR3zGJppC3_18tracing_attributes6expand10RecordTypeEEL_ENCNvB3r_11param_namess0_0EB3t_, symObjAddr: 0xABC, symBinAddr: 0x35AA0, symSize: 0x8C }
  - { offset: 0x7A646, size: 0x8, addend: 0x0, symName: __RINvYINtNtCsc29TF2YcYso_3syn10punctuated8IntoIterNtNtB8_3pat3PatENtNtNtNtCsaNl6UpbT7bw_4core4iter6traits8iterator8Iterator8flat_mapINtNtCsiTraAjBDcu4_5alloc5boxed3BoxDB11_p4ItemTNtCshnvkK9b4wzu_11proc_macro25IdentNtNtCsemR3zGJppC3_18tracing_attributes6expand10RecordTypeEEL_ENCNvB3r_11param_namess_0EB3t_, symObjAddr: 0xB48, symBinAddr: 0x35B2C, symSize: 0x8C }
  - { offset: 0x7A718, size: 0x8, addend: 0x0, symName: __RINvYINtNtCsc29TF2YcYso_3syn10punctuated8IntoIterNtNtB8_3pat3PatENtNtNtNtCsaNl6UpbT7bw_4core4iter6traits8iterator8Iterator8try_foldjNCINvNtNtB17_8adapters3map12map_try_foldBL_INtNtCsiTraAjBDcu4_5alloc5boxed3BoxDB11_p4ItemTNtCshnvkK9b4wzu_11proc_macro25IdentNtNtCsemR3zGJppC3_18tracing_attributes6expand10RecordTypeEEL_EjINtNtNtB19_3ops12control_flow11ControlFlowujENCNvB49_11param_namess0_0NCINvNvMsg_NtB2d_7flattenINtB6r_13FlattenCompatppE13iter_try_fold7flattenB2N_jB58_INvNvXsi_B6r_B6F_B11_10advance_by7advanceB2N_EE0E0B58_EB4b_, symObjAddr: 0xBD4, symBinAddr: 0x35BB8, symSize: 0x1C8 }
  - { offset: 0x7A7CD, size: 0x8, addend: 0x0, symName: __RINvYINtNtCsc29TF2YcYso_3syn10punctuated8IntoIterNtNtB8_3pat3PatENtNtNtNtCsaNl6UpbT7bw_4core4iter6traits8iterator8Iterator8try_foldjNCINvNtNtB17_8adapters3map12map_try_foldBL_INtNtCsiTraAjBDcu4_5alloc5boxed3BoxDB11_p4ItemTNtCshnvkK9b4wzu_11proc_macro25IdentNtNtCsemR3zGJppC3_18tracing_attributes6expand10RecordTypeEEL_EjINtNtNtB19_3ops12control_flow11ControlFlowujENCNvB49_11param_namess_0NCINvNvMsg_NtB2d_7flattenINtB6q_13FlattenCompatppE13iter_try_fold7flattenB2N_jB58_INvNvXsi_B6q_B6E_B11_10advance_by7advanceB2N_EE0E0B58_EB4b_, symObjAddr: 0xD9C, symBinAddr: 0x35D80, symSize: 0x1C8 }
  - { offset: 0x7A882, size: 0x8, addend: 0x0, symName: __RINvYINtNtCsc29TF2YcYso_3syn10punctuated8IntoIterNtNtB8_3pat8FieldPatENtNtNtNtCsaNl6UpbT7bw_4core4iter6traits8iterator8Iterator3mapINtNtCsiTraAjBDcu4_5alloc5boxed3BoxDB16_p4ItemTNtCshnvkK9b4wzu_11proc_macro25IdentNtNtCsemR3zGJppC3_18tracing_attributes6expand10RecordTypeEEL_ENCNvB3r_11param_names0EB3t_, symObjAddr: 0xF64, symBinAddr: 0x35F48, symSize: 0x1C }
  - { offset: 0x7A916, size: 0x8, addend: 0x0, symName: __RINvYINtNtCsc29TF2YcYso_3syn10punctuated8IntoIterNtNtB8_3pat8FieldPatENtNtNtNtCsaNl6UpbT7bw_4core4iter6traits8iterator8Iterator8flat_mapINtNtCsiTraAjBDcu4_5alloc5boxed3BoxDB16_p4ItemTNtCshnvkK9b4wzu_11proc_macro25IdentNtNtCsemR3zGJppC3_18tracing_attributes6expand10RecordTypeEEL_ENCNvB3w_11param_names0EB3y_, symObjAddr: 0xF80, symBinAddr: 0x35F64, symSize: 0x8C }
  - { offset: 0x7A9E8, size: 0x8, addend: 0x0, symName: __RINvYINtNtCsc29TF2YcYso_3syn10punctuated8IntoIterNtNtB8_3pat8FieldPatENtNtNtNtCsaNl6UpbT7bw_4core4iter6traits8iterator8Iterator8try_foldjNCINvNtNtB1c_8adapters3map12map_try_foldBL_INtNtCsiTraAjBDcu4_5alloc5boxed3BoxDB16_p4ItemTNtCshnvkK9b4wzu_11proc_macro25IdentNtNtCsemR3zGJppC3_18tracing_attributes6expand10RecordTypeEEL_EjINtNtNtB1e_3ops12control_flow11ControlFlowujENCNvB4e_11param_names0NCINvNvMsg_NtB2i_7flattenINtB6t_13FlattenCompatppE13iter_try_fold7flattenB2S_jB5d_INvNvXsi_B6t_B6H_B16_10advance_by7advanceB2S_EE0E0B5d_EB4g_, symObjAddr: 0x100C, symBinAddr: 0x35FF0, symSize: 0x1C4 }
  - { offset: 0x7AA9D, size: 0x8, addend: 0x0, symName: __RINvYINtNtCsc29TF2YcYso_3syn10punctuated8IntoIterNtNtB8_4item5FnArgENtNtNtNtCsaNl6UpbT7bw_4core4iter6traits8iterator8Iterator3mapINtNtCsiTraAjBDcu4_5alloc5boxed3BoxDB14_p4ItemTNtCshnvkK9b4wzu_11proc_macro25IdentNtNtCsemR3zGJppC3_18tracing_attributes6expand10RecordTypeEEL_ENCNCINvB3p_9gen_blockNtB2Q_11TokenStreamEs0_00EB3r_, symObjAddr: 0x11D0, symBinAddr: 0x361B4, symSize: 0x1C }
  - { offset: 0x7AB0A, size: 0x8, addend: 0x0, symName: __RINvYINtNtCsc29TF2YcYso_3syn10punctuated8IntoIterNtNtB8_4item5FnArgENtNtNtNtCsaNl6UpbT7bw_4core4iter6traits8iterator8Iterator3mapINtNtCsiTraAjBDcu4_5alloc5boxed3BoxDB14_p4ItemTNtCshnvkK9b4wzu_11proc_macro25IdentNtNtCsemR3zGJppC3_18tracing_attributes6expand10RecordTypeEEL_ENCNCINvB3p_9gen_blockNtNtB8_4stmt5BlockEs0_00EB3r_, symObjAddr: 0x11EC, symBinAddr: 0x361D0, symSize: 0x1C }
  - { offset: 0x7AB9E, size: 0x8, addend: 0x0, symName: __RINvYINtNtCsc29TF2YcYso_3syn10punctuated8IntoIterNtNtB8_4item5FnArgENtNtNtNtCsaNl6UpbT7bw_4core4iter6traits8iterator8Iterator8flat_mapINtNtCsiTraAjBDcu4_5alloc5boxed3BoxDB14_p4ItemTNtCshnvkK9b4wzu_11proc_macro25IdentNtNtCsemR3zGJppC3_18tracing_attributes6expand10RecordTypeEEL_ENCNCINvB3u_9gen_blockNtB2V_11TokenStreamEs0_00EB3w_, symObjAddr: 0x1208, symBinAddr: 0x361EC, symSize: 0x8C }
  - { offset: 0x7AC97, size: 0x8, addend: 0x0, symName: __RINvYINtNtCsc29TF2YcYso_3syn10punctuated8IntoIterNtNtB8_4item5FnArgENtNtNtNtCsaNl6UpbT7bw_4core4iter6traits8iterator8Iterator8flat_mapINtNtCsiTraAjBDcu4_5alloc5boxed3BoxDB14_p4ItemTNtCshnvkK9b4wzu_11proc_macro25IdentNtNtCsemR3zGJppC3_18tracing_attributes6expand10RecordTypeEEL_ENCNCINvB3u_9gen_blockNtNtB8_4stmt5BlockEs0_00EB3w_, symObjAddr: 0x1294, symBinAddr: 0x36278, symSize: 0x8C }
  - { offset: 0x7AD73, size: 0x8, addend: 0x0, symName: __RNvXs_NvNtNtNtNtCsaNl6UpbT7bw_4core4iter6traits8iterator8Iterator10advance_byINtNtCsc29TF2YcYso_3syn10punctuated11PrivateIterNtCshnvkK9b4wzu_11proc_macro25IdentNtNtB1i_5token3DotENtB4_13SpecAdvanceBy15spec_advance_byCsemR3zGJppC3_18tracing_attributes, symObjAddr: 0x6270, symBinAddr: 0x3B254, symSize: 0x8C }
  - { offset: 0x7AE21, size: 0x8, addend: 0x0, symName: __RNvXs_NvNtNtNtNtCsaNl6UpbT7bw_4core4iter6traits8iterator8Iterator10advance_byINtNtCsc29TF2YcYso_3syn10punctuated11PrivateIterNtNtCsemR3zGJppC3_18tracing_attributes4attr5FieldNtNtB1i_5token5CommaENtB4_13SpecAdvanceBy15spec_advance_byB23_, symObjAddr: 0x62FC, symBinAddr: 0x3B2E0, symSize: 0x8C }
  - { offset: 0x7AECF, size: 0x8, addend: 0x0, symName: __RNvXs_NvNtNtNtNtCsaNl6UpbT7bw_4core4iter6traits8iterator8Iterator10advance_byINtNtCsc29TF2YcYso_3syn10punctuated14PrivateIterMutNtNtCsemR3zGJppC3_18tracing_attributes4attr5FieldNtNtB1i_5token5CommaENtB4_13SpecAdvanceBy15spec_advance_byB26_, symObjAddr: 0x6388, symBinAddr: 0x3B36C, symSize: 0x8C }
  - { offset: 0x7AF9A, size: 0x8, addend: 0x0, symName: __RNvYINtNtCsc29TF2YcYso_3syn10punctuated11PrivateIterNtCshnvkK9b4wzu_11proc_macro25IdentNtNtB7_5token3DotENtNtNtNtCsaNl6UpbT7bw_4core4iter6traits8iterator8Iterator10advance_byCsemR3zGJppC3_18tracing_attributes, symObjAddr: 0x7398, symBinAddr: 0x3C37C, symSize: 0x28 }
  - { offset: 0x7AFE0, size: 0x8, addend: 0x0, symName: __RNvYINtNtCsc29TF2YcYso_3syn10punctuated11PrivateIterNtCshnvkK9b4wzu_11proc_macro25IdentNtNtB7_5token3DotENtNtNtNtCsaNl6UpbT7bw_4core4iter6traits8iterator8Iterator3nthCsemR3zGJppC3_18tracing_attributes, symObjAddr: 0x73C0, symBinAddr: 0x3C3A4, symSize: 0x7C }
  - { offset: 0x7B0AC, size: 0x8, addend: 0x0, symName: __RNvYINtNtCsc29TF2YcYso_3syn10punctuated11PrivateIterNtCshnvkK9b4wzu_11proc_macro25IdentNtNtB7_5token3DotENtNtNtNtCsaNl6UpbT7bw_4core4iter6traits8iterator8Iterator9size_hintCsemR3zGJppC3_18tracing_attributes, symObjAddr: 0x743C, symBinAddr: 0x3C420, symSize: 0x34 }
  - { offset: 0x7B0E1, size: 0x8, addend: 0x0, symName: __RNvYINtNtCsc29TF2YcYso_3syn10punctuated11PrivateIterNtNtCsemR3zGJppC3_18tracing_attributes4attr5FieldNtNtB7_5token5CommaENtNtNtNtCsaNl6UpbT7bw_4core4iter6traits8iterator8Iterator10advance_byBS_, symObjAddr: 0x765C, symBinAddr: 0x3C640, symSize: 0x28 }
  - { offset: 0x7B127, size: 0x8, addend: 0x0, symName: __RNvYINtNtCsc29TF2YcYso_3syn10punctuated11PrivateIterNtNtCsemR3zGJppC3_18tracing_attributes4attr5FieldNtNtB7_5token5CommaENtNtNtNtCsaNl6UpbT7bw_4core4iter6traits8iterator8Iterator3nthBS_, symObjAddr: 0x7684, symBinAddr: 0x3C668, symSize: 0x7C }
  - { offset: 0x7B1F3, size: 0x8, addend: 0x0, symName: __RNvYINtNtCsc29TF2YcYso_3syn10punctuated11PrivateIterNtNtCsemR3zGJppC3_18tracing_attributes4attr5FieldNtNtB7_5token5CommaENtNtNtNtCsaNl6UpbT7bw_4core4iter6traits8iterator8Iterator9size_hintBS_, symObjAddr: 0x7700, symBinAddr: 0x3C6E4, symSize: 0x34 }
  - { offset: 0x7B228, size: 0x8, addend: 0x0, symName: __RNvYINtNtCsc29TF2YcYso_3syn10punctuated14PrivateIterMutNtNtCsemR3zGJppC3_18tracing_attributes4attr5FieldNtNtB7_5token5CommaENtNtNtNtCsaNl6UpbT7bw_4core4iter6traits8iterator8Iterator10advance_byBV_, symObjAddr: 0x7920, symBinAddr: 0x3C904, symSize: 0x28 }
  - { offset: 0x7B26E, size: 0x8, addend: 0x0, symName: __RNvYINtNtCsc29TF2YcYso_3syn10punctuated14PrivateIterMutNtNtCsemR3zGJppC3_18tracing_attributes4attr5FieldNtNtB7_5token5CommaENtNtNtNtCsaNl6UpbT7bw_4core4iter6traits8iterator8Iterator3nthBV_, symObjAddr: 0x7948, symBinAddr: 0x3C92C, symSize: 0x7C }
  - { offset: 0x7B33A, size: 0x8, addend: 0x0, symName: __RNvYINtNtCsc29TF2YcYso_3syn10punctuated14PrivateIterMutNtNtCsemR3zGJppC3_18tracing_attributes4attr5FieldNtNtB7_5token5CommaENtNtNtNtCsaNl6UpbT7bw_4core4iter6traits8iterator8Iterator9size_hintBV_, symObjAddr: 0x79C4, symBinAddr: 0x3C9A8, symSize: 0x34 }
  - { offset: 0x7B3DF, size: 0x8, addend: 0x0, symName: __RNvXNtNtNtCsaNl6UpbT7bw_4core4iter6traits7collectINtNtCsc29TF2YcYso_3syn10punctuated5PairsNtCshnvkK9b4wzu_11proc_macro25IdentNtNtBQ_5token3DotENtB2_12IntoIterator9into_iterCsemR3zGJppC3_18tracing_attributes, symObjAddr: 0x52C0, symBinAddr: 0x3A2A4, symSize: 0x18 }
  - { offset: 0x7B416, size: 0x8, addend: 0x0, symName: __RNvXNtNtNtCsaNl6UpbT7bw_4core4iter6traits7collectINtNtCsc29TF2YcYso_3syn10punctuated5PairsNtNtCsemR3zGJppC3_18tracing_attributes4attr5FieldNtNtBQ_5token5CommaENtB2_12IntoIterator9into_iterB1u_, symObjAddr: 0x52D8, symBinAddr: 0x3A2BC, symSize: 0x18 }
  - { offset: 0x7B44D, size: 0x8, addend: 0x0, symName: __RNvXNtNtNtCsaNl6UpbT7bw_4core4iter6traits7collectINtNtCsc29TF2YcYso_3syn10punctuated8PairsMutNtNtBQ_2ty4TypeNtNtBQ_5token5CommaENtB2_12IntoIterator9into_iterCsemR3zGJppC3_18tracing_attributes, symObjAddr: 0x52F0, symBinAddr: 0x3A2D4, symSize: 0x18 }
  - { offset: 0x7B484, size: 0x8, addend: 0x0, symName: __RNvXNtNtNtCsaNl6UpbT7bw_4core4iter6traits7collectINtNtCsc29TF2YcYso_3syn10punctuated8PairsMutNtNtBQ_2ty9BareFnArgNtNtBQ_5token5CommaENtB2_12IntoIterator9into_iterCsemR3zGJppC3_18tracing_attributes, symObjAddr: 0x5308, symBinAddr: 0x3A2EC, symSize: 0x18 }
  - { offset: 0x7B4BB, size: 0x8, addend: 0x0, symName: __RNvXNtNtNtCsaNl6UpbT7bw_4core4iter6traits7collectINtNtCsc29TF2YcYso_3syn10punctuated8PairsMutNtNtBQ_3pat3PatNtNtBQ_5token2OrENtB2_12IntoIterator9into_iterCsemR3zGJppC3_18tracing_attributes, symObjAddr: 0x5320, symBinAddr: 0x3A304, symSize: 0x18 }
  - { offset: 0x7B4F2, size: 0x8, addend: 0x0, symName: __RNvXNtNtNtCsaNl6UpbT7bw_4core4iter6traits7collectINtNtCsc29TF2YcYso_3syn10punctuated8PairsMutNtNtBQ_3pat3PatNtNtBQ_5token5CommaENtB2_12IntoIterator9into_iterCsemR3zGJppC3_18tracing_attributes, symObjAddr: 0x5338, symBinAddr: 0x3A31C, symSize: 0x18 }
  - { offset: 0x7B529, size: 0x8, addend: 0x0, symName: __RNvXNtNtNtCsaNl6UpbT7bw_4core4iter6traits7collectINtNtCsc29TF2YcYso_3syn10punctuated8PairsMutNtNtBQ_3pat8FieldPatNtNtBQ_5token5CommaENtB2_12IntoIterator9into_iterCsemR3zGJppC3_18tracing_attributes, symObjAddr: 0x5350, symBinAddr: 0x3A334, symSize: 0x18 }
  - { offset: 0x7B560, size: 0x8, addend: 0x0, symName: __RNvXNtNtNtCsaNl6UpbT7bw_4core4iter6traits7collectINtNtCsc29TF2YcYso_3syn10punctuated8PairsMutNtNtBQ_4data5FieldNtNtBQ_5token5CommaENtB2_12IntoIterator9into_iterCsemR3zGJppC3_18tracing_attributes, symObjAddr: 0x5368, symBinAddr: 0x3A34C, symSize: 0x18 }
  - { offset: 0x7B597, size: 0x8, addend: 0x0, symName: __RNvXNtNtNtCsaNl6UpbT7bw_4core4iter6traits7collectINtNtCsc29TF2YcYso_3syn10punctuated8PairsMutNtNtBQ_4data7VariantNtNtBQ_5token5CommaENtB2_12IntoIterator9into_iterCsemR3zGJppC3_18tracing_attributes, symObjAddr: 0x5380, symBinAddr: 0x3A364, symSize: 0x18 }
  - { offset: 0x7B5CE, size: 0x8, addend: 0x0, symName: __RNvXNtNtNtCsaNl6UpbT7bw_4core4iter6traits7collectINtNtCsc29TF2YcYso_3syn10punctuated8PairsMutNtNtBQ_4expr10FieldValueNtNtBQ_5token5CommaENtB2_12IntoIterator9into_iterCsemR3zGJppC3_18tracing_attributes, symObjAddr: 0x5398, symBinAddr: 0x3A37C, symSize: 0x18 }
  - { offset: 0x7B605, size: 0x8, addend: 0x0, symName: __RNvXNtNtNtCsaNl6UpbT7bw_4core4iter6traits7collectINtNtCsc29TF2YcYso_3syn10punctuated8PairsMutNtNtBQ_4expr4ExprNtNtBQ_5token5CommaENtB2_12IntoIterator9into_iterCsemR3zGJppC3_18tracing_attributes, symObjAddr: 0x53B0, symBinAddr: 0x3A394, symSize: 0x18 }
  - { offset: 0x7B63C, size: 0x8, addend: 0x0, symName: __RNvXNtNtNtCsaNl6UpbT7bw_4core4iter6traits7collectINtNtCsc29TF2YcYso_3syn10punctuated8PairsMutNtNtBQ_4item5FnArgNtNtBQ_5token5CommaENtB2_12IntoIterator9into_iterCsemR3zGJppC3_18tracing_attributes, symObjAddr: 0x53C8, symBinAddr: 0x3A3AC, symSize: 0x18 }
  - { offset: 0x7B673, size: 0x8, addend: 0x0, symName: __RNvXNtNtNtCsaNl6UpbT7bw_4core4iter6traits7collectINtNtCsc29TF2YcYso_3syn10punctuated8PairsMutNtNtBQ_4item7UseTreeNtNtBQ_5token5CommaENtB2_12IntoIterator9into_iterCsemR3zGJppC3_18tracing_attributes, symObjAddr: 0x53E0, symBinAddr: 0x3A3C4, symSize: 0x18 }
  - { offset: 0x7B6AA, size: 0x8, addend: 0x0, symName: __RNvXNtNtNtCsaNl6UpbT7bw_4core4iter6traits7collectINtNtCsc29TF2YcYso_3syn10punctuated8PairsMutNtNtBQ_4path11PathSegmentNtNtBQ_5token7PathSepENtB2_12IntoIterator9into_iterCsemR3zGJppC3_18tracing_attributes, symObjAddr: 0x53F8, symBinAddr: 0x3A3DC, symSize: 0x18 }
  - { offset: 0x7B6E1, size: 0x8, addend: 0x0, symName: __RNvXNtNtNtCsaNl6UpbT7bw_4core4iter6traits7collectINtNtCsc29TF2YcYso_3syn10punctuated8PairsMutNtNtBQ_4path15GenericArgumentNtNtBQ_5token5CommaENtB2_12IntoIterator9into_iterCsemR3zGJppC3_18tracing_attributes, symObjAddr: 0x5410, symBinAddr: 0x3A3F4, symSize: 0x18 }
  - { offset: 0x7B718, size: 0x8, addend: 0x0, symName: __RNvXNtNtNtCsaNl6UpbT7bw_4core4iter6traits7collectINtNtCsc29TF2YcYso_3syn10punctuated8PairsMutNtNtBQ_8generics12GenericParamNtNtBQ_5token5CommaENtB2_12IntoIterator9into_iterCsemR3zGJppC3_18tracing_attributes, symObjAddr: 0x5428, symBinAddr: 0x3A40C, symSize: 0x18 }
  - { offset: 0x7B74F, size: 0x8, addend: 0x0, symName: __RNvXNtNtNtCsaNl6UpbT7bw_4core4iter6traits7collectINtNtCsc29TF2YcYso_3syn10punctuated8PairsMutNtNtBQ_8generics13CapturedParamNtNtBQ_5token5CommaENtB2_12IntoIterator9into_iterCsemR3zGJppC3_18tracing_attributes, symObjAddr: 0x5440, symBinAddr: 0x3A424, symSize: 0x18 }
  - { offset: 0x7B786, size: 0x8, addend: 0x0, symName: __RNvXNtNtNtCsaNl6UpbT7bw_4core4iter6traits7collectINtNtCsc29TF2YcYso_3syn10punctuated8PairsMutNtNtBQ_8generics14TypeParamBoundNtNtBQ_5token4PlusENtB2_12IntoIterator9into_iterCsemR3zGJppC3_18tracing_attributes, symObjAddr: 0x5458, symBinAddr: 0x3A43C, symSize: 0x18 }
  - { offset: 0x7B7BD, size: 0x8, addend: 0x0, symName: __RNvXNtNtNtCsaNl6UpbT7bw_4core4iter6traits7collectINtNtCsc29TF2YcYso_3syn10punctuated8PairsMutNtNtBQ_8generics14WherePredicateNtNtBQ_5token5CommaENtB2_12IntoIterator9into_iterCsemR3zGJppC3_18tracing_attributes, symObjAddr: 0x5470, symBinAddr: 0x3A454, symSize: 0x18 }
  - { offset: 0x7B7F4, size: 0x8, addend: 0x0, symName: __RNvXNtNtNtCsaNl6UpbT7bw_4core4iter6traits7collectINtNtCsc29TF2YcYso_3syn10punctuated8PairsMutNtNtBQ_8lifetime8LifetimeNtNtBQ_5token4PlusENtB2_12IntoIterator9into_iterCsemR3zGJppC3_18tracing_attributes, symObjAddr: 0x5488, symBinAddr: 0x3A46C, symSize: 0x18 }
  - { offset: 0x7B837, size: 0x8, addend: 0x0, symName: __RNvYINtNtCsc29TF2YcYso_3syn10punctuated11PrivateIterNtCshnvkK9b4wzu_11proc_macro25IdentNtNtB7_5token3DotENtNtNtNtCsaNl6UpbT7bw_4core4iter6traits10exact_size17ExactSizeIterator8is_emptyCsemR3zGJppC3_18tracing_attributes, symObjAddr: 0x71AC, symBinAddr: 0x3C190, symSize: 0x2C }
  - { offset: 0x7B86C, size: 0x8, addend: 0x0, symName: __RNvYINtNtCsc29TF2YcYso_3syn10punctuated11PrivateIterNtNtCsemR3zGJppC3_18tracing_attributes4attr5FieldNtNtB7_5token5CommaENtNtNtNtCsaNl6UpbT7bw_4core4iter6traits10exact_size17ExactSizeIterator8is_emptyBS_, symObjAddr: 0x7470, symBinAddr: 0x3C454, symSize: 0x2C }
  - { offset: 0x7B8A1, size: 0x8, addend: 0x0, symName: __RNvYINtNtCsc29TF2YcYso_3syn10punctuated14PrivateIterMutNtNtCsemR3zGJppC3_18tracing_attributes4attr5FieldNtNtB7_5token5CommaENtNtNtNtCsaNl6UpbT7bw_4core4iter6traits10exact_size17ExactSizeIterator8is_emptyBV_, symObjAddr: 0x7734, symBinAddr: 0x3C718, symSize: 0x2C }
  - { offset: 0x7B8E2, size: 0x8, addend: 0x0, symName: __RNvYINtNtCsc29TF2YcYso_3syn10punctuated11PrivateIterNtCshnvkK9b4wzu_11proc_macro25IdentNtNtB7_5token3DotENtNtNtNtCsaNl6UpbT7bw_4core4iter6traits12double_ended19DoubleEndedIterator15advance_back_byCsemR3zGJppC3_18tracing_attributes, symObjAddr: 0x71D8, symBinAddr: 0x3C1BC, symSize: 0x158 }
  - { offset: 0x7BA5C, size: 0x8, addend: 0x0, symName: __RNvYINtNtCsc29TF2YcYso_3syn10punctuated11PrivateIterNtCshnvkK9b4wzu_11proc_macro25IdentNtNtB7_5token3DotENtNtNtNtCsaNl6UpbT7bw_4core4iter6traits12double_ended19DoubleEndedIterator8nth_backCsemR3zGJppC3_18tracing_attributes, symObjAddr: 0x7330, symBinAddr: 0x3C314, symSize: 0x68 }
  - { offset: 0x7BADA, size: 0x8, addend: 0x0, symName: __RNvYINtNtCsc29TF2YcYso_3syn10punctuated11PrivateIterNtNtCsemR3zGJppC3_18tracing_attributes4attr5FieldNtNtB7_5token5CommaENtNtNtNtCsaNl6UpbT7bw_4core4iter6traits12double_ended19DoubleEndedIterator15advance_back_byBS_, symObjAddr: 0x749C, symBinAddr: 0x3C480, symSize: 0x158 }
  - { offset: 0x7BC54, size: 0x8, addend: 0x0, symName: __RNvYINtNtCsc29TF2YcYso_3syn10punctuated11PrivateIterNtNtCsemR3zGJppC3_18tracing_attributes4attr5FieldNtNtB7_5token5CommaENtNtNtNtCsaNl6UpbT7bw_4core4iter6traits12double_ended19DoubleEndedIterator8nth_backBS_, symObjAddr: 0x75F4, symBinAddr: 0x3C5D8, symSize: 0x68 }
  - { offset: 0x7BCD2, size: 0x8, addend: 0x0, symName: __RNvYINtNtCsc29TF2YcYso_3syn10punctuated14PrivateIterMutNtNtCsemR3zGJppC3_18tracing_attributes4attr5FieldNtNtB7_5token5CommaENtNtNtNtCsaNl6UpbT7bw_4core4iter6traits12double_ended19DoubleEndedIterator15advance_back_byBV_, symObjAddr: 0x7760, symBinAddr: 0x3C744, symSize: 0x158 }
  - { offset: 0x7BE4C, size: 0x8, addend: 0x0, symName: __RNvYINtNtCsc29TF2YcYso_3syn10punctuated14PrivateIterMutNtNtCsemR3zGJppC3_18tracing_attributes4attr5FieldNtNtB7_5token5CommaENtNtNtNtCsaNl6UpbT7bw_4core4iter6traits12double_ended19DoubleEndedIterator8nth_backBV_, symObjAddr: 0x78B8, symBinAddr: 0x3C89C, symSize: 0x68 }
  - { offset: 0x7EE8B, size: 0x8, addend: 0x0, symName: __RNvMNtCsc29TF2YcYso_3syn10punctuatedINtB2_10PunctuatedNtCshnvkK9b4wzu_11proc_macro25IdentNtNtB4_5token3DotE10push_punctCsemR3zGJppC3_18tracing_attributes, symObjAddr: 0x24D4, symBinAddr: 0x374B8, symSize: 0x1F8 }
  - { offset: 0x7EF08, size: 0x8, addend: 0x0, symName: __RNvMNtCsc29TF2YcYso_3syn10punctuatedINtB2_10PunctuatedNtCshnvkK9b4wzu_11proc_macro25IdentNtNtB4_5token3DotE10push_valueCsemR3zGJppC3_18tracing_attributes, symObjAddr: 0x26CC, symBinAddr: 0x376B0, symSize: 0x1A4 }
  - { offset: 0x7EF76, size: 0x8, addend: 0x0, symName: __RNvMNtCsc29TF2YcYso_3syn10punctuatedINtB2_10PunctuatedNtCshnvkK9b4wzu_11proc_macro25IdentNtNtB4_5token3DotE17empty_or_trailingCsemR3zGJppC3_18tracing_attributes, symObjAddr: 0x2870, symBinAddr: 0x37854, symSize: 0x34 }
  - { offset: 0x7F01E, size: 0x8, addend: 0x0, symName: __RNvMNtCsc29TF2YcYso_3syn10punctuatedINtB2_10PunctuatedNtCshnvkK9b4wzu_11proc_macro25IdentNtNtB4_5token3DotE29parse_separated_nonempty_withCsemR3zGJppC3_18tracing_attributes, symObjAddr: 0x28A4, symBinAddr: 0x37888, symSize: 0x31C }
  - { offset: 0x7F123, size: 0x8, addend: 0x0, symName: __RNvMNtCsc29TF2YcYso_3syn10punctuatedINtB2_10PunctuatedNtCshnvkK9b4wzu_11proc_macro25IdentNtNtB4_5token3DotE3newCsemR3zGJppC3_18tracing_attributes, symObjAddr: 0x2BC0, symBinAddr: 0x37BA4, symSize: 0x54 }
  - { offset: 0x7F19E, size: 0x8, addend: 0x0, symName: __RNvMNtCsc29TF2YcYso_3syn10punctuatedINtB2_10PunctuatedNtCshnvkK9b4wzu_11proc_macro25IdentNtNtB4_5token3DotE4iterCsemR3zGJppC3_18tracing_attributes, symObjAddr: 0x2C14, symBinAddr: 0x37BF8, symSize: 0xC8 }
  - { offset: 0x7F1EF, size: 0x8, addend: 0x0, symName: __RNvMNtCsc29TF2YcYso_3syn10punctuatedINtB2_10PunctuatedNtCshnvkK9b4wzu_11proc_macro25IdentNtNtB4_5token3DotE4lastCsemR3zGJppC3_18tracing_attributes, symObjAddr: 0x2CDC, symBinAddr: 0x37CC0, symSize: 0x84 }
  - { offset: 0x7F223, size: 0x8, addend: 0x0, symName: __RNvMNtCsc29TF2YcYso_3syn10punctuatedINtB2_10PunctuatedNtCshnvkK9b4wzu_11proc_macro25IdentNtNtB4_5token3DotE5firstCsemR3zGJppC3_18tracing_attributes, symObjAddr: 0x2D60, symBinAddr: 0x37D44, symSize: 0x84 }
  - { offset: 0x7F257, size: 0x8, addend: 0x0, symName: __RNvMNtCsc29TF2YcYso_3syn10punctuatedINtB2_10PunctuatedNtCshnvkK9b4wzu_11proc_macro25IdentNtNtB4_5token3DotE5pairsCsemR3zGJppC3_18tracing_attributes, symObjAddr: 0x2DE4, symBinAddr: 0x37DC8, symSize: 0x74 }
  - { offset: 0x7F2B6, size: 0x8, addend: 0x0, symName: __RNvMNtCsc29TF2YcYso_3syn10punctuatedINtB2_10PunctuatedNtCshnvkK9b4wzu_11proc_macro25IdentNtNtB4_5token5CommaE10push_punctCsemR3zGJppC3_18tracing_attributes, symObjAddr: 0x2E58, symBinAddr: 0x37E3C, symSize: 0x1F8 }
  - { offset: 0x7F333, size: 0x8, addend: 0x0, symName: __RNvMNtCsc29TF2YcYso_3syn10punctuatedINtB2_10PunctuatedNtCshnvkK9b4wzu_11proc_macro25IdentNtNtB4_5token5CommaE10push_valueCsemR3zGJppC3_18tracing_attributes, symObjAddr: 0x3050, symBinAddr: 0x38034, symSize: 0x1A4 }
  - { offset: 0x7F3A1, size: 0x8, addend: 0x0, symName: __RNvMNtCsc29TF2YcYso_3syn10punctuatedINtB2_10PunctuatedNtCshnvkK9b4wzu_11proc_macro25IdentNtNtB4_5token5CommaE17empty_or_trailingCsemR3zGJppC3_18tracing_attributes, symObjAddr: 0x31F4, symBinAddr: 0x381D8, symSize: 0x34 }
  - { offset: 0x7F3D5, size: 0x8, addend: 0x0, symName: __RNvMNtCsc29TF2YcYso_3syn10punctuatedINtB2_10PunctuatedNtCshnvkK9b4wzu_11proc_macro25IdentNtNtB4_5token5CommaE21parse_terminated_withCsemR3zGJppC3_18tracing_attributes, symObjAddr: 0x3228, symBinAddr: 0x3820C, symSize: 0x33C }
  - { offset: 0x7F4DA, size: 0x8, addend: 0x0, symName: __RNvMNtCsc29TF2YcYso_3syn10punctuatedINtB2_10PunctuatedNtCshnvkK9b4wzu_11proc_macro25IdentNtNtB4_5token5CommaE3lenCsemR3zGJppC3_18tracing_attributes, symObjAddr: 0x3564, symBinAddr: 0x38548, symSize: 0xA0 }
  - { offset: 0x7F50E, size: 0x8, addend: 0x0, symName: __RNvMNtCsc29TF2YcYso_3syn10punctuatedINtB2_10PunctuatedNtCshnvkK9b4wzu_11proc_macro25IdentNtNtB4_5token5CommaE3newCsemR3zGJppC3_18tracing_attributes, symObjAddr: 0x3604, symBinAddr: 0x385E8, symSize: 0x54 }
  - { offset: 0x7F575, size: 0x8, addend: 0x0, symName: __RNvMNtCsc29TF2YcYso_3syn10punctuatedINtB2_10PunctuatedNtNtB4_2ty4TypeNtNtB4_5token5CommaE9pairs_mutCsemR3zGJppC3_18tracing_attributes, symObjAddr: 0x3658, symBinAddr: 0x3863C, symSize: 0x74 }
  - { offset: 0x7F5EA, size: 0x8, addend: 0x0, symName: __RNvMNtCsc29TF2YcYso_3syn10punctuatedINtB2_10PunctuatedNtNtB4_2ty9BareFnArgNtNtB4_5token5CommaE9pairs_mutCsemR3zGJppC3_18tracing_attributes, symObjAddr: 0x36CC, symBinAddr: 0x386B0, symSize: 0x74 }
  - { offset: 0x7F65F, size: 0x8, addend: 0x0, symName: __RNvMNtCsc29TF2YcYso_3syn10punctuatedINtB2_10PunctuatedNtNtB4_3pat3PatNtNtB4_5token2OrE9pairs_mutCsemR3zGJppC3_18tracing_attributes, symObjAddr: 0x3740, symBinAddr: 0x38724, symSize: 0x74 }
  - { offset: 0x7F6C7, size: 0x8, addend: 0x0, symName: __RNvMNtCsc29TF2YcYso_3syn10punctuatedINtB2_10PunctuatedNtNtB4_3pat3PatNtNtB4_5token5CommaE9pairs_mutCsemR3zGJppC3_18tracing_attributes, symObjAddr: 0x37B4, symBinAddr: 0x38798, symSize: 0x74 }
  - { offset: 0x7F708, size: 0x8, addend: 0x0, symName: __RNvMNtCsc29TF2YcYso_3syn10punctuatedINtB2_10PunctuatedNtNtB4_3pat8FieldPatNtNtB4_5token5CommaE3lenCsemR3zGJppC3_18tracing_attributes, symObjAddr: 0x3828, symBinAddr: 0x3880C, symSize: 0xA0 }
  - { offset: 0x7F77D, size: 0x8, addend: 0x0, symName: __RNvMNtCsc29TF2YcYso_3syn10punctuatedINtB2_10PunctuatedNtNtB4_3pat8FieldPatNtNtB4_5token5CommaE9pairs_mutCsemR3zGJppC3_18tracing_attributes, symObjAddr: 0x38C8, symBinAddr: 0x388AC, symSize: 0x74 }
  - { offset: 0x7F7F2, size: 0x8, addend: 0x0, symName: __RNvMNtCsc29TF2YcYso_3syn10punctuatedINtB2_10PunctuatedNtNtB4_4data5FieldNtNtB4_5token5CommaE9pairs_mutCsemR3zGJppC3_18tracing_attributes, symObjAddr: 0x393C, symBinAddr: 0x38920, symSize: 0x74 }
  - { offset: 0x7F867, size: 0x8, addend: 0x0, symName: __RNvMNtCsc29TF2YcYso_3syn10punctuatedINtB2_10PunctuatedNtNtB4_4data7VariantNtNtB4_5token5CommaE9pairs_mutCsemR3zGJppC3_18tracing_attributes, symObjAddr: 0x39B0, symBinAddr: 0x38994, symSize: 0x74 }
  - { offset: 0x7F8DC, size: 0x8, addend: 0x0, symName: __RNvMNtCsc29TF2YcYso_3syn10punctuatedINtB2_10PunctuatedNtNtB4_4expr10FieldValueNtNtB4_5token5CommaE9pairs_mutCsemR3zGJppC3_18tracing_attributes, symObjAddr: 0x3A24, symBinAddr: 0x38A08, symSize: 0x74 }
  - { offset: 0x7F944, size: 0x8, addend: 0x0, symName: __RNvMNtCsc29TF2YcYso_3syn10punctuatedINtB2_10PunctuatedNtNtB4_4expr4ExprNtNtB4_5token5CommaE9pairs_mutCsemR3zGJppC3_18tracing_attributes, symObjAddr: 0x3A98, symBinAddr: 0x38A7C, symSize: 0x74 }
  - { offset: 0x7F985, size: 0x8, addend: 0x0, symName: __RNvMNtCsc29TF2YcYso_3syn10punctuatedINtB2_10PunctuatedNtNtB4_4item5FnArgNtNtB4_5token5CommaE3lenCsemR3zGJppC3_18tracing_attributes, symObjAddr: 0x3B0C, symBinAddr: 0x38AF0, symSize: 0xA0 }
  - { offset: 0x7F9FA, size: 0x8, addend: 0x0, symName: __RNvMNtCsc29TF2YcYso_3syn10punctuatedINtB2_10PunctuatedNtNtB4_4item5FnArgNtNtB4_5token5CommaE9pairs_mutCsemR3zGJppC3_18tracing_attributes, symObjAddr: 0x3BAC, symBinAddr: 0x38B90, symSize: 0x74 }
  - { offset: 0x7FA6F, size: 0x8, addend: 0x0, symName: __RNvMNtCsc29TF2YcYso_3syn10punctuatedINtB2_10PunctuatedNtNtB4_4item7UseTreeNtNtB4_5token5CommaE9pairs_mutCsemR3zGJppC3_18tracing_attributes, symObjAddr: 0x3C20, symBinAddr: 0x38C04, symSize: 0x74 }
  - { offset: 0x7FAE4, size: 0x8, addend: 0x0, symName: __RNvMNtCsc29TF2YcYso_3syn10punctuatedINtB2_10PunctuatedNtNtB4_4path11PathSegmentNtNtB4_5token7PathSepE9pairs_mutCsemR3zGJppC3_18tracing_attributes, symObjAddr: 0x3C94, symBinAddr: 0x38C78, symSize: 0x74 }
  - { offset: 0x7FB59, size: 0x8, addend: 0x0, symName: __RNvMNtCsc29TF2YcYso_3syn10punctuatedINtB2_10PunctuatedNtNtB4_4path15GenericArgumentNtNtB4_5token5CommaE9pairs_mutCsemR3zGJppC3_18tracing_attributes, symObjAddr: 0x3D08, symBinAddr: 0x38CEC, symSize: 0x74 }
  - { offset: 0x7FBCE, size: 0x8, addend: 0x0, symName: __RNvMNtCsc29TF2YcYso_3syn10punctuatedINtB2_10PunctuatedNtNtB4_8generics12GenericParamNtNtB4_5token5CommaE9pairs_mutCsemR3zGJppC3_18tracing_attributes, symObjAddr: 0x3D7C, symBinAddr: 0x38D60, symSize: 0x74 }
  - { offset: 0x7FC43, size: 0x8, addend: 0x0, symName: __RNvMNtCsc29TF2YcYso_3syn10punctuatedINtB2_10PunctuatedNtNtB4_8generics13CapturedParamNtNtB4_5token5CommaE9pairs_mutCsemR3zGJppC3_18tracing_attributes, symObjAddr: 0x3DF0, symBinAddr: 0x38DD4, symSize: 0x74 }
  - { offset: 0x7FCB8, size: 0x8, addend: 0x0, symName: __RNvMNtCsc29TF2YcYso_3syn10punctuatedINtB2_10PunctuatedNtNtB4_8generics14TypeParamBoundNtNtB4_5token4PlusE9pairs_mutCsemR3zGJppC3_18tracing_attributes, symObjAddr: 0x3E64, symBinAddr: 0x38E48, symSize: 0x74 }
  - { offset: 0x7FD2D, size: 0x8, addend: 0x0, symName: __RNvMNtCsc29TF2YcYso_3syn10punctuatedINtB2_10PunctuatedNtNtB4_8generics14WherePredicateNtNtB4_5token5CommaE9pairs_mutCsemR3zGJppC3_18tracing_attributes, symObjAddr: 0x3ED8, symBinAddr: 0x38EBC, symSize: 0x74 }
  - { offset: 0x7FDA2, size: 0x8, addend: 0x0, symName: __RNvMNtCsc29TF2YcYso_3syn10punctuatedINtB2_10PunctuatedNtNtB4_8lifetime8LifetimeNtNtB4_5token4PlusE9pairs_mutCsemR3zGJppC3_18tracing_attributes, symObjAddr: 0x3F4C, symBinAddr: 0x38F30, symSize: 0x74 }
  - { offset: 0x7FE1B, size: 0x8, addend: 0x0, symName: __RNvMNtCsc29TF2YcYso_3syn10punctuatedINtB2_10PunctuatedNtNtCsemR3zGJppC3_18tracing_attributes4attr5FieldNtNtB4_5token5CommaE10push_punctBU_, symObjAddr: 0x3FC0, symBinAddr: 0x38FA4, symSize: 0x208 }
  - { offset: 0x7FE99, size: 0x8, addend: 0x0, symName: __RNvMNtCsc29TF2YcYso_3syn10punctuatedINtB2_10PunctuatedNtNtCsemR3zGJppC3_18tracing_attributes4attr5FieldNtNtB4_5token5CommaE10push_valueBU_, symObjAddr: 0x41C8, symBinAddr: 0x391AC, symSize: 0x1B4 }
  - { offset: 0x7FF07, size: 0x8, addend: 0x0, symName: __RNvMNtCsc29TF2YcYso_3syn10punctuatedINtB2_10PunctuatedNtNtCsemR3zGJppC3_18tracing_attributes4attr5FieldNtNtB4_5token5CommaE17empty_or_trailingBU_, symObjAddr: 0x437C, symBinAddr: 0x39360, symSize: 0x34 }
  - { offset: 0x7FF53, size: 0x8, addend: 0x0, symName: __RNvMNtCsc29TF2YcYso_3syn10punctuatedINtB2_10PunctuatedNtNtCsemR3zGJppC3_18tracing_attributes4attr5FieldNtNtB4_5token5CommaE21parse_terminated_withBU_, symObjAddr: 0x43B0, symBinAddr: 0x39394, symSize: 0x370 }
  - { offset: 0x80058, size: 0x8, addend: 0x0, symName: __RNvMNtCsc29TF2YcYso_3syn10punctuatedINtB2_10PunctuatedNtNtCsemR3zGJppC3_18tracing_attributes4attr5FieldNtNtB4_5token5CommaE3newBU_, symObjAddr: 0x4720, symBinAddr: 0x39704, symSize: 0x54 }
  - { offset: 0x800B9, size: 0x8, addend: 0x0, symName: __RNvMNtCsc29TF2YcYso_3syn10punctuatedINtB2_10PunctuatedNtNtCsemR3zGJppC3_18tracing_attributes4attr5FieldNtNtB4_5token5CommaE4iterBU_, symObjAddr: 0x4774, symBinAddr: 0x39758, symSize: 0xC8 }
  - { offset: 0x8010A, size: 0x8, addend: 0x0, symName: __RNvMNtCsc29TF2YcYso_3syn10punctuatedINtB2_10PunctuatedNtNtCsemR3zGJppC3_18tracing_attributes4attr5FieldNtNtB4_5token5CommaE5pairsBU_, symObjAddr: 0x483C, symBinAddr: 0x39820, symSize: 0x74 }
  - { offset: 0x80193, size: 0x8, addend: 0x0, symName: __RNvMNtCsc29TF2YcYso_3syn10punctuatedINtB2_10PunctuatedNtNtCsemR3zGJppC3_18tracing_attributes4attr5FieldNtNtB4_5token5CommaE8iter_mutBU_, symObjAddr: 0x48B0, symBinAddr: 0x39894, symSize: 0xC8 }
  - { offset: 0x8020B, size: 0x8, addend: 0x0, symName: __RNvMsJ_NtCsc29TF2YcYso_3syn10punctuatedINtB5_4PairQNtNtB7_2ty4TypeQNtNtB7_5token5CommaE9value_mutCsemR3zGJppC3_18tracing_attributes, symObjAddr: 0x4978, symBinAddr: 0x3995C, symSize: 0x74 }
  - { offset: 0x80278, size: 0x8, addend: 0x0, symName: __RNvMsJ_NtCsc29TF2YcYso_3syn10punctuatedINtB5_4PairQNtNtB7_2ty9BareFnArgQNtNtB7_5token5CommaE9value_mutCsemR3zGJppC3_18tracing_attributes, symObjAddr: 0x49EC, symBinAddr: 0x399D0, symSize: 0x74 }
  - { offset: 0x802F2, size: 0x8, addend: 0x0, symName: __RNvMsJ_NtCsc29TF2YcYso_3syn10punctuatedINtB5_4PairQNtNtB7_3pat3PatQNtNtB7_5token2OrE9value_mutCsemR3zGJppC3_18tracing_attributes, symObjAddr: 0x4A60, symBinAddr: 0x39A44, symSize: 0x74 }
  - { offset: 0x80352, size: 0x8, addend: 0x0, symName: __RNvMsJ_NtCsc29TF2YcYso_3syn10punctuatedINtB5_4PairQNtNtB7_3pat3PatQNtNtB7_5token5CommaE9value_mutCsemR3zGJppC3_18tracing_attributes, symObjAddr: 0x4AD4, symBinAddr: 0x39AB8, symSize: 0x74 }
  - { offset: 0x803BF, size: 0x8, addend: 0x0, symName: __RNvMsJ_NtCsc29TF2YcYso_3syn10punctuatedINtB5_4PairQNtNtB7_3pat8FieldPatQNtNtB7_5token5CommaE9value_mutCsemR3zGJppC3_18tracing_attributes, symObjAddr: 0x4B48, symBinAddr: 0x39B2C, symSize: 0x74 }
  - { offset: 0x8042C, size: 0x8, addend: 0x0, symName: __RNvMsJ_NtCsc29TF2YcYso_3syn10punctuatedINtB5_4PairQNtNtB7_4data5FieldQNtNtB7_5token5CommaE9value_mutCsemR3zGJppC3_18tracing_attributes, symObjAddr: 0x4BBC, symBinAddr: 0x39BA0, symSize: 0x74 }
  - { offset: 0x80499, size: 0x8, addend: 0x0, symName: __RNvMsJ_NtCsc29TF2YcYso_3syn10punctuatedINtB5_4PairQNtNtB7_4data7VariantQNtNtB7_5token5CommaE9value_mutCsemR3zGJppC3_18tracing_attributes, symObjAddr: 0x4C30, symBinAddr: 0x39C14, symSize: 0x74 }
  - { offset: 0x80506, size: 0x8, addend: 0x0, symName: __RNvMsJ_NtCsc29TF2YcYso_3syn10punctuatedINtB5_4PairQNtNtB7_4expr10FieldValueQNtNtB7_5token5CommaE9value_mutCsemR3zGJppC3_18tracing_attributes, symObjAddr: 0x4CA4, symBinAddr: 0x39C88, symSize: 0x74 }
  - { offset: 0x80573, size: 0x8, addend: 0x0, symName: __RNvMsJ_NtCsc29TF2YcYso_3syn10punctuatedINtB5_4PairQNtNtB7_4expr4ExprQNtNtB7_5token5CommaE9value_mutCsemR3zGJppC3_18tracing_attributes, symObjAddr: 0x4D18, symBinAddr: 0x39CFC, symSize: 0x74 }
  - { offset: 0x805E0, size: 0x8, addend: 0x0, symName: __RNvMsJ_NtCsc29TF2YcYso_3syn10punctuatedINtB5_4PairQNtNtB7_4item5FnArgQNtNtB7_5token5CommaE9value_mutCsemR3zGJppC3_18tracing_attributes, symObjAddr: 0x4D8C, symBinAddr: 0x39D70, symSize: 0x74 }
  - { offset: 0x8064D, size: 0x8, addend: 0x0, symName: __RNvMsJ_NtCsc29TF2YcYso_3syn10punctuatedINtB5_4PairQNtNtB7_4item7UseTreeQNtNtB7_5token5CommaE9value_mutCsemR3zGJppC3_18tracing_attributes, symObjAddr: 0x4E00, symBinAddr: 0x39DE4, symSize: 0x74 }
  - { offset: 0x806C7, size: 0x8, addend: 0x0, symName: __RNvMsJ_NtCsc29TF2YcYso_3syn10punctuatedINtB5_4PairQNtNtB7_4path11PathSegmentQNtNtB7_5token7PathSepE9value_mutCsemR3zGJppC3_18tracing_attributes, symObjAddr: 0x4E74, symBinAddr: 0x39E58, symSize: 0x74 }
  - { offset: 0x80734, size: 0x8, addend: 0x0, symName: __RNvMsJ_NtCsc29TF2YcYso_3syn10punctuatedINtB5_4PairQNtNtB7_4path15GenericArgumentQNtNtB7_5token5CommaE9value_mutCsemR3zGJppC3_18tracing_attributes, symObjAddr: 0x4EE8, symBinAddr: 0x39ECC, symSize: 0x74 }
  - { offset: 0x807A1, size: 0x8, addend: 0x0, symName: __RNvMsJ_NtCsc29TF2YcYso_3syn10punctuatedINtB5_4PairQNtNtB7_8generics12GenericParamQNtNtB7_5token5CommaE9value_mutCsemR3zGJppC3_18tracing_attributes, symObjAddr: 0x4F5C, symBinAddr: 0x39F40, symSize: 0x74 }
  - { offset: 0x8080E, size: 0x8, addend: 0x0, symName: __RNvMsJ_NtCsc29TF2YcYso_3syn10punctuatedINtB5_4PairQNtNtB7_8generics13CapturedParamQNtNtB7_5token5CommaE9value_mutCsemR3zGJppC3_18tracing_attributes, symObjAddr: 0x4FD0, symBinAddr: 0x39FB4, symSize: 0x74 }
  - { offset: 0x80888, size: 0x8, addend: 0x0, symName: __RNvMsJ_NtCsc29TF2YcYso_3syn10punctuatedINtB5_4PairQNtNtB7_8generics14TypeParamBoundQNtNtB7_5token4PlusE9value_mutCsemR3zGJppC3_18tracing_attributes, symObjAddr: 0x5044, symBinAddr: 0x3A028, symSize: 0x74 }
  - { offset: 0x808F5, size: 0x8, addend: 0x0, symName: __RNvMsJ_NtCsc29TF2YcYso_3syn10punctuatedINtB5_4PairQNtNtB7_8generics14WherePredicateQNtNtB7_5token5CommaE9value_mutCsemR3zGJppC3_18tracing_attributes, symObjAddr: 0x50B8, symBinAddr: 0x3A09C, symSize: 0x74 }
  - { offset: 0x80962, size: 0x8, addend: 0x0, symName: __RNvMsJ_NtCsc29TF2YcYso_3syn10punctuatedINtB5_4PairQNtNtB7_8lifetime8LifetimeQNtNtB7_5token4PlusE9value_mutCsemR3zGJppC3_18tracing_attributes, symObjAddr: 0x512C, symBinAddr: 0x3A110, symSize: 0x74 }
  - { offset: 0x809C4, size: 0x8, addend: 0x0, symName: __RNvXNtCs4EAaWzSXu1l_5quote9to_tokensRINtNtCsc29TF2YcYso_3syn10punctuated10PunctuatedNtCshnvkK9b4wzu_11proc_macro25IdentNtNtBE_5token3DotENtB2_8ToTokens9to_tokensCsemR3zGJppC3_18tracing_attributes, symObjAddr: 0x51A0, symBinAddr: 0x3A184, symSize: 0x40 }
  - { offset: 0x80A03, size: 0x8, addend: 0x0, symName: __RNvXNtCs4EAaWzSXu1l_5quote9to_tokensRINtNtCsc29TF2YcYso_3syn10punctuated10PunctuatedNtNtBE_8generics12GenericParamNtNtBE_5token5CommaENtB2_8ToTokens9to_tokensCsemR3zGJppC3_18tracing_attributes, symObjAddr: 0x51E0, symBinAddr: 0x3A1C4, symSize: 0x40 }
  - { offset: 0x811CC, size: 0x8, addend: 0x0, symName: __RINvMNtCsaNl6UpbT7bw_4core6optionINtB3_6OptionINtNtCsc29TF2YcYso_3syn10punctuated4PairQNtNtBN_2ty4TypeQNtNtBN_5token5CommaEE7or_elseNCNvXsg_BL_INtBL_8PairsMutB1n_B1D_ENtNtNtNtB5_4iter6traits8iterator8Iterator4nexts_0ECsemR3zGJppC3_18tracing_attributes, symObjAddr: 0x0, symBinAddr: 0x3C9DC, symSize: 0xB4 }
  - { offset: 0x81599, size: 0x8, addend: 0x0, symName: __RNvXsR_NtCs7yrEGia95Wz_10proc_macro6bridgeINtNtCsaNl6UpbT7bw_4core6option6OptionNtNtB5_6client11TokenStreamEINtNtB5_3rpc6EncodeuE6encodeCsemR3zGJppC3_18tracing_attributes, symObjAddr: 0x4C3C, symBinAddr: 0x41618, symSize: 0xCC }
  - { offset: 0x8163F, size: 0x8, addend: 0x0, symName: __RNvXsR_NtCs7yrEGia95Wz_10proc_macro6bridgeINtNtCsaNl6UpbT7bw_4core6option6OptionReEINtNtB5_3rpc6EncodeuE6encodeCsemR3zGJppC3_18tracing_attributes, symObjAddr: 0x4D08, symBinAddr: 0x416E4, symSize: 0xD8 }
  - { offset: 0x882E4, size: 0x8, addend: 0x0, symName: __RNvXs3_NtCsaNl6UpbT7bw_4core6optionINtB5_6OptionINtNtCsiTraAjBDcu4_5alloc5boxed3BoxNtCshnvkK9b4wzu_11proc_macro25IdentEENtNtB7_5clone5Clone5cloneCsemR3zGJppC3_18tracing_attributes, symObjAddr: 0x453C, symBinAddr: 0x40F18, symSize: 0x5C }
  - { offset: 0x88339, size: 0x8, addend: 0x0, symName: __RNvXs3_NtCsaNl6UpbT7bw_4core6optionINtB5_6OptionINtNtCsiTraAjBDcu4_5alloc5boxed3BoxNtNtCsemR3zGJppC3_18tracing_attributes4attr5FieldEENtNtB7_5clone5Clone5cloneB1n_, symObjAddr: 0x4598, symBinAddr: 0x40F74, symSize: 0x5C }
  - { offset: 0x8838E, size: 0x8, addend: 0x0, symName: __RNvXs3_NtCsaNl6UpbT7bw_4core6optionINtB5_6OptionNtNtCsemR3zGJppC3_18tracing_attributes4attr13LitStrOrIdentENtNtB7_5clone5Clone5cloneBO_, symObjAddr: 0x45F4, symBinAddr: 0x40FD0, symSize: 0x78 }
  - { offset: 0x883E3, size: 0x8, addend: 0x0, symName: __RNvXs3_NtCsaNl6UpbT7bw_4core6optionINtB5_6OptionNtNtCsemR3zGJppC3_18tracing_attributes4attr5LevelENtNtB7_5clone5Clone5cloneBO_, symObjAddr: 0x466C, symBinAddr: 0x41048, symSize: 0x88 }
  - { offset: 0x88438, size: 0x8, addend: 0x0, symName: __RNvXs3_NtCsaNl6UpbT7bw_4core6optionINtB5_6OptionNtNtCsemR3zGJppC3_18tracing_attributes4attr6FieldsENtNtB7_5clone5Clone5cloneBO_, symObjAddr: 0x46F4, symBinAddr: 0x410D0, symSize: 0x7C }
  - { offset: 0x8848D, size: 0x8, addend: 0x0, symName: __RNvXs3_NtCsaNl6UpbT7bw_4core6optionINtB5_6OptionNtNtCsemR3zGJppC3_18tracing_attributes4attr9EventArgsENtNtB7_5clone5Clone5cloneBO_, symObjAddr: 0x4770, symBinAddr: 0x4114C, symSize: 0x88 }
  - { offset: 0x88554, size: 0x8, addend: 0x0, symName: __RNvXs5_NtCsaNl6UpbT7bw_4core6optionINtB5_6OptionNtNtCsc29TF2YcYso_3syn4expr4ExprENtNtB7_7default7Default7defaultCsemR3zGJppC3_18tracing_attributes, symObjAddr: 0x47F8, symBinAddr: 0x411D4, symSize: 0x10 }
  - { offset: 0x8857C, size: 0x8, addend: 0x0, symName: __RNvXs5_NtCsaNl6UpbT7bw_4core6optionINtB5_6OptionNtNtCsemR3zGJppC3_18tracing_attributes4attr13LitStrOrIdentENtNtB7_7default7Default7defaultBO_, symObjAddr: 0x4808, symBinAddr: 0x411E4, symSize: 0x10 }
  - { offset: 0x885A4, size: 0x8, addend: 0x0, symName: __RNvXs5_NtCsaNl6UpbT7bw_4core6optionINtB5_6OptionNtNtCsemR3zGJppC3_18tracing_attributes4attr5LevelENtNtB7_7default7Default7defaultBO_, symObjAddr: 0x4818, symBinAddr: 0x411F4, symSize: 0x14 }
  - { offset: 0x885CC, size: 0x8, addend: 0x0, symName: __RNvXs5_NtCsaNl6UpbT7bw_4core6optionINtB5_6OptionNtNtCsemR3zGJppC3_18tracing_attributes4attr6FieldsENtNtB7_7default7Default7defaultBO_, symObjAddr: 0x482C, symBinAddr: 0x41208, symSize: 0x10 }
  - { offset: 0x885F4, size: 0x8, addend: 0x0, symName: __RNvXs5_NtCsaNl6UpbT7bw_4core6optionINtB5_6OptionNtNtCsemR3zGJppC3_18tracing_attributes4attr9EventArgsENtNtB7_7default7Default7defaultBO_, symObjAddr: 0x483C, symBinAddr: 0x41218, symSize: 0x14 }
  - { offset: 0x88622, size: 0x8, addend: 0x0, symName: __RNvXs6_NtCsaNl6UpbT7bw_4core6optionINtB5_6OptionNtCshnvkK9b4wzu_11proc_macro25IdentENtNtNtNtB7_4iter6traits7collect12IntoIterator9into_iterCsemR3zGJppC3_18tracing_attributes, symObjAddr: 0x4850, symBinAddr: 0x4122C, symSize: 0x30 }
  - { offset: 0x88659, size: 0x8, addend: 0x0, symName: __RNvXs6_NtCsaNl6UpbT7bw_4core6optionINtB5_6OptionNtNtCsc29TF2YcYso_3syn3pat3PatENtNtNtNtB7_4iter6traits7collect12IntoIterator9into_iterCsemR3zGJppC3_18tracing_attributes, symObjAddr: 0x4880, symBinAddr: 0x4125C, symSize: 0x48 }
  - { offset: 0x88691, size: 0x8, addend: 0x0, symName: __RNvXs6_NtCsaNl6UpbT7bw_4core6optionINtB5_6OptionNtNtCsc29TF2YcYso_3syn3pat8FieldPatENtNtNtNtB7_4iter6traits7collect12IntoIterator9into_iterCsemR3zGJppC3_18tracing_attributes, symObjAddr: 0x48C8, symBinAddr: 0x412A4, symSize: 0x48 }
  - { offset: 0x886C9, size: 0x8, addend: 0x0, symName: __RNvXs6_NtCsaNl6UpbT7bw_4core6optionINtB5_6OptionNtNtCsc29TF2YcYso_3syn4item5FnArgENtNtNtNtB7_4iter6traits7collect12IntoIterator9into_iterCsemR3zGJppC3_18tracing_attributes, symObjAddr: 0x4910, symBinAddr: 0x412EC, symSize: 0x48 }
  - { offset: 0x88701, size: 0x8, addend: 0x0, symName: __RNvXs6_NtCsaNl6UpbT7bw_4core6optionINtB5_6OptionQNtNtCsc29TF2YcYso_3syn2ty4TypeENtNtNtNtB7_4iter6traits7collect12IntoIterator9into_iterCsemR3zGJppC3_18tracing_attributes, symObjAddr: 0x4958, symBinAddr: 0x41334, symSize: 0x14 }
  - { offset: 0x88738, size: 0x8, addend: 0x0, symName: __RNvXs6_NtCsaNl6UpbT7bw_4core6optionINtB5_6OptionQNtNtCsc29TF2YcYso_3syn2ty9BareFnArgENtNtNtNtB7_4iter6traits7collect12IntoIterator9into_iterCsemR3zGJppC3_18tracing_attributes, symObjAddr: 0x496C, symBinAddr: 0x41348, symSize: 0x14 }
  - { offset: 0x8876F, size: 0x8, addend: 0x0, symName: __RNvXs6_NtCsaNl6UpbT7bw_4core6optionINtB5_6OptionQNtNtCsc29TF2YcYso_3syn3pat3PatENtNtNtNtB7_4iter6traits7collect12IntoIterator9into_iterCsemR3zGJppC3_18tracing_attributes, symObjAddr: 0x4980, symBinAddr: 0x4135C, symSize: 0x14 }
  - { offset: 0x887A6, size: 0x8, addend: 0x0, symName: __RNvXs6_NtCsaNl6UpbT7bw_4core6optionINtB5_6OptionQNtNtCsc29TF2YcYso_3syn3pat8FieldPatENtNtNtNtB7_4iter6traits7collect12IntoIterator9into_iterCsemR3zGJppC3_18tracing_attributes, symObjAddr: 0x4994, symBinAddr: 0x41370, symSize: 0x14 }
  - { offset: 0x887DD, size: 0x8, addend: 0x0, symName: __RNvXs6_NtCsaNl6UpbT7bw_4core6optionINtB5_6OptionQNtNtCsc29TF2YcYso_3syn4data7VariantENtNtNtNtB7_4iter6traits7collect12IntoIterator9into_iterCsemR3zGJppC3_18tracing_attributes, symObjAddr: 0x49A8, symBinAddr: 0x41384, symSize: 0x14 }
  - { offset: 0x88814, size: 0x8, addend: 0x0, symName: __RNvXs6_NtCsaNl6UpbT7bw_4core6optionINtB5_6OptionQNtNtCsc29TF2YcYso_3syn4expr10FieldValueENtNtNtNtB7_4iter6traits7collect12IntoIterator9into_iterCsemR3zGJppC3_18tracing_attributes, symObjAddr: 0x49BC, symBinAddr: 0x41398, symSize: 0x14 }
  - { offset: 0x8884B, size: 0x8, addend: 0x0, symName: __RNvXs6_NtCsaNl6UpbT7bw_4core6optionINtB5_6OptionQNtNtCsc29TF2YcYso_3syn4expr4ExprENtNtNtNtB7_4iter6traits7collect12IntoIterator9into_iterCsemR3zGJppC3_18tracing_attributes, symObjAddr: 0x49D0, symBinAddr: 0x413AC, symSize: 0x14 }
  - { offset: 0x88882, size: 0x8, addend: 0x0, symName: __RNvXs6_NtCsaNl6UpbT7bw_4core6optionINtB5_6OptionQNtNtCsc29TF2YcYso_3syn4item5FnArgENtNtNtNtB7_4iter6traits7collect12IntoIterator9into_iterCsemR3zGJppC3_18tracing_attributes, symObjAddr: 0x49E4, symBinAddr: 0x413C0, symSize: 0x14 }
  - { offset: 0x888B9, size: 0x8, addend: 0x0, symName: __RNvXs6_NtCsaNl6UpbT7bw_4core6optionINtB5_6OptionQNtNtCsc29TF2YcYso_3syn4item7UseTreeENtNtNtNtB7_4iter6traits7collect12IntoIterator9into_iterCsemR3zGJppC3_18tracing_attributes, symObjAddr: 0x49F8, symBinAddr: 0x413D4, symSize: 0x14 }
  - { offset: 0x888F0, size: 0x8, addend: 0x0, symName: __RNvXs6_NtCsaNl6UpbT7bw_4core6optionINtB5_6OptionQNtNtCsc29TF2YcYso_3syn4path15GenericArgumentENtNtNtNtB7_4iter6traits7collect12IntoIterator9into_iterCsemR3zGJppC3_18tracing_attributes, symObjAddr: 0x4A0C, symBinAddr: 0x413E8, symSize: 0x14 }
  - { offset: 0x88927, size: 0x8, addend: 0x0, symName: __RNvXs6_NtCsaNl6UpbT7bw_4core6optionINtB5_6OptionQNtNtCsc29TF2YcYso_3syn8generics13CapturedParamENtNtNtNtB7_4iter6traits7collect12IntoIterator9into_iterCsemR3zGJppC3_18tracing_attributes, symObjAddr: 0x4A20, symBinAddr: 0x413FC, symSize: 0x14 }
  - { offset: 0x8895E, size: 0x8, addend: 0x0, symName: __RNvXs6_NtCsaNl6UpbT7bw_4core6optionINtB5_6OptionQNtNtCsc29TF2YcYso_3syn8generics14TypeParamBoundENtNtNtNtB7_4iter6traits7collect12IntoIterator9into_iterCsemR3zGJppC3_18tracing_attributes, symObjAddr: 0x4A34, symBinAddr: 0x41410, symSize: 0x14 }
  - { offset: 0x88995, size: 0x8, addend: 0x0, symName: __RNvXs6_NtCsaNl6UpbT7bw_4core6optionINtB5_6OptionQNtNtCsc29TF2YcYso_3syn8generics14WherePredicateENtNtNtNtB7_4iter6traits7collect12IntoIterator9into_iterCsemR3zGJppC3_18tracing_attributes, symObjAddr: 0x4A48, symBinAddr: 0x41424, symSize: 0x14 }
  - { offset: 0x889CC, size: 0x8, addend: 0x0, symName: __RNvXs6_NtCsaNl6UpbT7bw_4core6optionINtB5_6OptionQNtNtCsc29TF2YcYso_3syn8lifetime8LifetimeENtNtNtNtB7_4iter6traits7collect12IntoIterator9into_iterCsemR3zGJppC3_18tracing_attributes, symObjAddr: 0x4A5C, symBinAddr: 0x41438, symSize: 0x14 }
  - { offset: 0x88A03, size: 0x8, addend: 0x0, symName: __RNvXs6_NtCsaNl6UpbT7bw_4core6optionINtB5_6OptionQNtNtCsemR3zGJppC3_18tracing_attributes4attr5FieldENtNtNtNtB7_4iter6traits7collect12IntoIterator9into_iterBP_, symObjAddr: 0x4A70, symBinAddr: 0x4144C, symSize: 0x14 }
  - { offset: 0x88A3A, size: 0x8, addend: 0x0, symName: __RNvXs6_NtCsaNl6UpbT7bw_4core6optionINtB5_6OptionRNtCshnvkK9b4wzu_11proc_macro25IdentENtNtNtNtB7_4iter6traits7collect12IntoIterator9into_iterCsemR3zGJppC3_18tracing_attributes, symObjAddr: 0x4A84, symBinAddr: 0x41460, symSize: 0x14 }
  - { offset: 0x88A71, size: 0x8, addend: 0x0, symName: __RNvXs6_NtCsaNl6UpbT7bw_4core6optionINtB5_6OptionRNtNtCsemR3zGJppC3_18tracing_attributes4attr5FieldENtNtNtNtB7_4iter6traits7collect12IntoIterator9into_iterBP_, symObjAddr: 0x4A98, symBinAddr: 0x41474, symSize: 0x14 }
  - { offset: 0x88AAE, size: 0x8, addend: 0x0, symName: __RNvXsC_NtCsaNl6UpbT7bw_4core6optionINtB5_6OptionTRNtNtCsc29TF2YcYso_3syn4stmt4StmtRNtNtBQ_4expr4ExprEENtNtNtB7_3ops9try_trait3Try6branchCsemR3zGJppC3_18tracing_attributes, symObjAddr: 0x4AAC, symBinAddr: 0x41488, symSize: 0x54 }
  - { offset: 0x88B03, size: 0x8, addend: 0x0, symName: __RNvXsC_NtCsaNl6UpbT7bw_4core6optionINtB5_6OptionTRNtNtCsc29TF2YcYso_3syn4stmt4StmtRNtNtBQ_4item6ItemFnEENtNtNtB7_3ops9try_trait3Try6branchCsemR3zGJppC3_18tracing_attributes, symObjAddr: 0x4B00, symBinAddr: 0x414DC, symSize: 0x54 }
  - { offset: 0x88B5E, size: 0x8, addend: 0x0, symName: __RNvXsD_NtCsaNl6UpbT7bw_4core6optionINtB5_6OptionNtNtCsemR3zGJppC3_18tracing_attributes6expand9AsyncInfoEINtNtNtB7_3ops9try_trait12FromResidualIBy_NtNtB7_7convert10InfallibleEE13from_residualBO_, symObjAddr: 0x4B54, symBinAddr: 0x41530, symSize: 0x18 }
  - { offset: 0x88BEB, size: 0x8, addend: 0x0, symName: __RNvXsP_NtCsaNl6UpbT7bw_4core6optionINtB5_8IntoIterRNtCshnvkK9b4wzu_11proc_macro25IdentENtNtB7_5clone5Clone5cloneCsemR3zGJppC3_18tracing_attributes, symObjAddr: 0x4B6C, symBinAddr: 0x41548, symSize: 0x68 }
  - { offset: 0x88C92, size: 0x8, addend: 0x0, symName: __RNvXsP_NtCsaNl6UpbT7bw_4core6optionINtB5_8IntoIterRNtNtCsemR3zGJppC3_18tracing_attributes4attr5FieldENtNtB7_5clone5Clone5cloneBR_, symObjAddr: 0x4BD4, symBinAddr: 0x415B0, symSize: 0x68 }
  - { offset: 0x88D3F, size: 0x8, addend: 0x0, symName: __RNvXsd_NtCsaNl6UpbT7bw_4core6optionINtB5_6OptionRNtCshnvkK9b4wzu_11proc_macro25IdentENtNtB7_3cmp9PartialEq2eqCsemR3zGJppC3_18tracing_attributes, symObjAddr: 0x4DE0, symBinAddr: 0x417BC, symSize: 0xAC }
  - { offset: 0x891D6, size: 0x8, addend: 0x0, symName: __RNvXsl_NtCsaNl6UpbT7bw_4core6optionINtB5_4IterNtNtCsc29TF2YcYso_3syn4expr4ExprENtNtNtNtB7_4iter6traits8iterator8Iterator4nextCsemR3zGJppC3_18tracing_attributes, symObjAddr: 0x4E8C, symBinAddr: 0x41868, symSize: 0x20 }
  - { offset: 0x8924E, size: 0x8, addend: 0x0, symName: __RNvXsl_NtCsaNl6UpbT7bw_4core6optionINtB5_4IterRNtCshnvkK9b4wzu_11proc_macro25IdentENtNtNtNtB7_4iter6traits8iterator8Iterator4nextCsemR3zGJppC3_18tracing_attributes, symObjAddr: 0x4EAC, symBinAddr: 0x41888, symSize: 0x20 }
  - { offset: 0x892CC, size: 0x8, addend: 0x0, symName: __RNvXsw_NtCsaNl6UpbT7bw_4core6optionINtB5_8IntoIterNtCshnvkK9b4wzu_11proc_macro25IdentENtNtNtNtB7_4iter6traits8iterator8Iterator4nextCsemR3zGJppC3_18tracing_attributes, symObjAddr: 0x4ECC, symBinAddr: 0x418A8, symSize: 0x40 }
  - { offset: 0x89344, size: 0x8, addend: 0x0, symName: __RNvXsw_NtCsaNl6UpbT7bw_4core6optionINtB5_8IntoIterNtCshnvkK9b4wzu_11proc_macro25IdentENtNtNtNtB7_4iter6traits8iterator8Iterator9size_hintCsemR3zGJppC3_18tracing_attributes, symObjAddr: 0x4F0C, symBinAddr: 0x418E8, symSize: 0x44 }
  - { offset: 0x893BC, size: 0x8, addend: 0x0, symName: __RNvXsw_NtCsaNl6UpbT7bw_4core6optionINtB5_8IntoIterNtNtCsc29TF2YcYso_3syn3pat3PatENtNtNtNtB7_4iter6traits8iterator8Iterator4nextCsemR3zGJppC3_18tracing_attributes, symObjAddr: 0x4F50, symBinAddr: 0x4192C, symSize: 0x64 }
  - { offset: 0x89434, size: 0x8, addend: 0x0, symName: __RNvXsw_NtCsaNl6UpbT7bw_4core6optionINtB5_8IntoIterNtNtCsc29TF2YcYso_3syn3pat3PatENtNtNtNtB7_4iter6traits8iterator8Iterator9size_hintCsemR3zGJppC3_18tracing_attributes, symObjAddr: 0x4FB4, symBinAddr: 0x41990, symSize: 0x4C }
  - { offset: 0x894AC, size: 0x8, addend: 0x0, symName: __RNvXsw_NtCsaNl6UpbT7bw_4core6optionINtB5_8IntoIterNtNtCsc29TF2YcYso_3syn3pat8FieldPatENtNtNtNtB7_4iter6traits8iterator8Iterator4nextCsemR3zGJppC3_18tracing_attributes, symObjAddr: 0x5000, symBinAddr: 0x419DC, symSize: 0x60 }
  - { offset: 0x89524, size: 0x8, addend: 0x0, symName: __RNvXsw_NtCsaNl6UpbT7bw_4core6optionINtB5_8IntoIterNtNtCsc29TF2YcYso_3syn3pat8FieldPatENtNtNtNtB7_4iter6traits8iterator8Iterator9size_hintCsemR3zGJppC3_18tracing_attributes, symObjAddr: 0x5060, symBinAddr: 0x41A3C, symSize: 0x48 }
  - { offset: 0x8959C, size: 0x8, addend: 0x0, symName: __RNvXsw_NtCsaNl6UpbT7bw_4core6optionINtB5_8IntoIterNtNtCsc29TF2YcYso_3syn4item5FnArgENtNtNtNtB7_4iter6traits8iterator8Iterator4nextCsemR3zGJppC3_18tracing_attributes, symObjAddr: 0x50A8, symBinAddr: 0x41A84, symSize: 0x60 }
  - { offset: 0x89614, size: 0x8, addend: 0x0, symName: __RNvXsw_NtCsaNl6UpbT7bw_4core6optionINtB5_8IntoIterNtNtCsc29TF2YcYso_3syn4item5FnArgENtNtNtNtB7_4iter6traits8iterator8Iterator9size_hintCsemR3zGJppC3_18tracing_attributes, symObjAddr: 0x5108, symBinAddr: 0x41AE4, symSize: 0x48 }
  - { offset: 0x8968C, size: 0x8, addend: 0x0, symName: __RNvXsw_NtCsaNl6UpbT7bw_4core6optionINtB5_8IntoIterQNtNtCsc29TF2YcYso_3syn2ty4TypeENtNtNtNtB7_4iter6traits8iterator8Iterator4nextCsemR3zGJppC3_18tracing_attributes, symObjAddr: 0x5150, symBinAddr: 0x41B2C, symSize: 0x28 }
  - { offset: 0x89704, size: 0x8, addend: 0x0, symName: __RNvXsw_NtCsaNl6UpbT7bw_4core6optionINtB5_8IntoIterQNtNtCsc29TF2YcYso_3syn2ty9BareFnArgENtNtNtNtB7_4iter6traits8iterator8Iterator4nextCsemR3zGJppC3_18tracing_attributes, symObjAddr: 0x5178, symBinAddr: 0x41B54, symSize: 0x28 }
  - { offset: 0x8977C, size: 0x8, addend: 0x0, symName: __RNvXsw_NtCsaNl6UpbT7bw_4core6optionINtB5_8IntoIterQNtNtCsc29TF2YcYso_3syn3pat3PatENtNtNtNtB7_4iter6traits8iterator8Iterator4nextCsemR3zGJppC3_18tracing_attributes, symObjAddr: 0x51A0, symBinAddr: 0x41B7C, symSize: 0x28 }
  - { offset: 0x897F4, size: 0x8, addend: 0x0, symName: __RNvXsw_NtCsaNl6UpbT7bw_4core6optionINtB5_8IntoIterQNtNtCsc29TF2YcYso_3syn3pat8FieldPatENtNtNtNtB7_4iter6traits8iterator8Iterator4nextCsemR3zGJppC3_18tracing_attributes, symObjAddr: 0x51C8, symBinAddr: 0x41BA4, symSize: 0x28 }
  - { offset: 0x8986C, size: 0x8, addend: 0x0, symName: __RNvXsw_NtCsaNl6UpbT7bw_4core6optionINtB5_8IntoIterQNtNtCsc29TF2YcYso_3syn4data7VariantENtNtNtNtB7_4iter6traits8iterator8Iterator4nextCsemR3zGJppC3_18tracing_attributes, symObjAddr: 0x51F0, symBinAddr: 0x41BCC, symSize: 0x28 }
  - { offset: 0x898E4, size: 0x8, addend: 0x0, symName: __RNvXsw_NtCsaNl6UpbT7bw_4core6optionINtB5_8IntoIterQNtNtCsc29TF2YcYso_3syn4expr10FieldValueENtNtNtNtB7_4iter6traits8iterator8Iterator4nextCsemR3zGJppC3_18tracing_attributes, symObjAddr: 0x5218, symBinAddr: 0x41BF4, symSize: 0x28 }
  - { offset: 0x8995C, size: 0x8, addend: 0x0, symName: __RNvXsw_NtCsaNl6UpbT7bw_4core6optionINtB5_8IntoIterQNtNtCsc29TF2YcYso_3syn4expr4ExprENtNtNtNtB7_4iter6traits8iterator8Iterator4nextCsemR3zGJppC3_18tracing_attributes, symObjAddr: 0x5240, symBinAddr: 0x41C1C, symSize: 0x28 }
  - { offset: 0x899D4, size: 0x8, addend: 0x0, symName: __RNvXsw_NtCsaNl6UpbT7bw_4core6optionINtB5_8IntoIterQNtNtCsc29TF2YcYso_3syn4item5FnArgENtNtNtNtB7_4iter6traits8iterator8Iterator4nextCsemR3zGJppC3_18tracing_attributes, symObjAddr: 0x5268, symBinAddr: 0x41C44, symSize: 0x28 }
  - { offset: 0x89A4C, size: 0x8, addend: 0x0, symName: __RNvXsw_NtCsaNl6UpbT7bw_4core6optionINtB5_8IntoIterQNtNtCsc29TF2YcYso_3syn4item7UseTreeENtNtNtNtB7_4iter6traits8iterator8Iterator4nextCsemR3zGJppC3_18tracing_attributes, symObjAddr: 0x5290, symBinAddr: 0x41C6C, symSize: 0x28 }
  - { offset: 0x89AC4, size: 0x8, addend: 0x0, symName: __RNvXsw_NtCsaNl6UpbT7bw_4core6optionINtB5_8IntoIterQNtNtCsc29TF2YcYso_3syn4path15GenericArgumentENtNtNtNtB7_4iter6traits8iterator8Iterator4nextCsemR3zGJppC3_18tracing_attributes, symObjAddr: 0x52B8, symBinAddr: 0x41C94, symSize: 0x28 }
  - { offset: 0x89B3C, size: 0x8, addend: 0x0, symName: __RNvXsw_NtCsaNl6UpbT7bw_4core6optionINtB5_8IntoIterQNtNtCsc29TF2YcYso_3syn8generics13CapturedParamENtNtNtNtB7_4iter6traits8iterator8Iterator4nextCsemR3zGJppC3_18tracing_attributes, symObjAddr: 0x52E0, symBinAddr: 0x41CBC, symSize: 0x28 }
  - { offset: 0x89BB4, size: 0x8, addend: 0x0, symName: __RNvXsw_NtCsaNl6UpbT7bw_4core6optionINtB5_8IntoIterQNtNtCsc29TF2YcYso_3syn8generics14TypeParamBoundENtNtNtNtB7_4iter6traits8iterator8Iterator4nextCsemR3zGJppC3_18tracing_attributes, symObjAddr: 0x5308, symBinAddr: 0x41CE4, symSize: 0x28 }
  - { offset: 0x89C2C, size: 0x8, addend: 0x0, symName: __RNvXsw_NtCsaNl6UpbT7bw_4core6optionINtB5_8IntoIterQNtNtCsc29TF2YcYso_3syn8generics14WherePredicateENtNtNtNtB7_4iter6traits8iterator8Iterator4nextCsemR3zGJppC3_18tracing_attributes, symObjAddr: 0x5330, symBinAddr: 0x41D0C, symSize: 0x28 }
  - { offset: 0x89CA4, size: 0x8, addend: 0x0, symName: __RNvXsw_NtCsaNl6UpbT7bw_4core6optionINtB5_8IntoIterQNtNtCsc29TF2YcYso_3syn8lifetime8LifetimeENtNtNtNtB7_4iter6traits8iterator8Iterator4nextCsemR3zGJppC3_18tracing_attributes, symObjAddr: 0x5358, symBinAddr: 0x41D34, symSize: 0x28 }
  - { offset: 0x89D1C, size: 0x8, addend: 0x0, symName: __RNvXsw_NtCsaNl6UpbT7bw_4core6optionINtB5_8IntoIterQNtNtCsemR3zGJppC3_18tracing_attributes4attr5FieldENtNtNtNtB7_4iter6traits8iterator8Iterator4nextBR_, symObjAddr: 0x5380, symBinAddr: 0x41D5C, symSize: 0x28 }
  - { offset: 0x89D94, size: 0x8, addend: 0x0, symName: __RNvXsw_NtCsaNl6UpbT7bw_4core6optionINtB5_8IntoIterQNtNtCsemR3zGJppC3_18tracing_attributes4attr5FieldENtNtNtNtB7_4iter6traits8iterator8Iterator9size_hintBR_, symObjAddr: 0x53A8, symBinAddr: 0x41D84, symSize: 0x44 }
  - { offset: 0x89E0C, size: 0x8, addend: 0x0, symName: __RNvXsw_NtCsaNl6UpbT7bw_4core6optionINtB5_8IntoIterRNtCshnvkK9b4wzu_11proc_macro25IdentENtNtNtNtB7_4iter6traits8iterator8Iterator4nextCsemR3zGJppC3_18tracing_attributes, symObjAddr: 0x53EC, symBinAddr: 0x41DC8, symSize: 0x28 }
  - { offset: 0x89E84, size: 0x8, addend: 0x0, symName: __RNvXsw_NtCsaNl6UpbT7bw_4core6optionINtB5_8IntoIterRNtCshnvkK9b4wzu_11proc_macro25IdentENtNtNtNtB7_4iter6traits8iterator8Iterator9size_hintCsemR3zGJppC3_18tracing_attributes, symObjAddr: 0x5414, symBinAddr: 0x41DF0, symSize: 0x44 }
  - { offset: 0x89EFC, size: 0x8, addend: 0x0, symName: __RNvXsw_NtCsaNl6UpbT7bw_4core6optionINtB5_8IntoIterRNtNtCsemR3zGJppC3_18tracing_attributes4attr5FieldENtNtNtNtB7_4iter6traits8iterator8Iterator4nextBR_, symObjAddr: 0x5458, symBinAddr: 0x41E34, symSize: 0x28 }
  - { offset: 0x89F74, size: 0x8, addend: 0x0, symName: __RNvXsw_NtCsaNl6UpbT7bw_4core6optionINtB5_8IntoIterRNtNtCsemR3zGJppC3_18tracing_attributes4attr5FieldENtNtNtNtB7_4iter6traits8iterator8Iterator9size_hintBR_, symObjAddr: 0x5480, symBinAddr: 0x41E5C, symSize: 0x44 }
  - { offset: 0x8A9AA, size: 0x8, addend: 0x0, symName: __RINvYINtNtCsaNl6UpbT7bw_4core6option4IterRNtCshnvkK9b4wzu_11proc_macro25IdentENtNtNtNtB8_4iter6traits8iterator8Iterator3anyNCNCNCNCINvNtCsemR3zGJppC3_18tracing_attributes6expand9gen_blockNtBG_11TokenStreamEs0_0s2_000EB2a_, symObjAddr: 0x2EA8, symBinAddr: 0x3F884, symSize: 0x44 }
  - { offset: 0x8A9F9, size: 0x8, addend: 0x0, symName: __RINvYINtNtCsaNl6UpbT7bw_4core6option4IterRNtCshnvkK9b4wzu_11proc_macro25IdentENtNtNtNtB8_4iter6traits8iterator8Iterator3anyNCNCNCNCINvNtCsemR3zGJppC3_18tracing_attributes6expand9gen_blockNtNtCsc29TF2YcYso_3syn4stmt5BlockEs0_0s2_000EB2a_, symObjAddr: 0x2EEC, symBinAddr: 0x3F8C8, symSize: 0x44 }
  - { offset: 0x8AA48, size: 0x8, addend: 0x0, symName: __RINvYINtNtCsaNl6UpbT7bw_4core6option4IterRNtCshnvkK9b4wzu_11proc_macro25IdentENtNtNtNtB8_4iter6traits8iterator8Iterator8try_folduNCINvNvB1e_3any5checkRBD_NCNCNCNCINvNtCsemR3zGJppC3_18tracing_attributes6expand9gen_blockNtBG_11TokenStreamEs0_0s2_000E0INtNtNtB8_3ops12control_flow11ControlFlowuEEB2F_, symObjAddr: 0x2F30, symBinAddr: 0x3F90C, symSize: 0x12C }
  - { offset: 0x8AAFA, size: 0x8, addend: 0x0, symName: __RINvYINtNtCsaNl6UpbT7bw_4core6option4IterRNtCshnvkK9b4wzu_11proc_macro25IdentENtNtNtNtB8_4iter6traits8iterator8Iterator8try_folduNCINvNvB1e_3any5checkRBD_NCNCNCNCINvNtCsemR3zGJppC3_18tracing_attributes6expand9gen_blockNtNtCsc29TF2YcYso_3syn4stmt5BlockEs0_0s2_000E0INtNtNtB8_3ops12control_flow11ControlFlowuEEB2F_, symObjAddr: 0x305C, symBinAddr: 0x3FA38, symSize: 0x12C }
  - { offset: 0x8ABAC, size: 0x8, addend: 0x0, symName: __RINvYINtNtCsaNl6UpbT7bw_4core6option8IntoIterNtCshnvkK9b4wzu_11proc_macro25IdentENtNtNtNtB8_4iter6traits8iterator8Iterator4folduNCINvNvB1h_8for_each4callBH_NCINvMsi_NtCsiTraAjBDcu4_5alloc3vecINtB2D_3VecBH_E14extend_trustedB3_E0E0ECsemR3zGJppC3_18tracing_attributes, symObjAddr: 0x3188, symBinAddr: 0x3FB64, symSize: 0x128 }
  - { offset: 0x8AD56, size: 0x8, addend: 0x0, symName: __RINvYINtNtCsaNl6UpbT7bw_4core6option8IntoIterNtCshnvkK9b4wzu_11proc_macro25IdentENtNtNtNtB8_4iter6traits8iterator8Iterator8for_eachNCINvMsi_NtCsiTraAjBDcu4_5alloc3vecINtB2e_3VecBH_E14extend_trustedB3_E0ECsemR3zGJppC3_18tracing_attributes, symObjAddr: 0x32B0, symBinAddr: 0x3FC8C, symSize: 0x34 }
  - { offset: 0x8ADC2, size: 0x8, addend: 0x0, symName: __RINvYINtNtCsaNl6UpbT7bw_4core6option8IntoIterNtNtCsc29TF2YcYso_3syn3pat3PatENtNtNtNtB8_4iter6traits8iterator8Iterator4folduNCINvNvB1c_8for_each4callBH_NCINvMsi_NtCsiTraAjBDcu4_5alloc3vecINtB2y_3VecBH_E14extend_trustedB3_E0E0ECsemR3zGJppC3_18tracing_attributes, symObjAddr: 0x32E4, symBinAddr: 0x3FCC0, symSize: 0x148 }
  - { offset: 0x8AE54, size: 0x8, addend: 0x0, symName: __RINvYINtNtCsaNl6UpbT7bw_4core6option8IntoIterNtNtCsc29TF2YcYso_3syn3pat3PatENtNtNtNtB8_4iter6traits8iterator8Iterator8for_eachNCINvMsi_NtCsiTraAjBDcu4_5alloc3vecINtB29_3VecBH_E14extend_trustedB3_E0ECsemR3zGJppC3_18tracing_attributes, symObjAddr: 0x342C, symBinAddr: 0x3FE08, symSize: 0x34 }
  - { offset: 0x8AEC0, size: 0x8, addend: 0x0, symName: __RINvYINtNtCsaNl6UpbT7bw_4core6option8IntoIterNtNtCsc29TF2YcYso_3syn3pat8FieldPatENtNtNtNtB8_4iter6traits8iterator8Iterator4folduNCINvNvB1h_8for_each4callBH_NCINvMsi_NtCsiTraAjBDcu4_5alloc3vecINtB2D_3VecBH_E14extend_trustedB3_E0E0ECsemR3zGJppC3_18tracing_attributes, symObjAddr: 0x3460, symBinAddr: 0x3FE3C, symSize: 0x144 }
  - { offset: 0x8AF52, size: 0x8, addend: 0x0, symName: __RINvYINtNtCsaNl6UpbT7bw_4core6option8IntoIterNtNtCsc29TF2YcYso_3syn3pat8FieldPatENtNtNtNtB8_4iter6traits8iterator8Iterator8for_eachNCINvMsi_NtCsiTraAjBDcu4_5alloc3vecINtB2e_3VecBH_E14extend_trustedB3_E0ECsemR3zGJppC3_18tracing_attributes, symObjAddr: 0x35A4, symBinAddr: 0x3FF80, symSize: 0x34 }
  - { offset: 0x8AFBE, size: 0x8, addend: 0x0, symName: __RINvYINtNtCsaNl6UpbT7bw_4core6option8IntoIterNtNtCsc29TF2YcYso_3syn4item5FnArgENtNtNtNtB8_4iter6traits8iterator8Iterator4folduNCINvNvB1f_8for_each4callBH_NCINvMsi_NtCsiTraAjBDcu4_5alloc3vecINtB2B_3VecBH_E14extend_trustedB3_E0E0ECsemR3zGJppC3_18tracing_attributes, symObjAddr: 0x35D8, symBinAddr: 0x3FFB4, symSize: 0x144 }
  - { offset: 0x8B050, size: 0x8, addend: 0x0, symName: __RINvYINtNtCsaNl6UpbT7bw_4core6option8IntoIterNtNtCsc29TF2YcYso_3syn4item5FnArgENtNtNtNtB8_4iter6traits8iterator8Iterator8for_eachNCINvMsi_NtCsiTraAjBDcu4_5alloc3vecINtB2c_3VecBH_E14extend_trustedB3_E0ECsemR3zGJppC3_18tracing_attributes, symObjAddr: 0x371C, symBinAddr: 0x400F8, symSize: 0x34 }
  - { offset: 0x8B0FA, size: 0x8, addend: 0x0, symName: __RNvYINtNtCsaNl6UpbT7bw_4core6option8IntoIterQNtNtCsemR3zGJppC3_18tracing_attributes4attr5FieldENtNtNtNtB7_4iter6traits10exact_size17ExactSizeIterator3lenBL_, symObjAddr: 0x5518, symBinAddr: 0x41EF4, symSize: 0xC4 }
  - { offset: 0x8B1F5, size: 0x8, addend: 0x0, symName: __RNvYINtNtCsaNl6UpbT7bw_4core6option8IntoIterRNtCshnvkK9b4wzu_11proc_macro25IdentENtNtNtNtB7_4iter6traits10exact_size17ExactSizeIterator3lenCsemR3zGJppC3_18tracing_attributes, symObjAddr: 0x55DC, symBinAddr: 0x41FB8, symSize: 0xC4 }
  - { offset: 0x8B2F0, size: 0x8, addend: 0x0, symName: __RNvYINtNtCsaNl6UpbT7bw_4core6option8IntoIterRNtNtCsemR3zGJppC3_18tracing_attributes4attr5FieldENtNtNtNtB7_4iter6traits10exact_size17ExactSizeIterator3lenBL_, symObjAddr: 0x56A0, symBinAddr: 0x4207C, symSize: 0xC4 }
  - { offset: 0x8B72C, size: 0x8, addend: 0x0, symName: __RNvYINtNtCsaNl6UpbT7bw_4core6option6OptionRNtCshnvkK9b4wzu_11proc_macro25IdentENtNtB7_3cmp9PartialEq2neCsemR3zGJppC3_18tracing_attributes, symObjAddr: 0x54E8, symBinAddr: 0x41EC4, symSize: 0x30 }
  - { offset: 0x9280B, size: 0x8, addend: 0x0, symName: __RINvMNtCsaNl6UpbT7bw_4core6optionINtB3_6OptionINtNtCsc29TF2YcYso_3syn10punctuated4PairQNtNtBN_2ty4TypeQNtNtBN_5token5CommaEE7or_elseNCNvXsg_BL_INtBL_8PairsMutB1n_B1D_ENtNtNtNtB5_4iter6traits8iterator8Iterator4nexts_0ECsemR3zGJppC3_18tracing_attributes, symObjAddr: 0x0, symBinAddr: 0x3C9DC, symSize: 0xB4 }
  - { offset: 0x92888, size: 0x8, addend: 0x0, symName: __RINvMNtCsaNl6UpbT7bw_4core6optionINtB3_6OptionINtNtCsc29TF2YcYso_3syn10punctuated4PairQNtNtBN_2ty9BareFnArgQNtNtBN_5token5CommaEE7or_elseNCNvXsg_BL_INtBL_8PairsMutB1n_B1I_ENtNtNtNtB5_4iter6traits8iterator8Iterator4nexts_0ECsemR3zGJppC3_18tracing_attributes, symObjAddr: 0xB4, symBinAddr: 0x3CA90, symSize: 0xB4 }
  - { offset: 0x92912, size: 0x8, addend: 0x0, symName: __RINvMNtCsaNl6UpbT7bw_4core6optionINtB3_6OptionINtNtCsc29TF2YcYso_3syn10punctuated4PairQNtNtBN_3pat3PatQNtNtBN_5token2OrEE7or_elseNCNvXsg_BL_INtBL_8PairsMutB1n_B1D_ENtNtNtNtB5_4iter6traits8iterator8Iterator4nexts_0ECsemR3zGJppC3_18tracing_attributes, symObjAddr: 0x168, symBinAddr: 0x3CB44, symSize: 0xB4 }
  - { offset: 0x92975, size: 0x8, addend: 0x0, symName: __RINvMNtCsaNl6UpbT7bw_4core6optionINtB3_6OptionINtNtCsc29TF2YcYso_3syn10punctuated4PairQNtNtBN_3pat3PatQNtNtBN_5token5CommaEE7or_elseNCNvXsg_BL_INtBL_8PairsMutB1n_B1D_ENtNtNtNtB5_4iter6traits8iterator8Iterator4nexts_0ECsemR3zGJppC3_18tracing_attributes, symObjAddr: 0x21C, symBinAddr: 0x3CBF8, symSize: 0xB4 }
  - { offset: 0x929F2, size: 0x8, addend: 0x0, symName: __RINvMNtCsaNl6UpbT7bw_4core6optionINtB3_6OptionINtNtCsc29TF2YcYso_3syn10punctuated4PairQNtNtBN_3pat8FieldPatQNtNtBN_5token5CommaEE7or_elseNCNvXsg_BL_INtBL_8PairsMutB1n_B1I_ENtNtNtNtB5_4iter6traits8iterator8Iterator4nexts_0ECsemR3zGJppC3_18tracing_attributes, symObjAddr: 0x2D0, symBinAddr: 0x3CCAC, symSize: 0xB4 }
  - { offset: 0x92A6F, size: 0x8, addend: 0x0, symName: __RINvMNtCsaNl6UpbT7bw_4core6optionINtB3_6OptionINtNtCsc29TF2YcYso_3syn10punctuated4PairQNtNtBN_4data5FieldQNtNtBN_5token5CommaEE7or_elseNCNvXsg_BL_INtBL_8PairsMutB1n_B1G_ENtNtNtNtB5_4iter6traits8iterator8Iterator4nexts_0ECsemR3zGJppC3_18tracing_attributes, symObjAddr: 0x384, symBinAddr: 0x3CD60, symSize: 0xB4 }
  - { offset: 0x92AEC, size: 0x8, addend: 0x0, symName: __RINvMNtCsaNl6UpbT7bw_4core6optionINtB3_6OptionINtNtCsc29TF2YcYso_3syn10punctuated4PairQNtNtBN_4data7VariantQNtNtBN_5token5CommaEE7or_elseNCNvXsg_BL_INtBL_8PairsMutB1n_B1I_ENtNtNtNtB5_4iter6traits8iterator8Iterator4nexts_0ECsemR3zGJppC3_18tracing_attributes, symObjAddr: 0x438, symBinAddr: 0x3CE14, symSize: 0xB4 }
  - { offset: 0x92B69, size: 0x8, addend: 0x0, symName: __RINvMNtCsaNl6UpbT7bw_4core6optionINtB3_6OptionINtNtCsc29TF2YcYso_3syn10punctuated4PairQNtNtBN_4expr10FieldValueQNtNtBN_5token5CommaEE7or_elseNCNvXsg_BL_INtBL_8PairsMutB1n_B1M_ENtNtNtNtB5_4iter6traits8iterator8Iterator4nexts_0ECsemR3zGJppC3_18tracing_attributes, symObjAddr: 0x4EC, symBinAddr: 0x3CEC8, symSize: 0xB4 }
  - { offset: 0x92BE6, size: 0x8, addend: 0x0, symName: __RINvMNtCsaNl6UpbT7bw_4core6optionINtB3_6OptionINtNtCsc29TF2YcYso_3syn10punctuated4PairQNtNtBN_4expr4ExprQNtNtBN_5token5CommaEE7or_elseNCNvXsg_BL_INtBL_8PairsMutB1n_B1F_ENtNtNtNtB5_4iter6traits8iterator8Iterator4nexts_0ECsemR3zGJppC3_18tracing_attributes, symObjAddr: 0x5A0, symBinAddr: 0x3CF7C, symSize: 0xB4 }
  - { offset: 0x92C63, size: 0x8, addend: 0x0, symName: __RINvMNtCsaNl6UpbT7bw_4core6optionINtB3_6OptionINtNtCsc29TF2YcYso_3syn10punctuated4PairQNtNtBN_4item5FnArgQNtNtBN_5token5CommaEE7or_elseNCNvXsg_BL_INtBL_8PairsMutB1n_B1G_ENtNtNtNtB5_4iter6traits8iterator8Iterator4nexts_0ECsemR3zGJppC3_18tracing_attributes, symObjAddr: 0x654, symBinAddr: 0x3D030, symSize: 0xB4 }
  - { offset: 0x92CE0, size: 0x8, addend: 0x0, symName: __RINvMNtCsaNl6UpbT7bw_4core6optionINtB3_6OptionINtNtCsc29TF2YcYso_3syn10punctuated4PairQNtNtBN_4item7UseTreeQNtNtBN_5token5CommaEE7or_elseNCNvXsg_BL_INtBL_8PairsMutB1n_B1I_ENtNtNtNtB5_4iter6traits8iterator8Iterator4nexts_0ECsemR3zGJppC3_18tracing_attributes, symObjAddr: 0x708, symBinAddr: 0x3D0E4, symSize: 0xB4 }
  - { offset: 0x92D6A, size: 0x8, addend: 0x0, symName: __RINvMNtCsaNl6UpbT7bw_4core6optionINtB3_6OptionINtNtCsc29TF2YcYso_3syn10punctuated4PairQNtNtBN_4path11PathSegmentQNtNtBN_5token7PathSepEE7or_elseNCNvXsg_BL_INtBL_8PairsMutB1n_B1N_ENtNtNtNtB5_4iter6traits8iterator8Iterator4nexts_0ECsemR3zGJppC3_18tracing_attributes, symObjAddr: 0x7BC, symBinAddr: 0x3D198, symSize: 0xB4 }
  - { offset: 0x92DE7, size: 0x8, addend: 0x0, symName: __RINvMNtCsaNl6UpbT7bw_4core6optionINtB3_6OptionINtNtCsc29TF2YcYso_3syn10punctuated4PairQNtNtBN_4path15GenericArgumentQNtNtBN_5token5CommaEE7or_elseNCNvXsg_BL_INtBL_8PairsMutB1n_B1R_ENtNtNtNtB5_4iter6traits8iterator8Iterator4nexts_0ECsemR3zGJppC3_18tracing_attributes, symObjAddr: 0x870, symBinAddr: 0x3D24C, symSize: 0xB4 }
  - { offset: 0x92E64, size: 0x8, addend: 0x0, symName: __RINvMNtCsaNl6UpbT7bw_4core6optionINtB3_6OptionINtNtCsc29TF2YcYso_3syn10punctuated4PairQNtNtBN_8generics12GenericParamQNtNtBN_5token5CommaEE7or_elseNCNvXsg_BL_INtBL_8PairsMutB1n_B1S_ENtNtNtNtB5_4iter6traits8iterator8Iterator4nexts_0ECsemR3zGJppC3_18tracing_attributes, symObjAddr: 0x924, symBinAddr: 0x3D300, symSize: 0xB4 }
  - { offset: 0x92EE1, size: 0x8, addend: 0x0, symName: __RINvMNtCsaNl6UpbT7bw_4core6optionINtB3_6OptionINtNtCsc29TF2YcYso_3syn10punctuated4PairQNtNtBN_8generics13CapturedParamQNtNtBN_5token5CommaEE7or_elseNCNvXsg_BL_INtBL_8PairsMutB1n_B1T_ENtNtNtNtB5_4iter6traits8iterator8Iterator4nexts_0ECsemR3zGJppC3_18tracing_attributes, symObjAddr: 0x9D8, symBinAddr: 0x3D3B4, symSize: 0xB4 }
  - { offset: 0x92F6B, size: 0x8, addend: 0x0, symName: __RINvMNtCsaNl6UpbT7bw_4core6optionINtB3_6OptionINtNtCsc29TF2YcYso_3syn10punctuated4PairQNtNtBN_8generics14TypeParamBoundQNtNtBN_5token4PlusEE7or_elseNCNvXsg_BL_INtBL_8PairsMutB1n_B1U_ENtNtNtNtB5_4iter6traits8iterator8Iterator4nexts_0ECsemR3zGJppC3_18tracing_attributes, symObjAddr: 0xA8C, symBinAddr: 0x3D468, symSize: 0xB4 }
  - { offset: 0x92FE8, size: 0x8, addend: 0x0, symName: __RINvMNtCsaNl6UpbT7bw_4core6optionINtB3_6OptionINtNtCsc29TF2YcYso_3syn10punctuated4PairQNtNtBN_8generics14WherePredicateQNtNtBN_5token5CommaEE7or_elseNCNvXsg_BL_INtBL_8PairsMutB1n_B1U_ENtNtNtNtB5_4iter6traits8iterator8Iterator4nexts_0ECsemR3zGJppC3_18tracing_attributes, symObjAddr: 0xB40, symBinAddr: 0x3D51C, symSize: 0xB4 }
  - { offset: 0x93065, size: 0x8, addend: 0x0, symName: __RINvMNtCsaNl6UpbT7bw_4core6optionINtB3_6OptionINtNtCsc29TF2YcYso_3syn10punctuated4PairQNtNtBN_8lifetime8LifetimeQNtNtBN_5token4PlusEE7or_elseNCNvXsg_BL_INtBL_8PairsMutB1n_B1N_ENtNtNtNtB5_4iter6traits8iterator8Iterator4nexts_0ECsemR3zGJppC3_18tracing_attributes, symObjAddr: 0xBF4, symBinAddr: 0x3D5D0, symSize: 0xB4 }
  - { offset: 0x930EF, size: 0x8, addend: 0x0, symName: __RINvMNtCsaNl6UpbT7bw_4core6optionINtB3_6OptionINtNtCsc29TF2YcYso_3syn10punctuated4PairRNtCshnvkK9b4wzu_11proc_macro25IdentRNtNtBN_5token3DotEE7or_elseNCNvXsc_BL_INtBL_5PairsB1n_B1X_ENtNtNtNtB5_4iter6traits8iterator8Iterator4nexts_0ECsemR3zGJppC3_18tracing_attributes, symObjAddr: 0xCA8, symBinAddr: 0x3D684, symSize: 0xB4 }
  - { offset: 0x931A4, size: 0x8, addend: 0x0, symName: __RINvMNtCsaNl6UpbT7bw_4core6optionINtB3_6OptionINtNtCsc29TF2YcYso_3syn10punctuated4PairRNtNtCsemR3zGJppC3_18tracing_attributes4attr5FieldRNtNtBN_5token5CommaEE7or_elseNCNvXsc_BL_INtBL_5PairsB1n_B2b_ENtNtNtNtB5_4iter6traits8iterator8Iterator4nexts_0EB1r_, symObjAddr: 0xD5C, symBinAddr: 0x3D738, symSize: 0xB4 }
  - { offset: 0x93207, size: 0x8, addend: 0x0, symName: __RINvMNtCsaNl6UpbT7bw_4core6optionINtB3_6OptionINtNtCsiTraAjBDcu4_5alloc5boxed3BoxNtCshnvkK9b4wzu_11proc_macro25IdentEE3mapB1h_NCNvXs8_NtCsc29TF2YcYso_3syn10punctuatedINtB28_10PunctuatedB1h_NtNtB2a_5token5CommaENtNtNtNtB5_4iter6traits7collect12IntoIterator9into_iters_0ECsemR3zGJppC3_18tracing_attributes, symObjAddr: 0xE10, symBinAddr: 0x3D7EC, symSize: 0x6C }
  - { offset: 0x93272, size: 0x8, addend: 0x0, symName: __RINvMNtCsaNl6UpbT7bw_4core6optionINtB3_6OptionINtNtCsiTraAjBDcu4_5alloc5boxed3BoxNtNtCsc29TF2YcYso_3syn3pat3PatEE3mapB1h_NCNvXs8_NtB1l_10punctuatedINtB23_10PunctuatedB1h_NtNtB1l_5token5CommaENtNtNtNtB5_4iter6traits7collect12IntoIterator9into_iters_0ECsemR3zGJppC3_18tracing_attributes, symObjAddr: 0xE7C, symBinAddr: 0x3D858, symSize: 0x74 }
  - { offset: 0x932DD, size: 0x8, addend: 0x0, symName: __RINvMNtCsaNl6UpbT7bw_4core6optionINtB3_6OptionINtNtCsiTraAjBDcu4_5alloc5boxed3BoxNtNtCsc29TF2YcYso_3syn3pat8FieldPatEE3mapB1h_NCNvXs8_NtB1l_10punctuatedINtB28_10PunctuatedB1h_NtNtB1l_5token5CommaENtNtNtNtB5_4iter6traits7collect12IntoIterator9into_iters_0ECsemR3zGJppC3_18tracing_attributes, symObjAddr: 0xEF0, symBinAddr: 0x3D8CC, symSize: 0x70 }
  - { offset: 0x93348, size: 0x8, addend: 0x0, symName: __RINvMNtCsaNl6UpbT7bw_4core6optionINtB3_6OptionINtNtCsiTraAjBDcu4_5alloc5boxed3BoxNtNtCsc29TF2YcYso_3syn4item5FnArgEE3mapB1h_NCNvXs8_NtB1l_10punctuatedINtB26_10PunctuatedB1h_NtNtB1l_5token5CommaENtNtNtNtB5_4iter6traits7collect12IntoIterator9into_iters_0ECsemR3zGJppC3_18tracing_attributes, symObjAddr: 0xF60, symBinAddr: 0x3D93C, symSize: 0x70 }
  - { offset: 0x933CB, size: 0x8, addend: 0x0, symName: __RINvMNtCsaNl6UpbT7bw_4core6optionINtB3_6OptionINtNtNtB5_3num7nonzero7NonZerojEE6map_orINtNtB5_6result6ResultuBI_ENcNtB1m_3Err0ECsemR3zGJppC3_18tracing_attributes, symObjAddr: 0xFD0, symBinAddr: 0x3D9AC, symSize: 0xA8 }
  - { offset: 0x93493, size: 0x8, addend: 0x0, symName: __RINvMNtCsaNl6UpbT7bw_4core6optionINtB3_6OptionNtCshnvkK9b4wzu_11proc_macro211TokenStreamE14unwrap_or_elseNCINvNtCsemR3zGJppC3_18tracing_attributes6expand9gen_blockBI_Es_0EB1M_, symObjAddr: 0x1078, symBinAddr: 0x3DA54, symSize: 0x7C }
  - { offset: 0x934F6, size: 0x8, addend: 0x0, symName: __RINvMNtCsaNl6UpbT7bw_4core6optionINtB3_6OptionNtCshnvkK9b4wzu_11proc_macro211TokenStreamE14unwrap_or_elseNCINvNtCsemR3zGJppC3_18tracing_attributes6expand9gen_blockNtNtCsc29TF2YcYso_3syn4stmt5BlockEs_0EB1M_, symObjAddr: 0x10F4, symBinAddr: 0x3DAD0, symSize: 0x7C }
  - { offset: 0x9357E, size: 0x8, addend: 0x0, symName: __RINvMNtCsaNl6UpbT7bw_4core6optionINtB3_6OptionQINtNtCsiTraAjBDcu4_5alloc5boxed3BoxNtNtCsc29TF2YcYso_3syn2ty4TypeEE3mapQB1i_NvYBJ_INtNtB5_7convert5AsMutB1i_E6as_mutECsemR3zGJppC3_18tracing_attributes, symObjAddr: 0x1170, symBinAddr: 0x3DB4C, symSize: 0x50 }
  - { offset: 0x9360E, size: 0x8, addend: 0x0, symName: __RINvMNtCsaNl6UpbT7bw_4core6optionINtB3_6OptionQINtNtCsiTraAjBDcu4_5alloc5boxed3BoxNtNtCsc29TF2YcYso_3syn2ty9BareFnArgEE3mapQB1i_NvYBJ_INtNtB5_7convert5AsMutB1i_E6as_mutECsemR3zGJppC3_18tracing_attributes, symObjAddr: 0x11C0, symBinAddr: 0x3DB9C, symSize: 0x50 }
  - { offset: 0x9369E, size: 0x8, addend: 0x0, symName: __RINvMNtCsaNl6UpbT7bw_4core6optionINtB3_6OptionQINtNtCsiTraAjBDcu4_5alloc5boxed3BoxNtNtCsc29TF2YcYso_3syn3pat3PatEE3mapQB1i_NvYBJ_INtNtB5_7convert5AsMutB1i_E6as_mutECsemR3zGJppC3_18tracing_attributes, symObjAddr: 0x1210, symBinAddr: 0x3DBEC, symSize: 0x50 }
  - { offset: 0x9372E, size: 0x8, addend: 0x0, symName: __RINvMNtCsaNl6UpbT7bw_4core6optionINtB3_6OptionQINtNtCsiTraAjBDcu4_5alloc5boxed3BoxNtNtCsc29TF2YcYso_3syn3pat8FieldPatEE3mapQB1i_NvYBJ_INtNtB5_7convert5AsMutB1i_E6as_mutECsemR3zGJppC3_18tracing_attributes, symObjAddr: 0x1260, symBinAddr: 0x3DC3C, symSize: 0x50 }
  - { offset: 0x937BE, size: 0x8, addend: 0x0, symName: __RINvMNtCsaNl6UpbT7bw_4core6optionINtB3_6OptionQINtNtCsiTraAjBDcu4_5alloc5boxed3BoxNtNtCsc29TF2YcYso_3syn4data7VariantEE3mapQB1i_NvYBJ_INtNtB5_7convert5AsMutB1i_E6as_mutECsemR3zGJppC3_18tracing_attributes, symObjAddr: 0x12B0, symBinAddr: 0x3DC8C, symSize: 0x50 }
  - { offset: 0x9384E, size: 0x8, addend: 0x0, symName: __RINvMNtCsaNl6UpbT7bw_4core6optionINtB3_6OptionQINtNtCsiTraAjBDcu4_5alloc5boxed3BoxNtNtCsc29TF2YcYso_3syn4expr10FieldValueEE3mapQB1i_NvYBJ_INtNtB5_7convert5AsMutB1i_E6as_mutECsemR3zGJppC3_18tracing_attributes, symObjAddr: 0x1300, symBinAddr: 0x3DCDC, symSize: 0x50 }
  - { offset: 0x938DE, size: 0x8, addend: 0x0, symName: __RINvMNtCsaNl6UpbT7bw_4core6optionINtB3_6OptionQINtNtCsiTraAjBDcu4_5alloc5boxed3BoxNtNtCsc29TF2YcYso_3syn4expr4ExprEE3mapQB1i_NvYBJ_INtNtB5_7convert5AsMutB1i_E6as_mutECsemR3zGJppC3_18tracing_attributes, symObjAddr: 0x1350, symBinAddr: 0x3DD2C, symSize: 0x50 }
  - { offset: 0x9396E, size: 0x8, addend: 0x0, symName: __RINvMNtCsaNl6UpbT7bw_4core6optionINtB3_6OptionQINtNtCsiTraAjBDcu4_5alloc5boxed3BoxNtNtCsc29TF2YcYso_3syn4item5FnArgEE3mapQB1i_NvYBJ_INtNtB5_7convert5AsMutB1i_E6as_mutECsemR3zGJppC3_18tracing_attributes, symObjAddr: 0x13A0, symBinAddr: 0x3DD7C, symSize: 0x50 }
  - { offset: 0x939FE, size: 0x8, addend: 0x0, symName: __RINvMNtCsaNl6UpbT7bw_4core6optionINtB3_6OptionQINtNtCsiTraAjBDcu4_5alloc5boxed3BoxNtNtCsc29TF2YcYso_3syn4item7UseTreeEE3mapQB1i_NvYBJ_INtNtB5_7convert5AsMutB1i_E6as_mutECsemR3zGJppC3_18tracing_attributes, symObjAddr: 0x13F0, symBinAddr: 0x3DDCC, symSize: 0x50 }
  - { offset: 0x93A8E, size: 0x8, addend: 0x0, symName: __RINvMNtCsaNl6UpbT7bw_4core6optionINtB3_6OptionQINtNtCsiTraAjBDcu4_5alloc5boxed3BoxNtNtCsc29TF2YcYso_3syn4path15GenericArgumentEE3mapQB1i_NvYBJ_INtNtB5_7convert5AsMutB1i_E6as_mutECsemR3zGJppC3_18tracing_attributes, symObjAddr: 0x1440, symBinAddr: 0x3DE1C, symSize: 0x50 }
  - { offset: 0x93B1E, size: 0x8, addend: 0x0, symName: __RINvMNtCsaNl6UpbT7bw_4core6optionINtB3_6OptionQINtNtCsiTraAjBDcu4_5alloc5boxed3BoxNtNtCsc29TF2YcYso_3syn8generics13CapturedParamEE3mapQB1i_NvYBJ_INtNtB5_7convert5AsMutB1i_E6as_mutECsemR3zGJppC3_18tracing_attributes, symObjAddr: 0x1490, symBinAddr: 0x3DE6C, symSize: 0x50 }
  - { offset: 0x93BAE, size: 0x8, addend: 0x0, symName: __RINvMNtCsaNl6UpbT7bw_4core6optionINtB3_6OptionQINtNtCsiTraAjBDcu4_5alloc5boxed3BoxNtNtCsc29TF2YcYso_3syn8generics14TypeParamBoundEE3mapQB1i_NvYBJ_INtNtB5_7convert5AsMutB1i_E6as_mutECsemR3zGJppC3_18tracing_attributes, symObjAddr: 0x14E0, symBinAddr: 0x3DEBC, symSize: 0x50 }
  - { offset: 0x93C3E, size: 0x8, addend: 0x0, symName: __RINvMNtCsaNl6UpbT7bw_4core6optionINtB3_6OptionQINtNtCsiTraAjBDcu4_5alloc5boxed3BoxNtNtCsc29TF2YcYso_3syn8generics14WherePredicateEE3mapQB1i_NvYBJ_INtNtB5_7convert5AsMutB1i_E6as_mutECsemR3zGJppC3_18tracing_attributes, symObjAddr: 0x1530, symBinAddr: 0x3DF0C, symSize: 0x50 }
  - { offset: 0x93CCE, size: 0x8, addend: 0x0, symName: __RINvMNtCsaNl6UpbT7bw_4core6optionINtB3_6OptionQINtNtCsiTraAjBDcu4_5alloc5boxed3BoxNtNtCsc29TF2YcYso_3syn8lifetime8LifetimeEE3mapQB1i_NvYBJ_INtNtB5_7convert5AsMutB1i_E6as_mutECsemR3zGJppC3_18tracing_attributes, symObjAddr: 0x1580, symBinAddr: 0x3DF5C, symSize: 0x50 }
  - { offset: 0x93D78, size: 0x8, addend: 0x0, symName: __RINvMNtCsaNl6UpbT7bw_4core6optionINtB3_6OptionQINtNtCsiTraAjBDcu4_5alloc5boxed3BoxNtNtCsemR3zGJppC3_18tracing_attributes4attr5FieldEE3mapQB1i_NvYBJ_INtNtB5_7convert5AsMutB1i_E6as_mutEB1m_, symObjAddr: 0x15D0, symBinAddr: 0x3DFAC, symSize: 0x50 }
  - { offset: 0x93DFB, size: 0x8, addend: 0x0, symName: __RINvMNtCsaNl6UpbT7bw_4core6optionINtB3_6OptionQNtNtCsc29TF2YcYso_3syn2ty4TypeE3mapINtNtBN_10punctuated4PairBI_QNtNtBN_5token5CommaENcNtB1i_3End0ECsemR3zGJppC3_18tracing_attributes, symObjAddr: 0x1620, symBinAddr: 0x3DFFC, symSize: 0x68 }
  - { offset: 0x93E7E, size: 0x8, addend: 0x0, symName: __RINvMNtCsaNl6UpbT7bw_4core6optionINtB3_6OptionQNtNtCsc29TF2YcYso_3syn2ty9BareFnArgE3mapINtNtBN_10punctuated4PairBI_QNtNtBN_5token5CommaENcNtB1n_3End0ECsemR3zGJppC3_18tracing_attributes, symObjAddr: 0x1688, symBinAddr: 0x3E064, symSize: 0x68 }
  - { offset: 0x93F01, size: 0x8, addend: 0x0, symName: __RINvMNtCsaNl6UpbT7bw_4core6optionINtB3_6OptionQNtNtCsc29TF2YcYso_3syn3pat3PatE3mapINtNtBN_10punctuated4PairBI_QNtNtBN_5token2OrENcNtB1i_3End0ECsemR3zGJppC3_18tracing_attributes, symObjAddr: 0x16F0, symBinAddr: 0x3E0CC, symSize: 0x68 }
  - { offset: 0x93F84, size: 0x8, addend: 0x0, symName: __RINvMNtCsaNl6UpbT7bw_4core6optionINtB3_6OptionQNtNtCsc29TF2YcYso_3syn3pat3PatE3mapINtNtBN_10punctuated4PairBI_QNtNtBN_5token5CommaENcNtB1i_3End0ECsemR3zGJppC3_18tracing_attributes, symObjAddr: 0x1758, symBinAddr: 0x3E134, symSize: 0x68 }
  - { offset: 0x94007, size: 0x8, addend: 0x0, symName: __RINvMNtCsaNl6UpbT7bw_4core6optionINtB3_6OptionQNtNtCsc29TF2YcYso_3syn3pat8FieldPatE3mapINtNtBN_10punctuated4PairBI_QNtNtBN_5token5CommaENcNtB1n_3End0ECsemR3zGJppC3_18tracing_attributes, symObjAddr: 0x17C0, symBinAddr: 0x3E19C, symSize: 0x68 }
  - { offset: 0x9408A, size: 0x8, addend: 0x0, symName: __RINvMNtCsaNl6UpbT7bw_4core6optionINtB3_6OptionQNtNtCsc29TF2YcYso_3syn4data5FieldE3mapINtNtBN_10punctuated4PairBI_QNtNtBN_5token5CommaENcNtB1l_3End0ECsemR3zGJppC3_18tracing_attributes, symObjAddr: 0x1828, symBinAddr: 0x3E204, symSize: 0x68 }
  - { offset: 0x9410D, size: 0x8, addend: 0x0, symName: __RINvMNtCsaNl6UpbT7bw_4core6optionINtB3_6OptionQNtNtCsc29TF2YcYso_3syn4data7VariantE3mapINtNtBN_10punctuated4PairBI_QNtNtBN_5token5CommaENcNtB1n_3End0ECsemR3zGJppC3_18tracing_attributes, symObjAddr: 0x1890, symBinAddr: 0x3E26C, symSize: 0x68 }
  - { offset: 0x94190, size: 0x8, addend: 0x0, symName: __RINvMNtCsaNl6UpbT7bw_4core6optionINtB3_6OptionQNtNtCsc29TF2YcYso_3syn4expr10FieldValueE3mapINtNtBN_10punctuated4PairBI_QNtNtBN_5token5CommaENcNtB1r_3End0ECsemR3zGJppC3_18tracing_attributes, symObjAddr: 0x18F8, symBinAddr: 0x3E2D4, symSize: 0x68 }
  - { offset: 0x94213, size: 0x8, addend: 0x0, symName: __RINvMNtCsaNl6UpbT7bw_4core6optionINtB3_6OptionQNtNtCsc29TF2YcYso_3syn4expr4ExprE3mapINtNtBN_10punctuated4PairBI_QNtNtBN_5token5CommaENcNtB1k_3End0ECsemR3zGJppC3_18tracing_attributes, symObjAddr: 0x1960, symBinAddr: 0x3E33C, symSize: 0x68 }
  - { offset: 0x94296, size: 0x8, addend: 0x0, symName: __RINvMNtCsaNl6UpbT7bw_4core6optionINtB3_6OptionQNtNtCsc29TF2YcYso_3syn4item5FnArgE3mapINtNtBN_10punctuated4PairBI_QNtNtBN_5token5CommaENcNtB1l_3End0ECsemR3zGJppC3_18tracing_attributes, symObjAddr: 0x19C8, symBinAddr: 0x3E3A4, symSize: 0x68 }
  - { offset: 0x94319, size: 0x8, addend: 0x0, symName: __RINvMNtCsaNl6UpbT7bw_4core6optionINtB3_6OptionQNtNtCsc29TF2YcYso_3syn4item7UseTreeE3mapINtNtBN_10punctuated4PairBI_QNtNtBN_5token5CommaENcNtB1n_3End0ECsemR3zGJppC3_18tracing_attributes, symObjAddr: 0x1A30, symBinAddr: 0x3E40C, symSize: 0x68 }
  - { offset: 0x9439C, size: 0x8, addend: 0x0, symName: __RINvMNtCsaNl6UpbT7bw_4core6optionINtB3_6OptionQNtNtCsc29TF2YcYso_3syn4path11PathSegmentE3mapINtNtBN_10punctuated4PairBI_QNtNtBN_5token7PathSepENcNtB1s_3End0ECsemR3zGJppC3_18tracing_attributes, symObjAddr: 0x1A98, symBinAddr: 0x3E474, symSize: 0x68 }
  - { offset: 0x9441F, size: 0x8, addend: 0x0, symName: __RINvMNtCsaNl6UpbT7bw_4core6optionINtB3_6OptionQNtNtCsc29TF2YcYso_3syn4path15GenericArgumentE3mapINtNtBN_10punctuated4PairBI_QNtNtBN_5token5CommaENcNtB1w_3End0ECsemR3zGJppC3_18tracing_attributes, symObjAddr: 0x1B00, symBinAddr: 0x3E4DC, symSize: 0x68 }
  - { offset: 0x944A2, size: 0x8, addend: 0x0, symName: __RINvMNtCsaNl6UpbT7bw_4core6optionINtB3_6OptionQNtNtCsc29TF2YcYso_3syn8generics12GenericParamE3mapINtNtBN_10punctuated4PairBI_QNtNtBN_5token5CommaENcNtB1x_3End0ECsemR3zGJppC3_18tracing_attributes, symObjAddr: 0x1B68, symBinAddr: 0x3E544, symSize: 0x68 }
  - { offset: 0x94525, size: 0x8, addend: 0x0, symName: __RINvMNtCsaNl6UpbT7bw_4core6optionINtB3_6OptionQNtNtCsc29TF2YcYso_3syn8generics13CapturedParamE3mapINtNtBN_10punctuated4PairBI_QNtNtBN_5token5CommaENcNtB1y_3End0ECsemR3zGJppC3_18tracing_attributes, symObjAddr: 0x1BD0, symBinAddr: 0x3E5AC, symSize: 0x68 }
  - { offset: 0x945A8, size: 0x8, addend: 0x0, symName: __RINvMNtCsaNl6UpbT7bw_4core6optionINtB3_6OptionQNtNtCsc29TF2YcYso_3syn8generics14TypeParamBoundE3mapINtNtBN_10punctuated4PairBI_QNtNtBN_5token4PlusENcNtB1z_3End0ECsemR3zGJppC3_18tracing_attributes, symObjAddr: 0x1C38, symBinAddr: 0x3E614, symSize: 0x68 }
  - { offset: 0x9462B, size: 0x8, addend: 0x0, symName: __RINvMNtCsaNl6UpbT7bw_4core6optionINtB3_6OptionQNtNtCsc29TF2YcYso_3syn8generics14WherePredicateE3mapINtNtBN_10punctuated4PairBI_QNtNtBN_5token5CommaENcNtB1z_3End0ECsemR3zGJppC3_18tracing_attributes, symObjAddr: 0x1CA0, symBinAddr: 0x3E67C, symSize: 0x68 }
  - { offset: 0x946AE, size: 0x8, addend: 0x0, symName: __RINvMNtCsaNl6UpbT7bw_4core6optionINtB3_6OptionQNtNtCsc29TF2YcYso_3syn8lifetime8LifetimeE3mapINtNtBN_10punctuated4PairBI_QNtNtBN_5token4PlusENcNtB1s_3End0ECsemR3zGJppC3_18tracing_attributes, symObjAddr: 0x1D08, symBinAddr: 0x3E6E4, symSize: 0x68 }
  - { offset: 0x94726, size: 0x8, addend: 0x0, symName: __RINvMNtCsaNl6UpbT7bw_4core6optionINtB3_6OptionQNtNtCsemR3zGJppC3_18tracing_attributes4attr5FieldE7or_elseNCNvXsF_NtCsc29TF2YcYso_3syn10punctuatedINtB1N_14PrivateIterMutBJ_NtNtB1P_5token5CommaENtNtNtNtB5_4iter6traits8iterator8Iterator4nexts_0EBN_, symObjAddr: 0x1D70, symBinAddr: 0x3E74C, symSize: 0xA8 }
  - { offset: 0x947DA, size: 0x8, addend: 0x0, symName: __RINvMNtCsaNl6UpbT7bw_4core6optionINtB3_6OptionQNtNtCsemR3zGJppC3_18tracing_attributes4attr5FieldE7or_elseNCNvXsG_NtCsc29TF2YcYso_3syn10punctuatedINtB1N_14PrivateIterMutBJ_NtNtB1P_5token5CommaENtNtNtNtB5_4iter6traits12double_ended19DoubleEndedIterator9next_back0EBN_, symObjAddr: 0x1E18, symBinAddr: 0x3E7F4, symSize: 0xA8 }
  - { offset: 0x94849, size: 0x8, addend: 0x0, symName: __RINvMNtCsaNl6UpbT7bw_4core6optionINtB3_6OptionQTNtNtCsc29TF2YcYso_3syn2ty4TypeNtNtBO_5token5CommaEE3mapINtNtBO_10punctuated4PairQBK_QB1e_ENCNvXsg_B1G_INtB1G_8PairsMutBK_B1e_ENtNtNtNtB5_4iter6traits8iterator8Iterator4next0ECsemR3zGJppC3_18tracing_attributes, symObjAddr: 0x1EC0, symBinAddr: 0x3E89C, symSize: 0x68 }
  - { offset: 0x948C1, size: 0x8, addend: 0x0, symName: __RINvMNtCsaNl6UpbT7bw_4core6optionINtB3_6OptionQTNtNtCsc29TF2YcYso_3syn2ty9BareFnArgNtNtBO_5token5CommaEE3mapINtNtBO_10punctuated4PairQBK_QB1j_ENCNvXsg_B1L_INtB1L_8PairsMutBK_B1j_ENtNtNtNtB5_4iter6traits8iterator8Iterator4next0ECsemR3zGJppC3_18tracing_attributes, symObjAddr: 0x1F28, symBinAddr: 0x3E904, symSize: 0x68 }
  - { offset: 0x94939, size: 0x8, addend: 0x0, symName: __RINvMNtCsaNl6UpbT7bw_4core6optionINtB3_6OptionQTNtNtCsc29TF2YcYso_3syn3pat3PatNtNtBO_5token2OrEE3mapINtNtBO_10punctuated4PairQBK_QB1e_ENCNvXsg_B1D_INtB1D_8PairsMutBK_B1e_ENtNtNtNtB5_4iter6traits8iterator8Iterator4next0ECsemR3zGJppC3_18tracing_attributes, symObjAddr: 0x1F90, symBinAddr: 0x3E96C, symSize: 0x68 }
  - { offset: 0x949B1, size: 0x8, addend: 0x0, symName: __RINvMNtCsaNl6UpbT7bw_4core6optionINtB3_6OptionQTNtNtCsc29TF2YcYso_3syn3pat3PatNtNtBO_5token5CommaEE3mapINtNtBO_10punctuated4PairQBK_QB1e_ENCNvXsg_B1G_INtB1G_8PairsMutBK_B1e_ENtNtNtNtB5_4iter6traits8iterator8Iterator4next0ECsemR3zGJppC3_18tracing_attributes, symObjAddr: 0x1FF8, symBinAddr: 0x3E9D4, symSize: 0x68 }
  - { offset: 0x94A29, size: 0x8, addend: 0x0, symName: __RINvMNtCsaNl6UpbT7bw_4core6optionINtB3_6OptionQTNtNtCsc29TF2YcYso_3syn3pat8FieldPatNtNtBO_5token5CommaEE3mapINtNtBO_10punctuated4PairQBK_QB1j_ENCNvXsg_B1L_INtB1L_8PairsMutBK_B1j_ENtNtNtNtB5_4iter6traits8iterator8Iterator4next0ECsemR3zGJppC3_18tracing_attributes, symObjAddr: 0x2060, symBinAddr: 0x3EA3C, symSize: 0x68 }
  - { offset: 0x94AA1, size: 0x8, addend: 0x0, symName: __RINvMNtCsaNl6UpbT7bw_4core6optionINtB3_6OptionQTNtNtCsc29TF2YcYso_3syn4data5FieldNtNtBO_5token5CommaEE3mapINtNtBO_10punctuated4PairQBK_QB1h_ENCNvXsg_B1J_INtB1J_8PairsMutBK_B1h_ENtNtNtNtB5_4iter6traits8iterator8Iterator4next0ECsemR3zGJppC3_18tracing_attributes, symObjAddr: 0x20C8, symBinAddr: 0x3EAA4, symSize: 0x68 }
  - { offset: 0x94B19, size: 0x8, addend: 0x0, symName: __RINvMNtCsaNl6UpbT7bw_4core6optionINtB3_6OptionQTNtNtCsc29TF2YcYso_3syn4data7VariantNtNtBO_5token5CommaEE3mapINtNtBO_10punctuated4PairQBK_QB1j_ENCNvXsg_B1L_INtB1L_8PairsMutBK_B1j_ENtNtNtNtB5_4iter6traits8iterator8Iterator4next0ECsemR3zGJppC3_18tracing_attributes, symObjAddr: 0x2130, symBinAddr: 0x3EB0C, symSize: 0x68 }
  - { offset: 0x94B91, size: 0x8, addend: 0x0, symName: __RINvMNtCsaNl6UpbT7bw_4core6optionINtB3_6OptionQTNtNtCsc29TF2YcYso_3syn4expr10FieldValueNtNtBO_5token5CommaEE3mapINtNtBO_10punctuated4PairQBK_QB1n_ENCNvXsg_B1P_INtB1P_8PairsMutBK_B1n_ENtNtNtNtB5_4iter6traits8iterator8Iterator4next0ECsemR3zGJppC3_18tracing_attributes, symObjAddr: 0x2198, symBinAddr: 0x3EB74, symSize: 0x68 }
  - { offset: 0x94C09, size: 0x8, addend: 0x0, symName: __RINvMNtCsaNl6UpbT7bw_4core6optionINtB3_6OptionQTNtNtCsc29TF2YcYso_3syn4expr4ExprNtNtBO_5token5CommaEE3mapINtNtBO_10punctuated4PairQBK_QB1g_ENCNvXsg_B1I_INtB1I_8PairsMutBK_B1g_ENtNtNtNtB5_4iter6traits8iterator8Iterator4next0ECsemR3zGJppC3_18tracing_attributes, symObjAddr: 0x2200, symBinAddr: 0x3EBDC, symSize: 0x68 }
  - { offset: 0x94C81, size: 0x8, addend: 0x0, symName: __RINvMNtCsaNl6UpbT7bw_4core6optionINtB3_6OptionQTNtNtCsc29TF2YcYso_3syn4item5FnArgNtNtBO_5token5CommaEE3mapINtNtBO_10punctuated4PairQBK_QB1h_ENCNvXsg_B1J_INtB1J_8PairsMutBK_B1h_ENtNtNtNtB5_4iter6traits8iterator8Iterator4next0ECsemR3zGJppC3_18tracing_attributes, symObjAddr: 0x2268, symBinAddr: 0x3EC44, symSize: 0x68 }
  - { offset: 0x94CF9, size: 0x8, addend: 0x0, symName: __RINvMNtCsaNl6UpbT7bw_4core6optionINtB3_6OptionQTNtNtCsc29TF2YcYso_3syn4item7UseTreeNtNtBO_5token5CommaEE3mapINtNtBO_10punctuated4PairQBK_QB1j_ENCNvXsg_B1L_INtB1L_8PairsMutBK_B1j_ENtNtNtNtB5_4iter6traits8iterator8Iterator4next0ECsemR3zGJppC3_18tracing_attributes, symObjAddr: 0x22D0, symBinAddr: 0x3ECAC, symSize: 0x68 }
  - { offset: 0x94D71, size: 0x8, addend: 0x0, symName: __RINvMNtCsaNl6UpbT7bw_4core6optionINtB3_6OptionQTNtNtCsc29TF2YcYso_3syn4path11PathSegmentNtNtBO_5token7PathSepEE3mapINtNtBO_10punctuated4PairQBK_QB1o_ENCNvXsg_B1S_INtB1S_8PairsMutBK_B1o_ENtNtNtNtB5_4iter6traits8iterator8Iterator4next0ECsemR3zGJppC3_18tracing_attributes, symObjAddr: 0x2338, symBinAddr: 0x3ED14, symSize: 0x68 }
  - { offset: 0x94DE9, size: 0x8, addend: 0x0, symName: __RINvMNtCsaNl6UpbT7bw_4core6optionINtB3_6OptionQTNtNtCsc29TF2YcYso_3syn4path15GenericArgumentNtNtBO_5token5CommaEE3mapINtNtBO_10punctuated4PairQBK_QB1s_ENCNvXsg_B1U_INtB1U_8PairsMutBK_B1s_ENtNtNtNtB5_4iter6traits8iterator8Iterator4next0ECsemR3zGJppC3_18tracing_attributes, symObjAddr: 0x23A0, symBinAddr: 0x3ED7C, symSize: 0x68 }
  - { offset: 0x94E61, size: 0x8, addend: 0x0, symName: __RINvMNtCsaNl6UpbT7bw_4core6optionINtB3_6OptionQTNtNtCsc29TF2YcYso_3syn8generics12GenericParamNtNtBO_5token5CommaEE3mapINtNtBO_10punctuated4PairQBK_QB1t_ENCNvXsg_B1V_INtB1V_8PairsMutBK_B1t_ENtNtNtNtB5_4iter6traits8iterator8Iterator4next0ECsemR3zGJppC3_18tracing_attributes, symObjAddr: 0x2408, symBinAddr: 0x3EDE4, symSize: 0x68 }
  - { offset: 0x94ED9, size: 0x8, addend: 0x0, symName: __RINvMNtCsaNl6UpbT7bw_4core6optionINtB3_6OptionQTNtNtCsc29TF2YcYso_3syn8generics13CapturedParamNtNtBO_5token5CommaEE3mapINtNtBO_10punctuated4PairQBK_QB1u_ENCNvXsg_B1W_INtB1W_8PairsMutBK_B1u_ENtNtNtNtB5_4iter6traits8iterator8Iterator4next0ECsemR3zGJppC3_18tracing_attributes, symObjAddr: 0x2470, symBinAddr: 0x3EE4C, symSize: 0x68 }
  - { offset: 0x94F51, size: 0x8, addend: 0x0, symName: __RINvMNtCsaNl6UpbT7bw_4core6optionINtB3_6OptionQTNtNtCsc29TF2YcYso_3syn8generics14TypeParamBoundNtNtBO_5token4PlusEE3mapINtNtBO_10punctuated4PairQBK_QB1v_ENCNvXsg_B1W_INtB1W_8PairsMutBK_B1v_ENtNtNtNtB5_4iter6traits8iterator8Iterator4next0ECsemR3zGJppC3_18tracing_attributes, symObjAddr: 0x24D8, symBinAddr: 0x3EEB4, symSize: 0x68 }
  - { offset: 0x94FC9, size: 0x8, addend: 0x0, symName: __RINvMNtCsaNl6UpbT7bw_4core6optionINtB3_6OptionQTNtNtCsc29TF2YcYso_3syn8generics14WherePredicateNtNtBO_5token5CommaEE3mapINtNtBO_10punctuated4PairQBK_QB1v_ENCNvXsg_B1X_INtB1X_8PairsMutBK_B1v_ENtNtNtNtB5_4iter6traits8iterator8Iterator4next0ECsemR3zGJppC3_18tracing_attributes, symObjAddr: 0x2540, symBinAddr: 0x3EF1C, symSize: 0x68 }
  - { offset: 0x95041, size: 0x8, addend: 0x0, symName: __RINvMNtCsaNl6UpbT7bw_4core6optionINtB3_6OptionQTNtNtCsc29TF2YcYso_3syn8lifetime8LifetimeNtNtBO_5token4PlusEE3mapINtNtBO_10punctuated4PairQBK_QB1o_ENCNvXsg_B1P_INtB1P_8PairsMutBK_B1o_ENtNtNtNtB5_4iter6traits8iterator8Iterator4next0ECsemR3zGJppC3_18tracing_attributes, symObjAddr: 0x25A8, symBinAddr: 0x3EF84, symSize: 0x68 }
  - { offset: 0x950AC, size: 0x8, addend: 0x0, symName: __RINvMNtCsaNl6UpbT7bw_4core6optionINtB3_6OptionQTNtNtCsemR3zGJppC3_18tracing_attributes4attr5FieldNtNtCsc29TF2YcYso_3syn5token5CommaEE3mapQBK_NCNCNvXsG_NtB1B_10punctuatedINtB2p_14PrivateIterMutBK_B1x_ENtNtNtNtB5_4iter6traits12double_ended19DoubleEndedIterator9next_back00EBO_, symObjAddr: 0x2610, symBinAddr: 0x3EFEC, symSize: 0x50 }
  - { offset: 0x95117, size: 0x8, addend: 0x0, symName: __RINvMNtCsaNl6UpbT7bw_4core6optionINtB3_6OptionQTNtNtCsemR3zGJppC3_18tracing_attributes4attr5FieldNtNtCsc29TF2YcYso_3syn5token5CommaEE3mapQBK_NCNvXsF_NtB1B_10punctuatedINtB2n_14PrivateIterMutBK_B1x_ENtNtNtNtB5_4iter6traits8iterator8Iterator4next0EBO_, symObjAddr: 0x2660, symBinAddr: 0x3F03C, symSize: 0x50 }
  - { offset: 0x9520D, size: 0x8, addend: 0x0, symName: __RINvMNtCsaNl6UpbT7bw_4core6optionINtB3_6OptionRINtNtCsiTraAjBDcu4_5alloc5boxed3BoxDNtNtNtNtB5_4iter6traits8iterator8Iteratorp4ItemTNtCshnvkK9b4wzu_11proc_macro25IdentNtNtCsemR3zGJppC3_18tracing_attributes6expand10RecordTypeEEL_EE6map_orTjIBw_jEENvYBJ_B1j_9size_hintEB2I_, symObjAddr: 0x26B0, symBinAddr: 0x3F08C, symSize: 0xAC }
  - { offset: 0x952AD, size: 0x8, addend: 0x0, symName: __RINvMNtCsaNl6UpbT7bw_4core6optionINtB3_6OptionRINtNtCsiTraAjBDcu4_5alloc5boxed3BoxNtCshnvkK9b4wzu_11proc_macro25IdentEE3mapRB1i_NvYBJ_INtNtB5_7convert5AsRefB1i_E6as_refECsemR3zGJppC3_18tracing_attributes, symObjAddr: 0x275C, symBinAddr: 0x3F138, symSize: 0x50 }
  - { offset: 0x9533D, size: 0x8, addend: 0x0, symName: __RINvMNtCsaNl6UpbT7bw_4core6optionINtB3_6OptionRINtNtCsiTraAjBDcu4_5alloc5boxed3BoxNtNtCsemR3zGJppC3_18tracing_attributes4attr5FieldEE3mapRB1i_NvYBJ_INtNtB5_7convert5AsRefB1i_E6as_refEB1m_, symObjAddr: 0x27AC, symBinAddr: 0x3F188, symSize: 0x50 }
  - { offset: 0x953C0, size: 0x8, addend: 0x0, symName: __RINvMNtCsaNl6UpbT7bw_4core6optionINtB3_6OptionRNtCshnvkK9b4wzu_11proc_macro25IdentE3mapINtNtCsc29TF2YcYso_3syn10punctuated4PairBI_RNtNtB1s_5token3DotENcNtB1n_3End0ECsemR3zGJppC3_18tracing_attributes, symObjAddr: 0x27FC, symBinAddr: 0x3F1D8, symSize: 0x68 }
  - { offset: 0x9542B, size: 0x8, addend: 0x0, symName: __RINvMNtCsaNl6UpbT7bw_4core6optionINtB3_6OptionRNtCshnvkK9b4wzu_11proc_macro25IdentE7or_elseNCNvXsw_NtCsc29TF2YcYso_3syn10punctuatedINtB1z_11PrivateIterBJ_NtNtB1B_5token3DotENtNtNtNtB5_4iter6traits8iterator8Iterator4nexts_0ECsemR3zGJppC3_18tracing_attributes, symObjAddr: 0x2864, symBinAddr: 0x3F240, symSize: 0xA8 }
  - { offset: 0x954B4, size: 0x8, addend: 0x0, symName: __RINvMNtCsaNl6UpbT7bw_4core6optionINtB3_6OptionRNtCshnvkK9b4wzu_11proc_macro25IdentE7or_elseNCNvXsx_NtCsc29TF2YcYso_3syn10punctuatedINtB1z_11PrivateIterBJ_NtNtB1B_5token3DotENtNtNtNtB5_4iter6traits12double_ended19DoubleEndedIterator9next_back0ECsemR3zGJppC3_18tracing_attributes, symObjAddr: 0x290C, symBinAddr: 0x3F2E8, symSize: 0xA8 }
  - { offset: 0x95523, size: 0x8, addend: 0x0, symName: __RINvMNtCsaNl6UpbT7bw_4core6optionINtB3_6OptionRNtNtCsc29TF2YcYso_3syn4path11PathSegmentE3mapbNCNvMNtCsemR3zGJppC3_18tracing_attributes6expandNtB1y_10RecordType13parse_from_ty0EB1A_, symObjAddr: 0x29B4, symBinAddr: 0x3F390, symSize: 0x54 }
  - { offset: 0x9559B, size: 0x8, addend: 0x0, symName: __RINvMNtCsaNl6UpbT7bw_4core6optionINtB3_6OptionRNtNtCsemR3zGJppC3_18tracing_attributes4attr13LitStrOrIdentE3mapNtCshnvkK9b4wzu_11proc_macro211TokenStreamNCINvNtBN_6expand9gen_blockB1K_E0EBN_, symObjAddr: 0x2A08, symBinAddr: 0x3F3E4, symSize: 0x6C }
  - { offset: 0x95606, size: 0x8, addend: 0x0, symName: __RINvMNtCsaNl6UpbT7bw_4core6optionINtB3_6OptionRNtNtCsemR3zGJppC3_18tracing_attributes4attr13LitStrOrIdentE3mapNtCshnvkK9b4wzu_11proc_macro211TokenStreamNCINvNtBN_6expand9gen_blockNtNtCsc29TF2YcYso_3syn4stmt5BlockE0EBN_, symObjAddr: 0x2A74, symBinAddr: 0x3F450, symSize: 0x6C }
  - { offset: 0x95689, size: 0x8, addend: 0x0, symName: __RINvMNtCsaNl6UpbT7bw_4core6optionINtB3_6OptionRNtNtCsemR3zGJppC3_18tracing_attributes4attr5FieldE3mapINtNtCsc29TF2YcYso_3syn10punctuated4PairBI_RNtNtB1G_5token5CommaENcNtB1B_3End0EBN_, symObjAddr: 0x2AE0, symBinAddr: 0x3F4BC, symSize: 0x68 }
  - { offset: 0x956F4, size: 0x8, addend: 0x0, symName: __RINvMNtCsaNl6UpbT7bw_4core6optionINtB3_6OptionRNtNtCsemR3zGJppC3_18tracing_attributes4attr5FieldE7or_elseNCNvXsw_NtCsc29TF2YcYso_3syn10punctuatedINtB1N_11PrivateIterBJ_NtNtB1P_5token5CommaENtNtNtNtB5_4iter6traits8iterator8Iterator4nexts_0EBN_, symObjAddr: 0x2B48, symBinAddr: 0x3F524, symSize: 0xA8 }
  - { offset: 0x95770, size: 0x8, addend: 0x0, symName: __RINvMNtCsaNl6UpbT7bw_4core6optionINtB3_6OptionRNtNtCsemR3zGJppC3_18tracing_attributes4attr5FieldE7or_elseNCNvXsx_NtCsc29TF2YcYso_3syn10punctuatedINtB1N_11PrivateIterBJ_NtNtB1P_5token5CommaENtNtNtNtB5_4iter6traits12double_ended19DoubleEndedIterator9next_back0EBN_, symObjAddr: 0x2BF0, symBinAddr: 0x3F5CC, symSize: 0xA8 }
  - { offset: 0x957D2, size: 0x8, addend: 0x0, symName: __RINvMNtCsaNl6UpbT7bw_4core6optionINtB3_6OptionRTNtCshnvkK9b4wzu_11proc_macro25IdentNtNtCsc29TF2YcYso_3syn5token3DotEE3mapINtNtB1n_10punctuated4PairRBK_RB1j_ENCNvXsc_B1Y_INtB1Y_5PairsBK_B1j_ENtNtNtNtB5_4iter6traits8iterator8Iterator4next0ECsemR3zGJppC3_18tracing_attributes, symObjAddr: 0x2C98, symBinAddr: 0x3F674, symSize: 0x68 }
  - { offset: 0x9583D, size: 0x8, addend: 0x0, symName: __RINvMNtCsaNl6UpbT7bw_4core6optionINtB3_6OptionRTNtCshnvkK9b4wzu_11proc_macro25IdentNtNtCsc29TF2YcYso_3syn5token3DotEE3mapRBK_NCNCNvXsx_NtB1n_10punctuatedINtB29_11PrivateIterBK_B1j_ENtNtNtNtB5_4iter6traits12double_ended19DoubleEndedIterator9next_back00ECsemR3zGJppC3_18tracing_attributes, symObjAddr: 0x2D00, symBinAddr: 0x3F6DC, symSize: 0x50 }
  - { offset: 0x958A8, size: 0x8, addend: 0x0, symName: __RINvMNtCsaNl6UpbT7bw_4core6optionINtB3_6OptionRTNtCshnvkK9b4wzu_11proc_macro25IdentNtNtCsc29TF2YcYso_3syn5token3DotEE3mapRBK_NCNvXsw_NtB1n_10punctuatedINtB27_11PrivateIterBK_B1j_ENtNtNtNtB5_4iter6traits8iterator8Iterator4next0ECsemR3zGJppC3_18tracing_attributes, symObjAddr: 0x2D50, symBinAddr: 0x3F72C, symSize: 0x50 }
  - { offset: 0x95913, size: 0x8, addend: 0x0, symName: __RINvMNtCsaNl6UpbT7bw_4core6optionINtB3_6OptionRTNtNtCsemR3zGJppC3_18tracing_attributes4attr5FieldNtNtCsc29TF2YcYso_3syn5token5CommaEE3mapINtNtB1B_10punctuated4PairRBK_RB1x_ENCNvXsc_B2e_INtB2e_5PairsBK_B1x_ENtNtNtNtB5_4iter6traits8iterator8Iterator4next0EBO_, symObjAddr: 0x2DA0, symBinAddr: 0x3F77C, symSize: 0x68 }
  - { offset: 0x9597E, size: 0x8, addend: 0x0, symName: __RINvMNtCsaNl6UpbT7bw_4core6optionINtB3_6OptionRTNtNtCsemR3zGJppC3_18tracing_attributes4attr5FieldNtNtCsc29TF2YcYso_3syn5token5CommaEE3mapRBK_NCNCNvXsx_NtB1B_10punctuatedINtB2p_11PrivateIterBK_B1x_ENtNtNtNtB5_4iter6traits12double_ended19DoubleEndedIterator9next_back00EBO_, symObjAddr: 0x2E08, symBinAddr: 0x3F7E4, symSize: 0x50 }
  - { offset: 0x959E9, size: 0x8, addend: 0x0, symName: __RINvMNtCsaNl6UpbT7bw_4core6optionINtB3_6OptionRTNtNtCsemR3zGJppC3_18tracing_attributes4attr5FieldNtNtCsc29TF2YcYso_3syn5token5CommaEE3mapRBK_NCNvXsw_NtB1B_10punctuatedINtB2n_11PrivateIterBK_B1x_ENtNtNtNtB5_4iter6traits8iterator8Iterator4next0EBO_, symObjAddr: 0x2E58, symBinAddr: 0x3F834, symSize: 0x50 }
  - { offset: 0x95B05, size: 0x8, addend: 0x0, symName: __RNvMNtCsaNl6UpbT7bw_4core6optionINtB2_6OptionINtNtCsiTraAjBDcu4_5alloc5boxed3BoxDNtNtNtNtB4_4iter6traits8iterator8Iteratorp4ItemTNtCshnvkK9b4wzu_11proc_macro25IdentNtNtCsemR3zGJppC3_18tracing_attributes6expand10RecordTypeEEL_EE6insertB2G_, symObjAddr: 0x3750, symBinAddr: 0x4012C, symSize: 0xC8 }
  - { offset: 0x95BA4, size: 0x8, addend: 0x0, symName: __RNvMNtCsaNl6UpbT7bw_4core6optionINtB2_6OptionINtNtCsiTraAjBDcu4_5alloc5boxed3BoxNtCshnvkK9b4wzu_11proc_macro25IdentEE4takeCsemR3zGJppC3_18tracing_attributes, symObjAddr: 0x3818, symBinAddr: 0x401F4, symSize: 0x28 }
  - { offset: 0x95BFB, size: 0x8, addend: 0x0, symName: __RNvMNtCsaNl6UpbT7bw_4core6optionINtB2_6OptionINtNtCsiTraAjBDcu4_5alloc5boxed3BoxNtCshnvkK9b4wzu_11proc_macro25IdentEE6as_refCsemR3zGJppC3_18tracing_attributes, symObjAddr: 0x3840, symBinAddr: 0x4021C, symSize: 0x4C }
  - { offset: 0x95C61, size: 0x8, addend: 0x0, symName: __RNvMNtCsaNl6UpbT7bw_4core6optionINtB2_6OptionINtNtCsiTraAjBDcu4_5alloc5boxed3BoxNtCshnvkK9b4wzu_11proc_macro25IdentEE7is_noneCsemR3zGJppC3_18tracing_attributes, symObjAddr: 0x388C, symBinAddr: 0x40268, symSize: 0x28 }
  - { offset: 0x95CAB, size: 0x8, addend: 0x0, symName: __RNvMNtCsaNl6UpbT7bw_4core6optionINtB2_6OptionINtNtCsiTraAjBDcu4_5alloc5boxed3BoxNtCshnvkK9b4wzu_11proc_macro25IdentEE7is_someCsemR3zGJppC3_18tracing_attributes, symObjAddr: 0x38B4, symBinAddr: 0x40290, symSize: 0x28 }
  - { offset: 0x95CE4, size: 0x8, addend: 0x0, symName: __RNvMNtCsaNl6UpbT7bw_4core6optionINtB2_6OptionINtNtCsiTraAjBDcu4_5alloc5boxed3BoxNtNtCsc29TF2YcYso_3syn2ty4TypeEE6as_mutCsemR3zGJppC3_18tracing_attributes, symObjAddr: 0x38DC, symBinAddr: 0x402B8, symSize: 0x4C }
  - { offset: 0x95D3B, size: 0x8, addend: 0x0, symName: __RNvMNtCsaNl6UpbT7bw_4core6optionINtB2_6OptionINtNtCsiTraAjBDcu4_5alloc5boxed3BoxNtNtCsc29TF2YcYso_3syn2ty9BareFnArgEE6as_mutCsemR3zGJppC3_18tracing_attributes, symObjAddr: 0x3928, symBinAddr: 0x40304, symSize: 0x4C }
  - { offset: 0x95D92, size: 0x8, addend: 0x0, symName: __RNvMNtCsaNl6UpbT7bw_4core6optionINtB2_6OptionINtNtCsiTraAjBDcu4_5alloc5boxed3BoxNtNtCsc29TF2YcYso_3syn3pat3PatEE6as_mutCsemR3zGJppC3_18tracing_attributes, symObjAddr: 0x3974, symBinAddr: 0x40350, symSize: 0x4C }
  - { offset: 0x95DE9, size: 0x8, addend: 0x0, symName: __RNvMNtCsaNl6UpbT7bw_4core6optionINtB2_6OptionINtNtCsiTraAjBDcu4_5alloc5boxed3BoxNtNtCsc29TF2YcYso_3syn3pat8FieldPatEE6as_mutCsemR3zGJppC3_18tracing_attributes, symObjAddr: 0x39C0, symBinAddr: 0x4039C, symSize: 0x4C }
  - { offset: 0x95E40, size: 0x8, addend: 0x0, symName: __RNvMNtCsaNl6UpbT7bw_4core6optionINtB2_6OptionINtNtCsiTraAjBDcu4_5alloc5boxed3BoxNtNtCsc29TF2YcYso_3syn4data7VariantEE6as_mutCsemR3zGJppC3_18tracing_attributes, symObjAddr: 0x3A0C, symBinAddr: 0x403E8, symSize: 0x4C }
  - { offset: 0x95E97, size: 0x8, addend: 0x0, symName: __RNvMNtCsaNl6UpbT7bw_4core6optionINtB2_6OptionINtNtCsiTraAjBDcu4_5alloc5boxed3BoxNtNtCsc29TF2YcYso_3syn4expr10FieldValueEE6as_mutCsemR3zGJppC3_18tracing_attributes, symObjAddr: 0x3A58, symBinAddr: 0x40434, symSize: 0x4C }
  - { offset: 0x95EEE, size: 0x8, addend: 0x0, symName: __RNvMNtCsaNl6UpbT7bw_4core6optionINtB2_6OptionINtNtCsiTraAjBDcu4_5alloc5boxed3BoxNtNtCsc29TF2YcYso_3syn4expr4ExprEE6as_mutCsemR3zGJppC3_18tracing_attributes, symObjAddr: 0x3AA4, symBinAddr: 0x40480, symSize: 0x4C }
  - { offset: 0x95F45, size: 0x8, addend: 0x0, symName: __RNvMNtCsaNl6UpbT7bw_4core6optionINtB2_6OptionINtNtCsiTraAjBDcu4_5alloc5boxed3BoxNtNtCsc29TF2YcYso_3syn4item5FnArgEE6as_mutCsemR3zGJppC3_18tracing_attributes, symObjAddr: 0x3AF0, symBinAddr: 0x404CC, symSize: 0x4C }
  - { offset: 0x95F9C, size: 0x8, addend: 0x0, symName: __RNvMNtCsaNl6UpbT7bw_4core6optionINtB2_6OptionINtNtCsiTraAjBDcu4_5alloc5boxed3BoxNtNtCsc29TF2YcYso_3syn4item7UseTreeEE6as_mutCsemR3zGJppC3_18tracing_attributes, symObjAddr: 0x3B3C, symBinAddr: 0x40518, symSize: 0x4C }
  - { offset: 0x95FF3, size: 0x8, addend: 0x0, symName: __RNvMNtCsaNl6UpbT7bw_4core6optionINtB2_6OptionINtNtCsiTraAjBDcu4_5alloc5boxed3BoxNtNtCsc29TF2YcYso_3syn4path15GenericArgumentEE6as_mutCsemR3zGJppC3_18tracing_attributes, symObjAddr: 0x3B88, symBinAddr: 0x40564, symSize: 0x4C }
  - { offset: 0x9604A, size: 0x8, addend: 0x0, symName: __RNvMNtCsaNl6UpbT7bw_4core6optionINtB2_6OptionINtNtCsiTraAjBDcu4_5alloc5boxed3BoxNtNtCsc29TF2YcYso_3syn8generics13CapturedParamEE6as_mutCsemR3zGJppC3_18tracing_attributes, symObjAddr: 0x3BD4, symBinAddr: 0x405B0, symSize: 0x4C }
  - { offset: 0x960A1, size: 0x8, addend: 0x0, symName: __RNvMNtCsaNl6UpbT7bw_4core6optionINtB2_6OptionINtNtCsiTraAjBDcu4_5alloc5boxed3BoxNtNtCsc29TF2YcYso_3syn8generics14TypeParamBoundEE6as_mutCsemR3zGJppC3_18tracing_attributes, symObjAddr: 0x3C20, symBinAddr: 0x405FC, symSize: 0x4C }
  - { offset: 0x960F8, size: 0x8, addend: 0x0, symName: __RNvMNtCsaNl6UpbT7bw_4core6optionINtB2_6OptionINtNtCsiTraAjBDcu4_5alloc5boxed3BoxNtNtCsc29TF2YcYso_3syn8generics14WherePredicateEE6as_mutCsemR3zGJppC3_18tracing_attributes, symObjAddr: 0x3C6C, symBinAddr: 0x40648, symSize: 0x4C }
  - { offset: 0x9614F, size: 0x8, addend: 0x0, symName: __RNvMNtCsaNl6UpbT7bw_4core6optionINtB2_6OptionINtNtCsiTraAjBDcu4_5alloc5boxed3BoxNtNtCsc29TF2YcYso_3syn8lifetime8LifetimeEE6as_mutCsemR3zGJppC3_18tracing_attributes, symObjAddr: 0x3CB8, symBinAddr: 0x40694, symSize: 0x4C }
  - { offset: 0x961A6, size: 0x8, addend: 0x0, symName: __RNvMNtCsaNl6UpbT7bw_4core6optionINtB2_6OptionINtNtCsiTraAjBDcu4_5alloc5boxed3BoxNtNtCsemR3zGJppC3_18tracing_attributes4attr5FieldEE4takeB1k_, symObjAddr: 0x3D04, symBinAddr: 0x406E0, symSize: 0x28 }
  - { offset: 0x961F0, size: 0x8, addend: 0x0, symName: __RNvMNtCsaNl6UpbT7bw_4core6optionINtB2_6OptionINtNtCsiTraAjBDcu4_5alloc5boxed3BoxNtNtCsemR3zGJppC3_18tracing_attributes4attr5FieldEE6as_mutB1k_, symObjAddr: 0x3D2C, symBinAddr: 0x40708, symSize: 0x4C }
  - { offset: 0x96247, size: 0x8, addend: 0x0, symName: __RNvMNtCsaNl6UpbT7bw_4core6optionINtB2_6OptionINtNtCsiTraAjBDcu4_5alloc5boxed3BoxNtNtCsemR3zGJppC3_18tracing_attributes4attr5FieldEE6as_refB1k_, symObjAddr: 0x3D78, symBinAddr: 0x40754, symSize: 0x4C }
  - { offset: 0x962AD, size: 0x8, addend: 0x0, symName: __RNvMNtCsaNl6UpbT7bw_4core6optionINtB2_6OptionINtNtCsiTraAjBDcu4_5alloc5boxed3BoxNtNtCsemR3zGJppC3_18tracing_attributes4attr5FieldEE7is_noneB1k_, symObjAddr: 0x3DC4, symBinAddr: 0x407A0, symSize: 0x28 }
  - { offset: 0x962F7, size: 0x8, addend: 0x0, symName: __RNvMNtCsaNl6UpbT7bw_4core6optionINtB2_6OptionINtNtCsiTraAjBDcu4_5alloc5boxed3BoxNtNtCsemR3zGJppC3_18tracing_attributes4attr5FieldEE7is_someB1k_, symObjAddr: 0x3DEC, symBinAddr: 0x407C8, symSize: 0x28 }
  - { offset: 0x9633D, size: 0x8, addend: 0x0, symName: __RNvMNtCsaNl6UpbT7bw_4core6optionINtB2_6OptionNtNtCsc29TF2YcYso_3syn2ty8TypePathE6as_refCsemR3zGJppC3_18tracing_attributes, symObjAddr: 0x3E14, symBinAddr: 0x407F0, symSize: 0x50 }
  - { offset: 0x963CC, size: 0x8, addend: 0x0, symName: __RNvMNtCsaNl6UpbT7bw_4core6optionINtB2_6OptionNtNtCsc29TF2YcYso_3syn4expr4ExprE4iterCsemR3zGJppC3_18tracing_attributes, symObjAddr: 0x3E64, symBinAddr: 0x40840, symSize: 0x4C }
  - { offset: 0x96439, size: 0x8, addend: 0x0, symName: __RNvMNtCsaNl6UpbT7bw_4core6optionINtB2_6OptionNtNtCsc29TF2YcYso_3syn4expr4ExprE6as_mutCsemR3zGJppC3_18tracing_attributes, symObjAddr: 0x3EB0, symBinAddr: 0x4088C, symSize: 0x4C }
  - { offset: 0x96490, size: 0x8, addend: 0x0, symName: __RNvMNtCsaNl6UpbT7bw_4core6optionINtB2_6OptionNtNtCsc29TF2YcYso_3syn5token5AsyncE7is_someCsemR3zGJppC3_18tracing_attributes, symObjAddr: 0x3EFC, symBinAddr: 0x408D8, symSize: 0x20 }
  - { offset: 0x964C9, size: 0x8, addend: 0x0, symName: __RNvMNtCsaNl6UpbT7bw_4core6optionINtB2_6OptionNtNtCsc29TF2YcYso_3syn5token5ConstE7is_someCsemR3zGJppC3_18tracing_attributes, symObjAddr: 0x3F1C, symBinAddr: 0x408F8, symSize: 0x20 }
  - { offset: 0x96502, size: 0x8, addend: 0x0, symName: __RNvMNtCsaNl6UpbT7bw_4core6optionINtB2_6OptionNtNtCsemR3zGJppC3_18tracing_attributes4attr13LitStrOrIdentE6as_refBL_, symObjAddr: 0x3F3C, symBinAddr: 0x40918, symSize: 0x4C }
  - { offset: 0x9654C, size: 0x8, addend: 0x0, symName: __RNvMNtCsaNl6UpbT7bw_4core6optionINtB2_6OptionNtNtCsemR3zGJppC3_18tracing_attributes4attr13LitStrOrIdentE7is_someBL_, symObjAddr: 0x3F88, symBinAddr: 0x40964, symSize: 0x28 }
  - { offset: 0x96585, size: 0x8, addend: 0x0, symName: __RNvMNtCsaNl6UpbT7bw_4core6optionINtB2_6OptionNtNtCsemR3zGJppC3_18tracing_attributes4attr5LevelE7is_someBL_, symObjAddr: 0x3FB0, symBinAddr: 0x4098C, symSize: 0x30 }
  - { offset: 0x965B1, size: 0x8, addend: 0x0, symName: __RNvMNtCsaNl6UpbT7bw_4core6optionINtB2_6OptionNtNtCsemR3zGJppC3_18tracing_attributes4attr5LevelE9unwrap_orBL_, symObjAddr: 0x3FE0, symBinAddr: 0x409BC, symSize: 0x90 }
  - { offset: 0x96619, size: 0x8, addend: 0x0, symName: __RNvMNtCsaNl6UpbT7bw_4core6optionINtB2_6OptionNtNtCsemR3zGJppC3_18tracing_attributes4attr6FieldsE7is_someBL_, symObjAddr: 0x4070, symBinAddr: 0x40A4C, symSize: 0x2C }
  - { offset: 0x9668A, size: 0x8, addend: 0x0, symName: __RNvMNtCsaNl6UpbT7bw_4core6optionINtB2_6OptionRNtCshnvkK9b4wzu_11proc_macro25IdentE4iterCsemR3zGJppC3_18tracing_attributes, symObjAddr: 0x409C, symBinAddr: 0x40A78, symSize: 0x4C }
  - { offset: 0x966F7, size: 0x8, addend: 0x0, symName: __RNvMNtCsaNl6UpbT7bw_4core6optionINtB2_6OptionRNtNtCsc29TF2YcYso_3syn2ty8TypePathE7is_someCsemR3zGJppC3_18tracing_attributes, symObjAddr: 0x40E8, symBinAddr: 0x40AC4, symSize: 0x28 }
  - { offset: 0x96723, size: 0x8, addend: 0x0, symName: __RNvMNtCsaNl6UpbT7bw_4core6optionINtB2_6OptionbE9unwrap_orCsemR3zGJppC3_18tracing_attributes, symObjAddr: 0x4110, symBinAddr: 0x40AEC, symSize: 0x5C }
  - { offset: 0x9678B, size: 0x8, addend: 0x0, symName: __RNvXNtCs4EAaWzSXu1l_5quote9to_tokensRINtNtCsaNl6UpbT7bw_4core6option6OptionNtNtCsc29TF2YcYso_3syn2ty3AbiENtB2_8ToTokens9to_tokensCsemR3zGJppC3_18tracing_attributes, symObjAddr: 0x416C, symBinAddr: 0x40B48, symSize: 0x40 }
  - { offset: 0x967CA, size: 0x8, addend: 0x0, symName: __RNvXNtCs4EAaWzSXu1l_5quote9to_tokensRINtNtCsaNl6UpbT7bw_4core6option6OptionNtNtCsc29TF2YcYso_3syn5token2GtENtB2_8ToTokens9to_tokensCsemR3zGJppC3_18tracing_attributes, symObjAddr: 0x41AC, symBinAddr: 0x40B88, symSize: 0x40 }
  - { offset: 0x96809, size: 0x8, addend: 0x0, symName: __RNvXNtCs4EAaWzSXu1l_5quote9to_tokensRINtNtCsaNl6UpbT7bw_4core6option6OptionNtNtCsc29TF2YcYso_3syn5token2LtENtB2_8ToTokens9to_tokensCsemR3zGJppC3_18tracing_attributes, symObjAddr: 0x41EC, symBinAddr: 0x40BC8, symSize: 0x40 }
  - { offset: 0x96848, size: 0x8, addend: 0x0, symName: __RNvXNtCs4EAaWzSXu1l_5quote9to_tokensRINtNtCsaNl6UpbT7bw_4core6option6OptionNtNtCsc29TF2YcYso_3syn5token5AsyncENtB2_8ToTokens9to_tokensCsemR3zGJppC3_18tracing_attributes, symObjAddr: 0x422C, symBinAddr: 0x40C08, symSize: 0x40 }
  - { offset: 0x96887, size: 0x8, addend: 0x0, symName: __RNvXNtCs4EAaWzSXu1l_5quote9to_tokensRINtNtCsaNl6UpbT7bw_4core6option6OptionNtNtCsc29TF2YcYso_3syn5token5ConstENtB2_8ToTokens9to_tokensCsemR3zGJppC3_18tracing_attributes, symObjAddr: 0x426C, symBinAddr: 0x40C48, symSize: 0x40 }
  - { offset: 0x968C6, size: 0x8, addend: 0x0, symName: __RNvXNtCs4EAaWzSXu1l_5quote9to_tokensRINtNtCsaNl6UpbT7bw_4core6option6OptionNtNtCsc29TF2YcYso_3syn5token6UnsafeENtB2_8ToTokens9to_tokensCsemR3zGJppC3_18tracing_attributes, symObjAddr: 0x42AC, symBinAddr: 0x40C88, symSize: 0x40 }
  - { offset: 0x96905, size: 0x8, addend: 0x0, symName: __RNvXNtCs4EAaWzSXu1l_5quote9to_tokensRINtNtCsaNl6UpbT7bw_4core6option6OptionNtNtCsemR3zGJppC3_18tracing_attributes4attr6FieldsENtB2_8ToTokens9to_tokensB1f_, symObjAddr: 0x42EC, symBinAddr: 0x40CC8, symSize: 0x40 }
  - { offset: 0x9694A, size: 0x8, addend: 0x0, symName: __RNvXs3_NtCs4EAaWzSXu1l_5quote9to_tokensINtNtCsaNl6UpbT7bw_4core6option6OptionNtNtCsc29TF2YcYso_3syn4item8VariadicENtB5_8ToTokens9to_tokensCsemR3zGJppC3_18tracing_attributes, symObjAddr: 0x432C, symBinAddr: 0x40D08, symSize: 0x84 }
  - { offset: 0x969A6, size: 0x8, addend: 0x0, symName: __RNvXs3_NtCs4EAaWzSXu1l_5quote9to_tokensINtNtCsaNl6UpbT7bw_4core6option6OptionNtNtCsc29TF2YcYso_3syn5token2GtENtB5_8ToTokens9to_tokensCsemR3zGJppC3_18tracing_attributes, symObjAddr: 0x43B0, symBinAddr: 0x40D8C, symSize: 0x84 }
  - { offset: 0x96A02, size: 0x8, addend: 0x0, symName: __RNvXs3_NtCs4EAaWzSXu1l_5quote9to_tokensINtNtCsaNl6UpbT7bw_4core6option6OptionNtNtCsc29TF2YcYso_3syn5token2LtENtB5_8ToTokens9to_tokensCsemR3zGJppC3_18tracing_attributes, symObjAddr: 0x4434, symBinAddr: 0x40E10, symSize: 0x84 }
  - { offset: 0x96A5E, size: 0x8, addend: 0x0, symName: __RNvXs3_NtCs4EAaWzSXu1l_5quote9to_tokensINtNtCsaNl6UpbT7bw_4core6option6OptionNtNtCsemR3zGJppC3_18tracing_attributes4attr6FieldsENtB5_8ToTokens9to_tokensB1h_, symObjAddr: 0x44B8, symBinAddr: 0x40E94, symSize: 0x84 }
  - { offset: 0x96ACB, size: 0x8, addend: 0x0, symName: __RNvYINtNtCsaNl6UpbT7bw_4core6option4IterNtNtCsc29TF2YcYso_3syn4expr4ExprENtNtNtCs4EAaWzSXu1l_5quote9___private3ext14RepIteratorExt15quote_into_iterCsemR3zGJppC3_18tracing_attributes, symObjAddr: 0x54C4, symBinAddr: 0x41EA0, symSize: 0x24 }
  - { offset: 0x9714A, size: 0x8, addend: 0x0, symName: __RINvXs3_NtNtCsiTraAjBDcu4_5alloc3vec9into_iterINtB6_8IntoIterNtNtCsc29TF2YcYso_3syn4attr9AttributeENtNtNtNtCsaNl6UpbT7bw_4core4iter6traits8iterator8Iterator4folduNCINvNvB1z_9partition6extendBX_INtB8_3VecBX_ENCNvXs0_CsemR3zGJppC3_18tracing_attributesNtB3r_11MaybeItemFnINtNtB1H_7convert4FromNtNtB11_4item6ItemFnE4from0E0EB3r_, symObjAddr: 0x0, symBinAddr: 0x42140, symSize: 0x130 }
  - { offset: 0x9B65A, size: 0x8, addend: 0x0, symName: __RINvYINtNtNtCsiTraAjBDcu4_5alloc3vec9into_iter8IntoIterNtNtCsc29TF2YcYso_3syn4attr9AttributeENtNtNtNtCsaNl6UpbT7bw_4core4iter6traits8iterator8Iterator9partitionINtB8_3VecBR_ENCNvXs0_CsemR3zGJppC3_18tracing_attributesNtB2U_11MaybeItemFnINtNtB1B_7convert4FromNtNtBV_4item6ItemFnE4from0EB2U_, symObjAddr: 0xA2C, symBinAddr: 0x42B6C, symSize: 0x144 }
  - { offset: 0x9B6DF, size: 0x8, addend: 0x0, symName: __RINvYINtNtNtCsiTraAjBDcu4_5alloc3vec9into_iter8IntoIterTNtCshnvkK9b4wzu_11proc_macro25IdentNtNtCsc29TF2YcYso_3syn5token5CommaEENtNtNtNtCsaNl6UpbT7bw_4core4iter6traits8iterator8Iterator3mapBS_NCNvXs8_NtB1v_10punctuatedINtB3b_10PunctuatedBS_B1r_ENtNtB25_7collect12IntoIterator9into_iter0ECsemR3zGJppC3_18tracing_attributes, symObjAddr: 0xB70, symBinAddr: 0x42CB0, symSize: 0x1C }
  - { offset: 0x9B74C, size: 0x8, addend: 0x0, symName: __RINvYINtNtNtCsiTraAjBDcu4_5alloc3vec9into_iter8IntoIterTNtCshnvkK9b4wzu_11proc_macro25IdentTBS_NtNtCsemR3zGJppC3_18tracing_attributes6expand10RecordTypeEEENtNtNtNtCsaNl6UpbT7bw_4core4iter6traits8iterator8Iterator3mapTBS_BS_ENCNCINvB1x_9gen_blockNtBU_11TokenStreamEs0_0s4_0EB1z_, symObjAddr: 0xB8C, symBinAddr: 0x42CCC, symSize: 0x1C }
  - { offset: 0x9B7B9, size: 0x8, addend: 0x0, symName: __RINvYINtNtNtCsiTraAjBDcu4_5alloc3vec9into_iter8IntoIterTNtCshnvkK9b4wzu_11proc_macro25IdentTBS_NtNtCsemR3zGJppC3_18tracing_attributes6expand10RecordTypeEEENtNtNtNtCsaNl6UpbT7bw_4core4iter6traits8iterator8Iterator3mapTBS_BS_ENCNCINvB1x_9gen_blockNtNtCsc29TF2YcYso_3syn4stmt5BlockEs0_0s4_0EB1z_, symObjAddr: 0xBA8, symBinAddr: 0x42CE8, symSize: 0x1C }
  - { offset: 0x9B826, size: 0x8, addend: 0x0, symName: __RINvYINtNtNtCsiTraAjBDcu4_5alloc3vec9into_iter8IntoIterTNtNtCsc29TF2YcYso_3syn3pat3PatNtNtBW_5token5CommaEENtNtNtNtCsaNl6UpbT7bw_4core4iter6traits8iterator8Iterator3mapBS_NCNvXs8_NtBW_10punctuatedINtB2R_10PunctuatedBS_B1m_ENtNtB1L_7collect12IntoIterator9into_iter0ECsemR3zGJppC3_18tracing_attributes, symObjAddr: 0xBC4, symBinAddr: 0x42D04, symSize: 0x1C }
  - { offset: 0x9B893, size: 0x8, addend: 0x0, symName: __RINvYINtNtNtCsiTraAjBDcu4_5alloc3vec9into_iter8IntoIterTNtNtCsc29TF2YcYso_3syn3pat8FieldPatNtNtBW_5token5CommaEENtNtNtNtCsaNl6UpbT7bw_4core4iter6traits8iterator8Iterator3mapBS_NCNvXs8_NtBW_10punctuatedINtB2W_10PunctuatedBS_B1r_ENtNtB1Q_7collect12IntoIterator9into_iter0ECsemR3zGJppC3_18tracing_attributes, symObjAddr: 0xBE0, symBinAddr: 0x42D20, symSize: 0x1C }
  - { offset: 0x9B900, size: 0x8, addend: 0x0, symName: __RINvYINtNtNtCsiTraAjBDcu4_5alloc3vec9into_iter8IntoIterTNtNtCsc29TF2YcYso_3syn4item5FnArgNtNtBW_5token5CommaEENtNtNtNtCsaNl6UpbT7bw_4core4iter6traits8iterator8Iterator3mapBS_NCNvXs8_NtBW_10punctuatedINtB2U_10PunctuatedBS_B1p_ENtNtB1O_7collect12IntoIterator9into_iter0ECsemR3zGJppC3_18tracing_attributes, symObjAddr: 0xBFC, symBinAddr: 0x42D3C, symSize: 0x1C }
  - { offset: 0x9BBA3, size: 0x8, addend: 0x0, symName: __RNvYINtNtNtCsiTraAjBDcu4_5alloc3vec9into_iter8IntoIterNtCshnvkK9b4wzu_11proc_macro25IdentENtNtNtNtCsaNl6UpbT7bw_4core4iter6traits10exact_size17ExactSizeIterator3lenCsemR3zGJppC3_18tracing_attributes, symObjAddr: 0x2040, symBinAddr: 0x44180, symSize: 0xC4 }
  - { offset: 0x9BC9E, size: 0x8, addend: 0x0, symName: __RNvYINtNtNtCsiTraAjBDcu4_5alloc3vec9into_iter8IntoIterNtNtCsc29TF2YcYso_3syn3pat3PatENtNtNtNtCsaNl6UpbT7bw_4core4iter6traits10exact_size17ExactSizeIterator3lenCsemR3zGJppC3_18tracing_attributes, symObjAddr: 0x2104, symBinAddr: 0x44244, symSize: 0xC4 }
  - { offset: 0x9BD99, size: 0x8, addend: 0x0, symName: __RNvYINtNtNtCsiTraAjBDcu4_5alloc3vec9into_iter8IntoIterNtNtCsc29TF2YcYso_3syn3pat8FieldPatENtNtNtNtCsaNl6UpbT7bw_4core4iter6traits10exact_size17ExactSizeIterator3lenCsemR3zGJppC3_18tracing_attributes, symObjAddr: 0x21C8, symBinAddr: 0x44308, symSize: 0xC4 }
  - { offset: 0x9BE94, size: 0x8, addend: 0x0, symName: __RNvYINtNtNtCsiTraAjBDcu4_5alloc3vec9into_iter8IntoIterNtNtCsc29TF2YcYso_3syn4item5FnArgENtNtNtNtCsaNl6UpbT7bw_4core4iter6traits10exact_size17ExactSizeIterator3lenCsemR3zGJppC3_18tracing_attributes, symObjAddr: 0x228C, symBinAddr: 0x443CC, symSize: 0xC4 }
  - { offset: 0x9BF8F, size: 0x8, addend: 0x0, symName: __RNvYINtNtNtCsiTraAjBDcu4_5alloc3vec9into_iter8IntoIterNtNtCsc29TF2YcYso_3syn4stmt4StmtENtNtNtNtCsaNl6UpbT7bw_4core4iter6traits10exact_size17ExactSizeIterator3lenCsemR3zGJppC3_18tracing_attributes, symObjAddr: 0x2350, symBinAddr: 0x44490, symSize: 0xC4 }
  - { offset: 0x9C08A, size: 0x8, addend: 0x0, symName: __RNvYINtNtNtCsiTraAjBDcu4_5alloc3vec9into_iter8IntoIterTNtCshnvkK9b4wzu_11proc_macro25IdentNtNtCsc29TF2YcYso_3syn5token5CommaEENtNtNtNtCsaNl6UpbT7bw_4core4iter6traits10exact_size17ExactSizeIterator3lenCsemR3zGJppC3_18tracing_attributes, symObjAddr: 0x2414, symBinAddr: 0x44554, symSize: 0xC4 }
  - { offset: 0x9C185, size: 0x8, addend: 0x0, symName: __RNvYINtNtNtCsiTraAjBDcu4_5alloc3vec9into_iter8IntoIterTNtCshnvkK9b4wzu_11proc_macro25IdentTBR_NtNtCsemR3zGJppC3_18tracing_attributes6expand10RecordTypeEEENtNtNtNtCsaNl6UpbT7bw_4core4iter6traits10exact_size17ExactSizeIterator3lenB1y_, symObjAddr: 0x24D8, symBinAddr: 0x44618, symSize: 0xC4 }
  - { offset: 0x9C280, size: 0x8, addend: 0x0, symName: __RNvYINtNtNtCsiTraAjBDcu4_5alloc3vec9into_iter8IntoIterTNtNtCsc29TF2YcYso_3syn3pat3PatNtNtBV_5token5CommaEENtNtNtNtCsaNl6UpbT7bw_4core4iter6traits10exact_size17ExactSizeIterator3lenCsemR3zGJppC3_18tracing_attributes, symObjAddr: 0x259C, symBinAddr: 0x446DC, symSize: 0xC4 }
  - { offset: 0x9C37B, size: 0x8, addend: 0x0, symName: __RNvYINtNtNtCsiTraAjBDcu4_5alloc3vec9into_iter8IntoIterTNtNtCsc29TF2YcYso_3syn3pat8FieldPatNtNtBV_5token5CommaEENtNtNtNtCsaNl6UpbT7bw_4core4iter6traits10exact_size17ExactSizeIterator3lenCsemR3zGJppC3_18tracing_attributes, symObjAddr: 0x2660, symBinAddr: 0x447A0, symSize: 0xC4 }
  - { offset: 0x9C476, size: 0x8, addend: 0x0, symName: __RNvYINtNtNtCsiTraAjBDcu4_5alloc3vec9into_iter8IntoIterTNtNtCsc29TF2YcYso_3syn4item5FnArgNtNtBV_5token5CommaEENtNtNtNtCsaNl6UpbT7bw_4core4iter6traits10exact_size17ExactSizeIterator3lenCsemR3zGJppC3_18tracing_attributes, symObjAddr: 0x2724, symBinAddr: 0x44864, symSize: 0xC4 }
  - { offset: 0xA1C3B, size: 0x8, addend: 0x0, symName: __RINvXs3_NtNtCsiTraAjBDcu4_5alloc3vec9into_iterINtB6_8IntoIterNtNtCsc29TF2YcYso_3syn4attr9AttributeENtNtNtNtCsaNl6UpbT7bw_4core4iter6traits8iterator8Iterator4folduNCINvNvB1z_9partition6extendBX_INtB8_3VecBX_ENCNvXs0_CsemR3zGJppC3_18tracing_attributesNtB3r_11MaybeItemFnINtNtB1H_7convert4FromNtNtB11_4item6ItemFnE4from0E0EB3r_, symObjAddr: 0x0, symBinAddr: 0x42140, symSize: 0x130 }
  - { offset: 0xA1E0B, size: 0x8, addend: 0x0, symName: __RINvXs3_NtNtCsiTraAjBDcu4_5alloc3vec9into_iterINtB6_8IntoIterTNtCshnvkK9b4wzu_11proc_macro25IdentNtNtCsc29TF2YcYso_3syn5token5CommaEENtNtNtNtCsaNl6UpbT7bw_4core4iter6traits8iterator8Iterator4folduNCINvNtNtB2d_8adapters3map8map_foldBX_BY_uNCNvXs8_NtB1B_10punctuatedINtB3W_10PunctuatedBY_B1x_ENtNtB2b_7collect12IntoIterator9into_iter0NCINvNvB27_8for_each4callBY_NCINvMsi_B8_INtB8_3VecBY_E14extend_trustedINtB3d_3MapBI_B3O_EE0E0E0ECsemR3zGJppC3_18tracing_attributes, symObjAddr: 0x130, symBinAddr: 0x42270, symSize: 0x138 }
  - { offset: 0xA1FD9, size: 0x8, addend: 0x0, symName: __RINvXs3_NtNtCsiTraAjBDcu4_5alloc3vec9into_iterINtB6_8IntoIterTNtCshnvkK9b4wzu_11proc_macro25IdentTBY_NtNtCsemR3zGJppC3_18tracing_attributes6expand10RecordTypeEEENtNtNtNtCsaNl6UpbT7bw_4core4iter6traits8iterator8Iterator8try_foldINtNtB8_13in_place_drop11InPlaceDropTBY_BY_EENCINvNtNtB2F_8adapters3map12map_try_foldBX_B4d_B3D_INtNtB2H_6result6ResultB3D_zENCNCINvB1D_9gen_blockNtB10_11TokenStreamEs0_0s4_0NCINvNtB8_16in_place_collect24write_in_place_with_dropB4d_E0E0B5b_EB1F_, symObjAddr: 0x268, symBinAddr: 0x423A8, symSize: 0x1F0 }
  - { offset: 0xA21BB, size: 0x8, addend: 0x0, symName: __RINvXs3_NtNtCsiTraAjBDcu4_5alloc3vec9into_iterINtB6_8IntoIterTNtCshnvkK9b4wzu_11proc_macro25IdentTBY_NtNtCsemR3zGJppC3_18tracing_attributes6expand10RecordTypeEEENtNtNtNtCsaNl6UpbT7bw_4core4iter6traits8iterator8Iterator8try_foldINtNtB8_13in_place_drop11InPlaceDropTBY_BY_EENCINvNtNtB2F_8adapters3map12map_try_foldBX_B4d_B3D_INtNtB2H_6result6ResultB3D_zENCNCINvB1D_9gen_blockNtNtCsc29TF2YcYso_3syn4stmt5BlockEs0_0s4_0NCINvNtB8_16in_place_collect24write_in_place_with_dropB4d_E0E0B5b_EB1F_, symObjAddr: 0x458, symBinAddr: 0x42598, symSize: 0x1F0 }
  - { offset: 0xA239D, size: 0x8, addend: 0x0, symName: __RINvXs3_NtNtCsiTraAjBDcu4_5alloc3vec9into_iterINtB6_8IntoIterTNtNtCsc29TF2YcYso_3syn3pat3PatNtNtB12_5token5CommaEENtNtNtNtCsaNl6UpbT7bw_4core4iter6traits8iterator8Iterator4folduNCINvNtNtB1U_8adapters3map8map_foldBX_BY_uNCNvXs8_NtB12_10punctuatedINtB3D_10PunctuatedBY_B1s_ENtNtB1S_7collect12IntoIterator9into_iter0NCINvNvB1O_8for_each4callBY_NCINvMsi_B8_INtB8_3VecBY_E14extend_trustedINtB2U_3MapBI_B3v_EE0E0E0ECsemR3zGJppC3_18tracing_attributes, symObjAddr: 0x648, symBinAddr: 0x42788, symSize: 0x14C }
  - { offset: 0xA256D, size: 0x8, addend: 0x0, symName: __RINvXs3_NtNtCsiTraAjBDcu4_5alloc3vec9into_iterINtB6_8IntoIterTNtNtCsc29TF2YcYso_3syn3pat8FieldPatNtNtB12_5token5CommaEENtNtNtNtCsaNl6UpbT7bw_4core4iter6traits8iterator8Iterator4folduNCINvNtNtB1Z_8adapters3map8map_foldBX_BY_uNCNvXs8_NtB12_10punctuatedINtB3I_10PunctuatedBY_B1x_ENtNtB1X_7collect12IntoIterator9into_iter0NCINvNvB1T_8for_each4callBY_NCINvMsi_B8_INtB8_3VecBY_E14extend_trustedINtB2Z_3MapBI_B3A_EE0E0E0ECsemR3zGJppC3_18tracing_attributes, symObjAddr: 0x794, symBinAddr: 0x428D4, symSize: 0x14C }
  - { offset: 0xA273D, size: 0x8, addend: 0x0, symName: __RINvXs3_NtNtCsiTraAjBDcu4_5alloc3vec9into_iterINtB6_8IntoIterTNtNtCsc29TF2YcYso_3syn4item5FnArgNtNtB12_5token5CommaEENtNtNtNtCsaNl6UpbT7bw_4core4iter6traits8iterator8Iterator4folduNCINvNtNtB1X_8adapters3map8map_foldBX_BY_uNCNvXs8_NtB12_10punctuatedINtB3G_10PunctuatedBY_B1v_ENtNtB1V_7collect12IntoIterator9into_iter0NCINvNvB1R_8for_each4callBY_NCINvMsi_B8_INtB8_3VecBY_E14extend_trustedINtB2X_3MapBI_B3y_EE0E0E0ECsemR3zGJppC3_18tracing_attributes, symObjAddr: 0x8E0, symBinAddr: 0x42A20, symSize: 0x14C }
  - { offset: 0xA290D, size: 0x8, addend: 0x0, symName: __RNvXs3_NtNtCsiTraAjBDcu4_5alloc3vec9into_iterINtB5_8IntoIterNtCshnvkK9b4wzu_11proc_macro25IdentENtNtNtNtCsaNl6UpbT7bw_4core4iter6traits8iterator8Iterator4nextCsemR3zGJppC3_18tracing_attributes, symObjAddr: 0x119C, symBinAddr: 0x432DC, symSize: 0xD0 }
  - { offset: 0xA2A88, size: 0x8, addend: 0x0, symName: __RNvXs3_NtNtCsiTraAjBDcu4_5alloc3vec9into_iterINtB5_8IntoIterNtCshnvkK9b4wzu_11proc_macro25IdentENtNtNtNtCsaNl6UpbT7bw_4core4iter6traits8iterator8Iterator9size_hintCsemR3zGJppC3_18tracing_attributes, symObjAddr: 0x126C, symBinAddr: 0x433AC, symSize: 0x6C }
  - { offset: 0xA2AE3, size: 0x8, addend: 0x0, symName: __RNvXs3_NtNtCsiTraAjBDcu4_5alloc3vec9into_iterINtB5_8IntoIterNtNtCsc29TF2YcYso_3syn3pat3PatENtNtNtNtCsaNl6UpbT7bw_4core4iter6traits8iterator8Iterator4nextCsemR3zGJppC3_18tracing_attributes, symObjAddr: 0x12D8, symBinAddr: 0x43418, symSize: 0xE8 }
  - { offset: 0xA2C57, size: 0x8, addend: 0x0, symName: __RNvXs3_NtNtCsiTraAjBDcu4_5alloc3vec9into_iterINtB5_8IntoIterNtNtCsc29TF2YcYso_3syn3pat3PatENtNtNtNtCsaNl6UpbT7bw_4core4iter6traits8iterator8Iterator9size_hintCsemR3zGJppC3_18tracing_attributes, symObjAddr: 0x13C0, symBinAddr: 0x43500, symSize: 0x6C }
  - { offset: 0xA2CB2, size: 0x8, addend: 0x0, symName: __RNvXs3_NtNtCsiTraAjBDcu4_5alloc3vec9into_iterINtB5_8IntoIterNtNtCsc29TF2YcYso_3syn3pat8FieldPatENtNtNtNtCsaNl6UpbT7bw_4core4iter6traits8iterator8Iterator4nextCsemR3zGJppC3_18tracing_attributes, symObjAddr: 0x142C, symBinAddr: 0x4356C, symSize: 0xDC }
  - { offset: 0xA2E24, size: 0x8, addend: 0x0, symName: __RNvXs3_NtNtCsiTraAjBDcu4_5alloc3vec9into_iterINtB5_8IntoIterNtNtCsc29TF2YcYso_3syn3pat8FieldPatENtNtNtNtCsaNl6UpbT7bw_4core4iter6traits8iterator8Iterator9size_hintCsemR3zGJppC3_18tracing_attributes, symObjAddr: 0x1508, symBinAddr: 0x43648, symSize: 0x6C }
  - { offset: 0xA2E7F, size: 0x8, addend: 0x0, symName: __RNvXs3_NtNtCsiTraAjBDcu4_5alloc3vec9into_iterINtB5_8IntoIterNtNtCsc29TF2YcYso_3syn4item5FnArgENtNtNtNtCsaNl6UpbT7bw_4core4iter6traits8iterator8Iterator4nextCsemR3zGJppC3_18tracing_attributes, symObjAddr: 0x1574, symBinAddr: 0x436B4, symSize: 0xDC }
  - { offset: 0xA2FF1, size: 0x8, addend: 0x0, symName: __RNvXs3_NtNtCsiTraAjBDcu4_5alloc3vec9into_iterINtB5_8IntoIterNtNtCsc29TF2YcYso_3syn4item5FnArgENtNtNtNtCsaNl6UpbT7bw_4core4iter6traits8iterator8Iterator9size_hintCsemR3zGJppC3_18tracing_attributes, symObjAddr: 0x1650, symBinAddr: 0x43790, symSize: 0x6C }
  - { offset: 0xA304C, size: 0x8, addend: 0x0, symName: __RNvXs3_NtNtCsiTraAjBDcu4_5alloc3vec9into_iterINtB5_8IntoIterNtNtCsc29TF2YcYso_3syn4stmt4StmtENtNtNtNtCsaNl6UpbT7bw_4core4iter6traits8iterator8Iterator4nextCsemR3zGJppC3_18tracing_attributes, symObjAddr: 0x16BC, symBinAddr: 0x437FC, symSize: 0xE4 }
  - { offset: 0xA31C0, size: 0x8, addend: 0x0, symName: __RNvXs3_NtNtCsiTraAjBDcu4_5alloc3vec9into_iterINtB5_8IntoIterNtNtCsc29TF2YcYso_3syn4stmt4StmtENtNtNtNtCsaNl6UpbT7bw_4core4iter6traits8iterator8Iterator9size_hintCsemR3zGJppC3_18tracing_attributes, symObjAddr: 0x17A0, symBinAddr: 0x438E0, symSize: 0x6C }
  - { offset: 0xA321B, size: 0x8, addend: 0x0, symName: __RNvXs3_NtNtCsiTraAjBDcu4_5alloc3vec9into_iterINtB5_8IntoIterTNtCshnvkK9b4wzu_11proc_macro25IdentNtNtCsc29TF2YcYso_3syn5token5CommaEENtNtNtNtCsaNl6UpbT7bw_4core4iter6traits8iterator8Iterator9size_hintCsemR3zGJppC3_18tracing_attributes, symObjAddr: 0x180C, symBinAddr: 0x4394C, symSize: 0x6C }
  - { offset: 0xA3276, size: 0x8, addend: 0x0, symName: __RNvXs3_NtNtCsiTraAjBDcu4_5alloc3vec9into_iterINtB5_8IntoIterTNtCshnvkK9b4wzu_11proc_macro25IdentTBX_NtNtCsemR3zGJppC3_18tracing_attributes6expand10RecordTypeEEENtNtNtNtCsaNl6UpbT7bw_4core4iter6traits8iterator8Iterator9size_hintB1E_, symObjAddr: 0x1878, symBinAddr: 0x439B8, symSize: 0x6C }
  - { offset: 0xA32D1, size: 0x8, addend: 0x0, symName: __RNvXs3_NtNtCsiTraAjBDcu4_5alloc3vec9into_iterINtB5_8IntoIterTNtNtCsc29TF2YcYso_3syn3pat3PatNtNtB11_5token5CommaEENtNtNtNtCsaNl6UpbT7bw_4core4iter6traits8iterator8Iterator9size_hintCsemR3zGJppC3_18tracing_attributes, symObjAddr: 0x18E4, symBinAddr: 0x43A24, symSize: 0x6C }
  - { offset: 0xA332C, size: 0x8, addend: 0x0, symName: __RNvXs3_NtNtCsiTraAjBDcu4_5alloc3vec9into_iterINtB5_8IntoIterTNtNtCsc29TF2YcYso_3syn3pat8FieldPatNtNtB11_5token5CommaEENtNtNtNtCsaNl6UpbT7bw_4core4iter6traits8iterator8Iterator9size_hintCsemR3zGJppC3_18tracing_attributes, symObjAddr: 0x1950, symBinAddr: 0x43A90, symSize: 0x6C }
  - { offset: 0xA3387, size: 0x8, addend: 0x0, symName: __RNvXs3_NtNtCsiTraAjBDcu4_5alloc3vec9into_iterINtB5_8IntoIterTNtNtCsc29TF2YcYso_3syn4item5FnArgNtNtB11_5token5CommaEENtNtNtNtCsaNl6UpbT7bw_4core4iter6traits8iterator8Iterator9size_hintCsemR3zGJppC3_18tracing_attributes, symObjAddr: 0x19BC, symBinAddr: 0x43AFC, symSize: 0x6C }
  - { offset: 0xA36C7, size: 0x8, addend: 0x0, symName: __RNvXNvXsd_NtNtCsiTraAjBDcu4_5alloc3vec9into_iterINtB8_8IntoIterppENtNtNtCsaNl6UpbT7bw_4core3ops4drop4Drop4dropINtB2_9DropGuardNtCshnvkK9b4wzu_11proc_macro25IdentNtNtBc_5alloc6GlobalEB12_4dropCsemR3zGJppC3_18tracing_attributes, symObjAddr: 0xCC4, symBinAddr: 0x42E04, symSize: 0x7C }
  - { offset: 0xA37D4, size: 0x8, addend: 0x0, symName: __RNvXNvXsd_NtNtCsiTraAjBDcu4_5alloc3vec9into_iterINtB8_8IntoIterppENtNtNtCsaNl6UpbT7bw_4core3ops4drop4Drop4dropINtB2_9DropGuardNtNtCsc29TF2YcYso_3syn3pat3PatNtNtBc_5alloc6GlobalEB12_4dropCsemR3zGJppC3_18tracing_attributes, symObjAddr: 0xD40, symBinAddr: 0x42E80, symSize: 0x7C }
  - { offset: 0xA38E1, size: 0x8, addend: 0x0, symName: __RNvXNvXsd_NtNtCsiTraAjBDcu4_5alloc3vec9into_iterINtB8_8IntoIterppENtNtNtCsaNl6UpbT7bw_4core3ops4drop4Drop4dropINtB2_9DropGuardNtNtCsc29TF2YcYso_3syn3pat8FieldPatNtNtBc_5alloc6GlobalEB12_4dropCsemR3zGJppC3_18tracing_attributes, symObjAddr: 0xDBC, symBinAddr: 0x42EFC, symSize: 0x7C }
  - { offset: 0xA39EE, size: 0x8, addend: 0x0, symName: __RNvXNvXsd_NtNtCsiTraAjBDcu4_5alloc3vec9into_iterINtB8_8IntoIterppENtNtNtCsaNl6UpbT7bw_4core3ops4drop4Drop4dropINtB2_9DropGuardNtNtCsc29TF2YcYso_3syn4item5FnArgNtNtBc_5alloc6GlobalEB12_4dropCsemR3zGJppC3_18tracing_attributes, symObjAddr: 0xE38, symBinAddr: 0x42F78, symSize: 0x7C }
  - { offset: 0xA3AFB, size: 0x8, addend: 0x0, symName: __RNvXNvXsd_NtNtCsiTraAjBDcu4_5alloc3vec9into_iterINtB8_8IntoIterppENtNtNtCsaNl6UpbT7bw_4core3ops4drop4Drop4dropINtB2_9DropGuardNtNtCsc29TF2YcYso_3syn4stmt4StmtNtNtBc_5alloc6GlobalEB12_4dropCsemR3zGJppC3_18tracing_attributes, symObjAddr: 0xEB4, symBinAddr: 0x42FF4, symSize: 0x7C }
  - { offset: 0xA3C08, size: 0x8, addend: 0x0, symName: __RNvXNvXsd_NtNtCsiTraAjBDcu4_5alloc3vec9into_iterINtB8_8IntoIterppENtNtNtCsaNl6UpbT7bw_4core3ops4drop4Drop4dropINtB2_9DropGuardTNtCshnvkK9b4wzu_11proc_macro25IdentNtNtCsc29TF2YcYso_3syn5token5CommaENtNtBc_5alloc6GlobalEB12_4dropCsemR3zGJppC3_18tracing_attributes, symObjAddr: 0xF30, symBinAddr: 0x43070, symSize: 0x7C }
  - { offset: 0xA3D15, size: 0x8, addend: 0x0, symName: __RNvXNvXsd_NtNtCsiTraAjBDcu4_5alloc3vec9into_iterINtB8_8IntoIterppENtNtNtCsaNl6UpbT7bw_4core3ops4drop4Drop4dropINtB2_9DropGuardTNtCshnvkK9b4wzu_11proc_macro25IdentTB21_NtNtCsemR3zGJppC3_18tracing_attributes6expand10RecordTypeEENtNtBc_5alloc6GlobalEB12_4dropB2J_, symObjAddr: 0xFAC, symBinAddr: 0x430EC, symSize: 0x7C }
  - { offset: 0xA3E22, size: 0x8, addend: 0x0, symName: __RNvXNvXsd_NtNtCsiTraAjBDcu4_5alloc3vec9into_iterINtB8_8IntoIterppENtNtNtCsaNl6UpbT7bw_4core3ops4drop4Drop4dropINtB2_9DropGuardTNtNtCsc29TF2YcYso_3syn3pat3PatNtNtB25_5token5CommaENtNtBc_5alloc6GlobalEB12_4dropCsemR3zGJppC3_18tracing_attributes, symObjAddr: 0x1028, symBinAddr: 0x43168, symSize: 0x7C }
  - { offset: 0xA3F2F, size: 0x8, addend: 0x0, symName: __RNvXNvXsd_NtNtCsiTraAjBDcu4_5alloc3vec9into_iterINtB8_8IntoIterppENtNtNtCsaNl6UpbT7bw_4core3ops4drop4Drop4dropINtB2_9DropGuardTNtNtCsc29TF2YcYso_3syn3pat8FieldPatNtNtB25_5token5CommaENtNtBc_5alloc6GlobalEB12_4dropCsemR3zGJppC3_18tracing_attributes, symObjAddr: 0x10A4, symBinAddr: 0x431E4, symSize: 0x7C }
  - { offset: 0xA403C, size: 0x8, addend: 0x0, symName: __RNvXNvXsd_NtNtCsiTraAjBDcu4_5alloc3vec9into_iterINtB8_8IntoIterppENtNtNtCsaNl6UpbT7bw_4core3ops4drop4Drop4dropINtB2_9DropGuardTNtNtCsc29TF2YcYso_3syn4item5FnArgNtNtB25_5token5CommaENtNtBc_5alloc6GlobalEB12_4dropCsemR3zGJppC3_18tracing_attributes, symObjAddr: 0x1120, symBinAddr: 0x43260, symSize: 0x7C }
  - { offset: 0xA42D1, size: 0x8, addend: 0x0, symName: __RNvXsd_NtNtCsiTraAjBDcu4_5alloc3vec9into_iterINtB5_8IntoIterNtCshnvkK9b4wzu_11proc_macro25IdentENtNtNtCsaNl6UpbT7bw_4core3ops4drop4Drop4dropCsemR3zGJppC3_18tracing_attributes, symObjAddr: 0x1A28, symBinAddr: 0x43B68, symSize: 0x98 }
  - { offset: 0xA436B, size: 0x8, addend: 0x0, symName: __RNvXsd_NtNtCsiTraAjBDcu4_5alloc3vec9into_iterINtB5_8IntoIterNtNtCsc29TF2YcYso_3syn3pat3PatENtNtNtCsaNl6UpbT7bw_4core3ops4drop4Drop4dropCsemR3zGJppC3_18tracing_attributes, symObjAddr: 0x1AC0, symBinAddr: 0x43C00, symSize: 0x98 }
  - { offset: 0xA4405, size: 0x8, addend: 0x0, symName: __RNvXsd_NtNtCsiTraAjBDcu4_5alloc3vec9into_iterINtB5_8IntoIterNtNtCsc29TF2YcYso_3syn3pat8FieldPatENtNtNtCsaNl6UpbT7bw_4core3ops4drop4Drop4dropCsemR3zGJppC3_18tracing_attributes, symObjAddr: 0x1B58, symBinAddr: 0x43C98, symSize: 0x98 }
  - { offset: 0xA449F, size: 0x8, addend: 0x0, symName: __RNvXsd_NtNtCsiTraAjBDcu4_5alloc3vec9into_iterINtB5_8IntoIterNtNtCsc29TF2YcYso_3syn4item5FnArgENtNtNtCsaNl6UpbT7bw_4core3ops4drop4Drop4dropCsemR3zGJppC3_18tracing_attributes, symObjAddr: 0x1BF0, symBinAddr: 0x43D30, symSize: 0x98 }
  - { offset: 0xA4539, size: 0x8, addend: 0x0, symName: __RNvXsd_NtNtCsiTraAjBDcu4_5alloc3vec9into_iterINtB5_8IntoIterNtNtCsc29TF2YcYso_3syn4stmt4StmtENtNtNtCsaNl6UpbT7bw_4core3ops4drop4Drop4dropCsemR3zGJppC3_18tracing_attributes, symObjAddr: 0x1C88, symBinAddr: 0x43DC8, symSize: 0x98 }
  - { offset: 0xA45D3, size: 0x8, addend: 0x0, symName: __RNvXsd_NtNtCsiTraAjBDcu4_5alloc3vec9into_iterINtB5_8IntoIterTNtCshnvkK9b4wzu_11proc_macro25IdentNtNtCsc29TF2YcYso_3syn5token5CommaEENtNtNtCsaNl6UpbT7bw_4core3ops4drop4Drop4dropCsemR3zGJppC3_18tracing_attributes, symObjAddr: 0x1D20, symBinAddr: 0x43E60, symSize: 0x98 }
  - { offset: 0xA466D, size: 0x8, addend: 0x0, symName: __RNvXsd_NtNtCsiTraAjBDcu4_5alloc3vec9into_iterINtB5_8IntoIterTNtCshnvkK9b4wzu_11proc_macro25IdentTBX_NtNtCsemR3zGJppC3_18tracing_attributes6expand10RecordTypeEEENtNtNtCsaNl6UpbT7bw_4core3ops4drop4Drop4dropB1E_, symObjAddr: 0x1DB8, symBinAddr: 0x43EF8, symSize: 0x98 }
  - { offset: 0xA4707, size: 0x8, addend: 0x0, symName: __RNvXsd_NtNtCsiTraAjBDcu4_5alloc3vec9into_iterINtB5_8IntoIterTNtNtCsc29TF2YcYso_3syn3pat3PatNtNtB11_5token5CommaEENtNtNtCsaNl6UpbT7bw_4core3ops4drop4Drop4dropCsemR3zGJppC3_18tracing_attributes, symObjAddr: 0x1E50, symBinAddr: 0x43F90, symSize: 0x98 }
  - { offset: 0xA47A1, size: 0x8, addend: 0x0, symName: __RNvXsd_NtNtCsiTraAjBDcu4_5alloc3vec9into_iterINtB5_8IntoIterTNtNtCsc29TF2YcYso_3syn3pat8FieldPatNtNtB11_5token5CommaEENtNtNtCsaNl6UpbT7bw_4core3ops4drop4Drop4dropCsemR3zGJppC3_18tracing_attributes, symObjAddr: 0x1EE8, symBinAddr: 0x44028, symSize: 0x98 }
  - { offset: 0xA483B, size: 0x8, addend: 0x0, symName: __RNvXsd_NtNtCsiTraAjBDcu4_5alloc3vec9into_iterINtB5_8IntoIterTNtNtCsc29TF2YcYso_3syn4item5FnArgNtNtB11_5token5CommaEENtNtNtCsaNl6UpbT7bw_4core3ops4drop4Drop4dropCsemR3zGJppC3_18tracing_attributes, symObjAddr: 0x1F80, symBinAddr: 0x440C0, symSize: 0x98 }
  - { offset: 0xA4B8D, size: 0x8, addend: 0x0, symName: __RNvXsf_NtNtCsiTraAjBDcu4_5alloc3vec9into_iterINtB5_8IntoIterTNtCshnvkK9b4wzu_11proc_macro25IdentTBX_NtNtCsemR3zGJppC3_18tracing_attributes6expand10RecordTypeEEENtNtNtCsaNl6UpbT7bw_4core4iter8adapters10SourceIter8as_innerB1E_, symObjAddr: 0x2018, symBinAddr: 0x44158, symSize: 0x14 }
  - { offset: 0xA4BD3, size: 0x8, addend: 0x0, symName: __RNvXsg_NtNtCsiTraAjBDcu4_5alloc3vec9into_iterINtB5_8IntoIterTNtCshnvkK9b4wzu_11proc_macro25IdentTBX_NtNtCsemR3zGJppC3_18tracing_attributes6expand10RecordTypeEEENtNtB7_16in_place_collect13AsVecIntoIter12as_into_iterB1E_, symObjAddr: 0x202C, symBinAddr: 0x4416C, symSize: 0x14 }
  - { offset: 0xA6327, size: 0x8, addend: 0x0, symName: __RNvMs_NtNtCsiTraAjBDcu4_5alloc3vec9into_iterINtB4_8IntoIterTNtCshnvkK9b4wzu_11proc_macro25IdentTBW_NtNtCsemR3zGJppC3_18tracing_attributes6expand10RecordTypeEEE32forget_allocation_drop_remainingB1D_, symObjAddr: 0xC18, symBinAddr: 0x42D58, symSize: 0xAC }
  - { offset: 0xA7375, size: 0x8, addend: 0x0, symName: __RINvMsg_NtNtNtCsaNl6UpbT7bw_4core4iter8adapters7flattenINtB6_13FlattenCompatINtNtB8_3map3MapINtNtCsc29TF2YcYso_3syn10punctuated8IntoIterNtNtB1x_3pat3PatENCNvNtCsemR3zGJppC3_18tracing_attributes6expand11param_namess0_0EINtNtCsiTraAjBDcu4_5alloc5boxed3BoxDNtNtNtBa_6traits8iterator8Iteratorp4ItemTNtCshnvkK9b4wzu_11proc_macro25IdentNtB2v_10RecordTypeEEL_EE13iter_try_foldjINvNvXsi_B6_IBS_ppEB44_10advance_by7advanceB3u_EINtNtNtBc_3ops12control_flow11ControlFlowujEEB2x_, symObjAddr: 0x0, symBinAddr: 0x44928, symSize: 0x39C }
  - { offset: 0xA7DCB, size: 0x8, addend: 0x0, symName: __RNCINvNvMsg_NtNtNtCsaNl6UpbT7bw_4core4iter8adapters7flattenINtBa_13FlattenCompatppE13iter_try_fold7flattenINtNtCsiTraAjBDcu4_5alloc5boxed3BoxDNtNtNtBe_6traits8iterator8Iteratorp4ItemTNtCshnvkK9b4wzu_11proc_macro25IdentNtNtCsemR3zGJppC3_18tracing_attributes6expand10RecordTypeEEL_EjINtNtNtBg_3ops12control_flow11ControlFlowujEINvNvXsi_Ba_BV_B2g_10advance_by7advanceB1G_EE0B3y_, symObjAddr: 0xD14, symBinAddr: 0x4563C, symSize: 0xD8 }
  - { offset: 0xA8093, size: 0x8, addend: 0x0, symName: __RINvNtNtNtCsaNl6UpbT7bw_4core4iter8adapters7flatten17and_then_or_clearINtNtCsiTraAjBDcu4_5alloc5boxed3BoxDNtNtNtB6_6traits8iterator8Iteratorp4ItemTNtCshnvkK9b4wzu_11proc_macro25IdentNtNtCsemR3zGJppC3_18tracing_attributes6expand10RecordTypeEEL_EB2k_NvYB16_B1G_4nextEB2Y_, symObjAddr: 0xAD4, symBinAddr: 0x453FC, symSize: 0x120 }
  - { offset: 0xA81DC, size: 0x8, addend: 0x0, symName: __RINvNvXsi_NtNtNtCsaNl6UpbT7bw_4core4iter8adapters7flattenINtB8_13FlattenCompatppENtNtNtBc_6traits8iterator8Iterator10advance_by7advanceINtNtCsiTraAjBDcu4_5alloc5boxed3BoxDB1h_p4ItemTNtCshnvkK9b4wzu_11proc_macro25IdentNtNtCsemR3zGJppC3_18tracing_attributes6expand10RecordTypeEEL_EEB3x_, symObjAddr: 0xBF4, symBinAddr: 0x4551C, symSize: 0x88 }
  - { offset: 0xA8241, size: 0x8, addend: 0x0, symName: __RNvXsi_NtNtNtCsaNl6UpbT7bw_4core4iter8adapters7flattenINtB5_13FlattenCompatINtNtB7_3map3MapINtNtCsc29TF2YcYso_3syn10punctuated8IntoIterNtNtB1w_3pat3PatENCNvNtCsemR3zGJppC3_18tracing_attributes6expand11param_namess0_0EINtNtCsiTraAjBDcu4_5alloc5boxed3BoxDNtNtNtB9_6traits8iterator8Iteratorp4ItemTNtCshnvkK9b4wzu_11proc_macro25IdentNtB2u_10RecordTypeEEL_EEB43_10advance_byB2w_, symObjAddr: 0xFCC, symBinAddr: 0x458F4, symSize: 0x60 }
  - { offset: 0xA82AE, size: 0x8, addend: 0x0, symName: __RNvXsi_NtNtNtCsaNl6UpbT7bw_4core4iter8adapters7flattenINtB5_13FlattenCompatINtNtB7_3map3MapINtNtCsc29TF2YcYso_3syn10punctuated8IntoIterNtNtB1w_3pat3PatENCNvNtCsemR3zGJppC3_18tracing_attributes6expand11param_namess0_0EINtNtCsiTraAjBDcu4_5alloc5boxed3BoxDNtNtNtB9_6traits8iterator8Iteratorp4ItemTNtCshnvkK9b4wzu_11proc_macro25IdentNtB2u_10RecordTypeEEL_EEB43_4nextB2w_, symObjAddr: 0x102C, symBinAddr: 0x45954, symSize: 0x12C }
  - { offset: 0xA8340, size: 0x8, addend: 0x0, symName: __RNvXsi_NtNtNtCsaNl6UpbT7bw_4core4iter8adapters7flattenINtB5_13FlattenCompatINtNtB7_3map3MapINtNtCsc29TF2YcYso_3syn10punctuated8IntoIterNtNtB1w_3pat3PatENCNvNtCsemR3zGJppC3_18tracing_attributes6expand11param_namess0_0EINtNtCsiTraAjBDcu4_5alloc5boxed3BoxDNtNtNtB9_6traits8iterator8Iteratorp4ItemTNtCshnvkK9b4wzu_11proc_macro25IdentNtB2u_10RecordTypeEEL_EEB43_9size_hintB2w_, symObjAddr: 0x1158, symBinAddr: 0x45A80, symSize: 0x764 }
  - { offset: 0xA8A67, size: 0x8, addend: 0x0, symName: __RNvXsi_NtNtNtCsaNl6UpbT7bw_4core4iter8adapters7flattenINtB5_13FlattenCompatINtNtB7_3map3MapINtNtCsc29TF2YcYso_3syn10punctuated8IntoIterNtNtB1w_3pat3PatENCNvNtCsemR3zGJppC3_18tracing_attributes6expand11param_namess_0EINtNtCsiTraAjBDcu4_5alloc5boxed3BoxDNtNtNtB9_6traits8iterator8Iteratorp4ItemTNtCshnvkK9b4wzu_11proc_macro25IdentNtB2u_10RecordTypeEEL_EEB42_10advance_byB2w_, symObjAddr: 0x18BC, symBinAddr: 0x461E4, symSize: 0x60 }
  - { offset: 0xA8AD4, size: 0x8, addend: 0x0, symName: __RNvXsi_NtNtNtCsaNl6UpbT7bw_4core4iter8adapters7flattenINtB5_13FlattenCompatINtNtB7_3map3MapINtNtCsc29TF2YcYso_3syn10punctuated8IntoIterNtNtB1w_3pat3PatENCNvNtCsemR3zGJppC3_18tracing_attributes6expand11param_namess_0EINtNtCsiTraAjBDcu4_5alloc5boxed3BoxDNtNtNtB9_6traits8iterator8Iteratorp4ItemTNtCshnvkK9b4wzu_11proc_macro25IdentNtB2u_10RecordTypeEEL_EEB42_4nextB2w_, symObjAddr: 0x191C, symBinAddr: 0x46244, symSize: 0x12C }
  - { offset: 0xA8B66, size: 0x8, addend: 0x0, symName: __RNvXsi_NtNtNtCsaNl6UpbT7bw_4core4iter8adapters7flattenINtB5_13FlattenCompatINtNtB7_3map3MapINtNtCsc29TF2YcYso_3syn10punctuated8IntoIterNtNtB1w_3pat3PatENCNvNtCsemR3zGJppC3_18tracing_attributes6expand11param_namess_0EINtNtCsiTraAjBDcu4_5alloc5boxed3BoxDNtNtNtB9_6traits8iterator8Iteratorp4ItemTNtCshnvkK9b4wzu_11proc_macro25IdentNtB2u_10RecordTypeEEL_EEB42_9size_hintB2w_, symObjAddr: 0x1A48, symBinAddr: 0x46370, symSize: 0x764 }
  - { offset: 0xA928D, size: 0x8, addend: 0x0, symName: __RNvXsi_NtNtNtCsaNl6UpbT7bw_4core4iter8adapters7flattenINtB5_13FlattenCompatINtNtB7_3map3MapINtNtCsc29TF2YcYso_3syn10punctuated8IntoIterNtNtB1w_3pat8FieldPatENCNvNtCsemR3zGJppC3_18tracing_attributes6expand11param_names0EINtNtCsiTraAjBDcu4_5alloc5boxed3BoxDNtNtNtB9_6traits8iterator8Iteratorp4ItemTNtCshnvkK9b4wzu_11proc_macro25IdentNtB2z_10RecordTypeEEL_EEB45_10advance_byB2B_, symObjAddr: 0x21AC, symBinAddr: 0x46AD4, symSize: 0x60 }
  - { offset: 0xA92FA, size: 0x8, addend: 0x0, symName: __RNvXsi_NtNtNtCsaNl6UpbT7bw_4core4iter8adapters7flattenINtB5_13FlattenCompatINtNtB7_3map3MapINtNtCsc29TF2YcYso_3syn10punctuated8IntoIterNtNtB1w_3pat8FieldPatENCNvNtCsemR3zGJppC3_18tracing_attributes6expand11param_names0EINtNtCsiTraAjBDcu4_5alloc5boxed3BoxDNtNtNtB9_6traits8iterator8Iteratorp4ItemTNtCshnvkK9b4wzu_11proc_macro25IdentNtB2z_10RecordTypeEEL_EEB45_4nextB2B_, symObjAddr: 0x220C, symBinAddr: 0x46B34, symSize: 0x12C }
  - { offset: 0xA938C, size: 0x8, addend: 0x0, symName: __RNvXsi_NtNtNtCsaNl6UpbT7bw_4core4iter8adapters7flattenINtB5_13FlattenCompatINtNtB7_3map3MapINtNtCsc29TF2YcYso_3syn10punctuated8IntoIterNtNtB1w_3pat8FieldPatENCNvNtCsemR3zGJppC3_18tracing_attributes6expand11param_names0EINtNtCsiTraAjBDcu4_5alloc5boxed3BoxDNtNtNtB9_6traits8iterator8Iteratorp4ItemTNtCshnvkK9b4wzu_11proc_macro25IdentNtB2z_10RecordTypeEEL_EEB45_9size_hintB2B_, symObjAddr: 0x2338, symBinAddr: 0x46C60, symSize: 0x764 }
  - { offset: 0xA9AB3, size: 0x8, addend: 0x0, symName: __RNvXsi_NtNtNtCsaNl6UpbT7bw_4core4iter8adapters7flattenINtB5_13FlattenCompatINtNtB7_3map3MapINtNtCsc29TF2YcYso_3syn10punctuated8IntoIterNtNtB1w_4item5FnArgENCNCINvNtCsemR3zGJppC3_18tracing_attributes6expand9gen_blockNtCshnvkK9b4wzu_11proc_macro211TokenStreamEs0_00EINtNtCsiTraAjBDcu4_5alloc5boxed3BoxDNtNtNtB9_6traits8iterator8Iteratorp4ItemTNtB3t_5IdentNtB2A_10RecordTypeEEL_EEB4O_4nextB2C_, symObjAddr: 0x2A9C, symBinAddr: 0x473C4, symSize: 0x12C }
  - { offset: 0xA9B45, size: 0x8, addend: 0x0, symName: __RNvXsi_NtNtNtCsaNl6UpbT7bw_4core4iter8adapters7flattenINtB5_13FlattenCompatINtNtB7_3map3MapINtNtCsc29TF2YcYso_3syn10punctuated8IntoIterNtNtB1w_4item5FnArgENCNCINvNtCsemR3zGJppC3_18tracing_attributes6expand9gen_blockNtCshnvkK9b4wzu_11proc_macro211TokenStreamEs0_00EINtNtCsiTraAjBDcu4_5alloc5boxed3BoxDNtNtNtB9_6traits8iterator8Iteratorp4ItemTNtB3t_5IdentNtB2A_10RecordTypeEEL_EEB4O_9size_hintB2C_, symObjAddr: 0x2BC8, symBinAddr: 0x474F0, symSize: 0x764 }
  - { offset: 0xAA26C, size: 0x8, addend: 0x0, symName: __RNvXsi_NtNtNtCsaNl6UpbT7bw_4core4iter8adapters7flattenINtB5_13FlattenCompatINtNtB7_3map3MapINtNtCsc29TF2YcYso_3syn10punctuated8IntoIterNtNtB1w_4item5FnArgENCNCINvNtCsemR3zGJppC3_18tracing_attributes6expand9gen_blockNtNtB1w_4stmt5BlockEs0_00EINtNtCsiTraAjBDcu4_5alloc5boxed3BoxDNtNtNtB9_6traits8iterator8Iteratorp4ItemTNtCshnvkK9b4wzu_11proc_macro25IdentNtB2A_10RecordTypeEEL_EEB4r_4nextB2C_, symObjAddr: 0x332C, symBinAddr: 0x47C54, symSize: 0x12C }
  - { offset: 0xAA2FE, size: 0x8, addend: 0x0, symName: __RNvXsi_NtNtNtCsaNl6UpbT7bw_4core4iter8adapters7flattenINtB5_13FlattenCompatINtNtB7_3map3MapINtNtCsc29TF2YcYso_3syn10punctuated8IntoIterNtNtB1w_4item5FnArgENCNCINvNtCsemR3zGJppC3_18tracing_attributes6expand9gen_blockNtNtB1w_4stmt5BlockEs0_00EINtNtCsiTraAjBDcu4_5alloc5boxed3BoxDNtNtNtB9_6traits8iterator8Iteratorp4ItemTNtCshnvkK9b4wzu_11proc_macro25IdentNtB2A_10RecordTypeEEL_EEB4r_9size_hintB2C_, symObjAddr: 0x3458, symBinAddr: 0x47D80, symSize: 0x764 }
  - { offset: 0xAAB09, size: 0x8, addend: 0x0, symName: __RNvXs1_NtNtNtCsaNl6UpbT7bw_4core4iter8adapters7flattenINtB5_7FlatMapINtNtCsc29TF2YcYso_3syn10punctuated8IntoIterNtNtB19_3pat3PatEINtNtCsiTraAjBDcu4_5alloc5boxed3BoxDNtNtNtB9_6traits8iterator8Iteratorp4ItemTNtCshnvkK9b4wzu_11proc_macro25IdentNtNtCsemR3zGJppC3_18tracing_attributes6expand10RecordTypeEEL_ENCNvB3T_11param_namess0_0EB2D_10advance_byB3V_, symObjAddr: 0xDEC, symBinAddr: 0x45714, symSize: 0x28 }
  - { offset: 0xAAB5E, size: 0x8, addend: 0x0, symName: __RNvXs1_NtNtNtCsaNl6UpbT7bw_4core4iter8adapters7flattenINtB5_7FlatMapINtNtCsc29TF2YcYso_3syn10punctuated8IntoIterNtNtB19_3pat3PatEINtNtCsiTraAjBDcu4_5alloc5boxed3BoxDNtNtNtB9_6traits8iterator8Iteratorp4ItemTNtCshnvkK9b4wzu_11proc_macro25IdentNtNtCsemR3zGJppC3_18tracing_attributes6expand10RecordTypeEEL_ENCNvB3T_11param_namess0_0EB2D_4nextB3V_, symObjAddr: 0xE14, symBinAddr: 0x4573C, symSize: 0x24 }
  - { offset: 0xAABA5, size: 0x8, addend: 0x0, symName: __RNvXs1_NtNtNtCsaNl6UpbT7bw_4core4iter8adapters7flattenINtB5_7FlatMapINtNtCsc29TF2YcYso_3syn10punctuated8IntoIterNtNtB19_3pat3PatEINtNtCsiTraAjBDcu4_5alloc5boxed3BoxDNtNtNtB9_6traits8iterator8Iteratorp4ItemTNtCshnvkK9b4wzu_11proc_macro25IdentNtNtCsemR3zGJppC3_18tracing_attributes6expand10RecordTypeEEL_ENCNvB3T_11param_namess0_0EB2D_9size_hintB3V_, symObjAddr: 0xE38, symBinAddr: 0x45760, symSize: 0x24 }
  - { offset: 0xAABEC, size: 0x8, addend: 0x0, symName: __RNvXs1_NtNtNtCsaNl6UpbT7bw_4core4iter8adapters7flattenINtB5_7FlatMapINtNtCsc29TF2YcYso_3syn10punctuated8IntoIterNtNtB19_3pat3PatEINtNtCsiTraAjBDcu4_5alloc5boxed3BoxDNtNtNtB9_6traits8iterator8Iteratorp4ItemTNtCshnvkK9b4wzu_11proc_macro25IdentNtNtCsemR3zGJppC3_18tracing_attributes6expand10RecordTypeEEL_ENCNvB3T_11param_namess_0EB2D_10advance_byB3V_, symObjAddr: 0xE5C, symBinAddr: 0x45784, symSize: 0x28 }
  - { offset: 0xAAC41, size: 0x8, addend: 0x0, symName: __RNvXs1_NtNtNtCsaNl6UpbT7bw_4core4iter8adapters7flattenINtB5_7FlatMapINtNtCsc29TF2YcYso_3syn10punctuated8IntoIterNtNtB19_3pat3PatEINtNtCsiTraAjBDcu4_5alloc5boxed3BoxDNtNtNtB9_6traits8iterator8Iteratorp4ItemTNtCshnvkK9b4wzu_11proc_macro25IdentNtNtCsemR3zGJppC3_18tracing_attributes6expand10RecordTypeEEL_ENCNvB3T_11param_namess_0EB2D_4nextB3V_, symObjAddr: 0xE84, symBinAddr: 0x457AC, symSize: 0x24 }
  - { offset: 0xAAC88, size: 0x8, addend: 0x0, symName: __RNvXs1_NtNtNtCsaNl6UpbT7bw_4core4iter8adapters7flattenINtB5_7FlatMapINtNtCsc29TF2YcYso_3syn10punctuated8IntoIterNtNtB19_3pat3PatEINtNtCsiTraAjBDcu4_5alloc5boxed3BoxDNtNtNtB9_6traits8iterator8Iteratorp4ItemTNtCshnvkK9b4wzu_11proc_macro25IdentNtNtCsemR3zGJppC3_18tracing_attributes6expand10RecordTypeEEL_ENCNvB3T_11param_namess_0EB2D_9size_hintB3V_, symObjAddr: 0xEA8, symBinAddr: 0x457D0, symSize: 0x24 }
  - { offset: 0xAACCF, size: 0x8, addend: 0x0, symName: __RNvXs1_NtNtNtCsaNl6UpbT7bw_4core4iter8adapters7flattenINtB5_7FlatMapINtNtCsc29TF2YcYso_3syn10punctuated8IntoIterNtNtB19_3pat8FieldPatEINtNtCsiTraAjBDcu4_5alloc5boxed3BoxDNtNtNtB9_6traits8iterator8Iteratorp4ItemTNtCshnvkK9b4wzu_11proc_macro25IdentNtNtCsemR3zGJppC3_18tracing_attributes6expand10RecordTypeEEL_ENCNvB3Y_11param_names0EB2I_10advance_byB40_, symObjAddr: 0xECC, symBinAddr: 0x457F4, symSize: 0x28 }
  - { offset: 0xAAD24, size: 0x8, addend: 0x0, symName: __RNvXs1_NtNtNtCsaNl6UpbT7bw_4core4iter8adapters7flattenINtB5_7FlatMapINtNtCsc29TF2YcYso_3syn10punctuated8IntoIterNtNtB19_3pat8FieldPatEINtNtCsiTraAjBDcu4_5alloc5boxed3BoxDNtNtNtB9_6traits8iterator8Iteratorp4ItemTNtCshnvkK9b4wzu_11proc_macro25IdentNtNtCsemR3zGJppC3_18tracing_attributes6expand10RecordTypeEEL_ENCNvB3Y_11param_names0EB2I_4nextB40_, symObjAddr: 0xEF4, symBinAddr: 0x4581C, symSize: 0x24 }
  - { offset: 0xAAD6B, size: 0x8, addend: 0x0, symName: __RNvXs1_NtNtNtCsaNl6UpbT7bw_4core4iter8adapters7flattenINtB5_7FlatMapINtNtCsc29TF2YcYso_3syn10punctuated8IntoIterNtNtB19_3pat8FieldPatEINtNtCsiTraAjBDcu4_5alloc5boxed3BoxDNtNtNtB9_6traits8iterator8Iteratorp4ItemTNtCshnvkK9b4wzu_11proc_macro25IdentNtNtCsemR3zGJppC3_18tracing_attributes6expand10RecordTypeEEL_ENCNvB3Y_11param_names0EB2I_9size_hintB40_, symObjAddr: 0xF18, symBinAddr: 0x45840, symSize: 0x24 }
  - { offset: 0xAADB2, size: 0x8, addend: 0x0, symName: __RNvXs1_NtNtNtCsaNl6UpbT7bw_4core4iter8adapters7flattenINtB5_7FlatMapINtNtCsc29TF2YcYso_3syn10punctuated8IntoIterNtNtB19_4item5FnArgEINtNtCsiTraAjBDcu4_5alloc5boxed3BoxDNtNtNtB9_6traits8iterator8Iteratorp4ItemTNtCshnvkK9b4wzu_11proc_macro25IdentNtNtCsemR3zGJppC3_18tracing_attributes6expand10RecordTypeEEL_ENCNCINvB3W_9gen_blockNtB3n_11TokenStreamEs0_00EB2G_4nextB3Y_, symObjAddr: 0xF3C, symBinAddr: 0x45864, symSize: 0x24 }
  - { offset: 0xAADF9, size: 0x8, addend: 0x0, symName: __RNvXs1_NtNtNtCsaNl6UpbT7bw_4core4iter8adapters7flattenINtB5_7FlatMapINtNtCsc29TF2YcYso_3syn10punctuated8IntoIterNtNtB19_4item5FnArgEINtNtCsiTraAjBDcu4_5alloc5boxed3BoxDNtNtNtB9_6traits8iterator8Iteratorp4ItemTNtCshnvkK9b4wzu_11proc_macro25IdentNtNtCsemR3zGJppC3_18tracing_attributes6expand10RecordTypeEEL_ENCNCINvB3W_9gen_blockNtB3n_11TokenStreamEs0_00EB2G_9size_hintB3Y_, symObjAddr: 0xF60, symBinAddr: 0x45888, symSize: 0x24 }
  - { offset: 0xAAE40, size: 0x8, addend: 0x0, symName: __RNvXs1_NtNtNtCsaNl6UpbT7bw_4core4iter8adapters7flattenINtB5_7FlatMapINtNtCsc29TF2YcYso_3syn10punctuated8IntoIterNtNtB19_4item5FnArgEINtNtCsiTraAjBDcu4_5alloc5boxed3BoxDNtNtNtB9_6traits8iterator8Iteratorp4ItemTNtCshnvkK9b4wzu_11proc_macro25IdentNtNtCsemR3zGJppC3_18tracing_attributes6expand10RecordTypeEEL_ENCNCINvB3W_9gen_blockNtNtB19_4stmt5BlockEs0_00EB2G_4nextB3Y_, symObjAddr: 0xF84, symBinAddr: 0x458AC, symSize: 0x24 }
  - { offset: 0xAAE87, size: 0x8, addend: 0x0, symName: __RNvXs1_NtNtNtCsaNl6UpbT7bw_4core4iter8adapters7flattenINtB5_7FlatMapINtNtCsc29TF2YcYso_3syn10punctuated8IntoIterNtNtB19_4item5FnArgEINtNtCsiTraAjBDcu4_5alloc5boxed3BoxDNtNtNtB9_6traits8iterator8Iteratorp4ItemTNtCshnvkK9b4wzu_11proc_macro25IdentNtNtCsemR3zGJppC3_18tracing_attributes6expand10RecordTypeEEL_ENCNCINvB3W_9gen_blockNtNtB19_4stmt5BlockEs0_00EB2G_9size_hintB3Y_, symObjAddr: 0xFA8, symBinAddr: 0x458D0, symSize: 0x24 }
  - { offset: 0xAB4D5, size: 0x8, addend: 0x0, symName: __RINvYINtNtNtNtCsaNl6UpbT7bw_4core4iter8adapters7flatten7FlatMapINtNtCsc29TF2YcYso_3syn10punctuated8IntoIterNtNtB14_4item5FnArgEINtNtCsiTraAjBDcu4_5alloc5boxed3BoxDNtNtNtBa_6traits8iterator8Iteratorp4ItemTNtCshnvkK9b4wzu_11proc_macro25IdentNtNtCsemR3zGJppC3_18tracing_attributes6expand10RecordTypeEEL_ENCNCINvB3R_9gen_blockNtB3i_11TokenStreamEs0_00EB2B_3mapTB3g_B3f_ENCB4R_s_0EB3T_, symObjAddr: 0xC7C, symBinAddr: 0x455A4, symSize: 0x4C }
  - { offset: 0xAB543, size: 0x8, addend: 0x0, symName: __RINvYINtNtNtNtCsaNl6UpbT7bw_4core4iter8adapters7flatten7FlatMapINtNtCsc29TF2YcYso_3syn10punctuated8IntoIterNtNtB14_4item5FnArgEINtNtCsiTraAjBDcu4_5alloc5boxed3BoxDNtNtNtBa_6traits8iterator8Iteratorp4ItemTNtCshnvkK9b4wzu_11proc_macro25IdentNtNtCsemR3zGJppC3_18tracing_attributes6expand10RecordTypeEEL_ENCNCINvB3R_9gen_blockNtNtB14_4stmt5BlockEs0_00EB2B_3mapTB3g_B3f_ENCB4R_s_0EB3T_, symObjAddr: 0xCC8, symBinAddr: 0x455F0, symSize: 0x4C }
  - { offset: 0xAB5B1, size: 0x8, addend: 0x0, symName: __RNvYINtNtNtNtCsaNl6UpbT7bw_4core4iter8adapters7flatten7FlatMapINtNtCsc29TF2YcYso_3syn10punctuated8IntoIterNtNtB13_3pat3PatEINtNtCsiTraAjBDcu4_5alloc5boxed3BoxDNtNtNtB9_6traits8iterator8Iteratorp4ItemTNtCshnvkK9b4wzu_11proc_macro25IdentNtNtCsemR3zGJppC3_18tracing_attributes6expand10RecordTypeEEL_ENCNvB3N_11param_namess0_0EB2x_3nthB3P_, symObjAddr: 0x3BBC, symBinAddr: 0x484E4, symSize: 0x84 }
  - { offset: 0xAB67D, size: 0x8, addend: 0x0, symName: __RNvYINtNtNtNtCsaNl6UpbT7bw_4core4iter8adapters7flatten7FlatMapINtNtCsc29TF2YcYso_3syn10punctuated8IntoIterNtNtB13_3pat3PatEINtNtCsiTraAjBDcu4_5alloc5boxed3BoxDNtNtNtB9_6traits8iterator8Iteratorp4ItemTNtCshnvkK9b4wzu_11proc_macro25IdentNtNtCsemR3zGJppC3_18tracing_attributes6expand10RecordTypeEEL_ENCNvB3N_11param_namess_0EB2x_3nthB3P_, symObjAddr: 0x3C40, symBinAddr: 0x48568, symSize: 0x84 }
  - { offset: 0xAB749, size: 0x8, addend: 0x0, symName: __RNvYINtNtNtNtCsaNl6UpbT7bw_4core4iter8adapters7flatten7FlatMapINtNtCsc29TF2YcYso_3syn10punctuated8IntoIterNtNtB13_3pat8FieldPatEINtNtCsiTraAjBDcu4_5alloc5boxed3BoxDNtNtNtB9_6traits8iterator8Iteratorp4ItemTNtCshnvkK9b4wzu_11proc_macro25IdentNtNtCsemR3zGJppC3_18tracing_attributes6expand10RecordTypeEEL_ENCNvB3S_11param_names0EB2C_3nthB3U_, symObjAddr: 0x3CC4, symBinAddr: 0x485EC, symSize: 0x84 }
  - { offset: 0xB4B60, size: 0x8, addend: 0x0, symName: __RINvMsg_NtNtNtCsaNl6UpbT7bw_4core4iter8adapters7flattenINtB6_13FlattenCompatINtNtB8_3map3MapINtNtCsc29TF2YcYso_3syn10punctuated8IntoIterNtNtB1x_3pat3PatENCNvNtCsemR3zGJppC3_18tracing_attributes6expand11param_namess0_0EINtNtCsiTraAjBDcu4_5alloc5boxed3BoxDNtNtNtBa_6traits8iterator8Iteratorp4ItemTNtCshnvkK9b4wzu_11proc_macro25IdentNtB2v_10RecordTypeEEL_EE13iter_try_foldjINvNvXsi_B6_IBS_ppEB44_10advance_by7advanceB3u_EINtNtNtBc_3ops12control_flow11ControlFlowujEEB2x_, symObjAddr: 0x0, symBinAddr: 0x44928, symSize: 0x39C }
  - { offset: 0xB4CB4, size: 0x8, addend: 0x0, symName: __RINvMsg_NtNtNtCsaNl6UpbT7bw_4core4iter8adapters7flattenINtB6_13FlattenCompatINtNtB8_3map3MapINtNtCsc29TF2YcYso_3syn10punctuated8IntoIterNtNtB1x_3pat3PatENCNvNtCsemR3zGJppC3_18tracing_attributes6expand11param_namess_0EINtNtCsiTraAjBDcu4_5alloc5boxed3BoxDNtNtNtBa_6traits8iterator8Iteratorp4ItemTNtCshnvkK9b4wzu_11proc_macro25IdentNtB2v_10RecordTypeEEL_EE13iter_try_foldjINvNvXsi_B6_IBS_ppEB43_10advance_by7advanceB3t_EINtNtNtBc_3ops12control_flow11ControlFlowujEEB2x_, symObjAddr: 0x39C, symBinAddr: 0x44CC4, symSize: 0x39C }
  - { offset: 0xB4E15, size: 0x8, addend: 0x0, symName: __RINvMsg_NtNtNtCsaNl6UpbT7bw_4core4iter8adapters7flattenINtB6_13FlattenCompatINtNtB8_3map3MapINtNtCsc29TF2YcYso_3syn10punctuated8IntoIterNtNtB1x_3pat8FieldPatENCNvNtCsemR3zGJppC3_18tracing_attributes6expand11param_names0EINtNtCsiTraAjBDcu4_5alloc5boxed3BoxDNtNtNtBa_6traits8iterator8Iteratorp4ItemTNtCshnvkK9b4wzu_11proc_macro25IdentNtB2A_10RecordTypeEEL_EE13iter_try_foldjINvNvXsi_B6_IBS_ppEB46_10advance_by7advanceB3w_EINtNtNtBc_3ops12control_flow11ControlFlowujEEB2C_, symObjAddr: 0x738, symBinAddr: 0x45060, symSize: 0x39C }
  - { offset: 0xB5417, size: 0x8, addend: 0x0, symName: __RINvNtNtCsiTraAjBDcu4_5alloc3vec16in_place_collect18from_iter_in_placeINtNtNtNtCsaNl6UpbT7bw_4core4iter8adapters3map3MapINtNtB4_9into_iter8IntoIterTNtCshnvkK9b4wzu_11proc_macro25IdentTB2m_NtNtCsemR3zGJppC3_18tracing_attributes6expand10RecordTypeEEENCNCINvB32_9gen_blockNtB2o_11TokenStreamEs0_0s4_0ETB2m_B2m_EEB34_, symObjAddr: 0x0, symBinAddr: 0x48670, symSize: 0x40C }
  - { offset: 0xB5FF7, size: 0x8, addend: 0x0, symName: __RNvNvMs1_NtNtCsaNl6UpbT7bw_4core3ptr8non_nullINtB7_7NonNullpE13new_unchecked18precondition_checkCsemR3zGJppC3_18tracing_attributes, symObjAddr: 0x1ED8, symBinAddr: 0x4A548, symSize: 0xA4 }
  - { offset: 0xB6EA3, size: 0x8, addend: 0x0, symName: __RNvXs1b_NtCsaNl6UpbT7bw_4core3fmtRNtNtCsc29TF2YcYso_3syn5error5ErrorNtB6_7Display3fmtCsemR3zGJppC3_18tracing_attributes, symObjAddr: 0x22E8, symBinAddr: 0x4A958, symSize: 0x30 }
  - { offset: 0xBA572, size: 0x8, addend: 0x0, symName: __RNvNvMNtNtCsaNl6UpbT7bw_4core5alloc6layoutNtB4_6Layout25from_size_align_unchecked18precondition_checkCsemR3zGJppC3_18tracing_attributes, symObjAddr: 0x1E1C, symBinAddr: 0x4A48C, symSize: 0xBC }
  - { offset: 0xBA7B8, size: 0x8, addend: 0x0, symName: __RNvMNtCsaNl6UpbT7bw_4core5sliceSNtNtCsc29TF2YcYso_3syn5error5Error4iterCsemR3zGJppC3_18tracing_attributes, symObjAddr: 0xFAC, symBinAddr: 0x4961C, symSize: 0x28 }
  - { offset: 0xBA7FA, size: 0x8, addend: 0x0, symName: __RNvMNtNtCsaNl6UpbT7bw_4core5slice5asciiSh20eq_ignore_ascii_caseCsemR3zGJppC3_18tracing_attributes, symObjAddr: 0x1200, symBinAddr: 0x49870, symSize: 0x1D4 }
  - { offset: 0xBAA17, size: 0x8, addend: 0x0, symName: __RINvXs0_NtNtNtCsaNl6UpbT7bw_4core4iter8adapters10filter_mapINtB6_9FilterMapINtNtNtBc_5slice4iter4IterNtNtCsc29TF2YcYso_3syn4stmt4StmtENCNvMs_NtCsemR3zGJppC3_18tracing_attributes6expandNtB2f_9AsyncInfo7from_fn0ENtNtNtBa_6traits8iterator8Iterator8try_folduNCINvNvB3m_4find5checkTRB1B_RNtNtB1F_4item6ItemFnENCB2a_s0_0E0INtNtNtBc_3ops12control_flow11ControlFlowB4q_EEB2h_, symObjAddr: 0xBE8, symBinAddr: 0x49258, symSize: 0x3C }
  - { offset: 0xBAA95, size: 0x8, addend: 0x0, symName: __RNvXs0_NtNtNtCsaNl6UpbT7bw_4core4iter8adapters10filter_mapINtB5_9FilterMapINtNtCsc29TF2YcYso_3syn10punctuated7IterMutNtNtCsemR3zGJppC3_18tracing_attributes4attr5FieldENCNCINvNtB1V_6expand9gen_blockNtCshnvkK9b4wzu_11proc_macro211TokenStreamEs0_0s5_0ENtNtNtB9_6traits8iterator8Iterator4nextB1V_, symObjAddr: 0x220C, symBinAddr: 0x4A87C, symSize: 0x2C }
  - { offset: 0xBAADC, size: 0x8, addend: 0x0, symName: __RNvXs0_NtNtNtCsaNl6UpbT7bw_4core4iter8adapters10filter_mapINtB5_9FilterMapINtNtCsc29TF2YcYso_3syn10punctuated7IterMutNtNtCsemR3zGJppC3_18tracing_attributes4attr5FieldENCNCINvNtB1V_6expand9gen_blockNtNtB1f_4stmt5BlockEs0_0s5_0ENtNtNtB9_6traits8iterator8Iterator4nextB1V_, symObjAddr: 0x2238, symBinAddr: 0x4A8A8, symSize: 0x2C }
  - { offset: 0xBAB29, size: 0x8, addend: 0x0, symName: __RNCINvNtNtNtCsaNl6UpbT7bw_4core4iter8adapters10filter_map19filter_map_try_foldRNtNtCsc29TF2YcYso_3syn4stmt4StmtTB1e_RNtNtB1j_4item6ItemFnEuINtNtNtBa_3ops12control_flow11ControlFlowB1L_ENCNvMs_NtCsemR3zGJppC3_18tracing_attributes6expandNtB34_9AsyncInfo7from_fn0NCINvNvNtNtNtB8_6traits8iterator8Iterator4find5checkB1L_NCB2Z_s0_0E0E0B36_, symObjAddr: 0xEA8, symBinAddr: 0x49518, symSize: 0x104 }
  - { offset: 0xBAC75, size: 0x8, addend: 0x0, symName: __RNvXsn_NtNtNtCsaNl6UpbT7bw_4core4iter8adapters7flattenINtNtCsiTraAjBDcu4_5alloc5boxed3BoxDNtNtNtB9_6traits8iterator8Iteratorp4ItemTNtCshnvkK9b4wzu_11proc_macro25IdentNtNtCsemR3zGJppC3_18tracing_attributes6expand10RecordTypeEEL_ENtB5_21ConstSizeIntoIterator4sizeB2I_, symObjAddr: 0x2F84, symBinAddr: 0x4B5F4, symSize: 0x18 }
  - { offset: 0xBAD75, size: 0x8, addend: 0x0, symName: __RINvYINtNtCsiTraAjBDcu4_5alloc5boxed3BoxDNtNtNtNtCsaNl6UpbT7bw_4core4iter6traits8iterator8Iteratorp4ItemTNtCshnvkK9b4wzu_11proc_macro25IdentNtNtCsemR3zGJppC3_18tracing_attributes6expand10RecordTypeEEL_EBD_8try_foldINtNtNtBL_3num7nonzero7NonZerojENCNvXs_NvBD_10advance_byB3_NtB43_13SpecAdvanceBy15spec_advance_by0INtNtBL_6option6OptionB3q_EEB2i_, symObjAddr: 0xC24, symBinAddr: 0x49294, symSize: 0x198 }
  - { offset: 0xBAE2A, size: 0x8, addend: 0x0, symName: __RINvYINtNtNtNtCsaNl6UpbT7bw_4core4iter8adapters10filter_map9FilterMapINtNtNtBc_5slice4iter4IterNtNtCsc29TF2YcYso_3syn4stmt4StmtENCNvMs_NtCsemR3zGJppC3_18tracing_attributes6expandNtB29_9AsyncInfo7from_fn0ENtNtNtBa_6traits8iterator8Iterator4findNCB24_s0_0EB2b_, symObjAddr: 0xDBC, symBinAddr: 0x4942C, symSize: 0x8C }
  - { offset: 0xBAEAF, size: 0x8, addend: 0x0, symName: __RNvXs_NvNtNtNtNtCsaNl6UpbT7bw_4core4iter6traits8iterator8Iterator10advance_byINtNtCsiTraAjBDcu4_5alloc5boxed3BoxDB6_p4ItemTNtCshnvkK9b4wzu_11proc_macro25IdentNtNtCsemR3zGJppC3_18tracing_attributes6expand10RecordTypeEEL_ENtB4_13SpecAdvanceBy15spec_advance_byB2A_, symObjAddr: 0x2D90, symBinAddr: 0x4B400, symSize: 0x8C }
  - { offset: 0xBAF6C, size: 0x8, addend: 0x0, symName: __RNvYINtNtCsiTraAjBDcu4_5alloc5boxed3BoxDNtNtNtNtCsaNl6UpbT7bw_4core4iter6traits8iterator8Iteratorp4ItemTNtCshnvkK9b4wzu_11proc_macro25IdentNtNtCsemR3zGJppC3_18tracing_attributes6expand10RecordTypeEEL_EBC_10advance_byB2h_, symObjAddr: 0x2F9C, symBinAddr: 0x4B60C, symSize: 0x28 }
  - { offset: 0xBAFDD, size: 0x8, addend: 0x0, symName: __RNvXNtNtNtCsaNl6UpbT7bw_4core4iter6traits7collectINtNtCsiTraAjBDcu4_5alloc5boxed3BoxDNtNtB4_8iterator8Iteratorp4ItemTNtCshnvkK9b4wzu_11proc_macro25IdentNtNtCsemR3zGJppC3_18tracing_attributes6expand10RecordTypeEEL_ENtB2_12IntoIterator9into_iterB2u_, symObjAddr: 0x20A4, symBinAddr: 0x4A714, symSize: 0x1C }
  - { offset: 0xBB014, size: 0x8, addend: 0x0, symName: __RNvXNtNtNtCsaNl6UpbT7bw_4core4iter6traits7collectINtNtNtB6_8adapters10filter_map9FilterMapINtNtCsc29TF2YcYso_3syn10punctuated7IterMutNtNtCsemR3zGJppC3_18tracing_attributes4attr5FieldENCNCINvNtB2b_6expand9gen_blockNtCshnvkK9b4wzu_11proc_macro211TokenStreamEs0_0s5_0ENtB2_12IntoIterator9into_iterB2b_, symObjAddr: 0x20C0, symBinAddr: 0x4A730, symSize: 0x1C }
  - { offset: 0xBB04B, size: 0x8, addend: 0x0, symName: __RNvXNtNtNtCsaNl6UpbT7bw_4core4iter6traits7collectINtNtNtB6_8adapters10filter_map9FilterMapINtNtCsc29TF2YcYso_3syn10punctuated7IterMutNtNtCsemR3zGJppC3_18tracing_attributes4attr5FieldENCNCINvNtB2b_6expand9gen_blockNtNtB1v_4stmt5BlockEs0_0s5_0ENtB2_12IntoIterator9into_iterB2b_, symObjAddr: 0x20DC, symBinAddr: 0x4A74C, symSize: 0x1C }
  - { offset: 0xBB082, size: 0x8, addend: 0x0, symName: __RNvXNtNtNtCsaNl6UpbT7bw_4core4iter6traits7collectINtNtNtB6_8adapters10filter_map9FilterMapINtNtNtB8_5slice4iter4IterNtNtCsc29TF2YcYso_3syn4stmt4StmtENCNvMs_NtCsemR3zGJppC3_18tracing_attributes6expandNtB2u_9AsyncInfo7from_fn0ENtB2_12IntoIterator9into_iterB2w_, symObjAddr: 0x20F8, symBinAddr: 0x4A768, symSize: 0x1C }
  - { offset: 0xBB0C6, size: 0x8, addend: 0x0, symName: __RNvXsF_NtNtCsaNl6UpbT7bw_4core4iter5rangejNtB5_4Step17forward_uncheckedCsemR3zGJppC3_18tracing_attributes, symObjAddr: 0x2D40, symBinAddr: 0x4B3B0, symSize: 0x50 }
  - { offset: 0xBB268, size: 0x8, addend: 0x0, symName: __RNvMNtNtCsaNl6UpbT7bw_4core4char7methodsc8to_digitCsemR3zGJppC3_18tracing_attributes, symObjAddr: 0x10B4, symBinAddr: 0x49724, symSize: 0x14C }
  - { offset: 0xBB334, size: 0x8, addend: 0x0, symName: __RNvNtNtCsaNl6UpbT7bw_4core4char7methods25encode_utf8_raw_uncheckedCsemR3zGJppC3_18tracing_attributes, symObjAddr: 0x1CD0, symBinAddr: 0x4A340, symSize: 0x14C }
  - { offset: 0xBB61A, size: 0x8, addend: 0x0, symName: __RINvNvNtNtCs7yrEGia95Wz_10proc_macro6bridge14selfless_reify31reify_to_extern_c_fn_hrt_bridge7wrapperNtNtB6_6buffer6BufferNCINvMs7_NtB6_6clientINtB24_6ClientTNtB8_11TokenStreamB2v_EB2v_E7expand2NvCsemR3zGJppC3_18tracing_attributes10instrumentE0EB37_, symObjAddr: 0x818, symBinAddr: 0x48E88, symSize: 0x5C }
  - { offset: 0xBC2AE, size: 0x8, addend: 0x0, symName: __RINvNtNtCsiTraAjBDcu4_5alloc3vec16in_place_collect18from_iter_in_placeINtNtNtNtCsaNl6UpbT7bw_4core4iter8adapters3map3MapINtNtB4_9into_iter8IntoIterTNtCshnvkK9b4wzu_11proc_macro25IdentTB2m_NtNtCsemR3zGJppC3_18tracing_attributes6expand10RecordTypeEEENCNCINvB32_9gen_blockNtB2o_11TokenStreamEs0_0s4_0ETB2m_B2m_EEB34_, symObjAddr: 0x0, symBinAddr: 0x48670, symSize: 0x40C }
  - { offset: 0xBC8D3, size: 0x8, addend: 0x0, symName: __RINvNtNtCsiTraAjBDcu4_5alloc3vec16in_place_collect18from_iter_in_placeINtNtNtNtCsaNl6UpbT7bw_4core4iter8adapters3map3MapINtNtB4_9into_iter8IntoIterTNtCshnvkK9b4wzu_11proc_macro25IdentTB2m_NtNtCsemR3zGJppC3_18tracing_attributes6expand10RecordTypeEEENCNCINvB32_9gen_blockNtNtCsc29TF2YcYso_3syn4stmt5BlockEs0_0s4_0ETB2m_B2m_EEB34_, symObjAddr: 0x40C, symBinAddr: 0x48A7C, symSize: 0x40C }
  - { offset: 0xBCEC4, size: 0x8, addend: 0x0, symName: __RNCINvNtNtCsiTraAjBDcu4_5alloc3vec16in_place_collect24write_in_place_with_dropTNtCshnvkK9b4wzu_11proc_macro25IdentB1f_EE0CsemR3zGJppC3_18tracing_attributes, symObjAddr: 0xE48, symBinAddr: 0x494B8, symSize: 0x60 }
  - { offset: 0xBE0D2, size: 0x8, addend: 0x0, symName: __RINvXNvMNtCsiTraAjBDcu4_5alloc5sliceSp9to_vec_inNtNtCsc29TF2YcYso_3syn5error5ErrorNtB3_10ConvertVec6to_vecNtNtB8_5alloc6GlobalECsemR3zGJppC3_18tracing_attributes, symObjAddr: 0x874, symBinAddr: 0x48EE4, symSize: 0x374 }
  - { offset: 0xBE5CE, size: 0x8, addend: 0x0, symName: __RNvMs_NtCsiTraAjBDcu4_5alloc5boxedINtB4_3BoxNtCshnvkK9b4wzu_11proc_macro25IdentE13new_uninit_inCsemR3zGJppC3_18tracing_attributes, symObjAddr: 0x1928, symBinAddr: 0x49F98, symSize: 0x98 }
  - { offset: 0xBE6C2, size: 0x8, addend: 0x0, symName: __RNvMs_NtCsiTraAjBDcu4_5alloc5boxedINtB4_3BoxNtCshnvkK9b4wzu_11proc_macro25IdentE17try_new_uninit_inCsemR3zGJppC3_18tracing_attributes, symObjAddr: 0x19C0, symBinAddr: 0x4A030, symSize: 0x13C }
  - { offset: 0xBE8F2, size: 0x8, addend: 0x0, symName: __RNvMs_NtCsiTraAjBDcu4_5alloc5boxedINtB4_3BoxNtNtCsemR3zGJppC3_18tracing_attributes4attr5FieldE13new_uninit_inBK_, symObjAddr: 0x1AFC, symBinAddr: 0x4A16C, symSize: 0x98 }
  - { offset: 0xBE9E6, size: 0x8, addend: 0x0, symName: __RNvMs_NtCsiTraAjBDcu4_5alloc5boxedINtB4_3BoxNtNtCsemR3zGJppC3_18tracing_attributes4attr5FieldE17try_new_uninit_inBK_, symObjAddr: 0x1B94, symBinAddr: 0x4A204, symSize: 0x13C }
  - { offset: 0xBED79, size: 0x8, addend: 0x0, symName: __RNvXNtNtCsiTraAjBDcu4_5alloc5boxed4iterINtB4_3BoxDNtNtNtNtCsaNl6UpbT7bw_4core4iter6traits8iterator8Iteratorp4ItemTNtCshnvkK9b4wzu_11proc_macro25IdentNtNtCsemR3zGJppC3_18tracing_attributes6expand10RecordTypeEEL_EBM_4nextB2r_, symObjAddr: 0x203C, symBinAddr: 0x4A6AC, symSize: 0x34 }
  - { offset: 0xBEDB7, size: 0x8, addend: 0x0, symName: __RNvXNtNtCsiTraAjBDcu4_5alloc5boxed4iterINtB4_3BoxDNtNtNtNtCsaNl6UpbT7bw_4core4iter6traits8iterator8Iteratorp4ItemTNtCshnvkK9b4wzu_11proc_macro25IdentNtNtCsemR3zGJppC3_18tracing_attributes6expand10RecordTypeEEL_EBM_9size_hintB2r_, symObjAddr: 0x2070, symBinAddr: 0x4A6E0, symSize: 0x34 }
  - { offset: 0xBEDFC, size: 0x8, addend: 0x0, symName: __RNvXs6_NtCsiTraAjBDcu4_5alloc5boxedINtB5_3BoxDNtNtCsaNl6UpbT7bw_4core5error5ErrorNtNtBM_6marker4SyncNtB1j_4SendEL_ENtNtNtBM_3ops4drop4Drop4dropCsemR3zGJppC3_18tracing_attributes, symObjAddr: 0x2318, symBinAddr: 0x4A988, symSize: 0xCC }
  - { offset: 0xBEF33, size: 0x8, addend: 0x0, symName: __RNvXs6_NtCsiTraAjBDcu4_5alloc5boxedINtB5_3BoxDNtNtNtNtCsaNl6UpbT7bw_4core4iter6traits8iterator8Iteratorp4ItemTNtCshnvkK9b4wzu_11proc_macro25IdentNtNtCsemR3zGJppC3_18tracing_attributes6expand10RecordTypeEEL_ENtNtNtBQ_3ops4drop4Drop4dropB2n_, symObjAddr: 0x23E4, symBinAddr: 0x4AA54, symSize: 0xCC }
  - { offset: 0xBF06A, size: 0x8, addend: 0x0, symName: __RNvXs6_NtCsiTraAjBDcu4_5alloc5boxedINtB5_3BoxINtNtCsc29TF2YcYso_3syn5drops6NoDropDINtNtBM_10punctuated12IterMutTraitNtNtCsemR3zGJppC3_18tracing_attributes4attr5FieldEp4ItemQB1Q_EL_EENtNtNtCsaNl6UpbT7bw_4core3ops4drop4Drop4dropB1U_, symObjAddr: 0x24B0, symBinAddr: 0x4AB20, symSize: 0x120 }
  - { offset: 0xBF1A1, size: 0x8, addend: 0x0, symName: __RNvXs6_NtCsiTraAjBDcu4_5alloc5boxedINtB5_3BoxINtNtCsc29TF2YcYso_3syn5drops6NoDropDINtNtBM_10punctuated9IterTraitNtCshnvkK9b4wzu_11proc_macro25IdentEp4ItemRB1M_EL_EENtNtNtCsaNl6UpbT7bw_4core3ops4drop4Drop4dropCsemR3zGJppC3_18tracing_attributes, symObjAddr: 0x25D0, symBinAddr: 0x4AC40, symSize: 0x120 }
  - { offset: 0xBF2D8, size: 0x8, addend: 0x0, symName: __RNvXs6_NtCsiTraAjBDcu4_5alloc5boxedINtB5_3BoxINtNtCsc29TF2YcYso_3syn5drops6NoDropDINtNtBM_10punctuated9IterTraitNtNtCsemR3zGJppC3_18tracing_attributes4attr5FieldEp4ItemRB1M_EL_EENtNtNtCsaNl6UpbT7bw_4core3ops4drop4Drop4dropB1Q_, symObjAddr: 0x26F0, symBinAddr: 0x4AD60, symSize: 0x120 }
  - { offset: 0xBF40F, size: 0x8, addend: 0x0, symName: __RNvXs6_NtCsiTraAjBDcu4_5alloc5boxedINtB5_3BoxINtNtNtCsaNl6UpbT7bw_4core3mem12maybe_uninit11MaybeUninitNtCshnvkK9b4wzu_11proc_macro25IdentEENtNtNtBO_3ops4drop4Drop4dropCsemR3zGJppC3_18tracing_attributes, symObjAddr: 0x2810, symBinAddr: 0x4AE80, symSize: 0xB8 }
  - { offset: 0xBF546, size: 0x8, addend: 0x0, symName: __RNvXs6_NtCsiTraAjBDcu4_5alloc5boxedINtB5_3BoxINtNtNtCsaNl6UpbT7bw_4core3mem12maybe_uninit11MaybeUninitNtNtCsemR3zGJppC3_18tracing_attributes4attr5FieldEENtNtNtBO_3ops4drop4Drop4dropB1G_, symObjAddr: 0x28C8, symBinAddr: 0x4AF38, symSize: 0xB8 }
  - { offset: 0xBF67D, size: 0x8, addend: 0x0, symName: __RNvXs6_NtCsiTraAjBDcu4_5alloc5boxedINtB5_3BoxNtCshnvkK9b4wzu_11proc_macro25IdentENtNtNtCsaNl6UpbT7bw_4core3ops4drop4Drop4dropCsemR3zGJppC3_18tracing_attributes, symObjAddr: 0x2980, symBinAddr: 0x4AFF0, symSize: 0xB8 }
  - { offset: 0xBF7B4, size: 0x8, addend: 0x0, symName: __RNvXs6_NtCsiTraAjBDcu4_5alloc5boxedINtB5_3BoxNtNtCsemR3zGJppC3_18tracing_attributes4attr5FieldENtNtNtCsaNl6UpbT7bw_4core3ops4drop4Drop4dropBL_, symObjAddr: 0x2A38, symBinAddr: 0x4B0A8, symSize: 0xB8 }
  - { offset: 0xBF8EB, size: 0x8, addend: 0x0, symName: __RNvXs6_NtCsiTraAjBDcu4_5alloc5boxedINtB5_3BoxNtNtNtCsht3nMU9UgFu_3std2io5error6CustomENtNtNtCsaNl6UpbT7bw_4core3ops4drop4Drop4dropCsemR3zGJppC3_18tracing_attributes, symObjAddr: 0x2AF0, symBinAddr: 0x4B160, symSize: 0xB8 }
  - { offset: 0xBFA28, size: 0x8, addend: 0x0, symName: __RNvXsB_NtCsiTraAjBDcu4_5alloc5boxedINtB5_3BoxNtCshnvkK9b4wzu_11proc_macro25IdentEINtNtCsaNl6UpbT7bw_4core7convert5AsRefBH_E6as_refCsemR3zGJppC3_18tracing_attributes, symObjAddr: 0x2BA8, symBinAddr: 0x4B218, symSize: 0x18 }
  - { offset: 0xBFA68, size: 0x8, addend: 0x0, symName: __RNvXsB_NtCsiTraAjBDcu4_5alloc5boxedINtB5_3BoxNtNtCsemR3zGJppC3_18tracing_attributes4attr5FieldEINtNtCsaNl6UpbT7bw_4core7convert5AsRefBH_E6as_refBL_, symObjAddr: 0x2BC0, symBinAddr: 0x4B230, symSize: 0x18 }
  - { offset: 0xBFAAE, size: 0x8, addend: 0x0, symName: __RNvXsC_NtCsiTraAjBDcu4_5alloc5boxedINtB5_3BoxNtNtCsc29TF2YcYso_3syn2ty4TypeEINtNtCsaNl6UpbT7bw_4core7convert5AsMutBH_E6as_mutCsemR3zGJppC3_18tracing_attributes, symObjAddr: 0x2BD8, symBinAddr: 0x4B248, symSize: 0x18 }
  - { offset: 0xBFAEE, size: 0x8, addend: 0x0, symName: __RNvXsC_NtCsiTraAjBDcu4_5alloc5boxedINtB5_3BoxNtNtCsc29TF2YcYso_3syn2ty9BareFnArgEINtNtCsaNl6UpbT7bw_4core7convert5AsMutBH_E6as_mutCsemR3zGJppC3_18tracing_attributes, symObjAddr: 0x2BF0, symBinAddr: 0x4B260, symSize: 0x18 }
  - { offset: 0xBFB2E, size: 0x8, addend: 0x0, symName: __RNvXsC_NtCsiTraAjBDcu4_5alloc5boxedINtB5_3BoxNtNtCsc29TF2YcYso_3syn3pat3PatEINtNtCsaNl6UpbT7bw_4core7convert5AsMutBH_E6as_mutCsemR3zGJppC3_18tracing_attributes, symObjAddr: 0x2C08, symBinAddr: 0x4B278, symSize: 0x18 }
  - { offset: 0xBFB6E, size: 0x8, addend: 0x0, symName: __RNvXsC_NtCsiTraAjBDcu4_5alloc5boxedINtB5_3BoxNtNtCsc29TF2YcYso_3syn3pat8FieldPatEINtNtCsaNl6UpbT7bw_4core7convert5AsMutBH_E6as_mutCsemR3zGJppC3_18tracing_attributes, symObjAddr: 0x2C20, symBinAddr: 0x4B290, symSize: 0x18 }
  - { offset: 0xBFBAE, size: 0x8, addend: 0x0, symName: __RNvXsC_NtCsiTraAjBDcu4_5alloc5boxedINtB5_3BoxNtNtCsc29TF2YcYso_3syn4data7VariantEINtNtCsaNl6UpbT7bw_4core7convert5AsMutBH_E6as_mutCsemR3zGJppC3_18tracing_attributes, symObjAddr: 0x2C38, symBinAddr: 0x4B2A8, symSize: 0x18 }
  - { offset: 0xBFBEE, size: 0x8, addend: 0x0, symName: __RNvXsC_NtCsiTraAjBDcu4_5alloc5boxedINtB5_3BoxNtNtCsc29TF2YcYso_3syn4expr10FieldValueEINtNtCsaNl6UpbT7bw_4core7convert5AsMutBH_E6as_mutCsemR3zGJppC3_18tracing_attributes, symObjAddr: 0x2C50, symBinAddr: 0x4B2C0, symSize: 0x18 }
  - { offset: 0xBFC2E, size: 0x8, addend: 0x0, symName: __RNvXsC_NtCsiTraAjBDcu4_5alloc5boxedINtB5_3BoxNtNtCsc29TF2YcYso_3syn4expr4ExprEINtNtCsaNl6UpbT7bw_4core7convert5AsMutBH_E6as_mutCsemR3zGJppC3_18tracing_attributes, symObjAddr: 0x2C68, symBinAddr: 0x4B2D8, symSize: 0x18 }
  - { offset: 0xBFC6E, size: 0x8, addend: 0x0, symName: __RNvXsC_NtCsiTraAjBDcu4_5alloc5boxedINtB5_3BoxNtNtCsc29TF2YcYso_3syn4item5FnArgEINtNtCsaNl6UpbT7bw_4core7convert5AsMutBH_E6as_mutCsemR3zGJppC3_18tracing_attributes, symObjAddr: 0x2C80, symBinAddr: 0x4B2F0, symSize: 0x18 }
  - { offset: 0xBFCAE, size: 0x8, addend: 0x0, symName: __RNvXsC_NtCsiTraAjBDcu4_5alloc5boxedINtB5_3BoxNtNtCsc29TF2YcYso_3syn4item7UseTreeEINtNtCsaNl6UpbT7bw_4core7convert5AsMutBH_E6as_mutCsemR3zGJppC3_18tracing_attributes, symObjAddr: 0x2C98, symBinAddr: 0x4B308, symSize: 0x18 }
  - { offset: 0xBFCEE, size: 0x8, addend: 0x0, symName: __RNvXsC_NtCsiTraAjBDcu4_5alloc5boxedINtB5_3BoxNtNtCsc29TF2YcYso_3syn4path15GenericArgumentEINtNtCsaNl6UpbT7bw_4core7convert5AsMutBH_E6as_mutCsemR3zGJppC3_18tracing_attributes, symObjAddr: 0x2CB0, symBinAddr: 0x4B320, symSize: 0x18 }
  - { offset: 0xBFD2E, size: 0x8, addend: 0x0, symName: __RNvXsC_NtCsiTraAjBDcu4_5alloc5boxedINtB5_3BoxNtNtCsc29TF2YcYso_3syn8generics13CapturedParamEINtNtCsaNl6UpbT7bw_4core7convert5AsMutBH_E6as_mutCsemR3zGJppC3_18tracing_attributes, symObjAddr: 0x2CC8, symBinAddr: 0x4B338, symSize: 0x18 }
  - { offset: 0xBFD6E, size: 0x8, addend: 0x0, symName: __RNvXsC_NtCsiTraAjBDcu4_5alloc5boxedINtB5_3BoxNtNtCsc29TF2YcYso_3syn8generics14TypeParamBoundEINtNtCsaNl6UpbT7bw_4core7convert5AsMutBH_E6as_mutCsemR3zGJppC3_18tracing_attributes, symObjAddr: 0x2CE0, symBinAddr: 0x4B350, symSize: 0x18 }
  - { offset: 0xBFDAE, size: 0x8, addend: 0x0, symName: __RNvXsC_NtCsiTraAjBDcu4_5alloc5boxedINtB5_3BoxNtNtCsc29TF2YcYso_3syn8generics14WherePredicateEINtNtCsaNl6UpbT7bw_4core7convert5AsMutBH_E6as_mutCsemR3zGJppC3_18tracing_attributes, symObjAddr: 0x2CF8, symBinAddr: 0x4B368, symSize: 0x18 }
  - { offset: 0xBFDEE, size: 0x8, addend: 0x0, symName: __RNvXsC_NtCsiTraAjBDcu4_5alloc5boxedINtB5_3BoxNtNtCsc29TF2YcYso_3syn8lifetime8LifetimeEINtNtCsaNl6UpbT7bw_4core7convert5AsMutBH_E6as_mutCsemR3zGJppC3_18tracing_attributes, symObjAddr: 0x2D10, symBinAddr: 0x4B380, symSize: 0x18 }
  - { offset: 0xBFE2E, size: 0x8, addend: 0x0, symName: __RNvXsC_NtCsiTraAjBDcu4_5alloc5boxedINtB5_3BoxNtNtCsemR3zGJppC3_18tracing_attributes4attr5FieldEINtNtCsaNl6UpbT7bw_4core7convert5AsMutBH_E6as_mutBL_, symObjAddr: 0x2D28, symBinAddr: 0x4B398, symSize: 0x18 }
  - { offset: 0xBFF14, size: 0x8, addend: 0x0, symName: __RNvXsa_NtCsiTraAjBDcu4_5alloc5boxedINtB5_3BoxNtCshnvkK9b4wzu_11proc_macro25IdentENtNtCsaNl6UpbT7bw_4core5clone5Clone5cloneCsemR3zGJppC3_18tracing_attributes, symObjAddr: 0x2E1C, symBinAddr: 0x4B48C, symSize: 0xB4 }
  - { offset: 0xC0087, size: 0x8, addend: 0x0, symName: __RNvXsa_NtCsiTraAjBDcu4_5alloc5boxedINtB5_3BoxNtNtCsemR3zGJppC3_18tracing_attributes4attr5FieldENtNtCsaNl6UpbT7bw_4core5clone5Clone5cloneBL_, symObjAddr: 0x2ED0, symBinAddr: 0x4B540, symSize: 0xB4 }
  - { offset: 0xC53B7, size: 0x8, addend: 0x0, symName: __RNvXs0_NtCsc29TF2YcYso_3syn5dropsINtB5_6NoDropDINtNtB7_10punctuated12IterMutTraitNtNtCsemR3zGJppC3_18tracing_attributes4attr5FieldEp4ItemQB1h_EL_ENtNtNtCsaNl6UpbT7bw_4core3ops5deref8DerefMut9deref_mutB1l_, symObjAddr: 0x2158, symBinAddr: 0x4A7C8, symSize: 0x3C }
  - { offset: 0xC53EC, size: 0x8, addend: 0x0, symName: __RNvXs0_NtCsc29TF2YcYso_3syn5dropsINtB5_6NoDropDINtNtB7_10punctuated9IterTraitNtCshnvkK9b4wzu_11proc_macro25IdentEp4ItemRB1d_EL_ENtNtNtCsaNl6UpbT7bw_4core3ops5deref8DerefMut9deref_mutCsemR3zGJppC3_18tracing_attributes, symObjAddr: 0x2194, symBinAddr: 0x4A804, symSize: 0x3C }
  - { offset: 0xC5421, size: 0x8, addend: 0x0, symName: __RNvXs0_NtCsc29TF2YcYso_3syn5dropsINtB5_6NoDropDINtNtB7_10punctuated9IterTraitNtNtCsemR3zGJppC3_18tracing_attributes4attr5FieldEp4ItemRB1d_EL_ENtNtNtCsaNl6UpbT7bw_4core3ops5deref8DerefMut9deref_mutB1h_, symObjAddr: 0x21D0, symBinAddr: 0x4A840, symSize: 0x3C }
  - { offset: 0xC54BC, size: 0x8, addend: 0x0, symName: __RNvXNtCsc29TF2YcYso_3syn7spannedINtNtCsiTraAjBDcu4_5alloc5boxed3BoxNtNtB4_2ty4TypeENtB2_7Spanned4spanCsemR3zGJppC3_18tracing_attributes, symObjAddr: 0x2008, symBinAddr: 0x4A678, symSize: 0x34 }
  - { offset: 0xC5E66, size: 0x8, addend: 0x0, symName: __RNvMNtCsc29TF2YcYso_3syn5dropsINtB2_6NoDropINtNtB4_10punctuated11PrivateIterNtCshnvkK9b4wzu_11proc_macro25IdentNtNtB4_5token3DotEE3newCsemR3zGJppC3_18tracing_attributes, symObjAddr: 0xFD4, symBinAddr: 0x49644, symSize: 0x40 }
  - { offset: 0xC5F1B, size: 0x8, addend: 0x0, symName: __RNvMNtCsc29TF2YcYso_3syn5dropsINtB2_6NoDropINtNtB4_10punctuated11PrivateIterNtNtCsemR3zGJppC3_18tracing_attributes4attr5FieldNtNtB4_5token5CommaEE3newB1g_, symObjAddr: 0x1014, symBinAddr: 0x49684, symSize: 0x40 }
  - { offset: 0xC5FA5, size: 0x8, addend: 0x0, symName: __RNvMNtCsc29TF2YcYso_3syn5dropsINtB2_6NoDropINtNtB4_10punctuated14PrivateIterMutNtNtCsemR3zGJppC3_18tracing_attributes4attr5FieldNtNtB4_5token5CommaEE3newB1j_, symObjAddr: 0x1054, symBinAddr: 0x496C4, symSize: 0x40 }
  - { offset: 0xC6077, size: 0x8, addend: 0x0, symName: __RNvXNtCs4EAaWzSXu1l_5quote9to_tokensRINtNtCsiTraAjBDcu4_5alloc5boxed3BoxNtNtCsc29TF2YcYso_3syn2ty4TypeENtB2_8ToTokens9to_tokensCsemR3zGJppC3_18tracing_attributes, symObjAddr: 0x1F7C, symBinAddr: 0x4A5EC, symSize: 0x40 }
  - { offset: 0xC60B6, size: 0x8, addend: 0x0, symName: __RNvXNtCs4EAaWzSXu1l_5quote9to_tokensReNtB2_8ToTokens9to_tokensCsemR3zGJppC3_18tracing_attributes, symObjAddr: 0x1FBC, symBinAddr: 0x4A62C, symSize: 0x4C }
  - { offset: 0xC60FB, size: 0x8, addend: 0x0, symName: __RNvYRINtNtCsiTraAjBDcu4_5alloc5boxed3BoxNtNtCsc29TF2YcYso_3syn2ty4TypeENtNtCs4EAaWzSXu1l_5quote9to_tokens8ToTokens15to_token_streamCsemR3zGJppC3_18tracing_attributes, symObjAddr: 0x2FC4, symBinAddr: 0x4B634, symSize: 0x8C }
  - { offset: 0xC6145, size: 0x8, addend: 0x0, symName: __RNvYRINtNtCsiTraAjBDcu4_5alloc5boxed3BoxNtNtCsc29TF2YcYso_3syn2ty4TypeENtNtCs4EAaWzSXu1l_5quote9to_tokens8ToTokens17into_token_streamCsemR3zGJppC3_18tracing_attributes, symObjAddr: 0x3050, symBinAddr: 0x4B6C0, symSize: 0x54 }
