---
triple:          'arm64-apple-darwin'
binary-path:     '/Users/tyler/fall25/cse380/final_project/final_project_sqlite/target/debug/deps/libyoke_derive-cd8039e010f1cf62.dylib'
relocations:
  - { offset: 0x1E, size: 0x8, addend: 0x0, symName: __RINvXs3_NtNtCsiTraAjBDcu4_5alloc3vec9into_iterINtB6_8IntoIterNtNtCsc29TF2YcYso_3syn4attr9AttributeENtNtNtNtCsaNl6UpbT7bw_4core4iter6traits8iterator8Iterator8try_foldINtNtB8_13in_place_drop11InPlaceDropBX_ENCINvNtNtB1F_8adapters3map12map_try_foldBX_BX_B2D_INtNtB1H_6result6ResultB2D_zENCINvNtNtB11_3gen4fold8fold_vecBX_NtNvCsfQFyxU9Vz2T_11yoke_derive16replace_lifetime15ReplaceLifetimeNvYB56_NtB4D_4Fold14fold_attributeE0NCINvNtB8_16in_place_collect24write_in_place_with_dropBX_E0E0B45_EB5a_, symObjAddr: 0x0, symBinAddr: 0xC50, symSize: 0x1F0 }
  - { offset: 0x76C4, size: 0x8, addend: 0x0, symName: __RINvYINtNtNtCsiTraAjBDcu4_5alloc3vec9into_iter8IntoIterNtNtCsc29TF2YcYso_3syn4attr9AttributeENtNtNtNtCsaNl6UpbT7bw_4core4iter6traits8iterator8Iterator3mapBR_NCINvNtNtBV_3gen4fold8fold_vecBR_NtNvCsfQFyxU9Vz2T_11yoke_derive16replace_lifetime15ReplaceLifetimeNvYB32_NtB2A_4Fold14fold_attributeE0EB36_, symObjAddr: 0x307C, symBinAddr: 0x3CCC, symSize: 0x34 }
  - { offset: 0x7731, size: 0x8, addend: 0x0, symName: __RINvYINtNtNtCsiTraAjBDcu4_5alloc3vec9into_iter8IntoIterNtNtCsc29TF2YcYso_3syn4expr3ArmENtNtNtNtCsaNl6UpbT7bw_4core4iter6traits8iterator8Iterator3mapBR_NCINvNtNtBV_3gen4fold8fold_vecBR_NtNvCsfQFyxU9Vz2T_11yoke_derive16replace_lifetime15ReplaceLifetimeNvYB2W_NtB2u_4Fold8fold_armE0EB30_, symObjAddr: 0x30B0, symBinAddr: 0x3D00, symSize: 0x34 }
  - { offset: 0x779E, size: 0x8, addend: 0x0, symName: __RINvYINtNtNtCsiTraAjBDcu4_5alloc3vec9into_iter8IntoIterNtNtCsc29TF2YcYso_3syn4item11ForeignItemENtNtNtNtCsaNl6UpbT7bw_4core4iter6traits8iterator8Iterator3mapBR_NCINvNtNtBV_3gen4fold8fold_vecBR_NtNvCsfQFyxU9Vz2T_11yoke_derive16replace_lifetime15ReplaceLifetimeNvYB35_NtB2D_4Fold17fold_foreign_itemE0EB39_, symObjAddr: 0x30E4, symBinAddr: 0x3D34, symSize: 0x34 }
  - { offset: 0x780B, size: 0x8, addend: 0x0, symName: __RINvYINtNtNtCsiTraAjBDcu4_5alloc3vec9into_iter8IntoIterNtNtCsc29TF2YcYso_3syn4item4ItemENtNtNtNtCsaNl6UpbT7bw_4core4iter6traits8iterator8Iterator3mapBR_NCINvNtNtBV_3gen4fold8fold_vecBR_NtNvCsfQFyxU9Vz2T_11yoke_derive16replace_lifetime15ReplaceLifetimeNvYB2X_NtB2v_4Fold9fold_itemE0EB31_, symObjAddr: 0x3118, symBinAddr: 0x3D68, symSize: 0x34 }
  - { offset: 0x7878, size: 0x8, addend: 0x0, symName: __RINvYINtNtNtCsiTraAjBDcu4_5alloc3vec9into_iter8IntoIterNtNtCsc29TF2YcYso_3syn4item8ImplItemENtNtNtNtCsaNl6UpbT7bw_4core4iter6traits8iterator8Iterator3mapBR_NCINvNtNtBV_3gen4fold8fold_vecBR_NtNvCsfQFyxU9Vz2T_11yoke_derive16replace_lifetime15ReplaceLifetimeNvYB31_NtB2z_4Fold14fold_impl_itemE0EB35_, symObjAddr: 0x314C, symBinAddr: 0x3D9C, symSize: 0x34 }
  - { offset: 0x78E5, size: 0x8, addend: 0x0, symName: __RINvYINtNtNtCsiTraAjBDcu4_5alloc3vec9into_iter8IntoIterNtNtCsc29TF2YcYso_3syn4item9TraitItemENtNtNtNtCsaNl6UpbT7bw_4core4iter6traits8iterator8Iterator3mapBR_NCINvNtNtBV_3gen4fold8fold_vecBR_NtNvCsfQFyxU9Vz2T_11yoke_derive16replace_lifetime15ReplaceLifetimeNvYB32_NtB2A_4Fold15fold_trait_itemE0EB36_, symObjAddr: 0x3180, symBinAddr: 0x3DD0, symSize: 0x34 }
  - { offset: 0x7952, size: 0x8, addend: 0x0, symName: __RINvYINtNtNtCsiTraAjBDcu4_5alloc3vec9into_iter8IntoIterNtNtCsc29TF2YcYso_3syn4stmt4StmtENtNtNtNtCsaNl6UpbT7bw_4core4iter6traits8iterator8Iterator3mapBR_NCINvNtNtBV_3gen4fold8fold_vecBR_NtNvCsfQFyxU9Vz2T_11yoke_derive16replace_lifetime15ReplaceLifetimeNvYB2X_NtB2v_4Fold9fold_stmtE0EB31_, symObjAddr: 0x31B4, symBinAddr: 0x3E04, symSize: 0x34 }
  - { offset: 0x79BF, size: 0x8, addend: 0x0, symName: __RINvYINtNtNtCsiTraAjBDcu4_5alloc3vec9into_iter8IntoIterTNtNtCsc29TF2YcYso_3syn2ty4TypeNtNtBW_5token5CommaEENtNtNtNtCsaNl6UpbT7bw_4core4iter6traits8iterator8Iterator3mapBR_NCINvNtBW_10punctuated4foldBS_B1m_NtNvCsfQFyxU9Vz2T_11yoke_derive16replace_lifetime15ReplaceLifetimeNvYB3h_NtNtNtBW_3gen4fold4Fold9fold_typeE0EB3l_, symObjAddr: 0x31E8, symBinAddr: 0x3E38, symSize: 0x34 }
  - { offset: 0x7A2C, size: 0x8, addend: 0x0, symName: __RINvYINtNtNtCsiTraAjBDcu4_5alloc3vec9into_iter8IntoIterTNtNtCsc29TF2YcYso_3syn2ty9BareFnArgNtNtBW_5token5CommaEENtNtNtNtCsaNl6UpbT7bw_4core4iter6traits8iterator8Iterator3mapBR_NCINvNtBW_10punctuated4foldBS_B1r_NtNvCsfQFyxU9Vz2T_11yoke_derive16replace_lifetime15ReplaceLifetimeNvYB3m_NtNtNtBW_3gen4fold4Fold16fold_bare_fn_argE0EB3q_, symObjAddr: 0x321C, symBinAddr: 0x3E6C, symSize: 0x34 }
  - { offset: 0x7A99, size: 0x8, addend: 0x0, symName: __RINvYINtNtNtCsiTraAjBDcu4_5alloc3vec9into_iter8IntoIterTNtNtCsc29TF2YcYso_3syn3pat3PatNtNtBW_5token2OrEENtNtNtNtCsaNl6UpbT7bw_4core4iter6traits8iterator8Iterator3mapBR_NCINvNtBW_10punctuated4foldBS_B1m_NtNvCsfQFyxU9Vz2T_11yoke_derive16replace_lifetime15ReplaceLifetimeNvYB3e_NtNtNtBW_3gen4fold4Fold8fold_patE0EB3i_, symObjAddr: 0x3250, symBinAddr: 0x3EA0, symSize: 0x34 }
  - { offset: 0x7B06, size: 0x8, addend: 0x0, symName: __RINvYINtNtNtCsiTraAjBDcu4_5alloc3vec9into_iter8IntoIterTNtNtCsc29TF2YcYso_3syn3pat3PatNtNtBW_5token5CommaEENtNtNtNtCsaNl6UpbT7bw_4core4iter6traits8iterator8Iterator3mapBR_NCINvNtBW_10punctuated4foldBS_B1m_NtNvCsfQFyxU9Vz2T_11yoke_derive16replace_lifetime15ReplaceLifetimeNvYB3h_NtNtNtBW_3gen4fold4Fold8fold_patE0EB3l_, symObjAddr: 0x3284, symBinAddr: 0x3ED4, symSize: 0x34 }
  - { offset: 0x7B73, size: 0x8, addend: 0x0, symName: __RINvYINtNtNtCsiTraAjBDcu4_5alloc3vec9into_iter8IntoIterTNtNtCsc29TF2YcYso_3syn3pat8FieldPatNtNtBW_5token5CommaEENtNtNtNtCsaNl6UpbT7bw_4core4iter6traits8iterator8Iterator3mapBR_NCINvNtBW_10punctuated4foldBS_B1r_NtNvCsfQFyxU9Vz2T_11yoke_derive16replace_lifetime15ReplaceLifetimeNvYB3m_NtNtNtBW_3gen4fold4Fold14fold_field_patE0EB3q_, symObjAddr: 0x32B8, symBinAddr: 0x3F08, symSize: 0x34 }
  - { offset: 0x7BE0, size: 0x8, addend: 0x0, symName: __RINvYINtNtNtCsiTraAjBDcu4_5alloc3vec9into_iter8IntoIterTNtNtCsc29TF2YcYso_3syn4data5FieldNtNtBW_5token5CommaEENtNtNtNtCsaNl6UpbT7bw_4core4iter6traits8iterator8Iterator3mapBR_NCINvNtBW_10punctuated4foldBS_B1p_NtNvCsfQFyxU9Vz2T_11yoke_derive16replace_lifetime15ReplaceLifetimeNvYB3k_NtNtNtBW_3gen4fold4Fold10fold_fieldE0EB3o_, symObjAddr: 0x32EC, symBinAddr: 0x3F3C, symSize: 0x34 }
  - { offset: 0x7C4D, size: 0x8, addend: 0x0, symName: __RINvYINtNtNtCsiTraAjBDcu4_5alloc3vec9into_iter8IntoIterTNtNtCsc29TF2YcYso_3syn4data7VariantNtNtBW_5token5CommaEENtNtNtNtCsaNl6UpbT7bw_4core4iter6traits8iterator8Iterator3mapBR_NCINvNtBW_10punctuated4foldBS_B1r_NtNvCsfQFyxU9Vz2T_11yoke_derive16replace_lifetime15ReplaceLifetimeNvYB3m_NtNtNtBW_3gen4fold4Fold12fold_variantE0EB3q_, symObjAddr: 0x3320, symBinAddr: 0x3F70, symSize: 0x34 }
  - { offset: 0x7CBA, size: 0x8, addend: 0x0, symName: __RINvYINtNtNtCsiTraAjBDcu4_5alloc3vec9into_iter8IntoIterTNtNtCsc29TF2YcYso_3syn4expr10FieldValueNtNtBW_5token5CommaEENtNtNtNtCsaNl6UpbT7bw_4core4iter6traits8iterator8Iterator3mapBR_NCINvNtBW_10punctuated4foldBS_B1v_NtNvCsfQFyxU9Vz2T_11yoke_derive16replace_lifetime15ReplaceLifetimeNvYB3q_NtNtNtBW_3gen4fold4Fold16fold_field_valueE0EB3u_, symObjAddr: 0x3354, symBinAddr: 0x3FA4, symSize: 0x34 }
  - { offset: 0x7D27, size: 0x8, addend: 0x0, symName: __RINvYINtNtNtCsiTraAjBDcu4_5alloc3vec9into_iter8IntoIterTNtNtCsc29TF2YcYso_3syn4expr4ExprNtNtBW_5token5CommaEENtNtNtNtCsaNl6UpbT7bw_4core4iter6traits8iterator8Iterator3mapBR_NCINvNtBW_10punctuated4foldBS_B1o_NtNvCsfQFyxU9Vz2T_11yoke_derive16replace_lifetime15ReplaceLifetimeNvYB3j_NtNtNtBW_3gen4fold4Fold9fold_exprE0EB3n_, symObjAddr: 0x3388, symBinAddr: 0x3FD8, symSize: 0x34 }
  - { offset: 0x7D94, size: 0x8, addend: 0x0, symName: __RINvYINtNtNtCsiTraAjBDcu4_5alloc3vec9into_iter8IntoIterTNtNtCsc29TF2YcYso_3syn4item5FnArgNtNtBW_5token5CommaEENtNtNtNtCsaNl6UpbT7bw_4core4iter6traits8iterator8Iterator3mapBR_NCINvNtBW_10punctuated4foldBS_B1p_NtNvCsfQFyxU9Vz2T_11yoke_derive16replace_lifetime15ReplaceLifetimeNvYB3k_NtNtNtBW_3gen4fold4Fold11fold_fn_argE0EB3o_, symObjAddr: 0x33BC, symBinAddr: 0x400C, symSize: 0x34 }
  - { offset: 0x7E01, size: 0x8, addend: 0x0, symName: __RINvYINtNtNtCsiTraAjBDcu4_5alloc3vec9into_iter8IntoIterTNtNtCsc29TF2YcYso_3syn4item7UseTreeNtNtBW_5token5CommaEENtNtNtNtCsaNl6UpbT7bw_4core4iter6traits8iterator8Iterator3mapBR_NCINvNtBW_10punctuated4foldBS_B1r_NtNvCsfQFyxU9Vz2T_11yoke_derive16replace_lifetime15ReplaceLifetimeNvYB3m_NtNtNtBW_3gen4fold4Fold13fold_use_treeE0EB3q_, symObjAddr: 0x33F0, symBinAddr: 0x4040, symSize: 0x34 }
  - { offset: 0x7E6E, size: 0x8, addend: 0x0, symName: __RINvYINtNtNtCsiTraAjBDcu4_5alloc3vec9into_iter8IntoIterTNtNtCsc29TF2YcYso_3syn4path11PathSegmentNtNtBW_5token7PathSepEENtNtNtNtCsaNl6UpbT7bw_4core4iter6traits8iterator8Iterator3mapBR_NCINvNtBW_10punctuated4foldBS_B1w_NtNvCsfQFyxU9Vz2T_11yoke_derive16replace_lifetime15ReplaceLifetimeNvYB3t_NtNtNtBW_3gen4fold4Fold17fold_path_segmentE0EB3x_, symObjAddr: 0x3424, symBinAddr: 0x4074, symSize: 0x34 }
  - { offset: 0x7EDB, size: 0x8, addend: 0x0, symName: __RINvYINtNtNtCsiTraAjBDcu4_5alloc3vec9into_iter8IntoIterTNtNtCsc29TF2YcYso_3syn4path15GenericArgumentNtNtBW_5token5CommaEENtNtNtNtCsaNl6UpbT7bw_4core4iter6traits8iterator8Iterator3mapBR_NCINvNtBW_10punctuated4foldBS_B1A_NtNvCsfQFyxU9Vz2T_11yoke_derive16replace_lifetime15ReplaceLifetimeNvYB3v_NtNtNtBW_3gen4fold4Fold21fold_generic_argumentE0EB3z_, symObjAddr: 0x3458, symBinAddr: 0x40A8, symSize: 0x34 }
  - { offset: 0x7F48, size: 0x8, addend: 0x0, symName: __RINvYINtNtNtCsiTraAjBDcu4_5alloc3vec9into_iter8IntoIterTNtNtCsc29TF2YcYso_3syn8generics12GenericParamNtNtBW_5token5CommaEENtNtNtNtCsaNl6UpbT7bw_4core4iter6traits8iterator8Iterator3mapBR_NCINvNtBW_10punctuated4foldBS_B1B_NtNvCsfQFyxU9Vz2T_11yoke_derive16replace_lifetime15ReplaceLifetimeNvYB3w_NtNtNtBW_3gen4fold4Fold18fold_generic_paramE0EB3A_, symObjAddr: 0x348C, symBinAddr: 0x40DC, symSize: 0x34 }
  - { offset: 0x7FB5, size: 0x8, addend: 0x0, symName: __RINvYINtNtNtCsiTraAjBDcu4_5alloc3vec9into_iter8IntoIterTNtNtCsc29TF2YcYso_3syn8generics13CapturedParamNtNtBW_5token5CommaEENtNtNtNtCsaNl6UpbT7bw_4core4iter6traits8iterator8Iterator3mapBR_NCINvNtBW_10punctuated4foldBS_B1C_NtNvCsfQFyxU9Vz2T_11yoke_derive16replace_lifetime15ReplaceLifetimeNvYB3x_NtNtNtBW_3gen4fold4Fold19fold_captured_paramE0EB3B_, symObjAddr: 0x34C0, symBinAddr: 0x4110, symSize: 0x34 }
  - { offset: 0x8022, size: 0x8, addend: 0x0, symName: __RINvYINtNtNtCsiTraAjBDcu4_5alloc3vec9into_iter8IntoIterTNtNtCsc29TF2YcYso_3syn8generics14TypeParamBoundNtNtBW_5token4PlusEENtNtNtNtCsaNl6UpbT7bw_4core4iter6traits8iterator8Iterator3mapBR_NCINvNtBW_10punctuated4foldBS_B1D_NtNvCsfQFyxU9Vz2T_11yoke_derive16replace_lifetime15ReplaceLifetimeNvYB3x_NtNtNtBW_3gen4fold4Fold21fold_type_param_boundE0EB3B_, symObjAddr: 0x34F4, symBinAddr: 0x4144, symSize: 0x34 }
  - { offset: 0x808F, size: 0x8, addend: 0x0, symName: __RINvYINtNtNtCsiTraAjBDcu4_5alloc3vec9into_iter8IntoIterTNtNtCsc29TF2YcYso_3syn8generics14WherePredicateNtNtBW_5token5CommaEENtNtNtNtCsaNl6UpbT7bw_4core4iter6traits8iterator8Iterator3mapBR_NCINvNtBW_10punctuated4foldBS_B1D_NtNvCsfQFyxU9Vz2T_11yoke_derive16replace_lifetime15ReplaceLifetimeNvYB3y_NtNtNtBW_3gen4fold4Fold20fold_where_predicateE0EB3C_, symObjAddr: 0x3528, symBinAddr: 0x4178, symSize: 0x34 }
  - { offset: 0x80FC, size: 0x8, addend: 0x0, symName: __RINvYINtNtNtCsiTraAjBDcu4_5alloc3vec9into_iter8IntoIterTNtNtCsc29TF2YcYso_3syn8lifetime8LifetimeNtNtBW_5token4PlusEENtNtNtNtCsaNl6UpbT7bw_4core4iter6traits8iterator8Iterator3mapBR_NCINvNtBW_10punctuated4foldBS_B1w_NtNvCsfQFyxU9Vz2T_11yoke_derive16replace_lifetime15ReplaceLifetimeNvYB3q_NtNtNtBW_3gen4fold4Fold13fold_lifetimeE0EB3u_, symObjAddr: 0x355C, symBinAddr: 0x41AC, symSize: 0x34 }
  - { offset: 0x8821, size: 0x8, addend: 0x0, symName: __RNvYINtNtNtCsiTraAjBDcu4_5alloc3vec9into_iter8IntoIterNtNtCsc29TF2YcYso_3syn4expr3ArmENtNtNtNtCsaNl6UpbT7bw_4core4iter6traits10exact_size17ExactSizeIterator3lenCsfQFyxU9Vz2T_11yoke_derive, symObjAddr: 0x69C4, symBinAddr: 0x7614, symSize: 0xC4 }
  - { offset: 0x891C, size: 0x8, addend: 0x0, symName: __RNvYINtNtNtCsiTraAjBDcu4_5alloc3vec9into_iter8IntoIterNtNtCsc29TF2YcYso_3syn4item11ForeignItemENtNtNtNtCsaNl6UpbT7bw_4core4iter6traits10exact_size17ExactSizeIterator3lenCsfQFyxU9Vz2T_11yoke_derive, symObjAddr: 0x6A88, symBinAddr: 0x76D8, symSize: 0xC4 }
  - { offset: 0x8A17, size: 0x8, addend: 0x0, symName: __RNvYINtNtNtCsiTraAjBDcu4_5alloc3vec9into_iter8IntoIterNtNtCsc29TF2YcYso_3syn4item4ItemENtNtNtNtCsaNl6UpbT7bw_4core4iter6traits10exact_size17ExactSizeIterator3lenCsfQFyxU9Vz2T_11yoke_derive, symObjAddr: 0x6B4C, symBinAddr: 0x779C, symSize: 0xC4 }
  - { offset: 0x8B12, size: 0x8, addend: 0x0, symName: __RNvYINtNtNtCsiTraAjBDcu4_5alloc3vec9into_iter8IntoIterNtNtCsc29TF2YcYso_3syn4item8ImplItemENtNtNtNtCsaNl6UpbT7bw_4core4iter6traits10exact_size17ExactSizeIterator3lenCsfQFyxU9Vz2T_11yoke_derive, symObjAddr: 0x6C10, symBinAddr: 0x7860, symSize: 0xC4 }
  - { offset: 0x8C0D, size: 0x8, addend: 0x0, symName: __RNvYINtNtNtCsiTraAjBDcu4_5alloc3vec9into_iter8IntoIterNtNtCsc29TF2YcYso_3syn4item9TraitItemENtNtNtNtCsaNl6UpbT7bw_4core4iter6traits10exact_size17ExactSizeIterator3lenCsfQFyxU9Vz2T_11yoke_derive, symObjAddr: 0x6CD4, symBinAddr: 0x7924, symSize: 0xC4 }
  - { offset: 0x8D08, size: 0x8, addend: 0x0, symName: __RNvYINtNtNtCsiTraAjBDcu4_5alloc3vec9into_iter8IntoIterNtNtCsc29TF2YcYso_3syn4stmt4StmtENtNtNtNtCsaNl6UpbT7bw_4core4iter6traits10exact_size17ExactSizeIterator3lenCsfQFyxU9Vz2T_11yoke_derive, symObjAddr: 0x6D98, symBinAddr: 0x79E8, symSize: 0xC4 }
  - { offset: 0x8E03, size: 0x8, addend: 0x0, symName: __RNvYINtNtNtCsiTraAjBDcu4_5alloc3vec9into_iter8IntoIterTNtNtCsc29TF2YcYso_3syn2ty4TypeNtNtBV_5token5CommaEENtNtNtNtCsaNl6UpbT7bw_4core4iter6traits10exact_size17ExactSizeIterator3lenCsfQFyxU9Vz2T_11yoke_derive, symObjAddr: 0x6E5C, symBinAddr: 0x7AAC, symSize: 0xC4 }
  - { offset: 0x8EFE, size: 0x8, addend: 0x0, symName: __RNvYINtNtNtCsiTraAjBDcu4_5alloc3vec9into_iter8IntoIterTNtNtCsc29TF2YcYso_3syn2ty9BareFnArgNtNtBV_5token5CommaEENtNtNtNtCsaNl6UpbT7bw_4core4iter6traits10exact_size17ExactSizeIterator3lenCsfQFyxU9Vz2T_11yoke_derive, symObjAddr: 0x6F20, symBinAddr: 0x7B70, symSize: 0xC4 }
  - { offset: 0x8FF9, size: 0x8, addend: 0x0, symName: __RNvYINtNtNtCsiTraAjBDcu4_5alloc3vec9into_iter8IntoIterTNtNtCsc29TF2YcYso_3syn3pat3PatNtNtBV_5token2OrEENtNtNtNtCsaNl6UpbT7bw_4core4iter6traits10exact_size17ExactSizeIterator3lenCsfQFyxU9Vz2T_11yoke_derive, symObjAddr: 0x6FE4, symBinAddr: 0x7C34, symSize: 0xC4 }
  - { offset: 0x90F4, size: 0x8, addend: 0x0, symName: __RNvYINtNtNtCsiTraAjBDcu4_5alloc3vec9into_iter8IntoIterTNtNtCsc29TF2YcYso_3syn3pat3PatNtNtBV_5token5CommaEENtNtNtNtCsaNl6UpbT7bw_4core4iter6traits10exact_size17ExactSizeIterator3lenCsfQFyxU9Vz2T_11yoke_derive, symObjAddr: 0x70A8, symBinAddr: 0x7CF8, symSize: 0xC4 }
  - { offset: 0x91EF, size: 0x8, addend: 0x0, symName: __RNvYINtNtNtCsiTraAjBDcu4_5alloc3vec9into_iter8IntoIterTNtNtCsc29TF2YcYso_3syn3pat8FieldPatNtNtBV_5token5CommaEENtNtNtNtCsaNl6UpbT7bw_4core4iter6traits10exact_size17ExactSizeIterator3lenCsfQFyxU9Vz2T_11yoke_derive, symObjAddr: 0x716C, symBinAddr: 0x7DBC, symSize: 0xC4 }
  - { offset: 0x92EA, size: 0x8, addend: 0x0, symName: __RNvYINtNtNtCsiTraAjBDcu4_5alloc3vec9into_iter8IntoIterTNtNtCsc29TF2YcYso_3syn4data7VariantNtNtBV_5token5CommaEENtNtNtNtCsaNl6UpbT7bw_4core4iter6traits10exact_size17ExactSizeIterator3lenCsfQFyxU9Vz2T_11yoke_derive, symObjAddr: 0x7230, symBinAddr: 0x7E80, symSize: 0xC4 }
  - { offset: 0x93E5, size: 0x8, addend: 0x0, symName: __RNvYINtNtNtCsiTraAjBDcu4_5alloc3vec9into_iter8IntoIterTNtNtCsc29TF2YcYso_3syn4expr10FieldValueNtNtBV_5token5CommaEENtNtNtNtCsaNl6UpbT7bw_4core4iter6traits10exact_size17ExactSizeIterator3lenCsfQFyxU9Vz2T_11yoke_derive, symObjAddr: 0x72F4, symBinAddr: 0x7F44, symSize: 0xC4 }
  - { offset: 0x94E0, size: 0x8, addend: 0x0, symName: __RNvYINtNtNtCsiTraAjBDcu4_5alloc3vec9into_iter8IntoIterTNtNtCsc29TF2YcYso_3syn4expr4ExprNtNtBV_5token5CommaEENtNtNtNtCsaNl6UpbT7bw_4core4iter6traits10exact_size17ExactSizeIterator3lenCsfQFyxU9Vz2T_11yoke_derive, symObjAddr: 0x73B8, symBinAddr: 0x8008, symSize: 0xC4 }
  - { offset: 0x95DB, size: 0x8, addend: 0x0, symName: __RNvYINtNtNtCsiTraAjBDcu4_5alloc3vec9into_iter8IntoIterTNtNtCsc29TF2YcYso_3syn4item5FnArgNtNtBV_5token5CommaEENtNtNtNtCsaNl6UpbT7bw_4core4iter6traits10exact_size17ExactSizeIterator3lenCsfQFyxU9Vz2T_11yoke_derive, symObjAddr: 0x747C, symBinAddr: 0x80CC, symSize: 0xC4 }
  - { offset: 0x96D6, size: 0x8, addend: 0x0, symName: __RNvYINtNtNtCsiTraAjBDcu4_5alloc3vec9into_iter8IntoIterTNtNtCsc29TF2YcYso_3syn4item7UseTreeNtNtBV_5token5CommaEENtNtNtNtCsaNl6UpbT7bw_4core4iter6traits10exact_size17ExactSizeIterator3lenCsfQFyxU9Vz2T_11yoke_derive, symObjAddr: 0x7540, symBinAddr: 0x8190, symSize: 0xC4 }
  - { offset: 0x97D1, size: 0x8, addend: 0x0, symName: __RNvYINtNtNtCsiTraAjBDcu4_5alloc3vec9into_iter8IntoIterTNtNtCsc29TF2YcYso_3syn4path15GenericArgumentNtNtBV_5token5CommaEENtNtNtNtCsaNl6UpbT7bw_4core4iter6traits10exact_size17ExactSizeIterator3lenCsfQFyxU9Vz2T_11yoke_derive, symObjAddr: 0x7604, symBinAddr: 0x8254, symSize: 0xC4 }
  - { offset: 0x98CC, size: 0x8, addend: 0x0, symName: __RNvYINtNtNtCsiTraAjBDcu4_5alloc3vec9into_iter8IntoIterTNtNtCsc29TF2YcYso_3syn8generics12GenericParamNtNtBV_5token5CommaEENtNtNtNtCsaNl6UpbT7bw_4core4iter6traits10exact_size17ExactSizeIterator3lenCsfQFyxU9Vz2T_11yoke_derive, symObjAddr: 0x76C8, symBinAddr: 0x8318, symSize: 0xC4 }
  - { offset: 0x99C7, size: 0x8, addend: 0x0, symName: __RNvYINtNtNtCsiTraAjBDcu4_5alloc3vec9into_iter8IntoIterTNtNtCsc29TF2YcYso_3syn8generics13CapturedParamNtNtBV_5token5CommaEENtNtNtNtCsaNl6UpbT7bw_4core4iter6traits10exact_size17ExactSizeIterator3lenCsfQFyxU9Vz2T_11yoke_derive, symObjAddr: 0x778C, symBinAddr: 0x83DC, symSize: 0xC4 }
  - { offset: 0x9AC2, size: 0x8, addend: 0x0, symName: __RNvYINtNtNtCsiTraAjBDcu4_5alloc3vec9into_iter8IntoIterTNtNtCsc29TF2YcYso_3syn8generics14WherePredicateNtNtBV_5token5CommaEENtNtNtNtCsaNl6UpbT7bw_4core4iter6traits10exact_size17ExactSizeIterator3lenCsfQFyxU9Vz2T_11yoke_derive, symObjAddr: 0x7850, symBinAddr: 0x84A0, symSize: 0xC4 }
  - { offset: 0x9BBD, size: 0x8, addend: 0x0, symName: __RNvYINtNtNtCsiTraAjBDcu4_5alloc3vec9into_iter8IntoIterTNtNtCsc29TF2YcYso_3syn8lifetime8LifetimeNtNtBV_5token4PlusEENtNtNtNtCsaNl6UpbT7bw_4core4iter6traits10exact_size17ExactSizeIterator3lenCsfQFyxU9Vz2T_11yoke_derive, symObjAddr: 0x7914, symBinAddr: 0x8564, symSize: 0xC4 }
  - { offset: 0xFE22, size: 0x8, addend: 0x0, symName: __RINvXs3_NtNtCsiTraAjBDcu4_5alloc3vec9into_iterINtB6_8IntoIterNtNtCsc29TF2YcYso_3syn4attr9AttributeENtNtNtNtCsaNl6UpbT7bw_4core4iter6traits8iterator8Iterator8try_foldINtNtB8_13in_place_drop11InPlaceDropBX_ENCINvNtNtB1F_8adapters3map12map_try_foldBX_BX_B2D_INtNtB1H_6result6ResultB2D_zENCINvNtNtB11_3gen4fold8fold_vecBX_NtNvCsfQFyxU9Vz2T_11yoke_derive16replace_lifetime15ReplaceLifetimeNvYB56_NtB4D_4Fold14fold_attributeE0NCINvNtB8_16in_place_collect24write_in_place_with_dropBX_E0E0B45_EB5a_, symObjAddr: 0x0, symBinAddr: 0xC50, symSize: 0x1F0 }
  - { offset: 0x10004, size: 0x8, addend: 0x0, symName: __RINvXs3_NtNtCsiTraAjBDcu4_5alloc3vec9into_iterINtB6_8IntoIterNtNtCsc29TF2YcYso_3syn4expr3ArmENtNtNtNtCsaNl6UpbT7bw_4core4iter6traits8iterator8Iterator8try_foldINtNtB8_13in_place_drop11InPlaceDropBX_ENCINvNtNtB1z_8adapters3map12map_try_foldBX_BX_B2x_INtNtB1B_6result6ResultB2x_zENCINvNtNtB11_3gen4fold8fold_vecBX_NtNvCsfQFyxU9Vz2T_11yoke_derive16replace_lifetime15ReplaceLifetimeNvYB50_NtB4x_4Fold8fold_armE0NCINvNtB8_16in_place_collect24write_in_place_with_dropBX_E0E0B3Z_EB54_, symObjAddr: 0x1F0, symBinAddr: 0xE40, symSize: 0x1F0 }
  - { offset: 0x101E6, size: 0x8, addend: 0x0, symName: __RINvXs3_NtNtCsiTraAjBDcu4_5alloc3vec9into_iterINtB6_8IntoIterNtNtCsc29TF2YcYso_3syn4item11ForeignItemENtNtNtNtCsaNl6UpbT7bw_4core4iter6traits8iterator8Iterator8try_foldINtNtB8_13in_place_drop11InPlaceDropBX_ENCINvNtNtB1I_8adapters3map12map_try_foldBX_BX_B2G_INtNtB1K_6result6ResultB2G_zENCINvNtNtB11_3gen4fold8fold_vecBX_NtNvCsfQFyxU9Vz2T_11yoke_derive16replace_lifetime15ReplaceLifetimeNvYB59_NtB4G_4Fold17fold_foreign_itemE0NCINvNtB8_16in_place_collect24write_in_place_with_dropBX_E0E0B48_EB5d_, symObjAddr: 0x3E0, symBinAddr: 0x1030, symSize: 0x1F0 }
  - { offset: 0x103C8, size: 0x8, addend: 0x0, symName: __RINvXs3_NtNtCsiTraAjBDcu4_5alloc3vec9into_iterINtB6_8IntoIterNtNtCsc29TF2YcYso_3syn4item4ItemENtNtNtNtCsaNl6UpbT7bw_4core4iter6traits8iterator8Iterator8try_foldINtNtB8_13in_place_drop11InPlaceDropBX_ENCINvNtNtB1A_8adapters3map12map_try_foldBX_BX_B2y_INtNtB1C_6result6ResultB2y_zENCINvNtNtB11_3gen4fold8fold_vecBX_NtNvCsfQFyxU9Vz2T_11yoke_derive16replace_lifetime15ReplaceLifetimeNvYB51_NtB4y_4Fold9fold_itemE0NCINvNtB8_16in_place_collect24write_in_place_with_dropBX_E0E0B40_EB55_, symObjAddr: 0x5D0, symBinAddr: 0x1220, symSize: 0x1F0 }
  - { offset: 0x105AA, size: 0x8, addend: 0x0, symName: __RINvXs3_NtNtCsiTraAjBDcu4_5alloc3vec9into_iterINtB6_8IntoIterNtNtCsc29TF2YcYso_3syn4item8ImplItemENtNtNtNtCsaNl6UpbT7bw_4core4iter6traits8iterator8Iterator8try_foldINtNtB8_13in_place_drop11InPlaceDropBX_ENCINvNtNtB1E_8adapters3map12map_try_foldBX_BX_B2C_INtNtB1G_6result6ResultB2C_zENCINvNtNtB11_3gen4fold8fold_vecBX_NtNvCsfQFyxU9Vz2T_11yoke_derive16replace_lifetime15ReplaceLifetimeNvYB55_NtB4C_4Fold14fold_impl_itemE0NCINvNtB8_16in_place_collect24write_in_place_with_dropBX_E0E0B44_EB59_, symObjAddr: 0x7C0, symBinAddr: 0x1410, symSize: 0x1F4 }
  - { offset: 0x1078C, size: 0x8, addend: 0x0, symName: __RINvXs3_NtNtCsiTraAjBDcu4_5alloc3vec9into_iterINtB6_8IntoIterNtNtCsc29TF2YcYso_3syn4item9TraitItemENtNtNtNtCsaNl6UpbT7bw_4core4iter6traits8iterator8Iterator8try_foldINtNtB8_13in_place_drop11InPlaceDropBX_ENCINvNtNtB1F_8adapters3map12map_try_foldBX_BX_B2D_INtNtB1H_6result6ResultB2D_zENCINvNtNtB11_3gen4fold8fold_vecBX_NtNvCsfQFyxU9Vz2T_11yoke_derive16replace_lifetime15ReplaceLifetimeNvYB56_NtB4D_4Fold15fold_trait_itemE0NCINvNtB8_16in_place_collect24write_in_place_with_dropBX_E0E0B45_EB5a_, symObjAddr: 0x9B4, symBinAddr: 0x1604, symSize: 0x1F4 }
  - { offset: 0x1096E, size: 0x8, addend: 0x0, symName: __RINvXs3_NtNtCsiTraAjBDcu4_5alloc3vec9into_iterINtB6_8IntoIterNtNtCsc29TF2YcYso_3syn4stmt4StmtENtNtNtNtCsaNl6UpbT7bw_4core4iter6traits8iterator8Iterator8try_foldINtNtB8_13in_place_drop11InPlaceDropBX_ENCINvNtNtB1A_8adapters3map12map_try_foldBX_BX_B2y_INtNtB1C_6result6ResultB2y_zENCINvNtNtB11_3gen4fold8fold_vecBX_NtNvCsfQFyxU9Vz2T_11yoke_derive16replace_lifetime15ReplaceLifetimeNvYB51_NtB4y_4Fold9fold_stmtE0NCINvNtB8_16in_place_collect24write_in_place_with_dropBX_E0E0B40_EB55_, symObjAddr: 0xBA8, symBinAddr: 0x17F8, symSize: 0x1F0 }
  - { offset: 0x10B50, size: 0x8, addend: 0x0, symName: __RINvXs3_NtNtCsiTraAjBDcu4_5alloc3vec9into_iterINtB6_8IntoIterTNtNtCsc29TF2YcYso_3syn2ty4TypeNtNtB12_5token5CommaEENtNtNtNtCsaNl6UpbT7bw_4core4iter6traits8iterator8Iterator8try_foldINtNtB8_13in_place_drop11InPlaceDropBX_ENCINvNtNtB1U_8adapters3map12map_try_foldBX_BX_B2S_INtNtB1W_6result6ResultB2S_zENCINvNtB12_10punctuated4foldBY_B1s_NtNvCsfQFyxU9Vz2T_11yoke_derive16replace_lifetime15ReplaceLifetimeNvYB5m_NtNtNtB12_3gen4fold4Fold9fold_typeE0NCINvNtB8_16in_place_collect24write_in_place_with_dropBX_E0E0B4k_EB5q_, symObjAddr: 0xD98, symBinAddr: 0x19E8, symSize: 0x1F0 }
  - { offset: 0x10D32, size: 0x8, addend: 0x0, symName: __RINvXs3_NtNtCsiTraAjBDcu4_5alloc3vec9into_iterINtB6_8IntoIterTNtNtCsc29TF2YcYso_3syn2ty9BareFnArgNtNtB12_5token5CommaEENtNtNtNtCsaNl6UpbT7bw_4core4iter6traits8iterator8Iterator8try_foldINtNtB8_13in_place_drop11InPlaceDropBX_ENCINvNtNtB1Z_8adapters3map12map_try_foldBX_BX_B2X_INtNtB21_6result6ResultB2X_zENCINvNtB12_10punctuated4foldBY_B1x_NtNvCsfQFyxU9Vz2T_11yoke_derive16replace_lifetime15ReplaceLifetimeNvYB5r_NtNtNtB12_3gen4fold4Fold16fold_bare_fn_argE0NCINvNtB8_16in_place_collect24write_in_place_with_dropBX_E0E0B4p_EB5v_, symObjAddr: 0xF88, symBinAddr: 0x1BD8, symSize: 0x1F0 }
  - { offset: 0x10F14, size: 0x8, addend: 0x0, symName: __RINvXs3_NtNtCsiTraAjBDcu4_5alloc3vec9into_iterINtB6_8IntoIterTNtNtCsc29TF2YcYso_3syn3pat3PatNtNtB12_5token2OrEENtNtNtNtCsaNl6UpbT7bw_4core4iter6traits8iterator8Iterator8try_foldINtNtB8_13in_place_drop11InPlaceDropBX_ENCINvNtNtB1R_8adapters3map12map_try_foldBX_BX_B2P_INtNtB1T_6result6ResultB2P_zENCINvNtB12_10punctuated4foldBY_B1s_NtNvCsfQFyxU9Vz2T_11yoke_derive16replace_lifetime15ReplaceLifetimeNvYB5j_NtNtNtB12_3gen4fold4Fold8fold_patE0NCINvNtB8_16in_place_collect24write_in_place_with_dropBX_E0E0B4h_EB5n_, symObjAddr: 0x1178, symBinAddr: 0x1DC8, symSize: 0x1F0 }
  - { offset: 0x110F6, size: 0x8, addend: 0x0, symName: __RINvXs3_NtNtCsiTraAjBDcu4_5alloc3vec9into_iterINtB6_8IntoIterTNtNtCsc29TF2YcYso_3syn3pat3PatNtNtB12_5token5CommaEENtNtNtNtCsaNl6UpbT7bw_4core4iter6traits8iterator8Iterator8try_foldINtNtB8_13in_place_drop11InPlaceDropBX_ENCINvNtNtB1U_8adapters3map12map_try_foldBX_BX_B2S_INtNtB1W_6result6ResultB2S_zENCINvNtB12_10punctuated4foldBY_B1s_NtNvCsfQFyxU9Vz2T_11yoke_derive16replace_lifetime15ReplaceLifetimeNvYB5m_NtNtNtB12_3gen4fold4Fold8fold_patE0NCINvNtB8_16in_place_collect24write_in_place_with_dropBX_E0E0B4k_EB5q_, symObjAddr: 0x1368, symBinAddr: 0x1FB8, symSize: 0x1F0 }
  - { offset: 0x112D8, size: 0x8, addend: 0x0, symName: __RINvXs3_NtNtCsiTraAjBDcu4_5alloc3vec9into_iterINtB6_8IntoIterTNtNtCsc29TF2YcYso_3syn3pat8FieldPatNtNtB12_5token5CommaEENtNtNtNtCsaNl6UpbT7bw_4core4iter6traits8iterator8Iterator8try_foldINtNtB8_13in_place_drop11InPlaceDropBX_ENCINvNtNtB1Z_8adapters3map12map_try_foldBX_BX_B2X_INtNtB21_6result6ResultB2X_zENCINvNtB12_10punctuated4foldBY_B1x_NtNvCsfQFyxU9Vz2T_11yoke_derive16replace_lifetime15ReplaceLifetimeNvYB5r_NtNtNtB12_3gen4fold4Fold14fold_field_patE0NCINvNtB8_16in_place_collect24write_in_place_with_dropBX_E0E0B4p_EB5v_, symObjAddr: 0x1558, symBinAddr: 0x21A8, symSize: 0x1F0 }
  - { offset: 0x114BA, size: 0x8, addend: 0x0, symName: __RINvXs3_NtNtCsiTraAjBDcu4_5alloc3vec9into_iterINtB6_8IntoIterTNtNtCsc29TF2YcYso_3syn4data5FieldNtNtB12_5token5CommaEENtNtNtNtCsaNl6UpbT7bw_4core4iter6traits8iterator8Iterator8try_foldINtNtB8_13in_place_drop11InPlaceDropBX_ENCINvNtNtB1X_8adapters3map12map_try_foldBX_BX_B2V_INtNtB1Z_6result6ResultB2V_zENCINvNtB12_10punctuated4foldBY_B1v_NtNvCsfQFyxU9Vz2T_11yoke_derive16replace_lifetime15ReplaceLifetimeNvYB5p_NtNtNtB12_3gen4fold4Fold10fold_fieldE0NCINvNtB8_16in_place_collect24write_in_place_with_dropBX_E0E0B4n_EB5t_, symObjAddr: 0x1748, symBinAddr: 0x2398, symSize: 0x1F0 }
  - { offset: 0x1169C, size: 0x8, addend: 0x0, symName: __RINvXs3_NtNtCsiTraAjBDcu4_5alloc3vec9into_iterINtB6_8IntoIterTNtNtCsc29TF2YcYso_3syn4data7VariantNtNtB12_5token5CommaEENtNtNtNtCsaNl6UpbT7bw_4core4iter6traits8iterator8Iterator8try_foldINtNtB8_13in_place_drop11InPlaceDropBX_ENCINvNtNtB1Z_8adapters3map12map_try_foldBX_BX_B2X_INtNtB21_6result6ResultB2X_zENCINvNtB12_10punctuated4foldBY_B1x_NtNvCsfQFyxU9Vz2T_11yoke_derive16replace_lifetime15ReplaceLifetimeNvYB5r_NtNtNtB12_3gen4fold4Fold12fold_variantE0NCINvNtB8_16in_place_collect24write_in_place_with_dropBX_E0E0B4p_EB5v_, symObjAddr: 0x1938, symBinAddr: 0x2588, symSize: 0x1F0 }
  - { offset: 0x1187E, size: 0x8, addend: 0x0, symName: __RINvXs3_NtNtCsiTraAjBDcu4_5alloc3vec9into_iterINtB6_8IntoIterTNtNtCsc29TF2YcYso_3syn4expr10FieldValueNtNtB12_5token5CommaEENtNtNtNtCsaNl6UpbT7bw_4core4iter6traits8iterator8Iterator8try_foldINtNtB8_13in_place_drop11InPlaceDropBX_ENCINvNtNtB23_8adapters3map12map_try_foldBX_BX_B31_INtNtB25_6result6ResultB31_zENCINvNtB12_10punctuated4foldBY_B1B_NtNvCsfQFyxU9Vz2T_11yoke_derive16replace_lifetime15ReplaceLifetimeNvYB5v_NtNtNtB12_3gen4fold4Fold16fold_field_valueE0NCINvNtB8_16in_place_collect24write_in_place_with_dropBX_E0E0B4t_EB5z_, symObjAddr: 0x1B28, symBinAddr: 0x2778, symSize: 0x1F0 }
  - { offset: 0x11A60, size: 0x8, addend: 0x0, symName: __RINvXs3_NtNtCsiTraAjBDcu4_5alloc3vec9into_iterINtB6_8IntoIterTNtNtCsc29TF2YcYso_3syn4expr4ExprNtNtB12_5token5CommaEENtNtNtNtCsaNl6UpbT7bw_4core4iter6traits8iterator8Iterator8try_foldINtNtB8_13in_place_drop11InPlaceDropBX_ENCINvNtNtB1W_8adapters3map12map_try_foldBX_BX_B2U_INtNtB1Y_6result6ResultB2U_zENCINvNtB12_10punctuated4foldBY_B1u_NtNvCsfQFyxU9Vz2T_11yoke_derive16replace_lifetime15ReplaceLifetimeNvYB5o_NtNtNtB12_3gen4fold4Fold9fold_exprE0NCINvNtB8_16in_place_collect24write_in_place_with_dropBX_E0E0B4m_EB5s_, symObjAddr: 0x1D18, symBinAddr: 0x2968, symSize: 0x1F0 }
  - { offset: 0x11C42, size: 0x8, addend: 0x0, symName: __RINvXs3_NtNtCsiTraAjBDcu4_5alloc3vec9into_iterINtB6_8IntoIterTNtNtCsc29TF2YcYso_3syn4item5FnArgNtNtB12_5token5CommaEENtNtNtNtCsaNl6UpbT7bw_4core4iter6traits8iterator8Iterator8try_foldINtNtB8_13in_place_drop11InPlaceDropBX_ENCINvNtNtB1X_8adapters3map12map_try_foldBX_BX_B2V_INtNtB1Z_6result6ResultB2V_zENCINvNtB12_10punctuated4foldBY_B1v_NtNvCsfQFyxU9Vz2T_11yoke_derive16replace_lifetime15ReplaceLifetimeNvYB5p_NtNtNtB12_3gen4fold4Fold11fold_fn_argE0NCINvNtB8_16in_place_collect24write_in_place_with_dropBX_E0E0B4n_EB5t_, symObjAddr: 0x1F08, symBinAddr: 0x2B58, symSize: 0x1F0 }
  - { offset: 0x11E24, size: 0x8, addend: 0x0, symName: __RINvXs3_NtNtCsiTraAjBDcu4_5alloc3vec9into_iterINtB6_8IntoIterTNtNtCsc29TF2YcYso_3syn4item7UseTreeNtNtB12_5token5CommaEENtNtNtNtCsaNl6UpbT7bw_4core4iter6traits8iterator8Iterator8try_foldINtNtB8_13in_place_drop11InPlaceDropBX_ENCINvNtNtB1Z_8adapters3map12map_try_foldBX_BX_B2X_INtNtB21_6result6ResultB2X_zENCINvNtB12_10punctuated4foldBY_B1x_NtNvCsfQFyxU9Vz2T_11yoke_derive16replace_lifetime15ReplaceLifetimeNvYB5r_NtNtNtB12_3gen4fold4Fold13fold_use_treeE0NCINvNtB8_16in_place_collect24write_in_place_with_dropBX_E0E0B4p_EB5v_, symObjAddr: 0x20F8, symBinAddr: 0x2D48, symSize: 0x1F0 }
  - { offset: 0x12006, size: 0x8, addend: 0x0, symName: __RINvXs3_NtNtCsiTraAjBDcu4_5alloc3vec9into_iterINtB6_8IntoIterTNtNtCsc29TF2YcYso_3syn4path11PathSegmentNtNtB12_5token7PathSepEENtNtNtNtCsaNl6UpbT7bw_4core4iter6traits8iterator8Iterator8try_foldINtNtB8_13in_place_drop11InPlaceDropBX_ENCINvNtNtB26_8adapters3map12map_try_foldBX_BX_B34_INtNtB28_6result6ResultB34_zENCINvNtB12_10punctuated4foldBY_B1C_NtNvCsfQFyxU9Vz2T_11yoke_derive16replace_lifetime15ReplaceLifetimeNvYB5y_NtNtNtB12_3gen4fold4Fold17fold_path_segmentE0NCINvNtB8_16in_place_collect24write_in_place_with_dropBX_E0E0B4w_EB5C_, symObjAddr: 0x22E8, symBinAddr: 0x2F38, symSize: 0x1F0 }
  - { offset: 0x121E8, size: 0x8, addend: 0x0, symName: __RINvXs3_NtNtCsiTraAjBDcu4_5alloc3vec9into_iterINtB6_8IntoIterTNtNtCsc29TF2YcYso_3syn4path15GenericArgumentNtNtB12_5token5CommaEENtNtNtNtCsaNl6UpbT7bw_4core4iter6traits8iterator8Iterator8try_foldINtNtB8_13in_place_drop11InPlaceDropBX_ENCINvNtNtB28_8adapters3map12map_try_foldBX_BX_B36_INtNtB2a_6result6ResultB36_zENCINvNtB12_10punctuated4foldBY_B1G_NtNvCsfQFyxU9Vz2T_11yoke_derive16replace_lifetime15ReplaceLifetimeNvYB5A_NtNtNtB12_3gen4fold4Fold21fold_generic_argumentE0NCINvNtB8_16in_place_collect24write_in_place_with_dropBX_E0E0B4y_EB5E_, symObjAddr: 0x24D8, symBinAddr: 0x3128, symSize: 0x1F0 }
  - { offset: 0x123CA, size: 0x8, addend: 0x0, symName: __RINvXs3_NtNtCsiTraAjBDcu4_5alloc3vec9into_iterINtB6_8IntoIterTNtNtCsc29TF2YcYso_3syn8generics12GenericParamNtNtB12_5token5CommaEENtNtNtNtCsaNl6UpbT7bw_4core4iter6traits8iterator8Iterator8try_foldINtNtB8_13in_place_drop11InPlaceDropBX_ENCINvNtNtB29_8adapters3map12map_try_foldBX_BX_B37_INtNtB2b_6result6ResultB37_zENCINvNtB12_10punctuated4foldBY_B1H_NtNvCsfQFyxU9Vz2T_11yoke_derive16replace_lifetime15ReplaceLifetimeNvYB5B_NtNtNtB12_3gen4fold4Fold18fold_generic_paramE0NCINvNtB8_16in_place_collect24write_in_place_with_dropBX_E0E0B4z_EB5F_, symObjAddr: 0x26C8, symBinAddr: 0x3318, symSize: 0x1F4 }
  - { offset: 0x125AC, size: 0x8, addend: 0x0, symName: __RINvXs3_NtNtCsiTraAjBDcu4_5alloc3vec9into_iterINtB6_8IntoIterTNtNtCsc29TF2YcYso_3syn8generics13CapturedParamNtNtB12_5token5CommaEENtNtNtNtCsaNl6UpbT7bw_4core4iter6traits8iterator8Iterator8try_foldINtNtB8_13in_place_drop11InPlaceDropBX_ENCINvNtNtB2a_8adapters3map12map_try_foldBX_BX_B38_INtNtB2c_6result6ResultB38_zENCINvNtB12_10punctuated4foldBY_B1I_NtNvCsfQFyxU9Vz2T_11yoke_derive16replace_lifetime15ReplaceLifetimeNvYB5C_NtNtNtB12_3gen4fold4Fold19fold_captured_paramE0NCINvNtB8_16in_place_collect24write_in_place_with_dropBX_E0E0B4A_EB5G_, symObjAddr: 0x28BC, symBinAddr: 0x350C, symSize: 0x1F0 }
  - { offset: 0x1278E, size: 0x8, addend: 0x0, symName: __RINvXs3_NtNtCsiTraAjBDcu4_5alloc3vec9into_iterINtB6_8IntoIterTNtNtCsc29TF2YcYso_3syn8generics14TypeParamBoundNtNtB12_5token4PlusEENtNtNtNtCsaNl6UpbT7bw_4core4iter6traits8iterator8Iterator8try_foldINtNtB8_13in_place_drop11InPlaceDropBX_ENCINvNtNtB2a_8adapters3map12map_try_foldBX_BX_B38_INtNtB2c_6result6ResultB38_zENCINvNtB12_10punctuated4foldBY_B1J_NtNvCsfQFyxU9Vz2T_11yoke_derive16replace_lifetime15ReplaceLifetimeNvYB5C_NtNtNtB12_3gen4fold4Fold21fold_type_param_boundE0NCINvNtB8_16in_place_collect24write_in_place_with_dropBX_E0E0B4A_EB5G_, symObjAddr: 0x2AAC, symBinAddr: 0x36FC, symSize: 0x1F0 }
  - { offset: 0x12970, size: 0x8, addend: 0x0, symName: __RINvXs3_NtNtCsiTraAjBDcu4_5alloc3vec9into_iterINtB6_8IntoIterTNtNtCsc29TF2YcYso_3syn8generics14WherePredicateNtNtB12_5token5CommaEENtNtNtNtCsaNl6UpbT7bw_4core4iter6traits8iterator8Iterator8try_foldINtNtB8_13in_place_drop11InPlaceDropBX_ENCINvNtNtB2b_8adapters3map12map_try_foldBX_BX_B39_INtNtB2d_6result6ResultB39_zENCINvNtB12_10punctuated4foldBY_B1J_NtNvCsfQFyxU9Vz2T_11yoke_derive16replace_lifetime15ReplaceLifetimeNvYB5D_NtNtNtB12_3gen4fold4Fold20fold_where_predicateE0NCINvNtB8_16in_place_collect24write_in_place_with_dropBX_E0E0B4B_EB5H_, symObjAddr: 0x2C9C, symBinAddr: 0x38EC, symSize: 0x1F0 }
  - { offset: 0x12B52, size: 0x8, addend: 0x0, symName: __RINvXs3_NtNtCsiTraAjBDcu4_5alloc3vec9into_iterINtB6_8IntoIterTNtNtCsc29TF2YcYso_3syn8lifetime8LifetimeNtNtB12_5token4PlusEENtNtNtNtCsaNl6UpbT7bw_4core4iter6traits8iterator8Iterator8try_foldINtNtB8_13in_place_drop11InPlaceDropBX_ENCINvNtNtB23_8adapters3map12map_try_foldBX_BX_B31_INtNtB25_6result6ResultB31_zENCINvNtB12_10punctuated4foldBY_B1C_NtNvCsfQFyxU9Vz2T_11yoke_derive16replace_lifetime15ReplaceLifetimeNvYB5v_NtNtNtB12_3gen4fold4Fold13fold_lifetimeE0NCINvNtB8_16in_place_collect24write_in_place_with_dropBX_E0E0B4t_EB5z_, symObjAddr: 0x2E8C, symBinAddr: 0x3ADC, symSize: 0x1F0 }
  - { offset: 0x12D34, size: 0x8, addend: 0x0, symName: __RNvXs3_NtNtCsiTraAjBDcu4_5alloc3vec9into_iterINtB5_8IntoIterNtNtCsc29TF2YcYso_3syn4expr3ArmENtNtNtNtCsaNl6UpbT7bw_4core4iter6traits8iterator8Iterator9size_hintCsfQFyxU9Vz2T_11yoke_derive, symObjAddr: 0x5088, symBinAddr: 0x5CD8, symSize: 0x6C }
  - { offset: 0x12D8F, size: 0x8, addend: 0x0, symName: __RNvXs3_NtNtCsiTraAjBDcu4_5alloc3vec9into_iterINtB5_8IntoIterNtNtCsc29TF2YcYso_3syn4item11ForeignItemENtNtNtNtCsaNl6UpbT7bw_4core4iter6traits8iterator8Iterator9size_hintCsfQFyxU9Vz2T_11yoke_derive, symObjAddr: 0x50F4, symBinAddr: 0x5D44, symSize: 0x6C }
  - { offset: 0x12DEA, size: 0x8, addend: 0x0, symName: __RNvXs3_NtNtCsiTraAjBDcu4_5alloc3vec9into_iterINtB5_8IntoIterNtNtCsc29TF2YcYso_3syn4item4ItemENtNtNtNtCsaNl6UpbT7bw_4core4iter6traits8iterator8Iterator9size_hintCsfQFyxU9Vz2T_11yoke_derive, symObjAddr: 0x5160, symBinAddr: 0x5DB0, symSize: 0x6C }
  - { offset: 0x12E45, size: 0x8, addend: 0x0, symName: __RNvXs3_NtNtCsiTraAjBDcu4_5alloc3vec9into_iterINtB5_8IntoIterNtNtCsc29TF2YcYso_3syn4item8ImplItemENtNtNtNtCsaNl6UpbT7bw_4core4iter6traits8iterator8Iterator9size_hintCsfQFyxU9Vz2T_11yoke_derive, symObjAddr: 0x51CC, symBinAddr: 0x5E1C, symSize: 0x6C }
  - { offset: 0x12EA0, size: 0x8, addend: 0x0, symName: __RNvXs3_NtNtCsiTraAjBDcu4_5alloc3vec9into_iterINtB5_8IntoIterNtNtCsc29TF2YcYso_3syn4item9TraitItemENtNtNtNtCsaNl6UpbT7bw_4core4iter6traits8iterator8Iterator9size_hintCsfQFyxU9Vz2T_11yoke_derive, symObjAddr: 0x5238, symBinAddr: 0x5E88, symSize: 0x6C }
  - { offset: 0x12EFB, size: 0x8, addend: 0x0, symName: __RNvXs3_NtNtCsiTraAjBDcu4_5alloc3vec9into_iterINtB5_8IntoIterNtNtCsc29TF2YcYso_3syn4stmt4StmtENtNtNtNtCsaNl6UpbT7bw_4core4iter6traits8iterator8Iterator9size_hintCsfQFyxU9Vz2T_11yoke_derive, symObjAddr: 0x52A4, symBinAddr: 0x5EF4, symSize: 0x6C }
  - { offset: 0x12F56, size: 0x8, addend: 0x0, symName: __RNvXs3_NtNtCsiTraAjBDcu4_5alloc3vec9into_iterINtB5_8IntoIterTNtNtCsc29TF2YcYso_3syn2ty4TypeNtNtB11_5token5CommaEENtNtNtNtCsaNl6UpbT7bw_4core4iter6traits8iterator8Iterator9size_hintCsfQFyxU9Vz2T_11yoke_derive, symObjAddr: 0x5310, symBinAddr: 0x5F60, symSize: 0x6C }
  - { offset: 0x12FB1, size: 0x8, addend: 0x0, symName: __RNvXs3_NtNtCsiTraAjBDcu4_5alloc3vec9into_iterINtB5_8IntoIterTNtNtCsc29TF2YcYso_3syn2ty9BareFnArgNtNtB11_5token5CommaEENtNtNtNtCsaNl6UpbT7bw_4core4iter6traits8iterator8Iterator9size_hintCsfQFyxU9Vz2T_11yoke_derive, symObjAddr: 0x537C, symBinAddr: 0x5FCC, symSize: 0x6C }
  - { offset: 0x1300C, size: 0x8, addend: 0x0, symName: __RNvXs3_NtNtCsiTraAjBDcu4_5alloc3vec9into_iterINtB5_8IntoIterTNtNtCsc29TF2YcYso_3syn3pat3PatNtNtB11_5token2OrEENtNtNtNtCsaNl6UpbT7bw_4core4iter6traits8iterator8Iterator9size_hintCsfQFyxU9Vz2T_11yoke_derive, symObjAddr: 0x53E8, symBinAddr: 0x6038, symSize: 0x6C }
  - { offset: 0x13067, size: 0x8, addend: 0x0, symName: __RNvXs3_NtNtCsiTraAjBDcu4_5alloc3vec9into_iterINtB5_8IntoIterTNtNtCsc29TF2YcYso_3syn3pat3PatNtNtB11_5token5CommaEENtNtNtNtCsaNl6UpbT7bw_4core4iter6traits8iterator8Iterator9size_hintCsfQFyxU9Vz2T_11yoke_derive, symObjAddr: 0x5454, symBinAddr: 0x60A4, symSize: 0x6C }
  - { offset: 0x130C2, size: 0x8, addend: 0x0, symName: __RNvXs3_NtNtCsiTraAjBDcu4_5alloc3vec9into_iterINtB5_8IntoIterTNtNtCsc29TF2YcYso_3syn3pat8FieldPatNtNtB11_5token5CommaEENtNtNtNtCsaNl6UpbT7bw_4core4iter6traits8iterator8Iterator9size_hintCsfQFyxU9Vz2T_11yoke_derive, symObjAddr: 0x54C0, symBinAddr: 0x6110, symSize: 0x6C }
  - { offset: 0x1311D, size: 0x8, addend: 0x0, symName: __RNvXs3_NtNtCsiTraAjBDcu4_5alloc3vec9into_iterINtB5_8IntoIterTNtNtCsc29TF2YcYso_3syn4data7VariantNtNtB11_5token5CommaEENtNtNtNtCsaNl6UpbT7bw_4core4iter6traits8iterator8Iterator9size_hintCsfQFyxU9Vz2T_11yoke_derive, symObjAddr: 0x552C, symBinAddr: 0x617C, symSize: 0x6C }
  - { offset: 0x13178, size: 0x8, addend: 0x0, symName: __RNvXs3_NtNtCsiTraAjBDcu4_5alloc3vec9into_iterINtB5_8IntoIterTNtNtCsc29TF2YcYso_3syn4expr10FieldValueNtNtB11_5token5CommaEENtNtNtNtCsaNl6UpbT7bw_4core4iter6traits8iterator8Iterator9size_hintCsfQFyxU9Vz2T_11yoke_derive, symObjAddr: 0x5598, symBinAddr: 0x61E8, symSize: 0x6C }
  - { offset: 0x131D3, size: 0x8, addend: 0x0, symName: __RNvXs3_NtNtCsiTraAjBDcu4_5alloc3vec9into_iterINtB5_8IntoIterTNtNtCsc29TF2YcYso_3syn4expr4ExprNtNtB11_5token5CommaEENtNtNtNtCsaNl6UpbT7bw_4core4iter6traits8iterator8Iterator9size_hintCsfQFyxU9Vz2T_11yoke_derive, symObjAddr: 0x5604, symBinAddr: 0x6254, symSize: 0x6C }
  - { offset: 0x1322E, size: 0x8, addend: 0x0, symName: __RNvXs3_NtNtCsiTraAjBDcu4_5alloc3vec9into_iterINtB5_8IntoIterTNtNtCsc29TF2YcYso_3syn4item5FnArgNtNtB11_5token5CommaEENtNtNtNtCsaNl6UpbT7bw_4core4iter6traits8iterator8Iterator9size_hintCsfQFyxU9Vz2T_11yoke_derive, symObjAddr: 0x5670, symBinAddr: 0x62C0, symSize: 0x6C }
  - { offset: 0x13289, size: 0x8, addend: 0x0, symName: __RNvXs3_NtNtCsiTraAjBDcu4_5alloc3vec9into_iterINtB5_8IntoIterTNtNtCsc29TF2YcYso_3syn4item7UseTreeNtNtB11_5token5CommaEENtNtNtNtCsaNl6UpbT7bw_4core4iter6traits8iterator8Iterator9size_hintCsfQFyxU9Vz2T_11yoke_derive, symObjAddr: 0x56DC, symBinAddr: 0x632C, symSize: 0x6C }
  - { offset: 0x132E4, size: 0x8, addend: 0x0, symName: __RNvXs3_NtNtCsiTraAjBDcu4_5alloc3vec9into_iterINtB5_8IntoIterTNtNtCsc29TF2YcYso_3syn4path15GenericArgumentNtNtB11_5token5CommaEENtNtNtNtCsaNl6UpbT7bw_4core4iter6traits8iterator8Iterator9size_hintCsfQFyxU9Vz2T_11yoke_derive, symObjAddr: 0x5748, symBinAddr: 0x6398, symSize: 0x6C }
  - { offset: 0x1333F, size: 0x8, addend: 0x0, symName: __RNvXs3_NtNtCsiTraAjBDcu4_5alloc3vec9into_iterINtB5_8IntoIterTNtNtCsc29TF2YcYso_3syn8generics12GenericParamNtNtB11_5token5CommaEENtNtNtNtCsaNl6UpbT7bw_4core4iter6traits8iterator8Iterator9size_hintCsfQFyxU9Vz2T_11yoke_derive, symObjAddr: 0x57B4, symBinAddr: 0x6404, symSize: 0x6C }
  - { offset: 0x1339A, size: 0x8, addend: 0x0, symName: __RNvXs3_NtNtCsiTraAjBDcu4_5alloc3vec9into_iterINtB5_8IntoIterTNtNtCsc29TF2YcYso_3syn8generics13CapturedParamNtNtB11_5token5CommaEENtNtNtNtCsaNl6UpbT7bw_4core4iter6traits8iterator8Iterator9size_hintCsfQFyxU9Vz2T_11yoke_derive, symObjAddr: 0x5820, symBinAddr: 0x6470, symSize: 0x6C }
  - { offset: 0x133F5, size: 0x8, addend: 0x0, symName: __RNvXs3_NtNtCsiTraAjBDcu4_5alloc3vec9into_iterINtB5_8IntoIterTNtNtCsc29TF2YcYso_3syn8generics14WherePredicateNtNtB11_5token5CommaEENtNtNtNtCsaNl6UpbT7bw_4core4iter6traits8iterator8Iterator9size_hintCsfQFyxU9Vz2T_11yoke_derive, symObjAddr: 0x588C, symBinAddr: 0x64DC, symSize: 0x6C }
  - { offset: 0x13450, size: 0x8, addend: 0x0, symName: __RNvXs3_NtNtCsiTraAjBDcu4_5alloc3vec9into_iterINtB5_8IntoIterTNtNtCsc29TF2YcYso_3syn8lifetime8LifetimeNtNtB11_5token4PlusEENtNtNtNtCsaNl6UpbT7bw_4core4iter6traits8iterator8Iterator9size_hintCsfQFyxU9Vz2T_11yoke_derive, symObjAddr: 0x58F8, symBinAddr: 0x6548, symSize: 0x6C }
  - { offset: 0x145A0, size: 0x8, addend: 0x0, symName: __RNvXNvXsd_NtNtCsiTraAjBDcu4_5alloc3vec9into_iterINtB8_8IntoIterppENtNtNtCsaNl6UpbT7bw_4core3ops4drop4Drop4dropINtB2_9DropGuardNtNtCsc29TF2YcYso_3syn4expr3ArmNtNtBc_5alloc6GlobalEB12_4dropCsfQFyxU9Vz2T_11yoke_derive, symObjAddr: 0x465C, symBinAddr: 0x52AC, symSize: 0x7C }
  - { offset: 0x146AD, size: 0x8, addend: 0x0, symName: __RNvXNvXsd_NtNtCsiTraAjBDcu4_5alloc3vec9into_iterINtB8_8IntoIterppENtNtNtCsaNl6UpbT7bw_4core3ops4drop4Drop4dropINtB2_9DropGuardNtNtCsc29TF2YcYso_3syn4item11ForeignItemNtNtBc_5alloc6GlobalEB12_4dropCsfQFyxU9Vz2T_11yoke_derive, symObjAddr: 0x46D8, symBinAddr: 0x5328, symSize: 0x7C }
  - { offset: 0x147BA, size: 0x8, addend: 0x0, symName: __RNvXNvXsd_NtNtCsiTraAjBDcu4_5alloc3vec9into_iterINtB8_8IntoIterppENtNtNtCsaNl6UpbT7bw_4core3ops4drop4Drop4dropINtB2_9DropGuardNtNtCsc29TF2YcYso_3syn4item4ItemNtNtBc_5alloc6GlobalEB12_4dropCsfQFyxU9Vz2T_11yoke_derive, symObjAddr: 0x4754, symBinAddr: 0x53A4, symSize: 0x7C }
  - { offset: 0x148C7, size: 0x8, addend: 0x0, symName: __RNvXNvXsd_NtNtCsiTraAjBDcu4_5alloc3vec9into_iterINtB8_8IntoIterppENtNtNtCsaNl6UpbT7bw_4core3ops4drop4Drop4dropINtB2_9DropGuardNtNtCsc29TF2YcYso_3syn4item8ImplItemNtNtBc_5alloc6GlobalEB12_4dropCsfQFyxU9Vz2T_11yoke_derive, symObjAddr: 0x47D0, symBinAddr: 0x5420, symSize: 0x7C }
  - { offset: 0x149D4, size: 0x8, addend: 0x0, symName: __RNvXNvXsd_NtNtCsiTraAjBDcu4_5alloc3vec9into_iterINtB8_8IntoIterppENtNtNtCsaNl6UpbT7bw_4core3ops4drop4Drop4dropINtB2_9DropGuardNtNtCsc29TF2YcYso_3syn4item9TraitItemNtNtBc_5alloc6GlobalEB12_4dropCsfQFyxU9Vz2T_11yoke_derive, symObjAddr: 0x484C, symBinAddr: 0x549C, symSize: 0x7C }
  - { offset: 0x14AE1, size: 0x8, addend: 0x0, symName: __RNvXNvXsd_NtNtCsiTraAjBDcu4_5alloc3vec9into_iterINtB8_8IntoIterppENtNtNtCsaNl6UpbT7bw_4core3ops4drop4Drop4dropINtB2_9DropGuardNtNtCsc29TF2YcYso_3syn4stmt4StmtNtNtBc_5alloc6GlobalEB12_4dropCsfQFyxU9Vz2T_11yoke_derive, symObjAddr: 0x48C8, symBinAddr: 0x5518, symSize: 0x7C }
  - { offset: 0x14BEE, size: 0x8, addend: 0x0, symName: __RNvXNvXsd_NtNtCsiTraAjBDcu4_5alloc3vec9into_iterINtB8_8IntoIterppENtNtNtCsaNl6UpbT7bw_4core3ops4drop4Drop4dropINtB2_9DropGuardTNtNtCsc29TF2YcYso_3syn2ty4TypeNtNtB25_5token5CommaENtNtBc_5alloc6GlobalEB12_4dropCsfQFyxU9Vz2T_11yoke_derive, symObjAddr: 0x4944, symBinAddr: 0x5594, symSize: 0x7C }
  - { offset: 0x14CFB, size: 0x8, addend: 0x0, symName: __RNvXNvXsd_NtNtCsiTraAjBDcu4_5alloc3vec9into_iterINtB8_8IntoIterppENtNtNtCsaNl6UpbT7bw_4core3ops4drop4Drop4dropINtB2_9DropGuardTNtNtCsc29TF2YcYso_3syn2ty9BareFnArgNtNtB25_5token5CommaENtNtBc_5alloc6GlobalEB12_4dropCsfQFyxU9Vz2T_11yoke_derive, symObjAddr: 0x49C0, symBinAddr: 0x5610, symSize: 0x7C }
  - { offset: 0x14E08, size: 0x8, addend: 0x0, symName: __RNvXNvXsd_NtNtCsiTraAjBDcu4_5alloc3vec9into_iterINtB8_8IntoIterppENtNtNtCsaNl6UpbT7bw_4core3ops4drop4Drop4dropINtB2_9DropGuardTNtNtCsc29TF2YcYso_3syn3pat3PatNtNtB25_5token2OrENtNtBc_5alloc6GlobalEB12_4dropCsfQFyxU9Vz2T_11yoke_derive, symObjAddr: 0x4A3C, symBinAddr: 0x568C, symSize: 0x7C }
  - { offset: 0x14F15, size: 0x8, addend: 0x0, symName: __RNvXNvXsd_NtNtCsiTraAjBDcu4_5alloc3vec9into_iterINtB8_8IntoIterppENtNtNtCsaNl6UpbT7bw_4core3ops4drop4Drop4dropINtB2_9DropGuardTNtNtCsc29TF2YcYso_3syn3pat3PatNtNtB25_5token5CommaENtNtBc_5alloc6GlobalEB12_4dropCsfQFyxU9Vz2T_11yoke_derive, symObjAddr: 0x4AB8, symBinAddr: 0x5708, symSize: 0x7C }
  - { offset: 0x15022, size: 0x8, addend: 0x0, symName: __RNvXNvXsd_NtNtCsiTraAjBDcu4_5alloc3vec9into_iterINtB8_8IntoIterppENtNtNtCsaNl6UpbT7bw_4core3ops4drop4Drop4dropINtB2_9DropGuardTNtNtCsc29TF2YcYso_3syn3pat8FieldPatNtNtB25_5token5CommaENtNtBc_5alloc6GlobalEB12_4dropCsfQFyxU9Vz2T_11yoke_derive, symObjAddr: 0x4B34, symBinAddr: 0x5784, symSize: 0x7C }
  - { offset: 0x1512F, size: 0x8, addend: 0x0, symName: __RNvXNvXsd_NtNtCsiTraAjBDcu4_5alloc3vec9into_iterINtB8_8IntoIterppENtNtNtCsaNl6UpbT7bw_4core3ops4drop4Drop4dropINtB2_9DropGuardTNtNtCsc29TF2YcYso_3syn4data7VariantNtNtB25_5token5CommaENtNtBc_5alloc6GlobalEB12_4dropCsfQFyxU9Vz2T_11yoke_derive, symObjAddr: 0x4BB0, symBinAddr: 0x5800, symSize: 0x7C }
  - { offset: 0x1523C, size: 0x8, addend: 0x0, symName: __RNvXNvXsd_NtNtCsiTraAjBDcu4_5alloc3vec9into_iterINtB8_8IntoIterppENtNtNtCsaNl6UpbT7bw_4core3ops4drop4Drop4dropINtB2_9DropGuardTNtNtCsc29TF2YcYso_3syn4expr10FieldValueNtNtB25_5token5CommaENtNtBc_5alloc6GlobalEB12_4dropCsfQFyxU9Vz2T_11yoke_derive, symObjAddr: 0x4C2C, symBinAddr: 0x587C, symSize: 0x7C }
  - { offset: 0x15349, size: 0x8, addend: 0x0, symName: __RNvXNvXsd_NtNtCsiTraAjBDcu4_5alloc3vec9into_iterINtB8_8IntoIterppENtNtNtCsaNl6UpbT7bw_4core3ops4drop4Drop4dropINtB2_9DropGuardTNtNtCsc29TF2YcYso_3syn4expr4ExprNtNtB25_5token5CommaENtNtBc_5alloc6GlobalEB12_4dropCsfQFyxU9Vz2T_11yoke_derive, symObjAddr: 0x4CA8, symBinAddr: 0x58F8, symSize: 0x7C }
  - { offset: 0x15456, size: 0x8, addend: 0x0, symName: __RNvXNvXsd_NtNtCsiTraAjBDcu4_5alloc3vec9into_iterINtB8_8IntoIterppENtNtNtCsaNl6UpbT7bw_4core3ops4drop4Drop4dropINtB2_9DropGuardTNtNtCsc29TF2YcYso_3syn4item5FnArgNtNtB25_5token5CommaENtNtBc_5alloc6GlobalEB12_4dropCsfQFyxU9Vz2T_11yoke_derive, symObjAddr: 0x4D24, symBinAddr: 0x5974, symSize: 0x7C }
  - { offset: 0x15563, size: 0x8, addend: 0x0, symName: __RNvXNvXsd_NtNtCsiTraAjBDcu4_5alloc3vec9into_iterINtB8_8IntoIterppENtNtNtCsaNl6UpbT7bw_4core3ops4drop4Drop4dropINtB2_9DropGuardTNtNtCsc29TF2YcYso_3syn4item7UseTreeNtNtB25_5token5CommaENtNtBc_5alloc6GlobalEB12_4dropCsfQFyxU9Vz2T_11yoke_derive, symObjAddr: 0x4DA0, symBinAddr: 0x59F0, symSize: 0x7C }
  - { offset: 0x15670, size: 0x8, addend: 0x0, symName: __RNvXNvXsd_NtNtCsiTraAjBDcu4_5alloc3vec9into_iterINtB8_8IntoIterppENtNtNtCsaNl6UpbT7bw_4core3ops4drop4Drop4dropINtB2_9DropGuardTNtNtCsc29TF2YcYso_3syn4path15GenericArgumentNtNtB25_5token5CommaENtNtBc_5alloc6GlobalEB12_4dropCsfQFyxU9Vz2T_11yoke_derive, symObjAddr: 0x4E1C, symBinAddr: 0x5A6C, symSize: 0x7C }
  - { offset: 0x1577D, size: 0x8, addend: 0x0, symName: __RNvXNvXsd_NtNtCsiTraAjBDcu4_5alloc3vec9into_iterINtB8_8IntoIterppENtNtNtCsaNl6UpbT7bw_4core3ops4drop4Drop4dropINtB2_9DropGuardTNtNtCsc29TF2YcYso_3syn8generics12GenericParamNtNtB25_5token5CommaENtNtBc_5alloc6GlobalEB12_4dropCsfQFyxU9Vz2T_11yoke_derive, symObjAddr: 0x4E98, symBinAddr: 0x5AE8, symSize: 0x7C }
  - { offset: 0x1588A, size: 0x8, addend: 0x0, symName: __RNvXNvXsd_NtNtCsiTraAjBDcu4_5alloc3vec9into_iterINtB8_8IntoIterppENtNtNtCsaNl6UpbT7bw_4core3ops4drop4Drop4dropINtB2_9DropGuardTNtNtCsc29TF2YcYso_3syn8generics13CapturedParamNtNtB25_5token5CommaENtNtBc_5alloc6GlobalEB12_4dropCsfQFyxU9Vz2T_11yoke_derive, symObjAddr: 0x4F14, symBinAddr: 0x5B64, symSize: 0x7C }
  - { offset: 0x15997, size: 0x8, addend: 0x0, symName: __RNvXNvXsd_NtNtCsiTraAjBDcu4_5alloc3vec9into_iterINtB8_8IntoIterppENtNtNtCsaNl6UpbT7bw_4core3ops4drop4Drop4dropINtB2_9DropGuardTNtNtCsc29TF2YcYso_3syn8generics14WherePredicateNtNtB25_5token5CommaENtNtBc_5alloc6GlobalEB12_4dropCsfQFyxU9Vz2T_11yoke_derive, symObjAddr: 0x4F90, symBinAddr: 0x5BE0, symSize: 0x7C }
  - { offset: 0x15AA4, size: 0x8, addend: 0x0, symName: __RNvXNvXsd_NtNtCsiTraAjBDcu4_5alloc3vec9into_iterINtB8_8IntoIterppENtNtNtCsaNl6UpbT7bw_4core3ops4drop4Drop4dropINtB2_9DropGuardTNtNtCsc29TF2YcYso_3syn8lifetime8LifetimeNtNtB25_5token4PlusENtNtBc_5alloc6GlobalEB12_4dropCsfQFyxU9Vz2T_11yoke_derive, symObjAddr: 0x500C, symBinAddr: 0x5C5C, symSize: 0x7C }
  - { offset: 0x15EE6, size: 0x8, addend: 0x0, symName: __RNvXsd_NtNtCsiTraAjBDcu4_5alloc3vec9into_iterINtB5_8IntoIterNtNtCsc29TF2YcYso_3syn4expr3ArmENtNtNtCsaNl6UpbT7bw_4core3ops4drop4Drop4dropCsfQFyxU9Vz2T_11yoke_derive, symObjAddr: 0x5964, symBinAddr: 0x65B4, symSize: 0x98 }
  - { offset: 0x15F80, size: 0x8, addend: 0x0, symName: __RNvXsd_NtNtCsiTraAjBDcu4_5alloc3vec9into_iterINtB5_8IntoIterNtNtCsc29TF2YcYso_3syn4item11ForeignItemENtNtNtCsaNl6UpbT7bw_4core3ops4drop4Drop4dropCsfQFyxU9Vz2T_11yoke_derive, symObjAddr: 0x59FC, symBinAddr: 0x664C, symSize: 0x98 }
  - { offset: 0x1601A, size: 0x8, addend: 0x0, symName: __RNvXsd_NtNtCsiTraAjBDcu4_5alloc3vec9into_iterINtB5_8IntoIterNtNtCsc29TF2YcYso_3syn4item4ItemENtNtNtCsaNl6UpbT7bw_4core3ops4drop4Drop4dropCsfQFyxU9Vz2T_11yoke_derive, symObjAddr: 0x5A94, symBinAddr: 0x66E4, symSize: 0x98 }
  - { offset: 0x160B4, size: 0x8, addend: 0x0, symName: __RNvXsd_NtNtCsiTraAjBDcu4_5alloc3vec9into_iterINtB5_8IntoIterNtNtCsc29TF2YcYso_3syn4item8ImplItemENtNtNtCsaNl6UpbT7bw_4core3ops4drop4Drop4dropCsfQFyxU9Vz2T_11yoke_derive, symObjAddr: 0x5B2C, symBinAddr: 0x677C, symSize: 0x98 }
  - { offset: 0x1614E, size: 0x8, addend: 0x0, symName: __RNvXsd_NtNtCsiTraAjBDcu4_5alloc3vec9into_iterINtB5_8IntoIterNtNtCsc29TF2YcYso_3syn4item9TraitItemENtNtNtCsaNl6UpbT7bw_4core3ops4drop4Drop4dropCsfQFyxU9Vz2T_11yoke_derive, symObjAddr: 0x5BC4, symBinAddr: 0x6814, symSize: 0x98 }
  - { offset: 0x161E8, size: 0x8, addend: 0x0, symName: __RNvXsd_NtNtCsiTraAjBDcu4_5alloc3vec9into_iterINtB5_8IntoIterNtNtCsc29TF2YcYso_3syn4stmt4StmtENtNtNtCsaNl6UpbT7bw_4core3ops4drop4Drop4dropCsfQFyxU9Vz2T_11yoke_derive, symObjAddr: 0x5C5C, symBinAddr: 0x68AC, symSize: 0x98 }
  - { offset: 0x16282, size: 0x8, addend: 0x0, symName: __RNvXsd_NtNtCsiTraAjBDcu4_5alloc3vec9into_iterINtB5_8IntoIterTNtNtCsc29TF2YcYso_3syn2ty4TypeNtNtB11_5token5CommaEENtNtNtCsaNl6UpbT7bw_4core3ops4drop4Drop4dropCsfQFyxU9Vz2T_11yoke_derive, symObjAddr: 0x5CF4, symBinAddr: 0x6944, symSize: 0x98 }
  - { offset: 0x1631C, size: 0x8, addend: 0x0, symName: __RNvXsd_NtNtCsiTraAjBDcu4_5alloc3vec9into_iterINtB5_8IntoIterTNtNtCsc29TF2YcYso_3syn2ty9BareFnArgNtNtB11_5token5CommaEENtNtNtCsaNl6UpbT7bw_4core3ops4drop4Drop4dropCsfQFyxU9Vz2T_11yoke_derive, symObjAddr: 0x5D8C, symBinAddr: 0x69DC, symSize: 0x98 }
  - { offset: 0x163B6, size: 0x8, addend: 0x0, symName: __RNvXsd_NtNtCsiTraAjBDcu4_5alloc3vec9into_iterINtB5_8IntoIterTNtNtCsc29TF2YcYso_3syn3pat3PatNtNtB11_5token2OrEENtNtNtCsaNl6UpbT7bw_4core3ops4drop4Drop4dropCsfQFyxU9Vz2T_11yoke_derive, symObjAddr: 0x5E24, symBinAddr: 0x6A74, symSize: 0x98 }
  - { offset: 0x16450, size: 0x8, addend: 0x0, symName: __RNvXsd_NtNtCsiTraAjBDcu4_5alloc3vec9into_iterINtB5_8IntoIterTNtNtCsc29TF2YcYso_3syn3pat3PatNtNtB11_5token5CommaEENtNtNtCsaNl6UpbT7bw_4core3ops4drop4Drop4dropCsfQFyxU9Vz2T_11yoke_derive, symObjAddr: 0x5EBC, symBinAddr: 0x6B0C, symSize: 0x98 }
  - { offset: 0x164EA, size: 0x8, addend: 0x0, symName: __RNvXsd_NtNtCsiTraAjBDcu4_5alloc3vec9into_iterINtB5_8IntoIterTNtNtCsc29TF2YcYso_3syn3pat8FieldPatNtNtB11_5token5CommaEENtNtNtCsaNl6UpbT7bw_4core3ops4drop4Drop4dropCsfQFyxU9Vz2T_11yoke_derive, symObjAddr: 0x5F54, symBinAddr: 0x6BA4, symSize: 0x98 }
  - { offset: 0x16584, size: 0x8, addend: 0x0, symName: __RNvXsd_NtNtCsiTraAjBDcu4_5alloc3vec9into_iterINtB5_8IntoIterTNtNtCsc29TF2YcYso_3syn4data7VariantNtNtB11_5token5CommaEENtNtNtCsaNl6UpbT7bw_4core3ops4drop4Drop4dropCsfQFyxU9Vz2T_11yoke_derive, symObjAddr: 0x5FEC, symBinAddr: 0x6C3C, symSize: 0x98 }
  - { offset: 0x1661E, size: 0x8, addend: 0x0, symName: __RNvXsd_NtNtCsiTraAjBDcu4_5alloc3vec9into_iterINtB5_8IntoIterTNtNtCsc29TF2YcYso_3syn4expr10FieldValueNtNtB11_5token5CommaEENtNtNtCsaNl6UpbT7bw_4core3ops4drop4Drop4dropCsfQFyxU9Vz2T_11yoke_derive, symObjAddr: 0x6084, symBinAddr: 0x6CD4, symSize: 0x98 }
  - { offset: 0x166B8, size: 0x8, addend: 0x0, symName: __RNvXsd_NtNtCsiTraAjBDcu4_5alloc3vec9into_iterINtB5_8IntoIterTNtNtCsc29TF2YcYso_3syn4expr4ExprNtNtB11_5token5CommaEENtNtNtCsaNl6UpbT7bw_4core3ops4drop4Drop4dropCsfQFyxU9Vz2T_11yoke_derive, symObjAddr: 0x611C, symBinAddr: 0x6D6C, symSize: 0x98 }
  - { offset: 0x16752, size: 0x8, addend: 0x0, symName: __RNvXsd_NtNtCsiTraAjBDcu4_5alloc3vec9into_iterINtB5_8IntoIterTNtNtCsc29TF2YcYso_3syn4item5FnArgNtNtB11_5token5CommaEENtNtNtCsaNl6UpbT7bw_4core3ops4drop4Drop4dropCsfQFyxU9Vz2T_11yoke_derive, symObjAddr: 0x61B4, symBinAddr: 0x6E04, symSize: 0x98 }
  - { offset: 0x167EC, size: 0x8, addend: 0x0, symName: __RNvXsd_NtNtCsiTraAjBDcu4_5alloc3vec9into_iterINtB5_8IntoIterTNtNtCsc29TF2YcYso_3syn4item7UseTreeNtNtB11_5token5CommaEENtNtNtCsaNl6UpbT7bw_4core3ops4drop4Drop4dropCsfQFyxU9Vz2T_11yoke_derive, symObjAddr: 0x624C, symBinAddr: 0x6E9C, symSize: 0x98 }
  - { offset: 0x16886, size: 0x8, addend: 0x0, symName: __RNvXsd_NtNtCsiTraAjBDcu4_5alloc3vec9into_iterINtB5_8IntoIterTNtNtCsc29TF2YcYso_3syn4path15GenericArgumentNtNtB11_5token5CommaEENtNtNtCsaNl6UpbT7bw_4core3ops4drop4Drop4dropCsfQFyxU9Vz2T_11yoke_derive, symObjAddr: 0x62E4, symBinAddr: 0x6F34, symSize: 0x98 }
  - { offset: 0x16920, size: 0x8, addend: 0x0, symName: __RNvXsd_NtNtCsiTraAjBDcu4_5alloc3vec9into_iterINtB5_8IntoIterTNtNtCsc29TF2YcYso_3syn8generics12GenericParamNtNtB11_5token5CommaEENtNtNtCsaNl6UpbT7bw_4core3ops4drop4Drop4dropCsfQFyxU9Vz2T_11yoke_derive, symObjAddr: 0x637C, symBinAddr: 0x6FCC, symSize: 0x98 }
  - { offset: 0x169BA, size: 0x8, addend: 0x0, symName: __RNvXsd_NtNtCsiTraAjBDcu4_5alloc3vec9into_iterINtB5_8IntoIterTNtNtCsc29TF2YcYso_3syn8generics13CapturedParamNtNtB11_5token5CommaEENtNtNtCsaNl6UpbT7bw_4core3ops4drop4Drop4dropCsfQFyxU9Vz2T_11yoke_derive, symObjAddr: 0x6414, symBinAddr: 0x7064, symSize: 0x98 }
  - { offset: 0x16A54, size: 0x8, addend: 0x0, symName: __RNvXsd_NtNtCsiTraAjBDcu4_5alloc3vec9into_iterINtB5_8IntoIterTNtNtCsc29TF2YcYso_3syn8generics14WherePredicateNtNtB11_5token5CommaEENtNtNtCsaNl6UpbT7bw_4core3ops4drop4Drop4dropCsfQFyxU9Vz2T_11yoke_derive, symObjAddr: 0x64AC, symBinAddr: 0x70FC, symSize: 0x98 }
  - { offset: 0x16AEE, size: 0x8, addend: 0x0, symName: __RNvXsd_NtNtCsiTraAjBDcu4_5alloc3vec9into_iterINtB5_8IntoIterTNtNtCsc29TF2YcYso_3syn8lifetime8LifetimeNtNtB11_5token4PlusEENtNtNtCsaNl6UpbT7bw_4core3ops4drop4Drop4dropCsfQFyxU9Vz2T_11yoke_derive, symObjAddr: 0x6544, symBinAddr: 0x7194, symSize: 0x98 }
  - { offset: 0x16B8E, size: 0x8, addend: 0x0, symName: __RNvXsf_NtNtCsiTraAjBDcu4_5alloc3vec9into_iterINtB5_8IntoIterNtNtCsc29TF2YcYso_3syn4attr9AttributeENtNtNtCsaNl6UpbT7bw_4core4iter8adapters10SourceIter8as_innerCsfQFyxU9Vz2T_11yoke_derive, symObjAddr: 0x65DC, symBinAddr: 0x722C, symSize: 0x14 }
  - { offset: 0x16BCE, size: 0x8, addend: 0x0, symName: __RNvXsf_NtNtCsiTraAjBDcu4_5alloc3vec9into_iterINtB5_8IntoIterNtNtCsc29TF2YcYso_3syn4expr3ArmENtNtNtCsaNl6UpbT7bw_4core4iter8adapters10SourceIter8as_innerCsfQFyxU9Vz2T_11yoke_derive, symObjAddr: 0x65F0, symBinAddr: 0x7240, symSize: 0x14 }
  - { offset: 0x16C0E, size: 0x8, addend: 0x0, symName: __RNvXsf_NtNtCsiTraAjBDcu4_5alloc3vec9into_iterINtB5_8IntoIterNtNtCsc29TF2YcYso_3syn4item11ForeignItemENtNtNtCsaNl6UpbT7bw_4core4iter8adapters10SourceIter8as_innerCsfQFyxU9Vz2T_11yoke_derive, symObjAddr: 0x6604, symBinAddr: 0x7254, symSize: 0x14 }
  - { offset: 0x16C4E, size: 0x8, addend: 0x0, symName: __RNvXsf_NtNtCsiTraAjBDcu4_5alloc3vec9into_iterINtB5_8IntoIterNtNtCsc29TF2YcYso_3syn4item4ItemENtNtNtCsaNl6UpbT7bw_4core4iter8adapters10SourceIter8as_innerCsfQFyxU9Vz2T_11yoke_derive, symObjAddr: 0x6618, symBinAddr: 0x7268, symSize: 0x14 }
  - { offset: 0x16C8E, size: 0x8, addend: 0x0, symName: __RNvXsf_NtNtCsiTraAjBDcu4_5alloc3vec9into_iterINtB5_8IntoIterNtNtCsc29TF2YcYso_3syn4item8ImplItemENtNtNtCsaNl6UpbT7bw_4core4iter8adapters10SourceIter8as_innerCsfQFyxU9Vz2T_11yoke_derive, symObjAddr: 0x662C, symBinAddr: 0x727C, symSize: 0x14 }
  - { offset: 0x16CCE, size: 0x8, addend: 0x0, symName: __RNvXsf_NtNtCsiTraAjBDcu4_5alloc3vec9into_iterINtB5_8IntoIterNtNtCsc29TF2YcYso_3syn4item9TraitItemENtNtNtCsaNl6UpbT7bw_4core4iter8adapters10SourceIter8as_innerCsfQFyxU9Vz2T_11yoke_derive, symObjAddr: 0x6640, symBinAddr: 0x7290, symSize: 0x14 }
  - { offset: 0x16D0E, size: 0x8, addend: 0x0, symName: __RNvXsf_NtNtCsiTraAjBDcu4_5alloc3vec9into_iterINtB5_8IntoIterNtNtCsc29TF2YcYso_3syn4stmt4StmtENtNtNtCsaNl6UpbT7bw_4core4iter8adapters10SourceIter8as_innerCsfQFyxU9Vz2T_11yoke_derive, symObjAddr: 0x6654, symBinAddr: 0x72A4, symSize: 0x14 }
  - { offset: 0x16D4E, size: 0x8, addend: 0x0, symName: __RNvXsf_NtNtCsiTraAjBDcu4_5alloc3vec9into_iterINtB5_8IntoIterTNtNtCsc29TF2YcYso_3syn2ty4TypeNtNtB11_5token5CommaEENtNtNtCsaNl6UpbT7bw_4core4iter8adapters10SourceIter8as_innerCsfQFyxU9Vz2T_11yoke_derive, symObjAddr: 0x6668, symBinAddr: 0x72B8, symSize: 0x14 }
  - { offset: 0x16D8E, size: 0x8, addend: 0x0, symName: __RNvXsf_NtNtCsiTraAjBDcu4_5alloc3vec9into_iterINtB5_8IntoIterTNtNtCsc29TF2YcYso_3syn2ty9BareFnArgNtNtB11_5token5CommaEENtNtNtCsaNl6UpbT7bw_4core4iter8adapters10SourceIter8as_innerCsfQFyxU9Vz2T_11yoke_derive, symObjAddr: 0x667C, symBinAddr: 0x72CC, symSize: 0x14 }
  - { offset: 0x16DCE, size: 0x8, addend: 0x0, symName: __RNvXsf_NtNtCsiTraAjBDcu4_5alloc3vec9into_iterINtB5_8IntoIterTNtNtCsc29TF2YcYso_3syn3pat3PatNtNtB11_5token2OrEENtNtNtCsaNl6UpbT7bw_4core4iter8adapters10SourceIter8as_innerCsfQFyxU9Vz2T_11yoke_derive, symObjAddr: 0x6690, symBinAddr: 0x72E0, symSize: 0x14 }
  - { offset: 0x16E0E, size: 0x8, addend: 0x0, symName: __RNvXsf_NtNtCsiTraAjBDcu4_5alloc3vec9into_iterINtB5_8IntoIterTNtNtCsc29TF2YcYso_3syn3pat3PatNtNtB11_5token5CommaEENtNtNtCsaNl6UpbT7bw_4core4iter8adapters10SourceIter8as_innerCsfQFyxU9Vz2T_11yoke_derive, symObjAddr: 0x66A4, symBinAddr: 0x72F4, symSize: 0x14 }
  - { offset: 0x16E4E, size: 0x8, addend: 0x0, symName: __RNvXsf_NtNtCsiTraAjBDcu4_5alloc3vec9into_iterINtB5_8IntoIterTNtNtCsc29TF2YcYso_3syn3pat8FieldPatNtNtB11_5token5CommaEENtNtNtCsaNl6UpbT7bw_4core4iter8adapters10SourceIter8as_innerCsfQFyxU9Vz2T_11yoke_derive, symObjAddr: 0x66B8, symBinAddr: 0x7308, symSize: 0x14 }
  - { offset: 0x16E8E, size: 0x8, addend: 0x0, symName: __RNvXsf_NtNtCsiTraAjBDcu4_5alloc3vec9into_iterINtB5_8IntoIterTNtNtCsc29TF2YcYso_3syn4data5FieldNtNtB11_5token5CommaEENtNtNtCsaNl6UpbT7bw_4core4iter8adapters10SourceIter8as_innerCsfQFyxU9Vz2T_11yoke_derive, symObjAddr: 0x66CC, symBinAddr: 0x731C, symSize: 0x14 }
  - { offset: 0x16ECE, size: 0x8, addend: 0x0, symName: __RNvXsf_NtNtCsiTraAjBDcu4_5alloc3vec9into_iterINtB5_8IntoIterTNtNtCsc29TF2YcYso_3syn4data7VariantNtNtB11_5token5CommaEENtNtNtCsaNl6UpbT7bw_4core4iter8adapters10SourceIter8as_innerCsfQFyxU9Vz2T_11yoke_derive, symObjAddr: 0x66E0, symBinAddr: 0x7330, symSize: 0x14 }
  - { offset: 0x16F0E, size: 0x8, addend: 0x0, symName: __RNvXsf_NtNtCsiTraAjBDcu4_5alloc3vec9into_iterINtB5_8IntoIterTNtNtCsc29TF2YcYso_3syn4expr10FieldValueNtNtB11_5token5CommaEENtNtNtCsaNl6UpbT7bw_4core4iter8adapters10SourceIter8as_innerCsfQFyxU9Vz2T_11yoke_derive, symObjAddr: 0x66F4, symBinAddr: 0x7344, symSize: 0x14 }
  - { offset: 0x16F4E, size: 0x8, addend: 0x0, symName: __RNvXsf_NtNtCsiTraAjBDcu4_5alloc3vec9into_iterINtB5_8IntoIterTNtNtCsc29TF2YcYso_3syn4expr4ExprNtNtB11_5token5CommaEENtNtNtCsaNl6UpbT7bw_4core4iter8adapters10SourceIter8as_innerCsfQFyxU9Vz2T_11yoke_derive, symObjAddr: 0x6708, symBinAddr: 0x7358, symSize: 0x14 }
  - { offset: 0x16F8E, size: 0x8, addend: 0x0, symName: __RNvXsf_NtNtCsiTraAjBDcu4_5alloc3vec9into_iterINtB5_8IntoIterTNtNtCsc29TF2YcYso_3syn4item5FnArgNtNtB11_5token5CommaEENtNtNtCsaNl6UpbT7bw_4core4iter8adapters10SourceIter8as_innerCsfQFyxU9Vz2T_11yoke_derive, symObjAddr: 0x671C, symBinAddr: 0x736C, symSize: 0x14 }
  - { offset: 0x16FCE, size: 0x8, addend: 0x0, symName: __RNvXsf_NtNtCsiTraAjBDcu4_5alloc3vec9into_iterINtB5_8IntoIterTNtNtCsc29TF2YcYso_3syn4item7UseTreeNtNtB11_5token5CommaEENtNtNtCsaNl6UpbT7bw_4core4iter8adapters10SourceIter8as_innerCsfQFyxU9Vz2T_11yoke_derive, symObjAddr: 0x6730, symBinAddr: 0x7380, symSize: 0x14 }
  - { offset: 0x1700E, size: 0x8, addend: 0x0, symName: __RNvXsf_NtNtCsiTraAjBDcu4_5alloc3vec9into_iterINtB5_8IntoIterTNtNtCsc29TF2YcYso_3syn4path11PathSegmentNtNtB11_5token7PathSepEENtNtNtCsaNl6UpbT7bw_4core4iter8adapters10SourceIter8as_innerCsfQFyxU9Vz2T_11yoke_derive, symObjAddr: 0x6744, symBinAddr: 0x7394, symSize: 0x14 }
  - { offset: 0x1704E, size: 0x8, addend: 0x0, symName: __RNvXsf_NtNtCsiTraAjBDcu4_5alloc3vec9into_iterINtB5_8IntoIterTNtNtCsc29TF2YcYso_3syn4path15GenericArgumentNtNtB11_5token5CommaEENtNtNtCsaNl6UpbT7bw_4core4iter8adapters10SourceIter8as_innerCsfQFyxU9Vz2T_11yoke_derive, symObjAddr: 0x6758, symBinAddr: 0x73A8, symSize: 0x14 }
  - { offset: 0x1708E, size: 0x8, addend: 0x0, symName: __RNvXsf_NtNtCsiTraAjBDcu4_5alloc3vec9into_iterINtB5_8IntoIterTNtNtCsc29TF2YcYso_3syn8generics12GenericParamNtNtB11_5token5CommaEENtNtNtCsaNl6UpbT7bw_4core4iter8adapters10SourceIter8as_innerCsfQFyxU9Vz2T_11yoke_derive, symObjAddr: 0x676C, symBinAddr: 0x73BC, symSize: 0x14 }
  - { offset: 0x170CE, size: 0x8, addend: 0x0, symName: __RNvXsf_NtNtCsiTraAjBDcu4_5alloc3vec9into_iterINtB5_8IntoIterTNtNtCsc29TF2YcYso_3syn8generics13CapturedParamNtNtB11_5token5CommaEENtNtNtCsaNl6UpbT7bw_4core4iter8adapters10SourceIter8as_innerCsfQFyxU9Vz2T_11yoke_derive, symObjAddr: 0x6780, symBinAddr: 0x73D0, symSize: 0x14 }
  - { offset: 0x1710E, size: 0x8, addend: 0x0, symName: __RNvXsf_NtNtCsiTraAjBDcu4_5alloc3vec9into_iterINtB5_8IntoIterTNtNtCsc29TF2YcYso_3syn8generics14TypeParamBoundNtNtB11_5token4PlusEENtNtNtCsaNl6UpbT7bw_4core4iter8adapters10SourceIter8as_innerCsfQFyxU9Vz2T_11yoke_derive, symObjAddr: 0x6794, symBinAddr: 0x73E4, symSize: 0x14 }
  - { offset: 0x1714E, size: 0x8, addend: 0x0, symName: __RNvXsf_NtNtCsiTraAjBDcu4_5alloc3vec9into_iterINtB5_8IntoIterTNtNtCsc29TF2YcYso_3syn8generics14WherePredicateNtNtB11_5token5CommaEENtNtNtCsaNl6UpbT7bw_4core4iter8adapters10SourceIter8as_innerCsfQFyxU9Vz2T_11yoke_derive, symObjAddr: 0x67A8, symBinAddr: 0x73F8, symSize: 0x14 }
  - { offset: 0x1718E, size: 0x8, addend: 0x0, symName: __RNvXsf_NtNtCsiTraAjBDcu4_5alloc3vec9into_iterINtB5_8IntoIterTNtNtCsc29TF2YcYso_3syn8lifetime8LifetimeNtNtB11_5token4PlusEENtNtNtCsaNl6UpbT7bw_4core4iter8adapters10SourceIter8as_innerCsfQFyxU9Vz2T_11yoke_derive, symObjAddr: 0x67BC, symBinAddr: 0x740C, symSize: 0x14 }
  - { offset: 0x171D4, size: 0x8, addend: 0x0, symName: __RNvXsg_NtNtCsiTraAjBDcu4_5alloc3vec9into_iterINtB5_8IntoIterNtNtCsc29TF2YcYso_3syn4attr9AttributeENtNtB7_16in_place_collect13AsVecIntoIter12as_into_iterCsfQFyxU9Vz2T_11yoke_derive, symObjAddr: 0x67D0, symBinAddr: 0x7420, symSize: 0x14 }
  - { offset: 0x1720B, size: 0x8, addend: 0x0, symName: __RNvXsg_NtNtCsiTraAjBDcu4_5alloc3vec9into_iterINtB5_8IntoIterNtNtCsc29TF2YcYso_3syn4expr3ArmENtNtB7_16in_place_collect13AsVecIntoIter12as_into_iterCsfQFyxU9Vz2T_11yoke_derive, symObjAddr: 0x67E4, symBinAddr: 0x7434, symSize: 0x14 }
  - { offset: 0x17242, size: 0x8, addend: 0x0, symName: __RNvXsg_NtNtCsiTraAjBDcu4_5alloc3vec9into_iterINtB5_8IntoIterNtNtCsc29TF2YcYso_3syn4item11ForeignItemENtNtB7_16in_place_collect13AsVecIntoIter12as_into_iterCsfQFyxU9Vz2T_11yoke_derive, symObjAddr: 0x67F8, symBinAddr: 0x7448, symSize: 0x14 }
  - { offset: 0x17279, size: 0x8, addend: 0x0, symName: __RNvXsg_NtNtCsiTraAjBDcu4_5alloc3vec9into_iterINtB5_8IntoIterNtNtCsc29TF2YcYso_3syn4item4ItemENtNtB7_16in_place_collect13AsVecIntoIter12as_into_iterCsfQFyxU9Vz2T_11yoke_derive, symObjAddr: 0x680C, symBinAddr: 0x745C, symSize: 0x14 }
  - { offset: 0x172B0, size: 0x8, addend: 0x0, symName: __RNvXsg_NtNtCsiTraAjBDcu4_5alloc3vec9into_iterINtB5_8IntoIterNtNtCsc29TF2YcYso_3syn4item8ImplItemENtNtB7_16in_place_collect13AsVecIntoIter12as_into_iterCsfQFyxU9Vz2T_11yoke_derive, symObjAddr: 0x6820, symBinAddr: 0x7470, symSize: 0x14 }
  - { offset: 0x172E7, size: 0x8, addend: 0x0, symName: __RNvXsg_NtNtCsiTraAjBDcu4_5alloc3vec9into_iterINtB5_8IntoIterNtNtCsc29TF2YcYso_3syn4item9TraitItemENtNtB7_16in_place_collect13AsVecIntoIter12as_into_iterCsfQFyxU9Vz2T_11yoke_derive, symObjAddr: 0x6834, symBinAddr: 0x7484, symSize: 0x14 }
  - { offset: 0x1731E, size: 0x8, addend: 0x0, symName: __RNvXsg_NtNtCsiTraAjBDcu4_5alloc3vec9into_iterINtB5_8IntoIterNtNtCsc29TF2YcYso_3syn4stmt4StmtENtNtB7_16in_place_collect13AsVecIntoIter12as_into_iterCsfQFyxU9Vz2T_11yoke_derive, symObjAddr: 0x6848, symBinAddr: 0x7498, symSize: 0x14 }
  - { offset: 0x17355, size: 0x8, addend: 0x0, symName: __RNvXsg_NtNtCsiTraAjBDcu4_5alloc3vec9into_iterINtB5_8IntoIterTNtNtCsc29TF2YcYso_3syn2ty4TypeNtNtB11_5token5CommaEENtNtB7_16in_place_collect13AsVecIntoIter12as_into_iterCsfQFyxU9Vz2T_11yoke_derive, symObjAddr: 0x685C, symBinAddr: 0x74AC, symSize: 0x14 }
  - { offset: 0x1738C, size: 0x8, addend: 0x0, symName: __RNvXsg_NtNtCsiTraAjBDcu4_5alloc3vec9into_iterINtB5_8IntoIterTNtNtCsc29TF2YcYso_3syn2ty9BareFnArgNtNtB11_5token5CommaEENtNtB7_16in_place_collect13AsVecIntoIter12as_into_iterCsfQFyxU9Vz2T_11yoke_derive, symObjAddr: 0x6870, symBinAddr: 0x74C0, symSize: 0x14 }
  - { offset: 0x173C3, size: 0x8, addend: 0x0, symName: __RNvXsg_NtNtCsiTraAjBDcu4_5alloc3vec9into_iterINtB5_8IntoIterTNtNtCsc29TF2YcYso_3syn3pat3PatNtNtB11_5token2OrEENtNtB7_16in_place_collect13AsVecIntoIter12as_into_iterCsfQFyxU9Vz2T_11yoke_derive, symObjAddr: 0x6884, symBinAddr: 0x74D4, symSize: 0x14 }
  - { offset: 0x173FA, size: 0x8, addend: 0x0, symName: __RNvXsg_NtNtCsiTraAjBDcu4_5alloc3vec9into_iterINtB5_8IntoIterTNtNtCsc29TF2YcYso_3syn3pat3PatNtNtB11_5token5CommaEENtNtB7_16in_place_collect13AsVecIntoIter12as_into_iterCsfQFyxU9Vz2T_11yoke_derive, symObjAddr: 0x6898, symBinAddr: 0x74E8, symSize: 0x14 }
  - { offset: 0x17431, size: 0x8, addend: 0x0, symName: __RNvXsg_NtNtCsiTraAjBDcu4_5alloc3vec9into_iterINtB5_8IntoIterTNtNtCsc29TF2YcYso_3syn3pat8FieldPatNtNtB11_5token5CommaEENtNtB7_16in_place_collect13AsVecIntoIter12as_into_iterCsfQFyxU9Vz2T_11yoke_derive, symObjAddr: 0x68AC, symBinAddr: 0x74FC, symSize: 0x14 }
  - { offset: 0x17468, size: 0x8, addend: 0x0, symName: __RNvXsg_NtNtCsiTraAjBDcu4_5alloc3vec9into_iterINtB5_8IntoIterTNtNtCsc29TF2YcYso_3syn4data5FieldNtNtB11_5token5CommaEENtNtB7_16in_place_collect13AsVecIntoIter12as_into_iterCsfQFyxU9Vz2T_11yoke_derive, symObjAddr: 0x68C0, symBinAddr: 0x7510, symSize: 0x14 }
  - { offset: 0x1749F, size: 0x8, addend: 0x0, symName: __RNvXsg_NtNtCsiTraAjBDcu4_5alloc3vec9into_iterINtB5_8IntoIterTNtNtCsc29TF2YcYso_3syn4data7VariantNtNtB11_5token5CommaEENtNtB7_16in_place_collect13AsVecIntoIter12as_into_iterCsfQFyxU9Vz2T_11yoke_derive, symObjAddr: 0x68D4, symBinAddr: 0x7524, symSize: 0x14 }
  - { offset: 0x174D6, size: 0x8, addend: 0x0, symName: __RNvXsg_NtNtCsiTraAjBDcu4_5alloc3vec9into_iterINtB5_8IntoIterTNtNtCsc29TF2YcYso_3syn4expr10FieldValueNtNtB11_5token5CommaEENtNtB7_16in_place_collect13AsVecIntoIter12as_into_iterCsfQFyxU9Vz2T_11yoke_derive, symObjAddr: 0x68E8, symBinAddr: 0x7538, symSize: 0x14 }
  - { offset: 0x1750D, size: 0x8, addend: 0x0, symName: __RNvXsg_NtNtCsiTraAjBDcu4_5alloc3vec9into_iterINtB5_8IntoIterTNtNtCsc29TF2YcYso_3syn4expr4ExprNtNtB11_5token5CommaEENtNtB7_16in_place_collect13AsVecIntoIter12as_into_iterCsfQFyxU9Vz2T_11yoke_derive, symObjAddr: 0x68FC, symBinAddr: 0x754C, symSize: 0x14 }
  - { offset: 0x17544, size: 0x8, addend: 0x0, symName: __RNvXsg_NtNtCsiTraAjBDcu4_5alloc3vec9into_iterINtB5_8IntoIterTNtNtCsc29TF2YcYso_3syn4item5FnArgNtNtB11_5token5CommaEENtNtB7_16in_place_collect13AsVecIntoIter12as_into_iterCsfQFyxU9Vz2T_11yoke_derive, symObjAddr: 0x6910, symBinAddr: 0x7560, symSize: 0x14 }
  - { offset: 0x1757B, size: 0x8, addend: 0x0, symName: __RNvXsg_NtNtCsiTraAjBDcu4_5alloc3vec9into_iterINtB5_8IntoIterTNtNtCsc29TF2YcYso_3syn4item7UseTreeNtNtB11_5token5CommaEENtNtB7_16in_place_collect13AsVecIntoIter12as_into_iterCsfQFyxU9Vz2T_11yoke_derive, symObjAddr: 0x6924, symBinAddr: 0x7574, symSize: 0x14 }
  - { offset: 0x175B2, size: 0x8, addend: 0x0, symName: __RNvXsg_NtNtCsiTraAjBDcu4_5alloc3vec9into_iterINtB5_8IntoIterTNtNtCsc29TF2YcYso_3syn4path11PathSegmentNtNtB11_5token7PathSepEENtNtB7_16in_place_collect13AsVecIntoIter12as_into_iterCsfQFyxU9Vz2T_11yoke_derive, symObjAddr: 0x6938, symBinAddr: 0x7588, symSize: 0x14 }
  - { offset: 0x175E9, size: 0x8, addend: 0x0, symName: __RNvXsg_NtNtCsiTraAjBDcu4_5alloc3vec9into_iterINtB5_8IntoIterTNtNtCsc29TF2YcYso_3syn4path15GenericArgumentNtNtB11_5token5CommaEENtNtB7_16in_place_collect13AsVecIntoIter12as_into_iterCsfQFyxU9Vz2T_11yoke_derive, symObjAddr: 0x694C, symBinAddr: 0x759C, symSize: 0x14 }
  - { offset: 0x17620, size: 0x8, addend: 0x0, symName: __RNvXsg_NtNtCsiTraAjBDcu4_5alloc3vec9into_iterINtB5_8IntoIterTNtNtCsc29TF2YcYso_3syn8generics12GenericParamNtNtB11_5token5CommaEENtNtB7_16in_place_collect13AsVecIntoIter12as_into_iterCsfQFyxU9Vz2T_11yoke_derive, symObjAddr: 0x6960, symBinAddr: 0x75B0, symSize: 0x14 }
  - { offset: 0x17657, size: 0x8, addend: 0x0, symName: __RNvXsg_NtNtCsiTraAjBDcu4_5alloc3vec9into_iterINtB5_8IntoIterTNtNtCsc29TF2YcYso_3syn8generics13CapturedParamNtNtB11_5token5CommaEENtNtB7_16in_place_collect13AsVecIntoIter12as_into_iterCsfQFyxU9Vz2T_11yoke_derive, symObjAddr: 0x6974, symBinAddr: 0x75C4, symSize: 0x14 }
  - { offset: 0x1768E, size: 0x8, addend: 0x0, symName: __RNvXsg_NtNtCsiTraAjBDcu4_5alloc3vec9into_iterINtB5_8IntoIterTNtNtCsc29TF2YcYso_3syn8generics14TypeParamBoundNtNtB11_5token4PlusEENtNtB7_16in_place_collect13AsVecIntoIter12as_into_iterCsfQFyxU9Vz2T_11yoke_derive, symObjAddr: 0x6988, symBinAddr: 0x75D8, symSize: 0x14 }
  - { offset: 0x176C5, size: 0x8, addend: 0x0, symName: __RNvXsg_NtNtCsiTraAjBDcu4_5alloc3vec9into_iterINtB5_8IntoIterTNtNtCsc29TF2YcYso_3syn8generics14WherePredicateNtNtB11_5token5CommaEENtNtB7_16in_place_collect13AsVecIntoIter12as_into_iterCsfQFyxU9Vz2T_11yoke_derive, symObjAddr: 0x699C, symBinAddr: 0x75EC, symSize: 0x14 }
  - { offset: 0x176FC, size: 0x8, addend: 0x0, symName: __RNvXsg_NtNtCsiTraAjBDcu4_5alloc3vec9into_iterINtB5_8IntoIterTNtNtCsc29TF2YcYso_3syn8lifetime8LifetimeNtNtB11_5token4PlusEENtNtB7_16in_place_collect13AsVecIntoIter12as_into_iterCsfQFyxU9Vz2T_11yoke_derive, symObjAddr: 0x69B0, symBinAddr: 0x7600, symSize: 0x14 }
  - { offset: 0x1B25B, size: 0x8, addend: 0x0, symName: __RNvMs_NtNtCsiTraAjBDcu4_5alloc3vec9into_iterINtB4_8IntoIterNtNtCsc29TF2YcYso_3syn4attr9AttributeE32forget_allocation_drop_remainingCsfQFyxU9Vz2T_11yoke_derive, symObjAddr: 0x3590, symBinAddr: 0x41E0, symSize: 0xAC }
  - { offset: 0x1B48E, size: 0x8, addend: 0x0, symName: __RNvMs_NtNtCsiTraAjBDcu4_5alloc3vec9into_iterINtB4_8IntoIterNtNtCsc29TF2YcYso_3syn4expr3ArmE32forget_allocation_drop_remainingCsfQFyxU9Vz2T_11yoke_derive, symObjAddr: 0x363C, symBinAddr: 0x428C, symSize: 0xAC }
  - { offset: 0x1B6C1, size: 0x8, addend: 0x0, symName: __RNvMs_NtNtCsiTraAjBDcu4_5alloc3vec9into_iterINtB4_8IntoIterNtNtCsc29TF2YcYso_3syn4item11ForeignItemE32forget_allocation_drop_remainingCsfQFyxU9Vz2T_11yoke_derive, symObjAddr: 0x36E8, symBinAddr: 0x4338, symSize: 0xAC }
  - { offset: 0x1B8F4, size: 0x8, addend: 0x0, symName: __RNvMs_NtNtCsiTraAjBDcu4_5alloc3vec9into_iterINtB4_8IntoIterNtNtCsc29TF2YcYso_3syn4item4ItemE32forget_allocation_drop_remainingCsfQFyxU9Vz2T_11yoke_derive, symObjAddr: 0x3794, symBinAddr: 0x43E4, symSize: 0xAC }
  - { offset: 0x1BB27, size: 0x8, addend: 0x0, symName: __RNvMs_NtNtCsiTraAjBDcu4_5alloc3vec9into_iterINtB4_8IntoIterNtNtCsc29TF2YcYso_3syn4item8ImplItemE32forget_allocation_drop_remainingCsfQFyxU9Vz2T_11yoke_derive, symObjAddr: 0x3840, symBinAddr: 0x4490, symSize: 0xAC }
  - { offset: 0x1BD5A, size: 0x8, addend: 0x0, symName: __RNvMs_NtNtCsiTraAjBDcu4_5alloc3vec9into_iterINtB4_8IntoIterNtNtCsc29TF2YcYso_3syn4item9TraitItemE32forget_allocation_drop_remainingCsfQFyxU9Vz2T_11yoke_derive, symObjAddr: 0x38EC, symBinAddr: 0x453C, symSize: 0xAC }
  - { offset: 0x1BF8D, size: 0x8, addend: 0x0, symName: __RNvMs_NtNtCsiTraAjBDcu4_5alloc3vec9into_iterINtB4_8IntoIterNtNtCsc29TF2YcYso_3syn4stmt4StmtE32forget_allocation_drop_remainingCsfQFyxU9Vz2T_11yoke_derive, symObjAddr: 0x3998, symBinAddr: 0x45E8, symSize: 0xAC }
  - { offset: 0x1C1C0, size: 0x8, addend: 0x0, symName: __RNvMs_NtNtCsiTraAjBDcu4_5alloc3vec9into_iterINtB4_8IntoIterTNtNtCsc29TF2YcYso_3syn2ty4TypeNtNtB10_5token5CommaEE32forget_allocation_drop_remainingCsfQFyxU9Vz2T_11yoke_derive, symObjAddr: 0x3A44, symBinAddr: 0x4694, symSize: 0xAC }
  - { offset: 0x1C3F3, size: 0x8, addend: 0x0, symName: __RNvMs_NtNtCsiTraAjBDcu4_5alloc3vec9into_iterINtB4_8IntoIterTNtNtCsc29TF2YcYso_3syn2ty9BareFnArgNtNtB10_5token5CommaEE32forget_allocation_drop_remainingCsfQFyxU9Vz2T_11yoke_derive, symObjAddr: 0x3AF0, symBinAddr: 0x4740, symSize: 0xAC }
  - { offset: 0x1C626, size: 0x8, addend: 0x0, symName: __RNvMs_NtNtCsiTraAjBDcu4_5alloc3vec9into_iterINtB4_8IntoIterTNtNtCsc29TF2YcYso_3syn3pat3PatNtNtB10_5token2OrEE32forget_allocation_drop_remainingCsfQFyxU9Vz2T_11yoke_derive, symObjAddr: 0x3B9C, symBinAddr: 0x47EC, symSize: 0xAC }
  - { offset: 0x1C859, size: 0x8, addend: 0x0, symName: __RNvMs_NtNtCsiTraAjBDcu4_5alloc3vec9into_iterINtB4_8IntoIterTNtNtCsc29TF2YcYso_3syn3pat3PatNtNtB10_5token5CommaEE32forget_allocation_drop_remainingCsfQFyxU9Vz2T_11yoke_derive, symObjAddr: 0x3C48, symBinAddr: 0x4898, symSize: 0xAC }
  - { offset: 0x1CA8C, size: 0x8, addend: 0x0, symName: __RNvMs_NtNtCsiTraAjBDcu4_5alloc3vec9into_iterINtB4_8IntoIterTNtNtCsc29TF2YcYso_3syn3pat8FieldPatNtNtB10_5token5CommaEE32forget_allocation_drop_remainingCsfQFyxU9Vz2T_11yoke_derive, symObjAddr: 0x3CF4, symBinAddr: 0x4944, symSize: 0xAC }
  - { offset: 0x1CCBF, size: 0x8, addend: 0x0, symName: __RNvMs_NtNtCsiTraAjBDcu4_5alloc3vec9into_iterINtB4_8IntoIterTNtNtCsc29TF2YcYso_3syn4data5FieldNtNtB10_5token5CommaEE32forget_allocation_drop_remainingCsfQFyxU9Vz2T_11yoke_derive, symObjAddr: 0x3DA0, symBinAddr: 0x49F0, symSize: 0xAC }
  - { offset: 0x1CEF2, size: 0x8, addend: 0x0, symName: __RNvMs_NtNtCsiTraAjBDcu4_5alloc3vec9into_iterINtB4_8IntoIterTNtNtCsc29TF2YcYso_3syn4data7VariantNtNtB10_5token5CommaEE32forget_allocation_drop_remainingCsfQFyxU9Vz2T_11yoke_derive, symObjAddr: 0x3E4C, symBinAddr: 0x4A9C, symSize: 0xAC }
  - { offset: 0x1D125, size: 0x8, addend: 0x0, symName: __RNvMs_NtNtCsiTraAjBDcu4_5alloc3vec9into_iterINtB4_8IntoIterTNtNtCsc29TF2YcYso_3syn4expr10FieldValueNtNtB10_5token5CommaEE32forget_allocation_drop_remainingCsfQFyxU9Vz2T_11yoke_derive, symObjAddr: 0x3EF8, symBinAddr: 0x4B48, symSize: 0xAC }
  - { offset: 0x1D358, size: 0x8, addend: 0x0, symName: __RNvMs_NtNtCsiTraAjBDcu4_5alloc3vec9into_iterINtB4_8IntoIterTNtNtCsc29TF2YcYso_3syn4expr4ExprNtNtB10_5token5CommaEE32forget_allocation_drop_remainingCsfQFyxU9Vz2T_11yoke_derive, symObjAddr: 0x3FA4, symBinAddr: 0x4BF4, symSize: 0xAC }
  - { offset: 0x1D58B, size: 0x8, addend: 0x0, symName: __RNvMs_NtNtCsiTraAjBDcu4_5alloc3vec9into_iterINtB4_8IntoIterTNtNtCsc29TF2YcYso_3syn4item5FnArgNtNtB10_5token5CommaEE32forget_allocation_drop_remainingCsfQFyxU9Vz2T_11yoke_derive, symObjAddr: 0x4050, symBinAddr: 0x4CA0, symSize: 0xAC }
  - { offset: 0x1D7BE, size: 0x8, addend: 0x0, symName: __RNvMs_NtNtCsiTraAjBDcu4_5alloc3vec9into_iterINtB4_8IntoIterTNtNtCsc29TF2YcYso_3syn4item7UseTreeNtNtB10_5token5CommaEE32forget_allocation_drop_remainingCsfQFyxU9Vz2T_11yoke_derive, symObjAddr: 0x40FC, symBinAddr: 0x4D4C, symSize: 0xAC }
  - { offset: 0x1D9F1, size: 0x8, addend: 0x0, symName: __RNvMs_NtNtCsiTraAjBDcu4_5alloc3vec9into_iterINtB4_8IntoIterTNtNtCsc29TF2YcYso_3syn4path11PathSegmentNtNtB10_5token7PathSepEE32forget_allocation_drop_remainingCsfQFyxU9Vz2T_11yoke_derive, symObjAddr: 0x41A8, symBinAddr: 0x4DF8, symSize: 0xAC }
  - { offset: 0x1DC24, size: 0x8, addend: 0x0, symName: __RNvMs_NtNtCsiTraAjBDcu4_5alloc3vec9into_iterINtB4_8IntoIterTNtNtCsc29TF2YcYso_3syn4path15GenericArgumentNtNtB10_5token5CommaEE32forget_allocation_drop_remainingCsfQFyxU9Vz2T_11yoke_derive, symObjAddr: 0x4254, symBinAddr: 0x4EA4, symSize: 0xAC }
  - { offset: 0x1DE57, size: 0x8, addend: 0x0, symName: __RNvMs_NtNtCsiTraAjBDcu4_5alloc3vec9into_iterINtB4_8IntoIterTNtNtCsc29TF2YcYso_3syn8generics12GenericParamNtNtB10_5token5CommaEE32forget_allocation_drop_remainingCsfQFyxU9Vz2T_11yoke_derive, symObjAddr: 0x4300, symBinAddr: 0x4F50, symSize: 0xAC }
  - { offset: 0x1E08A, size: 0x8, addend: 0x0, symName: __RNvMs_NtNtCsiTraAjBDcu4_5alloc3vec9into_iterINtB4_8IntoIterTNtNtCsc29TF2YcYso_3syn8generics13CapturedParamNtNtB10_5token5CommaEE32forget_allocation_drop_remainingCsfQFyxU9Vz2T_11yoke_derive, symObjAddr: 0x43AC, symBinAddr: 0x4FFC, symSize: 0xAC }
  - { offset: 0x1E2BD, size: 0x8, addend: 0x0, symName: __RNvMs_NtNtCsiTraAjBDcu4_5alloc3vec9into_iterINtB4_8IntoIterTNtNtCsc29TF2YcYso_3syn8generics14TypeParamBoundNtNtB10_5token4PlusEE32forget_allocation_drop_remainingCsfQFyxU9Vz2T_11yoke_derive, symObjAddr: 0x4458, symBinAddr: 0x50A8, symSize: 0xAC }
  - { offset: 0x1E4F0, size: 0x8, addend: 0x0, symName: __RNvMs_NtNtCsiTraAjBDcu4_5alloc3vec9into_iterINtB4_8IntoIterTNtNtCsc29TF2YcYso_3syn8generics14WherePredicateNtNtB10_5token5CommaEE32forget_allocation_drop_remainingCsfQFyxU9Vz2T_11yoke_derive, symObjAddr: 0x4504, symBinAddr: 0x5154, symSize: 0xAC }
  - { offset: 0x1E723, size: 0x8, addend: 0x0, symName: __RNvMs_NtNtCsiTraAjBDcu4_5alloc3vec9into_iterINtB4_8IntoIterTNtNtCsc29TF2YcYso_3syn8lifetime8LifetimeNtNtB10_5token4PlusEE32forget_allocation_drop_remainingCsfQFyxU9Vz2T_11yoke_derive, symObjAddr: 0x45B0, symBinAddr: 0x5200, symSize: 0xAC }
  - { offset: 0x1FD5F, size: 0x8, addend: 0x0, symName: __RINvNtNtCsiTraAjBDcu4_5alloc3vec16in_place_collect18from_iter_in_placeINtNtNtNtCsaNl6UpbT7bw_4core4iter8adapters3map3MapINtNtB4_9into_iter8IntoIterNtNtCsc29TF2YcYso_3syn4attr9AttributeENCINvNtNtB2p_3gen4fold8fold_vecB2l_NtNvCsfQFyxU9Vz2T_11yoke_derive16replace_lifetime15ReplaceLifetimeNvYB3w_NtB32_4Fold14fold_attributeE0EB2l_EB3A_, symObjAddr: 0x0, symBinAddr: 0x8628, symSize: 0x264 }
  - { offset: 0x257D3, size: 0x8, addend: 0x0, symName: __RINvNtNtCsiTraAjBDcu4_5alloc3vec16in_place_collect18from_iter_in_placeINtNtNtNtCsaNl6UpbT7bw_4core4iter8adapters3map3MapINtNtB4_9into_iter8IntoIterNtNtCsc29TF2YcYso_3syn4attr9AttributeENCINvNtNtB2p_3gen4fold8fold_vecB2l_NtNvCsfQFyxU9Vz2T_11yoke_derive16replace_lifetime15ReplaceLifetimeNvYB3w_NtB32_4Fold14fold_attributeE0EB2l_EB3A_, symObjAddr: 0x0, symBinAddr: 0x8628, symSize: 0x264 }
  - { offset: 0x25C61, size: 0x8, addend: 0x0, symName: __RINvNtNtCsiTraAjBDcu4_5alloc3vec16in_place_collect18from_iter_in_placeINtNtNtNtCsaNl6UpbT7bw_4core4iter8adapters3map3MapINtNtB4_9into_iter8IntoIterNtNtCsc29TF2YcYso_3syn4expr3ArmENCINvNtNtB2p_3gen4fold8fold_vecB2l_NtNvCsfQFyxU9Vz2T_11yoke_derive16replace_lifetime15ReplaceLifetimeNvYB3q_NtB2W_4Fold8fold_armE0EB2l_EB3u_, symObjAddr: 0x264, symBinAddr: 0x888C, symSize: 0x268 }
  - { offset: 0x260EF, size: 0x8, addend: 0x0, symName: __RINvNtNtCsiTraAjBDcu4_5alloc3vec16in_place_collect18from_iter_in_placeINtNtNtNtCsaNl6UpbT7bw_4core4iter8adapters3map3MapINtNtB4_9into_iter8IntoIterNtNtCsc29TF2YcYso_3syn4item11ForeignItemENCINvNtNtB2p_3gen4fold8fold_vecB2l_NtNvCsfQFyxU9Vz2T_11yoke_derive16replace_lifetime15ReplaceLifetimeNvYB3z_NtB35_4Fold17fold_foreign_itemE0EB2l_EB3D_, symObjAddr: 0x4CC, symBinAddr: 0x8AF4, symSize: 0x268 }
  - { offset: 0x2657D, size: 0x8, addend: 0x0, symName: __RINvNtNtCsiTraAjBDcu4_5alloc3vec16in_place_collect18from_iter_in_placeINtNtNtNtCsaNl6UpbT7bw_4core4iter8adapters3map3MapINtNtB4_9into_iter8IntoIterNtNtCsc29TF2YcYso_3syn4item4ItemENCINvNtNtB2p_3gen4fold8fold_vecB2l_NtNvCsfQFyxU9Vz2T_11yoke_derive16replace_lifetime15ReplaceLifetimeNvYB3r_NtB2X_4Fold9fold_itemE0EB2l_EB3v_, symObjAddr: 0x734, symBinAddr: 0x8D5C, symSize: 0x268 }
  - { offset: 0x26A0B, size: 0x8, addend: 0x0, symName: __RINvNtNtCsiTraAjBDcu4_5alloc3vec16in_place_collect18from_iter_in_placeINtNtNtNtCsaNl6UpbT7bw_4core4iter8adapters3map3MapINtNtB4_9into_iter8IntoIterNtNtCsc29TF2YcYso_3syn4item8ImplItemENCINvNtNtB2p_3gen4fold8fold_vecB2l_NtNvCsfQFyxU9Vz2T_11yoke_derive16replace_lifetime15ReplaceLifetimeNvYB3v_NtB31_4Fold14fold_impl_itemE0EB2l_EB3z_, symObjAddr: 0x99C, symBinAddr: 0x8FC4, symSize: 0x268 }
  - { offset: 0x26E99, size: 0x8, addend: 0x0, symName: __RINvNtNtCsiTraAjBDcu4_5alloc3vec16in_place_collect18from_iter_in_placeINtNtNtNtCsaNl6UpbT7bw_4core4iter8adapters3map3MapINtNtB4_9into_iter8IntoIterNtNtCsc29TF2YcYso_3syn4item9TraitItemENCINvNtNtB2p_3gen4fold8fold_vecB2l_NtNvCsfQFyxU9Vz2T_11yoke_derive16replace_lifetime15ReplaceLifetimeNvYB3w_NtB32_4Fold15fold_trait_itemE0EB2l_EB3A_, symObjAddr: 0xC04, symBinAddr: 0x922C, symSize: 0x268 }
  - { offset: 0x27327, size: 0x8, addend: 0x0, symName: __RINvNtNtCsiTraAjBDcu4_5alloc3vec16in_place_collect18from_iter_in_placeINtNtNtNtCsaNl6UpbT7bw_4core4iter8adapters3map3MapINtNtB4_9into_iter8IntoIterNtNtCsc29TF2YcYso_3syn4stmt4StmtENCINvNtNtB2p_3gen4fold8fold_vecB2l_NtNvCsfQFyxU9Vz2T_11yoke_derive16replace_lifetime15ReplaceLifetimeNvYB3r_NtB2X_4Fold9fold_stmtE0EB2l_EB3v_, symObjAddr: 0xE6C, symBinAddr: 0x9494, symSize: 0x268 }
  - { offset: 0x277B5, size: 0x8, addend: 0x0, symName: __RINvNtNtCsiTraAjBDcu4_5alloc3vec16in_place_collect18from_iter_in_placeINtNtNtNtCsaNl6UpbT7bw_4core4iter8adapters3map3MapINtNtB4_9into_iter8IntoIterTNtNtCsc29TF2YcYso_3syn2ty4TypeNtNtB2q_5token5CommaEENCINvNtB2q_10punctuated4foldB2m_B2Q_NtNvCsfQFyxU9Vz2T_11yoke_derive16replace_lifetime15ReplaceLifetimeNvYB3M_NtNtNtB2q_3gen4fold4Fold9fold_typeE0EB2l_EB3Q_, symObjAddr: 0x10D4, symBinAddr: 0x96FC, symSize: 0x268 }
  - { offset: 0x27C43, size: 0x8, addend: 0x0, symName: __RINvNtNtCsiTraAjBDcu4_5alloc3vec16in_place_collect18from_iter_in_placeINtNtNtNtCsaNl6UpbT7bw_4core4iter8adapters3map3MapINtNtB4_9into_iter8IntoIterTNtNtCsc29TF2YcYso_3syn2ty9BareFnArgNtNtB2q_5token5CommaEENCINvNtB2q_10punctuated4foldB2m_B2V_NtNvCsfQFyxU9Vz2T_11yoke_derive16replace_lifetime15ReplaceLifetimeNvYB3R_NtNtNtB2q_3gen4fold4Fold16fold_bare_fn_argE0EB2l_EB3V_, symObjAddr: 0x133C, symBinAddr: 0x9964, symSize: 0x268 }
  - { offset: 0x280D1, size: 0x8, addend: 0x0, symName: __RINvNtNtCsiTraAjBDcu4_5alloc3vec16in_place_collect18from_iter_in_placeINtNtNtNtCsaNl6UpbT7bw_4core4iter8adapters3map3MapINtNtB4_9into_iter8IntoIterTNtNtCsc29TF2YcYso_3syn3pat3PatNtNtB2q_5token2OrEENCINvNtB2q_10punctuated4foldB2m_B2Q_NtNvCsfQFyxU9Vz2T_11yoke_derive16replace_lifetime15ReplaceLifetimeNvYB3J_NtNtNtB2q_3gen4fold4Fold8fold_patE0EB2l_EB3N_, symObjAddr: 0x15A4, symBinAddr: 0x9BCC, symSize: 0x268 }
  - { offset: 0x2855F, size: 0x8, addend: 0x0, symName: __RINvNtNtCsiTraAjBDcu4_5alloc3vec16in_place_collect18from_iter_in_placeINtNtNtNtCsaNl6UpbT7bw_4core4iter8adapters3map3MapINtNtB4_9into_iter8IntoIterTNtNtCsc29TF2YcYso_3syn3pat3PatNtNtB2q_5token5CommaEENCINvNtB2q_10punctuated4foldB2m_B2Q_NtNvCsfQFyxU9Vz2T_11yoke_derive16replace_lifetime15ReplaceLifetimeNvYB3M_NtNtNtB2q_3gen4fold4Fold8fold_patE0EB2l_EB3Q_, symObjAddr: 0x180C, symBinAddr: 0x9E34, symSize: 0x268 }
  - { offset: 0x289ED, size: 0x8, addend: 0x0, symName: __RINvNtNtCsiTraAjBDcu4_5alloc3vec16in_place_collect18from_iter_in_placeINtNtNtNtCsaNl6UpbT7bw_4core4iter8adapters3map3MapINtNtB4_9into_iter8IntoIterTNtNtCsc29TF2YcYso_3syn3pat8FieldPatNtNtB2q_5token5CommaEENCINvNtB2q_10punctuated4foldB2m_B2V_NtNvCsfQFyxU9Vz2T_11yoke_derive16replace_lifetime15ReplaceLifetimeNvYB3R_NtNtNtB2q_3gen4fold4Fold14fold_field_patE0EB2l_EB3V_, symObjAddr: 0x1A74, symBinAddr: 0xA09C, symSize: 0x268 }
  - { offset: 0x28E7B, size: 0x8, addend: 0x0, symName: __RINvNtNtCsiTraAjBDcu4_5alloc3vec16in_place_collect18from_iter_in_placeINtNtNtNtCsaNl6UpbT7bw_4core4iter8adapters3map3MapINtNtB4_9into_iter8IntoIterTNtNtCsc29TF2YcYso_3syn4data5FieldNtNtB2q_5token5CommaEENCINvNtB2q_10punctuated4foldB2m_B2T_NtNvCsfQFyxU9Vz2T_11yoke_derive16replace_lifetime15ReplaceLifetimeNvYB3P_NtNtNtB2q_3gen4fold4Fold10fold_fieldE0EB2l_EB3T_, symObjAddr: 0x1CDC, symBinAddr: 0xA304, symSize: 0x268 }
  - { offset: 0x29309, size: 0x8, addend: 0x0, symName: __RINvNtNtCsiTraAjBDcu4_5alloc3vec16in_place_collect18from_iter_in_placeINtNtNtNtCsaNl6UpbT7bw_4core4iter8adapters3map3MapINtNtB4_9into_iter8IntoIterTNtNtCsc29TF2YcYso_3syn4data7VariantNtNtB2q_5token5CommaEENCINvNtB2q_10punctuated4foldB2m_B2V_NtNvCsfQFyxU9Vz2T_11yoke_derive16replace_lifetime15ReplaceLifetimeNvYB3R_NtNtNtB2q_3gen4fold4Fold12fold_variantE0EB2l_EB3V_, symObjAddr: 0x1F44, symBinAddr: 0xA56C, symSize: 0x268 }
  - { offset: 0x29797, size: 0x8, addend: 0x0, symName: __RINvNtNtCsiTraAjBDcu4_5alloc3vec16in_place_collect18from_iter_in_placeINtNtNtNtCsaNl6UpbT7bw_4core4iter8adapters3map3MapINtNtB4_9into_iter8IntoIterTNtNtCsc29TF2YcYso_3syn4expr10FieldValueNtNtB2q_5token5CommaEENCINvNtB2q_10punctuated4foldB2m_B2Z_NtNvCsfQFyxU9Vz2T_11yoke_derive16replace_lifetime15ReplaceLifetimeNvYB3V_NtNtNtB2q_3gen4fold4Fold16fold_field_valueE0EB2l_EB3Z_, symObjAddr: 0x21AC, symBinAddr: 0xA7D4, symSize: 0x268 }
  - { offset: 0x29C25, size: 0x8, addend: 0x0, symName: __RINvNtNtCsiTraAjBDcu4_5alloc3vec16in_place_collect18from_iter_in_placeINtNtNtNtCsaNl6UpbT7bw_4core4iter8adapters3map3MapINtNtB4_9into_iter8IntoIterTNtNtCsc29TF2YcYso_3syn4expr4ExprNtNtB2q_5token5CommaEENCINvNtB2q_10punctuated4foldB2m_B2S_NtNvCsfQFyxU9Vz2T_11yoke_derive16replace_lifetime15ReplaceLifetimeNvYB3O_NtNtNtB2q_3gen4fold4Fold9fold_exprE0EB2l_EB3S_, symObjAddr: 0x2414, symBinAddr: 0xAA3C, symSize: 0x268 }
  - { offset: 0x2A0B3, size: 0x8, addend: 0x0, symName: __RINvNtNtCsiTraAjBDcu4_5alloc3vec16in_place_collect18from_iter_in_placeINtNtNtNtCsaNl6UpbT7bw_4core4iter8adapters3map3MapINtNtB4_9into_iter8IntoIterTNtNtCsc29TF2YcYso_3syn4item5FnArgNtNtB2q_5token5CommaEENCINvNtB2q_10punctuated4foldB2m_B2T_NtNvCsfQFyxU9Vz2T_11yoke_derive16replace_lifetime15ReplaceLifetimeNvYB3P_NtNtNtB2q_3gen4fold4Fold11fold_fn_argE0EB2l_EB3T_, symObjAddr: 0x267C, symBinAddr: 0xACA4, symSize: 0x268 }
  - { offset: 0x2A541, size: 0x8, addend: 0x0, symName: __RINvNtNtCsiTraAjBDcu4_5alloc3vec16in_place_collect18from_iter_in_placeINtNtNtNtCsaNl6UpbT7bw_4core4iter8adapters3map3MapINtNtB4_9into_iter8IntoIterTNtNtCsc29TF2YcYso_3syn4item7UseTreeNtNtB2q_5token5CommaEENCINvNtB2q_10punctuated4foldB2m_B2V_NtNvCsfQFyxU9Vz2T_11yoke_derive16replace_lifetime15ReplaceLifetimeNvYB3R_NtNtNtB2q_3gen4fold4Fold13fold_use_treeE0EB2l_EB3V_, symObjAddr: 0x28E4, symBinAddr: 0xAF0C, symSize: 0x268 }
  - { offset: 0x2A9CF, size: 0x8, addend: 0x0, symName: __RINvNtNtCsiTraAjBDcu4_5alloc3vec16in_place_collect18from_iter_in_placeINtNtNtNtCsaNl6UpbT7bw_4core4iter8adapters3map3MapINtNtB4_9into_iter8IntoIterTNtNtCsc29TF2YcYso_3syn4path11PathSegmentNtNtB2q_5token7PathSepEENCINvNtB2q_10punctuated4foldB2m_B30_NtNvCsfQFyxU9Vz2T_11yoke_derive16replace_lifetime15ReplaceLifetimeNvYB3Y_NtNtNtB2q_3gen4fold4Fold17fold_path_segmentE0EB2l_EB42_, symObjAddr: 0x2B4C, symBinAddr: 0xB174, symSize: 0x268 }
  - { offset: 0x2AE5D, size: 0x8, addend: 0x0, symName: __RINvNtNtCsiTraAjBDcu4_5alloc3vec16in_place_collect18from_iter_in_placeINtNtNtNtCsaNl6UpbT7bw_4core4iter8adapters3map3MapINtNtB4_9into_iter8IntoIterTNtNtCsc29TF2YcYso_3syn4path15GenericArgumentNtNtB2q_5token5CommaEENCINvNtB2q_10punctuated4foldB2m_B34_NtNvCsfQFyxU9Vz2T_11yoke_derive16replace_lifetime15ReplaceLifetimeNvYB40_NtNtNtB2q_3gen4fold4Fold21fold_generic_argumentE0EB2l_EB44_, symObjAddr: 0x2DB4, symBinAddr: 0xB3DC, symSize: 0x268 }
  - { offset: 0x2B2EB, size: 0x8, addend: 0x0, symName: __RINvNtNtCsiTraAjBDcu4_5alloc3vec16in_place_collect18from_iter_in_placeINtNtNtNtCsaNl6UpbT7bw_4core4iter8adapters3map3MapINtNtB4_9into_iter8IntoIterTNtNtCsc29TF2YcYso_3syn8generics12GenericParamNtNtB2q_5token5CommaEENCINvNtB2q_10punctuated4foldB2m_B35_NtNvCsfQFyxU9Vz2T_11yoke_derive16replace_lifetime15ReplaceLifetimeNvYB41_NtNtNtB2q_3gen4fold4Fold18fold_generic_paramE0EB2l_EB45_, symObjAddr: 0x301C, symBinAddr: 0xB644, symSize: 0x268 }
  - { offset: 0x2B779, size: 0x8, addend: 0x0, symName: __RINvNtNtCsiTraAjBDcu4_5alloc3vec16in_place_collect18from_iter_in_placeINtNtNtNtCsaNl6UpbT7bw_4core4iter8adapters3map3MapINtNtB4_9into_iter8IntoIterTNtNtCsc29TF2YcYso_3syn8generics13CapturedParamNtNtB2q_5token5CommaEENCINvNtB2q_10punctuated4foldB2m_B36_NtNvCsfQFyxU9Vz2T_11yoke_derive16replace_lifetime15ReplaceLifetimeNvYB42_NtNtNtB2q_3gen4fold4Fold19fold_captured_paramE0EB2l_EB46_, symObjAddr: 0x3284, symBinAddr: 0xB8AC, symSize: 0x268 }
  - { offset: 0x2BC07, size: 0x8, addend: 0x0, symName: __RINvNtNtCsiTraAjBDcu4_5alloc3vec16in_place_collect18from_iter_in_placeINtNtNtNtCsaNl6UpbT7bw_4core4iter8adapters3map3MapINtNtB4_9into_iter8IntoIterTNtNtCsc29TF2YcYso_3syn8generics14TypeParamBoundNtNtB2q_5token4PlusEENCINvNtB2q_10punctuated4foldB2m_B37_NtNvCsfQFyxU9Vz2T_11yoke_derive16replace_lifetime15ReplaceLifetimeNvYB42_NtNtNtB2q_3gen4fold4Fold21fold_type_param_boundE0EB2l_EB46_, symObjAddr: 0x34EC, symBinAddr: 0xBB14, symSize: 0x264 }
  - { offset: 0x2C095, size: 0x8, addend: 0x0, symName: __RINvNtNtCsiTraAjBDcu4_5alloc3vec16in_place_collect18from_iter_in_placeINtNtNtNtCsaNl6UpbT7bw_4core4iter8adapters3map3MapINtNtB4_9into_iter8IntoIterTNtNtCsc29TF2YcYso_3syn8generics14WherePredicateNtNtB2q_5token5CommaEENCINvNtB2q_10punctuated4foldB2m_B37_NtNvCsfQFyxU9Vz2T_11yoke_derive16replace_lifetime15ReplaceLifetimeNvYB43_NtNtNtB2q_3gen4fold4Fold20fold_where_predicateE0EB2l_EB47_, symObjAddr: 0x3750, symBinAddr: 0xBD78, symSize: 0x268 }
  - { offset: 0x2C523, size: 0x8, addend: 0x0, symName: __RINvNtNtCsiTraAjBDcu4_5alloc3vec16in_place_collect18from_iter_in_placeINtNtNtNtCsaNl6UpbT7bw_4core4iter8adapters3map3MapINtNtB4_9into_iter8IntoIterTNtNtCsc29TF2YcYso_3syn8lifetime8LifetimeNtNtB2q_5token4PlusEENCINvNtB2q_10punctuated4foldB2m_B30_NtNvCsfQFyxU9Vz2T_11yoke_derive16replace_lifetime15ReplaceLifetimeNvYB3V_NtNtNtB2q_3gen4fold4Fold13fold_lifetimeE0EB2l_EB3Z_, symObjAddr: 0x39B8, symBinAddr: 0xBFE0, symSize: 0x268 }
  - { offset: 0x2C97D, size: 0x8, addend: 0x0, symName: __RNCINvNtNtCsiTraAjBDcu4_5alloc3vec16in_place_collect24write_in_place_with_dropNtNtCsc29TF2YcYso_3syn4attr9AttributeE0CsfQFyxU9Vz2T_11yoke_derive, symObjAddr: 0x3C20, symBinAddr: 0xC248, symSize: 0x60 }
  - { offset: 0x2C9FF, size: 0x8, addend: 0x0, symName: __RNCINvNtNtCsiTraAjBDcu4_5alloc3vec16in_place_collect24write_in_place_with_dropNtNtCsc29TF2YcYso_3syn4expr3ArmE0CsfQFyxU9Vz2T_11yoke_derive, symObjAddr: 0x3C80, symBinAddr: 0xC2A8, symSize: 0x60 }
  - { offset: 0x2CA81, size: 0x8, addend: 0x0, symName: __RNCINvNtNtCsiTraAjBDcu4_5alloc3vec16in_place_collect24write_in_place_with_dropNtNtCsc29TF2YcYso_3syn4item11ForeignItemE0CsfQFyxU9Vz2T_11yoke_derive, symObjAddr: 0x3CE0, symBinAddr: 0xC308, symSize: 0x60 }
  - { offset: 0x2CB03, size: 0x8, addend: 0x0, symName: __RNCINvNtNtCsiTraAjBDcu4_5alloc3vec16in_place_collect24write_in_place_with_dropNtNtCsc29TF2YcYso_3syn4item4ItemE0CsfQFyxU9Vz2T_11yoke_derive, symObjAddr: 0x3D40, symBinAddr: 0xC368, symSize: 0x60 }
  - { offset: 0x2CB85, size: 0x8, addend: 0x0, symName: __RNCINvNtNtCsiTraAjBDcu4_5alloc3vec16in_place_collect24write_in_place_with_dropNtNtCsc29TF2YcYso_3syn4item8ImplItemE0CsfQFyxU9Vz2T_11yoke_derive, symObjAddr: 0x3DA0, symBinAddr: 0xC3C8, symSize: 0x60 }
  - { offset: 0x2CC07, size: 0x8, addend: 0x0, symName: __RNCINvNtNtCsiTraAjBDcu4_5alloc3vec16in_place_collect24write_in_place_with_dropNtNtCsc29TF2YcYso_3syn4item9TraitItemE0CsfQFyxU9Vz2T_11yoke_derive, symObjAddr: 0x3E00, symBinAddr: 0xC428, symSize: 0x60 }
  - { offset: 0x2CC89, size: 0x8, addend: 0x0, symName: __RNCINvNtNtCsiTraAjBDcu4_5alloc3vec16in_place_collect24write_in_place_with_dropNtNtCsc29TF2YcYso_3syn4stmt4StmtE0CsfQFyxU9Vz2T_11yoke_derive, symObjAddr: 0x3E60, symBinAddr: 0xC488, symSize: 0x60 }
  - { offset: 0x2CD0B, size: 0x8, addend: 0x0, symName: __RNCINvNtNtCsiTraAjBDcu4_5alloc3vec16in_place_collect24write_in_place_with_dropTNtNtCsc29TF2YcYso_3syn2ty4TypeNtNtB1j_5token5CommaEE0CsfQFyxU9Vz2T_11yoke_derive, symObjAddr: 0x3EC0, symBinAddr: 0xC4E8, symSize: 0x60 }
  - { offset: 0x2CD8D, size: 0x8, addend: 0x0, symName: __RNCINvNtNtCsiTraAjBDcu4_5alloc3vec16in_place_collect24write_in_place_with_dropTNtNtCsc29TF2YcYso_3syn2ty9BareFnArgNtNtB1j_5token5CommaEE0CsfQFyxU9Vz2T_11yoke_derive, symObjAddr: 0x3F20, symBinAddr: 0xC548, symSize: 0x60 }
  - { offset: 0x2CE0F, size: 0x8, addend: 0x0, symName: __RNCINvNtNtCsiTraAjBDcu4_5alloc3vec16in_place_collect24write_in_place_with_dropTNtNtCsc29TF2YcYso_3syn3pat3PatNtNtB1j_5token2OrEE0CsfQFyxU9Vz2T_11yoke_derive, symObjAddr: 0x3F80, symBinAddr: 0xC5A8, symSize: 0x60 }
  - { offset: 0x2CE91, size: 0x8, addend: 0x0, symName: __RNCINvNtNtCsiTraAjBDcu4_5alloc3vec16in_place_collect24write_in_place_with_dropTNtNtCsc29TF2YcYso_3syn3pat3PatNtNtB1j_5token5CommaEE0CsfQFyxU9Vz2T_11yoke_derive, symObjAddr: 0x3FE0, symBinAddr: 0xC608, symSize: 0x60 }
  - { offset: 0x2CF13, size: 0x8, addend: 0x0, symName: __RNCINvNtNtCsiTraAjBDcu4_5alloc3vec16in_place_collect24write_in_place_with_dropTNtNtCsc29TF2YcYso_3syn3pat8FieldPatNtNtB1j_5token5CommaEE0CsfQFyxU9Vz2T_11yoke_derive, symObjAddr: 0x4040, symBinAddr: 0xC668, symSize: 0x60 }
  - { offset: 0x2CF95, size: 0x8, addend: 0x0, symName: __RNCINvNtNtCsiTraAjBDcu4_5alloc3vec16in_place_collect24write_in_place_with_dropTNtNtCsc29TF2YcYso_3syn4data5FieldNtNtB1j_5token5CommaEE0CsfQFyxU9Vz2T_11yoke_derive, symObjAddr: 0x40A0, symBinAddr: 0xC6C8, symSize: 0x60 }
  - { offset: 0x2D017, size: 0x8, addend: 0x0, symName: __RNCINvNtNtCsiTraAjBDcu4_5alloc3vec16in_place_collect24write_in_place_with_dropTNtNtCsc29TF2YcYso_3syn4data7VariantNtNtB1j_5token5CommaEE0CsfQFyxU9Vz2T_11yoke_derive, symObjAddr: 0x4100, symBinAddr: 0xC728, symSize: 0x60 }
  - { offset: 0x2D099, size: 0x8, addend: 0x0, symName: __RNCINvNtNtCsiTraAjBDcu4_5alloc3vec16in_place_collect24write_in_place_with_dropTNtNtCsc29TF2YcYso_3syn4expr10FieldValueNtNtB1j_5token5CommaEE0CsfQFyxU9Vz2T_11yoke_derive, symObjAddr: 0x4160, symBinAddr: 0xC788, symSize: 0x60 }
  - { offset: 0x2D11B, size: 0x8, addend: 0x0, symName: __RNCINvNtNtCsiTraAjBDcu4_5alloc3vec16in_place_collect24write_in_place_with_dropTNtNtCsc29TF2YcYso_3syn4expr4ExprNtNtB1j_5token5CommaEE0CsfQFyxU9Vz2T_11yoke_derive, symObjAddr: 0x41C0, symBinAddr: 0xC7E8, symSize: 0x60 }
  - { offset: 0x2D19D, size: 0x8, addend: 0x0, symName: __RNCINvNtNtCsiTraAjBDcu4_5alloc3vec16in_place_collect24write_in_place_with_dropTNtNtCsc29TF2YcYso_3syn4item5FnArgNtNtB1j_5token5CommaEE0CsfQFyxU9Vz2T_11yoke_derive, symObjAddr: 0x4220, symBinAddr: 0xC848, symSize: 0x60 }
  - { offset: 0x2D21F, size: 0x8, addend: 0x0, symName: __RNCINvNtNtCsiTraAjBDcu4_5alloc3vec16in_place_collect24write_in_place_with_dropTNtNtCsc29TF2YcYso_3syn4item7UseTreeNtNtB1j_5token5CommaEE0CsfQFyxU9Vz2T_11yoke_derive, symObjAddr: 0x4280, symBinAddr: 0xC8A8, symSize: 0x60 }
  - { offset: 0x2D2A1, size: 0x8, addend: 0x0, symName: __RNCINvNtNtCsiTraAjBDcu4_5alloc3vec16in_place_collect24write_in_place_with_dropTNtNtCsc29TF2YcYso_3syn4path11PathSegmentNtNtB1j_5token7PathSepEE0CsfQFyxU9Vz2T_11yoke_derive, symObjAddr: 0x42E0, symBinAddr: 0xC908, symSize: 0x60 }
  - { offset: 0x2D323, size: 0x8, addend: 0x0, symName: __RNCINvNtNtCsiTraAjBDcu4_5alloc3vec16in_place_collect24write_in_place_with_dropTNtNtCsc29TF2YcYso_3syn4path15GenericArgumentNtNtB1j_5token5CommaEE0CsfQFyxU9Vz2T_11yoke_derive, symObjAddr: 0x4340, symBinAddr: 0xC968, symSize: 0x60 }
  - { offset: 0x2D3A5, size: 0x8, addend: 0x0, symName: __RNCINvNtNtCsiTraAjBDcu4_5alloc3vec16in_place_collect24write_in_place_with_dropTNtNtCsc29TF2YcYso_3syn8generics12GenericParamNtNtB1j_5token5CommaEE0CsfQFyxU9Vz2T_11yoke_derive, symObjAddr: 0x43A0, symBinAddr: 0xC9C8, symSize: 0x60 }
  - { offset: 0x2D427, size: 0x8, addend: 0x0, symName: __RNCINvNtNtCsiTraAjBDcu4_5alloc3vec16in_place_collect24write_in_place_with_dropTNtNtCsc29TF2YcYso_3syn8generics13CapturedParamNtNtB1j_5token5CommaEE0CsfQFyxU9Vz2T_11yoke_derive, symObjAddr: 0x4400, symBinAddr: 0xCA28, symSize: 0x60 }
  - { offset: 0x2D4A9, size: 0x8, addend: 0x0, symName: __RNCINvNtNtCsiTraAjBDcu4_5alloc3vec16in_place_collect24write_in_place_with_dropTNtNtCsc29TF2YcYso_3syn8generics14TypeParamBoundNtNtB1j_5token4PlusEE0CsfQFyxU9Vz2T_11yoke_derive, symObjAddr: 0x4460, symBinAddr: 0xCA88, symSize: 0x60 }
  - { offset: 0x2D52B, size: 0x8, addend: 0x0, symName: __RNCINvNtNtCsiTraAjBDcu4_5alloc3vec16in_place_collect24write_in_place_with_dropTNtNtCsc29TF2YcYso_3syn8generics14WherePredicateNtNtB1j_5token5CommaEE0CsfQFyxU9Vz2T_11yoke_derive, symObjAddr: 0x44C0, symBinAddr: 0xCAE8, symSize: 0x60 }
  - { offset: 0x2D5AD, size: 0x8, addend: 0x0, symName: __RNCINvNtNtCsiTraAjBDcu4_5alloc3vec16in_place_collect24write_in_place_with_dropTNtNtCsc29TF2YcYso_3syn8lifetime8LifetimeNtNtB1j_5token4PlusEE0CsfQFyxU9Vz2T_11yoke_derive, symObjAddr: 0x4520, symBinAddr: 0xCB48, symSize: 0x60 }
  - { offset: 0x383CF, size: 0x8, addend: 0x0, symName: __RINvNtNtCsc29TF2YcYso_3syn3gen4fold10fold_blockNtNvCsfQFyxU9Vz2T_11yoke_derive16replace_lifetime15ReplaceLifetimeEBN_, symObjAddr: 0x0, symBinAddr: 0xCBA8, symSize: 0x90 }
  - { offset: 0x38D26, size: 0x8, addend: 0x0, symName: __RINvNtNtCsc29TF2YcYso_3syn3gen4fold10fold_blockNtNvCsfQFyxU9Vz2T_11yoke_derive16replace_lifetime15ReplaceLifetimeEBN_, symObjAddr: 0x0, symBinAddr: 0xCBA8, symSize: 0x90 }
  - { offset: 0x38D6D, size: 0x8, addend: 0x0, symName: __RINvNtNtCsc29TF2YcYso_3syn3gen4fold10fold_fieldNtNvCsfQFyxU9Vz2T_11yoke_derive16replace_lifetime15ReplaceLifetimeEBN_, symObjAddr: 0x90, symBinAddr: 0xCC38, symSize: 0x22C }
  - { offset: 0x38DB4, size: 0x8, addend: 0x0, symName: __RINvNtNtCsc29TF2YcYso_3syn3gen4fold10fold_identNtNvCsfQFyxU9Vz2T_11yoke_derive16replace_lifetime15ReplaceLifetimeEBN_, symObjAddr: 0x2BC, symBinAddr: 0xCE64, symSize: 0xB8 }
  - { offset: 0x38E2F, size: 0x8, addend: 0x0, symName: __RINvNtNtCsc29TF2YcYso_3syn3gen4fold10fold_indexNtNvCsfQFyxU9Vz2T_11yoke_derive16replace_lifetime15ReplaceLifetimeEBN_, symObjAddr: 0x374, symBinAddr: 0xCF1C, symSize: 0x50 }
  - { offset: 0x38E75, size: 0x8, addend: 0x0, symName: __RINvNtNtCsc29TF2YcYso_3syn3gen4fold10fold_labelNtNvCsfQFyxU9Vz2T_11yoke_derive16replace_lifetime15ReplaceLifetimeEBN_, symObjAddr: 0x3C4, symBinAddr: 0xCF6C, symSize: 0x80 }
  - { offset: 0x38EBC, size: 0x8, addend: 0x0, symName: __RINvNtNtCsc29TF2YcYso_3syn3gen4fold10fold_localNtNvCsfQFyxU9Vz2T_11yoke_derive16replace_lifetime15ReplaceLifetimeEBN_, symObjAddr: 0x444, symBinAddr: 0xCFEC, symSize: 0x1D8 }
  - { offset: 0x38F03, size: 0x8, addend: 0x0, symName: __RINvNtNtCsc29TF2YcYso_3syn3gen4fold10fold_macroNtNvCsfQFyxU9Vz2T_11yoke_derive16replace_lifetime15ReplaceLifetimeEBN_, symObjAddr: 0x61C, symBinAddr: 0xD1C4, symSize: 0x164 }
  - { offset: 0x38F4A, size: 0x8, addend: 0x0, symName: __RINvNtNtCsc29TF2YcYso_3syn3gen4fold10fold_qselfNtNvCsfQFyxU9Vz2T_11yoke_derive16replace_lifetime15ReplaceLifetimeEBN_, symObjAddr: 0x780, symBinAddr: 0xD328, symSize: 0x1CC }
  - { offset: 0x38FB0, size: 0x8, addend: 0x0, symName: __RINvNtNtCsc29TF2YcYso_3syn3gen4fold10fold_un_opNtNvCsfQFyxU9Vz2T_11yoke_derive16replace_lifetime15ReplaceLifetimeEBN_, symObjAddr: 0x94C, symBinAddr: 0xD4F4, symSize: 0xCC }
  - { offset: 0x39050, size: 0x8, addend: 0x0, symName: __RINvNtNtCsc29TF2YcYso_3syn3gen4fold11fold_bin_opNtNvCsfQFyxU9Vz2T_11yoke_derive16replace_lifetime15ReplaceLifetimeEBO_, symObjAddr: 0xA18, symBinAddr: 0xD5C0, symSize: 0x6B0 }
  - { offset: 0x393F6, size: 0x8, addend: 0x0, symName: __RINvNtNtCsc29TF2YcYso_3syn3gen4fold11fold_fieldsNtNvCsfQFyxU9Vz2T_11yoke_derive16replace_lifetime15ReplaceLifetimeEBO_, symObjAddr: 0x10C8, symBinAddr: 0xDC70, symSize: 0x14C }
  - { offset: 0x3947B, size: 0x8, addend: 0x0, symName: __RINvNtNtCsc29TF2YcYso_3syn3gen4fold11fold_fn_argNtNvCsfQFyxU9Vz2T_11yoke_derive16replace_lifetime15ReplaceLifetimeEBO_, symObjAddr: 0x1214, symBinAddr: 0xDDBC, symSize: 0x10C }
  - { offset: 0x394F8, size: 0x8, addend: 0x0, symName: __RINvNtNtCsc29TF2YcYso_3syn3gen4fold11fold_memberNtNvCsfQFyxU9Vz2T_11yoke_derive16replace_lifetime15ReplaceLifetimeEBO_, symObjAddr: 0x1320, symBinAddr: 0xDEC8, symSize: 0xD4 }
  - { offset: 0x39573, size: 0x8, addend: 0x0, symName: __RINvNtNtCsc29TF2YcYso_3syn3gen4fold11fold_pat_orNtNvCsfQFyxU9Vz2T_11yoke_derive16replace_lifetime15ReplaceLifetimeEBO_, symObjAddr: 0x13F4, symBinAddr: 0xDF9C, symSize: 0x120 }
  - { offset: 0x395BA, size: 0x8, addend: 0x0, symName: __RINvNtNtCsc29TF2YcYso_3syn3gen4fold12fold_expr_ifNtNvCsfQFyxU9Vz2T_11yoke_derive16replace_lifetime15ReplaceLifetimeEBP_, symObjAddr: 0x1514, symBinAddr: 0xE0BC, symSize: 0x318 }
  - { offset: 0x39620, size: 0x8, addend: 0x0, symName: __RINvNtNtCsc29TF2YcYso_3syn3gen4fold12fold_item_fnNtNvCsfQFyxU9Vz2T_11yoke_derive16replace_lifetime15ReplaceLifetimeEBP_, symObjAddr: 0x182C, symBinAddr: 0xE3D4, symSize: 0x304 }
  - { offset: 0x39686, size: 0x8, addend: 0x0, symName: __RINvNtNtCsc29TF2YcYso_3syn3gen4fold12fold_lit_intNtNvCsfQFyxU9Vz2T_11yoke_derive16replace_lifetime15ReplaceLifetimeEBP_, symObjAddr: 0x1B30, symBinAddr: 0xE6D8, symSize: 0xDC }
  - { offset: 0x39700, size: 0x8, addend: 0x0, symName: __RINvNtNtCsc29TF2YcYso_3syn3gen4fold12fold_lit_strNtNvCsfQFyxU9Vz2T_11yoke_derive16replace_lifetime15ReplaceLifetimeEBP_, symObjAddr: 0x1C0C, symBinAddr: 0xE7B4, symSize: 0xDC }
  - { offset: 0x3977A, size: 0x8, addend: 0x0, symName: __RINvNtNtCsc29TF2YcYso_3syn3gen4fold12fold_variantNtNvCsfQFyxU9Vz2T_11yoke_derive16replace_lifetime15ReplaceLifetimeEBP_, symObjAddr: 0x1CE8, symBinAddr: 0xE890, symSize: 0x228 }
  - { offset: 0x397C1, size: 0x8, addend: 0x0, symName: __RINvNtNtCsc29TF2YcYso_3syn3gen4fold13fold_expr_letNtNvCsfQFyxU9Vz2T_11yoke_derive16replace_lifetime15ReplaceLifetimeEBQ_, symObjAddr: 0x1F10, symBinAddr: 0xEAB8, symSize: 0x3B8 }
  - { offset: 0x39847, size: 0x8, addend: 0x0, symName: __RINvNtNtCsc29TF2YcYso_3syn3gen4fold13fold_expr_litNtNvCsfQFyxU9Vz2T_11yoke_derive16replace_lifetime15ReplaceLifetimeEBQ_, symObjAddr: 0x22C8, symBinAddr: 0xEE70, symSize: 0x110 }
  - { offset: 0x3988E, size: 0x8, addend: 0x0, symName: __RINvNtNtCsc29TF2YcYso_3syn3gen4fold13fold_expr_tryNtNvCsfQFyxU9Vz2T_11yoke_derive16replace_lifetime15ReplaceLifetimeEBQ_, symObjAddr: 0x23D8, symBinAddr: 0xEF80, symSize: 0x210 }
  - { offset: 0x398F4, size: 0x8, addend: 0x0, symName: __RINvNtNtCsc29TF2YcYso_3syn3gen4fold13fold_genericsNtNvCsfQFyxU9Vz2T_11yoke_derive16replace_lifetime15ReplaceLifetimeEBQ_, symObjAddr: 0x25E8, symBinAddr: 0xF190, symSize: 0x148 }
  - { offset: 0x3993B, size: 0x8, addend: 0x0, symName: __RINvNtNtCsc29TF2YcYso_3syn3gen4fold13fold_item_modNtNvCsfQFyxU9Vz2T_11yoke_derive16replace_lifetime15ReplaceLifetimeEBQ_, symObjAddr: 0x2730, symBinAddr: 0xF2D8, symSize: 0x264 }
  - { offset: 0x39982, size: 0x8, addend: 0x0, symName: __RINvNtNtCsc29TF2YcYso_3syn3gen4fold13fold_item_useNtNvCsfQFyxU9Vz2T_11yoke_derive16replace_lifetime15ReplaceLifetimeEBQ_, symObjAddr: 0x2994, symBinAddr: 0xF53C, symSize: 0x1E8 }
  - { offset: 0x399C9, size: 0x8, addend: 0x0, symName: __RINvNtNtCsc29TF2YcYso_3syn3gen4fold13fold_lit_boolNtNvCsfQFyxU9Vz2T_11yoke_derive16replace_lifetime15ReplaceLifetimeEBQ_, symObjAddr: 0x2B7C, symBinAddr: 0xF724, symSize: 0x44 }
  - { offset: 0x39A0F, size: 0x8, addend: 0x0, symName: __RINvNtNtCsc29TF2YcYso_3syn3gen4fold13fold_lit_byteNtNvCsfQFyxU9Vz2T_11yoke_derive16replace_lifetime15ReplaceLifetimeEBQ_, symObjAddr: 0x2BC0, symBinAddr: 0xF768, symSize: 0xDC }
  - { offset: 0x39A89, size: 0x8, addend: 0x0, symName: __RINvNtNtCsc29TF2YcYso_3syn3gen4fold13fold_lit_charNtNvCsfQFyxU9Vz2T_11yoke_derive16replace_lifetime15ReplaceLifetimeEBQ_, symObjAddr: 0x2C9C, symBinAddr: 0xF844, symSize: 0xDC }
  - { offset: 0x39B03, size: 0x8, addend: 0x0, symName: __RINvNtNtCsc29TF2YcYso_3syn3gen4fold13fold_lit_cstrNtNvCsfQFyxU9Vz2T_11yoke_derive16replace_lifetime15ReplaceLifetimeEBQ_, symObjAddr: 0x2D78, symBinAddr: 0xF920, symSize: 0xDC }
  - { offset: 0x39B7D, size: 0x8, addend: 0x0, symName: __RINvNtNtCsc29TF2YcYso_3syn3gen4fold13fold_pat_restNtNvCsfQFyxU9Vz2T_11yoke_derive16replace_lifetime15ReplaceLifetimeEBQ_, symObjAddr: 0x2E54, symBinAddr: 0xF9FC, symSize: 0x80 }
  - { offset: 0x39BC4, size: 0x8, addend: 0x0, symName: __RINvNtNtCsc29TF2YcYso_3syn3gen4fold13fold_pat_typeNtNvCsfQFyxU9Vz2T_11yoke_derive16replace_lifetime15ReplaceLifetimeEBQ_, symObjAddr: 0x2ED4, symBinAddr: 0xFA7C, symSize: 0x3AC }
  - { offset: 0x39C4A, size: 0x8, addend: 0x0, symName: __RINvNtNtCsc29TF2YcYso_3syn3gen4fold13fold_pat_wildNtNvCsfQFyxU9Vz2T_11yoke_derive16replace_lifetime15ReplaceLifetimeEBQ_, symObjAddr: 0x3280, symBinAddr: 0xFE28, symSize: 0x80 }
  - { offset: 0x39C91, size: 0x8, addend: 0x0, symName: __RINvNtNtCsc29TF2YcYso_3syn3gen4fold13fold_receiverNtNvCsfQFyxU9Vz2T_11yoke_derive16replace_lifetime15ReplaceLifetimeEBQ_, symObjAddr: 0x3300, symBinAddr: 0xFEA8, symSize: 0x2CC }
  - { offset: 0x39CF7, size: 0x8, addend: 0x0, symName: __RINvNtNtCsc29TF2YcYso_3syn3gen4fold13fold_type_ptrNtNvCsfQFyxU9Vz2T_11yoke_derive16replace_lifetime15ReplaceLifetimeEBQ_, symObjAddr: 0x35CC, symBinAddr: 0x10174, symSize: 0x1E4 }
  - { offset: 0x39D5D, size: 0x8, addend: 0x0, symName: __RINvNtNtCsc29TF2YcYso_3syn3gen4fold13fold_use_globNtNvCsfQFyxU9Vz2T_11yoke_derive16replace_lifetime15ReplaceLifetimeEBQ_, symObjAddr: 0x37B0, symBinAddr: 0x10358, symSize: 0x40 }
  - { offset: 0x39DA3, size: 0x8, addend: 0x0, symName: __RINvNtNtCsc29TF2YcYso_3syn3gen4fold13fold_use_nameNtNvCsfQFyxU9Vz2T_11yoke_derive16replace_lifetime15ReplaceLifetimeEBQ_, symObjAddr: 0x37F0, symBinAddr: 0x10398, symSize: 0x68 }
  - { offset: 0x39DEA, size: 0x8, addend: 0x0, symName: __RINvNtNtCsc29TF2YcYso_3syn3gen4fold13fold_use_pathNtNvCsfQFyxU9Vz2T_11yoke_derive16replace_lifetime15ReplaceLifetimeEBQ_, symObjAddr: 0x3858, symBinAddr: 0x10400, symSize: 0x210 }
  - { offset: 0x39E50, size: 0x8, addend: 0x0, symName: __RINvNtNtCsc29TF2YcYso_3syn3gen4fold13fold_use_treeNtNvCsfQFyxU9Vz2T_11yoke_derive16replace_lifetime15ReplaceLifetimeEBQ_, symObjAddr: 0x3A68, symBinAddr: 0x10610, symSize: 0x260 }
  - { offset: 0x39F2A, size: 0x8, addend: 0x0, symName: __RINvNtNtCsc29TF2YcYso_3syn3gen4fold13fold_variadicNtNvCsfQFyxU9Vz2T_11yoke_derive16replace_lifetime15ReplaceLifetimeEBQ_, symObjAddr: 0x3CC8, symBinAddr: 0x10870, symSize: 0x134 }
  - { offset: 0x39F71, size: 0x8, addend: 0x0, symName: __RINvNtNtCsc29TF2YcYso_3syn3gen4fold14fold_attributeNtNvCsfQFyxU9Vz2T_11yoke_derive16replace_lifetime15ReplaceLifetimeEBR_, symObjAddr: 0x3DFC, symBinAddr: 0x109A4, symSize: 0x14C }
  - { offset: 0x39FB8, size: 0x8, addend: 0x0, symName: __RINvNtNtCsc29TF2YcYso_3syn3gen4fold14fold_expr_callNtNvCsfQFyxU9Vz2T_11yoke_derive16replace_lifetime15ReplaceLifetimeEBR_, symObjAddr: 0x3F48, symBinAddr: 0x10AF0, symSize: 0x2B4 }
  - { offset: 0x3A01E, size: 0x8, addend: 0x0, symName: __RINvNtNtCsc29TF2YcYso_3syn3gen4fold14fold_expr_castNtNvCsfQFyxU9Vz2T_11yoke_derive16replace_lifetime15ReplaceLifetimeEBR_, symObjAddr: 0x41FC, symBinAddr: 0x10DA4, symSize: 0x3AC }
  - { offset: 0x3A0A4, size: 0x8, addend: 0x0, symName: __RINvNtNtCsc29TF2YcYso_3syn3gen4fold14fold_expr_loopNtNvCsfQFyxU9Vz2T_11yoke_derive16replace_lifetime15ReplaceLifetimeEBR_, symObjAddr: 0x45A8, symBinAddr: 0x11150, symSize: 0x1C0 }
  - { offset: 0x3A0EB, size: 0x8, addend: 0x0, symName: __RINvNtNtCsc29TF2YcYso_3syn3gen4fold14fold_expr_pathNtNvCsfQFyxU9Vz2T_11yoke_derive16replace_lifetime15ReplaceLifetimeEBR_, symObjAddr: 0x4768, symBinAddr: 0x11310, symSize: 0x1A0 }
  - { offset: 0x3A132, size: 0x8, addend: 0x0, symName: __RINvNtNtCsc29TF2YcYso_3syn3gen4fold14fold_field_patNtNvCsfQFyxU9Vz2T_11yoke_derive16replace_lifetime15ReplaceLifetimeEBR_, symObjAddr: 0x4908, symBinAddr: 0x114B0, symSize: 0x28C }
  - { offset: 0x3A198, size: 0x8, addend: 0x0, symName: __RINvNtNtCsc29TF2YcYso_3syn3gen4fold14fold_impl_itemNtNvCsfQFyxU9Vz2T_11yoke_derive16replace_lifetime15ReplaceLifetimeEBR_, symObjAddr: 0x4B94, symBinAddr: 0x1173C, symSize: 0x284 }
  - { offset: 0x3A272, size: 0x8, addend: 0x0, symName: __RINvNtNtCsc29TF2YcYso_3syn3gen4fold14fold_item_enumNtNvCsfQFyxU9Vz2T_11yoke_derive16replace_lifetime15ReplaceLifetimeEBR_, symObjAddr: 0x4E18, symBinAddr: 0x119C0, symSize: 0x2E0 }
  - { offset: 0x3A2B9, size: 0x8, addend: 0x0, symName: __RINvNtNtCsc29TF2YcYso_3syn3gen4fold14fold_item_implNtNvCsfQFyxU9Vz2T_11yoke_derive16replace_lifetime15ReplaceLifetimeEBR_, symObjAddr: 0x50F8, symBinAddr: 0x11CA0, symSize: 0x410 }
  - { offset: 0x3A31F, size: 0x8, addend: 0x0, symName: __RINvNtNtCsc29TF2YcYso_3syn3gen4fold14fold_item_typeNtNvCsfQFyxU9Vz2T_11yoke_derive16replace_lifetime15ReplaceLifetimeEBR_, symObjAddr: 0x5508, symBinAddr: 0x120B0, symSize: 0x3B8 }
  - { offset: 0x3A385, size: 0x8, addend: 0x0, symName: __RINvNtNtCsc29TF2YcYso_3syn3gen4fold14fold_lit_floatNtNvCsfQFyxU9Vz2T_11yoke_derive16replace_lifetime15ReplaceLifetimeEBR_, symObjAddr: 0x58C0, symBinAddr: 0x12468, symSize: 0xDC }
  - { offset: 0x3A3FF, size: 0x8, addend: 0x0, symName: __RINvNtNtCsc29TF2YcYso_3syn3gen4fold14fold_meta_listNtNvCsfQFyxU9Vz2T_11yoke_derive16replace_lifetime15ReplaceLifetimeEBR_, symObjAddr: 0x599C, symBinAddr: 0x12544, symSize: 0x144 }
  - { offset: 0x3A446, size: 0x8, addend: 0x0, symName: __RINvNtNtCsc29TF2YcYso_3syn3gen4fold14fold_pat_identNtNvCsfQFyxU9Vz2T_11yoke_derive16replace_lifetime15ReplaceLifetimeEBR_, symObjAddr: 0x5AE0, symBinAddr: 0x12688, symSize: 0x1BC }
  - { offset: 0x3A48D, size: 0x8, addend: 0x0, symName: __RINvNtNtCsc29TF2YcYso_3syn3gen4fold14fold_pat_parenNtNvCsfQFyxU9Vz2T_11yoke_derive16replace_lifetime15ReplaceLifetimeEBR_, symObjAddr: 0x5C9C, symBinAddr: 0x12844, symSize: 0x220 }
  - { offset: 0x3A4F3, size: 0x8, addend: 0x0, symName: __RINvNtNtCsc29TF2YcYso_3syn3gen4fold14fold_pat_sliceNtNvCsfQFyxU9Vz2T_11yoke_derive16replace_lifetime15ReplaceLifetimeEBR_, symObjAddr: 0x5EBC, symBinAddr: 0x12A64, symSize: 0x130 }
  - { offset: 0x3A53A, size: 0x8, addend: 0x0, symName: __RINvNtNtCsc29TF2YcYso_3syn3gen4fold14fold_pat_tupleNtNvCsfQFyxU9Vz2T_11yoke_derive16replace_lifetime15ReplaceLifetimeEBR_, symObjAddr: 0x5FEC, symBinAddr: 0x12B94, symSize: 0x130 }
  - { offset: 0x3A581, size: 0x8, addend: 0x0, symName: __RINvNtNtCsc29TF2YcYso_3syn3gen4fold14fold_signatureNtNvCsfQFyxU9Vz2T_11yoke_derive16replace_lifetime15ReplaceLifetimeEBR_, symObjAddr: 0x611C, symBinAddr: 0x12CC4, symSize: 0x3CC }
  - { offset: 0x3A5C8, size: 0x8, addend: 0x0, symName: __RINvNtNtCsc29TF2YcYso_3syn3gen4fold14fold_type_pathNtNvCsfQFyxU9Vz2T_11yoke_derive16replace_lifetime15ReplaceLifetimeEBR_, symObjAddr: 0x64E8, symBinAddr: 0x13090, symSize: 0x114 }
  - { offset: 0x3A60F, size: 0x8, addend: 0x0, symName: __RINvNtNtCsc29TF2YcYso_3syn3gen4fold14fold_use_groupNtNvCsfQFyxU9Vz2T_11yoke_derive16replace_lifetime15ReplaceLifetimeEBR_, symObjAddr: 0x65FC, symBinAddr: 0x131A4, symSize: 0x90 }
  - { offset: 0x3A656, size: 0x8, addend: 0x0, symName: __RINvNtNtCsc29TF2YcYso_3syn3gen4fold15fold_assoc_typeNtNvCsfQFyxU9Vz2T_11yoke_derive16replace_lifetime15ReplaceLifetimeEBS_, symObjAddr: 0x668C, symBinAddr: 0x13234, symSize: 0x1BC }
  - { offset: 0x3A69D, size: 0x8, addend: 0x0, symName: __RINvNtNtCsc29TF2YcYso_3syn3gen4fold15fold_attr_styleNtNvCsfQFyxU9Vz2T_11yoke_derive16replace_lifetime15ReplaceLifetimeEBS_, symObjAddr: 0x6848, symBinAddr: 0x133F0, symSize: 0x7C }
  - { offset: 0x3A701, size: 0x8, addend: 0x0, symName: __RINvNtNtCsc29TF2YcYso_3syn3gen4fold15fold_constraintNtNvCsfQFyxU9Vz2T_11yoke_derive16replace_lifetime15ReplaceLifetimeEBS_, symObjAddr: 0x68C4, symBinAddr: 0x1346C, symSize: 0x1C0 }
  - { offset: 0x3A748, size: 0x8, addend: 0x0, symName: __RINvNtNtCsc29TF2YcYso_3syn3gen4fold15fold_expr_arrayNtNvCsfQFyxU9Vz2T_11yoke_derive16replace_lifetime15ReplaceLifetimeEBS_, symObjAddr: 0x6A84, symBinAddr: 0x1362C, symSize: 0x130 }
  - { offset: 0x3A78F, size: 0x8, addend: 0x0, symName: __RINvNtNtCsc29TF2YcYso_3syn3gen4fold15fold_expr_asyncNtNvCsfQFyxU9Vz2T_11yoke_derive16replace_lifetime15ReplaceLifetimeEBS_, symObjAddr: 0x6BB4, symBinAddr: 0x1375C, symSize: 0x14C }
  - { offset: 0x3A7D6, size: 0x8, addend: 0x0, symName: __RINvNtNtCsc29TF2YcYso_3syn3gen4fold15fold_expr_awaitNtNvCsfQFyxU9Vz2T_11yoke_derive16replace_lifetime15ReplaceLifetimeEBS_, symObjAddr: 0x6D00, symBinAddr: 0x138A8, symSize: 0x218 }
  - { offset: 0x3A83C, size: 0x8, addend: 0x0, symName: __RINvNtNtCsc29TF2YcYso_3syn3gen4fold15fold_expr_blockNtNvCsfQFyxU9Vz2T_11yoke_derive16replace_lifetime15ReplaceLifetimeEBS_, symObjAddr: 0x6F18, symBinAddr: 0x13AC0, symSize: 0x1B0 }
  - { offset: 0x3A883, size: 0x8, addend: 0x0, symName: __RINvNtNtCsc29TF2YcYso_3syn3gen4fold15fold_expr_breakNtNvCsfQFyxU9Vz2T_11yoke_derive16replace_lifetime15ReplaceLifetimeEBS_, symObjAddr: 0x70C8, symBinAddr: 0x13C70, symSize: 0x184 }
  - { offset: 0x3A8CA, size: 0x8, addend: 0x0, symName: __RINvNtNtCsc29TF2YcYso_3syn3gen4fold15fold_expr_constNtNvCsfQFyxU9Vz2T_11yoke_derive16replace_lifetime15ReplaceLifetimeEBS_, symObjAddr: 0x724C, symBinAddr: 0x13DF4, symSize: 0x12C }
  - { offset: 0x3A911, size: 0x8, addend: 0x0, symName: __RINvNtNtCsc29TF2YcYso_3syn3gen4fold15fold_expr_fieldNtNvCsfQFyxU9Vz2T_11yoke_derive16replace_lifetime15ReplaceLifetimeEBS_, symObjAddr: 0x7378, symBinAddr: 0x13F20, symSize: 0x294 }
  - { offset: 0x3A977, size: 0x8, addend: 0x0, symName: __RINvNtNtCsc29TF2YcYso_3syn3gen4fold15fold_expr_groupNtNvCsfQFyxU9Vz2T_11yoke_derive16replace_lifetime15ReplaceLifetimeEBS_, symObjAddr: 0x760C, symBinAddr: 0x141B4, symSize: 0x210 }
  - { offset: 0x3A9DD, size: 0x8, addend: 0x0, symName: __RINvNtNtCsc29TF2YcYso_3syn3gen4fold15fold_expr_indexNtNvCsfQFyxU9Vz2T_11yoke_derive16replace_lifetime15ReplaceLifetimeEBS_, symObjAddr: 0x781C, symBinAddr: 0x143C4, symSize: 0x3B8 }
  - { offset: 0x3AA63, size: 0x8, addend: 0x0, symName: __RINvNtNtCsc29TF2YcYso_3syn3gen4fold15fold_expr_inferNtNvCsfQFyxU9Vz2T_11yoke_derive16replace_lifetime15ReplaceLifetimeEBS_, symObjAddr: 0x7BD4, symBinAddr: 0x1477C, symSize: 0x80 }
  - { offset: 0x3AAAA, size: 0x8, addend: 0x0, symName: __RINvNtNtCsc29TF2YcYso_3syn3gen4fold15fold_expr_macroNtNvCsfQFyxU9Vz2T_11yoke_derive16replace_lifetime15ReplaceLifetimeEBS_, symObjAddr: 0x7C54, symBinAddr: 0x147FC, symSize: 0x124 }
  - { offset: 0x3AAF1, size: 0x8, addend: 0x0, symName: __RINvNtNtCsc29TF2YcYso_3syn3gen4fold15fold_expr_matchNtNvCsfQFyxU9Vz2T_11yoke_derive16replace_lifetime15ReplaceLifetimeEBS_, symObjAddr: 0x7D78, symBinAddr: 0x14920, symSize: 0x2B4 }
  - { offset: 0x3AB57, size: 0x8, addend: 0x0, symName: __RINvNtNtCsc29TF2YcYso_3syn3gen4fold15fold_expr_parenNtNvCsfQFyxU9Vz2T_11yoke_derive16replace_lifetime15ReplaceLifetimeEBS_, symObjAddr: 0x802C, symBinAddr: 0x14BD4, symSize: 0x220 }
  - { offset: 0x3ABBD, size: 0x8, addend: 0x0, symName: __RINvNtNtCsc29TF2YcYso_3syn3gen4fold15fold_expr_rangeNtNvCsfQFyxU9Vz2T_11yoke_derive16replace_lifetime15ReplaceLifetimeEBS_, symObjAddr: 0x824C, symBinAddr: 0x14DF4, symSize: 0x18C }
  - { offset: 0x3AC04, size: 0x8, addend: 0x0, symName: __RINvNtNtCsc29TF2YcYso_3syn3gen4fold15fold_expr_tupleNtNvCsfQFyxU9Vz2T_11yoke_derive16replace_lifetime15ReplaceLifetimeEBS_, symObjAddr: 0x83D8, symBinAddr: 0x14F80, symSize: 0x130 }
  - { offset: 0x3AC4B, size: 0x8, addend: 0x0, symName: __RINvNtNtCsc29TF2YcYso_3syn3gen4fold15fold_expr_unaryNtNvCsfQFyxU9Vz2T_11yoke_derive16replace_lifetime15ReplaceLifetimeEBS_, symObjAddr: 0x8508, symBinAddr: 0x150B0, symSize: 0x240 }
  - { offset: 0x3ACB2, size: 0x8, addend: 0x0, symName: __RINvNtNtCsc29TF2YcYso_3syn3gen4fold15fold_expr_whileNtNvCsfQFyxU9Vz2T_11yoke_derive16replace_lifetime15ReplaceLifetimeEBS_, symObjAddr: 0x8748, symBinAddr: 0x152F0, symSize: 0x32C }
  - { offset: 0x3AD18, size: 0x8, addend: 0x0, symName: __RINvNtNtCsc29TF2YcYso_3syn3gen4fold15fold_expr_yieldNtNvCsfQFyxU9Vz2T_11yoke_derive16replace_lifetime15ReplaceLifetimeEBS_, symObjAddr: 0x8A74, symBinAddr: 0x1561C, symSize: 0x108 }
  - { offset: 0x3AD5F, size: 0x8, addend: 0x0, symName: __RINvNtNtCsc29TF2YcYso_3syn3gen4fold15fold_item_constNtNvCsfQFyxU9Vz2T_11yoke_derive16replace_lifetime15ReplaceLifetimeEBS_, symObjAddr: 0x8B7C, symBinAddr: 0x15724, symSize: 0x568 }
  - { offset: 0x3ADE5, size: 0x8, addend: 0x0, symName: __RINvNtNtCsc29TF2YcYso_3syn3gen4fold15fold_item_macroNtNvCsfQFyxU9Vz2T_11yoke_derive16replace_lifetime15ReplaceLifetimeEBS_, symObjAddr: 0x90E4, symBinAddr: 0x15C8C, symSize: 0x1B8 }
  - { offset: 0x3AE2C, size: 0x8, addend: 0x0, symName: __RINvNtNtCsc29TF2YcYso_3syn3gen4fold15fold_item_traitNtNvCsfQFyxU9Vz2T_11yoke_derive16replace_lifetime15ReplaceLifetimeEBS_, symObjAddr: 0x929C, symBinAddr: 0x15E44, symSize: 0x3C0 }
  - { offset: 0x3AE73, size: 0x8, addend: 0x0, symName: __RINvNtNtCsc29TF2YcYso_3syn3gen4fold15fold_item_unionNtNvCsfQFyxU9Vz2T_11yoke_derive16replace_lifetime15ReplaceLifetimeEBS_, symObjAddr: 0x965C, symBinAddr: 0x16204, symSize: 0x2B8 }
  - { offset: 0x3AEBA, size: 0x8, addend: 0x0, symName: __RINvNtNtCsc29TF2YcYso_3syn3gen4fold15fold_local_initNtNvCsfQFyxU9Vz2T_11yoke_derive16replace_lifetime15ReplaceLifetimeEBS_, symObjAddr: 0x9914, symBinAddr: 0x164BC, symSize: 0x220 }
  - { offset: 0x3AF20, size: 0x8, addend: 0x0, symName: __RINvNtNtCsc29TF2YcYso_3syn3gen4fold15fold_pat_structNtNvCsfQFyxU9Vz2T_11yoke_derive16replace_lifetime15ReplaceLifetimeEBS_, symObjAddr: 0x9B34, symBinAddr: 0x166DC, symSize: 0x2D0 }
  - { offset: 0x3AF67, size: 0x8, addend: 0x0, symName: __RINvNtNtCsc29TF2YcYso_3syn3gen4fold15fold_stmt_macroNtNvCsfQFyxU9Vz2T_11yoke_derive16replace_lifetime15ReplaceLifetimeEBS_, symObjAddr: 0x9E04, symBinAddr: 0x169AC, symSize: 0x13C }
  - { offset: 0x3AFAE, size: 0x8, addend: 0x0, symName: __RINvNtNtCsc29TF2YcYso_3syn3gen4fold15fold_trait_itemNtNvCsfQFyxU9Vz2T_11yoke_derive16replace_lifetime15ReplaceLifetimeEBS_, symObjAddr: 0x9F40, symBinAddr: 0x16AE8, symSize: 0x284 }
  - { offset: 0x3B088, size: 0x8, addend: 0x0, symName: __RINvNtNtCsc29TF2YcYso_3syn3gen4fold15fold_type_arrayNtNvCsfQFyxU9Vz2T_11yoke_derive16replace_lifetime15ReplaceLifetimeEBS_, symObjAddr: 0xA1C4, symBinAddr: 0x16D6C, symSize: 0x22C }
  - { offset: 0x3B0EE, size: 0x8, addend: 0x0, symName: __RINvNtNtCsc29TF2YcYso_3syn3gen4fold15fold_type_groupNtNvCsfQFyxU9Vz2T_11yoke_derive16replace_lifetime15ReplaceLifetimeEBS_, symObjAddr: 0xA3F0, symBinAddr: 0x16F98, symSize: 0x170 }
  - { offset: 0x3B153, size: 0x8, addend: 0x0, symName: __RINvNtNtCsc29TF2YcYso_3syn3gen4fold15fold_type_inferNtNvCsfQFyxU9Vz2T_11yoke_derive16replace_lifetime15ReplaceLifetimeEBS_, symObjAddr: 0xA560, symBinAddr: 0x17108, symSize: 0x40 }
  - { offset: 0x3B199, size: 0x8, addend: 0x0, symName: __RINvNtNtCsc29TF2YcYso_3syn3gen4fold15fold_type_macroNtNvCsfQFyxU9Vz2T_11yoke_derive16replace_lifetime15ReplaceLifetimeEBS_, symObjAddr: 0xA5A0, symBinAddr: 0x17148, symSize: 0x78 }
  - { offset: 0x3B1E0, size: 0x8, addend: 0x0, symName: __RINvNtNtCsc29TF2YcYso_3syn3gen4fold15fold_type_neverNtNvCsfQFyxU9Vz2T_11yoke_derive16replace_lifetime15ReplaceLifetimeEBS_, symObjAddr: 0xA618, symBinAddr: 0x171C0, symSize: 0x40 }
  - { offset: 0x3B226, size: 0x8, addend: 0x0, symName: __RINvNtNtCsc29TF2YcYso_3syn3gen4fold15fold_type_paramNtNvCsfQFyxU9Vz2T_11yoke_derive16replace_lifetime15ReplaceLifetimeEBS_, symObjAddr: 0xA658, symBinAddr: 0x17200, symSize: 0x24C }
  - { offset: 0x3B26D, size: 0x8, addend: 0x0, symName: __RINvNtNtCsc29TF2YcYso_3syn3gen4fold15fold_type_parenNtNvCsfQFyxU9Vz2T_11yoke_derive16replace_lifetime15ReplaceLifetimeEBS_, symObjAddr: 0xA8A4, symBinAddr: 0x1744C, symSize: 0x18C }
  - { offset: 0x3B2D3, size: 0x8, addend: 0x0, symName: __RINvNtNtCsc29TF2YcYso_3syn3gen4fold15fold_type_sliceNtNvCsfQFyxU9Vz2T_11yoke_derive16replace_lifetime15ReplaceLifetimeEBS_, symObjAddr: 0xAA30, symBinAddr: 0x175D8, symSize: 0x18C }
  - { offset: 0x3B339, size: 0x8, addend: 0x0, symName: __RINvNtNtCsc29TF2YcYso_3syn3gen4fold15fold_type_tupleNtNvCsfQFyxU9Vz2T_11yoke_derive16replace_lifetime15ReplaceLifetimeEBS_, symObjAddr: 0xABBC, symBinAddr: 0x17764, symSize: 0x90 }
  - { offset: 0x3B380, size: 0x8, addend: 0x0, symName: __RINvNtNtCsc29TF2YcYso_3syn3gen4fold15fold_use_renameNtNvCsfQFyxU9Vz2T_11yoke_derive16replace_lifetime15ReplaceLifetimeEBS_, symObjAddr: 0xAC4C, symBinAddr: 0x177F4, symSize: 0x120 }
  - { offset: 0x3B3C7, size: 0x8, addend: 0x0, symName: __RINvNtNtCsc29TF2YcYso_3syn3gen4fold15fold_visibilityNtNvCsfQFyxU9Vz2T_11yoke_derive16replace_lifetime15ReplaceLifetimeEBS_, symObjAddr: 0xAD6C, symBinAddr: 0x17914, symSize: 0x100 }
  - { offset: 0x3B44A, size: 0x8, addend: 0x0, symName: __RINvNtNtCsc29TF2YcYso_3syn3gen4fold16fold_assoc_constNtNvCsfQFyxU9Vz2T_11yoke_derive16replace_lifetime15ReplaceLifetimeEBT_, symObjAddr: 0xAE6C, symBinAddr: 0x17A14, symSize: 0x1B4 }
  - { offset: 0x3B491, size: 0x8, addend: 0x0, symName: __RINvNtNtCsc29TF2YcYso_3syn3gen4fold16fold_bare_fn_argNtNvCsfQFyxU9Vz2T_11yoke_derive16replace_lifetime15ReplaceLifetimeEBT_, symObjAddr: 0xB020, symBinAddr: 0x17BC8, symSize: 0x19C }
  - { offset: 0x3B4D8, size: 0x8, addend: 0x0, symName: __RINvNtNtCsc29TF2YcYso_3syn3gen4fold16fold_const_paramNtNvCsfQFyxU9Vz2T_11yoke_derive16replace_lifetime15ReplaceLifetimeEBT_, symObjAddr: 0xB1BC, symBinAddr: 0x17D64, symSize: 0x250 }
  - { offset: 0x3B51F, size: 0x8, addend: 0x0, symName: __RINvNtNtCsc29TF2YcYso_3syn3gen4fold16fold_expr_assignNtNvCsfQFyxU9Vz2T_11yoke_derive16replace_lifetime15ReplaceLifetimeEBT_, symObjAddr: 0xB40C, symBinAddr: 0x17FB4, symSize: 0x3A8 }
  - { offset: 0x3B5A5, size: 0x8, addend: 0x0, symName: __RINvNtNtCsc29TF2YcYso_3syn3gen4fold16fold_expr_binaryNtNvCsfQFyxU9Vz2T_11yoke_derive16replace_lifetime15ReplaceLifetimeEBT_, symObjAddr: 0xB7B4, symBinAddr: 0x1835C, symSize: 0x3D0 }
  - { offset: 0x3B62B, size: 0x8, addend: 0x0, symName: __RINvNtNtCsc29TF2YcYso_3syn3gen4fold16fold_expr_repeatNtNvCsfQFyxU9Vz2T_11yoke_derive16replace_lifetime15ReplaceLifetimeEBT_, symObjAddr: 0xBB84, symBinAddr: 0x1872C, symSize: 0x3C8 }
  - { offset: 0x3B6B1, size: 0x8, addend: 0x0, symName: __RINvNtNtCsc29TF2YcYso_3syn3gen4fold16fold_expr_returnNtNvCsfQFyxU9Vz2T_11yoke_derive16replace_lifetime15ReplaceLifetimeEBT_, symObjAddr: 0xBF4C, symBinAddr: 0x18AF4, symSize: 0x108 }
  - { offset: 0x3B6F8, size: 0x8, addend: 0x0, symName: __RINvNtNtCsc29TF2YcYso_3syn3gen4fold16fold_expr_structNtNvCsfQFyxU9Vz2T_11yoke_derive16replace_lifetime15ReplaceLifetimeEBT_, symObjAddr: 0xC054, symBinAddr: 0x18BFC, symSize: 0x2D4 }
  - { offset: 0x3B73F, size: 0x8, addend: 0x0, symName: __RINvNtNtCsc29TF2YcYso_3syn3gen4fold16fold_expr_unsafeNtNvCsfQFyxU9Vz2T_11yoke_derive16replace_lifetime15ReplaceLifetimeEBT_, symObjAddr: 0xC328, symBinAddr: 0x18ED0, symSize: 0x12C }
  - { offset: 0x3B786, size: 0x8, addend: 0x0, symName: __RINvNtNtCsc29TF2YcYso_3syn3gen4fold16fold_field_valueNtNvCsfQFyxU9Vz2T_11yoke_derive16replace_lifetime15ReplaceLifetimeEBT_, symObjAddr: 0xC454, symBinAddr: 0x18FFC, symSize: 0x1A4 }
  - { offset: 0x3B7CD, size: 0x8, addend: 0x0, symName: __RINvNtNtCsc29TF2YcYso_3syn3gen4fold16fold_item_staticNtNvCsfQFyxU9Vz2T_11yoke_derive16replace_lifetime15ReplaceLifetimeEBT_, symObjAddr: 0xC5F8, symBinAddr: 0x191A0, symSize: 0x508 }
  - { offset: 0x3B853, size: 0x8, addend: 0x0, symName: __RINvNtNtCsc29TF2YcYso_3syn3gen4fold16fold_item_structNtNvCsfQFyxU9Vz2T_11yoke_derive16replace_lifetime15ReplaceLifetimeEBT_, symObjAddr: 0xCB00, symBinAddr: 0x196A8, symSize: 0x2C4 }
  - { offset: 0x3B89A, size: 0x8, addend: 0x0, symName: __RINvNtNtCsc29TF2YcYso_3syn3gen4fold16fold_return_typeNtNvCsfQFyxU9Vz2T_11yoke_derive16replace_lifetime15ReplaceLifetimeEBT_, symObjAddr: 0xCDC4, symBinAddr: 0x1996C, symSize: 0x1C0 }
  - { offset: 0x3B928, size: 0x8, addend: 0x0, symName: __RINvNtNtCsc29TF2YcYso_3syn3gen4fold16fold_trait_boundNtNvCsfQFyxU9Vz2T_11yoke_derive16replace_lifetime15ReplaceLifetimeEBT_, symObjAddr: 0xCF84, symBinAddr: 0x19B2C, symSize: 0x19C }
  - { offset: 0x3B96F, size: 0x8, addend: 0x0, symName: __RINvNtNtCsc29TF2YcYso_3syn3gen4fold17fold_expr_closureNtNvCsfQFyxU9Vz2T_11yoke_derive16replace_lifetime15ReplaceLifetimeEBU_, symObjAddr: 0xD120, symBinAddr: 0x19CC8, symSize: 0x428 }
  - { offset: 0x3B9D5, size: 0x8, addend: 0x0, symName: __RINvNtNtCsc29TF2YcYso_3syn3gen4fold17fold_fields_namedNtNvCsfQFyxU9Vz2T_11yoke_derive16replace_lifetime15ReplaceLifetimeEBU_, symObjAddr: 0xD548, symBinAddr: 0x1A0F0, symSize: 0x90 }
  - { offset: 0x3BA1C, size: 0x8, addend: 0x0, symName: __RINvNtNtCsc29TF2YcYso_3syn3gen4fold17fold_foreign_itemNtNvCsfQFyxU9Vz2T_11yoke_derive16replace_lifetime15ReplaceLifetimeEBU_, symObjAddr: 0xD5D8, symBinAddr: 0x1A180, symSize: 0x284 }
  - { offset: 0x3BAF6, size: 0x8, addend: 0x0, symName: __RINvNtNtCsc29TF2YcYso_3syn3gen4fold17fold_impl_item_fnNtNvCsfQFyxU9Vz2T_11yoke_derive16replace_lifetime15ReplaceLifetimeEBU_, symObjAddr: 0xD85C, symBinAddr: 0x1A404, symSize: 0x248 }
  - { offset: 0x3BB3D, size: 0x8, addend: 0x0, symName: __RINvNtNtCsc29TF2YcYso_3syn3gen4fold17fold_lit_byte_strNtNvCsfQFyxU9Vz2T_11yoke_derive16replace_lifetime15ReplaceLifetimeEBU_, symObjAddr: 0xDAA4, symBinAddr: 0x1A64C, symSize: 0xDC }
  - { offset: 0x3BBB7, size: 0x8, addend: 0x0, symName: __RINvNtNtCsc29TF2YcYso_3syn3gen4fold17fold_path_segmentNtNvCsfQFyxU9Vz2T_11yoke_derive16replace_lifetime15ReplaceLifetimeEBU_, symObjAddr: 0xDB80, symBinAddr: 0x1A728, symSize: 0x118 }
  - { offset: 0x3BBFE, size: 0x8, addend: 0x0, symName: __RINvNtNtCsc29TF2YcYso_3syn3gen4fold17fold_range_limitsNtNvCsfQFyxU9Vz2T_11yoke_derive16replace_lifetime15ReplaceLifetimeEBU_, symObjAddr: 0xDC98, symBinAddr: 0x1A840, symSize: 0xA4 }
  - { offset: 0x3BC81, size: 0x8, addend: 0x0, symName: __RINvNtNtCsc29TF2YcYso_3syn3gen4fold17fold_type_bare_fnNtNvCsfQFyxU9Vz2T_11yoke_derive16replace_lifetime15ReplaceLifetimeEBU_, symObjAddr: 0xDD3C, symBinAddr: 0x1A8E4, symSize: 0x2FC }
  - { offset: 0x3BCC8, size: 0x8, addend: 0x0, symName: __RINvNtNtCsc29TF2YcYso_3syn3gen4fold17fold_where_clauseNtNvCsfQFyxU9Vz2T_11yoke_derive16replace_lifetime15ReplaceLifetimeEBU_, symObjAddr: 0xE038, symBinAddr: 0x1ABE0, symSize: 0x80 }
  - { offset: 0x3BD0F, size: 0x8, addend: 0x0, symName: __RINvNtNtCsc29TF2YcYso_3syn3gen4fold18fold_bare_variadicNtNvCsfQFyxU9Vz2T_11yoke_derive16replace_lifetime15ReplaceLifetimeEBV_, symObjAddr: 0xE0B8, symBinAddr: 0x1AC60, symSize: 0x144 }
  - { offset: 0x3BD56, size: 0x8, addend: 0x0, symName: __RINvNtNtCsc29TF2YcYso_3syn3gen4fold18fold_expr_continueNtNvCsfQFyxU9Vz2T_11yoke_derive16replace_lifetime15ReplaceLifetimeEBV_, symObjAddr: 0xE1FC, symBinAddr: 0x1ADA4, symSize: 0x120 }
  - { offset: 0x3BD9D, size: 0x8, addend: 0x0, symName: __RINvNtNtCsc29TF2YcYso_3syn3gen4fold18fold_expr_for_loopNtNvCsfQFyxU9Vz2T_11yoke_derive16replace_lifetime15ReplaceLifetimeEBV_, symObjAddr: 0xE31C, symBinAddr: 0x1AEC4, symSize: 0x4D4 }
  - { offset: 0x3BE23, size: 0x8, addend: 0x0, symName: __RINvNtNtCsc29TF2YcYso_3syn3gen4fold18fold_expr_raw_addrNtNvCsfQFyxU9Vz2T_11yoke_derive16replace_lifetime15ReplaceLifetimeEBV_, symObjAddr: 0xE7F0, symBinAddr: 0x1B398, symSize: 0x250 }
  - { offset: 0x3BE89, size: 0x8, addend: 0x0, symName: __RINvNtNtCsc29TF2YcYso_3syn3gen4fold18fold_generic_paramNtNvCsfQFyxU9Vz2T_11yoke_derive16replace_lifetime15ReplaceLifetimeEBV_, symObjAddr: 0xEA40, symBinAddr: 0x1B5E8, symSize: 0x194 }
  - { offset: 0x3BF25, size: 0x8, addend: 0x0, symName: __RINvNtNtCsc29TF2YcYso_3syn3gen4fold18fold_pat_referenceNtNvCsfQFyxU9Vz2T_11yoke_derive16replace_lifetime15ReplaceLifetimeEBV_, symObjAddr: 0xEBD4, symBinAddr: 0x1B77C, symSize: 0x230 }
  - { offset: 0x3BF8B, size: 0x8, addend: 0x0, symName: __RINvNtNtCsc29TF2YcYso_3syn3gen4fold18fold_trait_item_fnNtNvCsfQFyxU9Vz2T_11yoke_derive16replace_lifetime15ReplaceLifetimeEBV_, symObjAddr: 0xEE04, symBinAddr: 0x1B9AC, symSize: 0x1BC }
  - { offset: 0x3BFD2, size: 0x8, addend: 0x0, symName: __RINvNtNtCsc29TF2YcYso_3syn3gen4fold19fold_captured_paramNtNvCsfQFyxU9Vz2T_11yoke_derive16replace_lifetime15ReplaceLifetimeEBW_, symObjAddr: 0xEFC0, symBinAddr: 0x1BB68, symSize: 0xE0 }
  - { offset: 0x3C04D, size: 0x8, addend: 0x0, symName: __RINvNtNtCsc29TF2YcYso_3syn3gen4fold19fold_expr_referenceNtNvCsfQFyxU9Vz2T_11yoke_derive16replace_lifetime15ReplaceLifetimeEBW_, symObjAddr: 0xF0A0, symBinAddr: 0x1BC48, symSize: 0x230 }
  - { offset: 0x3C0B3, size: 0x8, addend: 0x0, symName: __RINvNtNtCsc29TF2YcYso_3syn3gen4fold19fold_expr_try_blockNtNvCsfQFyxU9Vz2T_11yoke_derive16replace_lifetime15ReplaceLifetimeEBW_, symObjAddr: 0xF2D0, symBinAddr: 0x1BE78, symSize: 0x12C }
  - { offset: 0x3C0FA, size: 0x8, addend: 0x0, symName: __RINvNtNtCsc29TF2YcYso_3syn3gen4fold19fold_fields_unnamedNtNvCsfQFyxU9Vz2T_11yoke_derive16replace_lifetime15ReplaceLifetimeEBW_, symObjAddr: 0xF3FC, symBinAddr: 0x1BFA4, symSize: 0x90 }
  - { offset: 0x3C141, size: 0x8, addend: 0x0, symName: __RINvNtNtCsc29TF2YcYso_3syn3gen4fold19fold_impl_item_typeNtNvCsfQFyxU9Vz2T_11yoke_derive16replace_lifetime15ReplaceLifetimeEBW_, symObjAddr: 0xF48C, symBinAddr: 0x1C034, symSize: 0x304 }
  - { offset: 0x3C188, size: 0x8, addend: 0x0, symName: __RINvNtNtCsc29TF2YcYso_3syn3gen4fold19fold_lifetime_paramNtNvCsfQFyxU9Vz2T_11yoke_derive16replace_lifetime15ReplaceLifetimeEBW_, symObjAddr: 0xF790, symBinAddr: 0x1C338, symSize: 0x1B4 }
  - { offset: 0x3C1CF, size: 0x8, addend: 0x0, symName: __RINvNtNtCsc29TF2YcYso_3syn3gen4fold19fold_path_argumentsNtNvCsfQFyxU9Vz2T_11yoke_derive16replace_lifetime15ReplaceLifetimeEBW_, symObjAddr: 0xF944, symBinAddr: 0x1C4EC, symSize: 0x14C }
  - { offset: 0x3C24C, size: 0x8, addend: 0x0, symName: __RINvNtNtCsc29TF2YcYso_3syn3gen4fold19fold_predicate_typeNtNvCsfQFyxU9Vz2T_11yoke_derive16replace_lifetime15ReplaceLifetimeEBW_, symObjAddr: 0xFA90, symBinAddr: 0x1C638, symSize: 0x1C4 }
  - { offset: 0x3C293, size: 0x8, addend: 0x0, symName: __RINvNtNtCsc29TF2YcYso_3syn3gen4fold19fold_type_referenceNtNvCsfQFyxU9Vz2T_11yoke_derive16replace_lifetime15ReplaceLifetimeEBW_, symObjAddr: 0xFC54, symBinAddr: 0x1C7FC, symSize: 0x250 }
  - { offset: 0x3C2F9, size: 0x8, addend: 0x0, symName: __RINvNtNtCsc29TF2YcYso_3syn3gen4fold19fold_vis_restrictedNtNvCsfQFyxU9Vz2T_11yoke_derive16replace_lifetime15ReplaceLifetimeEBW_, symObjAddr: 0xFEA4, symBinAddr: 0x1CA4C, symSize: 0x1C4 }
  - { offset: 0x3C35F, size: 0x8, addend: 0x0, symName: __RINvNtNtCsc29TF2YcYso_3syn3gen4fold20fold_bound_lifetimesNtNvCsfQFyxU9Vz2T_11yoke_derive16replace_lifetime15ReplaceLifetimeEBX_, symObjAddr: 0x10068, symBinAddr: 0x1CC10, symSize: 0xA8 }
  - { offset: 0x3C3A6, size: 0x8, addend: 0x0, symName: __RINvNtNtCsc29TF2YcYso_3syn3gen4fold20fold_foreign_item_fnNtNvCsfQFyxU9Vz2T_11yoke_derive16replace_lifetime15ReplaceLifetimeEBX_, symObjAddr: 0x10110, symBinAddr: 0x1CCB8, symSize: 0x1B4 }
  - { offset: 0x3C3ED, size: 0x8, addend: 0x0, symName: __RINvNtNtCsc29TF2YcYso_3syn3gen4fold20fold_impl_item_constNtNvCsfQFyxU9Vz2T_11yoke_derive16replace_lifetime15ReplaceLifetimeEBX_, symObjAddr: 0x102C4, symBinAddr: 0x1CE6C, symSize: 0x3A4 }
  - { offset: 0x3C434, size: 0x8, addend: 0x0, symName: __RINvNtNtCsc29TF2YcYso_3syn3gen4fold20fold_impl_item_macroNtNvCsfQFyxU9Vz2T_11yoke_derive16replace_lifetime15ReplaceLifetimeEBX_, symObjAddr: 0x10668, symBinAddr: 0x1D210, symSize: 0x13C }
  - { offset: 0x3C47B, size: 0x8, addend: 0x0, symName: __RINvNtNtCsc29TF2YcYso_3syn3gen4fold20fold_macro_delimiterNtNvCsfQFyxU9Vz2T_11yoke_derive16replace_lifetime15ReplaceLifetimeEBX_, symObjAddr: 0x107A4, symBinAddr: 0x1D34C, symSize: 0x10C }
  - { offset: 0x3C51D, size: 0x8, addend: 0x0, symName: __RINvNtNtCsc29TF2YcYso_3syn3gen4fold20fold_meta_name_valueNtNvCsfQFyxU9Vz2T_11yoke_derive16replace_lifetime15ReplaceLifetimeEBX_, symObjAddr: 0x108B0, symBinAddr: 0x1D458, symSize: 0x134 }
  - { offset: 0x3C564, size: 0x8, addend: 0x0, symName: __RINvNtNtCsc29TF2YcYso_3syn3gen4fold20fold_precise_captureNtNvCsfQFyxU9Vz2T_11yoke_derive16replace_lifetime15ReplaceLifetimeEBX_, symObjAddr: 0x109E4, symBinAddr: 0x1D58C, symSize: 0xA8 }
  - { offset: 0x3C5AB, size: 0x8, addend: 0x0, symName: __RINvNtNtCsc29TF2YcYso_3syn3gen4fold20fold_trait_item_typeNtNvCsfQFyxU9Vz2T_11yoke_derive16replace_lifetime15ReplaceLifetimeEBX_, symObjAddr: 0x10A8C, symBinAddr: 0x1D634, symSize: 0x2EC }
  - { offset: 0x3C5F2, size: 0x8, addend: 0x0, symName: __RINvNtNtCsc29TF2YcYso_3syn3gen4fold20fold_type_impl_traitNtNvCsfQFyxU9Vz2T_11yoke_derive16replace_lifetime15ReplaceLifetimeEBX_, symObjAddr: 0x10D78, symBinAddr: 0x1D920, symSize: 0x80 }
  - { offset: 0x3C639, size: 0x8, addend: 0x0, symName: __RINvNtNtCsc29TF2YcYso_3syn3gen4fold20fold_where_predicateNtNvCsfQFyxU9Vz2T_11yoke_derive16replace_lifetime15ReplaceLifetimeEBX_, symObjAddr: 0x10DF8, symBinAddr: 0x1D9A0, symSize: 0x104 }
  - { offset: 0x3C6B6, size: 0x8, addend: 0x0, symName: __RINvNtNtCsc29TF2YcYso_3syn3gen4fold21fold_expr_method_callNtNvCsfQFyxU9Vz2T_11yoke_derive16replace_lifetime15ReplaceLifetimeEBY_, symObjAddr: 0x10EFC, symBinAddr: 0x1DAA4, symSize: 0x3D4 }
  - { offset: 0x3C71C, size: 0x8, addend: 0x0, symName: __RINvNtNtCsc29TF2YcYso_3syn3gen4fold21fold_field_mutabilityNtNvCsfQFyxU9Vz2T_11yoke_derive16replace_lifetime15ReplaceLifetimeEBY_, symObjAddr: 0x112D0, symBinAddr: 0x1DE78, symSize: 0x20 }
  - { offset: 0x3C76A, size: 0x8, addend: 0x0, symName: __RINvNtNtCsc29TF2YcYso_3syn3gen4fold21fold_generic_argumentNtNvCsfQFyxU9Vz2T_11yoke_derive16replace_lifetime15ReplaceLifetimeEBY_, symObjAddr: 0x112F0, symBinAddr: 0x1DE98, symSize: 0x2F4 }
  - { offset: 0x3C863, size: 0x8, addend: 0x0, symName: __RINvNtNtCsc29TF2YcYso_3syn3gen4fold21fold_item_foreign_modNtNvCsfQFyxU9Vz2T_11yoke_derive16replace_lifetime15ReplaceLifetimeEBY_, symObjAddr: 0x115F0, symBinAddr: 0x1E18C, symSize: 0x1D4 }
  - { offset: 0x3C8AA, size: 0x8, addend: 0x0, symName: __RINvNtNtCsc29TF2YcYso_3syn3gen4fold21fold_item_trait_aliasNtNvCsfQFyxU9Vz2T_11yoke_derive16replace_lifetime15ReplaceLifetimeEBY_, symObjAddr: 0x117C4, symBinAddr: 0x1E360, symSize: 0x2E4 }
  - { offset: 0x3C8F1, size: 0x8, addend: 0x0, symName: __RINvNtNtCsc29TF2YcYso_3syn3gen4fold21fold_pat_tuple_structNtNvCsfQFyxU9Vz2T_11yoke_derive16replace_lifetime15ReplaceLifetimeEBY_, symObjAddr: 0x11AA8, symBinAddr: 0x1E644, symSize: 0x250 }
  - { offset: 0x3C938, size: 0x8, addend: 0x0, symName: __RINvNtNtCsc29TF2YcYso_3syn3gen4fold21fold_trait_item_constNtNvCsfQFyxU9Vz2T_11yoke_derive16replace_lifetime15ReplaceLifetimeEBY_, symObjAddr: 0x11CF8, symBinAddr: 0x1E894, symSize: 0x2F8 }
  - { offset: 0x3C97F, size: 0x8, addend: 0x0, symName: __RINvNtNtCsc29TF2YcYso_3syn3gen4fold21fold_trait_item_macroNtNvCsfQFyxU9Vz2T_11yoke_derive16replace_lifetime15ReplaceLifetimeEBY_, symObjAddr: 0x11FF0, symBinAddr: 0x1EB8C, symSize: 0x13C }
  - { offset: 0x3C9C6, size: 0x8, addend: 0x0, symName: __RINvNtNtCsc29TF2YcYso_3syn3gen4fold21fold_type_param_boundNtNvCsfQFyxU9Vz2T_11yoke_derive16replace_lifetime15ReplaceLifetimeEBY_, symObjAddr: 0x1212C, symBinAddr: 0x1ECC8, symSize: 0x1F8 }
  - { offset: 0x3CA81, size: 0x8, addend: 0x0, symName: __RINvNtNtCsc29TF2YcYso_3syn3gen4fold22fold_foreign_item_typeNtNvCsfQFyxU9Vz2T_11yoke_derive16replace_lifetime15ReplaceLifetimeEBZ_, symObjAddr: 0x12324, symBinAddr: 0x1EEC0, symSize: 0x244 }
  - { offset: 0x3CAC8, size: 0x8, addend: 0x0, symName: __RINvNtNtCsc29TF2YcYso_3syn3gen4fold22fold_item_extern_crateNtNvCsfQFyxU9Vz2T_11yoke_derive16replace_lifetime15ReplaceLifetimeEBZ_, symObjAddr: 0x12568, symBinAddr: 0x1F104, symSize: 0x258 }
  - { offset: 0x3CB0F, size: 0x8, addend: 0x0, symName: __RINvNtNtCsc29TF2YcYso_3syn3gen4fold22fold_static_mutabilityNtNvCsfQFyxU9Vz2T_11yoke_derive16replace_lifetime15ReplaceLifetimeEBZ_, symObjAddr: 0x127C0, symBinAddr: 0x1F35C, symSize: 0x78 }
  - { offset: 0x3CB73, size: 0x8, addend: 0x0, symName: __RINvNtNtCsc29TF2YcYso_3syn3gen4fold22fold_type_trait_objectNtNvCsfQFyxU9Vz2T_11yoke_derive16replace_lifetime15ReplaceLifetimeEBZ_, symObjAddr: 0x12838, symBinAddr: 0x1F3D4, symSize: 0x90 }
  - { offset: 0x3CBBA, size: 0x8, addend: 0x0, symName: __RINvNtNtCsc29TF2YcYso_3syn3gen4fold23fold_foreign_item_macroNtNvCsfQFyxU9Vz2T_11yoke_derive16replace_lifetime15ReplaceLifetimeEB10_, symObjAddr: 0x128C8, symBinAddr: 0x1F464, symSize: 0x13C }
  - { offset: 0x3CC01, size: 0x8, addend: 0x0, symName: __RINvNtNtCsc29TF2YcYso_3syn3gen4fold23fold_pointer_mutabilityNtNvCsfQFyxU9Vz2T_11yoke_derive16replace_lifetime15ReplaceLifetimeEB10_, symObjAddr: 0x12A04, symBinAddr: 0x1F5A0, symSize: 0x84 }
  - { offset: 0x3CC83, size: 0x8, addend: 0x0, symName: __RINvNtNtCsc29TF2YcYso_3syn3gen4fold23fold_predicate_lifetimeNtNvCsfQFyxU9Vz2T_11yoke_derive16replace_lifetime15ReplaceLifetimeEB10_, symObjAddr: 0x12A88, symBinAddr: 0x1F624, symSize: 0x11C }
  - { offset: 0x3CCCA, size: 0x8, addend: 0x0, symName: __RINvNtNtCsc29TF2YcYso_3syn3gen4fold24fold_foreign_item_staticNtNvCsfQFyxU9Vz2T_11yoke_derive16replace_lifetime15ReplaceLifetimeEB11_, symObjAddr: 0x12BA4, symBinAddr: 0x1F740, symSize: 0x358 }
  - { offset: 0x3CD30, size: 0x8, addend: 0x0, symName: __RINvNtNtCsc29TF2YcYso_3syn3gen4fold25fold_trait_bound_modifierNtNvCsfQFyxU9Vz2T_11yoke_derive16replace_lifetime15ReplaceLifetimeEB12_, symObjAddr: 0x12EFC, symBinAddr: 0x1FA98, symSize: 0x7C }
  - { offset: 0x3CD94, size: 0x8, addend: 0x0, symName: __RINvNtNtCsc29TF2YcYso_3syn3gen4fold36fold_parenthesized_generic_argumentsNtNvCsfQFyxU9Vz2T_11yoke_derive16replace_lifetime15ReplaceLifetimeEB1d_, symObjAddr: 0x12F78, symBinAddr: 0x1FB14, symSize: 0x124 }
  - { offset: 0x3CDDB, size: 0x8, addend: 0x0, symName: __RINvNtNtCsc29TF2YcYso_3syn3gen4fold38fold_angle_bracketed_generic_argumentsNtNvCsfQFyxU9Vz2T_11yoke_derive16replace_lifetime15ReplaceLifetimeEB1f_, symObjAddr: 0x1309C, symBinAddr: 0x1FC38, symSize: 0xB8 }
  - { offset: 0x3CE22, size: 0x8, addend: 0x0, symName: __RINvNtNtCsc29TF2YcYso_3syn3gen4fold8fold_abiNtNvCsfQFyxU9Vz2T_11yoke_derive16replace_lifetime15ReplaceLifetimeEBK_, symObjAddr: 0x13154, symBinAddr: 0x1FCF0, symSize: 0x54 }
  - { offset: 0x3CE68, size: 0x8, addend: 0x0, symName: __RINvNtNtCsc29TF2YcYso_3syn3gen4fold8fold_armNtNvCsfQFyxU9Vz2T_11yoke_derive16replace_lifetime15ReplaceLifetimeEBK_, symObjAddr: 0x131A8, symBinAddr: 0x1FD44, symSize: 0x334 }
  - { offset: 0x3CECE, size: 0x8, addend: 0x0, symName: __RINvNtNtCsc29TF2YcYso_3syn3gen4fold8fold_litNtNvCsfQFyxU9Vz2T_11yoke_derive16replace_lifetime15ReplaceLifetimeEBK_, symObjAddr: 0x134DC, symBinAddr: 0x20078, symSize: 0x318 }
  - { offset: 0x3D01C, size: 0x8, addend: 0x0, symName: __RINvNtNtCsc29TF2YcYso_3syn3gen4fold8fold_patNtNvCsfQFyxU9Vz2T_11yoke_derive16replace_lifetime15ReplaceLifetimeEBK_, symObjAddr: 0x137F4, symBinAddr: 0x20390, symSize: 0x780 }
  - { offset: 0x3D26A, size: 0x8, addend: 0x0, symName: __RINvNtNtCsc29TF2YcYso_3syn3gen4fold8fold_vecNtNtB6_4attr9AttributeNtNvCsfQFyxU9Vz2T_11yoke_derive16replace_lifetime15ReplaceLifetimeNvYB12_NtB2_4Fold14fold_attributeEB16_, symObjAddr: 0x13F74, symBinAddr: 0x20B10, symSize: 0x80 }
  - { offset: 0x3D2D2, size: 0x8, addend: 0x0, symName: __RINvNtNtCsc29TF2YcYso_3syn3gen4fold8fold_vecNtNtB6_4expr3ArmNtNvCsfQFyxU9Vz2T_11yoke_derive16replace_lifetime15ReplaceLifetimeNvYBW_NtB2_4Fold8fold_armEB10_, symObjAddr: 0x13FF4, symBinAddr: 0x20B90, symSize: 0x80 }
  - { offset: 0x3D33A, size: 0x8, addend: 0x0, symName: __RINvNtNtCsc29TF2YcYso_3syn3gen4fold8fold_vecNtNtB6_4item11ForeignItemNtNvCsfQFyxU9Vz2T_11yoke_derive16replace_lifetime15ReplaceLifetimeNvYB15_NtB2_4Fold17fold_foreign_itemEB19_, symObjAddr: 0x14074, symBinAddr: 0x20C10, symSize: 0x80 }
  - { offset: 0x3D3A2, size: 0x8, addend: 0x0, symName: __RINvNtNtCsc29TF2YcYso_3syn3gen4fold8fold_vecNtNtB6_4item4ItemNtNvCsfQFyxU9Vz2T_11yoke_derive16replace_lifetime15ReplaceLifetimeNvYBX_NtB2_4Fold9fold_itemEB11_, symObjAddr: 0x140F4, symBinAddr: 0x20C90, symSize: 0x80 }
  - { offset: 0x3D40A, size: 0x8, addend: 0x0, symName: __RINvNtNtCsc29TF2YcYso_3syn3gen4fold8fold_vecNtNtB6_4item8ImplItemNtNvCsfQFyxU9Vz2T_11yoke_derive16replace_lifetime15ReplaceLifetimeNvYB11_NtB2_4Fold14fold_impl_itemEB15_, symObjAddr: 0x14174, symBinAddr: 0x20D10, symSize: 0x80 }
  - { offset: 0x3D472, size: 0x8, addend: 0x0, symName: __RINvNtNtCsc29TF2YcYso_3syn3gen4fold8fold_vecNtNtB6_4item9TraitItemNtNvCsfQFyxU9Vz2T_11yoke_derive16replace_lifetime15ReplaceLifetimeNvYB12_NtB2_4Fold15fold_trait_itemEB16_, symObjAddr: 0x141F4, symBinAddr: 0x20D90, symSize: 0x80 }
  - { offset: 0x3D4DA, size: 0x8, addend: 0x0, symName: __RINvNtNtCsc29TF2YcYso_3syn3gen4fold8fold_vecNtNtB6_4stmt4StmtNtNvCsfQFyxU9Vz2T_11yoke_derive16replace_lifetime15ReplaceLifetimeNvYBX_NtB2_4Fold9fold_stmtEB11_, symObjAddr: 0x14274, symBinAddr: 0x20E10, symSize: 0x80 }
  - { offset: 0x3D542, size: 0x8, addend: 0x0, symName: __RINvNtNtCsc29TF2YcYso_3syn3gen4fold9fold_exprNtNvCsfQFyxU9Vz2T_11yoke_derive16replace_lifetime15ReplaceLifetimeEBL_, symObjAddr: 0x142F4, symBinAddr: 0x20E90, symSize: 0x11B4 }
  - { offset: 0x3DA59, size: 0x8, addend: 0x0, symName: __RINvNtNtCsc29TF2YcYso_3syn3gen4fold9fold_itemNtNvCsfQFyxU9Vz2T_11yoke_derive16replace_lifetime15ReplaceLifetimeEBL_, symObjAddr: 0x154A8, symBinAddr: 0x22044, symSize: 0x744 }
  - { offset: 0x3DC88, size: 0x8, addend: 0x0, symName: __RINvNtNtCsc29TF2YcYso_3syn3gen4fold9fold_metaNtNvCsfQFyxU9Vz2T_11yoke_derive16replace_lifetime15ReplaceLifetimeEBL_, symObjAddr: 0x15BEC, symBinAddr: 0x22788, symSize: 0x190 }
  - { offset: 0x3DD24, size: 0x8, addend: 0x0, symName: __RINvNtNtCsc29TF2YcYso_3syn3gen4fold9fold_pathNtNvCsfQFyxU9Vz2T_11yoke_derive16replace_lifetime15ReplaceLifetimeEBL_, symObjAddr: 0x15D7C, symBinAddr: 0x22918, symSize: 0x90 }
  - { offset: 0x3DD6B, size: 0x8, addend: 0x0, symName: __RINvNtNtCsc29TF2YcYso_3syn3gen4fold9fold_stmtNtNvCsfQFyxU9Vz2T_11yoke_derive16replace_lifetime15ReplaceLifetimeEBL_, symObjAddr: 0x15E0C, symBinAddr: 0x229A8, symSize: 0x220 }
  - { offset: 0x3DE37, size: 0x8, addend: 0x0, symName: __RINvNtNtCsc29TF2YcYso_3syn3gen4fold9fold_typeNtNvCsfQFyxU9Vz2T_11yoke_derive16replace_lifetime15ReplaceLifetimeEBL_, symObjAddr: 0x1602C, symBinAddr: 0x22BC8, symSize: 0x61C }
  - { offset: 0x3E04B, size: 0x8, addend: 0x0, symName: __RNCINvNtNtCsc29TF2YcYso_3syn3gen4fold10fold_fieldNtNvCsfQFyxU9Vz2T_11yoke_derive16replace_lifetime15ReplaceLifetimeE0BP_, symObjAddr: 0x16648, symBinAddr: 0x231E4, symSize: 0x34 }
  - { offset: 0x3E09A, size: 0x8, addend: 0x0, symName: __RNCINvNtNtCsc29TF2YcYso_3syn3gen4fold10fold_localNtNvCsfQFyxU9Vz2T_11yoke_derive16replace_lifetime15ReplaceLifetimeE0BP_, symObjAddr: 0x1667C, symBinAddr: 0x23218, symSize: 0x34 }
  - { offset: 0x3E0E9, size: 0x8, addend: 0x0, symName: __RNCINvNtNtCsc29TF2YcYso_3syn3gen4fold12fold_expr_ifNtNvCsfQFyxU9Vz2T_11yoke_derive16replace_lifetime15ReplaceLifetimeE0BR_, symObjAddr: 0x166B0, symBinAddr: 0x2324C, symSize: 0x17C }
  - { offset: 0x3E157, size: 0x8, addend: 0x0, symName: __RNCINvNtNtCsc29TF2YcYso_3syn3gen4fold12fold_variantNtNvCsfQFyxU9Vz2T_11yoke_derive16replace_lifetime15ReplaceLifetimeE0BR_, symObjAddr: 0x1682C, symBinAddr: 0x233C8, symSize: 0x94 }
  - { offset: 0x3E1A6, size: 0x8, addend: 0x0, symName: __RNCINvNtNtCsc29TF2YcYso_3syn3gen4fold13fold_genericsNtNvCsfQFyxU9Vz2T_11yoke_derive16replace_lifetime15ReplaceLifetimeE0BS_, symObjAddr: 0x168C0, symBinAddr: 0x2345C, symSize: 0x34 }
  - { offset: 0x3E1F5, size: 0x8, addend: 0x0, symName: __RNCINvNtNtCsc29TF2YcYso_3syn3gen4fold13fold_item_modNtNvCsfQFyxU9Vz2T_11yoke_derive16replace_lifetime15ReplaceLifetimeE0BS_, symObjAddr: 0x168F4, symBinAddr: 0x23490, symSize: 0x84 }
  - { offset: 0x3E244, size: 0x8, addend: 0x0, symName: __RNCINvNtNtCsc29TF2YcYso_3syn3gen4fold13fold_receiverNtNvCsfQFyxU9Vz2T_11yoke_derive16replace_lifetime15ReplaceLifetimeE0BS_, symObjAddr: 0x16978, symBinAddr: 0x23514, symSize: 0x74 }
  - { offset: 0x3E292, size: 0x8, addend: 0x0, symName: __RNCNCINvNtNtCsc29TF2YcYso_3syn3gen4fold13fold_receiverNtNvCsfQFyxU9Vz2T_11yoke_derive16replace_lifetime15ReplaceLifetimeE00BU_, symObjAddr: 0x18548, symBinAddr: 0x250BC, symSize: 0x34 }
  - { offset: 0x3E2E2, size: 0x8, addend: 0x0, symName: __RNCINvNtNtCsc29TF2YcYso_3syn3gen4fold13fold_variadicNtNvCsfQFyxU9Vz2T_11yoke_derive16replace_lifetime15ReplaceLifetimeE0BS_, symObjAddr: 0x169EC, symBinAddr: 0x23588, symSize: 0x180 }
  - { offset: 0x3E351, size: 0x8, addend: 0x0, symName: __RNCINvNtNtCsc29TF2YcYso_3syn3gen4fold14fold_expr_loopNtNvCsfQFyxU9Vz2T_11yoke_derive16replace_lifetime15ReplaceLifetimeE0BT_, symObjAddr: 0x16B6C, symBinAddr: 0x23708, symSize: 0x34 }
  - { offset: 0x3E3A0, size: 0x8, addend: 0x0, symName: __RNCINvNtNtCsc29TF2YcYso_3syn3gen4fold14fold_expr_pathNtNvCsfQFyxU9Vz2T_11yoke_derive16replace_lifetime15ReplaceLifetimeE0BT_, symObjAddr: 0x16BA0, symBinAddr: 0x2373C, symSize: 0x34 }
  - { offset: 0x3E3EF, size: 0x8, addend: 0x0, symName: __RNCINvNtNtCsc29TF2YcYso_3syn3gen4fold14fold_item_implNtNvCsfQFyxU9Vz2T_11yoke_derive16replace_lifetime15ReplaceLifetimeE0BT_, symObjAddr: 0x16BD4, symBinAddr: 0x23770, symSize: 0xA0 }
  - { offset: 0x3E43F, size: 0x8, addend: 0x0, symName: __RNCINvNtNtCsc29TF2YcYso_3syn3gen4fold14fold_pat_identNtNvCsfQFyxU9Vz2T_11yoke_derive16replace_lifetime15ReplaceLifetimeE0BT_, symObjAddr: 0x16C74, symBinAddr: 0x23810, symSize: 0x188 }
  - { offset: 0x3E4AE, size: 0x8, addend: 0x0, symName: __RNCINvNtNtCsc29TF2YcYso_3syn3gen4fold14fold_signatureNtNvCsfQFyxU9Vz2T_11yoke_derive16replace_lifetime15ReplaceLifetimeE0BT_, symObjAddr: 0x16DFC, symBinAddr: 0x23998, symSize: 0x40 }
  - { offset: 0x3E4F6, size: 0x8, addend: 0x0, symName: __RNCINvNtNtCsc29TF2YcYso_3syn3gen4fold14fold_signatureNtNvCsfQFyxU9Vz2T_11yoke_derive16replace_lifetime15ReplaceLifetimeEs_0BT_, symObjAddr: 0x16E3C, symBinAddr: 0x239D8, symSize: 0x34 }
  - { offset: 0x3E545, size: 0x8, addend: 0x0, symName: __RNCINvNtNtCsc29TF2YcYso_3syn3gen4fold14fold_type_pathNtNvCsfQFyxU9Vz2T_11yoke_derive16replace_lifetime15ReplaceLifetimeE0BT_, symObjAddr: 0x16E70, symBinAddr: 0x23A0C, symSize: 0x34 }
  - { offset: 0x3E594, size: 0x8, addend: 0x0, symName: __RNCINvNtNtCsc29TF2YcYso_3syn3gen4fold15fold_assoc_typeNtNvCsfQFyxU9Vz2T_11yoke_derive16replace_lifetime15ReplaceLifetimeE0BU_, symObjAddr: 0x16EA4, symBinAddr: 0x23A40, symSize: 0x34 }
  - { offset: 0x3E5E3, size: 0x8, addend: 0x0, symName: __RNCINvNtNtCsc29TF2YcYso_3syn3gen4fold15fold_constraintNtNvCsfQFyxU9Vz2T_11yoke_derive16replace_lifetime15ReplaceLifetimeE0BU_, symObjAddr: 0x16ED8, symBinAddr: 0x23A74, symSize: 0x34 }
  - { offset: 0x3E632, size: 0x8, addend: 0x0, symName: __RNCINvNtNtCsc29TF2YcYso_3syn3gen4fold15fold_expr_blockNtNvCsfQFyxU9Vz2T_11yoke_derive16replace_lifetime15ReplaceLifetimeE0BU_, symObjAddr: 0x16F0C, symBinAddr: 0x23AA8, symSize: 0x34 }
  - { offset: 0x3E681, size: 0x8, addend: 0x0, symName: __RNCINvNtNtCsc29TF2YcYso_3syn3gen4fold15fold_expr_breakNtNvCsfQFyxU9Vz2T_11yoke_derive16replace_lifetime15ReplaceLifetimeE0BU_, symObjAddr: 0x16F40, symBinAddr: 0x23ADC, symSize: 0x34 }
  - { offset: 0x3E6CA, size: 0x8, addend: 0x0, symName: __RNCINvNtNtCsc29TF2YcYso_3syn3gen4fold15fold_expr_breakNtNvCsfQFyxU9Vz2T_11yoke_derive16replace_lifetime15ReplaceLifetimeEs_0BU_, symObjAddr: 0x16F74, symBinAddr: 0x23B10, symSize: 0x164 }
  - { offset: 0x3E737, size: 0x8, addend: 0x0, symName: __RNCINvNtNtCsc29TF2YcYso_3syn3gen4fold15fold_expr_rangeNtNvCsfQFyxU9Vz2T_11yoke_derive16replace_lifetime15ReplaceLifetimeE0BU_, symObjAddr: 0x170D8, symBinAddr: 0x23C74, symSize: 0x164 }
  - { offset: 0x3E79E, size: 0x8, addend: 0x0, symName: __RNCINvNtNtCsc29TF2YcYso_3syn3gen4fold15fold_expr_rangeNtNvCsfQFyxU9Vz2T_11yoke_derive16replace_lifetime15ReplaceLifetimeEs_0BU_, symObjAddr: 0x1723C, symBinAddr: 0x23DD8, symSize: 0x164 }
  - { offset: 0x3E80B, size: 0x8, addend: 0x0, symName: __RNCINvNtNtCsc29TF2YcYso_3syn3gen4fold15fold_expr_whileNtNvCsfQFyxU9Vz2T_11yoke_derive16replace_lifetime15ReplaceLifetimeE0BU_, symObjAddr: 0x173A0, symBinAddr: 0x23F3C, symSize: 0x34 }
  - { offset: 0x3E85A, size: 0x8, addend: 0x0, symName: __RNCINvNtNtCsc29TF2YcYso_3syn3gen4fold15fold_expr_yieldNtNvCsfQFyxU9Vz2T_11yoke_derive16replace_lifetime15ReplaceLifetimeE0BU_, symObjAddr: 0x173D4, symBinAddr: 0x23F70, symSize: 0x164 }
  - { offset: 0x3E8C7, size: 0x8, addend: 0x0, symName: __RNCINvNtNtCsc29TF2YcYso_3syn3gen4fold15fold_item_macroNtNvCsfQFyxU9Vz2T_11yoke_derive16replace_lifetime15ReplaceLifetimeE0BU_, symObjAddr: 0x17538, symBinAddr: 0x240D4, symSize: 0x34 }
  - { offset: 0x3E916, size: 0x8, addend: 0x0, symName: __RNCINvNtNtCsc29TF2YcYso_3syn3gen4fold15fold_local_initNtNvCsfQFyxU9Vz2T_11yoke_derive16replace_lifetime15ReplaceLifetimeE0BU_, symObjAddr: 0x17594, symBinAddr: 0x24108, symSize: 0x17C }
  - { offset: 0x3E984, size: 0x8, addend: 0x0, symName: __RNCINvNtNtCsc29TF2YcYso_3syn3gen4fold15fold_pat_structNtNvCsfQFyxU9Vz2T_11yoke_derive16replace_lifetime15ReplaceLifetimeE0BU_, symObjAddr: 0x17710, symBinAddr: 0x24284, symSize: 0x34 }
  - { offset: 0x3E9CD, size: 0x8, addend: 0x0, symName: __RNCINvNtNtCsc29TF2YcYso_3syn3gen4fold15fold_pat_structNtNvCsfQFyxU9Vz2T_11yoke_derive16replace_lifetime15ReplaceLifetimeEs_0BU_, symObjAddr: 0x17744, symBinAddr: 0x242B8, symSize: 0x34 }
  - { offset: 0x3EA1C, size: 0x8, addend: 0x0, symName: __RNCINvNtNtCsc29TF2YcYso_3syn3gen4fold15fold_type_paramNtNvCsfQFyxU9Vz2T_11yoke_derive16replace_lifetime15ReplaceLifetimeE0BU_, symObjAddr: 0x17778, symBinAddr: 0x242EC, symSize: 0x34 }
  - { offset: 0x3EA6B, size: 0x8, addend: 0x0, symName: __RNCINvNtNtCsc29TF2YcYso_3syn3gen4fold16fold_assoc_constNtNvCsfQFyxU9Vz2T_11yoke_derive16replace_lifetime15ReplaceLifetimeE0BV_, symObjAddr: 0x177AC, symBinAddr: 0x24320, symSize: 0x34 }
  - { offset: 0x3EABA, size: 0x8, addend: 0x0, symName: __RNCINvNtNtCsc29TF2YcYso_3syn3gen4fold16fold_bare_fn_argNtNvCsfQFyxU9Vz2T_11yoke_derive16replace_lifetime15ReplaceLifetimeE0BV_, symObjAddr: 0x177E0, symBinAddr: 0x24354, symSize: 0x80 }
  - { offset: 0x3EB09, size: 0x8, addend: 0x0, symName: __RNCINvNtNtCsc29TF2YcYso_3syn3gen4fold16fold_const_paramNtNvCsfQFyxU9Vz2T_11yoke_derive16replace_lifetime15ReplaceLifetimeE0BV_, symObjAddr: 0x17860, symBinAddr: 0x243D4, symSize: 0x34 }
  - { offset: 0x3EB58, size: 0x8, addend: 0x0, symName: __RNCINvNtNtCsc29TF2YcYso_3syn3gen4fold16fold_expr_returnNtNvCsfQFyxU9Vz2T_11yoke_derive16replace_lifetime15ReplaceLifetimeE0BV_, symObjAddr: 0x17894, symBinAddr: 0x24408, symSize: 0x164 }
  - { offset: 0x3EBC5, size: 0x8, addend: 0x0, symName: __RNCINvNtNtCsc29TF2YcYso_3syn3gen4fold16fold_expr_structNtNvCsfQFyxU9Vz2T_11yoke_derive16replace_lifetime15ReplaceLifetimeE0BV_, symObjAddr: 0x179F8, symBinAddr: 0x2456C, symSize: 0x34 }
  - { offset: 0x3EC0E, size: 0x8, addend: 0x0, symName: __RNCINvNtNtCsc29TF2YcYso_3syn3gen4fold16fold_expr_structNtNvCsfQFyxU9Vz2T_11yoke_derive16replace_lifetime15ReplaceLifetimeEs_0BV_, symObjAddr: 0x17A2C, symBinAddr: 0x245A0, symSize: 0x164 }
  - { offset: 0x3EC7B, size: 0x8, addend: 0x0, symName: __RNCINvNtNtCsc29TF2YcYso_3syn3gen4fold16fold_trait_boundNtNvCsfQFyxU9Vz2T_11yoke_derive16replace_lifetime15ReplaceLifetimeE0BV_, symObjAddr: 0x17B90, symBinAddr: 0x24704, symSize: 0x34 }
  - { offset: 0x3ECCA, size: 0x8, addend: 0x0, symName: __RNCINvNtNtCsc29TF2YcYso_3syn3gen4fold17fold_expr_closureNtNvCsfQFyxU9Vz2T_11yoke_derive16replace_lifetime15ReplaceLifetimeE0BW_, symObjAddr: 0x17BC4, symBinAddr: 0x24738, symSize: 0x34 }
  - { offset: 0x3ED19, size: 0x8, addend: 0x0, symName: __RNCINvNtNtCsc29TF2YcYso_3syn3gen4fold17fold_type_bare_fnNtNvCsfQFyxU9Vz2T_11yoke_derive16replace_lifetime15ReplaceLifetimeE0BW_, symObjAddr: 0x17BF8, symBinAddr: 0x2476C, symSize: 0x34 }
  - { offset: 0x3ED62, size: 0x8, addend: 0x0, symName: __RNCINvNtNtCsc29TF2YcYso_3syn3gen4fold17fold_type_bare_fnNtNvCsfQFyxU9Vz2T_11yoke_derive16replace_lifetime15ReplaceLifetimeEs0_0BW_, symObjAddr: 0x17C2C, symBinAddr: 0x247A0, symSize: 0x34 }
  - { offset: 0x3EDAB, size: 0x8, addend: 0x0, symName: __RNCINvNtNtCsc29TF2YcYso_3syn3gen4fold17fold_type_bare_fnNtNvCsfQFyxU9Vz2T_11yoke_derive16replace_lifetime15ReplaceLifetimeEs_0BW_, symObjAddr: 0x17C60, symBinAddr: 0x247D4, symSize: 0x40 }
  - { offset: 0x3EDF9, size: 0x8, addend: 0x0, symName: __RNCINvNtNtCsc29TF2YcYso_3syn3gen4fold18fold_bare_variadicNtNvCsfQFyxU9Vz2T_11yoke_derive16replace_lifetime15ReplaceLifetimeE0BX_, symObjAddr: 0x17CA0, symBinAddr: 0x24814, symSize: 0x80 }
  - { offset: 0x3EE48, size: 0x8, addend: 0x0, symName: __RNCINvNtNtCsc29TF2YcYso_3syn3gen4fold18fold_expr_continueNtNvCsfQFyxU9Vz2T_11yoke_derive16replace_lifetime15ReplaceLifetimeE0BX_, symObjAddr: 0x17D20, symBinAddr: 0x24894, symSize: 0x34 }
  - { offset: 0x3EE97, size: 0x8, addend: 0x0, symName: __RNCINvNtNtCsc29TF2YcYso_3syn3gen4fold18fold_expr_for_loopNtNvCsfQFyxU9Vz2T_11yoke_derive16replace_lifetime15ReplaceLifetimeE0BX_, symObjAddr: 0x17D54, symBinAddr: 0x248C8, symSize: 0x34 }
  - { offset: 0x3EEE6, size: 0x8, addend: 0x0, symName: __RNCINvNtNtCsc29TF2YcYso_3syn3gen4fold18fold_trait_item_fnNtNvCsfQFyxU9Vz2T_11yoke_derive16replace_lifetime15ReplaceLifetimeE0BX_, symObjAddr: 0x17D88, symBinAddr: 0x248FC, symSize: 0x34 }
  - { offset: 0x3EF35, size: 0x8, addend: 0x0, symName: __RNCINvNtNtCsc29TF2YcYso_3syn3gen4fold19fold_predicate_typeNtNvCsfQFyxU9Vz2T_11yoke_derive16replace_lifetime15ReplaceLifetimeE0BY_, symObjAddr: 0x17DBC, symBinAddr: 0x24930, symSize: 0x34 }
  - { offset: 0x3EF84, size: 0x8, addend: 0x0, symName: __RNCINvNtNtCsc29TF2YcYso_3syn3gen4fold19fold_type_referenceNtNvCsfQFyxU9Vz2T_11yoke_derive16replace_lifetime15ReplaceLifetimeE0BY_, symObjAddr: 0x17DF0, symBinAddr: 0x24964, symSize: 0x34 }
  - { offset: 0x3EFD3, size: 0x8, addend: 0x0, symName: __RNCINvNtNtCsc29TF2YcYso_3syn3gen4fold20fold_trait_item_typeNtNvCsfQFyxU9Vz2T_11yoke_derive16replace_lifetime15ReplaceLifetimeE0BZ_, symObjAddr: 0x17E24, symBinAddr: 0x24998, symSize: 0x94 }
  - { offset: 0x3F022, size: 0x8, addend: 0x0, symName: __RNCINvNtNtCsc29TF2YcYso_3syn3gen4fold21fold_expr_method_callNtNvCsfQFyxU9Vz2T_11yoke_derive16replace_lifetime15ReplaceLifetimeE0B10_, symObjAddr: 0x17EB8, symBinAddr: 0x24A2C, symSize: 0x34 }
  - { offset: 0x3F071, size: 0x8, addend: 0x0, symName: __RNCINvNtNtCsc29TF2YcYso_3syn3gen4fold21fold_pat_tuple_structNtNvCsfQFyxU9Vz2T_11yoke_derive16replace_lifetime15ReplaceLifetimeE0B10_, symObjAddr: 0x17EEC, symBinAddr: 0x24A60, symSize: 0x34 }
  - { offset: 0x3F0C0, size: 0x8, addend: 0x0, symName: __RNCINvNtNtCsc29TF2YcYso_3syn3gen4fold21fold_trait_item_constNtNvCsfQFyxU9Vz2T_11yoke_derive16replace_lifetime15ReplaceLifetimeE0B10_, symObjAddr: 0x17F20, symBinAddr: 0x24A94, symSize: 0x94 }
  - { offset: 0x3F10F, size: 0x8, addend: 0x0, symName: __RNCINvNtNtCsc29TF2YcYso_3syn3gen4fold22fold_item_extern_crateNtNvCsfQFyxU9Vz2T_11yoke_derive16replace_lifetime15ReplaceLifetimeE0B11_, symObjAddr: 0x17FB4, symBinAddr: 0x24B28, symSize: 0x78 }
  - { offset: 0x3F15E, size: 0x8, addend: 0x0, symName: __RNCINvNtNtCsc29TF2YcYso_3syn3gen4fold8fold_abiNtNvCsfQFyxU9Vz2T_11yoke_derive16replace_lifetime15ReplaceLifetimeE0BM_, symObjAddr: 0x1802C, symBinAddr: 0x24BA0, symSize: 0x3C }
  - { offset: 0x3F1AC, size: 0x8, addend: 0x0, symName: __RNCINvNtNtCsc29TF2YcYso_3syn3gen4fold8fold_armNtNvCsfQFyxU9Vz2T_11yoke_derive16replace_lifetime15ReplaceLifetimeE0BM_, symObjAddr: 0x18068, symBinAddr: 0x24BDC, symSize: 0x17C }
  - { offset: 0x3F21A, size: 0x8, addend: 0x0, symName: __RNCINvNtNtCsc29TF2YcYso_3syn3gen4fold8fold_vecNtNtB8_4attr9AttributeNtNvCsfQFyxU9Vz2T_11yoke_derive16replace_lifetime15ReplaceLifetimeNvYB14_NtB4_4Fold14fold_attributeE0B18_, symObjAddr: 0x181E4, symBinAddr: 0x24D58, symSize: 0x7C }
  - { offset: 0x3F28A, size: 0x8, addend: 0x0, symName: __RNCINvNtNtCsc29TF2YcYso_3syn3gen4fold8fold_vecNtNtB8_4expr3ArmNtNvCsfQFyxU9Vz2T_11yoke_derive16replace_lifetime15ReplaceLifetimeNvYBY_NtB4_4Fold8fold_armE0B12_, symObjAddr: 0x18260, symBinAddr: 0x24DD4, symSize: 0x7C }
  - { offset: 0x3F2FA, size: 0x8, addend: 0x0, symName: __RNCINvNtNtCsc29TF2YcYso_3syn3gen4fold8fold_vecNtNtB8_4item11ForeignItemNtNvCsfQFyxU9Vz2T_11yoke_derive16replace_lifetime15ReplaceLifetimeNvYB17_NtB4_4Fold17fold_foreign_itemE0B1b_, symObjAddr: 0x182DC, symBinAddr: 0x24E50, symSize: 0x7C }
  - { offset: 0x3F36A, size: 0x8, addend: 0x0, symName: __RNCINvNtNtCsc29TF2YcYso_3syn3gen4fold8fold_vecNtNtB8_4item4ItemNtNvCsfQFyxU9Vz2T_11yoke_derive16replace_lifetime15ReplaceLifetimeNvYBZ_NtB4_4Fold9fold_itemE0B13_, symObjAddr: 0x18358, symBinAddr: 0x24ECC, symSize: 0x7C }
  - { offset: 0x3F3DA, size: 0x8, addend: 0x0, symName: __RNCINvNtNtCsc29TF2YcYso_3syn3gen4fold8fold_vecNtNtB8_4item8ImplItemNtNvCsfQFyxU9Vz2T_11yoke_derive16replace_lifetime15ReplaceLifetimeNvYB13_NtB4_4Fold14fold_impl_itemE0B17_, symObjAddr: 0x183D4, symBinAddr: 0x24F48, symSize: 0x7C }
  - { offset: 0x3F44A, size: 0x8, addend: 0x0, symName: __RNCINvNtNtCsc29TF2YcYso_3syn3gen4fold8fold_vecNtNtB8_4item9TraitItemNtNvCsfQFyxU9Vz2T_11yoke_derive16replace_lifetime15ReplaceLifetimeNvYB14_NtB4_4Fold15fold_trait_itemE0B18_, symObjAddr: 0x18450, symBinAddr: 0x24FC4, symSize: 0x7C }
  - { offset: 0x3F4BA, size: 0x8, addend: 0x0, symName: __RNCINvNtNtCsc29TF2YcYso_3syn3gen4fold8fold_vecNtNtB8_4stmt4StmtNtNvCsfQFyxU9Vz2T_11yoke_derive16replace_lifetime15ReplaceLifetimeNvYBZ_NtB4_4Fold9fold_stmtE0B13_, symObjAddr: 0x184CC, symBinAddr: 0x25040, symSize: 0x7C }
  - { offset: 0x47380, size: 0x8, addend: 0x0, symName: __RINvNtNtCsc29TF2YcYso_3syn3gen5visit10visit_exprNtNtCsfQFyxU9Vz2T_11yoke_derive7visitor11TypeVisitorEBO_, symObjAddr: 0x0, symBinAddr: 0x250F0, symSize: 0x7D8 }
  - { offset: 0x47CD7, size: 0x8, addend: 0x0, symName: __RINvNtNtCsc29TF2YcYso_3syn3gen5visit10visit_exprNtNtCsfQFyxU9Vz2T_11yoke_derive7visitor11TypeVisitorEBO_, symObjAddr: 0x0, symBinAddr: 0x250F0, symSize: 0x7D8 }
  - { offset: 0x481E1, size: 0x8, addend: 0x0, symName: __RINvNtNtCsc29TF2YcYso_3syn3gen5visit10visit_itemNtNtCsfQFyxU9Vz2T_11yoke_derive7visitor11TypeVisitorEBO_, symObjAddr: 0x7D8, symBinAddr: 0x258C8, symSize: 0x35C }
  - { offset: 0x48401, size: 0x8, addend: 0x0, symName: __RINvNtNtCsc29TF2YcYso_3syn3gen5visit10visit_metaNtNtCsfQFyxU9Vz2T_11yoke_derive7visitor11TypeVisitorEBO_, symObjAddr: 0xB34, symBinAddr: 0x25C24, symSize: 0xE8 }
  - { offset: 0x48495, size: 0x8, addend: 0x0, symName: __RINvNtNtCsc29TF2YcYso_3syn3gen5visit10visit_pathNtNtCsfQFyxU9Vz2T_11yoke_derive7visitor11TypeVisitorEBO_, symObjAddr: 0xC1C, symBinAddr: 0x25D0C, symSize: 0xC8 }
  - { offset: 0x48532, size: 0x8, addend: 0x0, symName: __RINvNtNtCsc29TF2YcYso_3syn3gen5visit10visit_stmtNtNtCsfQFyxU9Vz2T_11yoke_derive7visitor11TypeVisitorEBO_, symObjAddr: 0xCE4, symBinAddr: 0x25DD4, symSize: 0x12C }
  - { offset: 0x485F4, size: 0x8, addend: 0x0, symName: __RINvNtNtCsc29TF2YcYso_3syn3gen5visit10visit_typeNtNtCsfQFyxU9Vz2T_11yoke_derive7visitor11TypeVisitorEBO_, symObjAddr: 0xE10, symBinAddr: 0x25F00, symSize: 0x328 }
  - { offset: 0x487F4, size: 0x8, addend: 0x0, symName: __RINvNtNtCsc29TF2YcYso_3syn3gen5visit11visit_blockNtNtCsfQFyxU9Vz2T_11yoke_derive7visitor11TypeVisitorEBP_, symObjAddr: 0x1138, symBinAddr: 0x26228, symSize: 0x98 }
  - { offset: 0x48872, size: 0x8, addend: 0x0, symName: __RINvNtNtCsc29TF2YcYso_3syn3gen5visit11visit_fieldNtNtCsfQFyxU9Vz2T_11yoke_derive7visitor11TypeVisitorEBP_, symObjAddr: 0x11D0, symBinAddr: 0x262C0, symSize: 0x114 }
  - { offset: 0x4890E, size: 0x8, addend: 0x0, symName: __RINvNtNtCsc29TF2YcYso_3syn3gen5visit11visit_identNtNtCsfQFyxU9Vz2T_11yoke_derive7visitor11TypeVisitorEBP_, symObjAddr: 0x12E4, symBinAddr: 0x263D4, symSize: 0x58 }
  - { offset: 0x48950, size: 0x8, addend: 0x0, symName: __RINvNtNtCsc29TF2YcYso_3syn3gen5visit11visit_indexNtNtCsfQFyxU9Vz2T_11yoke_derive7visitor11TypeVisitorEBP_, symObjAddr: 0x133C, symBinAddr: 0x2642C, symSize: 0x3C }
  - { offset: 0x48992, size: 0x8, addend: 0x0, symName: __RINvNtNtCsc29TF2YcYso_3syn3gen5visit11visit_labelNtNtCsfQFyxU9Vz2T_11yoke_derive7visitor11TypeVisitorEBP_, symObjAddr: 0x1378, symBinAddr: 0x26468, symSize: 0x3C }
  - { offset: 0x489D4, size: 0x8, addend: 0x0, symName: __RINvNtNtCsc29TF2YcYso_3syn3gen5visit11visit_localNtNtCsfQFyxU9Vz2T_11yoke_derive7visitor11TypeVisitorEBP_, symObjAddr: 0x13B4, symBinAddr: 0x264A4, symSize: 0xFC }
  - { offset: 0x48A70, size: 0x8, addend: 0x0, symName: __RINvNtNtCsc29TF2YcYso_3syn3gen5visit11visit_macroNtNtCsfQFyxU9Vz2T_11yoke_derive7visitor11TypeVisitorEBP_, symObjAddr: 0x14B0, symBinAddr: 0x265A0, symSize: 0x60 }
  - { offset: 0x48AB2, size: 0x8, addend: 0x0, symName: __RINvNtNtCsc29TF2YcYso_3syn3gen5visit11visit_qselfNtNtCsfQFyxU9Vz2T_11yoke_derive7visitor11TypeVisitorEBP_, symObjAddr: 0x1510, symBinAddr: 0x26600, symSize: 0x90 }
  - { offset: 0x48AF4, size: 0x8, addend: 0x0, symName: __RINvNtNtCsc29TF2YcYso_3syn3gen5visit11visit_un_opNtNtCsfQFyxU9Vz2T_11yoke_derive7visitor11TypeVisitorEBP_, symObjAddr: 0x15A0, symBinAddr: 0x26690, symSize: 0xA8 }
  - { offset: 0x48B36, size: 0x8, addend: 0x0, symName: __RINvNtNtCsc29TF2YcYso_3syn3gen5visit12visit_bin_opNtNtCsfQFyxU9Vz2T_11yoke_derive7visitor11TypeVisitorEBQ_, symObjAddr: 0x1648, symBinAddr: 0x26738, symSize: 0x438 }
  - { offset: 0x48B78, size: 0x8, addend: 0x0, symName: __RINvNtNtCsc29TF2YcYso_3syn3gen5visit12visit_fieldsNtNtCsfQFyxU9Vz2T_11yoke_derive7visitor11TypeVisitorEBQ_, symObjAddr: 0x1A80, symBinAddr: 0x26B70, symSize: 0xC4 }
  - { offset: 0x48BF6, size: 0x8, addend: 0x0, symName: __RINvNtNtCsc29TF2YcYso_3syn3gen5visit12visit_fn_argNtNtCsfQFyxU9Vz2T_11yoke_derive7visitor11TypeVisitorEBQ_, symObjAddr: 0x1B44, symBinAddr: 0x26C34, symSize: 0xA0 }
  - { offset: 0x48C6C, size: 0x8, addend: 0x0, symName: __RINvNtNtCsc29TF2YcYso_3syn3gen5visit12visit_memberNtNtCsfQFyxU9Vz2T_11yoke_derive7visitor11TypeVisitorEBQ_, symObjAddr: 0x1BE4, symBinAddr: 0x26CD4, symSize: 0x98 }
  - { offset: 0x48CE2, size: 0x8, addend: 0x0, symName: __RINvNtNtCsc29TF2YcYso_3syn3gen5visit12visit_pat_orNtNtCsfQFyxU9Vz2T_11yoke_derive7visitor11TypeVisitorEBQ_, symObjAddr: 0x1C7C, symBinAddr: 0x26D6C, symSize: 0x128 }
  - { offset: 0x48DBB, size: 0x8, addend: 0x0, symName: __RINvNtNtCsc29TF2YcYso_3syn3gen5visit13visit_expr_ifNtNtCsfQFyxU9Vz2T_11yoke_derive7visitor11TypeVisitorEBR_, symObjAddr: 0x1DA4, symBinAddr: 0x26E94, symSize: 0x1A8 }
  - { offset: 0x48E4F, size: 0x8, addend: 0x0, symName: __RINvNtNtCsc29TF2YcYso_3syn3gen5visit13visit_item_fnNtNtCsfQFyxU9Vz2T_11yoke_derive7visitor11TypeVisitorEBR_, symObjAddr: 0x1F4C, symBinAddr: 0x2703C, symSize: 0x110 }
  - { offset: 0x48ECD, size: 0x8, addend: 0x0, symName: __RINvNtNtCsc29TF2YcYso_3syn3gen5visit13visit_lit_intNtNtCsfQFyxU9Vz2T_11yoke_derive7visitor11TypeVisitorEBR_, symObjAddr: 0x205C, symBinAddr: 0x2714C, symSize: 0x24 }
  - { offset: 0x48F0F, size: 0x8, addend: 0x0, symName: __RINvNtNtCsc29TF2YcYso_3syn3gen5visit13visit_lit_strNtNtCsfQFyxU9Vz2T_11yoke_derive7visitor11TypeVisitorEBR_, symObjAddr: 0x2080, symBinAddr: 0x27170, symSize: 0x24 }
  - { offset: 0x48F51, size: 0x8, addend: 0x0, symName: __RINvNtNtCsc29TF2YcYso_3syn3gen5visit13visit_variantNtNtCsfQFyxU9Vz2T_11yoke_derive7visitor11TypeVisitorEBR_, symObjAddr: 0x20A4, symBinAddr: 0x27194, symSize: 0x108 }
  - { offset: 0x48FED, size: 0x8, addend: 0x0, symName: __RINvNtNtCsc29TF2YcYso_3syn3gen5visit14visit_expr_letNtNtCsfQFyxU9Vz2T_11yoke_derive7visitor11TypeVisitorEBS_, symObjAddr: 0x21AC, symBinAddr: 0x2729C, symSize: 0x154 }
  - { offset: 0x4906B, size: 0x8, addend: 0x0, symName: __RINvNtNtCsc29TF2YcYso_3syn3gen5visit14visit_expr_litNtNtCsfQFyxU9Vz2T_11yoke_derive7visitor11TypeVisitorEBS_, symObjAddr: 0x2300, symBinAddr: 0x273F0, symSize: 0xA8 }
  - { offset: 0x490E9, size: 0x8, addend: 0x0, symName: __RINvNtNtCsc29TF2YcYso_3syn3gen5visit14visit_expr_tryNtNtCsfQFyxU9Vz2T_11yoke_derive7visitor11TypeVisitorEBS_, symObjAddr: 0x23A8, symBinAddr: 0x27498, symSize: 0xF8 }
  - { offset: 0x49167, size: 0x8, addend: 0x0, symName: __RINvNtNtCsc29TF2YcYso_3syn3gen5visit14visit_genericsNtNtCsfQFyxU9Vz2T_11yoke_derive7visitor11TypeVisitorEBS_, symObjAddr: 0x24A0, symBinAddr: 0x27590, symSize: 0x120 }
  - { offset: 0x49222, size: 0x8, addend: 0x0, symName: __RINvNtNtCsc29TF2YcYso_3syn3gen5visit14visit_item_modNtNtCsfQFyxU9Vz2T_11yoke_derive7visitor11TypeVisitorEBS_, symObjAddr: 0x25C0, symBinAddr: 0x276B0, symSize: 0x164 }
  - { offset: 0x492EA, size: 0x8, addend: 0x0, symName: __RINvNtNtCsc29TF2YcYso_3syn3gen5visit14visit_item_useNtNtCsfQFyxU9Vz2T_11yoke_derive7visitor11TypeVisitorEBS_, symObjAddr: 0x2724, symBinAddr: 0x27814, symSize: 0xB8 }
  - { offset: 0x49368, size: 0x8, addend: 0x0, symName: __RINvNtNtCsc29TF2YcYso_3syn3gen5visit14visit_lifetimeNtNtCsfQFyxU9Vz2T_11yoke_derive7visitor11TypeVisitorEBS_, symObjAddr: 0x27DC, symBinAddr: 0x278CC, symSize: 0x50 }
  - { offset: 0x493AA, size: 0x8, addend: 0x0, symName: __RINvNtNtCsc29TF2YcYso_3syn3gen5visit14visit_lit_boolNtNtCsfQFyxU9Vz2T_11yoke_derive7visitor11TypeVisitorEBS_, symObjAddr: 0x282C, symBinAddr: 0x2791C, symSize: 0x3C }
  - { offset: 0x493EC, size: 0x8, addend: 0x0, symName: __RINvNtNtCsc29TF2YcYso_3syn3gen5visit14visit_lit_byteNtNtCsfQFyxU9Vz2T_11yoke_derive7visitor11TypeVisitorEBS_, symObjAddr: 0x2868, symBinAddr: 0x27958, symSize: 0x24 }
  - { offset: 0x4942E, size: 0x8, addend: 0x0, symName: __RINvNtNtCsc29TF2YcYso_3syn3gen5visit14visit_lit_charNtNtCsfQFyxU9Vz2T_11yoke_derive7visitor11TypeVisitorEBS_, symObjAddr: 0x288C, symBinAddr: 0x2797C, symSize: 0x24 }
  - { offset: 0x49470, size: 0x8, addend: 0x0, symName: __RINvNtNtCsc29TF2YcYso_3syn3gen5visit14visit_lit_cstrNtNtCsfQFyxU9Vz2T_11yoke_derive7visitor11TypeVisitorEBS_, symObjAddr: 0x28B0, symBinAddr: 0x279A0, symSize: 0x24 }
  - { offset: 0x494B2, size: 0x8, addend: 0x0, symName: __RINvNtNtCsc29TF2YcYso_3syn3gen5visit14visit_pat_restNtNtCsfQFyxU9Vz2T_11yoke_derive7visitor11TypeVisitorEBS_, symObjAddr: 0x28D4, symBinAddr: 0x279C4, symSize: 0x98 }
  - { offset: 0x49530, size: 0x8, addend: 0x0, symName: __RINvNtNtCsc29TF2YcYso_3syn3gen5visit14visit_pat_typeNtNtCsfQFyxU9Vz2T_11yoke_derive7visitor11TypeVisitorEBS_, symObjAddr: 0x296C, symBinAddr: 0x27A5C, symSize: 0x154 }
  - { offset: 0x495AE, size: 0x8, addend: 0x0, symName: __RINvNtNtCsc29TF2YcYso_3syn3gen5visit14visit_pat_wildNtNtCsfQFyxU9Vz2T_11yoke_derive7visitor11TypeVisitorEBS_, symObjAddr: 0x2AC0, symBinAddr: 0x27BB0, symSize: 0x98 }
  - { offset: 0x4962C, size: 0x8, addend: 0x0, symName: __RINvNtNtCsc29TF2YcYso_3syn3gen5visit14visit_receiverNtNtCsfQFyxU9Vz2T_11yoke_derive7visitor11TypeVisitorEBS_, symObjAddr: 0x2B58, symBinAddr: 0x27C48, symSize: 0x18C }
  - { offset: 0x496D6, size: 0x8, addend: 0x0, symName: __RINvNtNtCsc29TF2YcYso_3syn3gen5visit14visit_type_ptrNtNtCsfQFyxU9Vz2T_11yoke_derive7visitor11TypeVisitorEBS_, symObjAddr: 0x2CE4, symBinAddr: 0x27DD4, symSize: 0x90 }
  - { offset: 0x49718, size: 0x8, addend: 0x0, symName: __RINvNtNtCsc29TF2YcYso_3syn3gen5visit14visit_use_globNtNtCsfQFyxU9Vz2T_11yoke_derive7visitor11TypeVisitorEBS_, symObjAddr: 0x2D74, symBinAddr: 0x27E64, symSize: 0x24 }
  - { offset: 0x4975A, size: 0x8, addend: 0x0, symName: __RINvNtNtCsc29TF2YcYso_3syn3gen5visit14visit_use_nameNtNtCsfQFyxU9Vz2T_11yoke_derive7visitor11TypeVisitorEBS_, symObjAddr: 0x2D98, symBinAddr: 0x27E88, symSize: 0x3C }
  - { offset: 0x4979C, size: 0x8, addend: 0x0, symName: __RINvNtNtCsc29TF2YcYso_3syn3gen5visit14visit_use_pathNtNtCsfQFyxU9Vz2T_11yoke_derive7visitor11TypeVisitorEBS_, symObjAddr: 0x2DD4, symBinAddr: 0x27EC4, symSize: 0xA4 }
  - { offset: 0x497DE, size: 0x8, addend: 0x0, symName: __RINvNtNtCsc29TF2YcYso_3syn3gen5visit14visit_use_treeNtNtCsfQFyxU9Vz2T_11yoke_derive7visitor11TypeVisitorEBS_, symObjAddr: 0x2E78, symBinAddr: 0x27F68, symSize: 0x15C }
  - { offset: 0x498AE, size: 0x8, addend: 0x0, symName: __RINvNtNtCsc29TF2YcYso_3syn3gen5visit14visit_variadicNtNtCsfQFyxU9Vz2T_11yoke_derive7visitor11TypeVisitorEBS_, symObjAddr: 0x2FD4, symBinAddr: 0x280C4, symSize: 0x13C }
  - { offset: 0x49942, size: 0x8, addend: 0x0, symName: __RINvNtNtCsc29TF2YcYso_3syn3gen5visit15visit_attributeNtNtCsfQFyxU9Vz2T_11yoke_derive7visitor11TypeVisitorEBT_, symObjAddr: 0x3110, symBinAddr: 0x28200, symSize: 0x50 }
  - { offset: 0x49984, size: 0x8, addend: 0x0, symName: __RINvNtNtCsc29TF2YcYso_3syn3gen5visit15visit_expr_callNtNtCsfQFyxU9Vz2T_11yoke_derive7visitor11TypeVisitorEBT_, symObjAddr: 0x3160, symBinAddr: 0x28250, symSize: 0x188 }
  - { offset: 0x49A55, size: 0x8, addend: 0x0, symName: __RINvNtNtCsc29TF2YcYso_3syn3gen5visit15visit_expr_castNtNtCsfQFyxU9Vz2T_11yoke_derive7visitor11TypeVisitorEBT_, symObjAddr: 0x32E8, symBinAddr: 0x283D8, symSize: 0x154 }
  - { offset: 0x49AD3, size: 0x8, addend: 0x0, symName: __RINvNtNtCsc29TF2YcYso_3syn3gen5visit15visit_expr_loopNtNtCsfQFyxU9Vz2T_11yoke_derive7visitor11TypeVisitorEBT_, symObjAddr: 0x343C, symBinAddr: 0x2852C, symSize: 0xFC }
  - { offset: 0x49B6F, size: 0x8, addend: 0x0, symName: __RINvNtNtCsc29TF2YcYso_3syn3gen5visit15visit_expr_pathNtNtCsfQFyxU9Vz2T_11yoke_derive7visitor11TypeVisitorEBT_, symObjAddr: 0x3538, symBinAddr: 0x28628, symSize: 0xFC }
  - { offset: 0x49C0B, size: 0x8, addend: 0x0, symName: __RINvNtNtCsc29TF2YcYso_3syn3gen5visit15visit_field_patNtNtCsfQFyxU9Vz2T_11yoke_derive7visitor11TypeVisitorEBT_, symObjAddr: 0x3634, symBinAddr: 0x28724, symSize: 0x108 }
  - { offset: 0x49C89, size: 0x8, addend: 0x0, symName: __RINvNtNtCsc29TF2YcYso_3syn3gen5visit15visit_impl_itemNtNtCsfQFyxU9Vz2T_11yoke_derive7visitor11TypeVisitorEBT_, symObjAddr: 0x373C, symBinAddr: 0x2882C, symSize: 0x168 }
  - { offset: 0x49D59, size: 0x8, addend: 0x0, symName: __RINvNtNtCsc29TF2YcYso_3syn3gen5visit15visit_item_enumNtNtCsfQFyxU9Vz2T_11yoke_derive7visitor11TypeVisitorEBT_, symObjAddr: 0x38A4, symBinAddr: 0x28994, symSize: 0x158 }
  - { offset: 0x49E32, size: 0x8, addend: 0x0, symName: __RINvNtNtCsc29TF2YcYso_3syn3gen5visit15visit_item_implNtNtCsfQFyxU9Vz2T_11yoke_derive7visitor11TypeVisitorEBT_, symObjAddr: 0x39FC, symBinAddr: 0x28AEC, symSize: 0x1BC }
  - { offset: 0x49F03, size: 0x8, addend: 0x0, symName: __RINvNtNtCsc29TF2YcYso_3syn3gen5visit15visit_item_typeNtNtCsfQFyxU9Vz2T_11yoke_derive7visitor11TypeVisitorEBT_, symObjAddr: 0x3BB8, symBinAddr: 0x28CA8, symSize: 0x128 }
  - { offset: 0x49F81, size: 0x8, addend: 0x0, symName: __RINvNtNtCsc29TF2YcYso_3syn3gen5visit15visit_lit_floatNtNtCsfQFyxU9Vz2T_11yoke_derive7visitor11TypeVisitorEBT_, symObjAddr: 0x3CE0, symBinAddr: 0x28DD0, symSize: 0x24 }
  - { offset: 0x49FC3, size: 0x8, addend: 0x0, symName: __RINvNtNtCsc29TF2YcYso_3syn3gen5visit15visit_meta_listNtNtCsfQFyxU9Vz2T_11yoke_derive7visitor11TypeVisitorEBT_, symObjAddr: 0x3D04, symBinAddr: 0x28DF4, symSize: 0x60 }
  - { offset: 0x4A005, size: 0x8, addend: 0x0, symName: __RINvNtNtCsc29TF2YcYso_3syn3gen5visit15visit_pat_identNtNtCsfQFyxU9Vz2T_11yoke_derive7visitor11TypeVisitorEBT_, symObjAddr: 0x3D64, symBinAddr: 0x28E54, symSize: 0x14C }
  - { offset: 0x4A099, size: 0x8, addend: 0x0, symName: __RINvNtNtCsc29TF2YcYso_3syn3gen5visit15visit_pat_parenNtNtCsfQFyxU9Vz2T_11yoke_derive7visitor11TypeVisitorEBT_, symObjAddr: 0x3EB0, symBinAddr: 0x28FA0, symSize: 0xF8 }
  - { offset: 0x4A117, size: 0x8, addend: 0x0, symName: __RINvNtNtCsc29TF2YcYso_3syn3gen5visit15visit_pat_sliceNtNtCsfQFyxU9Vz2T_11yoke_derive7visitor11TypeVisitorEBT_, symObjAddr: 0x3FA8, symBinAddr: 0x29098, symSize: 0x128 }
  - { offset: 0x4A1F0, size: 0x8, addend: 0x0, symName: __RINvNtNtCsc29TF2YcYso_3syn3gen5visit15visit_pat_tupleNtNtCsfQFyxU9Vz2T_11yoke_derive7visitor11TypeVisitorEBT_, symObjAddr: 0x40D0, symBinAddr: 0x291C0, symSize: 0x128 }
  - { offset: 0x4A2C9, size: 0x8, addend: 0x0, symName: __RINvNtNtCsc29TF2YcYso_3syn3gen5visit15visit_signatureNtNtCsfQFyxU9Vz2T_11yoke_derive7visitor11TypeVisitorEBT_, symObjAddr: 0x41F8, symBinAddr: 0x292E8, symSize: 0x190 }
  - { offset: 0x4A3A2, size: 0x8, addend: 0x0, symName: __RINvNtNtCsc29TF2YcYso_3syn3gen5visit15visit_type_pathNtNtCsfQFyxU9Vz2T_11yoke_derive7visitor11TypeVisitorEBT_, symObjAddr: 0x4388, symBinAddr: 0x29478, symSize: 0x90 }
  - { offset: 0x4A402, size: 0x8, addend: 0x0, symName: __RINvNtNtCsc29TF2YcYso_3syn3gen5visit15visit_use_groupNtNtCsfQFyxU9Vz2T_11yoke_derive7visitor11TypeVisitorEBT_, symObjAddr: 0x4418, symBinAddr: 0x29508, symSize: 0xC8 }
  - { offset: 0x4A49F, size: 0x8, addend: 0x0, symName: __RINvNtNtCsc29TF2YcYso_3syn3gen5visit16visit_assoc_typeNtNtCsfQFyxU9Vz2T_11yoke_derive7visitor11TypeVisitorEBU_, symObjAddr: 0x44E0, symBinAddr: 0x295D0, symSize: 0xA4 }
  - { offset: 0x4A4FF, size: 0x8, addend: 0x0, symName: __RINvNtNtCsc29TF2YcYso_3syn3gen5visit16visit_attr_styleNtNtCsfQFyxU9Vz2T_11yoke_derive7visitor11TypeVisitorEBU_, symObjAddr: 0x4584, symBinAddr: 0x29674, symSize: 0x68 }
  - { offset: 0x4A541, size: 0x8, addend: 0x0, symName: __RINvNtNtCsc29TF2YcYso_3syn3gen5visit16visit_constraintNtNtCsfQFyxU9Vz2T_11yoke_derive7visitor11TypeVisitorEBU_, symObjAddr: 0x45EC, symBinAddr: 0x296DC, symSize: 0x124 }
  - { offset: 0x4A5FC, size: 0x8, addend: 0x0, symName: __RINvNtNtCsc29TF2YcYso_3syn3gen5visit16visit_expr_arrayNtNtCsfQFyxU9Vz2T_11yoke_derive7visitor11TypeVisitorEBU_, symObjAddr: 0x4710, symBinAddr: 0x29800, symSize: 0x128 }
  - { offset: 0x4A6D5, size: 0x8, addend: 0x0, symName: __RINvNtNtCsc29TF2YcYso_3syn3gen5visit16visit_expr_asyncNtNtCsfQFyxU9Vz2T_11yoke_derive7visitor11TypeVisitorEBU_, symObjAddr: 0x4838, symBinAddr: 0x29928, symSize: 0xA8 }
  - { offset: 0x4A753, size: 0x8, addend: 0x0, symName: __RINvNtNtCsc29TF2YcYso_3syn3gen5visit16visit_expr_awaitNtNtCsfQFyxU9Vz2T_11yoke_derive7visitor11TypeVisitorEBU_, symObjAddr: 0x48E0, symBinAddr: 0x299D0, symSize: 0xF8 }
  - { offset: 0x4A7D1, size: 0x8, addend: 0x0, symName: __RINvNtNtCsc29TF2YcYso_3syn3gen5visit16visit_expr_blockNtNtCsfQFyxU9Vz2T_11yoke_derive7visitor11TypeVisitorEBU_, symObjAddr: 0x49D8, symBinAddr: 0x29AC8, symSize: 0xFC }
  - { offset: 0x4A86D, size: 0x8, addend: 0x0, symName: __RINvNtNtCsc29TF2YcYso_3syn3gen5visit16visit_expr_breakNtNtCsfQFyxU9Vz2T_11yoke_derive7visitor11TypeVisitorEBU_, symObjAddr: 0x4AD4, symBinAddr: 0x29BC4, symSize: 0x18C }
  - { offset: 0x4A91F, size: 0x8, addend: 0x0, symName: __RINvNtNtCsc29TF2YcYso_3syn3gen5visit16visit_expr_constNtNtCsfQFyxU9Vz2T_11yoke_derive7visitor11TypeVisitorEBU_, symObjAddr: 0x4C60, symBinAddr: 0x29D50, symSize: 0xA8 }
  - { offset: 0x4A99D, size: 0x8, addend: 0x0, symName: __RINvNtNtCsc29TF2YcYso_3syn3gen5visit16visit_expr_fieldNtNtCsfQFyxU9Vz2T_11yoke_derive7visitor11TypeVisitorEBU_, symObjAddr: 0x4D08, symBinAddr: 0x29DF8, symSize: 0x108 }
  - { offset: 0x4AA1B, size: 0x8, addend: 0x0, symName: __RINvNtNtCsc29TF2YcYso_3syn3gen5visit16visit_expr_groupNtNtCsfQFyxU9Vz2T_11yoke_derive7visitor11TypeVisitorEBU_, symObjAddr: 0x4E10, symBinAddr: 0x29F00, symSize: 0xF8 }
  - { offset: 0x4AA99, size: 0x8, addend: 0x0, symName: __RINvNtNtCsc29TF2YcYso_3syn3gen5visit16visit_expr_indexNtNtCsfQFyxU9Vz2T_11yoke_derive7visitor11TypeVisitorEBU_, symObjAddr: 0x4F08, symBinAddr: 0x29FF8, symSize: 0x154 }
  - { offset: 0x4AB17, size: 0x8, addend: 0x0, symName: __RINvNtNtCsc29TF2YcYso_3syn3gen5visit16visit_expr_inferNtNtCsfQFyxU9Vz2T_11yoke_derive7visitor11TypeVisitorEBU_, symObjAddr: 0x505C, symBinAddr: 0x2A14C, symSize: 0x98 }
  - { offset: 0x4AB95, size: 0x8, addend: 0x0, symName: __RINvNtNtCsc29TF2YcYso_3syn3gen5visit16visit_expr_macroNtNtCsfQFyxU9Vz2T_11yoke_derive7visitor11TypeVisitorEBU_, symObjAddr: 0x50F4, symBinAddr: 0x2A1E4, symSize: 0xA8 }
  - { offset: 0x4AC13, size: 0x8, addend: 0x0, symName: __RINvNtNtCsc29TF2YcYso_3syn3gen5visit16visit_expr_matchNtNtCsfQFyxU9Vz2T_11yoke_derive7visitor11TypeVisitorEBU_, symObjAddr: 0x519C, symBinAddr: 0x2A28C, symSize: 0x158 }
  - { offset: 0x4ACC5, size: 0x8, addend: 0x0, symName: __RINvNtNtCsc29TF2YcYso_3syn3gen5visit16visit_expr_parenNtNtCsfQFyxU9Vz2T_11yoke_derive7visitor11TypeVisitorEBU_, symObjAddr: 0x52F4, symBinAddr: 0x2A3E4, symSize: 0xF8 }
  - { offset: 0x4AD43, size: 0x8, addend: 0x0, symName: __RINvNtNtCsc29TF2YcYso_3syn3gen5visit16visit_expr_rangeNtNtCsfQFyxU9Vz2T_11yoke_derive7visitor11TypeVisitorEBU_, symObjAddr: 0x53EC, symBinAddr: 0x2A4DC, symSize: 0x1EC }
  - { offset: 0x4ADED, size: 0x8, addend: 0x0, symName: __RINvNtNtCsc29TF2YcYso_3syn3gen5visit16visit_expr_tupleNtNtCsfQFyxU9Vz2T_11yoke_derive7visitor11TypeVisitorEBU_, symObjAddr: 0x55D8, symBinAddr: 0x2A6C8, symSize: 0x128 }
  - { offset: 0x4AEC6, size: 0x8, addend: 0x0, symName: __RINvNtNtCsc29TF2YcYso_3syn3gen5visit16visit_expr_unaryNtNtCsfQFyxU9Vz2T_11yoke_derive7visitor11TypeVisitorEBU_, symObjAddr: 0x5700, symBinAddr: 0x2A7F0, symSize: 0x108 }
  - { offset: 0x4AF44, size: 0x8, addend: 0x0, symName: __RINvNtNtCsc29TF2YcYso_3syn3gen5visit16visit_expr_whileNtNtCsfQFyxU9Vz2T_11yoke_derive7visitor11TypeVisitorEBU_, symObjAddr: 0x5808, symBinAddr: 0x2A8F8, symSize: 0x158 }
  - { offset: 0x4AFE0, size: 0x8, addend: 0x0, symName: __RINvNtNtCsc29TF2YcYso_3syn3gen5visit16visit_expr_yieldNtNtCsfQFyxU9Vz2T_11yoke_derive7visitor11TypeVisitorEBU_, symObjAddr: 0x5960, symBinAddr: 0x2AA50, symSize: 0x13C }
  - { offset: 0x4B074, size: 0x8, addend: 0x0, symName: __RINvNtNtCsc29TF2YcYso_3syn3gen5visit16visit_item_constNtNtCsfQFyxU9Vz2T_11yoke_derive7visitor11TypeVisitorEBU_, symObjAddr: 0x5A9C, symBinAddr: 0x2AB8C, symSize: 0x184 }
  - { offset: 0x4B0F2, size: 0x8, addend: 0x0, symName: __RINvNtNtCsc29TF2YcYso_3syn3gen5visit16visit_item_macroNtNtCsfQFyxU9Vz2T_11yoke_derive7visitor11TypeVisitorEBU_, symObjAddr: 0x5C20, symBinAddr: 0x2AD10, symSize: 0xFC }
  - { offset: 0x4B18E, size: 0x8, addend: 0x0, symName: __RINvNtNtCsc29TF2YcYso_3syn3gen5visit16visit_item_traitNtNtCsfQFyxU9Vz2T_11yoke_derive7visitor11TypeVisitorEBU_, symObjAddr: 0x5D1C, symBinAddr: 0x2AE0C, symSize: 0x1BC }
  - { offset: 0x4B2BF, size: 0x8, addend: 0x0, symName: __RINvNtNtCsc29TF2YcYso_3syn3gen5visit16visit_item_unionNtNtCsfQFyxU9Vz2T_11yoke_derive7visitor11TypeVisitorEBU_, symObjAddr: 0x5ED8, symBinAddr: 0x2AFC8, symSize: 0xD8 }
  - { offset: 0x4B33D, size: 0x8, addend: 0x0, symName: __RINvNtNtCsc29TF2YcYso_3syn3gen5visit16visit_local_initNtNtCsfQFyxU9Vz2T_11yoke_derive7visitor11TypeVisitorEBU_, symObjAddr: 0x5FB0, symBinAddr: 0x2B0A0, symSize: 0x134 }
  - { offset: 0x4B395, size: 0x8, addend: 0x0, symName: __RINvNtNtCsc29TF2YcYso_3syn3gen5visit16visit_pat_structNtNtCsfQFyxU9Vz2T_11yoke_derive7visitor11TypeVisitorEBU_, symObjAddr: 0x60E4, symBinAddr: 0x2B1D4, symSize: 0x1E0 }
  - { offset: 0x4B4AA, size: 0x8, addend: 0x0, symName: __RINvNtNtCsc29TF2YcYso_3syn3gen5visit16visit_stmt_macroNtNtCsfQFyxU9Vz2T_11yoke_derive7visitor11TypeVisitorEBU_, symObjAddr: 0x62C4, symBinAddr: 0x2B3B4, symSize: 0xA8 }
  - { offset: 0x4B528, size: 0x8, addend: 0x0, symName: __RINvNtNtCsc29TF2YcYso_3syn3gen5visit16visit_trait_itemNtNtCsfQFyxU9Vz2T_11yoke_derive7visitor11TypeVisitorEBU_, symObjAddr: 0x636C, symBinAddr: 0x2B45C, symSize: 0x168 }
  - { offset: 0x4B5F8, size: 0x8, addend: 0x0, symName: __RINvNtNtCsc29TF2YcYso_3syn3gen5visit16visit_type_arrayNtNtCsfQFyxU9Vz2T_11yoke_derive7visitor11TypeVisitorEBU_, symObjAddr: 0x64D4, symBinAddr: 0x2B5C4, symSize: 0xA0 }
  - { offset: 0x4B63A, size: 0x8, addend: 0x0, symName: __RINvNtNtCsc29TF2YcYso_3syn3gen5visit16visit_type_groupNtNtCsfQFyxU9Vz2T_11yoke_derive7visitor11TypeVisitorEBU_, symObjAddr: 0x6574, symBinAddr: 0x2B664, symSize: 0x90 }
  - { offset: 0x4B67C, size: 0x8, addend: 0x0, symName: __RINvNtNtCsc29TF2YcYso_3syn3gen5visit16visit_type_inferNtNtCsfQFyxU9Vz2T_11yoke_derive7visitor11TypeVisitorEBU_, symObjAddr: 0x6604, symBinAddr: 0x2B6F4, symSize: 0x24 }
  - { offset: 0x4B6BE, size: 0x8, addend: 0x0, symName: __RINvNtNtCsc29TF2YcYso_3syn3gen5visit16visit_type_macroNtNtCsfQFyxU9Vz2T_11yoke_derive7visitor11TypeVisitorEBU_, symObjAddr: 0x6628, symBinAddr: 0x2B718, symSize: 0x3C }
  - { offset: 0x4B700, size: 0x8, addend: 0x0, symName: __RINvNtNtCsc29TF2YcYso_3syn3gen5visit16visit_type_neverNtNtCsfQFyxU9Vz2T_11yoke_derive7visitor11TypeVisitorEBU_, symObjAddr: 0x6664, symBinAddr: 0x2B754, symSize: 0x24 }
  - { offset: 0x4B742, size: 0x8, addend: 0x0, symName: __RINvNtNtCsc29TF2YcYso_3syn3gen5visit16visit_type_paramNtNtCsfQFyxU9Vz2T_11yoke_derive7visitor11TypeVisitorEBU_, symObjAddr: 0x6688, symBinAddr: 0x2B778, symSize: 0x180 }
  - { offset: 0x4B839, size: 0x8, addend: 0x0, symName: __RINvNtNtCsc29TF2YcYso_3syn3gen5visit16visit_type_parenNtNtCsfQFyxU9Vz2T_11yoke_derive7visitor11TypeVisitorEBU_, symObjAddr: 0x6808, symBinAddr: 0x2B8F8, symSize: 0x90 }
  - { offset: 0x4B87B, size: 0x8, addend: 0x0, symName: __RINvNtNtCsc29TF2YcYso_3syn3gen5visit16visit_type_sliceNtNtCsfQFyxU9Vz2T_11yoke_derive7visitor11TypeVisitorEBU_, symObjAddr: 0x6898, symBinAddr: 0x2B988, symSize: 0x90 }
  - { offset: 0x4B8BD, size: 0x8, addend: 0x0, symName: __RINvNtNtCsc29TF2YcYso_3syn3gen5visit16visit_type_tupleNtNtCsfQFyxU9Vz2T_11yoke_derive7visitor11TypeVisitorEBU_, symObjAddr: 0x6928, symBinAddr: 0x2BA18, symSize: 0xC8 }
  - { offset: 0x4B95A, size: 0x8, addend: 0x0, symName: __RINvNtNtCsc29TF2YcYso_3syn3gen5visit16visit_use_renameNtNtCsfQFyxU9Vz2T_11yoke_derive7visitor11TypeVisitorEBU_, symObjAddr: 0x69F0, symBinAddr: 0x2BAE0, symSize: 0x50 }
  - { offset: 0x4B99C, size: 0x8, addend: 0x0, symName: __RINvNtNtCsc29TF2YcYso_3syn3gen5visit16visit_visibilityNtNtCsfQFyxU9Vz2T_11yoke_derive7visitor11TypeVisitorEBU_, symObjAddr: 0x6A40, symBinAddr: 0x2BB30, symSize: 0xC4 }
  - { offset: 0x4B9FC, size: 0x8, addend: 0x0, symName: __RINvNtNtCsc29TF2YcYso_3syn3gen5visit17visit_assoc_constNtNtCsfQFyxU9Vz2T_11yoke_derive7visitor11TypeVisitorEBV_, symObjAddr: 0x6B04, symBinAddr: 0x2BBF4, symSize: 0xA4 }
  - { offset: 0x4BA5C, size: 0x8, addend: 0x0, symName: __RINvNtNtCsc29TF2YcYso_3syn3gen5visit17visit_bare_fn_argNtNtCsfQFyxU9Vz2T_11yoke_derive7visitor11TypeVisitorEBV_, symObjAddr: 0x6BA8, symBinAddr: 0x2BC98, symSize: 0xF4 }
  - { offset: 0x4BAF8, size: 0x8, addend: 0x0, symName: __RINvNtNtCsc29TF2YcYso_3syn3gen5visit17visit_const_paramNtNtCsfQFyxU9Vz2T_11yoke_derive7visitor11TypeVisitorEBV_, symObjAddr: 0x6C9C, symBinAddr: 0x2BD8C, symSize: 0x104 }
  - { offset: 0x4BB94, size: 0x8, addend: 0x0, symName: __RINvNtNtCsc29TF2YcYso_3syn3gen5visit17visit_expr_assignNtNtCsfQFyxU9Vz2T_11yoke_derive7visitor11TypeVisitorEBV_, symObjAddr: 0x6DA0, symBinAddr: 0x2BE90, symSize: 0x154 }
  - { offset: 0x4BC12, size: 0x8, addend: 0x0, symName: __RINvNtNtCsc29TF2YcYso_3syn3gen5visit17visit_expr_binaryNtNtCsfQFyxU9Vz2T_11yoke_derive7visitor11TypeVisitorEBV_, symObjAddr: 0x6EF4, symBinAddr: 0x2BFE4, symSize: 0x164 }
  - { offset: 0x4BC90, size: 0x8, addend: 0x0, symName: __RINvNtNtCsc29TF2YcYso_3syn3gen5visit17visit_expr_repeatNtNtCsfQFyxU9Vz2T_11yoke_derive7visitor11TypeVisitorEBV_, symObjAddr: 0x7058, symBinAddr: 0x2C148, symSize: 0x154 }
  - { offset: 0x4BD0E, size: 0x8, addend: 0x0, symName: __RINvNtNtCsc29TF2YcYso_3syn3gen5visit17visit_expr_returnNtNtCsfQFyxU9Vz2T_11yoke_derive7visitor11TypeVisitorEBV_, symObjAddr: 0x71AC, symBinAddr: 0x2C29C, symSize: 0x13C }
  - { offset: 0x4BDA2, size: 0x8, addend: 0x0, symName: __RINvNtNtCsc29TF2YcYso_3syn3gen5visit17visit_expr_structNtNtCsfQFyxU9Vz2T_11yoke_derive7visitor11TypeVisitorEBV_, symObjAddr: 0x72E8, symBinAddr: 0x2C3D8, symSize: 0x234 }
  - { offset: 0x4BEB0, size: 0x8, addend: 0x0, symName: __RINvNtNtCsc29TF2YcYso_3syn3gen5visit17visit_expr_unsafeNtNtCsfQFyxU9Vz2T_11yoke_derive7visitor11TypeVisitorEBV_, symObjAddr: 0x751C, symBinAddr: 0x2C60C, symSize: 0xA8 }
  - { offset: 0x4BF2E, size: 0x8, addend: 0x0, symName: __RINvNtNtCsc29TF2YcYso_3syn3gen5visit17visit_field_valueNtNtCsfQFyxU9Vz2T_11yoke_derive7visitor11TypeVisitorEBV_, symObjAddr: 0x75C4, symBinAddr: 0x2C6B4, symSize: 0xB0 }
  - { offset: 0x4BFAC, size: 0x8, addend: 0x0, symName: __RINvNtNtCsc29TF2YcYso_3syn3gen5visit17visit_item_staticNtNtCsfQFyxU9Vz2T_11yoke_derive7visitor11TypeVisitorEBV_, symObjAddr: 0x7674, symBinAddr: 0x2C764, symSize: 0x184 }
  - { offset: 0x4C02A, size: 0x8, addend: 0x0, symName: __RINvNtNtCsc29TF2YcYso_3syn3gen5visit17visit_item_structNtNtCsfQFyxU9Vz2T_11yoke_derive7visitor11TypeVisitorEBV_, symObjAddr: 0x77F8, symBinAddr: 0x2C8E8, symSize: 0xD0 }
  - { offset: 0x4C0A8, size: 0x8, addend: 0x0, symName: __RINvNtNtCsc29TF2YcYso_3syn3gen5visit17visit_return_typeNtNtCsfQFyxU9Vz2T_11yoke_derive7visitor11TypeVisitorEBV_, symObjAddr: 0x78C8, symBinAddr: 0x2C9B8, symSize: 0xD8 }
  - { offset: 0x4C110, size: 0x8, addend: 0x0, symName: __RINvNtNtCsc29TF2YcYso_3syn3gen5visit17visit_trait_boundNtNtCsfQFyxU9Vz2T_11yoke_derive7visitor11TypeVisitorEBV_, symObjAddr: 0x79A0, symBinAddr: 0x2CA90, symSize: 0xA4 }
  - { offset: 0x4C170, size: 0x8, addend: 0x0, symName: __RINvNtNtCsc29TF2YcYso_3syn3gen5visit18visit_expr_closureNtNtCsfQFyxU9Vz2T_11yoke_derive7visitor11TypeVisitorEBW_, symObjAddr: 0x7A44, symBinAddr: 0x2CB34, symSize: 0x1EC }
  - { offset: 0x4C267, size: 0x8, addend: 0x0, symName: __RINvNtNtCsc29TF2YcYso_3syn3gen5visit18visit_fields_namedNtNtCsfQFyxU9Vz2T_11yoke_derive7visitor11TypeVisitorEBW_, symObjAddr: 0x7C30, symBinAddr: 0x2CD20, symSize: 0xC8 }
  - { offset: 0x4C304, size: 0x8, addend: 0x0, symName: __RINvNtNtCsc29TF2YcYso_3syn3gen5visit18visit_foreign_itemNtNtCsfQFyxU9Vz2T_11yoke_derive7visitor11TypeVisitorEBW_, symObjAddr: 0x7CF8, symBinAddr: 0x2CDE8, symSize: 0x168 }
  - { offset: 0x4C3D4, size: 0x8, addend: 0x0, symName: __RINvNtNtCsc29TF2YcYso_3syn3gen5visit18visit_impl_item_fnNtNtCsfQFyxU9Vz2T_11yoke_derive7visitor11TypeVisitorEBW_, symObjAddr: 0x7E60, symBinAddr: 0x2CF50, symSize: 0xC0 }
  - { offset: 0x4C452, size: 0x8, addend: 0x0, symName: __RINvNtNtCsc29TF2YcYso_3syn3gen5visit18visit_lit_byte_strNtNtCsfQFyxU9Vz2T_11yoke_derive7visitor11TypeVisitorEBW_, symObjAddr: 0x7F20, symBinAddr: 0x2D010, symSize: 0x24 }
  - { offset: 0x4C494, size: 0x8, addend: 0x0, symName: __RINvNtNtCsc29TF2YcYso_3syn3gen5visit18visit_path_segmentNtNtCsfQFyxU9Vz2T_11yoke_derive7visitor11TypeVisitorEBW_, symObjAddr: 0x7F44, symBinAddr: 0x2D034, symSize: 0x50 }
  - { offset: 0x4C4D6, size: 0x8, addend: 0x0, symName: __RINvNtNtCsc29TF2YcYso_3syn3gen5visit18visit_range_limitsNtNtCsfQFyxU9Vz2T_11yoke_derive7visitor11TypeVisitorEBW_, symObjAddr: 0x7F94, symBinAddr: 0x2D084, symSize: 0x74 }
  - { offset: 0x4C518, size: 0x8, addend: 0x0, symName: __RINvNtNtCsc29TF2YcYso_3syn3gen5visit18visit_type_bare_fnNtNtCsfQFyxU9Vz2T_11yoke_derive7visitor11TypeVisitorEBW_, symObjAddr: 0x8008, symBinAddr: 0x2D0F8, symSize: 0x1C0 }
  - { offset: 0x4C60F, size: 0x8, addend: 0x0, symName: __RINvNtNtCsc29TF2YcYso_3syn3gen5visit18visit_where_clauseNtNtCsfQFyxU9Vz2T_11yoke_derive7visitor11TypeVisitorEBW_, symObjAddr: 0x81C8, symBinAddr: 0x2D2B8, symSize: 0xC8 }
  - { offset: 0x4C6AC, size: 0x8, addend: 0x0, symName: __RINvNtNtCsc29TF2YcYso_3syn3gen5visit19visit_bare_variadicNtNtCsfQFyxU9Vz2T_11yoke_derive7visitor11TypeVisitorEBX_, symObjAddr: 0x8290, symBinAddr: 0x2D380, symSize: 0xEC }
  - { offset: 0x4C748, size: 0x8, addend: 0x0, symName: __RINvNtNtCsc29TF2YcYso_3syn3gen5visit19visit_expr_continueNtNtCsfQFyxU9Vz2T_11yoke_derive7visitor11TypeVisitorEBX_, symObjAddr: 0x837C, symBinAddr: 0x2D46C, symSize: 0xEC }
  - { offset: 0x4C7E4, size: 0x8, addend: 0x0, symName: __RINvNtNtCsc29TF2YcYso_3syn3gen5visit19visit_expr_for_loopNtNtCsfQFyxU9Vz2T_11yoke_derive7visitor11TypeVisitorEBX_, symObjAddr: 0x8468, symBinAddr: 0x2D558, symSize: 0x1B4 }
  - { offset: 0x4C880, size: 0x8, addend: 0x0, symName: __RINvNtNtCsc29TF2YcYso_3syn3gen5visit19visit_expr_raw_addrNtNtCsfQFyxU9Vz2T_11yoke_derive7visitor11TypeVisitorEBX_, symObjAddr: 0x861C, symBinAddr: 0x2D70C, symSize: 0x108 }
  - { offset: 0x4C8FE, size: 0x8, addend: 0x0, symName: __RINvNtNtCsc29TF2YcYso_3syn3gen5visit19visit_generic_paramNtNtCsfQFyxU9Vz2T_11yoke_derive7visitor11TypeVisitorEBX_, symObjAddr: 0x8724, symBinAddr: 0x2D814, symSize: 0xE8 }
  - { offset: 0x4C992, size: 0x8, addend: 0x0, symName: __RINvNtNtCsc29TF2YcYso_3syn3gen5visit19visit_pat_referenceNtNtCsfQFyxU9Vz2T_11yoke_derive7visitor11TypeVisitorEBX_, symObjAddr: 0x880C, symBinAddr: 0x2D8FC, symSize: 0xF8 }
  - { offset: 0x4CA10, size: 0x8, addend: 0x0, symName: __RINvNtNtCsc29TF2YcYso_3syn3gen5visit19visit_trait_item_fnNtNtCsfQFyxU9Vz2T_11yoke_derive7visitor11TypeVisitorEBX_, symObjAddr: 0x8904, symBinAddr: 0x2D9F4, symSize: 0xF8 }
  - { offset: 0x4CAAC, size: 0x8, addend: 0x0, symName: __RINvNtNtCsc29TF2YcYso_3syn3gen5visit20visit_captured_paramNtNtCsfQFyxU9Vz2T_11yoke_derive7visitor11TypeVisitorEBY_, symObjAddr: 0x89FC, symBinAddr: 0x2DAEC, symSize: 0x94 }
  - { offset: 0x4CB22, size: 0x8, addend: 0x0, symName: __RINvNtNtCsc29TF2YcYso_3syn3gen5visit20visit_expr_referenceNtNtCsfQFyxU9Vz2T_11yoke_derive7visitor11TypeVisitorEBY_, symObjAddr: 0x8A90, symBinAddr: 0x2DB80, symSize: 0xF8 }
  - { offset: 0x4CBA0, size: 0x8, addend: 0x0, symName: __RINvNtNtCsc29TF2YcYso_3syn3gen5visit20visit_expr_try_blockNtNtCsfQFyxU9Vz2T_11yoke_derive7visitor11TypeVisitorEBY_, symObjAddr: 0x8B88, symBinAddr: 0x2DC78, symSize: 0xA8 }
  - { offset: 0x4CC1E, size: 0x8, addend: 0x0, symName: __RINvNtNtCsc29TF2YcYso_3syn3gen5visit20visit_fields_unnamedNtNtCsfQFyxU9Vz2T_11yoke_derive7visitor11TypeVisitorEBY_, symObjAddr: 0x8C30, symBinAddr: 0x2DD20, symSize: 0xC8 }
  - { offset: 0x4CCBB, size: 0x8, addend: 0x0, symName: __RINvNtNtCsc29TF2YcYso_3syn3gen5visit20visit_impl_item_typeNtNtCsfQFyxU9Vz2T_11yoke_derive7visitor11TypeVisitorEBY_, symObjAddr: 0x8CF8, symBinAddr: 0x2DDE8, symSize: 0xD0 }
  - { offset: 0x4CD39, size: 0x8, addend: 0x0, symName: __RINvNtNtCsc29TF2YcYso_3syn3gen5visit20visit_lifetime_paramNtNtCsfQFyxU9Vz2T_11yoke_derive7visitor11TypeVisitorEBY_, symObjAddr: 0x8DC8, symBinAddr: 0x2DEB8, symSize: 0x138 }
  - { offset: 0x4CE12, size: 0x8, addend: 0x0, symName: __RINvNtNtCsc29TF2YcYso_3syn3gen5visit20visit_path_argumentsNtNtCsfQFyxU9Vz2T_11yoke_derive7visitor11TypeVisitorEBY_, symObjAddr: 0x8F00, symBinAddr: 0x2DFF0, symSize: 0xD4 }
  - { offset: 0x4CE88, size: 0x8, addend: 0x0, symName: __RINvNtNtCsc29TF2YcYso_3syn3gen5visit20visit_predicate_typeNtNtCsfQFyxU9Vz2T_11yoke_derive7visitor11TypeVisitorEBY_, symObjAddr: 0x8FD4, symBinAddr: 0x2E0C4, symSize: 0x124 }
  - { offset: 0x4CF43, size: 0x8, addend: 0x0, symName: __RINvNtNtCsc29TF2YcYso_3syn3gen5visit20visit_type_referenceNtNtCsfQFyxU9Vz2T_11yoke_derive7visitor11TypeVisitorEBY_, symObjAddr: 0x90F8, symBinAddr: 0x2E1E8, symSize: 0xE0 }
  - { offset: 0x4CFA3, size: 0x8, addend: 0x0, symName: __RINvNtNtCsc29TF2YcYso_3syn3gen5visit20visit_vis_restrictedNtNtCsfQFyxU9Vz2T_11yoke_derive7visitor11TypeVisitorEBY_, symObjAddr: 0x91D8, symBinAddr: 0x2E2C8, symSize: 0x90 }
  - { offset: 0x4CFE5, size: 0x8, addend: 0x0, symName: __RINvNtNtCsc29TF2YcYso_3syn3gen5visit21visit_bound_lifetimesNtNtCsfQFyxU9Vz2T_11yoke_derive7visitor11TypeVisitorEBZ_, symObjAddr: 0x9268, symBinAddr: 0x2E358, symSize: 0xC8 }
  - { offset: 0x4D082, size: 0x8, addend: 0x0, symName: __RINvNtNtCsc29TF2YcYso_3syn3gen5visit21visit_foreign_item_fnNtNtCsfQFyxU9Vz2T_11yoke_derive7visitor11TypeVisitorEBZ_, symObjAddr: 0x9330, symBinAddr: 0x2E420, symSize: 0xB0 }
  - { offset: 0x4D100, size: 0x8, addend: 0x0, symName: __RINvNtNtCsc29TF2YcYso_3syn3gen5visit21visit_impl_item_constNtNtCsfQFyxU9Vz2T_11yoke_derive7visitor11TypeVisitorEBZ_, symObjAddr: 0x93E0, symBinAddr: 0x2E4D0, symSize: 0xE0 }
  - { offset: 0x4D17E, size: 0x8, addend: 0x0, symName: __RINvNtNtCsc29TF2YcYso_3syn3gen5visit21visit_impl_item_macroNtNtCsfQFyxU9Vz2T_11yoke_derive7visitor11TypeVisitorEBZ_, symObjAddr: 0x94C0, symBinAddr: 0x2E5B0, symSize: 0xA8 }
  - { offset: 0x4D1FC, size: 0x8, addend: 0x0, symName: __RINvNtNtCsc29TF2YcYso_3syn3gen5visit21visit_macro_delimiterNtNtCsfQFyxU9Vz2T_11yoke_derive7visitor11TypeVisitorEBZ_, symObjAddr: 0x9568, symBinAddr: 0x2E658, symSize: 0xA8 }
  - { offset: 0x4D23E, size: 0x8, addend: 0x0, symName: __RINvNtNtCsc29TF2YcYso_3syn3gen5visit21visit_meta_name_valueNtNtCsfQFyxU9Vz2T_11yoke_derive7visitor11TypeVisitorEBZ_, symObjAddr: 0x9610, symBinAddr: 0x2E700, symSize: 0x50 }
  - { offset: 0x4D280, size: 0x8, addend: 0x0, symName: __RINvNtNtCsc29TF2YcYso_3syn3gen5visit21visit_precise_captureNtNtCsfQFyxU9Vz2T_11yoke_derive7visitor11TypeVisitorEBZ_, symObjAddr: 0x9660, symBinAddr: 0x2E750, symSize: 0xC8 }
  - { offset: 0x4D31D, size: 0x8, addend: 0x0, symName: __RINvNtNtCsc29TF2YcYso_3syn3gen5visit21visit_trait_item_typeNtNtCsfQFyxU9Vz2T_11yoke_derive7visitor11TypeVisitorEBZ_, symObjAddr: 0x9728, symBinAddr: 0x2E818, symSize: 0x194 }
  - { offset: 0x4D414, size: 0x8, addend: 0x0, symName: __RINvNtNtCsc29TF2YcYso_3syn3gen5visit21visit_type_impl_traitNtNtCsfQFyxU9Vz2T_11yoke_derive7visitor11TypeVisitorEBZ_, symObjAddr: 0x98BC, symBinAddr: 0x2E9AC, symSize: 0xC8 }
  - { offset: 0x4D4B1, size: 0x8, addend: 0x0, symName: __RINvNtNtCsc29TF2YcYso_3syn3gen5visit21visit_where_predicateNtNtCsfQFyxU9Vz2T_11yoke_derive7visitor11TypeVisitorEBZ_, symObjAddr: 0x9984, symBinAddr: 0x2EA74, symSize: 0x98 }
  - { offset: 0x4D527, size: 0x8, addend: 0x0, symName: __RINvNtNtCsc29TF2YcYso_3syn3gen5visit22visit_expr_method_callNtNtCsfQFyxU9Vz2T_11yoke_derive7visitor11TypeVisitorEB10_, symObjAddr: 0x9A1C, symBinAddr: 0x2EB0C, symSize: 0x1EC }
  - { offset: 0x4D616, size: 0x8, addend: 0x0, symName: __RINvNtNtCsc29TF2YcYso_3syn3gen5visit22visit_field_mutabilityNtNtCsfQFyxU9Vz2T_11yoke_derive7visitor11TypeVisitorEB10_, symObjAddr: 0x9C08, symBinAddr: 0x2ECF8, symSize: 0x24 }
  - { offset: 0x4D658, size: 0x8, addend: 0x0, symName: __RINvNtNtCsc29TF2YcYso_3syn3gen5visit22visit_generic_argumentNtNtCsfQFyxU9Vz2T_11yoke_derive7visitor11TypeVisitorEB10_, symObjAddr: 0x9C2C, symBinAddr: 0x2ED1C, symSize: 0x1A8 }
  - { offset: 0x4D746, size: 0x8, addend: 0x0, symName: __RINvNtNtCsc29TF2YcYso_3syn3gen5visit22visit_item_foreign_modNtNtCsfQFyxU9Vz2T_11yoke_derive7visitor11TypeVisitorEB10_, symObjAddr: 0x9DD4, symBinAddr: 0x2EEC4, symSize: 0x108 }
  - { offset: 0x4D800, size: 0x8, addend: 0x0, symName: __RINvNtNtCsc29TF2YcYso_3syn3gen5visit22visit_item_trait_aliasNtNtCsfQFyxU9Vz2T_11yoke_derive7visitor11TypeVisitorEB10_, symObjAddr: 0x9EDC, symBinAddr: 0x2EFCC, symSize: 0x158 }
  - { offset: 0x4D8D9, size: 0x8, addend: 0x0, symName: __RINvNtNtCsc29TF2YcYso_3syn3gen5visit22visit_pat_tuple_structNtNtCsfQFyxU9Vz2T_11yoke_derive7visitor11TypeVisitorEB10_, symObjAddr: 0xA034, symBinAddr: 0x2F124, symSize: 0x18C }
  - { offset: 0x4D9D0, size: 0x8, addend: 0x0, symName: __RINvNtNtCsc29TF2YcYso_3syn3gen5visit22visit_trait_item_constNtNtCsfQFyxU9Vz2T_11yoke_derive7visitor11TypeVisitorEB10_, symObjAddr: 0xA1C0, symBinAddr: 0x2F2B0, symSize: 0x118 }
  - { offset: 0x4DA6C, size: 0x8, addend: 0x0, symName: __RINvNtNtCsc29TF2YcYso_3syn3gen5visit22visit_trait_item_macroNtNtCsfQFyxU9Vz2T_11yoke_derive7visitor11TypeVisitorEB10_, symObjAddr: 0xA2D8, symBinAddr: 0x2F3C8, symSize: 0xA8 }
  - { offset: 0x4DAEA, size: 0x8, addend: 0x0, symName: __RINvNtNtCsc29TF2YcYso_3syn3gen5visit22visit_type_param_boundNtNtCsfQFyxU9Vz2T_11yoke_derive7visitor11TypeVisitorEB10_, symObjAddr: 0xA380, symBinAddr: 0x2F470, symSize: 0x12C }
  - { offset: 0x4DB9C, size: 0x8, addend: 0x0, symName: __RINvNtNtCsc29TF2YcYso_3syn3gen5visit23visit_foreign_item_typeNtNtCsfQFyxU9Vz2T_11yoke_derive7visitor11TypeVisitorEB11_, symObjAddr: 0xA4AC, symBinAddr: 0x2F59C, symSize: 0xC8 }
  - { offset: 0x4DC1A, size: 0x8, addend: 0x0, symName: __RINvNtNtCsc29TF2YcYso_3syn3gen5visit23visit_item_extern_crateNtNtCsfQFyxU9Vz2T_11yoke_derive7visitor11TypeVisitorEB11_, symObjAddr: 0xA574, symBinAddr: 0x2F664, symSize: 0x110 }
  - { offset: 0x4DCB6, size: 0x8, addend: 0x0, symName: __RINvNtNtCsc29TF2YcYso_3syn3gen5visit23visit_static_mutabilityNtNtCsfQFyxU9Vz2T_11yoke_derive7visitor11TypeVisitorEB11_, symObjAddr: 0xA684, symBinAddr: 0x2F774, symSize: 0x68 }
  - { offset: 0x4DCF8, size: 0x8, addend: 0x0, symName: __RINvNtNtCsc29TF2YcYso_3syn3gen5visit23visit_type_trait_objectNtNtCsfQFyxU9Vz2T_11yoke_derive7visitor11TypeVisitorEB11_, symObjAddr: 0xA6EC, symBinAddr: 0x2F7DC, symSize: 0xC8 }
  - { offset: 0x4DD95, size: 0x8, addend: 0x0, symName: __RINvNtNtCsc29TF2YcYso_3syn3gen5visit24visit_foreign_item_macroNtNtCsfQFyxU9Vz2T_11yoke_derive7visitor11TypeVisitorEB12_, symObjAddr: 0xA7B4, symBinAddr: 0x2F8A4, symSize: 0xA8 }
  - { offset: 0x4DE13, size: 0x8, addend: 0x0, symName: __RINvNtNtCsc29TF2YcYso_3syn3gen5visit24visit_pointer_mutabilityNtNtCsfQFyxU9Vz2T_11yoke_derive7visitor11TypeVisitorEB12_, symObjAddr: 0xA85C, symBinAddr: 0x2F94C, symSize: 0x74 }
  - { offset: 0x4DE55, size: 0x8, addend: 0x0, symName: __RINvNtNtCsc29TF2YcYso_3syn3gen5visit24visit_predicate_lifetimeNtNtCsfQFyxU9Vz2T_11yoke_derive7visitor11TypeVisitorEB12_, symObjAddr: 0xA8D0, symBinAddr: 0x2F9C0, symSize: 0xD0 }
  - { offset: 0x4DEF2, size: 0x8, addend: 0x0, symName: __RINvNtNtCsc29TF2YcYso_3syn3gen5visit25visit_foreign_item_staticNtNtCsfQFyxU9Vz2T_11yoke_derive7visitor11TypeVisitorEB13_, symObjAddr: 0xA9A0, symBinAddr: 0x2FA90, symSize: 0x128 }
  - { offset: 0x4DF70, size: 0x8, addend: 0x0, symName: __RINvNtNtCsc29TF2YcYso_3syn3gen5visit26visit_trait_bound_modifierNtNtCsfQFyxU9Vz2T_11yoke_derive7visitor11TypeVisitorEB14_, symObjAddr: 0xAAC8, symBinAddr: 0x2FBB8, symSize: 0x68 }
  - { offset: 0x4DFB2, size: 0x8, addend: 0x0, symName: __RINvNtNtCsc29TF2YcYso_3syn3gen5visit37visit_parenthesized_generic_argumentsNtNtCsfQFyxU9Vz2T_11yoke_derive7visitor11TypeVisitorEB1f_, symObjAddr: 0xAB30, symBinAddr: 0x2FC20, symSize: 0xD8 }
  - { offset: 0x4E04F, size: 0x8, addend: 0x0, symName: __RINvNtNtCsc29TF2YcYso_3syn3gen5visit39visit_angle_bracketed_generic_argumentsNtNtCsfQFyxU9Vz2T_11yoke_derive7visitor11TypeVisitorEB1h_, symObjAddr: 0xAC08, symBinAddr: 0x2FCF8, symSize: 0xC8 }
  - { offset: 0x4E0EC, size: 0x8, addend: 0x0, symName: __RINvNtNtCsc29TF2YcYso_3syn3gen5visit9visit_abiNtNtCsfQFyxU9Vz2T_11yoke_derive7visitor11TypeVisitorEBM_, symObjAddr: 0xACD0, symBinAddr: 0x2FDC0, symSize: 0x80 }
  - { offset: 0x4E14C, size: 0x8, addend: 0x0, symName: __RINvNtNtCsc29TF2YcYso_3syn3gen5visit9visit_armNtNtCsfQFyxU9Vz2T_11yoke_derive7visitor11TypeVisitorEBM_, symObjAddr: 0xAD50, symBinAddr: 0x2FE40, symSize: 0x1A8 }
  - { offset: 0x4E1E0, size: 0x8, addend: 0x0, symName: __RINvNtNtCsc29TF2YcYso_3syn3gen5visit9visit_litNtNtCsfQFyxU9Vz2T_11yoke_derive7visitor11TypeVisitorEBM_, symObjAddr: 0xAEF8, symBinAddr: 0x2FFE8, symSize: 0x264 }
  - { offset: 0x4E312, size: 0x8, addend: 0x0, symName: __RINvNtNtCsc29TF2YcYso_3syn3gen5visit9visit_patNtNtCsfQFyxU9Vz2T_11yoke_derive7visitor11TypeVisitorEBM_, symObjAddr: 0xB15C, symBinAddr: 0x3024C, symSize: 0x390 }
  - { offset: 0x592A9, size: 0x8, addend: 0x0, symName: __RINvCsc29TF2YcYso_3syn5parseNtNtB2_6derive11DeriveInputECsfQFyxU9Vz2T_11yoke_derive, symObjAddr: 0x0, symBinAddr: 0x305DC, symSize: 0x30 }
  - { offset: 0x59372, size: 0x8, addend: 0x0, symName: __RINvNtNtNtCs7yrEGia95Wz_10proc_macro6bridge6client5state3setINtNtCsaNl6UpbT7bw_4core6option6OptionNtB4_11TokenStreamENCNCINvB4_10run_clientB1y_BW_NCNCINvMs6_B4_INtB4_6ClientNtB8_11TokenStreamB2L_E7expand1NvCsfQFyxU9Vz2T_11yoke_derive15yokeable_deriveE00E00EB3i_, symObjAddr: 0x4730, symBinAddr: 0x34D0C, symSize: 0xE8 }
  - { offset: 0x59451, size: 0x8, addend: 0x0, symName: __RNCNkNvNtNtNtCs7yrEGia95Wz_10proc_macro6bridge6client5state12BRIDGE_STATE0s_0CsfQFyxU9Vz2T_11yoke_derive, symObjAddr: 0x67DC, symBinAddr: 0x36DB8, symSize: 0x30 }
  - { offset: 0x59C8D, size: 0x8, addend: 0x0, symName: __RNvXsA_NtCshnvkK9b4wzu_11proc_macro28fallbackNtB5_5IdentNtNtCsaNl6UpbT7bw_4core5clone5Clone5cloneCsfQFyxU9Vz2T_11yoke_derive, symObjAddr: 0x7820, symBinAddr: 0x37DF8, symSize: 0x94 }
  - { offset: 0x59CC1, size: 0x8, addend: 0x0, symName: __RNvXss_NtCshnvkK9b4wzu_11proc_macro28fallbackNtB5_11TokenStreamNtNtCsaNl6UpbT7bw_4core5clone5Clone5cloneCsfQFyxU9Vz2T_11yoke_derive, symObjAddr: 0x8098, symBinAddr: 0x38670, symSize: 0x24 }
  - { offset: 0x59CF3, size: 0x8, addend: 0x0, symName: __RNvXsu_NtCshnvkK9b4wzu_11proc_macro28fallbackNtB5_4SpanNtNtCsaNl6UpbT7bw_4core5clone5Clone5cloneCsfQFyxU9Vz2T_11yoke_derive, symObjAddr: 0x80BC, symBinAddr: 0x38694, symSize: 0x10 }
  - { offset: 0x59D3E, size: 0x8, addend: 0x0, symName: __RNvXs1_NtCshnvkK9b4wzu_11proc_macro26markerNtB5_19ProcMacroAutoTraitsNtNtCsaNl6UpbT7bw_4core5clone5Clone5cloneCsfQFyxU9Vz2T_11yoke_derive, symObjAddr: 0x738C, symBinAddr: 0x37964, symSize: 0x10 }
  - { offset: 0x5A1E7, size: 0x8, addend: 0x0, symName: __RNCINvMs1_Cs3Xr6wkqZdQw_12synstructureNtB8_11VariantInfo4eachQNCNvCsfQFyxU9Vz2T_11yoke_derive20yokeable_derive_impls5_0NtCshnvkK9b4wzu_11proc_macro211TokenStreamE0B12_, symObjAddr: 0x5294, symBinAddr: 0x35870, symSize: 0x90 }
  - { offset: 0x5A24D, size: 0x8, addend: 0x0, symName: __RNCINvMs1_Cs3Xr6wkqZdQw_12synstructureNtB8_11VariantInfo9constructNCNCNvCsfQFyxU9Vz2T_11yoke_derive20yokeable_derive_impls4_00NtCshnvkK9b4wzu_11proc_macro211TokenStreamE0B18_, symObjAddr: 0x5324, symBinAddr: 0x35900, symSize: 0x1D4 }
  - { offset: 0x5A301, size: 0x8, addend: 0x0, symName: __RNCINvMs1_Cs3Xr6wkqZdQw_12synstructureNtB8_11VariantInfo9constructNCNCNvCsfQFyxU9Vz2T_11yoke_derive20yokeable_derive_impls4_00NtCshnvkK9b4wzu_11proc_macro211TokenStreamEs_0B18_, symObjAddr: 0x54F8, symBinAddr: 0x35AD4, symSize: 0x270 }
  - { offset: 0x5A3D6, size: 0x8, addend: 0x0, symName: __RINvCsc29TF2YcYso_3syn5parseNtNtB2_6derive11DeriveInputECsfQFyxU9Vz2T_11yoke_derive, symObjAddr: 0x0, symBinAddr: 0x305DC, symSize: 0x30 }
  - { offset: 0x5B3F2, size: 0x8, addend: 0x0, symName: __RINvNtCsc29TF2YcYso_3syn10punctuated4foldNtNtB4_2ty4TypeNtNtB4_5token5CommaNtNvCsfQFyxU9Vz2T_11yoke_derive16replace_lifetime15ReplaceLifetimeNvYB1b_NtNtNtB4_3gen4fold4Fold9fold_typeEB1f_, symObjAddr: 0x113C, symBinAddr: 0x31718, symSize: 0x2FC }
  - { offset: 0x5B49A, size: 0x8, addend: 0x0, symName: __RINvNtCsc29TF2YcYso_3syn10punctuated4foldNtNtB4_2ty9BareFnArgNtNtB4_5token5CommaNtNvCsfQFyxU9Vz2T_11yoke_derive16replace_lifetime15ReplaceLifetimeNvYB1g_NtNtNtB4_3gen4fold4Fold16fold_bare_fn_argEB1k_, symObjAddr: 0x1438, symBinAddr: 0x31A14, symSize: 0x300 }
  - { offset: 0x5B542, size: 0x8, addend: 0x0, symName: __RINvNtCsc29TF2YcYso_3syn10punctuated4foldNtNtB4_3pat3PatNtNtB4_5token2OrNtNvCsfQFyxU9Vz2T_11yoke_derive16replace_lifetime15ReplaceLifetimeNvYB18_NtNtNtB4_3gen4fold4Fold8fold_patEB1c_, symObjAddr: 0x1738, symBinAddr: 0x31D14, symSize: 0x2FC }
  - { offset: 0x5B5EA, size: 0x8, addend: 0x0, symName: __RINvNtCsc29TF2YcYso_3syn10punctuated4foldNtNtB4_3pat3PatNtNtB4_5token5CommaNtNvCsfQFyxU9Vz2T_11yoke_derive16replace_lifetime15ReplaceLifetimeNvYB1b_NtNtNtB4_3gen4fold4Fold8fold_patEB1f_, symObjAddr: 0x1A34, symBinAddr: 0x32010, symSize: 0x2FC }
  - { offset: 0x5B692, size: 0x8, addend: 0x0, symName: __RINvNtCsc29TF2YcYso_3syn10punctuated4foldNtNtB4_3pat8FieldPatNtNtB4_5token5CommaNtNvCsfQFyxU9Vz2T_11yoke_derive16replace_lifetime15ReplaceLifetimeNvYB1g_NtNtNtB4_3gen4fold4Fold14fold_field_patEB1k_, symObjAddr: 0x1D30, symBinAddr: 0x3230C, symSize: 0x2FC }
  - { offset: 0x5B73A, size: 0x8, addend: 0x0, symName: __RINvNtCsc29TF2YcYso_3syn10punctuated4foldNtNtB4_4data5FieldNtNtB4_5token5CommaNtNvCsfQFyxU9Vz2T_11yoke_derive16replace_lifetime15ReplaceLifetimeNvYB1e_NtNtNtB4_3gen4fold4Fold10fold_fieldEB1i_, symObjAddr: 0x202C, symBinAddr: 0x32608, symSize: 0x300 }
  - { offset: 0x5B7E2, size: 0x8, addend: 0x0, symName: __RINvNtCsc29TF2YcYso_3syn10punctuated4foldNtNtB4_4data7VariantNtNtB4_5token5CommaNtNvCsfQFyxU9Vz2T_11yoke_derive16replace_lifetime15ReplaceLifetimeNvYB1g_NtNtNtB4_3gen4fold4Fold12fold_variantEB1k_, symObjAddr: 0x232C, symBinAddr: 0x32908, symSize: 0x300 }
  - { offset: 0x5B88A, size: 0x8, addend: 0x0, symName: __RINvNtCsc29TF2YcYso_3syn10punctuated4foldNtNtB4_4expr10FieldValueNtNtB4_5token5CommaNtNvCsfQFyxU9Vz2T_11yoke_derive16replace_lifetime15ReplaceLifetimeNvYB1k_NtNtNtB4_3gen4fold4Fold16fold_field_valueEB1o_, symObjAddr: 0x262C, symBinAddr: 0x32C08, symSize: 0x2FC }
  - { offset: 0x5B932, size: 0x8, addend: 0x0, symName: __RINvNtCsc29TF2YcYso_3syn10punctuated4foldNtNtB4_4expr4ExprNtNtB4_5token5CommaNtNvCsfQFyxU9Vz2T_11yoke_derive16replace_lifetime15ReplaceLifetimeNvYB1d_NtNtNtB4_3gen4fold4Fold9fold_exprEB1h_, symObjAddr: 0x2928, symBinAddr: 0x32F04, symSize: 0x2FC }
  - { offset: 0x5B9DA, size: 0x8, addend: 0x0, symName: __RINvNtCsc29TF2YcYso_3syn10punctuated4foldNtNtB4_4item5FnArgNtNtB4_5token5CommaNtNvCsfQFyxU9Vz2T_11yoke_derive16replace_lifetime15ReplaceLifetimeNvYB1e_NtNtNtB4_3gen4fold4Fold11fold_fn_argEB1i_, symObjAddr: 0x2C24, symBinAddr: 0x33200, symSize: 0x2FC }
  - { offset: 0x5BA82, size: 0x8, addend: 0x0, symName: __RINvNtCsc29TF2YcYso_3syn10punctuated4foldNtNtB4_4item7UseTreeNtNtB4_5token5CommaNtNvCsfQFyxU9Vz2T_11yoke_derive16replace_lifetime15ReplaceLifetimeNvYB1g_NtNtNtB4_3gen4fold4Fold13fold_use_treeEB1k_, symObjAddr: 0x2F20, symBinAddr: 0x334FC, symSize: 0x2FC }
  - { offset: 0x5BB2A, size: 0x8, addend: 0x0, symName: __RINvNtCsc29TF2YcYso_3syn10punctuated4foldNtNtB4_4path11PathSegmentNtNtB4_5token7PathSepNtNvCsfQFyxU9Vz2T_11yoke_derive16replace_lifetime15ReplaceLifetimeNvYB1n_NtNtNtB4_3gen4fold4Fold17fold_path_segmentEB1r_, symObjAddr: 0x321C, symBinAddr: 0x337F8, symSize: 0x2FC }
  - { offset: 0x5BBD2, size: 0x8, addend: 0x0, symName: __RINvNtCsc29TF2YcYso_3syn10punctuated4foldNtNtB4_4path15GenericArgumentNtNtB4_5token5CommaNtNvCsfQFyxU9Vz2T_11yoke_derive16replace_lifetime15ReplaceLifetimeNvYB1p_NtNtNtB4_3gen4fold4Fold21fold_generic_argumentEB1t_, symObjAddr: 0x3518, symBinAddr: 0x33AF4, symSize: 0x300 }
  - { offset: 0x5BC7A, size: 0x8, addend: 0x0, symName: __RINvNtCsc29TF2YcYso_3syn10punctuated4foldNtNtB4_8generics12GenericParamNtNtB4_5token5CommaNtNvCsfQFyxU9Vz2T_11yoke_derive16replace_lifetime15ReplaceLifetimeNvYB1q_NtNtNtB4_3gen4fold4Fold18fold_generic_paramEB1u_, symObjAddr: 0x3818, symBinAddr: 0x33DF4, symSize: 0x300 }
  - { offset: 0x5BD22, size: 0x8, addend: 0x0, symName: __RINvNtCsc29TF2YcYso_3syn10punctuated4foldNtNtB4_8generics13CapturedParamNtNtB4_5token5CommaNtNvCsfQFyxU9Vz2T_11yoke_derive16replace_lifetime15ReplaceLifetimeNvYB1r_NtNtNtB4_3gen4fold4Fold19fold_captured_paramEB1v_, symObjAddr: 0x3B18, symBinAddr: 0x340F4, symSize: 0x2FC }
  - { offset: 0x5BDCA, size: 0x8, addend: 0x0, symName: __RINvNtCsc29TF2YcYso_3syn10punctuated4foldNtNtB4_8generics14TypeParamBoundNtNtB4_5token4PlusNtNvCsfQFyxU9Vz2T_11yoke_derive16replace_lifetime15ReplaceLifetimeNvYB1r_NtNtNtB4_3gen4fold4Fold21fold_type_param_boundEB1v_, symObjAddr: 0x3E14, symBinAddr: 0x343F0, symSize: 0x2FC }
  - { offset: 0x5BE72, size: 0x8, addend: 0x0, symName: __RINvNtCsc29TF2YcYso_3syn10punctuated4foldNtNtB4_8generics14WherePredicateNtNtB4_5token5CommaNtNvCsfQFyxU9Vz2T_11yoke_derive16replace_lifetime15ReplaceLifetimeNvYB1s_NtNtNtB4_3gen4fold4Fold20fold_where_predicateEB1w_, symObjAddr: 0x4110, symBinAddr: 0x346EC, symSize: 0x300 }
  - { offset: 0x5BF1A, size: 0x8, addend: 0x0, symName: __RINvNtCsc29TF2YcYso_3syn10punctuated4foldNtNtB4_8lifetime8LifetimeNtNtB4_5token4PlusNtNvCsfQFyxU9Vz2T_11yoke_derive16replace_lifetime15ReplaceLifetimeNvYB1k_NtNtNtB4_3gen4fold4Fold13fold_lifetimeEB1o_, symObjAddr: 0x4410, symBinAddr: 0x349EC, symSize: 0x2F0 }
  - { offset: 0x5BFC7, size: 0x8, addend: 0x0, symName: __RNCINvNtCsc29TF2YcYso_3syn10punctuated4foldNtNtB6_2ty4TypeNtNtB6_5token5CommaNtNvCsfQFyxU9Vz2T_11yoke_derive16replace_lifetime15ReplaceLifetimeNvYB1d_NtNtNtB6_3gen4fold4Fold9fold_typeE0B1h_, symObjAddr: 0x5768, symBinAddr: 0x35D44, symSize: 0xEC }
  - { offset: 0x5C064, size: 0x8, addend: 0x0, symName: __RNCINvNtCsc29TF2YcYso_3syn10punctuated4foldNtNtB6_2ty9BareFnArgNtNtB6_5token5CommaNtNvCsfQFyxU9Vz2T_11yoke_derive16replace_lifetime15ReplaceLifetimeNvYB1i_NtNtNtB6_3gen4fold4Fold16fold_bare_fn_argE0B1m_, symObjAddr: 0x5854, symBinAddr: 0x35E30, symSize: 0xEC }
  - { offset: 0x5C100, size: 0x8, addend: 0x0, symName: __RNCINvNtCsc29TF2YcYso_3syn10punctuated4foldNtNtB6_3pat3PatNtNtB6_5token2OrNtNvCsfQFyxU9Vz2T_11yoke_derive16replace_lifetime15ReplaceLifetimeNvYB1a_NtNtNtB6_3gen4fold4Fold8fold_patE0B1e_, symObjAddr: 0x5940, symBinAddr: 0x35F1C, symSize: 0xEC }
  - { offset: 0x5C19C, size: 0x8, addend: 0x0, symName: __RNCINvNtCsc29TF2YcYso_3syn10punctuated4foldNtNtB6_3pat3PatNtNtB6_5token5CommaNtNvCsfQFyxU9Vz2T_11yoke_derive16replace_lifetime15ReplaceLifetimeNvYB1d_NtNtNtB6_3gen4fold4Fold8fold_patE0B1h_, symObjAddr: 0x5A2C, symBinAddr: 0x36008, symSize: 0xEC }
  - { offset: 0x5C238, size: 0x8, addend: 0x0, symName: __RNCINvNtCsc29TF2YcYso_3syn10punctuated4foldNtNtB6_3pat8FieldPatNtNtB6_5token5CommaNtNvCsfQFyxU9Vz2T_11yoke_derive16replace_lifetime15ReplaceLifetimeNvYB1i_NtNtNtB6_3gen4fold4Fold14fold_field_patE0B1m_, symObjAddr: 0x5B18, symBinAddr: 0x360F4, symSize: 0xEC }
  - { offset: 0x5C2D5, size: 0x8, addend: 0x0, symName: __RNCINvNtCsc29TF2YcYso_3syn10punctuated4foldNtNtB6_4data5FieldNtNtB6_5token5CommaNtNvCsfQFyxU9Vz2T_11yoke_derive16replace_lifetime15ReplaceLifetimeNvYB1g_NtNtNtB6_3gen4fold4Fold10fold_fieldE0B1k_, symObjAddr: 0x5C04, symBinAddr: 0x361E0, symSize: 0xF0 }
  - { offset: 0x5C371, size: 0x8, addend: 0x0, symName: __RNCINvNtCsc29TF2YcYso_3syn10punctuated4foldNtNtB6_4data7VariantNtNtB6_5token5CommaNtNvCsfQFyxU9Vz2T_11yoke_derive16replace_lifetime15ReplaceLifetimeNvYB1i_NtNtNtB6_3gen4fold4Fold12fold_variantE0B1m_, symObjAddr: 0x5CF4, symBinAddr: 0x362D0, symSize: 0xEC }
  - { offset: 0x5C40E, size: 0x8, addend: 0x0, symName: __RNCINvNtCsc29TF2YcYso_3syn10punctuated4foldNtNtB6_4expr10FieldValueNtNtB6_5token5CommaNtNvCsfQFyxU9Vz2T_11yoke_derive16replace_lifetime15ReplaceLifetimeNvYB1m_NtNtNtB6_3gen4fold4Fold16fold_field_valueE0B1q_, symObjAddr: 0x5DE0, symBinAddr: 0x363BC, symSize: 0xEC }
  - { offset: 0x5C4AA, size: 0x8, addend: 0x0, symName: __RNCINvNtCsc29TF2YcYso_3syn10punctuated4foldNtNtB6_4expr4ExprNtNtB6_5token5CommaNtNvCsfQFyxU9Vz2T_11yoke_derive16replace_lifetime15ReplaceLifetimeNvYB1f_NtNtNtB6_3gen4fold4Fold9fold_exprE0B1j_, symObjAddr: 0x5ECC, symBinAddr: 0x364A8, symSize: 0xEC }
  - { offset: 0x5C547, size: 0x8, addend: 0x0, symName: __RNCINvNtCsc29TF2YcYso_3syn10punctuated4foldNtNtB6_4item5FnArgNtNtB6_5token5CommaNtNvCsfQFyxU9Vz2T_11yoke_derive16replace_lifetime15ReplaceLifetimeNvYB1g_NtNtNtB6_3gen4fold4Fold11fold_fn_argE0B1k_, symObjAddr: 0x5FB8, symBinAddr: 0x36594, symSize: 0xEC }
  - { offset: 0x5C5E4, size: 0x8, addend: 0x0, symName: __RNCINvNtCsc29TF2YcYso_3syn10punctuated4foldNtNtB6_4item7UseTreeNtNtB6_5token5CommaNtNvCsfQFyxU9Vz2T_11yoke_derive16replace_lifetime15ReplaceLifetimeNvYB1i_NtNtNtB6_3gen4fold4Fold13fold_use_treeE0B1m_, symObjAddr: 0x60A4, symBinAddr: 0x36680, symSize: 0xEC }
  - { offset: 0x5C681, size: 0x8, addend: 0x0, symName: __RNCINvNtCsc29TF2YcYso_3syn10punctuated4foldNtNtB6_4path11PathSegmentNtNtB6_5token7PathSepNtNvCsfQFyxU9Vz2T_11yoke_derive16replace_lifetime15ReplaceLifetimeNvYB1p_NtNtNtB6_3gen4fold4Fold17fold_path_segmentE0B1t_, symObjAddr: 0x6190, symBinAddr: 0x3676C, symSize: 0xEC }
  - { offset: 0x5C71D, size: 0x8, addend: 0x0, symName: __RNCINvNtCsc29TF2YcYso_3syn10punctuated4foldNtNtB6_4path15GenericArgumentNtNtB6_5token5CommaNtNvCsfQFyxU9Vz2T_11yoke_derive16replace_lifetime15ReplaceLifetimeNvYB1r_NtNtNtB6_3gen4fold4Fold21fold_generic_argumentE0B1v_, symObjAddr: 0x627C, symBinAddr: 0x36858, symSize: 0xF0 }
  - { offset: 0x5C7B9, size: 0x8, addend: 0x0, symName: __RNCINvNtCsc29TF2YcYso_3syn10punctuated4foldNtNtB6_8generics12GenericParamNtNtB6_5token5CommaNtNvCsfQFyxU9Vz2T_11yoke_derive16replace_lifetime15ReplaceLifetimeNvYB1s_NtNtNtB6_3gen4fold4Fold18fold_generic_paramE0B1w_, symObjAddr: 0x636C, symBinAddr: 0x36948, symSize: 0xF0 }
  - { offset: 0x5C856, size: 0x8, addend: 0x0, symName: __RNCINvNtCsc29TF2YcYso_3syn10punctuated4foldNtNtB6_8generics13CapturedParamNtNtB6_5token5CommaNtNvCsfQFyxU9Vz2T_11yoke_derive16replace_lifetime15ReplaceLifetimeNvYB1t_NtNtNtB6_3gen4fold4Fold19fold_captured_paramE0B1x_, symObjAddr: 0x645C, symBinAddr: 0x36A38, symSize: 0xE4 }
  - { offset: 0x5C8F2, size: 0x8, addend: 0x0, symName: __RNCINvNtCsc29TF2YcYso_3syn10punctuated4foldNtNtB6_8generics14TypeParamBoundNtNtB6_5token4PlusNtNvCsfQFyxU9Vz2T_11yoke_derive16replace_lifetime15ReplaceLifetimeNvYB1t_NtNtNtB6_3gen4fold4Fold21fold_type_param_boundE0B1x_, symObjAddr: 0x6540, symBinAddr: 0x36B1C, symSize: 0xEC }
  - { offset: 0x5C98E, size: 0x8, addend: 0x0, symName: __RNCINvNtCsc29TF2YcYso_3syn10punctuated4foldNtNtB6_8generics14WherePredicateNtNtB6_5token5CommaNtNvCsfQFyxU9Vz2T_11yoke_derive16replace_lifetime15ReplaceLifetimeNvYB1u_NtNtNtB6_3gen4fold4Fold20fold_where_predicateE0B1y_, symObjAddr: 0x662C, symBinAddr: 0x36C08, symSize: 0xF0 }
  - { offset: 0x5CA2A, size: 0x8, addend: 0x0, symName: __RNCINvNtCsc29TF2YcYso_3syn10punctuated4foldNtNtB6_8lifetime8LifetimeNtNtB6_5token4PlusNtNvCsfQFyxU9Vz2T_11yoke_derive16replace_lifetime15ReplaceLifetimeNvYB1m_NtNtNtB6_3gen4fold4Fold13fold_lifetimeE0B1q_, symObjAddr: 0x671C, symBinAddr: 0x36CF8, symSize: 0xC0 }
  - { offset: 0x608F6, size: 0x8, addend: 0x0, symName: __RINvNtCsc29TF2YcYso_3syn5parse12parse_scopedNvYNtCshnvkK9b4wzu_11proc_macro25IdentNtB2_5Parse5parseECsfQFyxU9Vz2T_11yoke_derive, symObjAddr: 0x4700, symBinAddr: 0x34CDC, symSize: 0x30 }
  - { offset: 0x60951, size: 0x8, addend: 0x0, symName: __RNvXsh_NtCsc29TF2YcYso_3syn5parseNvYNtCshnvkK9b4wzu_11proc_macro25IdentNtB5_5Parse5parseNtB5_6Parser14___parse_scopedCsfQFyxU9Vz2T_11yoke_derive, symObjAddr: 0x79A4, symBinAddr: 0x37F7C, symSize: 0x3A0 }
  - { offset: 0x60A9E, size: 0x8, addend: 0x0, symName: __RNvXsh_NtCsc29TF2YcYso_3syn5parseNvYNtNtB7_6derive11DeriveInputNtB5_5Parse5parseNtB5_6Parser6parse2CsfQFyxU9Vz2T_11yoke_derive, symObjAddr: 0x7D44, symBinAddr: 0x3831C, symSize: 0x354 }
  - { offset: 0x60BB4, size: 0x8, addend: 0x0, symName: __RNvYNvYNtNtCsc29TF2YcYso_3syn6derive11DeriveInputNtNtB9_5parse5Parse5parseNtBN_6Parser5parseCsfQFyxU9Vz2T_11yoke_derive, symObjAddr: 0xAA90, symBinAddr: 0x3B068, symSize: 0x88 }
  - { offset: 0x60E73, size: 0x8, addend: 0x0, symName: __RNvYNtNtCsfQFyxU9Vz2T_11yoke_derive7visitor11TypeVisitorNtNtNtCsc29TF2YcYso_3syn3gen5visit5Visit10visit_exprB6_, symObjAddr: 0x80CC, symBinAddr: 0x386A4, symSize: 0x3C }
  - { offset: 0x60EB2, size: 0x8, addend: 0x0, symName: __RNvYNtNtCsfQFyxU9Vz2T_11yoke_derive7visitor11TypeVisitorNtNtNtCsc29TF2YcYso_3syn3gen5visit5Visit10visit_itemB6_, symObjAddr: 0x8108, symBinAddr: 0x386E0, symSize: 0x3C }
  - { offset: 0x60EF4, size: 0x8, addend: 0x0, symName: __RNvYNtNtCsfQFyxU9Vz2T_11yoke_derive7visitor11TypeVisitorNtNtNtCsc29TF2YcYso_3syn3gen5visit5Visit10visit_metaB6_, symObjAddr: 0x8144, symBinAddr: 0x3871C, symSize: 0x3C }
  - { offset: 0x60F36, size: 0x8, addend: 0x0, symName: __RNvYNtNtCsfQFyxU9Vz2T_11yoke_derive7visitor11TypeVisitorNtNtNtCsc29TF2YcYso_3syn3gen5visit5Visit10visit_pathB6_, symObjAddr: 0x8180, symBinAddr: 0x38758, symSize: 0x3C }
  - { offset: 0x60F78, size: 0x8, addend: 0x0, symName: __RNvYNtNtCsfQFyxU9Vz2T_11yoke_derive7visitor11TypeVisitorNtNtNtCsc29TF2YcYso_3syn3gen5visit5Visit10visit_spanB6_, symObjAddr: 0x81BC, symBinAddr: 0x38794, symSize: 0x24 }
  - { offset: 0x60FBA, size: 0x8, addend: 0x0, symName: __RNvYNtNtCsfQFyxU9Vz2T_11yoke_derive7visitor11TypeVisitorNtNtNtCsc29TF2YcYso_3syn3gen5visit5Visit10visit_stmtB6_, symObjAddr: 0x81E0, symBinAddr: 0x387B8, symSize: 0x3C }
  - { offset: 0x60FFC, size: 0x8, addend: 0x0, symName: __RNvYNtNtCsfQFyxU9Vz2T_11yoke_derive7visitor11TypeVisitorNtNtNtCsc29TF2YcYso_3syn3gen5visit5Visit10visit_typeB6_, symObjAddr: 0x821C, symBinAddr: 0x387F4, symSize: 0x3C }
  - { offset: 0x6103E, size: 0x8, addend: 0x0, symName: __RNvYNtNtCsfQFyxU9Vz2T_11yoke_derive7visitor11TypeVisitorNtNtNtCsc29TF2YcYso_3syn3gen5visit5Visit11visit_blockB6_, symObjAddr: 0x8258, symBinAddr: 0x38830, symSize: 0x3C }
  - { offset: 0x6107D, size: 0x8, addend: 0x0, symName: __RNvYNtNtCsfQFyxU9Vz2T_11yoke_derive7visitor11TypeVisitorNtNtNtCsc29TF2YcYso_3syn3gen5visit5Visit11visit_fieldB6_, symObjAddr: 0x8294, symBinAddr: 0x3886C, symSize: 0x3C }
  - { offset: 0x610BF, size: 0x8, addend: 0x0, symName: __RNvYNtNtCsfQFyxU9Vz2T_11yoke_derive7visitor11TypeVisitorNtNtNtCsc29TF2YcYso_3syn3gen5visit5Visit11visit_identB6_, symObjAddr: 0x82D0, symBinAddr: 0x388A8, symSize: 0x3C }
  - { offset: 0x61101, size: 0x8, addend: 0x0, symName: __RNvYNtNtCsfQFyxU9Vz2T_11yoke_derive7visitor11TypeVisitorNtNtNtCsc29TF2YcYso_3syn3gen5visit5Visit11visit_indexB6_, symObjAddr: 0x830C, symBinAddr: 0x388E4, symSize: 0x3C }
  - { offset: 0x61143, size: 0x8, addend: 0x0, symName: __RNvYNtNtCsfQFyxU9Vz2T_11yoke_derive7visitor11TypeVisitorNtNtNtCsc29TF2YcYso_3syn3gen5visit5Visit11visit_labelB6_, symObjAddr: 0x8348, symBinAddr: 0x38920, symSize: 0x3C }
  - { offset: 0x61185, size: 0x8, addend: 0x0, symName: __RNvYNtNtCsfQFyxU9Vz2T_11yoke_derive7visitor11TypeVisitorNtNtNtCsc29TF2YcYso_3syn3gen5visit5Visit11visit_localB6_, symObjAddr: 0x8384, symBinAddr: 0x3895C, symSize: 0x3C }
  - { offset: 0x611C7, size: 0x8, addend: 0x0, symName: __RNvYNtNtCsfQFyxU9Vz2T_11yoke_derive7visitor11TypeVisitorNtNtNtCsc29TF2YcYso_3syn3gen5visit5Visit11visit_macroB6_, symObjAddr: 0x83C0, symBinAddr: 0x38998, symSize: 0x3C }
  - { offset: 0x61209, size: 0x8, addend: 0x0, symName: __RNvYNtNtCsfQFyxU9Vz2T_11yoke_derive7visitor11TypeVisitorNtNtNtCsc29TF2YcYso_3syn3gen5visit5Visit11visit_qselfB6_, symObjAddr: 0x83FC, symBinAddr: 0x389D4, symSize: 0x3C }
  - { offset: 0x6124B, size: 0x8, addend: 0x0, symName: __RNvYNtNtCsfQFyxU9Vz2T_11yoke_derive7visitor11TypeVisitorNtNtNtCsc29TF2YcYso_3syn3gen5visit5Visit11visit_un_opB6_, symObjAddr: 0x8438, symBinAddr: 0x38A10, symSize: 0x3C }
  - { offset: 0x6128D, size: 0x8, addend: 0x0, symName: __RNvYNtNtCsfQFyxU9Vz2T_11yoke_derive7visitor11TypeVisitorNtNtNtCsc29TF2YcYso_3syn3gen5visit5Visit12visit_bin_opB6_, symObjAddr: 0x8474, symBinAddr: 0x38A4C, symSize: 0x3C }
  - { offset: 0x612CC, size: 0x8, addend: 0x0, symName: __RNvYNtNtCsfQFyxU9Vz2T_11yoke_derive7visitor11TypeVisitorNtNtNtCsc29TF2YcYso_3syn3gen5visit5Visit12visit_fieldsB6_, symObjAddr: 0x84B0, symBinAddr: 0x38A88, symSize: 0x3C }
  - { offset: 0x6130E, size: 0x8, addend: 0x0, symName: __RNvYNtNtCsfQFyxU9Vz2T_11yoke_derive7visitor11TypeVisitorNtNtNtCsc29TF2YcYso_3syn3gen5visit5Visit12visit_fn_argB6_, symObjAddr: 0x84EC, symBinAddr: 0x38AC4, symSize: 0x3C }
  - { offset: 0x61350, size: 0x8, addend: 0x0, symName: __RNvYNtNtCsfQFyxU9Vz2T_11yoke_derive7visitor11TypeVisitorNtNtNtCsc29TF2YcYso_3syn3gen5visit5Visit12visit_memberB6_, symObjAddr: 0x8528, symBinAddr: 0x38B00, symSize: 0x3C }
  - { offset: 0x61392, size: 0x8, addend: 0x0, symName: __RNvYNtNtCsfQFyxU9Vz2T_11yoke_derive7visitor11TypeVisitorNtNtNtCsc29TF2YcYso_3syn3gen5visit5Visit12visit_pat_orB6_, symObjAddr: 0x8564, symBinAddr: 0x38B3C, symSize: 0x3C }
  - { offset: 0x613D4, size: 0x8, addend: 0x0, symName: __RNvYNtNtCsfQFyxU9Vz2T_11yoke_derive7visitor11TypeVisitorNtNtNtCsc29TF2YcYso_3syn3gen5visit5Visit13visit_expr_ifB6_, symObjAddr: 0x85A0, symBinAddr: 0x38B78, symSize: 0x3C }
  - { offset: 0x61413, size: 0x8, addend: 0x0, symName: __RNvYNtNtCsfQFyxU9Vz2T_11yoke_derive7visitor11TypeVisitorNtNtNtCsc29TF2YcYso_3syn3gen5visit5Visit13visit_item_fnB6_, symObjAddr: 0x85DC, symBinAddr: 0x38BB4, symSize: 0x3C }
  - { offset: 0x61455, size: 0x8, addend: 0x0, symName: __RNvYNtNtCsfQFyxU9Vz2T_11yoke_derive7visitor11TypeVisitorNtNtNtCsc29TF2YcYso_3syn3gen5visit5Visit13visit_lit_intB6_, symObjAddr: 0x8618, symBinAddr: 0x38BF0, symSize: 0x3C }
  - { offset: 0x61497, size: 0x8, addend: 0x0, symName: __RNvYNtNtCsfQFyxU9Vz2T_11yoke_derive7visitor11TypeVisitorNtNtNtCsc29TF2YcYso_3syn3gen5visit5Visit13visit_lit_strB6_, symObjAddr: 0x8654, symBinAddr: 0x38C2C, symSize: 0x3C }
  - { offset: 0x614D9, size: 0x8, addend: 0x0, symName: __RNvYNtNtCsfQFyxU9Vz2T_11yoke_derive7visitor11TypeVisitorNtNtNtCsc29TF2YcYso_3syn3gen5visit5Visit13visit_variantB6_, symObjAddr: 0x8690, symBinAddr: 0x38C68, symSize: 0x3C }
  - { offset: 0x6151B, size: 0x8, addend: 0x0, symName: __RNvYNtNtCsfQFyxU9Vz2T_11yoke_derive7visitor11TypeVisitorNtNtNtCsc29TF2YcYso_3syn3gen5visit5Visit14visit_expr_letB6_, symObjAddr: 0x86CC, symBinAddr: 0x38CA4, symSize: 0x3C }
  - { offset: 0x6155A, size: 0x8, addend: 0x0, symName: __RNvYNtNtCsfQFyxU9Vz2T_11yoke_derive7visitor11TypeVisitorNtNtNtCsc29TF2YcYso_3syn3gen5visit5Visit14visit_expr_litB6_, symObjAddr: 0x8708, symBinAddr: 0x38CE0, symSize: 0x3C }
  - { offset: 0x61599, size: 0x8, addend: 0x0, symName: __RNvYNtNtCsfQFyxU9Vz2T_11yoke_derive7visitor11TypeVisitorNtNtNtCsc29TF2YcYso_3syn3gen5visit5Visit14visit_expr_tryB6_, symObjAddr: 0x8744, symBinAddr: 0x38D1C, symSize: 0x3C }
  - { offset: 0x615DB, size: 0x8, addend: 0x0, symName: __RNvYNtNtCsfQFyxU9Vz2T_11yoke_derive7visitor11TypeVisitorNtNtNtCsc29TF2YcYso_3syn3gen5visit5Visit14visit_genericsB6_, symObjAddr: 0x8780, symBinAddr: 0x38D58, symSize: 0x3C }
  - { offset: 0x6161D, size: 0x8, addend: 0x0, symName: __RNvYNtNtCsfQFyxU9Vz2T_11yoke_derive7visitor11TypeVisitorNtNtNtCsc29TF2YcYso_3syn3gen5visit5Visit14visit_item_modB6_, symObjAddr: 0x87BC, symBinAddr: 0x38D94, symSize: 0x3C }
  - { offset: 0x6165F, size: 0x8, addend: 0x0, symName: __RNvYNtNtCsfQFyxU9Vz2T_11yoke_derive7visitor11TypeVisitorNtNtNtCsc29TF2YcYso_3syn3gen5visit5Visit14visit_item_useB6_, symObjAddr: 0x87F8, symBinAddr: 0x38DD0, symSize: 0x3C }
  - { offset: 0x616A1, size: 0x8, addend: 0x0, symName: __RNvYNtNtCsfQFyxU9Vz2T_11yoke_derive7visitor11TypeVisitorNtNtNtCsc29TF2YcYso_3syn3gen5visit5Visit14visit_lit_boolB6_, symObjAddr: 0x8834, symBinAddr: 0x38E0C, symSize: 0x3C }
  - { offset: 0x616E3, size: 0x8, addend: 0x0, symName: __RNvYNtNtCsfQFyxU9Vz2T_11yoke_derive7visitor11TypeVisitorNtNtNtCsc29TF2YcYso_3syn3gen5visit5Visit14visit_lit_byteB6_, symObjAddr: 0x8870, symBinAddr: 0x38E48, symSize: 0x3C }
  - { offset: 0x61725, size: 0x8, addend: 0x0, symName: __RNvYNtNtCsfQFyxU9Vz2T_11yoke_derive7visitor11TypeVisitorNtNtNtCsc29TF2YcYso_3syn3gen5visit5Visit14visit_lit_charB6_, symObjAddr: 0x88AC, symBinAddr: 0x38E84, symSize: 0x3C }
  - { offset: 0x61767, size: 0x8, addend: 0x0, symName: __RNvYNtNtCsfQFyxU9Vz2T_11yoke_derive7visitor11TypeVisitorNtNtNtCsc29TF2YcYso_3syn3gen5visit5Visit14visit_lit_cstrB6_, symObjAddr: 0x88E8, symBinAddr: 0x38EC0, symSize: 0x3C }
  - { offset: 0x617A9, size: 0x8, addend: 0x0, symName: __RNvYNtNtCsfQFyxU9Vz2T_11yoke_derive7visitor11TypeVisitorNtNtNtCsc29TF2YcYso_3syn3gen5visit5Visit14visit_pat_restB6_, symObjAddr: 0x8924, symBinAddr: 0x38EFC, symSize: 0x3C }
  - { offset: 0x617EB, size: 0x8, addend: 0x0, symName: __RNvYNtNtCsfQFyxU9Vz2T_11yoke_derive7visitor11TypeVisitorNtNtNtCsc29TF2YcYso_3syn3gen5visit5Visit14visit_pat_typeB6_, symObjAddr: 0x8960, symBinAddr: 0x38F38, symSize: 0x3C }
  - { offset: 0x6182D, size: 0x8, addend: 0x0, symName: __RNvYNtNtCsfQFyxU9Vz2T_11yoke_derive7visitor11TypeVisitorNtNtNtCsc29TF2YcYso_3syn3gen5visit5Visit14visit_pat_wildB6_, symObjAddr: 0x899C, symBinAddr: 0x38F74, symSize: 0x3C }
  - { offset: 0x6186F, size: 0x8, addend: 0x0, symName: __RNvYNtNtCsfQFyxU9Vz2T_11yoke_derive7visitor11TypeVisitorNtNtNtCsc29TF2YcYso_3syn3gen5visit5Visit14visit_receiverB6_, symObjAddr: 0x89D8, symBinAddr: 0x38FB0, symSize: 0x3C }
  - { offset: 0x618B1, size: 0x8, addend: 0x0, symName: __RNvYNtNtCsfQFyxU9Vz2T_11yoke_derive7visitor11TypeVisitorNtNtNtCsc29TF2YcYso_3syn3gen5visit5Visit14visit_type_ptrB6_, symObjAddr: 0x8A14, symBinAddr: 0x38FEC, symSize: 0x3C }
  - { offset: 0x618F3, size: 0x8, addend: 0x0, symName: __RNvYNtNtCsfQFyxU9Vz2T_11yoke_derive7visitor11TypeVisitorNtNtNtCsc29TF2YcYso_3syn3gen5visit5Visit14visit_use_globB6_, symObjAddr: 0x8A50, symBinAddr: 0x39028, symSize: 0x3C }
  - { offset: 0x61935, size: 0x8, addend: 0x0, symName: __RNvYNtNtCsfQFyxU9Vz2T_11yoke_derive7visitor11TypeVisitorNtNtNtCsc29TF2YcYso_3syn3gen5visit5Visit14visit_use_nameB6_, symObjAddr: 0x8A8C, symBinAddr: 0x39064, symSize: 0x3C }
  - { offset: 0x61977, size: 0x8, addend: 0x0, symName: __RNvYNtNtCsfQFyxU9Vz2T_11yoke_derive7visitor11TypeVisitorNtNtNtCsc29TF2YcYso_3syn3gen5visit5Visit14visit_use_pathB6_, symObjAddr: 0x8AC8, symBinAddr: 0x390A0, symSize: 0x3C }
  - { offset: 0x619B9, size: 0x8, addend: 0x0, symName: __RNvYNtNtCsfQFyxU9Vz2T_11yoke_derive7visitor11TypeVisitorNtNtNtCsc29TF2YcYso_3syn3gen5visit5Visit14visit_use_treeB6_, symObjAddr: 0x8B04, symBinAddr: 0x390DC, symSize: 0x3C }
  - { offset: 0x619FB, size: 0x8, addend: 0x0, symName: __RNvYNtNtCsfQFyxU9Vz2T_11yoke_derive7visitor11TypeVisitorNtNtNtCsc29TF2YcYso_3syn3gen5visit5Visit14visit_variadicB6_, symObjAddr: 0x8B40, symBinAddr: 0x39118, symSize: 0x3C }
  - { offset: 0x61A3D, size: 0x8, addend: 0x0, symName: __RNvYNtNtCsfQFyxU9Vz2T_11yoke_derive7visitor11TypeVisitorNtNtNtCsc29TF2YcYso_3syn3gen5visit5Visit15visit_attributeB6_, symObjAddr: 0x8B7C, symBinAddr: 0x39154, symSize: 0x3C }
  - { offset: 0x61A7C, size: 0x8, addend: 0x0, symName: __RNvYNtNtCsfQFyxU9Vz2T_11yoke_derive7visitor11TypeVisitorNtNtNtCsc29TF2YcYso_3syn3gen5visit5Visit15visit_expr_callB6_, symObjAddr: 0x8BB8, symBinAddr: 0x39190, symSize: 0x3C }
  - { offset: 0x61ABB, size: 0x8, addend: 0x0, symName: __RNvYNtNtCsfQFyxU9Vz2T_11yoke_derive7visitor11TypeVisitorNtNtNtCsc29TF2YcYso_3syn3gen5visit5Visit15visit_expr_castB6_, symObjAddr: 0x8BF4, symBinAddr: 0x391CC, symSize: 0x3C }
  - { offset: 0x61AFA, size: 0x8, addend: 0x0, symName: __RNvYNtNtCsfQFyxU9Vz2T_11yoke_derive7visitor11TypeVisitorNtNtNtCsc29TF2YcYso_3syn3gen5visit5Visit15visit_expr_loopB6_, symObjAddr: 0x8C30, symBinAddr: 0x39208, symSize: 0x3C }
  - { offset: 0x61B39, size: 0x8, addend: 0x0, symName: __RNvYNtNtCsfQFyxU9Vz2T_11yoke_derive7visitor11TypeVisitorNtNtNtCsc29TF2YcYso_3syn3gen5visit5Visit15visit_expr_pathB6_, symObjAddr: 0x8C6C, symBinAddr: 0x39244, symSize: 0x3C }
  - { offset: 0x61B7B, size: 0x8, addend: 0x0, symName: __RNvYNtNtCsfQFyxU9Vz2T_11yoke_derive7visitor11TypeVisitorNtNtNtCsc29TF2YcYso_3syn3gen5visit5Visit15visit_field_patB6_, symObjAddr: 0x8CA8, symBinAddr: 0x39280, symSize: 0x3C }
  - { offset: 0x61BBD, size: 0x8, addend: 0x0, symName: __RNvYNtNtCsfQFyxU9Vz2T_11yoke_derive7visitor11TypeVisitorNtNtNtCsc29TF2YcYso_3syn3gen5visit5Visit15visit_impl_itemB6_, symObjAddr: 0x8CE4, symBinAddr: 0x392BC, symSize: 0x3C }
  - { offset: 0x61BFF, size: 0x8, addend: 0x0, symName: __RNvYNtNtCsfQFyxU9Vz2T_11yoke_derive7visitor11TypeVisitorNtNtNtCsc29TF2YcYso_3syn3gen5visit5Visit15visit_item_enumB6_, symObjAddr: 0x8D20, symBinAddr: 0x392F8, symSize: 0x3C }
  - { offset: 0x61C41, size: 0x8, addend: 0x0, symName: __RNvYNtNtCsfQFyxU9Vz2T_11yoke_derive7visitor11TypeVisitorNtNtNtCsc29TF2YcYso_3syn3gen5visit5Visit15visit_item_implB6_, symObjAddr: 0x8D5C, symBinAddr: 0x39334, symSize: 0x3C }
  - { offset: 0x61C83, size: 0x8, addend: 0x0, symName: __RNvYNtNtCsfQFyxU9Vz2T_11yoke_derive7visitor11TypeVisitorNtNtNtCsc29TF2YcYso_3syn3gen5visit5Visit15visit_item_typeB6_, symObjAddr: 0x8D98, symBinAddr: 0x39370, symSize: 0x3C }
  - { offset: 0x61CC5, size: 0x8, addend: 0x0, symName: __RNvYNtNtCsfQFyxU9Vz2T_11yoke_derive7visitor11TypeVisitorNtNtNtCsc29TF2YcYso_3syn3gen5visit5Visit15visit_lit_floatB6_, symObjAddr: 0x8DD4, symBinAddr: 0x393AC, symSize: 0x3C }
  - { offset: 0x61D07, size: 0x8, addend: 0x0, symName: __RNvYNtNtCsfQFyxU9Vz2T_11yoke_derive7visitor11TypeVisitorNtNtNtCsc29TF2YcYso_3syn3gen5visit5Visit15visit_meta_listB6_, symObjAddr: 0x8E10, symBinAddr: 0x393E8, symSize: 0x3C }
  - { offset: 0x61D49, size: 0x8, addend: 0x0, symName: __RNvYNtNtCsfQFyxU9Vz2T_11yoke_derive7visitor11TypeVisitorNtNtNtCsc29TF2YcYso_3syn3gen5visit5Visit15visit_pat_identB6_, symObjAddr: 0x8E4C, symBinAddr: 0x39424, symSize: 0x3C }
  - { offset: 0x61D8B, size: 0x8, addend: 0x0, symName: __RNvYNtNtCsfQFyxU9Vz2T_11yoke_derive7visitor11TypeVisitorNtNtNtCsc29TF2YcYso_3syn3gen5visit5Visit15visit_pat_parenB6_, symObjAddr: 0x8E88, symBinAddr: 0x39460, symSize: 0x3C }
  - { offset: 0x61DCD, size: 0x8, addend: 0x0, symName: __RNvYNtNtCsfQFyxU9Vz2T_11yoke_derive7visitor11TypeVisitorNtNtNtCsc29TF2YcYso_3syn3gen5visit5Visit15visit_pat_sliceB6_, symObjAddr: 0x8EC4, symBinAddr: 0x3949C, symSize: 0x3C }
  - { offset: 0x61E0F, size: 0x8, addend: 0x0, symName: __RNvYNtNtCsfQFyxU9Vz2T_11yoke_derive7visitor11TypeVisitorNtNtNtCsc29TF2YcYso_3syn3gen5visit5Visit15visit_pat_tupleB6_, symObjAddr: 0x8F00, symBinAddr: 0x394D8, symSize: 0x3C }
  - { offset: 0x61E51, size: 0x8, addend: 0x0, symName: __RNvYNtNtCsfQFyxU9Vz2T_11yoke_derive7visitor11TypeVisitorNtNtNtCsc29TF2YcYso_3syn3gen5visit5Visit15visit_signatureB6_, symObjAddr: 0x8F3C, symBinAddr: 0x39514, symSize: 0x3C }
  - { offset: 0x61E93, size: 0x8, addend: 0x0, symName: __RNvYNtNtCsfQFyxU9Vz2T_11yoke_derive7visitor11TypeVisitorNtNtNtCsc29TF2YcYso_3syn3gen5visit5Visit15visit_use_groupB6_, symObjAddr: 0x8F78, symBinAddr: 0x39550, symSize: 0x3C }
  - { offset: 0x61ED5, size: 0x8, addend: 0x0, symName: __RNvYNtNtCsfQFyxU9Vz2T_11yoke_derive7visitor11TypeVisitorNtNtNtCsc29TF2YcYso_3syn3gen5visit5Visit16visit_assoc_typeB6_, symObjAddr: 0x8FB4, symBinAddr: 0x3958C, symSize: 0x3C }
  - { offset: 0x61F14, size: 0x8, addend: 0x0, symName: __RNvYNtNtCsfQFyxU9Vz2T_11yoke_derive7visitor11TypeVisitorNtNtNtCsc29TF2YcYso_3syn3gen5visit5Visit16visit_attr_styleB6_, symObjAddr: 0x8FF0, symBinAddr: 0x395C8, symSize: 0x3C }
  - { offset: 0x61F53, size: 0x8, addend: 0x0, symName: __RNvYNtNtCsfQFyxU9Vz2T_11yoke_derive7visitor11TypeVisitorNtNtNtCsc29TF2YcYso_3syn3gen5visit5Visit16visit_constraintB6_, symObjAddr: 0x902C, symBinAddr: 0x39604, symSize: 0x3C }
  - { offset: 0x61F92, size: 0x8, addend: 0x0, symName: __RNvYNtNtCsfQFyxU9Vz2T_11yoke_derive7visitor11TypeVisitorNtNtNtCsc29TF2YcYso_3syn3gen5visit5Visit16visit_expr_arrayB6_, symObjAddr: 0x9068, symBinAddr: 0x39640, symSize: 0x3C }
  - { offset: 0x61FD1, size: 0x8, addend: 0x0, symName: __RNvYNtNtCsfQFyxU9Vz2T_11yoke_derive7visitor11TypeVisitorNtNtNtCsc29TF2YcYso_3syn3gen5visit5Visit16visit_expr_asyncB6_, symObjAddr: 0x90A4, symBinAddr: 0x3967C, symSize: 0x3C }
  - { offset: 0x62010, size: 0x8, addend: 0x0, symName: __RNvYNtNtCsfQFyxU9Vz2T_11yoke_derive7visitor11TypeVisitorNtNtNtCsc29TF2YcYso_3syn3gen5visit5Visit16visit_expr_awaitB6_, symObjAddr: 0x90E0, symBinAddr: 0x396B8, symSize: 0x3C }
  - { offset: 0x6204F, size: 0x8, addend: 0x0, symName: __RNvYNtNtCsfQFyxU9Vz2T_11yoke_derive7visitor11TypeVisitorNtNtNtCsc29TF2YcYso_3syn3gen5visit5Visit16visit_expr_blockB6_, symObjAddr: 0x911C, symBinAddr: 0x396F4, symSize: 0x3C }
  - { offset: 0x6208E, size: 0x8, addend: 0x0, symName: __RNvYNtNtCsfQFyxU9Vz2T_11yoke_derive7visitor11TypeVisitorNtNtNtCsc29TF2YcYso_3syn3gen5visit5Visit16visit_expr_breakB6_, symObjAddr: 0x9158, symBinAddr: 0x39730, symSize: 0x3C }
  - { offset: 0x620CD, size: 0x8, addend: 0x0, symName: __RNvYNtNtCsfQFyxU9Vz2T_11yoke_derive7visitor11TypeVisitorNtNtNtCsc29TF2YcYso_3syn3gen5visit5Visit16visit_expr_constB6_, symObjAddr: 0x9194, symBinAddr: 0x3976C, symSize: 0x3C }
  - { offset: 0x6210C, size: 0x8, addend: 0x0, symName: __RNvYNtNtCsfQFyxU9Vz2T_11yoke_derive7visitor11TypeVisitorNtNtNtCsc29TF2YcYso_3syn3gen5visit5Visit16visit_expr_fieldB6_, symObjAddr: 0x91D0, symBinAddr: 0x397A8, symSize: 0x3C }
  - { offset: 0x6214B, size: 0x8, addend: 0x0, symName: __RNvYNtNtCsfQFyxU9Vz2T_11yoke_derive7visitor11TypeVisitorNtNtNtCsc29TF2YcYso_3syn3gen5visit5Visit16visit_expr_groupB6_, symObjAddr: 0x920C, symBinAddr: 0x397E4, symSize: 0x3C }
  - { offset: 0x6218A, size: 0x8, addend: 0x0, symName: __RNvYNtNtCsfQFyxU9Vz2T_11yoke_derive7visitor11TypeVisitorNtNtNtCsc29TF2YcYso_3syn3gen5visit5Visit16visit_expr_indexB6_, symObjAddr: 0x9248, symBinAddr: 0x39820, symSize: 0x3C }
  - { offset: 0x621C9, size: 0x8, addend: 0x0, symName: __RNvYNtNtCsfQFyxU9Vz2T_11yoke_derive7visitor11TypeVisitorNtNtNtCsc29TF2YcYso_3syn3gen5visit5Visit16visit_expr_inferB6_, symObjAddr: 0x9284, symBinAddr: 0x3985C, symSize: 0x3C }
  - { offset: 0x62208, size: 0x8, addend: 0x0, symName: __RNvYNtNtCsfQFyxU9Vz2T_11yoke_derive7visitor11TypeVisitorNtNtNtCsc29TF2YcYso_3syn3gen5visit5Visit16visit_expr_macroB6_, symObjAddr: 0x92C0, symBinAddr: 0x39898, symSize: 0x3C }
  - { offset: 0x62247, size: 0x8, addend: 0x0, symName: __RNvYNtNtCsfQFyxU9Vz2T_11yoke_derive7visitor11TypeVisitorNtNtNtCsc29TF2YcYso_3syn3gen5visit5Visit16visit_expr_matchB6_, symObjAddr: 0x92FC, symBinAddr: 0x398D4, symSize: 0x3C }
  - { offset: 0x62286, size: 0x8, addend: 0x0, symName: __RNvYNtNtCsfQFyxU9Vz2T_11yoke_derive7visitor11TypeVisitorNtNtNtCsc29TF2YcYso_3syn3gen5visit5Visit16visit_expr_parenB6_, symObjAddr: 0x9338, symBinAddr: 0x39910, symSize: 0x3C }
  - { offset: 0x622C8, size: 0x8, addend: 0x0, symName: __RNvYNtNtCsfQFyxU9Vz2T_11yoke_derive7visitor11TypeVisitorNtNtNtCsc29TF2YcYso_3syn3gen5visit5Visit16visit_expr_rangeB6_, symObjAddr: 0x9374, symBinAddr: 0x3994C, symSize: 0x3C }
  - { offset: 0x6230A, size: 0x8, addend: 0x0, symName: __RNvYNtNtCsfQFyxU9Vz2T_11yoke_derive7visitor11TypeVisitorNtNtNtCsc29TF2YcYso_3syn3gen5visit5Visit16visit_expr_tupleB6_, symObjAddr: 0x93B0, symBinAddr: 0x39988, symSize: 0x3C }
  - { offset: 0x6234C, size: 0x8, addend: 0x0, symName: __RNvYNtNtCsfQFyxU9Vz2T_11yoke_derive7visitor11TypeVisitorNtNtNtCsc29TF2YcYso_3syn3gen5visit5Visit16visit_expr_unaryB6_, symObjAddr: 0x93EC, symBinAddr: 0x399C4, symSize: 0x3C }
  - { offset: 0x6238E, size: 0x8, addend: 0x0, symName: __RNvYNtNtCsfQFyxU9Vz2T_11yoke_derive7visitor11TypeVisitorNtNtNtCsc29TF2YcYso_3syn3gen5visit5Visit16visit_expr_whileB6_, symObjAddr: 0x9428, symBinAddr: 0x39A00, symSize: 0x3C }
  - { offset: 0x623D0, size: 0x8, addend: 0x0, symName: __RNvYNtNtCsfQFyxU9Vz2T_11yoke_derive7visitor11TypeVisitorNtNtNtCsc29TF2YcYso_3syn3gen5visit5Visit16visit_expr_yieldB6_, symObjAddr: 0x9464, symBinAddr: 0x39A3C, symSize: 0x3C }
  - { offset: 0x62412, size: 0x8, addend: 0x0, symName: __RNvYNtNtCsfQFyxU9Vz2T_11yoke_derive7visitor11TypeVisitorNtNtNtCsc29TF2YcYso_3syn3gen5visit5Visit16visit_item_constB6_, symObjAddr: 0x94A0, symBinAddr: 0x39A78, symSize: 0x3C }
  - { offset: 0x62454, size: 0x8, addend: 0x0, symName: __RNvYNtNtCsfQFyxU9Vz2T_11yoke_derive7visitor11TypeVisitorNtNtNtCsc29TF2YcYso_3syn3gen5visit5Visit16visit_item_macroB6_, symObjAddr: 0x94DC, symBinAddr: 0x39AB4, symSize: 0x3C }
  - { offset: 0x62496, size: 0x8, addend: 0x0, symName: __RNvYNtNtCsfQFyxU9Vz2T_11yoke_derive7visitor11TypeVisitorNtNtNtCsc29TF2YcYso_3syn3gen5visit5Visit16visit_item_traitB6_, symObjAddr: 0x9518, symBinAddr: 0x39AF0, symSize: 0x3C }
  - { offset: 0x624D8, size: 0x8, addend: 0x0, symName: __RNvYNtNtCsfQFyxU9Vz2T_11yoke_derive7visitor11TypeVisitorNtNtNtCsc29TF2YcYso_3syn3gen5visit5Visit16visit_item_unionB6_, symObjAddr: 0x9554, symBinAddr: 0x39B2C, symSize: 0x3C }
  - { offset: 0x6251A, size: 0x8, addend: 0x0, symName: __RNvYNtNtCsfQFyxU9Vz2T_11yoke_derive7visitor11TypeVisitorNtNtNtCsc29TF2YcYso_3syn3gen5visit5Visit16visit_local_initB6_, symObjAddr: 0x9590, symBinAddr: 0x39B68, symSize: 0x3C }
  - { offset: 0x6255C, size: 0x8, addend: 0x0, symName: __RNvYNtNtCsfQFyxU9Vz2T_11yoke_derive7visitor11TypeVisitorNtNtNtCsc29TF2YcYso_3syn3gen5visit5Visit16visit_pat_structB6_, symObjAddr: 0x95CC, symBinAddr: 0x39BA4, symSize: 0x3C }
  - { offset: 0x6259E, size: 0x8, addend: 0x0, symName: __RNvYNtNtCsfQFyxU9Vz2T_11yoke_derive7visitor11TypeVisitorNtNtNtCsc29TF2YcYso_3syn3gen5visit5Visit16visit_stmt_macroB6_, symObjAddr: 0x9608, symBinAddr: 0x39BE0, symSize: 0x3C }
  - { offset: 0x625E0, size: 0x8, addend: 0x0, symName: __RNvYNtNtCsfQFyxU9Vz2T_11yoke_derive7visitor11TypeVisitorNtNtNtCsc29TF2YcYso_3syn3gen5visit5Visit16visit_trait_itemB6_, symObjAddr: 0x9644, symBinAddr: 0x39C1C, symSize: 0x3C }
  - { offset: 0x62622, size: 0x8, addend: 0x0, symName: __RNvYNtNtCsfQFyxU9Vz2T_11yoke_derive7visitor11TypeVisitorNtNtNtCsc29TF2YcYso_3syn3gen5visit5Visit16visit_type_arrayB6_, symObjAddr: 0x9680, symBinAddr: 0x39C58, symSize: 0x3C }
  - { offset: 0x62664, size: 0x8, addend: 0x0, symName: __RNvYNtNtCsfQFyxU9Vz2T_11yoke_derive7visitor11TypeVisitorNtNtNtCsc29TF2YcYso_3syn3gen5visit5Visit16visit_type_groupB6_, symObjAddr: 0x96BC, symBinAddr: 0x39C94, symSize: 0x3C }
  - { offset: 0x626A6, size: 0x8, addend: 0x0, symName: __RNvYNtNtCsfQFyxU9Vz2T_11yoke_derive7visitor11TypeVisitorNtNtNtCsc29TF2YcYso_3syn3gen5visit5Visit16visit_type_inferB6_, symObjAddr: 0x96F8, symBinAddr: 0x39CD0, symSize: 0x3C }
  - { offset: 0x626E8, size: 0x8, addend: 0x0, symName: __RNvYNtNtCsfQFyxU9Vz2T_11yoke_derive7visitor11TypeVisitorNtNtNtCsc29TF2YcYso_3syn3gen5visit5Visit16visit_type_macroB6_, symObjAddr: 0x9734, symBinAddr: 0x39D0C, symSize: 0x3C }
  - { offset: 0x6272A, size: 0x8, addend: 0x0, symName: __RNvYNtNtCsfQFyxU9Vz2T_11yoke_derive7visitor11TypeVisitorNtNtNtCsc29TF2YcYso_3syn3gen5visit5Visit16visit_type_neverB6_, symObjAddr: 0x9770, symBinAddr: 0x39D48, symSize: 0x3C }
  - { offset: 0x6276C, size: 0x8, addend: 0x0, symName: __RNvYNtNtCsfQFyxU9Vz2T_11yoke_derive7visitor11TypeVisitorNtNtNtCsc29TF2YcYso_3syn3gen5visit5Visit16visit_type_paramB6_, symObjAddr: 0x97AC, symBinAddr: 0x39D84, symSize: 0x3C }
  - { offset: 0x627AE, size: 0x8, addend: 0x0, symName: __RNvYNtNtCsfQFyxU9Vz2T_11yoke_derive7visitor11TypeVisitorNtNtNtCsc29TF2YcYso_3syn3gen5visit5Visit16visit_type_parenB6_, symObjAddr: 0x97E8, symBinAddr: 0x39DC0, symSize: 0x3C }
  - { offset: 0x627F0, size: 0x8, addend: 0x0, symName: __RNvYNtNtCsfQFyxU9Vz2T_11yoke_derive7visitor11TypeVisitorNtNtNtCsc29TF2YcYso_3syn3gen5visit5Visit16visit_type_sliceB6_, symObjAddr: 0x9824, symBinAddr: 0x39DFC, symSize: 0x3C }
  - { offset: 0x62832, size: 0x8, addend: 0x0, symName: __RNvYNtNtCsfQFyxU9Vz2T_11yoke_derive7visitor11TypeVisitorNtNtNtCsc29TF2YcYso_3syn3gen5visit5Visit16visit_type_tupleB6_, symObjAddr: 0x9860, symBinAddr: 0x39E38, symSize: 0x3C }
  - { offset: 0x62874, size: 0x8, addend: 0x0, symName: __RNvYNtNtCsfQFyxU9Vz2T_11yoke_derive7visitor11TypeVisitorNtNtNtCsc29TF2YcYso_3syn3gen5visit5Visit16visit_use_renameB6_, symObjAddr: 0x989C, symBinAddr: 0x39E74, symSize: 0x3C }
  - { offset: 0x628B6, size: 0x8, addend: 0x0, symName: __RNvYNtNtCsfQFyxU9Vz2T_11yoke_derive7visitor11TypeVisitorNtNtNtCsc29TF2YcYso_3syn3gen5visit5Visit16visit_visibilityB6_, symObjAddr: 0x98D8, symBinAddr: 0x39EB0, symSize: 0x3C }
  - { offset: 0x628F8, size: 0x8, addend: 0x0, symName: __RNvYNtNtCsfQFyxU9Vz2T_11yoke_derive7visitor11TypeVisitorNtNtNtCsc29TF2YcYso_3syn3gen5visit5Visit17visit_assoc_constB6_, symObjAddr: 0x9914, symBinAddr: 0x39EEC, symSize: 0x3C }
  - { offset: 0x62937, size: 0x8, addend: 0x0, symName: __RNvYNtNtCsfQFyxU9Vz2T_11yoke_derive7visitor11TypeVisitorNtNtNtCsc29TF2YcYso_3syn3gen5visit5Visit17visit_bare_fn_argB6_, symObjAddr: 0x9950, symBinAddr: 0x39F28, symSize: 0x3C }
  - { offset: 0x62976, size: 0x8, addend: 0x0, symName: __RNvYNtNtCsfQFyxU9Vz2T_11yoke_derive7visitor11TypeVisitorNtNtNtCsc29TF2YcYso_3syn3gen5visit5Visit17visit_const_paramB6_, symObjAddr: 0x998C, symBinAddr: 0x39F64, symSize: 0x3C }
  - { offset: 0x629B5, size: 0x8, addend: 0x0, symName: __RNvYNtNtCsfQFyxU9Vz2T_11yoke_derive7visitor11TypeVisitorNtNtNtCsc29TF2YcYso_3syn3gen5visit5Visit17visit_expr_assignB6_, symObjAddr: 0x99C8, symBinAddr: 0x39FA0, symSize: 0x3C }
  - { offset: 0x629F4, size: 0x8, addend: 0x0, symName: __RNvYNtNtCsfQFyxU9Vz2T_11yoke_derive7visitor11TypeVisitorNtNtNtCsc29TF2YcYso_3syn3gen5visit5Visit17visit_expr_binaryB6_, symObjAddr: 0x9A04, symBinAddr: 0x39FDC, symSize: 0x3C }
  - { offset: 0x62A33, size: 0x8, addend: 0x0, symName: __RNvYNtNtCsfQFyxU9Vz2T_11yoke_derive7visitor11TypeVisitorNtNtNtCsc29TF2YcYso_3syn3gen5visit5Visit17visit_expr_repeatB6_, symObjAddr: 0x9A40, symBinAddr: 0x3A018, symSize: 0x3C }
  - { offset: 0x62A75, size: 0x8, addend: 0x0, symName: __RNvYNtNtCsfQFyxU9Vz2T_11yoke_derive7visitor11TypeVisitorNtNtNtCsc29TF2YcYso_3syn3gen5visit5Visit17visit_expr_returnB6_, symObjAddr: 0x9A7C, symBinAddr: 0x3A054, symSize: 0x3C }
  - { offset: 0x62AB7, size: 0x8, addend: 0x0, symName: __RNvYNtNtCsfQFyxU9Vz2T_11yoke_derive7visitor11TypeVisitorNtNtNtCsc29TF2YcYso_3syn3gen5visit5Visit17visit_expr_structB6_, symObjAddr: 0x9AB8, symBinAddr: 0x3A090, symSize: 0x3C }
  - { offset: 0x62AF9, size: 0x8, addend: 0x0, symName: __RNvYNtNtCsfQFyxU9Vz2T_11yoke_derive7visitor11TypeVisitorNtNtNtCsc29TF2YcYso_3syn3gen5visit5Visit17visit_expr_unsafeB6_, symObjAddr: 0x9AF4, symBinAddr: 0x3A0CC, symSize: 0x3C }
  - { offset: 0x62B3B, size: 0x8, addend: 0x0, symName: __RNvYNtNtCsfQFyxU9Vz2T_11yoke_derive7visitor11TypeVisitorNtNtNtCsc29TF2YcYso_3syn3gen5visit5Visit17visit_field_valueB6_, symObjAddr: 0x9B30, symBinAddr: 0x3A108, symSize: 0x3C }
  - { offset: 0x62B7D, size: 0x8, addend: 0x0, symName: __RNvYNtNtCsfQFyxU9Vz2T_11yoke_derive7visitor11TypeVisitorNtNtNtCsc29TF2YcYso_3syn3gen5visit5Visit17visit_item_staticB6_, symObjAddr: 0x9B6C, symBinAddr: 0x3A144, symSize: 0x3C }
  - { offset: 0x62BBF, size: 0x8, addend: 0x0, symName: __RNvYNtNtCsfQFyxU9Vz2T_11yoke_derive7visitor11TypeVisitorNtNtNtCsc29TF2YcYso_3syn3gen5visit5Visit17visit_item_structB6_, symObjAddr: 0x9BA8, symBinAddr: 0x3A180, symSize: 0x3C }
  - { offset: 0x62C01, size: 0x8, addend: 0x0, symName: __RNvYNtNtCsfQFyxU9Vz2T_11yoke_derive7visitor11TypeVisitorNtNtNtCsc29TF2YcYso_3syn3gen5visit5Visit17visit_return_typeB6_, symObjAddr: 0x9BE4, symBinAddr: 0x3A1BC, symSize: 0x3C }
  - { offset: 0x62C43, size: 0x8, addend: 0x0, symName: __RNvYNtNtCsfQFyxU9Vz2T_11yoke_derive7visitor11TypeVisitorNtNtNtCsc29TF2YcYso_3syn3gen5visit5Visit17visit_trait_boundB6_, symObjAddr: 0x9C20, symBinAddr: 0x3A1F8, symSize: 0x3C }
  - { offset: 0x62C85, size: 0x8, addend: 0x0, symName: __RNvYNtNtCsfQFyxU9Vz2T_11yoke_derive7visitor11TypeVisitorNtNtNtCsc29TF2YcYso_3syn3gen5visit5Visit18visit_expr_closureB6_, symObjAddr: 0x9C5C, symBinAddr: 0x3A234, symSize: 0x3C }
  - { offset: 0x62CC4, size: 0x8, addend: 0x0, symName: __RNvYNtNtCsfQFyxU9Vz2T_11yoke_derive7visitor11TypeVisitorNtNtNtCsc29TF2YcYso_3syn3gen5visit5Visit18visit_fields_namedB6_, symObjAddr: 0x9C98, symBinAddr: 0x3A270, symSize: 0x3C }
  - { offset: 0x62D06, size: 0x8, addend: 0x0, symName: __RNvYNtNtCsfQFyxU9Vz2T_11yoke_derive7visitor11TypeVisitorNtNtNtCsc29TF2YcYso_3syn3gen5visit5Visit18visit_foreign_itemB6_, symObjAddr: 0x9CD4, symBinAddr: 0x3A2AC, symSize: 0x3C }
  - { offset: 0x62D48, size: 0x8, addend: 0x0, symName: __RNvYNtNtCsfQFyxU9Vz2T_11yoke_derive7visitor11TypeVisitorNtNtNtCsc29TF2YcYso_3syn3gen5visit5Visit18visit_impl_item_fnB6_, symObjAddr: 0x9D10, symBinAddr: 0x3A2E8, symSize: 0x3C }
  - { offset: 0x62D8A, size: 0x8, addend: 0x0, symName: __RNvYNtNtCsfQFyxU9Vz2T_11yoke_derive7visitor11TypeVisitorNtNtNtCsc29TF2YcYso_3syn3gen5visit5Visit18visit_lit_byte_strB6_, symObjAddr: 0x9D4C, symBinAddr: 0x3A324, symSize: 0x3C }
  - { offset: 0x62DCC, size: 0x8, addend: 0x0, symName: __RNvYNtNtCsfQFyxU9Vz2T_11yoke_derive7visitor11TypeVisitorNtNtNtCsc29TF2YcYso_3syn3gen5visit5Visit18visit_path_segmentB6_, symObjAddr: 0x9D88, symBinAddr: 0x3A360, symSize: 0x3C }
  - { offset: 0x62E0E, size: 0x8, addend: 0x0, symName: __RNvYNtNtCsfQFyxU9Vz2T_11yoke_derive7visitor11TypeVisitorNtNtNtCsc29TF2YcYso_3syn3gen5visit5Visit18visit_range_limitsB6_, symObjAddr: 0x9DC4, symBinAddr: 0x3A39C, symSize: 0x3C }
  - { offset: 0x62E50, size: 0x8, addend: 0x0, symName: __RNvYNtNtCsfQFyxU9Vz2T_11yoke_derive7visitor11TypeVisitorNtNtNtCsc29TF2YcYso_3syn3gen5visit5Visit18visit_token_streamB6_, symObjAddr: 0x9E00, symBinAddr: 0x3A3D8, symSize: 0x24 }
  - { offset: 0x62E92, size: 0x8, addend: 0x0, symName: __RNvYNtNtCsfQFyxU9Vz2T_11yoke_derive7visitor11TypeVisitorNtNtNtCsc29TF2YcYso_3syn3gen5visit5Visit18visit_type_bare_fnB6_, symObjAddr: 0x9E24, symBinAddr: 0x3A3FC, symSize: 0x3C }
  - { offset: 0x62ED4, size: 0x8, addend: 0x0, symName: __RNvYNtNtCsfQFyxU9Vz2T_11yoke_derive7visitor11TypeVisitorNtNtNtCsc29TF2YcYso_3syn3gen5visit5Visit18visit_where_clauseB6_, symObjAddr: 0x9E60, symBinAddr: 0x3A438, symSize: 0x3C }
  - { offset: 0x62F16, size: 0x8, addend: 0x0, symName: __RNvYNtNtCsfQFyxU9Vz2T_11yoke_derive7visitor11TypeVisitorNtNtNtCsc29TF2YcYso_3syn3gen5visit5Visit19visit_bare_variadicB6_, symObjAddr: 0x9E9C, symBinAddr: 0x3A474, symSize: 0x3C }
  - { offset: 0x62F55, size: 0x8, addend: 0x0, symName: __RNvYNtNtCsfQFyxU9Vz2T_11yoke_derive7visitor11TypeVisitorNtNtNtCsc29TF2YcYso_3syn3gen5visit5Visit19visit_expr_continueB6_, symObjAddr: 0x9ED8, symBinAddr: 0x3A4B0, symSize: 0x3C }
  - { offset: 0x62F94, size: 0x8, addend: 0x0, symName: __RNvYNtNtCsfQFyxU9Vz2T_11yoke_derive7visitor11TypeVisitorNtNtNtCsc29TF2YcYso_3syn3gen5visit5Visit19visit_expr_for_loopB6_, symObjAddr: 0x9F14, symBinAddr: 0x3A4EC, symSize: 0x3C }
  - { offset: 0x62FD3, size: 0x8, addend: 0x0, symName: __RNvYNtNtCsfQFyxU9Vz2T_11yoke_derive7visitor11TypeVisitorNtNtNtCsc29TF2YcYso_3syn3gen5visit5Visit19visit_expr_raw_addrB6_, symObjAddr: 0x9F50, symBinAddr: 0x3A528, symSize: 0x3C }
  - { offset: 0x63015, size: 0x8, addend: 0x0, symName: __RNvYNtNtCsfQFyxU9Vz2T_11yoke_derive7visitor11TypeVisitorNtNtNtCsc29TF2YcYso_3syn3gen5visit5Visit19visit_generic_paramB6_, symObjAddr: 0x9F8C, symBinAddr: 0x3A564, symSize: 0x3C }
  - { offset: 0x63057, size: 0x8, addend: 0x0, symName: __RNvYNtNtCsfQFyxU9Vz2T_11yoke_derive7visitor11TypeVisitorNtNtNtCsc29TF2YcYso_3syn3gen5visit5Visit19visit_pat_referenceB6_, symObjAddr: 0x9FC8, symBinAddr: 0x3A5A0, symSize: 0x3C }
  - { offset: 0x63099, size: 0x8, addend: 0x0, symName: __RNvYNtNtCsfQFyxU9Vz2T_11yoke_derive7visitor11TypeVisitorNtNtNtCsc29TF2YcYso_3syn3gen5visit5Visit19visit_trait_item_fnB6_, symObjAddr: 0xA004, symBinAddr: 0x3A5DC, symSize: 0x3C }
  - { offset: 0x630DB, size: 0x8, addend: 0x0, symName: __RNvYNtNtCsfQFyxU9Vz2T_11yoke_derive7visitor11TypeVisitorNtNtNtCsc29TF2YcYso_3syn3gen5visit5Visit20visit_captured_paramB6_, symObjAddr: 0xA040, symBinAddr: 0x3A618, symSize: 0x3C }
  - { offset: 0x6311A, size: 0x8, addend: 0x0, symName: __RNvYNtNtCsfQFyxU9Vz2T_11yoke_derive7visitor11TypeVisitorNtNtNtCsc29TF2YcYso_3syn3gen5visit5Visit20visit_expr_referenceB6_, symObjAddr: 0xA07C, symBinAddr: 0x3A654, symSize: 0x3C }
  - { offset: 0x6315C, size: 0x8, addend: 0x0, symName: __RNvYNtNtCsfQFyxU9Vz2T_11yoke_derive7visitor11TypeVisitorNtNtNtCsc29TF2YcYso_3syn3gen5visit5Visit20visit_expr_try_blockB6_, symObjAddr: 0xA0B8, symBinAddr: 0x3A690, symSize: 0x3C }
  - { offset: 0x6319E, size: 0x8, addend: 0x0, symName: __RNvYNtNtCsfQFyxU9Vz2T_11yoke_derive7visitor11TypeVisitorNtNtNtCsc29TF2YcYso_3syn3gen5visit5Visit20visit_fields_unnamedB6_, symObjAddr: 0xA0F4, symBinAddr: 0x3A6CC, symSize: 0x3C }
  - { offset: 0x631E0, size: 0x8, addend: 0x0, symName: __RNvYNtNtCsfQFyxU9Vz2T_11yoke_derive7visitor11TypeVisitorNtNtNtCsc29TF2YcYso_3syn3gen5visit5Visit20visit_impl_item_typeB6_, symObjAddr: 0xA130, symBinAddr: 0x3A708, symSize: 0x3C }
  - { offset: 0x63222, size: 0x8, addend: 0x0, symName: __RNvYNtNtCsfQFyxU9Vz2T_11yoke_derive7visitor11TypeVisitorNtNtNtCsc29TF2YcYso_3syn3gen5visit5Visit20visit_lifetime_paramB6_, symObjAddr: 0xA16C, symBinAddr: 0x3A744, symSize: 0x3C }
  - { offset: 0x63264, size: 0x8, addend: 0x0, symName: __RNvYNtNtCsfQFyxU9Vz2T_11yoke_derive7visitor11TypeVisitorNtNtNtCsc29TF2YcYso_3syn3gen5visit5Visit20visit_path_argumentsB6_, symObjAddr: 0xA1A8, symBinAddr: 0x3A780, symSize: 0x3C }
  - { offset: 0x632A6, size: 0x8, addend: 0x0, symName: __RNvYNtNtCsfQFyxU9Vz2T_11yoke_derive7visitor11TypeVisitorNtNtNtCsc29TF2YcYso_3syn3gen5visit5Visit20visit_predicate_typeB6_, symObjAddr: 0xA1E4, symBinAddr: 0x3A7BC, symSize: 0x3C }
  - { offset: 0x632E8, size: 0x8, addend: 0x0, symName: __RNvYNtNtCsfQFyxU9Vz2T_11yoke_derive7visitor11TypeVisitorNtNtNtCsc29TF2YcYso_3syn3gen5visit5Visit20visit_type_referenceB6_, symObjAddr: 0xA220, symBinAddr: 0x3A7F8, symSize: 0x3C }
  - { offset: 0x6332A, size: 0x8, addend: 0x0, symName: __RNvYNtNtCsfQFyxU9Vz2T_11yoke_derive7visitor11TypeVisitorNtNtNtCsc29TF2YcYso_3syn3gen5visit5Visit20visit_vis_restrictedB6_, symObjAddr: 0xA25C, symBinAddr: 0x3A834, symSize: 0x3C }
  - { offset: 0x6336C, size: 0x8, addend: 0x0, symName: __RNvYNtNtCsfQFyxU9Vz2T_11yoke_derive7visitor11TypeVisitorNtNtNtCsc29TF2YcYso_3syn3gen5visit5Visit21visit_bound_lifetimesB6_, symObjAddr: 0xA298, symBinAddr: 0x3A870, symSize: 0x3C }
  - { offset: 0x633AB, size: 0x8, addend: 0x0, symName: __RNvYNtNtCsfQFyxU9Vz2T_11yoke_derive7visitor11TypeVisitorNtNtNtCsc29TF2YcYso_3syn3gen5visit5Visit21visit_foreign_item_fnB6_, symObjAddr: 0xA2D4, symBinAddr: 0x3A8AC, symSize: 0x3C }
  - { offset: 0x633ED, size: 0x8, addend: 0x0, symName: __RNvYNtNtCsfQFyxU9Vz2T_11yoke_derive7visitor11TypeVisitorNtNtNtCsc29TF2YcYso_3syn3gen5visit5Visit21visit_impl_item_constB6_, symObjAddr: 0xA310, symBinAddr: 0x3A8E8, symSize: 0x3C }
  - { offset: 0x6342F, size: 0x8, addend: 0x0, symName: __RNvYNtNtCsfQFyxU9Vz2T_11yoke_derive7visitor11TypeVisitorNtNtNtCsc29TF2YcYso_3syn3gen5visit5Visit21visit_impl_item_macroB6_, symObjAddr: 0xA34C, symBinAddr: 0x3A924, symSize: 0x3C }
  - { offset: 0x63471, size: 0x8, addend: 0x0, symName: __RNvYNtNtCsfQFyxU9Vz2T_11yoke_derive7visitor11TypeVisitorNtNtNtCsc29TF2YcYso_3syn3gen5visit5Visit21visit_macro_delimiterB6_, symObjAddr: 0xA388, symBinAddr: 0x3A960, symSize: 0x3C }
  - { offset: 0x634B3, size: 0x8, addend: 0x0, symName: __RNvYNtNtCsfQFyxU9Vz2T_11yoke_derive7visitor11TypeVisitorNtNtNtCsc29TF2YcYso_3syn3gen5visit5Visit21visit_meta_name_valueB6_, symObjAddr: 0xA3C4, symBinAddr: 0x3A99C, symSize: 0x3C }
  - { offset: 0x634F5, size: 0x8, addend: 0x0, symName: __RNvYNtNtCsfQFyxU9Vz2T_11yoke_derive7visitor11TypeVisitorNtNtNtCsc29TF2YcYso_3syn3gen5visit5Visit21visit_precise_captureB6_, symObjAddr: 0xA400, symBinAddr: 0x3A9D8, symSize: 0x3C }
  - { offset: 0x63537, size: 0x8, addend: 0x0, symName: __RNvYNtNtCsfQFyxU9Vz2T_11yoke_derive7visitor11TypeVisitorNtNtNtCsc29TF2YcYso_3syn3gen5visit5Visit21visit_trait_item_typeB6_, symObjAddr: 0xA43C, symBinAddr: 0x3AA14, symSize: 0x3C }
  - { offset: 0x63579, size: 0x8, addend: 0x0, symName: __RNvYNtNtCsfQFyxU9Vz2T_11yoke_derive7visitor11TypeVisitorNtNtNtCsc29TF2YcYso_3syn3gen5visit5Visit21visit_type_impl_traitB6_, symObjAddr: 0xA478, symBinAddr: 0x3AA50, symSize: 0x3C }
  - { offset: 0x635BB, size: 0x8, addend: 0x0, symName: __RNvYNtNtCsfQFyxU9Vz2T_11yoke_derive7visitor11TypeVisitorNtNtNtCsc29TF2YcYso_3syn3gen5visit5Visit21visit_where_predicateB6_, symObjAddr: 0xA4B4, symBinAddr: 0x3AA8C, symSize: 0x3C }
  - { offset: 0x635FD, size: 0x8, addend: 0x0, symName: __RNvYNtNtCsfQFyxU9Vz2T_11yoke_derive7visitor11TypeVisitorNtNtNtCsc29TF2YcYso_3syn3gen5visit5Visit22visit_expr_method_callB6_, symObjAddr: 0xA4F0, symBinAddr: 0x3AAC8, symSize: 0x3C }
  - { offset: 0x6363C, size: 0x8, addend: 0x0, symName: __RNvYNtNtCsfQFyxU9Vz2T_11yoke_derive7visitor11TypeVisitorNtNtNtCsc29TF2YcYso_3syn3gen5visit5Visit22visit_field_mutabilityB6_, symObjAddr: 0xA52C, symBinAddr: 0x3AB04, symSize: 0x3C }
  - { offset: 0x6367E, size: 0x8, addend: 0x0, symName: __RNvYNtNtCsfQFyxU9Vz2T_11yoke_derive7visitor11TypeVisitorNtNtNtCsc29TF2YcYso_3syn3gen5visit5Visit22visit_generic_argumentB6_, symObjAddr: 0xA568, symBinAddr: 0x3AB40, symSize: 0x3C }
  - { offset: 0x636C0, size: 0x8, addend: 0x0, symName: __RNvYNtNtCsfQFyxU9Vz2T_11yoke_derive7visitor11TypeVisitorNtNtNtCsc29TF2YcYso_3syn3gen5visit5Visit22visit_item_foreign_modB6_, symObjAddr: 0xA5A4, symBinAddr: 0x3AB7C, symSize: 0x3C }
  - { offset: 0x63702, size: 0x8, addend: 0x0, symName: __RNvYNtNtCsfQFyxU9Vz2T_11yoke_derive7visitor11TypeVisitorNtNtNtCsc29TF2YcYso_3syn3gen5visit5Visit22visit_item_trait_aliasB6_, symObjAddr: 0xA5E0, symBinAddr: 0x3ABB8, symSize: 0x3C }
  - { offset: 0x63744, size: 0x8, addend: 0x0, symName: __RNvYNtNtCsfQFyxU9Vz2T_11yoke_derive7visitor11TypeVisitorNtNtNtCsc29TF2YcYso_3syn3gen5visit5Visit22visit_pat_tuple_structB6_, symObjAddr: 0xA61C, symBinAddr: 0x3ABF4, symSize: 0x3C }
  - { offset: 0x63786, size: 0x8, addend: 0x0, symName: __RNvYNtNtCsfQFyxU9Vz2T_11yoke_derive7visitor11TypeVisitorNtNtNtCsc29TF2YcYso_3syn3gen5visit5Visit22visit_trait_item_constB6_, symObjAddr: 0xA658, symBinAddr: 0x3AC30, symSize: 0x3C }
  - { offset: 0x637C8, size: 0x8, addend: 0x0, symName: __RNvYNtNtCsfQFyxU9Vz2T_11yoke_derive7visitor11TypeVisitorNtNtNtCsc29TF2YcYso_3syn3gen5visit5Visit22visit_trait_item_macroB6_, symObjAddr: 0xA694, symBinAddr: 0x3AC6C, symSize: 0x3C }
  - { offset: 0x6380A, size: 0x8, addend: 0x0, symName: __RNvYNtNtCsfQFyxU9Vz2T_11yoke_derive7visitor11TypeVisitorNtNtNtCsc29TF2YcYso_3syn3gen5visit5Visit22visit_type_param_boundB6_, symObjAddr: 0xA6D0, symBinAddr: 0x3ACA8, symSize: 0x3C }
  - { offset: 0x6384C, size: 0x8, addend: 0x0, symName: __RNvYNtNtCsfQFyxU9Vz2T_11yoke_derive7visitor11TypeVisitorNtNtNtCsc29TF2YcYso_3syn3gen5visit5Visit23visit_foreign_item_typeB6_, symObjAddr: 0xA70C, symBinAddr: 0x3ACE4, symSize: 0x3C }
  - { offset: 0x6388E, size: 0x8, addend: 0x0, symName: __RNvYNtNtCsfQFyxU9Vz2T_11yoke_derive7visitor11TypeVisitorNtNtNtCsc29TF2YcYso_3syn3gen5visit5Visit23visit_item_extern_crateB6_, symObjAddr: 0xA748, symBinAddr: 0x3AD20, symSize: 0x3C }
  - { offset: 0x638D0, size: 0x8, addend: 0x0, symName: __RNvYNtNtCsfQFyxU9Vz2T_11yoke_derive7visitor11TypeVisitorNtNtNtCsc29TF2YcYso_3syn3gen5visit5Visit23visit_static_mutabilityB6_, symObjAddr: 0xA784, symBinAddr: 0x3AD5C, symSize: 0x3C }
  - { offset: 0x63912, size: 0x8, addend: 0x0, symName: __RNvYNtNtCsfQFyxU9Vz2T_11yoke_derive7visitor11TypeVisitorNtNtNtCsc29TF2YcYso_3syn3gen5visit5Visit23visit_type_trait_objectB6_, symObjAddr: 0xA7C0, symBinAddr: 0x3AD98, symSize: 0x3C }
  - { offset: 0x63954, size: 0x8, addend: 0x0, symName: __RNvYNtNtCsfQFyxU9Vz2T_11yoke_derive7visitor11TypeVisitorNtNtNtCsc29TF2YcYso_3syn3gen5visit5Visit24visit_foreign_item_macroB6_, symObjAddr: 0xA7FC, symBinAddr: 0x3ADD4, symSize: 0x3C }
  - { offset: 0x63996, size: 0x8, addend: 0x0, symName: __RNvYNtNtCsfQFyxU9Vz2T_11yoke_derive7visitor11TypeVisitorNtNtNtCsc29TF2YcYso_3syn3gen5visit5Visit24visit_pointer_mutabilityB6_, symObjAddr: 0xA838, symBinAddr: 0x3AE10, symSize: 0x3C }
  - { offset: 0x639D8, size: 0x8, addend: 0x0, symName: __RNvYNtNtCsfQFyxU9Vz2T_11yoke_derive7visitor11TypeVisitorNtNtNtCsc29TF2YcYso_3syn3gen5visit5Visit24visit_predicate_lifetimeB6_, symObjAddr: 0xA874, symBinAddr: 0x3AE4C, symSize: 0x3C }
  - { offset: 0x63A1A, size: 0x8, addend: 0x0, symName: __RNvYNtNtCsfQFyxU9Vz2T_11yoke_derive7visitor11TypeVisitorNtNtNtCsc29TF2YcYso_3syn3gen5visit5Visit25visit_foreign_item_staticB6_, symObjAddr: 0xA8B0, symBinAddr: 0x3AE88, symSize: 0x3C }
  - { offset: 0x63A5C, size: 0x8, addend: 0x0, symName: __RNvYNtNtCsfQFyxU9Vz2T_11yoke_derive7visitor11TypeVisitorNtNtNtCsc29TF2YcYso_3syn3gen5visit5Visit26visit_trait_bound_modifierB6_, symObjAddr: 0xA8EC, symBinAddr: 0x3AEC4, symSize: 0x3C }
  - { offset: 0x63A9E, size: 0x8, addend: 0x0, symName: __RNvYNtNtCsfQFyxU9Vz2T_11yoke_derive7visitor11TypeVisitorNtNtNtCsc29TF2YcYso_3syn3gen5visit5Visit37visit_parenthesized_generic_argumentsB6_, symObjAddr: 0xA928, symBinAddr: 0x3AF00, symSize: 0x3C }
  - { offset: 0x63AE0, size: 0x8, addend: 0x0, symName: __RNvYNtNtCsfQFyxU9Vz2T_11yoke_derive7visitor11TypeVisitorNtNtNtCsc29TF2YcYso_3syn3gen5visit5Visit39visit_angle_bracketed_generic_argumentsB6_, symObjAddr: 0xA964, symBinAddr: 0x3AF3C, symSize: 0x3C }
  - { offset: 0x63B1F, size: 0x8, addend: 0x0, symName: __RNvYNtNtCsfQFyxU9Vz2T_11yoke_derive7visitor11TypeVisitorNtNtNtCsc29TF2YcYso_3syn3gen5visit5Visit9visit_abiB6_, symObjAddr: 0xA9A0, symBinAddr: 0x3AF78, symSize: 0x3C }
  - { offset: 0x63B5E, size: 0x8, addend: 0x0, symName: __RNvYNtNtCsfQFyxU9Vz2T_11yoke_derive7visitor11TypeVisitorNtNtNtCsc29TF2YcYso_3syn3gen5visit5Visit9visit_armB6_, symObjAddr: 0xA9DC, symBinAddr: 0x3AFB4, symSize: 0x3C }
  - { offset: 0x63B9D, size: 0x8, addend: 0x0, symName: __RNvYNtNtCsfQFyxU9Vz2T_11yoke_derive7visitor11TypeVisitorNtNtNtCsc29TF2YcYso_3syn3gen5visit5Visit9visit_litB6_, symObjAddr: 0xAA18, symBinAddr: 0x3AFF0, symSize: 0x3C }
  - { offset: 0x63BDF, size: 0x8, addend: 0x0, symName: __RNvYNtNtCsfQFyxU9Vz2T_11yoke_derive7visitor11TypeVisitorNtNtNtCsc29TF2YcYso_3syn3gen5visit5Visit9visit_patB6_, symObjAddr: 0xAA54, symBinAddr: 0x3B02C, symSize: 0x3C }
  - { offset: 0x648FB, size: 0x8, addend: 0x0, symName: __RNvNvMNtNtCsaNl6UpbT7bw_4core3ptr9const_ptrPp20offset_from_unsigned18precondition_checkCsfQFyxU9Vz2T_11yoke_derive, symObjAddr: 0x6AB0, symBinAddr: 0x37088, symSize: 0xAC }
  - { offset: 0x64B86, size: 0x8, addend: 0x0, symName: __RNvNvNtCsaNl6UpbT7bw_4core3ptr19copy_nonoverlapping18precondition_checkCsfQFyxU9Vz2T_11yoke_derive, symObjAddr: 0x6B5C, symBinAddr: 0x37134, symSize: 0x36C }
  - { offset: 0x671E5, size: 0x8, addend: 0x0, symName: __RINvXs2V_NtNtCsaNl6UpbT7bw_4core5slice4iterINtB7_4IterNtCshnvkK9b4wzu_11proc_macro25IdentENtNtNtNtBb_4iter6traits8iterator8Iterator4folduNCINvNtNtB1w_8adapters3map8map_foldRBQ_BQ_uNvYBQ_NtNtBb_5clone5Clone5cloneNCIB2e_BQ_TBQ_uEuNCINvXs8_NtCsg4dki62PTrg_9hashbrown3setINtB3N_7HashSetBQ_NtNtNtCsht3nMU9UgFu_3std4hash6random11RandomStateEINtNtB1u_7collect6ExtendBQ_E6extendINtNtB2i_6cloned6ClonedBF_EE0NCINvNvB1q_8for_each4callB3x_NCINvXs1i_NtB3P_3mapINtB72_7HashMapBQ_uB4z_EIB5o_B3x_E6extendINtB2g_3MapB5W_B3E_EE0E0E0E0ECsfQFyxU9Vz2T_11yoke_derive, symObjAddr: 0x48D8, symBinAddr: 0x34EB4, symSize: 0x194 }
  - { offset: 0x67339, size: 0x8, addend: 0x0, symName: __RINvXs2V_NtNtCsaNl6UpbT7bw_4core5slice4iterINtB7_4IterNtCshnvkK9b4wzu_11proc_macro25IdentENtNtNtNtBb_4iter6traits8iterator8Iterator4folduNCINvNtNtB1w_8adapters3map8map_foldRBQ_NtNtCsc29TF2YcYso_3syn8generics14WherePredicateuNCNvCsfQFyxU9Vz2T_11yoke_derive20yokeable_derive_impls0_0NCINvNvB1q_8for_each4callB2O_NCINvMsi_NtCsiTraAjBDcu4_5alloc3vecINtB57_3VecB2O_E14extend_trustedINtB2g_3MapBF_B3A_EE0E0E0EB3E_, symObjAddr: 0x4A6C, symBinAddr: 0x35048, symSize: 0x1C0 }
  - { offset: 0x6748E, size: 0x8, addend: 0x0, symName: __RINvXs2V_NtNtCsaNl6UpbT7bw_4core5slice4iterINtB7_4IterNtCshnvkK9b4wzu_11proc_macro25IdentENtNtNtNtBb_4iter6traits8iterator8Iterator4folduNCINvNtNtB1w_8adapters3map8map_foldRBQ_NtNtCsc29TF2YcYso_3syn8generics14WherePredicateuNCNvCsfQFyxU9Vz2T_11yoke_derive20yokeable_derive_impls2_0NCINvNvB1q_8for_each4callB2O_NCINvMsi_NtCsiTraAjBDcu4_5alloc3vecINtB57_3VecB2O_E14extend_trustedINtB2g_3MapBF_B3A_EE0E0E0EB3E_, symObjAddr: 0x4C2C, symBinAddr: 0x35208, symSize: 0x1C0 }
  - { offset: 0x675E3, size: 0x8, addend: 0x0, symName: __RINvXs2V_NtNtCsaNl6UpbT7bw_4core5slice4iterINtB7_4IterNtNtCsc29TF2YcYso_3syn4attr9AttributeENtNtNtNtBb_4iter6traits8iterator8Iterator3anyNCNvCsfQFyxU9Vz2T_11yoke_derive20yokeable_derive_impls1_0EB2f_, symObjAddr: 0x4DEC, symBinAddr: 0x353C8, symSize: 0xAC }
  - { offset: 0x67648, size: 0x8, addend: 0x0, symName: __RINvXs2V_NtNtCsaNl6UpbT7bw_4core5slice4iterINtB7_4IterNtNtCsc29TF2YcYso_3syn8generics9TypeParamENtNtNtNtBb_4iter6traits8iterator8Iterator4folduNCINvNtNtB1C_8adapters3map8map_foldRBQ_NtCshnvkK9b4wzu_11proc_macro25IdentuNCNvCsfQFyxU9Vz2T_11yoke_derive20yokeable_derive_impls_0NCINvNvB1w_8for_each4callB2U_NCINvMsi_NtCsiTraAjBDcu4_5alloc3vecINtB50_3VecB2U_E14extend_trustedINtB2m_3MapBF_B3u_EE0E0E0EB3y_, symObjAddr: 0x4E98, symBinAddr: 0x35474, symSize: 0x1C0 }
  - { offset: 0x6779D, size: 0x8, addend: 0x0, symName: __RNvXs2V_NtNtCsaNl6UpbT7bw_4core5slice4iterINtB6_4IterNtCshnvkK9b4wzu_11proc_macro25IdentENtNtNtNtBa_4iter6traits8iterator8Iterator4nextCsfQFyxU9Vz2T_11yoke_derive, symObjAddr: 0x7438, symBinAddr: 0x37A10, symSize: 0xB0 }
  - { offset: 0x678D7, size: 0x8, addend: 0x0, symName: __RNvXs2V_NtNtCsaNl6UpbT7bw_4core5slice4iterINtB6_4IterNtCshnvkK9b4wzu_11proc_macro25IdentENtNtNtNtBa_4iter6traits8iterator8Iterator9size_hintCsfQFyxU9Vz2T_11yoke_derive, symObjAddr: 0x74E8, symBinAddr: 0x37AC0, symSize: 0x70 }
  - { offset: 0x67946, size: 0x8, addend: 0x0, symName: __RNvXs2V_NtNtCsaNl6UpbT7bw_4core5slice4iterINtB6_4IterNtNtCsc29TF2YcYso_3syn8generics9TypeParamENtNtNtNtBa_4iter6traits8iterator8Iterator4nextCsfQFyxU9Vz2T_11yoke_derive, symObjAddr: 0x7558, symBinAddr: 0x37B30, symSize: 0xB0 }
  - { offset: 0x67A80, size: 0x8, addend: 0x0, symName: __RNvXs2V_NtNtCsaNl6UpbT7bw_4core5slice4iterINtB6_4IterNtNtCsc29TF2YcYso_3syn8generics9TypeParamENtNtNtNtBa_4iter6traits8iterator8Iterator9size_hintCsfQFyxU9Vz2T_11yoke_derive, symObjAddr: 0x7608, symBinAddr: 0x37BE0, symSize: 0x70 }
  - { offset: 0x67B9D, size: 0x8, addend: 0x0, symName: __RNvXs33_NtNtCsaNl6UpbT7bw_4core5slice4iterINtB6_7IterMutNtCs3Xr6wkqZdQw_12synstructure11BindingInfoENtNtNtNtBa_4iter6traits8iterator8Iterator4nextCsfQFyxU9Vz2T_11yoke_derive, symObjAddr: 0x76A4, symBinAddr: 0x37C7C, symSize: 0xB0 }
  - { offset: 0x67CC2, size: 0x8, addend: 0x0, symName: __RNvXs33_NtNtCsaNl6UpbT7bw_4core5slice4iterINtB6_7IterMutNtCs3Xr6wkqZdQw_12synstructure11VariantInfoENtNtNtNtBa_4iter6traits8iterator8Iterator4nextCsfQFyxU9Vz2T_11yoke_derive, symObjAddr: 0x7754, symBinAddr: 0x37D2C, symSize: 0xB0 }
  - { offset: 0x67F4A, size: 0x8, addend: 0x0, symName: __RNvMNtCsaNl6UpbT7bw_4core5sliceSh15copy_from_sliceCsfQFyxU9Vz2T_11yoke_derive, symObjAddr: 0x680C, symBinAddr: 0x36DE8, symSize: 0xAC }
  - { offset: 0x67FF9, size: 0x8, addend: 0x0, symName: __RNvNvNtNtCsaNl6UpbT7bw_4core5slice3raw14from_raw_parts18precondition_checkCsfQFyxU9Vz2T_11yoke_derive, symObjAddr: 0x6FA0, symBinAddr: 0x37578, symSize: 0x1DC }
  - { offset: 0x6817D, size: 0x8, addend: 0x0, symName: __RNvNvNtNtCsaNl6UpbT7bw_4core5slice3raw18from_raw_parts_mut18precondition_checkCsfQFyxU9Vz2T_11yoke_derive, symObjAddr: 0x717C, symBinAddr: 0x37754, symSize: 0x1DC }
  - { offset: 0x68514, size: 0x8, addend: 0x0, symName: __RINvXs_NtNtNtCsaNl6UpbT7bw_4core4iter8adapters6clonedINtB5_6ClonedINtNtNtBb_5slice4iter4IterNtCshnvkK9b4wzu_11proc_macro25IdentEENtNtNtB9_6traits8iterator8Iterator4folduNCINvNtB7_3map8map_foldB1s_TB1s_uEuNCINvXs8_NtCsg4dki62PTrg_9hashbrown3setINtB3p_7HashSetB1s_NtNtNtCsht3nMU9UgFu_3std4hash6random11RandomStateEINtNtB27_7collect6ExtendB1s_E6extendBP_E0NCINvNvB23_8for_each4callB38_NCINvXs1i_NtB3r_3mapINtB6i_7HashMapB1s_uB4c_EIB51_B38_E6extendINtB2M_3MapBP_B3g_EE0E0E0ECsfQFyxU9Vz2T_11yoke_derive, symObjAddr: 0x5058, symBinAddr: 0x35634, symSize: 0xB8 }
  - { offset: 0x685A9, size: 0x8, addend: 0x0, symName: __RNvXs_NtNtNtCsaNl6UpbT7bw_4core4iter8adapters6clonedINtB4_6ClonedINtNtNtBa_5slice4iter4IterNtCshnvkK9b4wzu_11proc_macro25IdentEENtNtNtB8_6traits8iterator8Iterator9size_hintCsfQFyxU9Vz2T_11yoke_derive, symObjAddr: 0x7980, symBinAddr: 0x37F58, symSize: 0x24 }
  - { offset: 0x6869F, size: 0x8, addend: 0x0, symName: __RINvYINtNtNtCsaNl6UpbT7bw_4core5slice4iter4IterNtCshnvkK9b4wzu_11proc_macro25IdentENtNtNtNtBa_4iter6traits8iterator8Iterator3mapBJ_NvYBJ_NtNtBa_5clone5Clone5cloneECsfQFyxU9Vz2T_11yoke_derive, symObjAddr: 0x5110, symBinAddr: 0x356EC, symSize: 0x1C }
  - { offset: 0x686F7, size: 0x8, addend: 0x0, symName: __RINvYINtNtNtCsaNl6UpbT7bw_4core5slice4iter4IterNtCshnvkK9b4wzu_11proc_macro25IdentENtNtNtNtBa_4iter6traits8iterator8Iterator3mapNtNtCsc29TF2YcYso_3syn8generics14WherePredicateNCNvCsfQFyxU9Vz2T_11yoke_derive20yokeable_derive_impls0_0EB2R_, symObjAddr: 0x512C, symBinAddr: 0x35708, symSize: 0x1C }
  - { offset: 0x6874F, size: 0x8, addend: 0x0, symName: __RINvYINtNtNtCsaNl6UpbT7bw_4core5slice4iter4IterNtCshnvkK9b4wzu_11proc_macro25IdentENtNtNtNtBa_4iter6traits8iterator8Iterator3mapNtNtCsc29TF2YcYso_3syn8generics14WherePredicateNCNvCsfQFyxU9Vz2T_11yoke_derive20yokeable_derive_impls2_0EB2R_, symObjAddr: 0x5148, symBinAddr: 0x35724, symSize: 0x1C }
  - { offset: 0x687A7, size: 0x8, addend: 0x0, symName: __RINvYINtNtNtCsaNl6UpbT7bw_4core5slice4iter4IterNtCshnvkK9b4wzu_11proc_macro25IdentENtNtNtNtBa_4iter6traits8iterator8Iterator6clonedBJ_ECsfQFyxU9Vz2T_11yoke_derive, symObjAddr: 0x5164, symBinAddr: 0x35740, symSize: 0x1C }
  - { offset: 0x687E7, size: 0x8, addend: 0x0, symName: __RINvYINtNtNtCsaNl6UpbT7bw_4core5slice4iter4IterNtNtCsc29TF2YcYso_3syn8generics9TypeParamENtNtNtNtBa_4iter6traits8iterator8Iterator3mapNtCshnvkK9b4wzu_11proc_macro25IdentNCNvCsfQFyxU9Vz2T_11yoke_derive20yokeable_derive_impls_0EB2L_, symObjAddr: 0x5180, symBinAddr: 0x3575C, symSize: 0x1C }
  - { offset: 0x6883F, size: 0x8, addend: 0x0, symName: __RINvYINtNtNtNtCsaNl6UpbT7bw_4core4iter8adapters6cloned6ClonedINtNtNtBc_5slice4iter4IterNtCshnvkK9b4wzu_11proc_macro25IdentEENtNtNtBa_6traits8iterator8Iterator3mapTB1n_uENCINvXs8_NtCsg4dki62PTrg_9hashbrown3setINtB2Q_7HashSetB1n_NtNtNtCsht3nMU9UgFu_3std4hash6random11RandomStateEINtNtB22_7collect6ExtendB1n_E6extendB3_E0ECsfQFyxU9Vz2T_11yoke_derive, symObjAddr: 0x519C, symBinAddr: 0x35778, symSize: 0x1C }
  - { offset: 0x68897, size: 0x8, addend: 0x0, symName: __RINvYINtNtNtNtCsaNl6UpbT7bw_4core4iter8adapters6cloned6ClonedINtNtNtBc_5slice4iter4IterNtCshnvkK9b4wzu_11proc_macro25IdentEENtNtNtBa_6traits8iterator8Iterator7collectINtNtNtNtCsht3nMU9UgFu_3std11collections4hash3set7HashSetB1n_EECsfQFyxU9Vz2T_11yoke_derive, symObjAddr: 0x51B8, symBinAddr: 0x35794, symSize: 0x58 }
  - { offset: 0x68938, size: 0x8, addend: 0x0, symName: __RNvXNtNtNtCsaNl6UpbT7bw_4core4iter6traits7collectINtNtNtB6_8adapters6cloned6ClonedINtNtNtB8_5slice4iter4IterNtCshnvkK9b4wzu_11proc_macro25IdentEENtB2_12IntoIterator9into_iterCsfQFyxU9Vz2T_11yoke_derive, symObjAddr: 0x7358, symBinAddr: 0x37930, symSize: 0x1C }
  - { offset: 0x6896F, size: 0x8, addend: 0x0, symName: __RNvXNtNtNtCsaNl6UpbT7bw_4core4iter6traits7collectINtNtNtB6_8adapters9enumerate9EnumerateINtNtCsc29TF2YcYso_3syn10punctuated4IterNtNtB1t_4data5FieldEENtB2_12IntoIterator9into_iterCsfQFyxU9Vz2T_11yoke_derive, symObjAddr: 0x7374, symBinAddr: 0x3794C, symSize: 0x18 }
  - { offset: 0x68BA5, size: 0x8, addend: 0x0, symName: __RINvYNtNtNtCsht3nMU9UgFu_3std4hash6random11RandomStateNtNtCsaNl6UpbT7bw_4core4hash11BuildHasher8hash_oneRNtCshnvkK9b4wzu_11proc_macro25IdentECsfQFyxU9Vz2T_11yoke_derive, symObjAddr: 0x5210, symBinAddr: 0x357EC, symSize: 0x84 }
  - { offset: 0x68D65, size: 0x8, addend: 0x0, symName: __RNvNtNtNtNtCsaNl6UpbT7bw_4core9core_arch7aarch644neon9generated7vld1_u8CsfQFyxU9Vz2T_11yoke_derive, symObjAddr: 0x696C, symBinAddr: 0x36F44, symSize: 0x34 }
  - { offset: 0x68D93, size: 0x8, addend: 0x0, symName: __RNvNtNtNtNtCsaNl6UpbT7bw_4core9core_arch7aarch644neon9generated7vst1_u8CsfQFyxU9Vz2T_11yoke_derive, symObjAddr: 0x69A0, symBinAddr: 0x36F78, symSize: 0x40 }
  - { offset: 0x68DCD, size: 0x8, addend: 0x0, symName: __RNvNtNtNtNtCsaNl6UpbT7bw_4core9core_arch7aarch644neon9generated8vcgez_s8CsfQFyxU9Vz2T_11yoke_derive, symObjAddr: 0x69E0, symBinAddr: 0x36FB8, symSize: 0x68 }
  - { offset: 0x68E6F, size: 0x8, addend: 0x0, symName: __RNvNtNtNtNtCsaNl6UpbT7bw_4core9core_arch7aarch644neon9generated8vcltz_s8CsfQFyxU9Vz2T_11yoke_derive, symObjAddr: 0x6A48, symBinAddr: 0x37020, symSize: 0x68 }
  - { offset: 0x690C1, size: 0x8, addend: 0x0, symName: __RNvNvNtCsaNl6UpbT7bw_4core9ub_checks23maybe_is_nonoverlapping7runtimeCsfQFyxU9Vz2T_11yoke_derive, symObjAddr: 0x6EC8, symBinAddr: 0x374A0, symSize: 0xD8 }
  - { offset: 0x6A336, size: 0x8, addend: 0x0, symName: __RNvXs1_NtCsiTraAjBDcu4_5alloc7raw_vecINtB5_6RawVecNtCshnvkK9b4wzu_11proc_macro25IdentENtNtNtCsaNl6UpbT7bw_4core3ops4drop4Drop4dropCsfQFyxU9Vz2T_11yoke_derive, symObjAddr: 0x739C, symBinAddr: 0x37974, symSize: 0x34 }
  - { offset: 0x6A372, size: 0x8, addend: 0x0, symName: __RNvXs1_NtCsiTraAjBDcu4_5alloc7raw_vecINtB5_6RawVecNtNtCsc29TF2YcYso_3syn8generics14WherePredicateENtNtNtCsaNl6UpbT7bw_4core3ops4drop4Drop4dropCsfQFyxU9Vz2T_11yoke_derive, symObjAddr: 0x73D0, symBinAddr: 0x379A8, symSize: 0x34 }
  - { offset: 0x6A3AE, size: 0x8, addend: 0x0, symName: __RNvXs1_NtCsiTraAjBDcu4_5alloc7raw_vecINtB5_6RawVecNtNtCsc29TF2YcYso_3syn8generics9TypeParamENtNtNtCsaNl6UpbT7bw_4core3ops4drop4Drop4dropCsfQFyxU9Vz2T_11yoke_derive, symObjAddr: 0x7404, symBinAddr: 0x379DC, symSize: 0x34 }
  - { offset: 0x6AD17, size: 0x8, addend: 0x0, symName: __RNvXs2_NtNtCsht3nMU9UgFu_3std4hash6randomNtB5_13DefaultHasherNtNtCsaNl6UpbT7bw_4core4hash6Hasher6finishCsfQFyxU9Vz2T_11yoke_derive, symObjAddr: 0x7678, symBinAddr: 0x37C50, symSize: 0x2C }
  - { offset: 0x6AD66, size: 0x8, addend: 0x0, symName: __RNvXs3_NtNtCsht3nMU9UgFu_3std4hash6randomNtB5_11RandomStateNtNtCsaNl6UpbT7bw_4core7default7Default7defaultCsfQFyxU9Vz2T_11yoke_derive, symObjAddr: 0x7804, symBinAddr: 0x37DDC, symSize: 0x1C }
  - { offset: 0x6AD9E, size: 0x8, addend: 0x0, symName: __RNvXs_NtNtCsht3nMU9UgFu_3std4hash6randomNtB4_11RandomStateNtNtCsaNl6UpbT7bw_4core4hash11BuildHasher12build_hasherCsfQFyxU9Vz2T_11yoke_derive, symObjAddr: 0x78B4, symBinAddr: 0x37E8C, symSize: 0xCC }
  - { offset: 0x6AE4D, size: 0x8, addend: 0x0, symName: __RINvNvNtCsht3nMU9UgFu_3std9panicking12catch_unwind7do_callINtNtNtCsaNl6UpbT7bw_4core5panic11unwind_safe16AssertUnwindSafeNCINvNtNtCs7yrEGia95Wz_10proc_macro6bridge6client10run_clientNtB20_11TokenStreamINtNtB11_6option6OptionB2U_ENCNCINvMs6_B20_INtB20_6ClientNtB24_11TokenStreamB48_E7expand1NvCsfQFyxU9Vz2T_11yoke_derive15yokeable_deriveE00E0EuEB4G_, symObjAddr: 0x4818, symBinAddr: 0x34DF4, symSize: 0x50 }
  - { offset: 0x6AF15, size: 0x8, addend: 0x0, symName: __RINvNvNtCsht3nMU9UgFu_3std9panicking12catch_unwind8do_catchINtNtNtCsaNl6UpbT7bw_4core5panic11unwind_safe16AssertUnwindSafeNCINvNtNtCs7yrEGia95Wz_10proc_macro6bridge6client10run_clientNtB21_11TokenStreamINtNtB12_6option6OptionB2V_ENCNCINvMs6_B21_INtB21_6ClientNtB25_11TokenStreamB49_E7expand1NvCsfQFyxU9Vz2T_11yoke_derive15yokeable_deriveE00E0EuEB4H_, symObjAddr: 0x4868, symBinAddr: 0x34E44, symSize: 0x70 }
  - { offset: 0x6AFF5, size: 0x8, addend: 0x0, symName: __RINvMNtCsc29TF2YcYso_3syn4attrNtB3_9Attribute10parse_argsNtCshnvkK9b4wzu_11proc_macro25IdentECsfQFyxU9Vz2T_11yoke_derive, symObjAddr: 0x30, symBinAddr: 0x3060C, symSize: 0x34 }
  - { offset: 0x6B0D6, size: 0x8, addend: 0x0, symName: __RINvMNtCsc29TF2YcYso_3syn4attrNtB3_9Attribute15parse_args_withNvYNtCshnvkK9b4wzu_11proc_macro25IdentNtNtB5_5parse5Parse5parseECsfQFyxU9Vz2T_11yoke_derive, symObjAddr: 0x64, symBinAddr: 0x30640, symSize: 0x388 }
  - { offset: 0x6B232, size: 0x8, addend: 0x0, symName: __RINvMs0_NtCsc29TF2YcYso_3syn4attrNtB6_8MetaList15parse_args_withNvYNtCshnvkK9b4wzu_11proc_macro25IdentNtNtB8_5parse5Parse5parseECsfQFyxU9Vz2T_11yoke_derive, symObjAddr: 0x3EC, symBinAddr: 0x309C8, symSize: 0xF0 }
  - { offset: 0x6B385, size: 0x8, addend: 0x0, symName: __RNvXNtCsfQFyxU9Vz2T_11yoke_derive7visitorNtB2_11TypeVisitorNtNtNtCsc29TF2YcYso_3syn3gen5visit5Visit14visit_lifetime, symObjAddr: 0xAB18, symBinAddr: 0x3B0F0, symSize: 0x8C }
  - { offset: 0x6B3BB, size: 0x8, addend: 0x0, symName: __RNvXNtCsfQFyxU9Vz2T_11yoke_derive7visitorNtB2_11TypeVisitorNtNtNtCsc29TF2YcYso_3syn3gen5visit5Visit15visit_type_path, symObjAddr: 0xABA4, symBinAddr: 0x3B17C, symSize: 0xCC }
  - { offset: 0x6B407, size: 0x8, addend: 0x0, symName: __RNvNtCsfQFyxU9Vz2T_11yoke_derive7visitor25check_type_for_parameters, symObjAddr: 0xAC70, symBinAddr: 0x3B248, symSize: 0x68 }
  - { offset: 0x6B60F, size: 0x8, addend: 0x0, symName: __RINvMs1_Cs3Xr6wkqZdQw_12synstructureNtB6_11VariantInfo4eachQNCNvCsfQFyxU9Vz2T_11yoke_derive20yokeable_derive_impls5_0NtCshnvkK9b4wzu_11proc_macro211TokenStreamEB10_, symObjAddr: 0x4DC, symBinAddr: 0x30AB8, symSize: 0x250 }
  - { offset: 0x6B6F8, size: 0x8, addend: 0x0, symName: __RINvMs1_Cs3Xr6wkqZdQw_12synstructureNtB6_11VariantInfo9bind_withQNCNvCsfQFyxU9Vz2T_11yoke_derive20yokeable_derive_impls3_0EB15_, symObjAddr: 0x72C, symBinAddr: 0x30D08, symSize: 0x10C }
  - { offset: 0x6B76D, size: 0x8, addend: 0x0, symName: __RINvMs1_Cs3Xr6wkqZdQw_12synstructureNtB6_11VariantInfo9constructNCNCNvCsfQFyxU9Vz2T_11yoke_derive20yokeable_derive_impls4_00NtCshnvkK9b4wzu_11proc_macro211TokenStreamEB16_, symObjAddr: 0x838, symBinAddr: 0x30E14, symSize: 0x238 }
  - { offset: 0x6B83C, size: 0x8, addend: 0x0, symName: __RINvMs2_Cs3Xr6wkqZdQw_12synstructureNtB6_9Structure12each_variantNCNvCsfQFyxU9Vz2T_11yoke_derive20yokeable_derive_impls4_0NtCshnvkK9b4wzu_11proc_macro211TokenStreamEB15_, symObjAddr: 0xA70, symBinAddr: 0x3104C, symSize: 0x384 }
  - { offset: 0x6B938, size: 0x8, addend: 0x0, symName: __RINvMs2_Cs3Xr6wkqZdQw_12synstructureNtB6_9Structure4eachNCNvCsfQFyxU9Vz2T_11yoke_derive20yokeable_derive_impls5_0NtCshnvkK9b4wzu_11proc_macro211TokenStreamEBW_, symObjAddr: 0xDF4, symBinAddr: 0x313D0, symSize: 0x258 }
  - { offset: 0x6B9E5, size: 0x8, addend: 0x0, symName: __RINvMs2_Cs3Xr6wkqZdQw_12synstructureNtB6_9Structure9bind_withNCNvCsfQFyxU9Vz2T_11yoke_derive20yokeable_derive_impls3_0EB11_, symObjAddr: 0x104C, symBinAddr: 0x31628, symSize: 0xF0 }
  - { offset: 0x6BF65, size: 0x8, addend: 0x0, symName: __RNvMs4_NtNtCsaNl6UpbT7bw_4core5slice4iterINtB5_4IterNtCshnvkK9b4wzu_11proc_macro25IdentE3newCsfQFyxU9Vz2T_11yoke_derive, symObjAddr: 0x68B8, symBinAddr: 0x36E94, symSize: 0x58 }
  - { offset: 0x6C115, size: 0x8, addend: 0x0, symName: __RNvMs4_NtNtCsaNl6UpbT7bw_4core5slice4iterINtB5_4IterNtNtCsc29TF2YcYso_3syn8generics9TypeParamE3newCsfQFyxU9Vz2T_11yoke_derive, symObjAddr: 0x6910, symBinAddr: 0x36EEC, symSize: 0x58 }
  - { offset: 0x6D2D0, size: 0x8, addend: 0x0, symName: __RINvMsi_NtCsiTraAjBDcu4_5alloc3vecINtB6_3VecNtCshnvkK9b4wzu_11proc_macro25IdentE14extend_trustedINtNtNtNtCsaNl6UpbT7bw_4core4iter8adapters3map3MapINtNtNtB1F_5slice4iter4IterNtNtCsc29TF2YcYso_3syn8generics9TypeParamENCNvCsfQFyxU9Vz2T_11yoke_derive20yokeable_derive_impls_0EEB3v_, symObjAddr: 0x0, symBinAddr: 0x3B2B0, symSize: 0x16C }
  - { offset: 0x75456, size: 0x8, addend: 0x0, symName: __RINvXsd_NtCsiTraAjBDcu4_5alloc3vecINtB6_3VecNtCshnvkK9b4wzu_11proc_macro25IdentEINtNtNtNtCsaNl6UpbT7bw_4core4iter6traits7collect12FromIteratorBG_E9from_iterINtNtNtB1n_8adapters3map3MapINtNtNtB1p_5slice4iter4IterNtNtCsc29TF2YcYso_3syn8generics9TypeParamENCNvCsfQFyxU9Vz2T_11yoke_derive20yokeable_derive_impls_0EEB47_, symObjAddr: 0x640, symBinAddr: 0x3B8F0, symSize: 0x40 }
  - { offset: 0x75496, size: 0x8, addend: 0x0, symName: __RINvXsd_NtCsiTraAjBDcu4_5alloc3vecINtB6_3VecNtNtCsc29TF2YcYso_3syn4attr9AttributeEINtNtNtNtCsaNl6UpbT7bw_4core4iter6traits7collect12FromIteratorBG_E9from_iterINtNtNtB1p_8adapters3map3MapINtNtB6_9into_iter8IntoIterBG_ENCINvNtNtBK_3gen4fold8fold_vecBG_NtNvCsfQFyxU9Vz2T_11yoke_derive16replace_lifetime15ReplaceLifetimeNvYB40_NtB3y_4Fold14fold_attributeE0EEB44_, symObjAddr: 0x680, symBinAddr: 0x3B930, symSize: 0x3C }
  - { offset: 0x754D7, size: 0x8, addend: 0x0, symName: __RINvXsd_NtCsiTraAjBDcu4_5alloc3vecINtB6_3VecNtNtCsc29TF2YcYso_3syn4expr3ArmEINtNtNtNtCsaNl6UpbT7bw_4core4iter6traits7collect12FromIteratorBG_E9from_iterINtNtNtB1j_8adapters3map3MapINtNtB6_9into_iter8IntoIterBG_ENCINvNtNtBK_3gen4fold8fold_vecBG_NtNvCsfQFyxU9Vz2T_11yoke_derive16replace_lifetime15ReplaceLifetimeNvYB3U_NtB3s_4Fold8fold_armE0EEB3Y_, symObjAddr: 0x6BC, symBinAddr: 0x3B96C, symSize: 0x3C }
  - { offset: 0x75518, size: 0x8, addend: 0x0, symName: __RINvXsd_NtCsiTraAjBDcu4_5alloc3vecINtB6_3VecNtNtCsc29TF2YcYso_3syn4item11ForeignItemEINtNtNtNtCsaNl6UpbT7bw_4core4iter6traits7collect12FromIteratorBG_E9from_iterINtNtNtB1s_8adapters3map3MapINtNtB6_9into_iter8IntoIterBG_ENCINvNtNtBK_3gen4fold8fold_vecBG_NtNvCsfQFyxU9Vz2T_11yoke_derive16replace_lifetime15ReplaceLifetimeNvYB43_NtB3B_4Fold17fold_foreign_itemE0EEB47_, symObjAddr: 0x6F8, symBinAddr: 0x3B9A8, symSize: 0x3C }
  - { offset: 0x75559, size: 0x8, addend: 0x0, symName: __RINvXsd_NtCsiTraAjBDcu4_5alloc3vecINtB6_3VecNtNtCsc29TF2YcYso_3syn4item4ItemEINtNtNtNtCsaNl6UpbT7bw_4core4iter6traits7collect12FromIteratorBG_E9from_iterINtNtNtB1k_8adapters3map3MapINtNtB6_9into_iter8IntoIterBG_ENCINvNtNtBK_3gen4fold8fold_vecBG_NtNvCsfQFyxU9Vz2T_11yoke_derive16replace_lifetime15ReplaceLifetimeNvYB3V_NtB3t_4Fold9fold_itemE0EEB3Z_, symObjAddr: 0x734, symBinAddr: 0x3B9E4, symSize: 0x3C }
  - { offset: 0x7559A, size: 0x8, addend: 0x0, symName: __RINvXsd_NtCsiTraAjBDcu4_5alloc3vecINtB6_3VecNtNtCsc29TF2YcYso_3syn4item8ImplItemEINtNtNtNtCsaNl6UpbT7bw_4core4iter6traits7collect12FromIteratorBG_E9from_iterINtNtNtB1o_8adapters3map3MapINtNtB6_9into_iter8IntoIterBG_ENCINvNtNtBK_3gen4fold8fold_vecBG_NtNvCsfQFyxU9Vz2T_11yoke_derive16replace_lifetime15ReplaceLifetimeNvYB3Z_NtB3x_4Fold14fold_impl_itemE0EEB43_, symObjAddr: 0x770, symBinAddr: 0x3BA20, symSize: 0x3C }
  - { offset: 0x755DB, size: 0x8, addend: 0x0, symName: __RINvXsd_NtCsiTraAjBDcu4_5alloc3vecINtB6_3VecNtNtCsc29TF2YcYso_3syn4item9TraitItemEINtNtNtNtCsaNl6UpbT7bw_4core4iter6traits7collect12FromIteratorBG_E9from_iterINtNtNtB1p_8adapters3map3MapINtNtB6_9into_iter8IntoIterBG_ENCINvNtNtBK_3gen4fold8fold_vecBG_NtNvCsfQFyxU9Vz2T_11yoke_derive16replace_lifetime15ReplaceLifetimeNvYB40_NtB3y_4Fold15fold_trait_itemE0EEB44_, symObjAddr: 0x7AC, symBinAddr: 0x3BA5C, symSize: 0x3C }
  - { offset: 0x7561C, size: 0x8, addend: 0x0, symName: __RINvXsd_NtCsiTraAjBDcu4_5alloc3vecINtB6_3VecNtNtCsc29TF2YcYso_3syn4stmt4StmtEINtNtNtNtCsaNl6UpbT7bw_4core4iter6traits7collect12FromIteratorBG_E9from_iterINtNtNtB1k_8adapters3map3MapINtNtB6_9into_iter8IntoIterBG_ENCINvNtNtBK_3gen4fold8fold_vecBG_NtNvCsfQFyxU9Vz2T_11yoke_derive16replace_lifetime15ReplaceLifetimeNvYB3V_NtB3t_4Fold9fold_stmtE0EEB3Z_, symObjAddr: 0x7E8, symBinAddr: 0x3BA98, symSize: 0x3C }
  - { offset: 0x7565D, size: 0x8, addend: 0x0, symName: __RINvXsd_NtCsiTraAjBDcu4_5alloc3vecINtB6_3VecNtNtCsc29TF2YcYso_3syn8generics14WherePredicateEINtNtNtNtCsaNl6UpbT7bw_4core4iter6traits7collect12FromIteratorBG_E9from_iterINtNtNtB1z_8adapters3map3MapINtNtNtB1B_5slice4iter4IterNtCshnvkK9b4wzu_11proc_macro25IdentENCNvCsfQFyxU9Vz2T_11yoke_derive20yokeable_derive_impls0_0EEB4d_, symObjAddr: 0x824, symBinAddr: 0x3BAD4, symSize: 0x40 }
  - { offset: 0x7569D, size: 0x8, addend: 0x0, symName: __RINvXsd_NtCsiTraAjBDcu4_5alloc3vecINtB6_3VecNtNtCsc29TF2YcYso_3syn8generics14WherePredicateEINtNtNtNtCsaNl6UpbT7bw_4core4iter6traits7collect12FromIteratorBG_E9from_iterINtNtNtB1z_8adapters3map3MapINtNtNtB1B_5slice4iter4IterNtCshnvkK9b4wzu_11proc_macro25IdentENCNvCsfQFyxU9Vz2T_11yoke_derive20yokeable_derive_impls2_0EEB4d_, symObjAddr: 0x864, symBinAddr: 0x3BB14, symSize: 0x40 }
  - { offset: 0x756DD, size: 0x8, addend: 0x0, symName: __RINvXsd_NtCsiTraAjBDcu4_5alloc3vecINtB6_3VecNtNtCsc29TF2YcYso_3syn8generics9TypeParamEINtNtNtNtCsaNl6UpbT7bw_4core4iter6traits7collect12FromIteratorBG_E9from_iterINtNtNtB1t_8adapters3map3MapNtBI_10TypeParamsNCNvCsfQFyxU9Vz2T_11yoke_derive20yokeable_derive_impl0EEB3n_, symObjAddr: 0x8A4, symBinAddr: 0x3BB54, symSize: 0x40 }
  - { offset: 0x7571D, size: 0x8, addend: 0x0, symName: __RINvXsd_NtCsiTraAjBDcu4_5alloc3vecINtB6_3VecTNtNtCsc29TF2YcYso_3syn2ty4TypeNtNtBL_5token5CommaEEINtNtNtNtCsaNl6UpbT7bw_4core4iter6traits7collect12FromIteratorBG_E9from_iterINtNtNtB1D_8adapters3map3MapINtNtB6_9into_iter8IntoIterBG_ENCINvNtBL_10punctuated4foldBH_B1b_NtNvCsfQFyxU9Vz2T_11yoke_derive16replace_lifetime15ReplaceLifetimeNvYB4f_NtNtNtBL_3gen4fold4Fold9fold_typeE0EEB4j_, symObjAddr: 0x8E4, symBinAddr: 0x3BB94, symSize: 0x3C }
  - { offset: 0x7575E, size: 0x8, addend: 0x0, symName: __RINvXsd_NtCsiTraAjBDcu4_5alloc3vecINtB6_3VecTNtNtCsc29TF2YcYso_3syn2ty9BareFnArgNtNtBL_5token5CommaEEINtNtNtNtCsaNl6UpbT7bw_4core4iter6traits7collect12FromIteratorBG_E9from_iterINtNtNtB1I_8adapters3map3MapINtNtB6_9into_iter8IntoIterBG_ENCINvNtBL_10punctuated4foldBH_B1g_NtNvCsfQFyxU9Vz2T_11yoke_derive16replace_lifetime15ReplaceLifetimeNvYB4k_NtNtNtBL_3gen4fold4Fold16fold_bare_fn_argE0EEB4o_, symObjAddr: 0x920, symBinAddr: 0x3BBD0, symSize: 0x3C }
  - { offset: 0x7579F, size: 0x8, addend: 0x0, symName: __RINvXsd_NtCsiTraAjBDcu4_5alloc3vecINtB6_3VecTNtNtCsc29TF2YcYso_3syn3pat3PatNtNtBL_5token2OrEEINtNtNtNtCsaNl6UpbT7bw_4core4iter6traits7collect12FromIteratorBG_E9from_iterINtNtNtB1A_8adapters3map3MapINtNtB6_9into_iter8IntoIterBG_ENCINvNtBL_10punctuated4foldBH_B1b_NtNvCsfQFyxU9Vz2T_11yoke_derive16replace_lifetime15ReplaceLifetimeNvYB4c_NtNtNtBL_3gen4fold4Fold8fold_patE0EEB4g_, symObjAddr: 0x95C, symBinAddr: 0x3BC0C, symSize: 0x3C }
  - { offset: 0x757E0, size: 0x8, addend: 0x0, symName: __RINvXsd_NtCsiTraAjBDcu4_5alloc3vecINtB6_3VecTNtNtCsc29TF2YcYso_3syn3pat3PatNtNtBL_5token5CommaEEINtNtNtNtCsaNl6UpbT7bw_4core4iter6traits7collect12FromIteratorBG_E9from_iterINtNtNtB1D_8adapters3map3MapINtNtB6_9into_iter8IntoIterBG_ENCINvNtBL_10punctuated4foldBH_B1b_NtNvCsfQFyxU9Vz2T_11yoke_derive16replace_lifetime15ReplaceLifetimeNvYB4f_NtNtNtBL_3gen4fold4Fold8fold_patE0EEB4j_, symObjAddr: 0x998, symBinAddr: 0x3BC48, symSize: 0x3C }
  - { offset: 0x75821, size: 0x8, addend: 0x0, symName: __RINvXsd_NtCsiTraAjBDcu4_5alloc3vecINtB6_3VecTNtNtCsc29TF2YcYso_3syn3pat8FieldPatNtNtBL_5token5CommaEEINtNtNtNtCsaNl6UpbT7bw_4core4iter6traits7collect12FromIteratorBG_E9from_iterINtNtNtB1I_8adapters3map3MapINtNtB6_9into_iter8IntoIterBG_ENCINvNtBL_10punctuated4foldBH_B1g_NtNvCsfQFyxU9Vz2T_11yoke_derive16replace_lifetime15ReplaceLifetimeNvYB4k_NtNtNtBL_3gen4fold4Fold14fold_field_patE0EEB4o_, symObjAddr: 0x9D4, symBinAddr: 0x3BC84, symSize: 0x3C }
  - { offset: 0x75862, size: 0x8, addend: 0x0, symName: __RINvXsd_NtCsiTraAjBDcu4_5alloc3vecINtB6_3VecTNtNtCsc29TF2YcYso_3syn4data5FieldNtNtBL_5token5CommaEEINtNtNtNtCsaNl6UpbT7bw_4core4iter6traits7collect12FromIteratorBG_E9from_iterINtNtNtB1G_8adapters3map3MapINtNtB6_9into_iter8IntoIterBG_ENCINvNtBL_10punctuated4foldBH_B1e_NtNvCsfQFyxU9Vz2T_11yoke_derive16replace_lifetime15ReplaceLifetimeNvYB4i_NtNtNtBL_3gen4fold4Fold10fold_fieldE0EEB4m_, symObjAddr: 0xA10, symBinAddr: 0x3BCC0, symSize: 0x3C }
  - { offset: 0x758A3, size: 0x8, addend: 0x0, symName: __RINvXsd_NtCsiTraAjBDcu4_5alloc3vecINtB6_3VecTNtNtCsc29TF2YcYso_3syn4data7VariantNtNtBL_5token5CommaEEINtNtNtNtCsaNl6UpbT7bw_4core4iter6traits7collect12FromIteratorBG_E9from_iterINtNtNtB1I_8adapters3map3MapINtNtB6_9into_iter8IntoIterBG_ENCINvNtBL_10punctuated4foldBH_B1g_NtNvCsfQFyxU9Vz2T_11yoke_derive16replace_lifetime15ReplaceLifetimeNvYB4k_NtNtNtBL_3gen4fold4Fold12fold_variantE0EEB4o_, symObjAddr: 0xA4C, symBinAddr: 0x3BCFC, symSize: 0x3C }
  - { offset: 0x758E4, size: 0x8, addend: 0x0, symName: __RINvXsd_NtCsiTraAjBDcu4_5alloc3vecINtB6_3VecTNtNtCsc29TF2YcYso_3syn4expr10FieldValueNtNtBL_5token5CommaEEINtNtNtNtCsaNl6UpbT7bw_4core4iter6traits7collect12FromIteratorBG_E9from_iterINtNtNtB1M_8adapters3map3MapINtNtB6_9into_iter8IntoIterBG_ENCINvNtBL_10punctuated4foldBH_B1k_NtNvCsfQFyxU9Vz2T_11yoke_derive16replace_lifetime15ReplaceLifetimeNvYB4o_NtNtNtBL_3gen4fold4Fold16fold_field_valueE0EEB4s_, symObjAddr: 0xA88, symBinAddr: 0x3BD38, symSize: 0x3C }
  - { offset: 0x75925, size: 0x8, addend: 0x0, symName: __RINvXsd_NtCsiTraAjBDcu4_5alloc3vecINtB6_3VecTNtNtCsc29TF2YcYso_3syn4expr4ExprNtNtBL_5token5CommaEEINtNtNtNtCsaNl6UpbT7bw_4core4iter6traits7collect12FromIteratorBG_E9from_iterINtNtNtB1F_8adapters3map3MapINtNtB6_9into_iter8IntoIterBG_ENCINvNtBL_10punctuated4foldBH_B1d_NtNvCsfQFyxU9Vz2T_11yoke_derive16replace_lifetime15ReplaceLifetimeNvYB4h_NtNtNtBL_3gen4fold4Fold9fold_exprE0EEB4l_, symObjAddr: 0xAC4, symBinAddr: 0x3BD74, symSize: 0x3C }
  - { offset: 0x75966, size: 0x8, addend: 0x0, symName: __RINvXsd_NtCsiTraAjBDcu4_5alloc3vecINtB6_3VecTNtNtCsc29TF2YcYso_3syn4item5FnArgNtNtBL_5token5CommaEEINtNtNtNtCsaNl6UpbT7bw_4core4iter6traits7collect12FromIteratorBG_E9from_iterINtNtNtB1G_8adapters3map3MapINtNtB6_9into_iter8IntoIterBG_ENCINvNtBL_10punctuated4foldBH_B1e_NtNvCsfQFyxU9Vz2T_11yoke_derive16replace_lifetime15ReplaceLifetimeNvYB4i_NtNtNtBL_3gen4fold4Fold11fold_fn_argE0EEB4m_, symObjAddr: 0xB00, symBinAddr: 0x3BDB0, symSize: 0x3C }
  - { offset: 0x759A7, size: 0x8, addend: 0x0, symName: __RINvXsd_NtCsiTraAjBDcu4_5alloc3vecINtB6_3VecTNtNtCsc29TF2YcYso_3syn4item7UseTreeNtNtBL_5token5CommaEEINtNtNtNtCsaNl6UpbT7bw_4core4iter6traits7collect12FromIteratorBG_E9from_iterINtNtNtB1I_8adapters3map3MapINtNtB6_9into_iter8IntoIterBG_ENCINvNtBL_10punctuated4foldBH_B1g_NtNvCsfQFyxU9Vz2T_11yoke_derive16replace_lifetime15ReplaceLifetimeNvYB4k_NtNtNtBL_3gen4fold4Fold13fold_use_treeE0EEB4o_, symObjAddr: 0xB3C, symBinAddr: 0x3BDEC, symSize: 0x3C }
  - { offset: 0x759E8, size: 0x8, addend: 0x0, symName: __RINvXsd_NtCsiTraAjBDcu4_5alloc3vecINtB6_3VecTNtNtCsc29TF2YcYso_3syn4path11PathSegmentNtNtBL_5token7PathSepEEINtNtNtNtCsaNl6UpbT7bw_4core4iter6traits7collect12FromIteratorBG_E9from_iterINtNtNtB1P_8adapters3map3MapINtNtB6_9into_iter8IntoIterBG_ENCINvNtBL_10punctuated4foldBH_B1l_NtNvCsfQFyxU9Vz2T_11yoke_derive16replace_lifetime15ReplaceLifetimeNvYB4r_NtNtNtBL_3gen4fold4Fold17fold_path_segmentE0EEB4v_, symObjAddr: 0xB78, symBinAddr: 0x3BE28, symSize: 0x3C }
  - { offset: 0x75A29, size: 0x8, addend: 0x0, symName: __RINvXsd_NtCsiTraAjBDcu4_5alloc3vecINtB6_3VecTNtNtCsc29TF2YcYso_3syn4path15GenericArgumentNtNtBL_5token5CommaEEINtNtNtNtCsaNl6UpbT7bw_4core4iter6traits7collect12FromIteratorBG_E9from_iterINtNtNtB1R_8adapters3map3MapINtNtB6_9into_iter8IntoIterBG_ENCINvNtBL_10punctuated4foldBH_B1p_NtNvCsfQFyxU9Vz2T_11yoke_derive16replace_lifetime15ReplaceLifetimeNvYB4t_NtNtNtBL_3gen4fold4Fold21fold_generic_argumentE0EEB4x_, symObjAddr: 0xBB4, symBinAddr: 0x3BE64, symSize: 0x3C }
  - { offset: 0x75A6A, size: 0x8, addend: 0x0, symName: __RINvXsd_NtCsiTraAjBDcu4_5alloc3vecINtB6_3VecTNtNtCsc29TF2YcYso_3syn8generics12GenericParamNtNtBL_5token5CommaEEINtNtNtNtCsaNl6UpbT7bw_4core4iter6traits7collect12FromIteratorBG_E9from_iterINtNtNtB1S_8adapters3map3MapINtNtB6_9into_iter8IntoIterBG_ENCINvNtBL_10punctuated4foldBH_B1q_NtNvCsfQFyxU9Vz2T_11yoke_derive16replace_lifetime15ReplaceLifetimeNvYB4u_NtNtNtBL_3gen4fold4Fold18fold_generic_paramE0EEB4y_, symObjAddr: 0xBF0, symBinAddr: 0x3BEA0, symSize: 0x3C }
  - { offset: 0x75AAB, size: 0x8, addend: 0x0, symName: __RINvXsd_NtCsiTraAjBDcu4_5alloc3vecINtB6_3VecTNtNtCsc29TF2YcYso_3syn8generics13CapturedParamNtNtBL_5token5CommaEEINtNtNtNtCsaNl6UpbT7bw_4core4iter6traits7collect12FromIteratorBG_E9from_iterINtNtNtB1T_8adapters3map3MapINtNtB6_9into_iter8IntoIterBG_ENCINvNtBL_10punctuated4foldBH_B1r_NtNvCsfQFyxU9Vz2T_11yoke_derive16replace_lifetime15ReplaceLifetimeNvYB4v_NtNtNtBL_3gen4fold4Fold19fold_captured_paramE0EEB4z_, symObjAddr: 0xC2C, symBinAddr: 0x3BEDC, symSize: 0x3C }
  - { offset: 0x75AEC, size: 0x8, addend: 0x0, symName: __RINvXsd_NtCsiTraAjBDcu4_5alloc3vecINtB6_3VecTNtNtCsc29TF2YcYso_3syn8generics14TypeParamBoundNtNtBL_5token4PlusEEINtNtNtNtCsaNl6UpbT7bw_4core4iter6traits7collect12FromIteratorBG_E9from_iterINtNtNtB1T_8adapters3map3MapINtNtB6_9into_iter8IntoIterBG_ENCINvNtBL_10punctuated4foldBH_B1s_NtNvCsfQFyxU9Vz2T_11yoke_derive16replace_lifetime15ReplaceLifetimeNvYB4v_NtNtNtBL_3gen4fold4Fold21fold_type_param_boundE0EEB4z_, symObjAddr: 0xC68, symBinAddr: 0x3BF18, symSize: 0x3C }
  - { offset: 0x75B2D, size: 0x8, addend: 0x0, symName: __RINvXsd_NtCsiTraAjBDcu4_5alloc3vecINtB6_3VecTNtNtCsc29TF2YcYso_3syn8generics14WherePredicateNtNtBL_5token5CommaEEINtNtNtNtCsaNl6UpbT7bw_4core4iter6traits7collect12FromIteratorBG_E9from_iterINtNtNtB1U_8adapters3map3MapINtNtB6_9into_iter8IntoIterBG_ENCINvNtBL_10punctuated4foldBH_B1s_NtNvCsfQFyxU9Vz2T_11yoke_derive16replace_lifetime15ReplaceLifetimeNvYB4w_NtNtNtBL_3gen4fold4Fold20fold_where_predicateE0EEB4A_, symObjAddr: 0xCA4, symBinAddr: 0x3BF54, symSize: 0x3C }
  - { offset: 0x75B6E, size: 0x8, addend: 0x0, symName: __RINvXsd_NtCsiTraAjBDcu4_5alloc3vecINtB6_3VecTNtNtCsc29TF2YcYso_3syn8lifetime8LifetimeNtNtBL_5token4PlusEEINtNtNtNtCsaNl6UpbT7bw_4core4iter6traits7collect12FromIteratorBG_E9from_iterINtNtNtB1M_8adapters3map3MapINtNtB6_9into_iter8IntoIterBG_ENCINvNtBL_10punctuated4foldBH_B1l_NtNvCsfQFyxU9Vz2T_11yoke_derive16replace_lifetime15ReplaceLifetimeNvYB4o_NtNtNtBL_3gen4fold4Fold13fold_lifetimeE0EEB4s_, symObjAddr: 0xCE0, symBinAddr: 0x3BF90, symSize: 0x3C }
  - { offset: 0x75BBA, size: 0x8, addend: 0x0, symName: __RNCINvMsi_NtCsiTraAjBDcu4_5alloc3vecINtB8_3VecNtCshnvkK9b4wzu_11proc_macro25IdentE14extend_trustedINtNtNtNtCsaNl6UpbT7bw_4core4iter8adapters3map3MapINtNtNtB1H_5slice4iter4IterNtNtCsc29TF2YcYso_3syn8generics9TypeParamENCNvCsfQFyxU9Vz2T_11yoke_derive20yokeable_derive_impls_0EE0B3x_, symObjAddr: 0xD1C, symBinAddr: 0x3BFCC, symSize: 0x44 }
  - { offset: 0x75C67, size: 0x8, addend: 0x0, symName: __RNCINvMsi_NtCsiTraAjBDcu4_5alloc3vecINtB8_3VecNtNtCsc29TF2YcYso_3syn8generics14WherePredicateE14extend_trustedINtNtNtNtCsaNl6UpbT7bw_4core4iter8adapters3map3MapINtNtNtB1T_5slice4iter4IterNtCshnvkK9b4wzu_11proc_macro25IdentENCNvCsfQFyxU9Vz2T_11yoke_derive20yokeable_derive_impls0_0EE0B3D_, symObjAddr: 0xD60, symBinAddr: 0x3C010, symSize: 0x54 }
  - { offset: 0x75D25, size: 0x8, addend: 0x0, symName: __RNCINvMsi_NtCsiTraAjBDcu4_5alloc3vecINtB8_3VecNtNtCsc29TF2YcYso_3syn8generics14WherePredicateE14extend_trustedINtNtNtNtCsaNl6UpbT7bw_4core4iter8adapters3map3MapINtNtNtB1T_5slice4iter4IterNtCshnvkK9b4wzu_11proc_macro25IdentENCNvCsfQFyxU9Vz2T_11yoke_derive20yokeable_derive_impls2_0EE0B3D_, symObjAddr: 0xDB4, symBinAddr: 0x3C064, symSize: 0x54 }
  - { offset: 0x75DEF, size: 0x8, addend: 0x0, symName: __RNvXNtNtCsiTraAjBDcu4_5alloc3vec11spec_extendINtB4_3VecNtNtCsc29TF2YcYso_3syn8generics9TypeParamEINtB2_10SpecExtendBR_INtNtNtNtCsaNl6UpbT7bw_4core4iter8adapters3map3MapNtBT_10TypeParamsNCNvCsfQFyxU9Vz2T_11yoke_derive20yokeable_derive_impl0EE11spec_extendB31_, symObjAddr: 0x1138, symBinAddr: 0x3C3E8, symSize: 0x34 }
  - { offset: 0x75E46, size: 0x8, addend: 0x0, symName: __RNvXs_NtNtCsiTraAjBDcu4_5alloc3vec11spec_extendINtB6_3VecNtCshnvkK9b4wzu_11proc_macro25IdentEINtB4_10SpecExtendBT_INtNtNtNtCsaNl6UpbT7bw_4core4iter8adapters3map3MapINtNtNtB1X_5slice4iter4IterNtNtCsc29TF2YcYso_3syn8generics9TypeParamENCNvCsfQFyxU9Vz2T_11yoke_derive20yokeable_derive_impls_0EE11spec_extendB3N_, symObjAddr: 0x1548, symBinAddr: 0x3C7F8, symSize: 0x34 }
  - { offset: 0x75E97, size: 0x8, addend: 0x0, symName: __RNvXs_NtNtCsiTraAjBDcu4_5alloc3vec11spec_extendINtB6_3VecNtNtCsc29TF2YcYso_3syn8generics14WherePredicateEINtB4_10SpecExtendBT_INtNtNtNtCsaNl6UpbT7bw_4core4iter8adapters3map3MapINtNtNtB29_5slice4iter4IterNtCshnvkK9b4wzu_11proc_macro25IdentENCNvCsfQFyxU9Vz2T_11yoke_derive20yokeable_derive_impls0_0EE11spec_extendB3T_, symObjAddr: 0x157C, symBinAddr: 0x3C82C, symSize: 0x34 }
  - { offset: 0x75EE8, size: 0x8, addend: 0x0, symName: __RNvXs_NtNtCsiTraAjBDcu4_5alloc3vec11spec_extendINtB6_3VecNtNtCsc29TF2YcYso_3syn8generics14WherePredicateEINtB4_10SpecExtendBT_INtNtNtNtCsaNl6UpbT7bw_4core4iter8adapters3map3MapINtNtNtB29_5slice4iter4IterNtCshnvkK9b4wzu_11proc_macro25IdentENCNvCsfQFyxU9Vz2T_11yoke_derive20yokeable_derive_impls2_0EE11spec_extendB3T_, symObjAddr: 0x15B0, symBinAddr: 0x3C860, symSize: 0x34 }
  - { offset: 0x75F45, size: 0x8, addend: 0x0, symName: __RNvXNtNtCsiTraAjBDcu4_5alloc3vec14spec_from_iterINtB4_3VecNtCshnvkK9b4wzu_11proc_macro25IdentEINtB2_12SpecFromIterBU_INtNtNtNtCsaNl6UpbT7bw_4core4iter8adapters3map3MapINtNtNtB20_5slice4iter4IterNtNtCsc29TF2YcYso_3syn8generics9TypeParamENCNvCsfQFyxU9Vz2T_11yoke_derive20yokeable_derive_impls_0EE9from_iterB3Q_, symObjAddr: 0x116C, symBinAddr: 0x3C41C, symSize: 0x2C }
  - { offset: 0x75F83, size: 0x8, addend: 0x0, symName: __RNvXNtNtCsiTraAjBDcu4_5alloc3vec14spec_from_iterINtB4_3VecNtNtCsc29TF2YcYso_3syn8generics14WherePredicateEINtB2_12SpecFromIterBU_INtNtNtNtCsaNl6UpbT7bw_4core4iter8adapters3map3MapINtNtNtB2c_5slice4iter4IterNtCshnvkK9b4wzu_11proc_macro25IdentENCNvCsfQFyxU9Vz2T_11yoke_derive20yokeable_derive_impls0_0EE9from_iterB3W_, symObjAddr: 0x1198, symBinAddr: 0x3C448, symSize: 0x2C }
  - { offset: 0x75FC1, size: 0x8, addend: 0x0, symName: __RNvXNtNtCsiTraAjBDcu4_5alloc3vec14spec_from_iterINtB4_3VecNtNtCsc29TF2YcYso_3syn8generics14WherePredicateEINtB2_12SpecFromIterBU_INtNtNtNtCsaNl6UpbT7bw_4core4iter8adapters3map3MapINtNtNtB2c_5slice4iter4IterNtCshnvkK9b4wzu_11proc_macro25IdentENCNvCsfQFyxU9Vz2T_11yoke_derive20yokeable_derive_impls2_0EE9from_iterB3W_, symObjAddr: 0x11C4, symBinAddr: 0x3C474, symSize: 0x2C }
  - { offset: 0x75FFF, size: 0x8, addend: 0x0, symName: __RNvXNtNtCsiTraAjBDcu4_5alloc3vec14spec_from_iterINtB4_3VecNtNtCsc29TF2YcYso_3syn8generics9TypeParamEINtB2_12SpecFromIterBU_INtNtNtNtCsaNl6UpbT7bw_4core4iter8adapters3map3MapNtBW_10TypeParamsNCNvCsfQFyxU9Vz2T_11yoke_derive20yokeable_derive_impl0EE9from_iterB36_, symObjAddr: 0x11F0, symBinAddr: 0x3C4A0, symSize: 0x2C }
  - { offset: 0x76049, size: 0x8, addend: 0x0, symName: __RNvXNtNtCsiTraAjBDcu4_5alloc3vec21spec_from_iter_nestedINtB4_3VecNtNtCsc29TF2YcYso_3syn8generics9TypeParamEINtB2_18SpecFromIterNestedB11_INtNtNtNtCsaNl6UpbT7bw_4core4iter8adapters3map3MapNtB13_10TypeParamsNCNvCsfQFyxU9Vz2T_11yoke_derive20yokeable_derive_impl0EE9from_iterB3l_, symObjAddr: 0x121C, symBinAddr: 0x3C4CC, symSize: 0x23C }
  - { offset: 0x7626E, size: 0x8, addend: 0x0, symName: __RNvXs_NtNtCsiTraAjBDcu4_5alloc3vec21spec_from_iter_nestedINtB6_3VecNtCshnvkK9b4wzu_11proc_macro25IdentEINtB4_18SpecFromIterNestedB13_INtNtNtNtCsaNl6UpbT7bw_4core4iter8adapters3map3MapINtNtNtB2g_5slice4iter4IterNtNtCsc29TF2YcYso_3syn8generics9TypeParamENCNvCsfQFyxU9Vz2T_11yoke_derive20yokeable_derive_impls_0EE9from_iterB46_, symObjAddr: 0x19CC, symBinAddr: 0x3CC7C, symSize: 0x164 }
  - { offset: 0x76344, size: 0x8, addend: 0x0, symName: __RNvXs_NtNtCsiTraAjBDcu4_5alloc3vec21spec_from_iter_nestedINtB6_3VecNtNtCsc29TF2YcYso_3syn8generics14WherePredicateEINtB4_18SpecFromIterNestedB13_INtNtNtNtCsaNl6UpbT7bw_4core4iter8adapters3map3MapINtNtNtB2s_5slice4iter4IterNtCshnvkK9b4wzu_11proc_macro25IdentENCNvCsfQFyxU9Vz2T_11yoke_derive20yokeable_derive_impls0_0EE9from_iterB4c_, symObjAddr: 0x1B30, symBinAddr: 0x3CDE0, symSize: 0x164 }
  - { offset: 0x7641A, size: 0x8, addend: 0x0, symName: __RNvXs_NtNtCsiTraAjBDcu4_5alloc3vec21spec_from_iter_nestedINtB6_3VecNtNtCsc29TF2YcYso_3syn8generics14WherePredicateEINtB4_18SpecFromIterNestedB13_INtNtNtNtCsaNl6UpbT7bw_4core4iter8adapters3map3MapINtNtNtB2s_5slice4iter4IterNtCshnvkK9b4wzu_11proc_macro25IdentENCNvCsfQFyxU9Vz2T_11yoke_derive20yokeable_derive_impls2_0EE9from_iterB4c_, symObjAddr: 0x1C94, symBinAddr: 0x3CF44, symSize: 0x164 }
  - { offset: 0x764F7, size: 0x8, addend: 0x0, symName: __RNvXs6_NtCsiTraAjBDcu4_5alloc3vecINtB5_3VecNtCshnvkK9b4wzu_11proc_macro25IdentENtNtNtCsaNl6UpbT7bw_4core3ops5deref5Deref5derefCsfQFyxU9Vz2T_11yoke_derive, symObjAddr: 0x1500, symBinAddr: 0x3C7B0, symSize: 0x24 }
  - { offset: 0x76537, size: 0x8, addend: 0x0, symName: __RNvXs6_NtCsiTraAjBDcu4_5alloc3vecINtB5_3VecNtNtCsc29TF2YcYso_3syn8generics9TypeParamENtNtNtCsaNl6UpbT7bw_4core3ops5deref5Deref5derefCsfQFyxU9Vz2T_11yoke_derive, symObjAddr: 0x1524, symBinAddr: 0x3C7D4, symSize: 0x24 }
  - { offset: 0x76582, size: 0x8, addend: 0x0, symName: __RNvXs_NtNtCsiTraAjBDcu4_5alloc3vec16in_place_collectINtB6_3VecNtNtCsc29TF2YcYso_3syn4attr9AttributeEINtNtB6_14spec_from_iter12SpecFromIterBY_INtNtNtNtCsaNl6UpbT7bw_4core4iter8adapters3map3MapINtNtB6_9into_iter8IntoIterBY_ENCINvNtNtB12_3gen4fold8fold_vecBY_NtNvCsfQFyxU9Vz2T_11yoke_derive16replace_lifetime15ReplaceLifetimeNvYB46_NtB3D_4Fold14fold_attributeE0EE9from_iterB4a_, symObjAddr: 0x15E4, symBinAddr: 0x3C894, symSize: 0x28 }
  - { offset: 0x765DE, size: 0x8, addend: 0x0, symName: __RNvXs_NtNtCsiTraAjBDcu4_5alloc3vec16in_place_collectINtB6_3VecNtNtCsc29TF2YcYso_3syn4expr3ArmEINtNtB6_14spec_from_iter12SpecFromIterBY_INtNtNtNtCsaNl6UpbT7bw_4core4iter8adapters3map3MapINtNtB6_9into_iter8IntoIterBY_ENCINvNtNtB12_3gen4fold8fold_vecBY_NtNvCsfQFyxU9Vz2T_11yoke_derive16replace_lifetime15ReplaceLifetimeNvYB40_NtB3x_4Fold8fold_armE0EE9from_iterB44_, symObjAddr: 0x160C, symBinAddr: 0x3C8BC, symSize: 0x28 }
  - { offset: 0x7663A, size: 0x8, addend: 0x0, symName: __RNvXs_NtNtCsiTraAjBDcu4_5alloc3vec16in_place_collectINtB6_3VecNtNtCsc29TF2YcYso_3syn4item11ForeignItemEINtNtB6_14spec_from_iter12SpecFromIterBY_INtNtNtNtCsaNl6UpbT7bw_4core4iter8adapters3map3MapINtNtB6_9into_iter8IntoIterBY_ENCINvNtNtB12_3gen4fold8fold_vecBY_NtNvCsfQFyxU9Vz2T_11yoke_derive16replace_lifetime15ReplaceLifetimeNvYB49_NtB3G_4Fold17fold_foreign_itemE0EE9from_iterB4d_, symObjAddr: 0x1634, symBinAddr: 0x3C8E4, symSize: 0x28 }
  - { offset: 0x76696, size: 0x8, addend: 0x0, symName: __RNvXs_NtNtCsiTraAjBDcu4_5alloc3vec16in_place_collectINtB6_3VecNtNtCsc29TF2YcYso_3syn4item4ItemEINtNtB6_14spec_from_iter12SpecFromIterBY_INtNtNtNtCsaNl6UpbT7bw_4core4iter8adapters3map3MapINtNtB6_9into_iter8IntoIterBY_ENCINvNtNtB12_3gen4fold8fold_vecBY_NtNvCsfQFyxU9Vz2T_11yoke_derive16replace_lifetime15ReplaceLifetimeNvYB41_NtB3y_4Fold9fold_itemE0EE9from_iterB45_, symObjAddr: 0x165C, symBinAddr: 0x3C90C, symSize: 0x28 }
  - { offset: 0x766F2, size: 0x8, addend: 0x0, symName: __RNvXs_NtNtCsiTraAjBDcu4_5alloc3vec16in_place_collectINtB6_3VecNtNtCsc29TF2YcYso_3syn4item8ImplItemEINtNtB6_14spec_from_iter12SpecFromIterBY_INtNtNtNtCsaNl6UpbT7bw_4core4iter8adapters3map3MapINtNtB6_9into_iter8IntoIterBY_ENCINvNtNtB12_3gen4fold8fold_vecBY_NtNvCsfQFyxU9Vz2T_11yoke_derive16replace_lifetime15ReplaceLifetimeNvYB45_NtB3C_4Fold14fold_impl_itemE0EE9from_iterB49_, symObjAddr: 0x1684, symBinAddr: 0x3C934, symSize: 0x28 }
  - { offset: 0x7674E, size: 0x8, addend: 0x0, symName: __RNvXs_NtNtCsiTraAjBDcu4_5alloc3vec16in_place_collectINtB6_3VecNtNtCsc29TF2YcYso_3syn4item9TraitItemEINtNtB6_14spec_from_iter12SpecFromIterBY_INtNtNtNtCsaNl6UpbT7bw_4core4iter8adapters3map3MapINtNtB6_9into_iter8IntoIterBY_ENCINvNtNtB12_3gen4fold8fold_vecBY_NtNvCsfQFyxU9Vz2T_11yoke_derive16replace_lifetime15ReplaceLifetimeNvYB46_NtB3D_4Fold15fold_trait_itemE0EE9from_iterB4a_, symObjAddr: 0x16AC, symBinAddr: 0x3C95C, symSize: 0x28 }
  - { offset: 0x767AA, size: 0x8, addend: 0x0, symName: __RNvXs_NtNtCsiTraAjBDcu4_5alloc3vec16in_place_collectINtB6_3VecNtNtCsc29TF2YcYso_3syn4stmt4StmtEINtNtB6_14spec_from_iter12SpecFromIterBY_INtNtNtNtCsaNl6UpbT7bw_4core4iter8adapters3map3MapINtNtB6_9into_iter8IntoIterBY_ENCINvNtNtB12_3gen4fold8fold_vecBY_NtNvCsfQFyxU9Vz2T_11yoke_derive16replace_lifetime15ReplaceLifetimeNvYB41_NtB3y_4Fold9fold_stmtE0EE9from_iterB45_, symObjAddr: 0x16D4, symBinAddr: 0x3C984, symSize: 0x28 }
  - { offset: 0x76806, size: 0x8, addend: 0x0, symName: __RNvXs_NtNtCsiTraAjBDcu4_5alloc3vec16in_place_collectINtB6_3VecTNtNtCsc29TF2YcYso_3syn2ty4TypeNtNtB13_5token5CommaEEINtNtB6_14spec_from_iter12SpecFromIterBY_INtNtNtNtCsaNl6UpbT7bw_4core4iter8adapters3map3MapINtNtB6_9into_iter8IntoIterBY_ENCINvNtB13_10punctuated4foldBZ_B1t_NtNvCsfQFyxU9Vz2T_11yoke_derive16replace_lifetime15ReplaceLifetimeNvYB4m_NtNtNtB13_3gen4fold4Fold9fold_typeE0EE9from_iterB4q_, symObjAddr: 0x16FC, symBinAddr: 0x3C9AC, symSize: 0x28 }
  - { offset: 0x76862, size: 0x8, addend: 0x0, symName: __RNvXs_NtNtCsiTraAjBDcu4_5alloc3vec16in_place_collectINtB6_3VecTNtNtCsc29TF2YcYso_3syn2ty9BareFnArgNtNtB13_5token5CommaEEINtNtB6_14spec_from_iter12SpecFromIterBY_INtNtNtNtCsaNl6UpbT7bw_4core4iter8adapters3map3MapINtNtB6_9into_iter8IntoIterBY_ENCINvNtB13_10punctuated4foldBZ_B1y_NtNvCsfQFyxU9Vz2T_11yoke_derive16replace_lifetime15ReplaceLifetimeNvYB4r_NtNtNtB13_3gen4fold4Fold16fold_bare_fn_argE0EE9from_iterB4v_, symObjAddr: 0x1724, symBinAddr: 0x3C9D4, symSize: 0x28 }
  - { offset: 0x768BE, size: 0x8, addend: 0x0, symName: __RNvXs_NtNtCsiTraAjBDcu4_5alloc3vec16in_place_collectINtB6_3VecTNtNtCsc29TF2YcYso_3syn3pat3PatNtNtB13_5token2OrEEINtNtB6_14spec_from_iter12SpecFromIterBY_INtNtNtNtCsaNl6UpbT7bw_4core4iter8adapters3map3MapINtNtB6_9into_iter8IntoIterBY_ENCINvNtB13_10punctuated4foldBZ_B1t_NtNvCsfQFyxU9Vz2T_11yoke_derive16replace_lifetime15ReplaceLifetimeNvYB4j_NtNtNtB13_3gen4fold4Fold8fold_patE0EE9from_iterB4n_, symObjAddr: 0x174C, symBinAddr: 0x3C9FC, symSize: 0x28 }
  - { offset: 0x7691A, size: 0x8, addend: 0x0, symName: __RNvXs_NtNtCsiTraAjBDcu4_5alloc3vec16in_place_collectINtB6_3VecTNtNtCsc29TF2YcYso_3syn3pat3PatNtNtB13_5token5CommaEEINtNtB6_14spec_from_iter12SpecFromIterBY_INtNtNtNtCsaNl6UpbT7bw_4core4iter8adapters3map3MapINtNtB6_9into_iter8IntoIterBY_ENCINvNtB13_10punctuated4foldBZ_B1t_NtNvCsfQFyxU9Vz2T_11yoke_derive16replace_lifetime15ReplaceLifetimeNvYB4m_NtNtNtB13_3gen4fold4Fold8fold_patE0EE9from_iterB4q_, symObjAddr: 0x1774, symBinAddr: 0x3CA24, symSize: 0x28 }
  - { offset: 0x76976, size: 0x8, addend: 0x0, symName: __RNvXs_NtNtCsiTraAjBDcu4_5alloc3vec16in_place_collectINtB6_3VecTNtNtCsc29TF2YcYso_3syn3pat8FieldPatNtNtB13_5token5CommaEEINtNtB6_14spec_from_iter12SpecFromIterBY_INtNtNtNtCsaNl6UpbT7bw_4core4iter8adapters3map3MapINtNtB6_9into_iter8IntoIterBY_ENCINvNtB13_10punctuated4foldBZ_B1y_NtNvCsfQFyxU9Vz2T_11yoke_derive16replace_lifetime15ReplaceLifetimeNvYB4r_NtNtNtB13_3gen4fold4Fold14fold_field_patE0EE9from_iterB4v_, symObjAddr: 0x179C, symBinAddr: 0x3CA4C, symSize: 0x28 }
  - { offset: 0x769D2, size: 0x8, addend: 0x0, symName: __RNvXs_NtNtCsiTraAjBDcu4_5alloc3vec16in_place_collectINtB6_3VecTNtNtCsc29TF2YcYso_3syn4data5FieldNtNtB13_5token5CommaEEINtNtB6_14spec_from_iter12SpecFromIterBY_INtNtNtNtCsaNl6UpbT7bw_4core4iter8adapters3map3MapINtNtB6_9into_iter8IntoIterBY_ENCINvNtB13_10punctuated4foldBZ_B1w_NtNvCsfQFyxU9Vz2T_11yoke_derive16replace_lifetime15ReplaceLifetimeNvYB4p_NtNtNtB13_3gen4fold4Fold10fold_fieldE0EE9from_iterB4t_, symObjAddr: 0x17C4, symBinAddr: 0x3CA74, symSize: 0x28 }
  - { offset: 0x76A2E, size: 0x8, addend: 0x0, symName: __RNvXs_NtNtCsiTraAjBDcu4_5alloc3vec16in_place_collectINtB6_3VecTNtNtCsc29TF2YcYso_3syn4data7VariantNtNtB13_5token5CommaEEINtNtB6_14spec_from_iter12SpecFromIterBY_INtNtNtNtCsaNl6UpbT7bw_4core4iter8adapters3map3MapINtNtB6_9into_iter8IntoIterBY_ENCINvNtB13_10punctuated4foldBZ_B1y_NtNvCsfQFyxU9Vz2T_11yoke_derive16replace_lifetime15ReplaceLifetimeNvYB4r_NtNtNtB13_3gen4fold4Fold12fold_variantE0EE9from_iterB4v_, symObjAddr: 0x17EC, symBinAddr: 0x3CA9C, symSize: 0x28 }
  - { offset: 0x76A8A, size: 0x8, addend: 0x0, symName: __RNvXs_NtNtCsiTraAjBDcu4_5alloc3vec16in_place_collectINtB6_3VecTNtNtCsc29TF2YcYso_3syn4expr10FieldValueNtNtB13_5token5CommaEEINtNtB6_14spec_from_iter12SpecFromIterBY_INtNtNtNtCsaNl6UpbT7bw_4core4iter8adapters3map3MapINtNtB6_9into_iter8IntoIterBY_ENCINvNtB13_10punctuated4foldBZ_B1C_NtNvCsfQFyxU9Vz2T_11yoke_derive16replace_lifetime15ReplaceLifetimeNvYB4v_NtNtNtB13_3gen4fold4Fold16fold_field_valueE0EE9from_iterB4z_, symObjAddr: 0x1814, symBinAddr: 0x3CAC4, symSize: 0x28 }
  - { offset: 0x76AE6, size: 0x8, addend: 0x0, symName: __RNvXs_NtNtCsiTraAjBDcu4_5alloc3vec16in_place_collectINtB6_3VecTNtNtCsc29TF2YcYso_3syn4expr4ExprNtNtB13_5token5CommaEEINtNtB6_14spec_from_iter12SpecFromIterBY_INtNtNtNtCsaNl6UpbT7bw_4core4iter8adapters3map3MapINtNtB6_9into_iter8IntoIterBY_ENCINvNtB13_10punctuated4foldBZ_B1v_NtNvCsfQFyxU9Vz2T_11yoke_derive16replace_lifetime15ReplaceLifetimeNvYB4o_NtNtNtB13_3gen4fold4Fold9fold_exprE0EE9from_iterB4s_, symObjAddr: 0x183C, symBinAddr: 0x3CAEC, symSize: 0x28 }
  - { offset: 0x76B42, size: 0x8, addend: 0x0, symName: __RNvXs_NtNtCsiTraAjBDcu4_5alloc3vec16in_place_collectINtB6_3VecTNtNtCsc29TF2YcYso_3syn4item5FnArgNtNtB13_5token5CommaEEINtNtB6_14spec_from_iter12SpecFromIterBY_INtNtNtNtCsaNl6UpbT7bw_4core4iter8adapters3map3MapINtNtB6_9into_iter8IntoIterBY_ENCINvNtB13_10punctuated4foldBZ_B1w_NtNvCsfQFyxU9Vz2T_11yoke_derive16replace_lifetime15ReplaceLifetimeNvYB4p_NtNtNtB13_3gen4fold4Fold11fold_fn_argE0EE9from_iterB4t_, symObjAddr: 0x1864, symBinAddr: 0x3CB14, symSize: 0x28 }
  - { offset: 0x76B9E, size: 0x8, addend: 0x0, symName: __RNvXs_NtNtCsiTraAjBDcu4_5alloc3vec16in_place_collectINtB6_3VecTNtNtCsc29TF2YcYso_3syn4item7UseTreeNtNtB13_5token5CommaEEINtNtB6_14spec_from_iter12SpecFromIterBY_INtNtNtNtCsaNl6UpbT7bw_4core4iter8adapters3map3MapINtNtB6_9into_iter8IntoIterBY_ENCINvNtB13_10punctuated4foldBZ_B1y_NtNvCsfQFyxU9Vz2T_11yoke_derive16replace_lifetime15ReplaceLifetimeNvYB4r_NtNtNtB13_3gen4fold4Fold13fold_use_treeE0EE9from_iterB4v_, symObjAddr: 0x188C, symBinAddr: 0x3CB3C, symSize: 0x28 }
  - { offset: 0x76BFA, size: 0x8, addend: 0x0, symName: __RNvXs_NtNtCsiTraAjBDcu4_5alloc3vec16in_place_collectINtB6_3VecTNtNtCsc29TF2YcYso_3syn4path11PathSegmentNtNtB13_5token7PathSepEEINtNtB6_14spec_from_iter12SpecFromIterBY_INtNtNtNtCsaNl6UpbT7bw_4core4iter8adapters3map3MapINtNtB6_9into_iter8IntoIterBY_ENCINvNtB13_10punctuated4foldBZ_B1D_NtNvCsfQFyxU9Vz2T_11yoke_derive16replace_lifetime15ReplaceLifetimeNvYB4y_NtNtNtB13_3gen4fold4Fold17fold_path_segmentE0EE9from_iterB4C_, symObjAddr: 0x18B4, symBinAddr: 0x3CB64, symSize: 0x28 }
  - { offset: 0x76C56, size: 0x8, addend: 0x0, symName: __RNvXs_NtNtCsiTraAjBDcu4_5alloc3vec16in_place_collectINtB6_3VecTNtNtCsc29TF2YcYso_3syn4path15GenericArgumentNtNtB13_5token5CommaEEINtNtB6_14spec_from_iter12SpecFromIterBY_INtNtNtNtCsaNl6UpbT7bw_4core4iter8adapters3map3MapINtNtB6_9into_iter8IntoIterBY_ENCINvNtB13_10punctuated4foldBZ_B1H_NtNvCsfQFyxU9Vz2T_11yoke_derive16replace_lifetime15ReplaceLifetimeNvYB4A_NtNtNtB13_3gen4fold4Fold21fold_generic_argumentE0EE9from_iterB4E_, symObjAddr: 0x18DC, symBinAddr: 0x3CB8C, symSize: 0x28 }
  - { offset: 0x76CB2, size: 0x8, addend: 0x0, symName: __RNvXs_NtNtCsiTraAjBDcu4_5alloc3vec16in_place_collectINtB6_3VecTNtNtCsc29TF2YcYso_3syn8generics12GenericParamNtNtB13_5token5CommaEEINtNtB6_14spec_from_iter12SpecFromIterBY_INtNtNtNtCsaNl6UpbT7bw_4core4iter8adapters3map3MapINtNtB6_9into_iter8IntoIterBY_ENCINvNtB13_10punctuated4foldBZ_B1I_NtNvCsfQFyxU9Vz2T_11yoke_derive16replace_lifetime15ReplaceLifetimeNvYB4B_NtNtNtB13_3gen4fold4Fold18fold_generic_paramE0EE9from_iterB4F_, symObjAddr: 0x1904, symBinAddr: 0x3CBB4, symSize: 0x28 }
  - { offset: 0x76D0E, size: 0x8, addend: 0x0, symName: __RNvXs_NtNtCsiTraAjBDcu4_5alloc3vec16in_place_collectINtB6_3VecTNtNtCsc29TF2YcYso_3syn8generics13CapturedParamNtNtB13_5token5CommaEEINtNtB6_14spec_from_iter12SpecFromIterBY_INtNtNtNtCsaNl6UpbT7bw_4core4iter8adapters3map3MapINtNtB6_9into_iter8IntoIterBY_ENCINvNtB13_10punctuated4foldBZ_B1J_NtNvCsfQFyxU9Vz2T_11yoke_derive16replace_lifetime15ReplaceLifetimeNvYB4C_NtNtNtB13_3gen4fold4Fold19fold_captured_paramE0EE9from_iterB4G_, symObjAddr: 0x192C, symBinAddr: 0x3CBDC, symSize: 0x28 }
  - { offset: 0x76D6A, size: 0x8, addend: 0x0, symName: __RNvXs_NtNtCsiTraAjBDcu4_5alloc3vec16in_place_collectINtB6_3VecTNtNtCsc29TF2YcYso_3syn8generics14TypeParamBoundNtNtB13_5token4PlusEEINtNtB6_14spec_from_iter12SpecFromIterBY_INtNtNtNtCsaNl6UpbT7bw_4core4iter8adapters3map3MapINtNtB6_9into_iter8IntoIterBY_ENCINvNtB13_10punctuated4foldBZ_B1K_NtNvCsfQFyxU9Vz2T_11yoke_derive16replace_lifetime15ReplaceLifetimeNvYB4C_NtNtNtB13_3gen4fold4Fold21fold_type_param_boundE0EE9from_iterB4G_, symObjAddr: 0x1954, symBinAddr: 0x3CC04, symSize: 0x28 }
  - { offset: 0x76DC6, size: 0x8, addend: 0x0, symName: __RNvXs_NtNtCsiTraAjBDcu4_5alloc3vec16in_place_collectINtB6_3VecTNtNtCsc29TF2YcYso_3syn8generics14WherePredicateNtNtB13_5token5CommaEEINtNtB6_14spec_from_iter12SpecFromIterBY_INtNtNtNtCsaNl6UpbT7bw_4core4iter8adapters3map3MapINtNtB6_9into_iter8IntoIterBY_ENCINvNtB13_10punctuated4foldBZ_B1K_NtNvCsfQFyxU9Vz2T_11yoke_derive16replace_lifetime15ReplaceLifetimeNvYB4D_NtNtNtB13_3gen4fold4Fold20fold_where_predicateE0EE9from_iterB4H_, symObjAddr: 0x197C, symBinAddr: 0x3CC2C, symSize: 0x28 }
  - { offset: 0x76E22, size: 0x8, addend: 0x0, symName: __RNvXs_NtNtCsiTraAjBDcu4_5alloc3vec16in_place_collectINtB6_3VecTNtNtCsc29TF2YcYso_3syn8lifetime8LifetimeNtNtB13_5token4PlusEEINtNtB6_14spec_from_iter12SpecFromIterBY_INtNtNtNtCsaNl6UpbT7bw_4core4iter8adapters3map3MapINtNtB6_9into_iter8IntoIterBY_ENCINvNtB13_10punctuated4foldBZ_B1D_NtNvCsfQFyxU9Vz2T_11yoke_derive16replace_lifetime15ReplaceLifetimeNvYB4v_NtNtNtB13_3gen4fold4Fold13fold_lifetimeE0EE9from_iterB4z_, symObjAddr: 0x19A4, symBinAddr: 0x3CC54, symSize: 0x28 }
  - { offset: 0x76E85, size: 0x8, addend: 0x0, symName: __RNvXse_NtCsiTraAjBDcu4_5alloc3vecINtB5_3VecNtNtCsc29TF2YcYso_3syn4expr3ArmENtNtNtNtCsaNl6UpbT7bw_4core4iter6traits7collect12IntoIterator9into_iterCsfQFyxU9Vz2T_11yoke_derive, symObjAddr: 0x1DF8, symBinAddr: 0x3D0A8, symSize: 0xE4 }
  - { offset: 0x77117, size: 0x8, addend: 0x0, symName: __RNvXse_NtCsiTraAjBDcu4_5alloc3vecINtB5_3VecNtNtCsc29TF2YcYso_3syn4item11ForeignItemENtNtNtNtCsaNl6UpbT7bw_4core4iter6traits7collect12IntoIterator9into_iterCsfQFyxU9Vz2T_11yoke_derive, symObjAddr: 0x1EDC, symBinAddr: 0x3D18C, symSize: 0xE4 }
  - { offset: 0x773A9, size: 0x8, addend: 0x0, symName: __RNvXse_NtCsiTraAjBDcu4_5alloc3vecINtB5_3VecNtNtCsc29TF2YcYso_3syn4item4ItemENtNtNtNtCsaNl6UpbT7bw_4core4iter6traits7collect12IntoIterator9into_iterCsfQFyxU9Vz2T_11yoke_derive, symObjAddr: 0x1FC0, symBinAddr: 0x3D270, symSize: 0xE4 }
  - { offset: 0x7763B, size: 0x8, addend: 0x0, symName: __RNvXse_NtCsiTraAjBDcu4_5alloc3vecINtB5_3VecNtNtCsc29TF2YcYso_3syn4item8ImplItemENtNtNtNtCsaNl6UpbT7bw_4core4iter6traits7collect12IntoIterator9into_iterCsfQFyxU9Vz2T_11yoke_derive, symObjAddr: 0x20A4, symBinAddr: 0x3D354, symSize: 0xE4 }
  - { offset: 0x778CD, size: 0x8, addend: 0x0, symName: __RNvXse_NtCsiTraAjBDcu4_5alloc3vecINtB5_3VecNtNtCsc29TF2YcYso_3syn4item9TraitItemENtNtNtNtCsaNl6UpbT7bw_4core4iter6traits7collect12IntoIterator9into_iterCsfQFyxU9Vz2T_11yoke_derive, symObjAddr: 0x2188, symBinAddr: 0x3D438, symSize: 0xE4 }
  - { offset: 0x77B5F, size: 0x8, addend: 0x0, symName: __RNvXse_NtCsiTraAjBDcu4_5alloc3vecINtB5_3VecNtNtCsc29TF2YcYso_3syn4stmt4StmtENtNtNtNtCsaNl6UpbT7bw_4core4iter6traits7collect12IntoIterator9into_iterCsfQFyxU9Vz2T_11yoke_derive, symObjAddr: 0x226C, symBinAddr: 0x3D51C, symSize: 0xE4 }
  - { offset: 0x77DF1, size: 0x8, addend: 0x0, symName: __RNvXse_NtCsiTraAjBDcu4_5alloc3vecINtB5_3VecTNtNtCsc29TF2YcYso_3syn2ty4TypeNtNtBK_5token5CommaEENtNtNtNtCsaNl6UpbT7bw_4core4iter6traits7collect12IntoIterator9into_iterCsfQFyxU9Vz2T_11yoke_derive, symObjAddr: 0x2350, symBinAddr: 0x3D600, symSize: 0xE4 }
  - { offset: 0x78083, size: 0x8, addend: 0x0, symName: __RNvXse_NtCsiTraAjBDcu4_5alloc3vecINtB5_3VecTNtNtCsc29TF2YcYso_3syn2ty9BareFnArgNtNtBK_5token5CommaEENtNtNtNtCsaNl6UpbT7bw_4core4iter6traits7collect12IntoIterator9into_iterCsfQFyxU9Vz2T_11yoke_derive, symObjAddr: 0x2434, symBinAddr: 0x3D6E4, symSize: 0xE4 }
  - { offset: 0x78315, size: 0x8, addend: 0x0, symName: __RNvXse_NtCsiTraAjBDcu4_5alloc3vecINtB5_3VecTNtNtCsc29TF2YcYso_3syn3pat3PatNtNtBK_5token2OrEENtNtNtNtCsaNl6UpbT7bw_4core4iter6traits7collect12IntoIterator9into_iterCsfQFyxU9Vz2T_11yoke_derive, symObjAddr: 0x2518, symBinAddr: 0x3D7C8, symSize: 0xE4 }
  - { offset: 0x785A7, size: 0x8, addend: 0x0, symName: __RNvXse_NtCsiTraAjBDcu4_5alloc3vecINtB5_3VecTNtNtCsc29TF2YcYso_3syn3pat3PatNtNtBK_5token5CommaEENtNtNtNtCsaNl6UpbT7bw_4core4iter6traits7collect12IntoIterator9into_iterCsfQFyxU9Vz2T_11yoke_derive, symObjAddr: 0x25FC, symBinAddr: 0x3D8AC, symSize: 0xE4 }
  - { offset: 0x78839, size: 0x8, addend: 0x0, symName: __RNvXse_NtCsiTraAjBDcu4_5alloc3vecINtB5_3VecTNtNtCsc29TF2YcYso_3syn3pat8FieldPatNtNtBK_5token5CommaEENtNtNtNtCsaNl6UpbT7bw_4core4iter6traits7collect12IntoIterator9into_iterCsfQFyxU9Vz2T_11yoke_derive, symObjAddr: 0x26E0, symBinAddr: 0x3D990, symSize: 0xE4 }
  - { offset: 0x78ACB, size: 0x8, addend: 0x0, symName: __RNvXse_NtCsiTraAjBDcu4_5alloc3vecINtB5_3VecTNtNtCsc29TF2YcYso_3syn4data7VariantNtNtBK_5token5CommaEENtNtNtNtCsaNl6UpbT7bw_4core4iter6traits7collect12IntoIterator9into_iterCsfQFyxU9Vz2T_11yoke_derive, symObjAddr: 0x27C4, symBinAddr: 0x3DA74, symSize: 0xE4 }
  - { offset: 0x78D5D, size: 0x8, addend: 0x0, symName: __RNvXse_NtCsiTraAjBDcu4_5alloc3vecINtB5_3VecTNtNtCsc29TF2YcYso_3syn4expr10FieldValueNtNtBK_5token5CommaEENtNtNtNtCsaNl6UpbT7bw_4core4iter6traits7collect12IntoIterator9into_iterCsfQFyxU9Vz2T_11yoke_derive, symObjAddr: 0x28A8, symBinAddr: 0x3DB58, symSize: 0xE4 }
  - { offset: 0x78FEF, size: 0x8, addend: 0x0, symName: __RNvXse_NtCsiTraAjBDcu4_5alloc3vecINtB5_3VecTNtNtCsc29TF2YcYso_3syn4expr4ExprNtNtBK_5token5CommaEENtNtNtNtCsaNl6UpbT7bw_4core4iter6traits7collect12IntoIterator9into_iterCsfQFyxU9Vz2T_11yoke_derive, symObjAddr: 0x298C, symBinAddr: 0x3DC3C, symSize: 0xE4 }
  - { offset: 0x79281, size: 0x8, addend: 0x0, symName: __RNvXse_NtCsiTraAjBDcu4_5alloc3vecINtB5_3VecTNtNtCsc29TF2YcYso_3syn4item5FnArgNtNtBK_5token5CommaEENtNtNtNtCsaNl6UpbT7bw_4core4iter6traits7collect12IntoIterator9into_iterCsfQFyxU9Vz2T_11yoke_derive, symObjAddr: 0x2A70, symBinAddr: 0x3DD20, symSize: 0xE4 }
  - { offset: 0x79513, size: 0x8, addend: 0x0, symName: __RNvXse_NtCsiTraAjBDcu4_5alloc3vecINtB5_3VecTNtNtCsc29TF2YcYso_3syn4item7UseTreeNtNtBK_5token5CommaEENtNtNtNtCsaNl6UpbT7bw_4core4iter6traits7collect12IntoIterator9into_iterCsfQFyxU9Vz2T_11yoke_derive, symObjAddr: 0x2B54, symBinAddr: 0x3DE04, symSize: 0xE4 }
  - { offset: 0x797A5, size: 0x8, addend: 0x0, symName: __RNvXse_NtCsiTraAjBDcu4_5alloc3vecINtB5_3VecTNtNtCsc29TF2YcYso_3syn4path15GenericArgumentNtNtBK_5token5CommaEENtNtNtNtCsaNl6UpbT7bw_4core4iter6traits7collect12IntoIterator9into_iterCsfQFyxU9Vz2T_11yoke_derive, symObjAddr: 0x2C38, symBinAddr: 0x3DEE8, symSize: 0xE4 }
  - { offset: 0x79A37, size: 0x8, addend: 0x0, symName: __RNvXse_NtCsiTraAjBDcu4_5alloc3vecINtB5_3VecTNtNtCsc29TF2YcYso_3syn8generics12GenericParamNtNtBK_5token5CommaEENtNtNtNtCsaNl6UpbT7bw_4core4iter6traits7collect12IntoIterator9into_iterCsfQFyxU9Vz2T_11yoke_derive, symObjAddr: 0x2D1C, symBinAddr: 0x3DFCC, symSize: 0xE4 }
  - { offset: 0x79CC9, size: 0x8, addend: 0x0, symName: __RNvXse_NtCsiTraAjBDcu4_5alloc3vecINtB5_3VecTNtNtCsc29TF2YcYso_3syn8generics13CapturedParamNtNtBK_5token5CommaEENtNtNtNtCsaNl6UpbT7bw_4core4iter6traits7collect12IntoIterator9into_iterCsfQFyxU9Vz2T_11yoke_derive, symObjAddr: 0x2E00, symBinAddr: 0x3E0B0, symSize: 0xE4 }
  - { offset: 0x79F5B, size: 0x8, addend: 0x0, symName: __RNvXse_NtCsiTraAjBDcu4_5alloc3vecINtB5_3VecTNtNtCsc29TF2YcYso_3syn8generics14WherePredicateNtNtBK_5token5CommaEENtNtNtNtCsaNl6UpbT7bw_4core4iter6traits7collect12IntoIterator9into_iterCsfQFyxU9Vz2T_11yoke_derive, symObjAddr: 0x2EE4, symBinAddr: 0x3E194, symSize: 0xE4 }
  - { offset: 0x7A1ED, size: 0x8, addend: 0x0, symName: __RNvXse_NtCsiTraAjBDcu4_5alloc3vecINtB5_3VecTNtNtCsc29TF2YcYso_3syn8lifetime8LifetimeNtNtBK_5token4PlusEENtNtNtNtCsaNl6UpbT7bw_4core4iter6traits7collect12IntoIterator9into_iterCsfQFyxU9Vz2T_11yoke_derive, symObjAddr: 0x2FC8, symBinAddr: 0x3E278, symSize: 0xE4 }
  - { offset: 0x7A5A1, size: 0x8, addend: 0x0, symName: __RNvXsg_NtCsiTraAjBDcu4_5alloc3vecQINtB5_3VecNtCs3Xr6wkqZdQw_12synstructure11BindingInfoENtNtNtNtCsaNl6UpbT7bw_4core4iter6traits7collect12IntoIterator9into_iterCsfQFyxU9Vz2T_11yoke_derive, symObjAddr: 0x30AC, symBinAddr: 0x3E35C, symSize: 0xAC }
  - { offset: 0x7A7B1, size: 0x8, addend: 0x0, symName: __RNvXsg_NtCsiTraAjBDcu4_5alloc3vecQINtB5_3VecNtCs3Xr6wkqZdQw_12synstructure11VariantInfoENtNtNtNtCsaNl6UpbT7bw_4core4iter6traits7collect12IntoIterator9into_iterCsfQFyxU9Vz2T_11yoke_derive, symObjAddr: 0x3158, symBinAddr: 0x3E408, symSize: 0xAC }
  - { offset: 0x7AA4A, size: 0x8, addend: 0x0, symName: __RNvXsn_NtCsiTraAjBDcu4_5alloc3vecINtB5_3VecNtCshnvkK9b4wzu_11proc_macro25IdentENtNtNtCsaNl6UpbT7bw_4core3ops4drop4Drop4dropCsfQFyxU9Vz2T_11yoke_derive, symObjAddr: 0x3204, symBinAddr: 0x3E4B4, symSize: 0x38 }
  - { offset: 0x7AAFA, size: 0x8, addend: 0x0, symName: __RNvXsn_NtCsiTraAjBDcu4_5alloc3vecINtB5_3VecNtNtCsc29TF2YcYso_3syn8generics14WherePredicateENtNtNtCsaNl6UpbT7bw_4core3ops4drop4Drop4dropCsfQFyxU9Vz2T_11yoke_derive, symObjAddr: 0x323C, symBinAddr: 0x3E4EC, symSize: 0x38 }
  - { offset: 0x7ABAA, size: 0x8, addend: 0x0, symName: __RNvXsn_NtCsiTraAjBDcu4_5alloc3vecINtB5_3VecNtNtCsc29TF2YcYso_3syn8generics9TypeParamENtNtNtCsaNl6UpbT7bw_4core3ops4drop4Drop4dropCsfQFyxU9Vz2T_11yoke_derive, symObjAddr: 0x3274, symBinAddr: 0x3E524, symSize: 0x38 }
  - { offset: 0x80C2F, size: 0x8, addend: 0x0, symName: __RINvMsi_NtCsiTraAjBDcu4_5alloc3vecINtB6_3VecNtCshnvkK9b4wzu_11proc_macro25IdentE14extend_trustedINtNtNtNtCsaNl6UpbT7bw_4core4iter8adapters3map3MapINtNtNtB1F_5slice4iter4IterNtNtCsc29TF2YcYso_3syn8generics9TypeParamENCNvCsfQFyxU9Vz2T_11yoke_derive20yokeable_derive_impls_0EEB3v_, symObjAddr: 0x0, symBinAddr: 0x3B2B0, symSize: 0x16C }
  - { offset: 0x80F25, size: 0x8, addend: 0x0, symName: __RINvMsi_NtCsiTraAjBDcu4_5alloc3vecINtB6_3VecNtNtCsc29TF2YcYso_3syn8generics14WherePredicateE14extend_trustedINtNtNtNtCsaNl6UpbT7bw_4core4iter8adapters3map3MapINtNtNtB1R_5slice4iter4IterNtCshnvkK9b4wzu_11proc_macro25IdentENCNvCsfQFyxU9Vz2T_11yoke_derive20yokeable_derive_impls0_0EEB3B_, symObjAddr: 0x16C, symBinAddr: 0x3B41C, symSize: 0x16C }
  - { offset: 0x811DA, size: 0x8, addend: 0x0, symName: __RINvMsi_NtCsiTraAjBDcu4_5alloc3vecINtB6_3VecNtNtCsc29TF2YcYso_3syn8generics14WherePredicateE14extend_trustedINtNtNtNtCsaNl6UpbT7bw_4core4iter8adapters3map3MapINtNtNtB1R_5slice4iter4IterNtCshnvkK9b4wzu_11proc_macro25IdentENCNvCsfQFyxU9Vz2T_11yoke_derive20yokeable_derive_impls2_0EEB3B_, symObjAddr: 0x2D8, symBinAddr: 0x3B588, symSize: 0x16C }
  - { offset: 0x815A2, size: 0x8, addend: 0x0, symName: __RINvMsi_NtCsiTraAjBDcu4_5alloc3vecINtB6_3VecNtNtCsc29TF2YcYso_3syn8generics9TypeParamE16extend_desugaredINtNtNtNtCsaNl6UpbT7bw_4core4iter8adapters3map3MapNtBI_10TypeParamsNCNvCsfQFyxU9Vz2T_11yoke_derive20yokeable_derive_impl0EEB2N_, symObjAddr: 0x444, symBinAddr: 0x3B6F4, symSize: 0x1FC }
  - { offset: 0x8194C, size: 0x8, addend: 0x0, symName: __RNvMs_NtCsiTraAjBDcu4_5alloc3vecINtB4_3VecNtCshnvkK9b4wzu_11proc_macro25IdentE7reserveCsfQFyxU9Vz2T_11yoke_derive, symObjAddr: 0xE08, symBinAddr: 0x3C0B8, symSize: 0xC8 }
  - { offset: 0x81B57, size: 0x8, addend: 0x0, symName: __RNvMs_NtCsiTraAjBDcu4_5alloc3vecINtB4_3VecNtCshnvkK9b4wzu_11proc_macro25IdentE8as_sliceCsfQFyxU9Vz2T_11yoke_derive, symObjAddr: 0xED0, symBinAddr: 0x3C180, symSize: 0x6C }
  - { offset: 0x81D27, size: 0x8, addend: 0x0, symName: __RNvMs_NtCsiTraAjBDcu4_5alloc3vecINtB4_3VecNtNtCsc29TF2YcYso_3syn8generics14WherePredicateE7reserveCsfQFyxU9Vz2T_11yoke_derive, symObjAddr: 0xF3C, symBinAddr: 0x3C1EC, symSize: 0xC8 }
  - { offset: 0x81FA4, size: 0x8, addend: 0x0, symName: __RNvMs_NtCsiTraAjBDcu4_5alloc3vecINtB4_3VecNtNtCsc29TF2YcYso_3syn8generics9TypeParamE7reserveCsfQFyxU9Vz2T_11yoke_derive, symObjAddr: 0x1004, symBinAddr: 0x3C2B4, symSize: 0xC8 }
  - { offset: 0x821A2, size: 0x8, addend: 0x0, symName: __RNvMs_NtCsiTraAjBDcu4_5alloc3vecINtB4_3VecNtNtCsc29TF2YcYso_3syn8generics9TypeParamE8as_sliceCsfQFyxU9Vz2T_11yoke_derive, symObjAddr: 0x10CC, symBinAddr: 0x3C37C, symSize: 0x6C }
  - { offset: 0x823B0, size: 0x8, addend: 0x0, symName: __RNvXs4_NtNtCs4EAaWzSXu1l_5quote9___private3extINtNtCsiTraAjBDcu4_5alloc3vec3VecNtCshnvkK9b4wzu_11proc_macro25IdentENtB5_16RepAsIteratorExt15quote_into_iterCsfQFyxU9Vz2T_11yoke_derive, symObjAddr: 0x1458, symBinAddr: 0x3C708, symSize: 0x38 }
  - { offset: 0x823E5, size: 0x8, addend: 0x0, symName: __RNvXs4_NtNtCs4EAaWzSXu1l_5quote9___private3extINtNtCsiTraAjBDcu4_5alloc3vec3VecNtNtCsc29TF2YcYso_3syn8generics14WherePredicateENtB5_16RepAsIteratorExt15quote_into_iterCsfQFyxU9Vz2T_11yoke_derive, symObjAddr: 0x1490, symBinAddr: 0x3C740, symSize: 0x38 }
  - { offset: 0x8241A, size: 0x8, addend: 0x0, symName: __RNvXs4_NtNtCs4EAaWzSXu1l_5quote9___private3extINtNtCsiTraAjBDcu4_5alloc3vec3VecNtNtCsc29TF2YcYso_3syn8generics9TypeParamENtB5_16RepAsIteratorExt15quote_into_iterCsfQFyxU9Vz2T_11yoke_derive, symObjAddr: 0x14C8, symBinAddr: 0x3C778, symSize: 0x38 }
  - { offset: 0x85067, size: 0x8, addend: 0x0, symName: __RNvXs1_NtNtNtCsaNl6UpbT7bw_4core3ops8function5implsQNCNvCsfQFyxU9Vz2T_11yoke_derive20yokeable_derive_impls3_0INtB7_5FnMutTRNtCs3Xr6wkqZdQw_12synstructure11BindingInfoEE8call_mutBS_, symObjAddr: 0x0, symBinAddr: 0x3E55C, symSize: 0x30 }
  - { offset: 0x85089, size: 0x8, addend: 0x0, symName: ___rustc_proc_macro_decls_b89bf288bfaf8d49__, symObjAddr: 0xA280, symBinAddr: 0x285020, symSize: 0x0 }
  - { offset: 0x85097, size: 0x8, addend: 0x0, symName: __RNvCsfQFyxU9Vz2T_11yoke_derive15yokeable_derive, symObjAddr: 0x26E0, symBinAddr: 0x40C14, symSize: 0x178 }
  - { offset: 0x8510C, size: 0x8, addend: 0x0, symName: __RNvCsfQFyxU9Vz2T_11yoke_derive20yokeable_derive_impl, symObjAddr: 0x2858, symBinAddr: 0x40D8C, symSize: 0x5AF4 }
  - { offset: 0x85F68, size: 0x8, addend: 0x0, symName: __RNCNvCsfQFyxU9Vz2T_11yoke_derive20yokeable_derive_impl0B3_, symObjAddr: 0x834C, symBinAddr: 0x46880, symSize: 0xE0 }
  - { offset: 0x85FB3, size: 0x8, addend: 0x0, symName: __RNCNvCsfQFyxU9Vz2T_11yoke_derive20yokeable_derive_impls_0B3_, symObjAddr: 0x842C, symBinAddr: 0x46960, symSize: 0x38 }
  - { offset: 0x85FE9, size: 0x8, addend: 0x0, symName: __RNCNvCsfQFyxU9Vz2T_11yoke_derive20yokeable_derive_impls0_0B3_, symObjAddr: 0x8464, symBinAddr: 0x46998, symSize: 0xCC }
  - { offset: 0x86034, size: 0x8, addend: 0x0, symName: __RNCNvCsfQFyxU9Vz2T_11yoke_derive20yokeable_derive_impls1_0B3_, symObjAddr: 0x8530, symBinAddr: 0x46A64, symSize: 0x19C }
  - { offset: 0x8607F, size: 0x8, addend: 0x0, symName: __RNCNvCsfQFyxU9Vz2T_11yoke_derive20yokeable_derive_impls2_0B3_, symObjAddr: 0x86CC, symBinAddr: 0x46C00, symSize: 0xCC }
  - { offset: 0x860CA, size: 0x8, addend: 0x0, symName: __RNCNvCsfQFyxU9Vz2T_11yoke_derive20yokeable_derive_impls3_0B3_, symObjAddr: 0x8798, symBinAddr: 0x46CCC, symSize: 0x2C }
  - { offset: 0x860FC, size: 0x8, addend: 0x0, symName: __RNCNvCsfQFyxU9Vz2T_11yoke_derive20yokeable_derive_impls4_0B3_, symObjAddr: 0x87C4, symBinAddr: 0x46CF8, symSize: 0x4C }
  - { offset: 0x86151, size: 0x8, addend: 0x0, symName: __RNCNCNvCsfQFyxU9Vz2T_11yoke_derive20yokeable_derive_impls4_00B5_, symObjAddr: 0x8810, symBinAddr: 0x46D44, symSize: 0x70C }
  - { offset: 0x862D7, size: 0x8, addend: 0x0, symName: __RNCNvCsfQFyxU9Vz2T_11yoke_derive20yokeable_derive_impls5_0B3_, symObjAddr: 0x8F1C, symBinAddr: 0x47450, symSize: 0x370 }
  - { offset: 0x863F9, size: 0x8, addend: 0x0, symName: __RNvCsfQFyxU9Vz2T_11yoke_derive9static_lt, symObjAddr: 0x928C, symBinAddr: 0x477C0, symSize: 0x4C }
  - { offset: 0x86417, size: 0x8, addend: 0x0, symName: __RNvCsfQFyxU9Vz2T_11yoke_derive9custom_lt, symObjAddr: 0x92D8, symBinAddr: 0x4780C, symSize: 0x54 }
  - { offset: 0x86445, size: 0x8, addend: 0x0, symName: __RNvCsfQFyxU9Vz2T_11yoke_derive16replace_lifetime, symObjAddr: 0x932C, symBinAddr: 0x47860, symSize: 0x9C }
  - { offset: 0x8648D, size: 0x8, addend: 0x0, symName: __RNvXNvCsfQFyxU9Vz2T_11yoke_derive16replace_lifetimeNtB2_15ReplaceLifetimeNtNtNtCsc29TF2YcYso_3syn3gen4fold4Fold13fold_lifetime, symObjAddr: 0x93C8, symBinAddr: 0x478FC, symSize: 0x6C }
  - { offset: 0x88B6F, size: 0x8, addend: 0x0, symName: __RNvXs1_NtNtNtCsaNl6UpbT7bw_4core3ops8function5implsQNCNvCsfQFyxU9Vz2T_11yoke_derive20yokeable_derive_impls3_0INtB7_5FnMutTRNtCs3Xr6wkqZdQw_12synstructure11BindingInfoEE8call_mutBS_, symObjAddr: 0x0, symBinAddr: 0x3E55C, symSize: 0x30 }
  - { offset: 0x88BBE, size: 0x8, addend: 0x0, symName: __RNvXs1_NtNtNtCsaNl6UpbT7bw_4core3ops8function5implsQNCNvCsfQFyxU9Vz2T_11yoke_derive20yokeable_derive_impls5_0INtB7_5FnMutTRNtCs3Xr6wkqZdQw_12synstructure11BindingInfoEE8call_mutBS_, symObjAddr: 0x30, symBinAddr: 0x3E58C, symSize: 0x30 }
  - { offset: 0x89721, size: 0x8, addend: 0x0, symName: __RNvYNtNvCsfQFyxU9Vz2T_11yoke_derive16replace_lifetime15ReplaceLifetimeNtNtNtCsc29TF2YcYso_3syn3gen4fold4Fold10fold_blockB6_, symObjAddr: 0x60, symBinAddr: 0x3E5BC, symSize: 0x34 }
  - { offset: 0x89765, size: 0x8, addend: 0x0, symName: __RNvYNtNvCsfQFyxU9Vz2T_11yoke_derive16replace_lifetime15ReplaceLifetimeNtNtNtCsc29TF2YcYso_3syn3gen4fold4Fold10fold_fieldB6_, symObjAddr: 0x94, symBinAddr: 0x3E5F0, symSize: 0x34 }
  - { offset: 0x897AC, size: 0x8, addend: 0x0, symName: __RNvYNtNvCsfQFyxU9Vz2T_11yoke_derive16replace_lifetime15ReplaceLifetimeNtNtNtCsc29TF2YcYso_3syn3gen4fold4Fold10fold_identB6_, symObjAddr: 0xC8, symBinAddr: 0x3E624, symSize: 0x34 }
  - { offset: 0x897F3, size: 0x8, addend: 0x0, symName: __RNvYNtNvCsfQFyxU9Vz2T_11yoke_derive16replace_lifetime15ReplaceLifetimeNtNtNtCsc29TF2YcYso_3syn3gen4fold4Fold10fold_indexB6_, symObjAddr: 0xFC, symBinAddr: 0x3E658, symSize: 0x3C }
  - { offset: 0x89839, size: 0x8, addend: 0x0, symName: __RNvYNtNvCsfQFyxU9Vz2T_11yoke_derive16replace_lifetime15ReplaceLifetimeNtNtNtCsc29TF2YcYso_3syn3gen4fold4Fold10fold_labelB6_, symObjAddr: 0x138, symBinAddr: 0x3E694, symSize: 0x34 }
  - { offset: 0x89880, size: 0x8, addend: 0x0, symName: __RNvYNtNvCsfQFyxU9Vz2T_11yoke_derive16replace_lifetime15ReplaceLifetimeNtNtNtCsc29TF2YcYso_3syn3gen4fold4Fold10fold_localB6_, symObjAddr: 0x16C, symBinAddr: 0x3E6C8, symSize: 0x34 }
  - { offset: 0x898C7, size: 0x8, addend: 0x0, symName: __RNvYNtNvCsfQFyxU9Vz2T_11yoke_derive16replace_lifetime15ReplaceLifetimeNtNtNtCsc29TF2YcYso_3syn3gen4fold4Fold10fold_macroB6_, symObjAddr: 0x1A0, symBinAddr: 0x3E6FC, symSize: 0x34 }
  - { offset: 0x8990E, size: 0x8, addend: 0x0, symName: __RNvYNtNvCsfQFyxU9Vz2T_11yoke_derive16replace_lifetime15ReplaceLifetimeNtNtNtCsc29TF2YcYso_3syn3gen4fold4Fold10fold_qselfB6_, symObjAddr: 0x1D4, symBinAddr: 0x3E730, symSize: 0x34 }
  - { offset: 0x89955, size: 0x8, addend: 0x0, symName: __RNvYNtNvCsfQFyxU9Vz2T_11yoke_derive16replace_lifetime15ReplaceLifetimeNtNtNtCsc29TF2YcYso_3syn3gen4fold4Fold10fold_un_opB6_, symObjAddr: 0x208, symBinAddr: 0x3E764, symSize: 0x64 }
  - { offset: 0x8999B, size: 0x8, addend: 0x0, symName: __RNvYNtNvCsfQFyxU9Vz2T_11yoke_derive16replace_lifetime15ReplaceLifetimeNtNtNtCsc29TF2YcYso_3syn3gen4fold4Fold11fold_bin_opB6_, symObjAddr: 0x26C, symBinAddr: 0x3E7C8, symSize: 0x40 }
  - { offset: 0x899DF, size: 0x8, addend: 0x0, symName: __RNvYNtNvCsfQFyxU9Vz2T_11yoke_derive16replace_lifetime15ReplaceLifetimeNtNtNtCsc29TF2YcYso_3syn3gen4fold4Fold11fold_fieldsB6_, symObjAddr: 0x2AC, symBinAddr: 0x3E808, symSize: 0x34 }
  - { offset: 0x89A26, size: 0x8, addend: 0x0, symName: __RNvYNtNvCsfQFyxU9Vz2T_11yoke_derive16replace_lifetime15ReplaceLifetimeNtNtNtCsc29TF2YcYso_3syn3gen4fold4Fold11fold_fn_argB6_, symObjAddr: 0x2E0, symBinAddr: 0x3E83C, symSize: 0x34 }
  - { offset: 0x89A6D, size: 0x8, addend: 0x0, symName: __RNvYNtNvCsfQFyxU9Vz2T_11yoke_derive16replace_lifetime15ReplaceLifetimeNtNtNtCsc29TF2YcYso_3syn3gen4fold4Fold11fold_memberB6_, symObjAddr: 0x314, symBinAddr: 0x3E870, symSize: 0x34 }
  - { offset: 0x89AB4, size: 0x8, addend: 0x0, symName: __RNvYNtNvCsfQFyxU9Vz2T_11yoke_derive16replace_lifetime15ReplaceLifetimeNtNtNtCsc29TF2YcYso_3syn3gen4fold4Fold11fold_pat_orB6_, symObjAddr: 0x348, symBinAddr: 0x3E8A4, symSize: 0x34 }
  - { offset: 0x89AFB, size: 0x8, addend: 0x0, symName: __RNvYNtNvCsfQFyxU9Vz2T_11yoke_derive16replace_lifetime15ReplaceLifetimeNtNtNtCsc29TF2YcYso_3syn3gen4fold4Fold12fold_expr_ifB6_, symObjAddr: 0x37C, symBinAddr: 0x3E8D8, symSize: 0x34 }
  - { offset: 0x89B3F, size: 0x8, addend: 0x0, symName: __RNvYNtNvCsfQFyxU9Vz2T_11yoke_derive16replace_lifetime15ReplaceLifetimeNtNtNtCsc29TF2YcYso_3syn3gen4fold4Fold12fold_item_fnB6_, symObjAddr: 0x3B0, symBinAddr: 0x3E90C, symSize: 0x34 }
  - { offset: 0x89B86, size: 0x8, addend: 0x0, symName: __RNvYNtNvCsfQFyxU9Vz2T_11yoke_derive16replace_lifetime15ReplaceLifetimeNtNtNtCsc29TF2YcYso_3syn3gen4fold4Fold12fold_lit_intB6_, symObjAddr: 0x3E4, symBinAddr: 0x3E940, symSize: 0x3C }
  - { offset: 0x89BCC, size: 0x8, addend: 0x0, symName: __RNvYNtNvCsfQFyxU9Vz2T_11yoke_derive16replace_lifetime15ReplaceLifetimeNtNtNtCsc29TF2YcYso_3syn3gen4fold4Fold12fold_lit_strB6_, symObjAddr: 0x420, symBinAddr: 0x3E97C, symSize: 0x3C }
  - { offset: 0x89C12, size: 0x8, addend: 0x0, symName: __RNvYNtNvCsfQFyxU9Vz2T_11yoke_derive16replace_lifetime15ReplaceLifetimeNtNtNtCsc29TF2YcYso_3syn3gen4fold4Fold12fold_variantB6_, symObjAddr: 0x45C, symBinAddr: 0x3E9B8, symSize: 0x34 }
  - { offset: 0x89C59, size: 0x8, addend: 0x0, symName: __RNvYNtNvCsfQFyxU9Vz2T_11yoke_derive16replace_lifetime15ReplaceLifetimeNtNtNtCsc29TF2YcYso_3syn3gen4fold4Fold13fold_expr_letB6_, symObjAddr: 0x490, symBinAddr: 0x3E9EC, symSize: 0x34 }
  - { offset: 0x89C9D, size: 0x8, addend: 0x0, symName: __RNvYNtNvCsfQFyxU9Vz2T_11yoke_derive16replace_lifetime15ReplaceLifetimeNtNtNtCsc29TF2YcYso_3syn3gen4fold4Fold13fold_expr_litB6_, symObjAddr: 0x4C4, symBinAddr: 0x3EA20, symSize: 0x34 }
  - { offset: 0x89CE1, size: 0x8, addend: 0x0, symName: __RNvYNtNvCsfQFyxU9Vz2T_11yoke_derive16replace_lifetime15ReplaceLifetimeNtNtNtCsc29TF2YcYso_3syn3gen4fold4Fold13fold_expr_tryB6_, symObjAddr: 0x4F8, symBinAddr: 0x3EA54, symSize: 0x34 }
  - { offset: 0x89D28, size: 0x8, addend: 0x0, symName: __RNvYNtNvCsfQFyxU9Vz2T_11yoke_derive16replace_lifetime15ReplaceLifetimeNtNtNtCsc29TF2YcYso_3syn3gen4fold4Fold13fold_genericsB6_, symObjAddr: 0x52C, symBinAddr: 0x3EA88, symSize: 0x34 }
  - { offset: 0x89D6F, size: 0x8, addend: 0x0, symName: __RNvYNtNvCsfQFyxU9Vz2T_11yoke_derive16replace_lifetime15ReplaceLifetimeNtNtNtCsc29TF2YcYso_3syn3gen4fold4Fold13fold_item_modB6_, symObjAddr: 0x560, symBinAddr: 0x3EABC, symSize: 0x34 }
  - { offset: 0x89DB6, size: 0x8, addend: 0x0, symName: __RNvYNtNvCsfQFyxU9Vz2T_11yoke_derive16replace_lifetime15ReplaceLifetimeNtNtNtCsc29TF2YcYso_3syn3gen4fold4Fold13fold_item_useB6_, symObjAddr: 0x594, symBinAddr: 0x3EAF0, symSize: 0x34 }
  - { offset: 0x89DFD, size: 0x8, addend: 0x0, symName: __RNvYNtNvCsfQFyxU9Vz2T_11yoke_derive16replace_lifetime15ReplaceLifetimeNtNtNtCsc29TF2YcYso_3syn3gen4fold4Fold13fold_lit_boolB6_, symObjAddr: 0x5C8, symBinAddr: 0x3EB24, symSize: 0x40 }
  - { offset: 0x89E43, size: 0x8, addend: 0x0, symName: __RNvYNtNvCsfQFyxU9Vz2T_11yoke_derive16replace_lifetime15ReplaceLifetimeNtNtNtCsc29TF2YcYso_3syn3gen4fold4Fold13fold_lit_byteB6_, symObjAddr: 0x608, symBinAddr: 0x3EB64, symSize: 0x3C }
  - { offset: 0x89E89, size: 0x8, addend: 0x0, symName: __RNvYNtNvCsfQFyxU9Vz2T_11yoke_derive16replace_lifetime15ReplaceLifetimeNtNtNtCsc29TF2YcYso_3syn3gen4fold4Fold13fold_lit_charB6_, symObjAddr: 0x644, symBinAddr: 0x3EBA0, symSize: 0x3C }
  - { offset: 0x89ECF, size: 0x8, addend: 0x0, symName: __RNvYNtNvCsfQFyxU9Vz2T_11yoke_derive16replace_lifetime15ReplaceLifetimeNtNtNtCsc29TF2YcYso_3syn3gen4fold4Fold13fold_lit_cstrB6_, symObjAddr: 0x680, symBinAddr: 0x3EBDC, symSize: 0x3C }
  - { offset: 0x89F15, size: 0x8, addend: 0x0, symName: __RNvYNtNvCsfQFyxU9Vz2T_11yoke_derive16replace_lifetime15ReplaceLifetimeNtNtNtCsc29TF2YcYso_3syn3gen4fold4Fold13fold_pat_restB6_, symObjAddr: 0x6BC, symBinAddr: 0x3EC18, symSize: 0x34 }
  - { offset: 0x89F5C, size: 0x8, addend: 0x0, symName: __RNvYNtNvCsfQFyxU9Vz2T_11yoke_derive16replace_lifetime15ReplaceLifetimeNtNtNtCsc29TF2YcYso_3syn3gen4fold4Fold13fold_pat_typeB6_, symObjAddr: 0x6F0, symBinAddr: 0x3EC4C, symSize: 0x34 }
  - { offset: 0x89FA3, size: 0x8, addend: 0x0, symName: __RNvYNtNvCsfQFyxU9Vz2T_11yoke_derive16replace_lifetime15ReplaceLifetimeNtNtNtCsc29TF2YcYso_3syn3gen4fold4Fold13fold_pat_wildB6_, symObjAddr: 0x724, symBinAddr: 0x3EC80, symSize: 0x34 }
  - { offset: 0x89FEA, size: 0x8, addend: 0x0, symName: __RNvYNtNvCsfQFyxU9Vz2T_11yoke_derive16replace_lifetime15ReplaceLifetimeNtNtNtCsc29TF2YcYso_3syn3gen4fold4Fold13fold_receiverB6_, symObjAddr: 0x758, symBinAddr: 0x3ECB4, symSize: 0x34 }
  - { offset: 0x8A031, size: 0x8, addend: 0x0, symName: __RNvYNtNvCsfQFyxU9Vz2T_11yoke_derive16replace_lifetime15ReplaceLifetimeNtNtNtCsc29TF2YcYso_3syn3gen4fold4Fold13fold_type_ptrB6_, symObjAddr: 0x78C, symBinAddr: 0x3ECE8, symSize: 0x34 }
  - { offset: 0x8A078, size: 0x8, addend: 0x0, symName: __RNvYNtNvCsfQFyxU9Vz2T_11yoke_derive16replace_lifetime15ReplaceLifetimeNtNtNtCsc29TF2YcYso_3syn3gen4fold4Fold13fold_use_globB6_, symObjAddr: 0x7C0, symBinAddr: 0x3ED1C, symSize: 0x5C }
  - { offset: 0x8A0BE, size: 0x8, addend: 0x0, symName: __RNvYNtNvCsfQFyxU9Vz2T_11yoke_derive16replace_lifetime15ReplaceLifetimeNtNtNtCsc29TF2YcYso_3syn3gen4fold4Fold13fold_use_nameB6_, symObjAddr: 0x81C, symBinAddr: 0x3ED78, symSize: 0x34 }
  - { offset: 0x8A105, size: 0x8, addend: 0x0, symName: __RNvYNtNvCsfQFyxU9Vz2T_11yoke_derive16replace_lifetime15ReplaceLifetimeNtNtNtCsc29TF2YcYso_3syn3gen4fold4Fold13fold_use_pathB6_, symObjAddr: 0x850, symBinAddr: 0x3EDAC, symSize: 0x34 }
  - { offset: 0x8A14C, size: 0x8, addend: 0x0, symName: __RNvYNtNvCsfQFyxU9Vz2T_11yoke_derive16replace_lifetime15ReplaceLifetimeNtNtNtCsc29TF2YcYso_3syn3gen4fold4Fold13fold_use_treeB6_, symObjAddr: 0x884, symBinAddr: 0x3EDE0, symSize: 0x34 }
  - { offset: 0x8A193, size: 0x8, addend: 0x0, symName: __RNvYNtNvCsfQFyxU9Vz2T_11yoke_derive16replace_lifetime15ReplaceLifetimeNtNtNtCsc29TF2YcYso_3syn3gen4fold4Fold13fold_variadicB6_, symObjAddr: 0x8B8, symBinAddr: 0x3EE14, symSize: 0x34 }
  - { offset: 0x8A1DA, size: 0x8, addend: 0x0, symName: __RNvYNtNvCsfQFyxU9Vz2T_11yoke_derive16replace_lifetime15ReplaceLifetimeNtNtNtCsc29TF2YcYso_3syn3gen4fold4Fold14fold_attributeB6_, symObjAddr: 0x8EC, symBinAddr: 0x3EE48, symSize: 0x34 }
  - { offset: 0x8A21E, size: 0x8, addend: 0x0, symName: __RNvYNtNvCsfQFyxU9Vz2T_11yoke_derive16replace_lifetime15ReplaceLifetimeNtNtNtCsc29TF2YcYso_3syn3gen4fold4Fold14fold_expr_callB6_, symObjAddr: 0x920, symBinAddr: 0x3EE7C, symSize: 0x34 }
  - { offset: 0x8A262, size: 0x8, addend: 0x0, symName: __RNvYNtNvCsfQFyxU9Vz2T_11yoke_derive16replace_lifetime15ReplaceLifetimeNtNtNtCsc29TF2YcYso_3syn3gen4fold4Fold14fold_expr_castB6_, symObjAddr: 0x954, symBinAddr: 0x3EEB0, symSize: 0x34 }
  - { offset: 0x8A2A6, size: 0x8, addend: 0x0, symName: __RNvYNtNvCsfQFyxU9Vz2T_11yoke_derive16replace_lifetime15ReplaceLifetimeNtNtNtCsc29TF2YcYso_3syn3gen4fold4Fold14fold_expr_loopB6_, symObjAddr: 0x988, symBinAddr: 0x3EEE4, symSize: 0x34 }
  - { offset: 0x8A2EA, size: 0x8, addend: 0x0, symName: __RNvYNtNvCsfQFyxU9Vz2T_11yoke_derive16replace_lifetime15ReplaceLifetimeNtNtNtCsc29TF2YcYso_3syn3gen4fold4Fold14fold_expr_pathB6_, symObjAddr: 0x9BC, symBinAddr: 0x3EF18, symSize: 0x34 }
  - { offset: 0x8A331, size: 0x8, addend: 0x0, symName: __RNvYNtNvCsfQFyxU9Vz2T_11yoke_derive16replace_lifetime15ReplaceLifetimeNtNtNtCsc29TF2YcYso_3syn3gen4fold4Fold14fold_field_patB6_, symObjAddr: 0x9F0, symBinAddr: 0x3EF4C, symSize: 0x34 }
  - { offset: 0x8A378, size: 0x8, addend: 0x0, symName: __RNvYNtNvCsfQFyxU9Vz2T_11yoke_derive16replace_lifetime15ReplaceLifetimeNtNtNtCsc29TF2YcYso_3syn3gen4fold4Fold14fold_impl_itemB6_, symObjAddr: 0xA24, symBinAddr: 0x3EF80, symSize: 0x34 }
  - { offset: 0x8A3BF, size: 0x8, addend: 0x0, symName: __RNvYNtNvCsfQFyxU9Vz2T_11yoke_derive16replace_lifetime15ReplaceLifetimeNtNtNtCsc29TF2YcYso_3syn3gen4fold4Fold14fold_item_enumB6_, symObjAddr: 0xA58, symBinAddr: 0x3EFB4, symSize: 0x34 }
  - { offset: 0x8A406, size: 0x8, addend: 0x0, symName: __RNvYNtNvCsfQFyxU9Vz2T_11yoke_derive16replace_lifetime15ReplaceLifetimeNtNtNtCsc29TF2YcYso_3syn3gen4fold4Fold14fold_item_implB6_, symObjAddr: 0xA8C, symBinAddr: 0x3EFE8, symSize: 0x34 }
  - { offset: 0x8A44D, size: 0x8, addend: 0x0, symName: __RNvYNtNvCsfQFyxU9Vz2T_11yoke_derive16replace_lifetime15ReplaceLifetimeNtNtNtCsc29TF2YcYso_3syn3gen4fold4Fold14fold_item_typeB6_, symObjAddr: 0xAC0, symBinAddr: 0x3F01C, symSize: 0x34 }
  - { offset: 0x8A494, size: 0x8, addend: 0x0, symName: __RNvYNtNvCsfQFyxU9Vz2T_11yoke_derive16replace_lifetime15ReplaceLifetimeNtNtNtCsc29TF2YcYso_3syn3gen4fold4Fold14fold_lit_floatB6_, symObjAddr: 0xAF4, symBinAddr: 0x3F050, symSize: 0x3C }
  - { offset: 0x8A4DA, size: 0x8, addend: 0x0, symName: __RNvYNtNvCsfQFyxU9Vz2T_11yoke_derive16replace_lifetime15ReplaceLifetimeNtNtNtCsc29TF2YcYso_3syn3gen4fold4Fold14fold_meta_listB6_, symObjAddr: 0xB30, symBinAddr: 0x3F08C, symSize: 0x34 }
  - { offset: 0x8A521, size: 0x8, addend: 0x0, symName: __RNvYNtNvCsfQFyxU9Vz2T_11yoke_derive16replace_lifetime15ReplaceLifetimeNtNtNtCsc29TF2YcYso_3syn3gen4fold4Fold14fold_pat_identB6_, symObjAddr: 0xB64, symBinAddr: 0x3F0C0, symSize: 0x34 }
  - { offset: 0x8A568, size: 0x8, addend: 0x0, symName: __RNvYNtNvCsfQFyxU9Vz2T_11yoke_derive16replace_lifetime15ReplaceLifetimeNtNtNtCsc29TF2YcYso_3syn3gen4fold4Fold14fold_pat_parenB6_, symObjAddr: 0xB98, symBinAddr: 0x3F0F4, symSize: 0x34 }
  - { offset: 0x8A5AF, size: 0x8, addend: 0x0, symName: __RNvYNtNvCsfQFyxU9Vz2T_11yoke_derive16replace_lifetime15ReplaceLifetimeNtNtNtCsc29TF2YcYso_3syn3gen4fold4Fold14fold_pat_sliceB6_, symObjAddr: 0xBCC, symBinAddr: 0x3F128, symSize: 0x34 }
  - { offset: 0x8A5F6, size: 0x8, addend: 0x0, symName: __RNvYNtNvCsfQFyxU9Vz2T_11yoke_derive16replace_lifetime15ReplaceLifetimeNtNtNtCsc29TF2YcYso_3syn3gen4fold4Fold14fold_pat_tupleB6_, symObjAddr: 0xC00, symBinAddr: 0x3F15C, symSize: 0x34 }
  - { offset: 0x8A63D, size: 0x8, addend: 0x0, symName: __RNvYNtNvCsfQFyxU9Vz2T_11yoke_derive16replace_lifetime15ReplaceLifetimeNtNtNtCsc29TF2YcYso_3syn3gen4fold4Fold14fold_signatureB6_, symObjAddr: 0xC34, symBinAddr: 0x3F190, symSize: 0x34 }
  - { offset: 0x8A684, size: 0x8, addend: 0x0, symName: __RNvYNtNvCsfQFyxU9Vz2T_11yoke_derive16replace_lifetime15ReplaceLifetimeNtNtNtCsc29TF2YcYso_3syn3gen4fold4Fold14fold_type_pathB6_, symObjAddr: 0xC68, symBinAddr: 0x3F1C4, symSize: 0x34 }
  - { offset: 0x8A6CB, size: 0x8, addend: 0x0, symName: __RNvYNtNvCsfQFyxU9Vz2T_11yoke_derive16replace_lifetime15ReplaceLifetimeNtNtNtCsc29TF2YcYso_3syn3gen4fold4Fold14fold_use_groupB6_, symObjAddr: 0xC9C, symBinAddr: 0x3F1F8, symSize: 0x34 }
  - { offset: 0x8A712, size: 0x8, addend: 0x0, symName: __RNvYNtNvCsfQFyxU9Vz2T_11yoke_derive16replace_lifetime15ReplaceLifetimeNtNtNtCsc29TF2YcYso_3syn3gen4fold4Fold15fold_assoc_typeB6_, symObjAddr: 0xCD0, symBinAddr: 0x3F22C, symSize: 0x34 }
  - { offset: 0x8A756, size: 0x8, addend: 0x0, symName: __RNvYNtNvCsfQFyxU9Vz2T_11yoke_derive16replace_lifetime15ReplaceLifetimeNtNtNtCsc29TF2YcYso_3syn3gen4fold4Fold15fold_attr_styleB6_, symObjAddr: 0xD04, symBinAddr: 0x3F260, symSize: 0x64 }
  - { offset: 0x8A799, size: 0x8, addend: 0x0, symName: __RNvYNtNvCsfQFyxU9Vz2T_11yoke_derive16replace_lifetime15ReplaceLifetimeNtNtNtCsc29TF2YcYso_3syn3gen4fold4Fold15fold_attributesB6_, symObjAddr: 0xD68, symBinAddr: 0x3F2C4, symSize: 0x40 }
  - { offset: 0x8A7DD, size: 0x8, addend: 0x0, symName: __RNvYNtNvCsfQFyxU9Vz2T_11yoke_derive16replace_lifetime15ReplaceLifetimeNtNtNtCsc29TF2YcYso_3syn3gen4fold4Fold15fold_constraintB6_, symObjAddr: 0xDA8, symBinAddr: 0x3F304, symSize: 0x34 }
  - { offset: 0x8A821, size: 0x8, addend: 0x0, symName: __RNvYNtNvCsfQFyxU9Vz2T_11yoke_derive16replace_lifetime15ReplaceLifetimeNtNtNtCsc29TF2YcYso_3syn3gen4fold4Fold15fold_expr_arrayB6_, symObjAddr: 0xDDC, symBinAddr: 0x3F338, symSize: 0x34 }
  - { offset: 0x8A865, size: 0x8, addend: 0x0, symName: __RNvYNtNvCsfQFyxU9Vz2T_11yoke_derive16replace_lifetime15ReplaceLifetimeNtNtNtCsc29TF2YcYso_3syn3gen4fold4Fold15fold_expr_asyncB6_, symObjAddr: 0xE10, symBinAddr: 0x3F36C, symSize: 0x34 }
  - { offset: 0x8A8A9, size: 0x8, addend: 0x0, symName: __RNvYNtNvCsfQFyxU9Vz2T_11yoke_derive16replace_lifetime15ReplaceLifetimeNtNtNtCsc29TF2YcYso_3syn3gen4fold4Fold15fold_expr_awaitB6_, symObjAddr: 0xE44, symBinAddr: 0x3F3A0, symSize: 0x34 }
  - { offset: 0x8A8ED, size: 0x8, addend: 0x0, symName: __RNvYNtNvCsfQFyxU9Vz2T_11yoke_derive16replace_lifetime15ReplaceLifetimeNtNtNtCsc29TF2YcYso_3syn3gen4fold4Fold15fold_expr_blockB6_, symObjAddr: 0xE78, symBinAddr: 0x3F3D4, symSize: 0x34 }
  - { offset: 0x8A931, size: 0x8, addend: 0x0, symName: __RNvYNtNvCsfQFyxU9Vz2T_11yoke_derive16replace_lifetime15ReplaceLifetimeNtNtNtCsc29TF2YcYso_3syn3gen4fold4Fold15fold_expr_breakB6_, symObjAddr: 0xEAC, symBinAddr: 0x3F408, symSize: 0x34 }
  - { offset: 0x8A975, size: 0x8, addend: 0x0, symName: __RNvYNtNvCsfQFyxU9Vz2T_11yoke_derive16replace_lifetime15ReplaceLifetimeNtNtNtCsc29TF2YcYso_3syn3gen4fold4Fold15fold_expr_constB6_, symObjAddr: 0xEE0, symBinAddr: 0x3F43C, symSize: 0x34 }
  - { offset: 0x8A9B9, size: 0x8, addend: 0x0, symName: __RNvYNtNvCsfQFyxU9Vz2T_11yoke_derive16replace_lifetime15ReplaceLifetimeNtNtNtCsc29TF2YcYso_3syn3gen4fold4Fold15fold_expr_fieldB6_, symObjAddr: 0xF14, symBinAddr: 0x3F470, symSize: 0x34 }
  - { offset: 0x8A9FD, size: 0x8, addend: 0x0, symName: __RNvYNtNvCsfQFyxU9Vz2T_11yoke_derive16replace_lifetime15ReplaceLifetimeNtNtNtCsc29TF2YcYso_3syn3gen4fold4Fold15fold_expr_groupB6_, symObjAddr: 0xF48, symBinAddr: 0x3F4A4, symSize: 0x34 }
  - { offset: 0x8AA41, size: 0x8, addend: 0x0, symName: __RNvYNtNvCsfQFyxU9Vz2T_11yoke_derive16replace_lifetime15ReplaceLifetimeNtNtNtCsc29TF2YcYso_3syn3gen4fold4Fold15fold_expr_indexB6_, symObjAddr: 0xF7C, symBinAddr: 0x3F4D8, symSize: 0x34 }
  - { offset: 0x8AA85, size: 0x8, addend: 0x0, symName: __RNvYNtNvCsfQFyxU9Vz2T_11yoke_derive16replace_lifetime15ReplaceLifetimeNtNtNtCsc29TF2YcYso_3syn3gen4fold4Fold15fold_expr_inferB6_, symObjAddr: 0xFB0, symBinAddr: 0x3F50C, symSize: 0x34 }
  - { offset: 0x8AAC9, size: 0x8, addend: 0x0, symName: __RNvYNtNvCsfQFyxU9Vz2T_11yoke_derive16replace_lifetime15ReplaceLifetimeNtNtNtCsc29TF2YcYso_3syn3gen4fold4Fold15fold_expr_macroB6_, symObjAddr: 0xFE4, symBinAddr: 0x3F540, symSize: 0x34 }
  - { offset: 0x8AB0D, size: 0x8, addend: 0x0, symName: __RNvYNtNvCsfQFyxU9Vz2T_11yoke_derive16replace_lifetime15ReplaceLifetimeNtNtNtCsc29TF2YcYso_3syn3gen4fold4Fold15fold_expr_matchB6_, symObjAddr: 0x1018, symBinAddr: 0x3F574, symSize: 0x34 }
  - { offset: 0x8AB54, size: 0x8, addend: 0x0, symName: __RNvYNtNvCsfQFyxU9Vz2T_11yoke_derive16replace_lifetime15ReplaceLifetimeNtNtNtCsc29TF2YcYso_3syn3gen4fold4Fold15fold_expr_parenB6_, symObjAddr: 0x104C, symBinAddr: 0x3F5A8, symSize: 0x34 }
  - { offset: 0x8AB9B, size: 0x8, addend: 0x0, symName: __RNvYNtNvCsfQFyxU9Vz2T_11yoke_derive16replace_lifetime15ReplaceLifetimeNtNtNtCsc29TF2YcYso_3syn3gen4fold4Fold15fold_expr_rangeB6_, symObjAddr: 0x1080, symBinAddr: 0x3F5DC, symSize: 0x34 }
  - { offset: 0x8ABE2, size: 0x8, addend: 0x0, symName: __RNvYNtNvCsfQFyxU9Vz2T_11yoke_derive16replace_lifetime15ReplaceLifetimeNtNtNtCsc29TF2YcYso_3syn3gen4fold4Fold15fold_expr_tupleB6_, symObjAddr: 0x10B4, symBinAddr: 0x3F610, symSize: 0x34 }
  - { offset: 0x8AC29, size: 0x8, addend: 0x0, symName: __RNvYNtNvCsfQFyxU9Vz2T_11yoke_derive16replace_lifetime15ReplaceLifetimeNtNtNtCsc29TF2YcYso_3syn3gen4fold4Fold15fold_expr_unaryB6_, symObjAddr: 0x10E8, symBinAddr: 0x3F644, symSize: 0x34 }
  - { offset: 0x8AC70, size: 0x8, addend: 0x0, symName: __RNvYNtNvCsfQFyxU9Vz2T_11yoke_derive16replace_lifetime15ReplaceLifetimeNtNtNtCsc29TF2YcYso_3syn3gen4fold4Fold15fold_expr_whileB6_, symObjAddr: 0x111C, symBinAddr: 0x3F678, symSize: 0x34 }
  - { offset: 0x8ACB7, size: 0x8, addend: 0x0, symName: __RNvYNtNvCsfQFyxU9Vz2T_11yoke_derive16replace_lifetime15ReplaceLifetimeNtNtNtCsc29TF2YcYso_3syn3gen4fold4Fold15fold_expr_yieldB6_, symObjAddr: 0x1150, symBinAddr: 0x3F6AC, symSize: 0x34 }
  - { offset: 0x8ACFE, size: 0x8, addend: 0x0, symName: __RNvYNtNvCsfQFyxU9Vz2T_11yoke_derive16replace_lifetime15ReplaceLifetimeNtNtNtCsc29TF2YcYso_3syn3gen4fold4Fold15fold_item_constB6_, symObjAddr: 0x1184, symBinAddr: 0x3F6E0, symSize: 0x34 }
  - { offset: 0x8AD45, size: 0x8, addend: 0x0, symName: __RNvYNtNvCsfQFyxU9Vz2T_11yoke_derive16replace_lifetime15ReplaceLifetimeNtNtNtCsc29TF2YcYso_3syn3gen4fold4Fold15fold_item_macroB6_, symObjAddr: 0x11B8, symBinAddr: 0x3F714, symSize: 0x34 }
  - { offset: 0x8AD8C, size: 0x8, addend: 0x0, symName: __RNvYNtNvCsfQFyxU9Vz2T_11yoke_derive16replace_lifetime15ReplaceLifetimeNtNtNtCsc29TF2YcYso_3syn3gen4fold4Fold15fold_item_traitB6_, symObjAddr: 0x11EC, symBinAddr: 0x3F748, symSize: 0x34 }
  - { offset: 0x8ADD3, size: 0x8, addend: 0x0, symName: __RNvYNtNvCsfQFyxU9Vz2T_11yoke_derive16replace_lifetime15ReplaceLifetimeNtNtNtCsc29TF2YcYso_3syn3gen4fold4Fold15fold_item_unionB6_, symObjAddr: 0x1220, symBinAddr: 0x3F77C, symSize: 0x34 }
  - { offset: 0x8AE1A, size: 0x8, addend: 0x0, symName: __RNvYNtNvCsfQFyxU9Vz2T_11yoke_derive16replace_lifetime15ReplaceLifetimeNtNtNtCsc29TF2YcYso_3syn3gen4fold4Fold15fold_local_initB6_, symObjAddr: 0x1254, symBinAddr: 0x3F7B0, symSize: 0x34 }
  - { offset: 0x8AE61, size: 0x8, addend: 0x0, symName: __RNvYNtNvCsfQFyxU9Vz2T_11yoke_derive16replace_lifetime15ReplaceLifetimeNtNtNtCsc29TF2YcYso_3syn3gen4fold4Fold15fold_pat_structB6_, symObjAddr: 0x1288, symBinAddr: 0x3F7E4, symSize: 0x34 }
  - { offset: 0x8AEA8, size: 0x8, addend: 0x0, symName: __RNvYNtNvCsfQFyxU9Vz2T_11yoke_derive16replace_lifetime15ReplaceLifetimeNtNtNtCsc29TF2YcYso_3syn3gen4fold4Fold15fold_stmt_macroB6_, symObjAddr: 0x12BC, symBinAddr: 0x3F818, symSize: 0x34 }
  - { offset: 0x8AEEF, size: 0x8, addend: 0x0, symName: __RNvYNtNvCsfQFyxU9Vz2T_11yoke_derive16replace_lifetime15ReplaceLifetimeNtNtNtCsc29TF2YcYso_3syn3gen4fold4Fold15fold_trait_itemB6_, symObjAddr: 0x12F0, symBinAddr: 0x3F84C, symSize: 0x34 }
  - { offset: 0x8AF36, size: 0x8, addend: 0x0, symName: __RNvYNtNvCsfQFyxU9Vz2T_11yoke_derive16replace_lifetime15ReplaceLifetimeNtNtNtCsc29TF2YcYso_3syn3gen4fold4Fold15fold_type_arrayB6_, symObjAddr: 0x1324, symBinAddr: 0x3F880, symSize: 0x34 }
  - { offset: 0x8AF7D, size: 0x8, addend: 0x0, symName: __RNvYNtNvCsfQFyxU9Vz2T_11yoke_derive16replace_lifetime15ReplaceLifetimeNtNtNtCsc29TF2YcYso_3syn3gen4fold4Fold15fold_type_groupB6_, symObjAddr: 0x1358, symBinAddr: 0x3F8B4, symSize: 0x40 }
  - { offset: 0x8AFC3, size: 0x8, addend: 0x0, symName: __RNvYNtNvCsfQFyxU9Vz2T_11yoke_derive16replace_lifetime15ReplaceLifetimeNtNtNtCsc29TF2YcYso_3syn3gen4fold4Fold15fold_type_inferB6_, symObjAddr: 0x1398, symBinAddr: 0x3F8F4, symSize: 0x5C }
  - { offset: 0x8B009, size: 0x8, addend: 0x0, symName: __RNvYNtNvCsfQFyxU9Vz2T_11yoke_derive16replace_lifetime15ReplaceLifetimeNtNtNtCsc29TF2YcYso_3syn3gen4fold4Fold15fold_type_macroB6_, symObjAddr: 0x13F4, symBinAddr: 0x3F950, symSize: 0x34 }
  - { offset: 0x8B050, size: 0x8, addend: 0x0, symName: __RNvYNtNvCsfQFyxU9Vz2T_11yoke_derive16replace_lifetime15ReplaceLifetimeNtNtNtCsc29TF2YcYso_3syn3gen4fold4Fold15fold_type_neverB6_, symObjAddr: 0x1428, symBinAddr: 0x3F984, symSize: 0x5C }
  - { offset: 0x8B096, size: 0x8, addend: 0x0, symName: __RNvYNtNvCsfQFyxU9Vz2T_11yoke_derive16replace_lifetime15ReplaceLifetimeNtNtNtCsc29TF2YcYso_3syn3gen4fold4Fold15fold_type_paramB6_, symObjAddr: 0x1484, symBinAddr: 0x3F9E0, symSize: 0x34 }
  - { offset: 0x8B0DD, size: 0x8, addend: 0x0, symName: __RNvYNtNvCsfQFyxU9Vz2T_11yoke_derive16replace_lifetime15ReplaceLifetimeNtNtNtCsc29TF2YcYso_3syn3gen4fold4Fold15fold_type_parenB6_, symObjAddr: 0x14B8, symBinAddr: 0x3FA14, symSize: 0x34 }
  - { offset: 0x8B124, size: 0x8, addend: 0x0, symName: __RNvYNtNvCsfQFyxU9Vz2T_11yoke_derive16replace_lifetime15ReplaceLifetimeNtNtNtCsc29TF2YcYso_3syn3gen4fold4Fold15fold_type_sliceB6_, symObjAddr: 0x14EC, symBinAddr: 0x3FA48, symSize: 0x34 }
  - { offset: 0x8B16B, size: 0x8, addend: 0x0, symName: __RNvYNtNvCsfQFyxU9Vz2T_11yoke_derive16replace_lifetime15ReplaceLifetimeNtNtNtCsc29TF2YcYso_3syn3gen4fold4Fold15fold_type_tupleB6_, symObjAddr: 0x1520, symBinAddr: 0x3FA7C, symSize: 0x34 }
  - { offset: 0x8B1B2, size: 0x8, addend: 0x0, symName: __RNvYNtNvCsfQFyxU9Vz2T_11yoke_derive16replace_lifetime15ReplaceLifetimeNtNtNtCsc29TF2YcYso_3syn3gen4fold4Fold15fold_use_renameB6_, symObjAddr: 0x1554, symBinAddr: 0x3FAB0, symSize: 0x34 }
  - { offset: 0x8B1F9, size: 0x8, addend: 0x0, symName: __RNvYNtNvCsfQFyxU9Vz2T_11yoke_derive16replace_lifetime15ReplaceLifetimeNtNtNtCsc29TF2YcYso_3syn3gen4fold4Fold15fold_visibilityB6_, symObjAddr: 0x1588, symBinAddr: 0x3FAE4, symSize: 0x34 }
  - { offset: 0x8B240, size: 0x8, addend: 0x0, symName: __RNvYNtNvCsfQFyxU9Vz2T_11yoke_derive16replace_lifetime15ReplaceLifetimeNtNtNtCsc29TF2YcYso_3syn3gen4fold4Fold16fold_assoc_constB6_, symObjAddr: 0x15BC, symBinAddr: 0x3FB18, symSize: 0x34 }
  - { offset: 0x8B284, size: 0x8, addend: 0x0, symName: __RNvYNtNvCsfQFyxU9Vz2T_11yoke_derive16replace_lifetime15ReplaceLifetimeNtNtNtCsc29TF2YcYso_3syn3gen4fold4Fold16fold_bare_fn_argB6_, symObjAddr: 0x15F0, symBinAddr: 0x3FB4C, symSize: 0x34 }
  - { offset: 0x8B2C8, size: 0x8, addend: 0x0, symName: __RNvYNtNvCsfQFyxU9Vz2T_11yoke_derive16replace_lifetime15ReplaceLifetimeNtNtNtCsc29TF2YcYso_3syn3gen4fold4Fold16fold_const_paramB6_, symObjAddr: 0x1624, symBinAddr: 0x3FB80, symSize: 0x34 }
  - { offset: 0x8B30C, size: 0x8, addend: 0x0, symName: __RNvYNtNvCsfQFyxU9Vz2T_11yoke_derive16replace_lifetime15ReplaceLifetimeNtNtNtCsc29TF2YcYso_3syn3gen4fold4Fold16fold_expr_assignB6_, symObjAddr: 0x1658, symBinAddr: 0x3FBB4, symSize: 0x34 }
  - { offset: 0x8B350, size: 0x8, addend: 0x0, symName: __RNvYNtNvCsfQFyxU9Vz2T_11yoke_derive16replace_lifetime15ReplaceLifetimeNtNtNtCsc29TF2YcYso_3syn3gen4fold4Fold16fold_expr_binaryB6_, symObjAddr: 0x168C, symBinAddr: 0x3FBE8, symSize: 0x34 }
  - { offset: 0x8B394, size: 0x8, addend: 0x0, symName: __RNvYNtNvCsfQFyxU9Vz2T_11yoke_derive16replace_lifetime15ReplaceLifetimeNtNtNtCsc29TF2YcYso_3syn3gen4fold4Fold16fold_expr_repeatB6_, symObjAddr: 0x16C0, symBinAddr: 0x3FC1C, symSize: 0x34 }
  - { offset: 0x8B3DB, size: 0x8, addend: 0x0, symName: __RNvYNtNvCsfQFyxU9Vz2T_11yoke_derive16replace_lifetime15ReplaceLifetimeNtNtNtCsc29TF2YcYso_3syn3gen4fold4Fold16fold_expr_returnB6_, symObjAddr: 0x16F4, symBinAddr: 0x3FC50, symSize: 0x34 }
  - { offset: 0x8B422, size: 0x8, addend: 0x0, symName: __RNvYNtNvCsfQFyxU9Vz2T_11yoke_derive16replace_lifetime15ReplaceLifetimeNtNtNtCsc29TF2YcYso_3syn3gen4fold4Fold16fold_expr_structB6_, symObjAddr: 0x1728, symBinAddr: 0x3FC84, symSize: 0x34 }
  - { offset: 0x8B469, size: 0x8, addend: 0x0, symName: __RNvYNtNvCsfQFyxU9Vz2T_11yoke_derive16replace_lifetime15ReplaceLifetimeNtNtNtCsc29TF2YcYso_3syn3gen4fold4Fold16fold_expr_unsafeB6_, symObjAddr: 0x175C, symBinAddr: 0x3FCB8, symSize: 0x34 }
  - { offset: 0x8B4B0, size: 0x8, addend: 0x0, symName: __RNvYNtNvCsfQFyxU9Vz2T_11yoke_derive16replace_lifetime15ReplaceLifetimeNtNtNtCsc29TF2YcYso_3syn3gen4fold4Fold16fold_field_valueB6_, symObjAddr: 0x1790, symBinAddr: 0x3FCEC, symSize: 0x34 }
  - { offset: 0x8B4F7, size: 0x8, addend: 0x0, symName: __RNvYNtNvCsfQFyxU9Vz2T_11yoke_derive16replace_lifetime15ReplaceLifetimeNtNtNtCsc29TF2YcYso_3syn3gen4fold4Fold16fold_item_staticB6_, symObjAddr: 0x17C4, symBinAddr: 0x3FD20, symSize: 0x34 }
  - { offset: 0x8B53E, size: 0x8, addend: 0x0, symName: __RNvYNtNvCsfQFyxU9Vz2T_11yoke_derive16replace_lifetime15ReplaceLifetimeNtNtNtCsc29TF2YcYso_3syn3gen4fold4Fold16fold_item_structB6_, symObjAddr: 0x17F8, symBinAddr: 0x3FD54, symSize: 0x34 }
  - { offset: 0x8B585, size: 0x8, addend: 0x0, symName: __RNvYNtNvCsfQFyxU9Vz2T_11yoke_derive16replace_lifetime15ReplaceLifetimeNtNtNtCsc29TF2YcYso_3syn3gen4fold4Fold16fold_return_typeB6_, symObjAddr: 0x182C, symBinAddr: 0x3FD88, symSize: 0x34 }
  - { offset: 0x8B5CC, size: 0x8, addend: 0x0, symName: __RNvYNtNvCsfQFyxU9Vz2T_11yoke_derive16replace_lifetime15ReplaceLifetimeNtNtNtCsc29TF2YcYso_3syn3gen4fold4Fold16fold_trait_boundB6_, symObjAddr: 0x1860, symBinAddr: 0x3FDBC, symSize: 0x34 }
  - { offset: 0x8B613, size: 0x8, addend: 0x0, symName: __RNvYNtNvCsfQFyxU9Vz2T_11yoke_derive16replace_lifetime15ReplaceLifetimeNtNtNtCsc29TF2YcYso_3syn3gen4fold4Fold17fold_expr_closureB6_, symObjAddr: 0x1894, symBinAddr: 0x3FDF0, symSize: 0x34 }
  - { offset: 0x8B657, size: 0x8, addend: 0x0, symName: __RNvYNtNvCsfQFyxU9Vz2T_11yoke_derive16replace_lifetime15ReplaceLifetimeNtNtNtCsc29TF2YcYso_3syn3gen4fold4Fold17fold_fields_namedB6_, symObjAddr: 0x18C8, symBinAddr: 0x3FE24, symSize: 0x34 }
  - { offset: 0x8B69E, size: 0x8, addend: 0x0, symName: __RNvYNtNvCsfQFyxU9Vz2T_11yoke_derive16replace_lifetime15ReplaceLifetimeNtNtNtCsc29TF2YcYso_3syn3gen4fold4Fold17fold_foreign_itemB6_, symObjAddr: 0x18FC, symBinAddr: 0x3FE58, symSize: 0x34 }
  - { offset: 0x8B6E5, size: 0x8, addend: 0x0, symName: __RNvYNtNvCsfQFyxU9Vz2T_11yoke_derive16replace_lifetime15ReplaceLifetimeNtNtNtCsc29TF2YcYso_3syn3gen4fold4Fold17fold_impl_item_fnB6_, symObjAddr: 0x1930, symBinAddr: 0x3FE8C, symSize: 0x34 }
  - { offset: 0x8B72C, size: 0x8, addend: 0x0, symName: __RNvYNtNvCsfQFyxU9Vz2T_11yoke_derive16replace_lifetime15ReplaceLifetimeNtNtNtCsc29TF2YcYso_3syn3gen4fold4Fold17fold_lit_byte_strB6_, symObjAddr: 0x1964, symBinAddr: 0x3FEC0, symSize: 0x3C }
  - { offset: 0x8B772, size: 0x8, addend: 0x0, symName: __RNvYNtNvCsfQFyxU9Vz2T_11yoke_derive16replace_lifetime15ReplaceLifetimeNtNtNtCsc29TF2YcYso_3syn3gen4fold4Fold17fold_path_segmentB6_, symObjAddr: 0x19A0, symBinAddr: 0x3FEFC, symSize: 0x34 }
  - { offset: 0x8B7B9, size: 0x8, addend: 0x0, symName: __RNvYNtNvCsfQFyxU9Vz2T_11yoke_derive16replace_lifetime15ReplaceLifetimeNtNtNtCsc29TF2YcYso_3syn3gen4fold4Fold17fold_range_limitsB6_, symObjAddr: 0x19D4, symBinAddr: 0x3FF30, symSize: 0x40 }
  - { offset: 0x8B800, size: 0x8, addend: 0x0, symName: __RNvYNtNvCsfQFyxU9Vz2T_11yoke_derive16replace_lifetime15ReplaceLifetimeNtNtNtCsc29TF2YcYso_3syn3gen4fold4Fold17fold_token_streamB6_, symObjAddr: 0x1A14, symBinAddr: 0x3FF70, symSize: 0x30 }
  - { offset: 0x8B846, size: 0x8, addend: 0x0, symName: __RNvYNtNvCsfQFyxU9Vz2T_11yoke_derive16replace_lifetime15ReplaceLifetimeNtNtNtCsc29TF2YcYso_3syn3gen4fold4Fold17fold_type_bare_fnB6_, symObjAddr: 0x1A44, symBinAddr: 0x3FFA0, symSize: 0x34 }
  - { offset: 0x8B88D, size: 0x8, addend: 0x0, symName: __RNvYNtNvCsfQFyxU9Vz2T_11yoke_derive16replace_lifetime15ReplaceLifetimeNtNtNtCsc29TF2YcYso_3syn3gen4fold4Fold17fold_where_clauseB6_, symObjAddr: 0x1A78, symBinAddr: 0x3FFD4, symSize: 0x34 }
  - { offset: 0x8B8D4, size: 0x8, addend: 0x0, symName: __RNvYNtNvCsfQFyxU9Vz2T_11yoke_derive16replace_lifetime15ReplaceLifetimeNtNtNtCsc29TF2YcYso_3syn3gen4fold4Fold18fold_bare_variadicB6_, symObjAddr: 0x1AAC, symBinAddr: 0x40008, symSize: 0x34 }
  - { offset: 0x8B918, size: 0x8, addend: 0x0, symName: __RNvYNtNvCsfQFyxU9Vz2T_11yoke_derive16replace_lifetime15ReplaceLifetimeNtNtNtCsc29TF2YcYso_3syn3gen4fold4Fold18fold_expr_continueB6_, symObjAddr: 0x1AE0, symBinAddr: 0x4003C, symSize: 0x34 }
  - { offset: 0x8B95C, size: 0x8, addend: 0x0, symName: __RNvYNtNvCsfQFyxU9Vz2T_11yoke_derive16replace_lifetime15ReplaceLifetimeNtNtNtCsc29TF2YcYso_3syn3gen4fold4Fold18fold_expr_for_loopB6_, symObjAddr: 0x1B14, symBinAddr: 0x40070, symSize: 0x34 }
  - { offset: 0x8B9A0, size: 0x8, addend: 0x0, symName: __RNvYNtNvCsfQFyxU9Vz2T_11yoke_derive16replace_lifetime15ReplaceLifetimeNtNtNtCsc29TF2YcYso_3syn3gen4fold4Fold18fold_expr_raw_addrB6_, symObjAddr: 0x1B48, symBinAddr: 0x400A4, symSize: 0x34 }
  - { offset: 0x8B9E7, size: 0x8, addend: 0x0, symName: __RNvYNtNvCsfQFyxU9Vz2T_11yoke_derive16replace_lifetime15ReplaceLifetimeNtNtNtCsc29TF2YcYso_3syn3gen4fold4Fold18fold_generic_paramB6_, symObjAddr: 0x1B7C, symBinAddr: 0x400D8, symSize: 0x34 }
  - { offset: 0x8BA2E, size: 0x8, addend: 0x0, symName: __RNvYNtNvCsfQFyxU9Vz2T_11yoke_derive16replace_lifetime15ReplaceLifetimeNtNtNtCsc29TF2YcYso_3syn3gen4fold4Fold18fold_pat_referenceB6_, symObjAddr: 0x1BB0, symBinAddr: 0x4010C, symSize: 0x34 }
  - { offset: 0x8BA75, size: 0x8, addend: 0x0, symName: __RNvYNtNvCsfQFyxU9Vz2T_11yoke_derive16replace_lifetime15ReplaceLifetimeNtNtNtCsc29TF2YcYso_3syn3gen4fold4Fold18fold_trait_item_fnB6_, symObjAddr: 0x1BE4, symBinAddr: 0x40140, symSize: 0x34 }
  - { offset: 0x8BABC, size: 0x8, addend: 0x0, symName: __RNvYNtNvCsfQFyxU9Vz2T_11yoke_derive16replace_lifetime15ReplaceLifetimeNtNtNtCsc29TF2YcYso_3syn3gen4fold4Fold19fold_captured_paramB6_, symObjAddr: 0x1C18, symBinAddr: 0x40174, symSize: 0x34 }
  - { offset: 0x8BB00, size: 0x8, addend: 0x0, symName: __RNvYNtNvCsfQFyxU9Vz2T_11yoke_derive16replace_lifetime15ReplaceLifetimeNtNtNtCsc29TF2YcYso_3syn3gen4fold4Fold19fold_expr_referenceB6_, symObjAddr: 0x1C4C, symBinAddr: 0x401A8, symSize: 0x34 }
  - { offset: 0x8BB47, size: 0x8, addend: 0x0, symName: __RNvYNtNvCsfQFyxU9Vz2T_11yoke_derive16replace_lifetime15ReplaceLifetimeNtNtNtCsc29TF2YcYso_3syn3gen4fold4Fold19fold_expr_try_blockB6_, symObjAddr: 0x1C80, symBinAddr: 0x401DC, symSize: 0x34 }
  - { offset: 0x8BB8E, size: 0x8, addend: 0x0, symName: __RNvYNtNvCsfQFyxU9Vz2T_11yoke_derive16replace_lifetime15ReplaceLifetimeNtNtNtCsc29TF2YcYso_3syn3gen4fold4Fold19fold_fields_unnamedB6_, symObjAddr: 0x1CB4, symBinAddr: 0x40210, symSize: 0x34 }
  - { offset: 0x8BBD5, size: 0x8, addend: 0x0, symName: __RNvYNtNvCsfQFyxU9Vz2T_11yoke_derive16replace_lifetime15ReplaceLifetimeNtNtNtCsc29TF2YcYso_3syn3gen4fold4Fold19fold_impl_item_typeB6_, symObjAddr: 0x1CE8, symBinAddr: 0x40244, symSize: 0x34 }
  - { offset: 0x8BC1C, size: 0x8, addend: 0x0, symName: __RNvYNtNvCsfQFyxU9Vz2T_11yoke_derive16replace_lifetime15ReplaceLifetimeNtNtNtCsc29TF2YcYso_3syn3gen4fold4Fold19fold_lifetime_paramB6_, symObjAddr: 0x1D1C, symBinAddr: 0x40278, symSize: 0x34 }
  - { offset: 0x8BC63, size: 0x8, addend: 0x0, symName: __RNvYNtNvCsfQFyxU9Vz2T_11yoke_derive16replace_lifetime15ReplaceLifetimeNtNtNtCsc29TF2YcYso_3syn3gen4fold4Fold19fold_path_argumentsB6_, symObjAddr: 0x1D50, symBinAddr: 0x402AC, symSize: 0x34 }
  - { offset: 0x8BCAA, size: 0x8, addend: 0x0, symName: __RNvYNtNvCsfQFyxU9Vz2T_11yoke_derive16replace_lifetime15ReplaceLifetimeNtNtNtCsc29TF2YcYso_3syn3gen4fold4Fold19fold_predicate_typeB6_, symObjAddr: 0x1D84, symBinAddr: 0x402E0, symSize: 0x34 }
  - { offset: 0x8BCF1, size: 0x8, addend: 0x0, symName: __RNvYNtNvCsfQFyxU9Vz2T_11yoke_derive16replace_lifetime15ReplaceLifetimeNtNtNtCsc29TF2YcYso_3syn3gen4fold4Fold19fold_type_referenceB6_, symObjAddr: 0x1DB8, symBinAddr: 0x40314, symSize: 0x34 }
  - { offset: 0x8BD38, size: 0x8, addend: 0x0, symName: __RNvYNtNvCsfQFyxU9Vz2T_11yoke_derive16replace_lifetime15ReplaceLifetimeNtNtNtCsc29TF2YcYso_3syn3gen4fold4Fold19fold_vis_restrictedB6_, symObjAddr: 0x1DEC, symBinAddr: 0x40348, symSize: 0x34 }
  - { offset: 0x8BD7F, size: 0x8, addend: 0x0, symName: __RNvYNtNvCsfQFyxU9Vz2T_11yoke_derive16replace_lifetime15ReplaceLifetimeNtNtNtCsc29TF2YcYso_3syn3gen4fold4Fold20fold_bound_lifetimesB6_, symObjAddr: 0x1E20, symBinAddr: 0x4037C, symSize: 0x34 }
  - { offset: 0x8BDC3, size: 0x8, addend: 0x0, symName: __RNvYNtNvCsfQFyxU9Vz2T_11yoke_derive16replace_lifetime15ReplaceLifetimeNtNtNtCsc29TF2YcYso_3syn3gen4fold4Fold20fold_foreign_item_fnB6_, symObjAddr: 0x1E54, symBinAddr: 0x403B0, symSize: 0x34 }
  - { offset: 0x8BE0A, size: 0x8, addend: 0x0, symName: __RNvYNtNvCsfQFyxU9Vz2T_11yoke_derive16replace_lifetime15ReplaceLifetimeNtNtNtCsc29TF2YcYso_3syn3gen4fold4Fold20fold_impl_item_constB6_, symObjAddr: 0x1E88, symBinAddr: 0x403E4, symSize: 0x34 }
  - { offset: 0x8BE51, size: 0x8, addend: 0x0, symName: __RNvYNtNvCsfQFyxU9Vz2T_11yoke_derive16replace_lifetime15ReplaceLifetimeNtNtNtCsc29TF2YcYso_3syn3gen4fold4Fold20fold_impl_item_macroB6_, symObjAddr: 0x1EBC, symBinAddr: 0x40418, symSize: 0x34 }
  - { offset: 0x8BE98, size: 0x8, addend: 0x0, symName: __RNvYNtNvCsfQFyxU9Vz2T_11yoke_derive16replace_lifetime15ReplaceLifetimeNtNtNtCsc29TF2YcYso_3syn3gen4fold4Fold20fold_macro_delimiterB6_, symObjAddr: 0x1EF0, symBinAddr: 0x4044C, symSize: 0x34 }
  - { offset: 0x8BEDF, size: 0x8, addend: 0x0, symName: __RNvYNtNvCsfQFyxU9Vz2T_11yoke_derive16replace_lifetime15ReplaceLifetimeNtNtNtCsc29TF2YcYso_3syn3gen4fold4Fold20fold_meta_name_valueB6_, symObjAddr: 0x1F24, symBinAddr: 0x40480, symSize: 0x34 }
  - { offset: 0x8BF26, size: 0x8, addend: 0x0, symName: __RNvYNtNvCsfQFyxU9Vz2T_11yoke_derive16replace_lifetime15ReplaceLifetimeNtNtNtCsc29TF2YcYso_3syn3gen4fold4Fold20fold_precise_captureB6_, symObjAddr: 0x1F58, symBinAddr: 0x404B4, symSize: 0x34 }
  - { offset: 0x8BF6D, size: 0x8, addend: 0x0, symName: __RNvYNtNvCsfQFyxU9Vz2T_11yoke_derive16replace_lifetime15ReplaceLifetimeNtNtNtCsc29TF2YcYso_3syn3gen4fold4Fold20fold_trait_item_typeB6_, symObjAddr: 0x1F8C, symBinAddr: 0x404E8, symSize: 0x34 }
  - { offset: 0x8BFB4, size: 0x8, addend: 0x0, symName: __RNvYNtNvCsfQFyxU9Vz2T_11yoke_derive16replace_lifetime15ReplaceLifetimeNtNtNtCsc29TF2YcYso_3syn3gen4fold4Fold20fold_type_impl_traitB6_, symObjAddr: 0x1FC0, symBinAddr: 0x4051C, symSize: 0x34 }
  - { offset: 0x8BFFB, size: 0x8, addend: 0x0, symName: __RNvYNtNvCsfQFyxU9Vz2T_11yoke_derive16replace_lifetime15ReplaceLifetimeNtNtNtCsc29TF2YcYso_3syn3gen4fold4Fold20fold_where_predicateB6_, symObjAddr: 0x1FF4, symBinAddr: 0x40550, symSize: 0x34 }
  - { offset: 0x8C042, size: 0x8, addend: 0x0, symName: __RNvYNtNvCsfQFyxU9Vz2T_11yoke_derive16replace_lifetime15ReplaceLifetimeNtNtNtCsc29TF2YcYso_3syn3gen4fold4Fold21fold_expr_method_callB6_, symObjAddr: 0x2028, symBinAddr: 0x40584, symSize: 0x34 }
  - { offset: 0x8C089, size: 0x8, addend: 0x0, symName: __RNvYNtNvCsfQFyxU9Vz2T_11yoke_derive16replace_lifetime15ReplaceLifetimeNtNtNtCsc29TF2YcYso_3syn3gen4fold4Fold21fold_field_mutabilityB6_, symObjAddr: 0x205C, symBinAddr: 0x405B8, symSize: 0x34 }
  - { offset: 0x8C0D7, size: 0x8, addend: 0x0, symName: __RNvYNtNvCsfQFyxU9Vz2T_11yoke_derive16replace_lifetime15ReplaceLifetimeNtNtNtCsc29TF2YcYso_3syn3gen4fold4Fold21fold_generic_argumentB6_, symObjAddr: 0x2090, symBinAddr: 0x405EC, symSize: 0x34 }
  - { offset: 0x8C11E, size: 0x8, addend: 0x0, symName: __RNvYNtNvCsfQFyxU9Vz2T_11yoke_derive16replace_lifetime15ReplaceLifetimeNtNtNtCsc29TF2YcYso_3syn3gen4fold4Fold21fold_item_foreign_modB6_, symObjAddr: 0x20EC, symBinAddr: 0x40620, symSize: 0x34 }
  - { offset: 0x8C165, size: 0x8, addend: 0x0, symName: __RNvYNtNvCsfQFyxU9Vz2T_11yoke_derive16replace_lifetime15ReplaceLifetimeNtNtNtCsc29TF2YcYso_3syn3gen4fold4Fold21fold_item_trait_aliasB6_, symObjAddr: 0x2120, symBinAddr: 0x40654, symSize: 0x34 }
  - { offset: 0x8C1AC, size: 0x8, addend: 0x0, symName: __RNvYNtNvCsfQFyxU9Vz2T_11yoke_derive16replace_lifetime15ReplaceLifetimeNtNtNtCsc29TF2YcYso_3syn3gen4fold4Fold21fold_pat_tuple_structB6_, symObjAddr: 0x2154, symBinAddr: 0x40688, symSize: 0x34 }
  - { offset: 0x8C1F3, size: 0x8, addend: 0x0, symName: __RNvYNtNvCsfQFyxU9Vz2T_11yoke_derive16replace_lifetime15ReplaceLifetimeNtNtNtCsc29TF2YcYso_3syn3gen4fold4Fold21fold_trait_item_constB6_, symObjAddr: 0x2188, symBinAddr: 0x406BC, symSize: 0x34 }
  - { offset: 0x8C23A, size: 0x8, addend: 0x0, symName: __RNvYNtNvCsfQFyxU9Vz2T_11yoke_derive16replace_lifetime15ReplaceLifetimeNtNtNtCsc29TF2YcYso_3syn3gen4fold4Fold21fold_trait_item_macroB6_, symObjAddr: 0x21BC, symBinAddr: 0x406F0, symSize: 0x34 }
  - { offset: 0x8C281, size: 0x8, addend: 0x0, symName: __RNvYNtNvCsfQFyxU9Vz2T_11yoke_derive16replace_lifetime15ReplaceLifetimeNtNtNtCsc29TF2YcYso_3syn3gen4fold4Fold21fold_type_param_boundB6_, symObjAddr: 0x21F0, symBinAddr: 0x40724, symSize: 0x34 }
  - { offset: 0x8C2C8, size: 0x8, addend: 0x0, symName: __RNvYNtNvCsfQFyxU9Vz2T_11yoke_derive16replace_lifetime15ReplaceLifetimeNtNtNtCsc29TF2YcYso_3syn3gen4fold4Fold22fold_foreign_item_typeB6_, symObjAddr: 0x2224, symBinAddr: 0x40758, symSize: 0x34 }
  - { offset: 0x8C30F, size: 0x8, addend: 0x0, symName: __RNvYNtNvCsfQFyxU9Vz2T_11yoke_derive16replace_lifetime15ReplaceLifetimeNtNtNtCsc29TF2YcYso_3syn3gen4fold4Fold22fold_item_extern_crateB6_, symObjAddr: 0x2258, symBinAddr: 0x4078C, symSize: 0x34 }
  - { offset: 0x8C356, size: 0x8, addend: 0x0, symName: __RNvYNtNvCsfQFyxU9Vz2T_11yoke_derive16replace_lifetime15ReplaceLifetimeNtNtNtCsc29TF2YcYso_3syn3gen4fold4Fold22fold_static_mutabilityB6_, symObjAddr: 0x228C, symBinAddr: 0x407C0, symSize: 0x3C }
  - { offset: 0x8C39C, size: 0x8, addend: 0x0, symName: __RNvYNtNvCsfQFyxU9Vz2T_11yoke_derive16replace_lifetime15ReplaceLifetimeNtNtNtCsc29TF2YcYso_3syn3gen4fold4Fold22fold_type_trait_objectB6_, symObjAddr: 0x22C8, symBinAddr: 0x407FC, symSize: 0x34 }
  - { offset: 0x8C3E3, size: 0x8, addend: 0x0, symName: __RNvYNtNvCsfQFyxU9Vz2T_11yoke_derive16replace_lifetime15ReplaceLifetimeNtNtNtCsc29TF2YcYso_3syn3gen4fold4Fold23fold_foreign_item_macroB6_, symObjAddr: 0x22FC, symBinAddr: 0x40830, symSize: 0x34 }
  - { offset: 0x8C42A, size: 0x8, addend: 0x0, symName: __RNvYNtNvCsfQFyxU9Vz2T_11yoke_derive16replace_lifetime15ReplaceLifetimeNtNtNtCsc29TF2YcYso_3syn3gen4fold4Fold23fold_pointer_mutabilityB6_, symObjAddr: 0x2330, symBinAddr: 0x40864, symSize: 0x3C }
  - { offset: 0x8C470, size: 0x8, addend: 0x0, symName: __RNvYNtNvCsfQFyxU9Vz2T_11yoke_derive16replace_lifetime15ReplaceLifetimeNtNtNtCsc29TF2YcYso_3syn3gen4fold4Fold23fold_predicate_lifetimeB6_, symObjAddr: 0x236C, symBinAddr: 0x408A0, symSize: 0x34 }
  - { offset: 0x8C4B7, size: 0x8, addend: 0x0, symName: __RNvYNtNvCsfQFyxU9Vz2T_11yoke_derive16replace_lifetime15ReplaceLifetimeNtNtNtCsc29TF2YcYso_3syn3gen4fold4Fold24fold_foreign_item_staticB6_, symObjAddr: 0x23A0, symBinAddr: 0x408D4, symSize: 0x34 }
  - { offset: 0x8C4FE, size: 0x8, addend: 0x0, symName: __RNvYNtNvCsfQFyxU9Vz2T_11yoke_derive16replace_lifetime15ReplaceLifetimeNtNtNtCsc29TF2YcYso_3syn3gen4fold4Fold25fold_trait_bound_modifierB6_, symObjAddr: 0x23D4, symBinAddr: 0x40908, symSize: 0x64 }
  - { offset: 0x8C544, size: 0x8, addend: 0x0, symName: __RNvYNtNvCsfQFyxU9Vz2T_11yoke_derive16replace_lifetime15ReplaceLifetimeNtNtNtCsc29TF2YcYso_3syn3gen4fold4Fold36fold_parenthesized_generic_argumentsB6_, symObjAddr: 0x2438, symBinAddr: 0x4096C, symSize: 0x34 }
  - { offset: 0x8C58B, size: 0x8, addend: 0x0, symName: __RNvYNtNvCsfQFyxU9Vz2T_11yoke_derive16replace_lifetime15ReplaceLifetimeNtNtNtCsc29TF2YcYso_3syn3gen4fold4Fold38fold_angle_bracketed_generic_argumentsB6_, symObjAddr: 0x246C, symBinAddr: 0x409A0, symSize: 0x34 }
  - { offset: 0x8C5CF, size: 0x8, addend: 0x0, symName: __RNvYNtNvCsfQFyxU9Vz2T_11yoke_derive16replace_lifetime15ReplaceLifetimeNtNtNtCsc29TF2YcYso_3syn3gen4fold4Fold8fold_abiB6_, symObjAddr: 0x24A0, symBinAddr: 0x409D4, symSize: 0x40 }
  - { offset: 0x8C612, size: 0x8, addend: 0x0, symName: __RNvYNtNvCsfQFyxU9Vz2T_11yoke_derive16replace_lifetime15ReplaceLifetimeNtNtNtCsc29TF2YcYso_3syn3gen4fold4Fold8fold_armB6_, symObjAddr: 0x24E0, symBinAddr: 0x40A14, symSize: 0x34 }
  - { offset: 0x8C656, size: 0x8, addend: 0x0, symName: __RNvYNtNvCsfQFyxU9Vz2T_11yoke_derive16replace_lifetime15ReplaceLifetimeNtNtNtCsc29TF2YcYso_3syn3gen4fold4Fold8fold_litB6_, symObjAddr: 0x2514, symBinAddr: 0x40A48, symSize: 0x34 }
  - { offset: 0x8C69D, size: 0x8, addend: 0x0, symName: __RNvYNtNvCsfQFyxU9Vz2T_11yoke_derive16replace_lifetime15ReplaceLifetimeNtNtNtCsc29TF2YcYso_3syn3gen4fold4Fold8fold_patB6_, symObjAddr: 0x2548, symBinAddr: 0x40A7C, symSize: 0x34 }
  - { offset: 0x8C6E4, size: 0x8, addend: 0x0, symName: __RNvYNtNvCsfQFyxU9Vz2T_11yoke_derive16replace_lifetime15ReplaceLifetimeNtNtNtCsc29TF2YcYso_3syn3gen4fold4Fold9fold_exprB6_, symObjAddr: 0x257C, symBinAddr: 0x40AB0, symSize: 0x34 }
  - { offset: 0x8C728, size: 0x8, addend: 0x0, symName: __RNvYNtNvCsfQFyxU9Vz2T_11yoke_derive16replace_lifetime15ReplaceLifetimeNtNtNtCsc29TF2YcYso_3syn3gen4fold4Fold9fold_itemB6_, symObjAddr: 0x25B0, symBinAddr: 0x40AE4, symSize: 0x34 }
  - { offset: 0x8C76F, size: 0x8, addend: 0x0, symName: __RNvYNtNvCsfQFyxU9Vz2T_11yoke_derive16replace_lifetime15ReplaceLifetimeNtNtNtCsc29TF2YcYso_3syn3gen4fold4Fold9fold_metaB6_, symObjAddr: 0x25E4, symBinAddr: 0x40B18, symSize: 0x34 }
  - { offset: 0x8C7B6, size: 0x8, addend: 0x0, symName: __RNvYNtNvCsfQFyxU9Vz2T_11yoke_derive16replace_lifetime15ReplaceLifetimeNtNtNtCsc29TF2YcYso_3syn3gen4fold4Fold9fold_pathB6_, symObjAddr: 0x2618, symBinAddr: 0x40B4C, symSize: 0x34 }
  - { offset: 0x8C7FD, size: 0x8, addend: 0x0, symName: __RNvYNtNvCsfQFyxU9Vz2T_11yoke_derive16replace_lifetime15ReplaceLifetimeNtNtNtCsc29TF2YcYso_3syn3gen4fold4Fold9fold_spanB6_, symObjAddr: 0x264C, symBinAddr: 0x40B80, symSize: 0x2C }
  - { offset: 0x8C843, size: 0x8, addend: 0x0, symName: __RNvYNtNvCsfQFyxU9Vz2T_11yoke_derive16replace_lifetime15ReplaceLifetimeNtNtNtCsc29TF2YcYso_3syn3gen4fold4Fold9fold_stmtB6_, symObjAddr: 0x2678, symBinAddr: 0x40BAC, symSize: 0x34 }
  - { offset: 0x8C88A, size: 0x8, addend: 0x0, symName: __RNvYNtNvCsfQFyxU9Vz2T_11yoke_derive16replace_lifetime15ReplaceLifetimeNtNtNtCsc29TF2YcYso_3syn3gen4fold4Fold9fold_typeB6_, symObjAddr: 0x26AC, symBinAddr: 0x40BE0, symSize: 0x34 }
  - { offset: 0x92FFE, size: 0x8, addend: 0x0, symName: __RINvMs6_NtCsg4dki62PTrg_9hashbrown3rawINtB6_8RawTableTNtCshnvkK9b4wzu_11proc_macro25IdentuEE14reserve_rehashNCINvNtB8_3map11make_hasherBQ_uNtNtNtCsht3nMU9UgFu_3std4hash6random11RandomStateE0ECsfQFyxU9Vz2T_11yoke_derive, symObjAddr: 0x0, symBinAddr: 0x1D0FD0, symSize: 0x838 }
  - { offset: 0x9303A, size: 0x8, addend: 0x0, symName: __RNCINvMs6_NtCsg4dki62PTrg_9hashbrown3rawINtB8_8RawTableTNtCshnvkK9b4wzu_11proc_macro25IdentuEE14reserve_rehashNCINvNtBa_3map11make_hasherBS_uNtNtNtCsht3nMU9UgFu_3std4hash6random11RandomStateE0E0CsfQFyxU9Vz2T_11yoke_derive, symObjAddr: 0x1198, symBinAddr: 0x482C8, symSize: 0xC8 }
  - { offset: 0x931F7, size: 0x8, addend: 0x0, symName: __RNCINvMs6_NtCsg4dki62PTrg_9hashbrown3rawINtB8_8RawTableTNtCshnvkK9b4wzu_11proc_macro25IdentuEE14reserve_rehashNCINvNtBa_3map11make_hasherBS_uNtNtNtCsht3nMU9UgFu_3std4hash6random11RandomStateE0Es_0CsfQFyxU9Vz2T_11yoke_derive, symObjAddr: 0x1260, symBinAddr: 0x48390, symSize: 0x30 }
  - { offset: 0x93254, size: 0x8, addend: 0x0, symName: __RNCINvMs6_NtCsg4dki62PTrg_9hashbrown3rawINtB8_8RawTableTNtCshnvkK9b4wzu_11proc_macro25IdentuEE24find_or_find_insert_slotNCINvNtBa_3map14equivalent_keyBS_BS_uE0NCINvB1Z_11make_hasherBS_uNtNtNtCsht3nMU9UgFu_3std4hash6random11RandomStateE0E0CsfQFyxU9Vz2T_11yoke_derive, symObjAddr: 0x1290, symBinAddr: 0x483C0, symSize: 0xCC }
  - { offset: 0x93427, size: 0x8, addend: 0x0, symName: __RNCINvMs6_NtCsg4dki62PTrg_9hashbrown3rawINtB8_8RawTableTNtCshnvkK9b4wzu_11proc_macro25IdentuEE4findNCINvNtBa_3map14equivalent_keyBS_BS_uE0E0CsfQFyxU9Vz2T_11yoke_derive, symObjAddr: 0x135C, symBinAddr: 0x4848C, symSize: 0xCC }
  - { offset: 0x93F65, size: 0x8, addend: 0x0, symName: __RNvXsg_NtCsg4dki62PTrg_9hashbrown3rawINtB5_8RawTableTNtCshnvkK9b4wzu_11proc_macro25IdentuEENtNtNtCsaNl6UpbT7bw_4core3ops4drop4Drop4dropCsfQFyxU9Vz2T_11yoke_derive, symObjAddr: 0x261C, symBinAddr: 0x4974C, symSize: 0x3C }
  - { offset: 0x9717C, size: 0x8, addend: 0x0, symName: __RINvMs6_NtCsg4dki62PTrg_9hashbrown3rawINtB6_8RawTableTNtCshnvkK9b4wzu_11proc_macro25IdentuEE14reserve_rehashNCINvNtB8_3map11make_hasherBQ_uNtNtNtCsht3nMU9UgFu_3std4hash6random11RandomStateE0ECsfQFyxU9Vz2T_11yoke_derive, symObjAddr: 0x0, symBinAddr: 0x1D0FD0, symSize: 0x838 }
  - { offset: 0x97B6C, size: 0x8, addend: 0x0, symName: __RINvMs6_NtCsg4dki62PTrg_9hashbrown3rawINtB6_8RawTableTNtCshnvkK9b4wzu_11proc_macro25IdentuEE24find_or_find_insert_slotNCINvNtB8_3map14equivalent_keyBQ_BQ_uE0NCINvB1X_11make_hasherBQ_uNtNtNtCsht3nMU9UgFu_3std4hash6random11RandomStateE0ECsfQFyxU9Vz2T_11yoke_derive, symObjAddr: 0x838, symBinAddr: 0x47968, symSize: 0x140 }
  - { offset: 0x97FEE, size: 0x8, addend: 0x0, symName: __RINvMs6_NtCsg4dki62PTrg_9hashbrown3rawINtB6_8RawTableTNtCshnvkK9b4wzu_11proc_macro25IdentuEE4findNCINvNtB8_3map14equivalent_keyBQ_BQ_uE0ECsfQFyxU9Vz2T_11yoke_derive, symObjAddr: 0x978, symBinAddr: 0x47AA8, symSize: 0x330 }
  - { offset: 0x984A9, size: 0x8, addend: 0x0, symName: __RINvMs6_NtCsg4dki62PTrg_9hashbrown3rawINtB6_8RawTableTNtCshnvkK9b4wzu_11proc_macro25IdentuEE7reserveNCINvNtB8_3map11make_hasherBQ_uNtNtNtCsht3nMU9UgFu_3std4hash6random11RandomStateE0ECsfQFyxU9Vz2T_11yoke_derive, symObjAddr: 0xCA8, symBinAddr: 0x47DD8, symSize: 0xCC }
  - { offset: 0x9868D, size: 0x8, addend: 0x0, symName: __RINvMsa_NtCsg4dki62PTrg_9hashbrown3rawNtB6_13RawTableInner13drop_elementsTNtCshnvkK9b4wzu_11proc_macro25IdentuEECsfQFyxU9Vz2T_11yoke_derive, symObjAddr: 0xD74, symBinAddr: 0x47EA4, symSize: 0x178 }
  - { offset: 0x989F8, size: 0x8, addend: 0x0, symName: __RINvMsa_NtCsg4dki62PTrg_9hashbrown3rawNtB6_13RawTableInner16drop_inner_tableTNtCshnvkK9b4wzu_11proc_macro25IdentuENtNtCsiTraAjBDcu4_5alloc5alloc6GlobalECsfQFyxU9Vz2T_11yoke_derive, symObjAddr: 0xEEC, symBinAddr: 0x4801C, symSize: 0xBC }
  - { offset: 0x98CDD, size: 0x8, addend: 0x0, symName: __RINvMsi_NtCsg4dki62PTrg_9hashbrown3rawINtB6_12RawIterRangeTNtCshnvkK9b4wzu_11proc_macro25IdentuEE9next_implKb0_ECsfQFyxU9Vz2T_11yoke_derive, symObjAddr: 0xFA8, symBinAddr: 0x480D8, symSize: 0x1F0 }
  - { offset: 0x993EC, size: 0x8, addend: 0x0, symName: __RNvMs1_NtCsg4dki62PTrg_9hashbrown3rawNtB5_11TableLayout20calculate_layout_forCsfQFyxU9Vz2T_11yoke_derive, symObjAddr: 0x1428, symBinAddr: 0x48558, symSize: 0x210 }
  - { offset: 0x99879, size: 0x8, addend: 0x0, symName: __RNvMs6_NtCsg4dki62PTrg_9hashbrown3rawINtB5_8RawTableTNtCshnvkK9b4wzu_11proc_macro25IdentuEE14insert_in_slotCsfQFyxU9Vz2T_11yoke_derive, symObjAddr: 0x1638, symBinAddr: 0x48768, symSize: 0x140 }
  - { offset: 0x99D21, size: 0x8, addend: 0x0, symName: __RNvMsa_NtCsg4dki62PTrg_9hashbrown3rawNtB5_13RawTableInner15fix_insert_slotCsfQFyxU9Vz2T_11yoke_derive, symObjAddr: 0x1778, symBinAddr: 0x488A8, symSize: 0x12C }
  - { offset: 0x9A0BB, size: 0x8, addend: 0x0, symName: __RNvMsa_NtCsg4dki62PTrg_9hashbrown3rawNtB5_13RawTableInner15rehash_in_placeCsfQFyxU9Vz2T_11yoke_derive, symObjAddr: 0x18A4, symBinAddr: 0x489D4, symSize: 0x4AC }
  - { offset: 0x9A8C3, size: 0x8, addend: 0x0, symName: __RNvMsa_NtCsg4dki62PTrg_9hashbrown3rawNtB5_13RawTableInner16find_insert_slotCsfQFyxU9Vz2T_11yoke_derive, symObjAddr: 0x1D50, symBinAddr: 0x48E80, symSize: 0x11C }
  - { offset: 0x9AABE, size: 0x8, addend: 0x0, symName: __RNvMsa_NtCsg4dki62PTrg_9hashbrown3rawNtB5_13RawTableInner19prepare_insert_slotCsfQFyxU9Vz2T_11yoke_derive, symObjAddr: 0x1E6C, symBinAddr: 0x48F9C, symSize: 0x74 }
  - { offset: 0x9ADAF, size: 0x8, addend: 0x0, symName: __RNvMsa_NtCsg4dki62PTrg_9hashbrown3rawNtB5_13RawTableInner23prepare_rehash_in_placeCsfQFyxU9Vz2T_11yoke_derive, symObjAddr: 0x1EE0, symBinAddr: 0x49010, symSize: 0x258 }
  - { offset: 0x9B4BB, size: 0x8, addend: 0x0, symName: __RNvMsa_NtCsg4dki62PTrg_9hashbrown3rawNtB5_13RawTableInner25find_insert_slot_in_groupCsfQFyxU9Vz2T_11yoke_derive, symObjAddr: 0x2138, symBinAddr: 0x49268, symSize: 0x15C }
  - { offset: 0x9B759, size: 0x8, addend: 0x0, symName: __RNvMsa_NtCsg4dki62PTrg_9hashbrown3rawNtB5_13RawTableInner30find_or_find_insert_slot_innerCsfQFyxU9Vz2T_11yoke_derive, symObjAddr: 0x2294, symBinAddr: 0x493C4, symSize: 0x2C0 }
  - { offset: 0x9BB52, size: 0x8, addend: 0x0, symName: __RNvMsi_NtCsg4dki62PTrg_9hashbrown3rawINtB5_12RawIterRangeTNtCshnvkK9b4wzu_11proc_macro25IdentuEE3newCsfQFyxU9Vz2T_11yoke_derive, symObjAddr: 0x2554, symBinAddr: 0x49684, symSize: 0xC8 }
  - { offset: 0x9BDD1, size: 0x8, addend: 0x0, symName: __RNvMNtNtCsiTraAjBDcu4_5alloc3vec13in_place_dropINtB2_11InPlaceDropNtNtCsc29TF2YcYso_3syn4attr9AttributeE3lenCsfQFyxU9Vz2T_11yoke_derive, symObjAddr: 0x0, symBinAddr: 0x49788, symSize: 0x84 }
  - { offset: 0xA6027, size: 0x8, addend: 0x0, symName: __RNvXs0_NtNtCsiTraAjBDcu4_5alloc3vec13in_place_dropINtB5_24InPlaceDstDataSrcBufDropNtNtCsc29TF2YcYso_3syn4attr9AttributeB1i_ENtNtNtCsaNl6UpbT7bw_4core3ops4drop4Drop4dropCsfQFyxU9Vz2T_11yoke_derive, symObjAddr: 0xCE4, symBinAddr: 0x4A46C, symSize: 0xB8 }
  - { offset: 0xA616D, size: 0x8, addend: 0x0, symName: __RNvXs0_NtNtCsiTraAjBDcu4_5alloc3vec13in_place_dropINtB5_24InPlaceDstDataSrcBufDropNtNtCsc29TF2YcYso_3syn4expr3ArmB1i_ENtNtNtCsaNl6UpbT7bw_4core3ops4drop4Drop4dropCsfQFyxU9Vz2T_11yoke_derive, symObjAddr: 0xD9C, symBinAddr: 0x4A524, symSize: 0xB8 }
  - { offset: 0xA62B3, size: 0x8, addend: 0x0, symName: __RNvXs0_NtNtCsiTraAjBDcu4_5alloc3vec13in_place_dropINtB5_24InPlaceDstDataSrcBufDropNtNtCsc29TF2YcYso_3syn4item11ForeignItemB1i_ENtNtNtCsaNl6UpbT7bw_4core3ops4drop4Drop4dropCsfQFyxU9Vz2T_11yoke_derive, symObjAddr: 0xE54, symBinAddr: 0x4A5DC, symSize: 0xB8 }
  - { offset: 0xA63F9, size: 0x8, addend: 0x0, symName: __RNvXs0_NtNtCsiTraAjBDcu4_5alloc3vec13in_place_dropINtB5_24InPlaceDstDataSrcBufDropNtNtCsc29TF2YcYso_3syn4item4ItemB1i_ENtNtNtCsaNl6UpbT7bw_4core3ops4drop4Drop4dropCsfQFyxU9Vz2T_11yoke_derive, symObjAddr: 0xF0C, symBinAddr: 0x4A694, symSize: 0xB8 }
  - { offset: 0xA653F, size: 0x8, addend: 0x0, symName: __RNvXs0_NtNtCsiTraAjBDcu4_5alloc3vec13in_place_dropINtB5_24InPlaceDstDataSrcBufDropNtNtCsc29TF2YcYso_3syn4item8ImplItemB1i_ENtNtNtCsaNl6UpbT7bw_4core3ops4drop4Drop4dropCsfQFyxU9Vz2T_11yoke_derive, symObjAddr: 0xFC4, symBinAddr: 0x4A74C, symSize: 0xB8 }
  - { offset: 0xA6685, size: 0x8, addend: 0x0, symName: __RNvXs0_NtNtCsiTraAjBDcu4_5alloc3vec13in_place_dropINtB5_24InPlaceDstDataSrcBufDropNtNtCsc29TF2YcYso_3syn4item9TraitItemB1i_ENtNtNtCsaNl6UpbT7bw_4core3ops4drop4Drop4dropCsfQFyxU9Vz2T_11yoke_derive, symObjAddr: 0x107C, symBinAddr: 0x4A804, symSize: 0xB8 }
  - { offset: 0xA67CB, size: 0x8, addend: 0x0, symName: __RNvXs0_NtNtCsiTraAjBDcu4_5alloc3vec13in_place_dropINtB5_24InPlaceDstDataSrcBufDropNtNtCsc29TF2YcYso_3syn4stmt4StmtB1i_ENtNtNtCsaNl6UpbT7bw_4core3ops4drop4Drop4dropCsfQFyxU9Vz2T_11yoke_derive, symObjAddr: 0x1134, symBinAddr: 0x4A8BC, symSize: 0xB8 }
  - { offset: 0xA6911, size: 0x8, addend: 0x0, symName: __RNvXs0_NtNtCsiTraAjBDcu4_5alloc3vec13in_place_dropINtB5_24InPlaceDstDataSrcBufDropTNtNtCsc29TF2YcYso_3syn2ty4TypeNtNtB1n_5token5CommaEB1i_ENtNtNtCsaNl6UpbT7bw_4core3ops4drop4Drop4dropCsfQFyxU9Vz2T_11yoke_derive, symObjAddr: 0x11EC, symBinAddr: 0x4A974, symSize: 0xB8 }
  - { offset: 0xA6A57, size: 0x8, addend: 0x0, symName: __RNvXs0_NtNtCsiTraAjBDcu4_5alloc3vec13in_place_dropINtB5_24InPlaceDstDataSrcBufDropTNtNtCsc29TF2YcYso_3syn2ty9BareFnArgNtNtB1n_5token5CommaEB1i_ENtNtNtCsaNl6UpbT7bw_4core3ops4drop4Drop4dropCsfQFyxU9Vz2T_11yoke_derive, symObjAddr: 0x12A4, symBinAddr: 0x4AA2C, symSize: 0xB8 }
  - { offset: 0xA6B9D, size: 0x8, addend: 0x0, symName: __RNvXs0_NtNtCsiTraAjBDcu4_5alloc3vec13in_place_dropINtB5_24InPlaceDstDataSrcBufDropTNtNtCsc29TF2YcYso_3syn3pat3PatNtNtB1n_5token2OrEB1i_ENtNtNtCsaNl6UpbT7bw_4core3ops4drop4Drop4dropCsfQFyxU9Vz2T_11yoke_derive, symObjAddr: 0x135C, symBinAddr: 0x4AAE4, symSize: 0xB8 }
  - { offset: 0xA6CE3, size: 0x8, addend: 0x0, symName: __RNvXs0_NtNtCsiTraAjBDcu4_5alloc3vec13in_place_dropINtB5_24InPlaceDstDataSrcBufDropTNtNtCsc29TF2YcYso_3syn3pat3PatNtNtB1n_5token5CommaEB1i_ENtNtNtCsaNl6UpbT7bw_4core3ops4drop4Drop4dropCsfQFyxU9Vz2T_11yoke_derive, symObjAddr: 0x1414, symBinAddr: 0x4AB9C, symSize: 0xB8 }
  - { offset: 0xA6E29, size: 0x8, addend: 0x0, symName: __RNvXs0_NtNtCsiTraAjBDcu4_5alloc3vec13in_place_dropINtB5_24InPlaceDstDataSrcBufDropTNtNtCsc29TF2YcYso_3syn3pat8FieldPatNtNtB1n_5token5CommaEB1i_ENtNtNtCsaNl6UpbT7bw_4core3ops4drop4Drop4dropCsfQFyxU9Vz2T_11yoke_derive, symObjAddr: 0x14CC, symBinAddr: 0x4AC54, symSize: 0xB8 }
  - { offset: 0xA6F6F, size: 0x8, addend: 0x0, symName: __RNvXs0_NtNtCsiTraAjBDcu4_5alloc3vec13in_place_dropINtB5_24InPlaceDstDataSrcBufDropTNtNtCsc29TF2YcYso_3syn4data5FieldNtNtB1n_5token5CommaEB1i_ENtNtNtCsaNl6UpbT7bw_4core3ops4drop4Drop4dropCsfQFyxU9Vz2T_11yoke_derive, symObjAddr: 0x1584, symBinAddr: 0x4AD0C, symSize: 0xB8 }
  - { offset: 0xA70B5, size: 0x8, addend: 0x0, symName: __RNvXs0_NtNtCsiTraAjBDcu4_5alloc3vec13in_place_dropINtB5_24InPlaceDstDataSrcBufDropTNtNtCsc29TF2YcYso_3syn4data7VariantNtNtB1n_5token5CommaEB1i_ENtNtNtCsaNl6UpbT7bw_4core3ops4drop4Drop4dropCsfQFyxU9Vz2T_11yoke_derive, symObjAddr: 0x163C, symBinAddr: 0x4ADC4, symSize: 0xB8 }
  - { offset: 0xA71FB, size: 0x8, addend: 0x0, symName: __RNvXs0_NtNtCsiTraAjBDcu4_5alloc3vec13in_place_dropINtB5_24InPlaceDstDataSrcBufDropTNtNtCsc29TF2YcYso_3syn4expr10FieldValueNtNtB1n_5token5CommaEB1i_ENtNtNtCsaNl6UpbT7bw_4core3ops4drop4Drop4dropCsfQFyxU9Vz2T_11yoke_derive, symObjAddr: 0x16F4, symBinAddr: 0x4AE7C, symSize: 0xB8 }
  - { offset: 0xA7341, size: 0x8, addend: 0x0, symName: __RNvXs0_NtNtCsiTraAjBDcu4_5alloc3vec13in_place_dropINtB5_24InPlaceDstDataSrcBufDropTNtNtCsc29TF2YcYso_3syn4expr4ExprNtNtB1n_5token5CommaEB1i_ENtNtNtCsaNl6UpbT7bw_4core3ops4drop4Drop4dropCsfQFyxU9Vz2T_11yoke_derive, symObjAddr: 0x17AC, symBinAddr: 0x4AF34, symSize: 0xB8 }
  - { offset: 0xA7487, size: 0x8, addend: 0x0, symName: __RNvXs0_NtNtCsiTraAjBDcu4_5alloc3vec13in_place_dropINtB5_24InPlaceDstDataSrcBufDropTNtNtCsc29TF2YcYso_3syn4item5FnArgNtNtB1n_5token5CommaEB1i_ENtNtNtCsaNl6UpbT7bw_4core3ops4drop4Drop4dropCsfQFyxU9Vz2T_11yoke_derive, symObjAddr: 0x1864, symBinAddr: 0x4AFEC, symSize: 0xB8 }
  - { offset: 0xA75CD, size: 0x8, addend: 0x0, symName: __RNvXs0_NtNtCsiTraAjBDcu4_5alloc3vec13in_place_dropINtB5_24InPlaceDstDataSrcBufDropTNtNtCsc29TF2YcYso_3syn4item7UseTreeNtNtB1n_5token5CommaEB1i_ENtNtNtCsaNl6UpbT7bw_4core3ops4drop4Drop4dropCsfQFyxU9Vz2T_11yoke_derive, symObjAddr: 0x191C, symBinAddr: 0x4B0A4, symSize: 0xB8 }
  - { offset: 0xA7713, size: 0x8, addend: 0x0, symName: __RNvXs0_NtNtCsiTraAjBDcu4_5alloc3vec13in_place_dropINtB5_24InPlaceDstDataSrcBufDropTNtNtCsc29TF2YcYso_3syn4path11PathSegmentNtNtB1n_5token7PathSepEB1i_ENtNtNtCsaNl6UpbT7bw_4core3ops4drop4Drop4dropCsfQFyxU9Vz2T_11yoke_derive, symObjAddr: 0x19D4, symBinAddr: 0x4B15C, symSize: 0xB8 }
  - { offset: 0xA7859, size: 0x8, addend: 0x0, symName: __RNvXs0_NtNtCsiTraAjBDcu4_5alloc3vec13in_place_dropINtB5_24InPlaceDstDataSrcBufDropTNtNtCsc29TF2YcYso_3syn4path15GenericArgumentNtNtB1n_5token5CommaEB1i_ENtNtNtCsaNl6UpbT7bw_4core3ops4drop4Drop4dropCsfQFyxU9Vz2T_11yoke_derive, symObjAddr: 0x1A8C, symBinAddr: 0x4B214, symSize: 0xB8 }
  - { offset: 0xA799F, size: 0x8, addend: 0x0, symName: __RNvXs0_NtNtCsiTraAjBDcu4_5alloc3vec13in_place_dropINtB5_24InPlaceDstDataSrcBufDropTNtNtCsc29TF2YcYso_3syn8generics12GenericParamNtNtB1n_5token5CommaEB1i_ENtNtNtCsaNl6UpbT7bw_4core3ops4drop4Drop4dropCsfQFyxU9Vz2T_11yoke_derive, symObjAddr: 0x1B44, symBinAddr: 0x4B2CC, symSize: 0xB8 }
  - { offset: 0xA7AE5, size: 0x8, addend: 0x0, symName: __RNvXs0_NtNtCsiTraAjBDcu4_5alloc3vec13in_place_dropINtB5_24InPlaceDstDataSrcBufDropTNtNtCsc29TF2YcYso_3syn8generics13CapturedParamNtNtB1n_5token5CommaEB1i_ENtNtNtCsaNl6UpbT7bw_4core3ops4drop4Drop4dropCsfQFyxU9Vz2T_11yoke_derive, symObjAddr: 0x1BFC, symBinAddr: 0x4B384, symSize: 0xB8 }
  - { offset: 0xA7C2B, size: 0x8, addend: 0x0, symName: __RNvXs0_NtNtCsiTraAjBDcu4_5alloc3vec13in_place_dropINtB5_24InPlaceDstDataSrcBufDropTNtNtCsc29TF2YcYso_3syn8generics14TypeParamBoundNtNtB1n_5token4PlusEB1i_ENtNtNtCsaNl6UpbT7bw_4core3ops4drop4Drop4dropCsfQFyxU9Vz2T_11yoke_derive, symObjAddr: 0x1CB4, symBinAddr: 0x4B43C, symSize: 0xB8 }
  - { offset: 0xA7D71, size: 0x8, addend: 0x0, symName: __RNvXs0_NtNtCsiTraAjBDcu4_5alloc3vec13in_place_dropINtB5_24InPlaceDstDataSrcBufDropTNtNtCsc29TF2YcYso_3syn8generics14WherePredicateNtNtB1n_5token5CommaEB1i_ENtNtNtCsaNl6UpbT7bw_4core3ops4drop4Drop4dropCsfQFyxU9Vz2T_11yoke_derive, symObjAddr: 0x1D6C, symBinAddr: 0x4B4F4, symSize: 0xB8 }
  - { offset: 0xA7EB7, size: 0x8, addend: 0x0, symName: __RNvXs0_NtNtCsiTraAjBDcu4_5alloc3vec13in_place_dropINtB5_24InPlaceDstDataSrcBufDropTNtNtCsc29TF2YcYso_3syn8lifetime8LifetimeNtNtB1n_5token4PlusEB1i_ENtNtNtCsaNl6UpbT7bw_4core3ops4drop4Drop4dropCsfQFyxU9Vz2T_11yoke_derive, symObjAddr: 0x1E24, symBinAddr: 0x4B5AC, symSize: 0xB8 }
  - { offset: 0xA8003, size: 0x8, addend: 0x0, symName: __RNvXs_NtNtCsiTraAjBDcu4_5alloc3vec13in_place_dropINtB4_11InPlaceDropNtNtCsc29TF2YcYso_3syn4attr9AttributeENtNtNtCsaNl6UpbT7bw_4core3ops4drop4Drop4dropCsfQFyxU9Vz2T_11yoke_derive, symObjAddr: 0x1EDC, symBinAddr: 0x4B664, symSize: 0x70 }
  - { offset: 0xA8059, size: 0x8, addend: 0x0, symName: __RNvXs_NtNtCsiTraAjBDcu4_5alloc3vec13in_place_dropINtB4_11InPlaceDropNtNtCsc29TF2YcYso_3syn4expr3ArmENtNtNtCsaNl6UpbT7bw_4core3ops4drop4Drop4dropCsfQFyxU9Vz2T_11yoke_derive, symObjAddr: 0x1F4C, symBinAddr: 0x4B6D4, symSize: 0x70 }
  - { offset: 0xA80AF, size: 0x8, addend: 0x0, symName: __RNvXs_NtNtCsiTraAjBDcu4_5alloc3vec13in_place_dropINtB4_11InPlaceDropNtNtCsc29TF2YcYso_3syn4item11ForeignItemENtNtNtCsaNl6UpbT7bw_4core3ops4drop4Drop4dropCsfQFyxU9Vz2T_11yoke_derive, symObjAddr: 0x1FBC, symBinAddr: 0x4B744, symSize: 0x70 }
  - { offset: 0xA8105, size: 0x8, addend: 0x0, symName: __RNvXs_NtNtCsiTraAjBDcu4_5alloc3vec13in_place_dropINtB4_11InPlaceDropNtNtCsc29TF2YcYso_3syn4item4ItemENtNtNtCsaNl6UpbT7bw_4core3ops4drop4Drop4dropCsfQFyxU9Vz2T_11yoke_derive, symObjAddr: 0x202C, symBinAddr: 0x4B7B4, symSize: 0x70 }
  - { offset: 0xA815B, size: 0x8, addend: 0x0, symName: __RNvXs_NtNtCsiTraAjBDcu4_5alloc3vec13in_place_dropINtB4_11InPlaceDropNtNtCsc29TF2YcYso_3syn4item8ImplItemENtNtNtCsaNl6UpbT7bw_4core3ops4drop4Drop4dropCsfQFyxU9Vz2T_11yoke_derive, symObjAddr: 0x209C, symBinAddr: 0x4B824, symSize: 0x70 }
  - { offset: 0xA81B1, size: 0x8, addend: 0x0, symName: __RNvXs_NtNtCsiTraAjBDcu4_5alloc3vec13in_place_dropINtB4_11InPlaceDropNtNtCsc29TF2YcYso_3syn4item9TraitItemENtNtNtCsaNl6UpbT7bw_4core3ops4drop4Drop4dropCsfQFyxU9Vz2T_11yoke_derive, symObjAddr: 0x210C, symBinAddr: 0x4B894, symSize: 0x70 }
  - { offset: 0xA8207, size: 0x8, addend: 0x0, symName: __RNvXs_NtNtCsiTraAjBDcu4_5alloc3vec13in_place_dropINtB4_11InPlaceDropNtNtCsc29TF2YcYso_3syn4stmt4StmtENtNtNtCsaNl6UpbT7bw_4core3ops4drop4Drop4dropCsfQFyxU9Vz2T_11yoke_derive, symObjAddr: 0x217C, symBinAddr: 0x4B904, symSize: 0x70 }
  - { offset: 0xA825D, size: 0x8, addend: 0x0, symName: __RNvXs_NtNtCsiTraAjBDcu4_5alloc3vec13in_place_dropINtB4_11InPlaceDropTNtNtCsc29TF2YcYso_3syn2ty4TypeNtNtB19_5token5CommaEENtNtNtCsaNl6UpbT7bw_4core3ops4drop4Drop4dropCsfQFyxU9Vz2T_11yoke_derive, symObjAddr: 0x21EC, symBinAddr: 0x4B974, symSize: 0x70 }
  - { offset: 0xA82B3, size: 0x8, addend: 0x0, symName: __RNvXs_NtNtCsiTraAjBDcu4_5alloc3vec13in_place_dropINtB4_11InPlaceDropTNtNtCsc29TF2YcYso_3syn2ty9BareFnArgNtNtB19_5token5CommaEENtNtNtCsaNl6UpbT7bw_4core3ops4drop4Drop4dropCsfQFyxU9Vz2T_11yoke_derive, symObjAddr: 0x225C, symBinAddr: 0x4B9E4, symSize: 0x70 }
  - { offset: 0xA8309, size: 0x8, addend: 0x0, symName: __RNvXs_NtNtCsiTraAjBDcu4_5alloc3vec13in_place_dropINtB4_11InPlaceDropTNtNtCsc29TF2YcYso_3syn3pat3PatNtNtB19_5token2OrEENtNtNtCsaNl6UpbT7bw_4core3ops4drop4Drop4dropCsfQFyxU9Vz2T_11yoke_derive, symObjAddr: 0x22CC, symBinAddr: 0x4BA54, symSize: 0x70 }
  - { offset: 0xA835F, size: 0x8, addend: 0x0, symName: __RNvXs_NtNtCsiTraAjBDcu4_5alloc3vec13in_place_dropINtB4_11InPlaceDropTNtNtCsc29TF2YcYso_3syn3pat3PatNtNtB19_5token5CommaEENtNtNtCsaNl6UpbT7bw_4core3ops4drop4Drop4dropCsfQFyxU9Vz2T_11yoke_derive, symObjAddr: 0x233C, symBinAddr: 0x4BAC4, symSize: 0x70 }
  - { offset: 0xA83B5, size: 0x8, addend: 0x0, symName: __RNvXs_NtNtCsiTraAjBDcu4_5alloc3vec13in_place_dropINtB4_11InPlaceDropTNtNtCsc29TF2YcYso_3syn3pat8FieldPatNtNtB19_5token5CommaEENtNtNtCsaNl6UpbT7bw_4core3ops4drop4Drop4dropCsfQFyxU9Vz2T_11yoke_derive, symObjAddr: 0x23AC, symBinAddr: 0x4BB34, symSize: 0x70 }
  - { offset: 0xA840B, size: 0x8, addend: 0x0, symName: __RNvXs_NtNtCsiTraAjBDcu4_5alloc3vec13in_place_dropINtB4_11InPlaceDropTNtNtCsc29TF2YcYso_3syn4data5FieldNtNtB19_5token5CommaEENtNtNtCsaNl6UpbT7bw_4core3ops4drop4Drop4dropCsfQFyxU9Vz2T_11yoke_derive, symObjAddr: 0x241C, symBinAddr: 0x4BBA4, symSize: 0x70 }
  - { offset: 0xA8461, size: 0x8, addend: 0x0, symName: __RNvXs_NtNtCsiTraAjBDcu4_5alloc3vec13in_place_dropINtB4_11InPlaceDropTNtNtCsc29TF2YcYso_3syn4data7VariantNtNtB19_5token5CommaEENtNtNtCsaNl6UpbT7bw_4core3ops4drop4Drop4dropCsfQFyxU9Vz2T_11yoke_derive, symObjAddr: 0x248C, symBinAddr: 0x4BC14, symSize: 0x70 }
  - { offset: 0xA84B7, size: 0x8, addend: 0x0, symName: __RNvXs_NtNtCsiTraAjBDcu4_5alloc3vec13in_place_dropINtB4_11InPlaceDropTNtNtCsc29TF2YcYso_3syn4expr10FieldValueNtNtB19_5token5CommaEENtNtNtCsaNl6UpbT7bw_4core3ops4drop4Drop4dropCsfQFyxU9Vz2T_11yoke_derive, symObjAddr: 0x24FC, symBinAddr: 0x4BC84, symSize: 0x70 }
  - { offset: 0xA850D, size: 0x8, addend: 0x0, symName: __RNvXs_NtNtCsiTraAjBDcu4_5alloc3vec13in_place_dropINtB4_11InPlaceDropTNtNtCsc29TF2YcYso_3syn4expr4ExprNtNtB19_5token5CommaEENtNtNtCsaNl6UpbT7bw_4core3ops4drop4Drop4dropCsfQFyxU9Vz2T_11yoke_derive, symObjAddr: 0x256C, symBinAddr: 0x4BCF4, symSize: 0x70 }
  - { offset: 0xA8563, size: 0x8, addend: 0x0, symName: __RNvXs_NtNtCsiTraAjBDcu4_5alloc3vec13in_place_dropINtB4_11InPlaceDropTNtNtCsc29TF2YcYso_3syn4item5FnArgNtNtB19_5token5CommaEENtNtNtCsaNl6UpbT7bw_4core3ops4drop4Drop4dropCsfQFyxU9Vz2T_11yoke_derive, symObjAddr: 0x25DC, symBinAddr: 0x4BD64, symSize: 0x70 }
  - { offset: 0xA85B9, size: 0x8, addend: 0x0, symName: __RNvXs_NtNtCsiTraAjBDcu4_5alloc3vec13in_place_dropINtB4_11InPlaceDropTNtNtCsc29TF2YcYso_3syn4item7UseTreeNtNtB19_5token5CommaEENtNtNtCsaNl6UpbT7bw_4core3ops4drop4Drop4dropCsfQFyxU9Vz2T_11yoke_derive, symObjAddr: 0x264C, symBinAddr: 0x4BDD4, symSize: 0x70 }
  - { offset: 0xA860F, size: 0x8, addend: 0x0, symName: __RNvXs_NtNtCsiTraAjBDcu4_5alloc3vec13in_place_dropINtB4_11InPlaceDropTNtNtCsc29TF2YcYso_3syn4path11PathSegmentNtNtB19_5token7PathSepEENtNtNtCsaNl6UpbT7bw_4core3ops4drop4Drop4dropCsfQFyxU9Vz2T_11yoke_derive, symObjAddr: 0x26BC, symBinAddr: 0x4BE44, symSize: 0x70 }
  - { offset: 0xA8665, size: 0x8, addend: 0x0, symName: __RNvXs_NtNtCsiTraAjBDcu4_5alloc3vec13in_place_dropINtB4_11InPlaceDropTNtNtCsc29TF2YcYso_3syn4path15GenericArgumentNtNtB19_5token5CommaEENtNtNtCsaNl6UpbT7bw_4core3ops4drop4Drop4dropCsfQFyxU9Vz2T_11yoke_derive, symObjAddr: 0x272C, symBinAddr: 0x4BEB4, symSize: 0x70 }
  - { offset: 0xA86BB, size: 0x8, addend: 0x0, symName: __RNvXs_NtNtCsiTraAjBDcu4_5alloc3vec13in_place_dropINtB4_11InPlaceDropTNtNtCsc29TF2YcYso_3syn8generics12GenericParamNtNtB19_5token5CommaEENtNtNtCsaNl6UpbT7bw_4core3ops4drop4Drop4dropCsfQFyxU9Vz2T_11yoke_derive, symObjAddr: 0x279C, symBinAddr: 0x4BF24, symSize: 0x70 }
  - { offset: 0xA8711, size: 0x8, addend: 0x0, symName: __RNvXs_NtNtCsiTraAjBDcu4_5alloc3vec13in_place_dropINtB4_11InPlaceDropTNtNtCsc29TF2YcYso_3syn8generics13CapturedParamNtNtB19_5token5CommaEENtNtNtCsaNl6UpbT7bw_4core3ops4drop4Drop4dropCsfQFyxU9Vz2T_11yoke_derive, symObjAddr: 0x280C, symBinAddr: 0x4BF94, symSize: 0x70 }
  - { offset: 0xA8767, size: 0x8, addend: 0x0, symName: __RNvXs_NtNtCsiTraAjBDcu4_5alloc3vec13in_place_dropINtB4_11InPlaceDropTNtNtCsc29TF2YcYso_3syn8generics14TypeParamBoundNtNtB19_5token4PlusEENtNtNtCsaNl6UpbT7bw_4core3ops4drop4Drop4dropCsfQFyxU9Vz2T_11yoke_derive, symObjAddr: 0x287C, symBinAddr: 0x4C004, symSize: 0x70 }
  - { offset: 0xA87BD, size: 0x8, addend: 0x0, symName: __RNvXs_NtNtCsiTraAjBDcu4_5alloc3vec13in_place_dropINtB4_11InPlaceDropTNtNtCsc29TF2YcYso_3syn8generics14WherePredicateNtNtB19_5token5CommaEENtNtNtCsaNl6UpbT7bw_4core3ops4drop4Drop4dropCsfQFyxU9Vz2T_11yoke_derive, symObjAddr: 0x28EC, symBinAddr: 0x4C074, symSize: 0x70 }
  - { offset: 0xA8813, size: 0x8, addend: 0x0, symName: __RNvXs_NtNtCsiTraAjBDcu4_5alloc3vec13in_place_dropINtB4_11InPlaceDropTNtNtCsc29TF2YcYso_3syn8lifetime8LifetimeNtNtB19_5token4PlusEENtNtNtCsaNl6UpbT7bw_4core3ops4drop4Drop4dropCsfQFyxU9Vz2T_11yoke_derive, symObjAddr: 0x295C, symBinAddr: 0x4C0E4, symSize: 0x70 }
  - { offset: 0xAA377, size: 0x8, addend: 0x0, symName: __RNvMNtNtCsiTraAjBDcu4_5alloc3vec13in_place_dropINtB2_11InPlaceDropNtNtCsc29TF2YcYso_3syn4attr9AttributeE3lenCsfQFyxU9Vz2T_11yoke_derive, symObjAddr: 0x0, symBinAddr: 0x49788, symSize: 0x84 }
  - { offset: 0xAA43F, size: 0x8, addend: 0x0, symName: __RNvMNtNtCsiTraAjBDcu4_5alloc3vec13in_place_dropINtB2_11InPlaceDropNtNtCsc29TF2YcYso_3syn4expr3ArmE3lenCsfQFyxU9Vz2T_11yoke_derive, symObjAddr: 0x84, symBinAddr: 0x4980C, symSize: 0x84 }
  - { offset: 0xAA507, size: 0x8, addend: 0x0, symName: __RNvMNtNtCsiTraAjBDcu4_5alloc3vec13in_place_dropINtB2_11InPlaceDropNtNtCsc29TF2YcYso_3syn4item11ForeignItemE3lenCsfQFyxU9Vz2T_11yoke_derive, symObjAddr: 0x108, symBinAddr: 0x49890, symSize: 0x84 }
  - { offset: 0xAA5CF, size: 0x8, addend: 0x0, symName: __RNvMNtNtCsiTraAjBDcu4_5alloc3vec13in_place_dropINtB2_11InPlaceDropNtNtCsc29TF2YcYso_3syn4item4ItemE3lenCsfQFyxU9Vz2T_11yoke_derive, symObjAddr: 0x18C, symBinAddr: 0x49914, symSize: 0x84 }
  - { offset: 0xAA697, size: 0x8, addend: 0x0, symName: __RNvMNtNtCsiTraAjBDcu4_5alloc3vec13in_place_dropINtB2_11InPlaceDropNtNtCsc29TF2YcYso_3syn4item8ImplItemE3lenCsfQFyxU9Vz2T_11yoke_derive, symObjAddr: 0x210, symBinAddr: 0x49998, symSize: 0x84 }
  - { offset: 0xAA75F, size: 0x8, addend: 0x0, symName: __RNvMNtNtCsiTraAjBDcu4_5alloc3vec13in_place_dropINtB2_11InPlaceDropNtNtCsc29TF2YcYso_3syn4item9TraitItemE3lenCsfQFyxU9Vz2T_11yoke_derive, symObjAddr: 0x294, symBinAddr: 0x49A1C, symSize: 0x84 }
  - { offset: 0xAA827, size: 0x8, addend: 0x0, symName: __RNvMNtNtCsiTraAjBDcu4_5alloc3vec13in_place_dropINtB2_11InPlaceDropNtNtCsc29TF2YcYso_3syn4stmt4StmtE3lenCsfQFyxU9Vz2T_11yoke_derive, symObjAddr: 0x318, symBinAddr: 0x49AA0, symSize: 0x84 }
  - { offset: 0xAA8EF, size: 0x8, addend: 0x0, symName: __RNvMNtNtCsiTraAjBDcu4_5alloc3vec13in_place_dropINtB2_11InPlaceDropTNtNtCsc29TF2YcYso_3syn2ty4TypeNtNtB17_5token5CommaEE3lenCsfQFyxU9Vz2T_11yoke_derive, symObjAddr: 0x39C, symBinAddr: 0x49B24, symSize: 0x84 }
  - { offset: 0xAA9B7, size: 0x8, addend: 0x0, symName: __RNvMNtNtCsiTraAjBDcu4_5alloc3vec13in_place_dropINtB2_11InPlaceDropTNtNtCsc29TF2YcYso_3syn2ty9BareFnArgNtNtB17_5token5CommaEE3lenCsfQFyxU9Vz2T_11yoke_derive, symObjAddr: 0x420, symBinAddr: 0x49BA8, symSize: 0x84 }
  - { offset: 0xAAA7F, size: 0x8, addend: 0x0, symName: __RNvMNtNtCsiTraAjBDcu4_5alloc3vec13in_place_dropINtB2_11InPlaceDropTNtNtCsc29TF2YcYso_3syn3pat3PatNtNtB17_5token2OrEE3lenCsfQFyxU9Vz2T_11yoke_derive, symObjAddr: 0x4A4, symBinAddr: 0x49C2C, symSize: 0x84 }
  - { offset: 0xAAB47, size: 0x8, addend: 0x0, symName: __RNvMNtNtCsiTraAjBDcu4_5alloc3vec13in_place_dropINtB2_11InPlaceDropTNtNtCsc29TF2YcYso_3syn3pat3PatNtNtB17_5token5CommaEE3lenCsfQFyxU9Vz2T_11yoke_derive, symObjAddr: 0x528, symBinAddr: 0x49CB0, symSize: 0x84 }
  - { offset: 0xAAC0F, size: 0x8, addend: 0x0, symName: __RNvMNtNtCsiTraAjBDcu4_5alloc3vec13in_place_dropINtB2_11InPlaceDropTNtNtCsc29TF2YcYso_3syn3pat8FieldPatNtNtB17_5token5CommaEE3lenCsfQFyxU9Vz2T_11yoke_derive, symObjAddr: 0x5AC, symBinAddr: 0x49D34, symSize: 0x84 }
  - { offset: 0xAACD7, size: 0x8, addend: 0x0, symName: __RNvMNtNtCsiTraAjBDcu4_5alloc3vec13in_place_dropINtB2_11InPlaceDropTNtNtCsc29TF2YcYso_3syn4data5FieldNtNtB17_5token5CommaEE3lenCsfQFyxU9Vz2T_11yoke_derive, symObjAddr: 0x630, symBinAddr: 0x49DB8, symSize: 0x84 }
  - { offset: 0xAAD9F, size: 0x8, addend: 0x0, symName: __RNvMNtNtCsiTraAjBDcu4_5alloc3vec13in_place_dropINtB2_11InPlaceDropTNtNtCsc29TF2YcYso_3syn4data7VariantNtNtB17_5token5CommaEE3lenCsfQFyxU9Vz2T_11yoke_derive, symObjAddr: 0x6B4, symBinAddr: 0x49E3C, symSize: 0x84 }
  - { offset: 0xAAE67, size: 0x8, addend: 0x0, symName: __RNvMNtNtCsiTraAjBDcu4_5alloc3vec13in_place_dropINtB2_11InPlaceDropTNtNtCsc29TF2YcYso_3syn4expr10FieldValueNtNtB17_5token5CommaEE3lenCsfQFyxU9Vz2T_11yoke_derive, symObjAddr: 0x738, symBinAddr: 0x49EC0, symSize: 0x84 }
  - { offset: 0xAAF2F, size: 0x8, addend: 0x0, symName: __RNvMNtNtCsiTraAjBDcu4_5alloc3vec13in_place_dropINtB2_11InPlaceDropTNtNtCsc29TF2YcYso_3syn4expr4ExprNtNtB17_5token5CommaEE3lenCsfQFyxU9Vz2T_11yoke_derive, symObjAddr: 0x7BC, symBinAddr: 0x49F44, symSize: 0x84 }
  - { offset: 0xAAFF7, size: 0x8, addend: 0x0, symName: __RNvMNtNtCsiTraAjBDcu4_5alloc3vec13in_place_dropINtB2_11InPlaceDropTNtNtCsc29TF2YcYso_3syn4item5FnArgNtNtB17_5token5CommaEE3lenCsfQFyxU9Vz2T_11yoke_derive, symObjAddr: 0x840, symBinAddr: 0x49FC8, symSize: 0x84 }
  - { offset: 0xAB0BF, size: 0x8, addend: 0x0, symName: __RNvMNtNtCsiTraAjBDcu4_5alloc3vec13in_place_dropINtB2_11InPlaceDropTNtNtCsc29TF2YcYso_3syn4item7UseTreeNtNtB17_5token5CommaEE3lenCsfQFyxU9Vz2T_11yoke_derive, symObjAddr: 0x8C4, symBinAddr: 0x4A04C, symSize: 0x84 }
  - { offset: 0xAB187, size: 0x8, addend: 0x0, symName: __RNvMNtNtCsiTraAjBDcu4_5alloc3vec13in_place_dropINtB2_11InPlaceDropTNtNtCsc29TF2YcYso_3syn4path11PathSegmentNtNtB17_5token7PathSepEE3lenCsfQFyxU9Vz2T_11yoke_derive, symObjAddr: 0x948, symBinAddr: 0x4A0D0, symSize: 0x84 }
  - { offset: 0xAB24F, size: 0x8, addend: 0x0, symName: __RNvMNtNtCsiTraAjBDcu4_5alloc3vec13in_place_dropINtB2_11InPlaceDropTNtNtCsc29TF2YcYso_3syn4path15GenericArgumentNtNtB17_5token5CommaEE3lenCsfQFyxU9Vz2T_11yoke_derive, symObjAddr: 0x9CC, symBinAddr: 0x4A154, symSize: 0x84 }
  - { offset: 0xAB317, size: 0x8, addend: 0x0, symName: __RNvMNtNtCsiTraAjBDcu4_5alloc3vec13in_place_dropINtB2_11InPlaceDropTNtNtCsc29TF2YcYso_3syn8generics12GenericParamNtNtB17_5token5CommaEE3lenCsfQFyxU9Vz2T_11yoke_derive, symObjAddr: 0xA50, symBinAddr: 0x4A1D8, symSize: 0x84 }
  - { offset: 0xAB3DF, size: 0x8, addend: 0x0, symName: __RNvMNtNtCsiTraAjBDcu4_5alloc3vec13in_place_dropINtB2_11InPlaceDropTNtNtCsc29TF2YcYso_3syn8generics13CapturedParamNtNtB17_5token5CommaEE3lenCsfQFyxU9Vz2T_11yoke_derive, symObjAddr: 0xAD4, symBinAddr: 0x4A25C, symSize: 0x84 }
  - { offset: 0xAB4A7, size: 0x8, addend: 0x0, symName: __RNvMNtNtCsiTraAjBDcu4_5alloc3vec13in_place_dropINtB2_11InPlaceDropTNtNtCsc29TF2YcYso_3syn8generics14TypeParamBoundNtNtB17_5token4PlusEE3lenCsfQFyxU9Vz2T_11yoke_derive, symObjAddr: 0xB58, symBinAddr: 0x4A2E0, symSize: 0x84 }
  - { offset: 0xAB56F, size: 0x8, addend: 0x0, symName: __RNvMNtNtCsiTraAjBDcu4_5alloc3vec13in_place_dropINtB2_11InPlaceDropTNtNtCsc29TF2YcYso_3syn8generics14WherePredicateNtNtB17_5token5CommaEE3lenCsfQFyxU9Vz2T_11yoke_derive, symObjAddr: 0xBDC, symBinAddr: 0x4A364, symSize: 0x84 }
  - { offset: 0xAB637, size: 0x8, addend: 0x0, symName: __RNvMNtNtCsiTraAjBDcu4_5alloc3vec13in_place_dropINtB2_11InPlaceDropTNtNtCsc29TF2YcYso_3syn8lifetime8LifetimeNtNtB17_5token4PlusEE3lenCsfQFyxU9Vz2T_11yoke_derive, symObjAddr: 0xC60, symBinAddr: 0x4A3E8, symSize: 0x84 }
  - { offset: 0xAD203, size: 0x8, addend: 0x0, symName: __RINvMNtCsaNl6UpbT7bw_4core6optionINtB3_6OptionINtNtCsiTraAjBDcu4_5alloc5boxed3BoxNtNtCsc29TF2YcYso_3syn4expr4ExprEE3mapBI_NCINvNtNtB1l_3gen4fold15fold_expr_breakNtNvCsfQFyxU9Vz2T_11yoke_derive16replace_lifetime15ReplaceLifetimeEs_0EB2D_, symObjAddr: 0x0, symBinAddr: 0x4C154, symSize: 0x5C }
  - { offset: 0xAD2DF, size: 0x8, addend: 0x0, symName: __RNCNvXs1_NtNtNtCsht3nMU9UgFu_3std2io5error14repr_bitpackedNtB7_4ReprNtNtNtCsaNl6UpbT7bw_4core3ops4drop4Drop4drop0CsfQFyxU9Vz2T_11yoke_derive, symObjAddr: 0x4334, symBinAddr: 0x50418, symSize: 0x3C }
  - { offset: 0xAD394, size: 0x8, addend: 0x0, symName: __RNvXs1_NtNtNtCsht3nMU9UgFu_3std2io5error14repr_bitpackedNtB5_4ReprNtNtNtCsaNl6UpbT7bw_4core3ops4drop4Drop4dropCsfQFyxU9Vz2T_11yoke_derive, symObjAddr: 0x512C, symBinAddr: 0x51210, symSize: 0x38 }
  - { offset: 0xAD3BD, size: 0x8, addend: 0x0, symName: __RINvNtNtNtCsht3nMU9UgFu_3std2io5error14repr_bitpacked11decode_reprINtNtCsiTraAjBDcu4_5alloc5boxed3BoxNtB4_6CustomENCNvXs1_B2_NtB2_4ReprNtNtNtCsaNl6UpbT7bw_4core3ops4drop4Drop4drop0ECsfQFyxU9Vz2T_11yoke_derive, symObjAddr: 0x3FCC, symBinAddr: 0x500D8, symSize: 0x1DC }
  - { offset: 0xAD619, size: 0x8, addend: 0x0, symName: __RNvNtNtNtCsht3nMU9UgFu_3std2io5error14repr_bitpacked14kind_from_primCsfQFyxU9Vz2T_11yoke_derive, symObjAddr: 0x47B4, symBinAddr: 0x50898, symSize: 0x758 }
  - { offset: 0xAE919, size: 0x8, addend: 0x0, symName: __RINvNtCsaNl6UpbT7bw_4core3ptr13drop_in_placeINtNtB4_4cell10UnsafeCellNtNtNtCs7yrEGia95Wz_10proc_macro6bridge6client6BridgeEECsfQFyxU9Vz2T_11yoke_derive, symObjAddr: 0x2368, symBinAddr: 0x4E474, symSize: 0x24 }
  - { offset: 0xAE948, size: 0x8, addend: 0x0, symName: __RINvNtCsaNl6UpbT7bw_4core3ptr13drop_in_placeINtNtB4_4cell7RefCellNtNtNtCs7yrEGia95Wz_10proc_macro6bridge6client6BridgeEECsfQFyxU9Vz2T_11yoke_derive, symObjAddr: 0x238C, symBinAddr: 0x4E498, symSize: 0x24 }
  - { offset: 0xAE977, size: 0x8, addend: 0x0, symName: __RINvNtCsaNl6UpbT7bw_4core3ptr13drop_in_placeINtNtB4_6option6OptionNtNtCsc29TF2YcYso_3syn8generics9TypeParamEECsfQFyxU9Vz2T_11yoke_derive, symObjAddr: 0x23B0, symBinAddr: 0x4E4BC, symSize: 0x44 }
  - { offset: 0xAE9A6, size: 0x8, addend: 0x0, symName: __RINvNtCsaNl6UpbT7bw_4core3ptr13drop_in_placeINtNtB4_6result6ResultNtCshnvkK9b4wzu_11proc_macro25IdentNtNtCsc29TF2YcYso_3syn5error5ErrorEECsfQFyxU9Vz2T_11yoke_derive, symObjAddr: 0x23F4, symBinAddr: 0x4E500, symSize: 0x50 }
  - { offset: 0xAE9D5, size: 0x8, addend: 0x0, symName: __RINvNtCsaNl6UpbT7bw_4core3ptr13drop_in_placeINtNtCsg4dki62PTrg_9hashbrown3map7HashMapNtCshnvkK9b4wzu_11proc_macro25IdentuNtNtNtCsht3nMU9UgFu_3std4hash6random11RandomStateEECsfQFyxU9Vz2T_11yoke_derive, symObjAddr: 0x2444, symBinAddr: 0x4E550, symSize: 0x24 }
  - { offset: 0xAEA04, size: 0x8, addend: 0x0, symName: __RINvNtCsaNl6UpbT7bw_4core3ptr13drop_in_placeINtNtCsg4dki62PTrg_9hashbrown3raw8RawTableTNtCshnvkK9b4wzu_11proc_macro25IdentuEEECsfQFyxU9Vz2T_11yoke_derive, symObjAddr: 0x2468, symBinAddr: 0x4E574, symSize: 0x24 }
  - { offset: 0xAEA33, size: 0x8, addend: 0x0, symName: __RINvNtCsaNl6UpbT7bw_4core3ptr13drop_in_placeINtNtCsg4dki62PTrg_9hashbrown3set7HashSetNtCshnvkK9b4wzu_11proc_macro25IdentNtNtNtCsht3nMU9UgFu_3std4hash6random11RandomStateEECsfQFyxU9Vz2T_11yoke_derive, symObjAddr: 0x248C, symBinAddr: 0x4E598, symSize: 0x24 }
  - { offset: 0xAEA62, size: 0x8, addend: 0x0, symName: __RINvNtCsaNl6UpbT7bw_4core3ptr13drop_in_placeINtNtCsiTraAjBDcu4_5alloc3vec3VecNtCshnvkK9b4wzu_11proc_macro25IdentEECsfQFyxU9Vz2T_11yoke_derive, symObjAddr: 0x24B0, symBinAddr: 0x4E5BC, symSize: 0x5C }
  - { offset: 0xAEA91, size: 0x8, addend: 0x0, symName: __RINvNtCsaNl6UpbT7bw_4core3ptr13drop_in_placeINtNtCsiTraAjBDcu4_5alloc3vec3VecNtNtCsc29TF2YcYso_3syn8generics14WherePredicateEECsfQFyxU9Vz2T_11yoke_derive, symObjAddr: 0x250C, symBinAddr: 0x4E618, symSize: 0x5C }
  - { offset: 0xAEAC0, size: 0x8, addend: 0x0, symName: __RINvNtCsaNl6UpbT7bw_4core3ptr13drop_in_placeINtNtCsiTraAjBDcu4_5alloc3vec3VecNtNtCsc29TF2YcYso_3syn8generics9TypeParamEECsfQFyxU9Vz2T_11yoke_derive, symObjAddr: 0x2568, symBinAddr: 0x4E674, symSize: 0x5C }
  - { offset: 0xAEAEF, size: 0x8, addend: 0x0, symName: __RINvNtCsaNl6UpbT7bw_4core3ptr13drop_in_placeINtNtCsiTraAjBDcu4_5alloc5boxed3BoxDNtNtB4_5error5ErrorNtNtB4_6marker4SyncNtB1B_4SendEL_EECsfQFyxU9Vz2T_11yoke_derive, symObjAddr: 0x25C4, symBinAddr: 0x4E6D0, symSize: 0x80 }
  - { offset: 0xAEB1E, size: 0x8, addend: 0x0, symName: __RINvNtCsaNl6UpbT7bw_4core3ptr13drop_in_placeINtNtCsiTraAjBDcu4_5alloc5boxed3BoxNtNtNtCsht3nMU9UgFu_3std2io5error6CustomEECsfQFyxU9Vz2T_11yoke_derive, symObjAddr: 0x2644, symBinAddr: 0x4E750, symSize: 0x60 }
  - { offset: 0xAEB4D, size: 0x8, addend: 0x0, symName: __RINvNtCsaNl6UpbT7bw_4core3ptr13drop_in_placeINtNtCsiTraAjBDcu4_5alloc7raw_vec6RawVecNtCshnvkK9b4wzu_11proc_macro25IdentEECsfQFyxU9Vz2T_11yoke_derive, symObjAddr: 0x26A4, symBinAddr: 0x4E7B0, symSize: 0x24 }
  - { offset: 0xAEB7C, size: 0x8, addend: 0x0, symName: __RINvNtCsaNl6UpbT7bw_4core3ptr13drop_in_placeINtNtCsiTraAjBDcu4_5alloc7raw_vec6RawVecNtNtCsc29TF2YcYso_3syn8generics14WherePredicateEECsfQFyxU9Vz2T_11yoke_derive, symObjAddr: 0x26C8, symBinAddr: 0x4E7D4, symSize: 0x24 }
  - { offset: 0xAEBAB, size: 0x8, addend: 0x0, symName: __RINvNtCsaNl6UpbT7bw_4core3ptr13drop_in_placeINtNtCsiTraAjBDcu4_5alloc7raw_vec6RawVecNtNtCsc29TF2YcYso_3syn8generics9TypeParamEECsfQFyxU9Vz2T_11yoke_derive, symObjAddr: 0x26EC, symBinAddr: 0x4E7F8, symSize: 0x24 }
  - { offset: 0xAEBDA, size: 0x8, addend: 0x0, symName: __RINvNtCsaNl6UpbT7bw_4core3ptr13drop_in_placeINtNtNtCsht3nMU9UgFu_3std2io5error9ErrorDataINtNtCsiTraAjBDcu4_5alloc5boxed3BoxNtBJ_6CustomEEECsfQFyxU9Vz2T_11yoke_derive, symObjAddr: 0x2710, symBinAddr: 0x4E81C, symSize: 0x48 }
  - { offset: 0xAEC09, size: 0x8, addend: 0x0, symName: __RINvNtCsaNl6UpbT7bw_4core3ptr13drop_in_placeINtNtNtCsiTraAjBDcu4_5alloc3vec13in_place_drop11InPlaceDropNtNtCsc29TF2YcYso_3syn4attr9AttributeEECsfQFyxU9Vz2T_11yoke_derive, symObjAddr: 0x2758, symBinAddr: 0x4E864, symSize: 0x24 }
  - { offset: 0xAEC38, size: 0x8, addend: 0x0, symName: __RINvNtCsaNl6UpbT7bw_4core3ptr13drop_in_placeINtNtNtCsiTraAjBDcu4_5alloc3vec13in_place_drop11InPlaceDropNtNtCsc29TF2YcYso_3syn4expr3ArmEECsfQFyxU9Vz2T_11yoke_derive, symObjAddr: 0x277C, symBinAddr: 0x4E888, symSize: 0x24 }
  - { offset: 0xAEC67, size: 0x8, addend: 0x0, symName: __RINvNtCsaNl6UpbT7bw_4core3ptr13drop_in_placeINtNtNtCsiTraAjBDcu4_5alloc3vec13in_place_drop11InPlaceDropNtNtCsc29TF2YcYso_3syn4item11ForeignItemEECsfQFyxU9Vz2T_11yoke_derive, symObjAddr: 0x27A0, symBinAddr: 0x4E8AC, symSize: 0x24 }
  - { offset: 0xAEC96, size: 0x8, addend: 0x0, symName: __RINvNtCsaNl6UpbT7bw_4core3ptr13drop_in_placeINtNtNtCsiTraAjBDcu4_5alloc3vec13in_place_drop11InPlaceDropNtNtCsc29TF2YcYso_3syn4item4ItemEECsfQFyxU9Vz2T_11yoke_derive, symObjAddr: 0x27C4, symBinAddr: 0x4E8D0, symSize: 0x24 }
  - { offset: 0xAECC5, size: 0x8, addend: 0x0, symName: __RINvNtCsaNl6UpbT7bw_4core3ptr13drop_in_placeINtNtNtCsiTraAjBDcu4_5alloc3vec13in_place_drop11InPlaceDropNtNtCsc29TF2YcYso_3syn4item8ImplItemEECsfQFyxU9Vz2T_11yoke_derive, symObjAddr: 0x27E8, symBinAddr: 0x4E8F4, symSize: 0x24 }
  - { offset: 0xAECF4, size: 0x8, addend: 0x0, symName: __RINvNtCsaNl6UpbT7bw_4core3ptr13drop_in_placeINtNtNtCsiTraAjBDcu4_5alloc3vec13in_place_drop11InPlaceDropNtNtCsc29TF2YcYso_3syn4item9TraitItemEECsfQFyxU9Vz2T_11yoke_derive, symObjAddr: 0x280C, symBinAddr: 0x4E918, symSize: 0x24 }
  - { offset: 0xAED23, size: 0x8, addend: 0x0, symName: __RINvNtCsaNl6UpbT7bw_4core3ptr13drop_in_placeINtNtNtCsiTraAjBDcu4_5alloc3vec13in_place_drop11InPlaceDropNtNtCsc29TF2YcYso_3syn4stmt4StmtEECsfQFyxU9Vz2T_11yoke_derive, symObjAddr: 0x2830, symBinAddr: 0x4E93C, symSize: 0x24 }
  - { offset: 0xAED52, size: 0x8, addend: 0x0, symName: __RINvNtCsaNl6UpbT7bw_4core3ptr13drop_in_placeINtNtNtCsiTraAjBDcu4_5alloc3vec13in_place_drop11InPlaceDropTNtNtCsc29TF2YcYso_3syn2ty4TypeNtNtB1I_5token5CommaEEECsfQFyxU9Vz2T_11yoke_derive, symObjAddr: 0x2854, symBinAddr: 0x4E960, symSize: 0x24 }
  - { offset: 0xAED81, size: 0x8, addend: 0x0, symName: __RINvNtCsaNl6UpbT7bw_4core3ptr13drop_in_placeINtNtNtCsiTraAjBDcu4_5alloc3vec13in_place_drop11InPlaceDropTNtNtCsc29TF2YcYso_3syn2ty9BareFnArgNtNtB1I_5token5CommaEEECsfQFyxU9Vz2T_11yoke_derive, symObjAddr: 0x2878, symBinAddr: 0x4E984, symSize: 0x24 }
  - { offset: 0xAEDB0, size: 0x8, addend: 0x0, symName: __RINvNtCsaNl6UpbT7bw_4core3ptr13drop_in_placeINtNtNtCsiTraAjBDcu4_5alloc3vec13in_place_drop11InPlaceDropTNtNtCsc29TF2YcYso_3syn3pat3PatNtNtB1I_5token2OrEEECsfQFyxU9Vz2T_11yoke_derive, symObjAddr: 0x289C, symBinAddr: 0x4E9A8, symSize: 0x24 }
  - { offset: 0xAEDDF, size: 0x8, addend: 0x0, symName: __RINvNtCsaNl6UpbT7bw_4core3ptr13drop_in_placeINtNtNtCsiTraAjBDcu4_5alloc3vec13in_place_drop11InPlaceDropTNtNtCsc29TF2YcYso_3syn3pat3PatNtNtB1I_5token5CommaEEECsfQFyxU9Vz2T_11yoke_derive, symObjAddr: 0x28C0, symBinAddr: 0x4E9CC, symSize: 0x24 }
  - { offset: 0xAEE0E, size: 0x8, addend: 0x0, symName: __RINvNtCsaNl6UpbT7bw_4core3ptr13drop_in_placeINtNtNtCsiTraAjBDcu4_5alloc3vec13in_place_drop11InPlaceDropTNtNtCsc29TF2YcYso_3syn3pat8FieldPatNtNtB1I_5token5CommaEEECsfQFyxU9Vz2T_11yoke_derive, symObjAddr: 0x28E4, symBinAddr: 0x4E9F0, symSize: 0x24 }
  - { offset: 0xAEE3D, size: 0x8, addend: 0x0, symName: __RINvNtCsaNl6UpbT7bw_4core3ptr13drop_in_placeINtNtNtCsiTraAjBDcu4_5alloc3vec13in_place_drop11InPlaceDropTNtNtCsc29TF2YcYso_3syn4data5FieldNtNtB1I_5token5CommaEEECsfQFyxU9Vz2T_11yoke_derive, symObjAddr: 0x2908, symBinAddr: 0x4EA14, symSize: 0x24 }
  - { offset: 0xAEE6C, size: 0x8, addend: 0x0, symName: __RINvNtCsaNl6UpbT7bw_4core3ptr13drop_in_placeINtNtNtCsiTraAjBDcu4_5alloc3vec13in_place_drop11InPlaceDropTNtNtCsc29TF2YcYso_3syn4data7VariantNtNtB1I_5token5CommaEEECsfQFyxU9Vz2T_11yoke_derive, symObjAddr: 0x292C, symBinAddr: 0x4EA38, symSize: 0x24 }
  - { offset: 0xAEE9B, size: 0x8, addend: 0x0, symName: __RINvNtCsaNl6UpbT7bw_4core3ptr13drop_in_placeINtNtNtCsiTraAjBDcu4_5alloc3vec13in_place_drop11InPlaceDropTNtNtCsc29TF2YcYso_3syn4expr10FieldValueNtNtB1I_5token5CommaEEECsfQFyxU9Vz2T_11yoke_derive, symObjAddr: 0x2950, symBinAddr: 0x4EA5C, symSize: 0x24 }
  - { offset: 0xAEECA, size: 0x8, addend: 0x0, symName: __RINvNtCsaNl6UpbT7bw_4core3ptr13drop_in_placeINtNtNtCsiTraAjBDcu4_5alloc3vec13in_place_drop11InPlaceDropTNtNtCsc29TF2YcYso_3syn4expr4ExprNtNtB1I_5token5CommaEEECsfQFyxU9Vz2T_11yoke_derive, symObjAddr: 0x2974, symBinAddr: 0x4EA80, symSize: 0x24 }
  - { offset: 0xAEEF9, size: 0x8, addend: 0x0, symName: __RINvNtCsaNl6UpbT7bw_4core3ptr13drop_in_placeINtNtNtCsiTraAjBDcu4_5alloc3vec13in_place_drop11InPlaceDropTNtNtCsc29TF2YcYso_3syn4item5FnArgNtNtB1I_5token5CommaEEECsfQFyxU9Vz2T_11yoke_derive, symObjAddr: 0x2998, symBinAddr: 0x4EAA4, symSize: 0x24 }
  - { offset: 0xAEF28, size: 0x8, addend: 0x0, symName: __RINvNtCsaNl6UpbT7bw_4core3ptr13drop_in_placeINtNtNtCsiTraAjBDcu4_5alloc3vec13in_place_drop11InPlaceDropTNtNtCsc29TF2YcYso_3syn4item7UseTreeNtNtB1I_5token5CommaEEECsfQFyxU9Vz2T_11yoke_derive, symObjAddr: 0x29BC, symBinAddr: 0x4EAC8, symSize: 0x24 }
  - { offset: 0xAEF57, size: 0x8, addend: 0x0, symName: __RINvNtCsaNl6UpbT7bw_4core3ptr13drop_in_placeINtNtNtCsiTraAjBDcu4_5alloc3vec13in_place_drop11InPlaceDropTNtNtCsc29TF2YcYso_3syn4path11PathSegmentNtNtB1I_5token7PathSepEEECsfQFyxU9Vz2T_11yoke_derive, symObjAddr: 0x29E0, symBinAddr: 0x4EAEC, symSize: 0x24 }
  - { offset: 0xAEF86, size: 0x8, addend: 0x0, symName: __RINvNtCsaNl6UpbT7bw_4core3ptr13drop_in_placeINtNtNtCsiTraAjBDcu4_5alloc3vec13in_place_drop11InPlaceDropTNtNtCsc29TF2YcYso_3syn4path15GenericArgumentNtNtB1I_5token5CommaEEECsfQFyxU9Vz2T_11yoke_derive, symObjAddr: 0x2A04, symBinAddr: 0x4EB10, symSize: 0x24 }
  - { offset: 0xAEFB5, size: 0x8, addend: 0x0, symName: __RINvNtCsaNl6UpbT7bw_4core3ptr13drop_in_placeINtNtNtCsiTraAjBDcu4_5alloc3vec13in_place_drop11InPlaceDropTNtNtCsc29TF2YcYso_3syn8generics12GenericParamNtNtB1I_5token5CommaEEECsfQFyxU9Vz2T_11yoke_derive, symObjAddr: 0x2A28, symBinAddr: 0x4EB34, symSize: 0x24 }
  - { offset: 0xAEFE4, size: 0x8, addend: 0x0, symName: __RINvNtCsaNl6UpbT7bw_4core3ptr13drop_in_placeINtNtNtCsiTraAjBDcu4_5alloc3vec13in_place_drop11InPlaceDropTNtNtCsc29TF2YcYso_3syn8generics13CapturedParamNtNtB1I_5token5CommaEEECsfQFyxU9Vz2T_11yoke_derive, symObjAddr: 0x2A4C, symBinAddr: 0x4EB58, symSize: 0x24 }
  - { offset: 0xAF013, size: 0x8, addend: 0x0, symName: __RINvNtCsaNl6UpbT7bw_4core3ptr13drop_in_placeINtNtNtCsiTraAjBDcu4_5alloc3vec13in_place_drop11InPlaceDropTNtNtCsc29TF2YcYso_3syn8generics14TypeParamBoundNtNtB1I_5token4PlusEEECsfQFyxU9Vz2T_11yoke_derive, symObjAddr: 0x2A70, symBinAddr: 0x4EB7C, symSize: 0x24 }
  - { offset: 0xAF042, size: 0x8, addend: 0x0, symName: __RINvNtCsaNl6UpbT7bw_4core3ptr13drop_in_placeINtNtNtCsiTraAjBDcu4_5alloc3vec13in_place_drop11InPlaceDropTNtNtCsc29TF2YcYso_3syn8generics14WherePredicateNtNtB1I_5token5CommaEEECsfQFyxU9Vz2T_11yoke_derive, symObjAddr: 0x2A94, symBinAddr: 0x4EBA0, symSize: 0x24 }
  - { offset: 0xAF071, size: 0x8, addend: 0x0, symName: __RINvNtCsaNl6UpbT7bw_4core3ptr13drop_in_placeINtNtNtCsiTraAjBDcu4_5alloc3vec13in_place_drop11InPlaceDropTNtNtCsc29TF2YcYso_3syn8lifetime8LifetimeNtNtB1I_5token4PlusEEECsfQFyxU9Vz2T_11yoke_derive, symObjAddr: 0x2AB8, symBinAddr: 0x4EBC4, symSize: 0x24 }
  - { offset: 0xAF0A0, size: 0x8, addend: 0x0, symName: __RINvNtCsaNl6UpbT7bw_4core3ptr13drop_in_placeINtNtNtCsiTraAjBDcu4_5alloc3vec13in_place_drop24InPlaceDstDataSrcBufDropNtNtCsc29TF2YcYso_3syn4attr9AttributeB1Q_EECsfQFyxU9Vz2T_11yoke_derive, symObjAddr: 0x2ADC, symBinAddr: 0x4EBE8, symSize: 0x24 }
  - { offset: 0xAF0CF, size: 0x8, addend: 0x0, symName: __RINvNtCsaNl6UpbT7bw_4core3ptr13drop_in_placeINtNtNtCsiTraAjBDcu4_5alloc3vec13in_place_drop24InPlaceDstDataSrcBufDropNtNtCsc29TF2YcYso_3syn4expr3ArmB1Q_EECsfQFyxU9Vz2T_11yoke_derive, symObjAddr: 0x2B00, symBinAddr: 0x4EC0C, symSize: 0x24 }
  - { offset: 0xAF0FE, size: 0x8, addend: 0x0, symName: __RINvNtCsaNl6UpbT7bw_4core3ptr13drop_in_placeINtNtNtCsiTraAjBDcu4_5alloc3vec13in_place_drop24InPlaceDstDataSrcBufDropNtNtCsc29TF2YcYso_3syn4item11ForeignItemB1Q_EECsfQFyxU9Vz2T_11yoke_derive, symObjAddr: 0x2B24, symBinAddr: 0x4EC30, symSize: 0x24 }
  - { offset: 0xAF12D, size: 0x8, addend: 0x0, symName: __RINvNtCsaNl6UpbT7bw_4core3ptr13drop_in_placeINtNtNtCsiTraAjBDcu4_5alloc3vec13in_place_drop24InPlaceDstDataSrcBufDropNtNtCsc29TF2YcYso_3syn4item4ItemB1Q_EECsfQFyxU9Vz2T_11yoke_derive, symObjAddr: 0x2B48, symBinAddr: 0x4EC54, symSize: 0x24 }
  - { offset: 0xAF15C, size: 0x8, addend: 0x0, symName: __RINvNtCsaNl6UpbT7bw_4core3ptr13drop_in_placeINtNtNtCsiTraAjBDcu4_5alloc3vec13in_place_drop24InPlaceDstDataSrcBufDropNtNtCsc29TF2YcYso_3syn4item8ImplItemB1Q_EECsfQFyxU9Vz2T_11yoke_derive, symObjAddr: 0x2B6C, symBinAddr: 0x4EC78, symSize: 0x24 }
  - { offset: 0xAF18B, size: 0x8, addend: 0x0, symName: __RINvNtCsaNl6UpbT7bw_4core3ptr13drop_in_placeINtNtNtCsiTraAjBDcu4_5alloc3vec13in_place_drop24InPlaceDstDataSrcBufDropNtNtCsc29TF2YcYso_3syn4item9TraitItemB1Q_EECsfQFyxU9Vz2T_11yoke_derive, symObjAddr: 0x2B90, symBinAddr: 0x4EC9C, symSize: 0x24 }
  - { offset: 0xAF1BA, size: 0x8, addend: 0x0, symName: __RINvNtCsaNl6UpbT7bw_4core3ptr13drop_in_placeINtNtNtCsiTraAjBDcu4_5alloc3vec13in_place_drop24InPlaceDstDataSrcBufDropNtNtCsc29TF2YcYso_3syn4stmt4StmtB1Q_EECsfQFyxU9Vz2T_11yoke_derive, symObjAddr: 0x2BB4, symBinAddr: 0x4ECC0, symSize: 0x24 }
  - { offset: 0xAF1E9, size: 0x8, addend: 0x0, symName: __RINvNtCsaNl6UpbT7bw_4core3ptr13drop_in_placeINtNtNtCsiTraAjBDcu4_5alloc3vec13in_place_drop24InPlaceDstDataSrcBufDropTNtNtCsc29TF2YcYso_3syn2ty4TypeNtNtB1V_5token5CommaEB1Q_EECsfQFyxU9Vz2T_11yoke_derive, symObjAddr: 0x2BD8, symBinAddr: 0x4ECE4, symSize: 0x24 }
  - { offset: 0xAF218, size: 0x8, addend: 0x0, symName: __RINvNtCsaNl6UpbT7bw_4core3ptr13drop_in_placeINtNtNtCsiTraAjBDcu4_5alloc3vec13in_place_drop24InPlaceDstDataSrcBufDropTNtNtCsc29TF2YcYso_3syn2ty9BareFnArgNtNtB1V_5token5CommaEB1Q_EECsfQFyxU9Vz2T_11yoke_derive, symObjAddr: 0x2BFC, symBinAddr: 0x4ED08, symSize: 0x24 }
  - { offset: 0xAF247, size: 0x8, addend: 0x0, symName: __RINvNtCsaNl6UpbT7bw_4core3ptr13drop_in_placeINtNtNtCsiTraAjBDcu4_5alloc3vec13in_place_drop24InPlaceDstDataSrcBufDropTNtNtCsc29TF2YcYso_3syn3pat3PatNtNtB1V_5token2OrEB1Q_EECsfQFyxU9Vz2T_11yoke_derive, symObjAddr: 0x2C20, symBinAddr: 0x4ED2C, symSize: 0x24 }
  - { offset: 0xAF276, size: 0x8, addend: 0x0, symName: __RINvNtCsaNl6UpbT7bw_4core3ptr13drop_in_placeINtNtNtCsiTraAjBDcu4_5alloc3vec13in_place_drop24InPlaceDstDataSrcBufDropTNtNtCsc29TF2YcYso_3syn3pat3PatNtNtB1V_5token5CommaEB1Q_EECsfQFyxU9Vz2T_11yoke_derive, symObjAddr: 0x2C44, symBinAddr: 0x4ED50, symSize: 0x24 }
  - { offset: 0xAF2A5, size: 0x8, addend: 0x0, symName: __RINvNtCsaNl6UpbT7bw_4core3ptr13drop_in_placeINtNtNtCsiTraAjBDcu4_5alloc3vec13in_place_drop24InPlaceDstDataSrcBufDropTNtNtCsc29TF2YcYso_3syn3pat8FieldPatNtNtB1V_5token5CommaEB1Q_EECsfQFyxU9Vz2T_11yoke_derive, symObjAddr: 0x2C68, symBinAddr: 0x4ED74, symSize: 0x24 }
  - { offset: 0xAF2D4, size: 0x8, addend: 0x0, symName: __RINvNtCsaNl6UpbT7bw_4core3ptr13drop_in_placeINtNtNtCsiTraAjBDcu4_5alloc3vec13in_place_drop24InPlaceDstDataSrcBufDropTNtNtCsc29TF2YcYso_3syn4data5FieldNtNtB1V_5token5CommaEB1Q_EECsfQFyxU9Vz2T_11yoke_derive, symObjAddr: 0x2C8C, symBinAddr: 0x4ED98, symSize: 0x24 }
  - { offset: 0xAF303, size: 0x8, addend: 0x0, symName: __RINvNtCsaNl6UpbT7bw_4core3ptr13drop_in_placeINtNtNtCsiTraAjBDcu4_5alloc3vec13in_place_drop24InPlaceDstDataSrcBufDropTNtNtCsc29TF2YcYso_3syn4data7VariantNtNtB1V_5token5CommaEB1Q_EECsfQFyxU9Vz2T_11yoke_derive, symObjAddr: 0x2CB0, symBinAddr: 0x4EDBC, symSize: 0x24 }
  - { offset: 0xAF332, size: 0x8, addend: 0x0, symName: __RINvNtCsaNl6UpbT7bw_4core3ptr13drop_in_placeINtNtNtCsiTraAjBDcu4_5alloc3vec13in_place_drop24InPlaceDstDataSrcBufDropTNtNtCsc29TF2YcYso_3syn4expr10FieldValueNtNtB1V_5token5CommaEB1Q_EECsfQFyxU9Vz2T_11yoke_derive, symObjAddr: 0x2CD4, symBinAddr: 0x4EDE0, symSize: 0x24 }
  - { offset: 0xAF361, size: 0x8, addend: 0x0, symName: __RINvNtCsaNl6UpbT7bw_4core3ptr13drop_in_placeINtNtNtCsiTraAjBDcu4_5alloc3vec13in_place_drop24InPlaceDstDataSrcBufDropTNtNtCsc29TF2YcYso_3syn4expr4ExprNtNtB1V_5token5CommaEB1Q_EECsfQFyxU9Vz2T_11yoke_derive, symObjAddr: 0x2CF8, symBinAddr: 0x4EE04, symSize: 0x24 }
  - { offset: 0xAF390, size: 0x8, addend: 0x0, symName: __RINvNtCsaNl6UpbT7bw_4core3ptr13drop_in_placeINtNtNtCsiTraAjBDcu4_5alloc3vec13in_place_drop24InPlaceDstDataSrcBufDropTNtNtCsc29TF2YcYso_3syn4item5FnArgNtNtB1V_5token5CommaEB1Q_EECsfQFyxU9Vz2T_11yoke_derive, symObjAddr: 0x2D1C, symBinAddr: 0x4EE28, symSize: 0x24 }
  - { offset: 0xAF3BF, size: 0x8, addend: 0x0, symName: __RINvNtCsaNl6UpbT7bw_4core3ptr13drop_in_placeINtNtNtCsiTraAjBDcu4_5alloc3vec13in_place_drop24InPlaceDstDataSrcBufDropTNtNtCsc29TF2YcYso_3syn4item7UseTreeNtNtB1V_5token5CommaEB1Q_EECsfQFyxU9Vz2T_11yoke_derive, symObjAddr: 0x2D40, symBinAddr: 0x4EE4C, symSize: 0x24 }
  - { offset: 0xAF3EE, size: 0x8, addend: 0x0, symName: __RINvNtCsaNl6UpbT7bw_4core3ptr13drop_in_placeINtNtNtCsiTraAjBDcu4_5alloc3vec13in_place_drop24InPlaceDstDataSrcBufDropTNtNtCsc29TF2YcYso_3syn4path11PathSegmentNtNtB1V_5token7PathSepEB1Q_EECsfQFyxU9Vz2T_11yoke_derive, symObjAddr: 0x2D64, symBinAddr: 0x4EE70, symSize: 0x24 }
  - { offset: 0xAF41D, size: 0x8, addend: 0x0, symName: __RINvNtCsaNl6UpbT7bw_4core3ptr13drop_in_placeINtNtNtCsiTraAjBDcu4_5alloc3vec13in_place_drop24InPlaceDstDataSrcBufDropTNtNtCsc29TF2YcYso_3syn4path15GenericArgumentNtNtB1V_5token5CommaEB1Q_EECsfQFyxU9Vz2T_11yoke_derive, symObjAddr: 0x2D88, symBinAddr: 0x4EE94, symSize: 0x24 }
  - { offset: 0xAF44C, size: 0x8, addend: 0x0, symName: __RINvNtCsaNl6UpbT7bw_4core3ptr13drop_in_placeINtNtNtCsiTraAjBDcu4_5alloc3vec13in_place_drop24InPlaceDstDataSrcBufDropTNtNtCsc29TF2YcYso_3syn8generics12GenericParamNtNtB1V_5token5CommaEB1Q_EECsfQFyxU9Vz2T_11yoke_derive, symObjAddr: 0x2DAC, symBinAddr: 0x4EEB8, symSize: 0x24 }
  - { offset: 0xAF47B, size: 0x8, addend: 0x0, symName: __RINvNtCsaNl6UpbT7bw_4core3ptr13drop_in_placeINtNtNtCsiTraAjBDcu4_5alloc3vec13in_place_drop24InPlaceDstDataSrcBufDropTNtNtCsc29TF2YcYso_3syn8generics13CapturedParamNtNtB1V_5token5CommaEB1Q_EECsfQFyxU9Vz2T_11yoke_derive, symObjAddr: 0x2DD0, symBinAddr: 0x4EEDC, symSize: 0x24 }
  - { offset: 0xAF4AA, size: 0x8, addend: 0x0, symName: __RINvNtCsaNl6UpbT7bw_4core3ptr13drop_in_placeINtNtNtCsiTraAjBDcu4_5alloc3vec13in_place_drop24InPlaceDstDataSrcBufDropTNtNtCsc29TF2YcYso_3syn8generics14TypeParamBoundNtNtB1V_5token4PlusEB1Q_EECsfQFyxU9Vz2T_11yoke_derive, symObjAddr: 0x2DF4, symBinAddr: 0x4EF00, symSize: 0x24 }
  - { offset: 0xAF4D9, size: 0x8, addend: 0x0, symName: __RINvNtCsaNl6UpbT7bw_4core3ptr13drop_in_placeINtNtNtCsiTraAjBDcu4_5alloc3vec13in_place_drop24InPlaceDstDataSrcBufDropTNtNtCsc29TF2YcYso_3syn8generics14WherePredicateNtNtB1V_5token5CommaEB1Q_EECsfQFyxU9Vz2T_11yoke_derive, symObjAddr: 0x2E18, symBinAddr: 0x4EF24, symSize: 0x24 }
  - { offset: 0xAF508, size: 0x8, addend: 0x0, symName: __RINvNtCsaNl6UpbT7bw_4core3ptr13drop_in_placeINtNtNtCsiTraAjBDcu4_5alloc3vec13in_place_drop24InPlaceDstDataSrcBufDropTNtNtCsc29TF2YcYso_3syn8lifetime8LifetimeNtNtB1V_5token4PlusEB1Q_EECsfQFyxU9Vz2T_11yoke_derive, symObjAddr: 0x2E3C, symBinAddr: 0x4EF48, symSize: 0x24 }
  - { offset: 0xAF537, size: 0x8, addend: 0x0, symName: __RINvNtCsaNl6UpbT7bw_4core3ptr13drop_in_placeINtNtNtCsiTraAjBDcu4_5alloc3vec9into_iter8IntoIterNtNtCsc29TF2YcYso_3syn4expr3ArmEECsfQFyxU9Vz2T_11yoke_derive, symObjAddr: 0x2E60, symBinAddr: 0x4EF6C, symSize: 0x24 }
  - { offset: 0xAF566, size: 0x8, addend: 0x0, symName: __RINvNtCsaNl6UpbT7bw_4core3ptr13drop_in_placeINtNtNtCsiTraAjBDcu4_5alloc3vec9into_iter8IntoIterNtNtCsc29TF2YcYso_3syn4item11ForeignItemEECsfQFyxU9Vz2T_11yoke_derive, symObjAddr: 0x2E84, symBinAddr: 0x4EF90, symSize: 0x24 }
  - { offset: 0xAF595, size: 0x8, addend: 0x0, symName: __RINvNtCsaNl6UpbT7bw_4core3ptr13drop_in_placeINtNtNtCsiTraAjBDcu4_5alloc3vec9into_iter8IntoIterNtNtCsc29TF2YcYso_3syn4item4ItemEECsfQFyxU9Vz2T_11yoke_derive, symObjAddr: 0x2EA8, symBinAddr: 0x4EFB4, symSize: 0x24 }
  - { offset: 0xAF5C4, size: 0x8, addend: 0x0, symName: __RINvNtCsaNl6UpbT7bw_4core3ptr13drop_in_placeINtNtNtCsiTraAjBDcu4_5alloc3vec9into_iter8IntoIterNtNtCsc29TF2YcYso_3syn4item8ImplItemEECsfQFyxU9Vz2T_11yoke_derive, symObjAddr: 0x2ECC, symBinAddr: 0x4EFD8, symSize: 0x24 }
  - { offset: 0xAF5F3, size: 0x8, addend: 0x0, symName: __RINvNtCsaNl6UpbT7bw_4core3ptr13drop_in_placeINtNtNtCsiTraAjBDcu4_5alloc3vec9into_iter8IntoIterNtNtCsc29TF2YcYso_3syn4item9TraitItemEECsfQFyxU9Vz2T_11yoke_derive, symObjAddr: 0x2EF0, symBinAddr: 0x4EFFC, symSize: 0x24 }
  - { offset: 0xAF622, size: 0x8, addend: 0x0, symName: __RINvNtCsaNl6UpbT7bw_4core3ptr13drop_in_placeINtNtNtCsiTraAjBDcu4_5alloc3vec9into_iter8IntoIterNtNtCsc29TF2YcYso_3syn4stmt4StmtEECsfQFyxU9Vz2T_11yoke_derive, symObjAddr: 0x2F14, symBinAddr: 0x4F020, symSize: 0x24 }
  - { offset: 0xAF651, size: 0x8, addend: 0x0, symName: __RINvNtCsaNl6UpbT7bw_4core3ptr13drop_in_placeINtNtNtCsiTraAjBDcu4_5alloc3vec9into_iter8IntoIterTNtNtCsc29TF2YcYso_3syn2ty4TypeNtNtB1z_5token5CommaEEECsfQFyxU9Vz2T_11yoke_derive, symObjAddr: 0x2F38, symBinAddr: 0x4F044, symSize: 0x24 }
  - { offset: 0xAF680, size: 0x8, addend: 0x0, symName: __RINvNtCsaNl6UpbT7bw_4core3ptr13drop_in_placeINtNtNtCsiTraAjBDcu4_5alloc3vec9into_iter8IntoIterTNtNtCsc29TF2YcYso_3syn2ty9BareFnArgNtNtB1z_5token5CommaEEECsfQFyxU9Vz2T_11yoke_derive, symObjAddr: 0x2F5C, symBinAddr: 0x4F068, symSize: 0x24 }
  - { offset: 0xAF6AF, size: 0x8, addend: 0x0, symName: __RINvNtCsaNl6UpbT7bw_4core3ptr13drop_in_placeINtNtNtCsiTraAjBDcu4_5alloc3vec9into_iter8IntoIterTNtNtCsc29TF2YcYso_3syn3pat3PatNtNtB1z_5token2OrEEECsfQFyxU9Vz2T_11yoke_derive, symObjAddr: 0x2F80, symBinAddr: 0x4F08C, symSize: 0x24 }
  - { offset: 0xAF6DE, size: 0x8, addend: 0x0, symName: __RINvNtCsaNl6UpbT7bw_4core3ptr13drop_in_placeINtNtNtCsiTraAjBDcu4_5alloc3vec9into_iter8IntoIterTNtNtCsc29TF2YcYso_3syn3pat3PatNtNtB1z_5token5CommaEEECsfQFyxU9Vz2T_11yoke_derive, symObjAddr: 0x2FA4, symBinAddr: 0x4F0B0, symSize: 0x24 }
  - { offset: 0xAF70D, size: 0x8, addend: 0x0, symName: __RINvNtCsaNl6UpbT7bw_4core3ptr13drop_in_placeINtNtNtCsiTraAjBDcu4_5alloc3vec9into_iter8IntoIterTNtNtCsc29TF2YcYso_3syn3pat8FieldPatNtNtB1z_5token5CommaEEECsfQFyxU9Vz2T_11yoke_derive, symObjAddr: 0x2FC8, symBinAddr: 0x4F0D4, symSize: 0x24 }
  - { offset: 0xAF73C, size: 0x8, addend: 0x0, symName: __RINvNtCsaNl6UpbT7bw_4core3ptr13drop_in_placeINtNtNtCsiTraAjBDcu4_5alloc3vec9into_iter8IntoIterTNtNtCsc29TF2YcYso_3syn4data7VariantNtNtB1z_5token5CommaEEECsfQFyxU9Vz2T_11yoke_derive, symObjAddr: 0x2FEC, symBinAddr: 0x4F0F8, symSize: 0x24 }
  - { offset: 0xAF76B, size: 0x8, addend: 0x0, symName: __RINvNtCsaNl6UpbT7bw_4core3ptr13drop_in_placeINtNtNtCsiTraAjBDcu4_5alloc3vec9into_iter8IntoIterTNtNtCsc29TF2YcYso_3syn4expr10FieldValueNtNtB1z_5token5CommaEEECsfQFyxU9Vz2T_11yoke_derive, symObjAddr: 0x3010, symBinAddr: 0x4F11C, symSize: 0x24 }
  - { offset: 0xAF79A, size: 0x8, addend: 0x0, symName: __RINvNtCsaNl6UpbT7bw_4core3ptr13drop_in_placeINtNtNtCsiTraAjBDcu4_5alloc3vec9into_iter8IntoIterTNtNtCsc29TF2YcYso_3syn4expr4ExprNtNtB1z_5token5CommaEEECsfQFyxU9Vz2T_11yoke_derive, symObjAddr: 0x3034, symBinAddr: 0x4F140, symSize: 0x24 }
  - { offset: 0xAF7C9, size: 0x8, addend: 0x0, symName: __RINvNtCsaNl6UpbT7bw_4core3ptr13drop_in_placeINtNtNtCsiTraAjBDcu4_5alloc3vec9into_iter8IntoIterTNtNtCsc29TF2YcYso_3syn4item5FnArgNtNtB1z_5token5CommaEEECsfQFyxU9Vz2T_11yoke_derive, symObjAddr: 0x3058, symBinAddr: 0x4F164, symSize: 0x24 }
  - { offset: 0xAF7F8, size: 0x8, addend: 0x0, symName: __RINvNtCsaNl6UpbT7bw_4core3ptr13drop_in_placeINtNtNtCsiTraAjBDcu4_5alloc3vec9into_iter8IntoIterTNtNtCsc29TF2YcYso_3syn4item7UseTreeNtNtB1z_5token5CommaEEECsfQFyxU9Vz2T_11yoke_derive, symObjAddr: 0x307C, symBinAddr: 0x4F188, symSize: 0x24 }
  - { offset: 0xAF827, size: 0x8, addend: 0x0, symName: __RINvNtCsaNl6UpbT7bw_4core3ptr13drop_in_placeINtNtNtCsiTraAjBDcu4_5alloc3vec9into_iter8IntoIterTNtNtCsc29TF2YcYso_3syn4path15GenericArgumentNtNtB1z_5token5CommaEEECsfQFyxU9Vz2T_11yoke_derive, symObjAddr: 0x30A0, symBinAddr: 0x4F1AC, symSize: 0x24 }
  - { offset: 0xAF856, size: 0x8, addend: 0x0, symName: __RINvNtCsaNl6UpbT7bw_4core3ptr13drop_in_placeINtNtNtCsiTraAjBDcu4_5alloc3vec9into_iter8IntoIterTNtNtCsc29TF2YcYso_3syn8generics12GenericParamNtNtB1z_5token5CommaEEECsfQFyxU9Vz2T_11yoke_derive, symObjAddr: 0x30C4, symBinAddr: 0x4F1D0, symSize: 0x24 }
  - { offset: 0xAF885, size: 0x8, addend: 0x0, symName: __RINvNtCsaNl6UpbT7bw_4core3ptr13drop_in_placeINtNtNtCsiTraAjBDcu4_5alloc3vec9into_iter8IntoIterTNtNtCsc29TF2YcYso_3syn8generics13CapturedParamNtNtB1z_5token5CommaEEECsfQFyxU9Vz2T_11yoke_derive, symObjAddr: 0x30E8, symBinAddr: 0x4F1F4, symSize: 0x24 }
  - { offset: 0xAF8B4, size: 0x8, addend: 0x0, symName: __RINvNtCsaNl6UpbT7bw_4core3ptr13drop_in_placeINtNtNtCsiTraAjBDcu4_5alloc3vec9into_iter8IntoIterTNtNtCsc29TF2YcYso_3syn8generics14WherePredicateNtNtB1z_5token5CommaEEECsfQFyxU9Vz2T_11yoke_derive, symObjAddr: 0x310C, symBinAddr: 0x4F218, symSize: 0x24 }
  - { offset: 0xAF8E3, size: 0x8, addend: 0x0, symName: __RINvNtCsaNl6UpbT7bw_4core3ptr13drop_in_placeINtNtNtCsiTraAjBDcu4_5alloc3vec9into_iter8IntoIterTNtNtCsc29TF2YcYso_3syn8lifetime8LifetimeNtNtB1z_5token4PlusEEECsfQFyxU9Vz2T_11yoke_derive, symObjAddr: 0x3130, symBinAddr: 0x4F23C, symSize: 0x24 }
  - { offset: 0xAF912, size: 0x8, addend: 0x0, symName: __RINvNtCsaNl6UpbT7bw_4core3ptr13drop_in_placeINtNtNtNtB4_4iter8adapters3map3MapINtNtNtCsiTraAjBDcu4_5alloc3vec9into_iter8IntoIterNtNtCsc29TF2YcYso_3syn4attr9AttributeENCINvNtNtB26_3gen4fold8fold_vecB22_NtNvCsfQFyxU9Vz2T_11yoke_derive16replace_lifetime15ReplaceLifetimeNvYB3d_NtB2J_4Fold14fold_attributeE0EEB3h_, symObjAddr: 0x3154, symBinAddr: 0x4F260, symSize: 0x24 }
  - { offset: 0xAF941, size: 0x8, addend: 0x0, symName: __RINvNtCsaNl6UpbT7bw_4core3ptr13drop_in_placeINtNtNtNtB4_4iter8adapters3map3MapINtNtNtCsiTraAjBDcu4_5alloc3vec9into_iter8IntoIterNtNtCsc29TF2YcYso_3syn4expr3ArmENCINvNtNtB26_3gen4fold8fold_vecB22_NtNvCsfQFyxU9Vz2T_11yoke_derive16replace_lifetime15ReplaceLifetimeNvYB37_NtB2D_4Fold8fold_armE0EEB3b_, symObjAddr: 0x3178, symBinAddr: 0x4F284, symSize: 0x24 }
  - { offset: 0xAF970, size: 0x8, addend: 0x0, symName: __RINvNtCsaNl6UpbT7bw_4core3ptr13drop_in_placeINtNtNtNtB4_4iter8adapters3map3MapINtNtNtCsiTraAjBDcu4_5alloc3vec9into_iter8IntoIterNtNtCsc29TF2YcYso_3syn4item11ForeignItemENCINvNtNtB26_3gen4fold8fold_vecB22_NtNvCsfQFyxU9Vz2T_11yoke_derive16replace_lifetime15ReplaceLifetimeNvYB3g_NtB2M_4Fold17fold_foreign_itemE0EEB3k_, symObjAddr: 0x319C, symBinAddr: 0x4F2A8, symSize: 0x24 }
  - { offset: 0xAF99F, size: 0x8, addend: 0x0, symName: __RINvNtCsaNl6UpbT7bw_4core3ptr13drop_in_placeINtNtNtNtB4_4iter8adapters3map3MapINtNtNtCsiTraAjBDcu4_5alloc3vec9into_iter8IntoIterNtNtCsc29TF2YcYso_3syn4item4ItemENCINvNtNtB26_3gen4fold8fold_vecB22_NtNvCsfQFyxU9Vz2T_11yoke_derive16replace_lifetime15ReplaceLifetimeNvYB38_NtB2E_4Fold9fold_itemE0EEB3c_, symObjAddr: 0x31C0, symBinAddr: 0x4F2CC, symSize: 0x24 }
  - { offset: 0xAF9CE, size: 0x8, addend: 0x0, symName: __RINvNtCsaNl6UpbT7bw_4core3ptr13drop_in_placeINtNtNtNtB4_4iter8adapters3map3MapINtNtNtCsiTraAjBDcu4_5alloc3vec9into_iter8IntoIterNtNtCsc29TF2YcYso_3syn4item8ImplItemENCINvNtNtB26_3gen4fold8fold_vecB22_NtNvCsfQFyxU9Vz2T_11yoke_derive16replace_lifetime15ReplaceLifetimeNvYB3c_NtB2I_4Fold14fold_impl_itemE0EEB3g_, symObjAddr: 0x31E4, symBinAddr: 0x4F2F0, symSize: 0x24 }
  - { offset: 0xAF9FD, size: 0x8, addend: 0x0, symName: __RINvNtCsaNl6UpbT7bw_4core3ptr13drop_in_placeINtNtNtNtB4_4iter8adapters3map3MapINtNtNtCsiTraAjBDcu4_5alloc3vec9into_iter8IntoIterNtNtCsc29TF2YcYso_3syn4item9TraitItemENCINvNtNtB26_3gen4fold8fold_vecB22_NtNvCsfQFyxU9Vz2T_11yoke_derive16replace_lifetime15ReplaceLifetimeNvYB3d_NtB2J_4Fold15fold_trait_itemE0EEB3h_, symObjAddr: 0x3208, symBinAddr: 0x4F314, symSize: 0x24 }
  - { offset: 0xAFA2C, size: 0x8, addend: 0x0, symName: __RINvNtCsaNl6UpbT7bw_4core3ptr13drop_in_placeINtNtNtNtB4_4iter8adapters3map3MapINtNtNtCsiTraAjBDcu4_5alloc3vec9into_iter8IntoIterNtNtCsc29TF2YcYso_3syn4stmt4StmtENCINvNtNtB26_3gen4fold8fold_vecB22_NtNvCsfQFyxU9Vz2T_11yoke_derive16replace_lifetime15ReplaceLifetimeNvYB38_NtB2E_4Fold9fold_stmtE0EEB3c_, symObjAddr: 0x322C, symBinAddr: 0x4F338, symSize: 0x24 }
  - { offset: 0xAFA5B, size: 0x8, addend: 0x0, symName: __RINvNtCsaNl6UpbT7bw_4core3ptr13drop_in_placeINtNtNtNtB4_4iter8adapters3map3MapINtNtNtCsiTraAjBDcu4_5alloc3vec9into_iter8IntoIterTNtNtCsc29TF2YcYso_3syn2ty4TypeNtNtB27_5token5CommaEENCINvNtB27_10punctuated4foldB23_B2x_NtNvCsfQFyxU9Vz2T_11yoke_derive16replace_lifetime15ReplaceLifetimeNvYB3t_NtNtNtB27_3gen4fold4Fold9fold_typeE0EEB3x_, symObjAddr: 0x3250, symBinAddr: 0x4F35C, symSize: 0x24 }
  - { offset: 0xAFA8A, size: 0x8, addend: 0x0, symName: __RINvNtCsaNl6UpbT7bw_4core3ptr13drop_in_placeINtNtNtNtB4_4iter8adapters3map3MapINtNtNtCsiTraAjBDcu4_5alloc3vec9into_iter8IntoIterTNtNtCsc29TF2YcYso_3syn2ty9BareFnArgNtNtB27_5token5CommaEENCINvNtB27_10punctuated4foldB23_B2C_NtNvCsfQFyxU9Vz2T_11yoke_derive16replace_lifetime15ReplaceLifetimeNvYB3y_NtNtNtB27_3gen4fold4Fold16fold_bare_fn_argE0EEB3C_, symObjAddr: 0x3274, symBinAddr: 0x4F380, symSize: 0x24 }
  - { offset: 0xAFAB9, size: 0x8, addend: 0x0, symName: __RINvNtCsaNl6UpbT7bw_4core3ptr13drop_in_placeINtNtNtNtB4_4iter8adapters3map3MapINtNtNtCsiTraAjBDcu4_5alloc3vec9into_iter8IntoIterTNtNtCsc29TF2YcYso_3syn3pat3PatNtNtB27_5token2OrEENCINvNtB27_10punctuated4foldB23_B2x_NtNvCsfQFyxU9Vz2T_11yoke_derive16replace_lifetime15ReplaceLifetimeNvYB3q_NtNtNtB27_3gen4fold4Fold8fold_patE0EEB3u_, symObjAddr: 0x3298, symBinAddr: 0x4F3A4, symSize: 0x24 }
  - { offset: 0xAFAE8, size: 0x8, addend: 0x0, symName: __RINvNtCsaNl6UpbT7bw_4core3ptr13drop_in_placeINtNtNtNtB4_4iter8adapters3map3MapINtNtNtCsiTraAjBDcu4_5alloc3vec9into_iter8IntoIterTNtNtCsc29TF2YcYso_3syn3pat3PatNtNtB27_5token5CommaEENCINvNtB27_10punctuated4foldB23_B2x_NtNvCsfQFyxU9Vz2T_11yoke_derive16replace_lifetime15ReplaceLifetimeNvYB3t_NtNtNtB27_3gen4fold4Fold8fold_patE0EEB3x_, symObjAddr: 0x32BC, symBinAddr: 0x4F3C8, symSize: 0x24 }
  - { offset: 0xAFB17, size: 0x8, addend: 0x0, symName: __RINvNtCsaNl6UpbT7bw_4core3ptr13drop_in_placeINtNtNtNtB4_4iter8adapters3map3MapINtNtNtCsiTraAjBDcu4_5alloc3vec9into_iter8IntoIterTNtNtCsc29TF2YcYso_3syn3pat8FieldPatNtNtB27_5token5CommaEENCINvNtB27_10punctuated4foldB23_B2C_NtNvCsfQFyxU9Vz2T_11yoke_derive16replace_lifetime15ReplaceLifetimeNvYB3y_NtNtNtB27_3gen4fold4Fold14fold_field_patE0EEB3C_, symObjAddr: 0x32E0, symBinAddr: 0x4F3EC, symSize: 0x24 }
  - { offset: 0xAFB46, size: 0x8, addend: 0x0, symName: __RINvNtCsaNl6UpbT7bw_4core3ptr13drop_in_placeINtNtNtNtB4_4iter8adapters3map3MapINtNtNtCsiTraAjBDcu4_5alloc3vec9into_iter8IntoIterTNtNtCsc29TF2YcYso_3syn4data5FieldNtNtB27_5token5CommaEENCINvNtB27_10punctuated4foldB23_B2A_NtNvCsfQFyxU9Vz2T_11yoke_derive16replace_lifetime15ReplaceLifetimeNvYB3w_NtNtNtB27_3gen4fold4Fold10fold_fieldE0EEB3A_, symObjAddr: 0x3304, symBinAddr: 0x4F410, symSize: 0x24 }
  - { offset: 0xAFB75, size: 0x8, addend: 0x0, symName: __RINvNtCsaNl6UpbT7bw_4core3ptr13drop_in_placeINtNtNtNtB4_4iter8adapters3map3MapINtNtNtCsiTraAjBDcu4_5alloc3vec9into_iter8IntoIterTNtNtCsc29TF2YcYso_3syn4data7VariantNtNtB27_5token5CommaEENCINvNtB27_10punctuated4foldB23_B2C_NtNvCsfQFyxU9Vz2T_11yoke_derive16replace_lifetime15ReplaceLifetimeNvYB3y_NtNtNtB27_3gen4fold4Fold12fold_variantE0EEB3C_, symObjAddr: 0x3328, symBinAddr: 0x4F434, symSize: 0x24 }
  - { offset: 0xAFBA4, size: 0x8, addend: 0x0, symName: __RINvNtCsaNl6UpbT7bw_4core3ptr13drop_in_placeINtNtNtNtB4_4iter8adapters3map3MapINtNtNtCsiTraAjBDcu4_5alloc3vec9into_iter8IntoIterTNtNtCsc29TF2YcYso_3syn4expr10FieldValueNtNtB27_5token5CommaEENCINvNtB27_10punctuated4foldB23_B2G_NtNvCsfQFyxU9Vz2T_11yoke_derive16replace_lifetime15ReplaceLifetimeNvYB3C_NtNtNtB27_3gen4fold4Fold16fold_field_valueE0EEB3G_, symObjAddr: 0x334C, symBinAddr: 0x4F458, symSize: 0x24 }
  - { offset: 0xAFBD3, size: 0x8, addend: 0x0, symName: __RINvNtCsaNl6UpbT7bw_4core3ptr13drop_in_placeINtNtNtNtB4_4iter8adapters3map3MapINtNtNtCsiTraAjBDcu4_5alloc3vec9into_iter8IntoIterTNtNtCsc29TF2YcYso_3syn4expr4ExprNtNtB27_5token5CommaEENCINvNtB27_10punctuated4foldB23_B2z_NtNvCsfQFyxU9Vz2T_11yoke_derive16replace_lifetime15ReplaceLifetimeNvYB3v_NtNtNtB27_3gen4fold4Fold9fold_exprE0EEB3z_, symObjAddr: 0x3370, symBinAddr: 0x4F47C, symSize: 0x24 }
  - { offset: 0xAFC02, size: 0x8, addend: 0x0, symName: __RINvNtCsaNl6UpbT7bw_4core3ptr13drop_in_placeINtNtNtNtB4_4iter8adapters3map3MapINtNtNtCsiTraAjBDcu4_5alloc3vec9into_iter8IntoIterTNtNtCsc29TF2YcYso_3syn4item5FnArgNtNtB27_5token5CommaEENCINvNtB27_10punctuated4foldB23_B2A_NtNvCsfQFyxU9Vz2T_11yoke_derive16replace_lifetime15ReplaceLifetimeNvYB3w_NtNtNtB27_3gen4fold4Fold11fold_fn_argE0EEB3A_, symObjAddr: 0x3394, symBinAddr: 0x4F4A0, symSize: 0x24 }
  - { offset: 0xAFC31, size: 0x8, addend: 0x0, symName: __RINvNtCsaNl6UpbT7bw_4core3ptr13drop_in_placeINtNtNtNtB4_4iter8adapters3map3MapINtNtNtCsiTraAjBDcu4_5alloc3vec9into_iter8IntoIterTNtNtCsc29TF2YcYso_3syn4item7UseTreeNtNtB27_5token5CommaEENCINvNtB27_10punctuated4foldB23_B2C_NtNvCsfQFyxU9Vz2T_11yoke_derive16replace_lifetime15ReplaceLifetimeNvYB3y_NtNtNtB27_3gen4fold4Fold13fold_use_treeE0EEB3C_, symObjAddr: 0x33B8, symBinAddr: 0x4F4C4, symSize: 0x24 }
  - { offset: 0xAFC60, size: 0x8, addend: 0x0, symName: __RINvNtCsaNl6UpbT7bw_4core3ptr13drop_in_placeINtNtNtNtB4_4iter8adapters3map3MapINtNtNtCsiTraAjBDcu4_5alloc3vec9into_iter8IntoIterTNtNtCsc29TF2YcYso_3syn4path11PathSegmentNtNtB27_5token7PathSepEENCINvNtB27_10punctuated4foldB23_B2H_NtNvCsfQFyxU9Vz2T_11yoke_derive16replace_lifetime15ReplaceLifetimeNvYB3F_NtNtNtB27_3gen4fold4Fold17fold_path_segmentE0EEB3J_, symObjAddr: 0x33DC, symBinAddr: 0x4F4E8, symSize: 0x24 }
  - { offset: 0xAFC8F, size: 0x8, addend: 0x0, symName: __RINvNtCsaNl6UpbT7bw_4core3ptr13drop_in_placeINtNtNtNtB4_4iter8adapters3map3MapINtNtNtCsiTraAjBDcu4_5alloc3vec9into_iter8IntoIterTNtNtCsc29TF2YcYso_3syn4path15GenericArgumentNtNtB27_5token5CommaEENCINvNtB27_10punctuated4foldB23_B2L_NtNvCsfQFyxU9Vz2T_11yoke_derive16replace_lifetime15ReplaceLifetimeNvYB3H_NtNtNtB27_3gen4fold4Fold21fold_generic_argumentE0EEB3L_, symObjAddr: 0x3400, symBinAddr: 0x4F50C, symSize: 0x24 }
  - { offset: 0xAFCBE, size: 0x8, addend: 0x0, symName: __RINvNtCsaNl6UpbT7bw_4core3ptr13drop_in_placeINtNtNtNtB4_4iter8adapters3map3MapINtNtNtCsiTraAjBDcu4_5alloc3vec9into_iter8IntoIterTNtNtCsc29TF2YcYso_3syn8generics12GenericParamNtNtB27_5token5CommaEENCINvNtB27_10punctuated4foldB23_B2M_NtNvCsfQFyxU9Vz2T_11yoke_derive16replace_lifetime15ReplaceLifetimeNvYB3I_NtNtNtB27_3gen4fold4Fold18fold_generic_paramE0EEB3M_, symObjAddr: 0x3424, symBinAddr: 0x4F530, symSize: 0x24 }
  - { offset: 0xAFCED, size: 0x8, addend: 0x0, symName: __RINvNtCsaNl6UpbT7bw_4core3ptr13drop_in_placeINtNtNtNtB4_4iter8adapters3map3MapINtNtNtCsiTraAjBDcu4_5alloc3vec9into_iter8IntoIterTNtNtCsc29TF2YcYso_3syn8generics13CapturedParamNtNtB27_5token5CommaEENCINvNtB27_10punctuated4foldB23_B2N_NtNvCsfQFyxU9Vz2T_11yoke_derive16replace_lifetime15ReplaceLifetimeNvYB3J_NtNtNtB27_3gen4fold4Fold19fold_captured_paramE0EEB3N_, symObjAddr: 0x3448, symBinAddr: 0x4F554, symSize: 0x24 }
  - { offset: 0xAFD1C, size: 0x8, addend: 0x0, symName: __RINvNtCsaNl6UpbT7bw_4core3ptr13drop_in_placeINtNtNtNtB4_4iter8adapters3map3MapINtNtNtCsiTraAjBDcu4_5alloc3vec9into_iter8IntoIterTNtNtCsc29TF2YcYso_3syn8generics14TypeParamBoundNtNtB27_5token4PlusEENCINvNtB27_10punctuated4foldB23_B2O_NtNvCsfQFyxU9Vz2T_11yoke_derive16replace_lifetime15ReplaceLifetimeNvYB3J_NtNtNtB27_3gen4fold4Fold21fold_type_param_boundE0EEB3N_, symObjAddr: 0x346C, symBinAddr: 0x4F578, symSize: 0x24 }
  - { offset: 0xAFD4B, size: 0x8, addend: 0x0, symName: __RINvNtCsaNl6UpbT7bw_4core3ptr13drop_in_placeINtNtNtNtB4_4iter8adapters3map3MapINtNtNtCsiTraAjBDcu4_5alloc3vec9into_iter8IntoIterTNtNtCsc29TF2YcYso_3syn8generics14WherePredicateNtNtB27_5token5CommaEENCINvNtB27_10punctuated4foldB23_B2O_NtNvCsfQFyxU9Vz2T_11yoke_derive16replace_lifetime15ReplaceLifetimeNvYB3K_NtNtNtB27_3gen4fold4Fold20fold_where_predicateE0EEB3O_, symObjAddr: 0x3490, symBinAddr: 0x4F59C, symSize: 0x24 }
  - { offset: 0xAFD7A, size: 0x8, addend: 0x0, symName: __RINvNtCsaNl6UpbT7bw_4core3ptr13drop_in_placeINtNtNtNtB4_4iter8adapters3map3MapINtNtNtCsiTraAjBDcu4_5alloc3vec9into_iter8IntoIterTNtNtCsc29TF2YcYso_3syn8lifetime8LifetimeNtNtB27_5token4PlusEENCINvNtB27_10punctuated4foldB23_B2H_NtNvCsfQFyxU9Vz2T_11yoke_derive16replace_lifetime15ReplaceLifetimeNvYB3C_NtNtNtB27_3gen4fold4Fold13fold_lifetimeE0EEB3G_, symObjAddr: 0x34B4, symBinAddr: 0x4F5C0, symSize: 0x24 }
  - { offset: 0xAFDA9, size: 0x8, addend: 0x0, symName: __RINvNtCsaNl6UpbT7bw_4core3ptr13drop_in_placeINtNtNtNtB4_4iter8adapters3map3MapNtNtCsc29TF2YcYso_3syn8generics10TypeParamsNCNvCsfQFyxU9Vz2T_11yoke_derive20yokeable_derive_impl0EEB1Z_, symObjAddr: 0x34D8, symBinAddr: 0x4F5E4, symSize: 0x24 }
  - { offset: 0xAFDD8, size: 0x8, addend: 0x0, symName: __RINvNtCsaNl6UpbT7bw_4core3ptr13drop_in_placeINtNtNtNtCsht3nMU9UgFu_3std11collections4hash3set7HashSetNtCshnvkK9b4wzu_11proc_macro25IdentEECsfQFyxU9Vz2T_11yoke_derive, symObjAddr: 0x34FC, symBinAddr: 0x4F608, symSize: 0x24 }
  - { offset: 0xAFE07, size: 0x8, addend: 0x0, symName: __RINvNtCsaNl6UpbT7bw_4core3ptr13drop_in_placeINtNvXsd_NtNtCsiTraAjBDcu4_5alloc3vec9into_iterINtBP_8IntoIterppENtNtNtB4_3ops4drop4Drop4drop9DropGuardNtNtCsc29TF2YcYso_3syn4expr3ArmNtNtBT_5alloc6GlobalEECsfQFyxU9Vz2T_11yoke_derive, symObjAddr: 0x3520, symBinAddr: 0x4F62C, symSize: 0x24 }
  - { offset: 0xAFE36, size: 0x8, addend: 0x0, symName: __RINvNtCsaNl6UpbT7bw_4core3ptr13drop_in_placeINtNvXsd_NtNtCsiTraAjBDcu4_5alloc3vec9into_iterINtBP_8IntoIterppENtNtNtB4_3ops4drop4Drop4drop9DropGuardNtNtCsc29TF2YcYso_3syn4item11ForeignItemNtNtBT_5alloc6GlobalEECsfQFyxU9Vz2T_11yoke_derive, symObjAddr: 0x3544, symBinAddr: 0x4F650, symSize: 0x24 }
  - { offset: 0xAFE65, size: 0x8, addend: 0x0, symName: __RINvNtCsaNl6UpbT7bw_4core3ptr13drop_in_placeINtNvXsd_NtNtCsiTraAjBDcu4_5alloc3vec9into_iterINtBP_8IntoIterppENtNtNtB4_3ops4drop4Drop4drop9DropGuardNtNtCsc29TF2YcYso_3syn4item4ItemNtNtBT_5alloc6GlobalEECsfQFyxU9Vz2T_11yoke_derive, symObjAddr: 0x3568, symBinAddr: 0x4F674, symSize: 0x24 }
  - { offset: 0xAFE94, size: 0x8, addend: 0x0, symName: __RINvNtCsaNl6UpbT7bw_4core3ptr13drop_in_placeINtNvXsd_NtNtCsiTraAjBDcu4_5alloc3vec9into_iterINtBP_8IntoIterppENtNtNtB4_3ops4drop4Drop4drop9DropGuardNtNtCsc29TF2YcYso_3syn4item8ImplItemNtNtBT_5alloc6GlobalEECsfQFyxU9Vz2T_11yoke_derive, symObjAddr: 0x358C, symBinAddr: 0x4F698, symSize: 0x24 }
  - { offset: 0xAFEC3, size: 0x8, addend: 0x0, symName: __RINvNtCsaNl6UpbT7bw_4core3ptr13drop_in_placeINtNvXsd_NtNtCsiTraAjBDcu4_5alloc3vec9into_iterINtBP_8IntoIterppENtNtNtB4_3ops4drop4Drop4drop9DropGuardNtNtCsc29TF2YcYso_3syn4item9TraitItemNtNtBT_5alloc6GlobalEECsfQFyxU9Vz2T_11yoke_derive, symObjAddr: 0x35B0, symBinAddr: 0x4F6BC, symSize: 0x24 }
  - { offset: 0xAFEF2, size: 0x8, addend: 0x0, symName: __RINvNtCsaNl6UpbT7bw_4core3ptr13drop_in_placeINtNvXsd_NtNtCsiTraAjBDcu4_5alloc3vec9into_iterINtBP_8IntoIterppENtNtNtB4_3ops4drop4Drop4drop9DropGuardNtNtCsc29TF2YcYso_3syn4stmt4StmtNtNtBT_5alloc6GlobalEECsfQFyxU9Vz2T_11yoke_derive, symObjAddr: 0x35D4, symBinAddr: 0x4F6E0, symSize: 0x24 }
  - { offset: 0xAFF21, size: 0x8, addend: 0x0, symName: __RINvNtCsaNl6UpbT7bw_4core3ptr13drop_in_placeINtNvXsd_NtNtCsiTraAjBDcu4_5alloc3vec9into_iterINtBP_8IntoIterppENtNtNtB4_3ops4drop4Drop4drop9DropGuardTNtNtCsc29TF2YcYso_3syn2ty4TypeNtNtB2q_5token5CommaENtNtBT_5alloc6GlobalEECsfQFyxU9Vz2T_11yoke_derive, symObjAddr: 0x35F8, symBinAddr: 0x4F704, symSize: 0x24 }
  - { offset: 0xAFF50, size: 0x8, addend: 0x0, symName: __RINvNtCsaNl6UpbT7bw_4core3ptr13drop_in_placeINtNvXsd_NtNtCsiTraAjBDcu4_5alloc3vec9into_iterINtBP_8IntoIterppENtNtNtB4_3ops4drop4Drop4drop9DropGuardTNtNtCsc29TF2YcYso_3syn2ty9BareFnArgNtNtB2q_5token5CommaENtNtBT_5alloc6GlobalEECsfQFyxU9Vz2T_11yoke_derive, symObjAddr: 0x361C, symBinAddr: 0x4F728, symSize: 0x24 }
  - { offset: 0xAFF7F, size: 0x8, addend: 0x0, symName: __RINvNtCsaNl6UpbT7bw_4core3ptr13drop_in_placeINtNvXsd_NtNtCsiTraAjBDcu4_5alloc3vec9into_iterINtBP_8IntoIterppENtNtNtB4_3ops4drop4Drop4drop9DropGuardTNtNtCsc29TF2YcYso_3syn3pat3PatNtNtB2q_5token2OrENtNtBT_5alloc6GlobalEECsfQFyxU9Vz2T_11yoke_derive, symObjAddr: 0x3640, symBinAddr: 0x4F74C, symSize: 0x24 }
  - { offset: 0xAFFAE, size: 0x8, addend: 0x0, symName: __RINvNtCsaNl6UpbT7bw_4core3ptr13drop_in_placeINtNvXsd_NtNtCsiTraAjBDcu4_5alloc3vec9into_iterINtBP_8IntoIterppENtNtNtB4_3ops4drop4Drop4drop9DropGuardTNtNtCsc29TF2YcYso_3syn3pat3PatNtNtB2q_5token5CommaENtNtBT_5alloc6GlobalEECsfQFyxU9Vz2T_11yoke_derive, symObjAddr: 0x3664, symBinAddr: 0x4F770, symSize: 0x24 }
  - { offset: 0xAFFDD, size: 0x8, addend: 0x0, symName: __RINvNtCsaNl6UpbT7bw_4core3ptr13drop_in_placeINtNvXsd_NtNtCsiTraAjBDcu4_5alloc3vec9into_iterINtBP_8IntoIterppENtNtNtB4_3ops4drop4Drop4drop9DropGuardTNtNtCsc29TF2YcYso_3syn3pat8FieldPatNtNtB2q_5token5CommaENtNtBT_5alloc6GlobalEECsfQFyxU9Vz2T_11yoke_derive, symObjAddr: 0x3688, symBinAddr: 0x4F794, symSize: 0x24 }
  - { offset: 0xB000C, size: 0x8, addend: 0x0, symName: __RINvNtCsaNl6UpbT7bw_4core3ptr13drop_in_placeINtNvXsd_NtNtCsiTraAjBDcu4_5alloc3vec9into_iterINtBP_8IntoIterppENtNtNtB4_3ops4drop4Drop4drop9DropGuardTNtNtCsc29TF2YcYso_3syn4data7VariantNtNtB2q_5token5CommaENtNtBT_5alloc6GlobalEECsfQFyxU9Vz2T_11yoke_derive, symObjAddr: 0x36AC, symBinAddr: 0x4F7B8, symSize: 0x24 }
  - { offset: 0xB003B, size: 0x8, addend: 0x0, symName: __RINvNtCsaNl6UpbT7bw_4core3ptr13drop_in_placeINtNvXsd_NtNtCsiTraAjBDcu4_5alloc3vec9into_iterINtBP_8IntoIterppENtNtNtB4_3ops4drop4Drop4drop9DropGuardTNtNtCsc29TF2YcYso_3syn4expr10FieldValueNtNtB2q_5token5CommaENtNtBT_5alloc6GlobalEECsfQFyxU9Vz2T_11yoke_derive, symObjAddr: 0x36D0, symBinAddr: 0x4F7DC, symSize: 0x24 }
  - { offset: 0xB006A, size: 0x8, addend: 0x0, symName: __RINvNtCsaNl6UpbT7bw_4core3ptr13drop_in_placeINtNvXsd_NtNtCsiTraAjBDcu4_5alloc3vec9into_iterINtBP_8IntoIterppENtNtNtB4_3ops4drop4Drop4drop9DropGuardTNtNtCsc29TF2YcYso_3syn4expr4ExprNtNtB2q_5token5CommaENtNtBT_5alloc6GlobalEECsfQFyxU9Vz2T_11yoke_derive, symObjAddr: 0x36F4, symBinAddr: 0x4F800, symSize: 0x24 }
  - { offset: 0xB0099, size: 0x8, addend: 0x0, symName: __RINvNtCsaNl6UpbT7bw_4core3ptr13drop_in_placeINtNvXsd_NtNtCsiTraAjBDcu4_5alloc3vec9into_iterINtBP_8IntoIterppENtNtNtB4_3ops4drop4Drop4drop9DropGuardTNtNtCsc29TF2YcYso_3syn4item5FnArgNtNtB2q_5token5CommaENtNtBT_5alloc6GlobalEECsfQFyxU9Vz2T_11yoke_derive, symObjAddr: 0x3718, symBinAddr: 0x4F824, symSize: 0x24 }
  - { offset: 0xB00C8, size: 0x8, addend: 0x0, symName: __RINvNtCsaNl6UpbT7bw_4core3ptr13drop_in_placeINtNvXsd_NtNtCsiTraAjBDcu4_5alloc3vec9into_iterINtBP_8IntoIterppENtNtNtB4_3ops4drop4Drop4drop9DropGuardTNtNtCsc29TF2YcYso_3syn4item7UseTreeNtNtB2q_5token5CommaENtNtBT_5alloc6GlobalEECsfQFyxU9Vz2T_11yoke_derive, symObjAddr: 0x373C, symBinAddr: 0x4F848, symSize: 0x24 }
  - { offset: 0xB00F7, size: 0x8, addend: 0x0, symName: __RINvNtCsaNl6UpbT7bw_4core3ptr13drop_in_placeINtNvXsd_NtNtCsiTraAjBDcu4_5alloc3vec9into_iterINtBP_8IntoIterppENtNtNtB4_3ops4drop4Drop4drop9DropGuardTNtNtCsc29TF2YcYso_3syn4path15GenericArgumentNtNtB2q_5token5CommaENtNtBT_5alloc6GlobalEECsfQFyxU9Vz2T_11yoke_derive, symObjAddr: 0x3760, symBinAddr: 0x4F86C, symSize: 0x24 }
  - { offset: 0xB0126, size: 0x8, addend: 0x0, symName: __RINvNtCsaNl6UpbT7bw_4core3ptr13drop_in_placeINtNvXsd_NtNtCsiTraAjBDcu4_5alloc3vec9into_iterINtBP_8IntoIterppENtNtNtB4_3ops4drop4Drop4drop9DropGuardTNtNtCsc29TF2YcYso_3syn8generics12GenericParamNtNtB2q_5token5CommaENtNtBT_5alloc6GlobalEECsfQFyxU9Vz2T_11yoke_derive, symObjAddr: 0x3784, symBinAddr: 0x4F890, symSize: 0x24 }
  - { offset: 0xB0155, size: 0x8, addend: 0x0, symName: __RINvNtCsaNl6UpbT7bw_4core3ptr13drop_in_placeINtNvXsd_NtNtCsiTraAjBDcu4_5alloc3vec9into_iterINtBP_8IntoIterppENtNtNtB4_3ops4drop4Drop4drop9DropGuardTNtNtCsc29TF2YcYso_3syn8generics13CapturedParamNtNtB2q_5token5CommaENtNtBT_5alloc6GlobalEECsfQFyxU9Vz2T_11yoke_derive, symObjAddr: 0x37A8, symBinAddr: 0x4F8B4, symSize: 0x24 }
  - { offset: 0xB0184, size: 0x8, addend: 0x0, symName: __RINvNtCsaNl6UpbT7bw_4core3ptr13drop_in_placeINtNvXsd_NtNtCsiTraAjBDcu4_5alloc3vec9into_iterINtBP_8IntoIterppENtNtNtB4_3ops4drop4Drop4drop9DropGuardTNtNtCsc29TF2YcYso_3syn8generics14WherePredicateNtNtB2q_5token5CommaENtNtBT_5alloc6GlobalEECsfQFyxU9Vz2T_11yoke_derive, symObjAddr: 0x37CC, symBinAddr: 0x4F8D8, symSize: 0x24 }
  - { offset: 0xB01B3, size: 0x8, addend: 0x0, symName: __RINvNtCsaNl6UpbT7bw_4core3ptr13drop_in_placeINtNvXsd_NtNtCsiTraAjBDcu4_5alloc3vec9into_iterINtBP_8IntoIterppENtNtNtB4_3ops4drop4Drop4drop9DropGuardTNtNtCsc29TF2YcYso_3syn8lifetime8LifetimeNtNtB2q_5token4PlusENtNtBT_5alloc6GlobalEECsfQFyxU9Vz2T_11yoke_derive, symObjAddr: 0x37F0, symBinAddr: 0x4F8FC, symSize: 0x24 }
  - { offset: 0xB01E2, size: 0x8, addend: 0x0, symName: __RINvNtCsaNl6UpbT7bw_4core3ptr13drop_in_placeNCINvMsi_NtCsiTraAjBDcu4_5alloc3vecINtBP_3VecNtCshnvkK9b4wzu_11proc_macro25IdentE14extend_trustedINtNtNtNtB4_4iter8adapters3map3MapINtNtNtB4_5slice4iter4IterNtNtCsc29TF2YcYso_3syn8generics9TypeParamENCNvCsfQFyxU9Vz2T_11yoke_derive20yokeable_derive_impls_0EE0EB3X_, symObjAddr: 0x3814, symBinAddr: 0x4F920, symSize: 0x24 }
  - { offset: 0xB0211, size: 0x8, addend: 0x0, symName: __RINvNtCsaNl6UpbT7bw_4core3ptr13drop_in_placeNCINvMsi_NtCsiTraAjBDcu4_5alloc3vecINtBP_3VecNtNtCsc29TF2YcYso_3syn8generics14WherePredicateE14extend_trustedINtNtNtNtB4_4iter8adapters3map3MapINtNtNtB4_5slice4iter4IterNtCshnvkK9b4wzu_11proc_macro25IdentENCNvCsfQFyxU9Vz2T_11yoke_derive20yokeable_derive_impls0_0EE0EB43_, symObjAddr: 0x3838, symBinAddr: 0x4F944, symSize: 0x24 }
  - { offset: 0xB0240, size: 0x8, addend: 0x0, symName: __RINvNtCsaNl6UpbT7bw_4core3ptr13drop_in_placeNCINvMsi_NtCsiTraAjBDcu4_5alloc3vecINtBP_3VecNtNtCsc29TF2YcYso_3syn8generics14WherePredicateE14extend_trustedINtNtNtNtB4_4iter8adapters3map3MapINtNtNtB4_5slice4iter4IterNtCshnvkK9b4wzu_11proc_macro25IdentENCNvCsfQFyxU9Vz2T_11yoke_derive20yokeable_derive_impls2_0EE0EB43_, symObjAddr: 0x385C, symBinAddr: 0x4F968, symSize: 0x24 }
  - { offset: 0xB026F, size: 0x8, addend: 0x0, symName: __RINvNtCsaNl6UpbT7bw_4core3ptr13drop_in_placeNCINvNtNtNtB4_4iter8adapters3map8map_foldRNtCshnvkK9b4wzu_11proc_macro25IdentNtNtCsc29TF2YcYso_3syn8generics14WherePredicateuNCNvCsfQFyxU9Vz2T_11yoke_derive20yokeable_derive_impls0_0NCINvNvNtNtNtBP_6traits8iterator8Iterator8for_each4callB1V_NCINvMsi_NtCsiTraAjBDcu4_5alloc3vecINtB4I_3VecB1V_E14extend_trustedINtBL_3MapINtNtNtB4_5slice4iter4IterB1m_EB2H_EE0E0E0EB2L_, symObjAddr: 0x3880, symBinAddr: 0x4F98C, symSize: 0x24 }
  - { offset: 0xB029E, size: 0x8, addend: 0x0, symName: __RINvNtCsaNl6UpbT7bw_4core3ptr13drop_in_placeNCINvNtNtNtB4_4iter8adapters3map8map_foldRNtCshnvkK9b4wzu_11proc_macro25IdentNtNtCsc29TF2YcYso_3syn8generics14WherePredicateuNCNvCsfQFyxU9Vz2T_11yoke_derive20yokeable_derive_impls2_0NCINvNvNtNtNtBP_6traits8iterator8Iterator8for_each4callB1V_NCINvMsi_NtCsiTraAjBDcu4_5alloc3vecINtB4I_3VecB1V_E14extend_trustedINtBL_3MapINtNtNtB4_5slice4iter4IterB1m_EB2H_EE0E0E0EB2L_, symObjAddr: 0x38A4, symBinAddr: 0x4F9B0, symSize: 0x24 }
  - { offset: 0xB02CD, size: 0x8, addend: 0x0, symName: __RINvNtCsaNl6UpbT7bw_4core3ptr13drop_in_placeNCINvNtNtNtB4_4iter8adapters3map8map_foldRNtNtCsc29TF2YcYso_3syn8generics9TypeParamNtCshnvkK9b4wzu_11proc_macro25IdentuNCNvCsfQFyxU9Vz2T_11yoke_derive20yokeable_derive_impls_0NCINvNvNtNtNtBP_6traits8iterator8Iterator8for_each4callB21_NCINvMsi_NtCsiTraAjBDcu4_5alloc3vecINtB4B_3VecB21_E14extend_trustedINtBL_3MapINtNtNtB4_5slice4iter4IterB1m_EB2B_EE0E0E0EB2F_, symObjAddr: 0x38C8, symBinAddr: 0x4F9D4, symSize: 0x24 }
  - { offset: 0xB02FC, size: 0x8, addend: 0x0, symName: __RINvNtCsaNl6UpbT7bw_4core3ptr13drop_in_placeNCINvNvNtNtNtNtB4_4iter6traits8iterator8Iterator8for_each4callNtCshnvkK9b4wzu_11proc_macro25IdentNCINvMsi_NtCsiTraAjBDcu4_5alloc3vecINtB2o_3VecB1G_E14extend_trustedINtNtNtBT_8adapters3map3MapINtNtNtB4_5slice4iter4IterNtNtCsc29TF2YcYso_3syn8generics9TypeParamENCNvCsfQFyxU9Vz2T_11yoke_derive20yokeable_derive_impls_0EE0E0EB4V_, symObjAddr: 0x38EC, symBinAddr: 0x4F9F8, symSize: 0x24 }
  - { offset: 0xB032B, size: 0x8, addend: 0x0, symName: __RINvNtCsaNl6UpbT7bw_4core3ptr13drop_in_placeNCINvNvNtNtNtNtB4_4iter6traits8iterator8Iterator8for_each4callNtNtCsc29TF2YcYso_3syn8generics14WherePredicateNCINvMsi_NtCsiTraAjBDcu4_5alloc3vecINtB2A_3VecB1G_E14extend_trustedINtNtNtBT_8adapters3map3MapINtNtNtB4_5slice4iter4IterNtCshnvkK9b4wzu_11proc_macro25IdentENCNvCsfQFyxU9Vz2T_11yoke_derive20yokeable_derive_impls0_0EE0E0EB51_, symObjAddr: 0x3910, symBinAddr: 0x4FA1C, symSize: 0x24 }
  - { offset: 0xB035A, size: 0x8, addend: 0x0, symName: __RINvNtCsaNl6UpbT7bw_4core3ptr13drop_in_placeNCINvNvNtNtNtNtB4_4iter6traits8iterator8Iterator8for_each4callNtNtCsc29TF2YcYso_3syn8generics14WherePredicateNCINvMsi_NtCsiTraAjBDcu4_5alloc3vecINtB2A_3VecB1G_E14extend_trustedINtNtNtBT_8adapters3map3MapINtNtNtB4_5slice4iter4IterNtCshnvkK9b4wzu_11proc_macro25IdentENCNvCsfQFyxU9Vz2T_11yoke_derive20yokeable_derive_impls2_0EE0E0EB51_, symObjAddr: 0x3934, symBinAddr: 0x4FA40, symSize: 0x24 }
  - { offset: 0xB0389, size: 0x8, addend: 0x0, symName: __RINvNtCsaNl6UpbT7bw_4core3ptr13drop_in_placeNCNCINvNtNtCs7yrEGia95Wz_10proc_macro6bridge6client10run_clientNtBN_11TokenStreamINtNtB4_6option6OptionB1H_ENCNCINvMs6_BN_INtBN_6ClientNtBR_11TokenStreamB2R_E7expand1NvCsfQFyxU9Vz2T_11yoke_derive15yokeable_deriveE00E00EB3o_, symObjAddr: 0x3958, symBinAddr: 0x4FA64, symSize: 0x24 }
  - { offset: 0xB03B8, size: 0x8, addend: 0x0, symName: __RINvNtCsaNl6UpbT7bw_4core3ptr13drop_in_placeNtCs3Xr6wkqZdQw_12synstructure9StructureECsfQFyxU9Vz2T_11yoke_derive, symObjAddr: 0x397C, symBinAddr: 0x4FA88, symSize: 0x90 }
  - { offset: 0xB03E7, size: 0x8, addend: 0x0, symName: __RINvNtCsaNl6UpbT7bw_4core3ptr13drop_in_placeNtNtCsc29TF2YcYso_3syn6derive11DeriveInputECsfQFyxU9Vz2T_11yoke_derive, symObjAddr: 0x3A0C, symBinAddr: 0x4FB18, symSize: 0xEC }
  - { offset: 0xB0416, size: 0x8, addend: 0x0, symName: __RINvNtCsaNl6UpbT7bw_4core3ptr13drop_in_placeNtNtCsc29TF2YcYso_3syn8generics10TypeParamsECsfQFyxU9Vz2T_11yoke_derive, symObjAddr: 0x3AF8, symBinAddr: 0x4FC04, symSize: 0x24 }
  - { offset: 0xB0445, size: 0x8, addend: 0x0, symName: __RINvNtCsaNl6UpbT7bw_4core3ptr13drop_in_placeNtNtCsc29TF2YcYso_3syn8generics9LifetimesECsfQFyxU9Vz2T_11yoke_derive, symObjAddr: 0x3B1C, symBinAddr: 0x4FC28, symSize: 0x24 }
  - { offset: 0xB0474, size: 0x8, addend: 0x0, symName: __RINvNtCsaNl6UpbT7bw_4core3ptr13drop_in_placeNtNtNtCs7yrEGia95Wz_10proc_macro6bridge3rpc12PanicMessageECsfQFyxU9Vz2T_11yoke_derive, symObjAddr: 0x3B40, symBinAddr: 0x4FC4C, symSize: 0x50 }
  - { offset: 0xB04A3, size: 0x8, addend: 0x0, symName: __RINvNtCsaNl6UpbT7bw_4core3ptr13drop_in_placeNtNtNtCs7yrEGia95Wz_10proc_macro6bridge6buffer6BufferECsfQFyxU9Vz2T_11yoke_derive, symObjAddr: 0x3B90, symBinAddr: 0x4FC9C, symSize: 0x24 }
  - { offset: 0xB04D2, size: 0x8, addend: 0x0, symName: __RINvNtCsaNl6UpbT7bw_4core3ptr13drop_in_placeNtNtNtCs7yrEGia95Wz_10proc_macro6bridge6client6BridgeECsfQFyxU9Vz2T_11yoke_derive, symObjAddr: 0x3BB4, symBinAddr: 0x4FCC0, symSize: 0x24 }
  - { offset: 0xB0501, size: 0x8, addend: 0x0, symName: __RINvNtCsaNl6UpbT7bw_4core3ptr13drop_in_placeNtNtNtCsht3nMU9UgFu_3std2io5error5ErrorECsfQFyxU9Vz2T_11yoke_derive, symObjAddr: 0x3BD8, symBinAddr: 0x4FCE4, symSize: 0x24 }
  - { offset: 0xB0530, size: 0x8, addend: 0x0, symName: __RINvNtCsaNl6UpbT7bw_4core3ptr13drop_in_placeNtNtNtCsht3nMU9UgFu_3std2io5error6CustomECsfQFyxU9Vz2T_11yoke_derive, symObjAddr: 0x3BFC, symBinAddr: 0x4FD08, symSize: 0x24 }
  - { offset: 0xB055F, size: 0x8, addend: 0x0, symName: __RINvNtCsaNl6UpbT7bw_4core3ptr13drop_in_placeNtNtNtNtCsht3nMU9UgFu_3std2io5error14repr_bitpacked4ReprECsfQFyxU9Vz2T_11yoke_derive, symObjAddr: 0x3C20, symBinAddr: 0x4FD2C, symSize: 0x24 }
  - { offset: 0xB058E, size: 0x8, addend: 0x0, symName: __RINvNtCsaNl6UpbT7bw_4core3ptr13drop_in_placeNtNvCsfQFyxU9Vz2T_11yoke_derive16replace_lifetime15ReplaceLifetimeEBK_, symObjAddr: 0x3C44, symBinAddr: 0x4FD50, symSize: 0x24 }
  - { offset: 0xB05BD, size: 0x8, addend: 0x0, symName: __RINvNtCsaNl6UpbT7bw_4core3ptr13drop_in_placeNtNvNtNtNtCs7yrEGia95Wz_10proc_macro6bridge6client5state3set13RestoreOnDropECsfQFyxU9Vz2T_11yoke_derive, symObjAddr: 0x3C68, symBinAddr: 0x4FD74, symSize: 0x24 }
  - { offset: 0xB05EC, size: 0x8, addend: 0x0, symName: __RINvNtCsaNl6UpbT7bw_4core3ptr13drop_in_placeSNtCshnvkK9b4wzu_11proc_macro25IdentECsfQFyxU9Vz2T_11yoke_derive, symObjAddr: 0x3C8C, symBinAddr: 0x4FD98, symSize: 0xC4 }
  - { offset: 0xB061B, size: 0x8, addend: 0x0, symName: __RINvNtCsaNl6UpbT7bw_4core3ptr13drop_in_placeSNtNtCsc29TF2YcYso_3syn8generics14WherePredicateECsfQFyxU9Vz2T_11yoke_derive, symObjAddr: 0x3D50, symBinAddr: 0x4FE5C, symSize: 0xC4 }
  - { offset: 0xB064A, size: 0x8, addend: 0x0, symName: __RINvNtCsaNl6UpbT7bw_4core3ptr13drop_in_placeSNtNtCsc29TF2YcYso_3syn8generics9TypeParamECsfQFyxU9Vz2T_11yoke_derive, symObjAddr: 0x3E14, symBinAddr: 0x4FF20, symSize: 0xC4 }
  - { offset: 0xB0679, size: 0x8, addend: 0x0, symName: __RINvNtCsaNl6UpbT7bw_4core3ptr13drop_in_placeTNtCshnvkK9b4wzu_11proc_macro25IdentuEECsfQFyxU9Vz2T_11yoke_derive, symObjAddr: 0x3ED8, symBinAddr: 0x4FFE4, symSize: 0x24 }
  - { offset: 0xB37F4, size: 0x8, addend: 0x0, symName: __RNvNvMs9_NtCsaNl6UpbT7bw_4core3numj13unchecked_add18precondition_checkCsfQFyxU9Vz2T_11yoke_derive, symObjAddr: 0x4F0C, symBinAddr: 0x50FF0, symSize: 0xB0 }
  - { offset: 0xB38B2, size: 0x8, addend: 0x0, symName: __RNvNvMs9_NtCsaNl6UpbT7bw_4core3numj13unchecked_mul18precondition_checkCsfQFyxU9Vz2T_11yoke_derive, symObjAddr: 0x4FBC, symBinAddr: 0x510A0, symSize: 0xAC }
  - { offset: 0xB415D, size: 0x8, addend: 0x0, symName: __RNCINvNvNtNtNtNtCsaNl6UpbT7bw_4core4iter6traits8iterator8Iterator8for_each4callNtCshnvkK9b4wzu_11proc_macro25IdentNCINvMsi_NtCsiTraAjBDcu4_5alloc3vecINtB1X_3VecB1f_E14extend_trustedINtNtNtBc_8adapters3map3MapINtNtNtBe_5slice4iter4IterNtNtCsc29TF2YcYso_3syn8generics9TypeParamENCNvCsfQFyxU9Vz2T_11yoke_derive20yokeable_derive_impls_0EE0E0B4u_, symObjAddr: 0x422C, symBinAddr: 0x50310, symSize: 0x3C }
  - { offset: 0xB41B6, size: 0x8, addend: 0x0, symName: __RNCINvNvNtNtNtNtCsaNl6UpbT7bw_4core4iter6traits8iterator8Iterator8for_each4callNtNtCsc29TF2YcYso_3syn8generics14WherePredicateNCINvMsi_NtCsiTraAjBDcu4_5alloc3vecINtB29_3VecB1f_E14extend_trustedINtNtNtBc_8adapters3map3MapINtNtNtBe_5slice4iter4IterNtCshnvkK9b4wzu_11proc_macro25IdentENCNvCsfQFyxU9Vz2T_11yoke_derive20yokeable_derive_impls0_0EE0E0B4A_, symObjAddr: 0x4268, symBinAddr: 0x5034C, symSize: 0x48 }
  - { offset: 0xB420F, size: 0x8, addend: 0x0, symName: __RNCINvNvNtNtNtNtCsaNl6UpbT7bw_4core4iter6traits8iterator8Iterator8for_each4callNtNtCsc29TF2YcYso_3syn8generics14WherePredicateNCINvMsi_NtCsiTraAjBDcu4_5alloc3vecINtB29_3VecB1f_E14extend_trustedINtNtNtBc_8adapters3map3MapINtNtNtBe_5slice4iter4IterNtCshnvkK9b4wzu_11proc_macro25IdentENCNvCsfQFyxU9Vz2T_11yoke_derive20yokeable_derive_impls2_0EE0E0B4A_, symObjAddr: 0x42B0, symBinAddr: 0x50394, symSize: 0x48 }
  - { offset: 0xB4268, size: 0x8, addend: 0x0, symName: __RNCINvNvNtNtNtNtCsaNl6UpbT7bw_4core4iter6traits8iterator8Iterator8for_each4callTNtCshnvkK9b4wzu_11proc_macro25IdentuENCINvXs1i_NtCsg4dki62PTrg_9hashbrown3mapINtB21_7HashMapB1g_uNtNtNtCsht3nMU9UgFu_3std4hash6random11RandomStateEINtNtBa_7collect6ExtendB1f_E6extendINtNtNtBc_8adapters3map3MapINtNtB4h_6cloned6ClonedINtNtNtBe_5slice4iter4IterB1g_EENCINvXs8_NtB23_3setINtB5F_7HashSetB1g_B2P_EIB3E_B1g_E6extendB4D_E0EE0E0CsfQFyxU9Vz2T_11yoke_derive, symObjAddr: 0x42F8, symBinAddr: 0x503DC, symSize: 0x3C }
  - { offset: 0xB4301, size: 0x8, addend: 0x0, symName: __RNCNvYNtNtCsc29TF2YcYso_3syn8generics9LifetimesNtNtNtNtCsaNl6UpbT7bw_4core4iter6traits8iterator8Iterator5count0CsfQFyxU9Vz2T_11yoke_derive, symObjAddr: 0x4370, symBinAddr: 0x50454, symSize: 0x68 }
  - { offset: 0xB48FF, size: 0x8, addend: 0x0, symName: __RNSNvYNCINvMs6_NtCsg4dki62PTrg_9hashbrown3rawINtBd_8RawTableTNtCshnvkK9b4wzu_11proc_macro25IdentuEE14reserve_rehashNCINvNtBf_3map11make_hasherBX_uNtNtNtCsht3nMU9UgFu_3std4hash6random11RandomStateE0E0INtNtNtCsaNl6UpbT7bw_4core3ops8function6FnOnceTQNtBd_13RawTableInnerjEE9call_once6vtableCsfQFyxU9Vz2T_11yoke_derive, symObjAddr: 0x4694, symBinAddr: 0x50778, symSize: 0x38 }
  - { offset: 0xB4943, size: 0x8, addend: 0x0, symName: __RNSNvYNCINvMs6_NtCsg4dki62PTrg_9hashbrown3rawINtBd_8RawTableTNtCshnvkK9b4wzu_11proc_macro25IdentuEE24find_or_find_insert_slotNCINvNtBf_3map14equivalent_keyBX_BX_uE0NCINvB24_11make_hasherBX_uNtNtNtCsht3nMU9UgFu_3std4hash6random11RandomStateE0E0INtNtNtCsaNl6UpbT7bw_4core3ops8function6FnOnceTjEE9call_once6vtableCsfQFyxU9Vz2T_11yoke_derive, symObjAddr: 0x46CC, symBinAddr: 0x507B0, symSize: 0x38 }
  - { offset: 0xB4987, size: 0x8, addend: 0x0, symName: __RNSNvYNCINvMs6_NtCsg4dki62PTrg_9hashbrown3rawINtBd_8RawTableTNtCshnvkK9b4wzu_11proc_macro25IdentuEE4findNCINvNtBf_3map14equivalent_keyBX_BX_uE0E0INtNtNtCsaNl6UpbT7bw_4core3ops8function6FnOnceTjEE9call_once6vtableCsfQFyxU9Vz2T_11yoke_derive, symObjAddr: 0x4704, symBinAddr: 0x507E8, symSize: 0x38 }
  - { offset: 0xB49CB, size: 0x8, addend: 0x0, symName: __RNvYNCINvMs6_NtCsg4dki62PTrg_9hashbrown3rawINtBb_8RawTableTNtCshnvkK9b4wzu_11proc_macro25IdentuEE14reserve_rehashNCINvNtBd_3map11make_hasherBV_uNtNtNtCsht3nMU9UgFu_3std4hash6random11RandomStateE0E0INtNtNtCsaNl6UpbT7bw_4core3ops8function6FnOnceTQNtBb_13RawTableInnerjEE9call_onceCsfQFyxU9Vz2T_11yoke_derive, symObjAddr: 0x5EAC, symBinAddr: 0x51F90, symSize: 0x5C }
  - { offset: 0xB4A0F, size: 0x8, addend: 0x0, symName: __RNvYNCINvMs6_NtCsg4dki62PTrg_9hashbrown3rawINtBb_8RawTableTNtCshnvkK9b4wzu_11proc_macro25IdentuEE14reserve_rehashNCINvNtBd_3map11make_hasherBV_uNtNtNtCsht3nMU9UgFu_3std4hash6random11RandomStateE0Es_0INtNtNtCsaNl6UpbT7bw_4core3ops8function6FnOnceTOhEE9call_onceCsfQFyxU9Vz2T_11yoke_derive, symObjAddr: 0x5F08, symBinAddr: 0x51FEC, symSize: 0x44 }
  - { offset: 0xB4A4F, size: 0x8, addend: 0x0, symName: __RNvYNCINvMs6_NtCsg4dki62PTrg_9hashbrown3rawINtBb_8RawTableTNtCshnvkK9b4wzu_11proc_macro25IdentuEE24find_or_find_insert_slotNCINvNtBd_3map14equivalent_keyBV_BV_uE0NCINvB22_11make_hasherBV_uNtNtNtCsht3nMU9UgFu_3std4hash6random11RandomStateE0E0INtNtNtCsaNl6UpbT7bw_4core3ops8function6FnOnceTjEE9call_onceCsfQFyxU9Vz2T_11yoke_derive, symObjAddr: 0x5F4C, symBinAddr: 0x52030, symSize: 0x58 }
  - { offset: 0xB4A93, size: 0x8, addend: 0x0, symName: __RNvYNCINvMs6_NtCsg4dki62PTrg_9hashbrown3rawINtBb_8RawTableTNtCshnvkK9b4wzu_11proc_macro25IdentuEE4findNCINvNtBd_3map14equivalent_keyBV_BV_uE0E0INtNtNtCsaNl6UpbT7bw_4core3ops8function6FnOnceTjEE9call_onceCsfQFyxU9Vz2T_11yoke_derive, symObjAddr: 0x5FA4, symBinAddr: 0x52088, symSize: 0x58 }
  - { offset: 0xB4AD7, size: 0x8, addend: 0x0, symName: __RNvYNCNkNvNtNtNtCs7yrEGia95Wz_10proc_macro6bridge6client5state12BRIDGE_STATE0s_0INtNtNtCsaNl6UpbT7bw_4core3ops8function6FnOnceTINtNtB1n_6option6OptionQIB22_INtNtB1n_4cell4CellPuEEEEE9call_onceCsfQFyxU9Vz2T_11yoke_derive, symObjAddr: 0x5FFC, symBinAddr: 0x520E0, symSize: 0x4C }
  - { offset: 0xB4B1B, size: 0x8, addend: 0x0, symName: __RNvYNCNkNvNvMNtNtCsht3nMU9UgFu_3std4hash6randomNtBb_11RandomState3new4KEYS0s_0INtNtNtCsaNl6UpbT7bw_4core3ops8function6FnOnceTINtNtB1l_6option6OptionQIB20_INtNtB1l_4cell4CellTyyEEEEEE9call_onceCsfQFyxU9Vz2T_11yoke_derive, symObjAddr: 0x6048, symBinAddr: 0x5212C, symSize: 0x4C }
  - { offset: 0xB4B5F, size: 0x8, addend: 0x0, symName: __RNvYNvYNtCshnvkK9b4wzu_11proc_macro25IdentNtNtCsc29TF2YcYso_3syn5parse5Parse5parseINtNtNtCsaNl6UpbT7bw_4core3ops8function6FnOnceTRNtBG_11ParseBufferEE9call_onceCsfQFyxU9Vz2T_11yoke_derive, symObjAddr: 0x60E4, symBinAddr: 0x521C8, symSize: 0x24 }
  - { offset: 0xB4BA3, size: 0x8, addend: 0x0, symName: __RNvYNvYNtNtCsc29TF2YcYso_3syn6derive11DeriveInputNtNtB9_5parse5Parse5parseINtNtNtCsaNl6UpbT7bw_4core3ops8function6FnOnceTRNtBN_11ParseBufferEE9call_onceCsfQFyxU9Vz2T_11yoke_derive, symObjAddr: 0x6108, symBinAddr: 0x521EC, symSize: 0x24 }
  - { offset: 0xB4BE7, size: 0x8, addend: 0x0, symName: __RNvYNvYNtNtCsc29TF2YcYso_3syn8generics14WherePredicateNtNtB9_11parse_quote10ParseQuote5parseINtNtNtCsaNl6UpbT7bw_4core3ops8function6FnOnceTRNtNtB9_5parse11ParseBufferEE9call_onceCsfQFyxU9Vz2T_11yoke_derive, symObjAddr: 0x612C, symBinAddr: 0x52210, symSize: 0x24 }
  - { offset: 0xB4C31, size: 0x8, addend: 0x0, symName: __RNvYNvCsfQFyxU9Vz2T_11yoke_derive15yokeable_deriveINtNtNtCsaNl6UpbT7bw_4core3ops8function2FnTNtCs7yrEGia95Wz_10proc_macro11TokenStreamEE4callB4_, symObjAddr: 0x6094, symBinAddr: 0x52178, symSize: 0x28 }
  - { offset: 0xB4C7B, size: 0x8, addend: 0x0, symName: __RNvYNvYNtCshnvkK9b4wzu_11proc_macro25IdentNtNtCsaNl6UpbT7bw_4core5clone5Clone5cloneINtNtNtBI_3ops8function5FnMutTRB5_EE8call_mutCsfQFyxU9Vz2T_11yoke_derive, symObjAddr: 0x60BC, symBinAddr: 0x521A0, symSize: 0x28 }
  - { offset: 0xB4CBF, size: 0x8, addend: 0x0, symName: __RNvYNvYNtNvCsfQFyxU9Vz2T_11yoke_derive16replace_lifetime15ReplaceLifetimeNtNtNtCsc29TF2YcYso_3syn3gen4fold4Fold10fold_fieldINtNtNtCsaNl6UpbT7bw_4core3ops8function5FnMutTQB5_NtNtB1f_4data5FieldEE8call_mutB9_, symObjAddr: 0x6150, symBinAddr: 0x52234, symSize: 0x68 }
  - { offset: 0xB4D03, size: 0x8, addend: 0x0, symName: __RNvYNvYNtNvCsfQFyxU9Vz2T_11yoke_derive16replace_lifetime15ReplaceLifetimeNtNtNtCsc29TF2YcYso_3syn3gen4fold4Fold11fold_fn_argINtNtNtCsaNl6UpbT7bw_4core3ops8function5FnMutTQB5_NtNtB1f_4item5FnArgEE8call_mutB9_, symObjAddr: 0x61B8, symBinAddr: 0x5229C, symSize: 0x60 }
  - { offset: 0xB4D47, size: 0x8, addend: 0x0, symName: __RNvYNvYNtNvCsfQFyxU9Vz2T_11yoke_derive16replace_lifetime15ReplaceLifetimeNtNtNtCsc29TF2YcYso_3syn3gen4fold4Fold12fold_variantINtNtNtCsaNl6UpbT7bw_4core3ops8function5FnMutTQB5_NtNtB1f_4data7VariantEE8call_mutB9_, symObjAddr: 0x6218, symBinAddr: 0x522FC, symSize: 0x68 }
  - { offset: 0xB4D8B, size: 0x8, addend: 0x0, symName: __RNvYNvYNtNvCsfQFyxU9Vz2T_11yoke_derive16replace_lifetime15ReplaceLifetimeNtNtNtCsc29TF2YcYso_3syn3gen4fold4Fold13fold_lifetimeINtNtNtCsaNl6UpbT7bw_4core3ops8function5FnMutTQB5_NtNtB1f_8lifetime8LifetimeEE8call_mutB9_, symObjAddr: 0x6280, symBinAddr: 0x52364, symSize: 0x40 }
  - { offset: 0xB4DCF, size: 0x8, addend: 0x0, symName: __RNvYNvYNtNvCsfQFyxU9Vz2T_11yoke_derive16replace_lifetime15ReplaceLifetimeNtNtNtCsc29TF2YcYso_3syn3gen4fold4Fold13fold_use_treeINtNtNtCsaNl6UpbT7bw_4core3ops8function5FnMutTQB5_NtNtB1f_4item7UseTreeEE8call_mutB9_, symObjAddr: 0x62C0, symBinAddr: 0x523A4, symSize: 0x60 }
  - { offset: 0xB4E13, size: 0x8, addend: 0x0, symName: __RNvYNvYNtNvCsfQFyxU9Vz2T_11yoke_derive16replace_lifetime15ReplaceLifetimeNtNtNtCsc29TF2YcYso_3syn3gen4fold4Fold14fold_attributeINtNtNtCsaNl6UpbT7bw_4core3ops8function5FnMutTQB5_NtNtB1f_4attr9AttributeEE8call_mutB9_, symObjAddr: 0x6320, symBinAddr: 0x52404, symSize: 0x68 }
  - { offset: 0xB4E57, size: 0x8, addend: 0x0, symName: __RNvYNvYNtNvCsfQFyxU9Vz2T_11yoke_derive16replace_lifetime15ReplaceLifetimeNtNtNtCsc29TF2YcYso_3syn3gen4fold4Fold14fold_field_patINtNtNtCsaNl6UpbT7bw_4core3ops8function5FnMutTQB5_NtNtB1f_3pat8FieldPatEE8call_mutB9_, symObjAddr: 0x6388, symBinAddr: 0x5246C, symSize: 0x60 }
  - { offset: 0xB4E9B, size: 0x8, addend: 0x0, symName: __RNvYNvYNtNvCsfQFyxU9Vz2T_11yoke_derive16replace_lifetime15ReplaceLifetimeNtNtNtCsc29TF2YcYso_3syn3gen4fold4Fold14fold_impl_itemINtNtNtCsaNl6UpbT7bw_4core3ops8function5FnMutTQB5_NtNtB1f_4item8ImplItemEE8call_mutB9_, symObjAddr: 0x63E8, symBinAddr: 0x524CC, symSize: 0x68 }
  - { offset: 0xB4EDF, size: 0x8, addend: 0x0, symName: __RNvYNvYNtNvCsfQFyxU9Vz2T_11yoke_derive16replace_lifetime15ReplaceLifetimeNtNtNtCsc29TF2YcYso_3syn3gen4fold4Fold15fold_trait_itemINtNtNtCsaNl6UpbT7bw_4core3ops8function5FnMutTQB5_NtNtB1f_4item9TraitItemEE8call_mutB9_, symObjAddr: 0x6450, symBinAddr: 0x52534, symSize: 0x68 }
  - { offset: 0xB4F23, size: 0x8, addend: 0x0, symName: __RNvYNvYNtNvCsfQFyxU9Vz2T_11yoke_derive16replace_lifetime15ReplaceLifetimeNtNtNtCsc29TF2YcYso_3syn3gen4fold4Fold16fold_bare_fn_argINtNtNtCsaNl6UpbT7bw_4core3ops8function5FnMutTQB5_NtNtB1f_2ty9BareFnArgEE8call_mutB9_, symObjAddr: 0x64B8, symBinAddr: 0x5259C, symSize: 0x68 }
  - { offset: 0xB4F67, size: 0x8, addend: 0x0, symName: __RNvYNvYNtNvCsfQFyxU9Vz2T_11yoke_derive16replace_lifetime15ReplaceLifetimeNtNtNtCsc29TF2YcYso_3syn3gen4fold4Fold16fold_field_valueINtNtNtCsaNl6UpbT7bw_4core3ops8function5FnMutTQB5_NtNtB1f_4expr10FieldValueEE8call_mutB9_, symObjAddr: 0x6520, symBinAddr: 0x52604, symSize: 0x68 }
  - { offset: 0xB4FAB, size: 0x8, addend: 0x0, symName: __RNvYNvYNtNvCsfQFyxU9Vz2T_11yoke_derive16replace_lifetime15ReplaceLifetimeNtNtNtCsc29TF2YcYso_3syn3gen4fold4Fold17fold_foreign_itemINtNtNtCsaNl6UpbT7bw_4core3ops8function5FnMutTQB5_NtNtB1f_4item11ForeignItemEE8call_mutB9_, symObjAddr: 0x6588, symBinAddr: 0x5266C, symSize: 0x68 }
  - { offset: 0xB4FEF, size: 0x8, addend: 0x0, symName: __RNvYNvYNtNvCsfQFyxU9Vz2T_11yoke_derive16replace_lifetime15ReplaceLifetimeNtNtNtCsc29TF2YcYso_3syn3gen4fold4Fold17fold_path_segmentINtNtNtCsaNl6UpbT7bw_4core3ops8function5FnMutTQB5_NtNtB1f_4path11PathSegmentEE8call_mutB9_, symObjAddr: 0x65F0, symBinAddr: 0x526D4, symSize: 0x60 }
  - { offset: 0xB5033, size: 0x8, addend: 0x0, symName: __RNvYNvYNtNvCsfQFyxU9Vz2T_11yoke_derive16replace_lifetime15ReplaceLifetimeNtNtNtCsc29TF2YcYso_3syn3gen4fold4Fold18fold_generic_paramINtNtNtCsaNl6UpbT7bw_4core3ops8function5FnMutTQB5_NtNtB1f_8generics12GenericParamEE8call_mutB9_, symObjAddr: 0x6650, symBinAddr: 0x52734, symSize: 0x68 }
  - { offset: 0xB5077, size: 0x8, addend: 0x0, symName: __RNvYNvYNtNvCsfQFyxU9Vz2T_11yoke_derive16replace_lifetime15ReplaceLifetimeNtNtNtCsc29TF2YcYso_3syn3gen4fold4Fold19fold_captured_paramINtNtNtCsaNl6UpbT7bw_4core3ops8function5FnMutTQB5_NtNtB1f_8generics13CapturedParamEE8call_mutB9_, symObjAddr: 0x66B8, symBinAddr: 0x5279C, symSize: 0x60 }
  - { offset: 0xB50BB, size: 0x8, addend: 0x0, symName: __RNvYNvYNtNvCsfQFyxU9Vz2T_11yoke_derive16replace_lifetime15ReplaceLifetimeNtNtNtCsc29TF2YcYso_3syn3gen4fold4Fold20fold_where_predicateINtNtNtCsaNl6UpbT7bw_4core3ops8function5FnMutTQB5_NtNtB1f_8generics14WherePredicateEE8call_mutB9_, symObjAddr: 0x6718, symBinAddr: 0x527FC, symSize: 0x68 }
  - { offset: 0xB50FF, size: 0x8, addend: 0x0, symName: __RNvYNvYNtNvCsfQFyxU9Vz2T_11yoke_derive16replace_lifetime15ReplaceLifetimeNtNtNtCsc29TF2YcYso_3syn3gen4fold4Fold21fold_generic_argumentINtNtNtCsaNl6UpbT7bw_4core3ops8function5FnMutTQB5_NtNtB1f_4path15GenericArgumentEE8call_mutB9_, symObjAddr: 0x6780, symBinAddr: 0x52864, symSize: 0x68 }
  - { offset: 0xB5143, size: 0x8, addend: 0x0, symName: __RNvYNvYNtNvCsfQFyxU9Vz2T_11yoke_derive16replace_lifetime15ReplaceLifetimeNtNtNtCsc29TF2YcYso_3syn3gen4fold4Fold21fold_type_param_boundINtNtNtCsaNl6UpbT7bw_4core3ops8function5FnMutTQB5_NtNtB1f_8generics14TypeParamBoundEE8call_mutB9_, symObjAddr: 0x67E8, symBinAddr: 0x528CC, symSize: 0x60 }
  - { offset: 0xB5187, size: 0x8, addend: 0x0, symName: __RNvYNvYNtNvCsfQFyxU9Vz2T_11yoke_derive16replace_lifetime15ReplaceLifetimeNtNtNtCsc29TF2YcYso_3syn3gen4fold4Fold8fold_armINtNtNtCsaNl6UpbT7bw_4core3ops8function5FnMutTQB5_NtNtB1f_4expr3ArmEE8call_mutB9_, symObjAddr: 0x6848, symBinAddr: 0x5292C, symSize: 0x68 }
  - { offset: 0xB51CB, size: 0x8, addend: 0x0, symName: __RNvYNvYNtNvCsfQFyxU9Vz2T_11yoke_derive16replace_lifetime15ReplaceLifetimeNtNtNtCsc29TF2YcYso_3syn3gen4fold4Fold8fold_patINtNtNtCsaNl6UpbT7bw_4core3ops8function5FnMutTQB5_NtNtB1f_3pat3PatEE8call_mutB9_, symObjAddr: 0x68B0, symBinAddr: 0x52994, symSize: 0x60 }
  - { offset: 0xB520F, size: 0x8, addend: 0x0, symName: __RNvYNvYNtNvCsfQFyxU9Vz2T_11yoke_derive16replace_lifetime15ReplaceLifetimeNtNtNtCsc29TF2YcYso_3syn3gen4fold4Fold9fold_exprINtNtNtCsaNl6UpbT7bw_4core3ops8function5FnMutTQB5_NtNtB1f_4expr4ExprEE8call_mutB9_, symObjAddr: 0x6910, symBinAddr: 0x529F4, symSize: 0x60 }
  - { offset: 0xB5253, size: 0x8, addend: 0x0, symName: __RNvYNvYNtNvCsfQFyxU9Vz2T_11yoke_derive16replace_lifetime15ReplaceLifetimeNtNtNtCsc29TF2YcYso_3syn3gen4fold4Fold9fold_itemINtNtNtCsaNl6UpbT7bw_4core3ops8function5FnMutTQB5_NtNtB1f_4item4ItemEE8call_mutB9_, symObjAddr: 0x6970, symBinAddr: 0x52A54, symSize: 0x68 }
  - { offset: 0xB5297, size: 0x8, addend: 0x0, symName: __RNvYNvYNtNvCsfQFyxU9Vz2T_11yoke_derive16replace_lifetime15ReplaceLifetimeNtNtNtCsc29TF2YcYso_3syn3gen4fold4Fold9fold_stmtINtNtNtCsaNl6UpbT7bw_4core3ops8function5FnMutTQB5_NtNtB1f_4stmt4StmtEE8call_mutB9_, symObjAddr: 0x69D8, symBinAddr: 0x52ABC, symSize: 0x68 }
  - { offset: 0xB52DB, size: 0x8, addend: 0x0, symName: __RNvYNvYNtNvCsfQFyxU9Vz2T_11yoke_derive16replace_lifetime15ReplaceLifetimeNtNtNtCsc29TF2YcYso_3syn3gen4fold4Fold9fold_typeINtNtNtCsaNl6UpbT7bw_4core3ops8function5FnMutTQB5_NtNtB1f_2ty4TypeEE8call_mutB9_, symObjAddr: 0x6A40, symBinAddr: 0x52B24, symSize: 0x68 }
  - { offset: 0xB5AEE, size: 0x8, addend: 0x0, symName: __RINvNvNtNtCs7yrEGia95Wz_10proc_macro6bridge14selfless_reify31reify_to_extern_c_fn_hrt_bridge7wrapperNtNtB6_6buffer6BufferNCINvMs6_NtB6_6clientINtB24_6ClientNtB8_11TokenStreamB2u_E7expand1NvCsfQFyxU9Vz2T_11yoke_derive15yokeable_deriveE0EB31_, symObjAddr: 0x41D0, symBinAddr: 0x502B4, symSize: 0x5C }
  - { offset: 0xB5B56, size: 0x8, addend: 0x0, symName: __RNvXNtNtCs7yrEGia95Wz_10proc_macro6bridge3rpcuINtB2_6EncodeuE6encodeCsfQFyxU9Vz2T_11yoke_derive, symObjAddr: 0x5068, symBinAddr: 0x5114C, symSize: 0x14 }
  - { offset: 0xB5B9D, size: 0x8, addend: 0x0, symName: __RNvXs7_NtNtCs7yrEGia95Wz_10proc_macro6bridge3rpcINtNtNtCsaNl6UpbT7bw_4core3num7nonzero7NonZeromEINtB5_9DecodeMutuE6decodeCsfQFyxU9Vz2T_11yoke_derive, symObjAddr: 0x539C, symBinAddr: 0x51480, symSize: 0x5C }
  - { offset: 0xB5C18, size: 0x8, addend: 0x0, symName: __RNvXs9_NtNtCs7yrEGia95Wz_10proc_macro6bridge3rpcTINtB7_11ExpnGlobalsNtNtB7_6client4SpanENtB16_11TokenStreamEINtB5_9DecodeMutuE6decodeCsfQFyxU9Vz2T_11yoke_derive, symObjAddr: 0x53F8, symBinAddr: 0x514DC, symSize: 0x84 }
  - { offset: 0xB5D05, size: 0x8, addend: 0x0, symName: __RNvXsa_NtNtCs7yrEGia95Wz_10proc_macro6bridge3rpcRShINtB5_6EncodeuE6encodeCsfQFyxU9Vz2T_11yoke_derive, symObjAddr: 0x574C, symBinAddr: 0x51830, symSize: 0xD8 }
  - { offset: 0xB5E07, size: 0x8, addend: 0x0, symName: __RNvXsc_NtNtCs7yrEGia95Wz_10proc_macro6bridge3rpcReINtB5_6EncodeuE6encodeCsfQFyxU9Vz2T_11yoke_derive, symObjAddr: 0x5824, symBinAddr: 0x51908, symSize: 0x38 }
  - { offset: 0xB5EEF, size: 0x8, addend: 0x0, symName: __RNvXsl_NtNtCs7yrEGia95Wz_10proc_macro6bridge3rpcNtB5_12PanicMessageINtB5_6EncodeuE6encodeCsfQFyxU9Vz2T_11yoke_derive, symObjAddr: 0x5BC0, symBinAddr: 0x51CA4, symSize: 0x128 }
  - { offset: 0xB60B5, size: 0x8, addend: 0x0, symName: __RNvXso_NtNtCs7yrEGia95Wz_10proc_macro6bridge3rpcmINtB5_9DecodeMutuE6decodeCsfQFyxU9Vz2T_11yoke_derive, symObjAddr: 0x5CE8, symBinAddr: 0x51DCC, symSize: 0x108 }
  - { offset: 0xB6203, size: 0x8, addend: 0x0, symName: __RNvXs1J_NtCs7yrEGia95Wz_10proc_macro6bridgeINtB6_11ExpnGlobalsNtNtB6_6client4SpanEINtNtB6_3rpc9DecodeMutuE6decodeCsfQFyxU9Vz2T_11yoke_derive, symObjAddr: 0x507C, symBinAddr: 0x51160, symSize: 0xB0 }
  - { offset: 0xB62CD, size: 0x8, addend: 0x0, symName: __RNvXsR_NtCs7yrEGia95Wz_10proc_macro6bridgeINtNtCsaNl6UpbT7bw_4core6option6OptionNtNtB5_6client11TokenStreamEINtNtB5_3rpc6EncodeuE6encodeCsfQFyxU9Vz2T_11yoke_derive, symObjAddr: 0x55A8, symBinAddr: 0x5168C, symSize: 0xCC }
  - { offset: 0xB6373, size: 0x8, addend: 0x0, symName: __RNvXsR_NtCs7yrEGia95Wz_10proc_macro6bridgeINtNtCsaNl6UpbT7bw_4core6option6OptionReEINtNtB5_3rpc6EncodeuE6encodeCsfQFyxU9Vz2T_11yoke_derive, symObjAddr: 0x5674, symBinAddr: 0x51758, symSize: 0xD8 }
  - { offset: 0xB6845, size: 0x8, addend: 0x0, symName: __RNvXsA_NtCshnvkK9b4wzu_11proc_macro23impNtB5_19DeferredTokenStreamNtNtCsaNl6UpbT7bw_4core5clone5Clone5cloneCsfQFyxU9Vz2T_11yoke_derive, symObjAddr: 0x547C, symBinAddr: 0x51560, symSize: 0x90 }
  - { offset: 0xB6877, size: 0x8, addend: 0x0, symName: __RNvXsF_NtCshnvkK9b4wzu_11proc_macro23impNtB5_5IdentNtNtCsaNl6UpbT7bw_4core5clone5Clone5cloneCsfQFyxU9Vz2T_11yoke_derive, symObjAddr: 0x550C, symBinAddr: 0x515F0, symSize: 0x9C }
  - { offset: 0xB68E7, size: 0x8, addend: 0x0, symName: __RNvXsz_NtCshnvkK9b4wzu_11proc_macro23impNtB5_11TokenStreamNtNtCsaNl6UpbT7bw_4core5clone5Clone5cloneCsfQFyxU9Vz2T_11yoke_derive, symObjAddr: 0x5E14, symBinAddr: 0x51EF8, symSize: 0x98 }
  - { offset: 0xBC332, size: 0x8, addend: 0x0, symName: __RINvNtCsc29TF2YcYso_3syn11parse_quote5parseNtNtB4_8generics14WherePredicateECsfQFyxU9Vz2T_11yoke_derive, symObjAddr: 0x3EFC, symBinAddr: 0x50008, symSize: 0xD0 }
  - { offset: 0xBC397, size: 0x8, addend: 0x0, symName: __RINvNvNtCsc29TF2YcYso_3syn11parse_quote5parse18panic_cold_displayNtNtB6_5error5ErrorECsfQFyxU9Vz2T_11yoke_derive, symObjAddr: 0x41A8, symBinAddr: 0x1D1808, symSize: 0x28 }
  - { offset: 0xBC3D4, size: 0x8, addend: 0x0, symName: __RNvXsh_NtCsc29TF2YcYso_3syn5parseNvYNtNtB7_8generics14WherePredicateNtNtB7_11parse_quote10ParseQuote5parseNtB5_6Parser6parse2CsfQFyxU9Vz2T_11yoke_derive, symObjAddr: 0x585C, symBinAddr: 0x51940, symSize: 0x364 }
  - { offset: 0xBCF10, size: 0x8, addend: 0x0, symName: __RNSINvNtNtCsiTraAjBDcu4_5alloc3vec16in_place_collect18from_iter_in_placeINtNtNtNtCsaNl6UpbT7bw_4core4iter8adapters3map3MapINtNtB6_9into_iter8IntoIterNtNtCsc29TF2YcYso_3syn4attr9AttributeENCINvNtNtB2r_3gen4fold8fold_vecB2n_NtNvCsfQFyxU9Vz2T_11yoke_derive16replace_lifetime15ReplaceLifetimeNvYB3y_NtB34_4Fold14fold_attributeE0EB2n_E5reifyB3C_, symObjAddr: 0x43D8, symBinAddr: 0x504BC, symSize: 0x1C }
  - { offset: 0xBCF4B, size: 0x8, addend: 0x0, symName: __RNSINvNtNtCsiTraAjBDcu4_5alloc3vec16in_place_collect18from_iter_in_placeINtNtNtNtCsaNl6UpbT7bw_4core4iter8adapters3map3MapINtNtB6_9into_iter8IntoIterNtNtCsc29TF2YcYso_3syn4expr3ArmENCINvNtNtB2r_3gen4fold8fold_vecB2n_NtNvCsfQFyxU9Vz2T_11yoke_derive16replace_lifetime15ReplaceLifetimeNvYB3s_NtB2Y_4Fold8fold_armE0EB2n_E5reifyB3w_, symObjAddr: 0x43F4, symBinAddr: 0x504D8, symSize: 0x1C }
  - { offset: 0xBCF86, size: 0x8, addend: 0x0, symName: __RNSINvNtNtCsiTraAjBDcu4_5alloc3vec16in_place_collect18from_iter_in_placeINtNtNtNtCsaNl6UpbT7bw_4core4iter8adapters3map3MapINtNtB6_9into_iter8IntoIterNtNtCsc29TF2YcYso_3syn4item11ForeignItemENCINvNtNtB2r_3gen4fold8fold_vecB2n_NtNvCsfQFyxU9Vz2T_11yoke_derive16replace_lifetime15ReplaceLifetimeNvYB3B_NtB37_4Fold17fold_foreign_itemE0EB2n_E5reifyB3F_, symObjAddr: 0x4410, symBinAddr: 0x504F4, symSize: 0x1C }
  - { offset: 0xBCFC1, size: 0x8, addend: 0x0, symName: __RNSINvNtNtCsiTraAjBDcu4_5alloc3vec16in_place_collect18from_iter_in_placeINtNtNtNtCsaNl6UpbT7bw_4core4iter8adapters3map3MapINtNtB6_9into_iter8IntoIterNtNtCsc29TF2YcYso_3syn4item4ItemENCINvNtNtB2r_3gen4fold8fold_vecB2n_NtNvCsfQFyxU9Vz2T_11yoke_derive16replace_lifetime15ReplaceLifetimeNvYB3t_NtB2Z_4Fold9fold_itemE0EB2n_E5reifyB3x_, symObjAddr: 0x442C, symBinAddr: 0x50510, symSize: 0x1C }
  - { offset: 0xBCFFC, size: 0x8, addend: 0x0, symName: __RNSINvNtNtCsiTraAjBDcu4_5alloc3vec16in_place_collect18from_iter_in_placeINtNtNtNtCsaNl6UpbT7bw_4core4iter8adapters3map3MapINtNtB6_9into_iter8IntoIterNtNtCsc29TF2YcYso_3syn4item8ImplItemENCINvNtNtB2r_3gen4fold8fold_vecB2n_NtNvCsfQFyxU9Vz2T_11yoke_derive16replace_lifetime15ReplaceLifetimeNvYB3x_NtB33_4Fold14fold_impl_itemE0EB2n_E5reifyB3B_, symObjAddr: 0x4448, symBinAddr: 0x5052C, symSize: 0x1C }
  - { offset: 0xBD037, size: 0x8, addend: 0x0, symName: __RNSINvNtNtCsiTraAjBDcu4_5alloc3vec16in_place_collect18from_iter_in_placeINtNtNtNtCsaNl6UpbT7bw_4core4iter8adapters3map3MapINtNtB6_9into_iter8IntoIterNtNtCsc29TF2YcYso_3syn4item9TraitItemENCINvNtNtB2r_3gen4fold8fold_vecB2n_NtNvCsfQFyxU9Vz2T_11yoke_derive16replace_lifetime15ReplaceLifetimeNvYB3y_NtB34_4Fold15fold_trait_itemE0EB2n_E5reifyB3C_, symObjAddr: 0x4464, symBinAddr: 0x50548, symSize: 0x1C }
  - { offset: 0xBD072, size: 0x8, addend: 0x0, symName: __RNSINvNtNtCsiTraAjBDcu4_5alloc3vec16in_place_collect18from_iter_in_placeINtNtNtNtCsaNl6UpbT7bw_4core4iter8adapters3map3MapINtNtB6_9into_iter8IntoIterNtNtCsc29TF2YcYso_3syn4stmt4StmtENCINvNtNtB2r_3gen4fold8fold_vecB2n_NtNvCsfQFyxU9Vz2T_11yoke_derive16replace_lifetime15ReplaceLifetimeNvYB3t_NtB2Z_4Fold9fold_stmtE0EB2n_E5reifyB3x_, symObjAddr: 0x4480, symBinAddr: 0x50564, symSize: 0x1C }
  - { offset: 0xBD0AD, size: 0x8, addend: 0x0, symName: __RNSINvNtNtCsiTraAjBDcu4_5alloc3vec16in_place_collect18from_iter_in_placeINtNtNtNtCsaNl6UpbT7bw_4core4iter8adapters3map3MapINtNtB6_9into_iter8IntoIterTNtNtCsc29TF2YcYso_3syn2ty4TypeNtNtB2s_5token5CommaEENCINvNtB2s_10punctuated4foldB2o_B2S_NtNvCsfQFyxU9Vz2T_11yoke_derive16replace_lifetime15ReplaceLifetimeNvYB3O_NtNtNtB2s_3gen4fold4Fold9fold_typeE0EB2n_E5reifyB3S_, symObjAddr: 0x449C, symBinAddr: 0x50580, symSize: 0x1C }
  - { offset: 0xBD0E8, size: 0x8, addend: 0x0, symName: __RNSINvNtNtCsiTraAjBDcu4_5alloc3vec16in_place_collect18from_iter_in_placeINtNtNtNtCsaNl6UpbT7bw_4core4iter8adapters3map3MapINtNtB6_9into_iter8IntoIterTNtNtCsc29TF2YcYso_3syn2ty9BareFnArgNtNtB2s_5token5CommaEENCINvNtB2s_10punctuated4foldB2o_B2X_NtNvCsfQFyxU9Vz2T_11yoke_derive16replace_lifetime15ReplaceLifetimeNvYB3T_NtNtNtB2s_3gen4fold4Fold16fold_bare_fn_argE0EB2n_E5reifyB3X_, symObjAddr: 0x44B8, symBinAddr: 0x5059C, symSize: 0x1C }
  - { offset: 0xBD123, size: 0x8, addend: 0x0, symName: __RNSINvNtNtCsiTraAjBDcu4_5alloc3vec16in_place_collect18from_iter_in_placeINtNtNtNtCsaNl6UpbT7bw_4core4iter8adapters3map3MapINtNtB6_9into_iter8IntoIterTNtNtCsc29TF2YcYso_3syn3pat3PatNtNtB2s_5token2OrEENCINvNtB2s_10punctuated4foldB2o_B2S_NtNvCsfQFyxU9Vz2T_11yoke_derive16replace_lifetime15ReplaceLifetimeNvYB3L_NtNtNtB2s_3gen4fold4Fold8fold_patE0EB2n_E5reifyB3P_, symObjAddr: 0x44D4, symBinAddr: 0x505B8, symSize: 0x1C }
  - { offset: 0xBD15E, size: 0x8, addend: 0x0, symName: __RNSINvNtNtCsiTraAjBDcu4_5alloc3vec16in_place_collect18from_iter_in_placeINtNtNtNtCsaNl6UpbT7bw_4core4iter8adapters3map3MapINtNtB6_9into_iter8IntoIterTNtNtCsc29TF2YcYso_3syn3pat3PatNtNtB2s_5token5CommaEENCINvNtB2s_10punctuated4foldB2o_B2S_NtNvCsfQFyxU9Vz2T_11yoke_derive16replace_lifetime15ReplaceLifetimeNvYB3O_NtNtNtB2s_3gen4fold4Fold8fold_patE0EB2n_E5reifyB3S_, symObjAddr: 0x44F0, symBinAddr: 0x505D4, symSize: 0x1C }
  - { offset: 0xBD199, size: 0x8, addend: 0x0, symName: __RNSINvNtNtCsiTraAjBDcu4_5alloc3vec16in_place_collect18from_iter_in_placeINtNtNtNtCsaNl6UpbT7bw_4core4iter8adapters3map3MapINtNtB6_9into_iter8IntoIterTNtNtCsc29TF2YcYso_3syn3pat8FieldPatNtNtB2s_5token5CommaEENCINvNtB2s_10punctuated4foldB2o_B2X_NtNvCsfQFyxU9Vz2T_11yoke_derive16replace_lifetime15ReplaceLifetimeNvYB3T_NtNtNtB2s_3gen4fold4Fold14fold_field_patE0EB2n_E5reifyB3X_, symObjAddr: 0x450C, symBinAddr: 0x505F0, symSize: 0x1C }
  - { offset: 0xBD1D4, size: 0x8, addend: 0x0, symName: __RNSINvNtNtCsiTraAjBDcu4_5alloc3vec16in_place_collect18from_iter_in_placeINtNtNtNtCsaNl6UpbT7bw_4core4iter8adapters3map3MapINtNtB6_9into_iter8IntoIterTNtNtCsc29TF2YcYso_3syn4data5FieldNtNtB2s_5token5CommaEENCINvNtB2s_10punctuated4foldB2o_B2V_NtNvCsfQFyxU9Vz2T_11yoke_derive16replace_lifetime15ReplaceLifetimeNvYB3R_NtNtNtB2s_3gen4fold4Fold10fold_fieldE0EB2n_E5reifyB3V_, symObjAddr: 0x4528, symBinAddr: 0x5060C, symSize: 0x1C }
  - { offset: 0xBD20F, size: 0x8, addend: 0x0, symName: __RNSINvNtNtCsiTraAjBDcu4_5alloc3vec16in_place_collect18from_iter_in_placeINtNtNtNtCsaNl6UpbT7bw_4core4iter8adapters3map3MapINtNtB6_9into_iter8IntoIterTNtNtCsc29TF2YcYso_3syn4data7VariantNtNtB2s_5token5CommaEENCINvNtB2s_10punctuated4foldB2o_B2X_NtNvCsfQFyxU9Vz2T_11yoke_derive16replace_lifetime15ReplaceLifetimeNvYB3T_NtNtNtB2s_3gen4fold4Fold12fold_variantE0EB2n_E5reifyB3X_, symObjAddr: 0x4544, symBinAddr: 0x50628, symSize: 0x1C }
  - { offset: 0xBD24A, size: 0x8, addend: 0x0, symName: __RNSINvNtNtCsiTraAjBDcu4_5alloc3vec16in_place_collect18from_iter_in_placeINtNtNtNtCsaNl6UpbT7bw_4core4iter8adapters3map3MapINtNtB6_9into_iter8IntoIterTNtNtCsc29TF2YcYso_3syn4expr10FieldValueNtNtB2s_5token5CommaEENCINvNtB2s_10punctuated4foldB2o_B31_NtNvCsfQFyxU9Vz2T_11yoke_derive16replace_lifetime15ReplaceLifetimeNvYB3X_NtNtNtB2s_3gen4fold4Fold16fold_field_valueE0EB2n_E5reifyB41_, symObjAddr: 0x4560, symBinAddr: 0x50644, symSize: 0x1C }
  - { offset: 0xBD285, size: 0x8, addend: 0x0, symName: __RNSINvNtNtCsiTraAjBDcu4_5alloc3vec16in_place_collect18from_iter_in_placeINtNtNtNtCsaNl6UpbT7bw_4core4iter8adapters3map3MapINtNtB6_9into_iter8IntoIterTNtNtCsc29TF2YcYso_3syn4expr4ExprNtNtB2s_5token5CommaEENCINvNtB2s_10punctuated4foldB2o_B2U_NtNvCsfQFyxU9Vz2T_11yoke_derive16replace_lifetime15ReplaceLifetimeNvYB3Q_NtNtNtB2s_3gen4fold4Fold9fold_exprE0EB2n_E5reifyB3U_, symObjAddr: 0x457C, symBinAddr: 0x50660, symSize: 0x1C }
  - { offset: 0xBD2C0, size: 0x8, addend: 0x0, symName: __RNSINvNtNtCsiTraAjBDcu4_5alloc3vec16in_place_collect18from_iter_in_placeINtNtNtNtCsaNl6UpbT7bw_4core4iter8adapters3map3MapINtNtB6_9into_iter8IntoIterTNtNtCsc29TF2YcYso_3syn4item5FnArgNtNtB2s_5token5CommaEENCINvNtB2s_10punctuated4foldB2o_B2V_NtNvCsfQFyxU9Vz2T_11yoke_derive16replace_lifetime15ReplaceLifetimeNvYB3R_NtNtNtB2s_3gen4fold4Fold11fold_fn_argE0EB2n_E5reifyB3V_, symObjAddr: 0x4598, symBinAddr: 0x5067C, symSize: 0x1C }
  - { offset: 0xBD2FB, size: 0x8, addend: 0x0, symName: __RNSINvNtNtCsiTraAjBDcu4_5alloc3vec16in_place_collect18from_iter_in_placeINtNtNtNtCsaNl6UpbT7bw_4core4iter8adapters3map3MapINtNtB6_9into_iter8IntoIterTNtNtCsc29TF2YcYso_3syn4item7UseTreeNtNtB2s_5token5CommaEENCINvNtB2s_10punctuated4foldB2o_B2X_NtNvCsfQFyxU9Vz2T_11yoke_derive16replace_lifetime15ReplaceLifetimeNvYB3T_NtNtNtB2s_3gen4fold4Fold13fold_use_treeE0EB2n_E5reifyB3X_, symObjAddr: 0x45B4, symBinAddr: 0x50698, symSize: 0x1C }
  - { offset: 0xBD336, size: 0x8, addend: 0x0, symName: __RNSINvNtNtCsiTraAjBDcu4_5alloc3vec16in_place_collect18from_iter_in_placeINtNtNtNtCsaNl6UpbT7bw_4core4iter8adapters3map3MapINtNtB6_9into_iter8IntoIterTNtNtCsc29TF2YcYso_3syn4path11PathSegmentNtNtB2s_5token7PathSepEENCINvNtB2s_10punctuated4foldB2o_B32_NtNvCsfQFyxU9Vz2T_11yoke_derive16replace_lifetime15ReplaceLifetimeNvYB40_NtNtNtB2s_3gen4fold4Fold17fold_path_segmentE0EB2n_E5reifyB44_, symObjAddr: 0x45D0, symBinAddr: 0x506B4, symSize: 0x1C }
  - { offset: 0xBD371, size: 0x8, addend: 0x0, symName: __RNSINvNtNtCsiTraAjBDcu4_5alloc3vec16in_place_collect18from_iter_in_placeINtNtNtNtCsaNl6UpbT7bw_4core4iter8adapters3map3MapINtNtB6_9into_iter8IntoIterTNtNtCsc29TF2YcYso_3syn4path15GenericArgumentNtNtB2s_5token5CommaEENCINvNtB2s_10punctuated4foldB2o_B36_NtNvCsfQFyxU9Vz2T_11yoke_derive16replace_lifetime15ReplaceLifetimeNvYB42_NtNtNtB2s_3gen4fold4Fold21fold_generic_argumentE0EB2n_E5reifyB46_, symObjAddr: 0x45EC, symBinAddr: 0x506D0, symSize: 0x1C }
  - { offset: 0xBD3AC, size: 0x8, addend: 0x0, symName: __RNSINvNtNtCsiTraAjBDcu4_5alloc3vec16in_place_collect18from_iter_in_placeINtNtNtNtCsaNl6UpbT7bw_4core4iter8adapters3map3MapINtNtB6_9into_iter8IntoIterTNtNtCsc29TF2YcYso_3syn8generics12GenericParamNtNtB2s_5token5CommaEENCINvNtB2s_10punctuated4foldB2o_B37_NtNvCsfQFyxU9Vz2T_11yoke_derive16replace_lifetime15ReplaceLifetimeNvYB43_NtNtNtB2s_3gen4fold4Fold18fold_generic_paramE0EB2n_E5reifyB47_, symObjAddr: 0x4608, symBinAddr: 0x506EC, symSize: 0x1C }
  - { offset: 0xBD3E7, size: 0x8, addend: 0x0, symName: __RNSINvNtNtCsiTraAjBDcu4_5alloc3vec16in_place_collect18from_iter_in_placeINtNtNtNtCsaNl6UpbT7bw_4core4iter8adapters3map3MapINtNtB6_9into_iter8IntoIterTNtNtCsc29TF2YcYso_3syn8generics13CapturedParamNtNtB2s_5token5CommaEENCINvNtB2s_10punctuated4foldB2o_B38_NtNvCsfQFyxU9Vz2T_11yoke_derive16replace_lifetime15ReplaceLifetimeNvYB44_NtNtNtB2s_3gen4fold4Fold19fold_captured_paramE0EB2n_E5reifyB48_, symObjAddr: 0x4624, symBinAddr: 0x50708, symSize: 0x1C }
  - { offset: 0xBD422, size: 0x8, addend: 0x0, symName: __RNSINvNtNtCsiTraAjBDcu4_5alloc3vec16in_place_collect18from_iter_in_placeINtNtNtNtCsaNl6UpbT7bw_4core4iter8adapters3map3MapINtNtB6_9into_iter8IntoIterTNtNtCsc29TF2YcYso_3syn8generics14TypeParamBoundNtNtB2s_5token4PlusEENCINvNtB2s_10punctuated4foldB2o_B39_NtNvCsfQFyxU9Vz2T_11yoke_derive16replace_lifetime15ReplaceLifetimeNvYB44_NtNtNtB2s_3gen4fold4Fold21fold_type_param_boundE0EB2n_E5reifyB48_, symObjAddr: 0x4640, symBinAddr: 0x50724, symSize: 0x1C }
  - { offset: 0xBD45D, size: 0x8, addend: 0x0, symName: __RNSINvNtNtCsiTraAjBDcu4_5alloc3vec16in_place_collect18from_iter_in_placeINtNtNtNtCsaNl6UpbT7bw_4core4iter8adapters3map3MapINtNtB6_9into_iter8IntoIterTNtNtCsc29TF2YcYso_3syn8generics14WherePredicateNtNtB2s_5token5CommaEENCINvNtB2s_10punctuated4foldB2o_B39_NtNvCsfQFyxU9Vz2T_11yoke_derive16replace_lifetime15ReplaceLifetimeNvYB45_NtNtNtB2s_3gen4fold4Fold20fold_where_predicateE0EB2n_E5reifyB49_, symObjAddr: 0x465C, symBinAddr: 0x50740, symSize: 0x1C }
  - { offset: 0xBD498, size: 0x8, addend: 0x0, symName: __RNSINvNtNtCsiTraAjBDcu4_5alloc3vec16in_place_collect18from_iter_in_placeINtNtNtNtCsaNl6UpbT7bw_4core4iter8adapters3map3MapINtNtB6_9into_iter8IntoIterTNtNtCsc29TF2YcYso_3syn8lifetime8LifetimeNtNtB2s_5token4PlusEENCINvNtB2s_10punctuated4foldB2o_B32_NtNvCsfQFyxU9Vz2T_11yoke_derive16replace_lifetime15ReplaceLifetimeNvYB3X_NtNtNtB2s_3gen4fold4Fold13fold_lifetimeE0EB2n_E5reifyB41_, symObjAddr: 0x4678, symBinAddr: 0x5075C, symSize: 0x1C }
  - { offset: 0xBF89D, size: 0x8, addend: 0x0, symName: __RNvXss_NtCsiTraAjBDcu4_5alloc6stringNtB5_6StringNtNtNtCsaNl6UpbT7bw_4core3ops5deref5Deref5derefCsfQFyxU9Vz2T_11yoke_derive, symObjAddr: 0x5DF0, symBinAddr: 0x51ED4, symSize: 0x24 }
  - { offset: 0xBF947, size: 0x8, addend: 0x0, symName: __RNvXs6_NtCsiTraAjBDcu4_5alloc5boxedINtB5_3BoxDNtNtCsaNl6UpbT7bw_4core5error5ErrorNtNtBM_6marker4SyncNtB1j_4SendEL_ENtNtNtBM_3ops4drop4Drop4dropCsfQFyxU9Vz2T_11yoke_derive, symObjAddr: 0x5218, symBinAddr: 0x512FC, symSize: 0xCC }
  - { offset: 0xBFA7E, size: 0x8, addend: 0x0, symName: __RNvXs6_NtCsiTraAjBDcu4_5alloc5boxedINtB5_3BoxNtNtNtCsht3nMU9UgFu_3std2io5error6CustomENtNtNtCsaNl6UpbT7bw_4core3ops4drop4Drop4dropCsfQFyxU9Vz2T_11yoke_derive, symObjAddr: 0x52E4, symBinAddr: 0x513C8, symSize: 0xB8 }
  - { offset: 0xC011F, size: 0x8, addend: 0x0, symName: __RINvMNtCsaNl6UpbT7bw_4core6optionINtB3_6OptionINtNtCsiTraAjBDcu4_5alloc5boxed3BoxNtNtCsc29TF2YcYso_3syn4expr4ExprEE3mapBI_NCINvNtNtB1l_3gen4fold15fold_expr_breakNtNvCsfQFyxU9Vz2T_11yoke_derive16replace_lifetime15ReplaceLifetimeEs_0EB2D_, symObjAddr: 0x0, symBinAddr: 0x4C154, symSize: 0x5C }
  - { offset: 0xC018A, size: 0x8, addend: 0x0, symName: __RINvMNtCsaNl6UpbT7bw_4core6optionINtB3_6OptionINtNtCsiTraAjBDcu4_5alloc5boxed3BoxNtNtCsc29TF2YcYso_3syn4expr4ExprEE3mapBI_NCINvNtNtB1l_3gen4fold15fold_expr_rangeNtNvCsfQFyxU9Vz2T_11yoke_derive16replace_lifetime15ReplaceLifetimeE0EB2D_, symObjAddr: 0x5C, symBinAddr: 0x4C1B0, symSize: 0x5C }
  - { offset: 0xC01F5, size: 0x8, addend: 0x0, symName: __RINvMNtCsaNl6UpbT7bw_4core6optionINtB3_6OptionINtNtCsiTraAjBDcu4_5alloc5boxed3BoxNtNtCsc29TF2YcYso_3syn4expr4ExprEE3mapBI_NCINvNtNtB1l_3gen4fold15fold_expr_rangeNtNvCsfQFyxU9Vz2T_11yoke_derive16replace_lifetime15ReplaceLifetimeEs_0EB2D_, symObjAddr: 0xB8, symBinAddr: 0x4C20C, symSize: 0x5C }
  - { offset: 0xC0260, size: 0x8, addend: 0x0, symName: __RINvMNtCsaNl6UpbT7bw_4core6optionINtB3_6OptionINtNtCsiTraAjBDcu4_5alloc5boxed3BoxNtNtCsc29TF2YcYso_3syn4expr4ExprEE3mapBI_NCINvNtNtB1l_3gen4fold15fold_expr_yieldNtNvCsfQFyxU9Vz2T_11yoke_derive16replace_lifetime15ReplaceLifetimeE0EB2D_, symObjAddr: 0x114, symBinAddr: 0x4C268, symSize: 0x5C }
  - { offset: 0xC02CB, size: 0x8, addend: 0x0, symName: __RINvMNtCsaNl6UpbT7bw_4core6optionINtB3_6OptionINtNtCsiTraAjBDcu4_5alloc5boxed3BoxNtNtCsc29TF2YcYso_3syn4expr4ExprEE3mapBI_NCINvNtNtB1l_3gen4fold16fold_expr_returnNtNvCsfQFyxU9Vz2T_11yoke_derive16replace_lifetime15ReplaceLifetimeE0EB2E_, symObjAddr: 0x170, symBinAddr: 0x4C2C4, symSize: 0x5C }
  - { offset: 0xC0336, size: 0x8, addend: 0x0, symName: __RINvMNtCsaNl6UpbT7bw_4core6optionINtB3_6OptionINtNtCsiTraAjBDcu4_5alloc5boxed3BoxNtNtCsc29TF2YcYso_3syn4expr4ExprEE3mapBI_NCINvNtNtB1l_3gen4fold16fold_expr_structNtNvCsfQFyxU9Vz2T_11yoke_derive16replace_lifetime15ReplaceLifetimeEs_0EB2E_, symObjAddr: 0x1CC, symBinAddr: 0x4C320, symSize: 0x5C }
  - { offset: 0xC03A1, size: 0x8, addend: 0x0, symName: __RINvMNtCsaNl6UpbT7bw_4core6optionINtB3_6OptionNtCshnvkK9b4wzu_11proc_macro25IdentE3mapBI_NCINvNtNtCsc29TF2YcYso_3syn3gen4fold10fold_fieldNtNvCsfQFyxU9Vz2T_11yoke_derive16replace_lifetime15ReplaceLifetimeE0EB2f_, symObjAddr: 0x228, symBinAddr: 0x4C37C, symSize: 0x98 }
  - { offset: 0xC040D, size: 0x8, addend: 0x0, symName: __RINvMNtCsaNl6UpbT7bw_4core6optionINtB3_6OptionNtCshnvkK9b4wzu_11proc_macro25IdentE3mapBI_NCINvNtNtCsc29TF2YcYso_3syn3gen4fold15fold_item_macroNtNvCsfQFyxU9Vz2T_11yoke_derive16replace_lifetime15ReplaceLifetimeE0EB2k_, symObjAddr: 0x2C0, symBinAddr: 0x4C414, symSize: 0x98 }
  - { offset: 0xC0479, size: 0x8, addend: 0x0, symName: __RINvMNtCsaNl6UpbT7bw_4core6optionINtB3_6OptionNtNtCsc29TF2YcYso_3syn2ty12BareVariadicE3mapBI_NCINvNtNtBM_3gen4fold17fold_type_bare_fnNtNvCsfQFyxU9Vz2T_11yoke_derive16replace_lifetime15ReplaceLifetimeEs0_0EB2b_, symObjAddr: 0x358, symBinAddr: 0x4C4AC, symSize: 0xB0 }
  - { offset: 0xC04E5, size: 0x8, addend: 0x0, symName: __RINvMNtCsaNl6UpbT7bw_4core6optionINtB3_6OptionNtNtCsc29TF2YcYso_3syn2ty3AbiE3mapBI_NCINvNtNtBM_3gen4fold14fold_signatureNtNvCsfQFyxU9Vz2T_11yoke_derive16replace_lifetime15ReplaceLifetimeE0EB1Y_, symObjAddr: 0x408, symBinAddr: 0x4C55C, symSize: 0x74 }
  - { offset: 0xC0551, size: 0x8, addend: 0x0, symName: __RINvMNtCsaNl6UpbT7bw_4core6optionINtB3_6OptionNtNtCsc29TF2YcYso_3syn2ty3AbiE3mapBI_NCINvNtNtBM_3gen4fold17fold_type_bare_fnNtNvCsfQFyxU9Vz2T_11yoke_derive16replace_lifetime15ReplaceLifetimeEs_0EB21_, symObjAddr: 0x47C, symBinAddr: 0x4C5D0, symSize: 0x74 }
  - { offset: 0xC05BD, size: 0x8, addend: 0x0, symName: __RINvMNtCsaNl6UpbT7bw_4core6optionINtB3_6OptionNtNtCsc29TF2YcYso_3syn2ty4TypeE3mapBI_NCINvNtNtBM_3gen4fold15fold_type_paramNtNvCsfQFyxU9Vz2T_11yoke_derive16replace_lifetime15ReplaceLifetimeE0EB20_, symObjAddr: 0x4F0, symBinAddr: 0x4C644, symSize: 0xAC }
  - { offset: 0xC0629, size: 0x8, addend: 0x0, symName: __RINvMNtCsaNl6UpbT7bw_4core6optionINtB3_6OptionNtNtCsc29TF2YcYso_3syn3lit6LitStrE3mapBI_NCINvNtNtBM_3gen4fold8fold_abiNtNvCsfQFyxU9Vz2T_11yoke_derive16replace_lifetime15ReplaceLifetimeE0EB1V_, symObjAddr: 0x59C, symBinAddr: 0x4C6F0, symSize: 0x5C }
  - { offset: 0xC0694, size: 0x8, addend: 0x0, symName: __RINvMNtCsaNl6UpbT7bw_4core6optionINtB3_6OptionNtNtCsc29TF2YcYso_3syn3pat7PatRestE3mapBI_NCINvNtNtBM_3gen4fold15fold_pat_structNtNvCsfQFyxU9Vz2T_11yoke_derive16replace_lifetime15ReplaceLifetimeEs_0EB24_, symObjAddr: 0x5F8, symBinAddr: 0x4C74C, symSize: 0x9C }
  - { offset: 0xC0700, size: 0x8, addend: 0x0, symName: __RINvMNtCsaNl6UpbT7bw_4core6optionINtB3_6OptionNtNtCsc29TF2YcYso_3syn4expr4ExprE3mapBI_NCINvNtNtBM_3gen4fold16fold_const_paramNtNvCsfQFyxU9Vz2T_11yoke_derive16replace_lifetime15ReplaceLifetimeE0EB23_, symObjAddr: 0x694, symBinAddr: 0x4C7E8, symSize: 0xAC }
  - { offset: 0xC076C, size: 0x8, addend: 0x0, symName: __RINvMNtCsaNl6UpbT7bw_4core6optionINtB3_6OptionNtNtCsc29TF2YcYso_3syn4expr5LabelE3mapBI_NCINvNtNtBM_3gen4fold14fold_expr_loopNtNvCsfQFyxU9Vz2T_11yoke_derive16replace_lifetime15ReplaceLifetimeE0EB22_, symObjAddr: 0x740, symBinAddr: 0x4C894, symSize: 0xA4 }
  - { offset: 0xC07D9, size: 0x8, addend: 0x0, symName: __RINvMNtCsaNl6UpbT7bw_4core6optionINtB3_6OptionNtNtCsc29TF2YcYso_3syn4expr5LabelE3mapBI_NCINvNtNtBM_3gen4fold15fold_expr_blockNtNvCsfQFyxU9Vz2T_11yoke_derive16replace_lifetime15ReplaceLifetimeE0EB23_, symObjAddr: 0x7E4, symBinAddr: 0x4C938, symSize: 0xA4 }
  - { offset: 0xC0846, size: 0x8, addend: 0x0, symName: __RINvMNtCsaNl6UpbT7bw_4core6optionINtB3_6OptionNtNtCsc29TF2YcYso_3syn4expr5LabelE3mapBI_NCINvNtNtBM_3gen4fold15fold_expr_whileNtNvCsfQFyxU9Vz2T_11yoke_derive16replace_lifetime15ReplaceLifetimeE0EB23_, symObjAddr: 0x888, symBinAddr: 0x4C9DC, symSize: 0xA4 }
  - { offset: 0xC08B3, size: 0x8, addend: 0x0, symName: __RINvMNtCsaNl6UpbT7bw_4core6optionINtB3_6OptionNtNtCsc29TF2YcYso_3syn4expr5LabelE3mapBI_NCINvNtNtBM_3gen4fold18fold_expr_for_loopNtNvCsfQFyxU9Vz2T_11yoke_derive16replace_lifetime15ReplaceLifetimeE0EB26_, symObjAddr: 0x92C, symBinAddr: 0x4CA80, symSize: 0xA4 }
  - { offset: 0xC0920, size: 0x8, addend: 0x0, symName: __RINvMNtCsaNl6UpbT7bw_4core6optionINtB3_6OptionNtNtCsc29TF2YcYso_3syn4item15ImplRestrictionE3mapBI_NCINvNtNtBM_3gen4fold15fold_item_traitNtNvCsfQFyxU9Vz2T_11yoke_derive16replace_lifetime15ReplaceLifetimeE0EB2e_, symObjAddr: 0x9D0, symBinAddr: 0x4CB24, symSize: 0x18 }
  - { offset: 0xC096D, size: 0x8, addend: 0x0, symName: __RINvMNtCsaNl6UpbT7bw_4core6optionINtB3_6OptionNtNtCsc29TF2YcYso_3syn4item8VariadicE3mapBI_NCINvNtNtBM_3gen4fold14fold_signatureNtNvCsfQFyxU9Vz2T_11yoke_derive16replace_lifetime15ReplaceLifetimeEs_0EB25_, symObjAddr: 0x9E8, symBinAddr: 0x4CB3C, symSize: 0xB0 }
  - { offset: 0xC09D9, size: 0x8, addend: 0x0, symName: __RINvMNtCsaNl6UpbT7bw_4core6optionINtB3_6OptionNtNtCsc29TF2YcYso_3syn4path30AngleBracketedGenericArgumentsE3mapBI_NCINvNtNtBM_3gen4fold15fold_assoc_typeNtNvCsfQFyxU9Vz2T_11yoke_derive16replace_lifetime15ReplaceLifetimeE0EB2t_, symObjAddr: 0xA98, symBinAddr: 0x4CBEC, symSize: 0xB0 }
  - { offset: 0xC0A46, size: 0x8, addend: 0x0, symName: __RINvMNtCsaNl6UpbT7bw_4core6optionINtB3_6OptionNtNtCsc29TF2YcYso_3syn4path30AngleBracketedGenericArgumentsE3mapBI_NCINvNtNtBM_3gen4fold15fold_constraintNtNvCsfQFyxU9Vz2T_11yoke_derive16replace_lifetime15ReplaceLifetimeE0EB2t_, symObjAddr: 0xB48, symBinAddr: 0x4CC9C, symSize: 0xB0 }
  - { offset: 0xC0AB3, size: 0x8, addend: 0x0, symName: __RINvMNtCsaNl6UpbT7bw_4core6optionINtB3_6OptionNtNtCsc29TF2YcYso_3syn4path30AngleBracketedGenericArgumentsE3mapBI_NCINvNtNtBM_3gen4fold16fold_assoc_constNtNvCsfQFyxU9Vz2T_11yoke_derive16replace_lifetime15ReplaceLifetimeE0EB2u_, symObjAddr: 0xBF8, symBinAddr: 0x4CD4C, symSize: 0xB0 }
  - { offset: 0xC0B20, size: 0x8, addend: 0x0, symName: __RINvMNtCsaNl6UpbT7bw_4core6optionINtB3_6OptionNtNtCsc29TF2YcYso_3syn4path30AngleBracketedGenericArgumentsE3mapBI_NCINvNtNtBM_3gen4fold21fold_expr_method_callNtNvCsfQFyxU9Vz2T_11yoke_derive16replace_lifetime15ReplaceLifetimeE0EB2z_, symObjAddr: 0xCA8, symBinAddr: 0x4CDFC, symSize: 0xB0 }
  - { offset: 0xC0B8D, size: 0x8, addend: 0x0, symName: __RINvMNtCsaNl6UpbT7bw_4core6optionINtB3_6OptionNtNtCsc29TF2YcYso_3syn4path5QSelfE3mapBI_NCINvNtNtBM_3gen4fold14fold_expr_pathNtNvCsfQFyxU9Vz2T_11yoke_derive16replace_lifetime15ReplaceLifetimeE0EB22_, symObjAddr: 0xD58, symBinAddr: 0x4CEAC, symSize: 0x98 }
  - { offset: 0xC0BF9, size: 0x8, addend: 0x0, symName: __RINvMNtCsaNl6UpbT7bw_4core6optionINtB3_6OptionNtNtCsc29TF2YcYso_3syn4path5QSelfE3mapBI_NCINvNtNtBM_3gen4fold14fold_type_pathNtNvCsfQFyxU9Vz2T_11yoke_derive16replace_lifetime15ReplaceLifetimeE0EB22_, symObjAddr: 0xDF0, symBinAddr: 0x4CF44, symSize: 0x98 }
  - { offset: 0xC0C65, size: 0x8, addend: 0x0, symName: __RINvMNtCsaNl6UpbT7bw_4core6optionINtB3_6OptionNtNtCsc29TF2YcYso_3syn4path5QSelfE3mapBI_NCINvNtNtBM_3gen4fold15fold_pat_structNtNvCsfQFyxU9Vz2T_11yoke_derive16replace_lifetime15ReplaceLifetimeE0EB23_, symObjAddr: 0xE88, symBinAddr: 0x4CFDC, symSize: 0x98 }
  - { offset: 0xC0CD1, size: 0x8, addend: 0x0, symName: __RINvMNtCsaNl6UpbT7bw_4core6optionINtB3_6OptionNtNtCsc29TF2YcYso_3syn4path5QSelfE3mapBI_NCINvNtNtBM_3gen4fold16fold_expr_structNtNvCsfQFyxU9Vz2T_11yoke_derive16replace_lifetime15ReplaceLifetimeE0EB24_, symObjAddr: 0xF20, symBinAddr: 0x4D074, symSize: 0x98 }
  - { offset: 0xC0D3D, size: 0x8, addend: 0x0, symName: __RINvMNtCsaNl6UpbT7bw_4core6optionINtB3_6OptionNtNtCsc29TF2YcYso_3syn4path5QSelfE3mapBI_NCINvNtNtBM_3gen4fold21fold_pat_tuple_structNtNvCsfQFyxU9Vz2T_11yoke_derive16replace_lifetime15ReplaceLifetimeE0EB29_, symObjAddr: 0xFB8, symBinAddr: 0x4D10C, symSize: 0x98 }
  - { offset: 0xC0DA9, size: 0x8, addend: 0x0, symName: __RINvMNtCsaNl6UpbT7bw_4core6optionINtB3_6OptionNtNtCsc29TF2YcYso_3syn4stmt5BlockE3mapBI_NCINvNtNtBM_3gen4fold18fold_trait_item_fnNtNvCsfQFyxU9Vz2T_11yoke_derive16replace_lifetime15ReplaceLifetimeE0EB26_, symObjAddr: 0x1050, symBinAddr: 0x4D1A4, symSize: 0xA8 }
  - { offset: 0xC0E16, size: 0x8, addend: 0x0, symName: __RINvMNtCsaNl6UpbT7bw_4core6optionINtB3_6OptionNtNtCsc29TF2YcYso_3syn4stmt9LocalInitE3mapBI_NCINvNtNtBM_3gen4fold10fold_localNtNvCsfQFyxU9Vz2T_11yoke_derive16replace_lifetime15ReplaceLifetimeE0EB22_, symObjAddr: 0x10F8, symBinAddr: 0x4D24C, symSize: 0x94 }
  - { offset: 0xC0E82, size: 0x8, addend: 0x0, symName: __RINvMNtCsaNl6UpbT7bw_4core6optionINtB3_6OptionNtNtCsc29TF2YcYso_3syn8generics11WhereClauseE3mapBI_NCINvNtNtBM_3gen4fold13fold_genericsNtNvCsfQFyxU9Vz2T_11yoke_derive16replace_lifetime15ReplaceLifetimeE0EB2c_, symObjAddr: 0x118C, symBinAddr: 0x4D2E0, symSize: 0xA8 }
  - { offset: 0xC0EEF, size: 0x8, addend: 0x0, symName: __RINvMNtCsaNl6UpbT7bw_4core6optionINtB3_6OptionNtNtCsc29TF2YcYso_3syn8generics14BoundLifetimesE3mapBI_NCINvNtNtBM_3gen4fold16fold_trait_boundNtNvCsfQFyxU9Vz2T_11yoke_derive16replace_lifetime15ReplaceLifetimeE0EB2i_, symObjAddr: 0x1234, symBinAddr: 0x4D388, symSize: 0xA8 }
  - { offset: 0xC0F5B, size: 0x8, addend: 0x0, symName: __RINvMNtCsaNl6UpbT7bw_4core6optionINtB3_6OptionNtNtCsc29TF2YcYso_3syn8generics14BoundLifetimesE3mapBI_NCINvNtNtBM_3gen4fold17fold_expr_closureNtNvCsfQFyxU9Vz2T_11yoke_derive16replace_lifetime15ReplaceLifetimeE0EB2j_, symObjAddr: 0x12DC, symBinAddr: 0x4D430, symSize: 0xA8 }
  - { offset: 0xC0FC7, size: 0x8, addend: 0x0, symName: __RINvMNtCsaNl6UpbT7bw_4core6optionINtB3_6OptionNtNtCsc29TF2YcYso_3syn8generics14BoundLifetimesE3mapBI_NCINvNtNtBM_3gen4fold17fold_type_bare_fnNtNvCsfQFyxU9Vz2T_11yoke_derive16replace_lifetime15ReplaceLifetimeE0EB2j_, symObjAddr: 0x1384, symBinAddr: 0x4D4D8, symSize: 0xA8 }
  - { offset: 0xC1033, size: 0x8, addend: 0x0, symName: __RINvMNtCsaNl6UpbT7bw_4core6optionINtB3_6OptionNtNtCsc29TF2YcYso_3syn8generics14BoundLifetimesE3mapBI_NCINvNtNtBM_3gen4fold19fold_predicate_typeNtNvCsfQFyxU9Vz2T_11yoke_derive16replace_lifetime15ReplaceLifetimeE0EB2l_, symObjAddr: 0x142C, symBinAddr: 0x4D580, symSize: 0xA8 }
  - { offset: 0xC109F, size: 0x8, addend: 0x0, symName: __RINvMNtCsaNl6UpbT7bw_4core6optionINtB3_6OptionNtNtCsc29TF2YcYso_3syn8lifetime8LifetimeE3mapBI_NCINvNtNtBM_3gen4fold15fold_expr_breakNtNvCsfQFyxU9Vz2T_11yoke_derive16replace_lifetime15ReplaceLifetimeE0EB2a_, symObjAddr: 0x14D4, symBinAddr: 0x4D628, symSize: 0x98 }
  - { offset: 0xC110B, size: 0x8, addend: 0x0, symName: __RINvMNtCsaNl6UpbT7bw_4core6optionINtB3_6OptionNtNtCsc29TF2YcYso_3syn8lifetime8LifetimeE3mapBI_NCINvNtNtBM_3gen4fold18fold_expr_continueNtNvCsfQFyxU9Vz2T_11yoke_derive16replace_lifetime15ReplaceLifetimeE0EB2d_, symObjAddr: 0x156C, symBinAddr: 0x4D6C0, symSize: 0x98 }
  - { offset: 0xC1177, size: 0x8, addend: 0x0, symName: __RINvMNtCsaNl6UpbT7bw_4core6optionINtB3_6OptionNtNtCsc29TF2YcYso_3syn8lifetime8LifetimeE3mapBI_NCINvNtNtBM_3gen4fold19fold_type_referenceNtNvCsfQFyxU9Vz2T_11yoke_derive16replace_lifetime15ReplaceLifetimeE0EB2e_, symObjAddr: 0x1604, symBinAddr: 0x4D758, symSize: 0x98 }
  - { offset: 0xC11E3, size: 0x8, addend: 0x0, symName: __RINvMNtCsaNl6UpbT7bw_4core6optionINtB3_6OptionNtNtCsc29TF2YcYso_3syn8lifetime8LifetimeE3mapBI_NCNCINvNtNtBM_3gen4fold13fold_receiverNtNvCsfQFyxU9Vz2T_11yoke_derive16replace_lifetime15ReplaceLifetimeE00EB2a_, symObjAddr: 0x169C, symBinAddr: 0x4D7F0, symSize: 0x98 }
  - { offset: 0xC124F, size: 0x8, addend: 0x0, symName: __RINvMNtCsaNl6UpbT7bw_4core6optionINtB3_6OptionTIBw_NtNtCsc29TF2YcYso_3syn5token3NotENtNtBR_4path4PathNtBP_3ForEE3mapBI_NCINvNtNtBR_3gen4fold14fold_item_implNtNvCsfQFyxU9Vz2T_11yoke_derive16replace_lifetime15ReplaceLifetimeE0EB2y_, symObjAddr: 0x1734, symBinAddr: 0x4D888, symSize: 0xB0 }
  - { offset: 0xC12BB, size: 0x8, addend: 0x0, symName: __RINvMNtCsaNl6UpbT7bw_4core6optionINtB3_6OptionTINtNtCsiTraAjBDcu4_5alloc5boxed3BoxNtNtCsc29TF2YcYso_3syn3pat3PatENtNtB1m_5token5ColonEE3mapBI_NCINvNtNtB1m_3gen4fold13fold_variadicNtNvCsfQFyxU9Vz2T_11yoke_derive16replace_lifetime15ReplaceLifetimeE0EB2V_, symObjAddr: 0x17E4, symBinAddr: 0x4D938, symSize: 0x7C }
  - { offset: 0xC1327, size: 0x8, addend: 0x0, symName: __RINvMNtCsaNl6UpbT7bw_4core6optionINtB3_6OptionTNtCshnvkK9b4wzu_11proc_macro25IdentNtNtCsc29TF2YcYso_3syn5token5ColonEE3mapBI_NCINvNtNtB1m_3gen4fold16fold_bare_fn_argNtNvCsfQFyxU9Vz2T_11yoke_derive16replace_lifetime15ReplaceLifetimeE0EB2H_, symObjAddr: 0x1860, symBinAddr: 0x4D9B4, symSize: 0x98 }
  - { offset: 0xC1393, size: 0x8, addend: 0x0, symName: __RINvMNtCsaNl6UpbT7bw_4core6optionINtB3_6OptionTNtCshnvkK9b4wzu_11proc_macro25IdentNtNtCsc29TF2YcYso_3syn5token5ColonEE3mapBI_NCINvNtNtB1m_3gen4fold18fold_bare_variadicNtNvCsfQFyxU9Vz2T_11yoke_derive16replace_lifetime15ReplaceLifetimeE0EB2J_, symObjAddr: 0x18F8, symBinAddr: 0x4DA4C, symSize: 0x98 }
  - { offset: 0xC13FF, size: 0x8, addend: 0x0, symName: __RINvMNtCsaNl6UpbT7bw_4core6optionINtB3_6OptionTNtNtCsc29TF2YcYso_3syn5token2AsNtCshnvkK9b4wzu_11proc_macro25IdentEE3mapBI_NCINvNtNtBN_3gen4fold22fold_item_extern_crateNtNvCsfQFyxU9Vz2T_11yoke_derive16replace_lifetime15ReplaceLifetimeE0EB2J_, symObjAddr: 0x1990, symBinAddr: 0x4DAE4, symSize: 0x98 }
  - { offset: 0xC146B, size: 0x8, addend: 0x0, symName: __RINvMNtCsaNl6UpbT7bw_4core6optionINtB3_6OptionTNtNtCsc29TF2YcYso_3syn5token2AtINtNtCsiTraAjBDcu4_5alloc5boxed3BoxNtNtBN_3pat3PatEEE3mapBI_NCINvNtNtBN_3gen4fold14fold_pat_identNtNvCsfQFyxU9Vz2T_11yoke_derive16replace_lifetime15ReplaceLifetimeE0EB2R_, symObjAddr: 0x1A28, symBinAddr: 0x4DB7C, symSize: 0x7C }
  - { offset: 0xC14D7, size: 0x8, addend: 0x0, symName: __RINvMNtCsaNl6UpbT7bw_4core6optionINtB3_6OptionTNtNtCsc29TF2YcYso_3syn5token2EqNtNtBN_2ty4TypeEE3mapBI_NCINvNtNtBN_3gen4fold20fold_trait_item_typeNtNvCsfQFyxU9Vz2T_11yoke_derive16replace_lifetime15ReplaceLifetimeE0EB2n_, symObjAddr: 0x1AA4, symBinAddr: 0x4DBF8, symSize: 0xAC }
  - { offset: 0xC1544, size: 0x8, addend: 0x0, symName: __RINvMNtCsaNl6UpbT7bw_4core6optionINtB3_6OptionTNtNtCsc29TF2YcYso_3syn5token2EqNtNtBN_4expr4ExprEE3mapBI_NCINvNtNtBN_3gen4fold12fold_variantNtNvCsfQFyxU9Vz2T_11yoke_derive16replace_lifetime15ReplaceLifetimeE0EB2h_, symObjAddr: 0x1B50, symBinAddr: 0x4DCA4, symSize: 0xAC }
  - { offset: 0xC15B1, size: 0x8, addend: 0x0, symName: __RINvMNtCsaNl6UpbT7bw_4core6optionINtB3_6OptionTNtNtCsc29TF2YcYso_3syn5token2EqNtNtBN_4expr4ExprEE3mapBI_NCINvNtNtBN_3gen4fold21fold_trait_item_constNtNvCsfQFyxU9Vz2T_11yoke_derive16replace_lifetime15ReplaceLifetimeE0EB2q_, symObjAddr: 0x1BFC, symBinAddr: 0x4DD50, symSize: 0xAC }
