---
triple:          'arm64-apple-darwin'
binary-path:     '/Users/tyler/fall25/cse380/final_project/final_project_sqlite/target/debug/deps/libpaste-4e959e3ef839448d.dylib'
relocations:
  - { offset: 0x1E, size: 0x8, addend: 0x0, symName: __RINvXs8_NtCsiTraAjBDcu4_5alloc6stringNtB6_6StringINtNtNtNtCsaNl6UpbT7bw_4core4iter6traits7collect12FromIteratorBz_E9from_iterINtNtNtB8_3vec9into_iter8IntoIterBz_EECsdkmdlIU590d_5paste, symObjAddr: 0x0, symBinAddr: 0xC48, symSize: 0x12C }
  - { offset: 0x1D3, size: 0x8, addend: 0x0, symName: __RNCINvXsf_NtCsiTraAjBDcu4_5alloc6stringNtB8_6StringINtNtNtNtCsaNl6UpbT7bw_4core4iter6traits7collect6ExtendBB_E6extendINtNtNtBa_3vec9into_iter8IntoIterBB_EE0CsdkmdlIU590d_5paste, symObjAddr: 0x20C, symBinAddr: 0xE54, symSize: 0x104 }
  - { offset: 0x4BC, size: 0x8, addend: 0x0, symName: __RINvXs8_NtCsiTraAjBDcu4_5alloc6stringNtB6_6StringINtNtNtNtCsaNl6UpbT7bw_4core4iter6traits7collect12FromIteratorBz_E9from_iterINtNtNtB8_3vec9into_iter8IntoIterBz_EECsdkmdlIU590d_5paste, symObjAddr: 0x0, symBinAddr: 0xC48, symSize: 0x12C }
  - { offset: 0x579, size: 0x8, addend: 0x0, symName: __RINvXsb_NtCsiTraAjBDcu4_5alloc6stringNtB6_6StringINtNtNtNtCsaNl6UpbT7bw_4core4iter6traits7collect6ExtendcE6extendNtNtBU_4char13EscapeDefaultECsdkmdlIU590d_5paste, symObjAddr: 0x12C, symBinAddr: 0xD74, symSize: 0xAC }
  - { offset: 0x61B, size: 0x8, addend: 0x0, symName: __RNCINvXsb_NtCsiTraAjBDcu4_5alloc6stringNtB8_6StringINtNtNtNtCsaNl6UpbT7bw_4core4iter6traits7collect6ExtendcE6extendNtNtBW_4char13EscapeDefaultE0CsdkmdlIU590d_5paste, symObjAddr: 0x1D8, symBinAddr: 0xE20, symSize: 0x34 }
  - { offset: 0x71A, size: 0x8, addend: 0x0, symName: __RNvXss_NtCsiTraAjBDcu4_5alloc6stringNtB5_6StringNtNtNtCsaNl6UpbT7bw_4core3ops5deref5Deref5derefCsdkmdlIU590d_5paste, symObjAddr: 0x1300, symBinAddr: 0x1F48, symSize: 0x24 }
  - { offset: 0x7B5, size: 0x8, addend: 0x0, symName: __RNvXsq_NtCsiTraAjBDcu4_5alloc6stringNtB5_6StringINtNtNtCsaNl6UpbT7bw_4core3ops5index5IndexINtNtBP_5range5RangejEE5indexCsdkmdlIU590d_5paste, symObjAddr: 0x123C, symBinAddr: 0x1E84, symSize: 0x9C }
  - { offset: 0x905, size: 0x8, addend: 0x0, symName: __RNvXs1p_NtCsiTraAjBDcu4_5alloc6stringNtB6_6StringINtNtCsaNl6UpbT7bw_4core3cmp9PartialEqReE2eqCsdkmdlIU590d_5paste, symObjAddr: 0xE64, symBinAddr: 0x1AAC, symSize: 0xD0 }
  - { offset: 0xB47, size: 0x8, addend: 0x0, symName: __RNvXsV_NtCsiTraAjBDcu4_5alloc6stringNtB5_6StringNtNtCsaNl6UpbT7bw_4core3fmt5Write10write_charCsdkmdlIU590d_5paste, symObjAddr: 0xF5C, symBinAddr: 0x1BA4, symSize: 0x38 }
  - { offset: 0xB84, size: 0x8, addend: 0x0, symName: __RNvXsV_NtCsiTraAjBDcu4_5alloc6stringNtB5_6StringNtNtCsaNl6UpbT7bw_4core3fmt5Write9write_strCsdkmdlIU590d_5paste, symObjAddr: 0xF94, symBinAddr: 0x1BDC, symSize: 0x40 }
  - { offset: 0xBC7, size: 0x8, addend: 0x0, symName: __RNvXsm_NtCsiTraAjBDcu4_5alloc6stringNtB5_6StringNtNtCsaNl6UpbT7bw_4core3fmt5Debug3fmtCsdkmdlIU590d_5paste, symObjAddr: 0x11B4, symBinAddr: 0x1DFC, symSize: 0x88 }
  - { offset: 0x2787, size: 0x8, addend: 0x0, symName: __RNvXs3_NtNtCsaNl6UpbT7bw_4core3str7patternNCNvCsdkmdlIU590d_5paste16pasted_to_tokens0NtB5_11MultiCharEq7matchesBI_, symObjAddr: 0xF34, symBinAddr: 0x1B7C, symSize: 0x28 }
  - { offset: 0x27D3, size: 0x8, addend: 0x0, symName: __RNvXsr_NtNtCsaNl6UpbT7bw_4core3str7patternNCNvCsdkmdlIU590d_5paste16pasted_to_tokens0NtB5_7Pattern12is_prefix_ofBI_, symObjAddr: 0x12D8, symBinAddr: 0x1F20, symSize: 0x28 }
  - { offset: 0x2B46, size: 0x8, addend: 0x0, symName: __RNvXs_NvNtNtCsaNl6UpbT7bw_4core3fmt5Write9write_fmtQNtNtCsiTraAjBDcu4_5alloc6string6StringNtB4_12SpecWriteFmt14spec_write_fmtCsdkmdlIU590d_5paste, symObjAddr: 0x1054, symBinAddr: 0x1C9C, symSize: 0x160 }
  - { offset: 0x2BF5, size: 0x8, addend: 0x0, symName: __RNvYNtNtCsiTraAjBDcu4_5alloc6string6StringNtNtCsaNl6UpbT7bw_4core3fmt5Write9write_fmtCsdkmdlIU590d_5paste, symObjAddr: 0x1324, symBinAddr: 0x1F6C, symSize: 0x24 }
  - { offset: 0x2F4F, size: 0x8, addend: 0x0, symName: __RNvXNtCsaNl6UpbT7bw_4core7convertRNtNtCsiTraAjBDcu4_5alloc6string6StringINtB2_5AsRefNtNtNtCsht3nMU9UgFu_3std3ffi6os_str5OsStrE6as_refCsdkmdlIU590d_5paste, symObjAddr: 0xE3C, symBinAddr: 0x1A84, symSize: 0x28 }
  - { offset: 0x30D7, size: 0x8, addend: 0x0, symName: ___rustc_proc_macro_decls_9b3e5fea53ed44cb__, symObjAddr: 0x5010, symBinAddr: 0x803D0, symSize: 0x0 }
  - { offset: 0x314F, size: 0x8, addend: 0x0, symName: __RNvXs_NvCsdkmdlIU590d_5paste29is_single_interpolation_groupNtB4_5StateNtNtCsaNl6UpbT7bw_4core3cmp9PartialEq2eqB6_, symObjAddr: 0x4630, symBinAddr: 0x5278, symSize: 0x34 }
  - { offset: 0x31CA, size: 0x8, addend: 0x0, symName: __RNvCsdkmdlIU590d_5paste5paste, symObjAddr: 0x1348, symBinAddr: 0x1F90, symSize: 0x1B0 }
  - { offset: 0x3253, size: 0x8, addend: 0x0, symName: __RNvCsdkmdlIU590d_5paste4item, symObjAddr: 0x14F8, symBinAddr: 0x2140, symSize: 0x30 }
  - { offset: 0x327F, size: 0x8, addend: 0x0, symName: __RNvCsdkmdlIU590d_5paste4expr, symObjAddr: 0x1528, symBinAddr: 0x2170, symSize: 0x30 }
  - { offset: 0x32AB, size: 0x8, addend: 0x0, symName: __RNvCsdkmdlIU590d_5paste6expand, symObjAddr: 0x1558, symBinAddr: 0x21A0, symSize: 0x1388 }
  - { offset: 0x35BF, size: 0x8, addend: 0x0, symName: __RNvCsdkmdlIU590d_5paste29is_single_interpolation_group, symObjAddr: 0x28E0, symBinAddr: 0x3528, symSize: 0x608 }
  - { offset: 0x36BF, size: 0x8, addend: 0x0, symName: __RNvCsdkmdlIU590d_5paste18is_paste_operation, symObjAddr: 0x2EE8, symBinAddr: 0x3B30, symSize: 0x360 }
  - { offset: 0x374A, size: 0x8, addend: 0x0, symName: __RNvCsdkmdlIU590d_5paste25parse_bracket_as_segments, symObjAddr: 0x3248, symBinAddr: 0x3E90, symSize: 0xC64 }
  - { offset: 0x38DE, size: 0x8, addend: 0x0, symName: __RNvCsdkmdlIU590d_5paste16pasted_to_tokens, symObjAddr: 0x3EAC, symBinAddr: 0x4AF4, symSize: 0x688 }
  - { offset: 0x3A48, size: 0x8, addend: 0x0, symName: __RNCNvCsdkmdlIU590d_5paste16pasted_to_tokens0B3_, symObjAddr: 0x4534, symBinAddr: 0x517C, symSize: 0x3C }
  - { offset: 0x3A81, size: 0x8, addend: 0x0, symName: __RNCNvCsdkmdlIU590d_5paste16pasted_to_tokenss_0B3_, symObjAddr: 0x4570, symBinAddr: 0x51B8, symSize: 0x40 }
  - { offset: 0x3AB1, size: 0x8, addend: 0x0, symName: __RNCNvCsdkmdlIU590d_5paste16pasted_to_tokenss0_0B3_, symObjAddr: 0x45B0, symBinAddr: 0x51F8, symSize: 0x4C }
  - { offset: 0x3B01, size: 0x8, addend: 0x0, symName: __RNvXs_CsdkmdlIU590d_5pasteNtB4_10LookbehindNtNtCsaNl6UpbT7bw_4core3cmp9PartialEq2eqB4_, symObjAddr: 0x45FC, symBinAddr: 0x5244, symSize: 0x34 }
  - { offset: 0x482F, size: 0x8, addend: 0x0, symName: __RNvMNtCsiTraAjBDcu4_5alloc6stringNtB2_6String3lenCsdkmdlIU590d_5paste, symObjAddr: 0x310, symBinAddr: 0xF58, symSize: 0x18 }
  - { offset: 0x4877, size: 0x8, addend: 0x0, symName: __RNvMNtCsiTraAjBDcu4_5alloc6stringNtB2_6String3newCsdkmdlIU590d_5paste, symObjAddr: 0x328, symBinAddr: 0xF70, symSize: 0x30 }
  - { offset: 0x49A3, size: 0x8, addend: 0x0, symName: __RNvMNtCsiTraAjBDcu4_5alloc6stringNtB2_6String4pushCsdkmdlIU590d_5paste, symObjAddr: 0x358, symBinAddr: 0xFA0, symSize: 0xF8 }
  - { offset: 0x4B9B, size: 0x8, addend: 0x0, symName: __RNvMNtCsiTraAjBDcu4_5alloc6stringNtB2_6String5clearCsdkmdlIU590d_5paste, symObjAddr: 0x450, symBinAddr: 0x1098, symSize: 0x24 }
  - { offset: 0x4C53, size: 0x8, addend: 0x0, symName: __RNvMNtCsiTraAjBDcu4_5alloc6stringNtB2_6String6as_strCsdkmdlIU590d_5paste, symObjAddr: 0x474, symBinAddr: 0x10BC, symSize: 0x78 }
  - { offset: 0x4EB5, size: 0x8, addend: 0x0, symName: __RNvMNtCsiTraAjBDcu4_5alloc6stringNtB2_6String6insertCsdkmdlIU590d_5paste, symObjAddr: 0x4EC, symBinAddr: 0x1134, symSize: 0x2D4 }
  - { offset: 0x560A, size: 0x8, addend: 0x0, symName: __RNvMNtCsiTraAjBDcu4_5alloc6stringNtB2_6String6removeCsdkmdlIU590d_5paste, symObjAddr: 0x7C0, symBinAddr: 0x1408, symSize: 0x304 }
  - { offset: 0x5BFE, size: 0x8, addend: 0x0, symName: __RNvMNtCsiTraAjBDcu4_5alloc6stringNtB2_6String8push_strCsdkmdlIU590d_5paste, symObjAddr: 0xAC4, symBinAddr: 0x170C, symSize: 0x58 }
  - { offset: 0x5ECE, size: 0x8, addend: 0x0, symName: __RNvMNtCsiTraAjBDcu4_5alloc6stringNtB2_6String8truncateCsdkmdlIU590d_5paste, symObjAddr: 0xB1C, symBinAddr: 0x1764, symSize: 0x1B4 }
  - { offset: 0x6275, size: 0x8, addend: 0x0, symName: __RNvMNtCsiTraAjBDcu4_5alloc6stringNtB2_6String9split_offCsdkmdlIU590d_5paste, symObjAddr: 0xCD0, symBinAddr: 0x1918, symSize: 0x16C }
  - { offset: 0x65D5, size: 0x8, addend: 0x0, symName: __RNvXsX_NtNtCsht3nMU9UgFu_3std3ffi6os_strNtNtCsiTraAjBDcu4_5alloc6string6StringINtNtCsaNl6UpbT7bw_4core7convert5AsRefNtB5_5OsStrE6as_refCsdkmdlIU590d_5paste, symObjAddr: 0xFD4, symBinAddr: 0x1C1C, symSize: 0x80 }
  - { offset: 0x78DC, size: 0x8, addend: 0x0, symName: __RINvNtCsaNl6UpbT7bw_4core3ptr13drop_in_placeINtNtB4_4cell10UnsafeCellNtNtNtCs7yrEGia95Wz_10proc_macro6bridge6client6BridgeEECsdkmdlIU590d_5paste, symObjAddr: 0x90, symBinAddr: 0x52AC, symSize: 0x24 }
  - { offset: 0x790B, size: 0x8, addend: 0x0, symName: __RINvNtCsaNl6UpbT7bw_4core3ptr13drop_in_placeINtNtB4_4cell7RefCellNtNtNtCs7yrEGia95Wz_10proc_macro6bridge6client6BridgeEECsdkmdlIU590d_5paste, symObjAddr: 0xB4, symBinAddr: 0x52D0, symSize: 0x24 }
  - { offset: 0x793A, size: 0x8, addend: 0x0, symName: __RINvNtCsaNl6UpbT7bw_4core3ptr13drop_in_placeINtNtB4_6option4ItemNtCs7yrEGia95Wz_10proc_macro9TokenTreeEECsdkmdlIU590d_5paste, symObjAddr: 0xD8, symBinAddr: 0x52F4, symSize: 0x24 }
  - { offset: 0x7969, size: 0x8, addend: 0x0, symName: __RINvNtCsaNl6UpbT7bw_4core3ptr13drop_in_placeINtNtB4_6option6OptionIBH_NtCs7yrEGia95Wz_10proc_macro9TokenTreeEEECsdkmdlIU590d_5paste, symObjAddr: 0xFC, symBinAddr: 0x5318, symSize: 0x44 }
  - { offset: 0x7998, size: 0x8, addend: 0x0, symName: __RINvNtCsaNl6UpbT7bw_4core3ptr13drop_in_placeINtNtB4_6option6OptionINtNtNtNtB4_4iter7sources4once4OnceNtCs7yrEGia95Wz_10proc_macro9TokenTreeEEECsdkmdlIU590d_5paste, symObjAddr: 0x140, symBinAddr: 0x535C, symSize: 0x44 }
  - { offset: 0x79C7, size: 0x8, addend: 0x0, symName: __RINvNtCsaNl6UpbT7bw_4core3ptr13drop_in_placeINtNtB4_6option6OptionINtNtNtNtB4_4iter8adapters4take4TakeNtNtCs7yrEGia95Wz_10proc_macro12token_stream8IntoIterEEECsdkmdlIU590d_5paste, symObjAddr: 0x184, symBinAddr: 0x53A0, symSize: 0x44 }
  - { offset: 0x79F6, size: 0x8, addend: 0x0, symName: __RINvNtCsaNl6UpbT7bw_4core3ptr13drop_in_placeINtNtB4_6option6OptionNtCs7yrEGia95Wz_10proc_macro5GroupEECsdkmdlIU590d_5paste, symObjAddr: 0x1C8, symBinAddr: 0x53E4, symSize: 0x44 }
  - { offset: 0x7A25, size: 0x8, addend: 0x0, symName: __RINvNtCsaNl6UpbT7bw_4core3ptr13drop_in_placeINtNtB4_6option6OptionNtCs7yrEGia95Wz_10proc_macro9TokenTreeEECsdkmdlIU590d_5paste, symObjAddr: 0x20C, symBinAddr: 0x5428, symSize: 0x44 }
  - { offset: 0x7A54, size: 0x8, addend: 0x0, symName: __RINvNtCsaNl6UpbT7bw_4core3ptr13drop_in_placeINtNtB4_6option6OptionNtNtNtCs7yrEGia95Wz_10proc_macro6bridge6client11TokenStreamEECsdkmdlIU590d_5paste, symObjAddr: 0x250, symBinAddr: 0x546C, symSize: 0x44 }
  - { offset: 0x7A83, size: 0x8, addend: 0x0, symName: __RINvNtCsaNl6UpbT7bw_4core3ptr13drop_in_placeINtNtB4_6option8IntoIterNtCs7yrEGia95Wz_10proc_macro9TokenTreeEECsdkmdlIU590d_5paste, symObjAddr: 0x294, symBinAddr: 0x54B0, symSize: 0x24 }
  - { offset: 0x7AB2, size: 0x8, addend: 0x0, symName: __RINvNtCsaNl6UpbT7bw_4core3ptr13drop_in_placeINtNtB4_6result6ResultIBH_NtCs7yrEGia95Wz_10proc_macro7LiteralNtB18_8LexErrorEINtNtCsiTraAjBDcu4_5alloc5boxed3BoxDNtNtB4_3any3AnyNtNtB4_6marker4SendEL_EEECsdkmdlIU590d_5paste, symObjAddr: 0x2B8, symBinAddr: 0x54D4, symSize: 0x40 }
  - { offset: 0x7AE1, size: 0x8, addend: 0x0, symName: __RINvNtCsaNl6UpbT7bw_4core3ptr13drop_in_placeINtNtB4_6result6ResultNtCs7yrEGia95Wz_10proc_macro5IdentINtNtCsiTraAjBDcu4_5alloc5boxed3BoxDNtNtB4_3any3AnyNtNtB4_6marker4SendEL_EEECsdkmdlIU590d_5paste, symObjAddr: 0x2F8, symBinAddr: 0x5514, symSize: 0x40 }
  - { offset: 0x7B10, size: 0x8, addend: 0x0, symName: __RINvNtCsaNl6UpbT7bw_4core3ptr13drop_in_placeINtNtB4_6result6ResultNtNtCsiTraAjBDcu4_5alloc6string6StringNtNtCsht3nMU9UgFu_3std3env8VarErrorEECsdkmdlIU590d_5paste, symObjAddr: 0x338, symBinAddr: 0x5554, symSize: 0x50 }
  - { offset: 0x7B3F, size: 0x8, addend: 0x0, symName: __RINvNtCsaNl6UpbT7bw_4core3ptr13drop_in_placeINtNtCs7yrEGia95Wz_10proc_macro6bridge5GroupNtNtBJ_6client11TokenStreamNtB1q_4SpanEECsdkmdlIU590d_5paste, symObjAddr: 0x388, symBinAddr: 0x55A4, symSize: 0x24 }
  - { offset: 0x7B6E, size: 0x8, addend: 0x0, symName: __RINvNtCsaNl6UpbT7bw_4core3ptr13drop_in_placeINtNtCs7yrEGia95Wz_10proc_macro6bridge9TokenTreeNtNtBJ_6client11TokenStreamNtB1u_4SpanNtNtBJ_6symbol6SymbolEECsdkmdlIU590d_5paste, symObjAddr: 0x3AC, symBinAddr: 0x55C8, symSize: 0x5C }
  - { offset: 0x7B9D, size: 0x8, addend: 0x0, symName: __RINvNtCsaNl6UpbT7bw_4core3ptr13drop_in_placeINtNtCsiTraAjBDcu4_5alloc3vec3VecINtNtCs7yrEGia95Wz_10proc_macro6bridge9TokenTreeNtNtB1g_6client11TokenStreamNtB21_4SpanNtNtB1g_6symbol6SymbolEEECsdkmdlIU590d_5paste, symObjAddr: 0x408, symBinAddr: 0x5624, symSize: 0x5C }
  - { offset: 0x7BCC, size: 0x8, addend: 0x0, symName: __RINvNtCsaNl6UpbT7bw_4core3ptr13drop_in_placeINtNtCsiTraAjBDcu4_5alloc3vec3VecNtNtBL_6string6StringEECsdkmdlIU590d_5paste, symObjAddr: 0x464, symBinAddr: 0x5680, symSize: 0x5C }
  - { offset: 0x7BFB, size: 0x8, addend: 0x0, symName: __RINvNtCsaNl6UpbT7bw_4core3ptr13drop_in_placeINtNtCsiTraAjBDcu4_5alloc3vec3VecNtNtCsdkmdlIU590d_5paste7segment7SegmentEEB1h_, symObjAddr: 0x4C0, symBinAddr: 0x56DC, symSize: 0x5C }
  - { offset: 0x7C2A, size: 0x8, addend: 0x0, symName: __RINvNtCsaNl6UpbT7bw_4core3ptr13drop_in_placeINtNtCsiTraAjBDcu4_5alloc3vec3VechEECsdkmdlIU590d_5paste, symObjAddr: 0x51C, symBinAddr: 0x5738, symSize: 0x5C }
  - { offset: 0x7C59, size: 0x8, addend: 0x0, symName: __RINvNtCsaNl6UpbT7bw_4core3ptr13drop_in_placeINtNtCsiTraAjBDcu4_5alloc5boxed3BoxDNtNtB4_3any3AnyNtNtB4_6marker4SendEL_EECsdkmdlIU590d_5paste, symObjAddr: 0x578, symBinAddr: 0x5794, symSize: 0x80 }
  - { offset: 0x7C88, size: 0x8, addend: 0x0, symName: __RINvNtCsaNl6UpbT7bw_4core3ptr13drop_in_placeINtNtCsiTraAjBDcu4_5alloc5boxed3BoxDNtNtB4_5error5ErrorNtNtB4_6marker4SyncNtB1B_4SendEL_EECsdkmdlIU590d_5paste, symObjAddr: 0x5F8, symBinAddr: 0x5814, symSize: 0x80 }
  - { offset: 0x7CB7, size: 0x8, addend: 0x0, symName: __RINvNtCsaNl6UpbT7bw_4core3ptr13drop_in_placeINtNtCsiTraAjBDcu4_5alloc5boxed3BoxNtNtNtCsht3nMU9UgFu_3std2io5error6CustomEECsdkmdlIU590d_5paste, symObjAddr: 0x678, symBinAddr: 0x5894, symSize: 0x60 }
  - { offset: 0x7CE6, size: 0x8, addend: 0x0, symName: __RINvNtCsaNl6UpbT7bw_4core3ptr13drop_in_placeINtNtCsiTraAjBDcu4_5alloc7raw_vec6RawVecINtNtCs7yrEGia95Wz_10proc_macro6bridge9TokenTreeNtNtB1n_6client11TokenStreamNtB28_4SpanNtNtB1n_6symbol6SymbolEEECsdkmdlIU590d_5paste, symObjAddr: 0x6D8, symBinAddr: 0x58F4, symSize: 0x24 }
  - { offset: 0x7D15, size: 0x8, addend: 0x0, symName: __RINvNtCsaNl6UpbT7bw_4core3ptr13drop_in_placeINtNtCsiTraAjBDcu4_5alloc7raw_vec6RawVecNtCs7yrEGia95Wz_10proc_macro9TokenTreeEECsdkmdlIU590d_5paste, symObjAddr: 0x6FC, symBinAddr: 0x5918, symSize: 0x24 }
  - { offset: 0x7D44, size: 0x8, addend: 0x0, symName: __RINvNtCsaNl6UpbT7bw_4core3ptr13drop_in_placeINtNtCsiTraAjBDcu4_5alloc7raw_vec6RawVecNtNtBL_6string6StringEECsdkmdlIU590d_5paste, symObjAddr: 0x720, symBinAddr: 0x593C, symSize: 0x24 }
  - { offset: 0x7D73, size: 0x8, addend: 0x0, symName: __RINvNtCsaNl6UpbT7bw_4core3ptr13drop_in_placeINtNtCsiTraAjBDcu4_5alloc7raw_vec6RawVecNtNtCsdkmdlIU590d_5paste7segment7SegmentEEB1o_, symObjAddr: 0x744, symBinAddr: 0x5960, symSize: 0x24 }
  - { offset: 0x7DA2, size: 0x8, addend: 0x0, symName: __RINvNtCsaNl6UpbT7bw_4core3ptr13drop_in_placeINtNtCsiTraAjBDcu4_5alloc7raw_vec6RawVechEECsdkmdlIU590d_5paste, symObjAddr: 0x768, symBinAddr: 0x5984, symSize: 0x24 }
  - { offset: 0x7DD1, size: 0x8, addend: 0x0, symName: __RINvNtCsaNl6UpbT7bw_4core3ptr13drop_in_placeINtNtNtB4_5array4iter8IntoItercKj3_EECsdkmdlIU590d_5paste, symObjAddr: 0x78C, symBinAddr: 0x59A8, symSize: 0x5C }
  - { offset: 0x7E00, size: 0x8, addend: 0x0, symName: __RINvNtCsaNl6UpbT7bw_4core3ptr13drop_in_placeINtNtNtCsht3nMU9UgFu_3std2io5error9ErrorDataINtNtCsiTraAjBDcu4_5alloc5boxed3BoxNtBJ_6CustomEEECsdkmdlIU590d_5paste, symObjAddr: 0x7E8, symBinAddr: 0x5A04, symSize: 0x48 }
  - { offset: 0x7E2F, size: 0x8, addend: 0x0, symName: __RINvNtCsaNl6UpbT7bw_4core3ptr13drop_in_placeINtNtNtCsiTraAjBDcu4_5alloc3vec9into_iter8IntoIterINtNtCs7yrEGia95Wz_10proc_macro6bridge9TokenTreeNtNtB1x_6client11TokenStreamNtB2i_4SpanNtNtB1x_6symbol6SymbolEEECsdkmdlIU590d_5paste, symObjAddr: 0x830, symBinAddr: 0x5A4C, symSize: 0x24 }
  - { offset: 0x7E5E, size: 0x8, addend: 0x0, symName: __RINvNtCsaNl6UpbT7bw_4core3ptr13drop_in_placeINtNtNtCsiTraAjBDcu4_5alloc3vec9into_iter8IntoIterNtCs7yrEGia95Wz_10proc_macro9TokenTreeEECsdkmdlIU590d_5paste, symObjAddr: 0x854, symBinAddr: 0x5A70, symSize: 0x24 }
  - { offset: 0x7E8D, size: 0x8, addend: 0x0, symName: __RINvNtCsaNl6UpbT7bw_4core3ptr13drop_in_placeINtNtNtCsiTraAjBDcu4_5alloc3vec9into_iter8IntoIterNtNtBN_6string6StringEECsdkmdlIU590d_5paste, symObjAddr: 0x878, symBinAddr: 0x5A94, symSize: 0x24 }
  - { offset: 0x7EBC, size: 0x8, addend: 0x0, symName: __RINvNtCsaNl6UpbT7bw_4core3ptr13drop_in_placeINtNtNtCsiTraAjBDcu4_5alloc3vec9into_iter8IntoIterNtNtCsdkmdlIU590d_5paste7segment7SegmentEEB1y_, symObjAddr: 0x89C, symBinAddr: 0x5AB8, symSize: 0x24 }
  - { offset: 0x7EEB, size: 0x8, addend: 0x0, symName: __RINvNtCsaNl6UpbT7bw_4core3ptr13drop_in_placeINtNtNtNtB4_4iter7sources4once4OnceNtCs7yrEGia95Wz_10proc_macro9TokenTreeEECsdkmdlIU590d_5paste, symObjAddr: 0x8C0, symBinAddr: 0x5ADC, symSize: 0x24 }
  - { offset: 0x7F1A, size: 0x8, addend: 0x0, symName: __RINvNtCsaNl6UpbT7bw_4core3ptr13drop_in_placeINtNtNtNtB4_4iter8adapters4take4TakeNtNtCs7yrEGia95Wz_10proc_macro12token_stream8IntoIterEECsdkmdlIU590d_5paste, symObjAddr: 0x8E4, symBinAddr: 0x5B00, symSize: 0x24 }
  - { offset: 0x7F49, size: 0x8, addend: 0x0, symName: __RINvNtCsaNl6UpbT7bw_4core3ptr13drop_in_placeINtNtNtNtB4_4iter8adapters5chain5ChainINtNtBL_4take4TakeNtNtCs7yrEGia95Wz_10proc_macro12token_stream8IntoIterEINtNtNtBN_7sources4once4OnceNtB1E_9TokenTreeEEECsdkmdlIU590d_5paste, symObjAddr: 0x908, symBinAddr: 0x5B24, symSize: 0x60 }
  - { offset: 0x7F78, size: 0x8, addend: 0x0, symName: __RINvNtCsaNl6UpbT7bw_4core3ptr13drop_in_placeINtNtNtNtB4_4iter8adapters7inspect7InspectNtNtCs7yrEGia95Wz_10proc_macro12token_stream8IntoIterNCNvNtCsdkmdlIU590d_5paste4attr11expand_attr0EEB2j_, symObjAddr: 0x968, symBinAddr: 0x5B84, symSize: 0x24 }
  - { offset: 0x7FA7, size: 0x8, addend: 0x0, symName: __RINvNtCsaNl6UpbT7bw_4core3ptr13drop_in_placeINtNtNtNtB4_4iter8adapters8peekable8PeekableNtNtCs7yrEGia95Wz_10proc_macro12token_stream8IntoIterEECsdkmdlIU590d_5paste, symObjAddr: 0x98C, symBinAddr: 0x5BA8, symSize: 0x60 }
  - { offset: 0x7FD6, size: 0x8, addend: 0x0, symName: __RINvNtCsaNl6UpbT7bw_4core3ptr13drop_in_placeINtNtNtNtB4_5array4iter10iter_inner15PolymorphicIterAINtNtNtB4_3mem12maybe_uninit11MaybeUninitcEj3_EECsdkmdlIU590d_5paste, symObjAddr: 0x9EC, symBinAddr: 0x5C08, symSize: 0x24 }
  - { offset: 0x8005, size: 0x8, addend: 0x0, symName: __RINvNtCsaNl6UpbT7bw_4core3ptr13drop_in_placeINtNvXsd_NtNtCsiTraAjBDcu4_5alloc3vec9into_iterINtBP_8IntoIterppENtNtNtB4_3ops4drop4Drop4drop9DropGuardINtNtCs7yrEGia95Wz_10proc_macro6bridge9TokenTreeNtNtB2o_6client11TokenStreamNtB39_4SpanNtNtB2o_6symbol6SymbolENtNtBT_5alloc6GlobalEECsdkmdlIU590d_5paste, symObjAddr: 0xA10, symBinAddr: 0x5C2C, symSize: 0x24 }
  - { offset: 0x8034, size: 0x8, addend: 0x0, symName: __RINvNtCsaNl6UpbT7bw_4core3ptr13drop_in_placeINtNvXsd_NtNtCsiTraAjBDcu4_5alloc3vec9into_iterINtBP_8IntoIterppENtNtNtB4_3ops4drop4Drop4drop9DropGuardNtCs7yrEGia95Wz_10proc_macro9TokenTreeNtNtBT_5alloc6GlobalEECsdkmdlIU590d_5paste, symObjAddr: 0xA34, symBinAddr: 0x5C50, symSize: 0x24 }
  - { offset: 0x8063, size: 0x8, addend: 0x0, symName: __RINvNtCsaNl6UpbT7bw_4core3ptr13drop_in_placeINtNvXsd_NtNtCsiTraAjBDcu4_5alloc3vec9into_iterINtBP_8IntoIterppENtNtNtB4_3ops4drop4Drop4drop9DropGuardNtNtBT_6string6StringNtNtBT_5alloc6GlobalEECsdkmdlIU590d_5paste, symObjAddr: 0xA58, symBinAddr: 0x5C74, symSize: 0x24 }
  - { offset: 0x8092, size: 0x8, addend: 0x0, symName: __RINvNtCsaNl6UpbT7bw_4core3ptr13drop_in_placeINtNvXsd_NtNtCsiTraAjBDcu4_5alloc3vec9into_iterINtBP_8IntoIterppENtNtNtB4_3ops4drop4Drop4drop9DropGuardNtNtCsdkmdlIU590d_5paste7segment7SegmentNtNtBT_5alloc6GlobalEEB2p_, symObjAddr: 0xA7C, symBinAddr: 0x5C98, symSize: 0x24 }
  - { offset: 0x80C1, size: 0x8, addend: 0x0, symName: __RINvNtCsaNl6UpbT7bw_4core3ptr13drop_in_placeNCINvMsi_NtCsiTraAjBDcu4_5alloc3vecINtBP_3VechE14extend_trustedINtNtNtNtB4_4iter8adapters3map3MapINtNtNtB4_5slice4iter4IterhENCNvNtBR_3str13replace_ascii0EE0ECsdkmdlIU590d_5paste, symObjAddr: 0xAA0, symBinAddr: 0x5CBC, symSize: 0x24 }
  - { offset: 0x80F0, size: 0x8, addend: 0x0, symName: __RINvNtCsaNl6UpbT7bw_4core3ptr13drop_in_placeNCINvNtNtNtB4_4iter8adapters3map8map_foldRhhuNCNvNtCsiTraAjBDcu4_5alloc3str13replace_ascii0NCINvNvNtNtNtBP_6traits8iterator8Iterator8for_each4callhNCINvMsi_NtB1v_3vecINtB3c_3VechE14extend_trustedINtBL_3MapINtNtNtB4_5slice4iter4IterhEB1p_EE0E0E0ECsdkmdlIU590d_5paste, symObjAddr: 0xAC4, symBinAddr: 0x5CE0, symSize: 0x24 }
  - { offset: 0x811F, size: 0x8, addend: 0x0, symName: __RINvNtCsaNl6UpbT7bw_4core3ptr13drop_in_placeNCINvNvNtNtNtNtB4_4iter6traits8iterator8Iterator8for_each4callhNCINvMsi_NtCsiTraAjBDcu4_5alloc3vecINtB1Q_3VechE14extend_trustedINtNtNtBT_8adapters3map3MapINtNtNtB4_5slice4iter4IterhENCNvNtB1S_3str13replace_ascii0EE0E0ECsdkmdlIU590d_5paste, symObjAddr: 0xAE8, symBinAddr: 0x5D04, symSize: 0x24 }
  - { offset: 0x814E, size: 0x8, addend: 0x0, symName: __RINvNtCsaNl6UpbT7bw_4core3ptr13drop_in_placeNCNCINvNtNtCs7yrEGia95Wz_10proc_macro6bridge6client10run_clientNtBN_11TokenStreamINtNtB4_6option6OptionB1H_ENCNCINvMs6_BN_INtBN_6ClientNtBR_11TokenStreamB2R_E7expand1NvCsdkmdlIU590d_5paste4exprE00E00EB3o_, symObjAddr: 0xB0C, symBinAddr: 0x5D28, symSize: 0x24 }
  - { offset: 0x817D, size: 0x8, addend: 0x0, symName: __RINvNtCsaNl6UpbT7bw_4core3ptr13drop_in_placeNCNCINvNtNtCs7yrEGia95Wz_10proc_macro6bridge6client10run_clientNtBN_11TokenStreamINtNtB4_6option6OptionB1H_ENCNCINvMs6_BN_INtBN_6ClientNtBR_11TokenStreamB2R_E7expand1NvCsdkmdlIU590d_5paste4itemE00E00EB3o_, symObjAddr: 0xB30, symBinAddr: 0x5D4C, symSize: 0x24 }
  - { offset: 0x81AC, size: 0x8, addend: 0x0, symName: __RINvNtCsaNl6UpbT7bw_4core3ptr13drop_in_placeNCNCINvNtNtCs7yrEGia95Wz_10proc_macro6bridge6client10run_clientNtBN_11TokenStreamINtNtB4_6option6OptionB1H_ENCNCINvMs6_BN_INtBN_6ClientNtBR_11TokenStreamB2R_E7expand1NvCsdkmdlIU590d_5paste5pasteE00E00EB3o_, symObjAddr: 0xB54, symBinAddr: 0x5D70, symSize: 0x24 }
  - { offset: 0x81DB, size: 0x8, addend: 0x0, symName: __RINvNtCsaNl6UpbT7bw_4core3ptr13drop_in_placeNtCs7yrEGia95Wz_10proc_macro11TokenStreamECsdkmdlIU590d_5paste, symObjAddr: 0xB78, symBinAddr: 0x5D94, symSize: 0x24 }
  - { offset: 0x820A, size: 0x8, addend: 0x0, symName: __RINvNtCsaNl6UpbT7bw_4core3ptr13drop_in_placeNtCs7yrEGia95Wz_10proc_macro17ConcatTreesHelperECsdkmdlIU590d_5paste, symObjAddr: 0xB9C, symBinAddr: 0x5DB8, symSize: 0x24 }
  - { offset: 0x8239, size: 0x8, addend: 0x0, symName: __RINvNtCsaNl6UpbT7bw_4core3ptr13drop_in_placeNtCs7yrEGia95Wz_10proc_macro5GroupECsdkmdlIU590d_5paste, symObjAddr: 0xBC0, symBinAddr: 0x5DDC, symSize: 0x24 }
  - { offset: 0x8268, size: 0x8, addend: 0x0, symName: __RINvNtCsaNl6UpbT7bw_4core3ptr13drop_in_placeNtCs7yrEGia95Wz_10proc_macro9TokenTreeECsdkmdlIU590d_5paste, symObjAddr: 0xBE4, symBinAddr: 0x5E00, symSize: 0x5C }
  - { offset: 0x8297, size: 0x8, addend: 0x0, symName: __RINvNtCsaNl6UpbT7bw_4core3ptr13drop_in_placeNtNtB4_4char11ToLowercaseECsdkmdlIU590d_5paste, symObjAddr: 0xC40, symBinAddr: 0x5E5C, symSize: 0x24 }
  - { offset: 0x82C6, size: 0x8, addend: 0x0, symName: __RINvNtCsaNl6UpbT7bw_4core3ptr13drop_in_placeNtNtB4_4char11ToUppercaseECsdkmdlIU590d_5paste, symObjAddr: 0xC64, symBinAddr: 0x5E80, symSize: 0x24 }
  - { offset: 0x82F5, size: 0x8, addend: 0x0, symName: __RINvNtCsaNl6UpbT7bw_4core3ptr13drop_in_placeNtNtB4_4char15CaseMappingIterECsdkmdlIU590d_5paste, symObjAddr: 0xC88, symBinAddr: 0x5EA4, symSize: 0x24 }
  - { offset: 0x8324, size: 0x8, addend: 0x0, symName: __RINvNtCsaNl6UpbT7bw_4core3ptr13drop_in_placeNtNtCs7yrEGia95Wz_10proc_macro12token_stream8IntoIterECsdkmdlIU590d_5paste, symObjAddr: 0xCAC, symBinAddr: 0x5EC8, symSize: 0x24 }
  - { offset: 0x8353, size: 0x8, addend: 0x0, symName: __RINvNtCsaNl6UpbT7bw_4core3ptr13drop_in_placeNtNtCsdkmdlIU590d_5paste5error5ErrorEBK_, symObjAddr: 0xCD0, symBinAddr: 0x5EEC, symSize: 0x24 }
  - { offset: 0x8382, size: 0x8, addend: 0x0, symName: __RINvNtCsaNl6UpbT7bw_4core3ptr13drop_in_placeNtNtCsdkmdlIU590d_5paste7segment6LitStrEBK_, symObjAddr: 0xCF4, symBinAddr: 0x5F10, symSize: 0x24 }
  - { offset: 0x83B1, size: 0x8, addend: 0x0, symName: __RINvNtCsaNl6UpbT7bw_4core3ptr13drop_in_placeNtNtCsdkmdlIU590d_5paste7segment7SegmentEBK_, symObjAddr: 0xD18, symBinAddr: 0x5F34, symSize: 0x64 }
  - { offset: 0x83E0, size: 0x8, addend: 0x0, symName: __RINvNtCsaNl6UpbT7bw_4core3ptr13drop_in_placeNtNtCsht3nMU9UgFu_3std3env8VarErrorECsdkmdlIU590d_5paste, symObjAddr: 0xD7C, symBinAddr: 0x5F98, symSize: 0x48 }
  - { offset: 0x840F, size: 0x8, addend: 0x0, symName: __RINvNtCsaNl6UpbT7bw_4core3ptr13drop_in_placeNtNtCsiTraAjBDcu4_5alloc6string6StringECsdkmdlIU590d_5paste, symObjAddr: 0xDC4, symBinAddr: 0x5FE0, symSize: 0x24 }
  - { offset: 0x843E, size: 0x8, addend: 0x0, symName: __RINvNtCsaNl6UpbT7bw_4core3ptr13drop_in_placeNtNtNtCs7yrEGia95Wz_10proc_macro6bridge3rpc12PanicMessageECsdkmdlIU590d_5paste, symObjAddr: 0xDE8, symBinAddr: 0x6004, symSize: 0x50 }
  - { offset: 0x846D, size: 0x8, addend: 0x0, symName: __RINvNtCsaNl6UpbT7bw_4core3ptr13drop_in_placeNtNtNtCs7yrEGia95Wz_10proc_macro6bridge6buffer6BufferECsdkmdlIU590d_5paste, symObjAddr: 0xE38, symBinAddr: 0x6054, symSize: 0x24 }
  - { offset: 0x849C, size: 0x8, addend: 0x0, symName: __RINvNtCsaNl6UpbT7bw_4core3ptr13drop_in_placeNtNtNtCs7yrEGia95Wz_10proc_macro6bridge6client11TokenStreamECsdkmdlIU590d_5paste, symObjAddr: 0xE5C, symBinAddr: 0x6078, symSize: 0x24 }
  - { offset: 0x84CB, size: 0x8, addend: 0x0, symName: __RINvNtCsaNl6UpbT7bw_4core3ptr13drop_in_placeNtNtNtCs7yrEGia95Wz_10proc_macro6bridge6client6BridgeECsdkmdlIU590d_5paste, symObjAddr: 0xE80, symBinAddr: 0x609C, symSize: 0x24 }
  - { offset: 0x84FA, size: 0x8, addend: 0x0, symName: __RINvNtCsaNl6UpbT7bw_4core3ptr13drop_in_placeNtNtNtCsht3nMU9UgFu_3std2io5error5ErrorECsdkmdlIU590d_5paste, symObjAddr: 0xEA4, symBinAddr: 0x60C0, symSize: 0x24 }
  - { offset: 0x8529, size: 0x8, addend: 0x0, symName: __RINvNtCsaNl6UpbT7bw_4core3ptr13drop_in_placeNtNtNtCsht3nMU9UgFu_3std2io5error6CustomECsdkmdlIU590d_5paste, symObjAddr: 0xEC8, symBinAddr: 0x60E4, symSize: 0x24 }
  - { offset: 0x8558, size: 0x8, addend: 0x0, symName: __RINvNtCsaNl6UpbT7bw_4core3ptr13drop_in_placeNtNtNtCsht3nMU9UgFu_3std3ffi6os_str8OsStringECsdkmdlIU590d_5paste, symObjAddr: 0xEEC, symBinAddr: 0x6108, symSize: 0x24 }
  - { offset: 0x8587, size: 0x8, addend: 0x0, symName: __RINvNtCsaNl6UpbT7bw_4core3ptr13drop_in_placeNtNtNtCsiTraAjBDcu4_5alloc3vec15set_len_on_drop12SetLenOnDropECsdkmdlIU590d_5paste, symObjAddr: 0xF10, symBinAddr: 0x612C, symSize: 0x24 }
  - { offset: 0x85B6, size: 0x8, addend: 0x0, symName: __RINvNtCsaNl6UpbT7bw_4core3ptr13drop_in_placeNtNtNtNtCsht3nMU9UgFu_3std2io5error14repr_bitpacked4ReprECsdkmdlIU590d_5paste, symObjAddr: 0xF34, symBinAddr: 0x6150, symSize: 0x24 }
  - { offset: 0x85E5, size: 0x8, addend: 0x0, symName: __RINvNtCsaNl6UpbT7bw_4core3ptr13drop_in_placeNtNtNtNtCsht3nMU9UgFu_3std3sys6os_str5bytes3BufECsdkmdlIU590d_5paste, symObjAddr: 0xF58, symBinAddr: 0x6174, symSize: 0x24 }
  - { offset: 0x8614, size: 0x8, addend: 0x0, symName: __RINvNtCsaNl6UpbT7bw_4core3ptr13drop_in_placeNtNvNtNtNtCs7yrEGia95Wz_10proc_macro6bridge6client5state3set13RestoreOnDropECsdkmdlIU590d_5paste, symObjAddr: 0xF7C, symBinAddr: 0x6198, symSize: 0x24 }
  - { offset: 0x8643, size: 0x8, addend: 0x0, symName: __RINvNtCsaNl6UpbT7bw_4core3ptr13drop_in_placeSINtNtCs7yrEGia95Wz_10proc_macro6bridge9TokenTreeNtNtBK_6client11TokenStreamNtB1v_4SpanNtNtBK_6symbol6SymbolEECsdkmdlIU590d_5paste, symObjAddr: 0xFA0, symBinAddr: 0x61BC, symSize: 0xC4 }
  - { offset: 0x8672, size: 0x8, addend: 0x0, symName: __RINvNtCsaNl6UpbT7bw_4core3ptr13drop_in_placeSNtCs7yrEGia95Wz_10proc_macro9TokenTreeECsdkmdlIU590d_5paste, symObjAddr: 0x1064, symBinAddr: 0x6280, symSize: 0xC4 }
  - { offset: 0x86A1, size: 0x8, addend: 0x0, symName: __RINvNtCsaNl6UpbT7bw_4core3ptr13drop_in_placeSNtNtCsdkmdlIU590d_5paste7segment7SegmentEBL_, symObjAddr: 0x1128, symBinAddr: 0x6344, symSize: 0xC4 }
  - { offset: 0x86D0, size: 0x8, addend: 0x0, symName: __RINvNtCsaNl6UpbT7bw_4core3ptr13drop_in_placeSNtNtCsiTraAjBDcu4_5alloc6string6StringECsdkmdlIU590d_5paste, symObjAddr: 0x11EC, symBinAddr: 0x6408, symSize: 0xC4 }
  - { offset: 0x8EA3, size: 0x8, addend: 0x0, symName: __RNvNvMs1_NtNtCsaNl6UpbT7bw_4core3ptr8non_nullINtB7_7NonNullpE13new_unchecked18precondition_checkCsdkmdlIU590d_5paste, symObjAddr: 0x20F4, symBinAddr: 0x7310, symSize: 0xA4 }
  - { offset: 0x90C5, size: 0x8, addend: 0x0, symName: __RINvNtCsaNl6UpbT7bw_4core6escape10hex_escapeKja_ECsdkmdlIU590d_5paste, symObjAddr: 0x12B0, symBinAddr: 0x64CC, symSize: 0x134 }
  - { offset: 0x918C, size: 0x8, addend: 0x0, symName: __RINvNtCsaNl6UpbT7bw_4core6escape12escape_asciiKja_ECsdkmdlIU590d_5paste, symObjAddr: 0x13E4, symBinAddr: 0x6600, symSize: 0x168 }
  - { offset: 0x9418, size: 0x8, addend: 0x0, symName: __RNvXNtNtCsaNl6UpbT7bw_4core3ops12control_flowINtB2_11ControlFlowINtNtB4_9try_trait17NeverShortCircuituEENtB13_3Try11from_outputCsdkmdlIU590d_5paste, symObjAddr: 0x2198, symBinAddr: 0x73B4, symSize: 0x18 }
  - { offset: 0x9456, size: 0x8, addend: 0x0, symName: __RNvXNtNtCsaNl6UpbT7bw_4core3ops12control_flowINtB2_11ControlFlowINtNtB4_9try_trait17NeverShortCircuituEENtB13_3Try6branchCsdkmdlIU590d_5paste, symObjAddr: 0x21B0, symBinAddr: 0x73CC, symSize: 0x40 }
  - { offset: 0x94CE, size: 0x8, addend: 0x0, symName: __RNvXNtNtCsaNl6UpbT7bw_4core3ops12control_flowINtB2_11ControlFlowuENtNtB4_9try_trait3Try11from_outputCsdkmdlIU590d_5paste, symObjAddr: 0x21F0, symBinAddr: 0x740C, symSize: 0x18 }
  - { offset: 0x950C, size: 0x8, addend: 0x0, symName: __RNvXNtNtCsaNl6UpbT7bw_4core3ops12control_flowINtB2_11ControlFlowuENtNtB4_9try_trait3Try6branchCsdkmdlIU590d_5paste, symObjAddr: 0x2208, symBinAddr: 0x7424, symSize: 0x40 }
  - { offset: 0x958A, size: 0x8, addend: 0x0, symName: __RNvXs8_NtNtCsaNl6UpbT7bw_4core3ops12control_flowINtB5_11ControlFlowuENtNtB9_3cmp9PartialEq2eqCsdkmdlIU590d_5paste, symObjAddr: 0x2768, symBinAddr: 0x7984, symSize: 0xEC }
  - { offset: 0x96A9, size: 0x8, addend: 0x0, symName: __RNvXs_NtNtCsaNl6UpbT7bw_4core3ops12control_flowINtB4_11ControlFlowINtNtB6_9try_trait17NeverShortCircuituEEINtB15_12FromResidualIBK_B12_NtNtB8_7convert10InfallibleEE13from_residualCsdkmdlIU590d_5paste, symObjAddr: 0x2854, symBinAddr: 0x7A70, symSize: 0x1C }
  - { offset: 0x96E7, size: 0x8, addend: 0x0, symName: __RNvXs_NtNtCsaNl6UpbT7bw_4core3ops12control_flowINtB4_11ControlFlowuEINtNtB6_9try_trait12FromResidualIBK_uNtNtB8_7convert10InfallibleEE13from_residualCsdkmdlIU590d_5paste, symObjAddr: 0x2870, symBinAddr: 0x7A8C, symSize: 0x1C }
  - { offset: 0x9A17, size: 0x8, addend: 0x0, symName: __RNvYNCNkNvNtNtNtCs7yrEGia95Wz_10proc_macro6bridge6client5state12BRIDGE_STATE0s_0INtNtNtCsaNl6UpbT7bw_4core3ops8function6FnOnceTINtNtB1n_6option6OptionQIB22_INtNtB1n_4cell4CellPuEEEEE9call_onceCsdkmdlIU590d_5paste, symObjAddr: 0x2DFC, symBinAddr: 0x8018, symSize: 0x4C }
  - { offset: 0x9A5B, size: 0x8, addend: 0x0, symName: __RNvYNvMsq_Cs7yrEGia95Wz_10proc_macroNtB8_9TokenTree4spanINtNtNtCsaNl6UpbT7bw_4core3ops8function6FnOnceTRBy_EE9call_onceCsdkmdlIU590d_5paste, symObjAddr: 0x2EC0, symBinAddr: 0x80DC, symSize: 0x24 }
  - { offset: 0x9A9F, size: 0x8, addend: 0x0, symName: __RNvYNvYeNtNtCsiTraAjBDcu4_5alloc6borrow7ToOwned8to_ownedINtNtNtCsaNl6UpbT7bw_4core3ops8function6FnOnceTReEE9call_onceCsdkmdlIU590d_5paste, symObjAddr: 0x2EE4, symBinAddr: 0x8100, symSize: 0x2C }
  - { offset: 0x9AE9, size: 0x8, addend: 0x0, symName: __RNvYNvCsdkmdlIU590d_5paste4exprINtNtNtCsaNl6UpbT7bw_4core3ops8function2FnTNtCs7yrEGia95Wz_10proc_macro11TokenStreamEE4callB4_, symObjAddr: 0x2E48, symBinAddr: 0x8064, symSize: 0x28 }
  - { offset: 0x9B2D, size: 0x8, addend: 0x0, symName: __RNvYNvCsdkmdlIU590d_5paste4itemINtNtNtCsaNl6UpbT7bw_4core3ops8function2FnTNtCs7yrEGia95Wz_10proc_macro11TokenStreamEE4callB4_, symObjAddr: 0x2E70, symBinAddr: 0x808C, symSize: 0x28 }
  - { offset: 0x9B71, size: 0x8, addend: 0x0, symName: __RNvYNvCsdkmdlIU590d_5paste5pasteINtNtNtCsaNl6UpbT7bw_4core3ops8function2FnTNtCs7yrEGia95Wz_10proc_macro11TokenStreamEE4callB4_, symObjAddr: 0x2E98, symBinAddr: 0x80B4, symSize: 0x28 }
  - { offset: 0xA655, size: 0x8, addend: 0x0, symName: __RINvNtNtNtCsaNl6UpbT7bw_4core4iter7sources4once4onceNtCs7yrEGia95Wz_10proc_macro9TokenTreeECsdkmdlIU590d_5paste, symObjAddr: 0x154C, symBinAddr: 0x6768, symSize: 0x50 }
  - { offset: 0xA6A3, size: 0x8, addend: 0x0, symName: __RNvXNtNtNtCsaNl6UpbT7bw_4core4iter7sources4onceINtB2_4OnceNtCs7yrEGia95Wz_10proc_macro9TokenTreeENtNtNtB6_6traits8iterator8Iterator4nextCsdkmdlIU590d_5paste, symObjAddr: 0x2274, symBinAddr: 0x7490, symSize: 0x40 }
  - { offset: 0xA72E, size: 0x8, addend: 0x0, symName: __RNvXNtNtNtCsaNl6UpbT7bw_4core4iter7sources4onceINtB2_4OnceNtCs7yrEGia95Wz_10proc_macro9TokenTreeENtNtNtB6_6traits8iterator8Iterator9size_hintCsdkmdlIU590d_5paste, symObjAddr: 0x22B4, symBinAddr: 0x74D0, symSize: 0x44 }
  - { offset: 0xA7E9, size: 0x8, addend: 0x0, symName: __RINvYINtNtNtCsiTraAjBDcu4_5alloc3vec9into_iter8IntoIterNtCs7yrEGia95Wz_10proc_macro9TokenTreeENtNtNtNtCsaNl6UpbT7bw_4core4iter6traits8iterator8Iterator8for_eachNCINvXsg_BT_NtBT_11TokenStreamINtNtB1y_7collect12FromIteratorBR_E9from_iterINtB8_3VecBR_EE0ECsdkmdlIU590d_5paste, symObjAddr: 0x17CC, symBinAddr: 0x69E8, symSize: 0x24 }
  - { offset: 0xA835, size: 0x8, addend: 0x0, symName: __RINvYINtNtNtCsiTraAjBDcu4_5alloc3vec9into_iter8IntoIterNtNtBa_6string6StringENtNtNtNtCsaNl6UpbT7bw_4core4iter6traits8iterator8Iterator7collectBR_ECsdkmdlIU590d_5paste, symObjAddr: 0x17F0, symBinAddr: 0x6A0C, symSize: 0x60 }
  - { offset: 0xA8CB, size: 0x8, addend: 0x0, symName: __RINvYINtNtNtCsiTraAjBDcu4_5alloc3vec9into_iter8IntoIterNtNtBa_6string6StringENtNtNtNtCsaNl6UpbT7bw_4core4iter6traits8iterator8Iterator8for_eachNCINvXsf_BT_BR_INtNtB1h_7collect6ExtendBR_E6extendB3_E0ECsdkmdlIU590d_5paste, symObjAddr: 0x1850, symBinAddr: 0x6A6C, symSize: 0x24 }
  - { offset: 0xA917, size: 0x8, addend: 0x0, symName: __RINvYINtNtNtNtCsaNl6UpbT7bw_4core4iter7sources4once4OnceNtCs7yrEGia95Wz_10proc_macro9TokenTreeENtNtNtBa_6traits8iterator8Iterator4folduNCINvNvB1v_8for_each4callBS_NCINvXsg_BU_NtBU_11TokenStreamINtNtB1z_7collect12FromIteratorBS_E9from_iterINtNtNtBa_8adapters5chain5ChainINtNtB3T_4take4TakeNtNtBU_12token_stream8IntoIterEB3_EE0E0ECsdkmdlIU590d_5paste, symObjAddr: 0x1874, symBinAddr: 0x6A90, symSize: 0x108 }
  - { offset: 0xA9A8, size: 0x8, addend: 0x0, symName: __RINvYINtNtNtNtCsaNl6UpbT7bw_4core4iter7sources4once4OnceNtCs7yrEGia95Wz_10proc_macro9TokenTreeENtNtNtBa_6traits8iterator8Iterator4folduNCINvNvB1v_8for_each4callBS_NCINvXsi_BU_NtBU_11TokenStreamINtNtB1z_7collect6ExtendBS_E6extendB3_E0E0ECsdkmdlIU590d_5paste, symObjAddr: 0x197C, symBinAddr: 0x6B98, symSize: 0x108 }
  - { offset: 0xAA39, size: 0x8, addend: 0x0, symName: __RINvYINtNtNtNtCsaNl6UpbT7bw_4core4iter7sources4once4OnceNtCs7yrEGia95Wz_10proc_macro9TokenTreeENtNtNtBa_6traits8iterator8Iterator8for_eachNCINvXsi_BU_NtBU_11TokenStreamINtNtB1z_7collect6ExtendBS_E6extendB3_E0ECsdkmdlIU590d_5paste, symObjAddr: 0x1A84, symBinAddr: 0x6CA0, symSize: 0x24 }
  - { offset: 0xAAFC, size: 0x8, addend: 0x0, symName: __RNvXNtNtNtCsaNl6UpbT7bw_4core4iter6traits7collectINtNtNtB6_7sources4once4OnceNtCs7yrEGia95Wz_10proc_macro9TokenTreeENtB2_12IntoIterator9into_iterCsdkmdlIU590d_5paste, symObjAddr: 0x2248, symBinAddr: 0x7464, symSize: 0x18 }
  - { offset: 0xAB33, size: 0x8, addend: 0x0, symName: __RNvXNtNtNtCsaNl6UpbT7bw_4core4iter6traits7collectINtNtNtCsiTraAjBDcu4_5alloc3vec9into_iter8IntoIterNtNtBS_6string6StringENtB2_12IntoIterator9into_iterCsdkmdlIU590d_5paste, symObjAddr: 0x2260, symBinAddr: 0x747C, symSize: 0x14 }
  - { offset: 0xAC10, size: 0x8, addend: 0x0, symName: __RNvYINtNtNtCsiTraAjBDcu4_5alloc3vec9into_iter8IntoIterINtNtCs7yrEGia95Wz_10proc_macro6bridge9TokenTreeNtNtBT_6client11TokenStreamNtB1E_4SpanNtNtBT_6symbol6SymbolEENtNtNtNtCsaNl6UpbT7bw_4core4iter6traits10exact_size17ExactSizeIterator3lenCsdkmdlIU590d_5paste, symObjAddr: 0x2AEC, symBinAddr: 0x7D08, symSize: 0xC4 }
  - { offset: 0xAD0B, size: 0x8, addend: 0x0, symName: __RNvYINtNtNtCsiTraAjBDcu4_5alloc3vec9into_iter8IntoIterNtCs7yrEGia95Wz_10proc_macro9TokenTreeENtNtNtNtCsaNl6UpbT7bw_4core4iter6traits10exact_size17ExactSizeIterator3lenCsdkmdlIU590d_5paste, symObjAddr: 0x2BB0, symBinAddr: 0x7DCC, symSize: 0xC4 }
  - { offset: 0xAE06, size: 0x8, addend: 0x0, symName: __RNvYINtNtNtCsiTraAjBDcu4_5alloc3vec9into_iter8IntoIterNtNtB9_6string6StringENtNtNtNtCsaNl6UpbT7bw_4core4iter6traits10exact_size17ExactSizeIterator3lenCsdkmdlIU590d_5paste, symObjAddr: 0x2C74, symBinAddr: 0x7E90, symSize: 0xC4 }
  - { offset: 0xAF01, size: 0x8, addend: 0x0, symName: __RNvYINtNtNtCsiTraAjBDcu4_5alloc3vec9into_iter8IntoIterNtNtCsdkmdlIU590d_5paste7segment7SegmentENtNtNtNtCsaNl6UpbT7bw_4core4iter6traits10exact_size17ExactSizeIterator3lenBU_, symObjAddr: 0x2D38, symBinAddr: 0x7F54, symSize: 0xC4 }
  - { offset: 0xBC7D, size: 0x8, addend: 0x0, symName: __RINvXs3_NtNtCsiTraAjBDcu4_5alloc3vec9into_iterINtB6_8IntoIterNtCs7yrEGia95Wz_10proc_macro9TokenTreeENtNtNtNtCsaNl6UpbT7bw_4core4iter6traits8iterator8Iterator4folduNCINvNvB1A_8for_each4callBX_NCINvXsg_BZ_NtBZ_11TokenStreamINtNtB1E_7collect12FromIteratorBX_E9from_iterINtB8_3VecBX_EE0E0ECsdkmdlIU590d_5paste, symObjAddr: 0x159C, symBinAddr: 0x67B8, symSize: 0x118 }
  - { offset: 0xBE4A, size: 0x8, addend: 0x0, symName: __RINvXs3_NtNtCsiTraAjBDcu4_5alloc3vec9into_iterINtB6_8IntoIterNtNtBa_6string6StringENtNtNtNtCsaNl6UpbT7bw_4core4iter6traits8iterator8Iterator4folduNCINvNvB1j_8for_each4callBX_NCINvXsf_BZ_BX_INtNtB1n_7collect6ExtendBX_E6extendBI_E0E0ECsdkmdlIU590d_5paste, symObjAddr: 0x16B4, symBinAddr: 0x68D0, symSize: 0x118 }
  - { offset: 0xC017, size: 0x8, addend: 0x0, symName: __RNvXs3_NtNtCsiTraAjBDcu4_5alloc3vec9into_iterINtB5_8IntoIterINtNtCs7yrEGia95Wz_10proc_macro6bridge9TokenTreeNtNtBZ_6client11TokenStreamNtB1K_4SpanNtNtBZ_6symbol6SymbolEENtNtNtNtCsaNl6UpbT7bw_4core4iter6traits8iterator8Iterator9size_hintCsdkmdlIU590d_5paste, symObjAddr: 0x24E8, symBinAddr: 0x7704, symSize: 0x6C }
  - { offset: 0xC072, size: 0x8, addend: 0x0, symName: __RNvXs3_NtNtCsiTraAjBDcu4_5alloc3vec9into_iterINtB5_8IntoIterNtCs7yrEGia95Wz_10proc_macro9TokenTreeENtNtNtNtCsaNl6UpbT7bw_4core4iter6traits8iterator8Iterator9size_hintCsdkmdlIU590d_5paste, symObjAddr: 0x2554, symBinAddr: 0x7770, symSize: 0x6C }
  - { offset: 0xC0CD, size: 0x8, addend: 0x0, symName: __RNvXs3_NtNtCsiTraAjBDcu4_5alloc3vec9into_iterINtB5_8IntoIterNtNtB9_6string6StringENtNtNtNtCsaNl6UpbT7bw_4core4iter6traits8iterator8Iterator4nextCsdkmdlIU590d_5paste, symObjAddr: 0x25C0, symBinAddr: 0x77DC, symSize: 0xD0 }
  - { offset: 0xC248, size: 0x8, addend: 0x0, symName: __RNvXs3_NtNtCsiTraAjBDcu4_5alloc3vec9into_iterINtB5_8IntoIterNtNtB9_6string6StringENtNtNtNtCsaNl6UpbT7bw_4core4iter6traits8iterator8Iterator9size_hintCsdkmdlIU590d_5paste, symObjAddr: 0x2690, symBinAddr: 0x78AC, symSize: 0x6C }
  - { offset: 0xC2A3, size: 0x8, addend: 0x0, symName: __RNvXs3_NtNtCsiTraAjBDcu4_5alloc3vec9into_iterINtB5_8IntoIterNtNtCsdkmdlIU590d_5paste7segment7SegmentENtNtNtNtCsaNl6UpbT7bw_4core4iter6traits8iterator8Iterator9size_hintB10_, symObjAddr: 0x26FC, symBinAddr: 0x7918, symSize: 0x6C }
  - { offset: 0xC3BF, size: 0x8, addend: 0x0, symName: __RNvXNvXsd_NtNtCsiTraAjBDcu4_5alloc3vec9into_iterINtB8_8IntoIterppENtNtNtCsaNl6UpbT7bw_4core3ops4drop4Drop4dropINtB2_9DropGuardINtNtCs7yrEGia95Wz_10proc_macro6bridge9TokenTreeNtNtB23_6client11TokenStreamNtB2O_4SpanNtNtB23_6symbol6SymbolENtNtBc_5alloc6GlobalEB12_4dropCsdkmdlIU590d_5paste, symObjAddr: 0x22F8, symBinAddr: 0x7514, symSize: 0x7C }
  - { offset: 0xC4CC, size: 0x8, addend: 0x0, symName: __RNvXNvXsd_NtNtCsiTraAjBDcu4_5alloc3vec9into_iterINtB8_8IntoIterppENtNtNtCsaNl6UpbT7bw_4core3ops4drop4Drop4dropINtB2_9DropGuardNtCs7yrEGia95Wz_10proc_macro9TokenTreeNtNtBc_5alloc6GlobalEB12_4dropCsdkmdlIU590d_5paste, symObjAddr: 0x2374, symBinAddr: 0x7590, symSize: 0x7C }
  - { offset: 0xC5D9, size: 0x8, addend: 0x0, symName: __RNvXNvXsd_NtNtCsiTraAjBDcu4_5alloc3vec9into_iterINtB8_8IntoIterppENtNtNtCsaNl6UpbT7bw_4core3ops4drop4Drop4dropINtB2_9DropGuardNtNtBc_6string6StringNtNtBc_5alloc6GlobalEB12_4dropCsdkmdlIU590d_5paste, symObjAddr: 0x23F0, symBinAddr: 0x760C, symSize: 0x7C }
  - { offset: 0xC6E6, size: 0x8, addend: 0x0, symName: __RNvXNvXsd_NtNtCsiTraAjBDcu4_5alloc3vec9into_iterINtB8_8IntoIterppENtNtNtCsaNl6UpbT7bw_4core3ops4drop4Drop4dropINtB2_9DropGuardNtNtCsdkmdlIU590d_5paste7segment7SegmentNtNtBc_5alloc6GlobalEB12_4dropB24_, symObjAddr: 0x246C, symBinAddr: 0x7688, symSize: 0x7C }
  - { offset: 0xC891, size: 0x8, addend: 0x0, symName: __RNvXsd_NtNtCsiTraAjBDcu4_5alloc3vec9into_iterINtB5_8IntoIterINtNtCs7yrEGia95Wz_10proc_macro6bridge9TokenTreeNtNtBZ_6client11TokenStreamNtB1K_4SpanNtNtBZ_6symbol6SymbolEENtNtNtCsaNl6UpbT7bw_4core3ops4drop4Drop4dropCsdkmdlIU590d_5paste, symObjAddr: 0x288C, symBinAddr: 0x7AA8, symSize: 0x98 }
  - { offset: 0xC92B, size: 0x8, addend: 0x0, symName: __RNvXsd_NtNtCsiTraAjBDcu4_5alloc3vec9into_iterINtB5_8IntoIterNtCs7yrEGia95Wz_10proc_macro9TokenTreeENtNtNtCsaNl6UpbT7bw_4core3ops4drop4Drop4dropCsdkmdlIU590d_5paste, symObjAddr: 0x2924, symBinAddr: 0x7B40, symSize: 0x98 }
  - { offset: 0xC9C5, size: 0x8, addend: 0x0, symName: __RNvXsd_NtNtCsiTraAjBDcu4_5alloc3vec9into_iterINtB5_8IntoIterNtNtB9_6string6StringENtNtNtCsaNl6UpbT7bw_4core3ops4drop4Drop4dropCsdkmdlIU590d_5paste, symObjAddr: 0x29BC, symBinAddr: 0x7BD8, symSize: 0x98 }
  - { offset: 0xCA5F, size: 0x8, addend: 0x0, symName: __RNvXsd_NtNtCsiTraAjBDcu4_5alloc3vec9into_iterINtB5_8IntoIterNtNtCsdkmdlIU590d_5paste7segment7SegmentENtNtNtCsaNl6UpbT7bw_4core3ops4drop4Drop4dropB10_, symObjAddr: 0x2A54, symBinAddr: 0x7C70, symSize: 0x98 }
  - { offset: 0xD0A0, size: 0x8, addend: 0x0, symName: __RNCNvNtCsiTraAjBDcu4_5alloc3fmt6format0CsdkmdlIU590d_5paste, symObjAddr: 0x1AA8, symBinAddr: 0x6CC4, symSize: 0x48 }
  - { offset: 0xD0D1, size: 0x8, addend: 0x0, symName: __RNvNtCsiTraAjBDcu4_5alloc3fmt6formatCsdkmdlIU590d_5paste, symObjAddr: 0x2020, symBinAddr: 0x723C, symSize: 0xD4 }
  - { offset: 0xD396, size: 0x8, addend: 0x0, symName: __RNvMNtCsaNl6UpbT7bw_4core6escapeINtB2_15EscapeIterInnerKja_NtB2_13AlwaysEscapedE9backslashCsdkmdlIU590d_5paste, symObjAddr: 0x1AF0, symBinAddr: 0x6D0C, symSize: 0x74 }
  - { offset: 0xD46B, size: 0x8, addend: 0x0, symName: __RNvMs1_NtNtCsaNl6UpbT7bw_4core3ptr8non_nullINtB5_7NonNullINtNtCs7yrEGia95Wz_10proc_macro6bridge9TokenTreeNtNtBW_6client11TokenStreamNtB1H_4SpanNtNtBW_6symbol6SymbolEE20offset_from_unsignedCsdkmdlIU590d_5paste, symObjAddr: 0x1B64, symBinAddr: 0x6D80, symSize: 0x7C }
  - { offset: 0xD557, size: 0x8, addend: 0x0, symName: __RNvMs1_NtNtCsaNl6UpbT7bw_4core3ptr8non_nullINtB5_7NonNullNtCs7yrEGia95Wz_10proc_macro9TokenTreeE20offset_from_unsignedCsdkmdlIU590d_5paste, symObjAddr: 0x1BE0, symBinAddr: 0x6DFC, symSize: 0x7C }
  - { offset: 0xD79F, size: 0x8, addend: 0x0, symName: __RNvMs1_NtNtCsaNl6UpbT7bw_4core3ptr8non_nullINtB5_7NonNullNtNtCsdkmdlIU590d_5paste7segment7SegmentE20offset_from_unsignedBX_, symObjAddr: 0x1C5C, symBinAddr: 0x6E78, symSize: 0x7C }
  - { offset: 0xD88B, size: 0x8, addend: 0x0, symName: __RNvMs1_NtNtCsaNl6UpbT7bw_4core3ptr8non_nullINtB5_7NonNullNtNtCsiTraAjBDcu4_5alloc6string6StringE20offset_from_unsignedCsdkmdlIU590d_5paste, symObjAddr: 0x1CD8, symBinAddr: 0x6EF4, symSize: 0x7C }
  - { offset: 0xD991, size: 0x8, addend: 0x0, symName: __RNvMs1_NtNtCsaNl6UpbT7bw_4core3ptr8non_nullINtB5_7NonNullcE20offset_from_unsignedCsdkmdlIU590d_5paste, symObjAddr: 0x1D54, symBinAddr: 0x6F70, symSize: 0x7C }
  - { offset: 0xDA8A, size: 0x8, addend: 0x0, symName: __RNvMs1_NtNtCsaNl6UpbT7bw_4core3ptr8non_nullINtB5_7NonNullhE20offset_from_unsignedCsdkmdlIU590d_5paste, symObjAddr: 0x1DD0, symBinAddr: 0x6FEC, symSize: 0x7C }
  - { offset: 0xDBC2, size: 0x8, addend: 0x0, symName: __RNvMs_NtCsaNl6UpbT7bw_4core6escapeINtB4_15EscapeIterInnerKja_NtB4_13AlwaysEscapedE4nextCsdkmdlIU590d_5paste, symObjAddr: 0x1E4C, symBinAddr: 0x7068, symSize: 0x164 }
  - { offset: 0xDDA6, size: 0x8, addend: 0x0, symName: __RNvMs_NtNtCsiTraAjBDcu4_5alloc3vec9into_iterINtB4_8IntoIterNtNtCsdkmdlIU590d_5paste7segment7SegmentE8as_sliceBZ_, symObjAddr: 0x1FB0, symBinAddr: 0x71CC, symSize: 0x70 }
  - { offset: 0xE9C0, size: 0x8, addend: 0x0, symName: __RINvMs2_NtNtCsht3nMU9UgFu_3std6thread5localINtB6_8LocalKeyINtNtCsaNl6UpbT7bw_4core4cell4CellPuEE4withNCNvMs3_B6_BF_7replace0B1s_ECsdkmdlIU590d_5paste, symObjAddr: 0x0, symBinAddr: 0x812C, symSize: 0x54 }
  - { offset: 0xEB86, size: 0x8, addend: 0x0, symName: __RNvXs5_NtNtCs7yrEGia95Wz_10proc_macro6bridge6bufferNtB5_6BufferNtNtNtCsaNl6UpbT7bw_4core3ops4drop4Drop4dropCsdkmdlIU590d_5paste, symObjAddr: 0x16EC, symBinAddr: 0x9818, symSize: 0x8C }
  - { offset: 0xF000, size: 0x8, addend: 0x0, symName: __RNvXsV_NtCs7yrEGia95Wz_10proc_macro6bridgeINtNtCsaNl6UpbT7bw_4core6result6ResultINtNtBJ_6option6OptionNtNtB5_6client11TokenStreamEuEINtNtB5_3rpc6EncodeuE6encodeCsdkmdlIU590d_5paste, symObjAddr: 0x1B38, symBinAddr: 0x9C64, symSize: 0x110 }
  - { offset: 0xF0C4, size: 0x8, addend: 0x0, symName: __RNvXsV_NtCs7yrEGia95Wz_10proc_macro6bridgeINtNtCsaNl6UpbT7bw_4core6result6ResultuNtNtB5_3rpc12PanicMessageEINtB1j_6EncodeuE6encodeCsdkmdlIU590d_5paste, symObjAddr: 0x1C48, symBinAddr: 0x9D74, symSize: 0x12C }
  - { offset: 0xF490, size: 0x8, addend: 0x0, symName: __RNvMsA_NtCsaNl6UpbT7bw_4core3numm14from_str_radixCsdkmdlIU590d_5paste, symObjAddr: 0xA7C, symBinAddr: 0x8BA8, symSize: 0x3C }
  - { offset: 0xF4CD, size: 0x8, addend: 0x0, symName: __RNvMsA_NtCsaNl6UpbT7bw_4core3numm16from_ascii_radixCsdkmdlIU590d_5paste, symObjAddr: 0xAB8, symBinAddr: 0x8BE4, symSize: 0x594 }
  - { offset: 0xF847, size: 0x8, addend: 0x0, symName: __RNvNvMs4_NtCsaNl6UpbT7bw_4core3numh13unchecked_add18precondition_checkCsdkmdlIU590d_5paste, symObjAddr: 0x104C, symBinAddr: 0x9178, symSize: 0xB4 }
  - { offset: 0xF90B, size: 0x8, addend: 0x0, symName: __RNvNvMs9_NtCsaNl6UpbT7bw_4core3numj13unchecked_add18precondition_checkCsdkmdlIU590d_5paste, symObjAddr: 0x1100, symBinAddr: 0x922C, symSize: 0xB0 }
  - { offset: 0xF99F, size: 0x8, addend: 0x0, symName: __RNvNvMs9_NtCsaNl6UpbT7bw_4core3numj13unchecked_sub18precondition_checkCsdkmdlIU590d_5paste, symObjAddr: 0x11B0, symBinAddr: 0x92DC, symSize: 0xAC }
  - { offset: 0x10B8B, size: 0x8, addend: 0x0, symName: __RNvXsq_NtCsaNl6UpbT7bw_4core6resultINtB5_6ResultINtNtCsiTraAjBDcu4_5alloc3vec3VecNtNtCsdkmdlIU590d_5paste7segment7SegmentENtNtB1l_5error5ErrorEINtNtNtB7_3ops9try_trait12FromResidualIBy_NtNtB7_7convert10InfallibleB1W_EE13from_residualB1l_, symObjAddr: 0x1FAC, symBinAddr: 0xA0D8, symSize: 0x3C }
  - { offset: 0x10C10, size: 0x8, addend: 0x0, symName: __RNvXsq_NtCsaNl6UpbT7bw_4core6resultINtB5_6ResultNtCs7yrEGia95Wz_10proc_macro11TokenStreamNtNtCsdkmdlIU590d_5paste5error5ErrorEINtNtNtB7_3ops9try_trait12FromResidualIBy_NtNtB7_7convert10InfallibleB1p_EE13from_residualB1t_, symObjAddr: 0x1FE8, symBinAddr: 0xA114, symSize: 0x3C }
  - { offset: 0x10DDC, size: 0x8, addend: 0x0, symName: __RNvXsp_NtCsaNl6UpbT7bw_4core6resultINtB5_6ResultINtNtCsiTraAjBDcu4_5alloc3vec3VecNtNtCsdkmdlIU590d_5paste7segment7SegmentENtNtB1l_5error5ErrorENtNtNtB7_3ops9try_trait3Try6branchB1l_, symObjAddr: 0x1DEC, symBinAddr: 0x9F18, symSize: 0x9C }
  - { offset: 0x10E59, size: 0x8, addend: 0x0, symName: __RNvXsp_NtCsaNl6UpbT7bw_4core6resultINtB5_6ResultNtCs7yrEGia95Wz_10proc_macro11TokenStreamNtNtCsdkmdlIU590d_5paste5error5ErrorENtNtNtB7_3ops9try_trait3Try6branchB1t_, symObjAddr: 0x1E88, symBinAddr: 0x9FB4, symSize: 0x88 }
  - { offset: 0x10ED7, size: 0x8, addend: 0x0, symName: __RNvXsp_NtCsaNl6UpbT7bw_4core6resultINtB5_6ResultNtNtCsiTraAjBDcu4_5alloc6string6StringNtNtCsdkmdlIU590d_5paste5error5ErrorENtNtNtB7_3ops9try_trait3Try6branchB1q_, symObjAddr: 0x1F10, symBinAddr: 0xA03C, symSize: 0x9C }
  - { offset: 0x11E02, size: 0x8, addend: 0x0, symName: __RNvNvNtNtCsaNl6UpbT7bw_4core5slice3raw14from_raw_parts18precondition_checkCsdkmdlIU590d_5paste, symObjAddr: 0x1334, symBinAddr: 0x9460, symSize: 0x1DC }
  - { offset: 0x11F86, size: 0x8, addend: 0x0, symName: __RNvNvNtNtCsaNl6UpbT7bw_4core5slice3raw18from_raw_parts_mut18precondition_checkCsdkmdlIU590d_5paste, symObjAddr: 0x1510, symBinAddr: 0x963C, symSize: 0x1DC }
  - { offset: 0x122B0, size: 0x8, addend: 0x0, symName: __RINvXs1_NtNtNtCsaNl6UpbT7bw_4core4iter8adapters7inspectINtB6_7InspectNtNtCs7yrEGia95Wz_10proc_macro12token_stream8IntoIterNCNvNtCsdkmdlIU590d_5paste4attr11expand_attr0ENtNtNtBa_6traits8iterator8Iterator8try_folduNCINvNvB2G_3all5checkNtB19_9TokenTreeNCB1Y_s_0E0INtNtNtBc_3ops12control_flow11ControlFlowuEEB22_, symObjAddr: 0x580, symBinAddr: 0x86AC, symSize: 0x30 }
  - { offset: 0x1232B, size: 0x8, addend: 0x0, symName: __RNCINvNtNtNtCsaNl6UpbT7bw_4core4iter8adapters7inspect16inspect_try_foldNtCs7yrEGia95Wz_10proc_macro9TokenTreeuINtNtNtBa_3ops12control_flow11ControlFlowuENCNvNtCsdkmdlIU590d_5paste4attr11expand_attr0NCINvNvNtNtNtB8_6traits8iterator8Iterator3all5checkB17_NCB2t_s_0E0E0B2x_, symObjAddr: 0x5EC, symBinAddr: 0x8718, symSize: 0xCC }
  - { offset: 0x1242A, size: 0x8, addend: 0x0, symName: __RINvYINtNtNtNtCsaNl6UpbT7bw_4core4iter8adapters7inspect7InspectNtNtCs7yrEGia95Wz_10proc_macro12token_stream8IntoIterNCNvNtCsdkmdlIU590d_5paste4attr11expand_attr0ENtNtNtBa_6traits8iterator8Iterator3allNCB1S_s_0EB1W_, symObjAddr: 0x5B0, symBinAddr: 0x86DC, symSize: 0x3C }
  - { offset: 0x12521, size: 0x8, addend: 0x0, symName: __RNvNvNtCsaNl6UpbT7bw_4core9ub_checks23maybe_is_nonoverlapping7runtimeCsdkmdlIU590d_5paste, symObjAddr: 0x125C, symBinAddr: 0x9388, symSize: 0xD8 }
  - { offset: 0x128FA, size: 0x8, addend: 0x0, symName: __RNvXsd_NtCsaNl6UpbT7bw_4core5arrayAcj2_INtNtNtB7_3ops5index5IndexNtNtBG_5range9RangeFullE5indexCsdkmdlIU590d_5paste, symObjAddr: 0x1D74, symBinAddr: 0x9EA0, symSize: 0x3C }
  - { offset: 0x12967, size: 0x8, addend: 0x0, symName: __RNvXsd_NtCsaNl6UpbT7bw_4core5arrayAcj4_INtNtNtB7_3ops5index5IndexNtNtBG_5range9RangeFullE5indexCsdkmdlIU590d_5paste, symObjAddr: 0x1DB0, symBinAddr: 0x9EDC, symSize: 0x3C }
  - { offset: 0x12BF1, size: 0x8, addend: 0x0, symName: __RNCNvMs3_NtNtCsht3nMU9UgFu_3std6thread5localINtB7_8LocalKeyINtNtCsaNl6UpbT7bw_4core4cell4CellPuEE7replace0CsdkmdlIU590d_5paste, symObjAddr: 0x6B8, symBinAddr: 0x87E4, symSize: 0x28 }
  - { offset: 0x12D9A, size: 0x8, addend: 0x0, symName: __RINvNtCsht3nMU9UgFu_3std5panic12catch_unwindNCNvCsdkmdlIU590d_5paste16pasted_to_tokenss0_0NtCs7yrEGia95Wz_10proc_macro5IdentEBK_, symObjAddr: 0x410, symBinAddr: 0x853C, symSize: 0xCC }
  - { offset: 0x12E42, size: 0x8, addend: 0x0, symName: __RINvNtCsht3nMU9UgFu_3std5panic12catch_unwindNCNvCsdkmdlIU590d_5paste16pasted_to_tokenss_0INtNtCsaNl6UpbT7bw_4core6result6ResultNtCs7yrEGia95Wz_10proc_macro7LiteralNtB23_8LexErrorEEBK_, symObjAddr: 0x4DC, symBinAddr: 0x8608, symSize: 0xA4 }
  - { offset: 0x12F2B, size: 0x8, addend: 0x0, symName: __RINvMs2_NtNtCsht3nMU9UgFu_3std6thread5localINtB6_8LocalKeyINtNtCsaNl6UpbT7bw_4core4cell4CellPuEE4withNCNvMs3_B6_BF_7replace0B1s_ECsdkmdlIU590d_5paste, symObjAddr: 0x0, symBinAddr: 0x812C, symSize: 0x54 }
  - { offset: 0x12FE4, size: 0x8, addend: 0x0, symName: __RINvMs2_NtNtCsht3nMU9UgFu_3std6thread5localINtB6_8LocalKeyINtNtCsaNl6UpbT7bw_4core4cell4CellPuEE8try_withNCNvMs3_B6_BF_7replace0B1s_ECsdkmdlIU590d_5paste, symObjAddr: 0x54, symBinAddr: 0x8180, symSize: 0xE4 }
  - { offset: 0x131CB, size: 0x8, addend: 0x0, symName: __RINvMs3_NtNtCs7yrEGia95Wz_10proc_macro6bridge6bufferNtB6_6Buffer17extend_from_arrayKj4_ECsdkmdlIU590d_5paste, symObjAddr: 0x138, symBinAddr: 0x8264, symSize: 0x16C }
  - { offset: 0x13353, size: 0x8, addend: 0x0, symName: __RINvMs3_NtNtCs7yrEGia95Wz_10proc_macro6bridge6bufferNtB6_6Buffer17extend_from_arrayKj8_ECsdkmdlIU590d_5paste, symObjAddr: 0x2A4, symBinAddr: 0x83D0, symSize: 0x16C }
  - { offset: 0x1353E, size: 0x8, addend: 0x0, symName: __RNvNtCsdkmdlIU590d_5paste4attr11expand_attr, symObjAddr: 0x2024, symBinAddr: 0xA150, symSize: 0x1014 }
  - { offset: 0x137A1, size: 0x8, addend: 0x0, symName: __RNCNvNtCsdkmdlIU590d_5paste4attr11expand_attr0B5_, symObjAddr: 0x3038, symBinAddr: 0xB164, symSize: 0x70 }
  - { offset: 0x137D6, size: 0x8, addend: 0x0, symName: __RNCNvNtCsdkmdlIU590d_5paste4attr11expand_attrs_0B5_, symObjAddr: 0x30A8, symBinAddr: 0xB1D4, symSize: 0x78 }
  - { offset: 0x13828, size: 0x8, addend: 0x0, symName: __RNvNtCsdkmdlIU590d_5paste4attr24do_paste_name_value_attr, symObjAddr: 0x3120, symBinAddr: 0xB24C, symSize: 0x920 }
  - { offset: 0x13A8E, size: 0x8, addend: 0x0, symName: __RNvNtCsdkmdlIU590d_5paste4attr13is_stringlike, symObjAddr: 0x3A40, symBinAddr: 0xBB6C, symSize: 0x440 }
  - { offset: 0x13DE3, size: 0x8, addend: 0x0, symName: __RNvXs6_NtCsiTraAjBDcu4_5alloc5boxedINtB5_3BoxANtCs7yrEGia95Wz_10proc_macro9TokenTreej1_ENtNtNtCsaNl6UpbT7bw_4core3ops4drop4Drop4dropCsdkmdlIU590d_5paste, symObjAddr: 0x1778, symBinAddr: 0x98A4, symSize: 0xB8 }
  - { offset: 0x13F1A, size: 0x8, addend: 0x0, symName: __RNvXs6_NtCsiTraAjBDcu4_5alloc5boxedINtB5_3BoxANtCs7yrEGia95Wz_10proc_macro9TokenTreej3_ENtNtNtCsaNl6UpbT7bw_4core3ops4drop4Drop4dropCsdkmdlIU590d_5paste, symObjAddr: 0x1830, symBinAddr: 0x995C, symSize: 0xB8 }
  - { offset: 0x14051, size: 0x8, addend: 0x0, symName: __RNvXs6_NtCsiTraAjBDcu4_5alloc5boxedINtB5_3BoxDNtNtCsaNl6UpbT7bw_4core3any3AnyNtNtBM_6marker4SendEL_ENtNtNtBM_3ops4drop4Drop4dropCsdkmdlIU590d_5paste, symObjAddr: 0x18E8, symBinAddr: 0x9A14, symSize: 0xCC }
  - { offset: 0x14188, size: 0x8, addend: 0x0, symName: __RNvXs6_NtCsiTraAjBDcu4_5alloc5boxedINtB5_3BoxDNtNtCsaNl6UpbT7bw_4core5error5ErrorNtNtBM_6marker4SyncNtB1j_4SendEL_ENtNtNtBM_3ops4drop4Drop4dropCsdkmdlIU590d_5paste, symObjAddr: 0x19B4, symBinAddr: 0x9AE0, symSize: 0xCC }
  - { offset: 0x142BF, size: 0x8, addend: 0x0, symName: __RNvXs6_NtCsiTraAjBDcu4_5alloc5boxedINtB5_3BoxNtNtNtCsht3nMU9UgFu_3std2io5error6CustomENtNtNtCsaNl6UpbT7bw_4core3ops4drop4Drop4dropCsdkmdlIU590d_5paste, symObjAddr: 0x1A80, symBinAddr: 0x9BAC, symSize: 0xB8 }
  - { offset: 0x144CB, size: 0x8, addend: 0x0, symName: __RNvMNtCsaNl6UpbT7bw_4core6resultINtB2_6ResulthNtNtNtB4_3num5error15TryFromIntErrorE6expectCsdkmdlIU590d_5paste, symObjAddr: 0x6E0, symBinAddr: 0x880C, symSize: 0x84 }
  - { offset: 0x1452D, size: 0x8, addend: 0x0, symName: __RNvMNtCsaNl6UpbT7bw_4core6resultINtB2_6ResultuNtNtB4_3fmt5ErrorE6expectCsdkmdlIU590d_5paste, symObjAddr: 0x764, symBinAddr: 0x8890, symSize: 0x80 }
  - { offset: 0x145A1, size: 0x8, addend: 0x0, symName: __RNvMs3_NtNtCs7yrEGia95Wz_10proc_macro6bridge6bufferNtB5_6Buffer17extend_from_sliceCsdkmdlIU590d_5paste, symObjAddr: 0x7E4, symBinAddr: 0x8910, symSize: 0x164 }
  - { offset: 0x1471F, size: 0x8, addend: 0x0, symName: __RNvMs3_NtNtCs7yrEGia95Wz_10proc_macro6bridge6bufferNtB5_6Buffer4pushCsdkmdlIU590d_5paste, symObjAddr: 0x948, symBinAddr: 0x8A74, symSize: 0x134 }
  - { offset: 0x14FE0, size: 0x8, addend: 0x0, symName: __RINvNtNtCs7yrEGia95Wz_10proc_macro6bridge6client10run_clientNtB2_11TokenStreamINtNtCsaNl6UpbT7bw_4core6option6OptionBW_ENCNCINvMs6_B2_INtB2_6ClientNtB6_11TokenStreamB2l_E7expand1NvCsdkmdlIU590d_5paste4exprE00EB2S_, symObjAddr: 0x0, symBinAddr: 0xC000, symSize: 0x21C }
  - { offset: 0x1631A, size: 0x8, addend: 0x0, symName: __RNCINvNtNtNtCsaNl6UpbT7bw_4core4iter8adapters3map8map_foldRhhuNCNvNtCsiTraAjBDcu4_5alloc3str13replace_ascii0NCINvNvNtNtNtB8_6traits8iterator8Iterator8for_each4callhNCINvMsi_NtB14_3vecINtB2L_3VechE14extend_trustedINtB4_3MapINtNtNtBa_5slice4iter4IterhEBY_EE0E0E0CsdkmdlIU590d_5paste, symObjAddr: 0x1144, symBinAddr: 0xD144, symSize: 0x7C }
  - { offset: 0x163A5, size: 0x8, addend: 0x0, symName: __RINvXs0_NtNtNtCsaNl6UpbT7bw_4core4iter8adapters3mapINtB6_3MapINtNtNtBc_5slice4iter4IterhENCNvNtCsiTraAjBDcu4_5alloc3str13replace_ascii0ENtNtNtBa_6traits8iterator8Iterator4folduNCINvNvB2a_8for_each4callhNCINvMsi_NtB1v_3vecINtB3n_3VechE14extend_trustedBN_E0E0ECsdkmdlIU590d_5paste, symObjAddr: 0x654, symBinAddr: 0xC654, symSize: 0x58 }
  - { offset: 0x1643E, size: 0x8, addend: 0x0, symName: __RNvXs0_NtNtNtCsaNl6UpbT7bw_4core4iter8adapters3mapINtB5_3MapINtNtNtBb_5slice4iter4IterhENCNvNtCsiTraAjBDcu4_5alloc3str13replace_ascii0ENtNtNtB9_6traits8iterator8Iterator9size_hintCsdkmdlIU590d_5paste, symObjAddr: 0x18EC, symBinAddr: 0xD8EC, symSize: 0x24 }
  - { offset: 0x16549, size: 0x8, addend: 0x0, symName: __RINvYINtNtNtNtCsaNl6UpbT7bw_4core4iter8adapters3map3MapINtNtNtBc_5slice4iter4IterhENCNvNtCsiTraAjBDcu4_5alloc3str13replace_ascii0ENtNtNtBa_6traits8iterator8Iterator7collectINtNtB1p_3vec3VechEECsdkmdlIU590d_5paste, symObjAddr: 0x6AC, symBinAddr: 0xC6AC, symSize: 0x68 }
  - { offset: 0x165DF, size: 0x8, addend: 0x0, symName: __RINvYINtNtNtNtCsaNl6UpbT7bw_4core4iter8adapters3map3MapINtNtNtBc_5slice4iter4IterhENCNvNtCsiTraAjBDcu4_5alloc3str13replace_ascii0ENtNtNtBa_6traits8iterator8Iterator8for_eachNCINvMsi_NtB1p_3vecINtB2U_3VechE14extend_trustedB3_E0ECsdkmdlIU590d_5paste, symObjAddr: 0x714, symBinAddr: 0xC714, symSize: 0x34 }
  - { offset: 0x16684, size: 0x8, addend: 0x0, symName: __RNvXNtNtNtCsaNl6UpbT7bw_4core4iter6traits7collectINtNtNtB6_8adapters3map3MapINtNtNtB8_5slice4iter4IterhENCNvNtCsiTraAjBDcu4_5alloc3str13replace_ascii0ENtB2_12IntoIterator9into_iterCsdkmdlIU590d_5paste, symObjAddr: 0x18D8, symBinAddr: 0xD8D8, symSize: 0x14 }
  - { offset: 0x16918, size: 0x8, addend: 0x0, symName: __RNCNvXsL_NtNtCsaNl6UpbT7bw_4core5slice3cmpcNtB7_13SliceContains14slice_contains0CsdkmdlIU590d_5paste, symObjAddr: 0x12C8, symBinAddr: 0xD2C8, symSize: 0x38 }
  - { offset: 0x16967, size: 0x8, addend: 0x0, symName: __RNCNvXsL_NtNtCsaNl6UpbT7bw_4core5slice3cmpcNtB7_13SliceContains14slice_containss_0CsdkmdlIU590d_5paste, symObjAddr: 0x1300, symBinAddr: 0xD300, symSize: 0x30 }
  - { offset: 0x169A8, size: 0x8, addend: 0x0, symName: __RNvXsL_NtNtCsaNl6UpbT7bw_4core5slice3cmpcNtB5_13SliceContains14slice_containsCsdkmdlIU590d_5paste, symObjAddr: 0x1A3C, symBinAddr: 0xDA3C, symSize: 0x158 }
  - { offset: 0x16C6B, size: 0x8, addend: 0x0, symName: __RNvNvXs0_NtNtCsaNl6UpbT7bw_4core5slice5indexjINtB7_10SliceIndexSpE13get_unchecked18precondition_checkCsdkmdlIU590d_5paste, symObjAddr: 0x16B4, symBinAddr: 0xD6B4, symSize: 0xAC }
  - { offset: 0x16CDF, size: 0x8, addend: 0x0, symName: __RNvNvXs1_NtNtCsaNl6UpbT7bw_4core5slice5indexNtNtNtBb_3ops11index_range10IndexRangeINtB7_10SliceIndexSpE17get_unchecked_mut18precondition_checkCsdkmdlIU590d_5paste, symObjAddr: 0x1760, symBinAddr: 0xD760, symSize: 0xAC }
  - { offset: 0x16D53, size: 0x8, addend: 0x0, symName: __RNvNvXs2_NtNtCsaNl6UpbT7bw_4core5slice5indexINtNtNtBb_3ops5range5RangejEINtB7_10SliceIndexSpE13get_unchecked18precondition_checkCsdkmdlIU590d_5paste, symObjAddr: 0x180C, symBinAddr: 0xD80C, symSize: 0xCC }
  - { offset: 0x16ED3, size: 0x8, addend: 0x0, symName: __RNvXs_NtNtCsaNl6UpbT7bw_4core5slice4iterRSNtNtCsdkmdlIU590d_5paste7segment7SegmentNtNtNtNtB8_4iter6traits7collect12IntoIterator9into_iterBI_, symObjAddr: 0x1B94, symBinAddr: 0xDB94, symSize: 0x58 }
  - { offset: 0x171A3, size: 0x8, addend: 0x0, symName: __RNvNvMNtNtCsaNl6UpbT7bw_4core5alloc6layoutNtB4_6Layout25from_size_align_unchecked18precondition_checkCsdkmdlIU590d_5paste, symObjAddr: 0x14D0, symBinAddr: 0xD4D0, symSize: 0xBC }
  - { offset: 0x17231, size: 0x8, addend: 0x0, symName: __RNvNvNtCsaNl6UpbT7bw_4core4hint16assert_unchecked18precondition_checkCsdkmdlIU590d_5paste, symObjAddr: 0x158C, symBinAddr: 0xD58C, symSize: 0xA4 }
  - { offset: 0x17291, size: 0x8, addend: 0x0, symName: __RNvNvNtCsaNl6UpbT7bw_4core4hint21unreachable_unchecked18precondition_checkCsdkmdlIU590d_5paste, symObjAddr: 0x1630, symBinAddr: 0xD630, symSize: 0x84 }
  - { offset: 0x175B9, size: 0x8, addend: 0x0, symName: __RNCINvNtNtCs7yrEGia95Wz_10proc_macro6bridge6client10run_clientNtB4_11TokenStreamINtNtCsaNl6UpbT7bw_4core6option6OptionBY_ENCNCINvMs6_B4_INtB4_6ClientNtB8_11TokenStreamB2n_E7expand1NvCsdkmdlIU590d_5paste4exprE00E0B2U_, symObjAddr: 0x7D8, symBinAddr: 0xC7D8, symSize: 0x324 }
  - { offset: 0x177DE, size: 0x8, addend: 0x0, symName: __RNCINvNtNtCs7yrEGia95Wz_10proc_macro6bridge6client10run_clientNtB4_11TokenStreamINtNtCsaNl6UpbT7bw_4core6option6OptionBY_ENCNCINvMs6_B4_INtB4_6ClientNtB8_11TokenStreamB2n_E7expand1NvCsdkmdlIU590d_5paste4itemE00E0B2U_, symObjAddr: 0xAFC, symBinAddr: 0xCAFC, symSize: 0x324 }
  - { offset: 0x17A03, size: 0x8, addend: 0x0, symName: __RNCINvNtNtCs7yrEGia95Wz_10proc_macro6bridge6client10run_clientNtB4_11TokenStreamINtNtCsaNl6UpbT7bw_4core6option6OptionBY_ENCNCINvMs6_B4_INtB4_6ClientNtB8_11TokenStreamB2n_E7expand1NvCsdkmdlIU590d_5paste5pasteE00E0B2U_, symObjAddr: 0xE20, symBinAddr: 0xCE20, symSize: 0x324 }
  - { offset: 0x17C2D, size: 0x8, addend: 0x0, symName: __RNCNCINvNtNtCs7yrEGia95Wz_10proc_macro6bridge6client10run_clientNtB6_11TokenStreamINtNtCsaNl6UpbT7bw_4core6option6OptionB10_ENCNCINvMs6_B6_INtB6_6ClientNtBa_11TokenStreamB2q_E7expand1NvCsdkmdlIU590d_5paste4exprE00E00B2X_, symObjAddr: 0x1250, symBinAddr: 0xD250, symSize: 0x28 }
  - { offset: 0x17C87, size: 0x8, addend: 0x0, symName: __RNCNCINvNtNtCs7yrEGia95Wz_10proc_macro6bridge6client10run_clientNtB6_11TokenStreamINtNtCsaNl6UpbT7bw_4core6option6OptionB10_ENCNCINvMs6_B6_INtB6_6ClientNtBa_11TokenStreamB2q_E7expand1NvCsdkmdlIU590d_5paste4itemE00E00B2X_, symObjAddr: 0x1278, symBinAddr: 0xD278, symSize: 0x28 }
  - { offset: 0x17CE1, size: 0x8, addend: 0x0, symName: __RNCNCINvNtNtCs7yrEGia95Wz_10proc_macro6bridge6client10run_clientNtB6_11TokenStreamINtNtCsaNl6UpbT7bw_4core6option6OptionB10_ENCNCINvMs6_B6_INtB6_6ClientNtBa_11TokenStreamB2q_E7expand1NvCsdkmdlIU590d_5paste5pasteE00E00B2X_, symObjAddr: 0x12A0, symBinAddr: 0xD2A0, symSize: 0x28 }
  - { offset: 0x17D85, size: 0x8, addend: 0x0, symName: __RNCNCINvMs6_NtNtCs7yrEGia95Wz_10proc_macro6bridge6clientINtBa_6ClientNtBe_11TokenStreamB15_E7expand1NvCsdkmdlIU590d_5paste4exprE00B1C_, symObjAddr: 0x11C0, symBinAddr: 0xD1C0, symSize: 0x30 }
  - { offset: 0x17DCD, size: 0x8, addend: 0x0, symName: __RNCNCINvMs6_NtNtCs7yrEGia95Wz_10proc_macro6bridge6clientINtBa_6ClientNtBe_11TokenStreamB15_E7expand1NvCsdkmdlIU590d_5paste4itemE00B1C_, symObjAddr: 0x11F0, symBinAddr: 0xD1F0, symSize: 0x30 }
  - { offset: 0x17E15, size: 0x8, addend: 0x0, symName: __RNCNCINvMs6_NtNtCs7yrEGia95Wz_10proc_macro6bridge6clientINtBa_6ClientNtBe_11TokenStreamB15_E7expand1NvCsdkmdlIU590d_5paste5pasteE00B1C_, symObjAddr: 0x1220, symBinAddr: 0xD220, symSize: 0x30 }
  - { offset: 0x17E5E, size: 0x8, addend: 0x0, symName: __RNCINvMs6_NtNtCs7yrEGia95Wz_10proc_macro6bridge6clientINtB8_6ClientNtBc_11TokenStreamB13_E7expand1NvCsdkmdlIU590d_5paste4exprE0B1A_, symObjAddr: 0x748, symBinAddr: 0xC748, symSize: 0x30 }
  - { offset: 0x17EA7, size: 0x8, addend: 0x0, symName: __RNCINvMs6_NtNtCs7yrEGia95Wz_10proc_macro6bridge6clientINtB8_6ClientNtBc_11TokenStreamB13_E7expand1NvCsdkmdlIU590d_5paste4itemE0B1A_, symObjAddr: 0x778, symBinAddr: 0xC778, symSize: 0x30 }
  - { offset: 0x17EF0, size: 0x8, addend: 0x0, symName: __RNCINvMs6_NtNtCs7yrEGia95Wz_10proc_macro6bridge6clientINtB8_6ClientNtBc_11TokenStreamB13_E7expand1NvCsdkmdlIU590d_5paste5pasteE0B1A_, symObjAddr: 0x7A8, symBinAddr: 0xC7A8, symSize: 0x30 }
  - { offset: 0x17F5C, size: 0x8, addend: 0x0, symName: __RINvNtNtCs7yrEGia95Wz_10proc_macro6bridge6client10run_clientNtB2_11TokenStreamINtNtCsaNl6UpbT7bw_4core6option6OptionBW_ENCNCINvMs6_B2_INtB2_6ClientNtB6_11TokenStreamB2l_E7expand1NvCsdkmdlIU590d_5paste4exprE00EB2S_, symObjAddr: 0x0, symBinAddr: 0xC000, symSize: 0x21C }
  - { offset: 0x18131, size: 0x8, addend: 0x0, symName: __RINvNtNtCs7yrEGia95Wz_10proc_macro6bridge6client10run_clientNtB2_11TokenStreamINtNtCsaNl6UpbT7bw_4core6option6OptionBW_ENCNCINvMs6_B2_INtB2_6ClientNtB6_11TokenStreamB2l_E7expand1NvCsdkmdlIU590d_5paste4itemE00EB2S_, symObjAddr: 0x21C, symBinAddr: 0xC21C, symSize: 0x21C }
  - { offset: 0x18306, size: 0x8, addend: 0x0, symName: __RINvNtNtCs7yrEGia95Wz_10proc_macro6bridge6client10run_clientNtB2_11TokenStreamINtNtCsaNl6UpbT7bw_4core6option6OptionBW_ENCNCINvMs6_B2_INtB2_6ClientNtB6_11TokenStreamB2l_E7expand1NvCsdkmdlIU590d_5paste5pasteE00EB2S_, symObjAddr: 0x438, symBinAddr: 0xC438, symSize: 0x21C }
  - { offset: 0x1852E, size: 0x8, addend: 0x0, symName: __RNvXsf_NtNtCs7yrEGia95Wz_10proc_macro6bridge6clientNtB5_11TokenStreamINtNtB7_3rpc6EncodeuE6encodeCsdkmdlIU590d_5paste, symObjAddr: 0x1C0C, symBinAddr: 0xDC0C, symSize: 0x50 }
  - { offset: 0x1863F, size: 0x8, addend: 0x0, symName: __RNvXsi_NtNtCs7yrEGia95Wz_10proc_macro6bridge6clientNtB5_11TokenStreamINtNtB7_3rpc9DecodeMutuE6decodeCsdkmdlIU590d_5paste, symObjAddr: 0x1C5C, symBinAddr: 0xDC5C, symSize: 0x2C }
  - { offset: 0x18688, size: 0x8, addend: 0x0, symName: __RNvXsk_NtNtCs7yrEGia95Wz_10proc_macro6bridge6clientNtB5_4SpanINtNtB7_3rpc9DecodeMutuE6decodeCsdkmdlIU590d_5paste, symObjAddr: 0x1C88, symBinAddr: 0xDC88, symSize: 0x2C }
  - { offset: 0x186D1, size: 0x8, addend: 0x0, symName: __RNvXsm_NtNtCs7yrEGia95Wz_10proc_macro6bridge6clientNtB5_4SpanNtNtCsaNl6UpbT7bw_4core5clone5Clone5cloneCsdkmdlIU590d_5paste, symObjAddr: 0x1CB4, symBinAddr: 0xDCB4, symSize: 0x18 }
  - { offset: 0x1890C, size: 0x8, addend: 0x0, symName: __RNvXs7_NtNtCs7yrEGia95Wz_10proc_macro6bridge3rpcINtNtNtCsaNl6UpbT7bw_4core3num7nonzero7NonZeromEINtB5_9DecodeMutuE6decodeCsdkmdlIU590d_5paste, symObjAddr: 0x19E0, symBinAddr: 0xD9E0, symSize: 0x5C }
  - { offset: 0x1939B, size: 0x8, addend: 0x0, symName: __RNvXs_NtNtCsiTraAjBDcu4_5alloc3vec15set_len_on_dropNtB4_12SetLenOnDropNtNtNtCsaNl6UpbT7bw_4core3ops4drop4Drop4dropCsdkmdlIU590d_5paste, symObjAddr: 0x1BEC, symBinAddr: 0xDBEC, symSize: 0x20 }
  - { offset: 0x19617, size: 0x8, addend: 0x0, symName: __RNvXs1_NtCsiTraAjBDcu4_5alloc7raw_vecINtB5_6RawVecINtNtCs7yrEGia95Wz_10proc_macro6bridge9TokenTreeNtNtBP_6client11TokenStreamNtB1A_4SpanNtNtBP_6symbol6SymbolEENtNtNtCsaNl6UpbT7bw_4core3ops4drop4Drop4dropCsdkmdlIU590d_5paste, symObjAddr: 0x1910, symBinAddr: 0xD910, symSize: 0x34 }
  - { offset: 0x19653, size: 0x8, addend: 0x0, symName: __RNvXs1_NtCsiTraAjBDcu4_5alloc7raw_vecINtB5_6RawVecNtCs7yrEGia95Wz_10proc_macro9TokenTreeENtNtNtCsaNl6UpbT7bw_4core3ops4drop4Drop4dropCsdkmdlIU590d_5paste, symObjAddr: 0x1944, symBinAddr: 0xD944, symSize: 0x34 }
  - { offset: 0x1968F, size: 0x8, addend: 0x0, symName: __RNvXs1_NtCsiTraAjBDcu4_5alloc7raw_vecINtB5_6RawVecNtNtB7_6string6StringENtNtNtCsaNl6UpbT7bw_4core3ops4drop4Drop4dropCsdkmdlIU590d_5paste, symObjAddr: 0x1978, symBinAddr: 0xD978, symSize: 0x34 }
  - { offset: 0x196CB, size: 0x8, addend: 0x0, symName: __RNvXs1_NtCsiTraAjBDcu4_5alloc7raw_vecINtB5_6RawVecNtNtCsdkmdlIU590d_5paste7segment7SegmentENtNtNtCsaNl6UpbT7bw_4core3ops4drop4Drop4dropBQ_, symObjAddr: 0x19AC, symBinAddr: 0xD9AC, symSize: 0x34 }
  - { offset: 0x19EFE, size: 0x8, addend: 0x0, symName: __RNvNtCsdkmdlIU590d_5paste7segment5parse, symObjAddr: 0x1CCC, symBinAddr: 0xDCCC, symSize: 0x16E0 }
  - { offset: 0x1A22E, size: 0x8, addend: 0x0, symName: __RNvNtCsdkmdlIU590d_5paste7segment5paste, symObjAddr: 0x33AC, symBinAddr: 0xF3AC, symSize: 0xE74 }
  - { offset: 0x1A535, size: 0x8, addend: 0x0, symName: __RNvMs0_NtCsiTraAjBDcu4_5alloc7raw_vecINtB5_6RawVecNtNtCsdkmdlIU590d_5paste7segment7SegmentE8grow_oneBQ_, symObjAddr: 0x1330, symBinAddr: 0xD330, symSize: 0x90 }
  - { offset: 0x1A645, size: 0x8, addend: 0x0, symName: __RNvMs2_NtCsiTraAjBDcu4_5alloc7raw_vecNtB5_11RawVecInner16with_capacity_inCsdkmdlIU590d_5paste, symObjAddr: 0x13C0, symBinAddr: 0xD3C0, symSize: 0x110 }
  - { offset: 0x1AC6F, size: 0x8, addend: 0x0, symName: __RINvMNtCsaNl6UpbT7bw_4core6optionINtB3_6OptionIBw_NtCs7yrEGia95Wz_10proc_macro9TokenTreeEE18get_or_insert_withNCNvMs3_NtNtNtB5_4iter8adapters8peekableINtB1S_8PeekableNtNtBO_12token_stream8IntoIterE4peek0ECsdkmdlIU590d_5paste, symObjAddr: 0x0, symBinAddr: 0x10274, symSize: 0x140 }
  - { offset: 0x1ACCB, size: 0x8, addend: 0x0, symName: __RNvXsw_NtCsiTraAjBDcu4_5alloc6stringNtCs7yrEGia95Wz_10proc_macro5IdentNtB5_8ToString9to_stringCsdkmdlIU590d_5paste, symObjAddr: 0x2D70, symBinAddr: 0x12FE4, symSize: 0x24 }
  - { offset: 0x1AD02, size: 0x8, addend: 0x0, symName: __RNvXsw_NtCsiTraAjBDcu4_5alloc6stringNtCs7yrEGia95Wz_10proc_macro7LiteralNtB5_8ToString9to_stringCsdkmdlIU590d_5paste, symObjAddr: 0x2D94, symBinAddr: 0x13008, symSize: 0x24 }
  - { offset: 0x1AD3F, size: 0x8, addend: 0x0, symName: __RNvXsx_NtCsiTraAjBDcu4_5alloc6stringNtCs7yrEGia95Wz_10proc_macro5IdentNtB5_12SpecToString14spec_to_stringCsdkmdlIU590d_5paste, symObjAddr: 0x2DB8, symBinAddr: 0x1302C, symSize: 0xF4 }
  - { offset: 0x1AE09, size: 0x8, addend: 0x0, symName: __RNvXsx_NtCsiTraAjBDcu4_5alloc6stringNtCs7yrEGia95Wz_10proc_macro7LiteralNtB5_12SpecToString14spec_to_stringCsdkmdlIU590d_5paste, symObjAddr: 0x2EAC, symBinAddr: 0x13120, symSize: 0xF4 }
  - { offset: 0x1B47D, size: 0x8, addend: 0x0, symName: __RINvMNtCsiTraAjBDcu4_5alloc5sliceSNtCs7yrEGia95Wz_10proc_macro9TokenTree8into_vecNtNtB5_5alloc6GlobalECsdkmdlIU590d_5paste, symObjAddr: 0x2B4, symBinAddr: 0x10528, symSize: 0x9C }
  - { offset: 0x1B683, size: 0x8, addend: 0x0, symName: __RINvXs_NvMNtCsiTraAjBDcu4_5alloc5sliceSp9to_vec_inhNtB5_10ConvertVec6to_vecNtNtBa_5alloc6GlobalECsdkmdlIU590d_5paste, symObjAddr: 0x950, symBinAddr: 0x10BC4, symSize: 0xE0 }
  - { offset: 0x1BE29, size: 0x8, addend: 0x0, symName: __RNvNvNtCsaNl6UpbT7bw_4core3ptr19copy_nonoverlapping18precondition_checkCsdkmdlIU590d_5paste, symObjAddr: 0x2020, symBinAddr: 0x12294, symSize: 0x36C }
  - { offset: 0x1C0DC, size: 0x8, addend: 0x0, symName: __RNvNvNtCsaNl6UpbT7bw_4core3ptr4copy18precondition_checkCsdkmdlIU590d_5paste, symObjAddr: 0x238C, symBinAddr: 0x12600, symSize: 0x240 }
  - { offset: 0x1CED8, size: 0x8, addend: 0x0, symName: __RNvXsC_NtCsaNl6UpbT7bw_4core6optionINtB5_6OptionjENtNtNtB7_3ops9try_trait3Try11from_outputCsdkmdlIU590d_5paste, symObjAddr: 0x2A58, symBinAddr: 0x12CCC, symSize: 0x24 }
  - { offset: 0x1CF0F, size: 0x8, addend: 0x0, symName: __RNvXsC_NtCsaNl6UpbT7bw_4core6optionINtB5_6OptionjENtNtNtB7_3ops9try_trait3Try6branchCsdkmdlIU590d_5paste, symObjAddr: 0x2A7C, symBinAddr: 0x12CF0, symSize: 0x48 }
  - { offset: 0x1CF6A, size: 0x8, addend: 0x0, symName: __RNvXsD_NtCsaNl6UpbT7bw_4core6optionINtB5_6OptionjEINtNtNtB7_3ops9try_trait12FromResidualIBy_NtNtB7_7convert10InfallibleEE13from_residualCsdkmdlIU590d_5paste, symObjAddr: 0x2AC4, symBinAddr: 0x12D38, symSize: 0x18 }
  - { offset: 0x1D3A7, size: 0x8, addend: 0x0, symName: __RINvYNtNtCsaNl6UpbT7bw_4core4char13EscapeDefaultNtNtNtNtB7_4iter6traits8iterator8Iterator4folduNCINvNvBK_8for_each4callcNCINvXsb_NtCsiTraAjBDcu4_5alloc6stringNtB23_6StringINtNtBO_7collect6ExtendcE6extendB3_E0E0ECsdkmdlIU590d_5paste, symObjAddr: 0xF68, symBinAddr: 0x111DC, symSize: 0xB0 }
  - { offset: 0x1D437, size: 0x8, addend: 0x0, symName: __RINvYNtNtCsaNl6UpbT7bw_4core4char13EscapeDefaultNtNtNtNtB7_4iter6traits8iterator8Iterator8for_eachNCINvXsb_NtCsiTraAjBDcu4_5alloc6stringNtB1H_6StringINtNtBO_7collect6ExtendcE6extendB3_E0ECsdkmdlIU590d_5paste, symObjAddr: 0x1018, symBinAddr: 0x1128C, symSize: 0x24 }
  - { offset: 0x1D48D, size: 0x8, addend: 0x0, symName: __RNCINvNvNtNtNtNtCsaNl6UpbT7bw_4core4iter6traits8iterator8Iterator3all5checkNtCs7yrEGia95Wz_10proc_macro9TokenTreeNCNvNtCsdkmdlIU590d_5paste4attr11expand_attrs_0E0B1T_, symObjAddr: 0x103C, symBinAddr: 0x112B0, symSize: 0x60 }
  - { offset: 0x1D4F6, size: 0x8, addend: 0x0, symName: __RNCINvNvNtNtNtNtCsaNl6UpbT7bw_4core4iter6traits8iterator8Iterator8for_each4callNtCs7yrEGia95Wz_10proc_macro9TokenTreeNCINvXsg_B1h_NtB1h_11TokenStreamINtNtBa_7collect12FromIteratorB1f_E9from_iterINtNtCsiTraAjBDcu4_5alloc3vec3VecB1f_EE0E0CsdkmdlIU590d_5paste, symObjAddr: 0x109C, symBinAddr: 0x11310, symSize: 0x3C }
  - { offset: 0x1D54F, size: 0x8, addend: 0x0, symName: __RNCINvNvNtNtNtNtCsaNl6UpbT7bw_4core4iter6traits8iterator8Iterator8for_each4callNtCs7yrEGia95Wz_10proc_macro9TokenTreeNCINvXsg_B1h_NtB1h_11TokenStreamINtNtBa_7collect12FromIteratorB1f_E9from_iterINtNtNtBc_8adapters5chain5ChainINtNtB3b_4take4TakeNtNtB1h_12token_stream8IntoIterEINtNtNtBc_7sources4once4OnceB1f_EEE0E0CsdkmdlIU590d_5paste, symObjAddr: 0x10D8, symBinAddr: 0x1134C, symSize: 0x3C }
  - { offset: 0x1D5A8, size: 0x8, addend: 0x0, symName: __RNCINvNvNtNtNtNtCsaNl6UpbT7bw_4core4iter6traits8iterator8Iterator8for_each4callNtCs7yrEGia95Wz_10proc_macro9TokenTreeNCINvXsi_B1h_NtB1h_11TokenStreamINtNtBa_7collect6ExtendB1f_E6extendB24_E0E0CsdkmdlIU590d_5paste, symObjAddr: 0x1114, symBinAddr: 0x11388, symSize: 0x3C }
  - { offset: 0x1D601, size: 0x8, addend: 0x0, symName: __RNCINvNvNtNtNtNtCsaNl6UpbT7bw_4core4iter6traits8iterator8Iterator8for_each4callNtCs7yrEGia95Wz_10proc_macro9TokenTreeNCINvXsi_B1h_NtB1h_11TokenStreamINtNtBa_7collect6ExtendB1f_E6extendINtNtNtBc_7sources4once4OnceB1f_EE0E0CsdkmdlIU590d_5paste, symObjAddr: 0x1150, symBinAddr: 0x113C4, symSize: 0x3C }
  - { offset: 0x1D65A, size: 0x8, addend: 0x0, symName: __RNCINvNvNtNtNtNtCsaNl6UpbT7bw_4core4iter6traits8iterator8Iterator8for_each4callNtNtCsiTraAjBDcu4_5alloc6string6StringNCINvXsf_B1h_B1f_INtNtBa_7collect6ExtendB1f_E6extendINtNtNtB1j_3vec9into_iter8IntoIterB1f_EE0E0CsdkmdlIU590d_5paste, symObjAddr: 0x118C, symBinAddr: 0x11400, symSize: 0x3C }
  - { offset: 0x1D6B3, size: 0x8, addend: 0x0, symName: __RNCINvNvNtNtNtNtCsaNl6UpbT7bw_4core4iter6traits8iterator8Iterator8for_each4callcNCINvXsb_NtCsiTraAjBDcu4_5alloc6stringNtB1p_6StringINtNtBa_7collect6ExtendcE6extendNtNtBe_4char13EscapeDefaultE0E0CsdkmdlIU590d_5paste, symObjAddr: 0x11C8, symBinAddr: 0x1143C, symSize: 0x28 }
  - { offset: 0x1D70B, size: 0x8, addend: 0x0, symName: __RNCINvNvNtNtNtNtCsaNl6UpbT7bw_4core4iter6traits8iterator8Iterator8for_each4callhNCINvMsi_NtCsiTraAjBDcu4_5alloc3vecINtB1p_3VechE14extend_trustedINtNtNtBc_8adapters3map3MapINtNtNtBe_5slice4iter4IterhENCNvNtB1r_3str13replace_ascii0EE0E0CsdkmdlIU590d_5paste, symObjAddr: 0x11F0, symBinAddr: 0x11464, symSize: 0x28 }
  - { offset: 0x1D797, size: 0x8, addend: 0x0, symName: __RNvXNtNtNtCsaNl6UpbT7bw_4core4iter6traits7collectNtNtB8_4char11ToLowercaseNtB2_12IntoIterator9into_iterCsdkmdlIU590d_5paste, symObjAddr: 0x2668, symBinAddr: 0x128DC, symSize: 0x14 }
  - { offset: 0x1D7CE, size: 0x8, addend: 0x0, symName: __RNvXNtNtNtCsaNl6UpbT7bw_4core4iter6traits7collectNtNtB8_4char11ToUppercaseNtB2_12IntoIterator9into_iterCsdkmdlIU590d_5paste, symObjAddr: 0x267C, symBinAddr: 0x128F0, symSize: 0x14 }
  - { offset: 0x1D805, size: 0x8, addend: 0x0, symName: __RNvXNtNtNtCsaNl6UpbT7bw_4core4iter6traits7collectNtNtB8_4char13EscapeDefaultNtB2_12IntoIterator9into_iterCsdkmdlIU590d_5paste, symObjAddr: 0x2690, symBinAddr: 0x12904, symSize: 0xC }
  - { offset: 0x1D83C, size: 0x8, addend: 0x0, symName: __RNvXNtNtNtCsaNl6UpbT7bw_4core4iter6traits7collectNtNtNtB8_3str4iter5CharsNtB2_12IntoIterator9into_iterCsdkmdlIU590d_5paste, symObjAddr: 0x269C, symBinAddr: 0x12910, symSize: 0x1C }
  - { offset: 0x1DAC8, size: 0x8, addend: 0x0, symName: __RINvNtCsaNl6UpbT7bw_4core3mem7replaceNtNtCsiTraAjBDcu4_5alloc6string6StringECsdkmdlIU590d_5paste, symObjAddr: 0x350, symBinAddr: 0x105C4, symSize: 0x38 }
  - { offset: 0x1E0B9, size: 0x8, addend: 0x0, symName: __RNCNvMsp_NtNtCsaNl6UpbT7bw_4core3str4iterINtB7_20MatchIndicesInternalcE4next0CsdkmdlIU590d_5paste, symObjAddr: 0x12E0, symBinAddr: 0x11554, symSize: 0xA8 }
  - { offset: 0x1E241, size: 0x8, addend: 0x0, symName: __RNvXNtNtCsaNl6UpbT7bw_4core3str4iterNtB2_5CharsNtNtNtNtB6_4iter6traits8iterator8Iterator4nextCsdkmdlIU590d_5paste, symObjAddr: 0x25E8, symBinAddr: 0x1285C, symSize: 0x80 }
  - { offset: 0x1E30F, size: 0x8, addend: 0x0, symName: __RNvXs3_NtNtCsaNl6UpbT7bw_4core3str4iterNtB5_11CharIndicesNtNtNtNtB9_4iter6traits8iterator8Iterator4nextCsdkmdlIU590d_5paste, symObjAddr: 0x287C, symBinAddr: 0x12AF0, symSize: 0x130 }
  - { offset: 0x1E5CB, size: 0x8, addend: 0x0, symName: __RNvXs1_NtNtNtCsaNl6UpbT7bw_4core3ops8function5implsQNCINvNvNtNtNtNtBb_4iter6traits8iterator8Iterator8for_each4callNtCs7yrEGia95Wz_10proc_macro9TokenTreeNCINvXsg_B1Q_NtB1Q_11TokenStreamINtNtBZ_7collect12FromIteratorB1O_E9from_iterINtNtNtB11_8adapters5chain5ChainINtNtB3K_4take4TakeNtNtB1Q_12token_stream8IntoIterEINtNtNtB11_7sources4once4OnceB1O_EEE0E0INtB7_5FnMutTuB1O_EE8call_mutCsdkmdlIU590d_5paste, symObjAddr: 0x27D0, symBinAddr: 0x12A44, symSize: 0x40 }
  - { offset: 0x1E7CA, size: 0x8, addend: 0x0, symName: __RNvXNtNtNtCsaNl6UpbT7bw_4core5array4iter10iter_innerSINtNtNtB8_3mem12maybe_uninit11MaybeUninitcENtB2_11PartialDrop12partial_dropCsdkmdlIU590d_5paste, symObjAddr: 0x26B8, symBinAddr: 0x1292C, symSize: 0xAC }
  - { offset: 0x1E8DC, size: 0x8, addend: 0x0, symName: __RNvXs_NtNtNtCsaNl6UpbT7bw_4core5array4iter10iter_innerAINtNtNtBa_3mem12maybe_uninit11MaybeUninitcEj3_NtB4_11PartialDrop12partial_dropCsdkmdlIU590d_5paste, symObjAddr: 0x2D24, symBinAddr: 0x12F98, symSize: 0x4C }
  - { offset: 0x1E999, size: 0x8, addend: 0x0, symName: __RNvNtCsaNl6UpbT7bw_4core4char8from_u32CsdkmdlIU590d_5paste, symObjAddr: 0x18A8, symBinAddr: 0x11B1C, symSize: 0x20 }
  - { offset: 0x1EA4C, size: 0x8, addend: 0x0, symName: __RNvXs4_NtCsaNl6UpbT7bw_4core4charNtB5_13EscapeDefaultNtNtNtNtB7_4iter6traits8iterator8Iterator4nextCsdkmdlIU590d_5paste, symObjAddr: 0x29AC, symBinAddr: 0x12C20, symSize: 0x60 }
  - { offset: 0x1EAB3, size: 0x8, addend: 0x0, symName: __RNvXs4_NtCsaNl6UpbT7bw_4core4charNtB5_13EscapeDefaultNtNtNtNtB7_4iter6traits8iterator8Iterator9size_hintCsdkmdlIU590d_5paste, symObjAddr: 0x2A0C, symBinAddr: 0x12C80, symSize: 0x4C }
  - { offset: 0x1EC74, size: 0x8, addend: 0x0, symName: __RNvXNtNtCsaNl6UpbT7bw_4core3cmp5implsuNtB4_9PartialEq2eqCsdkmdlIU590d_5paste, symObjAddr: 0x25CC, symBinAddr: 0x12840, symSize: 0x1C }
  - { offset: 0x1ECB8, size: 0x8, addend: 0x0, symName: __RNvYNtCs7yrEGia95Wz_10proc_macro9DelimiterNtNtCsaNl6UpbT7bw_4core3cmp9PartialEq2neCsdkmdlIU590d_5paste, symObjAddr: 0x2FA0, symBinAddr: 0x13214, symSize: 0x30 }
  - { offset: 0x1F512, size: 0x8, addend: 0x0, symName: __RNvXsR_NtCs7yrEGia95Wz_10proc_macro6bridgeINtNtCsaNl6UpbT7bw_4core6option6OptionNtNtB5_6client11TokenStreamEINtNtB5_3rpc6EncodeuE6encodeCsdkmdlIU590d_5paste, symObjAddr: 0x2ADC, symBinAddr: 0x12D50, symSize: 0xCC }
  - { offset: 0x1F5B8, size: 0x8, addend: 0x0, symName: __RNvXsR_NtCs7yrEGia95Wz_10proc_macro6bridgeINtNtCsaNl6UpbT7bw_4core6option6OptionReEINtNtB5_3rpc6EncodeuE6encodeCsdkmdlIU590d_5paste, symObjAddr: 0x2BA8, symBinAddr: 0x12E1C, symSize: 0xD8 }
  - { offset: 0x1F7B3, size: 0x8, addend: 0x0, symName: __RINvXsg_Cs7yrEGia95Wz_10proc_macroNtB6_11TokenStreamINtNtNtNtCsaNl6UpbT7bw_4core4iter6traits7collect12FromIteratorNtB6_9TokenTreeE9from_iterINtNtCsiTraAjBDcu4_5alloc3vec3VecB1O_EECsdkmdlIU590d_5paste, symObjAddr: 0xA30, symBinAddr: 0x10CA4, symSize: 0xFC }
  - { offset: 0x1F817, size: 0x8, addend: 0x0, symName: __RINvXsg_Cs7yrEGia95Wz_10proc_macroNtB6_11TokenStreamINtNtNtNtCsaNl6UpbT7bw_4core4iter6traits7collect12FromIteratorNtB6_9TokenTreeE9from_iterINtNtNtBV_8adapters5chain5ChainINtNtB2j_4take4TakeNtNtB6_12token_stream8IntoIterEINtNtNtBV_7sources4once4OnceB1O_EEECsdkmdlIU590d_5paste, symObjAddr: 0xB2C, symBinAddr: 0x10DA0, symSize: 0x10C }
  - { offset: 0x1F881, size: 0x8, addend: 0x0, symName: __RNCINvXsg_Cs7yrEGia95Wz_10proc_macroNtB8_11TokenStreamINtNtNtNtCsaNl6UpbT7bw_4core4iter6traits7collect12FromIteratorNtB8_9TokenTreeE9from_iterINtNtCsiTraAjBDcu4_5alloc3vec3VecB1Q_EE0CsdkmdlIU590d_5paste, symObjAddr: 0x1218, symBinAddr: 0x1148C, symSize: 0x28 }
  - { offset: 0x1F8C7, size: 0x8, addend: 0x0, symName: __RNCINvXsg_Cs7yrEGia95Wz_10proc_macroNtB8_11TokenStreamINtNtNtNtCsaNl6UpbT7bw_4core4iter6traits7collect12FromIteratorNtB8_9TokenTreeE9from_iterINtNtNtBX_8adapters5chain5ChainINtNtB2l_4take4TakeNtNtB8_12token_stream8IntoIterEINtNtNtBX_7sources4once4OnceB1Q_EEE0CsdkmdlIU590d_5paste, symObjAddr: 0x1240, symBinAddr: 0x114B4, symSize: 0x28 }
  - { offset: 0x1F93A, size: 0x8, addend: 0x0, symName: __RINvXsi_Cs7yrEGia95Wz_10proc_macroNtB6_11TokenStreamINtNtNtNtCsaNl6UpbT7bw_4core4iter6traits7collect6ExtendNtB6_9TokenTreeE6extendBw_ECsdkmdlIU590d_5paste, symObjAddr: 0xC38, symBinAddr: 0x10EAC, symSize: 0x10C }
  - { offset: 0x1F9A8, size: 0x8, addend: 0x0, symName: __RINvXsi_Cs7yrEGia95Wz_10proc_macroNtB6_11TokenStreamINtNtNtNtCsaNl6UpbT7bw_4core4iter6traits7collect6ExtendNtB6_9TokenTreeE6extendINtNtNtBV_7sources4once4OnceB1H_EECsdkmdlIU590d_5paste, symObjAddr: 0xD44, symBinAddr: 0x10FB8, symSize: 0x11C }
  - { offset: 0x1FA17, size: 0x8, addend: 0x0, symName: __RINvXsi_Cs7yrEGia95Wz_10proc_macroNtB6_11TokenStreamINtNtNtNtCsaNl6UpbT7bw_4core4iter6traits7collect6ExtendNtB6_9TokenTreeE6extendINtNtNtBV_8adapters4take4TakeQINtNtB29_8peekable8PeekableNtNtB6_12token_stream8IntoIterEEECsdkmdlIU590d_5paste, symObjAddr: 0xE60, symBinAddr: 0x110D4, symSize: 0x108 }
  - { offset: 0x1FA8A, size: 0x8, addend: 0x0, symName: __RNCINvXsi_Cs7yrEGia95Wz_10proc_macroNtB8_11TokenStreamINtNtNtNtCsaNl6UpbT7bw_4core4iter6traits7collect6ExtendNtB8_9TokenTreeE6extendBy_E0CsdkmdlIU590d_5paste, symObjAddr: 0x1268, symBinAddr: 0x114DC, symSize: 0x28 }
  - { offset: 0x1FAD0, size: 0x8, addend: 0x0, symName: __RNCINvXsi_Cs7yrEGia95Wz_10proc_macroNtB8_11TokenStreamINtNtNtNtCsaNl6UpbT7bw_4core4iter6traits7collect6ExtendNtB8_9TokenTreeE6extendINtNtNtBX_7sources4once4OnceB1J_EE0CsdkmdlIU590d_5paste, symObjAddr: 0x1290, symBinAddr: 0x11504, symSize: 0x28 }
  - { offset: 0x1FB16, size: 0x8, addend: 0x0, symName: __RNCINvXsi_Cs7yrEGia95Wz_10proc_macroNtB8_11TokenStreamINtNtNtNtCsaNl6UpbT7bw_4core4iter6traits7collect6ExtendNtB8_9TokenTreeE6extendINtNtNtBX_8adapters4take4TakeQINtNtB2b_8peekable8PeekableNtNtB8_12token_stream8IntoIterEEE0CsdkmdlIU590d_5paste, symObjAddr: 0x12B8, symBinAddr: 0x1152C, symSize: 0x28 }
  - { offset: 0x1FB89, size: 0x8, addend: 0x0, symName: __RNvXs10_Cs7yrEGia95Wz_10proc_macroNtB6_5GroupNtNtCsaNl6UpbT7bw_4core5clone5Clone5cloneCsdkmdlIU590d_5paste, symObjAddr: 0x2764, symBinAddr: 0x129D8, symSize: 0x40 }
  - { offset: 0x1FBBD, size: 0x8, addend: 0x0, symName: __RNvXs15_Cs7yrEGia95Wz_10proc_macroNtB6_9DelimiterNtNtCsaNl6UpbT7bw_4core3cmp9PartialEq2eqCsdkmdlIU590d_5paste, symObjAddr: 0x27A4, symBinAddr: 0x12A18, symSize: 0x2C }
  - { offset: 0x1FC00, size: 0x8, addend: 0x0, symName: __RNvXs1c_Cs7yrEGia95Wz_10proc_macroNtB6_7SpacingNtNtCsaNl6UpbT7bw_4core3cmp9PartialEq2eqCsdkmdlIU590d_5paste, symObjAddr: 0x2848, symBinAddr: 0x12ABC, symSize: 0x34 }
  - { offset: 0x1FC43, size: 0x8, addend: 0x0, symName: __RNvXsU_Cs7yrEGia95Wz_10proc_macroNtB5_11TokenStreamNtNtCsaNl6UpbT7bw_4core5clone5Clone5cloneCsdkmdlIU590d_5paste, symObjAddr: 0x2C80, symBinAddr: 0x12EF4, symSize: 0x64 }
  - { offset: 0x1FCA8, size: 0x8, addend: 0x0, symName: __RNvXsV_Cs7yrEGia95Wz_10proc_macroNtB5_8LexErrorNtNtCsaNl6UpbT7bw_4core3fmt5Debug3fmtCsdkmdlIU590d_5paste, symObjAddr: 0x2CE4, symBinAddr: 0x12F58, symSize: 0x40 }
  - { offset: 0x1FEC1, size: 0x8, addend: 0x0, symName: __RNCNvXs1_NtNtNtCsht3nMU9UgFu_3std2io5error14repr_bitpackedNtB7_4ReprNtNtNtCsaNl6UpbT7bw_4core3ops4drop4Drop4drop0CsdkmdlIU590d_5paste, symObjAddr: 0x1388, symBinAddr: 0x115FC, symSize: 0x3C }
  - { offset: 0x1FF76, size: 0x8, addend: 0x0, symName: __RNvXs1_NtNtNtCsht3nMU9UgFu_3std2io5error14repr_bitpackedNtB5_4ReprNtNtNtCsaNl6UpbT7bw_4core3ops4drop4Drop4dropCsdkmdlIU590d_5paste, symObjAddr: 0x2810, symBinAddr: 0x12A84, symSize: 0x38 }
  - { offset: 0x1FF9F, size: 0x8, addend: 0x0, symName: __RINvNtNtNtCsht3nMU9UgFu_3std2io5error14repr_bitpacked11decode_reprINtNtCsiTraAjBDcu4_5alloc5boxed3BoxNtB4_6CustomENCNvXs1_B2_NtB2_4ReprNtNtNtCsaNl6UpbT7bw_4core3ops4drop4Drop4drop0ECsdkmdlIU590d_5paste, symObjAddr: 0x388, symBinAddr: 0x105FC, symSize: 0x1DC }
  - { offset: 0x201FB, size: 0x8, addend: 0x0, symName: __RNvNtNtNtCsht3nMU9UgFu_3std2io5error14repr_bitpacked14kind_from_primCsdkmdlIU590d_5paste, symObjAddr: 0x18C8, symBinAddr: 0x11B3C, symSize: 0x758 }
  - { offset: 0x20AF7, size: 0x8, addend: 0x0, symName: __RINvNvNtCsht3nMU9UgFu_3std9panicking12catch_unwind7do_callINtNtNtCsaNl6UpbT7bw_4core5panic11unwind_safe16AssertUnwindSafeNCINvNtNtCs7yrEGia95Wz_10proc_macro6bridge6client10run_clientNtB20_11TokenStreamINtNtB11_6option6OptionB2U_ENCNCINvMs6_B20_INtB20_6ClientNtB24_11TokenStreamB48_E7expand1NvCsdkmdlIU590d_5paste4exprE00E0EuEB4G_, symObjAddr: 0x564, symBinAddr: 0x107D8, symSize: 0x50 }
  - { offset: 0x20BBF, size: 0x8, addend: 0x0, symName: __RINvNvNtCsht3nMU9UgFu_3std9panicking12catch_unwind7do_callINtNtNtCsaNl6UpbT7bw_4core5panic11unwind_safe16AssertUnwindSafeNCINvNtNtCs7yrEGia95Wz_10proc_macro6bridge6client10run_clientNtB20_11TokenStreamINtNtB11_6option6OptionB2U_ENCNCINvMs6_B20_INtB20_6ClientNtB24_11TokenStreamB48_E7expand1NvCsdkmdlIU590d_5paste4itemE00E0EuEB4G_, symObjAddr: 0x5B4, symBinAddr: 0x10828, symSize: 0x50 }
  - { offset: 0x20C87, size: 0x8, addend: 0x0, symName: __RINvNvNtCsht3nMU9UgFu_3std9panicking12catch_unwind7do_callINtNtNtCsaNl6UpbT7bw_4core5panic11unwind_safe16AssertUnwindSafeNCINvNtNtCs7yrEGia95Wz_10proc_macro6bridge6client10run_clientNtB20_11TokenStreamINtNtB11_6option6OptionB2U_ENCNCINvMs6_B20_INtB20_6ClientNtB24_11TokenStreamB48_E7expand1NvCsdkmdlIU590d_5paste5pasteE00E0EuEB4G_, symObjAddr: 0x604, symBinAddr: 0x10878, symSize: 0x50 }
  - { offset: 0x20D4F, size: 0x8, addend: 0x0, symName: __RINvNvNtCsht3nMU9UgFu_3std9panicking12catch_unwind7do_callNCNvCsdkmdlIU590d_5paste16pasted_to_tokenss0_0NtCs7yrEGia95Wz_10proc_macro5IdentEBY_, symObjAddr: 0x654, symBinAddr: 0x108C8, symSize: 0x74 }
  - { offset: 0x20E35, size: 0x8, addend: 0x0, symName: __RINvNvNtCsht3nMU9UgFu_3std9panicking12catch_unwind7do_callNCNvCsdkmdlIU590d_5paste16pasted_to_tokenss_0INtNtCsaNl6UpbT7bw_4core6result6ResultNtCs7yrEGia95Wz_10proc_macro7LiteralNtB2h_8LexErrorEEBY_, symObjAddr: 0x6C8, symBinAddr: 0x1093C, symSize: 0x58 }
  - { offset: 0x20F1B, size: 0x8, addend: 0x0, symName: __RINvNvNtCsht3nMU9UgFu_3std9panicking12catch_unwind8do_catchINtNtNtCsaNl6UpbT7bw_4core5panic11unwind_safe16AssertUnwindSafeNCINvNtNtCs7yrEGia95Wz_10proc_macro6bridge6client10run_clientNtB21_11TokenStreamINtNtB12_6option6OptionB2V_ENCNCINvMs6_B21_INtB21_6ClientNtB25_11TokenStreamB49_E7expand1NvCsdkmdlIU590d_5paste4exprE00E0EuEB4H_, symObjAddr: 0x720, symBinAddr: 0x10994, symSize: 0x70 }
  - { offset: 0x20FB0, size: 0x8, addend: 0x0, symName: __RINvNvNtCsht3nMU9UgFu_3std9panicking12catch_unwind8do_catchINtNtNtCsaNl6UpbT7bw_4core5panic11unwind_safe16AssertUnwindSafeNCINvNtNtCs7yrEGia95Wz_10proc_macro6bridge6client10run_clientNtB21_11TokenStreamINtNtB12_6option6OptionB2V_ENCNCINvMs6_B21_INtB21_6ClientNtB25_11TokenStreamB49_E7expand1NvCsdkmdlIU590d_5paste4itemE00E0EuEB4H_, symObjAddr: 0x790, symBinAddr: 0x10A04, symSize: 0x70 }
  - { offset: 0x21045, size: 0x8, addend: 0x0, symName: __RINvNvNtCsht3nMU9UgFu_3std9panicking12catch_unwind8do_catchINtNtNtCsaNl6UpbT7bw_4core5panic11unwind_safe16AssertUnwindSafeNCINvNtNtCs7yrEGia95Wz_10proc_macro6bridge6client10run_clientNtB21_11TokenStreamINtNtB12_6option6OptionB2V_ENCNCINvMs6_B21_INtB21_6ClientNtB25_11TokenStreamB49_E7expand1NvCsdkmdlIU590d_5paste5pasteE00E0EuEB4H_, symObjAddr: 0x800, symBinAddr: 0x10A74, symSize: 0x70 }
  - { offset: 0x210DA, size: 0x8, addend: 0x0, symName: __RINvNvNtCsht3nMU9UgFu_3std9panicking12catch_unwind8do_catchNCNvCsdkmdlIU590d_5paste16pasted_to_tokenss0_0NtCs7yrEGia95Wz_10proc_macro5IdentEBZ_, symObjAddr: 0x870, symBinAddr: 0x10AE4, symSize: 0x70 }
  - { offset: 0x2116F, size: 0x8, addend: 0x0, symName: __RINvNvNtCsht3nMU9UgFu_3std9panicking12catch_unwind8do_catchNCNvCsdkmdlIU590d_5paste16pasted_to_tokenss_0INtNtCsaNl6UpbT7bw_4core6result6ResultNtCs7yrEGia95Wz_10proc_macro7LiteralNtB2i_8LexErrorEEBZ_, symObjAddr: 0x8E0, symBinAddr: 0x10B54, symSize: 0x70 }
  - { offset: 0x2140E, size: 0x8, addend: 0x0, symName: __RINvMNtCsaNl6UpbT7bw_4core6optionINtB3_6OptionIBw_NtCs7yrEGia95Wz_10proc_macro9TokenTreeEE18get_or_insert_withNCNvMs3_NtNtNtB5_4iter8adapters8peekableINtB1S_8PeekableNtNtBO_12token_stream8IntoIterE4peek0ECsdkmdlIU590d_5paste, symObjAddr: 0x0, symBinAddr: 0x10274, symSize: 0x140 }
  - { offset: 0x214CE, size: 0x8, addend: 0x0, symName: __RINvMNtCsaNl6UpbT7bw_4core6optionINtB3_6OptionRNtCs7yrEGia95Wz_10proc_macro9TokenTreeE6map_orNtBL_4SpanNvMsq_BL_BJ_4spanECsdkmdlIU590d_5paste, symObjAddr: 0x140, symBinAddr: 0x103B4, symSize: 0xA8 }
  - { offset: 0x21685, size: 0x8, addend: 0x0, symName: __RINvMNtCsaNl6UpbT7bw_4core6optionINtB3_6OptionReE11map_or_elseNtNtCsiTraAjBDcu4_5alloc6string6StringNCNvNtB12_3fmt6format0NvYeNtNtB12_6borrow7ToOwned8to_ownedECsdkmdlIU590d_5paste, symObjAddr: 0x1E8, symBinAddr: 0x1045C, symSize: 0xCC }
  - { offset: 0x21D94, size: 0x8, addend: 0x0, symName: __RNvMNtCsaNl6UpbT7bw_4core6optionINtB2_6OptionNtCs7yrEGia95Wz_10proc_macro5GroupE4takeCsdkmdlIU590d_5paste, symObjAddr: 0x13C4, symBinAddr: 0x11638, symSize: 0x40 }
  - { offset: 0x21DEB, size: 0x8, addend: 0x0, symName: __RNvMNtCsaNl6UpbT7bw_4core6optionINtB2_6OptionNtCs7yrEGia95Wz_10proc_macro9TokenTreeE6as_refCsdkmdlIU590d_5paste, symObjAddr: 0x1404, symBinAddr: 0x11678, symSize: 0x4C }
  - { offset: 0x21E51, size: 0x8, addend: 0x0, symName: __RNvMNtCsaNl6UpbT7bw_4core6optionINtB2_6OptionNtCs7yrEGia95Wz_10proc_macro9TokenTreeE7is_noneCsdkmdlIU590d_5paste, symObjAddr: 0x1450, symBinAddr: 0x116C4, symSize: 0x28 }
  - { offset: 0x21E9B, size: 0x8, addend: 0x0, symName: __RNvMNtCsaNl6UpbT7bw_4core6optionINtB2_6OptionNtCs7yrEGia95Wz_10proc_macro9TokenTreeE7is_someCsdkmdlIU590d_5paste, symObjAddr: 0x1478, symBinAddr: 0x116EC, symSize: 0x28 }
  - { offset: 0x21EC7, size: 0x8, addend: 0x0, symName: __RNvMs8_Cs7yrEGia95Wz_10proc_macroNtB5_11TokenStream3newCsdkmdlIU590d_5paste, symObjAddr: 0x14A0, symBinAddr: 0x11714, symSize: 0x8 }
  - { offset: 0x21EE7, size: 0x8, addend: 0x0, symName: __RNvMsE_Cs7yrEGia95Wz_10proc_macroNtB5_5Punct4spanCsdkmdlIU590d_5paste, symObjAddr: 0x14A8, symBinAddr: 0x1171C, symSize: 0x18 }
  - { offset: 0x21F11, size: 0x8, addend: 0x0, symName: __RNvMsE_Cs7yrEGia95Wz_10proc_macroNtB5_5Punct7as_charCsdkmdlIU590d_5paste, symObjAddr: 0x14C0, symBinAddr: 0x11734, symSize: 0x18 }
  - { offset: 0x21F34, size: 0x8, addend: 0x0, symName: __RNvMsE_Cs7yrEGia95Wz_10proc_macroNtB5_5Punct7spacingCsdkmdlIU590d_5paste, symObjAddr: 0x14D8, symBinAddr: 0x1174C, symSize: 0x3C }
  - { offset: 0x21F64, size: 0x8, addend: 0x0, symName: __RNvMsE_Cs7yrEGia95Wz_10proc_macroNtB5_5Punct8set_spanCsdkmdlIU590d_5paste, symObjAddr: 0x1514, symBinAddr: 0x11788, symSize: 0x1C }
  - { offset: 0x21FA3, size: 0x8, addend: 0x0, symName: __RNvMsJ_Cs7yrEGia95Wz_10proc_macroNtB5_5Ident4spanCsdkmdlIU590d_5paste, symObjAddr: 0x1530, symBinAddr: 0x117A4, symSize: 0x18 }
  - { offset: 0x21FD3, size: 0x8, addend: 0x0, symName: __RNvMsM_Cs7yrEGia95Wz_10proc_macroNtB5_7Literal4spanCsdkmdlIU590d_5paste, symObjAddr: 0x1548, symBinAddr: 0x117BC, symSize: 0x18 }
  - { offset: 0x22003, size: 0x8, addend: 0x0, symName: __RNvMsM_Cs7yrEGia95Wz_10proc_macroNtB5_7Literal8set_spanCsdkmdlIU590d_5paste, symObjAddr: 0x1560, symBinAddr: 0x117D4, symSize: 0x1C }
  - { offset: 0x2206C, size: 0x8, addend: 0x0, symName: __RNvMsd_NtCsaNl6UpbT7bw_4core4charNtB5_15CaseMappingIter3newCsdkmdlIU590d_5paste, symObjAddr: 0x157C, symBinAddr: 0x117F0, symSize: 0x10C }
  - { offset: 0x2216E, size: 0x8, addend: 0x0, symName: __RNvMsq_Cs7yrEGia95Wz_10proc_macroNtB5_9TokenTree4spanCsdkmdlIU590d_5paste, symObjAddr: 0x1688, symBinAddr: 0x118FC, symSize: 0xD0 }
  - { offset: 0x22334, size: 0x8, addend: 0x0, symName: __RNvMsq_Cs7yrEGia95Wz_10proc_macroNtB5_9TokenTree8set_spanCsdkmdlIU590d_5paste, symObjAddr: 0x1758, symBinAddr: 0x119CC, symSize: 0xEC }
  - { offset: 0x22493, size: 0x8, addend: 0x0, symName: __RNvMsz_Cs7yrEGia95Wz_10proc_macroNtB5_5Group4spanCsdkmdlIU590d_5paste, symObjAddr: 0x1844, symBinAddr: 0x11AB8, symSize: 0x18 }
  - { offset: 0x224C6, size: 0x8, addend: 0x0, symName: __RNvMsz_Cs7yrEGia95Wz_10proc_macroNtB5_5Group8set_spanCsdkmdlIU590d_5paste, symObjAddr: 0x185C, symBinAddr: 0x11AD0, symSize: 0x34 }
  - { offset: 0x2250D, size: 0x8, addend: 0x0, symName: __RNvMsz_Cs7yrEGia95Wz_10proc_macroNtB5_5Group9delimiterCsdkmdlIU590d_5paste, symObjAddr: 0x1890, symBinAddr: 0x11B04, symSize: 0x18 }
  - { offset: 0x22AD6, size: 0x8, addend: 0x0, symName: __RINvNtNtNtCs7yrEGia95Wz_10proc_macro6bridge6client5state3setINtNtCsaNl6UpbT7bw_4core6option6OptionNtB4_11TokenStreamENCNCINvB4_10run_clientB1y_BW_NCNCINvMs6_B4_INtB4_6ClientNtB8_11TokenStreamB2L_E7expand1NvCsdkmdlIU590d_5paste4exprE00E00EB3i_, symObjAddr: 0x2A0, symBinAddr: 0x134CC, symSize: 0xE8 }
  - { offset: 0x22BAB, size: 0x8, addend: 0x0, symName: __RINvNtNtNtCs7yrEGia95Wz_10proc_macro6bridge6client5state3setINtNtCsaNl6UpbT7bw_4core6option6OptionNtB4_11TokenStreamENCNCINvB4_10run_clientB1y_BW_NCNCINvMs6_B4_INtB4_6ClientNtB8_11TokenStreamB2L_E7expand1NvCsdkmdlIU590d_5paste4itemE00E00EB3i_, symObjAddr: 0x388, symBinAddr: 0x135B4, symSize: 0xE8 }
  - { offset: 0x22C80, size: 0x8, addend: 0x0, symName: __RINvNtNtNtCs7yrEGia95Wz_10proc_macro6bridge6client5state3setINtNtCsaNl6UpbT7bw_4core6option6OptionNtB4_11TokenStreamENCNCINvB4_10run_clientB1y_BW_NCNCINvMs6_B4_INtB4_6ClientNtB8_11TokenStreamB2L_E7expand1NvCsdkmdlIU590d_5paste5pasteE00E00EB3i_, symObjAddr: 0x470, symBinAddr: 0x1369C, symSize: 0xE8 }
  - { offset: 0x22D5F, size: 0x8, addend: 0x0, symName: __RNCNkNvNtNtNtCs7yrEGia95Wz_10proc_macro6bridge6client5state12BRIDGE_STATE0s_0CsdkmdlIU590d_5paste, symObjAddr: 0xF58, symBinAddr: 0x14184, symSize: 0x30 }
  - { offset: 0x22F9A, size: 0x8, addend: 0x0, symName: __RINvNvNtNtCs7yrEGia95Wz_10proc_macro6bridge14selfless_reify31reify_to_extern_c_fn_hrt_bridge7wrapperNtNtB6_6buffer6BufferNCINvMs6_NtB6_6clientINtB24_6ClientNtB8_11TokenStreamB2u_E7expand1NvCsdkmdlIU590d_5paste4exprE0EB31_, symObjAddr: 0x558, symBinAddr: 0x13784, symSize: 0x5C }
  - { offset: 0x22FF6, size: 0x8, addend: 0x0, symName: __RINvNvNtNtCs7yrEGia95Wz_10proc_macro6bridge14selfless_reify31reify_to_extern_c_fn_hrt_bridge7wrapperNtNtB6_6buffer6BufferNCINvMs6_NtB6_6clientINtB24_6ClientNtB8_11TokenStreamB2u_E7expand1NvCsdkmdlIU590d_5paste4itemE0EB31_, symObjAddr: 0x5B4, symBinAddr: 0x137E0, symSize: 0x5C }
  - { offset: 0x23052, size: 0x8, addend: 0x0, symName: __RINvNvNtNtCs7yrEGia95Wz_10proc_macro6bridge14selfless_reify31reify_to_extern_c_fn_hrt_bridge7wrapperNtNtB6_6buffer6BufferNCINvMs6_NtB6_6clientINtB24_6ClientNtB8_11TokenStreamB2u_E7expand1NvCsdkmdlIU590d_5paste5pasteE0EB31_, symObjAddr: 0x610, symBinAddr: 0x1383C, symSize: 0x5C }
  - { offset: 0x240E4, size: 0x8, addend: 0x0, symName: __RINvNtNtCsaNl6UpbT7bw_4core3str11validations15next_code_pointINtNtNtB6_5slice4iter4IterhEECsdkmdlIU590d_5paste, symObjAddr: 0x7C, symBinAddr: 0x132A8, symSize: 0x224 }
  - { offset: 0x2433B, size: 0x8, addend: 0x0, symName: __RNvNvXs5_NtNtCsaNl6UpbT7bw_4core3str6traitsINtNtNtBb_3ops5range5RangejEINtNtNtBb_5slice5index10SliceIndexeE13get_unchecked18precondition_checkCsdkmdlIU590d_5paste, symObjAddr: 0x1C14, symBinAddr: 0x14E3C, symSize: 0xCC }
  - { offset: 0x243F6, size: 0x8, addend: 0x0, symName: __RNvXs5_NtNtCsaNl6UpbT7bw_4core3str6traitsINtNtNtB9_3ops5range5RangejEINtNtNtB9_5slice5index10SliceIndexeE3getCsdkmdlIU590d_5paste, symObjAddr: 0x1DFC, symBinAddr: 0x15024, symSize: 0x208 }
  - { offset: 0x24535, size: 0x8, addend: 0x0, symName: __RNvXs5_NtNtCsaNl6UpbT7bw_4core3str6traitsINtNtNtB9_3ops5range5RangejEINtNtNtB9_5slice5index10SliceIndexeE5indexCsdkmdlIU590d_5paste, symObjAddr: 0x2004, symBinAddr: 0x1522C, symSize: 0x90 }
  - { offset: 0x24618, size: 0x8, addend: 0x0, symName: __RNvXs9_NtNtCsaNl6UpbT7bw_4core3str6traitsINtNtNtB9_3ops5range9RangeFromjEINtNtNtB9_5slice5index10SliceIndexeE3getCsdkmdlIU590d_5paste, symObjAddr: 0x213C, symBinAddr: 0x15364, symSize: 0x150 }
  - { offset: 0x2478D, size: 0x8, addend: 0x0, symName: __RNvXs_NtNtCsaNl6UpbT7bw_4core3str6traitseNtNtB8_3cmp9PartialEq2eqCsdkmdlIU590d_5paste, symObjAddr: 0x230C, symBinAddr: 0x15534, symSize: 0x64 }
  - { offset: 0x257D3, size: 0x8, addend: 0x0, symName: __RNvXs5_NtNtCsaNl6UpbT7bw_4core3num5errorNtB5_15TryFromIntErrorNtNtB9_3fmt5Debug3fmtCsdkmdlIU590d_5paste, symObjAddr: 0x1DA8, symBinAddr: 0x14FD0, symSize: 0x54 }
  - { offset: 0x2587B, size: 0x8, addend: 0x0, symName: __RINvXNtNtNtCsaNl6UpbT7bw_4core4iter6traits8iteratorQINtNtNtB7_8adapters8peekable8PeekableNtNtCs7yrEGia95Wz_10proc_macro12token_stream8IntoIterENtB3_8Iterator8try_foldjNCINvNvXs7_NtBT_4takeINtB2Q_4TakepENtB2Q_8SpecTake13spec_for_each5checkNtB1t_9TokenTreeNCINvXsi_B1t_NtB1t_11TokenStreamINtNtB5_7collect6ExtendB3O_E6extendIB31_BN_EE0E0INtNtB9_6option6OptionjEECsdkmdlIU590d_5paste, symObjAddr: 0x66C, symBinAddr: 0x13898, symSize: 0x30 }
  - { offset: 0x258EB, size: 0x8, addend: 0x0, symName: __RNvXNtNtNtCsaNl6UpbT7bw_4core4iter6traits8iteratorQINtNtNtB6_8adapters8peekable8PeekableNtNtCs7yrEGia95Wz_10proc_macro12token_stream8IntoIterENtB2_8Iterator9size_hintCsdkmdlIU590d_5paste, symObjAddr: 0x1D28, symBinAddr: 0x14F50, symSize: 0x28 }
  - { offset: 0x25928, size: 0x8, addend: 0x0, symName: __RINvXs0_NtNtNtCsaNl6UpbT7bw_4core4iter6traits8iteratorQINtNtNtBa_8adapters8peekable8PeekableNtNtCs7yrEGia95Wz_10proc_macro12token_stream8IntoIterENtB6_15IteratorRefSpec13spec_try_foldjNCINvNvXs7_NtBW_4takeINtB37_4TakepENtB37_8SpecTake13spec_for_each5checkNtB1w_9TokenTreeNCINvXsi_B1w_NtB1w_11TokenStreamINtNtB8_7collect6ExtendB45_E6extendIB3i_BQ_EE0E0INtNtBc_6option6OptionjEECsdkmdlIU590d_5paste, symObjAddr: 0x69C, symBinAddr: 0x138C8, symSize: 0x34 }
  - { offset: 0x2599E, size: 0x8, addend: 0x0, symName: __RINvYINtNtNtNtCsaNl6UpbT7bw_4core4iter8adapters4take4TakeNtNtCs7yrEGia95Wz_10proc_macro12token_stream8IntoIterENtNtNtBa_6traits8iterator8Iterator5chainINtNtNtBa_7sources4once4OnceNtBX_9TokenTreeEECsdkmdlIU590d_5paste, symObjAddr: 0xCD8, symBinAddr: 0x13F04, symSize: 0xC4 }
  - { offset: 0x25A16, size: 0x8, addend: 0x0, symName: __RINvYINtNtNtNtCsaNl6UpbT7bw_4core4iter8adapters5chain5ChainINtNtB8_4take4TakeNtNtCs7yrEGia95Wz_10proc_macro12token_stream8IntoIterEINtNtNtBa_7sources4once4OnceNtB1h_9TokenTreeEENtNtNtBa_6traits8iterator8Iterator7collectNtB1h_11TokenStreamECsdkmdlIU590d_5paste, symObjAddr: 0xD9C, symBinAddr: 0x13FC8, symSize: 0x6C }
  - { offset: 0x25AAC, size: 0x8, addend: 0x0, symName: __RINvYINtNtNtNtCsaNl6UpbT7bw_4core4iter8adapters5chain5ChainINtNtB8_4take4TakeNtNtCs7yrEGia95Wz_10proc_macro12token_stream8IntoIterEINtNtNtBa_7sources4once4OnceNtB1h_9TokenTreeEENtNtNtBa_6traits8iterator8Iterator8for_eachNCINvXsg_B1h_NtB1h_11TokenStreamINtNtB2T_7collect12FromIteratorB2x_E9from_iterB3_E0ECsdkmdlIU590d_5paste, symObjAddr: 0xE08, symBinAddr: 0x14034, symSize: 0x24 }
  - { offset: 0x25AF8, size: 0x8, addend: 0x0, symName: __RNvYINtNtNtNtCsaNl6UpbT7bw_4core4iter8adapters8peekable8PeekableNtNtCs7yrEGia95Wz_10proc_macro12token_stream8IntoIterENtNtNtB9_6traits8iterator8Iterator6by_refCsdkmdlIU590d_5paste, symObjAddr: 0x29F8, symBinAddr: 0x15C20, symSize: 0x14 }
  - { offset: 0x25B2F, size: 0x8, addend: 0x0, symName: __RNvYQINtNtNtNtCsaNl6UpbT7bw_4core4iter8adapters8peekable8PeekableNtNtCs7yrEGia95Wz_10proc_macro12token_stream8IntoIterENtNtNtBa_6traits8iterator8Iterator4takeCsdkmdlIU590d_5paste, symObjAddr: 0x2A0C, symBinAddr: 0x15C34, symSize: 0x18 }
  - { offset: 0x25BD1, size: 0x8, addend: 0x0, symName: __RNvXNtNtNtCsaNl6UpbT7bw_4core4iter6traits7collectINtNtNtB6_8adapters4take4TakeQINtNtBQ_8peekable8PeekableNtNtCs7yrEGia95Wz_10proc_macro12token_stream8IntoIterEENtB2_12IntoIterator9into_iterCsdkmdlIU590d_5paste, symObjAddr: 0x1CE0, symBinAddr: 0x14F08, symSize: 0x18 }
  - { offset: 0x25C08, size: 0x8, addend: 0x0, symName: __RNvXNtNtNtCsaNl6UpbT7bw_4core4iter6traits7collectINtNtNtB6_8adapters5chain5ChainINtNtBQ_4take4TakeNtNtCs7yrEGia95Wz_10proc_macro12token_stream8IntoIterEINtNtNtB6_7sources4once4OnceNtB1C_9TokenTreeEENtB2_12IntoIterator9into_iterCsdkmdlIU590d_5paste, symObjAddr: 0x1CF8, symBinAddr: 0x14F20, symSize: 0x30 }
  - { offset: 0x25C52, size: 0x8, addend: 0x0, symName: __RINvXs7_NtNtNtCsaNl6UpbT7bw_4core4iter8adapters4takeINtB6_4TakeNtNtCs7yrEGia95Wz_10proc_macro12token_stream8IntoIterENtB6_8SpecTake9spec_folduQNCINvNvNtNtNtBa_6traits8iterator8Iterator8for_each4callNtB13_9TokenTreeNCINvXsg_B13_NtB13_11TokenStreamINtNtB2s_7collect12FromIteratorB3a_E9from_iterINtNtB8_5chain5ChainBO_INtNtNtBa_7sources4once4OnceB3a_EEE0E0ECsdkmdlIU590d_5paste, symObjAddr: 0x6D0, symBinAddr: 0x138FC, symSize: 0x5C }
  - { offset: 0x25CB6, size: 0x8, addend: 0x0, symName: __RINvXs7_NtNtNtCsaNl6UpbT7bw_4core4iter8adapters4takeINtB6_4TakeQINtNtB8_8peekable8PeekableNtNtCs7yrEGia95Wz_10proc_macro12token_stream8IntoIterEENtB6_8SpecTake13spec_for_eachNCINvXsi_B1u_NtB1u_11TokenStreamINtNtNtBa_6traits7collect6ExtendNtB1u_9TokenTreeE6extendBO_E0ECsdkmdlIU590d_5paste, symObjAddr: 0x72C, symBinAddr: 0x13958, symSize: 0x80 }
  - { offset: 0x25D21, size: 0x8, addend: 0x0, symName: __RNCINvNvXs7_NtNtNtCsaNl6UpbT7bw_4core4iter8adapters4takeINtBa_4TakepENtBa_8SpecTake13spec_for_each5checkNtCs7yrEGia95Wz_10proc_macro9TokenTreeNCINvXsi_B1G_NtB1G_11TokenStreamINtNtNtBe_6traits7collect6ExtendB1E_E6extendIBT_QINtNtBc_8peekable8PeekableNtNtB1G_12token_stream8IntoIterEEE0E0CsdkmdlIU590d_5paste, symObjAddr: 0xE2C, symBinAddr: 0x14058, symSize: 0x98 }
  - { offset: 0x25DBB, size: 0x8, addend: 0x0, symName: __RINvXs_NtNtNtCsaNl6UpbT7bw_4core4iter8adapters4takeINtB5_4TakeNtNtCs7yrEGia95Wz_10proc_macro12token_stream8IntoIterENtNtNtB9_6traits8iterator8Iterator4folduQNCINvNvB1Q_8for_each4callNtB12_9TokenTreeNCINvXsg_B12_NtB12_11TokenStreamINtNtB1U_7collect12FromIteratorB2U_E9from_iterINtNtB7_5chain5ChainBN_INtNtNtB9_7sources4once4OnceB2U_EEE0E0ECsdkmdlIU590d_5paste, symObjAddr: 0x7AC, symBinAddr: 0x139D8, symSize: 0x24 }
  - { offset: 0x25E1B, size: 0x8, addend: 0x0, symName: __RINvXs_NtNtNtCsaNl6UpbT7bw_4core4iter8adapters4takeINtB5_4TakeNtNtCs7yrEGia95Wz_10proc_macro12token_stream8IntoIterENtNtNtB9_6traits8iterator8Iterator8try_folduNCINvMNtNtBb_3ops9try_traitINtB2E_17NeverShortCircuituE10wrap_mut_2uNtB12_9TokenTreeQNCINvNvB1Q_8for_each4callB3E_NCINvXsg_B12_NtB12_11TokenStreamINtNtB1U_7collect12FromIteratorB3E_E9from_iterINtNtB7_5chain5ChainBN_INtNtNtB9_7sources4once4OnceB3E_EEE0E0E0B2Z_ECsdkmdlIU590d_5paste, symObjAddr: 0x7D0, symBinAddr: 0x139FC, symSize: 0xC8 }
  - { offset: 0x25EC3, size: 0x8, addend: 0x0, symName: __RINvXs_NtNtNtCsaNl6UpbT7bw_4core4iter8adapters4takeINtB5_4TakeQINtNtB7_8peekable8PeekableNtNtCs7yrEGia95Wz_10proc_macro12token_stream8IntoIterEENtNtNtB9_6traits8iterator8Iterator8for_eachNCINvXsi_B1t_NtB1t_11TokenStreamINtNtB2m_7collect6ExtendNtB1t_9TokenTreeE6extendBN_E0ECsdkmdlIU590d_5paste, symObjAddr: 0x898, symBinAddr: 0x13AC4, symSize: 0x30 }
  - { offset: 0x25F15, size: 0x8, addend: 0x0, symName: __RNCINvNvXs_NtNtNtCsaNl6UpbT7bw_4core4iter8adapters4takeINtB9_4TakepENtNtNtBd_6traits8iterator8Iterator8try_fold5checkNtCs7yrEGia95Wz_10proc_macro9TokenTreeuINtNtNtBf_3ops9try_trait17NeverShortCircuituENCINvMB2x_B2u_10wrap_mut_2uB1R_QNCINvNvB14_8for_each4callB1R_NCINvXsg_B1T_NtB1T_11TokenStreamINtNtB18_7collect12FromIteratorB1R_E9from_iterINtNtBb_5chain5ChainIBS_NtNtB1T_12token_stream8IntoIterEINtNtNtBd_7sources4once4OnceB1R_EEE0E0E0E0CsdkmdlIU590d_5paste, symObjAddr: 0xEC4, symBinAddr: 0x140F0, symSize: 0x94 }
  - { offset: 0x25FD8, size: 0x8, addend: 0x0, symName: __RNvXs_NtNtNtCsaNl6UpbT7bw_4core4iter8adapters4takeINtB4_4TakeNtNtCs7yrEGia95Wz_10proc_macro12token_stream8IntoIterENtNtNtB8_6traits8iterator8Iterator9size_hintCsdkmdlIU590d_5paste, symObjAddr: 0x2370, symBinAddr: 0x15598, symSize: 0x11C }
  - { offset: 0x260B5, size: 0x8, addend: 0x0, symName: __RNvXs_NtNtNtCsaNl6UpbT7bw_4core4iter8adapters4takeINtB4_4TakeQINtNtB6_8peekable8PeekableNtNtCs7yrEGia95Wz_10proc_macro12token_stream8IntoIterEENtNtNtB8_6traits8iterator8Iterator9size_hintCsdkmdlIU590d_5paste, symObjAddr: 0x248C, symBinAddr: 0x156B4, symSize: 0x11C }
  - { offset: 0x261F2, size: 0x8, addend: 0x0, symName: __RINvXs_NtNtNtCsaNl6UpbT7bw_4core4iter8adapters5chainINtB5_5ChainINtNtB7_4take4TakeNtNtCs7yrEGia95Wz_10proc_macro12token_stream8IntoIterEINtNtNtB9_7sources4once4OnceNtB1m_9TokenTreeEENtNtNtB9_6traits8iterator8Iterator4folduNCINvNvB2U_8for_each4callB2C_NCINvXsg_B1m_NtB1m_11TokenStreamINtNtB2Y_7collect12FromIteratorB2C_E9from_iterBO_E0E0ECsdkmdlIU590d_5paste, symObjAddr: 0x8C8, symBinAddr: 0x13AF4, symSize: 0x210 }
  - { offset: 0x2628D, size: 0x8, addend: 0x0, symName: __RNvXs_NtNtNtCsaNl6UpbT7bw_4core4iter8adapters5chainINtB4_5ChainINtNtB6_4take4TakeNtNtCs7yrEGia95Wz_10proc_macro12token_stream8IntoIterEINtNtNtB8_7sources4once4OnceNtB1l_9TokenTreeEENtNtNtB8_6traits8iterator8Iterator9size_hintCsdkmdlIU590d_5paste, symObjAddr: 0x25A8, symBinAddr: 0x157D0, symSize: 0x218 }
  - { offset: 0x264AC, size: 0x8, addend: 0x0, symName: __RINvXs_NtNtNtCsaNl6UpbT7bw_4core4iter8adapters8peekableINtB5_8PeekableNtNtCs7yrEGia95Wz_10proc_macro12token_stream8IntoIterENtNtNtB9_6traits8iterator8Iterator8try_foldjNCINvNvXs7_NtB7_4takeINtB2R_4TakepENtB2R_8SpecTake13spec_for_each5checkNtB1a_9TokenTreeNCINvXsi_B1a_NtB1a_11TokenStreamINtNtB22_7collect6ExtendB3P_E6extendIB32_QBR_EE0E0INtNtBb_6option6OptionjEECsdkmdlIU590d_5paste, symObjAddr: 0xAD8, symBinAddr: 0x13D04, symSize: 0x200 }
  - { offset: 0x265B3, size: 0x8, addend: 0x0, symName: __RNvXs_NtNtNtCsaNl6UpbT7bw_4core4iter8adapters8peekableINtB4_8PeekableNtNtCs7yrEGia95Wz_10proc_macro12token_stream8IntoIterENtNtNtB8_6traits8iterator8Iterator4nextCsdkmdlIU590d_5paste, symObjAddr: 0x27C0, symBinAddr: 0x159E8, symSize: 0xA4 }
  - { offset: 0x26640, size: 0x8, addend: 0x0, symName: __RNvXs_NtNtNtCsaNl6UpbT7bw_4core4iter8adapters8peekableINtB4_8PeekableNtNtCs7yrEGia95Wz_10proc_macro12token_stream8IntoIterENtNtNtB8_6traits8iterator8Iterator9size_hintCsdkmdlIU590d_5paste, symObjAddr: 0x2864, symBinAddr: 0x15A8C, symSize: 0x194 }
  - { offset: 0x26761, size: 0x8, addend: 0x0, symName: __RNCNvMs3_NtNtNtCsaNl6UpbT7bw_4core4iter8adapters8peekableINtB7_8PeekableNtNtCs7yrEGia95Wz_10proc_macro12token_stream8IntoIterE4peek0CsdkmdlIU590d_5paste, symObjAddr: 0xF88, symBinAddr: 0x141B4, symSize: 0x24 }
  - { offset: 0x26EC2, size: 0x8, addend: 0x0, symName: __RNvMNtNtCsaNl6UpbT7bw_4core4char7methodsc12is_uppercaseCsdkmdlIU590d_5paste, symObjAddr: 0x11B0, symBinAddr: 0x143DC, symSize: 0x80 }
  - { offset: 0x26F06, size: 0x8, addend: 0x0, symName: __RNvMNtNtCsaNl6UpbT7bw_4core4char7methodsc12to_lowercaseCsdkmdlIU590d_5paste, symObjAddr: 0x1230, symBinAddr: 0x1445C, symSize: 0x4C }
  - { offset: 0x26F34, size: 0x8, addend: 0x0, symName: __RNvMNtNtCsaNl6UpbT7bw_4core4char7methodsc12to_uppercaseCsdkmdlIU590d_5paste, symObjAddr: 0x127C, symBinAddr: 0x144A8, symSize: 0x4C }
  - { offset: 0x26F9E, size: 0x8, addend: 0x0, symName: __RNvMNtNtCsaNl6UpbT7bw_4core4char7methodsc14escape_defaultCsdkmdlIU590d_5paste, symObjAddr: 0x12C8, symBinAddr: 0x144F4, symSize: 0x284 }
  - { offset: 0x271DD, size: 0x8, addend: 0x0, symName: __RNvMNtNtCsaNl6UpbT7bw_4core4char7methodsc14is_ascii_digitCsdkmdlIU590d_5paste, symObjAddr: 0x154C, symBinAddr: 0x14778, symSize: 0x64 }
  - { offset: 0x2720B, size: 0x8, addend: 0x0, symName: __RNvMNtNtCsaNl6UpbT7bw_4core4char7methodsc8to_digitCsdkmdlIU590d_5paste, symObjAddr: 0x15B0, symBinAddr: 0x147DC, symSize: 0x14C }
  - { offset: 0x2730B, size: 0x8, addend: 0x0, symName: __RNvNtNtCsaNl6UpbT7bw_4core4char7methods15encode_utf8_rawCsdkmdlIU590d_5paste, symObjAddr: 0x19B8, symBinAddr: 0x14BE0, symSize: 0x110 }
  - { offset: 0x2740B, size: 0x8, addend: 0x0, symName: __RNvNtNtCsaNl6UpbT7bw_4core4char7methods25encode_utf8_raw_uncheckedCsdkmdlIU590d_5paste, symObjAddr: 0x1AC8, symBinAddr: 0x14CF0, symSize: 0x14C }
  - { offset: 0x2775A, size: 0x8, addend: 0x0, symName: __RNvXs1_NtNtNtCsaNl6UpbT7bw_4core5array4iter10iter_innerINtB5_15PolymorphicIterAINtNtNtBb_3mem12maybe_uninit11MaybeUninitcEj3_ENtNtNtBb_3ops4drop4Drop4dropCsdkmdlIU590d_5paste, symObjAddr: 0x1D60, symBinAddr: 0x14F88, symSize: 0x38 }
  - { offset: 0x277D9, size: 0x8, addend: 0x0, symName: __RNvXs4_NtNtCsaNl6UpbT7bw_4core5array4iterINtB5_8IntoItercKj3_ENtNtNtB9_3ops4drop4Drop4dropCsdkmdlIU590d_5paste, symObjAddr: 0x1D98, symBinAddr: 0x14FC0, symSize: 0x10 }
  - { offset: 0x278EF, size: 0x8, addend: 0x0, symName: __RNvXs5_NtNtCsaNl6UpbT7bw_4core5slice5indexINtNtNtB9_3ops5range9RangeFromjEINtB5_10SliceIndexShE5indexCsdkmdlIU590d_5paste, symObjAddr: 0x2094, symBinAddr: 0x152BC, symSize: 0x90 }
  - { offset: 0x279FC, size: 0x8, addend: 0x0, symName: __RNvXs7_NtNtCsaNl6UpbT7bw_4core5slice5indexNtNtNtB9_3ops5range9RangeFullINtB5_10SliceIndexScE5indexCsdkmdlIU590d_5paste, symObjAddr: 0x2124, symBinAddr: 0x1534C, symSize: 0x18 }
  - { offset: 0x27C49, size: 0x8, addend: 0x0, symName: __RNvYjNtNtCsaNl6UpbT7bw_4core3cmp3Ord3minCsdkmdlIU590d_5paste, symObjAddr: 0x2A24, symBinAddr: 0x15C4C, symSize: 0x80 }
  - { offset: 0x27CCB, size: 0x8, addend: 0x0, symName: __RINvNtCsht3nMU9UgFu_3std3env3varRNtNtCsiTraAjBDcu4_5alloc6string6StringECsdkmdlIU590d_5paste, symObjAddr: 0x18, symBinAddr: 0x13244, symSize: 0x64 }
  - { offset: 0x281B1, size: 0x8, addend: 0x0, symName: __RNvXs_NtCsiTraAjBDcu4_5alloc5allocNtB4_6GlobalNtNtCsaNl6UpbT7bw_4core5alloc9Allocator10deallocateCsdkmdlIU590d_5paste, symObjAddr: 0x228C, symBinAddr: 0x154B4, symSize: 0x80 }
  - { offset: 0x28279, size: 0x8, addend: 0x0, symName: __RNvNtCsiTraAjBDcu4_5alloc5alloc15exchange_mallocCsdkmdlIU590d_5paste, symObjAddr: 0x190C, symBinAddr: 0x14B34, symSize: 0xAC }
  - { offset: 0x28315, size: 0x8, addend: 0x0, symName: __RNvXs1_NtCsiTraAjBDcu4_5alloc5allocNtB5_6GlobalNtNtCsaNl6UpbT7bw_4core5clone5Clone5cloneCsdkmdlIU590d_5paste, symObjAddr: 0x1D50, symBinAddr: 0x14F78, symSize: 0x10 }
  - { offset: 0x28788, size: 0x8, addend: 0x0, symName: __RNvMNtCsiTraAjBDcu4_5alloc5allocNtB2_6Global10alloc_implCsdkmdlIU590d_5paste, symObjAddr: 0xFAC, symBinAddr: 0x141D8, symSize: 0x204 }
  - { offset: 0x28CC0, size: 0x8, addend: 0x0, symName: __RNvMs3_NtNtNtCsaNl6UpbT7bw_4core4iter8adapters8peekableINtB5_8PeekableNtNtCs7yrEGia95Wz_10proc_macro12token_stream8IntoIterE4peekCsdkmdlIU590d_5paste, symObjAddr: 0x16FC, symBinAddr: 0x14928, symSize: 0x70 }
  - { offset: 0x28E8B, size: 0x8, addend: 0x0, symName: __RNvMs6_NtNtNtCsaNl6UpbT7bw_4core5array4iter10iter_innerINtB5_15PolymorphicIterSINtNtNtBb_3mem12maybe_uninit11MaybeUninitcEE9next_backCsdkmdlIU590d_5paste, symObjAddr: 0x176C, symBinAddr: 0x14998, symSize: 0x19C }
  - { offset: 0x2932A, size: 0x8, addend: 0x0, symName: __RINvMNtNtCsaNl6UpbT7bw_4core3fmt2rtNtB3_8Argument9new_debugNtNtCsiTraAjBDcu4_5alloc6string6StringECsdkmdlIU590d_5paste, symObjAddr: 0x0, symBinAddr: 0x15CCC, symSize: 0x2C }
  - { offset: 0x29A97, size: 0x8, addend: 0x0, symName: __RNvNvMNtNtCsaNl6UpbT7bw_4core3ptr9const_ptrPp20offset_from_unsigned18precondition_checkCsdkmdlIU590d_5paste, symObjAddr: 0x160C, symBinAddr: 0x172D8, symSize: 0xAC }
  - { offset: 0x2A1F3, size: 0x8, addend: 0x0, symName: __RNvXsH_NtCsaNl6UpbT7bw_4core3fmtNtB5_5ErrorNtB5_5Debug3fmtCsdkmdlIU590d_5paste, symObjAddr: 0x1F40, symBinAddr: 0x17C04, symSize: 0x40 }
  - { offset: 0x2A70C, size: 0x8, addend: 0x0, symName: __RNvNtNtCsaNl6UpbT7bw_4core4char7convert8from_u32CsdkmdlIU590d_5paste, symObjAddr: 0x14F8, symBinAddr: 0x171C4, symSize: 0x68 }
  - { offset: 0x2A7B0, size: 0x8, addend: 0x0, symName: __RNvNvNtNtCsaNl6UpbT7bw_4core4char7convert18from_u32_unchecked18precondition_checkCsdkmdlIU590d_5paste, symObjAddr: 0x16B8, symBinAddr: 0x17384, symSize: 0x104 }
  - { offset: 0x2B2DD, size: 0x8, addend: 0x0, symName: __RINvXs2V_NtNtCsaNl6UpbT7bw_4core5slice4iterINtB7_4ItercENtNtNtNtBb_4iter6traits8iterator8Iterator3anyNCNvXsL_NtB9_3cmpcNtB1J_13SliceContains14slice_containss_0ECsdkmdlIU590d_5paste, symObjAddr: 0x7E0, symBinAddr: 0x164AC, symSize: 0xB0 }
  - { offset: 0x2B342, size: 0x8, addend: 0x0, symName: __RINvXs2V_NtNtCsaNl6UpbT7bw_4core5slice4iterINtB7_4ItercENtNtNtNtBb_4iter6traits8iterator8Iterator4foldbNCNvXsL_NtB9_3cmpcNtB1L_13SliceContains14slice_contains0ECsdkmdlIU590d_5paste, symObjAddr: 0x890, symBinAddr: 0x1655C, symSize: 0x1CC }
  - { offset: 0x2B49B, size: 0x8, addend: 0x0, symName: __RINvXs2V_NtNtCsaNl6UpbT7bw_4core5slice4iterINtB7_4IterhENtNtNtNtBb_4iter6traits8iterator8Iterator4folduNCINvNtNtBY_8adapters3map8map_foldRhhuNCNvNtCsiTraAjBDcu4_5alloc3str13replace_ascii0NCINvNvBS_8for_each4callhNCINvMsi_NtB2l_3vecINtB3x_3VechE14extend_trustedINtB1I_3MapBF_B2f_EE0E0E0ECsdkmdlIU590d_5paste, symObjAddr: 0xA5C, symBinAddr: 0x16728, symSize: 0x1B8 }
  - { offset: 0x2B5F0, size: 0x8, addend: 0x0, symName: __RNvXs2V_NtNtCsaNl6UpbT7bw_4core5slice4iterINtB6_4IterNtNtCsdkmdlIU590d_5paste7segment7SegmentENtNtNtNtBa_4iter6traits8iterator8Iterator4nextBT_, symObjAddr: 0x1B3C, symBinAddr: 0x17800, symSize: 0xB0 }
  - { offset: 0x2B72A, size: 0x8, addend: 0x0, symName: __RNvXs2V_NtNtCsaNl6UpbT7bw_4core5slice4iterINtB6_4ItercENtNtNtNtBa_4iter6traits8iterator8Iterator4nextCsdkmdlIU590d_5paste, symObjAddr: 0x1BEC, symBinAddr: 0x178B0, symSize: 0xB0 }
  - { offset: 0x2B864, size: 0x8, addend: 0x0, symName: __RNvXs2V_NtNtCsaNl6UpbT7bw_4core5slice4iterINtB6_4IterhENtNtNtNtBa_4iter6traits8iterator8Iterator4nextCsdkmdlIU590d_5paste, symObjAddr: 0x1C9C, symBinAddr: 0x17960, symSize: 0xB0 }
  - { offset: 0x2B99E, size: 0x8, addend: 0x0, symName: __RNvXs2V_NtNtCsaNl6UpbT7bw_4core5slice4iterINtB6_4IterhENtNtNtNtBa_4iter6traits8iterator8Iterator9size_hintCsdkmdlIU590d_5paste, symObjAddr: 0x1D4C, symBinAddr: 0x17A10, symSize: 0x70 }
  - { offset: 0x2BA6D, size: 0x8, addend: 0x0, symName: __RNvXs1q_NtNtCsaNl6UpbT7bw_4core5slice4iterINtB6_11ChunksExactcENtNtNtNtBa_4iter6traits8iterator8Iterator4nextCsdkmdlIU590d_5paste, symObjAddr: 0x19FC, symBinAddr: 0x176C0, symSize: 0x140 }
  - { offset: 0x2BB2B, size: 0x8, addend: 0x0, symName: __RNvXs33_NtNtCsaNl6UpbT7bw_4core5slice4iterINtB6_7IterMutNtNtCsdkmdlIU590d_5paste7segment7SegmentENtNtNtNtBa_4iter6traits8iterator8Iterator4nextBW_, symObjAddr: 0x1E0C, symBinAddr: 0x17AD0, symSize: 0xB0 }
  - { offset: 0x2BD20, size: 0x8, addend: 0x0, symName: __RNvMNtCsaNl6UpbT7bw_4core5sliceSc12chunks_exactCsdkmdlIU590d_5paste, symObjAddr: 0x1244, symBinAddr: 0x16F10, symSize: 0x11C }
  - { offset: 0x2BE0D, size: 0x8, addend: 0x0, symName: __RNvMNtCsaNl6UpbT7bw_4core5sliceSc18split_at_uncheckedCsdkmdlIU590d_5paste, symObjAddr: 0x1360, symBinAddr: 0x1702C, symSize: 0xEC }
  - { offset: 0x2BFB4, size: 0x8, addend: 0x0, symName: __RNvMNtCsaNl6UpbT7bw_4core5sliceSh15copy_from_sliceCsdkmdlIU590d_5paste, symObjAddr: 0x144C, symBinAddr: 0x17118, symSize: 0xAC }
  - { offset: 0x2C05D, size: 0x8, addend: 0x0, symName: __RNvNvMNtCsaNl6UpbT7bw_4core5sliceSp18split_at_unchecked18precondition_checkCsdkmdlIU590d_5paste, symObjAddr: 0x1560, symBinAddr: 0x1722C, symSize: 0xAC }
  - { offset: 0x2C544, size: 0x8, addend: 0x0, symName: __RINvYNtNtCs7yrEGia95Wz_10proc_macro12token_stream8IntoIterNtNtNtNtCsaNl6UpbT7bw_4core4iter6traits8iterator8Iterator4folduNCINvNvBU_8for_each4callNtB7_9TokenTreeNCINvXsi_B7_NtB7_11TokenStreamINtNtBY_7collect6ExtendB2j_E6extendB2K_E0E0ECsdkmdlIU590d_5paste, symObjAddr: 0xC14, symBinAddr: 0x168E0, symSize: 0x108 }
  - { offset: 0x2C5D5, size: 0x8, addend: 0x0, symName: __RINvYNtNtCs7yrEGia95Wz_10proc_macro12token_stream8IntoIterNtNtNtNtCsaNl6UpbT7bw_4core4iter6traits8iterator8Iterator7inspectNCNvNtCsdkmdlIU590d_5paste4attr11expand_attr0EB23_, symObjAddr: 0xD1C, symBinAddr: 0x169E8, symSize: 0x28 }
  - { offset: 0x2C639, size: 0x8, addend: 0x0, symName: __RINvYNtNtCs7yrEGia95Wz_10proc_macro12token_stream8IntoIterNtNtNtNtCsaNl6UpbT7bw_4core4iter6traits8iterator8Iterator8for_eachNCINvXsi_B7_NtB7_11TokenStreamINtNtBY_7collect6ExtendNtB7_9TokenTreeE6extendB2a_E0ECsdkmdlIU590d_5paste, symObjAddr: 0xD44, symBinAddr: 0x16A10, symSize: 0x24 }
  - { offset: 0x2C685, size: 0x8, addend: 0x0, symName: __RINvYNtNtCs7yrEGia95Wz_10proc_macro12token_stream8IntoIterNtNtNtNtCsaNl6UpbT7bw_4core4iter6traits8iterator8Iterator8try_foldjNCINvNvXs7_NtNtB10_8adapters4takeINtB2a_4TakepENtB2a_8SpecTake13spec_for_each5checkNtB7_9TokenTreeNCINvXsi_B7_NtB7_11TokenStreamINtNtBY_7collect6ExtendB3k_E6extendIB2x_QINtNtB2c_8peekable8PeekableB3_EEE0E0INtNtB12_6option6OptionjEECsdkmdlIU590d_5paste, symObjAddr: 0xD68, symBinAddr: 0x16A34, symSize: 0x1AC }
  - { offset: 0x2C73A, size: 0x8, addend: 0x0, symName: __RINvYNtNtCs7yrEGia95Wz_10proc_macro12token_stream8IntoIterNtNtNtNtCsaNl6UpbT7bw_4core4iter6traits8iterator8Iterator8try_folduNCINvNtNtB10_8adapters7inspect16inspect_try_foldNtB7_9TokenTreeuINtNtNtB12_3ops12control_flow11ControlFlowuENCNvNtCsdkmdlIU590d_5paste4attr11expand_attr0NCINvNvBU_3all5checkB2L_NCB3L_s_0E0E0B31_EB3P_, symObjAddr: 0xF14, symBinAddr: 0x16BE0, symSize: 0x148 }
  - { offset: 0x2C7ED, size: 0x8, addend: 0x0, symName: __RINvYNtNtCs7yrEGia95Wz_10proc_macro12token_stream8IntoIterNtNtNtNtCsaNl6UpbT7bw_4core4iter6traits8iterator8Iterator8try_folduNCINvNvXs_NtNtB10_8adapters4takeINtB29_4TakepEBU_8try_fold5checkNtB7_9TokenTreeuINtNtNtB12_3ops9try_trait17NeverShortCircuituENCINvMB3k_B3h_10wrap_mut_2uB31_QNCINvNvBU_8for_each4callB31_NCINvXsg_B7_NtB7_11TokenStreamINtNtBY_7collect12FromIteratorB31_E9from_iterINtNtB2b_5chain5ChainIB2w_B3_EINtNtNtB10_7sources4once4OnceB31_EEE0E0E0E0INtNtB3m_12control_flow11ControlFlowB3h_EECsdkmdlIU590d_5paste, symObjAddr: 0x105C, symBinAddr: 0x16D28, symSize: 0x14C }
  - { offset: 0x2C8A0, size: 0x8, addend: 0x0, symName: __RNvYNtNtCs7yrEGia95Wz_10proc_macro12token_stream8IntoIterNtNtNtNtCsaNl6UpbT7bw_4core4iter6traits8iterator8Iterator4takeCsdkmdlIU590d_5paste, symObjAddr: 0x22D8, symBinAddr: 0x17F9C, symSize: 0x24 }
  - { offset: 0x2C8FB, size: 0x8, addend: 0x0, symName: __RNvYNtNtCs7yrEGia95Wz_10proc_macro12token_stream8IntoIterNtNtNtNtCsaNl6UpbT7bw_4core4iter6traits8iterator8Iterator8peekableCsdkmdlIU590d_5paste, symObjAddr: 0x22FC, symBinAddr: 0x17FC0, symSize: 0x38 }
  - { offset: 0x2CA68, size: 0x8, addend: 0x0, symName: __RNCINvMNtNtCsaNl6UpbT7bw_4core3ops9try_traitINtB5_17NeverShortCircuituE10wrap_mut_2uNtCs7yrEGia95Wz_10proc_macro9TokenTreeQNCINvNvNtNtNtNtB9_4iter6traits8iterator8Iterator8for_each4callB1k_NCINvXsg_B1m_NtB1m_11TokenStreamINtNtB28_7collect12FromIteratorB1k_E9from_iterINtNtNtB2a_8adapters5chain5ChainINtNtB4m_4take4TakeNtNtB1m_12token_stream8IntoIterEINtNtNtB2a_7sources4once4OnceB1k_EEE0E0E0CsdkmdlIU590d_5paste, symObjAddr: 0x11A8, symBinAddr: 0x16E74, symSize: 0x3C }
  - { offset: 0x2CAF1, size: 0x8, addend: 0x0, symName: __RNvXs_NtNtCsaNl6UpbT7bw_4core3ops9try_traitINtB4_17NeverShortCircuituENtB4_3Try11from_outputCsdkmdlIU590d_5paste, symObjAddr: 0x1F80, symBinAddr: 0x17C44, symSize: 0xC }
  - { offset: 0x2CB24, size: 0x8, addend: 0x0, symName: __RNvXs_NtNtCsaNl6UpbT7bw_4core3ops9try_traitINtB4_17NeverShortCircuituENtB4_3Try6branchCsdkmdlIU590d_5paste, symObjAddr: 0x1F8C, symBinAddr: 0x17C50, symSize: 0xC }
  - { offset: 0x2D264, size: 0x8, addend: 0x0, symName: __RNvXNtNtCs7yrEGia95Wz_10proc_macro6bridge3rpcuINtB2_6EncodeuE6encodeCsdkmdlIU590d_5paste, symObjAddr: 0x17BC, symBinAddr: 0x17488, symSize: 0x14 }
  - { offset: 0x2D2AB, size: 0x8, addend: 0x0, symName: __RNvXs9_NtNtCs7yrEGia95Wz_10proc_macro6bridge3rpcTINtB7_11ExpnGlobalsNtNtB7_6client4SpanENtB16_11TokenStreamEINtB5_9DecodeMutuE6decodeCsdkmdlIU590d_5paste, symObjAddr: 0x1EBC, symBinAddr: 0x17B80, symSize: 0x84 }
  - { offset: 0x2D338, size: 0x8, addend: 0x0, symName: __RNvXsa_NtNtCs7yrEGia95Wz_10proc_macro6bridge3rpcRShINtB5_6EncodeuE6encodeCsdkmdlIU590d_5paste, symObjAddr: 0x1F98, symBinAddr: 0x17C5C, symSize: 0xD8 }
  - { offset: 0x2D43A, size: 0x8, addend: 0x0, symName: __RNvXsc_NtNtCs7yrEGia95Wz_10proc_macro6bridge3rpcReINtB5_6EncodeuE6encodeCsdkmdlIU590d_5paste, symObjAddr: 0x2070, symBinAddr: 0x17D34, symSize: 0x38 }
  - { offset: 0x2D522, size: 0x8, addend: 0x0, symName: __RNvXsl_NtNtCs7yrEGia95Wz_10proc_macro6bridge3rpcNtB5_12PanicMessageINtB5_6EncodeuE6encodeCsdkmdlIU590d_5paste, symObjAddr: 0x20A8, symBinAddr: 0x17D6C, symSize: 0x128 }
  - { offset: 0x2D6E8, size: 0x8, addend: 0x0, symName: __RNvXso_NtNtCs7yrEGia95Wz_10proc_macro6bridge3rpcmINtB5_9DecodeMutuE6decodeCsdkmdlIU590d_5paste, symObjAddr: 0x21D0, symBinAddr: 0x17E94, symSize: 0x108 }
  - { offset: 0x2D836, size: 0x8, addend: 0x0, symName: __RNvXs10_NtCs7yrEGia95Wz_10proc_macro6bridgeINtB6_9DelimSpanNtNtB6_6client4SpanENtNtCsaNl6UpbT7bw_4core5clone5Clone5cloneCsdkmdlIU590d_5paste, symObjAddr: 0x17D8, symBinAddr: 0x1749C, symSize: 0xA0 }
  - { offset: 0x2D873, size: 0x8, addend: 0x0, symName: __RNvXs15_NtCs7yrEGia95Wz_10proc_macro6bridgeINtB6_5GroupNtNtB6_6client11TokenStreamNtBT_4SpanENtNtCsaNl6UpbT7bw_4core5clone5Clone5cloneCsdkmdlIU590d_5paste, symObjAddr: 0x1878, symBinAddr: 0x1753C, symSize: 0xD4 }
  - { offset: 0x2D90B, size: 0x8, addend: 0x0, symName: __RNvXs1J_NtCs7yrEGia95Wz_10proc_macro6bridgeINtB6_11ExpnGlobalsNtNtB6_6client4SpanEINtNtB6_3rpc9DecodeMutuE6decodeCsdkmdlIU590d_5paste, symObjAddr: 0x194C, symBinAddr: 0x17610, symSize: 0xB0 }
  - { offset: 0x2E051, size: 0x8, addend: 0x0, symName: __RINvMs3_NtCsiTraAjBDcu4_5alloc3stre7replacecECsdkmdlIU590d_5paste, symObjAddr: 0x2C, symBinAddr: 0x15CF8, symSize: 0x710 }
  - { offset: 0x2EBBD, size: 0x8, addend: 0x0, symName: __RNCNvNtCsiTraAjBDcu4_5alloc3str13replace_ascii0CsdkmdlIU590d_5paste, symObjAddr: 0x11E4, symBinAddr: 0x16EB0, symSize: 0x60 }
  - { offset: 0x2EC17, size: 0x8, addend: 0x0, symName: __RNvXs2_NtCsiTraAjBDcu4_5alloc3streNtNtB7_6borrow7ToOwned8to_ownedCsdkmdlIU590d_5paste, symObjAddr: 0x1DBC, symBinAddr: 0x17A80, symSize: 0x50 }
  - { offset: 0x2ED98, size: 0x8, addend: 0x0, symName: __RINvMNtNtCsaNl6UpbT7bw_4core3fmt2rtNtB3_8Argument9new_debugNtNtCsiTraAjBDcu4_5alloc6string6StringECsdkmdlIU590d_5paste, symObjAddr: 0x0, symBinAddr: 0x15CCC, symSize: 0x2C }
  - { offset: 0x2F26E, size: 0x8, addend: 0x0, symName: __RINvMs_NtNtCsaNl6UpbT7bw_4core3fmt2rtNtB7_9Arguments6new_v1Kj1_KBW_ECsdkmdlIU590d_5paste, symObjAddr: 0x73C, symBinAddr: 0x16408, symSize: 0x50 }
  - { offset: 0x2F2B8, size: 0x8, addend: 0x0, symName: __RINvMs_NtNtCsaNl6UpbT7bw_4core3fmt2rtNtB7_9Arguments6new_v1Kj2_Kj1_ECsdkmdlIU590d_5paste, symObjAddr: 0x78C, symBinAddr: 0x16458, symSize: 0x54 }
  - { offset: 0x2FA90, size: 0x8, addend: 0x0, symName: __RNvMNtCsdkmdlIU590d_5paste5errorNtB2_5Error3new, symObjAddr: 0x2334, symBinAddr: 0x17FF8, symSize: 0x58 }
  - { offset: 0x2FAC0, size: 0x8, addend: 0x0, symName: __RNvMNtCsdkmdlIU590d_5paste5errorNtB2_5Error4new2, symObjAddr: 0x238C, symBinAddr: 0x18050, symSize: 0x84 }
  - { offset: 0x2FB0B, size: 0x8, addend: 0x0, symName: __RNvMNtCsdkmdlIU590d_5paste5errorNtB2_5Error16to_compile_error, symObjAddr: 0x2410, symBinAddr: 0x180D4, symSize: 0x380 }
  - { offset: 0x2FCB5, size: 0x8, addend: 0x0, symName: __RINvMNtCsaNl6UpbT7bw_4core3stre11starts_withNCNvCsdkmdlIU590d_5paste16pasted_to_tokens0EBK_, symObjAddr: 0x0, symBinAddr: 0x18454, symSize: 0x28 }
  - { offset: 0x306BA, size: 0x8, addend: 0x0, symName: __RINvMNtCsaNl6UpbT7bw_4core3stre11starts_withNCNvCsdkmdlIU590d_5paste16pasted_to_tokens0EBK_, symObjAddr: 0x0, symBinAddr: 0x18454, symSize: 0x28 }
  - { offset: 0x30700, size: 0x8, addend: 0x0, symName: __RINvMNtCsaNl6UpbT7bw_4core3stre11starts_withRScECsdkmdlIU590d_5paste, symObjAddr: 0x28, symBinAddr: 0x1847C, symSize: 0x4C }
  - { offset: 0x30746, size: 0x8, addend: 0x0, symName: __RINvMNtCsaNl6UpbT7bw_4core3stre11starts_withReECsdkmdlIU590d_5paste, symObjAddr: 0x74, symBinAddr: 0x184C8, symSize: 0x4C }
  - { offset: 0x3078C, size: 0x8, addend: 0x0, symName: __RINvMNtCsaNl6UpbT7bw_4core3stre11starts_withcECsdkmdlIU590d_5paste, symObjAddr: 0xC0, symBinAddr: 0x18514, symSize: 0x44 }
  - { offset: 0x307DF, size: 0x8, addend: 0x0, symName: __RINvMNtCsaNl6UpbT7bw_4core3stre4findcECsdkmdlIU590d_5paste, symObjAddr: 0x104, symBinAddr: 0x18558, symSize: 0xC8 }
  - { offset: 0x30874, size: 0x8, addend: 0x0, symName: __RINvMNtCsaNl6UpbT7bw_4core3stre5rfindcECsdkmdlIU590d_5paste, symObjAddr: 0x1CC, symBinAddr: 0x18620, symSize: 0xC8 }
  - { offset: 0x308FC, size: 0x8, addend: 0x0, symName: __RINvMNtCsaNl6UpbT7bw_4core3stre8containsRScECsdkmdlIU590d_5paste, symObjAddr: 0x294, symBinAddr: 0x186E8, symSize: 0x4C }
  - { offset: 0x30942, size: 0x8, addend: 0x0, symName: __RINvMNtCsaNl6UpbT7bw_4core3stre9ends_withcECsdkmdlIU590d_5paste, symObjAddr: 0x2E0, symBinAddr: 0x18734, symSize: 0x44 }
  - { offset: 0x30988, size: 0x8, addend: 0x0, symName: __RNvMNtCsaNl6UpbT7bw_4core3stre5charsCsdkmdlIU590d_5paste, symObjAddr: 0x550, symBinAddr: 0x189A4, symSize: 0x20 }
  - { offset: 0x30AFC, size: 0x8, addend: 0x0, symName: __RNvXs0_NtNtCsaNl6UpbT7bw_4core3str7patternNtB5_12CharSearcherNtB5_15ReverseSearcher15next_match_backCsdkmdlIU590d_5paste, symObjAddr: 0xDC8, symBinAddr: 0x1921C, symSize: 0x388 }
  - { offset: 0x31027, size: 0x8, addend: 0x0, symName: __RNvXst_NtNtCsaNl6UpbT7bw_4core3str7patternReNtB5_7Pattern12is_prefix_ofCsdkmdlIU590d_5paste, symObjAddr: 0x2284, symBinAddr: 0x1A6D8, symSize: 0x4C }
  - { offset: 0x3106A, size: 0x8, addend: 0x0, symName: __RNvXs2_NtNtCsaNl6UpbT7bw_4core3str7patterncNtB5_7Pattern12is_prefix_ofCsdkmdlIU590d_5paste, symObjAddr: 0x11E8, symBinAddr: 0x1963C, symSize: 0x78 }
  - { offset: 0x31111, size: 0x8, addend: 0x0, symName: __RNvXs2_NtNtCsaNl6UpbT7bw_4core3str7patterncNtB5_7Pattern12is_suffix_ofCsdkmdlIU590d_5paste, symObjAddr: 0x1260, symBinAddr: 0x196B4, symSize: 0x78 }
  - { offset: 0x311B8, size: 0x8, addend: 0x0, symName: __RNvXs2_NtNtCsaNl6UpbT7bw_4core3str7patterncNtB5_7Pattern13into_searcherCsdkmdlIU590d_5paste, symObjAddr: 0x12D8, symBinAddr: 0x1972C, symSize: 0x114 }
  - { offset: 0x312D0, size: 0x8, addend: 0x0, symName: __RNvXs2_NtNtCsaNl6UpbT7bw_4core3str7patterncNtB5_7Pattern15as_utf8_patternCsdkmdlIU590d_5paste, symObjAddr: 0x13EC, symBinAddr: 0x19840, symSize: 0x34 }
  - { offset: 0x31304, size: 0x8, addend: 0x0, symName: __RNvXs6_NtNtCsaNl6UpbT7bw_4core3str7patternRScNtB5_11MultiCharEq7matchesCsdkmdlIU590d_5paste, symObjAddr: 0x1444, symBinAddr: 0x19898, symSize: 0x48 }
  - { offset: 0x3136D, size: 0x8, addend: 0x0, symName: __RNvXs7_NtNtCsaNl6UpbT7bw_4core3str7patternINtB5_18MultiCharEqPatternNCNvCsdkmdlIU590d_5paste16pasted_to_tokens0ENtB5_7Pattern13into_searcherB18_, symObjAddr: 0x148C, symBinAddr: 0x198E0, symSize: 0x90 }
  - { offset: 0x313C9, size: 0x8, addend: 0x0, symName: __RNvXs7_NtNtCsaNl6UpbT7bw_4core3str7patternINtB5_18MultiCharEqPatternRScENtB5_7Pattern13into_searcherCsdkmdlIU590d_5paste, symObjAddr: 0x151C, symBinAddr: 0x19970, symSize: 0xC0 }
  - { offset: 0x3142B, size: 0x8, addend: 0x0, symName: __RNvXs8_NtNtCsaNl6UpbT7bw_4core3str7patternINtB5_19MultiCharEqSearcherNCNvCsdkmdlIU590d_5paste16pasted_to_tokens0ENtB5_8Searcher4nextB19_, symObjAddr: 0x15DC, symBinAddr: 0x19A30, symSize: 0x138 }
  - { offset: 0x3154B, size: 0x8, addend: 0x0, symName: __RNvXs8_NtNtCsaNl6UpbT7bw_4core3str7patternINtB5_19MultiCharEqSearcherRScENtB5_8Searcher4nextCsdkmdlIU590d_5paste, symObjAddr: 0x1714, symBinAddr: 0x19B68, symSize: 0x138 }
  - { offset: 0x31671, size: 0x8, addend: 0x0, symName: __RNvXs_NtNtCsaNl6UpbT7bw_4core3str7patternNtB4_12CharSearcherNtB4_8Searcher10next_matchCsdkmdlIU590d_5paste, symObjAddr: 0x184C, symBinAddr: 0x19CA0, symSize: 0x380 }
  - { offset: 0x31AD5, size: 0x8, addend: 0x0, symName: __RNvXs_NtNtCsaNl6UpbT7bw_4core3str7patternNtB4_12CharSearcherNtB4_8Searcher8haystackCsdkmdlIU590d_5paste, symObjAddr: 0x1BCC, symBinAddr: 0x1A020, symSize: 0x20 }
  - { offset: 0x31B09, size: 0x8, addend: 0x0, symName: __RNvXsm_NtNtCsaNl6UpbT7bw_4core3str7patternRScNtB5_7Pattern12is_prefix_ofCsdkmdlIU590d_5paste, symObjAddr: 0x20CC, symBinAddr: 0x1A520, symSize: 0x34 }
  - { offset: 0x31B46, size: 0x8, addend: 0x0, symName: __RNvXsm_NtNtCsaNl6UpbT7bw_4core3str7patternRScNtB5_7Pattern15is_contained_inCsdkmdlIU590d_5paste, symObjAddr: 0x2100, symBinAddr: 0x1A554, symSize: 0x34 }
  - { offset: 0x31B89, size: 0x8, addend: 0x0, symName: __RNvYINtNtNtCsaNl6UpbT7bw_4core3str7pattern18MultiCharEqPatternNCNvCsdkmdlIU590d_5paste16pasted_to_tokens0ENtB5_7Pattern12is_prefix_ofB12_, symObjAddr: 0x22D0, symBinAddr: 0x1A724, symSize: 0x88 }
  - { offset: 0x31BCC, size: 0x8, addend: 0x0, symName: __RNvYINtNtNtCsaNl6UpbT7bw_4core3str7pattern18MultiCharEqPatternRScENtB5_7Pattern12is_prefix_ofCsdkmdlIU590d_5paste, symObjAddr: 0x2358, symBinAddr: 0x1A7AC, symSize: 0x94 }
  - { offset: 0x31C0F, size: 0x8, addend: 0x0, symName: __RNvYINtNtNtCsaNl6UpbT7bw_4core3str7pattern18MultiCharEqPatternRScENtB5_7Pattern15is_contained_inCsdkmdlIU590d_5paste, symObjAddr: 0x23EC, symBinAddr: 0x1A840, symSize: 0x78 }
  - { offset: 0x31C75, size: 0x8, addend: 0x0, symName: __RNvYINtNtNtCsaNl6UpbT7bw_4core3str7pattern19MultiCharEqSearcherRScENtB5_8Searcher10next_matchCsdkmdlIU590d_5paste, symObjAddr: 0x2464, symBinAddr: 0x1A8B8, symSize: 0x90 }
  - { offset: 0x32C80, size: 0x8, addend: 0x0, symName: __RNvNtNtCsaNl6UpbT7bw_4core5slice6memchr6memchrCsdkmdlIU590d_5paste, symObjAddr: 0xCA0, symBinAddr: 0x190F4, symSize: 0x114 }
  - { offset: 0x32FCB, size: 0x8, addend: 0x0, symName: __RNvXsn_NtNtCsaNl6UpbT7bw_4core5panic11unwind_safeINtB5_16AssertUnwindSafeNCINvNtNtCs7yrEGia95Wz_10proc_macro6bridge6client10run_clientNtB1e_11TokenStreamINtNtB9_6option6OptionB28_ENCNCINvMs6_B1e_INtB1e_6ClientNtB1i_11TokenStreamB3l_E7expand1NvCsdkmdlIU590d_5paste4exprE00E0EINtNtNtB9_3ops8function6FnOnceuE9call_onceB3T_, symObjAddr: 0x21DC, symBinAddr: 0x1A630, symSize: 0x38 }
  - { offset: 0x33023, size: 0x8, addend: 0x0, symName: __RNvXsn_NtNtCsaNl6UpbT7bw_4core5panic11unwind_safeINtB5_16AssertUnwindSafeNCINvNtNtCs7yrEGia95Wz_10proc_macro6bridge6client10run_clientNtB1e_11TokenStreamINtNtB9_6option6OptionB28_ENCNCINvMs6_B1e_INtB1e_6ClientNtB1i_11TokenStreamB3l_E7expand1NvCsdkmdlIU590d_5paste4itemE00E0EINtNtNtB9_3ops8function6FnOnceuE9call_onceB3T_, symObjAddr: 0x2214, symBinAddr: 0x1A668, symSize: 0x38 }
  - { offset: 0x3307B, size: 0x8, addend: 0x0, symName: __RNvXsn_NtNtCsaNl6UpbT7bw_4core5panic11unwind_safeINtB5_16AssertUnwindSafeNCINvNtNtCs7yrEGia95Wz_10proc_macro6bridge6client10run_clientNtB1e_11TokenStreamINtNtB9_6option6OptionB28_ENCNCINvMs6_B1e_INtB1e_6ClientNtB1i_11TokenStreamB3l_E7expand1NvCsdkmdlIU590d_5paste5pasteE00E0EINtNtNtB9_3ops8function6FnOnceuE9call_onceB3T_, symObjAddr: 0x224C, symBinAddr: 0x1A6A0, symSize: 0x38 }
  - { offset: 0x3475D, size: 0x8, addend: 0x0, symName: __RINvXsd_NtCsiTraAjBDcu4_5alloc3vecINtB6_3VechEINtNtNtNtCsaNl6UpbT7bw_4core4iter6traits7collect12FromIteratorhE9from_iterINtNtNtBP_8adapters3map3MapINtNtNtBR_5slice4iter4IterhENCNvNtB8_3str13replace_ascii0EECsdkmdlIU590d_5paste, symObjAddr: 0x49C, symBinAddr: 0x188F0, symSize: 0x3C }
  - { offset: 0x347A4, size: 0x8, addend: 0x0, symName: __RINvXsh_NtCsiTraAjBDcu4_5alloc3vecINtB6_3VecNtNtCsdkmdlIU590d_5paste7segment7SegmentEINtNtNtNtCsaNl6UpbT7bw_4core4iter6traits7collect6ExtendBG_E6extendBw_EBK_, symObjAddr: 0x4D8, symBinAddr: 0x1892C, symSize: 0x48 }
  - { offset: 0x34804, size: 0x8, addend: 0x0, symName: __RNCINvMsi_NtCsiTraAjBDcu4_5alloc3vecINtB8_3VechE14extend_trustedINtNtNtNtCsaNl6UpbT7bw_4core4iter8adapters3map3MapINtNtNtB19_5slice4iter4IterhENCNvNtBa_3str13replace_ascii0EE0CsdkmdlIU590d_5paste, symObjAddr: 0x520, symBinAddr: 0x18974, symSize: 0x30 }
  - { offset: 0x34B9A, size: 0x8, addend: 0x0, symName: __RNvXNtNtCsiTraAjBDcu4_5alloc3vec14spec_from_iterINtB4_3VechEINtB2_12SpecFromIterhINtNtNtNtCsaNl6UpbT7bw_4core4iter8adapters3map3MapINtNtNtB1q_5slice4iter4IterhENCNvNtB6_3str13replace_ascii0EE9from_iterCsdkmdlIU590d_5paste, symObjAddr: 0xDB4, symBinAddr: 0x19208, symSize: 0x14 }
  - { offset: 0x34D37, size: 0x8, addend: 0x0, symName: __RNvXs0_NtNtCsiTraAjBDcu4_5alloc3vec11spec_extendINtB7_3VecNtNtCsdkmdlIU590d_5paste7segment7SegmentEINtB5_10SpecExtendBU_INtNtB7_9into_iter8IntoIterBU_EE11spec_extendBY_, symObjAddr: 0x1150, symBinAddr: 0x195A4, symSize: 0x98 }
  - { offset: 0x34DA3, size: 0x8, addend: 0x0, symName: __RNvXs_NtNtCsiTraAjBDcu4_5alloc3vec11spec_extendINtB6_3VechEINtB4_10SpecExtendhINtNtNtNtCsaNl6UpbT7bw_4core4iter8adapters3map3MapINtNtNtB1n_5slice4iter4IterhENCNvNtB8_3str13replace_ascii0EE11spec_extendCsdkmdlIU590d_5paste, symObjAddr: 0x1BEC, symBinAddr: 0x1A040, symSize: 0x24 }
  - { offset: 0x34DFC, size: 0x8, addend: 0x0, symName: __RNvXs6_NtCsiTraAjBDcu4_5alloc3vecINtB5_3VecNtNtCsdkmdlIU590d_5paste7segment7SegmentENtNtNtCsaNl6UpbT7bw_4core3ops5deref5Deref5derefBJ_, symObjAddr: 0x1420, symBinAddr: 0x19874, symSize: 0x24 }
  - { offset: 0x34E47, size: 0x8, addend: 0x0, symName: __RNvXs_NtNtCsiTraAjBDcu4_5alloc3vec21spec_from_iter_nestedINtB6_3VechEINtB4_18SpecFromIterNestedhINtNtNtNtCsaNl6UpbT7bw_4core4iter8adapters3map3MapINtNtNtB1F_5slice4iter4IterhENCNvNtB8_3str13replace_ascii0EE9from_iterCsdkmdlIU590d_5paste, symObjAddr: 0x1C10, symBinAddr: 0x1A064, symSize: 0x164 }
  - { offset: 0x34F80, size: 0x8, addend: 0x0, symName: __RNvXse_NtCsiTraAjBDcu4_5alloc3vecINtB5_3VecNtCs7yrEGia95Wz_10proc_macro9TokenTreeENtNtNtNtCsaNl6UpbT7bw_4core4iter6traits7collect12IntoIterator9into_iterCsdkmdlIU590d_5paste, symObjAddr: 0x1D74, symBinAddr: 0x1A1C8, symSize: 0xE4 }
  - { offset: 0x35212, size: 0x8, addend: 0x0, symName: __RNvXse_NtCsiTraAjBDcu4_5alloc3vecINtB5_3VecNtNtB7_6string6StringENtNtNtNtCsaNl6UpbT7bw_4core4iter6traits7collect12IntoIterator9into_iterCsdkmdlIU590d_5paste, symObjAddr: 0x1E58, symBinAddr: 0x1A2AC, symSize: 0xE4 }
  - { offset: 0x354A4, size: 0x8, addend: 0x0, symName: __RNvXse_NtCsiTraAjBDcu4_5alloc3vecINtB5_3VecNtNtCsdkmdlIU590d_5paste7segment7SegmentENtNtNtNtCsaNl6UpbT7bw_4core4iter6traits7collect12IntoIterator9into_iterBJ_, symObjAddr: 0x1F3C, symBinAddr: 0x1A390, symSize: 0xE4 }
  - { offset: 0x35772, size: 0x8, addend: 0x0, symName: __RNvXsg_NtCsiTraAjBDcu4_5alloc3vecQINtB5_3VecNtNtCsdkmdlIU590d_5paste7segment7SegmentENtNtNtNtCsaNl6UpbT7bw_4core4iter6traits7collect12IntoIterator9into_iterBK_, symObjAddr: 0x2020, symBinAddr: 0x1A474, symSize: 0xAC }
  - { offset: 0x359E3, size: 0x8, addend: 0x0, symName: __RNvXsn_NtCsiTraAjBDcu4_5alloc3vecINtB5_3VecINtNtCs7yrEGia95Wz_10proc_macro6bridge9TokenTreeNtNtBI_6client11TokenStreamNtB1t_4SpanNtNtBI_6symbol6SymbolEENtNtNtCsaNl6UpbT7bw_4core3ops4drop4Drop4dropCsdkmdlIU590d_5paste, symObjAddr: 0x2134, symBinAddr: 0x1A588, symSize: 0x38 }
  - { offset: 0x35A93, size: 0x8, addend: 0x0, symName: __RNvXsn_NtCsiTraAjBDcu4_5alloc3vecINtB5_3VecNtNtB7_6string6StringENtNtNtCsaNl6UpbT7bw_4core3ops4drop4Drop4dropCsdkmdlIU590d_5paste, symObjAddr: 0x216C, symBinAddr: 0x1A5C0, symSize: 0x38 }
  - { offset: 0x35B43, size: 0x8, addend: 0x0, symName: __RNvXsn_NtCsiTraAjBDcu4_5alloc3vecINtB5_3VecNtNtCsdkmdlIU590d_5paste7segment7SegmentENtNtNtCsaNl6UpbT7bw_4core3ops4drop4Drop4dropBJ_, symObjAddr: 0x21A4, symBinAddr: 0x1A5F8, symSize: 0x38 }
  - { offset: 0x35D53, size: 0x8, addend: 0x0, symName: __RINvMsi_NtCsiTraAjBDcu4_5alloc3vecINtB6_3VechE14extend_trustedINtNtNtNtCsaNl6UpbT7bw_4core4iter8adapters3map3MapINtNtNtB17_5slice4iter4IterhENCNvNtB8_3str13replace_ascii0EECsdkmdlIU590d_5paste, symObjAddr: 0x324, symBinAddr: 0x18778, symSize: 0x178 }
  - { offset: 0x35F7C, size: 0x8, addend: 0x0, symName: __RNvMNtCsiTraAjBDcu4_5alloc3vecINtB2_3VecNtNtB4_6string6StringE3newCsdkmdlIU590d_5paste, symObjAddr: 0x570, symBinAddr: 0x189C4, symSize: 0x14 }
  - { offset: 0x360AA, size: 0x8, addend: 0x0, symName: __RNvMNtCsiTraAjBDcu4_5alloc3vecINtB2_3VecNtNtCsdkmdlIU590d_5paste7segment7SegmentE3newBG_, symObjAddr: 0x584, symBinAddr: 0x189D8, symSize: 0x14 }
  - { offset: 0x36221, size: 0x8, addend: 0x0, symName: __RNvMs_NtCsiTraAjBDcu4_5alloc3vecINtB4_3VecNtNtB6_6string6StringE3popCsdkmdlIU590d_5paste, symObjAddr: 0x598, symBinAddr: 0x189EC, symSize: 0x108 }
  - { offset: 0x36495, size: 0x8, addend: 0x0, symName: __RNvMs_NtCsiTraAjBDcu4_5alloc3vecINtB4_3VecNtNtB6_6string6StringE4pushCsdkmdlIU590d_5paste, symObjAddr: 0x6A0, symBinAddr: 0x18AF4, symSize: 0x108 }
  - { offset: 0x36756, size: 0x8, addend: 0x0, symName: __RNvMs_NtCsiTraAjBDcu4_5alloc3vecINtB4_3VecNtNtCsdkmdlIU590d_5paste7segment7SegmentE15append_elementsBI_, symObjAddr: 0x7A8, symBinAddr: 0x18BFC, symSize: 0xE8 }
  - { offset: 0x369C7, size: 0x8, addend: 0x0, symName: __RNvMs_NtCsiTraAjBDcu4_5alloc3vecINtB4_3VecNtNtCsdkmdlIU590d_5paste7segment7SegmentE4pushBI_, symObjAddr: 0x890, symBinAddr: 0x18CE4, symSize: 0x118 }
  - { offset: 0x36CAC, size: 0x8, addend: 0x0, symName: __RNvMs_NtCsiTraAjBDcu4_5alloc3vecINtB4_3VecNtNtCsdkmdlIU590d_5paste7segment7SegmentE7reserveBI_, symObjAddr: 0x9A8, symBinAddr: 0x18DFC, symSize: 0xC8 }
  - { offset: 0x36EA1, size: 0x8, addend: 0x0, symName: __RNvMs_NtCsiTraAjBDcu4_5alloc3vecINtB4_3VecNtNtCsdkmdlIU590d_5paste7segment7SegmentE8as_sliceBI_, symObjAddr: 0xA70, symBinAddr: 0x18EC4, symSize: 0x6C }
  - { offset: 0x3703C, size: 0x8, addend: 0x0, symName: __RNvMs_NtCsiTraAjBDcu4_5alloc3vecINtB4_3VechE5clearCsdkmdlIU590d_5paste, symObjAddr: 0xADC, symBinAddr: 0x18F30, symSize: 0x7C }
  - { offset: 0x37344, size: 0x8, addend: 0x0, symName: __RNvMs_NtCsiTraAjBDcu4_5alloc3vecINtB4_3VechE9split_offCsdkmdlIU590d_5paste, symObjAddr: 0xB58, symBinAddr: 0x18FAC, symSize: 0x148 }
  - { offset: 0x38049, size: 0x8, addend: 0x0, symName: ___llvm_profile_get_magic, symObjAddr: 0x28, symBinAddr: 0x1A960, symSize: 0x14 }
  - { offset: 0x3806A, size: 0x8, addend: 0x0, symName: ___llvm_profile_get_num_padding_bytes, symObjAddr: 0x44, symBinAddr: 0x1A974, symSize: 0xC }
  - { offset: 0x38072, size: 0x8, addend: 0x0, symName: ___llvm_profile_get_version, symObjAddr: 0x50, symBinAddr: 0x1A980, symSize: 0xC }
  - { offset: 0x3809B, size: 0x8, addend: 0x0, symName: ___llvm_profile_get_version, symObjAddr: 0x50, symBinAddr: 0x1A980, symSize: 0xC }
  - { offset: 0x38110, size: 0x8, addend: 0x0, symName: ___llvm_profile_is_continuous_mode_enabled, symObjAddr: 0x0, symBinAddr: 0x1A98C, symSize: 0x20 }
  - { offset: 0x3812D, size: 0x8, addend: 0x0, symName: __MergedGlobals, symObjAddr: 0x3E20, symBinAddr: 0x88D28, symSize: 0x0 }
  - { offset: 0x3814F, size: 0x8, addend: 0x0, symName: __MergedGlobals, symObjAddr: 0x3E20, symBinAddr: 0x88D28, symSize: 0x0 }
  - { offset: 0x3817F, size: 0x8, addend: 0x0, symName: ___llvm_profile_is_continuous_mode_enabled, symObjAddr: 0x0, symBinAddr: 0x1A98C, symSize: 0x20 }
  - { offset: 0x38187, size: 0x8, addend: 0x0, symName: ___llvm_profile_enable_continuous_mode, symObjAddr: 0x20, symBinAddr: 0x1A9AC, symSize: 0x10 }
  - { offset: 0x38197, size: 0x8, addend: 0x0, symName: ___llvm_profile_enable_continuous_mode, symObjAddr: 0x20, symBinAddr: 0x1A9AC, symSize: 0x10 }
  - { offset: 0x3819F, size: 0x8, addend: 0x0, symName: ___llvm_profile_disable_continuous_mode, symObjAddr: 0x30, symBinAddr: 0x1A9BC, symSize: 0xC }
  - { offset: 0x381B4, size: 0x8, addend: 0x0, symName: ___llvm_profile_disable_continuous_mode, symObjAddr: 0x30, symBinAddr: 0x1A9BC, symSize: 0xC }
  - { offset: 0x381BC, size: 0x8, addend: 0x0, symName: ___llvm_profile_set_page_size, symObjAddr: 0x3C, symBinAddr: 0x1A9C8, symSize: 0xC }
  - { offset: 0x381D1, size: 0x8, addend: 0x0, symName: ___llvm_profile_set_page_size, symObjAddr: 0x3C, symBinAddr: 0x1A9C8, symSize: 0xC }
  - { offset: 0x381D9, size: 0x8, addend: 0x0, symName: ___llvm_profile_get_size_for_buffer, symObjAddr: 0x48, symBinAddr: 0x1A9D4, symSize: 0xC4 }
  - { offset: 0x381FC, size: 0x8, addend: 0x0, symName: ___llvm_profile_get_size_for_buffer, symObjAddr: 0x48, symBinAddr: 0x1A9D4, symSize: 0xC4 }
  - { offset: 0x38204, size: 0x8, addend: 0x0, symName: ___llvm_profile_get_size_for_buffer_internal, symObjAddr: 0x10C, symBinAddr: 0x1AA98, symSize: 0x1C0 }
  - { offset: 0x38667, size: 0x8, addend: 0x0, symName: ___llvm_profile_get_size_for_buffer_internal, symObjAddr: 0x10C, symBinAddr: 0x1AA98, symSize: 0x1C0 }
  - { offset: 0x3866F, size: 0x8, addend: 0x0, symName: ___llvm_profile_get_num_data, symObjAddr: 0x2CC, symBinAddr: 0x1AC58, symSize: 0x10 }
  - { offset: 0x38A5E, size: 0x8, addend: 0x0, symName: ___llvm_profile_get_num_data, symObjAddr: 0x2CC, symBinAddr: 0x1AC58, symSize: 0x10 }
  - { offset: 0x38A66, size: 0x8, addend: 0x0, symName: ___llvm_profile_get_data_size, symObjAddr: 0x2DC, symBinAddr: 0x1AC68, symSize: 0x10 }
  - { offset: 0x38A97, size: 0x8, addend: 0x0, symName: ___llvm_profile_get_data_size, symObjAddr: 0x2DC, symBinAddr: 0x1AC68, symSize: 0x10 }
  - { offset: 0x38A9F, size: 0x8, addend: 0x0, symName: ___llvm_profile_get_num_vtable, symObjAddr: 0x2EC, symBinAddr: 0x1AC78, symSize: 0x18 }
  - { offset: 0x38AC3, size: 0x8, addend: 0x0, symName: ___llvm_profile_get_data_size, symObjAddr: 0x2DC, symBinAddr: 0x1AC68, symSize: 0x10 }
  - { offset: 0x38AF5, size: 0x8, addend: 0x0, symName: ___llvm_profile_get_num_vtable, symObjAddr: 0x2EC, symBinAddr: 0x1AC78, symSize: 0x18 }
  - { offset: 0x38AFD, size: 0x8, addend: 0x0, symName: ___llvm_profile_get_vtable_section_size, symObjAddr: 0x304, symBinAddr: 0x1AC90, symSize: 0x8 }
  - { offset: 0x38B4F, size: 0x8, addend: 0x0, symName: ___llvm_profile_get_vtable_section_size, symObjAddr: 0x304, symBinAddr: 0x1AC90, symSize: 0x8 }
  - { offset: 0x38B57, size: 0x8, addend: 0x0, symName: ___llvm_profile_counter_entry_size, symObjAddr: 0x30C, symBinAddr: 0x1AC98, symSize: 0x1C }
  - { offset: 0x38B78, size: 0x8, addend: 0x0, symName: ___llvm_profile_counter_entry_size, symObjAddr: 0x30C, symBinAddr: 0x1AC98, symSize: 0x1C }
  - { offset: 0x38B80, size: 0x8, addend: 0x0, symName: ___llvm_profile_get_num_counters, symObjAddr: 0x328, symBinAddr: 0x1ACB4, symSize: 0x48 }
  - { offset: 0x38B90, size: 0x8, addend: 0x0, symName: ___llvm_profile_get_num_counters, symObjAddr: 0x328, symBinAddr: 0x1ACB4, symSize: 0x48 }
  - { offset: 0x38B98, size: 0x8, addend: 0x0, symName: ___llvm_profile_get_counters_size, symObjAddr: 0x370, symBinAddr: 0x1ACFC, symSize: 0x5C }
  - { offset: 0x38BFD, size: 0x8, addend: 0x0, symName: ___llvm_profile_get_counters_size, symObjAddr: 0x370, symBinAddr: 0x1ACFC, symSize: 0x5C }
  - { offset: 0x38C05, size: 0x8, addend: 0x0, symName: ___llvm_profile_get_num_bitmap_bytes, symObjAddr: 0x3CC, symBinAddr: 0x1AD58, symSize: 0x8 }
  - { offset: 0x38CA9, size: 0x8, addend: 0x0, symName: ___llvm_profile_get_num_bitmap_bytes, symObjAddr: 0x3CC, symBinAddr: 0x1AD58, symSize: 0x8 }
  - { offset: 0x38CB1, size: 0x8, addend: 0x0, symName: ___llvm_profile_get_name_size, symObjAddr: 0x3D4, symBinAddr: 0x1AD60, symSize: 0x8 }
  - { offset: 0x38CD2, size: 0x8, addend: 0x0, symName: ___llvm_profile_get_name_size, symObjAddr: 0x3D4, symBinAddr: 0x1AD60, symSize: 0x8 }
  - { offset: 0x38CDA, size: 0x8, addend: 0x0, symName: ___llvm_profile_get_padding_sizes_for_counters, symObjAddr: 0x3DC, symBinAddr: 0x1AD68, symSize: 0x15C }
  - { offset: 0x38CFB, size: 0x8, addend: 0x0, symName: ___llvm_profile_get_padding_sizes_for_counters, symObjAddr: 0x3DC, symBinAddr: 0x1AD68, symSize: 0x15C }
  - { offset: 0x38D03, size: 0x8, addend: 0x0, symName: _initBufferWriter, symObjAddr: 0x538, symBinAddr: 0x1AEC4, symSize: 0x10 }
  - { offset: 0x38E57, size: 0x8, addend: 0x0, symName: _initBufferWriter, symObjAddr: 0x538, symBinAddr: 0x1AEC4, symSize: 0x10 }
  - { offset: 0x38FC1, size: 0x8, addend: 0x0, symName: __MergedGlobals, symObjAddr: 0xA4D8, symBinAddr: 0x88D38, symSize: 0x0 }
  - { offset: 0x390DD, size: 0x8, addend: 0x0, symName: __MergedGlobals, symObjAddr: 0xA4D8, symBinAddr: 0x88D38, symSize: 0x0 }
  - { offset: 0x3930D, size: 0x8, addend: 0x0, symName: __MergedGlobals, symObjAddr: 0xA4D8, symBinAddr: 0x88D38, symSize: 0x0 }
  - { offset: 0x39433, size: 0x8, addend: 0x0, symName: _getCurFilenameLength, symObjAddr: 0x1C8, symBinAddr: 0x1AED4, symSize: 0x108 }
  - { offset: 0x3943B, size: 0x8, addend: 0x0, symName: _getCurFilename, symObjAddr: 0x2D0, symBinAddr: 0x1AFDC, symSize: 0x2B8 }
  - { offset: 0x394BE, size: 0x8, addend: 0x0, symName: _getCurFilename, symObjAddr: 0x2D0, symBinAddr: 0x1AFDC, symSize: 0x2B8 }
  - { offset: 0x396EF, size: 0x8, addend: 0x0, symName: _parseAndSetFilename, symObjAddr: 0x688, symBinAddr: 0x1B294, symSize: 0x4B8 }
  - { offset: 0x396F7, size: 0x8, addend: 0x0, symName: ___llvm_profile_initialize, symObjAddr: 0xB40, symBinAddr: 0x1B74C, symSize: 0xB8 }
  - { offset: 0x398DF, size: 0x8, addend: 0x0, symName: ___llvm_profile_initialize, symObjAddr: 0xB40, symBinAddr: 0x1B74C, symSize: 0xB8 }
  - { offset: 0x3995B, size: 0x8, addend: 0x0, symName: ___llvm_profile_write_file, symObjAddr: 0xC74, symBinAddr: 0x1B804, symSize: 0x1B4 }
  - { offset: 0x39963, size: 0x8, addend: 0x0, symName: _writeFile, symObjAddr: 0xE28, symBinAddr: 0x1B9B8, symSize: 0x294 }
  - { offset: 0x39ABD, size: 0x8, addend: 0x0, symName: _writeFile, symObjAddr: 0xE28, symBinAddr: 0x1B9B8, symSize: 0x294 }
  - { offset: 0x39C31, size: 0x8, addend: 0x0, symName: _writeFileWithoutReturn, symObjAddr: 0x138C, symBinAddr: 0x1BC4C, symSize: 0x4 }
  - { offset: 0x39C67, size: 0x8, addend: 0x0, symName: _getProfileFileSizeForMerging, symObjAddr: 0x1574, symBinAddr: 0x1BC50, symSize: 0x110 }
  - { offset: 0x39C6F, size: 0x8, addend: 0x0, symName: _mmapProfileForMerging, symObjAddr: 0x1684, symBinAddr: 0x1BD60, symSize: 0xBC }
  - { offset: 0x39CAC, size: 0x8, addend: 0x0, symName: _mmapProfileForMerging, symObjAddr: 0x1684, symBinAddr: 0x1BD60, symSize: 0xBC }
  - { offset: 0x39CB4, size: 0x8, addend: 0x0, symName: _mmapForContinuousMode, symObjAddr: 0x1740, symBinAddr: 0x1BE1C, symSize: 0x264 }
  - { offset: 0x39D02, size: 0x8, addend: 0x0, symName: _mmapForContinuousMode, symObjAddr: 0x1740, symBinAddr: 0x1BE1C, symSize: 0x264 }
  - { offset: 0x39D0A, size: 0x8, addend: 0x0, symName: _fileWriter, symObjAddr: 0x19A4, symBinAddr: 0x1C080, symSize: 0x140 }
  - { offset: 0x39EC9, size: 0x8, addend: 0x0, symName: _fileWriter, symObjAddr: 0x19A4, symBinAddr: 0x1C080, symSize: 0x140 }
  - { offset: 0x39ED1, size: 0x8, addend: 0x0, symName: _truncateCurrentFile, symObjAddr: 0x1AE4, symBinAddr: 0x1C1C0, symSize: 0xD8 }
  - { offset: 0x39F99, size: 0x8, addend: 0x0, symName: _truncateCurrentFile, symObjAddr: 0x1AE4, symBinAddr: 0x1C1C0, symSize: 0xD8 }
  - { offset: 0x39FA1, size: 0x8, addend: 0x0, symName: _initializeProfileForContinuousMode, symObjAddr: 0x1BBC, symBinAddr: 0x1C298, symSize: 0x25C }
  - { offset: 0x3A03F, size: 0x8, addend: 0x0, symName: _initializeProfileForContinuousMode, symObjAddr: 0x1BBC, symBinAddr: 0x1C298, symSize: 0x25C }
  - { offset: 0x3A047, size: 0x8, addend: 0x0, symName: _createProfileDir, symObjAddr: 0x1E18, symBinAddr: 0x1C4F4, symSize: 0xA4 }
  - { offset: 0x3A214, size: 0x8, addend: 0x0, symName: _createProfileDir, symObjAddr: 0x1E18, symBinAddr: 0x1C4F4, symSize: 0xA4 }
  - { offset: 0x3A21C, size: 0x8, addend: 0x0, symName: _parseAndSetFilename.cold.1, symObjAddr: 0x1EBC, symBinAddr: 0x55C54, symSize: 0x24 }
  - { offset: 0x3A279, size: 0x8, addend: 0x0, symName: _parseAndSetFilename.cold.1, symObjAddr: 0x1EBC, symBinAddr: 0x55C54, symSize: 0x24 }
  - { offset: 0x3A281, size: 0x8, addend: 0x0, symName: _parseAndSetFilename.cold.2, symObjAddr: 0x1EE0, symBinAddr: 0x55C78, symSize: 0x24 }
  - { offset: 0x3A2A3, size: 0x8, addend: 0x0, symName: _parseAndSetFilename.cold.2, symObjAddr: 0x1EE0, symBinAddr: 0x55C78, symSize: 0x24 }
  - { offset: 0x3A2BD, size: 0x8, addend: 0x0, symName: _parseAndSetFilename.cold.2, symObjAddr: 0x1EE0, symBinAddr: 0x55C78, symSize: 0x24 }
  - { offset: 0x3A2CD, size: 0x8, addend: 0x0, symName: _parseAndSetFilename.cold.2, symObjAddr: 0x1EE0, symBinAddr: 0x55C78, symSize: 0x24 }
  - { offset: 0x3A432, size: 0x8, addend: 0x0, symName: _lprofProfileDumped, symObjAddr: 0x0, symBinAddr: 0x1C598, symSize: 0xC }
  - { offset: 0x3A44F, size: 0x8, addend: 0x0, symName: _ProfileDumped, symObjAddr: 0x4E0, symBinAddr: 0x88E08, symSize: 0x0 }
  - { offset: 0x3A45F, size: 0x8, addend: 0x0, symName: _lprofProfileDumped, symObjAddr: 0x0, symBinAddr: 0x1C598, symSize: 0xC }
  - { offset: 0x3A4A7, size: 0x8, addend: 0x0, symName: _lprofGetLoadModuleSignature, symObjAddr: 0x0, symBinAddr: 0x1C5A4, symSize: 0xD0 }
  - { offset: 0x3A4D4, size: 0x8, addend: 0x0, symName: _VPMergeHook, symBinAddr: 0x88D20, symSize: 0x0 }
  - { offset: 0x3A73C, size: 0x8, addend: 0x0, symName: _lprofGetLoadModuleSignature, symObjAddr: 0x0, symBinAddr: 0x1C5A4, symSize: 0xD0 }
  - { offset: 0x3A744, size: 0x8, addend: 0x0, symName: ___llvm_profile_check_compatibility, symObjAddr: 0xD0, symBinAddr: 0x1C674, symSize: 0x1CC }
  - { offset: 0x3A7B4, size: 0x8, addend: 0x0, symName: ___llvm_profile_check_compatibility, symObjAddr: 0xD0, symBinAddr: 0x1C674, symSize: 0x1CC }
  - { offset: 0x3A7BC, size: 0x8, addend: 0x0, symName: ___llvm_profile_merge_from_buffer, symObjAddr: 0x29C, symBinAddr: 0x1C840, symSize: 0x3E8 }
  - { offset: 0x3A894, size: 0x8, addend: 0x0, symName: ___llvm_profile_merge_from_buffer, symObjAddr: 0x29C, symBinAddr: 0x1C840, symSize: 0x3E8 }
  - { offset: 0x3AB06, size: 0x8, addend: 0x0, symName: _lprofMergeValueProfData, symObjAddr: 0x0, symBinAddr: 0x1CC28, symSize: 0xF0 }
  - { offset: 0x3AB17, size: 0x8, addend: 0x0, symName: _lprofMergeValueProfData, symObjAddr: 0x0, symBinAddr: 0x1CC28, symSize: 0xF0 }
  - { offset: 0x3ADE2, size: 0x8, addend: 0x0, symName: ___llvm_profile_begin_data, symObjAddr: 0x0, symBinAddr: 0x1CD18, symSize: 0xC }
  - { offset: 0x3AE01, size: 0x8, addend: 0x0, symName: _CurrentVNode, symObjAddr: 0xC0, symBinAddr: 0x88160, symSize: 0x0 }
  - { offset: 0x3AE7D, size: 0x8, addend: 0x0, symName: _EndVNode, symObjAddr: 0xC8, symBinAddr: 0x88168, symSize: 0x0 }
  - { offset: 0x3AE86, size: 0x8, addend: 0x0, symName: ___llvm_profile_begin_data, symObjAddr: 0x0, symBinAddr: 0x1CD18, symSize: 0xC }
  - { offset: 0x3AE8E, size: 0x8, addend: 0x0, symName: ___llvm_profile_end_data, symObjAddr: 0xC, symBinAddr: 0x1CD24, symSize: 0xC }
  - { offset: 0x3AEA7, size: 0x8, addend: 0x0, symName: ___llvm_profile_end_data, symObjAddr: 0xC, symBinAddr: 0x1CD24, symSize: 0xC }
  - { offset: 0x3AEAF, size: 0x8, addend: 0x0, symName: ___llvm_profile_begin_names, symObjAddr: 0x18, symBinAddr: 0x1CD30, symSize: 0xC }
  - { offset: 0x3AEC8, size: 0x8, addend: 0x0, symName: ___llvm_profile_begin_names, symObjAddr: 0x18, symBinAddr: 0x1CD30, symSize: 0xC }
  - { offset: 0x3AED0, size: 0x8, addend: 0x0, symName: ___llvm_profile_end_names, symObjAddr: 0x24, symBinAddr: 0x1CD3C, symSize: 0xC }
  - { offset: 0x3AEE9, size: 0x8, addend: 0x0, symName: ___llvm_profile_end_names, symObjAddr: 0x24, symBinAddr: 0x1CD3C, symSize: 0xC }
  - { offset: 0x3AEF1, size: 0x8, addend: 0x0, symName: ___llvm_profile_begin_counters, symObjAddr: 0x30, symBinAddr: 0x1CD48, symSize: 0xC }
  - { offset: 0x3AF0A, size: 0x8, addend: 0x0, symName: ___llvm_profile_begin_counters, symObjAddr: 0x30, symBinAddr: 0x1CD48, symSize: 0xC }
  - { offset: 0x3AF12, size: 0x8, addend: 0x0, symName: ___llvm_profile_end_counters, symObjAddr: 0x3C, symBinAddr: 0x1CD54, symSize: 0xC }
  - { offset: 0x3AF2B, size: 0x8, addend: 0x0, symName: ___llvm_profile_end_counters, symObjAddr: 0x3C, symBinAddr: 0x1CD54, symSize: 0xC }
  - { offset: 0x3AF33, size: 0x8, addend: 0x0, symName: ___llvm_profile_begin_bitmap, symObjAddr: 0x48, symBinAddr: 0x1CD60, symSize: 0xC }
  - { offset: 0x3AF4C, size: 0x8, addend: 0x0, symName: ___llvm_profile_begin_bitmap, symObjAddr: 0x48, symBinAddr: 0x1CD60, symSize: 0xC }
  - { offset: 0x3AF54, size: 0x8, addend: 0x0, symName: ___llvm_profile_end_bitmap, symObjAddr: 0x54, symBinAddr: 0x1CD6C, symSize: 0xC }
  - { offset: 0x3AF6D, size: 0x8, addend: 0x0, symName: ___llvm_profile_end_bitmap, symObjAddr: 0x54, symBinAddr: 0x1CD6C, symSize: 0xC }
  - { offset: 0x3AF75, size: 0x8, addend: 0x0, symName: ___llvm_profile_begin_vtables, symObjAddr: 0x60, symBinAddr: 0x1CD78, symSize: 0xC }
  - { offset: 0x3AF8E, size: 0x8, addend: 0x0, symName: ___llvm_profile_begin_vtables, symObjAddr: 0x60, symBinAddr: 0x1CD78, symSize: 0xC }
  - { offset: 0x3AF96, size: 0x8, addend: 0x0, symName: ___llvm_profile_end_vtables, symObjAddr: 0x6C, symBinAddr: 0x1CD84, symSize: 0xC }
  - { offset: 0x3AFAF, size: 0x8, addend: 0x0, symName: ___llvm_profile_end_vtables, symObjAddr: 0x6C, symBinAddr: 0x1CD84, symSize: 0xC }
  - { offset: 0x3AFB7, size: 0x8, addend: 0x0, symName: ___llvm_profile_begin_vtabnames, symObjAddr: 0x78, symBinAddr: 0x1CD90, symSize: 0xC }
  - { offset: 0x3AFD0, size: 0x8, addend: 0x0, symName: ___llvm_profile_begin_vtabnames, symObjAddr: 0x78, symBinAddr: 0x1CD90, symSize: 0xC }
  - { offset: 0x3AFD8, size: 0x8, addend: 0x0, symName: ___llvm_profile_end_vtabnames, symObjAddr: 0x84, symBinAddr: 0x1CD9C, symSize: 0xC }
  - { offset: 0x3AFF1, size: 0x8, addend: 0x0, symName: ___llvm_profile_end_vtabnames, symObjAddr: 0x84, symBinAddr: 0x1CD9C, symSize: 0xC }
  - { offset: 0x3B012, size: 0x8, addend: 0x0, symName: ___llvm_profile_begin_vnodes, symObjAddr: 0x9C, symBinAddr: 0x1CDA8, symSize: 0xC }
  - { offset: 0x3B01A, size: 0x8, addend: 0x0, symName: ___llvm_profile_end_vnodes, symObjAddr: 0xA8, symBinAddr: 0x1CDB4, symSize: 0xC }
  - { offset: 0x3B033, size: 0x8, addend: 0x0, symName: ___llvm_profile_end_vnodes, symObjAddr: 0xA8, symBinAddr: 0x1CDB4, symSize: 0xC }
  - { offset: 0x3B03B, size: 0x8, addend: 0x0, symName: ___llvm_write_binary_ids, symObjAddr: 0xB4, symBinAddr: 0x1CDC0, symSize: 0x8 }
  - { offset: 0x3B054, size: 0x8, addend: 0x0, symName: ___llvm_write_binary_ids, symObjAddr: 0xB4, symBinAddr: 0x1CDC0, symSize: 0x8 }
  - { offset: 0x3B2DA, size: 0x8, addend: 0x0, symName: __GLOBAL__sub_I_InstrProfilingRuntime.cpp, symObjAddr: 0x0, symBinAddr: 0x1CDC8, symSize: 0x18 }
  - { offset: 0x3B2FD, size: 0x8, addend: 0x0, symName: ___llvm_profile_runtime, symObjAddr: 0x590, symBinAddr: 0x88CDC, symSize: 0x0 }
  - { offset: 0x3B32D, size: 0x8, addend: 0x0, symName: __GLOBAL__sub_I_InstrProfilingRuntime.cpp, symObjAddr: 0x0, symBinAddr: 0x1CDC8, symSize: 0x18 }
  - { offset: 0x3B3A9, size: 0x8, addend: 0x0, symName: ___llvm_profile_recursive_mkdir, symObjAddr: 0x0, symBinAddr: 0x1CDE0, symSize: 0x58 }
  - { offset: 0x3B3B1, size: 0x8, addend: 0x0, symName: _lprofDirMode, symObjAddr: 0x5AC, symBinAddr: 0x88170, symSize: 0x0 }
  - { offset: 0x3B3C8, size: 0x8, addend: 0x0, symName: _lprofDirMode, symObjAddr: 0x5AC, symBinAddr: 0x88170, symSize: 0x0 }
  - { offset: 0x3B3FD, size: 0x8, addend: 0x0, symName: ___llvm_profile_recursive_mkdir, symObjAddr: 0x0, symBinAddr: 0x1CDE0, symSize: 0x58 }
  - { offset: 0x3B47C, size: 0x8, addend: 0x0, symName: _lprofGetHostName, symObjAddr: 0x70, symBinAddr: 0x1CE38, symSize: 0x80 }
  - { offset: 0x3B5B1, size: 0x8, addend: 0x0, symName: _lprofLockFileHandle, symObjAddr: 0x208, symBinAddr: 0x1CEB8, symSize: 0x90 }
  - { offset: 0x3B5B9, size: 0x8, addend: 0x0, symName: _lprofUnlockFileHandle, symObjAddr: 0x298, symBinAddr: 0x1CF48, symSize: 0x90 }
  - { offset: 0x3B63F, size: 0x8, addend: 0x0, symName: _lprofUnlockFileHandle, symObjAddr: 0x298, symBinAddr: 0x1CF48, symSize: 0x90 }
  - { offset: 0x3B647, size: 0x8, addend: 0x0, symName: _lprofOpenFileEx, symObjAddr: 0x328, symBinAddr: 0x1CFD8, symSize: 0xD0 }
  - { offset: 0x3B6A7, size: 0x8, addend: 0x0, symName: _lprofOpenFileEx, symObjAddr: 0x328, symBinAddr: 0x1CFD8, symSize: 0xD0 }
  - { offset: 0x3B71F, size: 0x8, addend: 0x0, symName: _lprofFindFirstDirSeparator, symObjAddr: 0x538, symBinAddr: 0x1D0A8, symSize: 0x8 }
  - { offset: 0x3B75F, size: 0x8, addend: 0x0, symName: _lprofSuspendSigKill, symObjAddr: 0x548, symBinAddr: 0x1D0B0, symSize: 0x8 }
  - { offset: 0x3B767, size: 0x8, addend: 0x0, symName: _lprofRestoreSigKill, symObjAddr: 0x550, symBinAddr: 0x1D0B8, symSize: 0x4 }
  - { offset: 0x3B782, size: 0x8, addend: 0x0, symName: _lprofRestoreSigKill, symObjAddr: 0x550, symBinAddr: 0x1D0B8, symSize: 0x4 }
  - { offset: 0x3B7A1, size: 0x8, addend: 0x0, symName: _lprofAtExit, symObjAddr: 0x5A8, symBinAddr: 0x1D0BC, symSize: 0x4 }
  - { offset: 0x3B7A9, size: 0x8, addend: 0x0, symName: _lprofDirMode, symObjAddr: 0x5AC, symBinAddr: 0x88170, symSize: 0x0 }
  - { offset: 0x3BA73, size: 0x8, addend: 0x0, symName: _getValueProfRecordHeaderSize, symObjAddr: 0x0, symBinAddr: 0x1D0C0, symSize: 0xC }
  - { offset: 0x3BA92, size: 0x8, addend: 0x0, symName: _VPMaxNumValsPerSite, symObjAddr: 0x1740, symBinAddr: 0x88178, symSize: 0x0 }
  - { offset: 0x3BB27, size: 0x8, addend: 0x0, symName: __MergedGlobals, symObjAddr: 0xEF50, symBinAddr: 0x88E38, symSize: 0x0 }
  - { offset: 0x3BB4E, size: 0x8, addend: 0x0, symName: __MergedGlobals, symObjAddr: 0xEF50, symBinAddr: 0x88E38, symSize: 0x0 }
  - { offset: 0x3BB65, size: 0x8, addend: 0x0, symName: __MergedGlobals, symObjAddr: 0xEF50, symBinAddr: 0x88E38, symSize: 0x0 }
  - { offset: 0x3BB84, size: 0x8, addend: 0x0, symName: _TheVPDataReader, symObjAddr: 0x1748, symBinAddr: 0x88180, symSize: 0x0 }
  - { offset: 0x3BE24, size: 0x8, addend: 0x0, symName: _RTRecord, symObjAddr: 0xEF28, symBinAddr: 0x88E10, symSize: 0x0 }
  - { offset: 0x3C018, size: 0x8, addend: 0x0, symName: _getValueProfRecordHeaderSize, symObjAddr: 0x0, symBinAddr: 0x1D0C0, symSize: 0xC }
  - { offset: 0x3C06E, size: 0x8, addend: 0x0, symName: _getValueProfRecordValueData, symObjAddr: 0x1C, symBinAddr: 0x1D0CC, symSize: 0x14 }
  - { offset: 0x3C11C, size: 0x8, addend: 0x0, symName: _getValueProfRecordNext, symObjAddr: 0x1B4, symBinAddr: 0x1D0E0, symSize: 0x1A4 }
  - { offset: 0x3C124, size: 0x8, addend: 0x0, symName: _getFirstValueProfRecord, symObjAddr: 0x358, symBinAddr: 0x1D284, symSize: 0x8 }
  - { offset: 0x3C18B, size: 0x8, addend: 0x0, symName: _getFirstValueProfRecord, symObjAddr: 0x358, symBinAddr: 0x1D284, symSize: 0x8 }
  - { offset: 0x3C26D, size: 0x8, addend: 0x0, symName: _lprofSetupValueProfiler, symObjAddr: 0xB38, symBinAddr: 0x1D28C, symSize: 0x64 }
  - { offset: 0x3C37F, size: 0x8, addend: 0x0, symName: ___llvm_profile_instrument_target_value, symObjAddr: 0xE30, symBinAddr: 0x1D2F0, symSize: 0x290 }
  - { offset: 0x3C49D, size: 0x8, addend: 0x0, symName: _lprofGetVPDataReader, symObjAddr: 0x1108, symBinAddr: 0x1D580, symSize: 0xC }
  - { offset: 0x3C4A5, size: 0x8, addend: 0x0, symName: _initializeValueProfRuntimeRecord, symObjAddr: 0x1114, symBinAddr: 0x1D58C, symSize: 0x210 }
  - { offset: 0x3C4C0, size: 0x8, addend: 0x0, symName: _initializeValueProfRuntimeRecord, symObjAddr: 0x1114, symBinAddr: 0x1D58C, symSize: 0x210 }
  - { offset: 0x3C4C8, size: 0x8, addend: 0x0, symName: _getNumValueDataForSiteWrapper, symObjAddr: 0x1324, symBinAddr: 0x1D79C, symSize: 0x14 }
  - { offset: 0x3C5E3, size: 0x8, addend: 0x0, symName: _getNumValueDataForSiteWrapper, symObjAddr: 0x1324, symBinAddr: 0x1D79C, symSize: 0x14 }
  - { offset: 0x3C5EB, size: 0x8, addend: 0x0, symName: _getValueProfDataSizeWrapper, symObjAddr: 0x1338, symBinAddr: 0x1D7B0, symSize: 0xDC }
  - { offset: 0x3C629, size: 0x8, addend: 0x0, symName: _getNumValueDataForSiteWrapper, symObjAddr: 0x1324, symBinAddr: 0x1D79C, symSize: 0x14 }
  - { offset: 0x3C64F, size: 0x8, addend: 0x0, symName: _getValueProfDataSizeWrapper, symObjAddr: 0x1338, symBinAddr: 0x1D7B0, symSize: 0xDC }
  - { offset: 0x3C657, size: 0x8, addend: 0x0, symName: _getNextNValueData, symObjAddr: 0x1414, symBinAddr: 0x1D88C, symSize: 0x44 }
  - { offset: 0x3C6EE, size: 0x8, addend: 0x0, symName: _getNextNValueData, symObjAddr: 0x1414, symBinAddr: 0x1D88C, symSize: 0x44 }
  - { offset: 0x3C6F6, size: 0x8, addend: 0x0, symName: _getNumValueSitesRT, symObjAddr: 0x1458, symBinAddr: 0x1D8D0, symSize: 0x10 }
  - { offset: 0x3C784, size: 0x8, addend: 0x0, symName: _getNumValueSitesRT, symObjAddr: 0x1458, symBinAddr: 0x1D8D0, symSize: 0x10 }
  - { offset: 0x3C78C, size: 0x8, addend: 0x0, symName: _getNumValueDataRT, symObjAddr: 0x1468, symBinAddr: 0x1D8E0, symSize: 0x190 }
  - { offset: 0x3C7C7, size: 0x8, addend: 0x0, symName: _getNumValueDataRT, symObjAddr: 0x1468, symBinAddr: 0x1D8E0, symSize: 0x190 }
  - { offset: 0x3C83D, size: 0x8, addend: 0x0, symName: ___llvm_profile_instrument_target_value.cold.1, symObjAddr: 0x161C, symBinAddr: 0x55C9C, symSize: 0x24 }
  - { offset: 0x3C8CD, size: 0x8, addend: 0x0, symName: ___llvm_profile_raw_version, symObjAddr: 0x0, symBinAddr: 0x881B0, symSize: 0x0 }
  - { offset: 0x3C90F, size: 0x8, addend: 0x0, symName: _lprofBufferWriter, symObjAddr: 0x0, symBinAddr: 0x1DA70, symSize: 0x6C }
  - { offset: 0x3C92E, size: 0x8, addend: 0x0, symName: _FreeHook, symObjAddr: 0x4F30, symBinAddr: 0x88CE0, symSize: 0x0 }
  - { offset: 0x3C954, size: 0x8, addend: 0x0, symName: _DynamicBufferIOBuffer, symObjAddr: 0x4F38, symBinAddr: 0x88CE8, symSize: 0x0 }
  - { offset: 0x3C982, size: 0x8, addend: 0x0, symName: _VPBufferSize, symObjAddr: 0x4F40, symBinAddr: 0x88CF0, symSize: 0x0 }
  - { offset: 0x3C9A9, size: 0x8, addend: 0x0, symName: __MergedGlobals, symObjAddr: 0x6F48, symBinAddr: 0x8AE48, symSize: 0x0 }
  - { offset: 0x3CAF3, size: 0x8, addend: 0x0, symName: _BufferIOBuffer, symObjAddr: 0x4F48, symBinAddr: 0x88E48, symSize: 0x0 }
  - { offset: 0x3CB1D, size: 0x8, addend: 0x0, symName: __MergedGlobals, symObjAddr: 0x6F48, symBinAddr: 0x8AE48, symSize: 0x0 }
  - { offset: 0x3CB99, size: 0x8, addend: 0x0, symName: _lprofBufferWriter, symObjAddr: 0x0, symBinAddr: 0x1DA70, symSize: 0x6C }
  - { offset: 0x3CCB1, size: 0x8, addend: 0x0, symName: _lprofBufferIOWrite, symObjAddr: 0x100, symBinAddr: 0x1DADC, symSize: 0x134 }
  - { offset: 0x3CDB2, size: 0x8, addend: 0x0, symName: _lprofWriteData, symObjAddr: 0x2F4, symBinAddr: 0x1DC10, symSize: 0xD4 }
  - { offset: 0x3CDBA, size: 0x8, addend: 0x0, symName: _lprofWriteDataImpl, symObjAddr: 0x3C8, symBinAddr: 0x1DCE4, symSize: 0x46C }
  - { offset: 0x3D1E0, size: 0x8, addend: 0x0, symName: _lprofWriteDataImpl, symObjAddr: 0x3C8, symBinAddr: 0x1DCE4, symSize: 0x46C }
  - { offset: 0x3D50A, size: 0x8, addend: 0x0, symName: _writeOneValueProfData, symObjAddr: 0x8C0, symBinAddr: 0x1E150, symSize: 0x4A8 }
  - { offset: 0x3DA70, size: 0x8, addend: 0x0, symName: '__ZN64_$LT$core..str..error..Utf8Error$u20$as$u20$core..fmt..Debug$GT$3fmt17h041a45c0fcea5e10E', symObjAddr: 0x2578, symBinAddr: 0x1EF9C, symSize: 0x70 }
  - { offset: 0x3DD40, size: 0x8, addend: 0x0, symName: '__ZN4core3ptr103drop_in_place$LT$proc_macro..bridge..client..TokenStream..concat_trees..$u7b$$u7b$closure$u7d$$u7d$$GT$17hf7cd481be61b9489E', symObjAddr: 0x9A0, symBinAddr: 0x1E950, symSize: 0x84 }
  - { offset: 0x3DFF6, size: 0x8, addend: 0x0, symName: '__ZN4core3ptr131drop_in_place$LT$proc_macro..bridge..client..maybe_install_panic_hook..$u7b$$u7b$closure$u7d$$u7d$..$u7b$$u7b$closure$u7d$$u7d$$GT$17ha000b4e879c23498E', symObjAddr: 0xB30, symBinAddr: 0x1E9D4, symSize: 0x6C }
  - { offset: 0x3E119, size: 0x8, addend: 0x0, symName: '__ZN4core3ptr192drop_in_place$LT$alloc..vec..Vec$LT$proc_macro..bridge..TokenTree$LT$proc_macro..bridge..client..TokenStream$C$proc_macro..bridge..client..Span$C$proc_macro..bridge..symbol..Symbol$GT$$GT$$GT$17he32bce850f53b46dE', symObjAddr: 0xC94, symBinAddr: 0x1EA40, symSize: 0x12C }
  - { offset: 0x3E469, size: 0x8, addend: 0x0, symName: '__ZN4core3ptr208drop_in_place$LT$alloc..vec..into_iter..IntoIter$LT$proc_macro..bridge..TokenTree$LT$proc_macro..bridge..client..TokenStream$C$proc_macro..bridge..client..Span$C$proc_macro..bridge..symbol..Symbol$GT$$GT$$GT$17ha6a013ba645d54a4E', symObjAddr: 0xDC0, symBinAddr: 0x1EB6C, symSize: 0x134 }
  - { offset: 0x3E858, size: 0x8, addend: 0x0, symName: '__ZN4core3ptr42drop_in_place$LT$alloc..string..String$GT$17hd4324e9af36f57e0E', symObjAddr: 0xEF4, symBinAddr: 0x1ECA0, symSize: 0x18 }
  - { offset: 0x3E8E5, size: 0x8, addend: 0x0, symName: '__ZN4core3ptr46drop_in_place$LT$alloc..vec..Vec$LT$u8$GT$$GT$17h2a66b7ee4df9c8efE', symObjAddr: 0xF80, symBinAddr: 0x1ECB8, symSize: 0x1C }
  - { offset: 0x3E8FC, size: 0x8, addend: 0x0, symName: '__ZN4core3ptr46drop_in_place$LT$alloc..vec..Vec$LT$u8$GT$$GT$17h2a66b7ee4df9c8efE', symObjAddr: 0xF80, symBinAddr: 0x1ECB8, symSize: 0x1C }
  - { offset: 0x3E911, size: 0x8, addend: 0x0, symName: '__ZN4core3ptr46drop_in_place$LT$alloc..vec..Vec$LT$u8$GT$$GT$17h2a66b7ee4df9c8efE', symObjAddr: 0xF80, symBinAddr: 0x1ECB8, symSize: 0x1C }
  - { offset: 0x3E926, size: 0x8, addend: 0x0, symName: '__ZN4core3ptr46drop_in_place$LT$alloc..vec..Vec$LT$u8$GT$$GT$17h2a66b7ee4df9c8efE', symObjAddr: 0xF80, symBinAddr: 0x1ECB8, symSize: 0x1C }
  - { offset: 0x3E93B, size: 0x8, addend: 0x0, symName: '__ZN4core3ptr46drop_in_place$LT$alloc..vec..Vec$LT$u8$GT$$GT$17h2a66b7ee4df9c8efE', symObjAddr: 0xF80, symBinAddr: 0x1ECB8, symSize: 0x1C }
  - { offset: 0x3EA40, size: 0x8, addend: 0x0, symName: '__ZN4core3ptr84drop_in_place$LT$core..cell..RefCell$LT$proc_macro..bridge..symbol..Interner$GT$$GT$17h46fcbfc90ee1ca1dE', symObjAddr: 0x133C, symBinAddr: 0x1ECD4, symSize: 0xC4 }
  - { offset: 0x3ED65, size: 0x8, addend: 0x0, symName: '__ZN4core3ptr91drop_in_place$LT$alloc..boxed..Box$LT$dyn$u20$core..any..Any$u2b$core..marker..Send$GT$$GT$17h976fbac2f66039f4E', symObjAddr: 0x14D8, symBinAddr: 0x1ED98, symSize: 0x78 }
  - { offset: 0x3F29B, size: 0x8, addend: 0x0, symName: '__ZN36_$LT$T$u20$as$u20$core..any..Any$GT$7type_id17h700f89d8b692a319E', symObjAddr: 0x2DC, symBinAddr: 0x1E5F8, symSize: 0x24 }
  - { offset: 0x3F2B5, size: 0x8, addend: 0x0, symName: '__ZN36_$LT$T$u20$as$u20$core..any..Any$GT$7type_id17h7a0e4ae6b7ea2fc5E', symObjAddr: 0x300, symBinAddr: 0x1E61C, symSize: 0x24 }
  - { offset: 0x3F2CF, size: 0x8, addend: 0x0, symName: '__ZN36_$LT$T$u20$as$u20$core..any..Any$GT$7type_id17he24c1de0b4aece81E', symObjAddr: 0x324, symBinAddr: 0x1E640, symSize: 0x24 }
  - { offset: 0x3F58E, size: 0x8, addend: 0x0, symName: '__ZN63_$LT$core..cell..BorrowMutError$u20$as$u20$core..fmt..Debug$GT$3fmt17h0a4533890a1478d4E', symObjAddr: 0x2564, symBinAddr: 0x1EF88, symSize: 0x14 }
  - { offset: 0x3FA8F, size: 0x8, addend: 0x0, symName: '__ZN4core3ops8function6FnOnce40call_once$u7b$$u7b$vtable.shim$u7d$$u7d$17h1090b80b4b455f62E', symObjAddr: 0x6A0, symBinAddr: 0x1E7DC, symSize: 0xA0 }
  - { offset: 0x3FB80, size: 0x8, addend: 0x0, symName: '__ZN4core3ops8function6FnOnce40call_once$u7b$$u7b$vtable.shim$u7d$$u7d$17h96511a5b552014d2E', symObjAddr: 0x740, symBinAddr: 0x1E87C, symSize: 0xD4 }
  - { offset: 0x3FD1F, size: 0x8, addend: 0x0, symName: '__ZN42_$LT$$RF$T$u20$as$u20$core..fmt..Debug$GT$3fmt17h1a91bedb63579291E', symObjAddr: 0x504, symBinAddr: 0x1E720, symSize: 0x10 }
  - { offset: 0x3FD3A, size: 0x8, addend: 0x0, symName: '__ZN42_$LT$$RF$T$u20$as$u20$core..fmt..Debug$GT$3fmt17ha08581d1af3e2cdcE', symObjAddr: 0x51C, symBinAddr: 0x1E730, symSize: 0x1C }
  - { offset: 0x3FD80, size: 0x8, addend: 0x0, symName: '__ZN42_$LT$$RF$T$u20$as$u20$core..fmt..Debug$GT$3fmt17hcd11985bbc784ebfE', symObjAddr: 0x538, symBinAddr: 0x1E74C, symSize: 0x68 }
  - { offset: 0x3FDEA, size: 0x8, addend: 0x0, symName: '__ZN4core3fmt3num52_$LT$impl$u20$core..fmt..Debug$u20$for$u20$usize$GT$3fmt17hd9a44c73645affdaE', symObjAddr: 0x678, symBinAddr: 0x1E7C4, symSize: 0x18 }
  - { offset: 0x3FE07, size: 0x8, addend: 0x0, symName: '__ZN4core3fmt3num52_$LT$impl$u20$core..fmt..Debug$u20$for$u20$usize$GT$3fmt17hd9a44c73645affdaE', symObjAddr: 0x678, symBinAddr: 0x1E7C4, symSize: 0x18 }
  - { offset: 0x3FE20, size: 0x8, addend: 0x0, symName: '__ZN44_$LT$$RF$T$u20$as$u20$core..fmt..Display$GT$3fmt17he1dce6dbd070b758E', symObjAddr: 0x668, symBinAddr: 0x1E7B4, symSize: 0x10 }
  - { offset: 0x40843, size: 0x8, addend: 0x0, symName: __ZN10proc_macro6bridge6symbol6Symbol3new17h459bdedb447e4c9fE, symObjAddr: 0x3B18, symBinAddr: 0x1FA58, symSize: 0x564 }
  - { offset: 0x41C0D, size: 0x8, addend: 0x0, symName: __ZN10proc_macro6bridge6symbol6Symbol9new_ident17he5b212bedb17589aE, symObjAddr: 0x407C, symBinAddr: 0x1FFBC, symSize: 0x628 }
  - { offset: 0x427A6, size: 0x8, addend: 0x0, symName: __ZN10proc_macro6bridge6symbol6Symbol14invalidate_all17h27d3d09a6ff71c17E, symObjAddr: 0x46A4, symBinAddr: 0x205E4, symSize: 0x14C }
  - { offset: 0x42D13, size: 0x8, addend: 0x0, symName: '__ZN73_$LT$proc_macro..bridge..symbol..Symbol$u20$as$u20$core..fmt..Display$GT$3fmt17hacfd06ede859f200E', symObjAddr: 0x48F0, symBinAddr: 0x20730, symSize: 0x100 }
  - { offset: 0x430A3, size: 0x8, addend: 0x0, symName: '__ZN95_$LT$proc_macro..bridge..symbol..Symbol$u20$as$u20$proc_macro..bridge..rpc..Encode$LT$S$GT$$GT$6encode17hfc6f500e622f8886E', symObjAddr: 0x49F0, symBinAddr: 0x20830, symSize: 0x230 }
  - { offset: 0x43681, size: 0x8, addend: 0x0, symName: '__ZN10proc_macro6bridge6client24maybe_install_panic_hook28_$u7b$$u7b$closure$u7d$$u7d$28_$u7b$$u7b$closure$u7d$$u7d$17h711e5f88c340e15dE', symObjAddr: 0x3734, symBinAddr: 0x1F6FC, symSize: 0x50 }
  - { offset: 0x43704, size: 0x8, addend: 0x0, symName: '__ZN95_$LT$proc_macro..bridge..client..state..set..RestoreOnDrop$u20$as$u20$core..ops..drop..Drop$GT$4drop17hc516fce6bc02c851E', symObjAddr: 0x3350, symBinAddr: 0x1F318, symSize: 0x28 }
  - { offset: 0x438EA, size: 0x8, addend: 0x0, symName: __ZN10proc_macro6bridge6client11TokenStream12concat_trees17hb863221a120287e2E, symObjAddr: 0x1C538, symBinAddr: 0x23024, symSize: 0x3BC }
  - { offset: 0x43F16, size: 0x8, addend: 0x0, symName: '__ZN81_$LT$proc_macro..bridge..client..TokenStream$u20$as$u20$core..ops..drop..Drop$GT$4drop17h8d285f2e4c263a43E', symObjAddr: 0x1B88C, symBinAddr: 0x22FF8, symSize: 0x2C }
  - { offset: 0x43FED, size: 0x8, addend: 0x0, symName: '__ZN10proc_macro6bridge6client6Bridge4with28_$u7b$$u7b$closure$u7d$$u7d$17hc881942e96451cfbE', symObjAddr: 0x3378, symBinAddr: 0x1F340, symSize: 0x354 }
  - { offset: 0x44813, size: 0x8, addend: 0x0, symName: '__ZN78_$LT$proc_macro..bridge..client..TokenStream$u20$as$u20$core..clone..Clone$GT$5clone17he069e5dd3564aa12E', symObjAddr: 0x2E2C, symBinAddr: 0x1F0A4, symSize: 0x274 }
  - { offset: 0x44D55, size: 0x8, addend: 0x0, symName: __ZN10proc_macro6bridge6client24maybe_install_panic_hook17h71ad93965a1b6ef5E, symObjAddr: 0x36CC, symBinAddr: 0x1F694, symSize: 0x68 }
  - { offset: 0x44EB3, size: 0x8, addend: 0x0, symName: __ZN10proc_macro6bridge5arena5Arena4grow17hb8d39e9c7509edb1E, symObjAddr: 0x2C5C, symBinAddr: 0x56508, symSize: 0x138 }
  - { offset: 0x45378, size: 0x8, addend: 0x0, symName: '__ZN107_$LT$proc_macro..bridge..buffer..Buffer$u20$as$u20$core..convert..From$LT$alloc..vec..Vec$LT$u8$GT$$GT$$GT$4from7reserve17h65840d17085c8699E', symObjAddr: 0x2D94, symBinAddr: 0x1F00C, symSize: 0x80 }
  - { offset: 0x4543A, size: 0x8, addend: 0x0, symName: '__ZN107_$LT$proc_macro..bridge..buffer..Buffer$u20$as$u20$core..convert..From$LT$alloc..vec..Vec$LT$u8$GT$$GT$$GT$4from4drop17h509af19943f8fe2aE', symObjAddr: 0x2E14, symBinAddr: 0x1F08C, symSize: 0x18 }
  - { offset: 0x457F0, size: 0x8, addend: 0x0, symName: '__ZN71_$LT$$RF$str$u20$as$u20$proc_macro..bridge..rpc..DecodeMut$LT$S$GT$$GT$6decode17h5fc9c1836a887304E', symObjAddr: 0x3784, symBinAddr: 0x1F74C, symSize: 0xB4 }
  - { offset: 0x45979, size: 0x8, addend: 0x0, symName: '__ZN155_$LT$proc_macro..bridge..rpc..PanicMessage$u20$as$u20$core..convert..From$LT$alloc..boxed..Box$LT$dyn$u20$core..any..Any$u2b$core..marker..Send$GT$$GT$$GT$4from17hdc127209a91c6532E', symObjAddr: 0x3838, symBinAddr: 0x1F800, symSize: 0x180 }
  - { offset: 0x45B6D, size: 0x8, addend: 0x0, symName: '__ZN10proc_macro6bridge3rpc165_$LT$impl$u20$core..convert..From$LT$proc_macro..bridge..rpc..PanicMessage$GT$$u20$for$u20$alloc..boxed..Box$LT$dyn$u20$core..any..Any$u2b$core..marker..Send$GT$$GT$4from17h138e4279995998cbE', symObjAddr: 0x39B8, symBinAddr: 0x1F980, symSize: 0xD8 }
  - { offset: 0x45F3D, size: 0x8, addend: 0x0, symName: '__ZN10proc_macro6bridge107_$LT$impl$u20$proc_macro..bridge..rpc..DecodeMut$LT$S$GT$$u20$for$u20$core..result..Result$LT$T$C$E$GT$$GT$6decode17h2f3a8da2b50d593eE', symObjAddr: 0x1E31C, symBinAddr: 0x24304, symSize: 0xFC }
  - { offset: 0x46117, size: 0x8, addend: 0x0, symName: '__ZN10proc_macro6bridge103_$LT$impl$u20$proc_macro..bridge..rpc..DecodeMut$LT$S$GT$$u20$for$u20$core..option..Option$LT$T$GT$$GT$6decode17hce99934afc022cfbE', symObjAddr: 0x1E228, symBinAddr: 0x24210, symSize: 0xF4 }
  - { offset: 0x46314, size: 0x8, addend: 0x0, symName: '__ZN10proc_macro6bridge100_$LT$impl$u20$proc_macro..bridge..rpc..Encode$LT$S$GT$$u20$for$u20$core..option..Option$LT$T$GT$$GT$6encode17h5f40f03a9a0a20b9E', symObjAddr: 0x1E050, symBinAddr: 0x24038, symSize: 0x1D8 }
  - { offset: 0x46661, size: 0x8, addend: 0x0, symName: '__ZN97_$LT$proc_macro..bridge..api_tags..Method$u20$as$u20$proc_macro..bridge..rpc..Encode$LT$S$GT$$GT$6encode17h49c42de097ec0ae0E', symObjAddr: 0x1D004, symBinAddr: 0x233E0, symSize: 0xC58 }
  - { offset: 0x46F82, size: 0x8, addend: 0x0, symName: '__ZN106_$LT$proc_macro..bridge..Literal$LT$Sp$C$Sy$GT$$u20$as$u20$proc_macro..bridge..rpc..DecodeMut$LT$S$GT$$GT$6decode17hee0f3c9506d7be3cE', symObjAddr: 0x1E774, symBinAddr: 0x24400, symSize: 0x188 }
  - { offset: 0x47299, size: 0x8, addend: 0x0, symName: '__ZN125_$LT$proc_macro..bridge..TokenTree$LT$TokenStream$C$Span$C$Symbol$GT$$u20$as$u20$proc_macro..bridge..rpc..Encode$LT$S$GT$$GT$6encode17h5d20f62c4f656d67E', symObjAddr: 0x1E8FC, symBinAddr: 0x24588, symSize: 0x12D4 }
  - { offset: 0x48ED0, size: 0x8, addend: 0x0, symName: __ZN10proc_macro5Punct3new17h87beb1c88ef2236bE, symObjAddr: 0x183AC, symBinAddr: 0x22524, symSize: 0x10C }
  - { offset: 0x4903A, size: 0x8, addend: 0x0, symName: '__ZN56_$LT$proc_macro..Ident$u20$as$u20$core..fmt..Display$GT$3fmt17h1044c09c43bfbbf7E', symObjAddr: 0x18634, symBinAddr: 0x22660, symSize: 0x58 }
  - { offset: 0x49094, size: 0x8, addend: 0x0, symName: __ZN10proc_macro17ConcatTreesHelper3new17hac0ccc98cfa2a6c6E, symObjAddr: 0x7900, symBinAddr: 0x218E4, symSize: 0x90 }
  - { offset: 0x491C2, size: 0x8, addend: 0x0, symName: __ZN10proc_macro17ConcatTreesHelper4push17hb7dcdf13e73b523aE, symObjAddr: 0x7990, symBinAddr: 0x21974, symSize: 0x16C }
  - { offset: 0x493AF, size: 0x8, addend: 0x0, symName: __ZN10proc_macro17ConcatTreesHelper5build17h8b92f7da7c1fd314E, symObjAddr: 0x7AFC, symBinAddr: 0x21AE0, symSize: 0x30 }
  - { offset: 0x493EF, size: 0x8, addend: 0x0, symName: __ZN10proc_macro17ConcatTreesHelper9append_to17h353d97e999dc1f6aE, symObjAddr: 0x7B2C, symBinAddr: 0x21B10, symSize: 0x44 }
  - { offset: 0x4948F, size: 0x8, addend: 0x0, symName: __ZN10proc_macro6escape12escape_bytes17heccfbbf467307486E, symObjAddr: 0x520C, symBinAddr: 0x20A60, symSize: 0x850 }
  - { offset: 0x4A6EA, size: 0x8, addend: 0x0, symName: '__ZN93_$LT$proc_macro..token_stream..IntoIter$u20$as$u20$core..iter..traits..iterator..Iterator$GT$4next17h3c8faf70d274c0edE', symObjAddr: 0x7E70, symBinAddr: 0x21B54, symSize: 0xA8 }
  - { offset: 0x4A701, size: 0x8, addend: 0x0, symName: '__ZN93_$LT$proc_macro..token_stream..IntoIter$u20$as$u20$core..iter..traits..iterator..Iterator$GT$4next17h3c8faf70d274c0edE', symObjAddr: 0x7E70, symBinAddr: 0x21B54, symSize: 0xA8 }
  - { offset: 0x4A78A, size: 0x8, addend: 0x0, symName: '__ZN93_$LT$proc_macro..token_stream..IntoIter$u20$as$u20$core..iter..traits..iterator..Iterator$GT$9size_hint17h61474f2ac3e0da6bE', symObjAddr: 0x7F18, symBinAddr: 0x21BFC, symSize: 0x2C }
  - { offset: 0x4A7A1, size: 0x8, addend: 0x0, symName: '__ZN93_$LT$proc_macro..token_stream..IntoIter$u20$as$u20$core..iter..traits..iterator..Iterator$GT$9size_hint17h61474f2ac3e0da6bE', symObjAddr: 0x7F18, symBinAddr: 0x21BFC, symSize: 0x2C }
  - { offset: 0x4A80F, size: 0x8, addend: 0x0, symName: '__ZN10proc_macro12token_stream95_$LT$impl$u20$core..iter..traits..collect..IntoIterator$u20$for$u20$proc_macro..TokenStream$GT$9into_iter17hf57331fce38db602E', symObjAddr: 0x7F80, symBinAddr: 0x21C28, symSize: 0x828 }
  - { offset: 0x4BCE7, size: 0x8, addend: 0x0, symName: __ZN10proc_macro5Ident3new17h153c7a2849ad41dcE, symObjAddr: 0x185C8, symBinAddr: 0x22630, symSize: 0x30 }
  - { offset: 0x4BD1A, size: 0x8, addend: 0x0, symName: __ZN10proc_macro11TokenStream8is_empty17h5b4a09499a7296f6E, symObjAddr: 0x6784, symBinAddr: 0x212B0, symSize: 0x32C }
  - { offset: 0x4C2E2, size: 0x8, addend: 0x0, symName: '__ZN70_$LT$proc_macro..TokenStream$u20$as$u20$core..str..traits..FromStr$GT$8from_str17h9a3a28024a8fcfd6E', symObjAddr: 0x6E14, symBinAddr: 0x215DC, symSize: 0x308 }
  - { offset: 0x4C930, size: 0x8, addend: 0x0, symName: __ZN10proc_macro5Group3new17h7c6a3cec3291c599E, symObjAddr: 0x18098, symBinAddr: 0x22450, symSize: 0xC0 }
  - { offset: 0x4CB15, size: 0x8, addend: 0x0, symName: __ZN10proc_macro5Group6stream17h67b326c2c8de32c0E, symObjAddr: 0x18158, symBinAddr: 0x22510, symSize: 0x14 }
  - { offset: 0x4CB2C, size: 0x8, addend: 0x0, symName: __ZN10proc_macro5Group6stream17h67b326c2c8de32c0E, symObjAddr: 0x18158, symBinAddr: 0x22510, symSize: 0x14 }
  - { offset: 0x4CB53, size: 0x8, addend: 0x0, symName: __ZN10proc_macro7Literal6string17he7b03dfa5b4ed9b9E, symObjAddr: 0x19034, symBinAddr: 0x226B8, symSize: 0x100 }
  - { offset: 0x4CEB7, size: 0x8, addend: 0x0, symName: '__ZN58_$LT$proc_macro..Literal$u20$as$u20$core..fmt..Display$GT$3fmt17hfb48fff141365c0aE', symObjAddr: 0x1B20C, symBinAddr: 0x22DD4, symSize: 0x224 }
  - { offset: 0x4D59D, size: 0x8, addend: 0x0, symName: '__ZN10proc_macro7Literal20with_stringify_parts28_$u7b$$u7b$closure$u7d$$u7d$17h222dfe97610defa3E', symObjAddr: 0x195C8, symBinAddr: 0x227B8, symSize: 0x24C }
  - { offset: 0x4D7B7, size: 0x8, addend: 0x0, symName: '__ZN66_$LT$proc_macro..Literal$u20$as$u20$core..str..traits..FromStr$GT$8from_str17he57dba7f39a1e6d0E', symObjAddr: 0x1AE3C, symBinAddr: 0x22A04, symSize: 0x3D0 }
  - { offset: 0x4DF1B, size: 0x8, addend: 0x0, symName: '__ZN3std3sys12thread_local6native4lazy20Storage$LT$T$C$D$GT$16get_or_init_slow17h6b657337552e1b82E', symObjAddr: 0x348, symBinAddr: 0x55CC0, symSize: 0x100 }
  - { offset: 0x4DF38, size: 0x8, addend: 0x0, symName: '__ZN3std3sys12thread_local6native4lazy20Storage$LT$T$C$D$GT$16get_or_init_slow17h6b657337552e1b82E', symObjAddr: 0x348, symBinAddr: 0x55CC0, symSize: 0x100 }
  - { offset: 0x4E092, size: 0x8, addend: 0x0, symName: __ZN3std3sys12thread_local6native4lazy7destroy17h44bc01697b6e1e5aE, symObjAddr: 0x448, symBinAddr: 0x1E664, symSize: 0x1C }
  - { offset: 0x4E0AF, size: 0x8, addend: 0x0, symName: __ZN3std3sys12thread_local6native4lazy7destroy17h44bc01697b6e1e5aE, symObjAddr: 0x448, symBinAddr: 0x1E664, symSize: 0x1C }
  - { offset: 0x4E0C3, size: 0x8, addend: 0x0, symName: __ZN3std3sys12thread_local6native4lazy7destroy17h44bc01697b6e1e5aE, symObjAddr: 0x448, symBinAddr: 0x1E664, symSize: 0x1C }
  - { offset: 0x4E0D7, size: 0x8, addend: 0x0, symName: __ZN3std3sys12thread_local6native4lazy7destroy17h44bc01697b6e1e5aE, symObjAddr: 0x448, symBinAddr: 0x1E664, symSize: 0x1C }
  - { offset: 0x4E0EB, size: 0x8, addend: 0x0, symName: __ZN3std3sys12thread_local6native4lazy7destroy17h44bc01697b6e1e5aE, symObjAddr: 0x448, symBinAddr: 0x1E664, symSize: 0x1C }
  - { offset: 0x4E164, size: 0x8, addend: 0x0, symName: '__ZN3std4sync6poison4once4Once9call_once28_$u7b$$u7b$closure$u7d$$u7d$17hf0ef4b7269bcc178E', symObjAddr: 0x464, symBinAddr: 0x1E680, symSize: 0xA0 }
  - { offset: 0x4E865, size: 0x8, addend: 0x0, symName: '__ZN5alloc7raw_vec19RawVec$LT$T$C$A$GT$8grow_one17h01a4c36dc90a9284E', symObjAddr: 0x21B4, symBinAddr: 0x1EE10, symSize: 0xB4 }
  - { offset: 0x4E97B, size: 0x8, addend: 0x0, symName: '__ZN5alloc7raw_vec19RawVec$LT$T$C$A$GT$8grow_one17h5a9f2d3f518aed51E', symObjAddr: 0x2268, symBinAddr: 0x1EEC4, symSize: 0xC4 }
  - { offset: 0x4EB45, size: 0x8, addend: 0x0, symName: __ZN5alloc7raw_vec11finish_grow17hb539c49f6e47e5d5E, symObjAddr: 0x2134, symBinAddr: 0x55DC0, symSize: 0x80 }
  - { offset: 0x4EBD3, size: 0x8, addend: 0x0, symName: '__ZN5alloc7raw_vec20RawVecInner$LT$A$GT$7reserve21do_reserve_and_handle17h67f163cff6b28b07E', symObjAddr: 0x24A4, symBinAddr: 0x55E40, symSize: 0xB0 }
  - { offset: 0x4F4E1, size: 0x8, addend: 0x0, symName: '__ZN9hashbrown3raw21RawTable$LT$T$C$A$GT$14reserve_rehash17h21f8afdc58e1de57E', symObjAddr: 0x2644, symBinAddr: 0x55EF0, symSize: 0x618 }
  - { offset: 0x51400, size: 0x8, addend: 0x0, symName: '__ZN5alloc11collections5btree3map25IntoIter$LT$K$C$V$C$A$GT$10dying_next17ha97a3f555acf7d48E', symObjAddr: 0x1105C, symBinAddr: 0x2FBB4, symSize: 0x228 }
  - { offset: 0x517A6, size: 0x8, addend: 0x0, symName: '__ZN5alloc11collections5btree3map25IntoIter$LT$K$C$V$C$A$GT$10dying_next17hb30339cd7068d6cfE', symObjAddr: 0x11284, symBinAddr: 0x2FDDC, symSize: 0x228 }
  - { offset: 0x526DB, size: 0x8, addend: 0x0, symName: '__ZN5alloc7raw_vec19RawVec$LT$T$C$A$GT$8grow_one17h06cf0433792cf41cE', symObjAddr: 0x14498, symBinAddr: 0x303C4, symSize: 0xB4 }
  - { offset: 0x527F1, size: 0x8, addend: 0x0, symName: '__ZN5alloc7raw_vec19RawVec$LT$T$C$A$GT$8grow_one17h0ff3cfc767e809c5E', symObjAddr: 0x1454C, symBinAddr: 0x30478, symSize: 0xC4 }
  - { offset: 0x52907, size: 0x8, addend: 0x0, symName: '__ZN5alloc7raw_vec19RawVec$LT$T$C$A$GT$8grow_one17h2a7a88545eefe0b5E', symObjAddr: 0x14610, symBinAddr: 0x3053C, symSize: 0xC4 }
  - { offset: 0x52A1D, size: 0x8, addend: 0x0, symName: '__ZN5alloc7raw_vec19RawVec$LT$T$C$A$GT$8grow_one17h33ef86bd5bc7babfE', symObjAddr: 0x146D4, symBinAddr: 0x30600, symSize: 0xB4 }
  - { offset: 0x52B33, size: 0x8, addend: 0x0, symName: '__ZN5alloc7raw_vec19RawVec$LT$T$C$A$GT$8grow_one17h4794d3730a636672E', symObjAddr: 0x1484C, symBinAddr: 0x306B4, symSize: 0xC4 }
  - { offset: 0x52C49, size: 0x8, addend: 0x0, symName: '__ZN5alloc7raw_vec19RawVec$LT$T$C$A$GT$8grow_one17h4b7a36f6d62b1585E', symObjAddr: 0x14910, symBinAddr: 0x30778, symSize: 0xB4 }
  - { offset: 0x52D5F, size: 0x8, addend: 0x0, symName: '__ZN5alloc7raw_vec19RawVec$LT$T$C$A$GT$8grow_one17h4ec275d7687f1e24E', symObjAddr: 0x149C4, symBinAddr: 0x3082C, symSize: 0xC4 }
  - { offset: 0x52E75, size: 0x8, addend: 0x0, symName: '__ZN5alloc7raw_vec19RawVec$LT$T$C$A$GT$8grow_one17h755f70e15600008eE', symObjAddr: 0x14A88, symBinAddr: 0x308F0, symSize: 0xB4 }
  - { offset: 0x52F8B, size: 0x8, addend: 0x0, symName: '__ZN5alloc7raw_vec19RawVec$LT$T$C$A$GT$8grow_one17h9a9a76236db74635E', symObjAddr: 0x14B3C, symBinAddr: 0x309A4, symSize: 0xC0 }
  - { offset: 0x530A1, size: 0x8, addend: 0x0, symName: '__ZN5alloc7raw_vec19RawVec$LT$T$C$A$GT$8grow_one17hbdf039f48f951a6eE', symObjAddr: 0x14BFC, symBinAddr: 0x30A64, symSize: 0xC0 }
  - { offset: 0x531B7, size: 0x8, addend: 0x0, symName: '__ZN5alloc7raw_vec19RawVec$LT$T$C$A$GT$8grow_one17hf24d0ccf3cd16788E', symObjAddr: 0x14CBC, symBinAddr: 0x30B24, symSize: 0xC0 }
  - { offset: 0x53776, size: 0x8, addend: 0x0, symName: __ZN5alloc7raw_vec11finish_grow17h2d571ea7b67f06b7E, symObjAddr: 0x14418, symBinAddr: 0x595CC, symSize: 0x80 }
  - { offset: 0x53811, size: 0x8, addend: 0x0, symName: '__ZN5alloc7raw_vec20RawVecInner$LT$A$GT$7reserve21do_reserve_and_handle17h4b2c29e8db0b9268E', symObjAddr: 0x14D7C, symBinAddr: 0x5964C, symSize: 0xF0 }
  - { offset: 0x5470C, size: 0x8, addend: 0x0, symName: __ZN5alloc5alloc15exchange_malloc17h9685023251c359e7E, symObjAddr: 0x143CC, symBinAddr: 0x30378, symSize: 0x4C }
  - { offset: 0x547DA, size: 0x8, addend: 0x0, symName: '__ZN5alloc4sync16Arc$LT$T$C$A$GT$9drop_slow17h568ad2c88e43a2e4E', symObjAddr: 0x13FE4, symBinAddr: 0x30004, symSize: 0x34 }
  - { offset: 0x548B7, size: 0x8, addend: 0x0, symName: '__ZN5alloc4sync16Arc$LT$T$C$A$GT$9drop_slow17h568f10379158be3aE', symObjAddr: 0x14018, symBinAddr: 0x30038, symSize: 0xC0 }
  - { offset: 0x54BDC, size: 0x8, addend: 0x0, symName: '__ZN5alloc4sync16Arc$LT$T$C$A$GT$9drop_slow17h74c044505d97b8fcE', symObjAddr: 0x140D8, symBinAddr: 0x300F8, symSize: 0x78 }
  - { offset: 0x54DA8, size: 0x8, addend: 0x0, symName: '__ZN5alloc4sync16Arc$LT$T$C$A$GT$9drop_slow17h8f2220b00493c4e4E', symObjAddr: 0x14150, symBinAddr: 0x30170, symSize: 0xA0 }
  - { offset: 0x550A0, size: 0x8, addend: 0x0, symName: '__ZN5alloc4sync16Arc$LT$T$C$A$GT$9drop_slow17hb6a5023acd32b46fE', symObjAddr: 0x14264, symBinAddr: 0x30210, symSize: 0xD0 }
  - { offset: 0x552B5, size: 0x8, addend: 0x0, symName: '__ZN5alloc4sync16Arc$LT$T$C$A$GT$9drop_slow17hd5e62bd79ab5d7f0E', symObjAddr: 0x14334, symBinAddr: 0x302E0, symSize: 0x98 }
  - { offset: 0x557DA, size: 0x8, addend: 0x0, symName: '__ZN64_$LT$alloc..ffi..c_str..NulError$u20$as$u20$core..fmt..Debug$GT$3fmt17hb25a36ba1a7f247bE', symObjAddr: 0x1BBE4, symBinAddr: 0x3795C, symSize: 0x4C }
  - { offset: 0x55BAD, size: 0x8, addend: 0x0, symName: '__ZN58_$LT$alloc..string..String$u20$as$u20$core..fmt..Debug$GT$3fmt17hf1e461d83be89b72E', symObjAddr: 0xF8D0, symBinAddr: 0x2F9EC, symSize: 0x10 }
  - { offset: 0x55C68, size: 0x8, addend: 0x0, symName: '__ZN58_$LT$alloc..string..String$u20$as$u20$core..fmt..Write$GT$10write_char17h5afa657ba1086fe6E', symObjAddr: 0xF8E0, symBinAddr: 0x2F9FC, symSize: 0x138 }
  - { offset: 0x55E0B, size: 0x8, addend: 0x0, symName: '__ZN58_$LT$alloc..string..String$u20$as$u20$core..fmt..Write$GT$9write_str17hba5566b7261b3df3E', symObjAddr: 0xFA18, symBinAddr: 0x2FB34, symSize: 0x80 }
  - { offset: 0x55F64, size: 0x8, addend: 0x0, symName: '__ZN60_$LT$alloc..string..String$u20$as$u20$core..fmt..Display$GT$3fmt17h55315b95f551f900E', symObjAddr: 0x1BBD4, symBinAddr: 0x3794C, symSize: 0x10 }
  - { offset: 0x572BB, size: 0x8, addend: 0x0, symName: '__ZN4core3ptr107drop_in_place$LT$core..pin..Pin$LT$alloc..boxed..Box$LT$std..sys..pal..unix..sync..mutex..Mutex$GT$$GT$$GT$17h3aeea96dd755cfb4E', symObjAddr: 0x1CF8, symBinAddr: 0x25F60, symSize: 0x2C }
  - { offset: 0x57352, size: 0x8, addend: 0x0, symName: '__ZN4core3ptr119drop_in_place$LT$std..io..default_write_fmt..Adapter$LT$std..io..cursor..Cursor$LT$$RF$mut$u20$$u5b$u8$u5d$$GT$$GT$$GT$17h8294f296a7dc0264E', symObjAddr: 0x1DA8, symBinAddr: 0x25F8C, symSize: 0x10 }
  - { offset: 0x57369, size: 0x8, addend: 0x0, symName: '__ZN4core3ptr119drop_in_place$LT$std..io..default_write_fmt..Adapter$LT$std..io..cursor..Cursor$LT$$RF$mut$u20$$u5b$u8$u5d$$GT$$GT$$GT$17h8294f296a7dc0264E', symObjAddr: 0x1DA8, symBinAddr: 0x25F8C, symSize: 0x10 }
  - { offset: 0x5738A, size: 0x8, addend: 0x0, symName: '__ZN4core3ptr123drop_in_place$LT$addr2line..Context$LT$gimli..read..endian_slice..EndianSlice$LT$gimli..endianity..LittleEndian$GT$$GT$$GT$17h86eb599b9bd6b6b4E', symObjAddr: 0x1DB8, symBinAddr: 0x25F9C, symSize: 0x70 }
  - { offset: 0x5746D, size: 0x8, addend: 0x0, symName: '__ZN4core3ptr128drop_in_place$LT$core..result..Result$LT$$RF$std..thread..Thread$C$$LP$$RF$std..thread..Thread$C$std..thread..Thread$RP$$GT$$GT$17h962b0ef080f547dcE', symObjAddr: 0x1F70, symBinAddr: 0x2600C, symSize: 0x28 }
  - { offset: 0x57617, size: 0x8, addend: 0x0, symName: '__ZN4core3ptr129drop_in_place$LT$addr2line..unit..ResUnit$LT$gimli..read..endian_slice..EndianSlice$LT$gimli..endianity..LittleEndian$GT$$GT$$GT$17h6704d8d711f50964E', symObjAddr: 0x1F98, symBinAddr: 0x26034, symSize: 0xE4 }
  - { offset: 0x57839, size: 0x8, addend: 0x0, symName: '__ZN4core3ptr129drop_in_place$LT$addr2line..unit..SupUnit$LT$gimli..read..endian_slice..EndianSlice$LT$gimli..endianity..LittleEndian$GT$$GT$$GT$17h3178d992ad3814bdE', symObjAddr: 0x207C, symBinAddr: 0x26118, symSize: 0x54 }
  - { offset: 0x57914, size: 0x8, addend: 0x0, symName: '__ZN4core3ptr130drop_in_place$LT$addr2line..unit..ResUnits$LT$gimli..read..endian_slice..EndianSlice$LT$gimli..endianity..LittleEndian$GT$$GT$$GT$17hec2ee29328c5cc7bE', symObjAddr: 0x20D0, symBinAddr: 0x2616C, symSize: 0xD0 }
  - { offset: 0x57ABD, size: 0x8, addend: 0x0, symName: '__ZN4core3ptr130drop_in_place$LT$addr2line..unit..SupUnits$LT$gimli..read..endian_slice..EndianSlice$LT$gimli..endianity..LittleEndian$GT$$GT$$GT$17h1322e2d105d2f1f9E', symObjAddr: 0x21A0, symBinAddr: 0x2623C, symSize: 0xE4 }
  - { offset: 0x57C7B, size: 0x8, addend: 0x0, symName: '__ZN4core3ptr130drop_in_place$LT$gimli..read..dwarf..Dwarf$LT$gimli..read..endian_slice..EndianSlice$LT$gimli..endianity..LittleEndian$GT$$GT$$GT$17hf3b20fbd9db1a9fdE', symObjAddr: 0x2284, symBinAddr: 0x26320, symSize: 0x58 }
  - { offset: 0x57D49, size: 0x8, addend: 0x0, symName: '__ZN4core3ptr131drop_in_place$LT$$u5b$core..option..Option$LT$core..option..Option$LT$std..backtrace_rs..symbolize..gimli..Mapping$GT$$GT$$u5d$$GT$17h018dc685d3dd2730E', symObjAddr: 0x22DC, symBinAddr: 0x26378, symSize: 0xCC }
  - { offset: 0x57DF3, size: 0x8, addend: 0x0, symName: '__ZN4core3ptr131drop_in_place$LT$alloc..boxed..Box$LT$dyn$u20$core..ops..function..FnOnce$LT$$LP$$RP$$GT$$u2b$Output$u20$$u3d$$u20$$LP$$RP$$GT$$GT$17h6447749885f22292E', symObjAddr: 0x23A8, symBinAddr: 0x26444, symSize: 0x78 }
  - { offset: 0x57EDE, size: 0x8, addend: 0x0, symName: '__ZN4core3ptr137drop_in_place$LT$gimli..read..dwarf..Unit$LT$gimli..read..endian_slice..EndianSlice$LT$gimli..endianity..LittleEndian$GT$$C$usize$GT$$GT$17h4031e9c5dec06b9aE', symObjAddr: 0x246C, symBinAddr: 0x264BC, symSize: 0x54 }
  - { offset: 0x57FDB, size: 0x8, addend: 0x0, symName: '__ZN4core3ptr138drop_in_place$LT$addr2line..function..LazyFunction$LT$gimli..read..endian_slice..EndianSlice$LT$gimli..endianity..LittleEndian$GT$$GT$$GT$17ha3709aaa52158f89E', symObjAddr: 0x24C0, symBinAddr: 0x26510, symSize: 0x64 }
  - { offset: 0x57FF2, size: 0x8, addend: 0x0, symName: '__ZN4core3ptr138drop_in_place$LT$addr2line..function..LazyFunction$LT$gimli..read..endian_slice..EndianSlice$LT$gimli..endianity..LittleEndian$GT$$GT$$GT$17ha3709aaa52158f89E', symObjAddr: 0x24C0, symBinAddr: 0x26510, symSize: 0x64 }
  - { offset: 0x58007, size: 0x8, addend: 0x0, symName: '__ZN4core3ptr138drop_in_place$LT$addr2line..function..LazyFunction$LT$gimli..read..endian_slice..EndianSlice$LT$gimli..endianity..LittleEndian$GT$$GT$$GT$17ha3709aaa52158f89E', symObjAddr: 0x24C0, symBinAddr: 0x26510, symSize: 0x64 }
  - { offset: 0x5801C, size: 0x8, addend: 0x0, symName: '__ZN4core3ptr138drop_in_place$LT$addr2line..function..LazyFunction$LT$gimli..read..endian_slice..EndianSlice$LT$gimli..endianity..LittleEndian$GT$$GT$$GT$17ha3709aaa52158f89E', symObjAddr: 0x24C0, symBinAddr: 0x26510, symSize: 0x64 }
  - { offset: 0x5815E, size: 0x8, addend: 0x0, symName: '__ZN4core3ptr144drop_in_place$LT$alloc..vec..Vec$LT$core..option..Option$LT$core..option..Option$LT$std..backtrace_rs..symbolize..gimli..Mapping$GT$$GT$$GT$$GT$17he58f1b72666b9c59E', symObjAddr: 0x2524, symBinAddr: 0x26574, symSize: 0x78 }
  - { offset: 0x582C6, size: 0x8, addend: 0x0, symName: '__ZN4core3ptr152drop_in_place$LT$alloc..vec..Vec$LT$addr2line..unit..ResUnit$LT$gimli..read..endian_slice..EndianSlice$LT$gimli..endianity..LittleEndian$GT$$GT$$GT$$GT$17he2165088e8298335E', symObjAddr: 0x2668, symBinAddr: 0x265EC, symSize: 0xC4 }
  - { offset: 0x58435, size: 0x8, addend: 0x0, symName: '__ZN4core3ptr152drop_in_place$LT$alloc..vec..Vec$LT$addr2line..unit..SupUnit$LT$gimli..read..endian_slice..EndianSlice$LT$gimli..endianity..LittleEndian$GT$$GT$$GT$$GT$17h87f5dc9d3cca3a77E', symObjAddr: 0x272C, symBinAddr: 0x266B0, symSize: 0xF4 }
  - { offset: 0x5864D, size: 0x8, addend: 0x0, symName: '__ZN4core3ptr156drop_in_place$LT$alloc..boxed..Box$LT$$u5b$core..option..Option$LT$core..option..Option$LT$std..backtrace_rs..symbolize..gimli..Mapping$GT$$GT$$u5d$$GT$$GT$17h662502e0fd7f60b9E', symObjAddr: 0x2820, symBinAddr: 0x267A4, symSize: 0xF8 }
  - { offset: 0x58777, size: 0x8, addend: 0x0, symName: '__ZN4core3ptr159drop_in_place$LT$alloc..sync..ArcInner$LT$gimli..read..dwarf..Dwarf$LT$gimli..read..endian_slice..EndianSlice$LT$gimli..endianity..LittleEndian$GT$$GT$$GT$$GT$17ha75a7326775ef05eE', symObjAddr: 0x2918, symBinAddr: 0x2689C, symSize: 0x5C }
  - { offset: 0x5883C, size: 0x8, addend: 0x0, symName: '__ZN4core3ptr161drop_in_place$LT$alloc..vec..Vec$LT$addr2line..function..LazyFunction$LT$gimli..read..endian_slice..EndianSlice$LT$gimli..endianity..LittleEndian$GT$$GT$$GT$$GT$17hd921ce6f632b87b3E', symObjAddr: 0x2974, symBinAddr: 0x268F8, symSize: 0xAC }
  - { offset: 0x58A79, size: 0x8, addend: 0x0, symName: '__ZN4core3ptr172drop_in_place$LT$core..result..Result$LT$addr2line..Context$LT$gimli..read..endian_slice..EndianSlice$LT$gimli..endianity..LittleEndian$GT$$GT$$C$gimli..read..Error$GT$$GT$17h1cda5e1d1a7951dcE', symObjAddr: 0x2ACC, symBinAddr: 0x269A4, symSize: 0x80 }
  - { offset: 0x58B0E, size: 0x8, addend: 0x0, symName: '__ZN4core3ptr173drop_in_place$LT$alloc..boxed..Box$LT$$u5b$addr2line..function..LazyFunction$LT$gimli..read..endian_slice..EndianSlice$LT$gimli..endianity..LittleEndian$GT$$GT$$u5d$$GT$$GT$17h34d35d9ea3d3b9d5E', symObjAddr: 0x2B4C, symBinAddr: 0x26A24, symSize: 0x9C }
  - { offset: 0x58B25, size: 0x8, addend: 0x0, symName: '__ZN4core3ptr173drop_in_place$LT$alloc..boxed..Box$LT$$u5b$addr2line..function..LazyFunction$LT$gimli..read..endian_slice..EndianSlice$LT$gimli..endianity..LittleEndian$GT$$GT$$u5d$$GT$$GT$17h34d35d9ea3d3b9d5E', symObjAddr: 0x2B4C, symBinAddr: 0x26A24, symSize: 0x9C }
  - { offset: 0x58D6A, size: 0x8, addend: 0x0, symName: '__ZN4core3ptr181drop_in_place$LT$core..option..Option$LT$gimli..read..line..IncompleteLineProgram$LT$gimli..read..endian_slice..EndianSlice$LT$gimli..endianity..LittleEndian$GT$$C$usize$GT$$GT$$GT$17h59a58c9c9c958e24E', symObjAddr: 0x2C58, symBinAddr: 0x26AC0, symSize: 0x98 }
  - { offset: 0x59025, size: 0x8, addend: 0x0, symName: '__ZN4core3ptr181drop_in_place$LT$core..result..Result$LT$addr2line..frame..FrameIter$LT$gimli..read..endian_slice..EndianSlice$LT$gimli..endianity..LittleEndian$GT$$GT$$C$gimli..read..Error$GT$$GT$17h49f2f998bcc2f32aE', symObjAddr: 0x2CF0, symBinAddr: 0x26B58, symSize: 0x34 }
  - { offset: 0x59163, size: 0x8, addend: 0x0, symName: '__ZN4core3ptr184drop_in_place$LT$core..result..Result$LT$addr2line..function..Functions$LT$gimli..read..endian_slice..EndianSlice$LT$gimli..endianity..LittleEndian$GT$$GT$$C$gimli..read..Error$GT$$GT$17h10dd28e922629511E', symObjAddr: 0x2D24, symBinAddr: 0x26B8C, symSize: 0xD8 }
  - { offset: 0x59BC1, size: 0x8, addend: 0x0, symName: '__ZN4core3ptr199drop_in_place$LT$core..result..Result$LT$core..option..Option$LT$alloc..sync..Arc$LT$std..sync..poison..mutex..Mutex$LT$alloc..vec..Vec$LT$u8$GT$$GT$$GT$$GT$$C$std..thread..local..AccessError$GT$$GT$17hc820eafe807d521eE', symObjAddr: 0x2EBC, symBinAddr: 0x26C64, symSize: 0x2C }
  - { offset: 0x59C88, size: 0x8, addend: 0x0, symName: '__ZN4core3ptr231drop_in_place$LT$core..result..Result$LT$core..option..Option$LT$alloc..boxed..Box$LT$addr2line..unit..DwoUnit$LT$gimli..read..endian_slice..EndianSlice$LT$gimli..endianity..LittleEndian$GT$$GT$$GT$$GT$$C$gimli..read..Error$GT$$GT$17hdbd1f85fa898eaf9E', symObjAddr: 0x2EE8, symBinAddr: 0x26C90, symSize: 0xD4 }
  - { offset: 0x59E71, size: 0x8, addend: 0x0, symName: '__ZN4core3ptr275drop_in_place$LT$gimli..read..line..LineRows$LT$gimli..read..endian_slice..EndianSlice$LT$gimli..endianity..LittleEndian$GT$$C$gimli..read..line..IncompleteLineProgram$LT$gimli..read..endian_slice..EndianSlice$LT$gimli..endianity..LittleEndian$GT$$C$usize$GT$$C$usize$GT$$GT$17hebba07efb64a969cE', symObjAddr: 0x2FD4, symBinAddr: 0x26D64, symSize: 0x8C }
  - { offset: 0x5A0E6, size: 0x8, addend: 0x0, symName: '__ZN4core3ptr280drop_in_place$LT$$LT$alloc..collections..btree..map..IntoIter$LT$K$C$V$C$A$GT$$u20$as$u20$core..ops..drop..Drop$GT$..drop..DropGuard$LT$u64$C$core..result..Result$LT$alloc..sync..Arc$LT$gimli..read..abbrev..Abbreviations$GT$$C$gimli..read..Error$GT$$C$alloc..alloc..Global$GT$$GT$17h605d7228f128decdE', symObjAddr: 0x3060, symBinAddr: 0x26DF0, symSize: 0x84 }
  - { offset: 0x5A256, size: 0x8, addend: 0x0, symName: '__ZN4core3ptr284drop_in_place$LT$core..result..Result$LT$$RF$core..result..Result$LT$addr2line..line..Lines$C$gimli..read..Error$GT$$C$$LP$$RF$core..result..Result$LT$addr2line..line..Lines$C$gimli..read..Error$GT$$C$core..result..Result$LT$addr2line..line..Lines$C$gimli..read..Error$GT$$RP$$GT$$GT$17h4c3f39ee410886d9E', symObjAddr: 0x30E4, symBinAddr: 0x26E74, symSize: 0x14 }
  - { offset: 0x5A2B1, size: 0x8, addend: 0x0, symName: '__ZN4core3ptr41drop_in_place$LT$std..panicking..Hook$GT$17h4d173a7b09a9f32cE', symObjAddr: 0x3230, symBinAddr: 0x26E88, symSize: 0x7C }
  - { offset: 0x5A3AA, size: 0x8, addend: 0x0, symName: '__ZN4core3ptr42drop_in_place$LT$alloc..string..String$GT$17hac81f7a4d168ae64E', symObjAddr: 0x32AC, symBinAddr: 0x26F04, symSize: 0x18 }
  - { offset: 0x5A3C1, size: 0x8, addend: 0x0, symName: '__ZN4core3ptr42drop_in_place$LT$alloc..string..String$GT$17hac81f7a4d168ae64E', symObjAddr: 0x32AC, symBinAddr: 0x26F04, symSize: 0x18 }
  - { offset: 0x5A485, size: 0x8, addend: 0x0, symName: '__ZN4core3ptr42drop_in_place$LT$std..io..error..Error$GT$17habd70f1b431d348cE', symObjAddr: 0x32C4, symBinAddr: 0x26F1C, symSize: 0xAC }
  - { offset: 0x5A6AF, size: 0x8, addend: 0x0, symName: '__ZN4core3ptr44drop_in_place$LT$object..read..ObjectMap$GT$17h70ce07c320cc7419E', symObjAddr: 0x3370, symBinAddr: 0x26FC8, symSize: 0x58 }
  - { offset: 0x5A7DE, size: 0x8, addend: 0x0, symName: '__ZN4core3ptr46drop_in_place$LT$alloc..vec..Vec$LT$u8$GT$$GT$17hb337dff62f58fd0bE', symObjAddr: 0x3434, symBinAddr: 0x27020, symSize: 0x18 }
  - { offset: 0x5A86B, size: 0x8, addend: 0x0, symName: '__ZN4core3ptr46drop_in_place$LT$std..io..stdio..StdinLock$GT$17hb805540b2d8fd9f7E', symObjAddr: 0x344C, symBinAddr: 0x27038, symSize: 0x54 }
  - { offset: 0x5A882, size: 0x8, addend: 0x0, symName: '__ZN4core3ptr46drop_in_place$LT$std..io..stdio..StdinLock$GT$17hb805540b2d8fd9f7E', symObjAddr: 0x344C, symBinAddr: 0x27038, symSize: 0x54 }
  - { offset: 0x5A897, size: 0x8, addend: 0x0, symName: '__ZN4core3ptr46drop_in_place$LT$std..io..stdio..StdinLock$GT$17hb805540b2d8fd9f7E', symObjAddr: 0x344C, symBinAddr: 0x27038, symSize: 0x54 }
  - { offset: 0x5A989, size: 0x8, addend: 0x0, symName: '__ZN4core3ptr48drop_in_place$LT$alloc..ffi..c_str..NulError$GT$17h0aa90617c2ef35ffE', symObjAddr: 0x3584, symBinAddr: 0x2708C, symSize: 0x18 }
  - { offset: 0x5A9A0, size: 0x8, addend: 0x0, symName: '__ZN4core3ptr48drop_in_place$LT$alloc..ffi..c_str..NulError$GT$17h0aa90617c2ef35ffE', symObjAddr: 0x3584, symBinAddr: 0x2708C, symSize: 0x18 }
  - { offset: 0x5AA2C, size: 0x8, addend: 0x0, symName: '__ZN4core3ptr557drop_in_place$LT$core..result..Result$LT$$RF$core..result..Result$LT$addr2line..function..Function$LT$gimli..read..endian_slice..EndianSlice$LT$gimli..endianity..LittleEndian$GT$$GT$$C$gimli..read..Error$GT$$C$$LP$$RF$core..result..Result$LT$addr2line..function..Function$LT$gimli..read..endian_slice..EndianSlice$LT$gimli..endianity..LittleEndian$GT$$GT$$C$gimli..read..Error$GT$$C$core..result..Result$LT$addr2line..function..Function$LT$gimli..read..endian_slice..EndianSlice$LT$gimli..endianity..LittleEndian$GT$$GT$$C$gimli..read..Error$GT$$RP$$GT$$GT$17h748b27d3ad91b666E', symObjAddr: 0x37B0, symBinAddr: 0x270A4, symSize: 0x64 }
  - { offset: 0x5AC16, size: 0x8, addend: 0x0, symName: '__ZN4core3ptr55drop_in_place$LT$gimli..read..abbrev..Abbreviations$GT$17h5d64ddc376f7673eE', symObjAddr: 0x3814, symBinAddr: 0x27108, symSize: 0x118 }
  - { offset: 0x5AF79, size: 0x8, addend: 0x0, symName: '__ZN4core3ptr560drop_in_place$LT$core..result..Result$LT$$RF$core..result..Result$LT$addr2line..function..Functions$LT$gimli..read..endian_slice..EndianSlice$LT$gimli..endianity..LittleEndian$GT$$GT$$C$gimli..read..Error$GT$$C$$LP$$RF$core..result..Result$LT$addr2line..function..Functions$LT$gimli..read..endian_slice..EndianSlice$LT$gimli..endianity..LittleEndian$GT$$GT$$C$gimli..read..Error$GT$$C$core..result..Result$LT$addr2line..function..Functions$LT$gimli..read..endian_slice..EndianSlice$LT$gimli..endianity..LittleEndian$GT$$GT$$C$gimli..read..Error$GT$$RP$$GT$$GT$17h20f4a6896059bba5E', symObjAddr: 0x39B0, symBinAddr: 0x27220, symSize: 0x14 }
  - { offset: 0x5AFD4, size: 0x8, addend: 0x0, symName: '__ZN4core3ptr60drop_in_place$LT$gimli..read..abbrev..AbbreviationsCache$GT$17h07c70485ebd56478E', symObjAddr: 0x39C4, symBinAddr: 0x27234, symSize: 0xCC }
  - { offset: 0x5B18D, size: 0x8, addend: 0x0, symName: '__ZN4core3ptr64drop_in_place$LT$std..sys..pal..unix..sync..mutex..AttrGuard$GT$17h0a5906221301930bE', symObjAddr: 0x3B1C, symBinAddr: 0x27300, symSize: 0x48 }
  - { offset: 0x5B1CC, size: 0x8, addend: 0x0, symName: '__ZN4core3ptr65drop_in_place$LT$alloc..vec..Vec$LT$alloc..string..String$GT$$GT$17h66cdbc24d9622501E', symObjAddr: 0x3C30, symBinAddr: 0x27348, symSize: 0x80 }
  - { offset: 0x5B36A, size: 0x8, addend: 0x0, symName: '__ZN4core3ptr65drop_in_place$LT$std..backtrace_rs..symbolize..gimli..Context$GT$17h164c0942f12400dbE', symObjAddr: 0x3CB0, symBinAddr: 0x273C8, symSize: 0xE8 }
  - { offset: 0x5B5FC, size: 0x8, addend: 0x0, symName: '__ZN4core3ptr66drop_in_place$LT$std..backtrace_rs..backtrace..libunwind..Bomb$GT$17h551fed0d2b731830E', symObjAddr: 0x3D98, symBinAddr: 0x274B0, symSize: 0x40 }
  - { offset: 0x5B648, size: 0x8, addend: 0x0, symName: '__ZN4core3ptr701drop_in_place$LT$core..result..Result$LT$$RF$core..result..Result$LT$core..option..Option$LT$alloc..boxed..Box$LT$addr2line..unit..DwoUnit$LT$gimli..read..endian_slice..EndianSlice$LT$gimli..endianity..LittleEndian$GT$$GT$$GT$$GT$$C$gimli..read..Error$GT$$C$$LP$$RF$core..result..Result$LT$core..option..Option$LT$alloc..boxed..Box$LT$addr2line..unit..DwoUnit$LT$gimli..read..endian_slice..EndianSlice$LT$gimli..endianity..LittleEndian$GT$$GT$$GT$$GT$$C$gimli..read..Error$GT$$C$core..result..Result$LT$core..option..Option$LT$alloc..boxed..Box$LT$addr2line..unit..DwoUnit$LT$gimli..read..endian_slice..EndianSlice$LT$gimli..endianity..LittleEndian$GT$$GT$$GT$$GT$$C$gimli..read..Error$GT$$RP$$GT$$GT$17h99be7971756b6652E', symObjAddr: 0x3DD8, symBinAddr: 0x274F0, symSize: 0x14 }
  - { offset: 0x5B6E9, size: 0x8, addend: 0x0, symName: '__ZN4core3ptr70drop_in_place$LT$std..backtrace_rs..symbolize..gimli..stash..Stash$GT$17hf2d48d9015d0f7c8E', symObjAddr: 0x3E6C, symBinAddr: 0x27504, symSize: 0xB8 }
  - { offset: 0x5B98F, size: 0x8, addend: 0x0, symName: '__ZN4core3ptr71drop_in_place$LT$std..backtrace_rs..symbolize..gimli..macho..Object$GT$17h8bb3839755842750E', symObjAddr: 0x3F24, symBinAddr: 0x275BC, symSize: 0xD8 }
  - { offset: 0x5BC62, size: 0x8, addend: 0x0, symName: '__ZN4core3ptr71drop_in_place$LT$std..panicking..rust_panic_without_hook..RewrapBox$GT$17hda01fc69eae72364E', symObjAddr: 0x3FFC, symBinAddr: 0x27694, symSize: 0x6C }
  - { offset: 0x5BD5B, size: 0x8, addend: 0x0, symName: '__ZN4core3ptr72drop_in_place$LT$core..option..Option$LT$object..read..ObjectMap$GT$$GT$17hc7c56c88aae4c5fcE', symObjAddr: 0x4068, symBinAddr: 0x27700, symSize: 0x64 }
  - { offset: 0x5BED8, size: 0x8, addend: 0x0, symName: '__ZN4core3ptr73drop_in_place$LT$alloc..vec..Vec$LT$addr2line..line..LineSequence$GT$$GT$17he296d46dd6d5cbabE', symObjAddr: 0x40CC, symBinAddr: 0x27764, symSize: 0x84 }
  - { offset: 0x5C03E, size: 0x8, addend: 0x0, symName: '__ZN4core3ptr77drop_in_place$LT$alloc..boxed..Box$LT$$u5b$alloc..string..String$u5d$$GT$$GT$17hc446220f14ad3f54E', symObjAddr: 0x4188, symBinAddr: 0x277E8, symSize: 0x70 }
  - { offset: 0x5C055, size: 0x8, addend: 0x0, symName: '__ZN4core3ptr77drop_in_place$LT$alloc..boxed..Box$LT$$u5b$alloc..string..String$u5d$$GT$$GT$17hc446220f14ad3f54E', symObjAddr: 0x4188, symBinAddr: 0x277E8, symSize: 0x70 }
  - { offset: 0x5C161, size: 0x8, addend: 0x0, symName: '__ZN4core3ptr77drop_in_place$LT$std..panicking..begin_panic_handler..FormatStringPayload$GT$17h6fcfcc78704673e3E', symObjAddr: 0x41F8, symBinAddr: 0x27858, symSize: 0x24 }
  - { offset: 0x5C21D, size: 0x8, addend: 0x0, symName: '__ZN4core3ptr79drop_in_place$LT$std..sync..poison..rwlock..RwLockReadGuard$LT$$LP$$RP$$GT$$GT$17hc54fd0027bbd6d30E', symObjAddr: 0x4230, symBinAddr: 0x2787C, symSize: 0x58 }
  - { offset: 0x5C2B9, size: 0x8, addend: 0x0, symName: '__ZN4core3ptr81drop_in_place$LT$core..result..Result$LT$$LP$$RP$$C$std..io..error..Error$GT$$GT$17ha905afa1a1b69da6E', symObjAddr: 0x4288, symBinAddr: 0x278D4, symSize: 0x10 }
  - { offset: 0x5C2E9, size: 0x8, addend: 0x0, symName: '__ZN4core3ptr82drop_in_place$LT$alloc..sync..ArcInner$LT$std..sys..fs..unix..InnerReadDir$GT$$GT$17h5d4f495acfd7dae8E', symObjAddr: 0x4368, symBinAddr: 0x278E4, symSize: 0x60 }
  - { offset: 0x5C4B6, size: 0x8, addend: 0x0, symName: '__ZN4core3ptr92drop_in_place$LT$core..result..Result$LT$addr2line..line..Lines$C$gimli..read..Error$GT$$GT$17h0ed91c593b269246E', symObjAddr: 0x4508, symBinAddr: 0x27944, symSize: 0xE4 }
  - { offset: 0x5C6FC, size: 0x8, addend: 0x0, symName: '__ZN4core3ptr93drop_in_place$LT$core..option..Option$LT$std..backtrace_rs..symbolize..gimli..Mapping$GT$$GT$17h110055b033f66c0fE', symObjAddr: 0x45EC, symBinAddr: 0x27A28, symSize: 0x6C }
  - { offset: 0x5E7CD, size: 0x8, addend: 0x0, symName: __ZN4core5slice4sort6stable14driftsort_main17h521ab17a5a757164E, symObjAddr: 0x9098, symBinAddr: 0x29318, symSize: 0x140 }
  - { offset: 0x5EA70, size: 0x8, addend: 0x0, symName: __ZN4core5slice4sort6stable14driftsort_main17ha9075508af06de20E, symObjAddr: 0x91D8, symBinAddr: 0x29458, symSize: 0x164 }
  - { offset: 0x5ED69, size: 0x8, addend: 0x0, symName: __ZN4core5slice4sort6stable14driftsort_main17hb0662f4917d01b7dE, symObjAddr: 0x933C, symBinAddr: 0x295BC, symSize: 0x140 }
  - { offset: 0x5F00C, size: 0x8, addend: 0x0, symName: __ZN4core5slice4sort6stable14driftsort_main17hbec9c5ede644b796E, symObjAddr: 0x947C, symBinAddr: 0x296FC, symSize: 0x164 }
  - { offset: 0x5F305, size: 0x8, addend: 0x0, symName: __ZN4core5slice4sort6stable14driftsort_main17hc6af17bd05ac089fE, symObjAddr: 0x95E0, symBinAddr: 0x29860, symSize: 0x140 }
  - { offset: 0x5F526, size: 0x8, addend: 0x0, symName: __ZN4core5slice4sort6stable14driftsort_main17hfd7dcf5984234633E, symObjAddr: 0x9720, symBinAddr: 0x299A0, symSize: 0x140 }
  - { offset: 0x5F9BA, size: 0x8, addend: 0x0, symName: __ZN4core5slice4sort6stable5drift4sort17h6aaaaf784e659385E, symObjAddr: 0x9860, symBinAddr: 0x29AE0, symSize: 0x4E0 }
  - { offset: 0x5FFA9, size: 0x8, addend: 0x0, symName: __ZN4core5slice4sort6stable5drift4sort17h866748af94df36ccE, symObjAddr: 0x9D40, symBinAddr: 0x29FC0, symSize: 0x538 }
  - { offset: 0x6063C, size: 0x8, addend: 0x0, symName: __ZN4core5slice4sort6stable5drift4sort17h9ccd45f18f7947baE, symObjAddr: 0xA278, symBinAddr: 0x2A4F8, symSize: 0x4F8 }
  - { offset: 0x60CBB, size: 0x8, addend: 0x0, symName: __ZN4core5slice4sort6stable5drift4sort17haa5e5863b64b9a60E, symObjAddr: 0xA770, symBinAddr: 0x2A9F0, symSize: 0x5EC }
  - { offset: 0x61375, size: 0x8, addend: 0x0, symName: __ZN4core5slice4sort6stable5drift4sort17hb68090b03a5248c3E, symObjAddr: 0xAD5C, symBinAddr: 0x2AFDC, symSize: 0x530 }
  - { offset: 0x619E0, size: 0x8, addend: 0x0, symName: __ZN4core5slice4sort6stable5drift4sort17he935295b9297be3dE, symObjAddr: 0xB28C, symBinAddr: 0x2B50C, symSize: 0x4F8 }
  - { offset: 0x62263, size: 0x8, addend: 0x0, symName: __ZN4core5slice4sort6stable9quicksort9quicksort17h0ca9f036defe4ca1E, symObjAddr: 0xB784, symBinAddr: 0x2BA04, symSize: 0x834 }
  - { offset: 0x62E4E, size: 0x8, addend: 0x0, symName: __ZN4core5slice4sort6stable9quicksort9quicksort17h0dcd6807bb10c1ddE, symObjAddr: 0xBFB8, symBinAddr: 0x2C238, symSize: 0x6D8 }
  - { offset: 0x6390E, size: 0x8, addend: 0x0, symName: __ZN4core5slice4sort6stable9quicksort9quicksort17h403c35809902d95cE, symObjAddr: 0xC690, symBinAddr: 0x2C910, symSize: 0x74C }
  - { offset: 0x64053, size: 0x8, addend: 0x0, symName: __ZN4core5slice4sort6stable9quicksort9quicksort17h52ed04d04eb94d9aE, symObjAddr: 0xCDDC, symBinAddr: 0x2D05C, symSize: 0x834 }
  - { offset: 0x64FEA, size: 0x8, addend: 0x0, symName: __ZN4core5slice4sort6stable9quicksort9quicksort17h6a6db67da80ded8fE, symObjAddr: 0xD610, symBinAddr: 0x2D890, symSize: 0x6E0 }
  - { offset: 0x65AAA, size: 0x8, addend: 0x0, symName: __ZN4core5slice4sort6stable9quicksort9quicksort17hfc1631ac0f214f19E, symObjAddr: 0xDCF0, symBinAddr: 0x2DF70, symSize: 0x810 }
  - { offset: 0x66726, size: 0x8, addend: 0x0, symName: __ZN4core5slice4sort6shared9smallsort12sort4_stable17h31fac7551cf33bd2E, symObjAddr: 0x7F40, symBinAddr: 0x281C0, symSize: 0x194 }
  - { offset: 0x668D3, size: 0x8, addend: 0x0, symName: __ZN4core5slice4sort6shared9smallsort12sort4_stable17hf90c0556197dda99E, symObjAddr: 0x80D4, symBinAddr: 0x28354, symSize: 0x180 }
  - { offset: 0x66CF5, size: 0x8, addend: 0x0, symName: __ZN4core5slice4sort6shared9smallsort12sort8_stable17hf7b6a991869544ccE, symObjAddr: 0x8254, symBinAddr: 0x284D4, symSize: 0x2B8 }
  - { offset: 0x671DE, size: 0x8, addend: 0x0, symName: __ZN4core5slice4sort6shared9smallsort18small_sort_general17h034e2245b0bf43b0E, symObjAddr: 0x850C, symBinAddr: 0x2878C, symSize: 0x400 }
  - { offset: 0x6774B, size: 0x8, addend: 0x0, symName: __ZN4core5slice4sort6shared9smallsort18small_sort_general17h87ad8da531a3f31aE, symObjAddr: 0x890C, symBinAddr: 0x28B8C, symSize: 0x4A4 }
  - { offset: 0x67E43, size: 0x8, addend: 0x0, symName: __ZN4core5slice4sort6shared9smallsort25insertion_sort_shift_left17h42562c73653bb666E, symObjAddr: 0x8DB0, symBinAddr: 0x29030, symSize: 0xA8 }
  - { offset: 0x67F1B, size: 0x8, addend: 0x0, symName: __ZN4core5slice4sort6shared9smallsort25insertion_sort_shift_left17ha2f1b9cdd766aaa4E, symObjAddr: 0x8E58, symBinAddr: 0x290D8, symSize: 0xB8 }
  - { offset: 0x68049, size: 0x8, addend: 0x0, symName: __ZN4core5slice4sort6shared9smallsort25insertion_sort_shift_left17hbf93252988a52ab7E, symObjAddr: 0x8F10, symBinAddr: 0x29190, symSize: 0x94 }
  - { offset: 0x68113, size: 0x8, addend: 0x0, symName: __ZN4core5slice4sort6shared9smallsort25insertion_sort_shift_left17hd501c44f9cc25640E, symObjAddr: 0x8FA4, symBinAddr: 0x29224, symSize: 0xF4 }
  - { offset: 0x68510, size: 0x8, addend: 0x0, symName: __ZN4core5slice4sort6shared5pivot11median3_rec17h0df86c062c3307f3E, symObjAddr: 0x781C, symBinAddr: 0x27A9C, symSize: 0x11C }
  - { offset: 0x6860C, size: 0x8, addend: 0x0, symName: __ZN4core5slice4sort6shared5pivot11median3_rec17h4e5272a39440c6fcE, symObjAddr: 0x7938, symBinAddr: 0x27BB8, symSize: 0xCC }
  - { offset: 0x68731, size: 0x8, addend: 0x0, symName: __ZN4core5slice4sort6shared5pivot11median3_rec17h5a457aecc5390e2dE, symObjAddr: 0x7A04, symBinAddr: 0x27C84, symSize: 0xD0 }
  - { offset: 0x6882C, size: 0x8, addend: 0x0, symName: __ZN4core5slice4sort6shared5pivot11median3_rec17h63b3210c63d487e5E, symObjAddr: 0x7AD4, symBinAddr: 0x27D54, symSize: 0xD0 }
  - { offset: 0x68925, size: 0x8, addend: 0x0, symName: __ZN4core5slice4sort6shared5pivot11median3_rec17h6546c17569d2c228E, symObjAddr: 0x7BA4, symBinAddr: 0x27E24, symSize: 0x134 }
  - { offset: 0x68B4C, size: 0x8, addend: 0x0, symName: __ZN4core5slice4sort6shared5pivot11median3_rec17h825498fa0147afcdE, symObjAddr: 0x7CD8, symBinAddr: 0x27F58, symSize: 0xCC }
  - { offset: 0x68C45, size: 0x8, addend: 0x0, symName: __ZN4core5slice4sort6shared5pivot11median3_rec17hcc5592aee9a962d6E, symObjAddr: 0x7DA4, symBinAddr: 0x28024, symSize: 0xCC }
  - { offset: 0x68D3E, size: 0x8, addend: 0x0, symName: __ZN4core5slice4sort6shared5pivot11median3_rec17hd5918a3d1c875d2dE, symObjAddr: 0x7E70, symBinAddr: 0x280F0, symSize: 0xD0 }
  - { offset: 0x68F01, size: 0x8, addend: 0x0, symName: __ZN4core5slice4sort8unstable7ipnsort17h3050acbcca3cb150E, symObjAddr: 0xE500, symBinAddr: 0x2E780, symSize: 0xEC }
  - { offset: 0x69043, size: 0x8, addend: 0x0, symName: __ZN4core5slice4sort8unstable7ipnsort17hfd87871531817c09E, symObjAddr: 0xE5EC, symBinAddr: 0x2E86C, symSize: 0x1A8 }
  - { offset: 0x69317, size: 0x8, addend: 0x0, symName: __ZN4core5slice4sort8unstable8heapsort8heapsort17h018ffb6550069dc5E, symObjAddr: 0xE794, symBinAddr: 0x2EA14, symSize: 0x100 }
  - { offset: 0x69503, size: 0x8, addend: 0x0, symName: __ZN4core5slice4sort8unstable8heapsort8heapsort17h13deb584184321b4E, symObjAddr: 0xE894, symBinAddr: 0x2EB14, symSize: 0x160 }
  - { offset: 0x69886, size: 0x8, addend: 0x0, symName: __ZN4core5slice4sort8unstable9quicksort9quicksort17h6207a09384b1d73eE, symObjAddr: 0xE9F4, symBinAddr: 0x2EC74, symSize: 0x598 }
  - { offset: 0x6A41C, size: 0x8, addend: 0x0, symName: __ZN4core5slice4sort8unstable9quicksort9quicksort17hf6b9320c24c346cdE, symObjAddr: 0xEF8C, symBinAddr: 0x2F20C, symSize: 0x408 }
  - { offset: 0x6AD9B, size: 0x8, addend: 0x0, symName: '__ZN36_$LT$T$u20$as$u20$core..any..Any$GT$7type_id17h691fb3b547986c67E', symObjAddr: 0x13C, symBinAddr: 0x2585C, symSize: 0x24 }
  - { offset: 0x6ADB5, size: 0x8, addend: 0x0, symName: '__ZN36_$LT$T$u20$as$u20$core..any..Any$GT$7type_id17hca9570fd9e3ed26eE', symObjAddr: 0x160, symBinAddr: 0x25880, symSize: 0x24 }
  - { offset: 0x6ADCF, size: 0x8, addend: 0x0, symName: '__ZN36_$LT$T$u20$as$u20$core..any..Any$GT$7type_id17he4b6f1bd2d030df3E', symObjAddr: 0x184, symBinAddr: 0x258A4, symSize: 0x24 }
  - { offset: 0x6AE2F, size: 0x8, addend: 0x0, symName: '__ZN42_$LT$$RF$T$u20$as$u20$core..fmt..Debug$GT$3fmt17h2958e9215852db4aE', symObjAddr: 0x540, symBinAddr: 0x258C8, symSize: 0x1C }
  - { offset: 0x6AE75, size: 0x8, addend: 0x0, symName: '__ZN42_$LT$$RF$T$u20$as$u20$core..fmt..Debug$GT$3fmt17h2bb2d350b34dfff8E', symObjAddr: 0x55C, symBinAddr: 0x258E4, symSize: 0x10 }
  - { offset: 0x6AEA6, size: 0x8, addend: 0x0, symName: '__ZN42_$LT$$RF$T$u20$as$u20$core..fmt..Debug$GT$3fmt17h8ac30dcc9c5b5849E', symObjAddr: 0x8B0, symBinAddr: 0x258F4, symSize: 0x74 }
  - { offset: 0x6AFBD, size: 0x8, addend: 0x0, symName: '__ZN42_$LT$$RF$T$u20$as$u20$core..fmt..Debug$GT$3fmt17h8aff657d191ad3c5E', symObjAddr: 0x924, symBinAddr: 0x25968, symSize: 0x1C }
  - { offset: 0x6B003, size: 0x8, addend: 0x0, symName: '__ZN42_$LT$$RF$T$u20$as$u20$core..fmt..Debug$GT$3fmt17ha21c7837cadbd3f5E', symObjAddr: 0x9B8, symBinAddr: 0x25984, symSize: 0x10 }
  - { offset: 0x6B0B7, size: 0x8, addend: 0x0, symName: '__ZN4core3fmt3num50_$LT$impl$u20$core..fmt..Debug$u20$for$u20$i32$GT$3fmt17h31c367ae7db50eaeE', symObjAddr: 0xDA0, symBinAddr: 0x25A1C, symSize: 0x18 }
  - { offset: 0x6B0CE, size: 0x8, addend: 0x0, symName: '__ZN4core3fmt3num50_$LT$impl$u20$core..fmt..Debug$u20$for$u20$i32$GT$3fmt17h31c367ae7db50eaeE', symObjAddr: 0xDA0, symBinAddr: 0x25A1C, symSize: 0x18 }
  - { offset: 0x6B0F9, size: 0x8, addend: 0x0, symName: '__ZN4core3fmt3num52_$LT$impl$u20$core..fmt..Debug$u20$for$u20$usize$GT$3fmt17hd9a44c73645affdaE', symObjAddr: 0xE00, symBinAddr: 0x25A34, symSize: 0x18 }
  - { offset: 0x6B110, size: 0x8, addend: 0x0, symName: '__ZN4core3fmt3num52_$LT$impl$u20$core..fmt..Debug$u20$for$u20$usize$GT$3fmt17hd9a44c73645affdaE', symObjAddr: 0xE00, symBinAddr: 0x25A34, symSize: 0x18 }
  - { offset: 0x6B136, size: 0x8, addend: 0x0, symName: '__ZN44_$LT$$RF$T$u20$as$u20$core..fmt..Display$GT$3fmt17h7aede7e1fafa8ecfE', symObjAddr: 0xCEC, symBinAddr: 0x25994, symSize: 0x10 }
  - { offset: 0x6B151, size: 0x8, addend: 0x0, symName: '__ZN44_$LT$$RF$T$u20$as$u20$core..fmt..Display$GT$3fmt17hcdc89f6b7cdef95fE', symObjAddr: 0xCFC, symBinAddr: 0x259A4, symSize: 0x78 }
  - { offset: 0x6B47D, size: 0x8, addend: 0x0, symName: __ZN4core3fmt5Write10write_char17h45384c06e74ab019E, symObjAddr: 0xE18, symBinAddr: 0x25A4C, symSize: 0x150 }
  - { offset: 0x6B614, size: 0x8, addend: 0x0, symName: __ZN4core3fmt5Write10write_char17h9a7a54bb0ca7d9cdE, symObjAddr: 0x10E8, symBinAddr: 0x25B9C, symSize: 0x128 }
  - { offset: 0x6B7CF, size: 0x8, addend: 0x0, symName: __ZN4core3fmt5Write10write_char17hb7b510f6e91dde12E, symObjAddr: 0x1350, symBinAddr: 0x25CC4, symSize: 0x180 }
  - { offset: 0x6B9BC, size: 0x8, addend: 0x0, symName: __ZN4core3fmt5Write9write_fmt17h13bdb2eccd0c285eE, symObjAddr: 0x1610, symBinAddr: 0x25E44, symSize: 0x10 }
  - { offset: 0x6B9EB, size: 0x8, addend: 0x0, symName: __ZN4core3fmt5Write9write_fmt17h4270820d5fb62457E, symObjAddr: 0x1630, symBinAddr: 0x25E54, symSize: 0x10 }
  - { offset: 0x6BA1A, size: 0x8, addend: 0x0, symName: __ZN4core3fmt5Write9write_fmt17ha2d460255287c06dE, symObjAddr: 0x1640, symBinAddr: 0x25E64, symSize: 0x10 }
  - { offset: 0x6BA49, size: 0x8, addend: 0x0, symName: __ZN4core3fmt5Write9write_fmt17ha8ecdcf0f48f38acE, symObjAddr: 0x1650, symBinAddr: 0x25E74, symSize: 0x10 }
  - { offset: 0x6BAA6, size: 0x8, addend: 0x0, symName: '__ZN50_$LT$$BP$mut$u20$T$u20$as$u20$core..fmt..Debug$GT$3fmt17h0e71da53ffdbf142E', symObjAddr: 0xF410, symBinAddr: 0x2F614, symSize: 0x8 }
  - { offset: 0x6BAC4, size: 0x8, addend: 0x0, symName: '__ZN50_$LT$$BP$mut$u20$T$u20$as$u20$core..fmt..Debug$GT$3fmt17h0e71da53ffdbf142E', symObjAddr: 0xF410, symBinAddr: 0x2F614, symSize: 0x8 }
  - { offset: 0x6BAF3, size: 0x8, addend: 0x0, symName: '__ZN52_$LT$$RF$mut$u20$T$u20$as$u20$core..fmt..Display$GT$3fmt17hc5f28addd174597dE', symObjAddr: 0xF500, symBinAddr: 0x2F61C, symSize: 0x10 }
  - { offset: 0x6BB59, size: 0x8, addend: 0x0, symName: '__ZN55_$LT$$RF$str$u20$as$u20$core..str..pattern..Pattern$GT$15is_contained_in17hf6a15fe5f9aec0c7E', symObjAddr: 0xF510, symBinAddr: 0x2F62C, symSize: 0x3C0 }
  - { offset: 0x6C993, size: 0x8, addend: 0x0, symName: __ZN4core5panic12PanicPayload6as_str17h55b7c7a41678db2dE, symObjAddr: 0x7814, symBinAddr: 0x27A94, symSize: 0x8 }
  - { offset: 0x6D12E, size: 0x8, addend: 0x0, symName: __ZN4core3ops8function2Fn4call17h8d8feaef6fe3029fE, symObjAddr: 0x18BC, symBinAddr: 0x25E84, symSize: 0x8 }
  - { offset: 0x6D15B, size: 0x8, addend: 0x0, symName: __ZN4core3ops8function5FnMut8call_mut17he228031084cec2adE, symObjAddr: 0x1904, symBinAddr: 0x25E8C, symSize: 0x8 }
  - { offset: 0x6D195, size: 0x8, addend: 0x0, symName: '__ZN4core3ops8function6FnOnce40call_once$u7b$$u7b$vtable.shim$u7d$$u7d$17h0256ef3c49b7fef6E', symObjAddr: 0x190C, symBinAddr: 0x25E94, symSize: 0xC }
  - { offset: 0x6D1E6, size: 0x8, addend: 0x0, symName: '__ZN4core3ops8function6FnOnce40call_once$u7b$$u7b$vtable.shim$u7d$$u7d$17h1a440162a384b96dE', symObjAddr: 0x1918, symBinAddr: 0x25EA0, symSize: 0x4 }
  - { offset: 0x6D203, size: 0x8, addend: 0x0, symName: '__ZN4core3ops8function6FnOnce40call_once$u7b$$u7b$vtable.shim$u7d$$u7d$17h1a440162a384b96dE', symObjAddr: 0x1918, symBinAddr: 0x25EA0, symSize: 0x4 }
  - { offset: 0x6D222, size: 0x8, addend: 0x0, symName: '__ZN4core3ops8function6FnOnce40call_once$u7b$$u7b$vtable.shim$u7d$$u7d$17h52ecd63362743bb9E', symObjAddr: 0x191C, symBinAddr: 0x25EA4, symSize: 0x8 }
  - { offset: 0x6D25E, size: 0x8, addend: 0x0, symName: '__ZN4core3ops8function6FnOnce40call_once$u7b$$u7b$vtable.shim$u7d$$u7d$17h6ef6b541deff04acE', symObjAddr: 0x194C, symBinAddr: 0x25EAC, symSize: 0xC }
  - { offset: 0x6D2AF, size: 0x8, addend: 0x0, symName: '__ZN4core3ops8function6FnOnce40call_once$u7b$$u7b$vtable.shim$u7d$$u7d$17h8b0e1f22722d72f6E', symObjAddr: 0x19F4, symBinAddr: 0x25EB8, symSize: 0x4 }
  - { offset: 0x6D2CC, size: 0x8, addend: 0x0, symName: '__ZN4core3ops8function6FnOnce40call_once$u7b$$u7b$vtable.shim$u7d$$u7d$17h8b0e1f22722d72f6E', symObjAddr: 0x19F4, symBinAddr: 0x25EB8, symSize: 0x4 }
  - { offset: 0x6D2EB, size: 0x8, addend: 0x0, symName: '__ZN4core3ops8function6FnOnce40call_once$u7b$$u7b$vtable.shim$u7d$$u7d$17h9b4a9096c70fd176E', symObjAddr: 0x1A38, symBinAddr: 0x25EBC, symSize: 0xA4 }
  - { offset: 0x6F4D5, size: 0x8, addend: 0x0, symName: '__ZN4core4cell4once17OnceCell$LT$T$GT$8try_init17h1f3ae8fa04109d74E', symObjAddr: 0x4750, symBinAddr: 0x56640, symSize: 0x60 }
  - { offset: 0x6F4F3, size: 0x8, addend: 0x0, symName: '__ZN4core4cell4once17OnceCell$LT$T$GT$8try_init17h1f3ae8fa04109d74E', symObjAddr: 0x4750, symBinAddr: 0x56640, symSize: 0x60 }
  - { offset: 0x6F508, size: 0x8, addend: 0x0, symName: '__ZN4core4cell4once17OnceCell$LT$T$GT$8try_init17h1f3ae8fa04109d74E', symObjAddr: 0x4750, symBinAddr: 0x56640, symSize: 0x60 }
  - { offset: 0x6F51C, size: 0x8, addend: 0x0, symName: '__ZN4core4cell4once17OnceCell$LT$T$GT$8try_init17h1f3ae8fa04109d74E', symObjAddr: 0x4750, symBinAddr: 0x56640, symSize: 0x60 }
  - { offset: 0x6F573, size: 0x8, addend: 0x0, symName: '__ZN4core4cell4once17OnceCell$LT$T$GT$8try_init17h5030d0cfd605f88aE', symObjAddr: 0x47B0, symBinAddr: 0x566A0, symSize: 0x678 }
  - { offset: 0x70235, size: 0x8, addend: 0x0, symName: '__ZN4core4cell4once17OnceCell$LT$T$GT$8try_init17hb2acaa81388d9a1dE', symObjAddr: 0x4E28, symBinAddr: 0x56D18, symSize: 0x110 }
  - { offset: 0x70519, size: 0x8, addend: 0x0, symName: '__ZN4core4cell4once17OnceCell$LT$T$GT$8try_init17hec4c6057203f18caE', symObjAddr: 0x4F38, symBinAddr: 0x56E28, symSize: 0x1AC4 }
  - { offset: 0x737D2, size: 0x8, addend: 0x0, symName: '__ZN4core4cell4once17OnceCell$LT$T$GT$8try_init17hf59b8f3666c9e504E', symObjAddr: 0x69FC, symBinAddr: 0x588EC, symSize: 0x80 }
  - { offset: 0x73885, size: 0x8, addend: 0x0, symName: '__ZN4core4cell4once17OnceCell$LT$T$GT$8try_init17hfae89e2951f245baE', symObjAddr: 0x6A7C, symBinAddr: 0x5896C, symSize: 0xC3C }
  - { offset: 0x75784, size: 0x8, addend: 0x0, symName: __ZN4core9panicking13assert_failed17h8219ec77f299110cE, symObjAddr: 0xF3EC, symBinAddr: 0x595A8, symSize: 0x24 }
  - { offset: 0x75AF8, size: 0x8, addend: 0x0, symName: __ZN3std9panicking11panic_count8increase17h5d061070c09c1b20E, symObjAddr: 0x3BDA0, symBinAddr: 0x3ED78, symSize: 0x64 }
  - { offset: 0x75B0F, size: 0x8, addend: 0x0, symName: __ZN3std9panicking11panic_count8increase17h5d061070c09c1b20E, symObjAddr: 0x3BDA0, symBinAddr: 0x3ED78, symSize: 0x64 }
  - { offset: 0x75B24, size: 0x8, addend: 0x0, symName: __ZN3std9panicking11panic_count8increase17h5d061070c09c1b20E, symObjAddr: 0x3BDA0, symBinAddr: 0x3ED78, symSize: 0x64 }
  - { offset: 0x75C03, size: 0x8, addend: 0x0, symName: __ZN3std9panicking11panic_count17is_zero_slow_path17h01eb20a9cec6a821E, symObjAddr: 0x3BE8C, symBinAddr: 0x59C2C, symSize: 0x2C }
  - { offset: 0x75CC8, size: 0x8, addend: 0x0, symName: __ZN3std9panicking12catch_unwind7cleanup17h829c50c2f53971d2E, symObjAddr: 0x3BEB8, symBinAddr: 0x59C58, symSize: 0x48 }
  - { offset: 0x75DFD, size: 0x8, addend: 0x0, symName: __RNvCs73fAdSrgOJL_7___rustc17___rust_drop_panic, symObjAddr: 0x3B3E8, symBinAddr: 0x3E3C0, symSize: 0xBC }
  - { offset: 0x75FF2, size: 0x8, addend: 0x0, symName: __RNvCs73fAdSrgOJL_7___rustc24___rust_foreign_exception, symObjAddr: 0x3B4A4, symBinAddr: 0x3E47C, symSize: 0xBC }
  - { offset: 0x761F5, size: 0x8, addend: 0x0, symName: __ZN3std9panicking8set_hook17h297234d57a2339d3E, symObjAddr: 0x3B560, symBinAddr: 0x3E538, symSize: 0x178 }
  - { offset: 0x764AE, size: 0x8, addend: 0x0, symName: __ZN3std9panicking9take_hook17hc2e72eaba2267e3cE, symObjAddr: 0x3B6D8, symBinAddr: 0x3E6B0, symSize: 0xF4 }
  - { offset: 0x76671, size: 0x8, addend: 0x0, symName: __ZN3std9panicking12default_hook17h8875fb31ec87dfadE, symObjAddr: 0x3B7CC, symBinAddr: 0x3E7A4, symSize: 0x1AC }
  - { offset: 0x769AF, size: 0x8, addend: 0x0, symName: '__ZN3std9panicking12default_hook28_$u7b$$u7b$closure$u7d$$u7d$17hf623c44b740b115fE', symObjAddr: 0x3B978, symBinAddr: 0x3E950, symSize: 0x1A4 }
  - { offset: 0x76B86, size: 0x8, addend: 0x0, symName: '__ZN3std9panicking12default_hook28_$u7b$$u7b$closure$u7d$$u7d$28_$u7b$$u7b$closure$u7d$$u7d$17hf47d63ca0778dae1E', symObjAddr: 0x3BB1C, symBinAddr: 0x3EAF4, symSize: 0x284 }
  - { offset: 0x76FFC, size: 0x8, addend: 0x0, symName: __RNvCs73fAdSrgOJL_7___rustc17rust_begin_unwind, symObjAddr: 0x3BF00, symBinAddr: 0x3EDDC, symSize: 0x20 }
  - { offset: 0x77065, size: 0x8, addend: 0x0, symName: '__ZN102_$LT$std..panicking..begin_panic_handler..FormatStringPayload$u20$as$u20$core..panic..PanicPayload$GT$8take_box17h223afba6ccee5cb1E', symObjAddr: 0x3BF20, symBinAddr: 0x3EDFC, symSize: 0x118 }
  - { offset: 0x772E1, size: 0x8, addend: 0x0, symName: '__ZN102_$LT$std..panicking..begin_panic_handler..FormatStringPayload$u20$as$u20$core..panic..PanicPayload$GT$3get17h4f88f29aab2fd10fE', symObjAddr: 0x3C038, symBinAddr: 0x3EF14, symSize: 0xB0 }
  - { offset: 0x7741A, size: 0x8, addend: 0x0, symName: '__ZN95_$LT$std..panicking..begin_panic_handler..FormatStringPayload$u20$as$u20$core..fmt..Display$GT$3fmt17hb0af82e86096f7f0E', symObjAddr: 0x3C0E8, symBinAddr: 0x3EFC4, symSize: 0x5C }
  - { offset: 0x77517, size: 0x8, addend: 0x0, symName: '__ZN99_$LT$std..panicking..begin_panic_handler..StaticStrPayload$u20$as$u20$core..panic..PanicPayload$GT$8take_box17h0df143ef4488f020E', symObjAddr: 0x3C144, symBinAddr: 0x3F020, symSize: 0x48 }
  - { offset: 0x7758E, size: 0x8, addend: 0x0, symName: '__ZN99_$LT$std..panicking..begin_panic_handler..StaticStrPayload$u20$as$u20$core..panic..PanicPayload$GT$3get17h5775715a100ee158E', symObjAddr: 0x3C18C, symBinAddr: 0x3F068, symSize: 0xC }
  - { offset: 0x775A9, size: 0x8, addend: 0x0, symName: '__ZN99_$LT$std..panicking..begin_panic_handler..StaticStrPayload$u20$as$u20$core..panic..PanicPayload$GT$6as_str17h4a89cb46754932c0E', symObjAddr: 0x3C198, symBinAddr: 0x3F074, symSize: 0xC }
  - { offset: 0x775CA, size: 0x8, addend: 0x0, symName: '__ZN92_$LT$std..panicking..begin_panic_handler..StaticStrPayload$u20$as$u20$core..fmt..Display$GT$3fmt17h97bd842622e6ccedE', symObjAddr: 0x3C1A4, symBinAddr: 0x3F080, symSize: 0x10 }
  - { offset: 0x775E6, size: 0x8, addend: 0x0, symName: '__ZN3std9panicking19begin_panic_handler28_$u7b$$u7b$closure$u7d$$u7d$17hdf417b72ab8ffff8E', symObjAddr: 0x3C1B4, symBinAddr: 0x3F090, symSize: 0xC4 }
  - { offset: 0x7774E, size: 0x8, addend: 0x0, symName: __ZN3std9panicking14payload_as_str17h9b5790cdb2b550fcE, symObjAddr: 0x3C35C, symBinAddr: 0x3F154, symSize: 0xB0 }
  - { offset: 0x77832, size: 0x8, addend: 0x0, symName: __ZN3std9panicking20rust_panic_with_hook17hdd8ceeeb04975c2bE, symObjAddr: 0x3C40C, symBinAddr: 0x3F204, symSize: 0x398 }
  - { offset: 0x7807F, size: 0x8, addend: 0x0, symName: __ZN3std9panicking23rust_panic_without_hook17hc728be5ad6410692E, symObjAddr: 0x3C7A4, symBinAddr: 0x59CA0, symSize: 0xB8 }
  - { offset: 0x782A3, size: 0x8, addend: 0x0, symName: '__ZN96_$LT$std..panicking..rust_panic_without_hook..RewrapBox$u20$as$u20$core..panic..PanicPayload$GT$8take_box17h8363dde8766628f0E', symObjAddr: 0x3C85C, symBinAddr: 0x3F59C, symSize: 0x1C }
  - { offset: 0x782C1, size: 0x8, addend: 0x0, symName: '__ZN96_$LT$std..panicking..rust_panic_without_hook..RewrapBox$u20$as$u20$core..panic..PanicPayload$GT$8take_box17h8363dde8766628f0E', symObjAddr: 0x3C85C, symBinAddr: 0x3F59C, symSize: 0x1C }
  - { offset: 0x782D4, size: 0x8, addend: 0x0, symName: '__ZN96_$LT$std..panicking..rust_panic_without_hook..RewrapBox$u20$as$u20$core..panic..PanicPayload$GT$3get17hc00518187feeaffaE', symObjAddr: 0x3C878, symBinAddr: 0x3F5B8, symSize: 0xC }
  - { offset: 0x782F5, size: 0x8, addend: 0x0, symName: '__ZN89_$LT$std..panicking..rust_panic_without_hook..RewrapBox$u20$as$u20$core..fmt..Display$GT$3fmt17h1ad08bf23ac349d2E', symObjAddr: 0x3C884, symBinAddr: 0x3F5C4, symSize: 0x14 }
  - { offset: 0x78312, size: 0x8, addend: 0x0, symName: __RNvCs73fAdSrgOJL_7___rustc10rust_panic, symObjAddr: 0x3C898, symBinAddr: 0x59D58, symSize: 0x60 }
  - { offset: 0x7847F, size: 0x8, addend: 0x0, symName: __ZN3std3sys2fs4unix4File6open_c17h5a31c1e924c31a39E, symObjAddr: 0x4151C, symBinAddr: 0x40854, symSize: 0x1B0 }
  - { offset: 0x7861E, size: 0x8, addend: 0x0, symName: '__ZN65_$LT$std..sys..fs..unix..Dir$u20$as$u20$core..ops..drop..Drop$GT$4drop17hda69c3116f0d01f9E', symObjAddr: 0x411B8, symBinAddr: 0x40788, symSize: 0xCC }
  - { offset: 0x786E9, size: 0x8, addend: 0x0, symName: __ZN3std3sys2fs8read_dir17ha4d851693f34a78dE, symObjAddr: 0x38968, symBinAddr: 0x3DF34, symSize: 0x19C }
  - { offset: 0x78A67, size: 0x8, addend: 0x0, symName: __ZN3std3sys3pal4unix4sync5mutex5Mutex4init17he47bfeffad10ab23E, symObjAddr: 0x3F018, symBinAddr: 0x3FDB8, symSize: 0x16C }
  - { offset: 0x78B1E, size: 0x8, addend: 0x0, symName: __ZN3std3sys3pal4unix4sync5mutex5Mutex4lock4fail17hc6db7b5c9b0389a0E, symObjAddr: 0x3F1A0, symBinAddr: 0x59DB8, symSize: 0xE4 }
  - { offset: 0x78D91, size: 0x8, addend: 0x0, symName: __ZN3std3sys3pal4unix17decode_error_kind17haabc64936b405e49E, symObjAddr: 0x3FA78, symBinAddr: 0x3FF24, symSize: 0x150 }
  - { offset: 0x78DAB, size: 0x8, addend: 0x0, symName: __ZN3std3sys3pal4unix14abort_internal17ha2b174aef73aaa99E, symObjAddr: 0x3FBC8, symBinAddr: 0x59E9C, symSize: 0xC }
  - { offset: 0x78E12, size: 0x8, addend: 0x0, symName: __ZN3std3sys3pal6common14small_c_string24run_with_cstr_allocating17h62eae881f61189b9E, symObjAddr: 0x37AA8, symBinAddr: 0x59934, symSize: 0xC4 }
  - { offset: 0x78FDB, size: 0x8, addend: 0x0, symName: __ZN3std3sys3pal6common14small_c_string24run_with_cstr_allocating17h849b8fb7465c671dE, symObjAddr: 0x37B6C, symBinAddr: 0x599F8, symSize: 0xAC }
  - { offset: 0x79137, size: 0x8, addend: 0x0, symName: __ZN3std3sys3pal6common14small_c_string24run_with_cstr_allocating17hf63fa4ece05c9b45E, symObjAddr: 0x37CE8, symBinAddr: 0x59AA4, symSize: 0xA4 }
  - { offset: 0x792E1, size: 0x8, addend: 0x0, symName: '__ZN64_$LT$std..sys..stdio..unix..Stderr$u20$as$u20$std..io..Write$GT$5write17h3b1932d17393f261E', symObjAddr: 0x47870, symBinAddr: 0x40A04, symSize: 0x58 }
  - { offset: 0x793B7, size: 0x8, addend: 0x0, symName: '__ZN64_$LT$std..sys..stdio..unix..Stderr$u20$as$u20$std..io..Write$GT$14write_vectored17h8ff0487a5ca382e1E', symObjAddr: 0x478C8, symBinAddr: 0x40A5C, symSize: 0x58 }
  - { offset: 0x7948D, size: 0x8, addend: 0x0, symName: '__ZN64_$LT$std..sys..stdio..unix..Stderr$u20$as$u20$std..io..Write$GT$17is_write_vectored17h806729f05e1b02f1E', symObjAddr: 0x47920, symBinAddr: 0x40AB4, symSize: 0x8 }
  - { offset: 0x794A7, size: 0x8, addend: 0x0, symName: '__ZN64_$LT$std..sys..stdio..unix..Stderr$u20$as$u20$std..io..Write$GT$5flush17ha8134fdfc2044e22E', symObjAddr: 0x47928, symBinAddr: 0x40ABC, symSize: 0x8 }
  - { offset: 0x794EF, size: 0x8, addend: 0x0, symName: '__ZN3std3sys11personality3gcc14find_eh_action28_$u7b$$u7b$closure$u7d$$u7d$17h8e0a401f13cba7b2E', symObjAddr: 0x3FBD4, symBinAddr: 0x40074, symSize: 0xC }
  - { offset: 0x79503, size: 0x8, addend: 0x0, symName: '__ZN3std3sys11personality3gcc14find_eh_action28_$u7b$$u7b$closure$u7d$$u7d$17hb37e74614c39fe5bE', symObjAddr: 0x3FBE0, symBinAddr: 0x40080, symSize: 0xC }
  - { offset: 0x79533, size: 0x8, addend: 0x0, symName: _rust_eh_personality, symObjAddr: 0x3FBEC, symBinAddr: 0x4008C, symSize: 0x378 }
  - { offset: 0x798BC, size: 0x8, addend: 0x0, symName: __ZN3std3sys11personality5dwarf2eh19read_encoded_offset17ha35e0bf259a51371E, symObjAddr: 0x37E3C, symBinAddr: 0x3D648, symSize: 0x148 }
  - { offset: 0x79A3C, size: 0x8, addend: 0x0, symName: '__ZN3std3sys9backtrace10_print_fmt28_$u7b$$u7b$closure$u7d$$u7d$17h53593d80dca05be6E', symObjAddr: 0x382E8, symBinAddr: 0x3DA7C, symSize: 0x24 }
  - { offset: 0x79A65, size: 0x8, addend: 0x0, symName: '__ZN3std3sys9backtrace10_print_fmt28_$u7b$$u7b$closure$u7d$$u7d$17h562a49be56385aceE', symObjAddr: 0x3830C, symBinAddr: 0x3DAA0, symSize: 0x130 }
  - { offset: 0x79B79, size: 0x8, addend: 0x0, symName: '__ZN3std3sys9backtrace10_print_fmt28_$u7b$$u7b$closure$u7d$$u7d$28_$u7b$$u7b$closure$u7d$$u7d$17had6f8f8b94a1d5d2E', symObjAddr: 0x3843C, symBinAddr: 0x3DBD0, symSize: 0x264 }
  - { offset: 0x79DA8, size: 0x8, addend: 0x0, symName: __ZN3std3sys9backtrace4lock17hdabe8353c49be0ebE, symObjAddr: 0x37FFC, symBinAddr: 0x3D790, symSize: 0x70 }
  - { offset: 0x79EF1, size: 0x8, addend: 0x0, symName: __ZN3std3sys9backtrace13BacktraceLock5print17h3eb1535b8d3666caE, symObjAddr: 0x3806C, symBinAddr: 0x3D800, symSize: 0x54 }
  - { offset: 0x79F3E, size: 0x8, addend: 0x0, symName: '__ZN98_$LT$std..sys..backtrace..BacktraceLock..print..DisplayBacktrace$u20$as$u20$core..fmt..Display$GT$3fmt17h373e57e2286956dcE', symObjAddr: 0x380C0, symBinAddr: 0x3D854, symSize: 0x228 }
  - { offset: 0x7A423, size: 0x8, addend: 0x0, symName: __ZN3std3sys9backtrace26__rust_end_short_backtrace17h507d79c50996742eE, symObjAddr: 0x386A0, symBinAddr: 0x3DE34, symSize: 0xC }
  - { offset: 0x7A43D, size: 0x8, addend: 0x0, symName: __ZN3std3sys9backtrace15output_filename17h1e17c213ac1ab78dE, symObjAddr: 0x386B8, symBinAddr: 0x3DE40, symSize: 0xF4 }
  - { offset: 0x7A5E4, size: 0x8, addend: 0x0, symName: '__ZN3std3sys4sync8once_box16OnceBox$LT$T$GT$10initialize17he379977f8bc9e5d3E', symObjAddr: 0x3A608, symBinAddr: 0x59B48, symSize: 0xE4 }
  - { offset: 0x7A895, size: 0x8, addend: 0x0, symName: __ZN3std3sys4sync6rwlock5queue6RwLock21read_unlock_contended17h1b9e50d42faedc94E, symObjAddr: 0x4843C, symBinAddr: 0x5A0F8, symSize: 0x40 }
  - { offset: 0x7A8B3, size: 0x8, addend: 0x0, symName: __ZN3std3sys4sync6rwlock5queue6RwLock21read_unlock_contended17h1b9e50d42faedc94E, symObjAddr: 0x4843C, symBinAddr: 0x5A0F8, symSize: 0x40 }
  - { offset: 0x7A8C8, size: 0x8, addend: 0x0, symName: __ZN3std3sys4sync6rwlock5queue6RwLock21read_unlock_contended17h1b9e50d42faedc94E, symObjAddr: 0x4843C, symBinAddr: 0x5A0F8, symSize: 0x40 }
  - { offset: 0x7AA05, size: 0x8, addend: 0x0, symName: __ZN3std3sys4sync6rwlock5queue6RwLock16unlock_contended17h76968e98b916e2abE, symObjAddr: 0x4847C, symBinAddr: 0x5A138, symSize: 0x40 }
  - { offset: 0x7AAE1, size: 0x8, addend: 0x0, symName: __ZN3std3sys4sync6rwlock5queue6RwLock12unlock_queue17h9c4ac3ac2d5778f9E, symObjAddr: 0x485C8, symBinAddr: 0x40D4C, symSize: 0x1CC }
  - { offset: 0x7B1E6, size: 0x8, addend: 0x0, symName: __ZN3std3sys4sync6rwlock5queue9read_lock17h1f89cfb304dc509cE, symObjAddr: 0x481E8, symBinAddr: 0x40D2C, symSize: 0x20 }
  - { offset: 0x7B1FF, size: 0x8, addend: 0x0, symName: '__ZN83_$LT$std..sys..sync..rwlock..queue..PanicGuard$u20$as$u20$core..ops..drop..Drop$GT$4drop17h5cadc4ef1f5dcd7dE', symObjAddr: 0x48208, symBinAddr: 0x5A0B4, symSize: 0x44 }
  - { offset: 0x7B2C3, size: 0x8, addend: 0x0, symName: __ZN3std3sys4sync4once5queue4Once4call17hecaba0a776a35aa1E, symObjAddr: 0x47D60, symBinAddr: 0x59EA8, symSize: 0x20C }
  - { offset: 0x7B5B2, size: 0x8, addend: 0x0, symName: '__ZN82_$LT$std..sys..sync..once..queue..WaiterQueue$u20$as$u20$core..ops..drop..Drop$GT$4drop17h7c83cf796170585cE', symObjAddr: 0x480F4, symBinAddr: 0x40C4C, symSize: 0xE0 }
  - { offset: 0x7B775, size: 0x8, addend: 0x0, symName: __ZN3std3sys4sync4once5queue4wait17h89a94bf1656b2ec7E, symObjAddr: 0x47F6C, symBinAddr: 0x40AC4, symSize: 0x188 }
  - { offset: 0x7BD4C, size: 0x8, addend: 0x0, symName: __ZN3std3sys12thread_local6native5eager7destroy17heae091946a683e1cE, symObjAddr: 0x48840, symBinAddr: 0x40F18, symSize: 0x2C }
  - { offset: 0x7BE9D, size: 0x8, addend: 0x0, symName: __ZN3std3sys12thread_local5guard5apple6enable9run_dtors17hef79a299de7fb9adE, symObjAddr: 0x48984, symBinAddr: 0x4105C, symSize: 0xF8 }
  - { offset: 0x7C3B6, size: 0x8, addend: 0x0, symName: __ZN3std3sys12thread_local11destructors4list8register17hde6abc51e3c3721cE, symObjAddr: 0x4886C, symBinAddr: 0x40F44, symSize: 0x118 }
  - { offset: 0x7C6C7, size: 0x8, addend: 0x0, symName: __ZN3std3sys3env4unix13env_read_lock17ha2bee16bf1e65b98E, symObjAddr: 0x3FF64, symBinAddr: 0x40404, symSize: 0x23C }
  - { offset: 0x7CDD0, size: 0x8, addend: 0x0, symName: '__ZN3std3sys3env4unix6getenv28_$u7b$$u7b$closure$u7d$$u7d$17h5aa62fce8cdb755bE', symObjAddr: 0x401A0, symBinAddr: 0x40640, symSize: 0x148 }
  - { offset: 0x7D1BD, size: 0x8, addend: 0x0, symName: '__ZN64_$LT$std..ffi..os_str..Display$u20$as$u20$core..fmt..Display$GT$3fmt17hf4e02af35f1fefceE', symObjAddr: 0x23390, symBinAddr: 0x3ACEC, symSize: 0xAC }
  - { offset: 0x7D2A5, size: 0x8, addend: 0x0, symName: __ZN3std7process5abort17hbd14f557f4be895cE, symObjAddr: 0x35E58, symBinAddr: 0x59928, symSize: 0xC }
  - { offset: 0x7D333, size: 0x8, addend: 0x0, symName: __ZN3std4path4Path13_strip_prefix17h44ebcc45a48bcda4E, symObjAddr: 0x336DC, symBinAddr: 0x3D060, symSize: 0x21C }
  - { offset: 0x7D451, size: 0x8, addend: 0x0, symName: __ZN3std4path4Path5_join17h5f97e78c9ec6f8c6E, symObjAddr: 0x33F08, symBinAddr: 0x3D27C, symSize: 0x1A4 }
  - { offset: 0x7DA17, size: 0x8, addend: 0x0, symName: __ZN3std4path10Components15len_before_body17h5c34a7955bf675c9E, symObjAddr: 0x31A18, symBinAddr: 0x3C3FC, symSize: 0x188 }
  - { offset: 0x7DA2E, size: 0x8, addend: 0x0, symName: __ZN3std4path10Components15len_before_body17h5c34a7955bf675c9E, symObjAddr: 0x31A18, symBinAddr: 0x3C3FC, symSize: 0x188 }
  - { offset: 0x7DA43, size: 0x8, addend: 0x0, symName: __ZN3std4path10Components15len_before_body17h5c34a7955bf675c9E, symObjAddr: 0x31A18, symBinAddr: 0x3C3FC, symSize: 0x188 }
  - { offset: 0x7DBFB, size: 0x8, addend: 0x0, symName: __ZN3std4path10Components7as_path17ha0723f3b84befc75E, symObjAddr: 0x31BA0, symBinAddr: 0x3C584, symSize: 0x318 }
  - { offset: 0x7DE73, size: 0x8, addend: 0x0, symName: __ZN3std4path10Components25parse_next_component_back17hb183b6faf02472afE, symObjAddr: 0x31EB8, symBinAddr: 0x3C89C, symSize: 0x124 }
  - { offset: 0x7E035, size: 0x8, addend: 0x0, symName: '__ZN80_$LT$std..path..Components$u20$as$u20$core..iter..traits..iterator..Iterator$GT$4next17hc5f2949875039169E', symObjAddr: 0x32174, symBinAddr: 0x3C9C0, symSize: 0x340 }
  - { offset: 0x7E332, size: 0x8, addend: 0x0, symName: '__ZN95_$LT$std..path..Components$u20$as$u20$core..iter..traits..double_ended..DoubleEndedIterator$GT$9next_back17h97da5c60c737f00eE', symObjAddr: 0x324B4, symBinAddr: 0x3CD00, symSize: 0x360 }
  - { offset: 0x7E511, size: 0x8, addend: 0x0, symName: '__ZN61_$LT$std..path..Component$u20$as$u20$core..cmp..PartialEq$GT$2eq17h9abf03ee93017be9E', symObjAddr: 0x3D540, symBinAddr: 0x3FC80, symSize: 0x138 }
  - { offset: 0x7E6C5, size: 0x8, addend: 0x0, symName: '__ZN81_$LT$std..io..default_write_fmt..Adapter$LT$T$GT$$u20$as$u20$core..fmt..Write$GT$9write_str17h1421ba9cd8ee47c5E', symObjAddr: 0x2CBD4, symBinAddr: 0x3BAEC, symSize: 0xA0 }
  - { offset: 0x7E7ED, size: 0x8, addend: 0x0, symName: '__ZN81_$LT$std..io..default_write_fmt..Adapter$LT$T$GT$$u20$as$u20$core..fmt..Write$GT$9write_str17h2d8b7e46a0e35d96E', symObjAddr: 0x2CC74, symBinAddr: 0x3BB8C, symSize: 0x80 }
  - { offset: 0x7E939, size: 0x8, addend: 0x0, symName: '__ZN81_$LT$std..io..default_write_fmt..Adapter$LT$T$GT$$u20$as$u20$core..fmt..Write$GT$9write_str17hf38da0e8ae1b5efbE', symObjAddr: 0x2CE6C, symBinAddr: 0x3BC0C, symSize: 0xD8 }
  - { offset: 0x7EAFB, size: 0x8, addend: 0x0, symName: '__ZN3std2io5impls74_$LT$impl$u20$std..io..Write$u20$for$u20$alloc..vec..Vec$LT$u8$C$A$GT$$GT$5write17hb822c2b238acf3c4E', symObjAddr: 0x27060, symBinAddr: 0x3B610, symSize: 0x84 }
  - { offset: 0x7EC40, size: 0x8, addend: 0x0, symName: '__ZN3std2io5impls74_$LT$impl$u20$std..io..Write$u20$for$u20$alloc..vec..Vec$LT$u8$C$A$GT$$GT$14write_vectored17h3b2a452d1d260808E', symObjAddr: 0x270E4, symBinAddr: 0x3B694, symSize: 0x174 }
  - { offset: 0x7EE8D, size: 0x8, addend: 0x0, symName: '__ZN3std2io5impls74_$LT$impl$u20$std..io..Write$u20$for$u20$alloc..vec..Vec$LT$u8$C$A$GT$$GT$17is_write_vectored17h85e25b333c28438fE', symObjAddr: 0x27258, symBinAddr: 0x3B808, symSize: 0x8 }
  - { offset: 0x7EEA8, size: 0x8, addend: 0x0, symName: '__ZN3std2io5impls74_$LT$impl$u20$std..io..Write$u20$for$u20$alloc..vec..Vec$LT$u8$C$A$GT$$GT$9write_all17h4986f5d3d6bca366E', symObjAddr: 0x27260, symBinAddr: 0x3B810, symSize: 0x80 }
  - { offset: 0x7EFF4, size: 0x8, addend: 0x0, symName: '__ZN3std2io5impls74_$LT$impl$u20$std..io..Write$u20$for$u20$alloc..vec..Vec$LT$u8$C$A$GT$$GT$18write_all_vectored17h0ce1bbe6949613dfE', symObjAddr: 0x272E0, symBinAddr: 0x3B890, symSize: 0x168 }
  - { offset: 0x7F01F, size: 0x8, addend: 0x0, symName: '__ZN3std2io5impls74_$LT$impl$u20$std..io..Write$u20$for$u20$alloc..vec..Vec$LT$u8$C$A$GT$$GT$18write_all_vectored17h0ce1bbe6949613dfE', symObjAddr: 0x272E0, symBinAddr: 0x3B890, symSize: 0x168 }
  - { offset: 0x7F034, size: 0x8, addend: 0x0, symName: '__ZN3std2io5impls74_$LT$impl$u20$std..io..Write$u20$for$u20$alloc..vec..Vec$LT$u8$C$A$GT$$GT$18write_all_vectored17h0ce1bbe6949613dfE', symObjAddr: 0x272E0, symBinAddr: 0x3B890, symSize: 0x168 }
  - { offset: 0x7F049, size: 0x8, addend: 0x0, symName: '__ZN3std2io5impls74_$LT$impl$u20$std..io..Write$u20$for$u20$alloc..vec..Vec$LT$u8$C$A$GT$$GT$18write_all_vectored17h0ce1bbe6949613dfE', symObjAddr: 0x272E0, symBinAddr: 0x3B890, symSize: 0x168 }
  - { offset: 0x7F05D, size: 0x8, addend: 0x0, symName: '__ZN3std2io5impls74_$LT$impl$u20$std..io..Write$u20$for$u20$alloc..vec..Vec$LT$u8$C$A$GT$$GT$18write_all_vectored17h0ce1bbe6949613dfE', symObjAddr: 0x272E0, symBinAddr: 0x3B890, symSize: 0x168 }
  - { offset: 0x7F276, size: 0x8, addend: 0x0, symName: '__ZN3std2io5impls74_$LT$impl$u20$std..io..Write$u20$for$u20$alloc..vec..Vec$LT$u8$C$A$GT$$GT$5flush17h2126ea47a926e7aeE', symObjAddr: 0x27448, symBinAddr: 0x3B9F8, symSize: 0x8 }
  - { offset: 0x7F370, size: 0x8, addend: 0x0, symName: '__ZN58_$LT$std..io..error..Error$u20$as$u20$core..fmt..Debug$GT$3fmt17hdf9c13a9945d5c29E', symObjAddr: 0x26864, symBinAddr: 0x3B174, symSize: 0x4 }
  - { offset: 0x7F39D, size: 0x8, addend: 0x0, symName: '__ZN3std2io5error83_$LT$impl$u20$core..fmt..Debug$u20$for$u20$std..io..error..repr_bitpacked..Repr$GT$3fmt17h0f29a0fd45fc1bcfE', symObjAddr: 0x26AD8, symBinAddr: 0x3B178, symSize: 0x294 }
  - { offset: 0x7F5E8, size: 0x8, addend: 0x0, symName: '__ZN60_$LT$std..io..error..Error$u20$as$u20$core..fmt..Display$GT$3fmt17habdd18ca5ab4309eE', symObjAddr: 0x26D6C, symBinAddr: 0x3B40C, symSize: 0x204 }
  - { offset: 0x7F847, size: 0x8, addend: 0x0, symName: '__ZN62_$LT$std..io..error..ErrorKind$u20$as$u20$core..fmt..Debug$GT$3fmt17h2d20d17aac9eb11fE', symObjAddr: 0x3D518, symBinAddr: 0x3FC58, symSize: 0x28 }
  - { offset: 0x7F876, size: 0x8, addend: 0x0, symName: __ZN3std2io5Write9write_all17h968f08b438f23232E, symObjAddr: 0x2CFB8, symBinAddr: 0x3BCE4, symSize: 0xB8 }
  - { offset: 0x7F991, size: 0x8, addend: 0x0, symName: __ZN3std2io5Write18write_all_vectored17hbcff9dde3b80a800E, symObjAddr: 0x2D070, symBinAddr: 0x3BD9C, symSize: 0x1CC }
  - { offset: 0x7FC42, size: 0x8, addend: 0x0, symName: __ZN3std2io5Write9write_fmt17h00b4007fff731b84E, symObjAddr: 0x2D23C, symBinAddr: 0x3BF68, symSize: 0x128 }
  - { offset: 0x7FE8C, size: 0x8, addend: 0x0, symName: __ZN3std2io5Write9write_fmt17h1c9f4e65a2760494E, symObjAddr: 0x2D364, symBinAddr: 0x3C090, symSize: 0x128 }
  - { offset: 0x800D6, size: 0x8, addend: 0x0, symName: __ZN3std2io5Write9write_fmt17h619de9749845ad1bE, symObjAddr: 0x2D48C, symBinAddr: 0x3C1B8, symSize: 0x128 }
  - { offset: 0x80361, size: 0x8, addend: 0x0, symName: __ZN3std2io5stdio22try_set_output_capture17h02e4e20053907c68E, symObjAddr: 0x2BA9C, symBinAddr: 0x3BA00, symSize: 0xEC }
  - { offset: 0x80759, size: 0x8, addend: 0x0, symName: '__ZN3std4sync6poison6rwlock15RwLock$LT$T$GT$5write17h366ac405f62684daE', symObjAddr: 0x36730, symBinAddr: 0x3D420, symSize: 0x228 }
  - { offset: 0x80F6F, size: 0x8, addend: 0x0, symName: __ZN3std12backtrace_rs9symbolize5gimli7Context3new17hb91d93e0b4232d15E, symObjAddr: 0x48BB8, symBinAddr: 0x4119C, symSize: 0x1FEC }
  - { offset: 0x84C16, size: 0x8, addend: 0x0, symName: __ZN3std12backtrace_rs9symbolize5gimli7Context11find_frames17h23a2097c4c7962bdE, symObjAddr: 0x4ABA4, symBinAddr: 0x43188, symSize: 0x390 }
  - { offset: 0x8503B, size: 0x8, addend: 0x0, symName: __ZN3std12backtrace_rs9symbolize5gimli5macho6Object5parse17h5fdabfb181ac69c7E, symObjAddr: 0x4DA84, symBinAddr: 0x46050, symSize: 0xC28 }
  - { offset: 0x86E4F, size: 0x8, addend: 0x0, symName: __ZN3std12backtrace_rs9symbolize5gimli5macho6Object7section17hc169392917328d37E, symObjAddr: 0x4E6AC, symBinAddr: 0x46C78, symSize: 0x154 }
  - { offset: 0x87293, size: 0x8, addend: 0x0, symName: __ZN3std12backtrace_rs9symbolize5gimli5macho11find_header17h55f69df1f605b83cE, symObjAddr: 0x4D8B0, symBinAddr: 0x45E7C, symSize: 0x1D4 }
  - { offset: 0x872B2, size: 0x8, addend: 0x0, symName: __ZN3std12backtrace_rs9symbolize5gimli5macho11find_header17h55f69df1f605b83cE, symObjAddr: 0x4D8B0, symBinAddr: 0x45E7C, symSize: 0x1D4 }
  - { offset: 0x872C8, size: 0x8, addend: 0x0, symName: __ZN3std12backtrace_rs9symbolize5gimli5macho11find_header17h55f69df1f605b83cE, symObjAddr: 0x4D8B0, symBinAddr: 0x45E7C, symSize: 0x1D4 }
  - { offset: 0x872DE, size: 0x8, addend: 0x0, symName: __ZN3std12backtrace_rs9symbolize5gimli5macho11find_header17h55f69df1f605b83cE, symObjAddr: 0x4D8B0, symBinAddr: 0x45E7C, symSize: 0x1D4 }
  - { offset: 0x872F3, size: 0x8, addend: 0x0, symName: __ZN3std12backtrace_rs9symbolize5gimli5macho11find_header17h55f69df1f605b83cE, symObjAddr: 0x4D8B0, symBinAddr: 0x45E7C, symSize: 0x1D4 }
  - { offset: 0x87308, size: 0x8, addend: 0x0, symName: __ZN3std12backtrace_rs9symbolize5gimli5macho11find_header17h55f69df1f605b83cE, symObjAddr: 0x4D8B0, symBinAddr: 0x45E7C, symSize: 0x1D4 }
  - { offset: 0x8731D, size: 0x8, addend: 0x0, symName: __ZN3std12backtrace_rs9symbolize5gimli5macho11find_header17h55f69df1f605b83cE, symObjAddr: 0x4D8B0, symBinAddr: 0x45E7C, symSize: 0x1D4 }
  - { offset: 0x87A54, size: 0x8, addend: 0x0, symName: __ZN3std12backtrace_rs9symbolize5gimli4mmap17h887dd2c3e0662184E, symObjAddr: 0x4AF34, symBinAddr: 0x43518, symSize: 0x174 }
  - { offset: 0x880F2, size: 0x8, addend: 0x0, symName: __ZN3std12backtrace_rs9symbolize5gimli7resolve17h64427fc4373c0585E, symObjAddr: 0x4B0A8, symBinAddr: 0x4368C, symSize: 0x27F0 }
  - { offset: 0x8DE3C, size: 0x8, addend: 0x0, symName: __ZN3std12backtrace_rs9symbolize6Symbol4name17he61211ceb05526e3E, symObjAddr: 0x3C9D8, symBinAddr: 0x3F5D8, symSize: 0xE4 }
  - { offset: 0x8DF73, size: 0x8, addend: 0x0, symName: '__ZN79_$LT$std..backtrace_rs..symbolize..SymbolName$u20$as$u20$core..fmt..Display$GT$3fmt17h4c4c1b4de2e31d53E', symObjAddr: 0x3CBF4, symBinAddr: 0x3F6BC, symSize: 0x100 }
  - { offset: 0x8E09C, size: 0x8, addend: 0x0, symName: __ZN3std12backtrace_rs9backtrace9libunwind5trace8trace_fn17h78394d9ee4ccceffE, symObjAddr: 0x48B70, symBinAddr: 0x41154, symSize: 0x48 }
  - { offset: 0x8E16D, size: 0x8, addend: 0x0, symName: __ZN3std12backtrace_rs5print17BacktraceFrameFmt21print_raw_with_column17h834ed90aab55fe6fE, symObjAddr: 0x3CDF4, symBinAddr: 0x3F7BC, symSize: 0x304 }
  - { offset: 0x8E290, size: 0x8, addend: 0x0, symName: __ZN3std12backtrace_rs5print17BacktraceFrameFmt14print_fileline17h4f1f1a459d4f9b31E, symObjAddr: 0x3D0F8, symBinAddr: 0x3FAC0, symSize: 0x198 }
  - { offset: 0x8E3F9, size: 0x8, addend: 0x0, symName: __ZN3std6thread7current12init_current17h772b2ceaca17750fE, symObjAddr: 0x1F8C0, symBinAddr: 0x5973C, symSize: 0x164 }
  - { offset: 0x8E73C, size: 0x8, addend: 0x0, symName: __ZN3std6thread6Thread3new17h61d7fe27c37d738eE, symObjAddr: 0x207B0, symBinAddr: 0x3A7F8, symSize: 0x158 }
  - { offset: 0x8EB41, size: 0x8, addend: 0x0, symName: '__ZN68_$LT$std..thread..local..AccessError$u20$as$u20$core..fmt..Debug$GT$3fmt17h2be09ec9b7553c28E', symObjAddr: 0x20034, symBinAddr: 0x3A6B0, symSize: 0x38 }
  - { offset: 0x8EB5C, size: 0x8, addend: 0x0, symName: __ZN3std6thread5local18panic_access_error17h274fbdd9d3672a4bE, symObjAddr: 0x20080, symBinAddr: 0x598A0, symSize: 0x44 }
  - { offset: 0x8EB97, size: 0x8, addend: 0x0, symName: __ZN3std6thread8ThreadId3new9exhausted17hc87ba1ebc9ec3293E, symObjAddr: 0x20668, symBinAddr: 0x598E4, symSize: 0x38 }
  - { offset: 0x8EBD4, size: 0x8, addend: 0x0, symName: '__ZN118_$LT$std..thread..thread_name_string..ThreadNameString$u20$as$u20$core..convert..From$LT$alloc..string..String$GT$$GT$4from17h451023573f089af3E', symObjAddr: 0x206A0, symBinAddr: 0x3A6E8, symSize: 0x110 }
  - { offset: 0x8EE7B, size: 0x8, addend: 0x0, symName: __ZN3std5panic13resume_unwind17h7aa43f22d876952fE, symObjAddr: 0x31794, symBinAddr: 0x5991C, symSize: 0xC }
  - { offset: 0x8EEAA, size: 0x8, addend: 0x0, symName: __ZN3std5panic19get_backtrace_style17h39e90e609eb8b5abE, symObjAddr: 0x317C4, symBinAddr: 0x3C2E0, symSize: 0x11C }
  - { offset: 0x8EEC8, size: 0x8, addend: 0x0, symName: __ZN3std5panic19get_backtrace_style17h39e90e609eb8b5abE, symObjAddr: 0x317C4, symBinAddr: 0x3C2E0, symSize: 0x11C }
  - { offset: 0x8EEDD, size: 0x8, addend: 0x0, symName: __ZN3std5panic19get_backtrace_style17h39e90e609eb8b5abE, symObjAddr: 0x317C4, symBinAddr: 0x3C2E0, symSize: 0x11C }
  - { offset: 0x8F333, size: 0x8, addend: 0x0, symName: __ZN3std3env11current_dir17hcf122f2a803df77cE, symObjAddr: 0x21AB8, symBinAddr: 0x3A950, symSize: 0x1A0 }
  - { offset: 0x8F6FF, size: 0x8, addend: 0x0, symName: __ZN3std3env4_var17h9dd5e1a62477915dE, symObjAddr: 0x22298, symBinAddr: 0x3AAF0, symSize: 0x98 }
  - { offset: 0x8F7FB, size: 0x8, addend: 0x0, symName: __ZN3std3env7_var_os17h2a5365ce2409b350E, symObjAddr: 0x22330, symBinAddr: 0x3AB88, symSize: 0x164 }
  - { offset: 0x8FABC, size: 0x8, addend: 0x0, symName: __ZN3std2fs11OpenOptions5_open17h0fbed7ef40f371a5E, symObjAddr: 0x24928, symBinAddr: 0x3AD98, symSize: 0x250 }
  - { offset: 0x8FC6B, size: 0x8, addend: 0x0, symName: '__ZN75_$LT$std..fs..ReadDir$u20$as$u20$core..iter..traits..iterator..Iterator$GT$4next17h60ea7641501e923cE', symObjAddr: 0x24F5C, symBinAddr: 0x3AFE8, symSize: 0x18C }
  - { offset: 0x8FF54, size: 0x8, addend: 0x0, symName: __ZN3std5alloc24default_alloc_error_hook17hbb2afb0af5835e8dE, symObjAddr: 0x3B0F8, symBinAddr: 0x3E0D0, symSize: 0x140 }
  - { offset: 0x90197, size: 0x8, addend: 0x0, symName: __RNvCs73fAdSrgOJL_7___rustc11___rdl_alloc, symObjAddr: 0x3B238, symBinAddr: 0x3E210, symSize: 0x6C }
  - { offset: 0x9021D, size: 0x8, addend: 0x0, symName: __RNvCs73fAdSrgOJL_7___rustc13___rdl_dealloc, symObjAddr: 0x3B2A4, symBinAddr: 0x3E27C, symSize: 0x4 }
  - { offset: 0x9023D, size: 0x8, addend: 0x0, symName: __RNvCs73fAdSrgOJL_7___rustc13___rdl_dealloc, symObjAddr: 0x3B2A4, symBinAddr: 0x3E27C, symSize: 0x4 }
  - { offset: 0x90251, size: 0x8, addend: 0x0, symName: __RNvCs73fAdSrgOJL_7___rustc13___rdl_realloc, symObjAddr: 0x3B2A8, symBinAddr: 0x3E280, symSize: 0xB0 }
  - { offset: 0x9032F, size: 0x8, addend: 0x0, symName: __RNvCs73fAdSrgOJL_7___rustc18___rdl_alloc_zeroed, symObjAddr: 0x3B358, symBinAddr: 0x3E330, symSize: 0x90 }
  - { offset: 0x903DB, size: 0x8, addend: 0x0, symName: __ZN3std5alloc8rust_oom17hdb6eb131aa920ad3E, symObjAddr: 0x48A7C, symBinAddr: 0x5A178, symSize: 0x2C }
  - { offset: 0x9042A, size: 0x8, addend: 0x0, symName: __RNvCs73fAdSrgOJL_7___rustc8___rg_oom, symObjAddr: 0x48AA8, symBinAddr: 0x5A1A4, symSize: 0x18 }
  - { offset: 0x9049A, size: 0x8, addend: 0x0, symName: '__ZN9addr2line8function17Function$LT$R$GT$14parse_children17hf3df585ce7ac8262E', symObjAddr: 0x1DE2C, symBinAddr: 0x3966C, symSize: 0xE84 }
  - { offset: 0x91D15, size: 0x8, addend: 0x0, symName: __ZN9addr2line8function10name_entry17hfdced0c758d2a567E, symObjAddr: 0x1DAC0, symBinAddr: 0x39300, symSize: 0x36C }
  - { offset: 0x921D7, size: 0x8, addend: 0x0, symName: __ZN9addr2line8function9name_attr17h1ce69a4ce3ba7e89E, symObjAddr: 0x1ECB0, symBinAddr: 0x3A4F0, symSize: 0x1C0 }
  - { offset: 0x923FB, size: 0x8, addend: 0x0, symName: __ZN9addr2line4line11render_file17h41488bb5a6979477E, symObjAddr: 0x1C890, symBinAddr: 0x380D0, symSize: 0x4B0 }
  - { offset: 0x92D5A, size: 0x8, addend: 0x0, symName: '__ZN9addr2line4unit16ResUnit$LT$R$GT$25find_function_or_location17h3697563f577d8d9fE', symObjAddr: 0x1CD40, symBinAddr: 0x38580, symSize: 0x378 }
  - { offset: 0x9322E, size: 0x8, addend: 0x0, symName: '__ZN9addr2line4unit16ResUnit$LT$R$GT$25find_function_or_location28_$u7b$$u7b$closure$u7d$$u7d$17h0d725353a137efa6E', symObjAddr: 0x1D0B8, symBinAddr: 0x388F8, symSize: 0x30C }
  - { offset: 0x935D3, size: 0x8, addend: 0x0, symName: '__ZN9addr2line16Context$LT$R$GT$9find_unit17hfe70ee874184feb7E', symObjAddr: 0x1C734, symBinAddr: 0x37F74, symSize: 0x15C }
  - { offset: 0x93782, size: 0x8, addend: 0x0, symName: '__ZN9addr2line6lookup30LoopingLookup$LT$T$C$L$C$F$GT$10new_lookup17h479f29027e320fd2E', symObjAddr: 0x1D684, symBinAddr: 0x38EC4, symSize: 0x43C }
  - { offset: 0x93C5E, size: 0x8, addend: 0x0, symName: '__ZN9addr2line5frame18FrameIter$LT$R$GT$4next17hab4653c465939ee8E', symObjAddr: 0x1D3C4, symBinAddr: 0x38C04, symSize: 0x2C0 }
  - { offset: 0x9437B, size: 0x8, addend: 0x0, symName: '__ZN5gimli4read4unit18Attribute$LT$R$GT$5value17hf92c28dec7922b31E', symObjAddr: 0x174B8, symBinAddr: 0x33230, symSize: 0x598 }
  - { offset: 0x94794, size: 0x8, addend: 0x0, symName: '__ZN90_$LT$gimli..read..unit..AttributeValue$LT$R$C$Offset$GT$$u20$as$u20$core..clone..Clone$GT$5clone17hcb6071538b682662E', symObjAddr: 0x1C614, symBinAddr: 0x37F0C, symSize: 0x68 }
  - { offset: 0x947F4, size: 0x8, addend: 0x0, symName: '__ZN5gimli4read4unit32AttributeValue$LT$R$C$Offset$GT$11udata_value17hb0fbf782d56f4d3fE', symObjAddr: 0x17D08, symBinAddr: 0x33A80, symSize: 0x84 }
  - { offset: 0x9484F, size: 0x8, addend: 0x0, symName: __ZN5gimli4read4unit15parse_attribute17h04e99a6e8528e9b0E, symObjAddr: 0x16008, symBinAddr: 0x31D80, symSize: 0xF74 }
  - { offset: 0x9740E, size: 0x8, addend: 0x0, symName: __ZN5gimli4read4unit15skip_attributes17h34aae5d204503f89E, symObjAddr: 0x16F7C, symBinAddr: 0x32CF4, symSize: 0x53C }
  - { offset: 0x97DF8, size: 0x8, addend: 0x0, symName: '__ZN5gimli4read4unit22EntriesCursor$LT$R$GT$10next_entry17hdbe6c325dc93b25aE', symObjAddr: 0x17A50, symBinAddr: 0x337C8, symSize: 0x2B8 }
  - { offset: 0x983BC, size: 0x8, addend: 0x0, symName: '__ZN5gimli4read4unit33DebugInfoUnitHeadersIter$LT$R$GT$4next17ha7bc19eef22d5132E', symObjAddr: 0x17D8C, symBinAddr: 0x33B04, symSize: 0x518 }
  - { offset: 0x99506, size: 0x8, addend: 0x0, symName: '__ZN5gimli4read5dwarf13Unit$LT$R$GT$3new17h686262bf18a65175E', symObjAddr: 0x182A4, symBinAddr: 0x3401C, symSize: 0x1C84 }
  - { offset: 0x9CC5F, size: 0x8, addend: 0x0, symName: '__ZN5gimli4read5dwarf14Dwarf$LT$R$GT$11attr_string17h1e958f109b0daeb0E', symObjAddr: 0x19F28, symBinAddr: 0x35CA0, symSize: 0x220 }
  - { offset: 0x9D64B, size: 0x8, addend: 0x0, symName: __ZN5gimli4read6reader6Reader11read_offset17hfc4380759744d0ccE, symObjAddr: 0x1A808, symBinAddr: 0x36580, symSize: 0xB4 }
  - { offset: 0x9D86A, size: 0x8, addend: 0x0, symName: __ZN5gimli4read6reader6Reader12read_sleb12817h1bb18c7db89a5c45E, symObjAddr: 0x1A8BC, symBinAddr: 0x36634, symSize: 0x23C }
  - { offset: 0x9D946, size: 0x8, addend: 0x0, symName: __ZN5gimli4read6reader6Reader12read_uleb12817he2bb007cca6a74e8E, symObjAddr: 0x1AAF8, symBinAddr: 0x36870, symSize: 0xB8 }
  - { offset: 0x9D9ED, size: 0x8, addend: 0x0, symName: __ZN5gimli4read6reader6Reader17read_sized_offset17h350128ac40d4d88bE, symObjAddr: 0x1ABB0, symBinAddr: 0x36928, symSize: 0x10C }
  - { offset: 0x9E159, size: 0x8, addend: 0x0, symName: '__ZN5gimli4read4line27FileEntry$LT$R$C$Offset$GT$5parse17he72fe970b5aeb997E', symObjAddr: 0x15DEC, symBinAddr: 0x31B64, symSize: 0x21C }
  - { offset: 0x9E3B0, size: 0x8, addend: 0x0, symName: __ZN5gimli4read4line13parse_file_v517h17de60bb2846bd30E, symObjAddr: 0x14E6C, symBinAddr: 0x30BE4, symSize: 0x2B4 }
  - { offset: 0x9E528, size: 0x8, addend: 0x0, symName: __ZN5gimli4read4line15FileEntryFormat5parse17h5b94835e6d431828E, symObjAddr: 0x15120, symBinAddr: 0x30E98, symSize: 0x370 }
  - { offset: 0x9ECFB, size: 0x8, addend: 0x0, symName: __ZN5gimli4read4line15parse_attribute17h44b66ac1f1fd4d70E, symObjAddr: 0x15490, symBinAddr: 0x31208, symSize: 0x874 }
  - { offset: 0xA04B5, size: 0x8, addend: 0x0, symName: __ZN5gimli4read4line18parse_directory_v517hc1cf6537e0e6b55eE, symObjAddr: 0x15D04, symBinAddr: 0x31A7C, symSize: 0xE8 }
  - { offset: 0xA0640, size: 0x8, addend: 0x0, symName: '__ZN5gimli4read8rnglists20RngListIter$LT$R$GT$4next17h3cf0be4737bd2bfbE', symObjAddr: 0x1AF64, symBinAddr: 0x36CDC, symSize: 0xC70 }
  - { offset: 0xA2F8B, size: 0x8, addend: 0x0, symName: '__ZN5gimli4read5index18UnitIndex$LT$R$GT$5parse17hb6f2329c704ae441E', symObjAddr: 0x1A148, symBinAddr: 0x35EC0, symSize: 0x6C0 }
  - { offset: 0xA34FF, size: 0x8, addend: 0x0, symName: '__ZN5gimli4read7aranges30ArangeHeader$LT$R$C$Offset$GT$5parse17ha7ab83fde3103809E', symObjAddr: 0x1ACBC, symBinAddr: 0x36A34, symSize: 0x2A8 }
  - { offset: 0xA41BC, size: 0x8, addend: 0x0, symName: __ZN6object4read7archive13ArchiveMember5parse17h529fa28f4fec8200E, symObjAddr: 0x1C00C, symBinAddr: 0x379A8, symSize: 0x304 }
  - { offset: 0xA41DA, size: 0x8, addend: 0x0, symName: __ZN6object4read7archive13ArchiveMember5parse17h529fa28f4fec8200E, symObjAddr: 0x1C00C, symBinAddr: 0x379A8, symSize: 0x304 }
  - { offset: 0xA41EF, size: 0x8, addend: 0x0, symName: __ZN6object4read7archive13ArchiveMember5parse17h529fa28f4fec8200E, symObjAddr: 0x1C00C, symBinAddr: 0x379A8, symSize: 0x304 }
  - { offset: 0xA49E9, size: 0x8, addend: 0x0, symName: __ZN6object4read7archive23parse_bsd_extended_name17ha21d7e6d1cf5441dE, symObjAddr: 0x1C310, symBinAddr: 0x37CAC, symSize: 0x260 }
  - { offset: 0xA5803, size: 0x8, addend: 0x0, symName: _OUTLINED_FUNCTION_0, symObjAddr: 0x4E800, symBinAddr: 0x46DCC, symSize: 0x8 }
  - { offset: 0xA581B, size: 0x8, addend: 0x0, symName: _OUTLINED_FUNCTION_1, symObjAddr: 0x4E808, symBinAddr: 0x46DD4, symSize: 0xC }
  - { offset: 0xA5833, size: 0x8, addend: 0x0, symName: _OUTLINED_FUNCTION_2, symObjAddr: 0x4E814, symBinAddr: 0x46DE0, symSize: 0xC }
  - { offset: 0xA584B, size: 0x8, addend: 0x0, symName: _OUTLINED_FUNCTION_3, symObjAddr: 0x4E820, symBinAddr: 0x46DEC, symSize: 0xC }
  - { offset: 0xA5863, size: 0x8, addend: 0x0, symName: _OUTLINED_FUNCTION_4, symObjAddr: 0x4E82C, symBinAddr: 0x46DF8, symSize: 0xC }
  - { offset: 0xA587B, size: 0x8, addend: 0x0, symName: _OUTLINED_FUNCTION_5, symObjAddr: 0x4E838, symBinAddr: 0x46E04, symSize: 0x8 }
  - { offset: 0xA5893, size: 0x8, addend: 0x0, symName: _OUTLINED_FUNCTION_6, symObjAddr: 0x4E840, symBinAddr: 0x46E0C, symSize: 0x24 }
  - { offset: 0xA58AB, size: 0x8, addend: 0x0, symName: _OUTLINED_FUNCTION_7, symObjAddr: 0x4E864, symBinAddr: 0x46E30, symSize: 0x10 }
  - { offset: 0xA58C3, size: 0x8, addend: 0x0, symName: _OUTLINED_FUNCTION_8, symObjAddr: 0x4E874, symBinAddr: 0x46E40, symSize: 0x8 }
  - { offset: 0xA58DB, size: 0x8, addend: 0x0, symName: _OUTLINED_FUNCTION_9, symObjAddr: 0x4E87C, symBinAddr: 0x46E48, symSize: 0x8 }
  - { offset: 0xA58F3, size: 0x8, addend: 0x0, symName: _OUTLINED_FUNCTION_10, symObjAddr: 0x4E884, symBinAddr: 0x46E50, symSize: 0x24 }
  - { offset: 0xA590B, size: 0x8, addend: 0x0, symName: _OUTLINED_FUNCTION_11, symObjAddr: 0x4E8A8, symBinAddr: 0x46E74, symSize: 0x20 }
  - { offset: 0xA5923, size: 0x8, addend: 0x0, symName: _OUTLINED_FUNCTION_12, symObjAddr: 0x4E8C8, symBinAddr: 0x46E94, symSize: 0x8 }
  - { offset: 0xA593B, size: 0x8, addend: 0x0, symName: _OUTLINED_FUNCTION_13, symObjAddr: 0x4E8D0, symBinAddr: 0x46E9C, symSize: 0x8 }
  - { offset: 0xA5953, size: 0x8, addend: 0x0, symName: _OUTLINED_FUNCTION_14, symObjAddr: 0x4E8D8, symBinAddr: 0x46EA4, symSize: 0x8 }
  - { offset: 0xA596B, size: 0x8, addend: 0x0, symName: _OUTLINED_FUNCTION_15, symObjAddr: 0x4E8E0, symBinAddr: 0x46EAC, symSize: 0x8 }
  - { offset: 0xA5983, size: 0x8, addend: 0x0, symName: _OUTLINED_FUNCTION_16, symObjAddr: 0x4E8E8, symBinAddr: 0x46EB4, symSize: 0x8 }
  - { offset: 0xA599B, size: 0x8, addend: 0x0, symName: _OUTLINED_FUNCTION_17, symObjAddr: 0x4E8F0, symBinAddr: 0x46EBC, symSize: 0x10 }
  - { offset: 0xA59B3, size: 0x8, addend: 0x0, symName: _OUTLINED_FUNCTION_18, symObjAddr: 0x4E900, symBinAddr: 0x46ECC, symSize: 0x10 }
  - { offset: 0xA59CB, size: 0x8, addend: 0x0, symName: _OUTLINED_FUNCTION_19, symObjAddr: 0x4E910, symBinAddr: 0x46EDC, symSize: 0x10 }
  - { offset: 0xA59E3, size: 0x8, addend: 0x0, symName: _OUTLINED_FUNCTION_20, symObjAddr: 0x4E920, symBinAddr: 0x46EEC, symSize: 0x10 }
  - { offset: 0xA59FB, size: 0x8, addend: 0x0, symName: _OUTLINED_FUNCTION_21, symObjAddr: 0x4E930, symBinAddr: 0x46EFC, symSize: 0xC }
  - { offset: 0xA5A13, size: 0x8, addend: 0x0, symName: _OUTLINED_FUNCTION_22, symObjAddr: 0x4E93C, symBinAddr: 0x46F08, symSize: 0x18 }
  - { offset: 0xA5A2B, size: 0x8, addend: 0x0, symName: _OUTLINED_FUNCTION_23, symObjAddr: 0x4E954, symBinAddr: 0x46F20, symSize: 0x8 }
  - { offset: 0xA5A43, size: 0x8, addend: 0x0, symName: _OUTLINED_FUNCTION_24, symObjAddr: 0x4E95C, symBinAddr: 0x46F28, symSize: 0xC }
  - { offset: 0xA5A5B, size: 0x8, addend: 0x0, symName: _OUTLINED_FUNCTION_25, symObjAddr: 0x4E968, symBinAddr: 0x46F34, symSize: 0xC }
  - { offset: 0xA5A73, size: 0x8, addend: 0x0, symName: _OUTLINED_FUNCTION_26, symObjAddr: 0x4E974, symBinAddr: 0x46F40, symSize: 0x8 }
  - { offset: 0xA5A8B, size: 0x8, addend: 0x0, symName: _OUTLINED_FUNCTION_27, symObjAddr: 0x4E97C, symBinAddr: 0x46F48, symSize: 0x8 }
  - { offset: 0xA5AA3, size: 0x8, addend: 0x0, symName: _OUTLINED_FUNCTION_28, symObjAddr: 0x4E984, symBinAddr: 0x46F50, symSize: 0xC }
  - { offset: 0xA5ABB, size: 0x8, addend: 0x0, symName: _OUTLINED_FUNCTION_29, symObjAddr: 0x4E990, symBinAddr: 0x46F5C, symSize: 0xC }
  - { offset: 0xA5AD3, size: 0x8, addend: 0x0, symName: _OUTLINED_FUNCTION_30, symObjAddr: 0x4E99C, symBinAddr: 0x46F68, symSize: 0xC }
  - { offset: 0xA5AEB, size: 0x8, addend: 0x0, symName: _OUTLINED_FUNCTION_32, symObjAddr: 0x4E9B0, symBinAddr: 0x46F74, symSize: 0x10 }
  - { offset: 0xA5B03, size: 0x8, addend: 0x0, symName: _OUTLINED_FUNCTION_33, symObjAddr: 0x4E9C0, symBinAddr: 0x46F84, symSize: 0x14 }
  - { offset: 0xA5B1B, size: 0x8, addend: 0x0, symName: _OUTLINED_FUNCTION_34, symObjAddr: 0x4E9D4, symBinAddr: 0x46F98, symSize: 0x14 }
  - { offset: 0xA5B33, size: 0x8, addend: 0x0, symName: _OUTLINED_FUNCTION_35, symObjAddr: 0x4E9E8, symBinAddr: 0x46FAC, symSize: 0x14 }
  - { offset: 0xA5B4B, size: 0x8, addend: 0x0, symName: _OUTLINED_FUNCTION_36, symObjAddr: 0x4E9FC, symBinAddr: 0x46FC0, symSize: 0x14 }
  - { offset: 0xA5B81, size: 0x8, addend: 0x0, symName: '__ZN4core3ptr49drop_in_place$LT$panic_unwind..imp..Exception$GT$17h527397a192ffb8f1E', symObjAddr: 0x0, symBinAddr: 0x46FD4, symSize: 0x78 }
  - { offset: 0xA5BA7, size: 0x8, addend: 0x0, symName: '__ZN4core3ptr49drop_in_place$LT$panic_unwind..imp..Exception$GT$17h527397a192ffb8f1E', symObjAddr: 0x0, symBinAddr: 0x46FD4, symSize: 0x78 }
  - { offset: 0xA5CAE, size: 0x8, addend: 0x0, symName: '__ZN4core3ptr74drop_in_place$LT$alloc..boxed..Box$LT$panic_unwind..imp..Exception$GT$$GT$17ha4260977db93ebb9E', symObjAddr: 0x78, symBinAddr: 0x4704C, symSize: 0x8C }
  - { offset: 0xA5F76, size: 0x8, addend: 0x0, symName: __ZN12panic_unwind3imp5panic17exception_cleanup17h2bbea2a6f8ecfebbE, symObjAddr: 0x20C, symBinAddr: 0x471E0, symSize: 0x18 }
  - { offset: 0xA5F92, size: 0x8, addend: 0x0, symName: __RNvCs73fAdSrgOJL_7___rustc20___rust_panic_cleanup, symObjAddr: 0x104, symBinAddr: 0x470D8, symSize: 0x68 }
  - { offset: 0xA6038, size: 0x8, addend: 0x0, symName: __RNvCs73fAdSrgOJL_7___rustc18___rust_start_panic, symObjAddr: 0x16C, symBinAddr: 0x47140, symSize: 0xA0 }
  - { offset: 0xA611D, size: 0x8, addend: 0x0, symName: __ZN9hashbrown3raw11Fallibility17capacity_overflow17h6b39415fd83358b6E, symObjAddr: 0xB4, symBinAddr: 0x4EA90, symSize: 0x44 }
  - { offset: 0xA614C, size: 0x8, addend: 0x0, symName: __ZN9hashbrown3raw11Fallibility9alloc_err17h6fbe89112e915fefE, symObjAddr: 0xF8, symBinAddr: 0x4EAD4, symSize: 0x24 }
  - { offset: 0xA61A4, size: 0x8, addend: 0x0, symName: '__ZN42_$LT$$RF$T$u20$as$u20$core..fmt..Debug$GT$3fmt17hbfe40856fb87cb3fE', symObjAddr: 0x10, symBinAddr: 0x4EAF8, symSize: 0x68 }
  - { offset: 0xA61CE, size: 0x8, addend: 0x0, symName: '__ZN42_$LT$$RF$T$u20$as$u20$core..fmt..Debug$GT$3fmt17hd70af3e1c37d3b5aE', symObjAddr: 0x78, symBinAddr: 0x4EB60, symSize: 0x1C }
  - { offset: 0xA6260, size: 0x8, addend: 0x0, symName: __ZN4core3fmt5Write9write_fmt17hc140709df235180dE, symObjAddr: 0x94, symBinAddr: 0x4EB7C, symSize: 0x10 }
  - { offset: 0xA62A2, size: 0x8, addend: 0x0, symName: '__ZN53_$LT$core..fmt..Error$u20$as$u20$core..fmt..Debug$GT$3fmt17haea4712e43834251E', symObjAddr: 0x3A4, symBinAddr: 0x4EBA4, symSize: 0x14 }
  - { offset: 0xA6349, size: 0x8, addend: 0x0, symName: '__ZN4core3ptr42drop_in_place$LT$alloc..string..String$GT$17h263ff4f12d214cf2E', symObjAddr: 0xBC, symBinAddr: 0x4EB8C, symSize: 0x18 }
  - { offset: 0xA6830, size: 0x8, addend: 0x0, symName: __ZN4core9panicking13assert_failed17h55cb6962dc004475E, symObjAddr: 0x374, symBinAddr: 0x5A268, symSize: 0x30 }
  - { offset: 0xA685B, size: 0x8, addend: 0x0, symName: '__ZN69_$LT$core..alloc..layout..LayoutError$u20$as$u20$core..fmt..Debug$GT$3fmt17h13fbca3ca3dd174dE', symObjAddr: 0x3B8, symBinAddr: 0x4EBB8, symSize: 0x14 }
  - { offset: 0xA6CAF, size: 0x8, addend: 0x0, symName: __ZN5alloc7raw_vec17capacity_overflow17hd8f87080832cecbdE, symObjAddr: 0x3CC, symBinAddr: 0x5A298, symSize: 0x34 }
  - { offset: 0xA6CF6, size: 0x8, addend: 0x0, symName: '__ZN5alloc7raw_vec20RawVecInner$LT$A$GT$7reserve21do_reserve_and_handle17h4dd33506b8348a9cE', symObjAddr: 0x4A0, symBinAddr: 0x5A2CC, symSize: 0xB0 }
  - { offset: 0xA6DF8, size: 0x8, addend: 0x0, symName: __ZN5alloc7raw_vec11finish_grow17h38abc94d42a7bc55E, symObjAddr: 0x550, symBinAddr: 0x5A37C, symSize: 0x80 }
  - { offset: 0xA6E6E, size: 0x8, addend: 0x0, symName: __ZN5alloc7raw_vec12handle_error17h2ea1403ff25ec75cE, symObjAddr: 0x5D0, symBinAddr: 0x5A3FC, symSize: 0x18 }
  - { offset: 0xA6F68, size: 0x8, addend: 0x0, symName: __ZN5alloc5alloc18handle_alloc_error17h18ccdcfeddefd4c6E, symObjAddr: 0x5E8, symBinAddr: 0x5A414, symSize: 0x18 }
  - { offset: 0xA7012, size: 0x8, addend: 0x0, symName: __ZN5alloc6string6String15from_utf8_lossy17hbc43f3fc78418a81E, symObjAddr: 0x2E90, symBinAddr: 0x50404, symSize: 0x23C }
  - { offset: 0xA7558, size: 0x8, addend: 0x0, symName: '__ZN98_$LT$alloc..string..String$u20$as$u20$core..convert..From$LT$alloc..borrow..Cow$LT$str$GT$$GT$$GT$4from17h4b68af2740d6abffE', symObjAddr: 0x47BC, symBinAddr: 0x506D0, symSize: 0xB4 }
  - { offset: 0xA76AE, size: 0x8, addend: 0x0, symName: '__ZN60_$LT$alloc..string..String$u20$as$u20$core..clone..Clone$GT$5clone17h28c00dd7b58a68f1E', symObjAddr: 0x4604, symBinAddr: 0x50640, symSize: 0x90 }
  - { offset: 0xA77CE, size: 0x8, addend: 0x0, symName: '__ZN58_$LT$alloc..string..String$u20$as$u20$core..fmt..Write$GT$9write_str17hba5566b7261b3df3E', symObjAddr: 0x491C, symBinAddr: 0x50784, symSize: 0x78 }
  - { offset: 0xA7921, size: 0x8, addend: 0x0, symName: '__ZN58_$LT$alloc..string..String$u20$as$u20$core..fmt..Write$GT$10write_char17h5afa657ba1086fe6E', symObjAddr: 0x4994, symBinAddr: 0x507FC, symSize: 0x130 }
  - { offset: 0xA7C5E, size: 0x8, addend: 0x0, symName: '__ZN5alloc3vec16Vec$LT$T$C$A$GT$9split_off13assert_failed17he1c0a666012066c5E', symObjAddr: 0x4D58, symBinAddr: 0x5A430, symSize: 0x34 }
  - { offset: 0xA7CD2, size: 0x8, addend: 0x0, symName: '__ZN93_$LT$alloc..collections..btree..mem..replace..PanicGuard$u20$as$u20$core..ops..drop..Drop$GT$4drop17he91a4622e79b07ddE', symObjAddr: 0xE74, symBinAddr: 0x5A42C, symSize: 0x4 }
  - { offset: 0xA7DEC, size: 0x8, addend: 0x0, symName: '__ZN5alloc3str21_$LT$impl$u20$str$GT$12to_lowercase17h55d93f0b0114c67fE', symObjAddr: 0x1A84, symBinAddr: 0x4EFF8, symSize: 0xBC0 }
  - { offset: 0xA8B98, size: 0x8, addend: 0x0, symName: '__ZN5alloc3str21_$LT$impl$u20$str$GT$12to_uppercase17h16aa2e335329c7f4E', symObjAddr: 0x2644, symBinAddr: 0x4FBB8, symSize: 0x84C }
  - { offset: 0xA9613, size: 0x8, addend: 0x0, symName: '__ZN72_$LT$$RF$str$u20$as$u20$alloc..ffi..c_str..CString..new..SpecNewImpl$GT$13spec_new_impl17h19bc653579af59a5E', symObjAddr: 0xEF8, symBinAddr: 0x4EBCC, symSize: 0x114 }
  - { offset: 0xA983F, size: 0x8, addend: 0x0, symName: __ZN5alloc3ffi5c_str7CString19_from_vec_unchecked17h26f80605e3bdda78E, symObjAddr: 0x1150, symBinAddr: 0x4ECE0, symSize: 0x160 }
  - { offset: 0xA9B72, size: 0x8, addend: 0x0, symName: __ZN5alloc3fmt6format12format_inner17haed4f2c70b405047E, symObjAddr: 0x1858, symBinAddr: 0x4EE40, symSize: 0x1B8 }
  - { offset: 0xA9DB1, size: 0x8, addend: 0x0, symName: __ZN5alloc4sync32arcinner_layout_for_value_layout17h8c52c76ed82694fdE, symObjAddr: 0x4C48, symBinAddr: 0x5092C, symSize: 0x74 }
  - { offset: 0xA9E79, size: 0x8, addend: 0x0, symName: _OUTLINED_FUNCTION_0, symObjAddr: 0x4E1C, symBinAddr: 0x509A0, symSize: 0x24 }
  - { offset: 0xA9F65, size: 0x8, addend: 0x0, symName: __ZN4core3num22from_ascii_radix_panic8do_panic7runtime17h9ec10103f7c0716dE, symObjAddr: 0x17C88, symBinAddr: 0x5A97C, symSize: 0x44 }
  - { offset: 0xA9F98, size: 0x8, addend: 0x0, symName: __ZN4core3num22from_ascii_radix_panic17h8860cac63b800d2bE, symObjAddr: 0x3FD8, symBinAddr: 0x5A464, symSize: 0xC }
  - { offset: 0xAA5DE, size: 0x8, addend: 0x0, symName: __ZN4core5slice5index26slice_start_index_len_fail8do_panic7runtime17h429c9cce17a0ea9bE, symObjAddr: 0x1C14C, symBinAddr: 0x5AAFC, symSize: 0x50 }
  - { offset: 0xAA611, size: 0x8, addend: 0x0, symName: __ZN4core5slice5index26slice_start_index_len_fail17haf25ebf915d057aaE, symObjAddr: 0xF0BC, symBinAddr: 0x5A934, symSize: 0xC }
  - { offset: 0xAA657, size: 0x8, addend: 0x0, symName: __ZN4core5slice5index24slice_end_index_len_fail8do_panic7runtime17hdec1e0cff231be1dE, symObjAddr: 0x1C19C, symBinAddr: 0x5AB4C, symSize: 0x50 }
  - { offset: 0xAA68A, size: 0x8, addend: 0x0, symName: __ZN4core5slice5index24slice_end_index_len_fail17he89357cd02fca028E, symObjAddr: 0xF0C8, symBinAddr: 0x5A940, symSize: 0xC }
  - { offset: 0xAA6D0, size: 0x8, addend: 0x0, symName: __ZN4core5slice5index22slice_index_order_fail8do_panic7runtime17h6303e3dc084ed840E, symObjAddr: 0x1C1EC, symBinAddr: 0x5AB9C, symSize: 0x50 }
  - { offset: 0xAA703, size: 0x8, addend: 0x0, symName: __ZN4core5slice5index22slice_index_order_fail17he9c8f4194031cd00E, symObjAddr: 0xF0D4, symBinAddr: 0x5A94C, symSize: 0xC }
  - { offset: 0xAA91B, size: 0x8, addend: 0x0, symName: '__ZN4core5slice29_$LT$impl$u20$$u5b$T$u5d$$GT$15copy_from_slice17len_mismatch_fail8do_panic7runtime17hafd6567d15165d24E', symObjAddr: 0x1C23C, symBinAddr: 0x5ABEC, symSize: 0x54 }
  - { offset: 0xAA94E, size: 0x8, addend: 0x0, symName: '__ZN4core5slice29_$LT$impl$u20$$u5b$T$u5d$$GT$15copy_from_slice17len_mismatch_fail17he9be640df0dde06fE', symObjAddr: 0xF220, symBinAddr: 0x5A958, symSize: 0x18 }
  - { offset: 0xAABAE, size: 0x8, addend: 0x0, symName: __ZN4core5slice6memchr14memchr_aligned17hb906e7bc9e85c06eE, symObjAddr: 0xEA94, symBinAddr: 0x52D88, symSize: 0xDC }
  - { offset: 0xAAC8A, size: 0x8, addend: 0x0, symName: __ZN4core5slice6memchr7memrchr17h7ceb156575b1a919E, symObjAddr: 0xEB70, symBinAddr: 0x52E64, symSize: 0x120 }
  - { offset: 0xAADE3, size: 0x8, addend: 0x0, symName: __ZN4core5slice4sort6stable5drift11sqrt_approx17hd32bbcccc9c319c0E, symObjAddr: 0xEC90, symBinAddr: 0x52F84, symSize: 0x2C }
  - { offset: 0xAAE60, size: 0x8, addend: 0x0, symName: __ZN4core5slice4sort6shared9smallsort22panic_on_ord_violation17h87378ecb72803b59E, symObjAddr: 0xECBC, symBinAddr: 0x5A8FC, symSize: 0x38 }
  - { offset: 0xAB034, size: 0x8, addend: 0x0, symName: '__ZN42_$LT$str$u20$as$u20$core..fmt..Display$GT$3fmt17h42462a8471c7143dE', symObjAddr: 0xE768, symBinAddr: 0x52B20, symSize: 0x14 }
  - { offset: 0xAB224, size: 0x8, addend: 0x0, symName: __ZN4core3fmt9Formatter12pad_integral17heb070ef6e4499464E, symObjAddr: 0xC07C, symBinAddr: 0x51A68, symSize: 0x3B4 }
  - { offset: 0xAB525, size: 0x8, addend: 0x0, symName: __ZN4core3fmt9Formatter3pad17h299da9dcc544e21cE, symObjAddr: 0xC4AC, symBinAddr: 0x51E98, symSize: 0x304 }
  - { offset: 0xAB885, size: 0x8, addend: 0x0, symName: __ZN4core3fmt9Formatter9write_str17hd9a1b7644989a9c8E, symObjAddr: 0xCC04, symBinAddr: 0x5219C, symSize: 0x10 }
  - { offset: 0xAB899, size: 0x8, addend: 0x0, symName: __ZN4core3fmt9Formatter12debug_struct17hf7643d0658ff94cfE, symObjAddr: 0xCC20, symBinAddr: 0x521AC, symSize: 0x3C }
  - { offset: 0xAB8D8, size: 0x8, addend: 0x0, symName: __ZN4core3fmt9Formatter26debug_struct_field1_finish17h3d8cc21df86d1f08E, symObjAddr: 0xCC5C, symBinAddr: 0x521E8, symSize: 0xD0 }
  - { offset: 0xAB9AF, size: 0x8, addend: 0x0, symName: __ZN4core3fmt9Formatter26debug_struct_field2_finish17h32b4f697403bec40E, symObjAddr: 0xCD2C, symBinAddr: 0x522B8, symSize: 0x104 }
  - { offset: 0xABA86, size: 0x8, addend: 0x0, symName: __ZN4core3fmt9Formatter11debug_tuple17h3a3ca798bd11b2bcE, symObjAddr: 0xD340, symBinAddr: 0x523BC, symSize: 0x50 }
  - { offset: 0xABADB, size: 0x8, addend: 0x0, symName: __ZN4core3fmt9Formatter25debug_tuple_field1_finish17h293fabc56e30d0f7E, symObjAddr: 0xD390, symBinAddr: 0x5240C, symSize: 0x160 }
  - { offset: 0xABCDD, size: 0x8, addend: 0x0, symName: __ZN4core3fmt9Formatter25debug_tuple_field2_finish17h0773e66da7fec5dcE, symObjAddr: 0xD4F0, symBinAddr: 0x5256C, symSize: 0x1D8 }
  - { offset: 0xABFD5, size: 0x8, addend: 0x0, symName: __ZN4core3fmt9Formatter10debug_list17hb567e092460f51e4E, symObjAddr: 0xE2A4, symBinAddr: 0x52744, symSize: 0x48 }
  - { offset: 0xAC07D, size: 0x8, addend: 0x0, symName: __ZN4core3fmt8builders11DebugStruct5field17hcf92289f4867f5e5E, symObjAddr: 0x8288, symBinAddr: 0x512A4, symSize: 0x1B4 }
  - { offset: 0xAC27C, size: 0x8, addend: 0x0, symName: __ZN4core3fmt8builders11DebugStruct6finish17h21c87724d91d861aE, symObjAddr: 0x8500, symBinAddr: 0x51458, symSize: 0x80 }
  - { offset: 0xAC37D, size: 0x8, addend: 0x0, symName: '__ZN68_$LT$core..fmt..builders..PadAdapter$u20$as$u20$core..fmt..Write$GT$9write_str17hc0cf6ed124d300b4E', symObjAddr: 0x7FB0, symBinAddr: 0x50FCC, symSize: 0x258 }
  - { offset: 0xAC5FD, size: 0x8, addend: 0x0, symName: '__ZN68_$LT$core..fmt..builders..PadAdapter$u20$as$u20$core..fmt..Write$GT$10write_char17h9657826e049c4398E', symObjAddr: 0x8208, symBinAddr: 0x51224, symSize: 0x80 }
  - { offset: 0xAC682, size: 0x8, addend: 0x0, symName: __ZN4core3fmt8builders10DebugTuple5field17he743b1e43a659b47E, symObjAddr: 0x8580, symBinAddr: 0x514D8, symSize: 0x148 }
  - { offset: 0xAC80E, size: 0x8, addend: 0x0, symName: __ZN4core3fmt8builders10DebugTuple6finish17h39fdb22d98cc1346E, symObjAddr: 0x8788, symBinAddr: 0x51620, symSize: 0xB0 }
  - { offset: 0xAC95D, size: 0x8, addend: 0x0, symName: __ZN4core3fmt8builders8DebugSet5entry17h99c874a0178a5542E, symObjAddr: 0x8838, symBinAddr: 0x516D0, symSize: 0x148 }
  - { offset: 0xACB02, size: 0x8, addend: 0x0, symName: __ZN4core3fmt8builders9DebugList6finish17hd378c2ebba87d08dE, symObjAddr: 0x8B58, symBinAddr: 0x51818, symSize: 0x4C }
  - { offset: 0xACCD2, size: 0x8, addend: 0x0, symName: '__ZN4core3fmt3num53_$LT$impl$u20$core..fmt..LowerHex$u20$for$u20$i32$GT$3fmt17h6e850657c74d9d25E', symObjAddr: 0x19818, symBinAddr: 0x54DA0, symSize: 0x80 }
  - { offset: 0xACD7A, size: 0x8, addend: 0x0, symName: '__ZN4core3fmt3num53_$LT$impl$u20$core..fmt..UpperHex$u20$for$u20$i32$GT$3fmt17h997afd280f6b29c7E', symObjAddr: 0x19898, symBinAddr: 0x54E20, symSize: 0x80 }
  - { offset: 0xACE22, size: 0x8, addend: 0x0, symName: '__ZN4core3fmt3num53_$LT$impl$u20$core..fmt..LowerHex$u20$for$u20$i64$GT$3fmt17hbe7c020a02da664cE', symObjAddr: 0x199F8, symBinAddr: 0x54EA0, symSize: 0x80 }
  - { offset: 0xACECA, size: 0x8, addend: 0x0, symName: '__ZN4core3fmt3num53_$LT$impl$u20$core..fmt..UpperHex$u20$for$u20$i64$GT$3fmt17h740b27e908318385E', symObjAddr: 0x19A78, symBinAddr: 0x54F20, symSize: 0x80 }
  - { offset: 0xACF65, size: 0x8, addend: 0x0, symName: '__ZN4core3fmt3num52_$LT$impl$u20$core..fmt..LowerHex$u20$for$u20$i8$GT$3fmt17h4b4be5c7ea7962d0E', symObjAddr: 0x19458, symBinAddr: 0x54CA0, symSize: 0x80 }
  - { offset: 0xAD014, size: 0x8, addend: 0x0, symName: '__ZN4core3fmt3num52_$LT$impl$u20$core..fmt..UpperHex$u20$for$u20$i8$GT$3fmt17h05fab38eb12d6eccE', symObjAddr: 0x194D8, symBinAddr: 0x54D20, symSize: 0x80 }
  - { offset: 0xAD0E8, size: 0x8, addend: 0x0, symName: '__ZN4core3fmt3num3imp51_$LT$impl$u20$core..fmt..Display$u20$for$u20$u8$GT$3fmt17h6b187241d8419cbfE', symObjAddr: 0x1A470, symBinAddr: 0x54FA0, symSize: 0xB0 }
  - { offset: 0xAD1AC, size: 0x8, addend: 0x0, symName: '__ZN4core3fmt3num3imp52_$LT$impl$u20$core..fmt..Display$u20$for$u20$u32$GT$3fmt17hdad8bbb1fd1b667aE', symObjAddr: 0x1A984, symBinAddr: 0x55050, symSize: 0x130 }
  - { offset: 0xAD285, size: 0x8, addend: 0x0, symName: '__ZN4core3fmt3num3imp52_$LT$impl$u20$core..fmt..Display$u20$for$u20$i32$GT$3fmt17hf57747113c1e0663E', symObjAddr: 0x1AAB4, symBinAddr: 0x55180, symSize: 0x13C }
  - { offset: 0xAD383, size: 0x8, addend: 0x0, symName: '__ZN4core3fmt3num3imp52_$LT$impl$u20$core..fmt..Display$u20$for$u20$u64$GT$3fmt17ha8fcf0d52ed54e0fE', symObjAddr: 0x1ACF8, symBinAddr: 0x552BC, symSize: 0x13C }
  - { offset: 0xAD4DC, size: 0x8, addend: 0x0, symName: '__ZN57_$LT$core..fmt..Formatter$u20$as$u20$core..fmt..Write$GT$10write_char17h6d68564ee698b1edE', symObjAddr: 0xE38C, symBinAddr: 0x5278C, symSize: 0x10 }
  - { offset: 0xAD50F, size: 0x8, addend: 0x0, symName: __ZN4core3fmt5Write9write_fmt17h9614ff1edc252aa5E, symObjAddr: 0xBE40, symBinAddr: 0x51864, symSize: 0x10 }
  - { offset: 0xAD552, size: 0x8, addend: 0x0, symName: '__ZN59_$LT$core..fmt..Arguments$u20$as$u20$core..fmt..Display$GT$3fmt17h3a775e5eedaf7738E', symObjAddr: 0xBE88, symBinAddr: 0x51874, symSize: 0xC }
  - { offset: 0xAD5B6, size: 0x8, addend: 0x0, symName: __ZN4core3fmt5write17h2c4a0b98b09e3b30E, symObjAddr: 0xBE94, symBinAddr: 0x51880, symSize: 0x1E8 }
  - { offset: 0xAD795, size: 0x8, addend: 0x0, symName: __ZN4core3fmt9Formatter12pad_integral12write_prefix17hc2a717568d4daf91E, symObjAddr: 0xC430, symBinAddr: 0x51E1C, symSize: 0x7C }
  - { offset: 0xAD7DB, size: 0x8, addend: 0x0, symName: '__ZN42_$LT$$RF$T$u20$as$u20$core..fmt..Debug$GT$3fmt17h6e4f67bb97a98f3cE', symObjAddr: 0x1BFA8, symBinAddr: 0x553F8, symSize: 0xE0 }
  - { offset: 0xAD8F9, size: 0x8, addend: 0x0, symName: '__ZN42_$LT$$RF$T$u20$as$u20$core..fmt..Debug$GT$3fmt17hfbab3261e141b19fE', symObjAddr: 0x1C090, symBinAddr: 0x554D8, symSize: 0x10 }
  - { offset: 0xAD935, size: 0x8, addend: 0x0, symName: '__ZN40_$LT$str$u20$as$u20$core..fmt..Debug$GT$3fmt17h6bb0dde775cede54E', symObjAddr: 0xE3E4, symBinAddr: 0x5279C, symSize: 0x384 }
  - { offset: 0xADD3A, size: 0x8, addend: 0x0, symName: '__ZN41_$LT$char$u20$as$u20$core..fmt..Debug$GT$3fmt17h5b77a63018c31381E', symObjAddr: 0xE77C, symBinAddr: 0x52B34, symSize: 0xA8 }
  - { offset: 0xADE44, size: 0x8, addend: 0x0, symName: '__ZN43_$LT$char$u20$as$u20$core..fmt..Display$GT$3fmt17hccc7cc18179c4872E', symObjAddr: 0xE824, symBinAddr: 0x52BDC, symSize: 0xEC }
  - { offset: 0xADEC3, size: 0x8, addend: 0x0, symName: __ZN4core3fmt17pointer_fmt_inner17h454be370dc368025E, symObjAddr: 0xE910, symBinAddr: 0x52CC8, symSize: 0xC0 }
  - { offset: 0xADFAB, size: 0x8, addend: 0x0, symName: '__ZN44_$LT$$RF$T$u20$as$u20$core..fmt..Display$GT$3fmt17hbbf5e2ca3c54582bE', symObjAddr: 0x1C0B0, symBinAddr: 0x554E8, symSize: 0x10 }
  - { offset: 0xAE115, size: 0x8, addend: 0x0, symName: __ZN4core6option13unwrap_failed17h1f788aa856a0b42eE, symObjAddr: 0x7830, symBinAddr: 0x5A4F8, symSize: 0x1C }
  - { offset: 0xAE130, size: 0x8, addend: 0x0, symName: __ZN4core6option13expect_failed17h89af471ff13548f9E, symObjAddr: 0x784C, symBinAddr: 0x5A514, symSize: 0x48 }
  - { offset: 0xAE188, size: 0x8, addend: 0x0, symName: '__ZN71_$LT$core..ops..range..Range$LT$Idx$GT$$u20$as$u20$core..fmt..Debug$GT$3fmt17h658e9a2f8f4bbb48E', symObjAddr: 0x414C, symBinAddr: 0x509C4, symSize: 0x1F8 }
  - { offset: 0xAE697, size: 0x8, addend: 0x0, symName: __ZN4core6result13unwrap_failed17h7f68c62f4ec5b70eE, symObjAddr: 0x7EFC, symBinAddr: 0x5A8A0, symSize: 0x5C }
  - { offset: 0xAE6E2, size: 0x8, addend: 0x0, symName: __ZN4core5ascii14escape_default17h9dc888b2892de1e5E, symObjAddr: 0x4580, symBinAddr: 0x50BBC, symSize: 0x74 }
  - { offset: 0xAE994, size: 0x8, addend: 0x0, symName: __ZN4core3str5count14do_count_chars17hd2a57b08be8d1b70E, symObjAddr: 0xF77C, symBinAddr: 0x53224, symSize: 0x718 }
  - { offset: 0xAECE5, size: 0x8, addend: 0x0, symName: __ZN4core3str5count23char_count_general_case17h0d6812726d9a8e15E, symObjAddr: 0xFE94, symBinAddr: 0x5393C, symSize: 0x2A8 }
  - { offset: 0xAED92, size: 0x8, addend: 0x0, symName: __ZN4core3str8converts9from_utf817h7b78634a00291fadE, symObjAddr: 0xF294, symBinAddr: 0x52FB0, symSize: 0x274 }
  - { offset: 0xAEDAF, size: 0x8, addend: 0x0, symName: __ZN4core3str8converts9from_utf817h7b78634a00291fadE, symObjAddr: 0xF294, symBinAddr: 0x52FB0, symSize: 0x274 }
  - { offset: 0xAEE9D, size: 0x8, addend: 0x0, symName: __ZN4core3str7pattern11StrSearcher3new17hd95460b09bffc181E, symObjAddr: 0x1087C, symBinAddr: 0x53BE4, symSize: 0x8BC }
  - { offset: 0xAF1B7, size: 0x8, addend: 0x0, symName: '__ZN87_$LT$core..str..lossy..Utf8Chunks$u20$as$u20$core..iter..traits..iterator..Iterator$GT$4next17h454b21b309792e7dE', symObjAddr: 0x1149C, symBinAddr: 0x544A0, symSize: 0x1C0 }
  - { offset: 0xAF3BB, size: 0x8, addend: 0x0, symName: __ZN4core3str16slice_error_fail17h061e87b9dfc55aadE, symObjAddr: 0x11728, symBinAddr: 0x5A970, symSize: 0xC }
  - { offset: 0xAF3D5, size: 0x8, addend: 0x0, symName: __ZN4core3str19slice_error_fail_rt17h7e572c53c14a04e8E, symObjAddr: 0x11768, symBinAddr: 0x54660, symSize: 0x344 }
  - { offset: 0xAF5FD, size: 0x8, addend: 0x0, symName: '__ZN4core4char7methods22_$LT$impl$u20$char$GT$16escape_debug_ext17h530e3c57cef50f83E', symObjAddr: 0x4EEC, symBinAddr: 0x50C58, symSize: 0x284 }
  - { offset: 0xAF82B, size: 0x8, addend: 0x0, symName: __ZN4core4char7methods15encode_utf8_raw8do_panic7runtime17he7bfa606ee446088E, symObjAddr: 0x17D20, symBinAddr: 0x5A9C0, symSize: 0x6C }
  - { offset: 0xAF918, size: 0x8, addend: 0x0, symName: '__ZN82_$LT$core..char..ToLowercase$u20$as$u20$core..iter..traits..iterator..Iterator$GT$4next17h3f9f52a6347e0848E', symObjAddr: 0x17DF8, symBinAddr: 0x54C78, symSize: 0x28 }
  - { offset: 0xAF968, size: 0x8, addend: 0x0, symName: '__ZN82_$LT$core..char..ToLowercase$u20$as$u20$core..iter..traits..iterator..Iterator$GT$4next17h3f9f52a6347e0848E', symObjAddr: 0x17DF8, symBinAddr: 0x54C78, symSize: 0x28 }
  - { offset: 0xAF97C, size: 0x8, addend: 0x0, symName: '__ZN82_$LT$core..char..ToLowercase$u20$as$u20$core..iter..traits..iterator..Iterator$GT$4next17h3f9f52a6347e0848E', symObjAddr: 0x17DF8, symBinAddr: 0x54C78, symSize: 0x28 }
  - { offset: 0xAF990, size: 0x8, addend: 0x0, symName: '__ZN82_$LT$core..char..ToLowercase$u20$as$u20$core..iter..traits..iterator..Iterator$GT$4next17h3f9f52a6347e0848E', symObjAddr: 0x17DF8, symBinAddr: 0x54C78, symSize: 0x28 }
  - { offset: 0xAFA48, size: 0x8, addend: 0x0, symName: '__ZN62_$LT$core..cell..BorrowError$u20$as$u20$core..fmt..Display$GT$3fmt17h220772d6a1d24ef8E', symObjAddr: 0x4DA4, symBinAddr: 0x50C30, symSize: 0x14 }
  - { offset: 0xAFA7F, size: 0x8, addend: 0x0, symName: '__ZN65_$LT$core..cell..BorrowMutError$u20$as$u20$core..fmt..Display$GT$3fmt17hce6430c2316144b4E', symObjAddr: 0x4DB8, symBinAddr: 0x50C44, symSize: 0x14 }
  - { offset: 0xAFAB1, size: 0x8, addend: 0x0, symName: __ZN4core4cell22panic_already_borrowed17h0d36ae2fc2f0ba17E, symObjAddr: 0x4DCC, symBinAddr: 0x5A470, symSize: 0x44 }
  - { offset: 0xAFAE3, size: 0x8, addend: 0x0, symName: __ZN4core4cell30panic_already_mutably_borrowed17hb9264abe4dbd83d8E, symObjAddr: 0x4E10, symBinAddr: 0x5A4B4, symSize: 0x44 }
  - { offset: 0xAFB33, size: 0x8, addend: 0x0, symName: __ZN4core7unicode12unicode_data15grapheme_extend11lookup_slow17hd2a4fb5538b8240dE, symObjAddr: 0x1D5B0, symBinAddr: 0x55710, symSize: 0x108 }
  - { offset: 0xAFD60, size: 0x8, addend: 0x0, symName: __ZN4core7unicode12unicode_data14case_ignorable6lookup17h9959aa58d7c25ba9E, symObjAddr: 0x1D398, symBinAddr: 0x554F8, symSize: 0x10C }
  - { offset: 0xAFEE5, size: 0x8, addend: 0x0, symName: __ZN4core7unicode12unicode_data5cased6lookup17hc7340d083985f05eE, symObjAddr: 0x1D4A4, symBinAddr: 0x55604, symSize: 0xF4 }
  - { offset: 0xAFF03, size: 0x8, addend: 0x0, symName: __ZN4core7unicode12unicode_data5cased6lookup17hc7340d083985f05eE, symObjAddr: 0x1D4A4, symBinAddr: 0x55604, symSize: 0xF4 }
  - { offset: 0xB006A, size: 0x8, addend: 0x0, symName: __ZN4core7unicode12unicode_data2cc6lookup17h1698536727c00c0fE, symObjAddr: 0x1D598, symBinAddr: 0x556F8, symSize: 0x18 }
  - { offset: 0xB0088, size: 0x8, addend: 0x0, symName: __ZN4core7unicode12unicode_data2cc6lookup17h1698536727c00c0fE, symObjAddr: 0x1D598, symBinAddr: 0x556F8, symSize: 0x18 }
  - { offset: 0xB00BB, size: 0x8, addend: 0x0, symName: __ZN4core7unicode12unicode_data9uppercase6lookup17h8c658f6b14f9e6f0E, symObjAddr: 0x1D8C8, symBinAddr: 0x55818, symSize: 0x104 }
  - { offset: 0xB0113, size: 0x8, addend: 0x0, symName: __ZN4core7unicode12unicode_data11conversions8to_lower17h03e8661394c4edfeE, symObjAddr: 0x1D9CC, symBinAddr: 0x5591C, symSize: 0x184 }
  - { offset: 0xB024F, size: 0x8, addend: 0x0, symName: __ZN4core7unicode12unicode_data11conversions8to_upper17h389ef6301d18a811E, symObjAddr: 0x1DB50, symBinAddr: 0x55AA0, symSize: 0x1A4 }
  - { offset: 0xB03CE, size: 0x8, addend: 0x0, symName: __ZN4core7unicode9printable12is_printable17h484639cf451143c4E, symObjAddr: 0x12484, symBinAddr: 0x549A4, symSize: 0x2B4 }
  - { offset: 0xB06E0, size: 0x8, addend: 0x0, symName: __ZN4core3ffi5c_str4CStr19from_bytes_with_nul17h3a2ee221267d5c22E, symObjAddr: 0x5480, symBinAddr: 0x50EDC, symSize: 0xF0 }
  - { offset: 0xB06FE, size: 0x8, addend: 0x0, symName: __ZN4core3ffi5c_str4CStr19from_bytes_with_nul17h3a2ee221267d5c22E, symObjAddr: 0x5480, symBinAddr: 0x50EDC, symSize: 0xF0 }
  - { offset: 0xB07CD, size: 0x8, addend: 0x0, symName: __ZN4core9panicking9panic_fmt17h3505bfbec5a0b799E, symObjAddr: 0x7AA4, symBinAddr: 0x5A55C, symSize: 0x20 }
  - { offset: 0xB0810, size: 0x8, addend: 0x0, symName: __ZN4core9panicking18panic_nounwind_fmt17h9dceef42c0a45ea6E, symObjAddr: 0x7AC4, symBinAddr: 0x5A57C, symSize: 0x3C }
  - { offset: 0xB0855, size: 0x8, addend: 0x0, symName: __ZN4core9panicking5panic17he76e9111fdaa2ca0E, symObjAddr: 0x7B00, symBinAddr: 0x5A5B8, symSize: 0x34 }
  - { offset: 0xB0884, size: 0x8, addend: 0x0, symName: __ZN4core9panicking14panic_nounwind17h9f7565b148aca0eaE, symObjAddr: 0x7B34, symBinAddr: 0x5A5EC, symSize: 0x3C }
  - { offset: 0xB08B3, size: 0x8, addend: 0x0, symName: __ZN4core9panicking26panic_nounwind_nobacktrace17h12b19155b129e9d4E, symObjAddr: 0x7B70, symBinAddr: 0x5A628, symSize: 0x3C }
  - { offset: 0xB08E2, size: 0x8, addend: 0x0, symName: __ZN4core9panicking18panic_bounds_check17he97faa96f3a18922E, symObjAddr: 0x7BF4, symBinAddr: 0x5A664, symSize: 0x50 }
  - { offset: 0xB0914, size: 0x8, addend: 0x0, symName: __ZN4core9panicking36panic_misaligned_pointer_dereference17h46f525c718c17175E, symObjAddr: 0x7C44, symBinAddr: 0x5A6B4, symSize: 0x58 }
  - { offset: 0xB0946, size: 0x8, addend: 0x0, symName: __ZN4core9panicking30panic_null_pointer_dereference17ha0a21790f23666e7E, symObjAddr: 0x7C9C, symBinAddr: 0x5A70C, symSize: 0x38 }
  - { offset: 0xB0977, size: 0x8, addend: 0x0, symName: __ZN4core9panicking19panic_cannot_unwind17hf7c38fa209f60374E, symObjAddr: 0x7CD4, symBinAddr: 0x5A744, symSize: 0x18 }
  - { offset: 0xB0992, size: 0x8, addend: 0x0, symName: __ZN4core9panicking16panic_in_cleanup17hdc9dae2f5fec47e4E, symObjAddr: 0x7CEC, symBinAddr: 0x5A75C, symSize: 0x18 }
  - { offset: 0xB09AD, size: 0x8, addend: 0x0, symName: __ZN4core9panicking13assert_failed17h0019f4c0f6063c60E, symObjAddr: 0x7D68, symBinAddr: 0x5A774, symSize: 0x24 }
  - { offset: 0xB09C8, size: 0x8, addend: 0x0, symName: __ZN4core9panicking13assert_failed17h748d75638d28cdb2E, symObjAddr: 0x7D8C, symBinAddr: 0x5A798, symSize: 0x24 }
  - { offset: 0xB09E3, size: 0x8, addend: 0x0, symName: __ZN4core9panicking19assert_failed_inner17hcd9fdaaa091321f9E, symObjAddr: 0x7DC4, symBinAddr: 0x5A7BC, symSize: 0xE4 }
  - { offset: 0xB0A30, size: 0x8, addend: 0x0, symName: __ZN4core9panicking11panic_const24panic_const_add_overflow17h742455be0b74543cE, symObjAddr: 0x18160, symBinAddr: 0x5AA2C, symSize: 0x34 }
  - { offset: 0xB0A5F, size: 0x8, addend: 0x0, symName: __ZN4core9panicking11panic_const24panic_const_sub_overflow17h54c3a24574762da7E, symObjAddr: 0x18194, symBinAddr: 0x5AA60, symSize: 0x34 }
  - { offset: 0xB0A8E, size: 0x8, addend: 0x0, symName: __ZN4core9panicking11panic_const23panic_const_div_by_zero17h31f967ea86996136E, symObjAddr: 0x18300, symBinAddr: 0x5AA94, symSize: 0x34 }
  - { offset: 0xB0ABD, size: 0x8, addend: 0x0, symName: __ZN4core9panicking11panic_const23panic_const_rem_by_zero17ha1e16486c02437ccE, symObjAddr: 0x18334, symBinAddr: 0x5AAC8, symSize: 0x34 }
  - { offset: 0xB0B29, size: 0x8, addend: 0x0, symName: __ZN4core5alloc6layout6Layout19is_size_align_valid17h9081c126d538f17aE, symObjAddr: 0x129D4, symBinAddr: 0x54C58, symSize: 0x20 }
  - { offset: 0xB0B46, size: 0x8, addend: 0x0, symName: __ZN4core5alloc6layout6Layout19is_size_align_valid17h9081c126d538f17aE, symObjAddr: 0x129D4, symBinAddr: 0x54C58, symSize: 0x20 }
  - { offset: 0xB0B70, size: 0x8, addend: 0x0, symName: _OUTLINED_FUNCTION_0, symObjAddr: 0x1DCF4, symBinAddr: 0x55C44, symSize: 0x10 }
...
