---
triple:          'arm64-apple-darwin'
binary-path:     '/Users/tyler/fall25/cse380/final_project/final_project_sqlite/target/debug/build/num-traits-515a140ce62e5de0/build_script_build-515a140ce62e5de0'
relocations:
  - { offset: 0x1E, size: 0x8, addend: 0x0, symName: __RINvNtCsht3nMU9UgFu_3std2rt10lang_startuECs2pi18cn9nyy_18build_script_build, symObjAddr: 0x0, symBinAddr: 0x100000BF0, symSize: 0x60 }
  - { offset: 0x5B, size: 0x8, addend: 0x0, symName: __RNCINvNtCsht3nMU9UgFu_3std2rt10lang_startuE0Cs2pi18cn9nyy_18build_script_build, symObjAddr: 0x84, symBinAddr: 0x100000C74, symSize: 0x34 }
  - { offset: 0xC5, size: 0x8, addend: 0x0, symName: __RINvNtCsht3nMU9UgFu_3std2rt10lang_startuECs2pi18cn9nyy_18build_script_build, symObjAddr: 0x0, symBinAddr: 0x100000BF0, symSize: 0x60 }
  - { offset: 0x12F, size: 0x8, addend: 0x0, symName: __RINvNtNtCsht3nMU9UgFu_3std3sys9backtrace28___rust_begin_short_backtraceFEuuECs2pi18cn9nyy_18build_script_build, symObjAddr: 0x60, symBinAddr: 0x100000C50, symSize: 0x24 }
  - { offset: 0x238, size: 0x8, addend: 0x0, symName: __RNvXsZ_NtCsht3nMU9UgFu_3std7processuNtB5_11Termination6reportCs2pi18cn9nyy_18build_script_build, symObjAddr: 0xE0, symBinAddr: 0x100000CD0, symSize: 0x10 }
  - { offset: 0x2ED, size: 0x8, addend: 0x0, symName: __RNSNvYNCINvNtCsht3nMU9UgFu_3std2rt10lang_startuE0INtNtNtCsaNl6UpbT7bw_4core3ops8function6FnOnceuE9call_once6vtableCs2pi18cn9nyy_18build_script_build, symObjAddr: 0xB8, symBinAddr: 0x100000CA8, symSize: 0x28 }
  - { offset: 0x331, size: 0x8, addend: 0x0, symName: __RNvYFEuINtNtNtCsaNl6UpbT7bw_4core3ops8function6FnOnceuE9call_onceCs2pi18cn9nyy_18build_script_build, symObjAddr: 0xF0, symBinAddr: 0x100000CE0, symSize: 0x20 }
  - { offset: 0x371, size: 0x8, addend: 0x0, symName: __RNvYNCINvNtCsht3nMU9UgFu_3std2rt10lang_startuE0INtNtNtCsaNl6UpbT7bw_4core3ops8function6FnOnceuE9call_onceCs2pi18cn9nyy_18build_script_build, symObjAddr: 0x110, symBinAddr: 0x100000D00, symSize: 0x4C }
  - { offset: 0x5D5, size: 0x8, addend: 0x0, symName: __RNvCs2pi18cn9nyy_18build_script_build4main, symObjAddr: 0x15C, symBinAddr: 0x100000D4C, symSize: 0xB0 }
  - { offset: 0x871, size: 0x8, addend: 0x0, symName: __RINvMs6_NtCsg4dki62PTrg_9hashbrown3rawINtB6_8RawTableTyuEE14reserve_rehashNCINvNtB8_3map11make_hasheryuNtNtNtCsht3nMU9UgFu_3std4hash6random11RandomStateE0ECs4xw9YKG6Q6g_7autocfg, symObjAddr: 0x0, symBinAddr: 0x100053A5C, symSize: 0x81C }
  - { offset: 0x8AD, size: 0x8, addend: 0x0, symName: __RNCINvMs6_NtCsg4dki62PTrg_9hashbrown3rawINtB8_8RawTableTyuEE14reserve_rehashNCINvNtBa_3map11make_hasheryuNtNtNtCsht3nMU9UgFu_3std4hash6random11RandomStateE0E0Cs4xw9YKG6Q6g_7autocfg, symObjAddr: 0x115C, symBinAddr: 0x100001780, symSize: 0xC8 }
  - { offset: 0xA70, size: 0x8, addend: 0x0, symName: __RNCINvMs6_NtCsg4dki62PTrg_9hashbrown3rawINtB8_8RawTableTyuEE24find_or_find_insert_slotNCINvNtBa_3map14equivalent_keyyyuE0NCINvB1r_11make_hasheryuNtNtNtCsht3nMU9UgFu_3std4hash6random11RandomStateE0E0Cs4xw9YKG6Q6g_7autocfg, symObjAddr: 0x1224, symBinAddr: 0x100001848, symSize: 0xCC }
  - { offset: 0x13B5, size: 0x8, addend: 0x0, symName: __RNCINvMsa_NtCsg4dki62PTrg_9hashbrown3rawNtB8_13RawTableInner14prepare_resizeNtNtCsiTraAjBDcu4_5alloc5alloc6GlobalE0Cs4xw9YKG6Q6g_7autocfg, symObjAddr: 0x12F0, symBinAddr: 0x100001914, symSize: 0xBC }
  - { offset: 0x1598, size: 0x8, addend: 0x0, symName: __RNCNvMsa_NtCsg4dki62PTrg_9hashbrown3rawNtB7_13RawTableInner15rehash_in_place0Cs4xw9YKG6Q6g_7autocfg, symObjAddr: 0x13AC, symBinAddr: 0x1000019D0, symSize: 0x22C }
  - { offset: 0x1BDE, size: 0x8, addend: 0x0, symName: __RNvNtCsg4dki62PTrg_9hashbrown3raw19capacity_to_bucketsCs4xw9YKG6Q6g_7autocfg, symObjAddr: 0x29A8, symBinAddr: 0x100002FCC, symSize: 0x218 }
  - { offset: 0x1DE7, size: 0x8, addend: 0x0, symName: __RNvXsB_NtCsg4dki62PTrg_9hashbrown3rawINtB5_11RawIntoIterTyuEENtNtNtCsaNl6UpbT7bw_4core3ops4drop4Drop4dropCs4xw9YKG6Q6g_7autocfg, symObjAddr: 0x2BC0, symBinAddr: 0x1000031E4, symSize: 0x74 }
  - { offset: 0x1EA3, size: 0x8, addend: 0x0, symName: __RNvXsD_NtCsg4dki62PTrg_9hashbrown3rawINtB5_11RawIntoIterTyuEENtNtNtNtCsaNl6UpbT7bw_4core4iter6traits8iterator8Iterator4nextCs4xw9YKG6Q6g_7autocfg, symObjAddr: 0x2C34, symBinAddr: 0x100003258, symSize: 0xF8 }
  - { offset: 0x2030, size: 0x8, addend: 0x0, symName: __RNvXsg_NtCsg4dki62PTrg_9hashbrown3rawINtB5_8RawTableTyuEENtNtNtCsaNl6UpbT7bw_4core3ops4drop4Drop4dropCs4xw9YKG6Q6g_7autocfg, symObjAddr: 0x2D2C, symBinAddr: 0x100003350, symSize: 0x38 }
  - { offset: 0x2072, size: 0x8, addend: 0x0, symName: __RNvXsh_NtCsg4dki62PTrg_9hashbrown3rawINtB5_8RawTableTyuEENtNtNtNtCsaNl6UpbT7bw_4core4iter6traits7collect12IntoIterator9into_iterCs4xw9YKG6Q6g_7autocfg, symObjAddr: 0x2D64, symBinAddr: 0x100003388, symSize: 0x11C }
  - { offset: 0x5957, size: 0x8, addend: 0x0, symName: __RINvMs6_NtCsg4dki62PTrg_9hashbrown3rawINtB6_8RawTableTyuEE14reserve_rehashNCINvNtB8_3map11make_hasheryuNtNtNtCsht3nMU9UgFu_3std4hash6random11RandomStateE0ECs4xw9YKG6Q6g_7autocfg, symObjAddr: 0x0, symBinAddr: 0x100053A5C, symSize: 0x81C }
  - { offset: 0x6347, size: 0x8, addend: 0x0, symName: __RINvMs6_NtCsg4dki62PTrg_9hashbrown3rawINtB6_8RawTableTyuEE24find_or_find_insert_slotNCINvNtB8_3map14equivalent_keyyyuE0NCINvB1p_11make_hasheryuNtNtNtCsht3nMU9UgFu_3std4hash6random11RandomStateE0ECs4xw9YKG6Q6g_7autocfg, symObjAddr: 0x81C, symBinAddr: 0x100000E40, symSize: 0x140 }
  - { offset: 0x6533, size: 0x8, addend: 0x0, symName: __RINvMs6_NtCsg4dki62PTrg_9hashbrown3rawINtB6_8RawTableTyuEE7reserveNCINvNtB8_3map11make_hasheryuNtNtNtCsht3nMU9UgFu_3std4hash6random11RandomStateE0ECs4xw9YKG6Q6g_7autocfg, symObjAddr: 0x95C, symBinAddr: 0x100000F80, symSize: 0xCC }
  - { offset: 0x66A6, size: 0x8, addend: 0x0, symName: __RINvMsa_NtCsg4dki62PTrg_9hashbrown3rawNtB6_13RawTableInner13drop_elementsTyuEECs4xw9YKG6Q6g_7autocfg, symObjAddr: 0xA28, symBinAddr: 0x10000104C, symSize: 0x28 }
  - { offset: 0x6910, size: 0x8, addend: 0x0, symName: __RINvMsa_NtCsg4dki62PTrg_9hashbrown3rawNtB6_13RawTableInner16drop_inner_tableTyuENtNtCsiTraAjBDcu4_5alloc5alloc6GlobalECs4xw9YKG6Q6g_7autocfg, symObjAddr: 0xA50, symBinAddr: 0x100001074, symSize: 0xBC }
  - { offset: 0x6B23, size: 0x8, addend: 0x0, symName: __RINvMsa_NtCsg4dki62PTrg_9hashbrown3rawNtB6_13RawTableInner17new_uninitializedNtNtCsiTraAjBDcu4_5alloc5alloc6GlobalECs4xw9YKG6Q6g_7autocfg, symObjAddr: 0xB0C, symBinAddr: 0x100001130, symSize: 0x1B0 }
  - { offset: 0x6D74, size: 0x8, addend: 0x0, symName: __RINvMsa_NtCsg4dki62PTrg_9hashbrown3rawNtB6_13RawTableInner22fallible_with_capacityNtNtCsiTraAjBDcu4_5alloc5alloc6GlobalECs4xw9YKG6Q6g_7autocfg, symObjAddr: 0xCBC, symBinAddr: 0x1000012E0, symSize: 0x2B0 }
  - { offset: 0x71EA, size: 0x8, addend: 0x0, symName: __RINvMsi_NtCsg4dki62PTrg_9hashbrown3rawINtB6_12RawIterRangeTyuEE9next_implKb0_ECs4xw9YKG6Q6g_7autocfg, symObjAddr: 0xF6C, symBinAddr: 0x100001590, symSize: 0x1F0 }
  - { offset: 0x7982, size: 0x8, addend: 0x0, symName: __RNvMs1_NtCsg4dki62PTrg_9hashbrown3rawNtB5_11TableLayout20calculate_layout_forCs4xw9YKG6Q6g_7autocfg, symObjAddr: 0x15D8, symBinAddr: 0x100001BFC, symSize: 0x210 }
  - { offset: 0x7E0F, size: 0x8, addend: 0x0, symName: __RNvMs6_NtCsg4dki62PTrg_9hashbrown3rawINtB5_8RawTableTyuEE14insert_in_slotCs4xw9YKG6Q6g_7autocfg, symObjAddr: 0x17E8, symBinAddr: 0x100001E0C, symSize: 0x138 }
  - { offset: 0x81BF, size: 0x8, addend: 0x0, symName: __RNvMs6_NtCsg4dki62PTrg_9hashbrown3rawINtB5_8RawTableTyuEE14into_iter_fromCs4xw9YKG6Q6g_7autocfg, symObjAddr: 0x1920, symBinAddr: 0x100001F44, symSize: 0x90 }
  - { offset: 0x82AB, size: 0x8, addend: 0x0, symName: __RNvMs6_NtCsg4dki62PTrg_9hashbrown3rawINtB5_8RawTableTyuEE15into_allocationCs4xw9YKG6Q6g_7autocfg, symObjAddr: 0x19B0, symBinAddr: 0x100001FD4, symSize: 0x138 }
  - { offset: 0x84DE, size: 0x8, addend: 0x0, symName: __RNvMsa_NtCsg4dki62PTrg_9hashbrown3rawNtB5_13RawTableInner15fix_insert_slotCs4xw9YKG6Q6g_7autocfg, symObjAddr: 0x1AE8, symBinAddr: 0x10000210C, symSize: 0x12C }
  - { offset: 0x885E, size: 0x8, addend: 0x0, symName: __RNvMsa_NtCsg4dki62PTrg_9hashbrown3rawNtB5_13RawTableInner15rehash_in_placeCs4xw9YKG6Q6g_7autocfg, symObjAddr: 0x1C14, symBinAddr: 0x100002238, symSize: 0x4AC }
  - { offset: 0x9073, size: 0x8, addend: 0x0, symName: __RNvMsa_NtCsg4dki62PTrg_9hashbrown3rawNtB5_13RawTableInner16find_insert_slotCs4xw9YKG6Q6g_7autocfg, symObjAddr: 0x20C0, symBinAddr: 0x1000026E4, symSize: 0x11C }
  - { offset: 0x926E, size: 0x8, addend: 0x0, symName: __RNvMsa_NtCsg4dki62PTrg_9hashbrown3rawNtB5_13RawTableInner19prepare_insert_slotCs4xw9YKG6Q6g_7autocfg, symObjAddr: 0x21DC, symBinAddr: 0x100002800, symSize: 0x74 }
  - { offset: 0x955F, size: 0x8, addend: 0x0, symName: __RNvMsa_NtCsg4dki62PTrg_9hashbrown3rawNtB5_13RawTableInner23prepare_rehash_in_placeCs4xw9YKG6Q6g_7autocfg, symObjAddr: 0x2250, symBinAddr: 0x100002874, symSize: 0x258 }
  - { offset: 0x9C6B, size: 0x8, addend: 0x0, symName: __RNvMsa_NtCsg4dki62PTrg_9hashbrown3rawNtB5_13RawTableInner25find_insert_slot_in_groupCs4xw9YKG6Q6g_7autocfg, symObjAddr: 0x24A8, symBinAddr: 0x100002ACC, symSize: 0x15C }
  - { offset: 0x9F51, size: 0x8, addend: 0x0, symName: __RNvMsa_NtCsg4dki62PTrg_9hashbrown3rawNtB5_13RawTableInner30find_or_find_insert_slot_innerCs4xw9YKG6Q6g_7autocfg, symObjAddr: 0x2604, symBinAddr: 0x100002C28, symSize: 0x2C0 }
  - { offset: 0xA34A, size: 0x8, addend: 0x0, symName: __RNvMsi_NtCsg4dki62PTrg_9hashbrown3rawINtB5_12RawIterRangeTyuEE3newCs4xw9YKG6Q6g_7autocfg, symObjAddr: 0x28C4, symBinAddr: 0x100002EE8, symSize: 0xC8 }
  - { offset: 0xA5E3, size: 0x8, addend: 0x0, symName: __RNvMso_NtCsg4dki62PTrg_9hashbrown3rawINtB5_7RawIterTyuEE13drop_elementsCs4xw9YKG6Q6g_7autocfg, symObjAddr: 0x298C, symBinAddr: 0x100002FB0, symSize: 0x1C }
  - { offset: 0xA807, size: 0x8, addend: 0x0, symName: __RINvMNtCsaNl6UpbT7bw_4core3stre11starts_withReECs4xw9YKG6Q6g_7autocfg, symObjAddr: 0x0, symBinAddr: 0x1000034A4, symSize: 0x4C }
  - { offset: 0xA92C, size: 0x8, addend: 0x0, symName: __RNvNvMCs4xw9YKG6Q6g_7autocfgNtB4_7AutoCfg14new_crate_name2ID, symObjAddr: 0x2BC80, symBinAddr: 0x10007DE68, symSize: 0x0 }
  - { offset: 0xA964, size: 0x8, addend: 0x0, symName: __RNCNCNCNvCs4xw9YKG6Q6g_7autocfg19dir_contains_target000B7_, symObjAddr: 0x5E28, symBinAddr: 0x1000083BC, symSize: 0x3C }
  - { offset: 0xA98E, size: 0x8, addend: 0x0, symName: __RNCNCNCNvCs4xw9YKG6Q6g_7autocfg19dir_contains_target00s_0B7_, symObjAddr: 0x5E64, symBinAddr: 0x1000083F8, symSize: 0x54 }
  - { offset: 0xA9EC, size: 0x8, addend: 0x0, symName: __RNCNCNvCs4xw9YKG6Q6g_7autocfg19dir_contains_target00B5_, symObjAddr: 0x5D28, symBinAddr: 0x1000082BC, symSize: 0x100 }
  - { offset: 0xAA73, size: 0x8, addend: 0x0, symName: __RNCNvCs4xw9YKG6Q6g_7autocfg19dir_contains_target0B3_, symObjAddr: 0x5C60, symBinAddr: 0x1000081F4, symSize: 0xC8 }
  - { offset: 0xAB5E, size: 0x8, addend: 0x0, symName: __RNvCs4xw9YKG6Q6g_7autocfg4emit, symObjAddr: 0x3840, symBinAddr: 0x100006CE4, symSize: 0x68 }
  - { offset: 0xABA3, size: 0x8, addend: 0x0, symName: __RNvCs4xw9YKG6Q6g_7autocfg10rerun_path, symObjAddr: 0x38A8, symBinAddr: 0x100006D4C, symSize: 0x68 }
  - { offset: 0xABE8, size: 0x8, addend: 0x0, symName: __RNvCs4xw9YKG6Q6g_7autocfg16emit_possibility, symObjAddr: 0x3978, symBinAddr: 0x100006DB4, symSize: 0x68 }
  - { offset: 0xAF47, size: 0x8, addend: 0x0, symName: __RNvCs4xw9YKG6Q6g_7autocfg3new, symObjAddr: 0x39E0, symBinAddr: 0x100006E1C, symSize: 0xD4 }
  - { offset: 0xAF98, size: 0x8, addend: 0x0, symName: __RNvCs4xw9YKG6Q6g_7autocfg19dir_contains_target, symObjAddr: 0x5B88, symBinAddr: 0x10000811C, symSize: 0xD8 }
  - { offset: 0xAFE5, size: 0x8, addend: 0x0, symName: __RNvCs4xw9YKG6Q6g_7autocfg9rustflags, symObjAddr: 0x5EB8, symBinAddr: 0x10000844C, symSize: 0x3B0 }
  - { offset: 0xB055, size: 0x8, addend: 0x0, symName: __RNCNvCs4xw9YKG6Q6g_7autocfg9rustflags0B3_, symObjAddr: 0x6268, symBinAddr: 0x1000087FC, symSize: 0x44 }
  - { offset: 0xB096, size: 0x8, addend: 0x0, symName: __RNvCs4xw9YKG6Q6g_7autocfg8new_uuid, symObjAddr: 0x62AC, symBinAddr: 0x100008840, symSize: 0x134 }
  - { offset: 0xB4BD, size: 0x8, addend: 0x0, symName: __RNvYNtNtNtNtCsht3nMU9UgFu_3std3sys5stdio4unix6StderrNtNtBa_2io5Write9write_allCs4xw9YKG6Q6g_7autocfg, symObjAddr: 0x347C, symBinAddr: 0x100006920, symSize: 0x270 }
  - { offset: 0xB655, size: 0x8, addend: 0x0, symName: __RNvYNtNtNtNtCsht3nMU9UgFu_3std3sys5stdio4unix6StderrNtNtBa_2io5Write9write_fmtCs4xw9YKG6Q6g_7autocfg, symObjAddr: 0x36EC, symBinAddr: 0x100006B90, symSize: 0x154 }
  - { offset: 0xBFD1, size: 0x8, addend: 0x0, symName: __RNvNvMNtNtCsaNl6UpbT7bw_4core3ptr9const_ptrPp20offset_from_unsigned18precondition_checkCs4xw9YKG6Q6g_7autocfg, symObjAddr: 0x1C70, symBinAddr: 0x100005114, symSize: 0xAC }
  - { offset: 0xC40A, size: 0x8, addend: 0x0, symName: __RINvMNtCsaNl6UpbT7bw_4core3stre11starts_withReECs4xw9YKG6Q6g_7autocfg, symObjAddr: 0x0, symBinAddr: 0x1000034A4, symSize: 0x4C }
  - { offset: 0xC484, size: 0x8, addend: 0x0, symName: __RINvMNtCsaNl6UpbT7bw_4core3stre12trim_matchesNvMNtNtB5_4char7methodsc13is_whitespaceECs4xw9YKG6Q6g_7autocfg, symObjAddr: 0x4C, symBinAddr: 0x1000034F0, symSize: 0x130 }
  - { offset: 0xC62E, size: 0x8, addend: 0x0, symName: __RINvMNtCsaNl6UpbT7bw_4core3stre4findcECs4xw9YKG6Q6g_7autocfg, symObjAddr: 0x17C, symBinAddr: 0x100003620, symSize: 0xC8 }
  - { offset: 0xC6B6, size: 0x8, addend: 0x0, symName: __RINvMNtCsaNl6UpbT7bw_4core3stre5parsejECs4xw9YKG6Q6g_7autocfg, symObjAddr: 0x244, symBinAddr: 0x1000036E8, symSize: 0x28 }
  - { offset: 0xC6ED, size: 0x8, addend: 0x0, symName: __RINvMNtCsaNl6UpbT7bw_4core3stre5splitcECs4xw9YKG6Q6g_7autocfg, symObjAddr: 0x26C, symBinAddr: 0x100003710, symSize: 0x98 }
  - { offset: 0xC766, size: 0x8, addend: 0x0, symName: __RINvMNtCsaNl6UpbT7bw_4core3stre6splitncECs4xw9YKG6Q6g_7autocfg, symObjAddr: 0x304, symBinAddr: 0x1000037A8, symSize: 0xD0 }
  - { offset: 0xC7E1, size: 0x8, addend: 0x0, symName: __RINvMNtCsaNl6UpbT7bw_4core3stre8containsReECs4xw9YKG6Q6g_7autocfg, symObjAddr: 0x3D4, symBinAddr: 0x100003878, symSize: 0x4C }
  - { offset: 0xC827, size: 0x8, addend: 0x0, symName: __RNvMNtCsaNl6UpbT7bw_4core3stre3lenCs4xw9YKG6Q6g_7autocfg, symObjAddr: 0x15BC, symBinAddr: 0x100004A60, symSize: 0x1C }
  - { offset: 0xC853, size: 0x8, addend: 0x0, symName: __RNvMNtCsaNl6UpbT7bw_4core3stre4trimCs4xw9YKG6Q6g_7autocfg, symObjAddr: 0x15D8, symBinAddr: 0x100004A7C, symSize: 0x28 }
  - { offset: 0xC881, size: 0x8, addend: 0x0, symName: __RNvMNtCsaNl6UpbT7bw_4core3stre5charsCs4xw9YKG6Q6g_7autocfg, symObjAddr: 0x1600, symBinAddr: 0x100004AA4, symSize: 0x20 }
  - { offset: 0xC923, size: 0x8, addend: 0x0, symName: __RNvMNtCsaNl6UpbT7bw_4core3stre5linesCs4xw9YKG6Q6g_7autocfg, symObjAddr: 0x1620, symBinAddr: 0x100004AC4, symSize: 0xC4 }
  - { offset: 0xC9B3, size: 0x8, addend: 0x0, symName: __RNvMNtCsaNl6UpbT7bw_4core3stre8is_emptyCs4xw9YKG6Q6g_7autocfg, symObjAddr: 0x16E4, symBinAddr: 0x100004B88, symSize: 0x1C }
  - { offset: 0xD01E, size: 0x8, addend: 0x0, symName: __RNvXs2_NtNtCsaNl6UpbT7bw_4core3str7patterncNtB5_7Pattern13into_searcherCs4xw9YKG6Q6g_7autocfg, symObjAddr: 0x1E98, symBinAddr: 0x10000533C, symSize: 0x114 }
  - { offset: 0xD167, size: 0x8, addend: 0x0, symName: __RNvXs7_NtNtCsaNl6UpbT7bw_4core3str7patternINtB5_18MultiCharEqPatternNvMNtNtB9_4char7methodsc13is_whitespaceENtB5_7Pattern13into_searcherCs4xw9YKG6Q6g_7autocfg, symObjAddr: 0x2170, symBinAddr: 0x100005614, symSize: 0x90 }
  - { offset: 0xD1C9, size: 0x8, addend: 0x0, symName: __RNvXs8_NtNtCsaNl6UpbT7bw_4core3str7patternINtB5_19MultiCharEqSearcherNvMNtNtB9_4char7methodsc13is_whitespaceENtB5_8Searcher4nextCs4xw9YKG6Q6g_7autocfg, symObjAddr: 0x2200, symBinAddr: 0x1000056A4, symSize: 0x138 }
  - { offset: 0xD2EF, size: 0x8, addend: 0x0, symName: __RNvXs9_NtNtCsaNl6UpbT7bw_4core3str7patternINtB5_19MultiCharEqSearcherNvMNtNtB9_4char7methodsc13is_whitespaceENtB5_15ReverseSearcher9next_backCs4xw9YKG6Q6g_7autocfg, symObjAddr: 0x2338, symBinAddr: 0x1000057DC, symSize: 0x138 }
  - { offset: 0xD415, size: 0x8, addend: 0x0, symName: __RNvXs_NtNtCsaNl6UpbT7bw_4core3str7patternNtB4_12CharSearcherNtB4_8Searcher10next_matchCs4xw9YKG6Q6g_7autocfg, symObjAddr: 0x2508, symBinAddr: 0x1000059AC, symSize: 0x380 }
  - { offset: 0xD879, size: 0x8, addend: 0x0, symName: __RNvXs_NtNtCsaNl6UpbT7bw_4core3str7patternNtB4_12CharSearcherNtB4_8Searcher8haystackCs4xw9YKG6Q6g_7autocfg, symObjAddr: 0x2888, symBinAddr: 0x100005D2C, symSize: 0x20 }
  - { offset: 0xD8AD, size: 0x8, addend: 0x0, symName: __RNvXso_NtNtCsaNl6UpbT7bw_4core3str7patternINtB5_21CharPredicateSearcherNvMNtNtB9_4char7methodsc13is_whitespaceENtB5_8Searcher11next_rejectCs4xw9YKG6Q6g_7autocfg, symObjAddr: 0x2980, symBinAddr: 0x100005E24, symSize: 0x24 }
  - { offset: 0xD8EA, size: 0x8, addend: 0x0, symName: __RNvXsp_NtNtCsaNl6UpbT7bw_4core3str7patternINtB5_21CharPredicateSearcherNvMNtNtB9_4char7methodsc13is_whitespaceENtB5_15ReverseSearcher16next_reject_backCs4xw9YKG6Q6g_7autocfg, symObjAddr: 0x29A4, symBinAddr: 0x100005E48, symSize: 0x24 }
  - { offset: 0xD927, size: 0x8, addend: 0x0, symName: __RNvXst_NtNtCsaNl6UpbT7bw_4core3str7patternReNtB5_7Pattern12is_prefix_ofCs4xw9YKG6Q6g_7autocfg, symObjAddr: 0x29C8, symBinAddr: 0x100005E6C, symSize: 0x4C }
  - { offset: 0xD98E, size: 0x8, addend: 0x0, symName: __RNvXst_NtNtCsaNl6UpbT7bw_4core3str7patternReNtB5_7Pattern15is_contained_inCs4xw9YKG6Q6g_7autocfg, symObjAddr: 0x2A14, symBinAddr: 0x100005EB8, symSize: 0x1CC }
  - { offset: 0xDC3E, size: 0x8, addend: 0x0, symName: __RNvXst_NtNtCsaNl6UpbT7bw_4core3str7patternReNtB5_7Pattern15strip_suffix_ofCs4xw9YKG6Q6g_7autocfg, symObjAddr: 0x2BE0, symBinAddr: 0x100006084, symSize: 0xE8 }
  - { offset: 0xDE4B, size: 0x8, addend: 0x0, symName: __RNvXsv_NtNtCsaNl6UpbT7bw_4core3str7patternNtB5_11StrSearcherNtB5_8Searcher10next_matchCs4xw9YKG6Q6g_7autocfg, symObjAddr: 0x2CC8, symBinAddr: 0x10000616C, symSize: 0x148 }
  - { offset: 0xDED7, size: 0x8, addend: 0x0, symName: __RNvXsv_NtNtCsaNl6UpbT7bw_4core3str7patternNtB5_11StrSearcherNtB5_8Searcher4nextCs4xw9YKG6Q6g_7autocfg, symObjAddr: 0x2E10, symBinAddr: 0x1000062B4, symSize: 0x454 }
  - { offset: 0xE1E2, size: 0x8, addend: 0x0, symName: __RNvXsy_NtNtCsaNl6UpbT7bw_4core3str7patternNtB5_9MatchOnlyNtB5_14TwoWayStrategy16use_early_rejectCs4xw9YKG6Q6g_7autocfg, symObjAddr: 0x328C, symBinAddr: 0x100006730, symSize: 0xC }
  - { offset: 0xE200, size: 0x8, addend: 0x0, symName: __RNvXsy_NtNtCsaNl6UpbT7bw_4core3str7patternNtB5_9MatchOnlyNtB5_14TwoWayStrategy8matchingCs4xw9YKG6Q6g_7autocfg, symObjAddr: 0x3298, symBinAddr: 0x10000673C, symSize: 0x28 }
  - { offset: 0xE23D, size: 0x8, addend: 0x0, symName: __RNvXsy_NtNtCsaNl6UpbT7bw_4core3str7patternNtB5_9MatchOnlyNtB5_14TwoWayStrategy9rejectingCs4xw9YKG6Q6g_7autocfg, symObjAddr: 0x32C0, symBinAddr: 0x100006764, symSize: 0x18 }
  - { offset: 0xE280, size: 0x8, addend: 0x0, symName: __RNvXsz_NtNtCsaNl6UpbT7bw_4core3str7patternNtB5_14RejectAndMatchNtB5_14TwoWayStrategy16use_early_rejectCs4xw9YKG6Q6g_7autocfg, symObjAddr: 0x32D8, symBinAddr: 0x10000677C, symSize: 0xC }
  - { offset: 0xE29E, size: 0x8, addend: 0x0, symName: __RNvXsz_NtNtCsaNl6UpbT7bw_4core3str7patternNtB5_14RejectAndMatchNtB5_14TwoWayStrategy8matchingCs4xw9YKG6Q6g_7autocfg, symObjAddr: 0x32E4, symBinAddr: 0x100006788, symSize: 0x20 }
  - { offset: 0xE2DB, size: 0x8, addend: 0x0, symName: __RNvXsz_NtNtCsaNl6UpbT7bw_4core3str7patternNtB5_14RejectAndMatchNtB5_14TwoWayStrategy9rejectingCs4xw9YKG6Q6g_7autocfg, symObjAddr: 0x3304, symBinAddr: 0x1000067A8, symSize: 0x28 }
  - { offset: 0xE31E, size: 0x8, addend: 0x0, symName: __RNvYINtNtNtCsaNl6UpbT7bw_4core3str7pattern19MultiCharEqSearcherNvMNtNtB9_4char7methodsc13is_whitespaceENtB5_15ReverseSearcher16next_reject_backCs4xw9YKG6Q6g_7autocfg, symObjAddr: 0x335C, symBinAddr: 0x100006800, symSize: 0x90 }
  - { offset: 0xE389, size: 0x8, addend: 0x0, symName: __RNvYINtNtNtCsaNl6UpbT7bw_4core3str7pattern19MultiCharEqSearcherNvMNtNtB9_4char7methodsc13is_whitespaceENtB5_8Searcher11next_rejectCs4xw9YKG6Q6g_7autocfg, symObjAddr: 0x33EC, symBinAddr: 0x100006890, symSize: 0x90 }
  - { offset: 0xE491, size: 0x8, addend: 0x0, symName: __RNvXs3_NtCsaNl6UpbT7bw_4core3strNtB5_8LinesMapINtNtNtB7_3ops8function2FnTReEE4callCs4xw9YKG6Q6g_7autocfg, symObjAddr: 0x1FAC, symBinAddr: 0x100005450, symSize: 0x174 }
  - { offset: 0xE5BC, size: 0x8, addend: 0x0, symName: __RNvXs4_NtCsaNl6UpbT7bw_4core3strNtB5_8LinesMapINtNtNtB7_3ops8function5FnMutTReEE8call_mutCs4xw9YKG6Q6g_7autocfg, symObjAddr: 0x2120, symBinAddr: 0x1000055C4, symSize: 0x3C }
  - { offset: 0xF0D7, size: 0x8, addend: 0x0, symName: __RNvXs6_NtCsaNl6UpbT7bw_4core6optionINtB5_6OptionRNtNtCsht3nMU9UgFu_3std4path7PathBufENtNtNtNtB7_4iter6traits7collect12IntoIterator9into_iterCs4xw9YKG6Q6g_7autocfg, symObjAddr: 0x215C, symBinAddr: 0x100005600, symSize: 0x14 }
  - { offset: 0xF114, size: 0x8, addend: 0x0, symName: __RNvXsJ_NtCsaNl6UpbT7bw_4core6optionINtB5_6OptionhENtNtB7_3fmt5Debug3fmtCs4xw9YKG6Q6g_7autocfg, symObjAddr: 0x2470, symBinAddr: 0x100005914, symSize: 0x98 }
  - { offset: 0xF291, size: 0x8, addend: 0x0, symName: __RNvXsd_NtCsaNl6UpbT7bw_4core6optionINtB5_6OptionNtNtNtCsht3nMU9UgFu_3std3ffi6os_str8OsStringENtNtB7_3cmp9PartialEq2eqCs4xw9YKG6Q6g_7autocfg, symObjAddr: 0x28A8, symBinAddr: 0x100005D4C, symSize: 0xB8 }
  - { offset: 0xF347, size: 0x8, addend: 0x0, symName: __RNvXsl_NtCsaNl6UpbT7bw_4core6optionINtB5_4IterNtNtCsht3nMU9UgFu_3std4path7PathBufENtNtNtNtB7_4iter6traits8iterator8Iterator4nextCs4xw9YKG6Q6g_7autocfg, symObjAddr: 0x2960, symBinAddr: 0x100005E04, symSize: 0x20 }
  - { offset: 0xF4C1, size: 0x8, addend: 0x0, symName: __RNvXsw_NtCsaNl6UpbT7bw_4core6optionINtB5_8IntoIterRNtNtCsht3nMU9UgFu_3std4path7PathBufENtNtNtNtB7_4iter6traits8iterator8Iterator4nextCs4xw9YKG6Q6g_7autocfg, symObjAddr: 0x3264, symBinAddr: 0x100006708, symSize: 0x28 }
  - { offset: 0xFB5D, size: 0x8, addend: 0x0, symName: __RNvYINtNtCsaNl6UpbT7bw_4core6option6OptionNtNtNtCsht3nMU9UgFu_3std3ffi6os_str8OsStringENtNtB7_3cmp9PartialEq2neCs4xw9YKG6Q6g_7autocfg, symObjAddr: 0x332C, symBinAddr: 0x1000067D0, symSize: 0x30 }
  - { offset: 0xFC2E, size: 0x8, addend: 0x0, symName: __RNvXs1_NtNtNtCsaNl6UpbT7bw_4core3ops8function5implsQNCNvCs4xw9YKG6Q6g_7autocfg9rustflags0INtB7_5FnMutTRReEE8call_mutBS_, symObjAddr: 0x1E68, symBinAddr: 0x10000530C, symSize: 0x30 }
  - { offset: 0x10149, size: 0x8, addend: 0x0, symName: __RINvYINtNtCsaNl6UpbT7bw_4core6option4IterNtNtCsht3nMU9UgFu_3std4path7PathBufENtNtNtNtB8_4iter6traits8iterator8Iterator5chainB3_ECs4xw9YKG6Q6g_7autocfg, symObjAddr: 0x1514, symBinAddr: 0x1000049B8, symSize: 0xA8 }
  - { offset: 0x10210, size: 0x8, addend: 0x0, symName: __RNvXNtNtNtCsaNl6UpbT7bw_4core4iter6traits7collectINtNtB8_6option4IterNtNtCsht3nMU9UgFu_3std4path7PathBufENtB2_12IntoIterator9into_iterCs4xw9YKG6Q6g_7autocfg, symObjAddr: 0x1D1C, symBinAddr: 0x1000051C0, symSize: 0x14 }
  - { offset: 0x10808, size: 0x8, addend: 0x0, symName: __RNvXs19_NtCsaNl6UpbT7bw_4core3fmtRINtNtB8_6option6OptionhENtB6_5Debug3fmtCs4xw9YKG6Q6g_7autocfg, symObjAddr: 0x1DA0, symBinAddr: 0x100005244, symSize: 0x30 }
  - { offset: 0x10D52, size: 0x8, addend: 0x0, symName: __RNvNtNtCsaNl6UpbT7bw_4core5slice6memchr6memchrCs4xw9YKG6Q6g_7autocfg, symObjAddr: 0x1A10, symBinAddr: 0x100004EB4, symSize: 0x114 }
  - { offset: 0x1109E, size: 0x8, addend: 0x0, symName: __RNvNtNtNtCsaNl6UpbT7bw_4core7unicode12unicode_data11white_space6lookupCs4xw9YKG6Q6g_7autocfg, symObjAddr: 0x1B24, symBinAddr: 0x100004FC8, symSize: 0x14C }
  - { offset: 0x115C5, size: 0x8, addend: 0x0, symName: __RNvXs1_NtCsiTraAjBDcu4_5alloc7raw_vecINtB5_6RawVecINtNtB7_5boxed3BoxDINtNtNtCsaNl6UpbT7bw_4core3ops8function5FnMutuEp6OutputINtNtB1c_6result6ResultuNtNtNtCsht3nMU9UgFu_3std2io5error5ErrorENtNtB1c_6marker4SyncNtB32_4SendEL_EENtNtB1a_4drop4Drop4dropCs4xw9YKG6Q6g_7autocfg, symObjAddr: 0x1DD0, symBinAddr: 0x100005274, symSize: 0x34 }
  - { offset: 0x11601, size: 0x8, addend: 0x0, symName: __RNvXs1_NtCsiTraAjBDcu4_5alloc7raw_vecINtB5_6RawVecNtNtB7_6string6StringENtNtNtCsaNl6UpbT7bw_4core3ops4drop4Drop4dropCs4xw9YKG6Q6g_7autocfg, symObjAddr: 0x1E04, symBinAddr: 0x1000052A8, symSize: 0x34 }
  - { offset: 0x1163D, size: 0x8, addend: 0x0, symName: __RNvXs1_NtCsiTraAjBDcu4_5alloc7raw_vecINtB5_6RawVecPaENtNtNtCsaNl6UpbT7bw_4core3ops4drop4Drop4dropCs4xw9YKG6Q6g_7autocfg, symObjAddr: 0x1E38, symBinAddr: 0x1000052DC, symSize: 0x30 }
  - { offset: 0x1175D, size: 0x8, addend: 0x0, symName: __RNvXs0_NtNtCsiTraAjBDcu4_5alloc3ffi5c_strNtB5_7CStringNtNtNtCsaNl6UpbT7bw_4core3ops4drop4Drop4dropCs4xw9YKG6Q6g_7autocfg, symObjAddr: 0x1D30, symBinAddr: 0x1000051D4, symSize: 0x70 }
  - { offset: 0x119E4, size: 0x8, addend: 0x0, symName: __RINvMNtCsaNl6UpbT7bw_4core6optionINtB3_6OptionNtNtCsht3nMU9UgFu_3std4path7PathBufE14unwrap_or_elseNCNCNCNvCs4xw9YKG6Q6g_7autocfg19dir_contains_target000EB1G_, symObjAddr: 0x420, symBinAddr: 0x1000038C4, symSize: 0x70 }
  - { offset: 0x11A47, size: 0x8, addend: 0x0, symName: __RINvMNtCsaNl6UpbT7bw_4core6optionINtB3_6OptionNtNtNtCsht3nMU9UgFu_3std3ffi6os_str8OsStringE14unwrap_or_elseNCNvMNtCs4xw9YKG6Q6g_7autocfg5rustcNtB1M_5Rustc3new0EB1O_, symObjAddr: 0x490, symBinAddr: 0x100003934, symSize: 0x70 }
  - { offset: 0x11AC2, size: 0x8, addend: 0x0, symName: __RINvMNtCsaNl6UpbT7bw_4core6optionINtB3_6OptionNtNtNtCsht3nMU9UgFu_3std3ffi6os_str8OsStringE3mapNtNtBO_4path7PathBufNvYB1v_INtNtB5_7convert4FromBI_E4fromECs4xw9YKG6Q6g_7autocfg, symObjAddr: 0x500, symBinAddr: 0x1000039A4, symSize: 0x90 }
  - { offset: 0x11B48, size: 0x8, addend: 0x0, symName: __RINvMNtCsaNl6UpbT7bw_4core6optionINtB3_6OptionRNtNtCsht3nMU9UgFu_3std4path7PathBufE7or_elseNCNvXs_NtNtNtB5_4iter8adapters5chainINtB1y_5ChainIB22_INtB3_4IterBJ_EB2j_EINtB3_8IntoIterBI_EENtNtNtB1C_6traits8iterator8Iterator4next0ECs4xw9YKG6Q6g_7autocfg, symObjAddr: 0x590, symBinAddr: 0x100003A34, symSize: 0xA8 }
  - { offset: 0x11BB7, size: 0x8, addend: 0x0, symName: __RINvMNtCsaNl6UpbT7bw_4core6optionINtB3_6OptionRNtNtCsht3nMU9UgFu_3std4path7PathBufE7or_elseNCNvXs_NtNtNtB5_4iter8adapters5chainINtB1y_5ChainINtB3_4IterBJ_EB2e_ENtNtNtB1C_6traits8iterator8Iterator4next0ECs4xw9YKG6Q6g_7autocfg, symObjAddr: 0x638, symBinAddr: 0x100003ADC, symSize: 0xA8 }
  - { offset: 0x11C5A, size: 0x8, addend: 0x0, symName: __RINvMNtCsaNl6UpbT7bw_4core6optionINtB3_6OptionRNtNtNtCsht3nMU9UgFu_3std3ffi6os_str8OsStringE8and_thenbNCNvCs4xw9YKG6Q6g_7autocfg19dir_contains_target0EB1G_, symObjAddr: 0x6E0, symBinAddr: 0x100003B84, symSize: 0x78 }
  - { offset: 0x11CC6, size: 0x8, addend: 0x0, symName: __RINvMNtCsaNl6UpbT7bw_4core6optionINtB3_6OptionReE10ok_or_elseNtNtCs4xw9YKG6Q6g_7autocfg5error5ErrorNCNvMNtB11_7versionNtB1E_7Version12from_commands0_0EB11_, symObjAddr: 0x758, symBinAddr: 0x100003BFC, symSize: 0x80 }
  - { offset: 0x11D31, size: 0x8, addend: 0x0, symName: __RINvMNtCsaNl6UpbT7bw_4core6optionINtB3_6OptionReE10ok_or_elseNtNtCs4xw9YKG6Q6g_7autocfg5error5ErrorNCNvMNtB11_7versionNtB1E_7Version12from_commands1_0EB11_, symObjAddr: 0x7D8, symBinAddr: 0x100003C7C, symSize: 0x80 }
  - { offset: 0x11D9C, size: 0x8, addend: 0x0, symName: __RINvMNtCsaNl6UpbT7bw_4core6optionINtB3_6OptionReE10ok_or_elseNtNtCs4xw9YKG6Q6g_7autocfg5error5ErrorNCNvMNtB11_7versionNtB1E_7Version12from_commands_0EB11_, symObjAddr: 0x858, symBinAddr: 0x100003CFC, symSize: 0x80 }
  - { offset: 0x11F27, size: 0x8, addend: 0x0, symName: __RINvMNtCsaNl6UpbT7bw_4core6optionINtB3_6OptionReE11map_or_elseNtNtCsiTraAjBDcu4_5alloc6string6StringNCNvNtB12_3fmt6format0NvYeNtNtB12_6borrow7ToOwned8to_ownedECs4xw9YKG6Q6g_7autocfg, symObjAddr: 0x8D8, symBinAddr: 0x100003D7C, symSize: 0xCC }
  - { offset: 0x11FB7, size: 0x8, addend: 0x0, symName: __RINvMNtCsaNl6UpbT7bw_4core6optionINtB3_6OptionReE3mapbNCNCNCNvCs4xw9YKG6Q6g_7autocfg19dir_contains_target00s_0EBY_, symObjAddr: 0x9A4, symBinAddr: 0x100003E48, symSize: 0x6C }
  - { offset: 0x1202F, size: 0x8, addend: 0x0, symName: __RINvMNtCsaNl6UpbT7bw_4core6optionINtB3_6OptionReE8and_thenbNCNCNvCs4xw9YKG6Q6g_7autocfg19dir_contains_target00EB11_, symObjAddr: 0xA10, symBinAddr: 0x100003EB4, symSize: 0x84 }
  - { offset: 0x1210B, size: 0x8, addend: 0x0, symName: __RINvMsx_NtNtCsaNl6UpbT7bw_4core3str7patternNtB6_14TwoWaySearcher4nextNtB6_14RejectAndMatchECs4xw9YKG6Q6g_7autocfg, symObjAddr: 0xA94, symBinAddr: 0x100003F38, symSize: 0x540 }
  - { offset: 0x12489, size: 0x8, addend: 0x0, symName: __RINvMsx_NtNtCsaNl6UpbT7bw_4core3str7patternNtB6_14TwoWaySearcher4nextNtB6_9MatchOnlyECs4xw9YKG6Q6g_7autocfg, symObjAddr: 0xFD4, symBinAddr: 0x100004478, symSize: 0x540 }
  - { offset: 0x12875, size: 0x8, addend: 0x0, symName: __RNvMNtCsaNl6UpbT7bw_4core6optionINtB2_6OptionNtNtCsht3nMU9UgFu_3std4path7PathBufE4iterCs4xw9YKG6Q6g_7autocfg, symObjAddr: 0x1700, symBinAddr: 0x100004BA4, symSize: 0x50 }
  - { offset: 0x128E2, size: 0x8, addend: 0x0, symName: __RNvMNtCsaNl6UpbT7bw_4core6optionINtB2_6OptionNtNtCsht3nMU9UgFu_3std7process10ChildStdinE4takeCs4xw9YKG6Q6g_7autocfg, symObjAddr: 0x1750, symBinAddr: 0x100004BF4, symSize: 0x2C }
  - { offset: 0x1292C, size: 0x8, addend: 0x0, symName: __RNvMNtCsaNl6UpbT7bw_4core6optionINtB2_6OptionNtNtCsht3nMU9UgFu_3std7process10ChildStdinE6expectCs4xw9YKG6Q6g_7autocfg, symObjAddr: 0x177C, symBinAddr: 0x100004C20, symSize: 0x5C }
  - { offset: 0x12981, size: 0x8, addend: 0x0, symName: __RNvMNtCsaNl6UpbT7bw_4core6optionINtB2_6OptionNtNtCsiTraAjBDcu4_5alloc6string6StringE6as_refCs4xw9YKG6Q6g_7autocfg, symObjAddr: 0x17D8, symBinAddr: 0x100004C7C, symSize: 0x50 }
  - { offset: 0x129D8, size: 0x8, addend: 0x0, symName: __RNvMNtCsaNl6UpbT7bw_4core6optionINtB2_6OptionNtNtNtCsht3nMU9UgFu_3std3ffi6os_str8OsStringE6as_refCs4xw9YKG6Q6g_7autocfg, symObjAddr: 0x1828, symBinAddr: 0x100004CCC, symSize: 0x50 }
  - { offset: 0x12A3E, size: 0x8, addend: 0x0, symName: __RNvMNtCsaNl6UpbT7bw_4core6optionINtB2_6OptionNtNtNtCsht3nMU9UgFu_3std3ffi6os_str8OsStringE7is_noneCs4xw9YKG6Q6g_7autocfg, symObjAddr: 0x1878, symBinAddr: 0x100004D1C, symSize: 0x2C }
  - { offset: 0x12A88, size: 0x8, addend: 0x0, symName: __RNvMNtCsaNl6UpbT7bw_4core6optionINtB2_6OptionbE9unwrap_orCs4xw9YKG6Q6g_7autocfg, symObjAddr: 0x18A4, symBinAddr: 0x100004D48, symSize: 0x5C }
  - { offset: 0x12B88, size: 0x8, addend: 0x0, symName: __RNvMs2_NtCsiTraAjBDcu4_5alloc7raw_vecNtB5_11RawVecInner16with_capacity_inCs4xw9YKG6Q6g_7autocfg, symObjAddr: 0x1900, symBinAddr: 0x100004DA4, symSize: 0x110 }
  - { offset: 0x12FE1, size: 0x8, addend: 0x0, symName: __RNvMCs4xw9YKG6Q6g_7autocfgNtB2_7AutoCfg3new, symObjAddr: 0x3AB4, symBinAddr: 0x100006EF0, symSize: 0xC8 }
  - { offset: 0x13012, size: 0x8, addend: 0x0, symName: __RINvMCs4xw9YKG6Q6g_7autocfgNtB3_7AutoCfg8with_dirNtNtNtCsht3nMU9UgFu_3std3ffi6os_str8OsStringEB3_, symObjAddr: 0x3B7C, symBinAddr: 0x100006FB8, symSize: 0x6C8 }
  - { offset: 0x1313B, size: 0x8, addend: 0x0, symName: __RNvMCs4xw9YKG6Q6g_7autocfgNtB2_7AutoCfg14new_crate_name, symObjAddr: 0x458C, symBinAddr: 0x100007680, symSize: 0xE0 }
  - { offset: 0x131D8, size: 0x8, addend: 0x0, symName: __RNvMCs4xw9YKG6Q6g_7autocfgNtB2_7AutoCfg9probe_fmt, symObjAddr: 0x466C, symBinAddr: 0x100007760, symSize: 0x71C }
  - { offset: 0x13349, size: 0x8, addend: 0x0, symName: __RNvMCs4xw9YKG6Q6g_7autocfgNtB2_7AutoCfg5probe, symObjAddr: 0x4D88, symBinAddr: 0x100007E7C, symSize: 0x108 }
  - { offset: 0x133B9, size: 0x8, addend: 0x0, symName: __RNvMCs4xw9YKG6Q6g_7autocfgNtB2_7AutoCfg9probe_raw, symObjAddr: 0x4E90, symBinAddr: 0x100007F84, symSize: 0x7C }
  - { offset: 0x13409, size: 0x8, addend: 0x0, symName: __RNvMCs4xw9YKG6Q6g_7autocfgNtB2_7AutoCfg16probe_expression, symObjAddr: 0x580C, symBinAddr: 0x100008000, symSize: 0x74 }
  - { offset: 0x13459, size: 0x8, addend: 0x0, symName: __RNvMCs4xw9YKG6Q6g_7autocfgNtB2_7AutoCfg19emit_expression_cfg, symObjAddr: 0x5880, symBinAddr: 0x100008074, symSize: 0xA8 }
  - { offset: 0x13B69, size: 0x8, addend: 0x0, symName: __RINvMs_NtNtCsaNl6UpbT7bw_4core3fmt2rtNtB7_9Arguments6new_v1Kj1_KBW_ECs4xw9YKG6Q6g_7autocfg, symObjAddr: 0x0, symBinAddr: 0x100008974, symSize: 0x50 }
  - { offset: 0x13F5D, size: 0x8, addend: 0x0, symName: __RINvNtCsaNl6UpbT7bw_4core3ptr13drop_in_placeINtNtB4_6option6OptionINtNtCsiTraAjBDcu4_5alloc5boxed3BoxSmEEECs4xw9YKG6Q6g_7autocfg, symObjAddr: 0x774, symBinAddr: 0x100009008, symSize: 0x44 }
  - { offset: 0x13F8C, size: 0x8, addend: 0x0, symName: __RINvNtCsaNl6UpbT7bw_4core3ptr13drop_in_placeINtNtB4_6option6OptionNtNtCsht3nMU9UgFu_3std4path7PathBufEECs4xw9YKG6Q6g_7autocfg, symObjAddr: 0x7B8, symBinAddr: 0x10000904C, symSize: 0x48 }
  - { offset: 0x13FBB, size: 0x8, addend: 0x0, symName: __RINvNtCsaNl6UpbT7bw_4core3ptr13drop_in_placeINtNtB4_6option6OptionNtNtCsht3nMU9UgFu_3std7process10ChildStdinEECs4xw9YKG6Q6g_7autocfg, symObjAddr: 0x800, symBinAddr: 0x100009094, symSize: 0x44 }
  - { offset: 0x13FEA, size: 0x8, addend: 0x0, symName: __RINvNtCsaNl6UpbT7bw_4core3ptr13drop_in_placeINtNtB4_6option6OptionNtNtCsht3nMU9UgFu_3std7process11ChildStderrEECs4xw9YKG6Q6g_7autocfg, symObjAddr: 0x844, symBinAddr: 0x1000090D8, symSize: 0x44 }
  - { offset: 0x14019, size: 0x8, addend: 0x0, symName: __RINvNtCsaNl6UpbT7bw_4core3ptr13drop_in_placeINtNtB4_6option6OptionNtNtCsht3nMU9UgFu_3std7process11ChildStdoutEECs4xw9YKG6Q6g_7autocfg, symObjAddr: 0x888, symBinAddr: 0x10000911C, symSize: 0x44 }
  - { offset: 0x14048, size: 0x8, addend: 0x0, symName: __RINvNtCsaNl6UpbT7bw_4core3ptr13drop_in_placeINtNtB4_6option6OptionNtNtCsiTraAjBDcu4_5alloc6string6StringEECs4xw9YKG6Q6g_7autocfg, symObjAddr: 0x8CC, symBinAddr: 0x100009160, symSize: 0x48 }
  - { offset: 0x14077, size: 0x8, addend: 0x0, symName: __RINvNtCsaNl6UpbT7bw_4core3ptr13drop_in_placeINtNtB4_6option6OptionNtNtNtCsht3nMU9UgFu_3std3ffi6os_str8OsStringEECs4xw9YKG6Q6g_7autocfg, symObjAddr: 0x914, symBinAddr: 0x1000091A8, symSize: 0x48 }
  - { offset: 0x140A6, size: 0x8, addend: 0x0, symName: __RINvNtCsaNl6UpbT7bw_4core3ptr13drop_in_placeINtNtB4_6option6OptionNtNtNtCsiTraAjBDcu4_5alloc3ffi5c_str7CStringEECs4xw9YKG6Q6g_7autocfg, symObjAddr: 0x95C, symBinAddr: 0x1000091F0, symSize: 0x44 }
  - { offset: 0x140D5, size: 0x8, addend: 0x0, symName: __RINvNtCsaNl6UpbT7bw_4core3ptr13drop_in_placeINtNtB4_6option6OptionNtNtNtNtNtCsht3nMU9UgFu_3std3sys7process4unix6common5StdioEECs4xw9YKG6Q6g_7autocfg, symObjAddr: 0x9A0, symBinAddr: 0x100009234, symSize: 0x44 }
  - { offset: 0x14104, size: 0x8, addend: 0x0, symName: __RINvNtCsaNl6UpbT7bw_4core3ptr13drop_in_placeINtNtB4_6result6ResultNtNtCs4xw9YKG6Q6g_7autocfg7version7VersionNtNtB16_5error5ErrorEEB16_, symObjAddr: 0x9E4, symBinAddr: 0x100009278, symSize: 0x40 }
  - { offset: 0x14133, size: 0x8, addend: 0x0, symName: __RINvNtCsaNl6UpbT7bw_4core3ptr13drop_in_placeINtNtB4_6result6ResultNtNtCsiTraAjBDcu4_5alloc6string6StringNtNtCsht3nMU9UgFu_3std3env8VarErrorEECs4xw9YKG6Q6g_7autocfg, symObjAddr: 0xA24, symBinAddr: 0x1000092B8, symSize: 0x50 }
  - { offset: 0x14162, size: 0x8, addend: 0x0, symName: __RINvNtCsaNl6UpbT7bw_4core3ptr13drop_in_placeINtNtB4_6result6ResultuNtNtCs4xw9YKG6Q6g_7autocfg5error5ErrorEEB17_, symObjAddr: 0xA74, symBinAddr: 0x100009308, symSize: 0x44 }
  - { offset: 0x14191, size: 0x8, addend: 0x0, symName: __RINvNtCsaNl6UpbT7bw_4core3ptr13drop_in_placeINtNtB4_6result6ResultuNtNtNtCsht3nMU9UgFu_3std2io5error5ErrorEECs4xw9YKG6Q6g_7autocfg, symObjAddr: 0xAB8, symBinAddr: 0x10000934C, symSize: 0x44 }
  - { offset: 0x141C0, size: 0x8, addend: 0x0, symName: __RINvNtCsaNl6UpbT7bw_4core3ptr13drop_in_placeINtNtCsg4dki62PTrg_9hashbrown10scopeguard10ScopeGuardNtNtBL_3raw13RawTableInnerNCINvMsa_B1z_B1x_14prepare_resizeNtNtCsiTraAjBDcu4_5alloc5alloc6GlobalE0EECs4xw9YKG6Q6g_7autocfg, symObjAddr: 0xAFC, symBinAddr: 0x100009390, symSize: 0x24 }
  - { offset: 0x141EF, size: 0x8, addend: 0x0, symName: __RINvNtCsaNl6UpbT7bw_4core3ptr13drop_in_placeINtNtCsg4dki62PTrg_9hashbrown10scopeguard10ScopeGuardQNtNtBL_3raw13RawTableInnerNCNvMsa_B1A_B1y_15rehash_in_place0EECs4xw9YKG6Q6g_7autocfg, symObjAddr: 0xB20, symBinAddr: 0x1000093B4, symSize: 0x24 }
  - { offset: 0x1421E, size: 0x8, addend: 0x0, symName: __RINvNtCsaNl6UpbT7bw_4core3ptr13drop_in_placeINtNtCsg4dki62PTrg_9hashbrown3map7HashMapyuNtNtNtCsht3nMU9UgFu_3std4hash6random11RandomStateEECs4xw9YKG6Q6g_7autocfg, symObjAddr: 0xB44, symBinAddr: 0x1000093D8, symSize: 0x24 }
  - { offset: 0x1424D, size: 0x8, addend: 0x0, symName: __RINvNtCsaNl6UpbT7bw_4core3ptr13drop_in_placeINtNtCsg4dki62PTrg_9hashbrown3map8IntoIteryuEECs4xw9YKG6Q6g_7autocfg, symObjAddr: 0xB68, symBinAddr: 0x1000093FC, symSize: 0x24 }
  - { offset: 0x1427C, size: 0x8, addend: 0x0, symName: __RINvNtCsaNl6UpbT7bw_4core3ptr13drop_in_placeINtNtCsg4dki62PTrg_9hashbrown3raw11RawIntoIterTyuEEECs4xw9YKG6Q6g_7autocfg, symObjAddr: 0xB8C, symBinAddr: 0x100009420, symSize: 0x24 }
  - { offset: 0x142AB, size: 0x8, addend: 0x0, symName: __RINvNtCsaNl6UpbT7bw_4core3ptr13drop_in_placeINtNtCsg4dki62PTrg_9hashbrown3raw8RawTableTyuEEECs4xw9YKG6Q6g_7autocfg, symObjAddr: 0xBB0, symBinAddr: 0x100009444, symSize: 0x24 }
  - { offset: 0x142DA, size: 0x8, addend: 0x0, symName: __RINvNtCsaNl6UpbT7bw_4core3ptr13drop_in_placeINtNtCsg4dki62PTrg_9hashbrown3set7HashSetyNtNtNtCsht3nMU9UgFu_3std4hash6random11RandomStateEECs4xw9YKG6Q6g_7autocfg, symObjAddr: 0xBD4, symBinAddr: 0x100009468, symSize: 0x24 }
  - { offset: 0x14309, size: 0x8, addend: 0x0, symName: __RINvNtCsaNl6UpbT7bw_4core3ptr13drop_in_placeINtNtCsg4dki62PTrg_9hashbrown3set8IntoIteryEECs4xw9YKG6Q6g_7autocfg, symObjAddr: 0xBF8, symBinAddr: 0x10000948C, symSize: 0x24 }
  - { offset: 0x14338, size: 0x8, addend: 0x0, symName: __RINvNtCsaNl6UpbT7bw_4core3ptr13drop_in_placeINtNtCsiTraAjBDcu4_5alloc3vec3VecINtNtBL_5boxed3BoxDINtNtNtB4_3ops8function5FnMutuEp6OutputINtNtB4_6result6ResultuNtNtNtCsht3nMU9UgFu_3std2io5error5ErrorENtNtB4_6marker4SyncNtB3c_4SendEL_EEECs4xw9YKG6Q6g_7autocfg, symObjAddr: 0xC1C, symBinAddr: 0x1000094B0, symSize: 0x5C }
  - { offset: 0x14367, size: 0x8, addend: 0x0, symName: __RINvNtCsaNl6UpbT7bw_4core3ptr13drop_in_placeINtNtCsiTraAjBDcu4_5alloc3vec3VecNtNtBL_6string6StringEECs4xw9YKG6Q6g_7autocfg, symObjAddr: 0xC78, symBinAddr: 0x10000950C, symSize: 0x5C }
  - { offset: 0x14396, size: 0x8, addend: 0x0, symName: __RINvNtCsaNl6UpbT7bw_4core3ptr13drop_in_placeINtNtCsiTraAjBDcu4_5alloc3vec3VecPaEECs4xw9YKG6Q6g_7autocfg, symObjAddr: 0xCD4, symBinAddr: 0x100009568, symSize: 0x5C }
  - { offset: 0x143C5, size: 0x8, addend: 0x0, symName: __RINvNtCsaNl6UpbT7bw_4core3ptr13drop_in_placeINtNtCsiTraAjBDcu4_5alloc3vec3VechEECs4xw9YKG6Q6g_7autocfg, symObjAddr: 0xD30, symBinAddr: 0x1000095C4, symSize: 0x5C }
  - { offset: 0x143F4, size: 0x8, addend: 0x0, symName: __RINvNtCsaNl6UpbT7bw_4core3ptr13drop_in_placeINtNtCsiTraAjBDcu4_5alloc5boxed3BoxDINtNtNtB4_3ops8function5FnMutuEp6OutputINtNtB4_6result6ResultuNtNtNtCsht3nMU9UgFu_3std2io5error5ErrorENtNtB4_6marker4SyncNtB2W_4SendEL_EECs4xw9YKG6Q6g_7autocfg, symObjAddr: 0xD8C, symBinAddr: 0x100009620, symSize: 0x80 }
  - { offset: 0x14423, size: 0x8, addend: 0x0, symName: __RINvNtCsaNl6UpbT7bw_4core3ptr13drop_in_placeINtNtCsiTraAjBDcu4_5alloc5boxed3BoxDNtNtB4_5error5ErrorNtNtB4_6marker4SyncNtB1B_4SendEL_EECs4xw9YKG6Q6g_7autocfg, symObjAddr: 0xE0C, symBinAddr: 0x1000096A0, symSize: 0x80 }
  - { offset: 0x14452, size: 0x8, addend: 0x0, symName: __RINvNtCsaNl6UpbT7bw_4core3ptr13drop_in_placeINtNtCsiTraAjBDcu4_5alloc5boxed3BoxNtNtNtCsht3nMU9UgFu_3std2io5error6CustomEECs4xw9YKG6Q6g_7autocfg, symObjAddr: 0xE8C, symBinAddr: 0x100009720, symSize: 0x60 }
  - { offset: 0x14481, size: 0x8, addend: 0x0, symName: __RINvNtCsaNl6UpbT7bw_4core3ptr13drop_in_placeINtNtCsiTraAjBDcu4_5alloc5boxed3BoxShEECs4xw9YKG6Q6g_7autocfg, symObjAddr: 0xEEC, symBinAddr: 0x100009780, symSize: 0x2C }
  - { offset: 0x144B0, size: 0x8, addend: 0x0, symName: __RINvNtCsaNl6UpbT7bw_4core3ptr13drop_in_placeINtNtCsiTraAjBDcu4_5alloc5boxed3BoxSmEECs4xw9YKG6Q6g_7autocfg, symObjAddr: 0xF18, symBinAddr: 0x1000097AC, symSize: 0x2C }
  - { offset: 0x144DF, size: 0x8, addend: 0x0, symName: __RINvNtCsaNl6UpbT7bw_4core3ptr13drop_in_placeINtNtCsiTraAjBDcu4_5alloc7raw_vec6RawVecINtNtBL_5boxed3BoxDINtNtNtB4_3ops8function5FnMutuEp6OutputINtNtB4_6result6ResultuNtNtNtCsht3nMU9UgFu_3std2io5error5ErrorENtNtB4_6marker4SyncNtB3j_4SendEL_EEECs4xw9YKG6Q6g_7autocfg, symObjAddr: 0xF44, symBinAddr: 0x1000097D8, symSize: 0x24 }
  - { offset: 0x1450E, size: 0x8, addend: 0x0, symName: __RINvNtCsaNl6UpbT7bw_4core3ptr13drop_in_placeINtNtCsiTraAjBDcu4_5alloc7raw_vec6RawVecNtNtBL_6string6StringEECs4xw9YKG6Q6g_7autocfg, symObjAddr: 0xF68, symBinAddr: 0x1000097FC, symSize: 0x24 }
  - { offset: 0x1453D, size: 0x8, addend: 0x0, symName: __RINvNtCsaNl6UpbT7bw_4core3ptr13drop_in_placeINtNtCsiTraAjBDcu4_5alloc7raw_vec6RawVecPaEECs4xw9YKG6Q6g_7autocfg, symObjAddr: 0xF8C, symBinAddr: 0x100009820, symSize: 0x24 }
  - { offset: 0x1456C, size: 0x8, addend: 0x0, symName: __RINvNtCsaNl6UpbT7bw_4core3ptr13drop_in_placeINtNtCsiTraAjBDcu4_5alloc7raw_vec6RawVechEECs4xw9YKG6Q6g_7autocfg, symObjAddr: 0xFB0, symBinAddr: 0x100009844, symSize: 0x24 }
  - { offset: 0x1459B, size: 0x8, addend: 0x0, symName: __RINvNtCsaNl6UpbT7bw_4core3ptr13drop_in_placeINtNtNtCsht3nMU9UgFu_3std2io5error9ErrorDataINtNtCsiTraAjBDcu4_5alloc5boxed3BoxNtBJ_6CustomEEECs4xw9YKG6Q6g_7autocfg, symObjAddr: 0xFD4, symBinAddr: 0x100009868, symSize: 0x48 }
  - { offset: 0x145CA, size: 0x8, addend: 0x0, symName: __RINvNtCsaNl6UpbT7bw_4core3ptr13drop_in_placeINtNtNtNtCsht3nMU9UgFu_3std11collections4hash3set7HashSetyEECs4xw9YKG6Q6g_7autocfg, symObjAddr: 0x101C, symBinAddr: 0x1000098B0, symSize: 0x24 }
  - { offset: 0x145F9, size: 0x8, addend: 0x0, symName: __RINvNtCsaNl6UpbT7bw_4core3ptr13drop_in_placeINtNtNtNtCsht3nMU9UgFu_3std11collections4hash3set8IntoIteryEECs4xw9YKG6Q6g_7autocfg, symObjAddr: 0x1040, symBinAddr: 0x1000098D4, symSize: 0x24 }
  - { offset: 0x14628, size: 0x8, addend: 0x0, symName: __RINvNtCsaNl6UpbT7bw_4core3ptr13drop_in_placeINtNtNtNtCsiTraAjBDcu4_5alloc11collections5btree3map8BTreeMapNtNtNtCsht3nMU9UgFu_3std3ffi6os_str8OsStringINtNtB4_6option6OptionB1F_EEECs4xw9YKG6Q6g_7autocfg, symObjAddr: 0x1064, symBinAddr: 0x1000098F8, symSize: 0x24 }
  - { offset: 0x14657, size: 0x8, addend: 0x0, symName: __RINvNtCsaNl6UpbT7bw_4core3ptr13drop_in_placeINtNtNtNtCsiTraAjBDcu4_5alloc11collections5btree3map8IntoIterNtNtNtCsht3nMU9UgFu_3std3ffi6os_str8OsStringINtNtB4_6option6OptionB1F_EEECs4xw9YKG6Q6g_7autocfg, symObjAddr: 0x1088, symBinAddr: 0x10000991C, symSize: 0x24 }
  - { offset: 0x14686, size: 0x8, addend: 0x0, symName: __RINvNtCsaNl6UpbT7bw_4core3ptr13drop_in_placeINtNvMsT_NtNtNtCsiTraAjBDcu4_5alloc11collections5btree4nodeINtBP_6HandleINtBP_7NodeRefNtNtBP_6marker5DyingpppENtB26_2KVE12drop_key_val7DropperINtNtB4_6option6OptionNtNtNtCsht3nMU9UgFu_3std3ffi6os_str8OsStringEEECs4xw9YKG6Q6g_7autocfg, symObjAddr: 0x10AC, symBinAddr: 0x100009940, symSize: 0x24 }
  - { offset: 0x146B5, size: 0x8, addend: 0x0, symName: __RINvNtCsaNl6UpbT7bw_4core3ptr13drop_in_placeINtNvNtCsht3nMU9UgFu_3std2io17default_write_fmt7AdapterNtNtBN_7process10ChildStdinEECs4xw9YKG6Q6g_7autocfg, symObjAddr: 0x10D0, symBinAddr: 0x100009964, symSize: 0x24 }
  - { offset: 0x146E4, size: 0x8, addend: 0x0, symName: __RINvNtCsaNl6UpbT7bw_4core3ptr13drop_in_placeINtNvNtCsht3nMU9UgFu_3std2io17default_write_fmt7AdapterNtNtNtNtBN_3sys5stdio4unix6StderrEECs4xw9YKG6Q6g_7autocfg, symObjAddr: 0x10F4, symBinAddr: 0x100009988, symSize: 0x24 }
  - { offset: 0x14713, size: 0x8, addend: 0x0, symName: __RINvNtCsaNl6UpbT7bw_4core3ptr13drop_in_placeINtNvXsw_NtNtNtCsiTraAjBDcu4_5alloc11collections5btree3mapINtBP_8IntoIterpppENtNtNtB4_3ops4drop4Drop4drop9DropGuardNtNtNtCsht3nMU9UgFu_3std3ffi6os_str8OsStringINtNtB4_6option6OptionB2x_ENtNtBV_5alloc6GlobalEECs4xw9YKG6Q6g_7autocfg, symObjAddr: 0x1118, symBinAddr: 0x1000099AC, symSize: 0x24 }
  - { offset: 0x14742, size: 0x8, addend: 0x0, symName: __RINvNtCsaNl6UpbT7bw_4core3ptr13drop_in_placeNCNCNvCs4xw9YKG6Q6g_7autocfg19dir_contains_target00EBM_, symObjAddr: 0x113C, symBinAddr: 0x1000099D0, symSize: 0x24 }
  - { offset: 0x14771, size: 0x8, addend: 0x0, symName: __RINvNtCsaNl6UpbT7bw_4core3ptr13drop_in_placeNCNvCs4xw9YKG6Q6g_7autocfg19dir_contains_target0EBK_, symObjAddr: 0x1160, symBinAddr: 0x1000099F4, symSize: 0x24 }
  - { offset: 0x147A0, size: 0x8, addend: 0x0, symName: __RINvNtCsaNl6UpbT7bw_4core3ptr13drop_in_placeNtCs4xw9YKG6Q6g_7autocfg7AutoCfgEBI_, symObjAddr: 0x1184, symBinAddr: 0x100009A18, symSize: 0xF0 }
  - { offset: 0x147CF, size: 0x8, addend: 0x0, symName: __RINvNtCsaNl6UpbT7bw_4core3ptr13drop_in_placeNtNtCs4xw9YKG6Q6g_7autocfg5error5ErrorEBK_, symObjAddr: 0x1274, symBinAddr: 0x100009B08, symSize: 0x24 }
  - { offset: 0x147FE, size: 0x8, addend: 0x0, symName: __RINvNtCsaNl6UpbT7bw_4core3ptr13drop_in_placeNtNtCs4xw9YKG6Q6g_7autocfg5error9ErrorKindEBK_, symObjAddr: 0x1298, symBinAddr: 0x100009B2C, symSize: 0x40 }
  - { offset: 0x1482D, size: 0x8, addend: 0x0, symName: __RINvNtCsaNl6UpbT7bw_4core3ptr13drop_in_placeNtNtCs4xw9YKG6Q6g_7autocfg5rustc5RustcEBK_, symObjAddr: 0x12D8, symBinAddr: 0x100009B6C, symSize: 0x90 }
  - { offset: 0x1485C, size: 0x8, addend: 0x0, symName: __RINvNtCsaNl6UpbT7bw_4core3ptr13drop_in_placeNtNtCsht3nMU9UgFu_3std3env8VarErrorECs4xw9YKG6Q6g_7autocfg, symObjAddr: 0x1368, symBinAddr: 0x100009BFC, symSize: 0x48 }
  - { offset: 0x1488B, size: 0x8, addend: 0x0, symName: __RINvNtCsaNl6UpbT7bw_4core3ptr13drop_in_placeNtNtCsht3nMU9UgFu_3std4path7PathBufECs4xw9YKG6Q6g_7autocfg, symObjAddr: 0x13B0, symBinAddr: 0x100009C44, symSize: 0x24 }
  - { offset: 0x148BA, size: 0x8, addend: 0x0, symName: __RINvNtCsaNl6UpbT7bw_4core3ptr13drop_in_placeNtNtCsht3nMU9UgFu_3std7process10ChildStdinECs4xw9YKG6Q6g_7autocfg, symObjAddr: 0x13D4, symBinAddr: 0x100009C68, symSize: 0x24 }
  - { offset: 0x148E9, size: 0x8, addend: 0x0, symName: __RINvNtCsaNl6UpbT7bw_4core3ptr13drop_in_placeNtNtCsht3nMU9UgFu_3std7process11ChildStderrECs4xw9YKG6Q6g_7autocfg, symObjAddr: 0x13F8, symBinAddr: 0x100009C8C, symSize: 0x24 }
  - { offset: 0x14918, size: 0x8, addend: 0x0, symName: __RINvNtCsaNl6UpbT7bw_4core3ptr13drop_in_placeNtNtCsht3nMU9UgFu_3std7process11ChildStdoutECs4xw9YKG6Q6g_7autocfg, symObjAddr: 0x141C, symBinAddr: 0x100009CB0, symSize: 0x24 }
  - { offset: 0x14947, size: 0x8, addend: 0x0, symName: __RINvNtCsaNl6UpbT7bw_4core3ptr13drop_in_placeNtNtCsht3nMU9UgFu_3std7process5ChildECs4xw9YKG6Q6g_7autocfg, symObjAddr: 0x1440, symBinAddr: 0x100009CD4, symSize: 0x94 }
  - { offset: 0x14976, size: 0x8, addend: 0x0, symName: __RINvNtCsaNl6UpbT7bw_4core3ptr13drop_in_placeNtNtCsht3nMU9UgFu_3std7process6OutputECs4xw9YKG6Q6g_7autocfg, symObjAddr: 0x14D4, symBinAddr: 0x100009D68, symSize: 0x60 }
  - { offset: 0x149A5, size: 0x8, addend: 0x0, symName: __RINvNtCsaNl6UpbT7bw_4core3ptr13drop_in_placeNtNtCsht3nMU9UgFu_3std7process7CommandECs4xw9YKG6Q6g_7autocfg, symObjAddr: 0x1534, symBinAddr: 0x100009DC8, symSize: 0x24 }
  - { offset: 0x149D4, size: 0x8, addend: 0x0, symName: __RINvNtCsaNl6UpbT7bw_4core3ptr13drop_in_placeNtNtCsiTraAjBDcu4_5alloc6string6StringECs4xw9YKG6Q6g_7autocfg, symObjAddr: 0x1558, symBinAddr: 0x100009DEC, symSize: 0x24 }
  - { offset: 0x14A03, size: 0x8, addend: 0x0, symName: __RINvNtCsaNl6UpbT7bw_4core3ptr13drop_in_placeNtNtNtCsht3nMU9UgFu_3std2io5error5ErrorECs4xw9YKG6Q6g_7autocfg, symObjAddr: 0x157C, symBinAddr: 0x100009E10, symSize: 0x24 }
  - { offset: 0x14A32, size: 0x8, addend: 0x0, symName: __RINvNtCsaNl6UpbT7bw_4core3ptr13drop_in_placeNtNtNtCsht3nMU9UgFu_3std2io5error6CustomECs4xw9YKG6Q6g_7autocfg, symObjAddr: 0x15A0, symBinAddr: 0x100009E34, symSize: 0x24 }
  - { offset: 0x14A61, size: 0x8, addend: 0x0, symName: __RINvNtCsaNl6UpbT7bw_4core3ptr13drop_in_placeNtNtNtCsht3nMU9UgFu_3std3ffi6os_str8OsStringECs4xw9YKG6Q6g_7autocfg, symObjAddr: 0x15C4, symBinAddr: 0x100009E58, symSize: 0x24 }
  - { offset: 0x14A90, size: 0x8, addend: 0x0, symName: __RINvNtCsaNl6UpbT7bw_4core3ptr13drop_in_placeNtNtNtCsiTraAjBDcu4_5alloc3ffi5c_str7CStringECs4xw9YKG6Q6g_7autocfg, symObjAddr: 0x15E8, symBinAddr: 0x100009E7C, symSize: 0x5C }
  - { offset: 0x14ABF, size: 0x8, addend: 0x0, symName: __RINvNtCsaNl6UpbT7bw_4core3ptr13drop_in_placeNtNtNtNtCsht3nMU9UgFu_3std2io5error14repr_bitpacked4ReprECs4xw9YKG6Q6g_7autocfg, symObjAddr: 0x1644, symBinAddr: 0x100009ED8, symSize: 0x24 }
  - { offset: 0x14AEE, size: 0x8, addend: 0x0, symName: __RINvNtCsaNl6UpbT7bw_4core3ptr13drop_in_placeNtNtNtNtCsht3nMU9UgFu_3std2os2fd5owned7OwnedFdECs4xw9YKG6Q6g_7autocfg, symObjAddr: 0x1668, symBinAddr: 0x100009EFC, symSize: 0x24 }
  - { offset: 0x14B1D, size: 0x8, addend: 0x0, symName: __RINvNtCsaNl6UpbT7bw_4core3ptr13drop_in_placeNtNtNtNtCsht3nMU9UgFu_3std3sys2fd4unix8FileDescECs4xw9YKG6Q6g_7autocfg, symObjAddr: 0x168C, symBinAddr: 0x100009F20, symSize: 0x24 }
  - { offset: 0x14B4C, size: 0x8, addend: 0x0, symName: __RINvNtCsaNl6UpbT7bw_4core3ptr13drop_in_placeNtNtNtNtCsht3nMU9UgFu_3std3sys6os_str5bytes3BufECs4xw9YKG6Q6g_7autocfg, symObjAddr: 0x16B0, symBinAddr: 0x100009F44, symSize: 0x24 }
  - { offset: 0x14B7B, size: 0x8, addend: 0x0, symName: __RINvNtCsaNl6UpbT7bw_4core3ptr13drop_in_placeNtNtNtNtCsht3nMU9UgFu_3std3sys7process3env10CommandEnvECs4xw9YKG6Q6g_7autocfg, symObjAddr: 0x16D4, symBinAddr: 0x100009F68, symSize: 0x24 }
  - { offset: 0x14BAA, size: 0x8, addend: 0x0, symName: __RINvNtCsaNl6UpbT7bw_4core3ptr13drop_in_placeNtNtNtNtNtCsht3nMU9UgFu_3std3sys3pal4unix4pipe8AnonPipeECs4xw9YKG6Q6g_7autocfg, symObjAddr: 0x16F8, symBinAddr: 0x100009F8C, symSize: 0x24 }
  - { offset: 0x14BD9, size: 0x8, addend: 0x0, symName: __RINvNtCsaNl6UpbT7bw_4core3ptr13drop_in_placeNtNtNtNtNtCsht3nMU9UgFu_3std3sys7process4unix6common5StdioECs4xw9YKG6Q6g_7autocfg, symObjAddr: 0x171C, symBinAddr: 0x100009FB0, symSize: 0x44 }
  - { offset: 0x14C08, size: 0x8, addend: 0x0, symName: __RINvNtCsaNl6UpbT7bw_4core3ptr13drop_in_placeNtNtNtNtNtCsht3nMU9UgFu_3std3sys7process4unix6common7CommandECs4xw9YKG6Q6g_7autocfg, symObjAddr: 0x1760, symBinAddr: 0x100009FF4, symSize: 0x1DC }
  - { offset: 0x14C37, size: 0x8, addend: 0x0, symName: __RINvNtCsaNl6UpbT7bw_4core3ptr13drop_in_placeNtNtNtNtNtNtCsht3nMU9UgFu_3std3sys7process4unix6common13cstring_array12CStringArrayECs4xw9YKG6Q6g_7autocfg, symObjAddr: 0x193C, symBinAddr: 0x10000A1D0, symSize: 0x5C }
  - { offset: 0x14C66, size: 0x8, addend: 0x0, symName: __RINvNtCsaNl6UpbT7bw_4core3ptr13drop_in_placeNtNvNtNtNtCsiTraAjBDcu4_5alloc11collections5btree3mem7replace10PanicGuardECs4xw9YKG6Q6g_7autocfg, symObjAddr: 0x1998, symBinAddr: 0x10000A22C, symSize: 0x24 }
  - { offset: 0x14C95, size: 0x8, addend: 0x0, symName: __RINvNtCsaNl6UpbT7bw_4core3ptr13drop_in_placeSINtNtCsiTraAjBDcu4_5alloc5boxed3BoxDINtNtNtB4_3ops8function5FnMutuEp6OutputINtNtB4_6result6ResultuNtNtNtCsht3nMU9UgFu_3std2io5error5ErrorENtNtB4_6marker4SyncNtB2X_4SendEL_EECs4xw9YKG6Q6g_7autocfg, symObjAddr: 0x19BC, symBinAddr: 0x10000A250, symSize: 0xB4 }
  - { offset: 0x14CC4, size: 0x8, addend: 0x0, symName: __RINvNtCsaNl6UpbT7bw_4core3ptr13drop_in_placeSNtNtCsiTraAjBDcu4_5alloc6string6StringECs4xw9YKG6Q6g_7autocfg, symObjAddr: 0x1A70, symBinAddr: 0x10000A304, symSize: 0xC4 }
  - { offset: 0x151A2, size: 0x8, addend: 0x0, symName: __RNvXs19_NtCsaNl6UpbT7bw_4core3fmtRReNtB6_5Debug3fmtCs4xw9YKG6Q6g_7autocfg, symObjAddr: 0x351C, symBinAddr: 0x10000BA94, symSize: 0x30 }
  - { offset: 0x151F3, size: 0x8, addend: 0x0, symName: __RNvXs1q_NtNtCsaNl6UpbT7bw_4core3fmt3numjNtB8_5Debug3fmtCs4xw9YKG6Q6g_7autocfg, symObjAddr: 0x35A4, symBinAddr: 0x10000BB1C, symSize: 0x90 }
  - { offset: 0x169F0, size: 0x8, addend: 0x0, symName: __RINvXs0_NtNtNtCsaNl6UpbT7bw_4core4iter8adapters3mapINtB6_3MapINtNtNtBc_3ops5range5RangeyENCINvXs8_NtCsg4dki62PTrg_9hashbrown3setINtB1y_7HashSetyNtNtNtCsht3nMU9UgFu_3std4hash6random11RandomStateEINtNtNtBa_6traits7collect6ExtendyE6extendBX_E0ENtNtB3b_8iterator8Iterator4folduNCINvNvB3R_8for_each4callTyuENCINvXs1i_NtB1A_3mapINtB50_7HashMapyuB2i_EIB37_B4M_E6extendBN_E0E0ECs4xw9YKG6Q6g_7autocfg, symObjAddr: 0x1C00, symBinAddr: 0x10000A494, symSize: 0x2C }
  - { offset: 0x16A61, size: 0x8, addend: 0x0, symName: __RINvXs0_NtNtNtCsaNl6UpbT7bw_4core4iter8adapters3mapINtB6_3MapINtNtNtBc_3str4iter5SplitcENvMB12_e4trimENtNtNtBa_6traits8iterator8Iterator8try_folduNCINvNvB1C_4find5checkReQNCNvCs4xw9YKG6Q6g_7autocfg9rustflags0E0INtNtNtBc_3ops12control_flow11ControlFlowB2G_EEB2N_, symObjAddr: 0x1C2C, symBinAddr: 0x10000A4C0, symSize: 0x38 }
  - { offset: 0x16ADF, size: 0x8, addend: 0x0, symName: __RNvXs0_NtNtNtCsaNl6UpbT7bw_4core4iter8adapters3mapINtB5_3MapINtNtB7_6filter6FilterIBN_INtNtNtBb_3str4iter5SplitcENvMB1r_e4trimENCNvCs4xw9YKG6Q6g_7autocfg9rustflags0ENvYeNtNtCsiTraAjBDcu4_5alloc6string8ToString9to_stringENtNtNtB9_6traits8iterator8Iterator4nextB25_, symObjAddr: 0x3290, symBinAddr: 0x10000B82C, symSize: 0xA4 }
  - { offset: 0x16B77, size: 0x8, addend: 0x0, symName: __RNvXs0_NtNtNtCsaNl6UpbT7bw_4core4iter8adapters3mapINtB5_3MapINtNtB7_6filter6FilterIBN_INtNtNtBb_3str4iter5SplitcENvMB1r_e4trimENCNvCs4xw9YKG6Q6g_7autocfg9rustflags0ENvYeNtNtCsiTraAjBDcu4_5alloc6string8ToString9to_stringENtNtNtB9_6traits8iterator8Iterator9size_hintB25_, symObjAddr: 0x3334, symBinAddr: 0x10000B8D0, symSize: 0x24 }
  - { offset: 0x16BBE, size: 0x8, addend: 0x0, symName: __RNvXs0_NtNtNtCsaNl6UpbT7bw_4core4iter8adapters3mapINtB5_3MapINtNtNtBb_3ops5range5RangeyENCINvXs8_NtCsg4dki62PTrg_9hashbrown3setINtB1x_7HashSetyNtNtNtCsht3nMU9UgFu_3std4hash6random11RandomStateEINtNtNtB9_6traits7collect6ExtendyE6extendBW_E0ENtNtB3a_8iterator8Iterator9size_hintCs4xw9YKG6Q6g_7autocfg, symObjAddr: 0x3358, symBinAddr: 0x10000B8F4, symSize: 0x24 }
  - { offset: 0x16C05, size: 0x8, addend: 0x0, symName: __RNvXs0_NtNtNtCsaNl6UpbT7bw_4core4iter8adapters3mapINtB5_3MapINtNtNtBb_3str4iter14SplitInclusivecENtB11_8LinesMapENtNtNtB9_6traits8iterator8Iterator4nextCs4xw9YKG6Q6g_7autocfg, symObjAddr: 0x337C, symBinAddr: 0x10000B918, symSize: 0x90 }
  - { offset: 0x16C9D, size: 0x8, addend: 0x0, symName: __RNvXs0_NtNtNtCsaNl6UpbT7bw_4core4iter8adapters3mapINtB5_3MapINtNtNtBb_3str4iter5SplitcENvMB11_e4trimENtNtNtB9_6traits8iterator8Iterator9size_hintCs4xw9YKG6Q6g_7autocfg, symObjAddr: 0x340C, symBinAddr: 0x10000B9A8, symSize: 0x24 }
  - { offset: 0x16CE4, size: 0x8, addend: 0x0, symName: __RNvXs0_NtNtNtCsaNl6UpbT7bw_4core4iter8adapters3mapINtB5_3MapINtNtNtBb_3str4iter5SplitcENvYeNtNtCsiTraAjBDcu4_5alloc6string8ToString9to_stringENtNtNtB9_6traits8iterator8Iterator4nextCs4xw9YKG6Q6g_7autocfg, symObjAddr: 0x3430, symBinAddr: 0x10000B9CC, symSize: 0xA4 }
  - { offset: 0x16D7C, size: 0x8, addend: 0x0, symName: __RNvXs0_NtNtNtCsaNl6UpbT7bw_4core4iter8adapters3mapINtB5_3MapINtNtNtBb_3str4iter5SplitcENvYeNtNtCsiTraAjBDcu4_5alloc6string8ToString9to_stringENtNtNtB9_6traits8iterator8Iterator9size_hintCs4xw9YKG6Q6g_7autocfg, symObjAddr: 0x34D4, symBinAddr: 0x10000BA70, symSize: 0x24 }
  - { offset: 0x16DFC, size: 0x8, addend: 0x0, symName: __RNCINvNtNtNtCsaNl6UpbT7bw_4core4iter8adapters3map12map_try_foldReBZ_uINtNtNtBa_3ops12control_flow11ControlFlowBZ_ENvMNtBa_3stre4trimNCINvNvNtNtNtB8_6traits8iterator8Iterator4find5checkBZ_QNCNvCs4xw9YKG6Q6g_7autocfg9rustflags0E0E0B34_, symObjAddr: 0x210C, symBinAddr: 0x10000A8E0, symSize: 0x9C }
  - { offset: 0x16E94, size: 0x8, addend: 0x0, symName: __RNCINvNtNtNtCsaNl6UpbT7bw_4core4iter8adapters3map8map_foldyTyuEuNCINvXs8_NtCsg4dki62PTrg_9hashbrown3setINtB19_7HashSetyNtNtNtCsht3nMU9UgFu_3std4hash6random11RandomStateEINtNtNtB8_6traits7collect6ExtendyE6extendINtNtNtBa_3ops5range5RangeyEE0NCINvNvNtNtB2M_8iterator8Iterator8for_each4callBV_NCINvXs1i_NtB1b_3mapINtB4O_7HashMapyuB1T_EIB2I_BV_E6extendINtB4_3MapB3m_B10_EE0E0E0Cs4xw9YKG6Q6g_7autocfg, symObjAddr: 0x2220, symBinAddr: 0x10000A97C, symSize: 0x78 }
  - { offset: 0x17095, size: 0x8, addend: 0x0, symName: __RINvYINtNtNtNtCsaNl6UpbT7bw_4core4iter8adapters3map3MapINtNtB8_6filter6FilterIB4_INtNtNtBc_3str4iter5SplitcENvMB1m_e4trimENCNvCs4xw9YKG6Q6g_7autocfg9rustflags0ENvYeNtNtCsiTraAjBDcu4_5alloc6string8ToString9to_stringENtNtNtBa_6traits8iterator8Iterator7collectINtNtB2G_3vec3VecNtB2E_6StringEEB20_, symObjAddr: 0x1DEC, symBinAddr: 0x10000A64C, symSize: 0x74 }
  - { offset: 0x1712B, size: 0x8, addend: 0x0, symName: __RINvYINtNtNtNtCsaNl6UpbT7bw_4core4iter8adapters3map3MapINtNtNtBc_3ops5range5RangeyENCINvXs8_NtCsg4dki62PTrg_9hashbrown3setINtB1s_7HashSetyNtNtNtCsht3nMU9UgFu_3std4hash6random11RandomStateEINtNtNtBa_6traits7collect6ExtendyE6extendBR_E0ENtNtB35_8iterator8Iterator8for_eachNCINvXs1i_NtB1u_3mapINtB4u_7HashMapyuB2c_EIB31_TyuEE6extendB3_E0ECs4xw9YKG6Q6g_7autocfg, symObjAddr: 0x1E60, symBinAddr: 0x10000A6C0, symSize: 0x2C }
  - { offset: 0x17176, size: 0x8, addend: 0x0, symName: __RINvYINtNtNtNtCsaNl6UpbT7bw_4core4iter8adapters3map3MapINtNtNtBc_3str4iter5SplitcENvMBW_e4trimENtNtNtBa_6traits8iterator8Iterator4findQNCNvCs4xw9YKG6Q6g_7autocfg9rustflags0EB2d_, symObjAddr: 0x1E8C, symBinAddr: 0x10000A6EC, symSize: 0x8C }
  - { offset: 0x171F1, size: 0x8, addend: 0x0, symName: __RINvYINtNtNtNtCsaNl6UpbT7bw_4core4iter8adapters3map3MapINtNtNtBc_3str4iter5SplitcENvMBW_e4trimENtNtNtBa_6traits8iterator8Iterator6filterNCNvCs4xw9YKG6Q6g_7autocfg9rustflags0EB2e_, symObjAddr: 0x1F18, symBinAddr: 0x10000A778, symSize: 0x30 }
  - { offset: 0x17256, size: 0x8, addend: 0x0, symName: __RINvYINtNtNtNtCsaNl6UpbT7bw_4core4iter8adapters3map3MapINtNtNtBc_3str4iter5SplitcENvYeNtNtCsiTraAjBDcu4_5alloc6string8ToString9to_stringENtNtNtBa_6traits8iterator8Iterator7collectINtNtB1q_3vec3VecNtB1o_6StringEECs4xw9YKG6Q6g_7autocfg, symObjAddr: 0x1F48, symBinAddr: 0x10000A7A8, symSize: 0x74 }
  - { offset: 0x172F6, size: 0x8, addend: 0x0, symName: __RNCINvNvNtNtNtNtCsaNl6UpbT7bw_4core4iter6traits8iterator8Iterator4find5checkReNCNvMNtCs4xw9YKG6Q6g_7autocfg7versionNtB1j_7Version12from_command0E0B1l_, symObjAddr: 0x2298, symBinAddr: 0x10000A9F4, symSize: 0x84 }
  - { offset: 0x17352, size: 0x8, addend: 0x0, symName: __RNCINvNvNtNtNtNtCsaNl6UpbT7bw_4core4iter6traits8iterator8Iterator4find5checkReQNCNvCs4xw9YKG6Q6g_7autocfg9rustflags0E0B1j_, symObjAddr: 0x231C, symBinAddr: 0x10000AA78, symSize: 0x84 }
  - { offset: 0x173CD, size: 0x8, addend: 0x0, symName: __RNCINvNvNtNtNtNtCsaNl6UpbT7bw_4core4iter6traits8iterator8Iterator8for_each4callTyuENCINvXs1i_NtCsg4dki62PTrg_9hashbrown3mapINtB1t_7HashMapyuNtNtNtCsht3nMU9UgFu_3std4hash6random11RandomStateEINtNtBa_7collect6ExtendB1f_E6extendINtNtNtBc_8adapters3map3MapINtNtNtBe_3ops5range5RangeyENCINvXs8_NtB1v_3setINtB4D_7HashSetyB2e_EIB33_yE6extendB42_E0EE0E0Cs4xw9YKG6Q6g_7autocfg, symObjAddr: 0x23A0, symBinAddr: 0x10000AAFC, symSize: 0x28 }
  - { offset: 0x17446, size: 0x8, addend: 0x0, symName: __RNvXNtNtNtCsaNl6UpbT7bw_4core4iter6traits7collectINtNtNtB6_8adapters3map3MapINtNtBQ_6filter6FilterIBM_INtNtNtB8_3str4iter5SplitcENvMB1H_e4trimENCNvCs4xw9YKG6Q6g_7autocfg9rustflags0ENvYeNtNtCsiTraAjBDcu4_5alloc6string8ToString9to_stringENtB2_12IntoIterator9into_iterB2l_, symObjAddr: 0x31D4, symBinAddr: 0x10000B78C, symSize: 0x30 }
  - { offset: 0x1747E, size: 0x8, addend: 0x0, symName: __RNvXNtNtNtCsaNl6UpbT7bw_4core4iter6traits7collectINtNtNtB6_8adapters3map3MapINtNtNtB8_3ops5range5RangeyENCINvXs8_NtCsg4dki62PTrg_9hashbrown3setINtB1N_7HashSetyNtNtNtCsht3nMU9UgFu_3std4hash6random11RandomStateEINtB2_6ExtendyE6extendB1c_E0ENtB2_12IntoIterator9into_iterCs4xw9YKG6Q6g_7autocfg, symObjAddr: 0x3204, symBinAddr: 0x10000B7BC, symSize: 0x14 }
  - { offset: 0x174B5, size: 0x8, addend: 0x0, symName: __RNvXNtNtNtCsaNl6UpbT7bw_4core4iter6traits7collectINtNtNtB6_8adapters3map3MapINtNtNtB8_3str4iter5SplitcENvYeNtNtCsiTraAjBDcu4_5alloc6string8ToString9to_stringENtB2_12IntoIterator9into_iterCs4xw9YKG6Q6g_7autocfg, symObjAddr: 0x3218, symBinAddr: 0x10000B7D0, symSize: 0x30 }
  - { offset: 0x174FA, size: 0x8, addend: 0x0, symName: __RNvXsD_NtNtCsaNl6UpbT7bw_4core4iter5rangeyNtB5_4Step13steps_betweenCs4xw9YKG6Q6g_7autocfg, symObjAddr: 0x3634, symBinAddr: 0x10000BBAC, symSize: 0x9C }
  - { offset: 0x17555, size: 0x8, addend: 0x0, symName: __RNvXsD_NtNtCsaNl6UpbT7bw_4core4iter5rangeyNtB5_4Step17forward_uncheckedCs4xw9YKG6Q6g_7autocfg, symObjAddr: 0x36D0, symBinAddr: 0x10000BC48, symSize: 0x54 }
  - { offset: 0x176F2, size: 0x8, addend: 0x0, symName: __RNSNvYNCINvMs6_NtCsg4dki62PTrg_9hashbrown3rawINtBd_8RawTableTyuEE14reserve_rehashNCINvNtBf_3map11make_hasheryuNtNtNtCsht3nMU9UgFu_3std4hash6random11RandomStateE0E0INtNtNtCsaNl6UpbT7bw_4core3ops8function6FnOnceTQNtBd_13RawTableInnerjEE9call_once6vtableCs4xw9YKG6Q6g_7autocfg, symObjAddr: 0x243C, symBinAddr: 0x10000AB70, symSize: 0x38 }
  - { offset: 0x17736, size: 0x8, addend: 0x0, symName: __RNSNvYNCINvMs6_NtCsg4dki62PTrg_9hashbrown3rawINtBd_8RawTableTyuEE24find_or_find_insert_slotNCINvNtBf_3map14equivalent_keyyyuE0NCINvB1w_11make_hasheryuNtNtNtCsht3nMU9UgFu_3std4hash6random11RandomStateE0E0INtNtNtCsaNl6UpbT7bw_4core3ops8function6FnOnceTjEE9call_once6vtableCs4xw9YKG6Q6g_7autocfg, symObjAddr: 0x2474, symBinAddr: 0x10000ABA8, symSize: 0x38 }
  - { offset: 0x1777A, size: 0x8, addend: 0x0, symName: __RNvYNCINvMs6_NtCsg4dki62PTrg_9hashbrown3rawINtBb_8RawTableTyuEE14reserve_rehashNCINvNtBd_3map11make_hasheryuNtNtNtCsht3nMU9UgFu_3std4hash6random11RandomStateE0E0INtNtNtCsaNl6UpbT7bw_4core3ops8function6FnOnceTQNtBb_13RawTableInnerjEE9call_onceCs4xw9YKG6Q6g_7autocfg, symObjAddr: 0x3790, symBinAddr: 0x10000BD08, symSize: 0x5C }
  - { offset: 0x177BE, size: 0x8, addend: 0x0, symName: __RNvYNCINvMs6_NtCsg4dki62PTrg_9hashbrown3rawINtBb_8RawTableTyuEE24find_or_find_insert_slotNCINvNtBd_3map14equivalent_keyyyuE0NCINvB1u_11make_hasheryuNtNtNtCsht3nMU9UgFu_3std4hash6random11RandomStateE0E0INtNtNtCsaNl6UpbT7bw_4core3ops8function6FnOnceTjEE9call_onceCs4xw9YKG6Q6g_7autocfg, symObjAddr: 0x37EC, symBinAddr: 0x10000BD64, symSize: 0x58 }
  - { offset: 0x17802, size: 0x8, addend: 0x0, symName: __RNvYNCNkNvNvMNtNtCsht3nMU9UgFu_3std4hash6randomNtBb_11RandomState3new4KEYS0s_0INtNtNtCsaNl6UpbT7bw_4core3ops8function6FnOnceTINtNtB1l_6option6OptionQIB20_INtNtB1l_4cell4CellTyyEEEEEE9call_onceCs4xw9YKG6Q6g_7autocfg, symObjAddr: 0x3844, symBinAddr: 0x10000BDBC, symSize: 0x4C }
  - { offset: 0x17846, size: 0x8, addend: 0x0, symName: __RNvYNvNtCs4xw9YKG6Q6g_7autocfg5error7from_ioINtNtNtCsaNl6UpbT7bw_4core3ops8function6FnOnceTNtNtNtCsht3nMU9UgFu_3std2io5error5ErrorEE9call_onceB6_, symObjAddr: 0x38E8, symBinAddr: 0x10000BE60, symSize: 0x24 }
  - { offset: 0x1788A, size: 0x8, addend: 0x0, symName: __RNvYNvNtCs4xw9YKG6Q6g_7autocfg5error8from_numINtNtNtCsaNl6UpbT7bw_4core3ops8function6FnOnceTNtNtNtBO_3num5error13ParseIntErrorEE9call_onceB6_, symObjAddr: 0x390C, symBinAddr: 0x10000BE84, symSize: 0x24 }
  - { offset: 0x178CE, size: 0x8, addend: 0x0, symName: __RNvYNvNtCs4xw9YKG6Q6g_7autocfg5error9from_utf8INtNtNtCsaNl6UpbT7bw_4core3ops8function6FnOnceTNtNtNtBP_3str5error9Utf8ErrorEE9call_onceB6_, symObjAddr: 0x3930, symBinAddr: 0x10000BEA8, symSize: 0x28 }
  - { offset: 0x17912, size: 0x8, addend: 0x0, symName: __RNvYNvNvNvMNtNtCsht3nMU9UgFu_3std4hash6randomNtB9_11RandomState3new4KEYS6___initINtNtNtCsaNl6UpbT7bw_4core3ops8function6FnOnceuE9call_onceCs4xw9YKG6Q6g_7autocfg, symObjAddr: 0x3958, symBinAddr: 0x10000BED0, symSize: 0x1C }
  - { offset: 0x17956, size: 0x8, addend: 0x0, symName: __RNvYNvYINtNtCsaNl6UpbT7bw_4core6option4IterNtNtCsht3nMU9UgFu_3std4path7PathBufENtNtNtNtBa_4iter6traits8iterator8Iterator4nextINtNtNtBa_3ops8function6FnOnceTQB5_EE9call_onceCs4xw9YKG6Q6g_7autocfg, symObjAddr: 0x3974, symBinAddr: 0x10000BEEC, symSize: 0x24 }
  - { offset: 0x1799A, size: 0x8, addend: 0x0, symName: __RNvYNvYINtNtNtNtCsaNl6UpbT7bw_4core4iter8adapters5chain5ChainINtNtBe_6option4IterNtNtCsht3nMU9UgFu_3std4path7PathBufEBX_ENtNtNtBc_6traits8iterator8Iterator4nextINtNtNtBe_3ops8function6FnOnceTQB5_EE9call_onceCs4xw9YKG6Q6g_7autocfg, symObjAddr: 0x3998, symBinAddr: 0x10000BF10, symSize: 0x24 }
  - { offset: 0x179DE, size: 0x8, addend: 0x0, symName: __RNvYNvYNtNtCsht3nMU9UgFu_3std4path7PathBufINtNtCsaNl6UpbT7bw_4core7convert4FromNtNtNtB9_3ffi6os_str8OsStringE4fromINtNtNtBJ_3ops8function6FnOnceTB1f_EE9call_onceCs4xw9YKG6Q6g_7autocfg, symObjAddr: 0x39BC, symBinAddr: 0x10000BF34, symSize: 0x34 }
  - { offset: 0x17A22, size: 0x8, addend: 0x0, symName: __RNvYNvYeNtNtCsiTraAjBDcu4_5alloc6borrow7ToOwned8to_ownedINtNtNtCsaNl6UpbT7bw_4core3ops8function6FnOnceTReEE9call_onceCs4xw9YKG6Q6g_7autocfg, symObjAddr: 0x39F0, symBinAddr: 0x10000BF68, symSize: 0x2C }
  - { offset: 0x17B2C, size: 0x8, addend: 0x0, symName: __RNvYNvMNtCsaNl6UpbT7bw_4core3stre4trimINtNtNtB7_3ops8function5FnMutTReEE8call_mutCs4xw9YKG6Q6g_7autocfg, symObjAddr: 0x3890, symBinAddr: 0x10000BE08, symSize: 0x30 }
  - { offset: 0x17B70, size: 0x8, addend: 0x0, symName: __RNvYNvMNtNtCsaNl6UpbT7bw_4core4char7methodsc13is_whitespaceINtNtNtB9_3ops8function5FnMutTcEE8call_mutCs4xw9YKG6Q6g_7autocfg, symObjAddr: 0x38C0, symBinAddr: 0x10000BE38, symSize: 0x28 }
  - { offset: 0x17BB4, size: 0x8, addend: 0x0, symName: __RNvYNvYeNtNtCsiTraAjBDcu4_5alloc6string8ToString9to_stringINtNtNtCsaNl6UpbT7bw_4core3ops8function5FnMutTReEE8call_mutCs4xw9YKG6Q6g_7autocfg, symObjAddr: 0x3A1C, symBinAddr: 0x10000BF94, symSize: 0x30 }
  - { offset: 0x17F0B, size: 0x8, addend: 0x0, symName: __RNvNvNtNtCsaNl6UpbT7bw_4core4char7convert18from_u32_unchecked18precondition_checkCs4xw9YKG6Q6g_7autocfg, symObjAddr: 0x30D0, symBinAddr: 0x10000B688, symSize: 0x104 }
  - { offset: 0x18975, size: 0x8, addend: 0x0, symName: __RINvMs_NtNtCsaNl6UpbT7bw_4core3fmt2rtNtB7_9Arguments6new_v1Kj1_KBW_ECs4xw9YKG6Q6g_7autocfg, symObjAddr: 0x0, symBinAddr: 0x100008974, symSize: 0x50 }
  - { offset: 0x189D9, size: 0x8, addend: 0x0, symName: __RINvMs_NtNtCsaNl6UpbT7bw_4core3fmt2rtNtB7_9Arguments6new_v1Kj2_Kj1_ECs4xw9YKG6Q6g_7autocfg, symObjAddr: 0xA0, symBinAddr: 0x1000089C4, symSize: 0x54 }
  - { offset: 0x18BB1, size: 0x8, addend: 0x0, symName: __RNCINvMsm_NtNtNtCsiTraAjBDcu4_5alloc11collections5btree8navigateINtNtBa_4node6HandleINtB13_7NodeRefNtNtB13_6marker5DyingNtNtNtCsht3nMU9UgFu_3std3ffi6os_str8OsStringINtNtCsaNl6UpbT7bw_4core6option6OptionB1U_ENtB1B_4LeafENtB1B_4EdgeE27deallocating_next_uncheckedNtNtBe_5alloc6GlobalE0Cs4xw9YKG6Q6g_7autocfg, symObjAddr: 0x2048, symBinAddr: 0x10000A81C, symSize: 0x58 }
  - { offset: 0x196A9, size: 0x8, addend: 0x0, symName: __RNvXNvMsT_NtNtNtCsiTraAjBDcu4_5alloc11collections5btree4nodeINtB8_6HandleINtB8_7NodeRefNtNtB8_6marker5DyingpppENtB1p_2KVE12drop_key_valINtB2_7DropperINtNtCsaNl6UpbT7bw_4core6option6OptionNtNtNtCsht3nMU9UgFu_3std3ffi6os_str8OsStringEENtNtNtB2s_3ops4drop4Drop4dropCs4xw9YKG6Q6g_7autocfg, symObjAddr: 0x3264, symBinAddr: 0x10000B800, symSize: 0x2C }
  - { offset: 0x19772, size: 0x8, addend: 0x0, symName: __RINvNtNtNtCsiTraAjBDcu4_5alloc11collections5btree3mem7replaceINtNtB4_4node6HandleINtB10_7NodeRefNtNtB10_6marker5DyingNtNtNtCsht3nMU9UgFu_3std3ffi6os_str8OsStringINtNtCsaNl6UpbT7bw_4core6option6OptionB1R_ENtB1y_4LeafENtB1y_4EdgeEIBY_IB1i_B1w_B1R_B2z_NtB1y_14LeafOrInternalENtB1y_2KVENCINvMsm_NtB4_8navigateBX_27deallocating_next_uncheckedNtNtB8_5alloc6GlobalE0ECs4xw9YKG6Q6g_7autocfg, symObjAddr: 0x1B34, symBinAddr: 0x10000A3C8, symSize: 0xCC }
  - { offset: 0x19C0D, size: 0x8, addend: 0x0, symName: __RINvMsb_NtNtNtCsiTraAjBDcu4_5alloc11collections5btree8navigateINtB6_13LazyLeafRangeNtNtNtB8_4node6marker5DyingNtNtNtCsht3nMU9UgFu_3std3ffi6os_str8OsStringINtNtCsaNl6UpbT7bw_4core6option6OptionB1K_EE16deallocating_endNtNtBc_5alloc6GlobalECs4xw9YKG6Q6g_7autocfg, symObjAddr: 0xF4, symBinAddr: 0x100008A18, symSize: 0x98 }
  - { offset: 0x19D0A, size: 0x8, addend: 0x0, symName: __RINvMsb_NtNtNtCsiTraAjBDcu4_5alloc11collections5btree8navigateINtB6_13LazyLeafRangeNtNtNtB8_4node6marker5DyingNtNtNtCsht3nMU9UgFu_3std3ffi6os_str8OsStringINtNtCsaNl6UpbT7bw_4core6option6OptionB1K_EE27deallocating_next_uncheckedNtNtBc_5alloc6GlobalECs4xw9YKG6Q6g_7autocfg, symObjAddr: 0x18C, symBinAddr: 0x100008AB0, symSize: 0xA8 }
  - { offset: 0x19E8D, size: 0x8, addend: 0x0, symName: __RINvMsh_NtNtNtCsiTraAjBDcu4_5alloc11collections5btree4nodeINtB6_7NodeRefNtNtB6_6marker5DyingNtNtNtCsht3nMU9UgFu_3std3ffi6os_str8OsStringINtNtCsaNl6UpbT7bw_4core6option6OptionB1s_ENtB1a_14LeafOrInternalE21deallocate_and_ascendNtNtBc_5alloc6GlobalECs4xw9YKG6Q6g_7autocfg, symObjAddr: 0x234, symBinAddr: 0x100008B58, symSize: 0x188 }
  - { offset: 0x1A0B5, size: 0x8, addend: 0x0, symName: __RINvMsj_NtNtNtCsiTraAjBDcu4_5alloc11collections5btree8navigateINtNtB8_4node6HandleINtB11_7NodeRefNtNtB11_6marker5DyingNtNtNtCsht3nMU9UgFu_3std3ffi6os_str8OsStringINtNtCsaNl6UpbT7bw_4core6option6OptionB1S_ENtB1z_4LeafENtB1z_4EdgeE16deallocating_endNtNtBc_5alloc6GlobalECs4xw9YKG6Q6g_7autocfg, symObjAddr: 0x3BC, symBinAddr: 0x100008CE0, symSize: 0xD4 }
  - { offset: 0x1A336, size: 0x8, addend: 0x0, symName: __RINvMsj_NtNtNtCsiTraAjBDcu4_5alloc11collections5btree8navigateINtNtB8_4node6HandleINtB11_7NodeRefNtNtB11_6marker5DyingNtNtNtCsht3nMU9UgFu_3std3ffi6os_str8OsStringINtNtCsaNl6UpbT7bw_4core6option6OptionB1S_ENtB1z_4LeafENtB1z_4EdgeE17deallocating_nextNtNtBc_5alloc6GlobalECs4xw9YKG6Q6g_7autocfg, symObjAddr: 0x490, symBinAddr: 0x100008DB4, symSize: 0x254 }
  - { offset: 0x1A918, size: 0x8, addend: 0x0, symName: __RINvXs1i_NtCsg4dki62PTrg_9hashbrown3mapINtB7_7HashMapyuNtNtNtCsht3nMU9UgFu_3std4hash6random11RandomStateEINtNtNtNtCsaNl6UpbT7bw_4core4iter6traits7collect6ExtendTyuEE6extendINtNtNtB1M_8adapters3map3MapINtNtNtB1O_3ops5range5RangeyENCINvXs8_NtB9_3setINtB3O_7HashSetyBR_EIB1G_yE6extendB3c_E0EECs4xw9YKG6Q6g_7autocfg, symObjAddr: 0x1C98, symBinAddr: 0x10000A4F8, symSize: 0x100 }
  - { offset: 0x1AA26, size: 0x8, addend: 0x0, symName: __RNCINvXs1i_NtCsg4dki62PTrg_9hashbrown3mapINtB9_7HashMapyuNtNtNtCsht3nMU9UgFu_3std4hash6random11RandomStateEINtNtNtNtCsaNl6UpbT7bw_4core4iter6traits7collect6ExtendTyuEE6extendINtNtNtB1O_8adapters3map3MapINtNtNtB1Q_3ops5range5RangeyENCINvXs8_NtBb_3setINtB3Q_7HashSetyBT_EIB1I_yE6extendB3e_E0EE0Cs4xw9YKG6Q6g_7autocfg, symObjAddr: 0x23F0, symBinAddr: 0x10000AB24, symSize: 0x30 }
  - { offset: 0x1AB0B, size: 0x8, addend: 0x0, symName: __RNCINvNtCsg4dki62PTrg_9hashbrown3map11make_hasheryuNtNtNtCsht3nMU9UgFu_3std4hash6random11RandomStateE0Cs4xw9YKG6Q6g_7autocfg, symObjAddr: 0x20A0, symBinAddr: 0x10000A874, symSize: 0x3C }
  - { offset: 0x1ABA0, size: 0x8, addend: 0x0, symName: __RNCINvNtCsg4dki62PTrg_9hashbrown3map14equivalent_keyyyuE0Cs4xw9YKG6Q6g_7autocfg, symObjAddr: 0x20DC, symBinAddr: 0x10000A8B0, symSize: 0x30 }
  - { offset: 0x1AC49, size: 0x8, addend: 0x0, symName: __RNvXsE_NtCsg4dki62PTrg_9hashbrown3mapINtB5_7HashMapyuNtNtNtCsht3nMU9UgFu_3std4hash6random11RandomStateENtNtNtNtCsaNl6UpbT7bw_4core4iter6traits7collect12IntoIterator9into_iterCs4xw9YKG6Q6g_7autocfg, symObjAddr: 0x3724, symBinAddr: 0x10000BC9C, symSize: 0x6C }
  - { offset: 0x1ACD8, size: 0x8, addend: 0x0, symName: __RINvXs8_NtCsg4dki62PTrg_9hashbrown3setINtB6_7HashSetyNtNtNtCsht3nMU9UgFu_3std4hash6random11RandomStateEINtNtNtNtCsaNl6UpbT7bw_4core4iter6traits7collect6ExtendyE6extendINtNtNtB1M_3ops5range5RangeyEECs4xw9YKG6Q6g_7autocfg, symObjAddr: 0x1D98, symBinAddr: 0x10000A5F8, symSize: 0x54 }
  - { offset: 0x1AD3A, size: 0x8, addend: 0x0, symName: __RNCINvXs8_NtCsg4dki62PTrg_9hashbrown3setINtB8_7HashSetyNtNtNtCsht3nMU9UgFu_3std4hash6random11RandomStateEINtNtNtNtCsaNl6UpbT7bw_4core4iter6traits7collect6ExtendyE6extendINtNtNtB1O_3ops5range5RangeyEE0Cs4xw9YKG6Q6g_7autocfg, symObjAddr: 0x2420, symBinAddr: 0x10000AB54, symSize: 0x1C }
  - { offset: 0x1AE02, size: 0x8, addend: 0x0, symName: __RNvXs1_NtCsg4dki62PTrg_9hashbrown10scopeguardINtB5_10ScopeGuardNtNtB7_3raw13RawTableInnerNCINvMsa_B11_BZ_14prepare_resizeNtNtCsiTraAjBDcu4_5alloc5alloc6GlobalE0ENtNtNtCsaNl6UpbT7bw_4core3ops4drop4Drop4dropCs4xw9YKG6Q6g_7autocfg, symObjAddr: 0x354C, symBinAddr: 0x10000BAC4, symSize: 0x2C }
  - { offset: 0x1AE3C, size: 0x8, addend: 0x0, symName: __RNvXs1_NtCsg4dki62PTrg_9hashbrown10scopeguardINtB5_10ScopeGuardQNtNtB7_3raw13RawTableInnerNCNvMsa_B12_B10_15rehash_in_place0ENtNtNtCsaNl6UpbT7bw_4core3ops4drop4Drop4dropCs4xw9YKG6Q6g_7autocfg, symObjAddr: 0x3578, symBinAddr: 0x10000BAF0, symSize: 0x2C }
  - { offset: 0x1B420, size: 0x8, addend: 0x0, symName: __RNvMs1_NtCsg4dki62PTrg_9hashbrown3mapINtB5_7HashMapyuNtNtNtCsht3nMU9UgFu_3std4hash6random11RandomStateE6insertCs4xw9YKG6Q6g_7autocfg, symObjAddr: 0x24AC, symBinAddr: 0x10000ABE0, symSize: 0x180 }
  - { offset: 0x1B66A, size: 0x8, addend: 0x0, symName: __RNvMsO_NtNtNtCsiTraAjBDcu4_5alloc11collections5btree4nodeINtB5_6HandleINtB5_7NodeRefNtNtB5_6marker5DyingNtNtNtCsht3nMU9UgFu_3std3ffi6os_str8OsStringINtNtCsaNl6UpbT7bw_4core6option6OptionB1E_ENtB1m_8InternalENtB1m_4EdgeE7descendCs4xw9YKG6Q6g_7autocfg, symObjAddr: 0x27A8, symBinAddr: 0x10000AD60, symSize: 0x9C }
  - { offset: 0x1B949, size: 0x8, addend: 0x0, symName: __RNvMsT_NtNtNtCsiTraAjBDcu4_5alloc11collections5btree4nodeINtB5_6HandleINtB5_7NodeRefNtNtB5_6marker5DyingNtNtNtCsht3nMU9UgFu_3std3ffi6os_str8OsStringINtNtCsaNl6UpbT7bw_4core6option6OptionB1E_ENtB1m_14LeafOrInternalENtB1m_2KVE12drop_key_valCs4xw9YKG6Q6g_7autocfg, symObjAddr: 0x2844, symBinAddr: 0x10000ADFC, symSize: 0x138 }
  - { offset: 0x1BB1C, size: 0x8, addend: 0x0, symName: __RNvMs_NtNtCsaNl6UpbT7bw_4core3fmt2rtNtB6_9Arguments16new_v1_formattedCs4xw9YKG6Q6g_7autocfg, symObjAddr: 0x297C, symBinAddr: 0x10000AF34, symSize: 0x58 }
  - { offset: 0x1BCD2, size: 0x8, addend: 0x0, symName: __RNvMsb_NtNtNtCsiTraAjBDcu4_5alloc11collections5btree8navigateINtB5_13LazyLeafRangeNtNtNtB7_4node6marker5DyingNtNtNtCsht3nMU9UgFu_3std3ffi6os_str8OsStringINtNtCsaNl6UpbT7bw_4core6option6OptionB1J_EE10take_frontCs4xw9YKG6Q6g_7autocfg, symObjAddr: 0x29D4, symBinAddr: 0x10000AF8C, symSize: 0x1C4 }
  - { offset: 0x1C025, size: 0x8, addend: 0x0, symName: __RNvMsc_NtNtNtCsiTraAjBDcu4_5alloc11collections5btree8navigateINtB5_13LazyLeafRangeNtNtNtB7_4node6marker5DyingNtNtNtCsht3nMU9UgFu_3std3ffi6os_str8OsStringINtNtCsaNl6UpbT7bw_4core6option6OptionB1J_EE10init_frontCs4xw9YKG6Q6g_7autocfg, symObjAddr: 0x2B98, symBinAddr: 0x10000B150, symSize: 0x1C8 }
  - { offset: 0x1C2CB, size: 0x8, addend: 0x0, symName: __RNvMse_NtNtNtCsiTraAjBDcu4_5alloc11collections5btree4nodeINtB5_7NodeRefNtNtB5_6marker5DyingNtNtNtCsht3nMU9UgFu_3std3ffi6os_str8OsStringINtNtCsaNl6UpbT7bw_4core6option6OptionB1r_ENtB19_14LeafOrInternalE6ascendCs4xw9YKG6Q6g_7autocfg, symObjAddr: 0x2D60, symBinAddr: 0x10000B318, symSize: 0x160 }
  - { offset: 0x1C637, size: 0x8, addend: 0x0, symName: __RNvMsp_NtNtNtCsiTraAjBDcu4_5alloc11collections5btree8navigateINtNtB7_4node6HandleINtB10_7NodeRefNtNtB10_6marker5DyingNtNtNtCsht3nMU9UgFu_3std3ffi6os_str8OsStringINtNtCsaNl6UpbT7bw_4core6option6OptionB1R_ENtB1y_14LeafOrInternalENtB1y_2KVE14next_leaf_edgeCs4xw9YKG6Q6g_7autocfg, symObjAddr: 0x2EC0, symBinAddr: 0x10000B478, symSize: 0x210 }
  - { offset: 0x1D3A4, size: 0x8, addend: 0x0, symName: __RINvMNtNtCsaNl6UpbT7bw_4core3fmt2rtNtB3_8Argument11new_displayNtB5_9ArgumentsECs4xw9YKG6Q6g_7autocfg, symObjAddr: 0x0, symBinAddr: 0x10000BFC4, symSize: 0x2C }
  - { offset: 0x1D4D3, size: 0x8, addend: 0x0, symName: __RNCNvXs1_NtNtNtCsht3nMU9UgFu_3std2io5error14repr_bitpackedNtB7_4ReprNtNtNtCsaNl6UpbT7bw_4core3ops4drop4Drop4drop0Cs4xw9YKG6Q6g_7autocfg, symObjAddr: 0xA7C, symBinAddr: 0x10000C9E8, symSize: 0x3C }
  - { offset: 0x1D588, size: 0x8, addend: 0x0, symName: __RNvXs1_NtNtNtCsht3nMU9UgFu_3std2io5error14repr_bitpackedNtB5_4ReprNtNtNtCsaNl6UpbT7bw_4core3ops4drop4Drop4dropCs4xw9YKG6Q6g_7autocfg, symObjAddr: 0x1EC4, symBinAddr: 0x10000DE30, symSize: 0x38 }
  - { offset: 0x1D5B1, size: 0x8, addend: 0x0, symName: __RINvNtNtNtCsht3nMU9UgFu_3std2io5error14repr_bitpacked11decode_reprINtNtCsiTraAjBDcu4_5alloc5boxed3BoxNtB4_6CustomENCNvXs1_B2_NtB2_4ReprNtNtNtCsaNl6UpbT7bw_4core3ops4drop4Drop4drop0ECs4xw9YKG6Q6g_7autocfg, symObjAddr: 0x608, symBinAddr: 0x10000C574, symSize: 0x1DC }
  - { offset: 0x1D81E, size: 0x8, addend: 0x0, symName: __RNCNvMs0_NtNtNtCsht3nMU9UgFu_3std2io5error14repr_bitpackedNtB7_4Repr4data0Cs4xw9YKG6Q6g_7autocfg, symObjAddr: 0xA68, symBinAddr: 0x10000C9D4, symSize: 0x14 }
  - { offset: 0x1D856, size: 0x8, addend: 0x0, symName: __RINvNtNtNtCsht3nMU9UgFu_3std2io5error14repr_bitpacked11decode_reprRNtB4_6CustomNCNvMs0_B2_NtB2_4Repr4data0ECs4xw9YKG6Q6g_7autocfg, symObjAddr: 0x7E4, symBinAddr: 0x10000C750, symSize: 0x1DC }
  - { offset: 0x1DAB2, size: 0x8, addend: 0x0, symName: __RNvNtNtNtCsht3nMU9UgFu_3std2io5error14repr_bitpacked14kind_from_primCs4xw9YKG6Q6g_7autocfg, symObjAddr: 0xE94, symBinAddr: 0x10000CE00, symSize: 0x758 }
  - { offset: 0x1E70E, size: 0x8, addend: 0x0, symName: __RNvXs11_NtCsht3nMU9UgFu_3std4pathNtB6_7PathBufINtNtCsaNl6UpbT7bw_4core7convert5AsRefNtNtNtB8_3ffi6os_str5OsStrE6as_refCs4xw9YKG6Q6g_7autocfg, symObjAddr: 0x1DB8, symBinAddr: 0x10000DD24, symSize: 0x2C }
  - { offset: 0x1E760, size: 0x8, addend: 0x0, symName: __RNvXsH_NtCsht3nMU9UgFu_3std4pathNtB5_7PathBufNtNtNtCsaNl6UpbT7bw_4core3ops5deref5Deref5derefCs4xw9YKG6Q6g_7autocfg, symObjAddr: 0x1FF4, symBinAddr: 0x10000DF60, symSize: 0x34 }
  - { offset: 0x1E7EE, size: 0x8, addend: 0x0, symName: __RNvXs1j_NtCsht3nMU9UgFu_3std4pathNtB6_7PathBufINtNtCsaNl6UpbT7bw_4core7convert5AsRefNtB6_4PathE6as_refCs4xw9YKG6Q6g_7autocfg, symObjAddr: 0x1EFC, symBinAddr: 0x10000DE68, symSize: 0x34 }
  - { offset: 0x1E89A, size: 0x8, addend: 0x0, symName: __RNvXsA_NtCsht3nMU9UgFu_3std4pathNtB5_7PathBufINtNtCsaNl6UpbT7bw_4core7convert4FromNtNtNtB7_3ffi6os_str8OsStringE4fromCs4xw9YKG6Q6g_7autocfg, symObjAddr: 0x1FDC, symBinAddr: 0x10000DF48, symSize: 0x18 }
  - { offset: 0x1E8EC, size: 0x8, addend: 0x0, symName: __RNvXsz_NtCsht3nMU9UgFu_3std4pathNtB5_7PathBufINtNtCsaNl6UpbT7bw_4core7convert4FromReE4fromCs4xw9YKG6Q6g_7autocfg, symObjAddr: 0x22E0, symBinAddr: 0x10000E20C, symSize: 0x8C }
  - { offset: 0x1FA32, size: 0x8, addend: 0x0, symName: __RNvNvXs5_NtNtCsaNl6UpbT7bw_4core3str6traitsINtNtNtBb_3ops5range5RangejEINtNtNtBb_5slice5index10SliceIndexeE13get_unchecked18precondition_checkCs4xw9YKG6Q6g_7autocfg, symObjAddr: 0x1714, symBinAddr: 0x10000D680, symSize: 0xCC }
  - { offset: 0x1FAAF, size: 0x8, addend: 0x0, symName: __RNvXs2_NtNtCsaNl6UpbT7bw_4core3str6traitseINtNtNtB9_3ops5index5IndexINtNtBJ_5range7RangeTojEE5indexCs4xw9YKG6Q6g_7autocfg, symObjAddr: 0x1F30, symBinAddr: 0x10000DE9C, symSize: 0x44 }
  - { offset: 0x1FAF2, size: 0x8, addend: 0x0, symName: __RNvXs2_NtNtCsaNl6UpbT7bw_4core3str6traitseINtNtNtB9_3ops5index5IndexINtNtBJ_5range9RangeFromjEE5indexCs4xw9YKG6Q6g_7autocfg, symObjAddr: 0x1F74, symBinAddr: 0x10000DEE0, symSize: 0x44 }
  - { offset: 0x1FE68, size: 0x8, addend: 0x0, symName: __RNvXsn_NtNtCsaNl6UpbT7bw_4core3cmp5implsyNtB7_9PartialEq2eqCs4xw9YKG6Q6g_7autocfg, symObjAddr: 0x22B4, symBinAddr: 0x10000E1E0, symSize: 0x2C }
  - { offset: 0x2019F, size: 0x8, addend: 0x0, symName: __RNvXs19_NtCsaNl6UpbT7bw_4core3fmtRNtNtCs4xw9YKG6Q6g_7autocfg5error9ErrorKindNtB6_5Debug3fmtBA_, symObjAddr: 0x1DE4, symBinAddr: 0x10000DD50, symSize: 0x30 }
  - { offset: 0x20677, size: 0x8, addend: 0x0, symName: __RNvXs1_NtNtNtCsaNl6UpbT7bw_4core4iter8adapters6filterINtB5_6FilterINtNtB7_3map3MapINtNtNtBb_3str4iter5SplitcENvMB1n_e4trimENCNvCs4xw9YKG6Q6g_7autocfg9rustflags0ENtNtNtB9_6traits8iterator8Iterator4nextB21_, symObjAddr: 0x1E4C, symBinAddr: 0x10000DDB8, symSize: 0x2C }
  - { offset: 0x206B5, size: 0x8, addend: 0x0, symName: __RNvXs1_NtNtNtCsaNl6UpbT7bw_4core4iter8adapters6filterINtB5_6FilterINtNtB7_3map3MapINtNtNtBb_3str4iter5SplitcENvMB1n_e4trimENCNvCs4xw9YKG6Q6g_7autocfg9rustflags0ENtNtNtB9_6traits8iterator8Iterator9size_hintB21_, symObjAddr: 0x1E78, symBinAddr: 0x10000DDE4, symSize: 0x4C }
  - { offset: 0x20722, size: 0x8, addend: 0x0, symName: __RINvYINtNtNtNtCsaNl6UpbT7bw_4core4iter8adapters6filter6FilterINtNtB8_3map3MapINtNtNtBc_3str4iter5SplitcENvMB1i_e4trimENCNvCs4xw9YKG6Q6g_7autocfg9rustflags0ENtNtNtBa_6traits8iterator8Iterator3mapNtNtCsiTraAjBDcu4_5alloc6string6StringNvYeNtB38_8ToString9to_stringEB1W_, symObjAddr: 0xA38, symBinAddr: 0x10000C9A4, symSize: 0x30 }
  - { offset: 0x207EF, size: 0x8, addend: 0x0, symName: __RNvNvNtCsaNl6UpbT7bw_4core4hint16assert_unchecked18precondition_checkCs4xw9YKG6Q6g_7autocfg, symObjAddr: 0x15EC, symBinAddr: 0x10000D558, symSize: 0xA4 }
  - { offset: 0x2084F, size: 0x8, addend: 0x0, symName: __RNvNvNtCsaNl6UpbT7bw_4core4hint21unreachable_unchecked18precondition_checkCs4xw9YKG6Q6g_7autocfg, symObjAddr: 0x1690, symBinAddr: 0x10000D5FC, symSize: 0x84 }
  - { offset: 0x2092D, size: 0x8, addend: 0x0, symName: __RNvXNtCsaNl6UpbT7bw_4core7convertRNtNtCsht3nMU9UgFu_3std4path7PathBufINtB2_5AsRefNtBy_4PathE6as_refCs4xw9YKG6Q6g_7autocfg, symObjAddr: 0x1830, symBinAddr: 0x10000D79C, symSize: 0x28 }
  - { offset: 0x2096D, size: 0x8, addend: 0x0, symName: __RNvXNtCsaNl6UpbT7bw_4core7convertRNtNtCsht3nMU9UgFu_3std4path7PathBufINtB2_5AsRefNtNtNtBA_3ffi6os_str5OsStrE6as_refCs4xw9YKG6Q6g_7autocfg, symObjAddr: 0x1858, symBinAddr: 0x10000D7C4, symSize: 0x28 }
  - { offset: 0x209AD, size: 0x8, addend: 0x0, symName: __RNvXNtCsaNl6UpbT7bw_4core7convertRRNtNtCsht3nMU9UgFu_3std4path7PathBufINtB2_5AsRefNtNtNtBB_3ffi6os_str5OsStrE6as_refCs4xw9YKG6Q6g_7autocfg, symObjAddr: 0x1880, symBinAddr: 0x10000D7EC, symSize: 0x28 }
  - { offset: 0x209ED, size: 0x8, addend: 0x0, symName: __RNvXNtCsaNl6UpbT7bw_4core7convertRReINtB2_5AsRefNtNtNtCsht3nMU9UgFu_3std3ffi6os_str5OsStrE6as_refCs4xw9YKG6Q6g_7autocfg, symObjAddr: 0x18A8, symBinAddr: 0x10000D814, symSize: 0x28 }
  - { offset: 0x20A2D, size: 0x8, addend: 0x0, symName: __RNvXNtCsaNl6UpbT7bw_4core7convertReINtB2_5AsRefNtNtNtCsht3nMU9UgFu_3std3ffi6os_str5OsStrE6as_refCs4xw9YKG6Q6g_7autocfg, symObjAddr: 0x18D0, symBinAddr: 0x10000D83C, symSize: 0x30 }
  - { offset: 0x20A73, size: 0x8, addend: 0x0, symName: __RNvXs1_NtCsaNl6UpbT7bw_4core7convertReINtB5_4IntoNtNtNtCsht3nMU9UgFu_3std3ffi6os_str8OsStringE4intoCs4xw9YKG6Q6g_7autocfg, symObjAddr: 0x1E14, symBinAddr: 0x10000DD80, symSize: 0x28 }
  - { offset: 0x20CFA, size: 0x8, addend: 0x0, symName: __RNvXsb_NtCsaNl6UpbT7bw_4core5arrayRARNtNtCsht3nMU9UgFu_3std4path7PathBufj2_NtNtNtNtB7_4iter6traits7collect12IntoIterator9into_iterCs4xw9YKG6Q6g_7autocfg, symObjAddr: 0x211C, symBinAddr: 0x10000E048, symSize: 0x58 }
  - { offset: 0x20FA1, size: 0x8, addend: 0x0, symName: __RNvNtCs4xw9YKG6Q6g_7autocfg5error9from_exit, symObjAddr: 0x2678, symBinAddr: 0x10000E298, symSize: 0x40 }
  - { offset: 0x20FCD, size: 0x8, addend: 0x0, symName: __RNvNtCs4xw9YKG6Q6g_7autocfg5error7from_io, symObjAddr: 0x26B8, symBinAddr: 0x10000E2D8, symSize: 0x40 }
  - { offset: 0x20FF9, size: 0x8, addend: 0x0, symName: __RNvNtCs4xw9YKG6Q6g_7autocfg5error8from_num, symObjAddr: 0x26F8, symBinAddr: 0x10000E318, symSize: 0x40 }
  - { offset: 0x21025, size: 0x8, addend: 0x0, symName: __RNvNtCs4xw9YKG6Q6g_7autocfg5error9from_utf8, symObjAddr: 0x2738, symBinAddr: 0x10000E358, symSize: 0x44 }
  - { offset: 0x21051, size: 0x8, addend: 0x0, symName: __RNvNtCs4xw9YKG6Q6g_7autocfg5error8from_str, symObjAddr: 0x277C, symBinAddr: 0x10000E39C, symSize: 0x4C }
  - { offset: 0x21082, size: 0x8, addend: 0x0, symName: __RNvXs0_NtCs4xw9YKG6Q6g_7autocfg5errorNtB5_5ErrorNtNtCsaNl6UpbT7bw_4core3fmt5Debug3fmtB7_, symObjAddr: 0x27C8, symBinAddr: 0x10000E3E8, symSize: 0x64 }
  - { offset: 0x210C2, size: 0x8, addend: 0x0, symName: __RNvXs1_NtCs4xw9YKG6Q6g_7autocfg5errorNtB5_9ErrorKindNtNtCsaNl6UpbT7bw_4core3fmt5Debug3fmtB7_, symObjAddr: 0x282C, symBinAddr: 0x10000E44C, symSize: 0x190 }
  - { offset: 0x21310, size: 0x8, addend: 0x0, symName: __RINvMNtNtCsaNl6UpbT7bw_4core3fmt2rtNtB3_8Argument11new_displayNtB5_9ArgumentsECs4xw9YKG6Q6g_7autocfg, symObjAddr: 0x0, symBinAddr: 0x10000BFC4, symSize: 0x2C }
  - { offset: 0x21618, size: 0x8, addend: 0x0, symName: __RINvXsd_NtCsiTraAjBDcu4_5alloc3vecINtB6_3VecNtNtB8_6string6StringEINtNtNtNtCsaNl6UpbT7bw_4core4iter6traits7collect12FromIteratorBG_E9from_iterINtNtNtB19_8adapters3map3MapINtNtB2l_6filter6FilterIB2h_INtNtNtB1b_3str4iter5SplitcENvMB3f_e4trimENCNvCs4xw9YKG6Q6g_7autocfg9rustflags0ENvYeNtBI_8ToString9to_stringEEB3U_, symObjAddr: 0x9C0, symBinAddr: 0x10000C92C, symSize: 0x3C }
  - { offset: 0x21659, size: 0x8, addend: 0x0, symName: __RINvXsd_NtCsiTraAjBDcu4_5alloc3vecINtB6_3VecNtNtB8_6string6StringEINtNtNtNtCsaNl6UpbT7bw_4core4iter6traits7collect12FromIteratorBG_E9from_iterINtNtNtB19_8adapters3map3MapINtNtNtB1b_3str4iter5SplitcENvYeNtBI_8ToString9to_stringEECs4xw9YKG6Q6g_7autocfg, symObjAddr: 0x9FC, symBinAddr: 0x10000C968, symSize: 0x3C }
  - { offset: 0x216A5, size: 0x8, addend: 0x0, symName: __RNvXNtNtCsiTraAjBDcu4_5alloc3vec11spec_extendINtB4_3VecNtNtB6_6string6StringEINtB2_10SpecExtendBR_INtNtNtNtCsaNl6UpbT7bw_4core4iter8adapters3map3MapINtNtB1D_6filter6FilterIB1z_INtNtNtB1H_3str4iter5SplitcENvMB2T_e4trimENCNvCs4xw9YKG6Q6g_7autocfg9rustflags0ENvYeNtBT_8ToString9to_stringEE11spec_extendB3y_, symObjAddr: 0x1900, symBinAddr: 0x10000D86C, symSize: 0x24 }
  - { offset: 0x216F7, size: 0x8, addend: 0x0, symName: __RNvXNtNtCsiTraAjBDcu4_5alloc3vec11spec_extendINtB4_3VecNtNtB6_6string6StringEINtB2_10SpecExtendBR_INtNtNtNtCsaNl6UpbT7bw_4core4iter8adapters3map3MapINtNtNtB1H_3str4iter5SplitcENvYeNtBT_8ToString9to_stringEE11spec_extendCs4xw9YKG6Q6g_7autocfg, symObjAddr: 0x1924, symBinAddr: 0x10000D890, symSize: 0x24 }
  - { offset: 0x21755, size: 0x8, addend: 0x0, symName: __RNvXNtNtCsiTraAjBDcu4_5alloc3vec14spec_from_iterINtB4_3VecNtNtB6_6string6StringEINtB2_12SpecFromIterBU_INtNtNtNtCsaNl6UpbT7bw_4core4iter8adapters3map3MapINtNtB1I_6filter6FilterIB1E_INtNtNtB1M_3str4iter5SplitcENvMB2Y_e4trimENCNvCs4xw9YKG6Q6g_7autocfg9rustflags0ENvYeNtBW_8ToString9to_stringEE9from_iterB3D_, symObjAddr: 0x1948, symBinAddr: 0x10000D8B4, symSize: 0x14 }
  - { offset: 0x21794, size: 0x8, addend: 0x0, symName: __RNvXNtNtCsiTraAjBDcu4_5alloc3vec14spec_from_iterINtB4_3VecNtNtB6_6string6StringEINtB2_12SpecFromIterBU_INtNtNtNtCsaNl6UpbT7bw_4core4iter8adapters3map3MapINtNtNtB1M_3str4iter5SplitcENvYeNtBW_8ToString9to_stringEE9from_iterCs4xw9YKG6Q6g_7autocfg, symObjAddr: 0x195C, symBinAddr: 0x10000D8C8, symSize: 0x14 }
  - { offset: 0x217DF, size: 0x8, addend: 0x0, symName: __RNvXNtNtCsiTraAjBDcu4_5alloc3vec21spec_from_iter_nestedINtB4_3VecNtNtB6_6string6StringEINtB2_18SpecFromIterNestedB11_INtNtNtNtCsaNl6UpbT7bw_4core4iter8adapters3map3MapINtNtB1W_6filter6FilterIB1S_INtNtNtB20_3str4iter5SplitcENvMB3c_e4trimENCNvCs4xw9YKG6Q6g_7autocfg9rustflags0ENvYeNtB13_8ToString9to_stringEE9from_iterB3R_, symObjAddr: 0x1970, symBinAddr: 0x10000D8DC, symSize: 0x224 }
  - { offset: 0x219FE, size: 0x8, addend: 0x0, symName: __RNvXNtNtCsiTraAjBDcu4_5alloc3vec21spec_from_iter_nestedINtB4_3VecNtNtB6_6string6StringEINtB2_18SpecFromIterNestedB11_INtNtNtNtCsaNl6UpbT7bw_4core4iter8adapters3map3MapINtNtNtB20_3str4iter5SplitcENvYeNtB13_8ToString9to_stringEE9from_iterCs4xw9YKG6Q6g_7autocfg, symObjAddr: 0x1B94, symBinAddr: 0x10000DB00, symSize: 0x224 }
  - { offset: 0x21C24, size: 0x8, addend: 0x0, symName: __RNvXs6_NtCsiTraAjBDcu4_5alloc3vecINtB5_3VechENtNtNtCsaNl6UpbT7bw_4core3ops5deref5Deref5derefCs4xw9YKG6Q6g_7autocfg, symObjAddr: 0x1FB8, symBinAddr: 0x10000DF24, symSize: 0x24 }
  - { offset: 0x21C9A, size: 0x8, addend: 0x0, symName: __RNvXsf_NtCsiTraAjBDcu4_5alloc3vecRINtB5_3VecNtNtB7_6string6StringENtNtNtNtCsaNl6UpbT7bw_4core4iter6traits7collect12IntoIterator9into_iterCs4xw9YKG6Q6g_7autocfg, symObjAddr: 0x2174, symBinAddr: 0x10000E0A0, symSize: 0xAC }
  - { offset: 0x21F39, size: 0x8, addend: 0x0, symName: __RNvXsn_NtCsiTraAjBDcu4_5alloc3vecINtB5_3VecINtNtB7_5boxed3BoxDINtNtNtCsaNl6UpbT7bw_4core3ops8function5FnMutuEp6OutputINtNtB15_6result6ResultuNtNtNtCsht3nMU9UgFu_3std2io5error5ErrorENtNtB15_6marker4SyncNtB2V_4SendEL_EENtNtB13_4drop4Drop4dropCs4xw9YKG6Q6g_7autocfg, symObjAddr: 0x2220, symBinAddr: 0x10000E14C, symSize: 0x38 }
  - { offset: 0x21FE9, size: 0x8, addend: 0x0, symName: __RNvXsn_NtCsiTraAjBDcu4_5alloc3vecINtB5_3VecNtNtB7_6string6StringENtNtNtCsaNl6UpbT7bw_4core3ops4drop4Drop4dropCs4xw9YKG6Q6g_7autocfg, symObjAddr: 0x2258, symBinAddr: 0x10000E184, symSize: 0x38 }
  - { offset: 0x22099, size: 0x8, addend: 0x0, symName: __RNvXsn_NtCsiTraAjBDcu4_5alloc3vecINtB5_3VecPaENtNtNtCsaNl6UpbT7bw_4core3ops4drop4Drop4dropCs4xw9YKG6Q6g_7autocfg, symObjAddr: 0x2290, symBinAddr: 0x10000E1BC, symSize: 0x24 }
  - { offset: 0x22210, size: 0x8, addend: 0x0, symName: __RNvXs1_NtCsiTraAjBDcu4_5alloc5allocNtB5_6GlobalNtNtCsaNl6UpbT7bw_4core5clone5Clone5cloneCs4xw9YKG6Q6g_7autocfg, symObjAddr: 0x1E3C, symBinAddr: 0x10000DDA8, symSize: 0x10 }
  - { offset: 0x22261, size: 0x8, addend: 0x0, symName: __RNvXs_NtCsiTraAjBDcu4_5alloc5allocNtB4_6GlobalNtNtCsaNl6UpbT7bw_4core5alloc9Allocator10deallocateCs4xw9YKG6Q6g_7autocfg, symObjAddr: 0x2068, symBinAddr: 0x10000DF94, symSize: 0x80 }
  - { offset: 0x22328, size: 0x8, addend: 0x0, symName: __RNvXs_NtCsiTraAjBDcu4_5alloc5allocNtB4_6GlobalNtNtCsaNl6UpbT7bw_4core5alloc9Allocator8allocateCs4xw9YKG6Q6g_7autocfg, symObjAddr: 0x20E8, symBinAddr: 0x10000E014, symSize: 0x34 }
  - { offset: 0x22867, size: 0x8, addend: 0x0, symName: __RINvMNtNtCsaNl6UpbT7bw_4core3fmt2rtNtB3_8Argument11new_displayReECs4xw9YKG6Q6g_7autocfg, symObjAddr: 0x84, symBinAddr: 0x10000BFF0, symSize: 0x2C }
  - { offset: 0x2289F, size: 0x8, addend: 0x0, symName: __RINvMNtNtCsaNl6UpbT7bw_4core3fmt2rtNtB3_8Argument11new_displayjECs4xw9YKG6Q6g_7autocfg, symObjAddr: 0xB0, symBinAddr: 0x10000C01C, symSize: 0x2C }
  - { offset: 0x228D7, size: 0x8, addend: 0x0, symName: __RINvMNtNtCsaNl6UpbT7bw_4core3fmt2rtNtB3_8Argument13new_lower_hexyECs4xw9YKG6Q6g_7autocfg, symObjAddr: 0xDC, symBinAddr: 0x10000C048, symSize: 0x2C }
  - { offset: 0x22929, size: 0x8, addend: 0x0, symName: __RINvMs12_NtCsht3nMU9UgFu_3std4pathNtB7_4Path4joinNtNtCsiTraAjBDcu4_5alloc6string6StringECs4xw9YKG6Q6g_7autocfg, symObjAddr: 0x108, symBinAddr: 0x10000C074, symSize: 0x94 }
  - { offset: 0x22B83, size: 0x8, addend: 0x0, symName: __RINvMsi_NtCsiTraAjBDcu4_5alloc3vecINtB6_3VecNtNtB8_6string6StringE16extend_desugaredINtNtNtNtCsaNl6UpbT7bw_4core4iter8adapters3map3MapINtNtB1p_6filter6FilterIB1l_INtNtNtB1t_3str4iter5SplitcENvMB2F_e4trimENCNvCs4xw9YKG6Q6g_7autocfg9rustflags0ENvYeNtBI_8ToString9to_stringEEB3k_, symObjAddr: 0x19C, symBinAddr: 0x10000C108, symSize: 0x1C8 }
  - { offset: 0x22F19, size: 0x8, addend: 0x0, symName: __RINvMsi_NtCsiTraAjBDcu4_5alloc3vecINtB6_3VecNtNtB8_6string6StringE16extend_desugaredINtNtNtNtCsaNl6UpbT7bw_4core4iter8adapters3map3MapINtNtNtB1t_3str4iter5SplitcENvYeNtBI_8ToString9to_stringEECs4xw9YKG6Q6g_7autocfg, symObjAddr: 0x364, symBinAddr: 0x10000C2D0, symSize: 0x1C8 }
  - { offset: 0x23162, size: 0x8, addend: 0x0, symName: __RINvMsr_NtCsht3nMU9UgFu_3std4pathNtB6_7PathBuf13set_extensionReECs4xw9YKG6Q6g_7autocfg, symObjAddr: 0x52C, symBinAddr: 0x10000C498, symSize: 0x74 }
  - { offset: 0x231AA, size: 0x8, addend: 0x0, symName: __RINvMsr_NtCsht3nMU9UgFu_3std4pathNtB6_7PathBuf4pushRNtNtNtB8_3ffi6os_str8OsStringECs4xw9YKG6Q6g_7autocfg, symObjAddr: 0x5A0, symBinAddr: 0x10000C50C, symSize: 0x68 }
  - { offset: 0x2339A, size: 0x8, addend: 0x0, symName: __RNvMNtCsiTraAjBDcu4_5alloc3vecINtB2_3VecNtNtB4_6string6StringE3newCs4xw9YKG6Q6g_7autocfg, symObjAddr: 0xAB8, symBinAddr: 0x10000CA24, symSize: 0x14 }
  - { offset: 0x23537, size: 0x8, addend: 0x0, symName: __RNvMNtCsiTraAjBDcu4_5alloc5allocNtB2_6Global10alloc_implCs4xw9YKG6Q6g_7autocfg, symObjAddr: 0xACC, symBinAddr: 0x10000CA38, symSize: 0x204 }
  - { offset: 0x23965, size: 0x8, addend: 0x0, symName: __RNvMs12_NtCsht3nMU9UgFu_3std4pathNtB6_4Path6to_strCs4xw9YKG6Q6g_7autocfg, symObjAddr: 0xCD0, symBinAddr: 0x10000CC3C, symSize: 0x94 }
  - { offset: 0x23B1B, size: 0x8, addend: 0x0, symName: __RNvMs_NtCsiTraAjBDcu4_5alloc3vecINtB4_3VecNtNtB6_6string6StringE7reserveCs4xw9YKG6Q6g_7autocfg, symObjAddr: 0xD64, symBinAddr: 0x10000CCD0, symSize: 0xC8 }
  - { offset: 0x23D0C, size: 0x8, addend: 0x0, symName: __RNvMs_NtCsiTraAjBDcu4_5alloc3vecINtB4_3VechE8as_sliceCs4xw9YKG6Q6g_7autocfg, symObjAddr: 0xE2C, symBinAddr: 0x10000CD98, symSize: 0x68 }
  - { offset: 0x23E2D, size: 0x8, addend: 0x0, symName: __RNvXCsg4dki62PTrg_9hashbrownyINtB2_10EquivalentyE10equivalentCs4xw9YKG6Q6g_7autocfg, symObjAddr: 0x17E0, symBinAddr: 0x10000D74C, symSize: 0x50 }
  - { offset: 0x24750, size: 0x8, addend: 0x0, symName: __RINvMsk_NtCsht3nMU9UgFu_3std7processNtB6_7Command3argRNtNtB8_4path7PathBufECs4xw9YKG6Q6g_7autocfg, symObjAddr: 0x0, symBinAddr: 0x10000E5DC, symSize: 0x6C }
  - { offset: 0x24E19, size: 0x8, addend: 0x0, symName: __RNvYNtNtCsht3nMU9UgFu_3std7process10ChildStdinNtNtB6_2io5Write9write_allCs4xw9YKG6Q6g_7autocfg, symObjAddr: 0x1CC0, symBinAddr: 0x10000FE10, symSize: 0x270 }
  - { offset: 0x24FB1, size: 0x8, addend: 0x0, symName: __RNvYNtNtCsht3nMU9UgFu_3std7process10ChildStdinNtNtB6_2io5Write9write_fmtCs4xw9YKG6Q6g_7autocfg, symObjAddr: 0x1F30, symBinAddr: 0x100010080, symSize: 0x154 }
  - { offset: 0x25252, size: 0x8, addend: 0x0, symName: __RNvXs1e_NtCsht3nMU9UgFu_3std7processNtB6_10ExitStatusNtNtCsaNl6UpbT7bw_4core3fmt5Debug3fmtCs4xw9YKG6Q6g_7autocfg, symObjAddr: 0x120C, symBinAddr: 0x10000F52C, symSize: 0x54 }
  - { offset: 0x25367, size: 0x8, addend: 0x0, symName: __RNvXNvXs2_NtNtCsht3nMU9UgFu_3std3ffi6os_strNtB8_8OsStringINtNtCsaNl6UpbT7bw_4core7convert4FromRpE4fromReNtB2_14SpecToOsString17spec_to_os_stringCs4xw9YKG6Q6g_7autocfg, symObjAddr: 0x1054, symBinAddr: 0x10000F3A4, symSize: 0x78 }
  - { offset: 0x25421, size: 0x8, addend: 0x0, symName: __RNvXs2_NtNtCsht3nMU9UgFu_3std3ffi6os_strNtB5_8OsStringINtNtCsaNl6UpbT7bw_4core7convert4FromReE4fromCs4xw9YKG6Q6g_7autocfg, symObjAddr: 0x16C8, symBinAddr: 0x10000F9E8, symSize: 0x2C }
  - { offset: 0x254DC, size: 0x8, addend: 0x0, symName: __RNvXsV_NtNtCsht3nMU9UgFu_3std3ffi6os_strNtB5_8OsStringINtNtCsaNl6UpbT7bw_4core7convert5AsRefNtB5_5OsStrE6as_refCs4xw9YKG6Q6g_7autocfg, symObjAddr: 0x18B8, symBinAddr: 0x10000FB00, symSize: 0x2C }
  - { offset: 0x2552E, size: 0x8, addend: 0x0, symName: __RNvXs3_NtNtCsht3nMU9UgFu_3std3ffi6os_strNtB5_8OsStringINtNtNtCsaNl6UpbT7bw_4core3ops5index5IndexNtNtBV_5range9RangeFullE5indexCs4xw9YKG6Q6g_7autocfg, symObjAddr: 0x16F4, symBinAddr: 0x10000FA14, symSize: 0x80 }
  - { offset: 0x25668, size: 0x8, addend: 0x0, symName: __RNvXsU_NtNtCsht3nMU9UgFu_3std3ffi6os_strNtB5_5OsStrINtNtCsaNl6UpbT7bw_4core7convert5AsRefBC_E6as_refCs4xw9YKG6Q6g_7autocfg, symObjAddr: 0x18A0, symBinAddr: 0x10000FAE8, symSize: 0x18 }
  - { offset: 0x2569C, size: 0x8, addend: 0x0, symName: __RNvXsW_NtNtCsht3nMU9UgFu_3std3ffi6os_streINtNtCsaNl6UpbT7bw_4core7convert5AsRefNtB5_5OsStrE6as_refCs4xw9YKG6Q6g_7autocfg, symObjAddr: 0x18E4, symBinAddr: 0x10000FB2C, symSize: 0x18 }
  - { offset: 0x256D0, size: 0x8, addend: 0x0, symName: __RNvXsX_NtNtCsht3nMU9UgFu_3std3ffi6os_strNtNtCsiTraAjBDcu4_5alloc6string6StringINtNtCsaNl6UpbT7bw_4core7convert5AsRefNtB5_5OsStrE6as_refCs4xw9YKG6Q6g_7autocfg, symObjAddr: 0x18FC, symBinAddr: 0x10000FB44, symSize: 0x80 }
  - { offset: 0x25874, size: 0x8, addend: 0x0, symName: __RNvXsa_NtNtCsht3nMU9UgFu_3std3ffi6os_strNtB5_8OsStringNtNtCsaNl6UpbT7bw_4core3cmp9PartialEq2eqCs4xw9YKG6Q6g_7autocfg, symObjAddr: 0x197C, symBinAddr: 0x10000FBC4, symSize: 0x144 }
  - { offset: 0x25CF5, size: 0x8, addend: 0x0, symName: __RNvXs1g_NtCsht3nMU9UgFu_3std4pathNtNtNtB8_3ffi6os_str8OsStringINtNtCsaNl6UpbT7bw_4core7convert5AsRefNtB6_4PathE6as_refCs4xw9YKG6Q6g_7autocfg, symObjAddr: 0x1260, symBinAddr: 0x10000F580, symSize: 0x2C }
  - { offset: 0x25D83, size: 0x8, addend: 0x0, symName: __RNvXs1i_NtCsht3nMU9UgFu_3std4pathNtNtCsiTraAjBDcu4_5alloc6string6StringINtNtCsaNl6UpbT7bw_4core7convert5AsRefNtB6_4PathE6as_refCs4xw9YKG6Q6g_7autocfg, symObjAddr: 0x128C, symBinAddr: 0x10000F5AC, symSize: 0x24 }
  - { offset: 0x25E5A, size: 0x8, addend: 0x0, symName: __RNvXs5_NtNtCsaNl6UpbT7bw_4core3num5errorNtB5_15TryFromIntErrorNtNtB9_3fmt5Debug3fmtCs4xw9YKG6Q6g_7autocfg, symObjAddr: 0x184C, symBinAddr: 0x10000FA94, symSize: 0x54 }
  - { offset: 0x25E9A, size: 0x8, addend: 0x0, symName: __RNvXsb_NtNtCsaNl6UpbT7bw_4core3num5errorNtB5_13ParseIntErrorNtNtB9_3fmt5Debug3fmtCs4xw9YKG6Q6g_7autocfg, symObjAddr: 0x1B18, symBinAddr: 0x10000FD60, symSize: 0x64 }
  - { offset: 0x268CC, size: 0x8, addend: 0x0, symName: __RNvYNtNtNtCsht3nMU9UgFu_3std3ffi6os_str8OsStringNtNtCsaNl6UpbT7bw_4core3cmp9PartialEq2neCs4xw9YKG6Q6g_7autocfg, symObjAddr: 0x21AC, symBinAddr: 0x1000101D4, symSize: 0x30 }
  - { offset: 0x26921, size: 0x8, addend: 0x0, symName: __RNvYjNtNtCsaNl6UpbT7bw_4core3cmp3Ord3maxCs4xw9YKG6Q6g_7autocfg, symObjAddr: 0x21DC, symBinAddr: 0x100010204, symSize: 0x80 }
  - { offset: 0x2698F, size: 0x8, addend: 0x0, symName: __RNvYjNtNtCsaNl6UpbT7bw_4core3cmp3Ord3minCs4xw9YKG6Q6g_7autocfg, symObjAddr: 0x225C, symBinAddr: 0x100010284, symSize: 0x80 }
  - { offset: 0x272A1, size: 0x8, addend: 0x0, symName: __RINvXs3_NtNtCsaNl6UpbT7bw_4core4hash5implsRyNtB8_4Hash4hashNtNtNtCsht3nMU9UgFu_3std4hash6random13DefaultHasherECs4xw9YKG6Q6g_7autocfg, symObjAddr: 0x57C, symBinAddr: 0x10000EB58, symSize: 0x30 }
  - { offset: 0x272F2, size: 0x8, addend: 0x0, symName: __RINvXsa_NtNtCsaNl6UpbT7bw_4core4hash5implsyNtB8_4Hash4hashNtNtNtCsht3nMU9UgFu_3std4hash6random13DefaultHasherECs4xw9YKG6Q6g_7autocfg, symObjAddr: 0x64C, symBinAddr: 0x10000EB88, symSize: 0x38 }
  - { offset: 0x27471, size: 0x8, addend: 0x0, symName: __RNvNvNtNtCsaNl6UpbT7bw_4core5slice3raw14from_raw_parts18precondition_checkCs4xw9YKG6Q6g_7autocfg, symObjAddr: 0xBF4, symBinAddr: 0x10000EF44, symSize: 0x1DC }
  - { offset: 0x275F5, size: 0x8, addend: 0x0, symName: __RNvNvNtNtCsaNl6UpbT7bw_4core5slice3raw18from_raw_parts_mut18precondition_checkCs4xw9YKG6Q6g_7autocfg, symObjAddr: 0xDD0, symBinAddr: 0x10000F120, symSize: 0x1DC }
  - { offset: 0x2780F, size: 0x8, addend: 0x0, symName: __RNvXs2V_NtNtCsaNl6UpbT7bw_4core5slice4iterINtB6_4IterNtNtCsiTraAjBDcu4_5alloc6string6StringENtNtNtNtBa_4iter6traits8iterator8Iterator4nextCs4xw9YKG6Q6g_7autocfg, symObjAddr: 0x12B0, symBinAddr: 0x10000F5D0, symSize: 0xB0 }
  - { offset: 0x27949, size: 0x8, addend: 0x0, symName: __RNvXs2V_NtNtCsaNl6UpbT7bw_4core5slice4iterINtB6_4IterRNtNtCsht3nMU9UgFu_3std4path7PathBufENtNtNtNtBa_4iter6traits8iterator8Iterator4nextCs4xw9YKG6Q6g_7autocfg, symObjAddr: 0x1360, symBinAddr: 0x10000F680, symSize: 0xB0 }
  - { offset: 0x27A83, size: 0x8, addend: 0x0, symName: __RNvXs2V_NtNtCsaNl6UpbT7bw_4core5slice4iterINtB6_4IterReENtNtNtNtBa_4iter6traits8iterator8Iterator4nextCs4xw9YKG6Q6g_7autocfg, symObjAddr: 0x1410, symBinAddr: 0x10000F730, symSize: 0xB0 }
  - { offset: 0x27BBD, size: 0x8, addend: 0x0, symName: __RNvXs2V_NtNtCsaNl6UpbT7bw_4core5slice4iterINtB6_4IterhENtNtNtNtBa_4iter6traits8iterator8Iterator4nextCs4xw9YKG6Q6g_7autocfg, symObjAddr: 0x14C0, symBinAddr: 0x10000F7E0, symSize: 0xB0 }
  - { offset: 0x27D74, size: 0x8, addend: 0x0, symName: __RNvXs2W_NtNtCsaNl6UpbT7bw_4core5slice4iterINtB6_4IterhENtNtNtNtBa_4iter6traits12double_ended19DoubleEndedIterator9next_backCs4xw9YKG6Q6g_7autocfg, symObjAddr: 0x1570, symBinAddr: 0x10000F890, symSize: 0x108 }
  - { offset: 0x2836C, size: 0x8, addend: 0x0, symName: __RNvXNtCsaNl6UpbT7bw_4core7convertRNtNtCsiTraAjBDcu4_5alloc6string6StringINtB2_5AsRefNtNtNtCsht3nMU9UgFu_3std3ffi6os_str5OsStrE6as_refCs4xw9YKG6Q6g_7autocfg, symObjAddr: 0xFAC, symBinAddr: 0x10000F2FC, symSize: 0x28 }
  - { offset: 0x283AC, size: 0x8, addend: 0x0, symName: __RNvXNtCsaNl6UpbT7bw_4core7convertRNtNtNtCsht3nMU9UgFu_3std3ffi6os_str5OsStrINtB2_5AsRefBw_E6as_refCs4xw9YKG6Q6g_7autocfg, symObjAddr: 0xFD4, symBinAddr: 0x10000F324, symSize: 0x30 }
  - { offset: 0x283EC, size: 0x8, addend: 0x0, symName: __RNvXNtCsaNl6UpbT7bw_4core7convertRNtNtNtCsht3nMU9UgFu_3std3ffi6os_str8OsStringINtB2_5AsRefNtBy_5OsStrE6as_refCs4xw9YKG6Q6g_7autocfg, symObjAddr: 0x1004, symBinAddr: 0x10000F354, symSize: 0x28 }
  - { offset: 0x2842C, size: 0x8, addend: 0x0, symName: __RNvXNtCsaNl6UpbT7bw_4core7convertRNtNtNtCsht3nMU9UgFu_3std3ffi6os_str8OsStringINtB2_5AsRefNtNtBC_4path4PathE6as_refCs4xw9YKG6Q6g_7autocfg, symObjAddr: 0x102C, symBinAddr: 0x10000F37C, symSize: 0x28 }
  - { offset: 0x28472, size: 0x8, addend: 0x0, symName: __RNvXs1_NtCsaNl6UpbT7bw_4core7convertNtNtCsht3nMU9UgFu_3std7process5StdioINtB5_4IntoBy_E4intoCs4xw9YKG6Q6g_7autocfg, symObjAddr: 0x11AC, symBinAddr: 0x10000F4FC, symSize: 0x1C }
  - { offset: 0x284B2, size: 0x8, addend: 0x0, symName: __RNvXs1_NtCsaNl6UpbT7bw_4core7convertNtNtNtCsht3nMU9UgFu_3std3ffi6os_str8OsStringINtB5_4IntoNtNtBE_4path7PathBufE4intoCs4xw9YKG6Q6g_7autocfg, symObjAddr: 0x11C8, symBinAddr: 0x10000F518, symSize: 0x14 }
  - { offset: 0x28509, size: 0x8, addend: 0x0, symName: __RNvNtNtNtNtCsaNl6UpbT7bw_4core9core_arch7aarch644neon9generated7vld1_u8Cs4xw9YKG6Q6g_7autocfg, symObjAddr: 0xAB0, symBinAddr: 0x10000EE00, symSize: 0x34 }
  - { offset: 0x28537, size: 0x8, addend: 0x0, symName: __RNvNtNtNtNtCsaNl6UpbT7bw_4core9core_arch7aarch644neon9generated7vst1_u8Cs4xw9YKG6Q6g_7autocfg, symObjAddr: 0xAE4, symBinAddr: 0x10000EE34, symSize: 0x40 }
  - { offset: 0x28571, size: 0x8, addend: 0x0, symName: __RNvNtNtNtNtCsaNl6UpbT7bw_4core9core_arch7aarch644neon9generated8vcgez_s8Cs4xw9YKG6Q6g_7autocfg, symObjAddr: 0xB24, symBinAddr: 0x10000EE74, symSize: 0x68 }
  - { offset: 0x28613, size: 0x8, addend: 0x0, symName: __RNvNtNtNtNtCsaNl6UpbT7bw_4core9core_arch7aarch644neon9generated8vcltz_s8Cs4xw9YKG6Q6g_7autocfg, symObjAddr: 0xB8C, symBinAddr: 0x10000EEDC, symSize: 0x68 }
  - { offset: 0x28A93, size: 0x8, addend: 0x0, symName: __RNvXs19_NtCsaNl6UpbT7bw_4core3fmtRNtNtCsht3nMU9UgFu_3std7process10ExitStatusNtB6_5Debug3fmtCs4xw9YKG6Q6g_7autocfg, symObjAddr: 0x10CC, symBinAddr: 0x10000F41C, symSize: 0x30 }
  - { offset: 0x28AD9, size: 0x8, addend: 0x0, symName: __RNvXs19_NtCsaNl6UpbT7bw_4core3fmtRNtNtNtB8_3num5error13ParseIntErrorNtB6_5Debug3fmtCs4xw9YKG6Q6g_7autocfg, symObjAddr: 0x10FC, symBinAddr: 0x10000F44C, symSize: 0x30 }
  - { offset: 0x28B1F, size: 0x8, addend: 0x0, symName: __RNvXs19_NtCsaNl6UpbT7bw_4core3fmtRNtNtNtCsht3nMU9UgFu_3std2io5error5ErrorNtB6_5Debug3fmtCs4xw9YKG6Q6g_7autocfg, symObjAddr: 0x112C, symBinAddr: 0x10000F47C, symSize: 0x30 }
  - { offset: 0x28D27, size: 0x8, addend: 0x0, symName: __RNvXsb_NtCsaNl6UpbT7bw_4core5arrayRARej2_NtNtNtNtB7_4iter6traits7collect12IntoIterator9into_iterCs4xw9YKG6Q6g_7autocfg, symObjAddr: 0x1AC0, symBinAddr: 0x10000FD08, symSize: 0x58 }
  - { offset: 0x2941C, size: 0x8, addend: 0x0, symName: __RNvXs1V_NtCsiTraAjBDcu4_5alloc6stringeNtB6_12SpecToString14spec_to_stringCs4xw9YKG6Q6g_7autocfg, symObjAddr: 0x115C, symBinAddr: 0x10000F4AC, symSize: 0x50 }
  - { offset: 0x29545, size: 0x8, addend: 0x0, symName: __RNvXss_NtCsiTraAjBDcu4_5alloc6stringNtB5_6StringNtNtNtCsaNl6UpbT7bw_4core3ops5deref5Deref5derefCs4xw9YKG6Q6g_7autocfg, symObjAddr: 0x1C04, symBinAddr: 0x10000FDC4, symSize: 0x24 }
  - { offset: 0x29579, size: 0x8, addend: 0x0, symName: __RNvXsw_NtCsiTraAjBDcu4_5alloc6stringeNtB5_8ToString9to_stringCs4xw9YKG6Q6g_7autocfg, symObjAddr: 0x1C28, symBinAddr: 0x10000FDE8, symSize: 0x28 }
  - { offset: 0x29764, size: 0x8, addend: 0x0, symName: __RNvXs2_NtCsiTraAjBDcu4_5alloc3streNtNtB7_6borrow7ToOwned8to_ownedCs4xw9YKG6Q6g_7autocfg, symObjAddr: 0x1678, symBinAddr: 0x10000F998, symSize: 0x50 }
  - { offset: 0x299AB, size: 0x8, addend: 0x0, symName: __RINvMsk_NtCsht3nMU9UgFu_3std7processNtB6_7Command3argRNtNtB8_4path7PathBufECs4xw9YKG6Q6g_7autocfg, symObjAddr: 0x0, symBinAddr: 0x10000E5DC, symSize: 0x6C }
  - { offset: 0x299F3, size: 0x8, addend: 0x0, symName: __RINvMsk_NtCsht3nMU9UgFu_3std7processNtB6_7Command3argRNtNtCsiTraAjBDcu4_5alloc6string6StringECs4xw9YKG6Q6g_7autocfg, symObjAddr: 0x6C, symBinAddr: 0x10000E648, symSize: 0x6C }
  - { offset: 0x29A55, size: 0x8, addend: 0x0, symName: __RINvMsk_NtCsht3nMU9UgFu_3std7processNtB6_7Command3argRNtNtNtB8_3ffi6os_str5OsStrECs4xw9YKG6Q6g_7autocfg, symObjAddr: 0xD8, symBinAddr: 0x10000E6B4, symSize: 0x70 }
  - { offset: 0x29A9D, size: 0x8, addend: 0x0, symName: __RINvMsk_NtCsht3nMU9UgFu_3std7processNtB6_7Command3argRNtNtNtB8_3ffi6os_str8OsStringECs4xw9YKG6Q6g_7autocfg, symObjAddr: 0x148, symBinAddr: 0x10000E724, symSize: 0x6C }
  - { offset: 0x29AF6, size: 0x8, addend: 0x0, symName: __RINvMsk_NtCsht3nMU9UgFu_3std7processNtB6_7Command3argReECs4xw9YKG6Q6g_7autocfg, symObjAddr: 0x1B4, symBinAddr: 0x10000E790, symSize: 0x70 }
  - { offset: 0x29B31, size: 0x8, addend: 0x0, symName: __RINvMsk_NtCsht3nMU9UgFu_3std7processNtB6_7Command3newRNtNtB8_4path7PathBufECs4xw9YKG6Q6g_7autocfg, symObjAddr: 0x224, symBinAddr: 0x10000E800, symSize: 0x80 }
  - { offset: 0x29B84, size: 0x8, addend: 0x0, symName: __RINvMsk_NtCsht3nMU9UgFu_3std7processNtB6_7Command4argsRARNtNtB8_4path7PathBufj2_RBS_ECs4xw9YKG6Q6g_7autocfg, symObjAddr: 0x2A4, symBinAddr: 0x10000E880, symSize: 0xD4 }
  - { offset: 0x29C1B, size: 0x8, addend: 0x0, symName: __RINvMsk_NtCsht3nMU9UgFu_3std7processNtB6_7Command4argsRARej2_RBS_ECs4xw9YKG6Q6g_7autocfg, symObjAddr: 0x378, symBinAddr: 0x10000E954, symSize: 0xD4 }
  - { offset: 0x29C98, size: 0x8, addend: 0x0, symName: __RINvMsk_NtCsht3nMU9UgFu_3std7processNtB6_7Command4argsRINtNtCsiTraAjBDcu4_5alloc3vec3VecNtNtBW_6string6StringERB1o_ECs4xw9YKG6Q6g_7autocfg, symObjAddr: 0x44C, symBinAddr: 0x10000EA28, symSize: 0xD4 }
  - { offset: 0x29D08, size: 0x8, addend: 0x0, symName: __RINvMsk_NtCsht3nMU9UgFu_3std7processNtB6_7Command5stdinNtB6_5StdioECs4xw9YKG6Q6g_7autocfg, symObjAddr: 0x520, symBinAddr: 0x10000EAFC, symSize: 0x5C }
  - { offset: 0x29E76, size: 0x8, addend: 0x0, symName: __RNvMNtCsiTraAjBDcu4_5alloc6stringNtB2_6String6as_strCs4xw9YKG6Q6g_7autocfg, symObjAddr: 0x870, symBinAddr: 0x10000EBC0, symSize: 0x78 }
  - { offset: 0x29FAB, size: 0x8, addend: 0x0, symName: __RNvMNtCsiTraAjBDcu4_5alloc6stringNtB2_6String8is_emptyCs4xw9YKG6Q6g_7autocfg, symObjAddr: 0x8E8, symBinAddr: 0x10000EC38, symSize: 0x20 }
  - { offset: 0x2A01D, size: 0x8, addend: 0x0, symName: __RNvMs0_NtNtCsht3nMU9UgFu_3std3ffi6os_strNtB5_8OsString3newCs4xw9YKG6Q6g_7autocfg, symObjAddr: 0x908, symBinAddr: 0x10000EC58, symSize: 0x40 }
  - { offset: 0x2A0B2, size: 0x8, addend: 0x0, symName: __RNvMs1G_NtNtCsaNl6UpbT7bw_4core4sync6atomicNtB6_11AtomicUsize9fetch_addCs4xw9YKG6Q6g_7autocfg, symObjAddr: 0x948, symBinAddr: 0x10000EC98, symSize: 0xE0 }
  - { offset: 0x2A1FF, size: 0x8, addend: 0x0, symName: __RNvMsI_NtCsht3nMU9UgFu_3std7processNtB5_10ExitStatus7successCs4xw9YKG6Q6g_7autocfg, symObjAddr: 0xA28, symBinAddr: 0x10000ED78, symSize: 0x70 }
  - { offset: 0x2A2D6, size: 0x8, addend: 0x0, symName: __RNvMsv_NtCsht3nMU9UgFu_3std7processNtB5_5Stdio5pipedCs4xw9YKG6Q6g_7autocfg, symObjAddr: 0xA98, symBinAddr: 0x10000EDE8, symSize: 0x18 }
  - { offset: 0x2AD3C, size: 0x8, addend: 0x0, symName: __RNCNvMNtCs4xw9YKG6Q6g_7autocfg7versionNtB4_7Version12from_command0B6_, symObjAddr: 0x2B20, symBinAddr: 0x100010B48, symSize: 0x50 }
  - { offset: 0x2AD72, size: 0x8, addend: 0x0, symName: __RNCNvMNtCs4xw9YKG6Q6g_7autocfg7versionNtB4_7Version12from_commands_0B6_, symObjAddr: 0x2C30, symBinAddr: 0x100010B98, symSize: 0x3C }
  - { offset: 0x2AD9A, size: 0x8, addend: 0x0, symName: __RNCNvMNtCs4xw9YKG6Q6g_7autocfg7versionNtB4_7Version12from_commands0_0B6_, symObjAddr: 0x2C6C, symBinAddr: 0x100010BD4, symSize: 0x3C }
  - { offset: 0x2ADC2, size: 0x8, addend: 0x0, symName: __RNCNvMNtCs4xw9YKG6Q6g_7autocfg7versionNtB4_7Version12from_commands1_0B6_, symObjAddr: 0x2CA8, symBinAddr: 0x100010C10, symSize: 0x3C }
  - { offset: 0x2AEEA, size: 0x8, addend: 0x0, symName: __RNvMNtCs4xw9YKG6Q6g_7autocfg7versionNtB2_7Version3new, symObjAddr: 0x22DC, symBinAddr: 0x100010304, symSize: 0x34 }
  - { offset: 0x2AF28, size: 0x8, addend: 0x0, symName: __RNvMNtCs4xw9YKG6Q6g_7autocfg7versionNtB2_7Version12from_command, symObjAddr: 0x2310, symBinAddr: 0x100010338, symSize: 0x810 }
  - { offset: 0x2B1FC, size: 0x8, addend: 0x0, symName: __RINvMs0_NtNtNtNtCsht3nMU9UgFu_3std3sys12thread_local6native4lazyINtB6_7StorageINtNtCsaNl6UpbT7bw_4core4cell4CellTyyEEzE11get_or_initNvNvNvMNtNtBe_4hash6randomNtB2d_11RandomState3new4KEYS6___initECs4xw9YKG6Q6g_7autocfg, symObjAddr: 0x0, symBinAddr: 0x100010C4C, symSize: 0xA4 }
  - { offset: 0x2B3CE, size: 0x8, addend: 0x0, symName: __RNvNvMs9_NtCsaNl6UpbT7bw_4core3numj13unchecked_add18precondition_checkCs4xw9YKG6Q6g_7autocfg, symObjAddr: 0x1E24, symBinAddr: 0x100012720, symSize: 0xB0 }
  - { offset: 0x2B462, size: 0x8, addend: 0x0, symName: __RNvNvMs9_NtCsaNl6UpbT7bw_4core3numj13unchecked_sub18precondition_checkCs4xw9YKG6Q6g_7autocfg, symObjAddr: 0x1ED4, symBinAddr: 0x1000127D0, symSize: 0xAC }
  - { offset: 0x2B4D1, size: 0x8, addend: 0x0, symName: __RNvMsu_NtCsaNl6UpbT7bw_4core3numj16from_ascii_radixCs4xw9YKG6Q6g_7autocfg, symObjAddr: 0x1444, symBinAddr: 0x100011D44, symSize: 0x574 }
  - { offset: 0x2B769, size: 0x8, addend: 0x0, symName: __RNvNvMs3_NtCsaNl6UpbT7bw_4core3numi13unchecked_neg18precondition_checkCs4xw9YKG6Q6g_7autocfg, symObjAddr: 0x1CBC, symBinAddr: 0x1000125B8, symSize: 0xB8 }
  - { offset: 0x2B835, size: 0x8, addend: 0x0, symName: __RNvNvMs7_NtCsaNl6UpbT7bw_4core3numy13unchecked_add18precondition_checkCs4xw9YKG6Q6g_7autocfg, symObjAddr: 0x1D74, symBinAddr: 0x100012670, symSize: 0xB0 }
  - { offset: 0x2B8CA, size: 0x8, addend: 0x0, symName: __RNvXst_NtCsaNl6UpbT7bw_4core3numjNtNtNtB7_3str6traits7FromStr8from_strCs4xw9YKG6Q6g_7autocfg, symObjAddr: 0x27F8, symBinAddr: 0x100013000, symSize: 0x30 }
  - { offset: 0x2C105, size: 0x8, addend: 0x0, symName: __RNvNvMs1_NtNtCsaNl6UpbT7bw_4core3ptr8non_nullINtB7_7NonNullpE13new_unchecked18precondition_checkCs4xw9YKG6Q6g_7autocfg, symObjAddr: 0x1C18, symBinAddr: 0x100012514, symSize: 0xA4 }
  - { offset: 0x2D57F, size: 0x8, addend: 0x0, symName: __RINvYINtNtNtCsaNl6UpbT7bw_4core3str4iter5SplitcENtNtNtNtBa_4iter6traits8iterator8Iterator3mapNtNtCsiTraAjBDcu4_5alloc6string6StringNvYeNtB1v_8ToString9to_stringECs4xw9YKG6Q6g_7autocfg, symObjAddr: 0x618, symBinAddr: 0x100010FE8, symSize: 0x30 }
  - { offset: 0x2D5ED, size: 0x8, addend: 0x0, symName: __RINvYINtNtNtCsaNl6UpbT7bw_4core3str4iter5SplitcENtNtNtNtBa_4iter6traits8iterator8Iterator3mapReNvMB8_e4trimECs4xw9YKG6Q6g_7autocfg, symObjAddr: 0x648, symBinAddr: 0x100011018, symSize: 0x30 }
  - { offset: 0x2D65B, size: 0x8, addend: 0x0, symName: __RINvYINtNtNtCsaNl6UpbT7bw_4core3str4iter5SplitcENtNtNtNtBa_4iter6traits8iterator8Iterator8try_folduNCINvNtNtBQ_8adapters3map12map_try_foldReB2c_uINtNtNtBa_3ops12control_flow11ControlFlowB2c_ENvMB8_e4trimNCINvNvBK_4find5checkB2c_QNCNvCs4xw9YKG6Q6g_7autocfg9rustflags0E0E0B2j_EB3J_, symObjAddr: 0x678, symBinAddr: 0x100011048, symSize: 0x198 }
  - { offset: 0x2D711, size: 0x8, addend: 0x0, symName: __RINvYNtNtNtCsaNl6UpbT7bw_4core3str4iter5LinesNtNtNtNtB9_4iter6traits8iterator8Iterator4findNCNvMNtCs4xw9YKG6Q6g_7autocfg7versionNtB1w_7Version12from_command0EB1y_, symObjAddr: 0x8E0, symBinAddr: 0x1000111E0, symSize: 0x84 }
  - { offset: 0x2D78C, size: 0x8, addend: 0x0, symName: __RINvYNtNtNtCsaNl6UpbT7bw_4core3str4iter5LinesNtNtNtNtB9_4iter6traits8iterator8Iterator8try_folduNCINvNvBH_4find5checkReNCNvMNtCs4xw9YKG6Q6g_7autocfg7versionNtB1Y_7Version12from_command0E0INtNtNtB9_3ops12control_flow11ControlFlowB1R_EEB20_, symObjAddr: 0x964, symBinAddr: 0x100011264, symSize: 0x190 }
  - { offset: 0x2D842, size: 0x8, addend: 0x0, symName: __RNvYINtNtNtCsaNl6UpbT7bw_4core3str4iter5SplitcENtNtNtNtB9_4iter6traits8iterator8Iterator9size_hintCs4xw9YKG6Q6g_7autocfg, symObjAddr: 0x2828, symBinAddr: 0x100013030, symSize: 0x34 }
  - { offset: 0x2DA19, size: 0x8, addend: 0x0, symName: __RNvXs1i_NtNtCsaNl6UpbT7bw_4core3str4iterINtB6_6SplitNcENtNtNtNtBa_4iter6traits8iterator8Iterator4nextCs4xw9YKG6Q6g_7autocfg, symObjAddr: 0x20A4, symBinAddr: 0x1000128AC, symSize: 0x24 }
  - { offset: 0x2DA6B, size: 0x8, addend: 0x0, symName: __RNvXs3_NtNtCsaNl6UpbT7bw_4core3str4iterNtB5_11CharIndicesNtNtNtNtB9_4iter6traits8iterator8Iterator4nextCs4xw9YKG6Q6g_7autocfg, symObjAddr: 0x20C8, symBinAddr: 0x1000128D0, symSize: 0x130 }
  - { offset: 0x2DCA4, size: 0x8, addend: 0x0, symName: __RNvXs4_NtNtCsaNl6UpbT7bw_4core3str4iterNtB5_11CharIndicesNtNtNtNtB9_4iter6traits12double_ended19DoubleEndedIterator9next_backCs4xw9YKG6Q6g_7autocfg, symObjAddr: 0x2220, symBinAddr: 0x100012A28, symSize: 0x14C }
  - { offset: 0x2DDF7, size: 0x8, addend: 0x0, symName: __RNvXsH_NtNtCsaNl6UpbT7bw_4core3str4iterINtB5_14SplitInclusivecENtNtNtNtB9_4iter6traits8iterator8Iterator4nextCs4xw9YKG6Q6g_7autocfg, symObjAddr: 0x2744, symBinAddr: 0x100012F4C, symSize: 0x24 }
  - { offset: 0x2DE34, size: 0x8, addend: 0x0, symName: __RNvXsX_NtNtCsaNl6UpbT7bw_4core3str4iterINtB5_5SplitcENtNtNtNtB9_4iter6traits8iterator8Iterator4nextCs4xw9YKG6Q6g_7autocfg, symObjAddr: 0x2768, symBinAddr: 0x100012F70, symSize: 0x24 }
  - { offset: 0x2DE71, size: 0x8, addend: 0x0, symName: __RNvXss_NtNtCsaNl6UpbT7bw_4core3str4iterNtB5_5LinesNtNtNtNtB9_4iter6traits8iterator8Iterator4nextCs4xw9YKG6Q6g_7autocfg, symObjAddr: 0x27D4, symBinAddr: 0x100012FDC, symSize: 0x24 }
  - { offset: 0x2DF6E, size: 0x8, addend: 0x0, symName: __RNvXs3_NtNtCsaNl6UpbT7bw_4core3str7patternNvMNtNtB9_4char7methodsc13is_whitespaceNtB5_11MultiCharEq7matchesCs4xw9YKG6Q6g_7autocfg, symObjAddr: 0x21F8, symBinAddr: 0x100012A00, symSize: 0x28 }
  - { offset: 0x2DFBA, size: 0x8, addend: 0x0, symName: __RNvXsr_NtNtCsaNl6UpbT7bw_4core3str7patternNvMNtNtB9_4char7methodsc13is_whitespaceNtB5_7Pattern13into_searcherCs4xw9YKG6Q6g_7autocfg, symObjAddr: 0x278C, symBinAddr: 0x100012F94, symSize: 0x48 }
  - { offset: 0x2E1E8, size: 0x8, addend: 0x0, symName: __RNvMNtNtCsaNl6UpbT7bw_4core4char7methodsc13is_whitespaceCs4xw9YKG6Q6g_7autocfg, symObjAddr: 0xAF4, symBinAddr: 0x1000113F4, symSize: 0x90 }
  - { offset: 0x2E22C, size: 0x8, addend: 0x0, symName: __RNvMNtNtCsaNl6UpbT7bw_4core4char7methodsc8to_digitCs4xw9YKG6Q6g_7autocfg, symObjAddr: 0xB84, symBinAddr: 0x100011484, symSize: 0x14C }
  - { offset: 0x2E364, size: 0x8, addend: 0x0, symName: __RNvNtNtCsaNl6UpbT7bw_4core4char7methods15encode_utf8_rawCs4xw9YKG6Q6g_7autocfg, symObjAddr: 0x19BC, symBinAddr: 0x1000122B8, symSize: 0x110 }
  - { offset: 0x2E464, size: 0x8, addend: 0x0, symName: __RNvNtNtCsaNl6UpbT7bw_4core4char7methods25encode_utf8_raw_uncheckedCs4xw9YKG6Q6g_7autocfg, symObjAddr: 0x1ACC, symBinAddr: 0x1000123C8, symSize: 0x14C }
  - { offset: 0x2E7CC, size: 0x8, addend: 0x0, symName: __RNvXs19_NtCsaNl6UpbT7bw_4core3fmtRNtNtNtNtNtCsht3nMU9UgFu_3std3sys7process4unix4unix10ExitStatusNtB6_5Debug3fmtCs4xw9YKG6Q6g_7autocfg, symObjAddr: 0x2074, symBinAddr: 0x10001287C, symSize: 0x30 }
  - { offset: 0x2EBA8, size: 0x8, addend: 0x0, symName: __RINvXNtNtNtNtCsht3nMU9UgFu_3std3sys12thread_local6native4lazyzNtB3_14DestroyedState13register_dtorINtNtCsaNl6UpbT7bw_4core4cell4CellTyyEEECs4xw9YKG6Q6g_7autocfg, symObjAddr: 0x528, symBinAddr: 0x100010EF8, symSize: 0x10 }
  - { offset: 0x2ED05, size: 0x8, addend: 0x0, symName: __RINvNtCsht3nMU9UgFu_3std3env3varReECs4xw9YKG6Q6g_7autocfg, symObjAddr: 0x458, symBinAddr: 0x100010E28, symSize: 0x68 }
  - { offset: 0x2ED3A, size: 0x8, addend: 0x0, symName: __RINvNtCsht3nMU9UgFu_3std3env6var_osReECs4xw9YKG6Q6g_7autocfg, symObjAddr: 0x4C0, symBinAddr: 0x100010E90, symSize: 0x68 }
  - { offset: 0x2EEAD, size: 0x8, addend: 0x0, symName: __RINvMs0_NtNtNtNtCsht3nMU9UgFu_3std3sys12thread_local6native4lazyINtB6_7StorageINtNtCsaNl6UpbT7bw_4core4cell4CellTyyEEzE11get_or_initNvNvNvMNtNtBe_4hash6randomNtB2d_11RandomState3new4KEYS6___initECs4xw9YKG6Q6g_7autocfg, symObjAddr: 0x0, symBinAddr: 0x100010C4C, symSize: 0xA4 }
  - { offset: 0x2F0CF, size: 0x8, addend: 0x0, symName: __RINvMs0_NtNtNtNtCsht3nMU9UgFu_3std3sys12thread_local6native4lazyINtB6_7StorageINtNtCsaNl6UpbT7bw_4core4cell4CellTyyEEzE16get_or_init_slowNvNvNvMNtNtBe_4hash6randomNtB2i_11RandomState3new4KEYS6___initECs4xw9YKG6Q6g_7autocfg, symObjAddr: 0xA4, symBinAddr: 0x100054278, symSize: 0x220 }
  - { offset: 0x2F3B8, size: 0x8, addend: 0x0, symName: __RINvMs2_NtNtCsht3nMU9UgFu_3std6thread5localINtB6_8LocalKeyINtNtCsaNl6UpbT7bw_4core4cell4CellTyyEEE4withNCNvMNtNtBa_4hash6randomNtB1I_11RandomState3new0B21_ECs4xw9YKG6Q6g_7autocfg, symObjAddr: 0x2C4, symBinAddr: 0x100010CF0, symSize: 0x50 }
  - { offset: 0x2F471, size: 0x8, addend: 0x0, symName: __RINvMs2_NtNtCsht3nMU9UgFu_3std6thread5localINtB6_8LocalKeyINtNtCsaNl6UpbT7bw_4core4cell4CellTyyEEE8try_withNCNvMNtNtBa_4hash6randomNtB1M_11RandomState3new0B25_ECs4xw9YKG6Q6g_7autocfg, symObjAddr: 0x314, symBinAddr: 0x100010D40, symSize: 0xE8 }
  - { offset: 0x2F7A1, size: 0x8, addend: 0x0, symName: __RINvXs_NvMNtCsiTraAjBDcu4_5alloc5sliceSp9to_vec_inhNtB5_10ConvertVec6to_vecNtNtBa_5alloc6GlobalECs4xw9YKG6Q6g_7autocfg, symObjAddr: 0x538, symBinAddr: 0x100010F08, symSize: 0xE0 }
  - { offset: 0x2F999, size: 0x8, addend: 0x0, symName: __RNvXs6_NtCsiTraAjBDcu4_5alloc5boxedINtB5_3BoxDINtNtNtCsaNl6UpbT7bw_4core3ops8function5FnMutuEp6OutputINtNtBP_6result6ResultuNtNtNtCsht3nMU9UgFu_3std2io5error5ErrorENtNtBP_6marker4SyncNtB2E_4SendEL_ENtNtBN_4drop4Drop4dropCs4xw9YKG6Q6g_7autocfg, symObjAddr: 0x236C, symBinAddr: 0x100012B74, symSize: 0xCC }
  - { offset: 0x2FAD0, size: 0x8, addend: 0x0, symName: __RNvXs6_NtCsiTraAjBDcu4_5alloc5boxedINtB5_3BoxDNtNtCsaNl6UpbT7bw_4core5error5ErrorNtNtBM_6marker4SyncNtB1j_4SendEL_ENtNtNtBM_3ops4drop4Drop4dropCs4xw9YKG6Q6g_7autocfg, symObjAddr: 0x2438, symBinAddr: 0x100012C40, symSize: 0xCC }
  - { offset: 0x2FC07, size: 0x8, addend: 0x0, symName: __RNvXs6_NtCsiTraAjBDcu4_5alloc5boxedINtB5_3BoxNtNtNtCsht3nMU9UgFu_3std2io5error6CustomENtNtNtCsaNl6UpbT7bw_4core3ops4drop4Drop4dropCs4xw9YKG6Q6g_7autocfg, symObjAddr: 0x2504, symBinAddr: 0x100012D0C, symSize: 0xB8 }
  - { offset: 0x2FD3E, size: 0x8, addend: 0x0, symName: __RNvXs6_NtCsiTraAjBDcu4_5alloc5boxedINtB5_3BoxShENtNtNtCsaNl6UpbT7bw_4core3ops4drop4Drop4dropCs4xw9YKG6Q6g_7autocfg, symObjAddr: 0x25BC, symBinAddr: 0x100012DC4, symSize: 0xC4 }
  - { offset: 0x2FE75, size: 0x8, addend: 0x0, symName: __RNvXs6_NtCsiTraAjBDcu4_5alloc5boxedINtB5_3BoxSmENtNtNtCsaNl6UpbT7bw_4core3ops4drop4Drop4dropCs4xw9YKG6Q6g_7autocfg, symObjAddr: 0x2680, symBinAddr: 0x100012E88, symSize: 0xC4 }
  - { offset: 0x3030A, size: 0x8, addend: 0x0, symName: __RNvMNtNtNtCsaNl6UpbT7bw_4core4iter8adapters7step_byINtB2_6StepByINtNtNtB8_3ops5range5RangejEE3newCs4xw9YKG6Q6g_7autocfg, symObjAddr: 0xCD0, symBinAddr: 0x1000115D0, symSize: 0xE0 }
  - { offset: 0x30429, size: 0x8, addend: 0x0, symName: __RNvMNtNtNtCsg4dki62PTrg_9hashbrown7control5group4neonNtB2_5Group10match_fullCs4xw9YKG6Q6g_7autocfg, symObjAddr: 0xDB0, symBinAddr: 0x1000116B0, symSize: 0x68 }
  - { offset: 0x30461, size: 0x8, addend: 0x0, symName: __RNvMNtNtNtCsg4dki62PTrg_9hashbrown7control5group4neonNtB2_5Group22match_empty_or_deletedCs4xw9YKG6Q6g_7autocfg, symObjAddr: 0xE18, symBinAddr: 0x100011718, symSize: 0x68 }
  - { offset: 0x30499, size: 0x8, addend: 0x0, symName: __RNvMNtNtNtCsg4dki62PTrg_9hashbrown7control5group4neonNtB2_5Group44convert_special_to_empty_and_full_to_deletedCs4xw9YKG6Q6g_7autocfg, symObjAddr: 0xE80, symBinAddr: 0x100011780, symSize: 0x88 }
  - { offset: 0x304D1, size: 0x8, addend: 0x0, symName: __RNvMNtNtNtCsg4dki62PTrg_9hashbrown7control5group4neonNtB2_5Group9match_tagCs4xw9YKG6Q6g_7autocfg, symObjAddr: 0xF08, symBinAddr: 0x100011808, symSize: 0x7C }
  - { offset: 0x3053B, size: 0x8, addend: 0x0, symName: __RNvMs1_NtNtCsaNl6UpbT7bw_4core3ptr8non_nullINtB5_7NonNullhE20offset_from_unsignedCs4xw9YKG6Q6g_7autocfg, symObjAddr: 0xF84, symBinAddr: 0x100011884, symSize: 0x7C }
  - { offset: 0x30654, size: 0x8, addend: 0x0, symName: __RNvMsf_NtNtCsaNl6UpbT7bw_4core3str4iterINtB5_13SplitInternalcE14next_inclusiveCs4xw9YKG6Q6g_7autocfg, symObjAddr: 0x1000, symBinAddr: 0x100011900, symSize: 0x130 }
  - { offset: 0x3077F, size: 0x8, addend: 0x0, symName: __RNvMsf_NtNtCsaNl6UpbT7bw_4core3str4iterINtB5_13SplitInternalcE4nextCs4xw9YKG6Q6g_7autocfg, symObjAddr: 0x1130, symBinAddr: 0x100011A30, symSize: 0x140 }
  - { offset: 0x308BB, size: 0x8, addend: 0x0, symName: __RNvMsf_NtNtCsaNl6UpbT7bw_4core3str4iterINtB5_13SplitInternalcE7get_endCs4xw9YKG6Q6g_7autocfg, symObjAddr: 0x1270, symBinAddr: 0x100011B70, symSize: 0x128 }
  - { offset: 0x309C6, size: 0x8, addend: 0x0, symName: __RNvMsl_NtNtCsaNl6UpbT7bw_4core3str4iterINtB5_14SplitNInternalcE4nextCs4xw9YKG6Q6g_7autocfg, symObjAddr: 0x1398, symBinAddr: 0x100011C98, symSize: 0xAC }
  - { offset: 0x31178, size: 0x8, addend: 0x0, symName: __RINvNtCsaNl6UpbT7bw_4core3mem4dropNtNtCsht3nMU9UgFu_3std7process10ChildStdinECs4xw9YKG6Q6g_7autocfg, symObjAddr: 0x0, symBinAddr: 0x100013064, symSize: 0x28 }
  - { offset: 0x31629, size: 0x8, addend: 0x0, symName: __RINvNtCsaNl6UpbT7bw_4core3mem4dropNtNtCsht3nMU9UgFu_3std7process10ChildStdinECs4xw9YKG6Q6g_7autocfg, symObjAddr: 0x0, symBinAddr: 0x100013064, symSize: 0x28 }
  - { offset: 0x31A39, size: 0x8, addend: 0x0, symName: __RINvNtCsaNl6UpbT7bw_4core3ptr10swap_chunkKj1_ECs4xw9YKG6Q6g_7autocfg, symObjAddr: 0x28, symBinAddr: 0x10001308C, symSize: 0x3C }
  - { offset: 0x31A72, size: 0x8, addend: 0x0, symName: __RINvNtCsaNl6UpbT7bw_4core3ptr10swap_chunkKj2_ECs4xw9YKG6Q6g_7autocfg, symObjAddr: 0x64, symBinAddr: 0x1000130C8, symSize: 0x3C }
  - { offset: 0x31AAB, size: 0x8, addend: 0x0, symName: __RINvNtCsaNl6UpbT7bw_4core3ptr10swap_chunkKj4_ECs4xw9YKG6Q6g_7autocfg, symObjAddr: 0xA0, symBinAddr: 0x100013104, symSize: 0x3C }
  - { offset: 0x31AE4, size: 0x8, addend: 0x0, symName: __RINvNtCsaNl6UpbT7bw_4core3ptr10swap_chunkKj8_ECs4xw9YKG6Q6g_7autocfg, symObjAddr: 0xDC, symBinAddr: 0x100013140, symSize: 0x3C }
  - { offset: 0x31B58, size: 0x8, addend: 0x0, symName: __RINvNtCsaNl6UpbT7bw_4core3ptr14read_unalignedNtNtNtNtB4_9core_arch10arm_shared4neon9uint8x8_tECs4xw9YKG6Q6g_7autocfg, symObjAddr: 0x118, symBinAddr: 0x10001317C, symSize: 0x94 }
  - { offset: 0x31C67, size: 0x8, addend: 0x0, symName: __RINvNtCsaNl6UpbT7bw_4core3ptr15write_unalignedNtNtNtNtB4_9core_arch10arm_shared4neon9uint8x8_tECs4xw9YKG6Q6g_7autocfg, symObjAddr: 0x1AC, symBinAddr: 0x100013210, symSize: 0x78 }
  - { offset: 0x31E01, size: 0x8, addend: 0x0, symName: __RNvNvNtCsaNl6UpbT7bw_4core3ptr19swap_nonoverlapping18precondition_checkCs4xw9YKG6Q6g_7autocfg, symObjAddr: 0xF90, symBinAddr: 0x100013F34, symSize: 0x38C }
  - { offset: 0x320E1, size: 0x8, addend: 0x0, symName: __RINvNtCsaNl6UpbT7bw_4core3ptr19swap_nonoverlappinghECs4xw9YKG6Q6g_7autocfg, symObjAddr: 0x2E4, symBinAddr: 0x100013288, symSize: 0xBC }
  - { offset: 0x322C6, size: 0x8, addend: 0x0, symName: __RINvNvNtCsaNl6UpbT7bw_4core3ptr25swap_nonoverlapping_bytes26swap_nonoverlapping_chunksKj8_ECs4xw9YKG6Q6g_7autocfg, symObjAddr: 0x4FC, symBinAddr: 0x1000134A0, symSize: 0xE4 }
  - { offset: 0x32464, size: 0x8, addend: 0x0, symName: __RNvNvNtCsaNl6UpbT7bw_4core3ptr25swap_nonoverlapping_bytes25swap_nonoverlapping_shortCs4xw9YKG6Q6g_7autocfg, symObjAddr: 0x131C, symBinAddr: 0x1000142C0, symSize: 0x120 }
  - { offset: 0x32656, size: 0x8, addend: 0x0, symName: __RNvNtCsaNl6UpbT7bw_4core3ptr25swap_nonoverlapping_bytesCs4xw9YKG6Q6g_7autocfg, symObjAddr: 0x844, symBinAddr: 0x1000137E8, symSize: 0xD8 }
  - { offset: 0x32A27, size: 0x8, addend: 0x0, symName: __RNvNvNtCsaNl6UpbT7bw_4core3ptr19copy_nonoverlapping18precondition_checkCs4xw9YKG6Q6g_7autocfg, symObjAddr: 0xC24, symBinAddr: 0x100013BC8, symSize: 0x36C }
  - { offset: 0x32CDA, size: 0x8, addend: 0x0, symName: __RNvNvNtCsaNl6UpbT7bw_4core3ptr7replace18precondition_checkCs4xw9YKG6Q6g_7autocfg, symObjAddr: 0x143C, symBinAddr: 0x1000143E0, symSize: 0x16C }
  - { offset: 0x33664, size: 0x8, addend: 0x0, symName: __RINvYNtNtNtCsht3nMU9UgFu_3std4hash6random11RandomStateNtNtCsaNl6UpbT7bw_4core4hash11BuildHasher8hash_oneRyECs4xw9YKG6Q6g_7autocfg, symObjAddr: 0x5E0, symBinAddr: 0x100013584, symSize: 0x84 }
  - { offset: 0x337B3, size: 0x8, addend: 0x0, symName: __RNvNtNtCsaNl6UpbT7bw_4core4hash3sip9u8to64_leCs4xw9YKG6Q6g_7autocfg, symObjAddr: 0x91C, symBinAddr: 0x1000138C0, symSize: 0x240 }
  - { offset: 0x339E4, size: 0x8, addend: 0x0, symName: __RNvXs3_NtNtCsaNl6UpbT7bw_4core4hash3sipINtB5_6HasherNtB5_11Sip13RoundsENtB7_6Hasher5writeCs4xw9YKG6Q6g_7autocfg, symObjAddr: 0x1808, symBinAddr: 0x10001478C, symSize: 0x238 }
  - { offset: 0x33B5A, size: 0x8, addend: 0x0, symName: __RNvXs3_NtNtCsaNl6UpbT7bw_4core4hash3sipINtB5_6HasherNtB5_11Sip13RoundsENtB7_6Hasher6finishCs4xw9YKG6Q6g_7autocfg, symObjAddr: 0x1A40, symBinAddr: 0x1000149C4, symSize: 0xA0 }
  - { offset: 0x33BD3, size: 0x8, addend: 0x0, symName: __RNvXs6_NtNtCsaNl6UpbT7bw_4core4hash3sipNtB5_11Sip13RoundsNtB5_3Sip8c_roundsCs4xw9YKG6Q6g_7autocfg, symObjAddr: 0x1B3C, symBinAddr: 0x100014AC0, symSize: 0x170 }
  - { offset: 0x33D49, size: 0x8, addend: 0x0, symName: __RNvXs6_NtNtCsaNl6UpbT7bw_4core4hash3sipNtB5_11Sip13RoundsNtB5_3Sip8d_roundsCs4xw9YKG6Q6g_7autocfg, symObjAddr: 0x1CAC, symBinAddr: 0x100014C30, symSize: 0x408 }
  - { offset: 0x34182, size: 0x8, addend: 0x0, symName: __RNvYNtNtNtCsht3nMU9UgFu_3std4hash6random13DefaultHasherNtNtCsaNl6UpbT7bw_4core4hash6Hasher9write_u64Cs4xw9YKG6Q6g_7autocfg, symObjAddr: 0x24EC, symBinAddr: 0x1000153B8, symSize: 0x3C }
  - { offset: 0x34632, size: 0x8, addend: 0x0, symName: __RNvXs19_NtCsaNl6UpbT7bw_4core3fmtRNtNtNtB8_3str5error9Utf8ErrorNtB6_5Debug3fmtCs4xw9YKG6Q6g_7autocfg, symObjAddr: 0x1774, symBinAddr: 0x1000146F8, symSize: 0x30 }
  - { offset: 0x3468E, size: 0x8, addend: 0x0, symName: __RNvNvMNtNtCsaNl6UpbT7bw_4core5alloc6layoutNtB4_6Layout25from_size_align_unchecked18precondition_checkCs4xw9YKG6Q6g_7autocfg, symObjAddr: 0xB68, symBinAddr: 0x100013B0C, symSize: 0xBC }
  - { offset: 0x348BC, size: 0x8, addend: 0x0, symName: __RNvNvNtCsaNl6UpbT7bw_4core9ub_checks23maybe_is_nonoverlapping7runtimeCs4xw9YKG6Q6g_7autocfg, symObjAddr: 0x15A8, symBinAddr: 0x10001454C, symSize: 0xD8 }
  - { offset: 0x34A98, size: 0x8, addend: 0x0, symName: __RNvXs8_NtNtCsaNl6UpbT7bw_4core3str5errorNtB5_9Utf8ErrorNtNtB9_3fmt5Debug3fmtCs4xw9YKG6Q6g_7autocfg, symObjAddr: 0x20B4, symBinAddr: 0x100015038, symSize: 0x88 }
  - { offset: 0x34D9E, size: 0x8, addend: 0x0, symName: __RNvNtNtCsht3nMU9UgFu_3std2io5stdio6stderrCs4xw9YKG6Q6g_7autocfg, symObjAddr: 0xB5C, symBinAddr: 0x100013B00, symSize: 0xC }
  - { offset: 0x34DED, size: 0x8, addend: 0x0, symName: __RINvNtCsht3nMU9UgFu_3std2fs11remove_fileNtNtB4_4path7PathBufECs4xw9YKG6Q6g_7autocfg, symObjAddr: 0x3A0, symBinAddr: 0x100013344, symSize: 0x74 }
  - { offset: 0x34E92, size: 0x8, addend: 0x0, symName: __RINvNtCsht3nMU9UgFu_3std2fs8metadataRNtNtB4_4path7PathBufECs4xw9YKG6Q6g_7autocfg, symObjAddr: 0x414, symBinAddr: 0x1000133B8, symSize: 0xE8 }
  - { offset: 0x3517E, size: 0x8, addend: 0x0, symName: __RNCNkNvNvMNtNtCsht3nMU9UgFu_3std4hash6randomNtB8_11RandomState3new4KEYS0s_0Cs4xw9YKG6Q6g_7autocfg, symObjAddr: 0x664, symBinAddr: 0x100013608, symSize: 0x34 }
  - { offset: 0x351BC, size: 0x8, addend: 0x0, symName: __RNvNvNvMNtNtCsht3nMU9UgFu_3std4hash6randomNtB6_11RandomState3new4KEYS6___initCs4xw9YKG6Q6g_7autocfg, symObjAddr: 0x1680, symBinAddr: 0x100014624, symSize: 0x24 }
  - { offset: 0x351DA, size: 0x8, addend: 0x0, symName: __RNCNvMNtNtCsht3nMU9UgFu_3std4hash6randomNtB4_11RandomState3new0Cs4xw9YKG6Q6g_7autocfg, symObjAddr: 0x698, symBinAddr: 0x10001363C, symSize: 0x2C }
  - { offset: 0x3529F, size: 0x8, addend: 0x0, symName: __RNvXs2_NtNtCsht3nMU9UgFu_3std4hash6randomNtB5_13DefaultHasherNtNtCsaNl6UpbT7bw_4core4hash6Hasher5writeCs4xw9YKG6Q6g_7autocfg, symObjAddr: 0x17A4, symBinAddr: 0x100014728, symSize: 0x38 }
  - { offset: 0x352FA, size: 0x8, addend: 0x0, symName: __RNvXs2_NtNtCsht3nMU9UgFu_3std4hash6randomNtB5_13DefaultHasherNtNtCsaNl6UpbT7bw_4core4hash6Hasher6finishCs4xw9YKG6Q6g_7autocfg, symObjAddr: 0x17DC, symBinAddr: 0x100014760, symSize: 0x2C }
  - { offset: 0x35379, size: 0x8, addend: 0x0, symName: __RNvXs3_NtNtCsht3nMU9UgFu_3std4hash6randomNtB5_11RandomStateNtNtCsaNl6UpbT7bw_4core7default7Default7defaultCs4xw9YKG6Q6g_7autocfg, symObjAddr: 0x1AE0, symBinAddr: 0x100014A64, symSize: 0x1C }
  - { offset: 0x353B1, size: 0x8, addend: 0x0, symName: __RNvXs_NtNtCsht3nMU9UgFu_3std4hash6randomNtB4_11RandomStateNtNtCsaNl6UpbT7bw_4core4hash11BuildHasher12build_hasherCs4xw9YKG6Q6g_7autocfg, symObjAddr: 0x213C, symBinAddr: 0x1000150C0, symSize: 0xCC }
  - { offset: 0x3548B, size: 0x8, addend: 0x0, symName: __RNvXs5_NtNtNtCsht3nMU9UgFu_3std2os2fd5ownedNtB5_7OwnedFdNtNtNtCsaNl6UpbT7bw_4core3ops4drop4Drop4dropCs4xw9YKG6Q6g_7autocfg, symObjAddr: 0x1AFC, symBinAddr: 0x100014A80, symSize: 0x40 }
  - { offset: 0x359B4, size: 0x8, addend: 0x0, symName: __RNvMs0_NtNtCsaNl6UpbT7bw_4core4hash3sipINtB5_6HasherNtB5_11Sip13RoundsE5resetCs4xw9YKG6Q6g_7autocfg, symObjAddr: 0x6C4, symBinAddr: 0x100013668, symSize: 0x8C }
  - { offset: 0x359FF, size: 0x8, addend: 0x0, symName: __RNvMsj_NtCsht3nMU9UgFu_3std2fsNtB5_8Metadata11permissionsCs4xw9YKG6Q6g_7autocfg, symObjAddr: 0x750, symBinAddr: 0x1000136F4, symSize: 0x18 }
  - { offset: 0x35A82, size: 0x8, addend: 0x0, symName: __RNvMsj_NtCsht3nMU9UgFu_3std2fsNtB5_8Metadata6is_dirCs4xw9YKG6Q6g_7autocfg, symObjAddr: 0x768, symBinAddr: 0x10001370C, symSize: 0x28 }
  - { offset: 0x35B4F, size: 0x8, addend: 0x0, symName: __RNvMsq_NtCsht3nMU9UgFu_3std2fsNtB5_11Permissions8readonlyCs4xw9YKG6Q6g_7autocfg, symObjAddr: 0x790, symBinAddr: 0x100013734, symSize: 0x24 }
  - { offset: 0x35C6D, size: 0x8, addend: 0x0, symName: __RNvXNtNtNtCsiTraAjBDcu4_5alloc11collections5btree3mapINtB2_8BTreeMapNtNtNtCsht3nMU9UgFu_3std3ffi6os_str8OsStringINtNtCsaNl6UpbT7bw_4core6option6OptionB14_EENtNtNtB1R_3ops4drop4Drop4dropCs4xw9YKG6Q6g_7autocfg, symObjAddr: 0x16A4, symBinAddr: 0x100014648, symSize: 0x4C }
  - { offset: 0x35CFA, size: 0x8, addend: 0x0, symName: __RNvXNvXsw_NtNtNtCsiTraAjBDcu4_5alloc11collections5btree3mapINtB8_8IntoIterpppENtNtNtCsaNl6UpbT7bw_4core3ops4drop4Drop4dropINtB2_9DropGuardNtNtNtCsht3nMU9UgFu_3std3ffi6os_str8OsStringINtNtB1k_6option6OptionB2c_ENtNtBe_5alloc6GlobalEB1e_4dropCs4xw9YKG6Q6g_7autocfg, symObjAddr: 0x16F0, symBinAddr: 0x100014694, symSize: 0x64 }
  - { offset: 0x35D8F, size: 0x8, addend: 0x0, symName: __RNvXsw_NtNtNtCsiTraAjBDcu4_5alloc11collections5btree3mapINtB5_8IntoIterNtNtNtCsht3nMU9UgFu_3std3ffi6os_str8OsStringINtNtCsaNl6UpbT7bw_4core6option6OptionB17_EENtNtNtB1U_3ops4drop4Drop4dropCs4xw9YKG6Q6g_7autocfg, symObjAddr: 0x2398, symBinAddr: 0x10001531C, symSize: 0x9C }
  - { offset: 0x35E06, size: 0x8, addend: 0x0, symName: __RNvXsv_NtNtNtCsiTraAjBDcu4_5alloc11collections5btree3mapINtB5_8BTreeMapNtNtNtCsht3nMU9UgFu_3std3ffi6os_str8OsStringINtNtCsaNl6UpbT7bw_4core6option6OptionB17_EENtNtNtNtB1U_4iter6traits7collect12IntoIterator9into_iterCs4xw9YKG6Q6g_7autocfg, symObjAddr: 0x2208, symBinAddr: 0x10001518C, symSize: 0x190 }
  - { offset: 0x36490, size: 0x8, addend: 0x0, symName: __RNvMsx_NtNtNtCsiTraAjBDcu4_5alloc11collections5btree3mapINtB5_8IntoIterNtNtNtCsht3nMU9UgFu_3std3ffi6os_str8OsStringINtNtCsaNl6UpbT7bw_4core6option6OptionB17_EE10dying_nextCs4xw9YKG6Q6g_7autocfg, symObjAddr: 0x7B4, symBinAddr: 0x100013758, symSize: 0x90 }
  - { offset: 0x369D3, size: 0x8, addend: 0x0, symName: __RINvMNtCsaNl6UpbT7bw_4core6resultINtB3_6ResultNtNtCsht3nMU9UgFu_3std2fs8MetadataNtNtNtBM_2io5error5ErrorE7map_errNtNtCs4xw9YKG6Q6g_7autocfg5error5ErrorNvB1P_7from_ioEB1R_, symObjAddr: 0x0, symBinAddr: 0x1000153F4, symSize: 0xA0 }
  - { offset: 0x36A63, size: 0x8, addend: 0x0, symName: __RNvXNvNtCsht3nMU9UgFu_3std2io17default_write_fmtINtB2_7AdapterNtNtB6_7process10ChildStdinENtNtCsaNl6UpbT7bw_4core3fmt5Write9write_strCs4xw9YKG6Q6g_7autocfg, symObjAddr: 0x1638, symBinAddr: 0x100016A2C, symSize: 0xB4 }
  - { offset: 0x36ABF, size: 0x8, addend: 0x0, symName: __RNvXNvNtCsht3nMU9UgFu_3std2io17default_write_fmtINtB2_7AdapterNtNtNtNtB6_3sys5stdio4unix6StderrENtNtCsaNl6UpbT7bw_4core3fmt5Write9write_strCs4xw9YKG6Q6g_7autocfg, symObjAddr: 0x16EC, symBinAddr: 0x100016AE0, symSize: 0xB4 }
  - { offset: 0x36D6F, size: 0x8, addend: 0x0, symName: __RINvNtCsht3nMU9UgFu_3std2io17default_write_fmtNtNtB4_7process10ChildStdinECs4xw9YKG6Q6g_7autocfg, symObjAddr: 0x350, symBinAddr: 0x100015744, symSize: 0x120 }
  - { offset: 0x36E1E, size: 0x8, addend: 0x0, symName: __RINvNtCsht3nMU9UgFu_3std2io17default_write_fmtNtNtNtNtB4_3sys5stdio4unix6StderrECs4xw9YKG6Q6g_7autocfg, symObjAddr: 0x470, symBinAddr: 0x100015864, symSize: 0x120 }
  - { offset: 0x3724E, size: 0x8, addend: 0x0, symName: __RNvNtNtNtCsht3nMU9UgFu_3std3sys2fs4unix23debug_assert_fd_is_openCs4xw9YKG6Q6g_7autocfg, symObjAddr: 0x1200, symBinAddr: 0x1000165F4, symSize: 0xCC }
  - { offset: 0x37459, size: 0x8, addend: 0x0, symName: __RINvXs5_NtNtNtCsht3nMU9UgFu_3std11collections4hash3setINtB6_7HashSetyEINtNtNtNtCsaNl6UpbT7bw_4core4iter6traits7collect12FromIteratoryE9from_iterINtNtNtB1f_3ops5range5RangeyEECs4xw9YKG6Q6g_7autocfg, symObjAddr: 0xB98, symBinAddr: 0x100015F8C, symSize: 0x14C }
  - { offset: 0x37545, size: 0x8, addend: 0x0, symName: __RNvXsh_NtNtNtCsht3nMU9UgFu_3std11collections4hash3setINtB5_7HashSetyENtNtNtNtCsaNl6UpbT7bw_4core4iter6traits7collect12IntoIterator9into_iterCs4xw9YKG6Q6g_7autocfg, symObjAddr: 0x21A8, symBinAddr: 0x10001759C, symSize: 0x90 }
  - { offset: 0x375AB, size: 0x8, addend: 0x0, symName: __RNvXsn_NtNtNtCsht3nMU9UgFu_3std11collections4hash3setINtB5_8IntoIteryENtNtNtNtCsaNl6UpbT7bw_4core4iter6traits8iterator8Iterator4nextCs4xw9YKG6Q6g_7autocfg, symObjAddr: 0x2238, symBinAddr: 0x10001762C, symSize: 0x70 }
  - { offset: 0x3874E, size: 0x8, addend: 0x0, symName: __RINvNtNtCsaNl6UpbT7bw_4core3str11validations15next_code_pointINtNtNtB6_5slice4iter4IterhEECs4xw9YKG6Q6g_7autocfg, symObjAddr: 0x590, symBinAddr: 0x100015984, symSize: 0x224 }
  - { offset: 0x38A00, size: 0x8, addend: 0x0, symName: __RINvNtNtCsaNl6UpbT7bw_4core3str11validations23next_code_point_reverseINtNtNtB6_5slice4iter4IterhEECs4xw9YKG6Q6g_7autocfg, symObjAddr: 0x7B4, symBinAddr: 0x100015BA8, symSize: 0x244 }
  - { offset: 0x38D80, size: 0x8, addend: 0x0, symName: __RNvXs8_NtNtCsaNl6UpbT7bw_4core3str6traitsINtNtNtB9_3ops5range7RangeTojEINtNtNtB9_5slice5index10SliceIndexeE3getCs4xw9YKG6Q6g_7autocfg, symObjAddr: 0x1970, symBinAddr: 0x100016D64, symSize: 0x140 }
  - { offset: 0x38E99, size: 0x8, addend: 0x0, symName: __RNvXs8_NtNtCsaNl6UpbT7bw_4core3str6traitsINtNtNtB9_3ops5range7RangeTojEINtNtNtB9_5slice5index10SliceIndexeE5indexCs4xw9YKG6Q6g_7autocfg, symObjAddr: 0x1AB0, symBinAddr: 0x100016EA4, symSize: 0x84 }
  - { offset: 0x38F2C, size: 0x8, addend: 0x0, symName: __RNvXs9_NtNtCsaNl6UpbT7bw_4core3str6traitsINtNtNtB9_3ops5range9RangeFromjEINtNtNtB9_5slice5index10SliceIndexeE3getCs4xw9YKG6Q6g_7autocfg, symObjAddr: 0x1B34, symBinAddr: 0x100016F28, symSize: 0x150 }
  - { offset: 0x3909B, size: 0x8, addend: 0x0, symName: __RNvXs9_NtNtCsaNl6UpbT7bw_4core3str6traitsINtNtNtB9_3ops5range9RangeFromjEINtNtNtB9_5slice5index10SliceIndexeE5indexCs4xw9YKG6Q6g_7autocfg, symObjAddr: 0x1C84, symBinAddr: 0x100017078, symSize: 0x88 }
  - { offset: 0x3A282, size: 0x8, addend: 0x0, symName: __RNvXs_NvNtNtCsaNl6UpbT7bw_4core3fmt5Write9write_fmtQINtNvNtCsht3nMU9UgFu_3std2io17default_write_fmt7AdapterNtNtBV_7process10ChildStdinENtB4_12SpecWriteFmt14spec_write_fmtCs4xw9YKG6Q6g_7autocfg, symObjAddr: 0x1D98, symBinAddr: 0x10001718C, symSize: 0x160 }
  - { offset: 0x3A32F, size: 0x8, addend: 0x0, symName: __RNvXs_NvNtNtCsaNl6UpbT7bw_4core3fmt5Write9write_fmtQINtNvNtCsht3nMU9UgFu_3std2io17default_write_fmt7AdapterNtNtNtNtBV_3sys5stdio4unix6StderrENtB4_12SpecWriteFmt14spec_write_fmtCs4xw9YKG6Q6g_7autocfg, symObjAddr: 0x1EF8, symBinAddr: 0x1000172EC, symSize: 0x160 }
  - { offset: 0x3A3DE, size: 0x8, addend: 0x0, symName: __RNvYINtNvNtCsht3nMU9UgFu_3std2io17default_write_fmt7AdapterNtNtB9_7process10ChildStdinENtNtCsaNl6UpbT7bw_4core3fmt5Write10write_charCs4xw9YKG6Q6g_7autocfg, symObjAddr: 0x22A8, symBinAddr: 0x10001769C, symSize: 0x70 }
  - { offset: 0x3A446, size: 0x8, addend: 0x0, symName: __RNvYINtNvNtCsht3nMU9UgFu_3std2io17default_write_fmt7AdapterNtNtB9_7process10ChildStdinENtNtCsaNl6UpbT7bw_4core3fmt5Write9write_fmtCs4xw9YKG6Q6g_7autocfg, symObjAddr: 0x2318, symBinAddr: 0x10001770C, symSize: 0x24 }
  - { offset: 0x3A48A, size: 0x8, addend: 0x0, symName: __RNvYINtNvNtCsht3nMU9UgFu_3std2io17default_write_fmt7AdapterNtNtNtNtB9_3sys5stdio4unix6StderrENtNtCsaNl6UpbT7bw_4core3fmt5Write10write_charCs4xw9YKG6Q6g_7autocfg, symObjAddr: 0x233C, symBinAddr: 0x100017730, symSize: 0x70 }
  - { offset: 0x3A4F2, size: 0x8, addend: 0x0, symName: __RNvYINtNvNtCsht3nMU9UgFu_3std2io17default_write_fmt7AdapterNtNtNtNtB9_3sys5stdio4unix6StderrENtNtCsaNl6UpbT7bw_4core3fmt5Write9write_fmtCs4xw9YKG6Q6g_7autocfg, symObjAddr: 0x23AC, symBinAddr: 0x1000177A0, symSize: 0x24 }
  - { offset: 0x3A743, size: 0x8, addend: 0x0, symName: __RNvXNtNtCsaNl6UpbT7bw_4core3ops12control_flowINtB2_11ControlFlowReENtNtB4_9try_trait3Try11from_outputCs4xw9YKG6Q6g_7autocfg, symObjAddr: 0x1578, symBinAddr: 0x10001696C, symSize: 0x18 }
  - { offset: 0x3A781, size: 0x8, addend: 0x0, symName: __RNvXNtNtCsaNl6UpbT7bw_4core3ops12control_flowINtB2_11ControlFlowReENtNtB4_9try_trait3Try6branchCs4xw9YKG6Q6g_7autocfg, symObjAddr: 0x1590, symBinAddr: 0x100016984, symSize: 0x64 }
  - { offset: 0x3A800, size: 0x8, addend: 0x0, symName: __RNvXs_NtNtCsaNl6UpbT7bw_4core3ops12control_flowINtB4_11ControlFlowReEINtNtB6_9try_trait12FromResidualIBK_B12_NtNtB8_7convert10InfallibleEE13from_residualCs4xw9YKG6Q6g_7autocfg, symObjAddr: 0x1D0C, symBinAddr: 0x100017100, symSize: 0x2C }
  - { offset: 0x3AAF1, size: 0x8, addend: 0x0, symName: __RINvNtNtNtCsaNl6UpbT7bw_4core4iter8adapters5chain17and_then_or_clearINtB2_5ChainINtNtB8_6option4IterNtNtCsht3nMU9UgFu_3std4path7PathBufEB1g_ERB1A_NvYB14_NtNtNtB6_6traits8iterator8Iterator4nextECs4xw9YKG6Q6g_7autocfg, symObjAddr: 0x9F8, symBinAddr: 0x100015DEC, symSize: 0xC8 }
  - { offset: 0x3AC2F, size: 0x8, addend: 0x0, symName: __RINvNtNtNtCsaNl6UpbT7bw_4core4iter8adapters5chain17and_then_or_clearINtNtB8_6option4IterNtNtCsht3nMU9UgFu_3std4path7PathBufERB1o_NvYB14_NtNtNtB6_6traits8iterator8Iterator4nextECs4xw9YKG6Q6g_7autocfg, symObjAddr: 0xAC0, symBinAddr: 0x100015EB4, symSize: 0xC0 }
  - { offset: 0x3ADD8, size: 0x8, addend: 0x0, symName: __RNCNvXs_NtNtNtCsaNl6UpbT7bw_4core4iter8adapters5chainINtB6_5ChainIBQ_INtNtBc_6option4IterNtNtCsht3nMU9UgFu_3std4path7PathBufEB15_EINtB18_8IntoIterRB1p_EENtNtNtBa_6traits8iterator8Iterator4next0Cs4xw9YKG6Q6g_7autocfg, symObjAddr: 0xEF4, symBinAddr: 0x1000162E8, symSize: 0x7C }
  - { offset: 0x3AEA8, size: 0x8, addend: 0x0, symName: __RNCNvXs_NtNtNtCsaNl6UpbT7bw_4core4iter8adapters5chainINtB6_5ChainINtNtBc_6option4IterNtNtCsht3nMU9UgFu_3std4path7PathBufEB11_ENtNtNtBa_6traits8iterator8Iterator4next0Cs4xw9YKG6Q6g_7autocfg, symObjAddr: 0xF70, symBinAddr: 0x100016364, symSize: 0x7C }
  - { offset: 0x3AF79, size: 0x8, addend: 0x0, symName: __RNvXs_NtNtNtCsaNl6UpbT7bw_4core4iter8adapters5chainINtB4_5ChainIBO_INtNtBa_6option4IterNtNtCsht3nMU9UgFu_3std4path7PathBufEB13_EINtB16_8IntoIterRB1n_EENtNtNtB8_6traits8iterator8Iterator4nextCs4xw9YKG6Q6g_7autocfg, symObjAddr: 0x1D38, symBinAddr: 0x10001712C, symSize: 0x30 }
  - { offset: 0x3AFB7, size: 0x8, addend: 0x0, symName: __RNvXs_NtNtNtCsaNl6UpbT7bw_4core4iter8adapters5chainINtB4_5ChainINtNtBa_6option4IterNtNtCsht3nMU9UgFu_3std4path7PathBufEBZ_ENtNtNtB8_6traits8iterator8Iterator4nextCs4xw9YKG6Q6g_7autocfg, symObjAddr: 0x1D68, symBinAddr: 0x10001715C, symSize: 0x30 }
  - { offset: 0x3B001, size: 0x8, addend: 0x0, symName: __RNvXsh_NtNtNtCsaNl6UpbT7bw_4core4iter8adapters7step_byINtNtNtBb_3ops5range5RangejEINtB5_14SpecRangeSetupBQ_E5setupCs4xw9YKG6Q6g_7autocfg, symObjAddr: 0x2058, symBinAddr: 0x10001744C, symSize: 0x150 }
  - { offset: 0x3B18F, size: 0x8, addend: 0x0, symName: __RINvYINtNtNtCsaNl6UpbT7bw_4core3ops5range5RangeyENtNtNtNtBa_4iter6traits8iterator8Iterator3mapTyuENCINvXs8_NtCsg4dki62PTrg_9hashbrown3setINtB1H_7HashSetyNtNtNtCsht3nMU9UgFu_3std4hash6random11RandomStateEINtNtBP_7collect6ExtendyE6extendB3_E0ECs4xw9YKG6Q6g_7autocfg, symObjAddr: 0xCE4, symBinAddr: 0x1000160D8, symSize: 0x14 }
  - { offset: 0x3B1E7, size: 0x8, addend: 0x0, symName: __RINvYINtNtNtCsaNl6UpbT7bw_4core3ops5range5RangeyENtNtNtNtBa_4iter6traits8iterator8Iterator4folduNCINvNtNtBR_8adapters3map8map_foldyTyuEuNCINvXs8_NtCsg4dki62PTrg_9hashbrown3setINtB2j_7HashSetyNtNtNtCsht3nMU9UgFu_3std4hash6random11RandomStateEINtNtBP_7collect6ExtendyE6extendB3_E0NCINvNvBL_8for_each4callB25_NCINvXs1i_NtB2l_3mapINtB54_7HashMapyuB33_EIB3S_B25_E6extendINtB1B_3MapB3_B2a_EE0E0E0ECs4xw9YKG6Q6g_7autocfg, symObjAddr: 0xCF8, symBinAddr: 0x1000160EC, symSize: 0xB8 }
  - { offset: 0x3B276, size: 0x8, addend: 0x0, symName: __RINvYINtNtNtCsaNl6UpbT7bw_4core3ops5range5RangeyENtNtNtNtBa_4iter6traits8iterator8Iterator7collectINtNtNtNtCsht3nMU9UgFu_3std11collections4hash3set7HashSetyEECs4xw9YKG6Q6g_7autocfg, symObjAddr: 0xDB0, symBinAddr: 0x1000161A4, symSize: 0x50 }
  - { offset: 0x3B30B, size: 0x8, addend: 0x0, symName: __RINvYINtNtNtNtCsaNl6UpbT7bw_4core4iter8adapters5chain5ChainINtNtBc_6option4IterNtNtCsht3nMU9UgFu_3std4path7PathBufEBV_ENtNtNtBa_6traits8iterator8Iterator5chainINtBY_6OptionRB1f_EECs4xw9YKG6Q6g_7autocfg, symObjAddr: 0xE00, symBinAddr: 0x1000161F4, symSize: 0xAC }
  - { offset: 0x3B3AC, size: 0x8, addend: 0x0, symName: __RNvXNtNtNtCsaNl6UpbT7bw_4core4iter6traits7collectINtNtNtB6_8adapters5chain5ChainIBM_INtNtB8_6option4IterNtNtCsht3nMU9UgFu_3std4path7PathBufEB1k_EINtB1n_8IntoIterRB1E_EENtB2_12IntoIterator9into_iterCs4xw9YKG6Q6g_7autocfg, symObjAddr: 0x15F4, symBinAddr: 0x1000169E8, symSize: 0x30 }
  - { offset: 0x3B3E4, size: 0x8, addend: 0x0, symName: __RNvXNtNtNtCsaNl6UpbT7bw_4core4iter6traits7collectINtNtNtB8_3ops5range5RangeyENtB2_12IntoIterator9into_iterCs4xw9YKG6Q6g_7autocfg, symObjAddr: 0x1624, symBinAddr: 0x100016A18, symSize: 0x14 }
  - { offset: 0x3B428, size: 0x8, addend: 0x0, symName: __RNvXs3_NtNtCsaNl6UpbT7bw_4core4iter5rangeINtNtNtB9_3ops5range5RangeyENtB5_17RangeIteratorImpl9spec_nextCs4xw9YKG6Q6g_7autocfg, symObjAddr: 0x17A0, symBinAddr: 0x100016B94, symSize: 0x94 }
  - { offset: 0x3B4A9, size: 0x8, addend: 0x0, symName: __RNvXs4_NtNtCsaNl6UpbT7bw_4core4iter5rangeINtNtNtB9_3ops5range5RangeyENtNtNtB7_6traits8iterator8Iterator4nextCs4xw9YKG6Q6g_7autocfg, symObjAddr: 0x1834, symBinAddr: 0x100016C28, symSize: 0x24 }
  - { offset: 0x3B4E0, size: 0x8, addend: 0x0, symName: __RNvXs4_NtNtCsaNl6UpbT7bw_4core4iter5rangeINtNtNtB9_3ops5range5RangeyENtNtNtB7_6traits8iterator8Iterator9size_hintCs4xw9YKG6Q6g_7autocfg, symObjAddr: 0x1858, symBinAddr: 0x100016C4C, symSize: 0x88 }
  - { offset: 0x3B5BA, size: 0x8, addend: 0x0, symName: __RINvNtNtNtNtCsaNl6UpbT7bw_4core9core_arch10arm_shared4neon9generated13vget_lane_u64Kl0_ECs4xw9YKG6Q6g_7autocfg, symObjAddr: 0xB80, symBinAddr: 0x100015F74, symSize: 0x18 }
  - { offset: 0x3B5E9, size: 0x8, addend: 0x0, symName: __RNvNtNtNtNtCsaNl6UpbT7bw_4core9core_arch10arm_shared4neon9generated18vreinterpret_s8_u8Cs4xw9YKG6Q6g_7autocfg, symObjAddr: 0x12CC, symBinAddr: 0x1000166C0, symSize: 0xC }
  - { offset: 0x3B617, size: 0x8, addend: 0x0, symName: __RNvNtNtNtNtCsaNl6UpbT7bw_4core9core_arch10arm_shared4neon9generated19vreinterpret_u64_u8Cs4xw9YKG6Q6g_7autocfg, symObjAddr: 0x12D8, symBinAddr: 0x1000166CC, symSize: 0xC }
  - { offset: 0x3B645, size: 0x8, addend: 0x0, symName: __RNvNtNtNtNtCsaNl6UpbT7bw_4core9core_arch10arm_shared4neon9generated7vceq_u8Cs4xw9YKG6Q6g_7autocfg, symObjAddr: 0x12E4, symBinAddr: 0x1000166D8, symSize: 0x14 }
  - { offset: 0x3B682, size: 0x8, addend: 0x0, symName: __RNvNtNtNtNtCsaNl6UpbT7bw_4core9core_arch10arm_shared4neon9generated7vorr_u8Cs4xw9YKG6Q6g_7autocfg, symObjAddr: 0x12F8, symBinAddr: 0x1000166EC, symSize: 0x14 }
  - { offset: 0x3B6BF, size: 0x8, addend: 0x0, symName: __RNvNtNtNtNtCsaNl6UpbT7bw_4core9core_arch10arm_shared4neon9generated9vdup_n_u8Cs4xw9YKG6Q6g_7autocfg, symObjAddr: 0x130C, symBinAddr: 0x100016700, symSize: 0x34 }
  - { offset: 0x3B7AE, size: 0x8, addend: 0x0, symName: __RNvNvXs0_NtNtCsaNl6UpbT7bw_4core5slice5indexjINtB7_10SliceIndexSpE13get_unchecked18precondition_checkCs4xw9YKG6Q6g_7autocfg, symObjAddr: 0x1340, symBinAddr: 0x100016734, symSize: 0xAC }
  - { offset: 0x3B81C, size: 0x8, addend: 0x0, symName: __RNvNvXs0_NtNtCsaNl6UpbT7bw_4core5slice5indexjINtB7_10SliceIndexSpE17get_unchecked_mut18precondition_checkCs4xw9YKG6Q6g_7autocfg, symObjAddr: 0x13EC, symBinAddr: 0x1000167E0, symSize: 0xAC }
  - { offset: 0x3B890, size: 0x8, addend: 0x0, symName: __RNvNvXs2_NtNtCsaNl6UpbT7bw_4core5slice5indexINtNtNtBb_3ops5range5RangejEINtB7_10SliceIndexSpE13get_unchecked18precondition_checkCs4xw9YKG6Q6g_7autocfg, symObjAddr: 0x1498, symBinAddr: 0x10001688C, symSize: 0xCC }
  - { offset: 0x3B984, size: 0x8, addend: 0x0, symName: __RNvXs5_NtNtCsaNl6UpbT7bw_4core5slice5indexINtNtNtB9_3ops5range9RangeFromjEINtB5_10SliceIndexShE5indexCs4xw9YKG6Q6g_7autocfg, symObjAddr: 0x18E0, symBinAddr: 0x100016CD4, symSize: 0x90 }
  - { offset: 0x3BAD4, size: 0x8, addend: 0x0, symName: __RNvXNtCsaNl6UpbT7bw_4core6borrowyINtB2_6BorrowyE6borrowCs4xw9YKG6Q6g_7autocfg, symObjAddr: 0x1564, symBinAddr: 0x100016958, symSize: 0x14 }
  - { offset: 0x3C0B3, size: 0x8, addend: 0x0, symName: __RNCNvMNtCs4xw9YKG6Q6g_7autocfg5rustcNtB4_5Rustc3new0B6_, symObjAddr: 0x24E4, symBinAddr: 0x1000178D8, symSize: 0x44 }
  - { offset: 0x3C0E4, size: 0x8, addend: 0x0, symName: __RNvNtCs4xw9YKG6Q6g_7autocfg5rustc17get_rustc_wrapper, symObjAddr: 0x2AC8, symBinAddr: 0x100017EBC, symSize: 0x2E8 }
  - { offset: 0x3C189, size: 0x8, addend: 0x0, symName: __RINvMNtCsaNl6UpbT7bw_4core6resultINtB3_6ResultNtNtCsht3nMU9UgFu_3std2fs8MetadataNtNtNtBM_2io5error5ErrorE7map_errNtNtCs4xw9YKG6Q6g_7autocfg5error5ErrorNvB1P_7from_ioEB1R_, symObjAddr: 0x0, symBinAddr: 0x1000153F4, symSize: 0xA0 }
  - { offset: 0x3C21C, size: 0x8, addend: 0x0, symName: __RINvMNtCsaNl6UpbT7bw_4core6resultINtB3_6ResultNtNtCsht3nMU9UgFu_3std7process5ChildNtNtNtBM_2io5error5ErrorE7map_errNtNtCs4xw9YKG6Q6g_7autocfg5error5ErrorNvB1R_7from_ioEB1T_, symObjAddr: 0xA0, symBinAddr: 0x100015494, symSize: 0x9C }
  - { offset: 0x3C440, size: 0x8, addend: 0x0, symName: __RNCNvNtCsiTraAjBDcu4_5alloc3fmt6format0Cs4xw9YKG6Q6g_7autocfg, symObjAddr: 0xEAC, symBinAddr: 0x1000162A0, symSize: 0x48 }
  - { offset: 0x3C471, size: 0x8, addend: 0x0, symName: __RNvNtCsiTraAjBDcu4_5alloc3fmt6formatCs4xw9YKG6Q6g_7autocfg, symObjAddr: 0x112C, symBinAddr: 0x100016520, symSize: 0xD4 }
  - { offset: 0x3C67E, size: 0x8, addend: 0x0, symName: __RINvMNtCsaNl6UpbT7bw_4core6resultINtB3_6ResultNtNtCsht3nMU9UgFu_3std7process6OutputNtNtNtBM_2io5error5ErrorE7map_errNtNtCs4xw9YKG6Q6g_7autocfg5error5ErrorNvB1S_7from_ioEB1U_, symObjAddr: 0x13C, symBinAddr: 0x100015530, symSize: 0xA0 }
  - { offset: 0x3C729, size: 0x8, addend: 0x0, symName: __RINvMNtCsaNl6UpbT7bw_4core6resultINtB3_6ResultReNtNtNtB5_3str5error9Utf8ErrorE7map_errNtNtCs4xw9YKG6Q6g_7autocfg5error5ErrorNvB1o_9from_utf8EB1q_, symObjAddr: 0x1DC, symBinAddr: 0x1000155D0, symSize: 0x90 }
  - { offset: 0x3C7D4, size: 0x8, addend: 0x0, symName: __RINvMNtCsaNl6UpbT7bw_4core6resultINtB3_6ResultjNtNtNtB5_3num5error13ParseIntErrorE7map_errNtNtCs4xw9YKG6Q6g_7autocfg5error5ErrorNvB1s_8from_numEB1u_, symObjAddr: 0x26C, symBinAddr: 0x100015660, symSize: 0x78 }
  - { offset: 0x3C867, size: 0x8, addend: 0x0, symName: __RINvMNtCsaNl6UpbT7bw_4core6resultINtB3_6ResultuNtNtNtCsht3nMU9UgFu_3std2io5error5ErrorE7map_errNtNtCs4xw9YKG6Q6g_7autocfg5error5ErrorNvB1x_7from_ioEB1z_, symObjAddr: 0x2E4, symBinAddr: 0x1000156D8, symSize: 0x6C }
  - { offset: 0x3D1E8, size: 0x8, addend: 0x0, symName: __RNvMNtCsaNl6UpbT7bw_4core6resultINtB2_6ResulthNtNtNtB4_3num5error15TryFromIntErrorE6expectCs4xw9YKG6Q6g_7autocfg, symObjAddr: 0xFEC, symBinAddr: 0x1000163E0, symSize: 0x84 }
  - { offset: 0x3D257, size: 0x8, addend: 0x0, symName: __RNvMNtCsaNl6UpbT7bw_4core6resultINtB2_6ResultuNtNtCs4xw9YKG6Q6g_7autocfg5error5ErrorE5is_okBM_, symObjAddr: 0x1070, symBinAddr: 0x100016464, symSize: 0x28 }
  - { offset: 0x3D2B1, size: 0x8, addend: 0x0, symName: __RNvMNtCsaNl6UpbT7bw_4core6resultINtB2_6ResultuNtNtCs4xw9YKG6Q6g_7autocfg5error5ErrorE6is_errBM_, symObjAddr: 0x1098, symBinAddr: 0x10001648C, symSize: 0x28 }
  - { offset: 0x3D304, size: 0x8, addend: 0x0, symName: __RNvMNtCsaNl6UpbT7bw_4core6resultINtB2_6ResultuNtNtNtCsht3nMU9UgFu_3std2io5error5ErrorE2okCs4xw9YKG6Q6g_7autocfg, symObjAddr: 0x10C0, symBinAddr: 0x1000164B4, symSize: 0x6C }
  - { offset: 0x3D5D8, size: 0x8, addend: 0x0, symName: __RNvMNtCs4xw9YKG6Q6g_7autocfg5rustcNtB2_5Rustc3new, symObjAddr: 0x23D0, symBinAddr: 0x1000177C4, symSize: 0x114 }
  - { offset: 0x3D75B, size: 0x8, addend: 0x0, symName: __RNvMNtCs4xw9YKG6Q6g_7autocfg5rustcNtB2_5Rustc7command, symObjAddr: 0x2528, symBinAddr: 0x10001791C, symSize: 0x1BC }
  - { offset: 0x3D7F1, size: 0x8, addend: 0x0, symName: __RNvMNtCs4xw9YKG6Q6g_7autocfg5rustcNtB2_5Rustc7version, symObjAddr: 0x26E4, symBinAddr: 0x100017AD8, symSize: 0x3E4 }
  - { offset: 0x3D9AD, size: 0x8, addend: 0x0, symName: ___llvm_profile_get_magic, symObjAddr: 0x28, symBinAddr: 0x1000181A4, symSize: 0x14 }
  - { offset: 0x3D9CE, size: 0x8, addend: 0x0, symName: ___llvm_profile_get_num_padding_bytes, symObjAddr: 0x44, symBinAddr: 0x1000181B8, symSize: 0xC }
  - { offset: 0x3D9D6, size: 0x8, addend: 0x0, symName: ___llvm_profile_get_version, symObjAddr: 0x50, symBinAddr: 0x1000181C4, symSize: 0xC }
  - { offset: 0x3D9FF, size: 0x8, addend: 0x0, symName: ___llvm_profile_get_version, symObjAddr: 0x50, symBinAddr: 0x1000181C4, symSize: 0xC }
  - { offset: 0x3DA74, size: 0x8, addend: 0x0, symName: ___llvm_profile_is_continuous_mode_enabled, symObjAddr: 0x0, symBinAddr: 0x1000181D0, symSize: 0x20 }
  - { offset: 0x3DA91, size: 0x8, addend: 0x0, symName: __MergedGlobals, symObjAddr: 0x3E20, symBinAddr: 0x10007DE70, symSize: 0x0 }
  - { offset: 0x3DAB3, size: 0x8, addend: 0x0, symName: __MergedGlobals, symObjAddr: 0x3E20, symBinAddr: 0x10007DE70, symSize: 0x0 }
  - { offset: 0x3DAE3, size: 0x8, addend: 0x0, symName: ___llvm_profile_is_continuous_mode_enabled, symObjAddr: 0x0, symBinAddr: 0x1000181D0, symSize: 0x20 }
  - { offset: 0x3DAEB, size: 0x8, addend: 0x0, symName: ___llvm_profile_enable_continuous_mode, symObjAddr: 0x20, symBinAddr: 0x1000181F0, symSize: 0x10 }
  - { offset: 0x3DAFB, size: 0x8, addend: 0x0, symName: ___llvm_profile_enable_continuous_mode, symObjAddr: 0x20, symBinAddr: 0x1000181F0, symSize: 0x10 }
  - { offset: 0x3DB03, size: 0x8, addend: 0x0, symName: ___llvm_profile_disable_continuous_mode, symObjAddr: 0x30, symBinAddr: 0x100018200, symSize: 0xC }
  - { offset: 0x3DB18, size: 0x8, addend: 0x0, symName: ___llvm_profile_disable_continuous_mode, symObjAddr: 0x30, symBinAddr: 0x100018200, symSize: 0xC }
  - { offset: 0x3DB20, size: 0x8, addend: 0x0, symName: ___llvm_profile_set_page_size, symObjAddr: 0x3C, symBinAddr: 0x10001820C, symSize: 0xC }
  - { offset: 0x3DB35, size: 0x8, addend: 0x0, symName: ___llvm_profile_set_page_size, symObjAddr: 0x3C, symBinAddr: 0x10001820C, symSize: 0xC }
  - { offset: 0x3DB3D, size: 0x8, addend: 0x0, symName: ___llvm_profile_get_size_for_buffer, symObjAddr: 0x48, symBinAddr: 0x100018218, symSize: 0xC4 }
  - { offset: 0x3DB60, size: 0x8, addend: 0x0, symName: ___llvm_profile_get_size_for_buffer, symObjAddr: 0x48, symBinAddr: 0x100018218, symSize: 0xC4 }
  - { offset: 0x3DB68, size: 0x8, addend: 0x0, symName: ___llvm_profile_get_size_for_buffer_internal, symObjAddr: 0x10C, symBinAddr: 0x1000182DC, symSize: 0x1C0 }
  - { offset: 0x3DFCB, size: 0x8, addend: 0x0, symName: ___llvm_profile_get_size_for_buffer_internal, symObjAddr: 0x10C, symBinAddr: 0x1000182DC, symSize: 0x1C0 }
  - { offset: 0x3DFD3, size: 0x8, addend: 0x0, symName: ___llvm_profile_get_num_data, symObjAddr: 0x2CC, symBinAddr: 0x10001849C, symSize: 0x10 }
  - { offset: 0x3E3F0, size: 0x8, addend: 0x0, symName: ___llvm_profile_get_num_data, symObjAddr: 0x2CC, symBinAddr: 0x10001849C, symSize: 0x10 }
  - { offset: 0x3E3F8, size: 0x8, addend: 0x0, symName: ___llvm_profile_get_data_size, symObjAddr: 0x2DC, symBinAddr: 0x1000184AC, symSize: 0x10 }
  - { offset: 0x3E42E, size: 0x8, addend: 0x0, symName: ___llvm_profile_get_data_size, symObjAddr: 0x2DC, symBinAddr: 0x1000184AC, symSize: 0x10 }
  - { offset: 0x3E436, size: 0x8, addend: 0x0, symName: ___llvm_profile_get_num_vtable, symObjAddr: 0x2EC, symBinAddr: 0x1000184BC, symSize: 0x18 }
  - { offset: 0x3E45D, size: 0x8, addend: 0x0, symName: ___llvm_profile_get_data_size, symObjAddr: 0x2DC, symBinAddr: 0x1000184AC, symSize: 0x10 }
  - { offset: 0x3E493, size: 0x8, addend: 0x0, symName: ___llvm_profile_get_num_vtable, symObjAddr: 0x2EC, symBinAddr: 0x1000184BC, symSize: 0x18 }
  - { offset: 0x3E49B, size: 0x8, addend: 0x0, symName: ___llvm_profile_get_vtable_section_size, symObjAddr: 0x304, symBinAddr: 0x1000184D4, symSize: 0x8 }
  - { offset: 0x3E4EF, size: 0x8, addend: 0x0, symName: ___llvm_profile_get_vtable_section_size, symObjAddr: 0x304, symBinAddr: 0x1000184D4, symSize: 0x8 }
  - { offset: 0x3E4F7, size: 0x8, addend: 0x0, symName: ___llvm_profile_counter_entry_size, symObjAddr: 0x30C, symBinAddr: 0x1000184DC, symSize: 0x1C }
  - { offset: 0x3E51A, size: 0x8, addend: 0x0, symName: ___llvm_profile_counter_entry_size, symObjAddr: 0x30C, symBinAddr: 0x1000184DC, symSize: 0x1C }
  - { offset: 0x3E522, size: 0x8, addend: 0x0, symName: ___llvm_profile_get_num_counters, symObjAddr: 0x328, symBinAddr: 0x1000184F8, symSize: 0x48 }
  - { offset: 0x3E533, size: 0x8, addend: 0x0, symName: ___llvm_profile_get_num_counters, symObjAddr: 0x328, symBinAddr: 0x1000184F8, symSize: 0x48 }
  - { offset: 0x3E53B, size: 0x8, addend: 0x0, symName: ___llvm_profile_get_counters_size, symObjAddr: 0x370, symBinAddr: 0x100018540, symSize: 0x5C }
  - { offset: 0x3E5A7, size: 0x8, addend: 0x0, symName: ___llvm_profile_get_counters_size, symObjAddr: 0x370, symBinAddr: 0x100018540, symSize: 0x5C }
  - { offset: 0x3E5AF, size: 0x8, addend: 0x0, symName: ___llvm_profile_get_num_bitmap_bytes, symObjAddr: 0x3CC, symBinAddr: 0x10001859C, symSize: 0x8 }
  - { offset: 0x3E65E, size: 0x8, addend: 0x0, symName: ___llvm_profile_get_num_bitmap_bytes, symObjAddr: 0x3CC, symBinAddr: 0x10001859C, symSize: 0x8 }
  - { offset: 0x3E666, size: 0x8, addend: 0x0, symName: ___llvm_profile_get_name_size, symObjAddr: 0x3D4, symBinAddr: 0x1000185A4, symSize: 0x8 }
  - { offset: 0x3E68A, size: 0x8, addend: 0x0, symName: ___llvm_profile_get_name_size, symObjAddr: 0x3D4, symBinAddr: 0x1000185A4, symSize: 0x8 }
  - { offset: 0x3E692, size: 0x8, addend: 0x0, symName: ___llvm_profile_get_padding_sizes_for_counters, symObjAddr: 0x3DC, symBinAddr: 0x1000185AC, symSize: 0x15C }
  - { offset: 0x3E6B6, size: 0x8, addend: 0x0, symName: ___llvm_profile_get_padding_sizes_for_counters, symObjAddr: 0x3DC, symBinAddr: 0x1000185AC, symSize: 0x15C }
  - { offset: 0x3E6BE, size: 0x8, addend: 0x0, symName: _initBufferWriter, symObjAddr: 0x538, symBinAddr: 0x100018708, symSize: 0x10 }
  - { offset: 0x3E82D, size: 0x8, addend: 0x0, symName: _initBufferWriter, symObjAddr: 0x538, symBinAddr: 0x100018708, symSize: 0x10 }
  - { offset: 0x3E99E, size: 0x8, addend: 0x0, symName: __MergedGlobals, symObjAddr: 0xA4D8, symBinAddr: 0x10007DE80, symSize: 0x0 }
  - { offset: 0x3EABD, size: 0x8, addend: 0x0, symName: __MergedGlobals, symObjAddr: 0xA4D8, symBinAddr: 0x10007DE80, symSize: 0x0 }
  - { offset: 0x3ECF4, size: 0x8, addend: 0x0, symName: __MergedGlobals, symObjAddr: 0xA4D8, symBinAddr: 0x10007DE80, symSize: 0x0 }
  - { offset: 0x3EE1F, size: 0x8, addend: 0x0, symName: _getCurFilenameLength, symObjAddr: 0x1C8, symBinAddr: 0x100018718, symSize: 0x108 }
  - { offset: 0x3EE27, size: 0x8, addend: 0x0, symName: _getCurFilename, symObjAddr: 0x2D0, symBinAddr: 0x100018820, symSize: 0x2B8 }
  - { offset: 0x3EEAA, size: 0x8, addend: 0x0, symName: _getCurFilename, symObjAddr: 0x2D0, symBinAddr: 0x100018820, symSize: 0x2B8 }
  - { offset: 0x3F0DE, size: 0x8, addend: 0x0, symName: _parseAndSetFilename, symObjAddr: 0x688, symBinAddr: 0x100018AD8, symSize: 0x4B8 }
  - { offset: 0x3F0E6, size: 0x8, addend: 0x0, symName: ___llvm_profile_initialize, symObjAddr: 0xB40, symBinAddr: 0x100018F90, symSize: 0xB8 }
  - { offset: 0x3F2DE, size: 0x8, addend: 0x0, symName: ___llvm_profile_initialize, symObjAddr: 0xB40, symBinAddr: 0x100018F90, symSize: 0xB8 }
  - { offset: 0x3F35E, size: 0x8, addend: 0x0, symName: ___llvm_profile_write_file, symObjAddr: 0xC74, symBinAddr: 0x100019048, symSize: 0x1B4 }
  - { offset: 0x3F366, size: 0x8, addend: 0x0, symName: _writeFile, symObjAddr: 0xE28, symBinAddr: 0x1000191FC, symSize: 0x294 }
  - { offset: 0x3F4C1, size: 0x8, addend: 0x0, symName: _writeFile, symObjAddr: 0xE28, symBinAddr: 0x1000191FC, symSize: 0x294 }
  - { offset: 0x3F63D, size: 0x8, addend: 0x0, symName: _writeFileWithoutReturn, symObjAddr: 0x138C, symBinAddr: 0x100019490, symSize: 0x4 }
  - { offset: 0x3F674, size: 0x8, addend: 0x0, symName: _getProfileFileSizeForMerging, symObjAddr: 0x1574, symBinAddr: 0x100019494, symSize: 0x110 }
  - { offset: 0x3F67C, size: 0x8, addend: 0x0, symName: _mmapProfileForMerging, symObjAddr: 0x1684, symBinAddr: 0x1000195A4, symSize: 0xBC }
  - { offset: 0x3F6B9, size: 0x8, addend: 0x0, symName: _mmapProfileForMerging, symObjAddr: 0x1684, symBinAddr: 0x1000195A4, symSize: 0xBC }
  - { offset: 0x3F6C1, size: 0x8, addend: 0x0, symName: _mmapForContinuousMode, symObjAddr: 0x1740, symBinAddr: 0x100019660, symSize: 0x264 }
  - { offset: 0x3F70F, size: 0x8, addend: 0x0, symName: _mmapForContinuousMode, symObjAddr: 0x1740, symBinAddr: 0x100019660, symSize: 0x264 }
  - { offset: 0x3F717, size: 0x8, addend: 0x0, symName: _fileWriter, symObjAddr: 0x19A4, symBinAddr: 0x1000198C4, symSize: 0x140 }
  - { offset: 0x3F8D6, size: 0x8, addend: 0x0, symName: _fileWriter, symObjAddr: 0x19A4, symBinAddr: 0x1000198C4, symSize: 0x140 }
  - { offset: 0x3F8DE, size: 0x8, addend: 0x0, symName: _truncateCurrentFile, symObjAddr: 0x1AE4, symBinAddr: 0x100019A04, symSize: 0xD8 }
  - { offset: 0x3F9A6, size: 0x8, addend: 0x0, symName: _truncateCurrentFile, symObjAddr: 0x1AE4, symBinAddr: 0x100019A04, symSize: 0xD8 }
  - { offset: 0x3F9AE, size: 0x8, addend: 0x0, symName: _initializeProfileForContinuousMode, symObjAddr: 0x1BBC, symBinAddr: 0x100019ADC, symSize: 0x25C }
  - { offset: 0x3FA4C, size: 0x8, addend: 0x0, symName: _initializeProfileForContinuousMode, symObjAddr: 0x1BBC, symBinAddr: 0x100019ADC, symSize: 0x25C }
  - { offset: 0x3FA54, size: 0x8, addend: 0x0, symName: _createProfileDir, symObjAddr: 0x1E18, symBinAddr: 0x100019D38, symSize: 0xA4 }
  - { offset: 0x3FC2B, size: 0x8, addend: 0x0, symName: _createProfileDir, symObjAddr: 0x1E18, symBinAddr: 0x100019D38, symSize: 0xA4 }
  - { offset: 0x3FC33, size: 0x8, addend: 0x0, symName: _parseAndSetFilename.cold.1, symObjAddr: 0x1EBC, symBinAddr: 0x100054498, symSize: 0x24 }
  - { offset: 0x3FC90, size: 0x8, addend: 0x0, symName: _parseAndSetFilename.cold.1, symObjAddr: 0x1EBC, symBinAddr: 0x100054498, symSize: 0x24 }
  - { offset: 0x3FC98, size: 0x8, addend: 0x0, symName: _parseAndSetFilename.cold.2, symObjAddr: 0x1EE0, symBinAddr: 0x1000544BC, symSize: 0x24 }
  - { offset: 0x3FCBA, size: 0x8, addend: 0x0, symName: _parseAndSetFilename.cold.2, symObjAddr: 0x1EE0, symBinAddr: 0x1000544BC, symSize: 0x24 }
  - { offset: 0x3FCD4, size: 0x8, addend: 0x0, symName: _parseAndSetFilename.cold.2, symObjAddr: 0x1EE0, symBinAddr: 0x1000544BC, symSize: 0x24 }
  - { offset: 0x3FCE4, size: 0x8, addend: 0x0, symName: _parseAndSetFilename.cold.2, symObjAddr: 0x1EE0, symBinAddr: 0x1000544BC, symSize: 0x24 }
  - { offset: 0x3FE49, size: 0x8, addend: 0x0, symName: _lprofProfileDumped, symObjAddr: 0x0, symBinAddr: 0x100019DDC, symSize: 0xC }
  - { offset: 0x3FE66, size: 0x8, addend: 0x0, symName: _ProfileDumped, symObjAddr: 0x4E0, symBinAddr: 0x10007DF50, symSize: 0x0 }
  - { offset: 0x3FE76, size: 0x8, addend: 0x0, symName: _lprofProfileDumped, symObjAddr: 0x0, symBinAddr: 0x100019DDC, symSize: 0xC }
  - { offset: 0x3FEBE, size: 0x8, addend: 0x0, symName: _lprofGetLoadModuleSignature, symObjAddr: 0x0, symBinAddr: 0x100019DE8, symSize: 0xD0 }
  - { offset: 0x3FEEB, size: 0x8, addend: 0x0, symName: _VPMergeHook, symBinAddr: 0x10007DE60, symSize: 0x0 }
  - { offset: 0x40154, size: 0x8, addend: 0x0, symName: _lprofGetLoadModuleSignature, symObjAddr: 0x0, symBinAddr: 0x100019DE8, symSize: 0xD0 }
  - { offset: 0x4015C, size: 0x8, addend: 0x0, symName: ___llvm_profile_check_compatibility, symObjAddr: 0xD0, symBinAddr: 0x100019EB8, symSize: 0x1CC }
  - { offset: 0x401CC, size: 0x8, addend: 0x0, symName: ___llvm_profile_check_compatibility, symObjAddr: 0xD0, symBinAddr: 0x100019EB8, symSize: 0x1CC }
  - { offset: 0x401D4, size: 0x8, addend: 0x0, symName: ___llvm_profile_merge_from_buffer, symObjAddr: 0x29C, symBinAddr: 0x10001A084, symSize: 0x3E8 }
  - { offset: 0x402AC, size: 0x8, addend: 0x0, symName: ___llvm_profile_merge_from_buffer, symObjAddr: 0x29C, symBinAddr: 0x10001A084, symSize: 0x3E8 }
  - { offset: 0x40523, size: 0x8, addend: 0x0, symName: _lprofMergeValueProfData, symObjAddr: 0x0, symBinAddr: 0x10001A46C, symSize: 0xF0 }
  - { offset: 0x40534, size: 0x8, addend: 0x0, symName: _lprofMergeValueProfData, symObjAddr: 0x0, symBinAddr: 0x10001A46C, symSize: 0xF0 }
  - { offset: 0x407FF, size: 0x8, addend: 0x0, symName: ___llvm_profile_begin_data, symObjAddr: 0x0, symBinAddr: 0x10001A55C, symSize: 0xC }
  - { offset: 0x4081E, size: 0x8, addend: 0x0, symName: _CurrentVNode, symObjAddr: 0xC0, symBinAddr: 0x10007D2E8, symSize: 0x0 }
  - { offset: 0x4089B, size: 0x8, addend: 0x0, symName: _EndVNode, symObjAddr: 0xC8, symBinAddr: 0x10007D2F0, symSize: 0x0 }
  - { offset: 0x408A4, size: 0x8, addend: 0x0, symName: ___llvm_profile_begin_data, symObjAddr: 0x0, symBinAddr: 0x10001A55C, symSize: 0xC }
  - { offset: 0x408AC, size: 0x8, addend: 0x0, symName: ___llvm_profile_end_data, symObjAddr: 0xC, symBinAddr: 0x10001A568, symSize: 0xC }
  - { offset: 0x408C5, size: 0x8, addend: 0x0, symName: ___llvm_profile_end_data, symObjAddr: 0xC, symBinAddr: 0x10001A568, symSize: 0xC }
  - { offset: 0x408CD, size: 0x8, addend: 0x0, symName: ___llvm_profile_begin_names, symObjAddr: 0x18, symBinAddr: 0x10001A574, symSize: 0xC }
  - { offset: 0x408E6, size: 0x8, addend: 0x0, symName: ___llvm_profile_begin_names, symObjAddr: 0x18, symBinAddr: 0x10001A574, symSize: 0xC }
  - { offset: 0x408EE, size: 0x8, addend: 0x0, symName: ___llvm_profile_end_names, symObjAddr: 0x24, symBinAddr: 0x10001A580, symSize: 0xC }
  - { offset: 0x40907, size: 0x8, addend: 0x0, symName: ___llvm_profile_end_names, symObjAddr: 0x24, symBinAddr: 0x10001A580, symSize: 0xC }
  - { offset: 0x4090F, size: 0x8, addend: 0x0, symName: ___llvm_profile_begin_counters, symObjAddr: 0x30, symBinAddr: 0x10001A58C, symSize: 0xC }
  - { offset: 0x40928, size: 0x8, addend: 0x0, symName: ___llvm_profile_begin_counters, symObjAddr: 0x30, symBinAddr: 0x10001A58C, symSize: 0xC }
  - { offset: 0x40930, size: 0x8, addend: 0x0, symName: ___llvm_profile_end_counters, symObjAddr: 0x3C, symBinAddr: 0x10001A598, symSize: 0xC }
  - { offset: 0x40949, size: 0x8, addend: 0x0, symName: ___llvm_profile_end_counters, symObjAddr: 0x3C, symBinAddr: 0x10001A598, symSize: 0xC }
  - { offset: 0x40951, size: 0x8, addend: 0x0, symName: ___llvm_profile_begin_bitmap, symObjAddr: 0x48, symBinAddr: 0x10001A5A4, symSize: 0xC }
  - { offset: 0x4096A, size: 0x8, addend: 0x0, symName: ___llvm_profile_begin_bitmap, symObjAddr: 0x48, symBinAddr: 0x10001A5A4, symSize: 0xC }
  - { offset: 0x40972, size: 0x8, addend: 0x0, symName: ___llvm_profile_end_bitmap, symObjAddr: 0x54, symBinAddr: 0x10001A5B0, symSize: 0xC }
  - { offset: 0x4098B, size: 0x8, addend: 0x0, symName: ___llvm_profile_end_bitmap, symObjAddr: 0x54, symBinAddr: 0x10001A5B0, symSize: 0xC }
  - { offset: 0x40993, size: 0x8, addend: 0x0, symName: ___llvm_profile_begin_vtables, symObjAddr: 0x60, symBinAddr: 0x10001A5BC, symSize: 0xC }
  - { offset: 0x409AC, size: 0x8, addend: 0x0, symName: ___llvm_profile_begin_vtables, symObjAddr: 0x60, symBinAddr: 0x10001A5BC, symSize: 0xC }
  - { offset: 0x409B4, size: 0x8, addend: 0x0, symName: ___llvm_profile_end_vtables, symObjAddr: 0x6C, symBinAddr: 0x10001A5C8, symSize: 0xC }
  - { offset: 0x409CD, size: 0x8, addend: 0x0, symName: ___llvm_profile_end_vtables, symObjAddr: 0x6C, symBinAddr: 0x10001A5C8, symSize: 0xC }
  - { offset: 0x409D5, size: 0x8, addend: 0x0, symName: ___llvm_profile_begin_vtabnames, symObjAddr: 0x78, symBinAddr: 0x10001A5D4, symSize: 0xC }
  - { offset: 0x409EE, size: 0x8, addend: 0x0, symName: ___llvm_profile_begin_vtabnames, symObjAddr: 0x78, symBinAddr: 0x10001A5D4, symSize: 0xC }
  - { offset: 0x409F6, size: 0x8, addend: 0x0, symName: ___llvm_profile_end_vtabnames, symObjAddr: 0x84, symBinAddr: 0x10001A5E0, symSize: 0xC }
  - { offset: 0x40A0F, size: 0x8, addend: 0x0, symName: ___llvm_profile_end_vtabnames, symObjAddr: 0x84, symBinAddr: 0x10001A5E0, symSize: 0xC }
  - { offset: 0x40A30, size: 0x8, addend: 0x0, symName: ___llvm_profile_begin_vnodes, symObjAddr: 0x9C, symBinAddr: 0x10001A5EC, symSize: 0xC }
  - { offset: 0x40A38, size: 0x8, addend: 0x0, symName: ___llvm_profile_end_vnodes, symObjAddr: 0xA8, symBinAddr: 0x10001A5F8, symSize: 0xC }
  - { offset: 0x40A51, size: 0x8, addend: 0x0, symName: ___llvm_profile_end_vnodes, symObjAddr: 0xA8, symBinAddr: 0x10001A5F8, symSize: 0xC }
  - { offset: 0x40A59, size: 0x8, addend: 0x0, symName: ___llvm_write_binary_ids, symObjAddr: 0xB4, symBinAddr: 0x10001A604, symSize: 0x8 }
  - { offset: 0x40A72, size: 0x8, addend: 0x0, symName: ___llvm_write_binary_ids, symObjAddr: 0xB4, symBinAddr: 0x10001A604, symSize: 0x8 }
  - { offset: 0x40CFC, size: 0x8, addend: 0x0, symName: __GLOBAL__sub_I_InstrProfilingRuntime.cpp, symObjAddr: 0x0, symBinAddr: 0x10001A60C, symSize: 0x18 }
  - { offset: 0x40D1F, size: 0x8, addend: 0x0, symName: ___llvm_profile_runtime, symObjAddr: 0x590, symBinAddr: 0x10007DDFC, symSize: 0x0 }
  - { offset: 0x40D4F, size: 0x8, addend: 0x0, symName: __GLOBAL__sub_I_InstrProfilingRuntime.cpp, symObjAddr: 0x0, symBinAddr: 0x10001A60C, symSize: 0x18 }
  - { offset: 0x40DCB, size: 0x8, addend: 0x0, symName: ___llvm_profile_recursive_mkdir, symObjAddr: 0x0, symBinAddr: 0x10001A624, symSize: 0x58 }
  - { offset: 0x40DD3, size: 0x8, addend: 0x0, symName: _lprofDirMode, symObjAddr: 0x5AC, symBinAddr: 0x10007D2F8, symSize: 0x0 }
  - { offset: 0x40DEA, size: 0x8, addend: 0x0, symName: _lprofDirMode, symObjAddr: 0x5AC, symBinAddr: 0x10007D2F8, symSize: 0x0 }
  - { offset: 0x40E1F, size: 0x8, addend: 0x0, symName: ___llvm_profile_recursive_mkdir, symObjAddr: 0x0, symBinAddr: 0x10001A624, symSize: 0x58 }
  - { offset: 0x40E9F, size: 0x8, addend: 0x0, symName: _lprofGetHostName, symObjAddr: 0x70, symBinAddr: 0x10001A67C, symSize: 0x80 }
  - { offset: 0x40FD5, size: 0x8, addend: 0x0, symName: _lprofLockFileHandle, symObjAddr: 0x208, symBinAddr: 0x10001A6FC, symSize: 0x90 }
  - { offset: 0x40FDD, size: 0x8, addend: 0x0, symName: _lprofUnlockFileHandle, symObjAddr: 0x298, symBinAddr: 0x10001A78C, symSize: 0x90 }
  - { offset: 0x41066, size: 0x8, addend: 0x0, symName: _lprofUnlockFileHandle, symObjAddr: 0x298, symBinAddr: 0x10001A78C, symSize: 0x90 }
  - { offset: 0x4106E, size: 0x8, addend: 0x0, symName: _lprofOpenFileEx, symObjAddr: 0x328, symBinAddr: 0x10001A81C, symSize: 0xD0 }
  - { offset: 0x410D1, size: 0x8, addend: 0x0, symName: _lprofOpenFileEx, symObjAddr: 0x328, symBinAddr: 0x10001A81C, symSize: 0xD0 }
  - { offset: 0x4114C, size: 0x8, addend: 0x0, symName: _lprofFindFirstDirSeparator, symObjAddr: 0x538, symBinAddr: 0x10001A8EC, symSize: 0x8 }
  - { offset: 0x4118C, size: 0x8, addend: 0x0, symName: _lprofSuspendSigKill, symObjAddr: 0x548, symBinAddr: 0x10001A8F4, symSize: 0x8 }
  - { offset: 0x41194, size: 0x8, addend: 0x0, symName: _lprofRestoreSigKill, symObjAddr: 0x550, symBinAddr: 0x10001A8FC, symSize: 0x4 }
  - { offset: 0x411AF, size: 0x8, addend: 0x0, symName: _lprofRestoreSigKill, symObjAddr: 0x550, symBinAddr: 0x10001A8FC, symSize: 0x4 }
  - { offset: 0x411CE, size: 0x8, addend: 0x0, symName: _lprofAtExit, symObjAddr: 0x5A8, symBinAddr: 0x10001A900, symSize: 0x4 }
  - { offset: 0x411D6, size: 0x8, addend: 0x0, symName: _lprofDirMode, symObjAddr: 0x5AC, symBinAddr: 0x10007D2F8, symSize: 0x0 }
  - { offset: 0x414A7, size: 0x8, addend: 0x0, symName: _getValueProfRecordHeaderSize, symObjAddr: 0x0, symBinAddr: 0x10001A904, symSize: 0xC }
  - { offset: 0x414C6, size: 0x8, addend: 0x0, symName: _VPMaxNumValsPerSite, symObjAddr: 0x1740, symBinAddr: 0x10007D300, symSize: 0x0 }
  - { offset: 0x4155C, size: 0x8, addend: 0x0, symName: __MergedGlobals, symObjAddr: 0xEF50, symBinAddr: 0x10007DF80, symSize: 0x0 }
  - { offset: 0x41583, size: 0x8, addend: 0x0, symName: __MergedGlobals, symObjAddr: 0xEF50, symBinAddr: 0x10007DF80, symSize: 0x0 }
  - { offset: 0x4159A, size: 0x8, addend: 0x0, symName: __MergedGlobals, symObjAddr: 0xEF50, symBinAddr: 0x10007DF80, symSize: 0x0 }
  - { offset: 0x415BA, size: 0x8, addend: 0x0, symName: _TheVPDataReader, symObjAddr: 0x1748, symBinAddr: 0x10007D308, symSize: 0x0 }
  - { offset: 0x41861, size: 0x8, addend: 0x0, symName: _RTRecord, symObjAddr: 0xEF28, symBinAddr: 0x10007DF58, symSize: 0x0 }
  - { offset: 0x41A5C, size: 0x8, addend: 0x0, symName: _getValueProfRecordHeaderSize, symObjAddr: 0x0, symBinAddr: 0x10001A904, symSize: 0xC }
  - { offset: 0x41AB5, size: 0x8, addend: 0x0, symName: _getValueProfRecordValueData, symObjAddr: 0x1C, symBinAddr: 0x10001A910, symSize: 0x14 }
  - { offset: 0x41B66, size: 0x8, addend: 0x0, symName: _getValueProfRecordNext, symObjAddr: 0x1B4, symBinAddr: 0x10001A924, symSize: 0x1A4 }
  - { offset: 0x41B6E, size: 0x8, addend: 0x0, symName: _getFirstValueProfRecord, symObjAddr: 0x358, symBinAddr: 0x10001AAC8, symSize: 0x8 }
  - { offset: 0x41BDA, size: 0x8, addend: 0x0, symName: _getFirstValueProfRecord, symObjAddr: 0x358, symBinAddr: 0x10001AAC8, symSize: 0x8 }
  - { offset: 0x41CBD, size: 0x8, addend: 0x0, symName: _lprofSetupValueProfiler, symObjAddr: 0xB38, symBinAddr: 0x10001AAD0, symSize: 0x64 }
  - { offset: 0x41DCF, size: 0x8, addend: 0x0, symName: ___llvm_profile_instrument_target_value, symObjAddr: 0xE30, symBinAddr: 0x10001AB34, symSize: 0x290 }
  - { offset: 0x41EFE, size: 0x8, addend: 0x0, symName: _lprofGetVPDataReader, symObjAddr: 0x1108, symBinAddr: 0x10001ADC4, symSize: 0xC }
  - { offset: 0x41F06, size: 0x8, addend: 0x0, symName: _initializeValueProfRuntimeRecord, symObjAddr: 0x1114, symBinAddr: 0x10001ADD0, symSize: 0x210 }
  - { offset: 0x41F21, size: 0x8, addend: 0x0, symName: _initializeValueProfRuntimeRecord, symObjAddr: 0x1114, symBinAddr: 0x10001ADD0, symSize: 0x210 }
  - { offset: 0x41F29, size: 0x8, addend: 0x0, symName: _getNumValueDataForSiteWrapper, symObjAddr: 0x1324, symBinAddr: 0x10001AFE0, symSize: 0x14 }
  - { offset: 0x42044, size: 0x8, addend: 0x0, symName: _getNumValueDataForSiteWrapper, symObjAddr: 0x1324, symBinAddr: 0x10001AFE0, symSize: 0x14 }
  - { offset: 0x4204C, size: 0x8, addend: 0x0, symName: _getValueProfDataSizeWrapper, symObjAddr: 0x1338, symBinAddr: 0x10001AFF4, symSize: 0xDC }
  - { offset: 0x4208A, size: 0x8, addend: 0x0, symName: _getNumValueDataForSiteWrapper, symObjAddr: 0x1324, symBinAddr: 0x10001AFE0, symSize: 0x14 }
  - { offset: 0x420B2, size: 0x8, addend: 0x0, symName: _getValueProfDataSizeWrapper, symObjAddr: 0x1338, symBinAddr: 0x10001AFF4, symSize: 0xDC }
  - { offset: 0x420BA, size: 0x8, addend: 0x0, symName: _getNextNValueData, symObjAddr: 0x1414, symBinAddr: 0x10001B0D0, symSize: 0x44 }
  - { offset: 0x42159, size: 0x8, addend: 0x0, symName: _getNextNValueData, symObjAddr: 0x1414, symBinAddr: 0x10001B0D0, symSize: 0x44 }
  - { offset: 0x42161, size: 0x8, addend: 0x0, symName: _getNumValueSitesRT, symObjAddr: 0x1458, symBinAddr: 0x10001B114, symSize: 0x10 }
  - { offset: 0x421EF, size: 0x8, addend: 0x0, symName: _getNumValueSitesRT, symObjAddr: 0x1458, symBinAddr: 0x10001B114, symSize: 0x10 }
  - { offset: 0x421F7, size: 0x8, addend: 0x0, symName: _getNumValueDataRT, symObjAddr: 0x1468, symBinAddr: 0x10001B124, symSize: 0x190 }
  - { offset: 0x42232, size: 0x8, addend: 0x0, symName: _getNumValueDataRT, symObjAddr: 0x1468, symBinAddr: 0x10001B124, symSize: 0x190 }
  - { offset: 0x422A8, size: 0x8, addend: 0x0, symName: ___llvm_profile_instrument_target_value.cold.1, symObjAddr: 0x161C, symBinAddr: 0x1000544E0, symSize: 0x24 }
  - { offset: 0x4233A, size: 0x8, addend: 0x0, symName: ___llvm_profile_raw_version, symObjAddr: 0x0, symBinAddr: 0x10007D338, symSize: 0x0 }
  - { offset: 0x4237C, size: 0x8, addend: 0x0, symName: _lprofBufferWriter, symObjAddr: 0x0, symBinAddr: 0x10001B2B4, symSize: 0x6C }
  - { offset: 0x4239B, size: 0x8, addend: 0x0, symName: _FreeHook, symObjAddr: 0x4F30, symBinAddr: 0x10007DE00, symSize: 0x0 }
  - { offset: 0x423C1, size: 0x8, addend: 0x0, symName: _DynamicBufferIOBuffer, symObjAddr: 0x4F38, symBinAddr: 0x10007DE08, symSize: 0x0 }
  - { offset: 0x423EF, size: 0x8, addend: 0x0, symName: _VPBufferSize, symObjAddr: 0x4F40, symBinAddr: 0x10007DE10, symSize: 0x0 }
  - { offset: 0x42416, size: 0x8, addend: 0x0, symName: __MergedGlobals, symObjAddr: 0x6F48, symBinAddr: 0x10007FF90, symSize: 0x0 }
  - { offset: 0x42565, size: 0x8, addend: 0x0, symName: _BufferIOBuffer, symObjAddr: 0x4F48, symBinAddr: 0x10007DF90, symSize: 0x0 }
  - { offset: 0x4258F, size: 0x8, addend: 0x0, symName: __MergedGlobals, symObjAddr: 0x6F48, symBinAddr: 0x10007FF90, symSize: 0x0 }
  - { offset: 0x4260C, size: 0x8, addend: 0x0, symName: _lprofBufferWriter, symObjAddr: 0x0, symBinAddr: 0x10001B2B4, symSize: 0x6C }
  - { offset: 0x42729, size: 0x8, addend: 0x0, symName: _lprofBufferIOWrite, symObjAddr: 0x100, symBinAddr: 0x10001B320, symSize: 0x134 }
  - { offset: 0x42832, size: 0x8, addend: 0x0, symName: _lprofWriteData, symObjAddr: 0x2F4, symBinAddr: 0x10001B454, symSize: 0xD4 }
  - { offset: 0x4283A, size: 0x8, addend: 0x0, symName: _lprofWriteDataImpl, symObjAddr: 0x3C8, symBinAddr: 0x10001B528, symSize: 0x46C }
  - { offset: 0x42C68, size: 0x8, addend: 0x0, symName: _lprofWriteDataImpl, symObjAddr: 0x3C8, symBinAddr: 0x10001B528, symSize: 0x46C }
  - { offset: 0x42F9E, size: 0x8, addend: 0x0, symName: _writeOneValueProfData, symObjAddr: 0x8C0, symBinAddr: 0x10001B994, symSize: 0x4A8 }
  - { offset: 0x43267, size: 0x8, addend: 0x0, symName: '__ZN108_$LT$alloc..collections..btree..map..Iter$LT$K$C$V$GT$$u20$as$u20$core..iter..traits..iterator..Iterator$GT$4next17hd09f2d96589fb435E', symObjAddr: 0x0, symBinAddr: 0x10001BE3C, symSize: 0x13C }
  - { offset: 0x436C0, size: 0x8, addend: 0x0, symName: '__ZN5alloc11collections5btree4node208Handle$LT$alloc..collections..btree..node..NodeRef$LT$alloc..collections..btree..node..marker..Mut$C$K$C$V$C$alloc..collections..btree..node..marker..Leaf$GT$$C$alloc..collections..btree..node..marker..KV$GT$5split17h6d01fe3bbe152ad6E', symObjAddr: 0x114AC, symBinAddr: 0x100027CD8, symSize: 0x1C0 }
  - { offset: 0x43B2E, size: 0x8, addend: 0x0, symName: '__ZN5alloc11collections5btree4node208Handle$LT$alloc..collections..btree..node..NodeRef$LT$alloc..collections..btree..node..marker..Mut$C$K$C$V$C$alloc..collections..btree..node..marker..Leaf$GT$$C$alloc..collections..btree..node..marker..KV$GT$5split17ha09fe2f6ae84e77eE', symObjAddr: 0x1166C, symBinAddr: 0x100027E98, symSize: 0x164 }
  - { offset: 0x43F05, size: 0x8, addend: 0x0, symName: '__ZN5alloc11collections5btree4node212Handle$LT$alloc..collections..btree..node..NodeRef$LT$alloc..collections..btree..node..marker..Mut$C$K$C$V$C$alloc..collections..btree..node..marker..Internal$GT$$C$alloc..collections..btree..node..marker..KV$GT$5split17h8a06bb5830746347E', symObjAddr: 0x11C34, symBinAddr: 0x100027FFC, symSize: 0x218 }
  - { offset: 0x44495, size: 0x8, addend: 0x0, symName: '__ZN5alloc11collections5btree4node212Handle$LT$alloc..collections..btree..node..NodeRef$LT$alloc..collections..btree..node..marker..Mut$C$K$C$V$C$alloc..collections..btree..node..marker..Internal$GT$$C$alloc..collections..btree..node..marker..KV$GT$5split17hb4d18c041628fb6dE', symObjAddr: 0x11E4C, symBinAddr: 0x100028214, symSize: 0x28C }
  - { offset: 0x44B65, size: 0x8, addend: 0x0, symName: '__ZN5alloc11collections5btree6remove259_$LT$impl$u20$alloc..collections..btree..node..Handle$LT$alloc..collections..btree..node..NodeRef$LT$alloc..collections..btree..node..marker..Mut$C$K$C$V$C$alloc..collections..btree..node..marker..Leaf$GT$$C$alloc..collections..btree..node..marker..KV$GT$$GT$14remove_leaf_kv17h73689d62ad792e56E', symObjAddr: 0x13418, symBinAddr: 0x100029270, symSize: 0x570 }
  - { offset: 0x457A4, size: 0x8, addend: 0x0, symName: '__ZN5alloc11collections5btree6remove259_$LT$impl$u20$alloc..collections..btree..node..Handle$LT$alloc..collections..btree..node..NodeRef$LT$alloc..collections..btree..node..marker..Mut$C$K$C$V$C$alloc..collections..btree..node..marker..Leaf$GT$$C$alloc..collections..btree..node..marker..KV$GT$$GT$14remove_leaf_kv17he90c15582b4564a9E', symObjAddr: 0x13988, symBinAddr: 0x1000297E0, symSize: 0x52C }
  - { offset: 0x4755E, size: 0x8, addend: 0x0, symName: '__ZN5alloc11collections5btree4node29BalancingContext$LT$K$C$V$GT$15bulk_steal_left17h75e64982df7e0642E', symObjAddr: 0x120D8, symBinAddr: 0x1000284A0, symSize: 0x284 }
  - { offset: 0x47AC6, size: 0x8, addend: 0x0, symName: '__ZN5alloc11collections5btree4node29BalancingContext$LT$K$C$V$GT$15bulk_steal_left17hbba92f5d6a683d2bE', symObjAddr: 0x1235C, symBinAddr: 0x100028724, symSize: 0x1F4 }
  - { offset: 0x47FF6, size: 0x8, addend: 0x0, symName: '__ZN5alloc11collections5btree4node29BalancingContext$LT$K$C$V$GT$16bulk_steal_right17h38344368ffc8c5cbE', symObjAddr: 0x12550, symBinAddr: 0x100028918, symSize: 0x2CC }
  - { offset: 0x48613, size: 0x8, addend: 0x0, symName: '__ZN5alloc11collections5btree4node29BalancingContext$LT$K$C$V$GT$16bulk_steal_right17hbe50625095942a6eE', symObjAddr: 0x1281C, symBinAddr: 0x100028BE4, symSize: 0x240 }
  - { offset: 0x48C61, size: 0x8, addend: 0x0, symName: '__ZN5alloc11collections5btree4node29BalancingContext$LT$K$C$V$GT$8do_merge17h4b602dda9210b2bdE', symObjAddr: 0x12A5C, symBinAddr: 0x100028E24, symSize: 0x258 }
  - { offset: 0x49299, size: 0x8, addend: 0x0, symName: '__ZN5alloc11collections5btree4node29BalancingContext$LT$K$C$V$GT$8do_merge17h745f74eea44b50d0E', symObjAddr: 0x12CB4, symBinAddr: 0x10002907C, symSize: 0x1F4 }
  - { offset: 0x49AA3, size: 0x8, addend: 0x0, symName: '__ZN108_$LT$alloc..collections..btree..map..Iter$LT$K$C$V$GT$$u20$as$u20$core..iter..traits..iterator..Iterator$GT$4next17hd09f2d96589fb435E', symObjAddr: 0x0, symBinAddr: 0x10001BE3C, symSize: 0x13C }
  - { offset: 0x49DF9, size: 0x8, addend: 0x0, symName: '__ZN5alloc11collections5btree3map25BTreeMap$LT$K$C$V$C$A$GT$6insert17h1b51d01431bfbb0bE', symObjAddr: 0xFA98, symBinAddr: 0x100026CB0, symSize: 0x9B0 }
  - { offset: 0x4B782, size: 0x8, addend: 0x0, symName: '__ZN5alloc11collections5btree3map25IntoIter$LT$K$C$V$C$A$GT$10dying_next17h14374c324bbb3051E', symObjAddr: 0x10E34, symBinAddr: 0x100027660, symSize: 0x228 }
  - { offset: 0x4BB28, size: 0x8, addend: 0x0, symName: '__ZN5alloc11collections5btree3map25IntoIter$LT$K$C$V$C$A$GT$10dying_next17ha97a3f555acf7d48E', symObjAddr: 0x1105C, symBinAddr: 0x100027888, symSize: 0x228 }
  - { offset: 0x4BECE, size: 0x8, addend: 0x0, symName: '__ZN5alloc11collections5btree3map25IntoIter$LT$K$C$V$C$A$GT$10dying_next17hb30339cd7068d6cfE', symObjAddr: 0x11284, symBinAddr: 0x100027AB0, symSize: 0x228 }
  - { offset: 0x4D1BE, size: 0x8, addend: 0x0, symName: '__ZN5alloc7raw_vec19RawVec$LT$T$C$A$GT$8grow_one17h06cf0433792cf41cE', symObjAddr: 0x14498, symBinAddr: 0x10002A0CC, symSize: 0xB4 }
  - { offset: 0x4D2D4, size: 0x8, addend: 0x0, symName: '__ZN5alloc7raw_vec19RawVec$LT$T$C$A$GT$8grow_one17h0ff3cfc767e809c5E', symObjAddr: 0x1454C, symBinAddr: 0x10002A180, symSize: 0xC4 }
  - { offset: 0x4D3EA, size: 0x8, addend: 0x0, symName: '__ZN5alloc7raw_vec19RawVec$LT$T$C$A$GT$8grow_one17h2a7a88545eefe0b5E', symObjAddr: 0x14610, symBinAddr: 0x10002A244, symSize: 0xC4 }
  - { offset: 0x4D500, size: 0x8, addend: 0x0, symName: '__ZN5alloc7raw_vec19RawVec$LT$T$C$A$GT$8grow_one17h33ef86bd5bc7babfE', symObjAddr: 0x146D4, symBinAddr: 0x10002A308, symSize: 0xB4 }
  - { offset: 0x4D616, size: 0x8, addend: 0x0, symName: '__ZN5alloc7raw_vec19RawVec$LT$T$C$A$GT$8grow_one17h4794d3730a636672E', symObjAddr: 0x1484C, symBinAddr: 0x10002A3BC, symSize: 0xC4 }
  - { offset: 0x4D72C, size: 0x8, addend: 0x0, symName: '__ZN5alloc7raw_vec19RawVec$LT$T$C$A$GT$8grow_one17h4b7a36f6d62b1585E', symObjAddr: 0x14910, symBinAddr: 0x10002A480, symSize: 0xB4 }
  - { offset: 0x4D842, size: 0x8, addend: 0x0, symName: '__ZN5alloc7raw_vec19RawVec$LT$T$C$A$GT$8grow_one17h4ec275d7687f1e24E', symObjAddr: 0x149C4, symBinAddr: 0x10002A534, symSize: 0xC4 }
  - { offset: 0x4D958, size: 0x8, addend: 0x0, symName: '__ZN5alloc7raw_vec19RawVec$LT$T$C$A$GT$8grow_one17h755f70e15600008eE', symObjAddr: 0x14A88, symBinAddr: 0x10002A5F8, symSize: 0xB4 }
  - { offset: 0x4DA6E, size: 0x8, addend: 0x0, symName: '__ZN5alloc7raw_vec19RawVec$LT$T$C$A$GT$8grow_one17h9a9a76236db74635E', symObjAddr: 0x14B3C, symBinAddr: 0x10002A6AC, symSize: 0xC0 }
  - { offset: 0x4DB84, size: 0x8, addend: 0x0, symName: '__ZN5alloc7raw_vec19RawVec$LT$T$C$A$GT$8grow_one17hbdf039f48f951a6eE', symObjAddr: 0x14BFC, symBinAddr: 0x10002A76C, symSize: 0xC0 }
  - { offset: 0x4DC9A, size: 0x8, addend: 0x0, symName: '__ZN5alloc7raw_vec19RawVec$LT$T$C$A$GT$8grow_one17hf24d0ccf3cd16788E', symObjAddr: 0x14CBC, symBinAddr: 0x10002A82C, symSize: 0xC0 }
  - { offset: 0x4E38B, size: 0x8, addend: 0x0, symName: __ZN5alloc7raw_vec11finish_grow17h2d571ea7b67f06b7E, symObjAddr: 0x14418, symBinAddr: 0x1000574C4, symSize: 0x80 }
  - { offset: 0x4E426, size: 0x8, addend: 0x0, symName: '__ZN5alloc7raw_vec20RawVecInner$LT$A$GT$7reserve21do_reserve_and_handle17h4b2c29e8db0b9268E', symObjAddr: 0x14D7C, symBinAddr: 0x100057544, symSize: 0xF0 }
  - { offset: 0x4F752, size: 0x8, addend: 0x0, symName: __ZN5alloc5alloc15exchange_malloc17h9685023251c359e7E, symObjAddr: 0x143CC, symBinAddr: 0x10002A080, symSize: 0x4C }
  - { offset: 0x4F820, size: 0x8, addend: 0x0, symName: '__ZN5alloc4sync16Arc$LT$T$C$A$GT$9drop_slow17h568ad2c88e43a2e4E', symObjAddr: 0x13FE4, symBinAddr: 0x100029D0C, symSize: 0x34 }
  - { offset: 0x4F8FD, size: 0x8, addend: 0x0, symName: '__ZN5alloc4sync16Arc$LT$T$C$A$GT$9drop_slow17h568f10379158be3aE', symObjAddr: 0x14018, symBinAddr: 0x100029D40, symSize: 0xC0 }
  - { offset: 0x4FC22, size: 0x8, addend: 0x0, symName: '__ZN5alloc4sync16Arc$LT$T$C$A$GT$9drop_slow17h74c044505d97b8fcE', symObjAddr: 0x140D8, symBinAddr: 0x100029E00, symSize: 0x78 }
  - { offset: 0x4FDEE, size: 0x8, addend: 0x0, symName: '__ZN5alloc4sync16Arc$LT$T$C$A$GT$9drop_slow17h8f2220b00493c4e4E', symObjAddr: 0x14150, symBinAddr: 0x100029E78, symSize: 0xA0 }
  - { offset: 0x500E6, size: 0x8, addend: 0x0, symName: '__ZN5alloc4sync16Arc$LT$T$C$A$GT$9drop_slow17hb6a5023acd32b46fE', symObjAddr: 0x14264, symBinAddr: 0x100029F18, symSize: 0xD0 }
  - { offset: 0x502FB, size: 0x8, addend: 0x0, symName: '__ZN5alloc4sync16Arc$LT$T$C$A$GT$9drop_slow17hd5e62bd79ab5d7f0E', symObjAddr: 0x14334, symBinAddr: 0x100029FE8, symSize: 0x98 }
  - { offset: 0x5082E, size: 0x8, addend: 0x0, symName: '__ZN64_$LT$alloc..ffi..c_str..NulError$u20$as$u20$core..fmt..Debug$GT$3fmt17hb25a36ba1a7f247bE', symObjAddr: 0x1BBE4, symBinAddr: 0x100031664, symSize: 0x4C }
  - { offset: 0x50CEC, size: 0x8, addend: 0x0, symName: '__ZN58_$LT$alloc..string..String$u20$as$u20$core..fmt..Debug$GT$3fmt17hf1e461d83be89b72E', symObjAddr: 0xF8D0, symBinAddr: 0x100026AE8, symSize: 0x10 }
  - { offset: 0x50DA7, size: 0x8, addend: 0x0, symName: '__ZN58_$LT$alloc..string..String$u20$as$u20$core..fmt..Write$GT$10write_char17h5afa657ba1086fe6E', symObjAddr: 0xF8E0, symBinAddr: 0x100026AF8, symSize: 0x138 }
  - { offset: 0x50F4A, size: 0x8, addend: 0x0, symName: '__ZN58_$LT$alloc..string..String$u20$as$u20$core..fmt..Write$GT$9write_str17hba5566b7261b3df3E', symObjAddr: 0xFA18, symBinAddr: 0x100026C30, symSize: 0x80 }
  - { offset: 0x510A3, size: 0x8, addend: 0x0, symName: '__ZN60_$LT$alloc..string..String$u20$as$u20$core..fmt..Display$GT$3fmt17h55315b95f551f900E', symObjAddr: 0x1BBD4, symBinAddr: 0x100031654, symSize: 0x10 }
  - { offset: 0x52B3C, size: 0x8, addend: 0x0, symName: '__ZN4core3ptr107drop_in_place$LT$alloc..vec..Vec$LT$$LP$std..ffi..os_str..OsString$C$std..ffi..os_str..OsString$RP$$GT$$GT$17h54613c9c01320632E', symObjAddr: 0x1C64, symBinAddr: 0x10001CA98, symSize: 0x94 }
  - { offset: 0x52D6F, size: 0x8, addend: 0x0, symName: '__ZN4core3ptr107drop_in_place$LT$core..pin..Pin$LT$alloc..boxed..Box$LT$std..sys..pal..unix..sync..mutex..Mutex$GT$$GT$$GT$17h3aeea96dd755cfb4E', symObjAddr: 0x1CF8, symBinAddr: 0x10001CB2C, symSize: 0x2C }
  - { offset: 0x52E14, size: 0x8, addend: 0x0, symName: '__ZN4core3ptr119drop_in_place$LT$std..io..default_write_fmt..Adapter$LT$std..io..cursor..Cursor$LT$$RF$mut$u20$$u5b$u8$u5d$$GT$$GT$$GT$17h8294f296a7dc0264E', symObjAddr: 0x1DA8, symBinAddr: 0x10001CB58, symSize: 0x10 }
  - { offset: 0x52E2B, size: 0x8, addend: 0x0, symName: '__ZN4core3ptr119drop_in_place$LT$std..io..default_write_fmt..Adapter$LT$std..io..cursor..Cursor$LT$$RF$mut$u20$$u5b$u8$u5d$$GT$$GT$$GT$17h8294f296a7dc0264E', symObjAddr: 0x1DA8, symBinAddr: 0x10001CB58, symSize: 0x10 }
  - { offset: 0x52E4C, size: 0x8, addend: 0x0, symName: '__ZN4core3ptr123drop_in_place$LT$addr2line..Context$LT$gimli..read..endian_slice..EndianSlice$LT$gimli..endianity..LittleEndian$GT$$GT$$GT$17h86eb599b9bd6b6b4E', symObjAddr: 0x1DB8, symBinAddr: 0x10001CB68, symSize: 0x70 }
  - { offset: 0x52F21, size: 0x8, addend: 0x0, symName: '__ZN4core3ptr124drop_in_place$LT$alloc..collections..btree..map..BTreeMap$LT$std..ffi..os_str..OsString$C$std..ffi..os_str..OsString$GT$$GT$17h3839acf51fe12fe1E', symObjAddr: 0x1E28, symBinAddr: 0x10001CBD8, symSize: 0xB8 }
  - { offset: 0x53154, size: 0x8, addend: 0x0, symName: '__ZN4core3ptr124drop_in_place$LT$alloc..collections..btree..map..IntoIter$LT$std..ffi..os_str..OsString$C$std..ffi..os_str..OsString$GT$$GT$17h5df7ec7eeb3dc239E', symObjAddr: 0x1EE0, symBinAddr: 0x10001CC90, symSize: 0x90 }
  - { offset: 0x5335D, size: 0x8, addend: 0x0, symName: '__ZN4core3ptr128drop_in_place$LT$core..result..Result$LT$$RF$std..thread..Thread$C$$LP$$RF$std..thread..Thread$C$std..thread..Thread$RP$$GT$$GT$17h962b0ef080f547dcE', symObjAddr: 0x1F70, symBinAddr: 0x10001CD20, symSize: 0x28 }
  - { offset: 0x53507, size: 0x8, addend: 0x0, symName: '__ZN4core3ptr129drop_in_place$LT$addr2line..unit..ResUnit$LT$gimli..read..endian_slice..EndianSlice$LT$gimli..endianity..LittleEndian$GT$$GT$$GT$17h6704d8d711f50964E', symObjAddr: 0x1F98, symBinAddr: 0x10001CD48, symSize: 0xE4 }
  - { offset: 0x53729, size: 0x8, addend: 0x0, symName: '__ZN4core3ptr129drop_in_place$LT$addr2line..unit..SupUnit$LT$gimli..read..endian_slice..EndianSlice$LT$gimli..endianity..LittleEndian$GT$$GT$$GT$17h3178d992ad3814bdE', symObjAddr: 0x207C, symBinAddr: 0x10001CE2C, symSize: 0x54 }
  - { offset: 0x53804, size: 0x8, addend: 0x0, symName: '__ZN4core3ptr130drop_in_place$LT$addr2line..unit..ResUnits$LT$gimli..read..endian_slice..EndianSlice$LT$gimli..endianity..LittleEndian$GT$$GT$$GT$17hec2ee29328c5cc7bE', symObjAddr: 0x20D0, symBinAddr: 0x10001CE80, symSize: 0xD0 }
  - { offset: 0x539AD, size: 0x8, addend: 0x0, symName: '__ZN4core3ptr130drop_in_place$LT$addr2line..unit..SupUnits$LT$gimli..read..endian_slice..EndianSlice$LT$gimli..endianity..LittleEndian$GT$$GT$$GT$17h1322e2d105d2f1f9E', symObjAddr: 0x21A0, symBinAddr: 0x10001CF50, symSize: 0xE4 }
  - { offset: 0x53B6B, size: 0x8, addend: 0x0, symName: '__ZN4core3ptr130drop_in_place$LT$gimli..read..dwarf..Dwarf$LT$gimli..read..endian_slice..EndianSlice$LT$gimli..endianity..LittleEndian$GT$$GT$$GT$17hf3b20fbd9db1a9fdE', symObjAddr: 0x2284, symBinAddr: 0x10001D034, symSize: 0x58 }
  - { offset: 0x53C39, size: 0x8, addend: 0x0, symName: '__ZN4core3ptr131drop_in_place$LT$$u5b$core..option..Option$LT$core..option..Option$LT$std..backtrace_rs..symbolize..gimli..Mapping$GT$$GT$$u5d$$GT$17h018dc685d3dd2730E', symObjAddr: 0x22DC, symBinAddr: 0x10001D08C, symSize: 0xCC }
  - { offset: 0x53CE3, size: 0x8, addend: 0x0, symName: '__ZN4core3ptr137drop_in_place$LT$gimli..read..dwarf..Unit$LT$gimli..read..endian_slice..EndianSlice$LT$gimli..endianity..LittleEndian$GT$$C$usize$GT$$GT$17h4031e9c5dec06b9aE', symObjAddr: 0x246C, symBinAddr: 0x10001D158, symSize: 0x54 }
  - { offset: 0x53DE0, size: 0x8, addend: 0x0, symName: '__ZN4core3ptr138drop_in_place$LT$addr2line..function..LazyFunction$LT$gimli..read..endian_slice..EndianSlice$LT$gimli..endianity..LittleEndian$GT$$GT$$GT$17ha3709aaa52158f89E', symObjAddr: 0x24C0, symBinAddr: 0x10001D1AC, symSize: 0x64 }
  - { offset: 0x53DF7, size: 0x8, addend: 0x0, symName: '__ZN4core3ptr138drop_in_place$LT$addr2line..function..LazyFunction$LT$gimli..read..endian_slice..EndianSlice$LT$gimli..endianity..LittleEndian$GT$$GT$$GT$17ha3709aaa52158f89E', symObjAddr: 0x24C0, symBinAddr: 0x10001D1AC, symSize: 0x64 }
  - { offset: 0x53E0C, size: 0x8, addend: 0x0, symName: '__ZN4core3ptr138drop_in_place$LT$addr2line..function..LazyFunction$LT$gimli..read..endian_slice..EndianSlice$LT$gimli..endianity..LittleEndian$GT$$GT$$GT$17ha3709aaa52158f89E', symObjAddr: 0x24C0, symBinAddr: 0x10001D1AC, symSize: 0x64 }
  - { offset: 0x53E21, size: 0x8, addend: 0x0, symName: '__ZN4core3ptr138drop_in_place$LT$addr2line..function..LazyFunction$LT$gimli..read..endian_slice..EndianSlice$LT$gimli..endianity..LittleEndian$GT$$GT$$GT$17ha3709aaa52158f89E', symObjAddr: 0x24C0, symBinAddr: 0x10001D1AC, symSize: 0x64 }
  - { offset: 0x53F63, size: 0x8, addend: 0x0, symName: '__ZN4core3ptr144drop_in_place$LT$alloc..vec..Vec$LT$core..option..Option$LT$core..option..Option$LT$std..backtrace_rs..symbolize..gimli..Mapping$GT$$GT$$GT$$GT$17he58f1b72666b9c59E', symObjAddr: 0x2524, symBinAddr: 0x10001D210, symSize: 0x78 }
  - { offset: 0x540CB, size: 0x8, addend: 0x0, symName: '__ZN4core3ptr152drop_in_place$LT$alloc..vec..Vec$LT$addr2line..unit..ResUnit$LT$gimli..read..endian_slice..EndianSlice$LT$gimli..endianity..LittleEndian$GT$$GT$$GT$$GT$17he2165088e8298335E', symObjAddr: 0x2668, symBinAddr: 0x10001D288, symSize: 0xC4 }
  - { offset: 0x5423A, size: 0x8, addend: 0x0, symName: '__ZN4core3ptr152drop_in_place$LT$alloc..vec..Vec$LT$addr2line..unit..SupUnit$LT$gimli..read..endian_slice..EndianSlice$LT$gimli..endianity..LittleEndian$GT$$GT$$GT$$GT$17h87f5dc9d3cca3a77E', symObjAddr: 0x272C, symBinAddr: 0x10001D34C, symSize: 0xF4 }
  - { offset: 0x54452, size: 0x8, addend: 0x0, symName: '__ZN4core3ptr156drop_in_place$LT$alloc..boxed..Box$LT$$u5b$core..option..Option$LT$core..option..Option$LT$std..backtrace_rs..symbolize..gimli..Mapping$GT$$GT$$u5d$$GT$$GT$17h662502e0fd7f60b9E', symObjAddr: 0x2820, symBinAddr: 0x10001D440, symSize: 0xF8 }
  - { offset: 0x5457C, size: 0x8, addend: 0x0, symName: '__ZN4core3ptr159drop_in_place$LT$alloc..sync..ArcInner$LT$gimli..read..dwarf..Dwarf$LT$gimli..read..endian_slice..EndianSlice$LT$gimli..endianity..LittleEndian$GT$$GT$$GT$$GT$17ha75a7326775ef05eE', symObjAddr: 0x2918, symBinAddr: 0x10001D538, symSize: 0x5C }
  - { offset: 0x54641, size: 0x8, addend: 0x0, symName: '__ZN4core3ptr161drop_in_place$LT$alloc..vec..Vec$LT$addr2line..function..LazyFunction$LT$gimli..read..endian_slice..EndianSlice$LT$gimli..endianity..LittleEndian$GT$$GT$$GT$$GT$17hd921ce6f632b87b3E', symObjAddr: 0x2974, symBinAddr: 0x10001D594, symSize: 0xAC }
  - { offset: 0x5487E, size: 0x8, addend: 0x0, symName: '__ZN4core3ptr172drop_in_place$LT$core..result..Result$LT$addr2line..Context$LT$gimli..read..endian_slice..EndianSlice$LT$gimli..endianity..LittleEndian$GT$$GT$$C$gimli..read..Error$GT$$GT$17h1cda5e1d1a7951dcE', symObjAddr: 0x2ACC, symBinAddr: 0x10001D640, symSize: 0x80 }
  - { offset: 0x54913, size: 0x8, addend: 0x0, symName: '__ZN4core3ptr173drop_in_place$LT$alloc..boxed..Box$LT$$u5b$addr2line..function..LazyFunction$LT$gimli..read..endian_slice..EndianSlice$LT$gimli..endianity..LittleEndian$GT$$GT$$u5d$$GT$$GT$17h34d35d9ea3d3b9d5E', symObjAddr: 0x2B4C, symBinAddr: 0x10001D6C0, symSize: 0x9C }
  - { offset: 0x5492A, size: 0x8, addend: 0x0, symName: '__ZN4core3ptr173drop_in_place$LT$alloc..boxed..Box$LT$$u5b$addr2line..function..LazyFunction$LT$gimli..read..endian_slice..EndianSlice$LT$gimli..endianity..LittleEndian$GT$$GT$$u5d$$GT$$GT$17h34d35d9ea3d3b9d5E', symObjAddr: 0x2B4C, symBinAddr: 0x10001D6C0, symSize: 0x9C }
  - { offset: 0x54B6F, size: 0x8, addend: 0x0, symName: '__ZN4core3ptr181drop_in_place$LT$core..option..Option$LT$gimli..read..line..IncompleteLineProgram$LT$gimli..read..endian_slice..EndianSlice$LT$gimli..endianity..LittleEndian$GT$$C$usize$GT$$GT$$GT$17h59a58c9c9c958e24E', symObjAddr: 0x2C58, symBinAddr: 0x10001D75C, symSize: 0x98 }
  - { offset: 0x54E2A, size: 0x8, addend: 0x0, symName: '__ZN4core3ptr181drop_in_place$LT$core..result..Result$LT$addr2line..frame..FrameIter$LT$gimli..read..endian_slice..EndianSlice$LT$gimli..endianity..LittleEndian$GT$$GT$$C$gimli..read..Error$GT$$GT$17h49f2f998bcc2f32aE', symObjAddr: 0x2CF0, symBinAddr: 0x10001D7F4, symSize: 0x34 }
  - { offset: 0x54F68, size: 0x8, addend: 0x0, symName: '__ZN4core3ptr184drop_in_place$LT$core..result..Result$LT$addr2line..function..Functions$LT$gimli..read..endian_slice..EndianSlice$LT$gimli..endianity..LittleEndian$GT$$GT$$C$gimli..read..Error$GT$$GT$17h10dd28e922629511E', symObjAddr: 0x2D24, symBinAddr: 0x10001D828, symSize: 0xD8 }
  - { offset: 0x55AFA, size: 0x8, addend: 0x0, symName: '__ZN4core3ptr194drop_in_place$LT$core..result..Result$LT$std..sync..poison..mutex..MutexGuard$LT$$LP$$RP$$GT$$C$std..sync..poison..PoisonError$LT$std..sync..poison..mutex..MutexGuard$LT$$LP$$RP$$GT$$GT$$GT$$GT$17ha7e54304228a066cE', symObjAddr: 0x2E70, symBinAddr: 0x10001D900, symSize: 0x4C }
  - { offset: 0x55B2A, size: 0x8, addend: 0x0, symName: '__ZN4core3ptr199drop_in_place$LT$core..result..Result$LT$core..option..Option$LT$alloc..sync..Arc$LT$std..sync..poison..mutex..Mutex$LT$alloc..vec..Vec$LT$u8$GT$$GT$$GT$$GT$$C$std..thread..local..AccessError$GT$$GT$17hc820eafe807d521eE', symObjAddr: 0x2EBC, symBinAddr: 0x10001D94C, symSize: 0x2C }
  - { offset: 0x55BF1, size: 0x8, addend: 0x0, symName: '__ZN4core3ptr231drop_in_place$LT$core..result..Result$LT$core..option..Option$LT$alloc..boxed..Box$LT$addr2line..unit..DwoUnit$LT$gimli..read..endian_slice..EndianSlice$LT$gimli..endianity..LittleEndian$GT$$GT$$GT$$GT$$C$gimli..read..Error$GT$$GT$17hdbd1f85fa898eaf9E', symObjAddr: 0x2EE8, symBinAddr: 0x10001D978, symSize: 0xD4 }
  - { offset: 0x55DDA, size: 0x8, addend: 0x0, symName: '__ZN4core3ptr275drop_in_place$LT$gimli..read..line..LineRows$LT$gimli..read..endian_slice..EndianSlice$LT$gimli..endianity..LittleEndian$GT$$C$gimli..read..line..IncompleteLineProgram$LT$gimli..read..endian_slice..EndianSlice$LT$gimli..endianity..LittleEndian$GT$$C$usize$GT$$C$usize$GT$$GT$17hebba07efb64a969cE', symObjAddr: 0x2FD4, symBinAddr: 0x10001DA4C, symSize: 0x8C }
  - { offset: 0x5604F, size: 0x8, addend: 0x0, symName: '__ZN4core3ptr280drop_in_place$LT$$LT$alloc..collections..btree..map..IntoIter$LT$K$C$V$C$A$GT$$u20$as$u20$core..ops..drop..Drop$GT$..drop..DropGuard$LT$u64$C$core..result..Result$LT$alloc..sync..Arc$LT$gimli..read..abbrev..Abbreviations$GT$$C$gimli..read..Error$GT$$C$alloc..alloc..Global$GT$$GT$17h605d7228f128decdE', symObjAddr: 0x3060, symBinAddr: 0x10001DAD8, symSize: 0x84 }
  - { offset: 0x561BF, size: 0x8, addend: 0x0, symName: '__ZN4core3ptr284drop_in_place$LT$core..result..Result$LT$$RF$core..result..Result$LT$addr2line..line..Lines$C$gimli..read..Error$GT$$C$$LP$$RF$core..result..Result$LT$addr2line..line..Lines$C$gimli..read..Error$GT$$C$core..result..Result$LT$addr2line..line..Lines$C$gimli..read..Error$GT$$RP$$GT$$GT$17h4c3f39ee410886d9E', symObjAddr: 0x30E4, symBinAddr: 0x10001DB5C, symSize: 0x14 }
  - { offset: 0x5621A, size: 0x8, addend: 0x0, symName: '__ZN4core3ptr37drop_in_place$LT$std..env..VarsOs$GT$17h691c0706c4a0a296E', symObjAddr: 0x30F8, symBinAddr: 0x10001DB70, symSize: 0xAC }
  - { offset: 0x56535, size: 0x8, addend: 0x0, symName: '__ZN4core3ptr42drop_in_place$LT$alloc..string..String$GT$17hac81f7a4d168ae64E', symObjAddr: 0x32AC, symBinAddr: 0x10001DC1C, symSize: 0x18 }
  - { offset: 0x5654C, size: 0x8, addend: 0x0, symName: '__ZN4core3ptr42drop_in_place$LT$alloc..string..String$GT$17hac81f7a4d168ae64E', symObjAddr: 0x32AC, symBinAddr: 0x10001DC1C, symSize: 0x18 }
  - { offset: 0x56610, size: 0x8, addend: 0x0, symName: '__ZN4core3ptr42drop_in_place$LT$std..io..error..Error$GT$17habd70f1b431d348cE', symObjAddr: 0x32C4, symBinAddr: 0x10001DC34, symSize: 0xAC }
  - { offset: 0x5683A, size: 0x8, addend: 0x0, symName: '__ZN4core3ptr44drop_in_place$LT$object..read..ObjectMap$GT$17h70ce07c320cc7419E', symObjAddr: 0x3370, symBinAddr: 0x10001DCE0, symSize: 0x58 }
  - { offset: 0x56969, size: 0x8, addend: 0x0, symName: '__ZN4core3ptr46drop_in_place$LT$alloc..vec..Vec$LT$u8$GT$$GT$17hb337dff62f58fd0bE', symObjAddr: 0x3434, symBinAddr: 0x10001DD38, symSize: 0x18 }
  - { offset: 0x569F6, size: 0x8, addend: 0x0, symName: '__ZN4core3ptr46drop_in_place$LT$std..io..stdio..StdinLock$GT$17hb805540b2d8fd9f7E', symObjAddr: 0x344C, symBinAddr: 0x10001DD50, symSize: 0x54 }
  - { offset: 0x56A0D, size: 0x8, addend: 0x0, symName: '__ZN4core3ptr46drop_in_place$LT$std..io..stdio..StdinLock$GT$17hb805540b2d8fd9f7E', symObjAddr: 0x344C, symBinAddr: 0x10001DD50, symSize: 0x54 }
  - { offset: 0x56A22, size: 0x8, addend: 0x0, symName: '__ZN4core3ptr46drop_in_place$LT$std..io..stdio..StdinLock$GT$17hb805540b2d8fd9f7E', symObjAddr: 0x344C, symBinAddr: 0x10001DD50, symSize: 0x54 }
  - { offset: 0x56B14, size: 0x8, addend: 0x0, symName: '__ZN4core3ptr48drop_in_place$LT$alloc..ffi..c_str..NulError$GT$17h0aa90617c2ef35ffE', symObjAddr: 0x3584, symBinAddr: 0x10001DDA4, symSize: 0x18 }
  - { offset: 0x56B2B, size: 0x8, addend: 0x0, symName: '__ZN4core3ptr48drop_in_place$LT$alloc..ffi..c_str..NulError$GT$17h0aa90617c2ef35ffE', symObjAddr: 0x3584, symBinAddr: 0x10001DDA4, symSize: 0x18 }
  - { offset: 0x56BB7, size: 0x8, addend: 0x0, symName: '__ZN4core3ptr557drop_in_place$LT$core..result..Result$LT$$RF$core..result..Result$LT$addr2line..function..Function$LT$gimli..read..endian_slice..EndianSlice$LT$gimli..endianity..LittleEndian$GT$$GT$$C$gimli..read..Error$GT$$C$$LP$$RF$core..result..Result$LT$addr2line..function..Function$LT$gimli..read..endian_slice..EndianSlice$LT$gimli..endianity..LittleEndian$GT$$GT$$C$gimli..read..Error$GT$$C$core..result..Result$LT$addr2line..function..Function$LT$gimli..read..endian_slice..EndianSlice$LT$gimli..endianity..LittleEndian$GT$$GT$$C$gimli..read..Error$GT$$RP$$GT$$GT$17h748b27d3ad91b666E', symObjAddr: 0x37B0, symBinAddr: 0x10001DDBC, symSize: 0x64 }
  - { offset: 0x56DA1, size: 0x8, addend: 0x0, symName: '__ZN4core3ptr55drop_in_place$LT$gimli..read..abbrev..Abbreviations$GT$17h5d64ddc376f7673eE', symObjAddr: 0x3814, symBinAddr: 0x10001DE20, symSize: 0x118 }
  - { offset: 0x57104, size: 0x8, addend: 0x0, symName: '__ZN4core3ptr560drop_in_place$LT$core..result..Result$LT$$RF$core..result..Result$LT$addr2line..function..Functions$LT$gimli..read..endian_slice..EndianSlice$LT$gimli..endianity..LittleEndian$GT$$GT$$C$gimli..read..Error$GT$$C$$LP$$RF$core..result..Result$LT$addr2line..function..Functions$LT$gimli..read..endian_slice..EndianSlice$LT$gimli..endianity..LittleEndian$GT$$GT$$C$gimli..read..Error$GT$$C$core..result..Result$LT$addr2line..function..Functions$LT$gimli..read..endian_slice..EndianSlice$LT$gimli..endianity..LittleEndian$GT$$GT$$C$gimli..read..Error$GT$$RP$$GT$$GT$17h20f4a6896059bba5E', symObjAddr: 0x39B0, symBinAddr: 0x10001DF38, symSize: 0x14 }
  - { offset: 0x5715F, size: 0x8, addend: 0x0, symName: '__ZN4core3ptr60drop_in_place$LT$gimli..read..abbrev..AbbreviationsCache$GT$17h07c70485ebd56478E', symObjAddr: 0x39C4, symBinAddr: 0x10001DF4C, symSize: 0xCC }
  - { offset: 0x57326, size: 0x8, addend: 0x0, symName: '__ZN4core3ptr64drop_in_place$LT$std..sys..pal..unix..sync..mutex..AttrGuard$GT$17h0a5906221301930bE', symObjAddr: 0x3B1C, symBinAddr: 0x10001E018, symSize: 0x48 }
  - { offset: 0x57357, size: 0x8, addend: 0x0, symName: '__ZN4core3ptr64drop_in_place$LT$std..sys..process..unix..common..ChildPipes$GT$17h10e8f412fa846c73E', symObjAddr: 0x3B64, symBinAddr: 0x10001E060, symSize: 0x78 }
  - { offset: 0x57467, size: 0x8, addend: 0x0, symName: '__ZN4core3ptr64drop_in_place$LT$std..sys..process..unix..common..StdioPipes$GT$17hf4120600f772654aE', symObjAddr: 0x3BDC, symBinAddr: 0x10001E0D8, symSize: 0x54 }
  - { offset: 0x575DF, size: 0x8, addend: 0x0, symName: '__ZN4core3ptr65drop_in_place$LT$alloc..vec..Vec$LT$alloc..string..String$GT$$GT$17h66cdbc24d9622501E', symObjAddr: 0x3C30, symBinAddr: 0x10001E12C, symSize: 0x80 }
  - { offset: 0x5777D, size: 0x8, addend: 0x0, symName: '__ZN4core3ptr65drop_in_place$LT$std..backtrace_rs..symbolize..gimli..Context$GT$17h164c0942f12400dbE', symObjAddr: 0x3CB0, symBinAddr: 0x10001E1AC, symSize: 0xE8 }
  - { offset: 0x57A0F, size: 0x8, addend: 0x0, symName: '__ZN4core3ptr66drop_in_place$LT$std..backtrace_rs..backtrace..libunwind..Bomb$GT$17h551fed0d2b731830E', symObjAddr: 0x3D98, symBinAddr: 0x10001E294, symSize: 0x40 }
  - { offset: 0x57A5B, size: 0x8, addend: 0x0, symName: '__ZN4core3ptr701drop_in_place$LT$core..result..Result$LT$$RF$core..result..Result$LT$core..option..Option$LT$alloc..boxed..Box$LT$addr2line..unit..DwoUnit$LT$gimli..read..endian_slice..EndianSlice$LT$gimli..endianity..LittleEndian$GT$$GT$$GT$$GT$$C$gimli..read..Error$GT$$C$$LP$$RF$core..result..Result$LT$core..option..Option$LT$alloc..boxed..Box$LT$addr2line..unit..DwoUnit$LT$gimli..read..endian_slice..EndianSlice$LT$gimli..endianity..LittleEndian$GT$$GT$$GT$$GT$$C$gimli..read..Error$GT$$C$core..result..Result$LT$core..option..Option$LT$alloc..boxed..Box$LT$addr2line..unit..DwoUnit$LT$gimli..read..endian_slice..EndianSlice$LT$gimli..endianity..LittleEndian$GT$$GT$$GT$$GT$$C$gimli..read..Error$GT$$RP$$GT$$GT$17h99be7971756b6652E', symObjAddr: 0x3DD8, symBinAddr: 0x10001E2D4, symSize: 0x14 }
  - { offset: 0x57AFC, size: 0x8, addend: 0x0, symName: '__ZN4core3ptr70drop_in_place$LT$std..backtrace_rs..symbolize..gimli..stash..Stash$GT$17hf2d48d9015d0f7c8E', symObjAddr: 0x3E6C, symBinAddr: 0x10001E2E8, symSize: 0xB8 }
  - { offset: 0x57DA2, size: 0x8, addend: 0x0, symName: '__ZN4core3ptr71drop_in_place$LT$std..backtrace_rs..symbolize..gimli..macho..Object$GT$17h8bb3839755842750E', symObjAddr: 0x3F24, symBinAddr: 0x10001E3A0, symSize: 0xD8 }
  - { offset: 0x58075, size: 0x8, addend: 0x0, symName: '__ZN4core3ptr72drop_in_place$LT$core..option..Option$LT$object..read..ObjectMap$GT$$GT$17hc7c56c88aae4c5fcE', symObjAddr: 0x4068, symBinAddr: 0x10001E478, symSize: 0x64 }
  - { offset: 0x581F2, size: 0x8, addend: 0x0, symName: '__ZN4core3ptr73drop_in_place$LT$alloc..vec..Vec$LT$addr2line..line..LineSequence$GT$$GT$17he296d46dd6d5cbabE', symObjAddr: 0x40CC, symBinAddr: 0x10001E4DC, symSize: 0x84 }
  - { offset: 0x58358, size: 0x8, addend: 0x0, symName: '__ZN4core3ptr77drop_in_place$LT$alloc..boxed..Box$LT$$u5b$alloc..string..String$u5d$$GT$$GT$17hc446220f14ad3f54E', symObjAddr: 0x4188, symBinAddr: 0x10001E560, symSize: 0x70 }
  - { offset: 0x5836F, size: 0x8, addend: 0x0, symName: '__ZN4core3ptr77drop_in_place$LT$alloc..boxed..Box$LT$$u5b$alloc..string..String$u5d$$GT$$GT$17hc446220f14ad3f54E', symObjAddr: 0x4188, symBinAddr: 0x10001E560, symSize: 0x70 }
  - { offset: 0x5847B, size: 0x8, addend: 0x0, symName: '__ZN4core3ptr77drop_in_place$LT$std..panicking..begin_panic_handler..FormatStringPayload$GT$17h6fcfcc78704673e3E', symObjAddr: 0x41F8, symBinAddr: 0x10001E5D0, symSize: 0x24 }
  - { offset: 0x58537, size: 0x8, addend: 0x0, symName: '__ZN4core3ptr78drop_in_place$LT$core..result..Result$LT$usize$C$std..io..error..Error$GT$$GT$17h2f8ac36bcb547dffE', symObjAddr: 0x421C, symBinAddr: 0x10001E5F4, symSize: 0x14 }
  - { offset: 0x5854B, size: 0x8, addend: 0x0, symName: '__ZN4core3ptr79drop_in_place$LT$std..sync..poison..rwlock..RwLockReadGuard$LT$$LP$$RP$$GT$$GT$17hc54fd0027bbd6d30E', symObjAddr: 0x4230, symBinAddr: 0x10001E608, symSize: 0x58 }
  - { offset: 0x585E7, size: 0x8, addend: 0x0, symName: '__ZN4core3ptr81drop_in_place$LT$core..result..Result$LT$$LP$$RP$$C$std..io..error..Error$GT$$GT$17ha905afa1a1b69da6E', symObjAddr: 0x4288, symBinAddr: 0x10001E660, symSize: 0x10 }
  - { offset: 0x58617, size: 0x8, addend: 0x0, symName: '__ZN4core3ptr81drop_in_place$LT$std..sys..process..unix..common..cstring_array..CStringArray$GT$17h601d89b39b80fabfE', symObjAddr: 0x4298, symBinAddr: 0x10001E670, symSize: 0xD0 }
  - { offset: 0x5893A, size: 0x8, addend: 0x0, symName: '__ZN4core3ptr82drop_in_place$LT$alloc..sync..ArcInner$LT$std..sys..fs..unix..InnerReadDir$GT$$GT$17h5d4f495acfd7dae8E', symObjAddr: 0x4368, symBinAddr: 0x10001E740, symSize: 0x60 }
  - { offset: 0x58ADD, size: 0x8, addend: 0x0, symName: '__ZN4core3ptr84drop_in_place$LT$$LP$std..ffi..os_str..OsString$C$std..ffi..os_str..OsString$RP$$GT$17h62ddf8343f8db47bE', symObjAddr: 0x43C8, symBinAddr: 0x10001E7A0, symSize: 0x4C }
  - { offset: 0x58C62, size: 0x8, addend: 0x0, symName: '__ZN4core3ptr90drop_in_place$LT$std..io..buffered..bufwriter..BufWriter$LT$W$GT$..flush_buf..BufGuard$GT$17he92d49b51e4ad54fE', symObjAddr: 0x4450, symBinAddr: 0x10001E7EC, symSize: 0x60 }
  - { offset: 0x58DE9, size: 0x8, addend: 0x0, symName: '__ZN4core3ptr92drop_in_place$LT$core..result..Result$LT$addr2line..line..Lines$C$gimli..read..Error$GT$$GT$17h0ed91c593b269246E', symObjAddr: 0x4508, symBinAddr: 0x10001E84C, symSize: 0xE4 }
  - { offset: 0x5902F, size: 0x8, addend: 0x0, symName: '__ZN4core3ptr93drop_in_place$LT$core..option..Option$LT$std..backtrace_rs..symbolize..gimli..Mapping$GT$$GT$17h110055b033f66c0fE', symObjAddr: 0x45EC, symBinAddr: 0x10001E930, symSize: 0x6C }
  - { offset: 0x590CC, size: 0x8, addend: 0x0, symName: '__ZN4core3ptr95drop_in_place$LT$std..io..buffered..linewriter..LineWriter$LT$std..io..stdio..StdoutRaw$GT$$GT$17hc5979ba65a107f72E', symObjAddr: 0x4658, symBinAddr: 0x10001E99C, symSize: 0xF8 }
  - { offset: 0x5C40E, size: 0x8, addend: 0x0, symName: __ZN4core5slice4sort6stable14driftsort_main17h521ab17a5a757164E, symObjAddr: 0x9098, symBinAddr: 0x100020414, symSize: 0x140 }
  - { offset: 0x5C6B1, size: 0x8, addend: 0x0, symName: __ZN4core5slice4sort6stable14driftsort_main17ha9075508af06de20E, symObjAddr: 0x91D8, symBinAddr: 0x100020554, symSize: 0x164 }
  - { offset: 0x5C9AA, size: 0x8, addend: 0x0, symName: __ZN4core5slice4sort6stable14driftsort_main17hb0662f4917d01b7dE, symObjAddr: 0x933C, symBinAddr: 0x1000206B8, symSize: 0x140 }
  - { offset: 0x5CC4D, size: 0x8, addend: 0x0, symName: __ZN4core5slice4sort6stable14driftsort_main17hbec9c5ede644b796E, symObjAddr: 0x947C, symBinAddr: 0x1000207F8, symSize: 0x164 }
  - { offset: 0x5CF46, size: 0x8, addend: 0x0, symName: __ZN4core5slice4sort6stable14driftsort_main17hc6af17bd05ac089fE, symObjAddr: 0x95E0, symBinAddr: 0x10002095C, symSize: 0x140 }
  - { offset: 0x5D167, size: 0x8, addend: 0x0, symName: __ZN4core5slice4sort6stable14driftsort_main17hfd7dcf5984234633E, symObjAddr: 0x9720, symBinAddr: 0x100020A9C, symSize: 0x140 }
  - { offset: 0x5D5FB, size: 0x8, addend: 0x0, symName: __ZN4core5slice4sort6stable5drift4sort17h6aaaaf784e659385E, symObjAddr: 0x9860, symBinAddr: 0x100020BDC, symSize: 0x4E0 }
  - { offset: 0x5DBEA, size: 0x8, addend: 0x0, symName: __ZN4core5slice4sort6stable5drift4sort17h866748af94df36ccE, symObjAddr: 0x9D40, symBinAddr: 0x1000210BC, symSize: 0x538 }
  - { offset: 0x5E27D, size: 0x8, addend: 0x0, symName: __ZN4core5slice4sort6stable5drift4sort17h9ccd45f18f7947baE, symObjAddr: 0xA278, symBinAddr: 0x1000215F4, symSize: 0x4F8 }
  - { offset: 0x5E8FC, size: 0x8, addend: 0x0, symName: __ZN4core5slice4sort6stable5drift4sort17haa5e5863b64b9a60E, symObjAddr: 0xA770, symBinAddr: 0x100021AEC, symSize: 0x5EC }
  - { offset: 0x5EFB6, size: 0x8, addend: 0x0, symName: __ZN4core5slice4sort6stable5drift4sort17hb68090b03a5248c3E, symObjAddr: 0xAD5C, symBinAddr: 0x1000220D8, symSize: 0x530 }
  - { offset: 0x5F621, size: 0x8, addend: 0x0, symName: __ZN4core5slice4sort6stable5drift4sort17he935295b9297be3dE, symObjAddr: 0xB28C, symBinAddr: 0x100022608, symSize: 0x4F8 }
  - { offset: 0x5FEA4, size: 0x8, addend: 0x0, symName: __ZN4core5slice4sort6stable9quicksort9quicksort17h0ca9f036defe4ca1E, symObjAddr: 0xB784, symBinAddr: 0x100022B00, symSize: 0x834 }
  - { offset: 0x60A8F, size: 0x8, addend: 0x0, symName: __ZN4core5slice4sort6stable9quicksort9quicksort17h0dcd6807bb10c1ddE, symObjAddr: 0xBFB8, symBinAddr: 0x100023334, symSize: 0x6D8 }
  - { offset: 0x6154F, size: 0x8, addend: 0x0, symName: __ZN4core5slice4sort6stable9quicksort9quicksort17h403c35809902d95cE, symObjAddr: 0xC690, symBinAddr: 0x100023A0C, symSize: 0x74C }
  - { offset: 0x61C94, size: 0x8, addend: 0x0, symName: __ZN4core5slice4sort6stable9quicksort9quicksort17h52ed04d04eb94d9aE, symObjAddr: 0xCDDC, symBinAddr: 0x100024158, symSize: 0x834 }
  - { offset: 0x62C2B, size: 0x8, addend: 0x0, symName: __ZN4core5slice4sort6stable9quicksort9quicksort17h6a6db67da80ded8fE, symObjAddr: 0xD610, symBinAddr: 0x10002498C, symSize: 0x6E0 }
  - { offset: 0x636EB, size: 0x8, addend: 0x0, symName: __ZN4core5slice4sort6stable9quicksort9quicksort17hfc1631ac0f214f19E, symObjAddr: 0xDCF0, symBinAddr: 0x10002506C, symSize: 0x810 }
  - { offset: 0x64367, size: 0x8, addend: 0x0, symName: __ZN4core5slice4sort6shared9smallsort12sort4_stable17h31fac7551cf33bd2E, symObjAddr: 0x7F40, symBinAddr: 0x10001F2BC, symSize: 0x194 }
  - { offset: 0x64514, size: 0x8, addend: 0x0, symName: __ZN4core5slice4sort6shared9smallsort12sort4_stable17hf90c0556197dda99E, symObjAddr: 0x80D4, symBinAddr: 0x10001F450, symSize: 0x180 }
  - { offset: 0x64936, size: 0x8, addend: 0x0, symName: __ZN4core5slice4sort6shared9smallsort12sort8_stable17hf7b6a991869544ccE, symObjAddr: 0x8254, symBinAddr: 0x10001F5D0, symSize: 0x2B8 }
  - { offset: 0x64E1F, size: 0x8, addend: 0x0, symName: __ZN4core5slice4sort6shared9smallsort18small_sort_general17h034e2245b0bf43b0E, symObjAddr: 0x850C, symBinAddr: 0x10001F888, symSize: 0x400 }
  - { offset: 0x6538C, size: 0x8, addend: 0x0, symName: __ZN4core5slice4sort6shared9smallsort18small_sort_general17h87ad8da531a3f31aE, symObjAddr: 0x890C, symBinAddr: 0x10001FC88, symSize: 0x4A4 }
  - { offset: 0x65A84, size: 0x8, addend: 0x0, symName: __ZN4core5slice4sort6shared9smallsort25insertion_sort_shift_left17h42562c73653bb666E, symObjAddr: 0x8DB0, symBinAddr: 0x10002012C, symSize: 0xA8 }
  - { offset: 0x65B5C, size: 0x8, addend: 0x0, symName: __ZN4core5slice4sort6shared9smallsort25insertion_sort_shift_left17ha2f1b9cdd766aaa4E, symObjAddr: 0x8E58, symBinAddr: 0x1000201D4, symSize: 0xB8 }
  - { offset: 0x65C8A, size: 0x8, addend: 0x0, symName: __ZN4core5slice4sort6shared9smallsort25insertion_sort_shift_left17hbf93252988a52ab7E, symObjAddr: 0x8F10, symBinAddr: 0x10002028C, symSize: 0x94 }
  - { offset: 0x65D54, size: 0x8, addend: 0x0, symName: __ZN4core5slice4sort6shared9smallsort25insertion_sort_shift_left17hd501c44f9cc25640E, symObjAddr: 0x8FA4, symBinAddr: 0x100020320, symSize: 0xF4 }
  - { offset: 0x66151, size: 0x8, addend: 0x0, symName: __ZN4core5slice4sort6shared5pivot11median3_rec17h0df86c062c3307f3E, symObjAddr: 0x781C, symBinAddr: 0x10001EB98, symSize: 0x11C }
  - { offset: 0x6624D, size: 0x8, addend: 0x0, symName: __ZN4core5slice4sort6shared5pivot11median3_rec17h4e5272a39440c6fcE, symObjAddr: 0x7938, symBinAddr: 0x10001ECB4, symSize: 0xCC }
  - { offset: 0x66372, size: 0x8, addend: 0x0, symName: __ZN4core5slice4sort6shared5pivot11median3_rec17h5a457aecc5390e2dE, symObjAddr: 0x7A04, symBinAddr: 0x10001ED80, symSize: 0xD0 }
  - { offset: 0x6646D, size: 0x8, addend: 0x0, symName: __ZN4core5slice4sort6shared5pivot11median3_rec17h63b3210c63d487e5E, symObjAddr: 0x7AD4, symBinAddr: 0x10001EE50, symSize: 0xD0 }
  - { offset: 0x66566, size: 0x8, addend: 0x0, symName: __ZN4core5slice4sort6shared5pivot11median3_rec17h6546c17569d2c228E, symObjAddr: 0x7BA4, symBinAddr: 0x10001EF20, symSize: 0x134 }
  - { offset: 0x6678D, size: 0x8, addend: 0x0, symName: __ZN4core5slice4sort6shared5pivot11median3_rec17h825498fa0147afcdE, symObjAddr: 0x7CD8, symBinAddr: 0x10001F054, symSize: 0xCC }
  - { offset: 0x66886, size: 0x8, addend: 0x0, symName: __ZN4core5slice4sort6shared5pivot11median3_rec17hcc5592aee9a962d6E, symObjAddr: 0x7DA4, symBinAddr: 0x10001F120, symSize: 0xCC }
  - { offset: 0x6697F, size: 0x8, addend: 0x0, symName: __ZN4core5slice4sort6shared5pivot11median3_rec17hd5918a3d1c875d2dE, symObjAddr: 0x7E70, symBinAddr: 0x10001F1EC, symSize: 0xD0 }
  - { offset: 0x66B42, size: 0x8, addend: 0x0, symName: __ZN4core5slice4sort8unstable7ipnsort17h3050acbcca3cb150E, symObjAddr: 0xE500, symBinAddr: 0x10002587C, symSize: 0xEC }
  - { offset: 0x66C84, size: 0x8, addend: 0x0, symName: __ZN4core5slice4sort8unstable7ipnsort17hfd87871531817c09E, symObjAddr: 0xE5EC, symBinAddr: 0x100025968, symSize: 0x1A8 }
  - { offset: 0x66F58, size: 0x8, addend: 0x0, symName: __ZN4core5slice4sort8unstable8heapsort8heapsort17h018ffb6550069dc5E, symObjAddr: 0xE794, symBinAddr: 0x100025B10, symSize: 0x100 }
  - { offset: 0x67144, size: 0x8, addend: 0x0, symName: __ZN4core5slice4sort8unstable8heapsort8heapsort17h13deb584184321b4E, symObjAddr: 0xE894, symBinAddr: 0x100025C10, symSize: 0x160 }
  - { offset: 0x674C7, size: 0x8, addend: 0x0, symName: __ZN4core5slice4sort8unstable9quicksort9quicksort17h6207a09384b1d73eE, symObjAddr: 0xE9F4, symBinAddr: 0x100025D70, symSize: 0x598 }
  - { offset: 0x6805D, size: 0x8, addend: 0x0, symName: __ZN4core5slice4sort8unstable9quicksort9quicksort17hf6b9320c24c346cdE, symObjAddr: 0xEF8C, symBinAddr: 0x100026308, symSize: 0x408 }
  - { offset: 0x68A26, size: 0x8, addend: 0x0, symName: '__ZN36_$LT$T$u20$as$u20$core..any..Any$GT$7type_id17hca9570fd9e3ed26eE', symObjAddr: 0x160, symBinAddr: 0x10001BF78, symSize: 0x24 }
  - { offset: 0x68A40, size: 0x8, addend: 0x0, symName: '__ZN36_$LT$T$u20$as$u20$core..any..Any$GT$7type_id17he4b6f1bd2d030df3E', symObjAddr: 0x184, symBinAddr: 0x10001BF9C, symSize: 0x24 }
  - { offset: 0x68AAE, size: 0x8, addend: 0x0, symName: '__ZN42_$LT$$RF$T$u20$as$u20$core..fmt..Debug$GT$3fmt17h0fc7b8965e6afc5aE', symObjAddr: 0x4CC, symBinAddr: 0x10001BFC0, symSize: 0x74 }
  - { offset: 0x68B42, size: 0x8, addend: 0x0, symName: '__ZN42_$LT$$RF$T$u20$as$u20$core..fmt..Debug$GT$3fmt17h2958e9215852db4aE', symObjAddr: 0x540, symBinAddr: 0x10001C034, symSize: 0x1C }
  - { offset: 0x68B88, size: 0x8, addend: 0x0, symName: '__ZN42_$LT$$RF$T$u20$as$u20$core..fmt..Debug$GT$3fmt17h2bb2d350b34dfff8E', symObjAddr: 0x55C, symBinAddr: 0x10001C050, symSize: 0x10 }
  - { offset: 0x68BB9, size: 0x8, addend: 0x0, symName: '__ZN42_$LT$$RF$T$u20$as$u20$core..fmt..Debug$GT$3fmt17h83b5ff28188540c2E', symObjAddr: 0x7FC, symBinAddr: 0x10001C060, symSize: 0x14 }
  - { offset: 0x68BEA, size: 0x8, addend: 0x0, symName: '__ZN42_$LT$$RF$T$u20$as$u20$core..fmt..Debug$GT$3fmt17h8ac30dcc9c5b5849E', symObjAddr: 0x8B0, symBinAddr: 0x10001C074, symSize: 0x74 }
  - { offset: 0x68D01, size: 0x8, addend: 0x0, symName: '__ZN42_$LT$$RF$T$u20$as$u20$core..fmt..Debug$GT$3fmt17h8aff657d191ad3c5E', symObjAddr: 0x924, symBinAddr: 0x10001C0E8, symSize: 0x1C }
  - { offset: 0x68D47, size: 0x8, addend: 0x0, symName: '__ZN42_$LT$$RF$T$u20$as$u20$core..fmt..Debug$GT$3fmt17ha21c7837cadbd3f5E', symObjAddr: 0x9B8, symBinAddr: 0x10001C104, symSize: 0x10 }
  - { offset: 0x68D69, size: 0x8, addend: 0x0, symName: '__ZN42_$LT$$RF$T$u20$as$u20$core..fmt..Debug$GT$3fmt17heec2750af2870f2eE', symObjAddr: 0xB68, symBinAddr: 0x10001C114, symSize: 0x9C }
  - { offset: 0x68EB4, size: 0x8, addend: 0x0, symName: '__ZN4core3fmt3num50_$LT$impl$u20$core..fmt..Debug$u20$for$u20$i32$GT$3fmt17h31c367ae7db50eaeE', symObjAddr: 0xDA0, symBinAddr: 0x10001C238, symSize: 0x18 }
  - { offset: 0x68ECB, size: 0x8, addend: 0x0, symName: '__ZN4core3fmt3num50_$LT$impl$u20$core..fmt..Debug$u20$for$u20$i32$GT$3fmt17h31c367ae7db50eaeE', symObjAddr: 0xDA0, symBinAddr: 0x10001C238, symSize: 0x18 }
  - { offset: 0x68EF6, size: 0x8, addend: 0x0, symName: '__ZN4core3fmt3num52_$LT$impl$u20$core..fmt..Debug$u20$for$u20$usize$GT$3fmt17hd9a44c73645affdaE', symObjAddr: 0xE00, symBinAddr: 0x10001C250, symSize: 0x18 }
  - { offset: 0x68F0D, size: 0x8, addend: 0x0, symName: '__ZN4core3fmt3num52_$LT$impl$u20$core..fmt..Debug$u20$for$u20$usize$GT$3fmt17hd9a44c73645affdaE', symObjAddr: 0xE00, symBinAddr: 0x10001C250, symSize: 0x18 }
  - { offset: 0x68F47, size: 0x8, addend: 0x0, symName: '__ZN44_$LT$$RF$T$u20$as$u20$core..fmt..Display$GT$3fmt17h7aede7e1fafa8ecfE', symObjAddr: 0xCEC, symBinAddr: 0x10001C1B0, symSize: 0x10 }
  - { offset: 0x68F62, size: 0x8, addend: 0x0, symName: '__ZN44_$LT$$RF$T$u20$as$u20$core..fmt..Display$GT$3fmt17hcdc89f6b7cdef95fE', symObjAddr: 0xCFC, symBinAddr: 0x10001C1C0, symSize: 0x78 }
  - { offset: 0x6936B, size: 0x8, addend: 0x0, symName: __ZN4core3fmt5Write10write_char17h45384c06e74ab019E, symObjAddr: 0xE18, symBinAddr: 0x10001C268, symSize: 0x150 }
  - { offset: 0x69502, size: 0x8, addend: 0x0, symName: __ZN4core3fmt5Write10write_char17h9a7a54bb0ca7d9cdE, symObjAddr: 0x10E8, symBinAddr: 0x10001C3B8, symSize: 0x128 }
  - { offset: 0x696BD, size: 0x8, addend: 0x0, symName: __ZN4core3fmt5Write10write_char17hb7b510f6e91dde12E, symObjAddr: 0x1350, symBinAddr: 0x10001C4E0, symSize: 0x180 }
  - { offset: 0x6986A, size: 0x8, addend: 0x0, symName: __ZN4core3fmt5Write10write_char17hdfb28a662f1dadabE, symObjAddr: 0x14D0, symBinAddr: 0x10001C660, symSize: 0x140 }
  - { offset: 0x69940, size: 0x8, addend: 0x0, symName: __ZN4core3fmt5Write9write_fmt17h13bdb2eccd0c285eE, symObjAddr: 0x1610, symBinAddr: 0x10001C7A0, symSize: 0x10 }
  - { offset: 0x6996F, size: 0x8, addend: 0x0, symName: __ZN4core3fmt5Write9write_fmt17h3d48754a628ad650E, symObjAddr: 0x1620, symBinAddr: 0x10001C7B0, symSize: 0x10 }
  - { offset: 0x6999E, size: 0x8, addend: 0x0, symName: __ZN4core3fmt5Write9write_fmt17h4270820d5fb62457E, symObjAddr: 0x1630, symBinAddr: 0x10001C7C0, symSize: 0x10 }
  - { offset: 0x699CD, size: 0x8, addend: 0x0, symName: __ZN4core3fmt5Write9write_fmt17ha2d460255287c06dE, symObjAddr: 0x1640, symBinAddr: 0x10001C7D0, symSize: 0x10 }
  - { offset: 0x699FC, size: 0x8, addend: 0x0, symName: __ZN4core3fmt5Write9write_fmt17ha8ecdcf0f48f38acE, symObjAddr: 0x1650, symBinAddr: 0x10001C7E0, symSize: 0x10 }
  - { offset: 0x69A59, size: 0x8, addend: 0x0, symName: '__ZN50_$LT$$BP$mut$u20$T$u20$as$u20$core..fmt..Debug$GT$3fmt17h0e71da53ffdbf142E', symObjAddr: 0xF410, symBinAddr: 0x100026710, symSize: 0x8 }
  - { offset: 0x69A77, size: 0x8, addend: 0x0, symName: '__ZN50_$LT$$BP$mut$u20$T$u20$as$u20$core..fmt..Debug$GT$3fmt17h0e71da53ffdbf142E', symObjAddr: 0xF410, symBinAddr: 0x100026710, symSize: 0x8 }
  - { offset: 0x69AA6, size: 0x8, addend: 0x0, symName: '__ZN52_$LT$$RF$mut$u20$T$u20$as$u20$core..fmt..Display$GT$3fmt17hc5f28addd174597dE', symObjAddr: 0xF500, symBinAddr: 0x100026718, symSize: 0x10 }
  - { offset: 0x69B25, size: 0x8, addend: 0x0, symName: '__ZN55_$LT$$RF$str$u20$as$u20$core..str..pattern..Pattern$GT$15is_contained_in17hf6a15fe5f9aec0c7E', symObjAddr: 0xF510, symBinAddr: 0x100026728, symSize: 0x3C0 }
  - { offset: 0x6A594, size: 0x8, addend: 0x0, symName: '__ZN70_$LT$core..num..error..TryFromIntError$u20$as$u20$core..fmt..Debug$GT$3fmt17h43e59b0425417061E', symObjAddr: 0x1C570, symBinAddr: 0x100031C14, symSize: 0x40 }
  - { offset: 0x6A696, size: 0x8, addend: 0x0, symName: '__ZN4core5array69_$LT$impl$u20$core..fmt..Debug$u20$for$u20$$u5b$T$u3b$$u20$N$u5d$$GT$3fmt17h666d4f1ab6b28ee7E', symObjAddr: 0x76B8, symBinAddr: 0x10001EA94, symSize: 0xFC }
  - { offset: 0x6ABFC, size: 0x8, addend: 0x0, symName: __ZN4core5panic12PanicPayload6as_str17h55b7c7a41678db2dE, symObjAddr: 0x7814, symBinAddr: 0x10001EB90, symSize: 0x8 }
  - { offset: 0x6B43D, size: 0x8, addend: 0x0, symName: __ZN4core3ops8function2Fn4call17h4cee00de71f7796dE, symObjAddr: 0x1734, symBinAddr: 0x10001C7F0, symSize: 0xAC }
  - { offset: 0x6B538, size: 0x8, addend: 0x0, symName: __ZN4core3ops8function2Fn4call17h53645b468b34b734E, symObjAddr: 0x17E0, symBinAddr: 0x10001C89C, symSize: 0x38 }
  - { offset: 0x6B61B, size: 0x8, addend: 0x0, symName: '__ZN4core3ops8function6FnOnce40call_once$u7b$$u7b$vtable.shim$u7d$$u7d$17h0256ef3c49b7fef6E', symObjAddr: 0x190C, symBinAddr: 0x10001C8D4, symSize: 0xC }
  - { offset: 0x6B66C, size: 0x8, addend: 0x0, symName: '__ZN4core3ops8function6FnOnce40call_once$u7b$$u7b$vtable.shim$u7d$$u7d$17h1a440162a384b96dE', symObjAddr: 0x1918, symBinAddr: 0x10001C8E0, symSize: 0x4 }
  - { offset: 0x6B689, size: 0x8, addend: 0x0, symName: '__ZN4core3ops8function6FnOnce40call_once$u7b$$u7b$vtable.shim$u7d$$u7d$17h1a440162a384b96dE', symObjAddr: 0x1918, symBinAddr: 0x10001C8E0, symSize: 0x4 }
  - { offset: 0x6B6A8, size: 0x8, addend: 0x0, symName: '__ZN4core3ops8function6FnOnce40call_once$u7b$$u7b$vtable.shim$u7d$$u7d$17h5a3ea79ed9b56f49E', symObjAddr: 0x1924, symBinAddr: 0x10001C8E4, symSize: 0x28 }
  - { offset: 0x6B6E4, size: 0x8, addend: 0x0, symName: '__ZN4core3ops8function6FnOnce40call_once$u7b$$u7b$vtable.shim$u7d$$u7d$17h6ef6b541deff04acE', symObjAddr: 0x194C, symBinAddr: 0x10001C90C, symSize: 0xC }
  - { offset: 0x6B735, size: 0x8, addend: 0x0, symName: '__ZN4core3ops8function6FnOnce40call_once$u7b$$u7b$vtable.shim$u7d$$u7d$17h8b0e1f22722d72f6E', symObjAddr: 0x19F4, symBinAddr: 0x10001C918, symSize: 0x4 }
  - { offset: 0x6B752, size: 0x8, addend: 0x0, symName: '__ZN4core3ops8function6FnOnce40call_once$u7b$$u7b$vtable.shim$u7d$$u7d$17h8b0e1f22722d72f6E', symObjAddr: 0x19F4, symBinAddr: 0x10001C918, symSize: 0x4 }
  - { offset: 0x6B771, size: 0x8, addend: 0x0, symName: '__ZN4core3ops8function6FnOnce40call_once$u7b$$u7b$vtable.shim$u7d$$u7d$17h9b4a9096c70fd176E', symObjAddr: 0x1A38, symBinAddr: 0x10001C91C, symSize: 0xA4 }
  - { offset: 0x6B8B7, size: 0x8, addend: 0x0, symName: '__ZN4core3ops8function6FnOnce40call_once$u7b$$u7b$vtable.shim$u7d$$u7d$17hb135094d08c6abcbE', symObjAddr: 0x1ADC, symBinAddr: 0x10001C9C0, symSize: 0x60 }
  - { offset: 0x6B99B, size: 0x8, addend: 0x0, symName: '__ZN4core3ops8function6FnOnce40call_once$u7b$$u7b$vtable.shim$u7d$$u7d$17hda98b980b7e364a0E', symObjAddr: 0x1B3C, symBinAddr: 0x10001CA20, symSize: 0x78 }
  - { offset: 0x6E475, size: 0x8, addend: 0x0, symName: '__ZN4core4cell4once17OnceCell$LT$T$GT$8try_init17h1f3ae8fa04109d74E', symObjAddr: 0x4750, symBinAddr: 0x100054504, symSize: 0x60 }
  - { offset: 0x6E493, size: 0x8, addend: 0x0, symName: '__ZN4core4cell4once17OnceCell$LT$T$GT$8try_init17h1f3ae8fa04109d74E', symObjAddr: 0x4750, symBinAddr: 0x100054504, symSize: 0x60 }
  - { offset: 0x6E4A8, size: 0x8, addend: 0x0, symName: '__ZN4core4cell4once17OnceCell$LT$T$GT$8try_init17h1f3ae8fa04109d74E', symObjAddr: 0x4750, symBinAddr: 0x100054504, symSize: 0x60 }
  - { offset: 0x6E4BC, size: 0x8, addend: 0x0, symName: '__ZN4core4cell4once17OnceCell$LT$T$GT$8try_init17h1f3ae8fa04109d74E', symObjAddr: 0x4750, symBinAddr: 0x100054504, symSize: 0x60 }
  - { offset: 0x6E513, size: 0x8, addend: 0x0, symName: '__ZN4core4cell4once17OnceCell$LT$T$GT$8try_init17h5030d0cfd605f88aE', symObjAddr: 0x47B0, symBinAddr: 0x100054564, symSize: 0x678 }
  - { offset: 0x6F1D5, size: 0x8, addend: 0x0, symName: '__ZN4core4cell4once17OnceCell$LT$T$GT$8try_init17hb2acaa81388d9a1dE', symObjAddr: 0x4E28, symBinAddr: 0x100054BDC, symSize: 0x110 }
  - { offset: 0x6F4B9, size: 0x8, addend: 0x0, symName: '__ZN4core4cell4once17OnceCell$LT$T$GT$8try_init17hec4c6057203f18caE', symObjAddr: 0x4F38, symBinAddr: 0x100054CEC, symSize: 0x1AC4 }
  - { offset: 0x72772, size: 0x8, addend: 0x0, symName: '__ZN4core4cell4once17OnceCell$LT$T$GT$8try_init17hf59b8f3666c9e504E', symObjAddr: 0x69FC, symBinAddr: 0x1000567B0, symSize: 0x80 }
  - { offset: 0x72825, size: 0x8, addend: 0x0, symName: '__ZN4core4cell4once17OnceCell$LT$T$GT$8try_init17hfae89e2951f245baE', symObjAddr: 0x6A7C, symBinAddr: 0x100056830, symSize: 0xC3C }
  - { offset: 0x74890, size: 0x8, addend: 0x0, symName: __ZN4core9panicking13assert_failed17h49968851add484acE, symObjAddr: 0xF3B8, symBinAddr: 0x10005746C, symSize: 0x34 }
  - { offset: 0x748AB, size: 0x8, addend: 0x0, symName: __ZN4core9panicking13assert_failed17h8219ec77f299110cE, symObjAddr: 0xF3EC, symBinAddr: 0x1000574A0, symSize: 0x24 }
  - { offset: 0x74CF4, size: 0x8, addend: 0x0, symName: __ZN3std9panicking11panic_count8increase17h5d061070c09c1b20E, symObjAddr: 0x3BDA0, symBinAddr: 0x10003AAE4, symSize: 0x64 }
  - { offset: 0x74D0B, size: 0x8, addend: 0x0, symName: __ZN3std9panicking11panic_count8increase17h5d061070c09c1b20E, symObjAddr: 0x3BDA0, symBinAddr: 0x10003AAE4, symSize: 0x64 }
  - { offset: 0x74D20, size: 0x8, addend: 0x0, symName: __ZN3std9panicking11panic_count8increase17h5d061070c09c1b20E, symObjAddr: 0x3BDA0, symBinAddr: 0x10003AAE4, symSize: 0x64 }
  - { offset: 0x74DFF, size: 0x8, addend: 0x0, symName: __ZN3std9panicking11panic_count17is_zero_slow_path17h01eb20a9cec6a821E, symObjAddr: 0x3BE8C, symBinAddr: 0x100057EDC, symSize: 0x2C }
  - { offset: 0x74F5F, size: 0x8, addend: 0x0, symName: __RNvCs73fAdSrgOJL_7___rustc17___rust_drop_panic, symObjAddr: 0x3B3E8, symBinAddr: 0x10003A398, symSize: 0xBC }
  - { offset: 0x75154, size: 0x8, addend: 0x0, symName: __RNvCs73fAdSrgOJL_7___rustc24___rust_foreign_exception, symObjAddr: 0x3B4A4, symBinAddr: 0x10003A454, symSize: 0xBC }
  - { offset: 0x75349, size: 0x8, addend: 0x0, symName: __ZN3std9panicking12default_hook17h8875fb31ec87dfadE, symObjAddr: 0x3B7CC, symBinAddr: 0x10003A510, symSize: 0x1AC }
  - { offset: 0x75687, size: 0x8, addend: 0x0, symName: '__ZN3std9panicking12default_hook28_$u7b$$u7b$closure$u7d$$u7d$17hf623c44b740b115fE', symObjAddr: 0x3B978, symBinAddr: 0x10003A6BC, symSize: 0x1A4 }
  - { offset: 0x7585E, size: 0x8, addend: 0x0, symName: '__ZN3std9panicking12default_hook28_$u7b$$u7b$closure$u7d$$u7d$28_$u7b$$u7b$closure$u7d$$u7d$17hf47d63ca0778dae1E', symObjAddr: 0x3BB1C, symBinAddr: 0x10003A860, symSize: 0x284 }
  - { offset: 0x75CD4, size: 0x8, addend: 0x0, symName: __RNvCs73fAdSrgOJL_7___rustc17rust_begin_unwind, symObjAddr: 0x3BF00, symBinAddr: 0x10003AB48, symSize: 0x20 }
  - { offset: 0x75D3D, size: 0x8, addend: 0x0, symName: '__ZN102_$LT$std..panicking..begin_panic_handler..FormatStringPayload$u20$as$u20$core..panic..PanicPayload$GT$8take_box17h223afba6ccee5cb1E', symObjAddr: 0x3BF20, symBinAddr: 0x10003AB68, symSize: 0x118 }
  - { offset: 0x75FB9, size: 0x8, addend: 0x0, symName: '__ZN102_$LT$std..panicking..begin_panic_handler..FormatStringPayload$u20$as$u20$core..panic..PanicPayload$GT$3get17h4f88f29aab2fd10fE', symObjAddr: 0x3C038, symBinAddr: 0x10003AC80, symSize: 0xB0 }
  - { offset: 0x760F2, size: 0x8, addend: 0x0, symName: '__ZN95_$LT$std..panicking..begin_panic_handler..FormatStringPayload$u20$as$u20$core..fmt..Display$GT$3fmt17hb0af82e86096f7f0E', symObjAddr: 0x3C0E8, symBinAddr: 0x10003AD30, symSize: 0x5C }
  - { offset: 0x761EF, size: 0x8, addend: 0x0, symName: '__ZN99_$LT$std..panicking..begin_panic_handler..StaticStrPayload$u20$as$u20$core..panic..PanicPayload$GT$8take_box17h0df143ef4488f020E', symObjAddr: 0x3C144, symBinAddr: 0x10003AD8C, symSize: 0x48 }
  - { offset: 0x76266, size: 0x8, addend: 0x0, symName: '__ZN99_$LT$std..panicking..begin_panic_handler..StaticStrPayload$u20$as$u20$core..panic..PanicPayload$GT$3get17h5775715a100ee158E', symObjAddr: 0x3C18C, symBinAddr: 0x10003ADD4, symSize: 0xC }
  - { offset: 0x76281, size: 0x8, addend: 0x0, symName: '__ZN99_$LT$std..panicking..begin_panic_handler..StaticStrPayload$u20$as$u20$core..panic..PanicPayload$GT$6as_str17h4a89cb46754932c0E', symObjAddr: 0x3C198, symBinAddr: 0x10003ADE0, symSize: 0xC }
  - { offset: 0x762A2, size: 0x8, addend: 0x0, symName: '__ZN92_$LT$std..panicking..begin_panic_handler..StaticStrPayload$u20$as$u20$core..fmt..Display$GT$3fmt17h97bd842622e6ccedE', symObjAddr: 0x3C1A4, symBinAddr: 0x10003ADEC, symSize: 0x10 }
  - { offset: 0x762BE, size: 0x8, addend: 0x0, symName: '__ZN3std9panicking19begin_panic_handler28_$u7b$$u7b$closure$u7d$$u7d$17hdf417b72ab8ffff8E', symObjAddr: 0x3C1B4, symBinAddr: 0x10003ADFC, symSize: 0xC4 }
  - { offset: 0x76426, size: 0x8, addend: 0x0, symName: __ZN3std9panicking14payload_as_str17h9b5790cdb2b550fcE, symObjAddr: 0x3C35C, symBinAddr: 0x10003AEC0, symSize: 0xB0 }
  - { offset: 0x7650A, size: 0x8, addend: 0x0, symName: __ZN3std9panicking20rust_panic_with_hook17hdd8ceeeb04975c2bE, symObjAddr: 0x3C40C, symBinAddr: 0x10003AF70, symSize: 0x398 }
  - { offset: 0x76D57, size: 0x8, addend: 0x0, symName: __RNvCs73fAdSrgOJL_7___rustc10rust_panic, symObjAddr: 0x3C898, symBinAddr: 0x100057F08, symSize: 0x60 }
  - { offset: 0x76EDE, size: 0x8, addend: 0x0, symName: __ZN3std3sys6os_str5bytes5Slice21check_public_boundary9slow_path17ha0867f8ad8f72568E, symObjAddr: 0x4415C, symBinAddr: 0x10003DEEC, symSize: 0x138 }
  - { offset: 0x77080, size: 0x8, addend: 0x0, symName: '__ZN78_$LT$std..sys..process..unix..unix..ExitStatus$u20$as$u20$core..fmt..Debug$GT$3fmt17h25399afc02fd9c5dE', symObjAddr: 0x473F0, symBinAddr: 0x10003FFD8, symSize: 0x58 }
  - { offset: 0x770C4, size: 0x8, addend: 0x0, symName: __ZN3std3sys7process4unix4unix7Process4wait17hf16eee4591add28bE, symObjAddr: 0x47350, symBinAddr: 0x10003FF38, symSize: 0xA0 }
  - { offset: 0x77287, size: 0x8, addend: 0x0, symName: '__ZN102_$LT$std..sys..process..unix..common..cstring_array..CStringArray$u20$as$u20$core..ops..drop..Drop$GT$4drop17h78e7b17770d00f7eE', symObjAddr: 0x44808, symBinAddr: 0x10003E0FC, symSize: 0x70 }
  - { offset: 0x773A0, size: 0x8, addend: 0x0, symName: __ZN3std3sys7process4unix6common13cstring_array12CStringArray13with_capacity17h99fa5c23e0df8330E, symObjAddr: 0x44628, symBinAddr: 0x10003E024, symSize: 0xD8 }
  - { offset: 0x77561, size: 0x8, addend: 0x0, symName: __ZN3std3sys7process4unix6common7Command3new17hee79130fbef3296eE, symObjAddr: 0x448E8, symBinAddr: 0x10003E16C, symSize: 0x284 }
  - { offset: 0x77A1D, size: 0x8, addend: 0x0, symName: __ZN3std3sys7process4unix6common7Command3arg17h226ffd4f27122ef8E, symObjAddr: 0x44CB4, symBinAddr: 0x10003E3F0, symSize: 0xEC }
  - { offset: 0x77D1F, size: 0x8, addend: 0x0, symName: __ZN3std3sys7process4unix6common7Command5stdin17hf52a42e638e7ff03E, symObjAddr: 0x44FF8, symBinAddr: 0x10003E4DC, symSize: 0x44 }
  - { offset: 0x77DA8, size: 0x8, addend: 0x0, symName: __ZN3std3sys7process4unix6common7Command11capture_env17h0cfcb5df006c563cE, symObjAddr: 0x450C4, symBinAddr: 0x10003E520, symSize: 0x91C }
  - { offset: 0x7964C, size: 0x8, addend: 0x0, symName: __ZN3std3sys7process4unix6common7Command8setup_io17h49fecf1d8531d22fE, symObjAddr: 0x459E0, symBinAddr: 0x10003EE3C, symSize: 0x2F8 }
  - { offset: 0x79B03, size: 0x8, addend: 0x0, symName: '__ZN3std3sys7process4unix4unix58_$LT$impl$u20$std..sys..process..unix..common..Command$GT$5spawn17h83be88a7218a58a1E', symObjAddr: 0x46674, symBinAddr: 0x10003F290, symSize: 0x928 }
  - { offset: 0x7AB59, size: 0x8, addend: 0x0, symName: '__ZN3std3sys7process4unix4unix58_$LT$impl$u20$std..sys..process..unix..common..Command$GT$7do_exec17h7cf7ac48f439483cE', symObjAddr: 0x46F9C, symBinAddr: 0x10003FBB8, symSize: 0x380 }
  - { offset: 0x7B4CF, size: 0x8, addend: 0x0, symName: __ZN3std3sys7process4unix6common5Stdio14to_child_stdio17hb95d2f9ba1abe590E, symObjAddr: 0x45CD8, symBinAddr: 0x10003F134, symSize: 0x15C }
  - { offset: 0x7B702, size: 0x8, addend: 0x0, symName: __ZN3std3sys2fs4unix4File6open_c17h5a31c1e924c31a39E, symObjAddr: 0x4151C, symBinAddr: 0x10003DD3C, symSize: 0x1B0 }
  - { offset: 0x7B8A1, size: 0x8, addend: 0x0, symName: '__ZN65_$LT$std..sys..fs..unix..Dir$u20$as$u20$core..ops..drop..Drop$GT$4drop17hda69c3116f0d01f9E', symObjAddr: 0x411B8, symBinAddr: 0x10003DC70, symSize: 0xCC }
  - { offset: 0x7B979, size: 0x8, addend: 0x0, symName: __ZN3std3sys2fs8read_dir17ha4d851693f34a78dE, symObjAddr: 0x38968, symBinAddr: 0x100039CB4, symSize: 0x19C }
  - { offset: 0x7BC1F, size: 0x8, addend: 0x0, symName: __ZN3std3sys2fs11remove_file17h1a1078b31f4301f2E, symObjAddr: 0x38B04, symBinAddr: 0x100039E50, symSize: 0xC0 }
  - { offset: 0x7BD3D, size: 0x8, addend: 0x0, symName: __ZN3std3sys2fs8metadata17hc96a1b57bf2d1259E, symObjAddr: 0x394BC, symBinAddr: 0x100039F10, symSize: 0x128 }
  - { offset: 0x7BF06, size: 0x8, addend: 0x0, symName: __ZN3std3sys2fd4unix8FileDesc11read_to_end17h4dd597c33f28b34bE, symObjAddr: 0x40840, symBinAddr: 0x10003DA34, symSize: 0x23C }
  - { offset: 0x7C429, size: 0x8, addend: 0x0, symName: __ZN3std3sys3pal4unix4sync5mutex5Mutex4init17he47bfeffad10ab23E, symObjAddr: 0x3F018, symBinAddr: 0x10003D064, symSize: 0x16C }
  - { offset: 0x7C4E0, size: 0x8, addend: 0x0, symName: __ZN3std3sys3pal4unix4sync5mutex5Mutex4lock4fail17hc6db7b5c9b0389a0E, symObjAddr: 0x3F1A0, symBinAddr: 0x100057FC0, symSize: 0xE4 }
  - { offset: 0x7C7D3, size: 0x8, addend: 0x0, symName: __ZN3std3sys3pal4unix14stack_overflow3imp14signal_handler17h46f8ef1aa7528f43E, symObjAddr: 0x3E7B8, symBinAddr: 0x10003C804, symSize: 0x290 }
  - { offset: 0x7CDA4, size: 0x8, addend: 0x0, symName: __ZN3std3sys3pal4unix14stack_overflow3imp12make_handler17he67200fb708acd59E, symObjAddr: 0x3EA48, symBinAddr: 0x10003CA94, symSize: 0x234 }
  - { offset: 0x7D154, size: 0x8, addend: 0x0, symName: __ZN3std3sys3pal4unix14stack_overflow3imp12drop_handler17h683641cfe3e92d15E, symObjAddr: 0x3EC7C, symBinAddr: 0x10003CCC8, symSize: 0x39C }
  - { offset: 0x7D9B6, size: 0x8, addend: 0x0, symName: __ZN3std3sys3pal4unix14stack_overflow11thread_info16set_current_info17hdef3efae36137112E, symObjAddr: 0x3DE70, symBinAddr: 0x10003BEBC, symSize: 0x948 }
  - { offset: 0x7ED65, size: 0x8, addend: 0x0, symName: __ZN3std3sys3pal4unix4pipe8AnonPipe5write17h16a4c9da9673706eE, symObjAddr: 0x3DBAC, symBinAddr: 0x10003BC10, symSize: 0x54 }
  - { offset: 0x7EE42, size: 0x8, addend: 0x0, symName: __ZN3std3sys3pal4unix4pipe9anon_pipe17ha2e56c5565a24655E, symObjAddr: 0x3DA84, symBinAddr: 0x10003BAE8, symSize: 0x128 }
  - { offset: 0x7F137, size: 0x8, addend: 0x0, symName: __ZN3std3sys3pal4unix4pipe5read217h426c633f7d168e0dE, symObjAddr: 0x3DC00, symBinAddr: 0x10003BC64, symSize: 0x258 }
  - { offset: 0x7F665, size: 0x8, addend: 0x0, symName: '__ZN3std3sys3pal4unix4weak18DlsymWeak$LT$F$GT$10initialize17ha6b700ee2a93a6c2E', symObjAddr: 0x3D788, symBinAddr: 0x100057F68, symSize: 0x58 }
  - { offset: 0x7F6E7, size: 0x8, addend: 0x0, symName: __ZN3std3sys3pal4unix17decode_error_kind17haabc64936b405e49E, symObjAddr: 0x3FA78, symBinAddr: 0x10003D1D0, symSize: 0x150 }
  - { offset: 0x7F701, size: 0x8, addend: 0x0, symName: __ZN3std3sys3pal4unix14abort_internal17ha2b174aef73aaa99E, symObjAddr: 0x3FBC8, symBinAddr: 0x1000580A4, symSize: 0xC }
  - { offset: 0x7F7D3, size: 0x8, addend: 0x0, symName: __ZN3std3sys3pal6common14small_c_string24run_with_cstr_allocating17h4ec231ca57273a05E, symObjAddr: 0x379EC, symBinAddr: 0x100057A58, symSize: 0xBC }
  - { offset: 0x7F9AF, size: 0x8, addend: 0x0, symName: __ZN3std3sys3pal6common14small_c_string24run_with_cstr_allocating17h62eae881f61189b9E, symObjAddr: 0x37AA8, symBinAddr: 0x100057B14, symSize: 0xC4 }
  - { offset: 0x7FB78, size: 0x8, addend: 0x0, symName: __ZN3std3sys3pal6common14small_c_string24run_with_cstr_allocating17h849b8fb7465c671dE, symObjAddr: 0x37B6C, symBinAddr: 0x100057BD8, symSize: 0xAC }
  - { offset: 0x7FCD4, size: 0x8, addend: 0x0, symName: __ZN3std3sys3pal6common14small_c_string24run_with_cstr_allocating17h9731a74c6f43e353E, symObjAddr: 0x37C18, symBinAddr: 0x100057C84, symSize: 0xD0 }
  - { offset: 0x7FE9D, size: 0x8, addend: 0x0, symName: __ZN3std3sys3pal6common14small_c_string24run_with_cstr_allocating17hf63fa4ece05c9b45E, symObjAddr: 0x37CE8, symBinAddr: 0x100057D54, symSize: 0xA4 }
  - { offset: 0x80074, size: 0x8, addend: 0x0, symName: '__ZN64_$LT$std..sys..stdio..unix..Stderr$u20$as$u20$std..io..Write$GT$5write17h3b1932d17393f261E', symObjAddr: 0x47870, symBinAddr: 0x100040030, symSize: 0x58 }
  - { offset: 0x8014A, size: 0x8, addend: 0x0, symName: '__ZN64_$LT$std..sys..stdio..unix..Stderr$u20$as$u20$std..io..Write$GT$14write_vectored17h8ff0487a5ca382e1E', symObjAddr: 0x478C8, symBinAddr: 0x100040088, symSize: 0x58 }
  - { offset: 0x80220, size: 0x8, addend: 0x0, symName: '__ZN64_$LT$std..sys..stdio..unix..Stderr$u20$as$u20$std..io..Write$GT$17is_write_vectored17h806729f05e1b02f1E', symObjAddr: 0x47920, symBinAddr: 0x1000400E0, symSize: 0x8 }
  - { offset: 0x8023A, size: 0x8, addend: 0x0, symName: '__ZN64_$LT$std..sys..stdio..unix..Stderr$u20$as$u20$std..io..Write$GT$5flush17ha8134fdfc2044e22E', symObjAddr: 0x47928, symBinAddr: 0x1000400E8, symSize: 0x8 }
  - { offset: 0x80282, size: 0x8, addend: 0x0, symName: '__ZN3std3sys11personality3gcc14find_eh_action28_$u7b$$u7b$closure$u7d$$u7d$17h8e0a401f13cba7b2E', symObjAddr: 0x3FBD4, symBinAddr: 0x10003D320, symSize: 0xC }
  - { offset: 0x80296, size: 0x8, addend: 0x0, symName: '__ZN3std3sys11personality3gcc14find_eh_action28_$u7b$$u7b$closure$u7d$$u7d$17hb37e74614c39fe5bE', symObjAddr: 0x3FBE0, symBinAddr: 0x10003D32C, symSize: 0xC }
  - { offset: 0x802C6, size: 0x8, addend: 0x0, symName: _rust_eh_personality, symObjAddr: 0x3FBEC, symBinAddr: 0x10003D338, symSize: 0x378 }
  - { offset: 0x8064F, size: 0x8, addend: 0x0, symName: __ZN3std3sys11personality5dwarf2eh19read_encoded_offset17ha35e0bf259a51371E, symObjAddr: 0x37E3C, symBinAddr: 0x1000393C8, symSize: 0x148 }
  - { offset: 0x807CF, size: 0x8, addend: 0x0, symName: '__ZN3std3sys9backtrace10_print_fmt28_$u7b$$u7b$closure$u7d$$u7d$17h53593d80dca05be6E', symObjAddr: 0x382E8, symBinAddr: 0x1000397FC, symSize: 0x24 }
  - { offset: 0x807F8, size: 0x8, addend: 0x0, symName: '__ZN3std3sys9backtrace10_print_fmt28_$u7b$$u7b$closure$u7d$$u7d$17h562a49be56385aceE', symObjAddr: 0x3830C, symBinAddr: 0x100039820, symSize: 0x130 }
  - { offset: 0x8090C, size: 0x8, addend: 0x0, symName: '__ZN3std3sys9backtrace10_print_fmt28_$u7b$$u7b$closure$u7d$$u7d$28_$u7b$$u7b$closure$u7d$$u7d$17had6f8f8b94a1d5d2E', symObjAddr: 0x3843C, symBinAddr: 0x100039950, symSize: 0x264 }
  - { offset: 0x80B3B, size: 0x8, addend: 0x0, symName: __ZN3std3sys9backtrace4lock17hdabe8353c49be0ebE, symObjAddr: 0x37FFC, symBinAddr: 0x100039510, symSize: 0x70 }
  - { offset: 0x80C84, size: 0x8, addend: 0x0, symName: __ZN3std3sys9backtrace13BacktraceLock5print17h3eb1535b8d3666caE, symObjAddr: 0x3806C, symBinAddr: 0x100039580, symSize: 0x54 }
  - { offset: 0x80CD1, size: 0x8, addend: 0x0, symName: '__ZN98_$LT$std..sys..backtrace..BacktraceLock..print..DisplayBacktrace$u20$as$u20$core..fmt..Display$GT$3fmt17h373e57e2286956dcE', symObjAddr: 0x380C0, symBinAddr: 0x1000395D4, symSize: 0x228 }
  - { offset: 0x811B6, size: 0x8, addend: 0x0, symName: __ZN3std3sys9backtrace26__rust_end_short_backtrace17h507d79c50996742eE, symObjAddr: 0x386A0, symBinAddr: 0x100039BB4, symSize: 0xC }
  - { offset: 0x811D0, size: 0x8, addend: 0x0, symName: __ZN3std3sys9backtrace15output_filename17h1e17c213ac1ab78dE, symObjAddr: 0x386B8, symBinAddr: 0x100039BC0, symSize: 0xF4 }
  - { offset: 0x8139E, size: 0x8, addend: 0x0, symName: '__ZN3std3sys4sync8once_box16OnceBox$LT$T$GT$10initialize17he379977f8bc9e5d3E', symObjAddr: 0x3A608, symBinAddr: 0x100057DF8, symSize: 0xE4 }
  - { offset: 0x81680, size: 0x8, addend: 0x0, symName: __ZN3std3sys4sync6rwlock5queue6RwLock21read_unlock_contended17h1b9e50d42faedc94E, symObjAddr: 0x4843C, symBinAddr: 0x100058300, symSize: 0x40 }
  - { offset: 0x8169E, size: 0x8, addend: 0x0, symName: __ZN3std3sys4sync6rwlock5queue6RwLock21read_unlock_contended17h1b9e50d42faedc94E, symObjAddr: 0x4843C, symBinAddr: 0x100058300, symSize: 0x40 }
  - { offset: 0x816B3, size: 0x8, addend: 0x0, symName: __ZN3std3sys4sync6rwlock5queue6RwLock21read_unlock_contended17h1b9e50d42faedc94E, symObjAddr: 0x4843C, symBinAddr: 0x100058300, symSize: 0x40 }
  - { offset: 0x817F0, size: 0x8, addend: 0x0, symName: __ZN3std3sys4sync6rwlock5queue6RwLock16unlock_contended17h76968e98b916e2abE, symObjAddr: 0x4847C, symBinAddr: 0x100058340, symSize: 0x40 }
  - { offset: 0x818CC, size: 0x8, addend: 0x0, symName: __ZN3std3sys4sync6rwlock5queue6RwLock12unlock_queue17h9c4ac3ac2d5778f9E, symObjAddr: 0x485C8, symBinAddr: 0x100040378, symSize: 0x1CC }
  - { offset: 0x81FC4, size: 0x8, addend: 0x0, symName: __ZN3std3sys4sync6rwlock5queue9read_lock17h1f89cfb304dc509cE, symObjAddr: 0x481E8, symBinAddr: 0x100040358, symSize: 0x20 }
  - { offset: 0x81FDD, size: 0x8, addend: 0x0, symName: '__ZN83_$LT$std..sys..sync..rwlock..queue..PanicGuard$u20$as$u20$core..ops..drop..Drop$GT$4drop17h5cadc4ef1f5dcd7dE', symObjAddr: 0x48208, symBinAddr: 0x1000582BC, symSize: 0x44 }
  - { offset: 0x820D5, size: 0x8, addend: 0x0, symName: __ZN3std3sys4sync4once5queue4Once4call17hecaba0a776a35aa1E, symObjAddr: 0x47D60, symBinAddr: 0x1000580B0, symSize: 0x20C }
  - { offset: 0x823C4, size: 0x8, addend: 0x0, symName: '__ZN82_$LT$std..sys..sync..once..queue..WaiterQueue$u20$as$u20$core..ops..drop..Drop$GT$4drop17h7c83cf796170585cE', symObjAddr: 0x480F4, symBinAddr: 0x100040278, symSize: 0xE0 }
  - { offset: 0x82587, size: 0x8, addend: 0x0, symName: __ZN3std3sys4sync4once5queue4wait17h89a94bf1656b2ec7E, symObjAddr: 0x47F6C, symBinAddr: 0x1000400F0, symSize: 0x188 }
  - { offset: 0x82B5E, size: 0x8, addend: 0x0, symName: __ZN3std3sys12thread_local6native5eager7destroy17heae091946a683e1cE, symObjAddr: 0x48840, symBinAddr: 0x100040544, symSize: 0x2C }
  - { offset: 0x82CAF, size: 0x8, addend: 0x0, symName: __ZN3std3sys12thread_local5guard5apple6enable9run_dtors17hef79a299de7fb9adE, symObjAddr: 0x48984, symBinAddr: 0x100040688, symSize: 0xF8 }
  - { offset: 0x831C8, size: 0x8, addend: 0x0, symName: __ZN3std3sys12thread_local11destructors4list8register17hde6abc51e3c3721cE, symObjAddr: 0x4886C, symBinAddr: 0x100040570, symSize: 0x118 }
  - { offset: 0x83526, size: 0x8, addend: 0x0, symName: __ZN3std3sys3env4unix13env_read_lock17ha2bee16bf1e65b98E, symObjAddr: 0x3FF64, symBinAddr: 0x10003D6B0, symSize: 0x23C }
  - { offset: 0x83C2F, size: 0x8, addend: 0x0, symName: '__ZN3std3sys3env4unix6getenv28_$u7b$$u7b$closure$u7d$$u7d$17h5aa62fce8cdb755bE', symObjAddr: 0x401A0, symBinAddr: 0x10003D8EC, symSize: 0x148 }
  - { offset: 0x83ED5, size: 0x8, addend: 0x0, symName: __ZN3std3sys6random19hashmap_random_keys17hac2c299b1617bd4aE, symObjAddr: 0x3A4E4, symBinAddr: 0x10003A038, symSize: 0x70 }
  - { offset: 0x84195, size: 0x8, addend: 0x0, symName: '__ZN62_$LT$std..ffi..os_str..Display$u20$as$u20$core..fmt..Debug$GT$3fmt17hdb0929582d8c2d53E', symObjAddr: 0x23368, symBinAddr: 0x1000353D8, symSize: 0x28 }
  - { offset: 0x84214, size: 0x8, addend: 0x0, symName: '__ZN64_$LT$std..ffi..os_str..Display$u20$as$u20$core..fmt..Display$GT$3fmt17hf4e02af35f1fefceE', symObjAddr: 0x23390, symBinAddr: 0x100035400, symSize: 0xAC }
  - { offset: 0x84323, size: 0x8, addend: 0x0, symName: __ZN3std7process7Command5spawn17hd8ca9baae394d5c7E, symObjAddr: 0x35104, symBinAddr: 0x100038CA0, symSize: 0x78 }
  - { offset: 0x84354, size: 0x8, addend: 0x0, symName: __ZN3std7process7Command6output17h8dcdf4d4d26f2b3aE, symObjAddr: 0x3517C, symBinAddr: 0x100038D18, symSize: 0x2F8 }
  - { offset: 0x848D2, size: 0x8, addend: 0x0, symName: __ZN3std7process5Child4wait17hb9861c9afa7bb055E, symObjAddr: 0x35A08, symBinAddr: 0x100039010, symSize: 0xBC }
  - { offset: 0x84A5F, size: 0x8, addend: 0x0, symName: __ZN3std7process5abort17hbd14f557f4be895cE, symObjAddr: 0x35E58, symBinAddr: 0x100057980, symSize: 0xC }
  - { offset: 0x84B17, size: 0x8, addend: 0x0, symName: __ZN3std4path4Path13_strip_prefix17h44ebcc45a48bcda4E, symObjAddr: 0x336DC, symBinAddr: 0x1000388E0, symSize: 0x21C }
  - { offset: 0x84C35, size: 0x8, addend: 0x0, symName: __ZN3std4path4Path5_join17h5f97e78c9ec6f8c6E, symObjAddr: 0x33F08, symBinAddr: 0x100038AFC, symSize: 0x1A4 }
  - { offset: 0x8521D, size: 0x8, addend: 0x0, symName: __ZN3std4path10Components15len_before_body17h5c34a7955bf675c9E, symObjAddr: 0x31A18, symBinAddr: 0x10003787C, symSize: 0x188 }
  - { offset: 0x85234, size: 0x8, addend: 0x0, symName: __ZN3std4path10Components15len_before_body17h5c34a7955bf675c9E, symObjAddr: 0x31A18, symBinAddr: 0x10003787C, symSize: 0x188 }
  - { offset: 0x85249, size: 0x8, addend: 0x0, symName: __ZN3std4path10Components15len_before_body17h5c34a7955bf675c9E, symObjAddr: 0x31A18, symBinAddr: 0x10003787C, symSize: 0x188 }
  - { offset: 0x85401, size: 0x8, addend: 0x0, symName: __ZN3std4path10Components7as_path17ha0723f3b84befc75E, symObjAddr: 0x31BA0, symBinAddr: 0x100037A04, symSize: 0x318 }
  - { offset: 0x85679, size: 0x8, addend: 0x0, symName: __ZN3std4path10Components25parse_next_component_back17hb183b6faf02472afE, symObjAddr: 0x31EB8, symBinAddr: 0x100037D1C, symSize: 0x124 }
  - { offset: 0x8583B, size: 0x8, addend: 0x0, symName: '__ZN80_$LT$std..path..Components$u20$as$u20$core..iter..traits..iterator..Iterator$GT$4next17hc5f2949875039169E', symObjAddr: 0x32174, symBinAddr: 0x100037E40, symSize: 0x340 }
  - { offset: 0x85B38, size: 0x8, addend: 0x0, symName: '__ZN95_$LT$std..path..Components$u20$as$u20$core..iter..traits..double_ended..DoubleEndedIterator$GT$9next_back17h97da5c60c737f00eE', symObjAddr: 0x324B4, symBinAddr: 0x100038180, symSize: 0x360 }
  - { offset: 0x85CA0, size: 0x8, addend: 0x0, symName: __ZN3std4path7PathBuf5_push17h31f255ccd2ab64ccE, symObjAddr: 0x32CA8, symBinAddr: 0x1000384E0, symSize: 0x10C }
  - { offset: 0x85F7F, size: 0x8, addend: 0x0, symName: __ZN3std4path7PathBuf14_set_extension17hb3637e4099373079E, symObjAddr: 0x32FEC, symBinAddr: 0x1000385EC, symSize: 0x2F4 }
  - { offset: 0x86823, size: 0x8, addend: 0x0, symName: '__ZN61_$LT$std..path..Component$u20$as$u20$core..cmp..PartialEq$GT$2eq17h9abf03ee93017be9E', symObjAddr: 0x3D540, symBinAddr: 0x10003B9B0, symSize: 0x138 }
  - { offset: 0x86A0B, size: 0x8, addend: 0x0, symName: '__ZN81_$LT$std..io..default_write_fmt..Adapter$LT$T$GT$$u20$as$u20$core..fmt..Write$GT$9write_str17h1421ba9cd8ee47c5E', symObjAddr: 0x2CBD4, symBinAddr: 0x100036F1C, symSize: 0xA0 }
  - { offset: 0x86B33, size: 0x8, addend: 0x0, symName: '__ZN81_$LT$std..io..default_write_fmt..Adapter$LT$T$GT$$u20$as$u20$core..fmt..Write$GT$9write_str17h2d8b7e46a0e35d96E', symObjAddr: 0x2CC74, symBinAddr: 0x100036FBC, symSize: 0x80 }
  - { offset: 0x86C7F, size: 0x8, addend: 0x0, symName: '__ZN81_$LT$std..io..default_write_fmt..Adapter$LT$T$GT$$u20$as$u20$core..fmt..Write$GT$9write_str17h8e69c5e2e9f54588E', symObjAddr: 0x2CE1C, symBinAddr: 0x10003703C, symSize: 0x50 }
  - { offset: 0x86CA9, size: 0x8, addend: 0x0, symName: '__ZN81_$LT$std..io..default_write_fmt..Adapter$LT$T$GT$$u20$as$u20$core..fmt..Write$GT$9write_str17hf38da0e8ae1b5efbE', symObjAddr: 0x2CE6C, symBinAddr: 0x10003708C, symSize: 0xD8 }
  - { offset: 0x86E6B, size: 0x8, addend: 0x0, symName: '__ZN3std2io5impls74_$LT$impl$u20$std..io..Write$u20$for$u20$alloc..vec..Vec$LT$u8$C$A$GT$$GT$5write17hb822c2b238acf3c4E', symObjAddr: 0x27060, symBinAddr: 0x100035FD4, symSize: 0x84 }
  - { offset: 0x86FB0, size: 0x8, addend: 0x0, symName: '__ZN3std2io5impls74_$LT$impl$u20$std..io..Write$u20$for$u20$alloc..vec..Vec$LT$u8$C$A$GT$$GT$14write_vectored17h3b2a452d1d260808E', symObjAddr: 0x270E4, symBinAddr: 0x100036058, symSize: 0x174 }
  - { offset: 0x871FD, size: 0x8, addend: 0x0, symName: '__ZN3std2io5impls74_$LT$impl$u20$std..io..Write$u20$for$u20$alloc..vec..Vec$LT$u8$C$A$GT$$GT$17is_write_vectored17h85e25b333c28438fE', symObjAddr: 0x27258, symBinAddr: 0x1000361CC, symSize: 0x8 }
  - { offset: 0x87218, size: 0x8, addend: 0x0, symName: '__ZN3std2io5impls74_$LT$impl$u20$std..io..Write$u20$for$u20$alloc..vec..Vec$LT$u8$C$A$GT$$GT$9write_all17h4986f5d3d6bca366E', symObjAddr: 0x27260, symBinAddr: 0x1000361D4, symSize: 0x80 }
  - { offset: 0x87364, size: 0x8, addend: 0x0, symName: '__ZN3std2io5impls74_$LT$impl$u20$std..io..Write$u20$for$u20$alloc..vec..Vec$LT$u8$C$A$GT$$GT$18write_all_vectored17h0ce1bbe6949613dfE', symObjAddr: 0x272E0, symBinAddr: 0x100036254, symSize: 0x168 }
  - { offset: 0x8738F, size: 0x8, addend: 0x0, symName: '__ZN3std2io5impls74_$LT$impl$u20$std..io..Write$u20$for$u20$alloc..vec..Vec$LT$u8$C$A$GT$$GT$18write_all_vectored17h0ce1bbe6949613dfE', symObjAddr: 0x272E0, symBinAddr: 0x100036254, symSize: 0x168 }
  - { offset: 0x873A4, size: 0x8, addend: 0x0, symName: '__ZN3std2io5impls74_$LT$impl$u20$std..io..Write$u20$for$u20$alloc..vec..Vec$LT$u8$C$A$GT$$GT$18write_all_vectored17h0ce1bbe6949613dfE', symObjAddr: 0x272E0, symBinAddr: 0x100036254, symSize: 0x168 }
  - { offset: 0x873B9, size: 0x8, addend: 0x0, symName: '__ZN3std2io5impls74_$LT$impl$u20$std..io..Write$u20$for$u20$alloc..vec..Vec$LT$u8$C$A$GT$$GT$18write_all_vectored17h0ce1bbe6949613dfE', symObjAddr: 0x272E0, symBinAddr: 0x100036254, symSize: 0x168 }
  - { offset: 0x873CD, size: 0x8, addend: 0x0, symName: '__ZN3std2io5impls74_$LT$impl$u20$std..io..Write$u20$for$u20$alloc..vec..Vec$LT$u8$C$A$GT$$GT$18write_all_vectored17h0ce1bbe6949613dfE', symObjAddr: 0x272E0, symBinAddr: 0x100036254, symSize: 0x168 }
  - { offset: 0x875E6, size: 0x8, addend: 0x0, symName: '__ZN3std2io5impls74_$LT$impl$u20$std..io..Write$u20$for$u20$alloc..vec..Vec$LT$u8$C$A$GT$$GT$5flush17h2126ea47a926e7aeE', symObjAddr: 0x27448, symBinAddr: 0x1000363BC, symSize: 0x8 }
  - { offset: 0x87739, size: 0x8, addend: 0x0, symName: __ZN3std2io5error14repr_bitpacked11decode_repr17hcdf376292fdb65d2E, symObjAddr: 0x26804, symBinAddr: 0x100035AD8, symSize: 0x60 }
  - { offset: 0x877A2, size: 0x8, addend: 0x0, symName: '__ZN58_$LT$std..io..error..Error$u20$as$u20$core..fmt..Debug$GT$3fmt17hdf9c13a9945d5c29E', symObjAddr: 0x26864, symBinAddr: 0x100035B38, symSize: 0x4 }
  - { offset: 0x877E2, size: 0x8, addend: 0x0, symName: '__ZN3std2io5error83_$LT$impl$u20$core..fmt..Debug$u20$for$u20$std..io..error..repr_bitpacked..Repr$GT$3fmt17h0f29a0fd45fc1bcfE', symObjAddr: 0x26AD8, symBinAddr: 0x100035B3C, symSize: 0x294 }
  - { offset: 0x87A2D, size: 0x8, addend: 0x0, symName: '__ZN60_$LT$std..io..error..Error$u20$as$u20$core..fmt..Display$GT$3fmt17habdd18ca5ab4309eE', symObjAddr: 0x26D6C, symBinAddr: 0x100035DD0, symSize: 0x204 }
  - { offset: 0x87C8C, size: 0x8, addend: 0x0, symName: '__ZN62_$LT$std..io..error..ErrorKind$u20$as$u20$core..fmt..Debug$GT$3fmt17h2d20d17aac9eb11fE', symObjAddr: 0x3D518, symBinAddr: 0x10003B988, symSize: 0x28 }
  - { offset: 0x87CD7, size: 0x8, addend: 0x0, symName: __ZN3std2io5Write9write_all17h968f08b438f23232E, symObjAddr: 0x2CFB8, symBinAddr: 0x100037164, symSize: 0xB8 }
  - { offset: 0x87DF2, size: 0x8, addend: 0x0, symName: __ZN3std2io5Write18write_all_vectored17hbcff9dde3b80a800E, symObjAddr: 0x2D070, symBinAddr: 0x10003721C, symSize: 0x1CC }
  - { offset: 0x880A3, size: 0x8, addend: 0x0, symName: __ZN3std2io5Write9write_fmt17h00b4007fff731b84E, symObjAddr: 0x2D23C, symBinAddr: 0x1000373E8, symSize: 0x128 }
  - { offset: 0x882ED, size: 0x8, addend: 0x0, symName: __ZN3std2io5Write9write_fmt17h1c9f4e65a2760494E, symObjAddr: 0x2D364, symBinAddr: 0x100037510, symSize: 0x128 }
  - { offset: 0x88537, size: 0x8, addend: 0x0, symName: __ZN3std2io5Write9write_fmt17h619de9749845ad1bE, symObjAddr: 0x2D48C, symBinAddr: 0x100037638, symSize: 0x128 }
  - { offset: 0x8879E, size: 0x8, addend: 0x0, symName: '__ZN3std2io8buffered9bufwriter18BufWriter$LT$W$GT$9flush_buf17h4ecd4f227cafd79eE', symObjAddr: 0x25DC8, symBinAddr: 0x1000358E0, symSize: 0x1F8 }
  - { offset: 0x88D0C, size: 0x8, addend: 0x0, symName: '__ZN3std2io8buffered9bufwriter18BufWriter$LT$W$GT$14write_all_cold17hdc683320716deeb9E', symObjAddr: 0x2614C, symBinAddr: 0x100057858, symSize: 0x128 }
  - { offset: 0x89145, size: 0x8, addend: 0x0, symName: '__ZN61_$LT$$RF$std..io..stdio..Stdout$u20$as$u20$std..io..Write$GT$9write_fmt17h595bf9d2c2ff9fe0E', symObjAddr: 0x2A280, symBinAddr: 0x1000363C4, symSize: 0x190 }
  - { offset: 0x8954D, size: 0x8, addend: 0x0, symName: '__ZN61_$LT$std..io..stdio..StdoutLock$u20$as$u20$std..io..Write$GT$9write_all17h373dc2ca22e35da8E', symObjAddr: 0x2A72C, symBinAddr: 0x100036554, symSize: 0x268 }
  - { offset: 0x89CDF, size: 0x8, addend: 0x0, symName: __ZN3std2io5stdio6Stderr4lock17h2c1838d646f36f3bE, symObjAddr: 0x2ACCC, symBinAddr: 0x1000367BC, symSize: 0xE4 }
  - { offset: 0x89F83, size: 0x8, addend: 0x0, symName: '__ZN57_$LT$std..io..stdio..Stderr$u20$as$u20$std..io..Write$GT$9write_all17h0b21e3bee51bf2b5E', symObjAddr: 0x2AEB0, symBinAddr: 0x1000368A0, symSize: 0x9C }
  - { offset: 0x8A19D, size: 0x8, addend: 0x0, symName: '__ZN61_$LT$std..io..stdio..StderrLock$u20$as$u20$std..io..Write$GT$9write_all17he3efbae95858efe9E', symObjAddr: 0x2B7E0, symBinAddr: 0x10003693C, symSize: 0x114 }
  - { offset: 0x8A4E7, size: 0x8, addend: 0x0, symName: __ZN3std2io5stdio22try_set_output_capture17h02e4e20053907c68E, symObjAddr: 0x2BA9C, symBinAddr: 0x100036A50, symSize: 0xEC }
  - { offset: 0x8A788, size: 0x8, addend: 0x0, symName: __ZN3std2io5stdio31print_to_buffer_if_capture_used17hcd908728fda25d1dE, symObjAddr: 0x2BB88, symBinAddr: 0x100036B3C, symSize: 0x20C }
  - { offset: 0x8AE7C, size: 0x8, addend: 0x0, symName: __ZN3std2io5stdio6_print17h934b25807d0b964aE, symObjAddr: 0x2BE68, symBinAddr: 0x100036D48, symSize: 0xE4 }
  - { offset: 0x8AFEF, size: 0x8, addend: 0x0, symName: __ZN3std2io19default_read_to_end16small_probe_read17ha70487dca9140dd9E, symObjAddr: 0x2C90C, symBinAddr: 0x100036E2C, symSize: 0xF0 }
  - { offset: 0x8B26F, size: 0x8, addend: 0x0, symName: '__ZN3std4sync6poison4once4Once15call_once_force28_$u7b$$u7b$closure$u7d$$u7d$17h5fcd666c0990a5cbE', symObjAddr: 0x36574, symBinAddr: 0x1000392F0, symSize: 0x78 }
  - { offset: 0x8B3AC, size: 0x8, addend: 0x0, symName: '__ZN3std4sync6poison4once4Once15call_once_force28_$u7b$$u7b$closure$u7d$$u7d$17h8900ddc7fabd604dE', symObjAddr: 0x365EC, symBinAddr: 0x100039368, symSize: 0x60 }
  - { offset: 0x8B469, size: 0x8, addend: 0x0, symName: '__ZN3std4sync6poison4once4Once9call_once28_$u7b$$u7b$closure$u7d$$u7d$17h09c800c11a2781e6E', symObjAddr: 0x36154, symBinAddr: 0x1000390CC, symSize: 0x224 }
  - { offset: 0x8BDF3, size: 0x8, addend: 0x0, symName: '__ZN3std4sync9once_lock17OnceLock$LT$T$GT$10initialize17ha33e4a2206d74ec9E', symObjAddr: 0x36EF0, symBinAddr: 0x10005798C, symSize: 0x64 }
  - { offset: 0x8BE1E, size: 0x8, addend: 0x0, symName: '__ZN3std4sync9once_lock17OnceLock$LT$T$GT$10initialize17ha33e4a2206d74ec9E', symObjAddr: 0x36EF0, symBinAddr: 0x10005798C, symSize: 0x64 }
  - { offset: 0x8BE32, size: 0x8, addend: 0x0, symName: '__ZN3std4sync9once_lock17OnceLock$LT$T$GT$10initialize17ha33e4a2206d74ec9E', symObjAddr: 0x36EF0, symBinAddr: 0x10005798C, symSize: 0x64 }
  - { offset: 0x8BE46, size: 0x8, addend: 0x0, symName: '__ZN3std4sync9once_lock17OnceLock$LT$T$GT$10initialize17ha33e4a2206d74ec9E', symObjAddr: 0x36EF0, symBinAddr: 0x10005798C, symSize: 0x64 }
  - { offset: 0x8BE5C, size: 0x8, addend: 0x0, symName: '__ZN3std4sync9once_lock17OnceLock$LT$T$GT$10initialize17hd570d1d77e17be18E', symObjAddr: 0x36FB0, symBinAddr: 0x1000579F0, symSize: 0x68 }
  - { offset: 0x8BE87, size: 0x8, addend: 0x0, symName: '__ZN3std4sync9once_lock17OnceLock$LT$T$GT$10initialize17hd570d1d77e17be18E', symObjAddr: 0x36FB0, symBinAddr: 0x1000579F0, symSize: 0x68 }
  - { offset: 0x8BE9B, size: 0x8, addend: 0x0, symName: '__ZN3std4sync9once_lock17OnceLock$LT$T$GT$10initialize17hd570d1d77e17be18E', symObjAddr: 0x36FB0, symBinAddr: 0x1000579F0, symSize: 0x68 }
  - { offset: 0x8BEAF, size: 0x8, addend: 0x0, symName: '__ZN3std4sync9once_lock17OnceLock$LT$T$GT$10initialize17hd570d1d77e17be18E', symObjAddr: 0x36FB0, symBinAddr: 0x1000579F0, symSize: 0x68 }
  - { offset: 0x8C07D, size: 0x8, addend: 0x0, symName: __ZN3std12backtrace_rs9symbolize5gimli7Context3new17hb91d93e0b4232d15E, symObjAddr: 0x48BB8, symBinAddr: 0x1000407C8, symSize: 0x1FEC }
  - { offset: 0x8FD24, size: 0x8, addend: 0x0, symName: __ZN3std12backtrace_rs9symbolize5gimli7Context11find_frames17h23a2097c4c7962bdE, symObjAddr: 0x4ABA4, symBinAddr: 0x1000427B4, symSize: 0x390 }
  - { offset: 0x90149, size: 0x8, addend: 0x0, symName: __ZN3std12backtrace_rs9symbolize5gimli5macho6Object5parse17h5fdabfb181ac69c7E, symObjAddr: 0x4DA84, symBinAddr: 0x10004567C, symSize: 0xC28 }
  - { offset: 0x91F5D, size: 0x8, addend: 0x0, symName: __ZN3std12backtrace_rs9symbolize5gimli5macho6Object7section17hc169392917328d37E, symObjAddr: 0x4E6AC, symBinAddr: 0x1000462A4, symSize: 0x154 }
  - { offset: 0x923A1, size: 0x8, addend: 0x0, symName: __ZN3std12backtrace_rs9symbolize5gimli5macho11find_header17h55f69df1f605b83cE, symObjAddr: 0x4D8B0, symBinAddr: 0x1000454A8, symSize: 0x1D4 }
  - { offset: 0x923C0, size: 0x8, addend: 0x0, symName: __ZN3std12backtrace_rs9symbolize5gimli5macho11find_header17h55f69df1f605b83cE, symObjAddr: 0x4D8B0, symBinAddr: 0x1000454A8, symSize: 0x1D4 }
  - { offset: 0x923D6, size: 0x8, addend: 0x0, symName: __ZN3std12backtrace_rs9symbolize5gimli5macho11find_header17h55f69df1f605b83cE, symObjAddr: 0x4D8B0, symBinAddr: 0x1000454A8, symSize: 0x1D4 }
  - { offset: 0x923EC, size: 0x8, addend: 0x0, symName: __ZN3std12backtrace_rs9symbolize5gimli5macho11find_header17h55f69df1f605b83cE, symObjAddr: 0x4D8B0, symBinAddr: 0x1000454A8, symSize: 0x1D4 }
  - { offset: 0x92401, size: 0x8, addend: 0x0, symName: __ZN3std12backtrace_rs9symbolize5gimli5macho11find_header17h55f69df1f605b83cE, symObjAddr: 0x4D8B0, symBinAddr: 0x1000454A8, symSize: 0x1D4 }
  - { offset: 0x92416, size: 0x8, addend: 0x0, symName: __ZN3std12backtrace_rs9symbolize5gimli5macho11find_header17h55f69df1f605b83cE, symObjAddr: 0x4D8B0, symBinAddr: 0x1000454A8, symSize: 0x1D4 }
  - { offset: 0x9242B, size: 0x8, addend: 0x0, symName: __ZN3std12backtrace_rs9symbolize5gimli5macho11find_header17h55f69df1f605b83cE, symObjAddr: 0x4D8B0, symBinAddr: 0x1000454A8, symSize: 0x1D4 }
  - { offset: 0x92B62, size: 0x8, addend: 0x0, symName: __ZN3std12backtrace_rs9symbolize5gimli4mmap17h887dd2c3e0662184E, symObjAddr: 0x4AF34, symBinAddr: 0x100042B44, symSize: 0x174 }
  - { offset: 0x93200, size: 0x8, addend: 0x0, symName: __ZN3std12backtrace_rs9symbolize5gimli7resolve17h64427fc4373c0585E, symObjAddr: 0x4B0A8, symBinAddr: 0x100042CB8, symSize: 0x27F0 }
  - { offset: 0x98F4A, size: 0x8, addend: 0x0, symName: __ZN3std12backtrace_rs9symbolize6Symbol4name17he61211ceb05526e3E, symObjAddr: 0x3C9D8, symBinAddr: 0x10003B308, symSize: 0xE4 }
  - { offset: 0x99081, size: 0x8, addend: 0x0, symName: '__ZN79_$LT$std..backtrace_rs..symbolize..SymbolName$u20$as$u20$core..fmt..Display$GT$3fmt17h4c4c1b4de2e31d53E', symObjAddr: 0x3CBF4, symBinAddr: 0x10003B3EC, symSize: 0x100 }
  - { offset: 0x991AA, size: 0x8, addend: 0x0, symName: __ZN3std12backtrace_rs9backtrace9libunwind5trace8trace_fn17h78394d9ee4ccceffE, symObjAddr: 0x48B70, symBinAddr: 0x100040780, symSize: 0x48 }
  - { offset: 0x9927B, size: 0x8, addend: 0x0, symName: __ZN3std12backtrace_rs5print17BacktraceFrameFmt21print_raw_with_column17h834ed90aab55fe6fE, symObjAddr: 0x3CDF4, symBinAddr: 0x10003B4EC, symSize: 0x304 }
  - { offset: 0x9939E, size: 0x8, addend: 0x0, symName: __ZN3std12backtrace_rs5print17BacktraceFrameFmt14print_fileline17h4f1f1a459d4f9b31E, symObjAddr: 0x3D0F8, symBinAddr: 0x10003B7F0, symSize: 0x198 }
  - { offset: 0x99562, size: 0x8, addend: 0x0, symName: __ZN3std6thread7current12init_current17h772b2ceaca17750fE, symObjAddr: 0x1F8C0, symBinAddr: 0x100057678, symSize: 0x164 }
  - { offset: 0x998BF, size: 0x8, addend: 0x0, symName: __ZN3std6thread6Thread3new17h61d7fe27c37d738eE, symObjAddr: 0x207B0, symBinAddr: 0x100034BD8, symSize: 0x158 }
  - { offset: 0x99CE0, size: 0x8, addend: 0x0, symName: '__ZN68_$LT$std..thread..local..AccessError$u20$as$u20$core..fmt..Debug$GT$3fmt17h2be09ec9b7553c28E', symObjAddr: 0x20034, symBinAddr: 0x100034A90, symSize: 0x38 }
  - { offset: 0x99CFB, size: 0x8, addend: 0x0, symName: __ZN3std6thread5local18panic_access_error17h274fbdd9d3672a4bE, symObjAddr: 0x20080, symBinAddr: 0x1000577DC, symSize: 0x44 }
  - { offset: 0x99D36, size: 0x8, addend: 0x0, symName: __ZN3std6thread8ThreadId3new9exhausted17hc87ba1ebc9ec3293E, symObjAddr: 0x20668, symBinAddr: 0x100057820, symSize: 0x38 }
  - { offset: 0x99D73, size: 0x8, addend: 0x0, symName: '__ZN118_$LT$std..thread..thread_name_string..ThreadNameString$u20$as$u20$core..convert..From$LT$alloc..string..String$GT$$GT$4from17h451023573f089af3E', symObjAddr: 0x206A0, symBinAddr: 0x100034AC8, symSize: 0x110 }
  - { offset: 0x99F9E, size: 0x8, addend: 0x0, symName: __ZN3std2rt15handle_rt_panic17h541ba1db327ed283E, symObjAddr: 0x1EE7C, symBinAddr: 0x100057634, symSize: 0x44 }
  - { offset: 0x9A02E, size: 0x8, addend: 0x0, symName: __ZN3std2rt19lang_start_internal17h9c67c334770c9206E, symObjAddr: 0x1EF24, symBinAddr: 0x1000343F8, symSize: 0x698 }
  - { offset: 0x9AC0E, size: 0x8, addend: 0x0, symName: __ZN3std5panic19get_backtrace_style17h39e90e609eb8b5abE, symObjAddr: 0x317C4, symBinAddr: 0x100037760, symSize: 0x11C }
  - { offset: 0x9AC2C, size: 0x8, addend: 0x0, symName: __ZN3std5panic19get_backtrace_style17h39e90e609eb8b5abE, symObjAddr: 0x317C4, symBinAddr: 0x100037760, symSize: 0x11C }
  - { offset: 0x9AC41, size: 0x8, addend: 0x0, symName: __ZN3std5panic19get_backtrace_style17h39e90e609eb8b5abE, symObjAddr: 0x317C4, symBinAddr: 0x100037760, symSize: 0x11C }
  - { offset: 0x9B0A5, size: 0x8, addend: 0x0, symName: __ZN3std3env11current_dir17hcf122f2a803df77cE, symObjAddr: 0x21AB8, symBinAddr: 0x100034D30, symSize: 0x1A0 }
  - { offset: 0x9B471, size: 0x8, addend: 0x0, symName: __ZN3std3env7vars_os17h5da3b85263f16da8E, symObjAddr: 0x21C5C, symBinAddr: 0x100034ED0, symSize: 0x30C }
  - { offset: 0x9BAB8, size: 0x8, addend: 0x0, symName: __ZN3std3env4_var17h9dd5e1a62477915dE, symObjAddr: 0x22298, symBinAddr: 0x1000351DC, symSize: 0x98 }
  - { offset: 0x9BBB4, size: 0x8, addend: 0x0, symName: __ZN3std3env7_var_os17h2a5365ce2409b350E, symObjAddr: 0x22330, symBinAddr: 0x100035274, symSize: 0x164 }
  - { offset: 0x9BE75, size: 0x8, addend: 0x0, symName: __ZN3std2fs11OpenOptions5_open17h0fbed7ef40f371a5E, symObjAddr: 0x24928, symBinAddr: 0x100035504, symSize: 0x250 }
  - { offset: 0x9C032, size: 0x8, addend: 0x0, symName: '__ZN48_$LT$std..fs..File$u20$as$u20$std..io..Write$GT$5write17h7c5cf3ac105aa910E', symObjAddr: 0x24474, symBinAddr: 0x1000354AC, symSize: 0x58 }
  - { offset: 0x9C14F, size: 0x8, addend: 0x0, symName: '__ZN75_$LT$std..fs..ReadDir$u20$as$u20$core..iter..traits..iterator..Iterator$GT$4next17h60ea7641501e923cE', symObjAddr: 0x24F5C, symBinAddr: 0x100035754, symSize: 0x18C }
  - { offset: 0x9C438, size: 0x8, addend: 0x0, symName: __ZN3std5alloc24default_alloc_error_hook17hbb2afb0af5835e8dE, symObjAddr: 0x3B0F8, symBinAddr: 0x10003A0A8, symSize: 0x140 }
  - { offset: 0x9C67B, size: 0x8, addend: 0x0, symName: __RNvCs73fAdSrgOJL_7___rustc11___rdl_alloc, symObjAddr: 0x3B238, symBinAddr: 0x10003A1E8, symSize: 0x6C }
  - { offset: 0x9C701, size: 0x8, addend: 0x0, symName: __RNvCs73fAdSrgOJL_7___rustc13___rdl_dealloc, symObjAddr: 0x3B2A4, symBinAddr: 0x10003A254, symSize: 0x4 }
  - { offset: 0x9C721, size: 0x8, addend: 0x0, symName: __RNvCs73fAdSrgOJL_7___rustc13___rdl_dealloc, symObjAddr: 0x3B2A4, symBinAddr: 0x10003A254, symSize: 0x4 }
  - { offset: 0x9C735, size: 0x8, addend: 0x0, symName: __RNvCs73fAdSrgOJL_7___rustc13___rdl_realloc, symObjAddr: 0x3B2A8, symBinAddr: 0x10003A258, symSize: 0xB0 }
  - { offset: 0x9C813, size: 0x8, addend: 0x0, symName: __RNvCs73fAdSrgOJL_7___rustc18___rdl_alloc_zeroed, symObjAddr: 0x3B358, symBinAddr: 0x10003A308, symSize: 0x90 }
  - { offset: 0x9C8BF, size: 0x8, addend: 0x0, symName: __ZN3std5alloc8rust_oom17hdb6eb131aa920ad3E, symObjAddr: 0x48A7C, symBinAddr: 0x100058380, symSize: 0x2C }
  - { offset: 0x9C90E, size: 0x8, addend: 0x0, symName: __RNvCs73fAdSrgOJL_7___rustc8___rg_oom, symObjAddr: 0x48AA8, symBinAddr: 0x1000583AC, symSize: 0x18 }
  - { offset: 0x9C97E, size: 0x8, addend: 0x0, symName: '__ZN9addr2line8function17Function$LT$R$GT$14parse_children17hf3df585ce7ac8262E', symObjAddr: 0x1DE2C, symBinAddr: 0x1000333B4, symSize: 0xE84 }
  - { offset: 0x9E1F9, size: 0x8, addend: 0x0, symName: __ZN9addr2line8function10name_entry17hfdced0c758d2a567E, symObjAddr: 0x1DAC0, symBinAddr: 0x100033048, symSize: 0x36C }
  - { offset: 0x9E6BB, size: 0x8, addend: 0x0, symName: __ZN9addr2line8function9name_attr17h1ce69a4ce3ba7e89E, symObjAddr: 0x1ECB0, symBinAddr: 0x100034238, symSize: 0x1C0 }
  - { offset: 0x9E8DF, size: 0x8, addend: 0x0, symName: __ZN9addr2line4line11render_file17h41488bb5a6979477E, symObjAddr: 0x1C890, symBinAddr: 0x100031E18, symSize: 0x4B0 }
  - { offset: 0x9F23E, size: 0x8, addend: 0x0, symName: '__ZN9addr2line4unit16ResUnit$LT$R$GT$25find_function_or_location17h3697563f577d8d9fE', symObjAddr: 0x1CD40, symBinAddr: 0x1000322C8, symSize: 0x378 }
  - { offset: 0x9F712, size: 0x8, addend: 0x0, symName: '__ZN9addr2line4unit16ResUnit$LT$R$GT$25find_function_or_location28_$u7b$$u7b$closure$u7d$$u7d$17h0d725353a137efa6E', symObjAddr: 0x1D0B8, symBinAddr: 0x100032640, symSize: 0x30C }
  - { offset: 0x9FAB7, size: 0x8, addend: 0x0, symName: '__ZN9addr2line16Context$LT$R$GT$9find_unit17hfe70ee874184feb7E', symObjAddr: 0x1C734, symBinAddr: 0x100031CBC, symSize: 0x15C }
  - { offset: 0x9FC66, size: 0x8, addend: 0x0, symName: '__ZN9addr2line6lookup30LoopingLookup$LT$T$C$L$C$F$GT$10new_lookup17h479f29027e320fd2E', symObjAddr: 0x1D684, symBinAddr: 0x100032C0C, symSize: 0x43C }
  - { offset: 0xA0142, size: 0x8, addend: 0x0, symName: '__ZN9addr2line5frame18FrameIter$LT$R$GT$4next17hab4653c465939ee8E', symObjAddr: 0x1D3C4, symBinAddr: 0x10003294C, symSize: 0x2C0 }
  - { offset: 0xA085F, size: 0x8, addend: 0x0, symName: '__ZN5gimli4read4unit18Attribute$LT$R$GT$5value17hf92c28dec7922b31E', symObjAddr: 0x174B8, symBinAddr: 0x10002CF38, symSize: 0x598 }
  - { offset: 0xA0C78, size: 0x8, addend: 0x0, symName: '__ZN90_$LT$gimli..read..unit..AttributeValue$LT$R$C$Offset$GT$$u20$as$u20$core..clone..Clone$GT$5clone17hcb6071538b682662E', symObjAddr: 0x1C614, symBinAddr: 0x100031C54, symSize: 0x68 }
  - { offset: 0xA0CD8, size: 0x8, addend: 0x0, symName: '__ZN5gimli4read4unit32AttributeValue$LT$R$C$Offset$GT$11udata_value17hb0fbf782d56f4d3fE', symObjAddr: 0x17D08, symBinAddr: 0x10002D788, symSize: 0x84 }
  - { offset: 0xA0D33, size: 0x8, addend: 0x0, symName: __ZN5gimli4read4unit15parse_attribute17h04e99a6e8528e9b0E, symObjAddr: 0x16008, symBinAddr: 0x10002BA88, symSize: 0xF74 }
  - { offset: 0xA38F2, size: 0x8, addend: 0x0, symName: __ZN5gimli4read4unit15skip_attributes17h34aae5d204503f89E, symObjAddr: 0x16F7C, symBinAddr: 0x10002C9FC, symSize: 0x53C }
  - { offset: 0xA42DC, size: 0x8, addend: 0x0, symName: '__ZN5gimli4read4unit22EntriesCursor$LT$R$GT$10next_entry17hdbe6c325dc93b25aE', symObjAddr: 0x17A50, symBinAddr: 0x10002D4D0, symSize: 0x2B8 }
  - { offset: 0xA48A0, size: 0x8, addend: 0x0, symName: '__ZN5gimli4read4unit33DebugInfoUnitHeadersIter$LT$R$GT$4next17ha7bc19eef22d5132E', symObjAddr: 0x17D8C, symBinAddr: 0x10002D80C, symSize: 0x518 }
  - { offset: 0xA59EA, size: 0x8, addend: 0x0, symName: '__ZN5gimli4read5dwarf13Unit$LT$R$GT$3new17h686262bf18a65175E', symObjAddr: 0x182A4, symBinAddr: 0x10002DD24, symSize: 0x1C84 }
  - { offset: 0xA9143, size: 0x8, addend: 0x0, symName: '__ZN5gimli4read5dwarf14Dwarf$LT$R$GT$11attr_string17h1e958f109b0daeb0E', symObjAddr: 0x19F28, symBinAddr: 0x10002F9A8, symSize: 0x220 }
  - { offset: 0xA9B2F, size: 0x8, addend: 0x0, symName: __ZN5gimli4read6reader6Reader11read_offset17hfc4380759744d0ccE, symObjAddr: 0x1A808, symBinAddr: 0x100030288, symSize: 0xB4 }
  - { offset: 0xA9D4E, size: 0x8, addend: 0x0, symName: __ZN5gimli4read6reader6Reader12read_sleb12817h1bb18c7db89a5c45E, symObjAddr: 0x1A8BC, symBinAddr: 0x10003033C, symSize: 0x23C }
  - { offset: 0xA9E2A, size: 0x8, addend: 0x0, symName: __ZN5gimli4read6reader6Reader12read_uleb12817he2bb007cca6a74e8E, symObjAddr: 0x1AAF8, symBinAddr: 0x100030578, symSize: 0xB8 }
  - { offset: 0xA9ED1, size: 0x8, addend: 0x0, symName: __ZN5gimli4read6reader6Reader17read_sized_offset17h350128ac40d4d88bE, symObjAddr: 0x1ABB0, symBinAddr: 0x100030630, symSize: 0x10C }
  - { offset: 0xAA63D, size: 0x8, addend: 0x0, symName: '__ZN5gimli4read4line27FileEntry$LT$R$C$Offset$GT$5parse17he72fe970b5aeb997E', symObjAddr: 0x15DEC, symBinAddr: 0x10002B86C, symSize: 0x21C }
  - { offset: 0xAA894, size: 0x8, addend: 0x0, symName: __ZN5gimli4read4line13parse_file_v517h17de60bb2846bd30E, symObjAddr: 0x14E6C, symBinAddr: 0x10002A8EC, symSize: 0x2B4 }
  - { offset: 0xAAA0C, size: 0x8, addend: 0x0, symName: __ZN5gimli4read4line15FileEntryFormat5parse17h5b94835e6d431828E, symObjAddr: 0x15120, symBinAddr: 0x10002ABA0, symSize: 0x370 }
  - { offset: 0xAB1DF, size: 0x8, addend: 0x0, symName: __ZN5gimli4read4line15parse_attribute17h44b66ac1f1fd4d70E, symObjAddr: 0x15490, symBinAddr: 0x10002AF10, symSize: 0x874 }
  - { offset: 0xAC999, size: 0x8, addend: 0x0, symName: __ZN5gimli4read4line18parse_directory_v517hc1cf6537e0e6b55eE, symObjAddr: 0x15D04, symBinAddr: 0x10002B784, symSize: 0xE8 }
  - { offset: 0xACB24, size: 0x8, addend: 0x0, symName: '__ZN5gimli4read8rnglists20RngListIter$LT$R$GT$4next17h3cf0be4737bd2bfbE', symObjAddr: 0x1AF64, symBinAddr: 0x1000309E4, symSize: 0xC70 }
  - { offset: 0xAF46F, size: 0x8, addend: 0x0, symName: '__ZN5gimli4read5index18UnitIndex$LT$R$GT$5parse17hb6f2329c704ae441E', symObjAddr: 0x1A148, symBinAddr: 0x10002FBC8, symSize: 0x6C0 }
  - { offset: 0xAF9E3, size: 0x8, addend: 0x0, symName: '__ZN5gimli4read7aranges30ArangeHeader$LT$R$C$Offset$GT$5parse17ha7ab83fde3103809E', symObjAddr: 0x1ACBC, symBinAddr: 0x10003073C, symSize: 0x2A8 }
  - { offset: 0xB06A0, size: 0x8, addend: 0x0, symName: __ZN6object4read7archive13ArchiveMember5parse17h529fa28f4fec8200E, symObjAddr: 0x1C00C, symBinAddr: 0x1000316B0, symSize: 0x304 }
  - { offset: 0xB06BE, size: 0x8, addend: 0x0, symName: __ZN6object4read7archive13ArchiveMember5parse17h529fa28f4fec8200E, symObjAddr: 0x1C00C, symBinAddr: 0x1000316B0, symSize: 0x304 }
  - { offset: 0xB06D3, size: 0x8, addend: 0x0, symName: __ZN6object4read7archive13ArchiveMember5parse17h529fa28f4fec8200E, symObjAddr: 0x1C00C, symBinAddr: 0x1000316B0, symSize: 0x304 }
  - { offset: 0xB0ECD, size: 0x8, addend: 0x0, symName: __ZN6object4read7archive23parse_bsd_extended_name17ha21d7e6d1cf5441dE, symObjAddr: 0x1C310, symBinAddr: 0x1000319B4, symSize: 0x260 }
  - { offset: 0xB1D14, size: 0x8, addend: 0x0, symName: _OUTLINED_FUNCTION_0, symObjAddr: 0x4E800, symBinAddr: 0x1000463F8, symSize: 0x8 }
  - { offset: 0xB1D2C, size: 0x8, addend: 0x0, symName: _OUTLINED_FUNCTION_1, symObjAddr: 0x4E808, symBinAddr: 0x100046400, symSize: 0xC }
  - { offset: 0xB1D44, size: 0x8, addend: 0x0, symName: _OUTLINED_FUNCTION_2, symObjAddr: 0x4E814, symBinAddr: 0x10004640C, symSize: 0xC }
  - { offset: 0xB1D5C, size: 0x8, addend: 0x0, symName: _OUTLINED_FUNCTION_3, symObjAddr: 0x4E820, symBinAddr: 0x100046418, symSize: 0xC }
  - { offset: 0xB1D74, size: 0x8, addend: 0x0, symName: _OUTLINED_FUNCTION_4, symObjAddr: 0x4E82C, symBinAddr: 0x100046424, symSize: 0xC }
  - { offset: 0xB1D8C, size: 0x8, addend: 0x0, symName: _OUTLINED_FUNCTION_5, symObjAddr: 0x4E838, symBinAddr: 0x100046430, symSize: 0x8 }
  - { offset: 0xB1DA4, size: 0x8, addend: 0x0, symName: _OUTLINED_FUNCTION_6, symObjAddr: 0x4E840, symBinAddr: 0x100046438, symSize: 0x24 }
  - { offset: 0xB1DBC, size: 0x8, addend: 0x0, symName: _OUTLINED_FUNCTION_7, symObjAddr: 0x4E864, symBinAddr: 0x10004645C, symSize: 0x10 }
  - { offset: 0xB1DD4, size: 0x8, addend: 0x0, symName: _OUTLINED_FUNCTION_8, symObjAddr: 0x4E874, symBinAddr: 0x10004646C, symSize: 0x8 }
  - { offset: 0xB1DEC, size: 0x8, addend: 0x0, symName: _OUTLINED_FUNCTION_9, symObjAddr: 0x4E87C, symBinAddr: 0x100046474, symSize: 0x8 }
  - { offset: 0xB1E04, size: 0x8, addend: 0x0, symName: _OUTLINED_FUNCTION_10, symObjAddr: 0x4E884, symBinAddr: 0x10004647C, symSize: 0x24 }
  - { offset: 0xB1E1C, size: 0x8, addend: 0x0, symName: _OUTLINED_FUNCTION_11, symObjAddr: 0x4E8A8, symBinAddr: 0x1000464A0, symSize: 0x20 }
  - { offset: 0xB1E34, size: 0x8, addend: 0x0, symName: _OUTLINED_FUNCTION_12, symObjAddr: 0x4E8C8, symBinAddr: 0x1000464C0, symSize: 0x8 }
  - { offset: 0xB1E4C, size: 0x8, addend: 0x0, symName: _OUTLINED_FUNCTION_13, symObjAddr: 0x4E8D0, symBinAddr: 0x1000464C8, symSize: 0x8 }
  - { offset: 0xB1E64, size: 0x8, addend: 0x0, symName: _OUTLINED_FUNCTION_14, symObjAddr: 0x4E8D8, symBinAddr: 0x1000464D0, symSize: 0x8 }
  - { offset: 0xB1E7C, size: 0x8, addend: 0x0, symName: _OUTLINED_FUNCTION_15, symObjAddr: 0x4E8E0, symBinAddr: 0x1000464D8, symSize: 0x8 }
  - { offset: 0xB1E94, size: 0x8, addend: 0x0, symName: _OUTLINED_FUNCTION_16, symObjAddr: 0x4E8E8, symBinAddr: 0x1000464E0, symSize: 0x8 }
  - { offset: 0xB1EAC, size: 0x8, addend: 0x0, symName: _OUTLINED_FUNCTION_17, symObjAddr: 0x4E8F0, symBinAddr: 0x1000464E8, symSize: 0x10 }
  - { offset: 0xB1EC4, size: 0x8, addend: 0x0, symName: _OUTLINED_FUNCTION_18, symObjAddr: 0x4E900, symBinAddr: 0x1000464F8, symSize: 0x10 }
  - { offset: 0xB1EDC, size: 0x8, addend: 0x0, symName: _OUTLINED_FUNCTION_19, symObjAddr: 0x4E910, symBinAddr: 0x100046508, symSize: 0x10 }
  - { offset: 0xB1EF4, size: 0x8, addend: 0x0, symName: _OUTLINED_FUNCTION_20, symObjAddr: 0x4E920, symBinAddr: 0x100046518, symSize: 0x10 }
  - { offset: 0xB1F0C, size: 0x8, addend: 0x0, symName: _OUTLINED_FUNCTION_21, symObjAddr: 0x4E930, symBinAddr: 0x100046528, symSize: 0xC }
  - { offset: 0xB1F24, size: 0x8, addend: 0x0, symName: _OUTLINED_FUNCTION_22, symObjAddr: 0x4E93C, symBinAddr: 0x100046534, symSize: 0x18 }
  - { offset: 0xB1F3C, size: 0x8, addend: 0x0, symName: _OUTLINED_FUNCTION_23, symObjAddr: 0x4E954, symBinAddr: 0x10004654C, symSize: 0x8 }
  - { offset: 0xB1F54, size: 0x8, addend: 0x0, symName: _OUTLINED_FUNCTION_24, symObjAddr: 0x4E95C, symBinAddr: 0x100046554, symSize: 0xC }
  - { offset: 0xB1F6C, size: 0x8, addend: 0x0, symName: _OUTLINED_FUNCTION_25, symObjAddr: 0x4E968, symBinAddr: 0x100046560, symSize: 0xC }
  - { offset: 0xB1F84, size: 0x8, addend: 0x0, symName: _OUTLINED_FUNCTION_26, symObjAddr: 0x4E974, symBinAddr: 0x10004656C, symSize: 0x8 }
  - { offset: 0xB1F9C, size: 0x8, addend: 0x0, symName: _OUTLINED_FUNCTION_27, symObjAddr: 0x4E97C, symBinAddr: 0x100046574, symSize: 0x8 }
  - { offset: 0xB1FB4, size: 0x8, addend: 0x0, symName: _OUTLINED_FUNCTION_28, symObjAddr: 0x4E984, symBinAddr: 0x10004657C, symSize: 0xC }
  - { offset: 0xB1FCC, size: 0x8, addend: 0x0, symName: _OUTLINED_FUNCTION_29, symObjAddr: 0x4E990, symBinAddr: 0x100046588, symSize: 0xC }
  - { offset: 0xB1FE4, size: 0x8, addend: 0x0, symName: _OUTLINED_FUNCTION_30, symObjAddr: 0x4E99C, symBinAddr: 0x100046594, symSize: 0xC }
  - { offset: 0xB1FFC, size: 0x8, addend: 0x0, symName: _OUTLINED_FUNCTION_31, symObjAddr: 0x4E9A8, symBinAddr: 0x1000465A0, symSize: 0x8 }
  - { offset: 0xB2014, size: 0x8, addend: 0x0, symName: _OUTLINED_FUNCTION_32, symObjAddr: 0x4E9B0, symBinAddr: 0x1000465A8, symSize: 0x10 }
  - { offset: 0xB202C, size: 0x8, addend: 0x0, symName: _OUTLINED_FUNCTION_33, symObjAddr: 0x4E9C0, symBinAddr: 0x1000465B8, symSize: 0x14 }
  - { offset: 0xB2044, size: 0x8, addend: 0x0, symName: _OUTLINED_FUNCTION_34, symObjAddr: 0x4E9D4, symBinAddr: 0x1000465CC, symSize: 0x14 }
  - { offset: 0xB205C, size: 0x8, addend: 0x0, symName: _OUTLINED_FUNCTION_35, symObjAddr: 0x4E9E8, symBinAddr: 0x1000465E0, symSize: 0x14 }
  - { offset: 0xB2074, size: 0x8, addend: 0x0, symName: _OUTLINED_FUNCTION_36, symObjAddr: 0x4E9FC, symBinAddr: 0x1000465F4, symSize: 0x14 }
  - { offset: 0xB20AA, size: 0x8, addend: 0x0, symName: '__ZN4core3ptr49drop_in_place$LT$panic_unwind..imp..Exception$GT$17h527397a192ffb8f1E', symObjAddr: 0x0, symBinAddr: 0x100046608, symSize: 0x78 }
  - { offset: 0xB20D0, size: 0x8, addend: 0x0, symName: '__ZN4core3ptr49drop_in_place$LT$panic_unwind..imp..Exception$GT$17h527397a192ffb8f1E', symObjAddr: 0x0, symBinAddr: 0x100046608, symSize: 0x78 }
  - { offset: 0xB21D7, size: 0x8, addend: 0x0, symName: '__ZN4core3ptr74drop_in_place$LT$alloc..boxed..Box$LT$panic_unwind..imp..Exception$GT$$GT$17ha4260977db93ebb9E', symObjAddr: 0x78, symBinAddr: 0x100046680, symSize: 0x8C }
  - { offset: 0xB249F, size: 0x8, addend: 0x0, symName: __ZN12panic_unwind3imp5panic17exception_cleanup17h2bbea2a6f8ecfebbE, symObjAddr: 0x20C, symBinAddr: 0x100046814, symSize: 0x18 }
  - { offset: 0xB24BB, size: 0x8, addend: 0x0, symName: __RNvCs73fAdSrgOJL_7___rustc20___rust_panic_cleanup, symObjAddr: 0x104, symBinAddr: 0x10004670C, symSize: 0x68 }
  - { offset: 0xB2561, size: 0x8, addend: 0x0, symName: __RNvCs73fAdSrgOJL_7___rustc18___rust_start_panic, symObjAddr: 0x16C, symBinAddr: 0x100046774, symSize: 0xA0 }
  - { offset: 0xB2646, size: 0x8, addend: 0x0, symName: __ZN9hashbrown3raw11Fallibility17capacity_overflow17h6b39415fd83358b6E, symObjAddr: 0xB4, symBinAddr: 0x10004E0AC, symSize: 0x44 }
  - { offset: 0xB2675, size: 0x8, addend: 0x0, symName: __ZN9hashbrown3raw11Fallibility9alloc_err17h6fbe89112e915fefE, symObjAddr: 0xF8, symBinAddr: 0x10004E0F0, symSize: 0x24 }
  - { offset: 0xB26E6, size: 0x8, addend: 0x0, symName: __ZN4core3fmt5Write9write_fmt17hc140709df235180dE, symObjAddr: 0x94, symBinAddr: 0x10004E114, symSize: 0x10 }
  - { offset: 0xB2728, size: 0x8, addend: 0x0, symName: '__ZN53_$LT$core..fmt..Error$u20$as$u20$core..fmt..Debug$GT$3fmt17haea4712e43834251E', symObjAddr: 0x3A4, symBinAddr: 0x10004E13C, symSize: 0x14 }
  - { offset: 0xB27AE, size: 0x8, addend: 0x0, symName: '__ZN4core3ptr42drop_in_place$LT$alloc..string..String$GT$17h263ff4f12d214cf2E', symObjAddr: 0xBC, symBinAddr: 0x10004E124, symSize: 0x18 }
  - { offset: 0xB2AB1, size: 0x8, addend: 0x0, symName: '__ZN69_$LT$core..alloc..layout..LayoutError$u20$as$u20$core..fmt..Debug$GT$3fmt17h13fbca3ca3dd174dE', symObjAddr: 0x3B8, symBinAddr: 0x10004E150, symSize: 0x14 }
  - { offset: 0xB2DE3, size: 0x8, addend: 0x0, symName: __ZN5alloc7raw_vec17capacity_overflow17hd8f87080832cecbdE, symObjAddr: 0x3CC, symBinAddr: 0x100058470, symSize: 0x34 }
  - { offset: 0xB2E2A, size: 0x8, addend: 0x0, symName: '__ZN5alloc7raw_vec20RawVecInner$LT$A$GT$7reserve21do_reserve_and_handle17h4dd33506b8348a9cE', symObjAddr: 0x4A0, symBinAddr: 0x1000584A4, symSize: 0xB0 }
  - { offset: 0xB2F2C, size: 0x8, addend: 0x0, symName: __ZN5alloc7raw_vec11finish_grow17h38abc94d42a7bc55E, symObjAddr: 0x550, symBinAddr: 0x100058554, symSize: 0x80 }
  - { offset: 0xB2FA2, size: 0x8, addend: 0x0, symName: __ZN5alloc7raw_vec12handle_error17h2ea1403ff25ec75cE, symObjAddr: 0x5D0, symBinAddr: 0x1000585D4, symSize: 0x18 }
  - { offset: 0xB309C, size: 0x8, addend: 0x0, symName: __ZN5alloc5alloc18handle_alloc_error17h18ccdcfeddefd4c6E, symObjAddr: 0x5E8, symBinAddr: 0x1000585EC, symSize: 0x18 }
  - { offset: 0xB3146, size: 0x8, addend: 0x0, symName: __ZN5alloc6string6String15from_utf8_lossy17hbc43f3fc78418a81E, symObjAddr: 0x2E90, symBinAddr: 0x10004E638, symSize: 0x23C }
  - { offset: 0xB368C, size: 0x8, addend: 0x0, symName: '__ZN98_$LT$alloc..string..String$u20$as$u20$core..convert..From$LT$alloc..borrow..Cow$LT$str$GT$$GT$$GT$4from17h4b68af2740d6abffE', symObjAddr: 0x47BC, symBinAddr: 0x10004E874, symSize: 0xB4 }
  - { offset: 0xB37E2, size: 0x8, addend: 0x0, symName: '__ZN58_$LT$alloc..string..String$u20$as$u20$core..fmt..Write$GT$9write_str17hba5566b7261b3df3E', symObjAddr: 0x491C, symBinAddr: 0x10004E928, symSize: 0x78 }
  - { offset: 0xB3935, size: 0x8, addend: 0x0, symName: '__ZN58_$LT$alloc..string..String$u20$as$u20$core..fmt..Write$GT$10write_char17h5afa657ba1086fe6E', symObjAddr: 0x4994, symBinAddr: 0x10004E9A0, symSize: 0x130 }
  - { offset: 0xB3C78, size: 0x8, addend: 0x0, symName: '__ZN93_$LT$alloc..collections..btree..mem..replace..PanicGuard$u20$as$u20$core..ops..drop..Drop$GT$4drop17he91a4622e79b07ddE', symObjAddr: 0xE74, symBinAddr: 0x100058604, symSize: 0x4 }
  - { offset: 0xB3D79, size: 0x8, addend: 0x0, symName: '__ZN72_$LT$$RF$str$u20$as$u20$alloc..ffi..c_str..CString..new..SpecNewImpl$GT$13spec_new_impl17h19bc653579af59a5E', symObjAddr: 0xEF8, symBinAddr: 0x10004E164, symSize: 0x114 }
  - { offset: 0xB3FA5, size: 0x8, addend: 0x0, symName: __ZN5alloc3ffi5c_str7CString19_from_vec_unchecked17h26f80605e3bdda78E, symObjAddr: 0x1150, symBinAddr: 0x10004E278, symSize: 0x160 }
  - { offset: 0xB42CB, size: 0x8, addend: 0x0, symName: __ZN5alloc3ffi5c_str7CString8from_raw17h1a969b5b39f2d46eE, symObjAddr: 0x12B0, symBinAddr: 0x10004E3D8, symSize: 0x28 }
  - { offset: 0xB4300, size: 0x8, addend: 0x0, symName: '__ZN100_$LT$alloc..ffi..c_str..CString$u20$as$u20$core..convert..From$LT$$RF$core..ffi..c_str..CStr$GT$$GT$4from17h793c5ab38e4e723fE', symObjAddr: 0x17CC, symBinAddr: 0x10004E400, symSize: 0x80 }
  - { offset: 0xB440D, size: 0x8, addend: 0x0, symName: __ZN5alloc3fmt6format12format_inner17haed4f2c70b405047E, symObjAddr: 0x1858, symBinAddr: 0x10004E480, symSize: 0x1B8 }
  - { offset: 0xB464C, size: 0x8, addend: 0x0, symName: __ZN5alloc4sync32arcinner_layout_for_value_layout17h8c52c76ed82694fdE, symObjAddr: 0x4C48, symBinAddr: 0x10004EAD0, symSize: 0x74 }
  - { offset: 0xB47AA, size: 0x8, addend: 0x0, symName: __ZN4core3num22from_ascii_radix_panic8do_panic7runtime17h9ec10103f7c0716dE, symObjAddr: 0x17C88, symBinAddr: 0x100058A34, symSize: 0x44 }
  - { offset: 0xB47DD, size: 0x8, addend: 0x0, symName: __ZN4core3num22from_ascii_radix_panic17h8860cac63b800d2bE, symObjAddr: 0x3FD8, symBinAddr: 0x100058608, symSize: 0xC }
  - { offset: 0xB4D7C, size: 0x8, addend: 0x0, symName: __ZN4core5slice5index26slice_start_index_len_fail8do_panic7runtime17h429c9cce17a0ea9bE, symObjAddr: 0x1C14C, symBinAddr: 0x100058B80, symSize: 0x50 }
  - { offset: 0xB4DAF, size: 0x8, addend: 0x0, symName: __ZN4core5slice5index26slice_start_index_len_fail17haf25ebf915d057aaE, symObjAddr: 0xF0BC, symBinAddr: 0x100058A04, symSize: 0xC }
  - { offset: 0xB4DF5, size: 0x8, addend: 0x0, symName: __ZN4core5slice5index24slice_end_index_len_fail8do_panic7runtime17hdec1e0cff231be1dE, symObjAddr: 0x1C19C, symBinAddr: 0x100058BD0, symSize: 0x50 }
  - { offset: 0xB4E28, size: 0x8, addend: 0x0, symName: __ZN4core5slice5index24slice_end_index_len_fail17he89357cd02fca028E, symObjAddr: 0xF0C8, symBinAddr: 0x100058A10, symSize: 0xC }
  - { offset: 0xB4E6E, size: 0x8, addend: 0x0, symName: __ZN4core5slice5index22slice_index_order_fail8do_panic7runtime17h6303e3dc084ed840E, symObjAddr: 0x1C1EC, symBinAddr: 0x100058C20, symSize: 0x50 }
  - { offset: 0xB4EA1, size: 0x8, addend: 0x0, symName: __ZN4core5slice5index22slice_index_order_fail17he9c8f4194031cd00E, symObjAddr: 0xF0D4, symBinAddr: 0x100058A1C, symSize: 0xC }
  - { offset: 0xB51FA, size: 0x8, addend: 0x0, symName: __ZN4core5slice6memchr14memchr_aligned17hb906e7bc9e85c06eE, symObjAddr: 0xEA94, symBinAddr: 0x100050E80, symSize: 0xDC }
  - { offset: 0xB52D6, size: 0x8, addend: 0x0, symName: __ZN4core5slice6memchr7memrchr17h7ceb156575b1a919E, symObjAddr: 0xEB70, symBinAddr: 0x100050F5C, symSize: 0x120 }
  - { offset: 0xB542F, size: 0x8, addend: 0x0, symName: __ZN4core5slice4sort6stable5drift11sqrt_approx17hd32bbcccc9c319c0E, symObjAddr: 0xEC90, symBinAddr: 0x10005107C, symSize: 0x2C }
  - { offset: 0xB54AC, size: 0x8, addend: 0x0, symName: __ZN4core5slice4sort6shared9smallsort22panic_on_ord_violation17h87378ecb72803b59E, symObjAddr: 0xECBC, symBinAddr: 0x1000589CC, symSize: 0x38 }
  - { offset: 0xB562F, size: 0x8, addend: 0x0, symName: '__ZN42_$LT$str$u20$as$u20$core..fmt..Display$GT$3fmt17h42462a8471c7143dE', symObjAddr: 0xE768, symBinAddr: 0x100050C18, symSize: 0x14 }
  - { offset: 0xB57EB, size: 0x8, addend: 0x0, symName: __ZN4core3fmt9Formatter12pad_integral17heb070ef6e4499464E, symObjAddr: 0xC07C, symBinAddr: 0x10004FB60, symSize: 0x3B4 }
  - { offset: 0xB5AEC, size: 0x8, addend: 0x0, symName: __ZN4core3fmt9Formatter3pad17h299da9dcc544e21cE, symObjAddr: 0xC4AC, symBinAddr: 0x10004FF90, symSize: 0x304 }
  - { offset: 0xB5E4C, size: 0x8, addend: 0x0, symName: __ZN4core3fmt9Formatter9write_str17hd9a1b7644989a9c8E, symObjAddr: 0xCC04, symBinAddr: 0x100050294, symSize: 0x10 }
  - { offset: 0xB5E60, size: 0x8, addend: 0x0, symName: __ZN4core3fmt9Formatter12debug_struct17hf7643d0658ff94cfE, symObjAddr: 0xCC20, symBinAddr: 0x1000502A4, symSize: 0x3C }
  - { offset: 0xB5E9F, size: 0x8, addend: 0x0, symName: __ZN4core3fmt9Formatter26debug_struct_field1_finish17h3d8cc21df86d1f08E, symObjAddr: 0xCC5C, symBinAddr: 0x1000502E0, symSize: 0xD0 }
  - { offset: 0xB5F76, size: 0x8, addend: 0x0, symName: __ZN4core3fmt9Formatter26debug_struct_field2_finish17h32b4f697403bec40E, symObjAddr: 0xCD2C, symBinAddr: 0x1000503B0, symSize: 0x104 }
  - { offset: 0xB604D, size: 0x8, addend: 0x0, symName: __ZN4core3fmt9Formatter11debug_tuple17h3a3ca798bd11b2bcE, symObjAddr: 0xD340, symBinAddr: 0x1000504B4, symSize: 0x50 }
  - { offset: 0xB60A2, size: 0x8, addend: 0x0, symName: __ZN4core3fmt9Formatter25debug_tuple_field1_finish17h293fabc56e30d0f7E, symObjAddr: 0xD390, symBinAddr: 0x100050504, symSize: 0x160 }
  - { offset: 0xB62A4, size: 0x8, addend: 0x0, symName: __ZN4core3fmt9Formatter25debug_tuple_field2_finish17h0773e66da7fec5dcE, symObjAddr: 0xD4F0, symBinAddr: 0x100050664, symSize: 0x1D8 }
  - { offset: 0xB659C, size: 0x8, addend: 0x0, symName: __ZN4core3fmt9Formatter10debug_list17hb567e092460f51e4E, symObjAddr: 0xE2A4, symBinAddr: 0x10005083C, symSize: 0x48 }
  - { offset: 0xB6644, size: 0x8, addend: 0x0, symName: __ZN4core3fmt8builders11DebugStruct5field17hcf92289f4867f5e5E, symObjAddr: 0x8288, symBinAddr: 0x10004F39C, symSize: 0x1B4 }
  - { offset: 0xB6843, size: 0x8, addend: 0x0, symName: __ZN4core3fmt8builders11DebugStruct6finish17h21c87724d91d861aE, symObjAddr: 0x8500, symBinAddr: 0x10004F550, symSize: 0x80 }
  - { offset: 0xB6944, size: 0x8, addend: 0x0, symName: '__ZN68_$LT$core..fmt..builders..PadAdapter$u20$as$u20$core..fmt..Write$GT$9write_str17hc0cf6ed124d300b4E', symObjAddr: 0x7FB0, symBinAddr: 0x10004F0C4, symSize: 0x258 }
  - { offset: 0xB6BC4, size: 0x8, addend: 0x0, symName: '__ZN68_$LT$core..fmt..builders..PadAdapter$u20$as$u20$core..fmt..Write$GT$10write_char17h9657826e049c4398E', symObjAddr: 0x8208, symBinAddr: 0x10004F31C, symSize: 0x80 }
  - { offset: 0xB6C49, size: 0x8, addend: 0x0, symName: __ZN4core3fmt8builders10DebugTuple5field17he743b1e43a659b47E, symObjAddr: 0x8580, symBinAddr: 0x10004F5D0, symSize: 0x148 }
  - { offset: 0xB6DD5, size: 0x8, addend: 0x0, symName: __ZN4core3fmt8builders10DebugTuple6finish17h39fdb22d98cc1346E, symObjAddr: 0x8788, symBinAddr: 0x10004F718, symSize: 0xB0 }
  - { offset: 0xB6F24, size: 0x8, addend: 0x0, symName: __ZN4core3fmt8builders8DebugSet5entry17h99c874a0178a5542E, symObjAddr: 0x8838, symBinAddr: 0x10004F7C8, symSize: 0x148 }
  - { offset: 0xB70C9, size: 0x8, addend: 0x0, symName: __ZN4core3fmt8builders9DebugList6finish17hd378c2ebba87d08dE, symObjAddr: 0x8B58, symBinAddr: 0x10004F910, symSize: 0x4C }
  - { offset: 0xB7299, size: 0x8, addend: 0x0, symName: '__ZN4core3fmt3num53_$LT$impl$u20$core..fmt..LowerHex$u20$for$u20$i32$GT$3fmt17h6e850657c74d9d25E', symObjAddr: 0x19818, symBinAddr: 0x1000531D4, symSize: 0x80 }
  - { offset: 0xB7341, size: 0x8, addend: 0x0, symName: '__ZN4core3fmt3num53_$LT$impl$u20$core..fmt..UpperHex$u20$for$u20$i32$GT$3fmt17h997afd280f6b29c7E', symObjAddr: 0x19898, symBinAddr: 0x100053254, symSize: 0x80 }
  - { offset: 0xB73E9, size: 0x8, addend: 0x0, symName: '__ZN4core3fmt3num53_$LT$impl$u20$core..fmt..LowerHex$u20$for$u20$i64$GT$3fmt17hbe7c020a02da664cE', symObjAddr: 0x199F8, symBinAddr: 0x1000532D4, symSize: 0x80 }
  - { offset: 0xB7491, size: 0x8, addend: 0x0, symName: '__ZN4core3fmt3num53_$LT$impl$u20$core..fmt..UpperHex$u20$for$u20$i64$GT$3fmt17h740b27e908318385E', symObjAddr: 0x19A78, symBinAddr: 0x100053354, symSize: 0x80 }
  - { offset: 0xB752C, size: 0x8, addend: 0x0, symName: '__ZN4core3fmt3num52_$LT$impl$u20$core..fmt..LowerHex$u20$for$u20$i8$GT$3fmt17h4b4be5c7ea7962d0E', symObjAddr: 0x19458, symBinAddr: 0x1000530D4, symSize: 0x80 }
  - { offset: 0xB75DB, size: 0x8, addend: 0x0, symName: '__ZN4core3fmt3num52_$LT$impl$u20$core..fmt..UpperHex$u20$for$u20$i8$GT$3fmt17h05fab38eb12d6eccE', symObjAddr: 0x194D8, symBinAddr: 0x100053154, symSize: 0x80 }
  - { offset: 0xB76AF, size: 0x8, addend: 0x0, symName: '__ZN4core3fmt3num3imp51_$LT$impl$u20$core..fmt..Display$u20$for$u20$u8$GT$3fmt17h6b187241d8419cbfE', symObjAddr: 0x1A470, symBinAddr: 0x1000533D4, symSize: 0xB0 }
  - { offset: 0xB7773, size: 0x8, addend: 0x0, symName: '__ZN4core3fmt3num3imp52_$LT$impl$u20$core..fmt..Display$u20$for$u20$u32$GT$3fmt17hdad8bbb1fd1b667aE', symObjAddr: 0x1A984, symBinAddr: 0x100053484, symSize: 0x130 }
  - { offset: 0xB784C, size: 0x8, addend: 0x0, symName: '__ZN4core3fmt3num3imp52_$LT$impl$u20$core..fmt..Display$u20$for$u20$i32$GT$3fmt17hf57747113c1e0663E', symObjAddr: 0x1AAB4, symBinAddr: 0x1000535B4, symSize: 0x13C }
  - { offset: 0xB794A, size: 0x8, addend: 0x0, symName: '__ZN4core3fmt3num3imp52_$LT$impl$u20$core..fmt..Display$u20$for$u20$u64$GT$3fmt17ha8fcf0d52ed54e0fE', symObjAddr: 0x1ACF8, symBinAddr: 0x1000536F0, symSize: 0x13C }
  - { offset: 0xB7AA3, size: 0x8, addend: 0x0, symName: '__ZN57_$LT$core..fmt..Formatter$u20$as$u20$core..fmt..Write$GT$10write_char17h6d68564ee698b1edE', symObjAddr: 0xE38C, symBinAddr: 0x100050884, symSize: 0x10 }
  - { offset: 0xB7AD6, size: 0x8, addend: 0x0, symName: __ZN4core3fmt5Write9write_fmt17h9614ff1edc252aa5E, symObjAddr: 0xBE40, symBinAddr: 0x10004F95C, symSize: 0x10 }
  - { offset: 0xB7B19, size: 0x8, addend: 0x0, symName: '__ZN59_$LT$core..fmt..Arguments$u20$as$u20$core..fmt..Display$GT$3fmt17h3a775e5eedaf7738E', symObjAddr: 0xBE88, symBinAddr: 0x10004F96C, symSize: 0xC }
  - { offset: 0xB7B7D, size: 0x8, addend: 0x0, symName: __ZN4core3fmt5write17h2c4a0b98b09e3b30E, symObjAddr: 0xBE94, symBinAddr: 0x10004F978, symSize: 0x1E8 }
  - { offset: 0xB7D5C, size: 0x8, addend: 0x0, symName: __ZN4core3fmt9Formatter12pad_integral12write_prefix17hc2a717568d4daf91E, symObjAddr: 0xC430, symBinAddr: 0x10004FF14, symSize: 0x7C }
  - { offset: 0xB7DA2, size: 0x8, addend: 0x0, symName: '__ZN42_$LT$$RF$T$u20$as$u20$core..fmt..Debug$GT$3fmt17h6e4f67bb97a98f3cE', symObjAddr: 0x1BFA8, symBinAddr: 0x10005382C, symSize: 0xE0 }
  - { offset: 0xB7EC0, size: 0x8, addend: 0x0, symName: '__ZN42_$LT$$RF$T$u20$as$u20$core..fmt..Debug$GT$3fmt17hfbab3261e141b19fE', symObjAddr: 0x1C090, symBinAddr: 0x10005390C, symSize: 0x10 }
  - { offset: 0xB7EFC, size: 0x8, addend: 0x0, symName: '__ZN40_$LT$str$u20$as$u20$core..fmt..Debug$GT$3fmt17h6bb0dde775cede54E', symObjAddr: 0xE3E4, symBinAddr: 0x100050894, symSize: 0x384 }
  - { offset: 0xB8301, size: 0x8, addend: 0x0, symName: '__ZN41_$LT$char$u20$as$u20$core..fmt..Debug$GT$3fmt17h5b77a63018c31381E', symObjAddr: 0xE77C, symBinAddr: 0x100050C2C, symSize: 0xA8 }
  - { offset: 0xB840B, size: 0x8, addend: 0x0, symName: '__ZN43_$LT$char$u20$as$u20$core..fmt..Display$GT$3fmt17hccc7cc18179c4872E', symObjAddr: 0xE824, symBinAddr: 0x100050CD4, symSize: 0xEC }
  - { offset: 0xB848A, size: 0x8, addend: 0x0, symName: __ZN4core3fmt17pointer_fmt_inner17h454be370dc368025E, symObjAddr: 0xE910, symBinAddr: 0x100050DC0, symSize: 0xC0 }
  - { offset: 0xB8572, size: 0x8, addend: 0x0, symName: '__ZN44_$LT$$RF$T$u20$as$u20$core..fmt..Display$GT$3fmt17hbbf5e2ca3c54582bE', symObjAddr: 0x1C0B0, symBinAddr: 0x10005391C, symSize: 0x10 }
  - { offset: 0xB86A4, size: 0x8, addend: 0x0, symName: __ZN4core6option13unwrap_failed17h1f788aa856a0b42eE, symObjAddr: 0x7830, symBinAddr: 0x100058658, symSize: 0x1C }
  - { offset: 0xB86BF, size: 0x8, addend: 0x0, symName: __ZN4core6option13expect_failed17h89af471ff13548f9E, symObjAddr: 0x784C, symBinAddr: 0x100058674, symSize: 0x48 }
  - { offset: 0xB8717, size: 0x8, addend: 0x0, symName: '__ZN71_$LT$core..ops..range..Range$LT$Idx$GT$$u20$as$u20$core..fmt..Debug$GT$3fmt17h658e9a2f8f4bbb48E', symObjAddr: 0x414C, symBinAddr: 0x10004EB44, symSize: 0x1F8 }
  - { offset: 0xB8B94, size: 0x8, addend: 0x0, symName: __ZN4core6result13unwrap_failed17h7f68c62f4ec5b70eE, symObjAddr: 0x7EFC, symBinAddr: 0x100058970, symSize: 0x5C }
  - { offset: 0xB8DEE, size: 0x8, addend: 0x0, symName: __ZN4core3str5count14do_count_chars17hd2a57b08be8d1b70E, symObjAddr: 0xF77C, symBinAddr: 0x10005131C, symSize: 0x718 }
  - { offset: 0xB913F, size: 0x8, addend: 0x0, symName: __ZN4core3str5count23char_count_general_case17h0d6812726d9a8e15E, symObjAddr: 0xFE94, symBinAddr: 0x100051A34, symSize: 0x2A8 }
  - { offset: 0xB91EC, size: 0x8, addend: 0x0, symName: __ZN4core3str8converts9from_utf817h7b78634a00291fadE, symObjAddr: 0xF294, symBinAddr: 0x1000510A8, symSize: 0x274 }
  - { offset: 0xB9209, size: 0x8, addend: 0x0, symName: __ZN4core3str8converts9from_utf817h7b78634a00291fadE, symObjAddr: 0xF294, symBinAddr: 0x1000510A8, symSize: 0x274 }
  - { offset: 0xB92F7, size: 0x8, addend: 0x0, symName: __ZN4core3str7pattern11StrSearcher3new17hd95460b09bffc181E, symObjAddr: 0x1087C, symBinAddr: 0x100051CDC, symSize: 0x8BC }
  - { offset: 0xB964E, size: 0x8, addend: 0x0, symName: '__ZN60_$LT$core..str..lossy..Debug$u20$as$u20$core..fmt..Debug$GT$3fmt17h61e9a8e340b24faaE', symObjAddr: 0x11138, symBinAddr: 0x100052598, symSize: 0x364 }
  - { offset: 0xB9964, size: 0x8, addend: 0x0, symName: '__ZN87_$LT$core..str..lossy..Utf8Chunks$u20$as$u20$core..iter..traits..iterator..Iterator$GT$4next17h454b21b309792e7dE', symObjAddr: 0x1149C, symBinAddr: 0x1000528FC, symSize: 0x1C0 }
  - { offset: 0xB9B68, size: 0x8, addend: 0x0, symName: __ZN4core3str16slice_error_fail17h061e87b9dfc55aadE, symObjAddr: 0x11728, symBinAddr: 0x100058A28, symSize: 0xC }
  - { offset: 0xB9B82, size: 0x8, addend: 0x0, symName: __ZN4core3str19slice_error_fail_rt17h7e572c53c14a04e8E, symObjAddr: 0x11768, symBinAddr: 0x100052ABC, symSize: 0x344 }
  - { offset: 0xB9DAA, size: 0x8, addend: 0x0, symName: '__ZN4core4char7methods22_$LT$impl$u20$char$GT$16escape_debug_ext17h530e3c57cef50f83E', symObjAddr: 0x4EEC, symBinAddr: 0x10004ED50, symSize: 0x284 }
  - { offset: 0xB9FE8, size: 0x8, addend: 0x0, symName: __ZN4core4char7methods15encode_utf8_raw8do_panic7runtime17he7bfa606ee446088E, symObjAddr: 0x17D20, symBinAddr: 0x100058A78, symSize: 0x6C }
  - { offset: 0xBA0AF, size: 0x8, addend: 0x0, symName: '__ZN65_$LT$core..cell..BorrowMutError$u20$as$u20$core..fmt..Display$GT$3fmt17hce6430c2316144b4E', symObjAddr: 0x4DB8, symBinAddr: 0x10004ED3C, symSize: 0x14 }
  - { offset: 0xBA0E1, size: 0x8, addend: 0x0, symName: __ZN4core4cell22panic_already_borrowed17h0d36ae2fc2f0ba17E, symObjAddr: 0x4DCC, symBinAddr: 0x100058614, symSize: 0x44 }
  - { offset: 0xBA131, size: 0x8, addend: 0x0, symName: __ZN4core7unicode12unicode_data15grapheme_extend11lookup_slow17hd2a4fb5538b8240dE, symObjAddr: 0x1D5B0, symBinAddr: 0x100053944, symSize: 0x108 }
  - { offset: 0xBA2F6, size: 0x8, addend: 0x0, symName: __ZN4core7unicode12unicode_data2cc6lookup17h1698536727c00c0fE, symObjAddr: 0x1D598, symBinAddr: 0x10005392C, symSize: 0x18 }
  - { offset: 0xBA314, size: 0x8, addend: 0x0, symName: __ZN4core7unicode12unicode_data2cc6lookup17h1698536727c00c0fE, symObjAddr: 0x1D598, symBinAddr: 0x10005392C, symSize: 0x18 }
  - { offset: 0xBA348, size: 0x8, addend: 0x0, symName: __ZN4core7unicode9printable12is_printable17h484639cf451143c4E, symObjAddr: 0x12484, symBinAddr: 0x100052E00, symSize: 0x2B4 }
  - { offset: 0xBA65A, size: 0x8, addend: 0x0, symName: __ZN4core3ffi5c_str4CStr19from_bytes_with_nul17h3a2ee221267d5c22E, symObjAddr: 0x5480, symBinAddr: 0x10004EFD4, symSize: 0xF0 }
  - { offset: 0xBA678, size: 0x8, addend: 0x0, symName: __ZN4core3ffi5c_str4CStr19from_bytes_with_nul17h3a2ee221267d5c22E, symObjAddr: 0x5480, symBinAddr: 0x10004EFD4, symSize: 0xF0 }
  - { offset: 0xBA747, size: 0x8, addend: 0x0, symName: __ZN4core9panicking9panic_fmt17h3505bfbec5a0b799E, symObjAddr: 0x7AA4, symBinAddr: 0x1000586BC, symSize: 0x20 }
  - { offset: 0xBA78A, size: 0x8, addend: 0x0, symName: __ZN4core9panicking18panic_nounwind_fmt17h9dceef42c0a45ea6E, symObjAddr: 0x7AC4, symBinAddr: 0x1000586DC, symSize: 0x3C }
  - { offset: 0xBA7CF, size: 0x8, addend: 0x0, symName: __ZN4core9panicking5panic17he76e9111fdaa2ca0E, symObjAddr: 0x7B00, symBinAddr: 0x100058718, symSize: 0x34 }
  - { offset: 0xBA7FE, size: 0x8, addend: 0x0, symName: __ZN4core9panicking14panic_nounwind17h9f7565b148aca0eaE, symObjAddr: 0x7B34, symBinAddr: 0x10005874C, symSize: 0x3C }
  - { offset: 0xBA82D, size: 0x8, addend: 0x0, symName: __ZN4core9panicking26panic_nounwind_nobacktrace17h12b19155b129e9d4E, symObjAddr: 0x7B70, symBinAddr: 0x100058788, symSize: 0x3C }
  - { offset: 0xBA85C, size: 0x8, addend: 0x0, symName: __ZN4core9panicking18panic_bounds_check17he97faa96f3a18922E, symObjAddr: 0x7BF4, symBinAddr: 0x1000587C4, symSize: 0x50 }
  - { offset: 0xBA88E, size: 0x8, addend: 0x0, symName: __ZN4core9panicking19panic_cannot_unwind17hf7c38fa209f60374E, symObjAddr: 0x7CD4, symBinAddr: 0x100058814, symSize: 0x18 }
  - { offset: 0xBA8A9, size: 0x8, addend: 0x0, symName: __ZN4core9panicking16panic_in_cleanup17hdc9dae2f5fec47e4E, symObjAddr: 0x7CEC, symBinAddr: 0x10005882C, symSize: 0x18 }
  - { offset: 0xBA8C4, size: 0x8, addend: 0x0, symName: __ZN4core9panicking13assert_failed17h0019f4c0f6063c60E, symObjAddr: 0x7D68, symBinAddr: 0x100058844, symSize: 0x24 }
  - { offset: 0xBA8DF, size: 0x8, addend: 0x0, symName: __ZN4core9panicking13assert_failed17h748d75638d28cdb2E, symObjAddr: 0x7D8C, symBinAddr: 0x100058868, symSize: 0x24 }
  - { offset: 0xBA8FA, size: 0x8, addend: 0x0, symName: __ZN4core9panicking19assert_failed_inner17hcd9fdaaa091321f9E, symObjAddr: 0x7DC4, symBinAddr: 0x10005888C, symSize: 0xE4 }
  - { offset: 0xBA947, size: 0x8, addend: 0x0, symName: __ZN4core9panicking11panic_const24panic_const_add_overflow17h742455be0b74543cE, symObjAddr: 0x18160, symBinAddr: 0x100058AE4, symSize: 0x34 }
  - { offset: 0xBA976, size: 0x8, addend: 0x0, symName: __ZN4core9panicking11panic_const23panic_const_div_by_zero17h31f967ea86996136E, symObjAddr: 0x18300, symBinAddr: 0x100058B18, symSize: 0x34 }
  - { offset: 0xBA9A5, size: 0x8, addend: 0x0, symName: __ZN4core9panicking11panic_const23panic_const_rem_by_zero17ha1e16486c02437ccE, symObjAddr: 0x18334, symBinAddr: 0x100058B4C, symSize: 0x34 }
  - { offset: 0xBAA11, size: 0x8, addend: 0x0, symName: __ZN4core5alloc6layout6Layout19is_size_align_valid17h9081c126d538f17aE, symObjAddr: 0x129D4, symBinAddr: 0x1000530B4, symSize: 0x20 }
  - { offset: 0xBAA2E, size: 0x8, addend: 0x0, symName: __ZN4core5alloc6layout6Layout19is_size_align_valid17h9081c126d538f17aE, symObjAddr: 0x129D4, symBinAddr: 0x1000530B4, symSize: 0x20 }
  - { offset: 0xBAA58, size: 0x8, addend: 0x0, symName: _OUTLINED_FUNCTION_0, symObjAddr: 0x1DCF4, symBinAddr: 0x100053A4C, symSize: 0x10 }
...
