---
triple:          'arm64-apple-darwin'
binary-path:     '/Users/tyler/fall25/cse380/final_project/final_project_sqlite/target/debug/build/nix-32f4ad56bae4340d/build_script_build-32f4ad56bae4340d'
relocations:
  - { offset: 0x1E, size: 0x8, addend: 0x0, symName: __RINvYINtNtNtCsaNl6UpbT7bw_4core3str4iter5SplitReENtNtNtNtBa_4iter6traits8iterator8Iterator4findNCNvCs1bGpNmcICWC_18build_script_build4main0EB1z_, symObjAddr: 0x0, symBinAddr: 0x100000BF0, symSize: 0x84 }
  - { offset: 0x200, size: 0x8, addend: 0x0, symName: __RINvYINtNtNtCsaNl6UpbT7bw_4core3str4iter5SplitReENtNtNtNtBa_4iter6traits8iterator8Iterator4findNCNvCs1bGpNmcICWC_18build_script_build4main0EB1z_, symObjAddr: 0x0, symBinAddr: 0x100000BF0, symSize: 0x84 }
  - { offset: 0x27B, size: 0x8, addend: 0x0, symName: __RINvYINtNtNtCsaNl6UpbT7bw_4core3str4iter5SplitReENtNtNtNtBa_4iter6traits8iterator8Iterator4findNCNvCs1bGpNmcICWC_18build_script_build4mains0_0EB1z_, symObjAddr: 0x84, symBinAddr: 0x100000C74, symSize: 0x84 }
  - { offset: 0x2F6, size: 0x8, addend: 0x0, symName: __RINvYINtNtNtCsaNl6UpbT7bw_4core3str4iter5SplitReENtNtNtNtBa_4iter6traits8iterator8Iterator4findNCNvCs1bGpNmcICWC_18build_script_build4mains1_0EB1z_, symObjAddr: 0x108, symBinAddr: 0x100000CF8, symSize: 0x84 }
  - { offset: 0x371, size: 0x8, addend: 0x0, symName: __RINvYINtNtNtCsaNl6UpbT7bw_4core3str4iter5SplitReENtNtNtNtBa_4iter6traits8iterator8Iterator4findNCNvCs1bGpNmcICWC_18build_script_build4mains2_0EB1z_, symObjAddr: 0x18C, symBinAddr: 0x100000D7C, symSize: 0x84 }
  - { offset: 0x3EC, size: 0x8, addend: 0x0, symName: __RINvYINtNtNtCsaNl6UpbT7bw_4core3str4iter5SplitReENtNtNtNtBa_4iter6traits8iterator8Iterator4findNCNvCs1bGpNmcICWC_18build_script_build4mains3_0EB1z_, symObjAddr: 0x210, symBinAddr: 0x100000E00, symSize: 0x84 }
  - { offset: 0x467, size: 0x8, addend: 0x0, symName: __RINvYINtNtNtCsaNl6UpbT7bw_4core3str4iter5SplitReENtNtNtNtBa_4iter6traits8iterator8Iterator4findNCNvCs1bGpNmcICWC_18build_script_build4mains4_0EB1z_, symObjAddr: 0x294, symBinAddr: 0x100000E84, symSize: 0x84 }
  - { offset: 0x4E2, size: 0x8, addend: 0x0, symName: __RINvYINtNtNtCsaNl6UpbT7bw_4core3str4iter5SplitReENtNtNtNtBa_4iter6traits8iterator8Iterator4findNCNvCs1bGpNmcICWC_18build_script_build4mains5_0EB1z_, symObjAddr: 0x318, symBinAddr: 0x100000F08, symSize: 0x84 }
  - { offset: 0x55D, size: 0x8, addend: 0x0, symName: __RINvYINtNtNtCsaNl6UpbT7bw_4core3str4iter5SplitReENtNtNtNtBa_4iter6traits8iterator8Iterator4findNCNvCs1bGpNmcICWC_18build_script_build4mains6_0EB1z_, symObjAddr: 0x39C, symBinAddr: 0x100000F8C, symSize: 0x84 }
  - { offset: 0x5D8, size: 0x8, addend: 0x0, symName: __RINvYINtNtNtCsaNl6UpbT7bw_4core3str4iter5SplitReENtNtNtNtBa_4iter6traits8iterator8Iterator4findNCNvCs1bGpNmcICWC_18build_script_build4mains7_0EB1z_, symObjAddr: 0x420, symBinAddr: 0x100001010, symSize: 0x84 }
  - { offset: 0x653, size: 0x8, addend: 0x0, symName: __RINvYINtNtNtCsaNl6UpbT7bw_4core3str4iter5SplitReENtNtNtNtBa_4iter6traits8iterator8Iterator4findNCNvCs1bGpNmcICWC_18build_script_build4mains8_0EB1z_, symObjAddr: 0x4A4, symBinAddr: 0x100001094, symSize: 0x84 }
  - { offset: 0x6CE, size: 0x8, addend: 0x0, symName: __RINvYINtNtNtCsaNl6UpbT7bw_4core3str4iter5SplitReENtNtNtNtBa_4iter6traits8iterator8Iterator4findNCNvCs1bGpNmcICWC_18build_script_build4mains9_0EB1z_, symObjAddr: 0x528, symBinAddr: 0x100001118, symSize: 0x84 }
  - { offset: 0x749, size: 0x8, addend: 0x0, symName: __RINvYINtNtNtCsaNl6UpbT7bw_4core3str4iter5SplitReENtNtNtNtBa_4iter6traits8iterator8Iterator4findNCNvCs1bGpNmcICWC_18build_script_build4mainsA_0EB1z_, symObjAddr: 0x5AC, symBinAddr: 0x10000119C, symSize: 0x84 }
  - { offset: 0x7C4, size: 0x8, addend: 0x0, symName: __RINvYINtNtNtCsaNl6UpbT7bw_4core3str4iter5SplitReENtNtNtNtBa_4iter6traits8iterator8Iterator4findNCNvCs1bGpNmcICWC_18build_script_build4mains_0EB1z_, symObjAddr: 0x630, symBinAddr: 0x100001220, symSize: 0x84 }
  - { offset: 0x83F, size: 0x8, addend: 0x0, symName: __RINvYINtNtNtCsaNl6UpbT7bw_4core3str4iter5SplitReENtNtNtNtBa_4iter6traits8iterator8Iterator4findNCNvCs1bGpNmcICWC_18build_script_build4mainsa_0EB1z_, symObjAddr: 0x6B4, symBinAddr: 0x1000012A4, symSize: 0x84 }
  - { offset: 0x8BA, size: 0x8, addend: 0x0, symName: __RINvYINtNtNtCsaNl6UpbT7bw_4core3str4iter5SplitReENtNtNtNtBa_4iter6traits8iterator8Iterator4findNCNvCs1bGpNmcICWC_18build_script_build4mainsb_0EB1z_, symObjAddr: 0x738, symBinAddr: 0x100001328, symSize: 0x84 }
  - { offset: 0x935, size: 0x8, addend: 0x0, symName: __RINvYINtNtNtCsaNl6UpbT7bw_4core3str4iter5SplitReENtNtNtNtBa_4iter6traits8iterator8Iterator4findNCNvCs1bGpNmcICWC_18build_script_build4mainsc_0EB1z_, symObjAddr: 0x7BC, symBinAddr: 0x1000013AC, symSize: 0x84 }
  - { offset: 0x9B0, size: 0x8, addend: 0x0, symName: __RINvYINtNtNtCsaNl6UpbT7bw_4core3str4iter5SplitReENtNtNtNtBa_4iter6traits8iterator8Iterator4findNCNvCs1bGpNmcICWC_18build_script_build4mainsd_0EB1z_, symObjAddr: 0x840, symBinAddr: 0x100001430, symSize: 0x84 }
  - { offset: 0xA2B, size: 0x8, addend: 0x0, symName: __RINvYINtNtNtCsaNl6UpbT7bw_4core3str4iter5SplitReENtNtNtNtBa_4iter6traits8iterator8Iterator4findNCNvCs1bGpNmcICWC_18build_script_build4mainse_0EB1z_, symObjAddr: 0x8C4, symBinAddr: 0x1000014B4, symSize: 0x84 }
  - { offset: 0xAA6, size: 0x8, addend: 0x0, symName: __RINvYINtNtNtCsaNl6UpbT7bw_4core3str4iter5SplitReENtNtNtNtBa_4iter6traits8iterator8Iterator4findNCNvCs1bGpNmcICWC_18build_script_build4mainsf_0EB1z_, symObjAddr: 0x948, symBinAddr: 0x100001538, symSize: 0x84 }
  - { offset: 0xB21, size: 0x8, addend: 0x0, symName: __RINvYINtNtNtCsaNl6UpbT7bw_4core3str4iter5SplitReENtNtNtNtBa_4iter6traits8iterator8Iterator4findNCNvCs1bGpNmcICWC_18build_script_build4mainsg_0EB1z_, symObjAddr: 0x9CC, symBinAddr: 0x1000015BC, symSize: 0x84 }
  - { offset: 0xB9C, size: 0x8, addend: 0x0, symName: __RINvYINtNtNtCsaNl6UpbT7bw_4core3str4iter5SplitReENtNtNtNtBa_4iter6traits8iterator8Iterator4findNCNvCs1bGpNmcICWC_18build_script_build4mainsh_0EB1z_, symObjAddr: 0xA50, symBinAddr: 0x100001640, symSize: 0x84 }
  - { offset: 0xC17, size: 0x8, addend: 0x0, symName: __RINvYINtNtNtCsaNl6UpbT7bw_4core3str4iter5SplitReENtNtNtNtBa_4iter6traits8iterator8Iterator4findNCNvCs1bGpNmcICWC_18build_script_build4mainsi_0EB1z_, symObjAddr: 0xAD4, symBinAddr: 0x1000016C4, symSize: 0x84 }
  - { offset: 0xC92, size: 0x8, addend: 0x0, symName: __RINvYINtNtNtCsaNl6UpbT7bw_4core3str4iter5SplitReENtNtNtNtBa_4iter6traits8iterator8Iterator4findNCNvCs1bGpNmcICWC_18build_script_build4mainsj_0EB1z_, symObjAddr: 0xB58, symBinAddr: 0x100001748, symSize: 0x84 }
  - { offset: 0xD0D, size: 0x8, addend: 0x0, symName: __RINvYINtNtNtCsaNl6UpbT7bw_4core3str4iter5SplitReENtNtNtNtBa_4iter6traits8iterator8Iterator4findNCNvCs1bGpNmcICWC_18build_script_build4mainsk_0EB1z_, symObjAddr: 0xBDC, symBinAddr: 0x1000017CC, symSize: 0x84 }
  - { offset: 0xD88, size: 0x8, addend: 0x0, symName: __RINvYINtNtNtCsaNl6UpbT7bw_4core3str4iter5SplitReENtNtNtNtBa_4iter6traits8iterator8Iterator4findNCNvCs1bGpNmcICWC_18build_script_build4mainsl_0EB1z_, symObjAddr: 0xC60, symBinAddr: 0x100001850, symSize: 0x84 }
  - { offset: 0xE03, size: 0x8, addend: 0x0, symName: __RINvYINtNtNtCsaNl6UpbT7bw_4core3str4iter5SplitReENtNtNtNtBa_4iter6traits8iterator8Iterator4findNCNvCs1bGpNmcICWC_18build_script_build4mainsm_0EB1z_, symObjAddr: 0xCE4, symBinAddr: 0x1000018D4, symSize: 0x84 }
  - { offset: 0xE7E, size: 0x8, addend: 0x0, symName: __RINvYINtNtNtCsaNl6UpbT7bw_4core3str4iter5SplitReENtNtNtNtBa_4iter6traits8iterator8Iterator4findNCNvCs1bGpNmcICWC_18build_script_build4mainsn_0EB1z_, symObjAddr: 0xD68, symBinAddr: 0x100001958, symSize: 0x84 }
  - { offset: 0xEF9, size: 0x8, addend: 0x0, symName: __RINvYINtNtNtCsaNl6UpbT7bw_4core3str4iter5SplitReENtNtNtNtBa_4iter6traits8iterator8Iterator4findNCNvCs1bGpNmcICWC_18build_script_build4mainso_0EB1z_, symObjAddr: 0xDEC, symBinAddr: 0x1000019DC, symSize: 0x84 }
  - { offset: 0xF74, size: 0x8, addend: 0x0, symName: __RINvYINtNtNtCsaNl6UpbT7bw_4core3str4iter5SplitReENtNtNtNtBa_4iter6traits8iterator8Iterator4findNCNvCs1bGpNmcICWC_18build_script_build4mainsp_0EB1z_, symObjAddr: 0xE70, symBinAddr: 0x100001A60, symSize: 0x84 }
  - { offset: 0xFEF, size: 0x8, addend: 0x0, symName: __RINvYINtNtNtCsaNl6UpbT7bw_4core3str4iter5SplitReENtNtNtNtBa_4iter6traits8iterator8Iterator4findNCNvCs1bGpNmcICWC_18build_script_build4mainsq_0EB1z_, symObjAddr: 0xEF4, symBinAddr: 0x100001AE4, symSize: 0x84 }
  - { offset: 0x106A, size: 0x8, addend: 0x0, symName: __RINvYINtNtNtCsaNl6UpbT7bw_4core3str4iter5SplitReENtNtNtNtBa_4iter6traits8iterator8Iterator4findNCNvCs1bGpNmcICWC_18build_script_build4mainsr_0EB1z_, symObjAddr: 0xF78, symBinAddr: 0x100001B68, symSize: 0x84 }
  - { offset: 0x10E5, size: 0x8, addend: 0x0, symName: __RINvYINtNtNtCsaNl6UpbT7bw_4core3str4iter5SplitReENtNtNtNtBa_4iter6traits8iterator8Iterator4findNCNvCs1bGpNmcICWC_18build_script_build4mainss_0EB1z_, symObjAddr: 0xFFC, symBinAddr: 0x100001BEC, symSize: 0x84 }
  - { offset: 0x1160, size: 0x8, addend: 0x0, symName: __RINvYINtNtNtCsaNl6UpbT7bw_4core3str4iter5SplitReENtNtNtNtBa_4iter6traits8iterator8Iterator4findNCNvCs1bGpNmcICWC_18build_script_build4mainst_0EB1z_, symObjAddr: 0x1080, symBinAddr: 0x100001C70, symSize: 0x84 }
  - { offset: 0x11DB, size: 0x8, addend: 0x0, symName: __RINvYINtNtNtCsaNl6UpbT7bw_4core3str4iter5SplitReENtNtNtNtBa_4iter6traits8iterator8Iterator4findNCNvCs1bGpNmcICWC_18build_script_build4mainsu_0EB1z_, symObjAddr: 0x1104, symBinAddr: 0x100001CF4, symSize: 0x84 }
  - { offset: 0x1256, size: 0x8, addend: 0x0, symName: __RINvYINtNtNtCsaNl6UpbT7bw_4core3str4iter5SplitReENtNtNtNtBa_4iter6traits8iterator8Iterator4findNCNvCs1bGpNmcICWC_18build_script_build4mainsv_0EB1z_, symObjAddr: 0x1188, symBinAddr: 0x100001D78, symSize: 0x84 }
  - { offset: 0x12D1, size: 0x8, addend: 0x0, symName: __RINvYINtNtNtCsaNl6UpbT7bw_4core3str4iter5SplitReENtNtNtNtBa_4iter6traits8iterator8Iterator4findNCNvCs1bGpNmcICWC_18build_script_build4mainsw_0EB1z_, symObjAddr: 0x120C, symBinAddr: 0x100001DFC, symSize: 0x84 }
  - { offset: 0x134C, size: 0x8, addend: 0x0, symName: __RINvYINtNtNtCsaNl6UpbT7bw_4core3str4iter5SplitReENtNtNtNtBa_4iter6traits8iterator8Iterator4findNCNvCs1bGpNmcICWC_18build_script_build4mainsx_0EB1z_, symObjAddr: 0x1290, symBinAddr: 0x100001E80, symSize: 0x84 }
  - { offset: 0x13C7, size: 0x8, addend: 0x0, symName: __RINvYINtNtNtCsaNl6UpbT7bw_4core3str4iter5SplitReENtNtNtNtBa_4iter6traits8iterator8Iterator4findNCNvCs1bGpNmcICWC_18build_script_build4mainsy_0EB1z_, symObjAddr: 0x1314, symBinAddr: 0x100001F04, symSize: 0x84 }
  - { offset: 0x1442, size: 0x8, addend: 0x0, symName: __RINvYINtNtNtCsaNl6UpbT7bw_4core3str4iter5SplitReENtNtNtNtBa_4iter6traits8iterator8Iterator4findNCNvCs1bGpNmcICWC_18build_script_build4mainsz_0EB1z_, symObjAddr: 0x1398, symBinAddr: 0x100001F88, symSize: 0x84 }
  - { offset: 0x14BD, size: 0x8, addend: 0x0, symName: __RINvYINtNtNtCsaNl6UpbT7bw_4core3str4iter5SplitReENtNtNtNtBa_4iter6traits8iterator8Iterator8try_folduNCINvNvBL_4find5checkBI_NCNvCs1bGpNmcICWC_18build_script_build4main0E0INtNtNtBa_3ops12control_flow11ControlFlowBI_EEB22_, symObjAddr: 0x141C, symBinAddr: 0x10000200C, symSize: 0x190 }
  - { offset: 0x1573, size: 0x8, addend: 0x0, symName: __RINvYINtNtNtCsaNl6UpbT7bw_4core3str4iter5SplitReENtNtNtNtBa_4iter6traits8iterator8Iterator8try_folduNCINvNvBL_4find5checkBI_NCNvCs1bGpNmcICWC_18build_script_build4mains0_0E0INtNtNtBa_3ops12control_flow11ControlFlowBI_EEB22_, symObjAddr: 0x15AC, symBinAddr: 0x10000219C, symSize: 0x190 }
  - { offset: 0x1629, size: 0x8, addend: 0x0, symName: __RINvYINtNtNtCsaNl6UpbT7bw_4core3str4iter5SplitReENtNtNtNtBa_4iter6traits8iterator8Iterator8try_folduNCINvNvBL_4find5checkBI_NCNvCs1bGpNmcICWC_18build_script_build4mains1_0E0INtNtNtBa_3ops12control_flow11ControlFlowBI_EEB22_, symObjAddr: 0x173C, symBinAddr: 0x10000232C, symSize: 0x190 }
  - { offset: 0x16DF, size: 0x8, addend: 0x0, symName: __RINvYINtNtNtCsaNl6UpbT7bw_4core3str4iter5SplitReENtNtNtNtBa_4iter6traits8iterator8Iterator8try_folduNCINvNvBL_4find5checkBI_NCNvCs1bGpNmcICWC_18build_script_build4mains2_0E0INtNtNtBa_3ops12control_flow11ControlFlowBI_EEB22_, symObjAddr: 0x18CC, symBinAddr: 0x1000024BC, symSize: 0x190 }
  - { offset: 0x1795, size: 0x8, addend: 0x0, symName: __RINvYINtNtNtCsaNl6UpbT7bw_4core3str4iter5SplitReENtNtNtNtBa_4iter6traits8iterator8Iterator8try_folduNCINvNvBL_4find5checkBI_NCNvCs1bGpNmcICWC_18build_script_build4mains3_0E0INtNtNtBa_3ops12control_flow11ControlFlowBI_EEB22_, symObjAddr: 0x1A5C, symBinAddr: 0x10000264C, symSize: 0x190 }
  - { offset: 0x184B, size: 0x8, addend: 0x0, symName: __RINvYINtNtNtCsaNl6UpbT7bw_4core3str4iter5SplitReENtNtNtNtBa_4iter6traits8iterator8Iterator8try_folduNCINvNvBL_4find5checkBI_NCNvCs1bGpNmcICWC_18build_script_build4mains4_0E0INtNtNtBa_3ops12control_flow11ControlFlowBI_EEB22_, symObjAddr: 0x1BEC, symBinAddr: 0x1000027DC, symSize: 0x190 }
  - { offset: 0x1901, size: 0x8, addend: 0x0, symName: __RINvYINtNtNtCsaNl6UpbT7bw_4core3str4iter5SplitReENtNtNtNtBa_4iter6traits8iterator8Iterator8try_folduNCINvNvBL_4find5checkBI_NCNvCs1bGpNmcICWC_18build_script_build4mains5_0E0INtNtNtBa_3ops12control_flow11ControlFlowBI_EEB22_, symObjAddr: 0x1D7C, symBinAddr: 0x10000296C, symSize: 0x190 }
  - { offset: 0x19B7, size: 0x8, addend: 0x0, symName: __RINvYINtNtNtCsaNl6UpbT7bw_4core3str4iter5SplitReENtNtNtNtBa_4iter6traits8iterator8Iterator8try_folduNCINvNvBL_4find5checkBI_NCNvCs1bGpNmcICWC_18build_script_build4mains6_0E0INtNtNtBa_3ops12control_flow11ControlFlowBI_EEB22_, symObjAddr: 0x1F0C, symBinAddr: 0x100002AFC, symSize: 0x190 }
  - { offset: 0x1A6D, size: 0x8, addend: 0x0, symName: __RINvYINtNtNtCsaNl6UpbT7bw_4core3str4iter5SplitReENtNtNtNtBa_4iter6traits8iterator8Iterator8try_folduNCINvNvBL_4find5checkBI_NCNvCs1bGpNmcICWC_18build_script_build4mains7_0E0INtNtNtBa_3ops12control_flow11ControlFlowBI_EEB22_, symObjAddr: 0x209C, symBinAddr: 0x100002C8C, symSize: 0x190 }
  - { offset: 0x1B23, size: 0x8, addend: 0x0, symName: __RINvYINtNtNtCsaNl6UpbT7bw_4core3str4iter5SplitReENtNtNtNtBa_4iter6traits8iterator8Iterator8try_folduNCINvNvBL_4find5checkBI_NCNvCs1bGpNmcICWC_18build_script_build4mains8_0E0INtNtNtBa_3ops12control_flow11ControlFlowBI_EEB22_, symObjAddr: 0x222C, symBinAddr: 0x100002E1C, symSize: 0x190 }
  - { offset: 0x1BD9, size: 0x8, addend: 0x0, symName: __RINvYINtNtNtCsaNl6UpbT7bw_4core3str4iter5SplitReENtNtNtNtBa_4iter6traits8iterator8Iterator8try_folduNCINvNvBL_4find5checkBI_NCNvCs1bGpNmcICWC_18build_script_build4mains9_0E0INtNtNtBa_3ops12control_flow11ControlFlowBI_EEB22_, symObjAddr: 0x23BC, symBinAddr: 0x100002FAC, symSize: 0x190 }
  - { offset: 0x1C8F, size: 0x8, addend: 0x0, symName: __RINvYINtNtNtCsaNl6UpbT7bw_4core3str4iter5SplitReENtNtNtNtBa_4iter6traits8iterator8Iterator8try_folduNCINvNvBL_4find5checkBI_NCNvCs1bGpNmcICWC_18build_script_build4mainsA_0E0INtNtNtBa_3ops12control_flow11ControlFlowBI_EEB22_, symObjAddr: 0x254C, symBinAddr: 0x10000313C, symSize: 0x190 }
  - { offset: 0x1D45, size: 0x8, addend: 0x0, symName: __RINvYINtNtNtCsaNl6UpbT7bw_4core3str4iter5SplitReENtNtNtNtBa_4iter6traits8iterator8Iterator8try_folduNCINvNvBL_4find5checkBI_NCNvCs1bGpNmcICWC_18build_script_build4mains_0E0INtNtNtBa_3ops12control_flow11ControlFlowBI_EEB22_, symObjAddr: 0x26DC, symBinAddr: 0x1000032CC, symSize: 0x190 }
  - { offset: 0x1DFB, size: 0x8, addend: 0x0, symName: __RINvYINtNtNtCsaNl6UpbT7bw_4core3str4iter5SplitReENtNtNtNtBa_4iter6traits8iterator8Iterator8try_folduNCINvNvBL_4find5checkBI_NCNvCs1bGpNmcICWC_18build_script_build4mainsa_0E0INtNtNtBa_3ops12control_flow11ControlFlowBI_EEB22_, symObjAddr: 0x286C, symBinAddr: 0x10000345C, symSize: 0x190 }
  - { offset: 0x1EB1, size: 0x8, addend: 0x0, symName: __RINvYINtNtNtCsaNl6UpbT7bw_4core3str4iter5SplitReENtNtNtNtBa_4iter6traits8iterator8Iterator8try_folduNCINvNvBL_4find5checkBI_NCNvCs1bGpNmcICWC_18build_script_build4mainsb_0E0INtNtNtBa_3ops12control_flow11ControlFlowBI_EEB22_, symObjAddr: 0x29FC, symBinAddr: 0x1000035EC, symSize: 0x190 }
  - { offset: 0x1F67, size: 0x8, addend: 0x0, symName: __RINvYINtNtNtCsaNl6UpbT7bw_4core3str4iter5SplitReENtNtNtNtBa_4iter6traits8iterator8Iterator8try_folduNCINvNvBL_4find5checkBI_NCNvCs1bGpNmcICWC_18build_script_build4mainsc_0E0INtNtNtBa_3ops12control_flow11ControlFlowBI_EEB22_, symObjAddr: 0x2B8C, symBinAddr: 0x10000377C, symSize: 0x190 }
  - { offset: 0x201D, size: 0x8, addend: 0x0, symName: __RINvYINtNtNtCsaNl6UpbT7bw_4core3str4iter5SplitReENtNtNtNtBa_4iter6traits8iterator8Iterator8try_folduNCINvNvBL_4find5checkBI_NCNvCs1bGpNmcICWC_18build_script_build4mainsd_0E0INtNtNtBa_3ops12control_flow11ControlFlowBI_EEB22_, symObjAddr: 0x2D1C, symBinAddr: 0x10000390C, symSize: 0x190 }
  - { offset: 0x20D3, size: 0x8, addend: 0x0, symName: __RINvYINtNtNtCsaNl6UpbT7bw_4core3str4iter5SplitReENtNtNtNtBa_4iter6traits8iterator8Iterator8try_folduNCINvNvBL_4find5checkBI_NCNvCs1bGpNmcICWC_18build_script_build4mainse_0E0INtNtNtBa_3ops12control_flow11ControlFlowBI_EEB22_, symObjAddr: 0x2EAC, symBinAddr: 0x100003A9C, symSize: 0x190 }
  - { offset: 0x2189, size: 0x8, addend: 0x0, symName: __RINvYINtNtNtCsaNl6UpbT7bw_4core3str4iter5SplitReENtNtNtNtBa_4iter6traits8iterator8Iterator8try_folduNCINvNvBL_4find5checkBI_NCNvCs1bGpNmcICWC_18build_script_build4mainsf_0E0INtNtNtBa_3ops12control_flow11ControlFlowBI_EEB22_, symObjAddr: 0x303C, symBinAddr: 0x100003C2C, symSize: 0x190 }
  - { offset: 0x223F, size: 0x8, addend: 0x0, symName: __RINvYINtNtNtCsaNl6UpbT7bw_4core3str4iter5SplitReENtNtNtNtBa_4iter6traits8iterator8Iterator8try_folduNCINvNvBL_4find5checkBI_NCNvCs1bGpNmcICWC_18build_script_build4mainsg_0E0INtNtNtBa_3ops12control_flow11ControlFlowBI_EEB22_, symObjAddr: 0x31CC, symBinAddr: 0x100003DBC, symSize: 0x190 }
  - { offset: 0x22F5, size: 0x8, addend: 0x0, symName: __RINvYINtNtNtCsaNl6UpbT7bw_4core3str4iter5SplitReENtNtNtNtBa_4iter6traits8iterator8Iterator8try_folduNCINvNvBL_4find5checkBI_NCNvCs1bGpNmcICWC_18build_script_build4mainsh_0E0INtNtNtBa_3ops12control_flow11ControlFlowBI_EEB22_, symObjAddr: 0x335C, symBinAddr: 0x100003F4C, symSize: 0x190 }
  - { offset: 0x23AB, size: 0x8, addend: 0x0, symName: __RINvYINtNtNtCsaNl6UpbT7bw_4core3str4iter5SplitReENtNtNtNtBa_4iter6traits8iterator8Iterator8try_folduNCINvNvBL_4find5checkBI_NCNvCs1bGpNmcICWC_18build_script_build4mainsi_0E0INtNtNtBa_3ops12control_flow11ControlFlowBI_EEB22_, symObjAddr: 0x34EC, symBinAddr: 0x1000040DC, symSize: 0x190 }
  - { offset: 0x2461, size: 0x8, addend: 0x0, symName: __RINvYINtNtNtCsaNl6UpbT7bw_4core3str4iter5SplitReENtNtNtNtBa_4iter6traits8iterator8Iterator8try_folduNCINvNvBL_4find5checkBI_NCNvCs1bGpNmcICWC_18build_script_build4mainsj_0E0INtNtNtBa_3ops12control_flow11ControlFlowBI_EEB22_, symObjAddr: 0x367C, symBinAddr: 0x10000426C, symSize: 0x190 }
  - { offset: 0x2517, size: 0x8, addend: 0x0, symName: __RINvYINtNtNtCsaNl6UpbT7bw_4core3str4iter5SplitReENtNtNtNtBa_4iter6traits8iterator8Iterator8try_folduNCINvNvBL_4find5checkBI_NCNvCs1bGpNmcICWC_18build_script_build4mainsk_0E0INtNtNtBa_3ops12control_flow11ControlFlowBI_EEB22_, symObjAddr: 0x380C, symBinAddr: 0x1000043FC, symSize: 0x190 }
  - { offset: 0x25CD, size: 0x8, addend: 0x0, symName: __RINvYINtNtNtCsaNl6UpbT7bw_4core3str4iter5SplitReENtNtNtNtBa_4iter6traits8iterator8Iterator8try_folduNCINvNvBL_4find5checkBI_NCNvCs1bGpNmcICWC_18build_script_build4mainsl_0E0INtNtNtBa_3ops12control_flow11ControlFlowBI_EEB22_, symObjAddr: 0x399C, symBinAddr: 0x10000458C, symSize: 0x190 }
  - { offset: 0x2683, size: 0x8, addend: 0x0, symName: __RINvYINtNtNtCsaNl6UpbT7bw_4core3str4iter5SplitReENtNtNtNtBa_4iter6traits8iterator8Iterator8try_folduNCINvNvBL_4find5checkBI_NCNvCs1bGpNmcICWC_18build_script_build4mainsm_0E0INtNtNtBa_3ops12control_flow11ControlFlowBI_EEB22_, symObjAddr: 0x3B2C, symBinAddr: 0x10000471C, symSize: 0x190 }
  - { offset: 0x2739, size: 0x8, addend: 0x0, symName: __RINvYINtNtNtCsaNl6UpbT7bw_4core3str4iter5SplitReENtNtNtNtBa_4iter6traits8iterator8Iterator8try_folduNCINvNvBL_4find5checkBI_NCNvCs1bGpNmcICWC_18build_script_build4mainsn_0E0INtNtNtBa_3ops12control_flow11ControlFlowBI_EEB22_, symObjAddr: 0x3CBC, symBinAddr: 0x1000048AC, symSize: 0x190 }
  - { offset: 0x27EF, size: 0x8, addend: 0x0, symName: __RINvYINtNtNtCsaNl6UpbT7bw_4core3str4iter5SplitReENtNtNtNtBa_4iter6traits8iterator8Iterator8try_folduNCINvNvBL_4find5checkBI_NCNvCs1bGpNmcICWC_18build_script_build4mainso_0E0INtNtNtBa_3ops12control_flow11ControlFlowBI_EEB22_, symObjAddr: 0x3E4C, symBinAddr: 0x100004A3C, symSize: 0x190 }
  - { offset: 0x28A5, size: 0x8, addend: 0x0, symName: __RINvYINtNtNtCsaNl6UpbT7bw_4core3str4iter5SplitReENtNtNtNtBa_4iter6traits8iterator8Iterator8try_folduNCINvNvBL_4find5checkBI_NCNvCs1bGpNmcICWC_18build_script_build4mainsp_0E0INtNtNtBa_3ops12control_flow11ControlFlowBI_EEB22_, symObjAddr: 0x3FDC, symBinAddr: 0x100004BCC, symSize: 0x190 }
  - { offset: 0x295B, size: 0x8, addend: 0x0, symName: __RINvYINtNtNtCsaNl6UpbT7bw_4core3str4iter5SplitReENtNtNtNtBa_4iter6traits8iterator8Iterator8try_folduNCINvNvBL_4find5checkBI_NCNvCs1bGpNmcICWC_18build_script_build4mainsq_0E0INtNtNtBa_3ops12control_flow11ControlFlowBI_EEB22_, symObjAddr: 0x416C, symBinAddr: 0x100004D5C, symSize: 0x190 }
  - { offset: 0x2A11, size: 0x8, addend: 0x0, symName: __RINvYINtNtNtCsaNl6UpbT7bw_4core3str4iter5SplitReENtNtNtNtBa_4iter6traits8iterator8Iterator8try_folduNCINvNvBL_4find5checkBI_NCNvCs1bGpNmcICWC_18build_script_build4mainsr_0E0INtNtNtBa_3ops12control_flow11ControlFlowBI_EEB22_, symObjAddr: 0x42FC, symBinAddr: 0x100004EEC, symSize: 0x190 }
  - { offset: 0x2AC7, size: 0x8, addend: 0x0, symName: __RINvYINtNtNtCsaNl6UpbT7bw_4core3str4iter5SplitReENtNtNtNtBa_4iter6traits8iterator8Iterator8try_folduNCINvNvBL_4find5checkBI_NCNvCs1bGpNmcICWC_18build_script_build4mainss_0E0INtNtNtBa_3ops12control_flow11ControlFlowBI_EEB22_, symObjAddr: 0x448C, symBinAddr: 0x10000507C, symSize: 0x190 }
  - { offset: 0x2B7D, size: 0x8, addend: 0x0, symName: __RINvYINtNtNtCsaNl6UpbT7bw_4core3str4iter5SplitReENtNtNtNtBa_4iter6traits8iterator8Iterator8try_folduNCINvNvBL_4find5checkBI_NCNvCs1bGpNmcICWC_18build_script_build4mainst_0E0INtNtNtBa_3ops12control_flow11ControlFlowBI_EEB22_, symObjAddr: 0x461C, symBinAddr: 0x10000520C, symSize: 0x190 }
  - { offset: 0x2C33, size: 0x8, addend: 0x0, symName: __RINvYINtNtNtCsaNl6UpbT7bw_4core3str4iter5SplitReENtNtNtNtBa_4iter6traits8iterator8Iterator8try_folduNCINvNvBL_4find5checkBI_NCNvCs1bGpNmcICWC_18build_script_build4mainsu_0E0INtNtNtBa_3ops12control_flow11ControlFlowBI_EEB22_, symObjAddr: 0x47AC, symBinAddr: 0x10000539C, symSize: 0x190 }
  - { offset: 0x2CE9, size: 0x8, addend: 0x0, symName: __RINvYINtNtNtCsaNl6UpbT7bw_4core3str4iter5SplitReENtNtNtNtBa_4iter6traits8iterator8Iterator8try_folduNCINvNvBL_4find5checkBI_NCNvCs1bGpNmcICWC_18build_script_build4mainsv_0E0INtNtNtBa_3ops12control_flow11ControlFlowBI_EEB22_, symObjAddr: 0x493C, symBinAddr: 0x10000552C, symSize: 0x190 }
  - { offset: 0x2D9F, size: 0x8, addend: 0x0, symName: __RINvYINtNtNtCsaNl6UpbT7bw_4core3str4iter5SplitReENtNtNtNtBa_4iter6traits8iterator8Iterator8try_folduNCINvNvBL_4find5checkBI_NCNvCs1bGpNmcICWC_18build_script_build4mainsw_0E0INtNtNtBa_3ops12control_flow11ControlFlowBI_EEB22_, symObjAddr: 0x4ACC, symBinAddr: 0x1000056BC, symSize: 0x190 }
  - { offset: 0x2E55, size: 0x8, addend: 0x0, symName: __RINvYINtNtNtCsaNl6UpbT7bw_4core3str4iter5SplitReENtNtNtNtBa_4iter6traits8iterator8Iterator8try_folduNCINvNvBL_4find5checkBI_NCNvCs1bGpNmcICWC_18build_script_build4mainsx_0E0INtNtNtBa_3ops12control_flow11ControlFlowBI_EEB22_, symObjAddr: 0x4C5C, symBinAddr: 0x10000584C, symSize: 0x190 }
  - { offset: 0x2F0B, size: 0x8, addend: 0x0, symName: __RINvYINtNtNtCsaNl6UpbT7bw_4core3str4iter5SplitReENtNtNtNtBa_4iter6traits8iterator8Iterator8try_folduNCINvNvBL_4find5checkBI_NCNvCs1bGpNmcICWC_18build_script_build4mainsy_0E0INtNtNtBa_3ops12control_flow11ControlFlowBI_EEB22_, symObjAddr: 0x4DEC, symBinAddr: 0x1000059DC, symSize: 0x190 }
  - { offset: 0x2FC1, size: 0x8, addend: 0x0, symName: __RINvYINtNtNtCsaNl6UpbT7bw_4core3str4iter5SplitReENtNtNtNtBa_4iter6traits8iterator8Iterator8try_folduNCINvNvBL_4find5checkBI_NCNvCs1bGpNmcICWC_18build_script_build4mainsz_0E0INtNtNtBa_3ops12control_flow11ControlFlowBI_EEB22_, symObjAddr: 0x4F7C, symBinAddr: 0x100005B6C, symSize: 0x190 }
  - { offset: 0x34FA, size: 0x8, addend: 0x0, symName: __RNCNvMsp_NtNtCsaNl6UpbT7bw_4core3str4iterINtB7_20MatchIndicesInternalReE4next0Cs1bGpNmcICWC_18build_script_build, symObjAddr: 0x510C, symBinAddr: 0x100005CFC, symSize: 0xA8 }
  - { offset: 0x36C9, size: 0x8, addend: 0x0, symName: __RNvXsX_NtNtCsaNl6UpbT7bw_4core3str4iterINtB5_5SplitReENtNtNtNtB9_4iter6traits8iterator8Iterator4nextCs1bGpNmcICWC_18build_script_build, symObjAddr: 0x5414, symBinAddr: 0x100006004, symSize: 0x24 }
  - { offset: 0x41D3, size: 0x8, addend: 0x0, symName: __RNvMsf_NtNtCsaNl6UpbT7bw_4core3str4iterINtB5_13SplitInternalReE4nextCs1bGpNmcICWC_18build_script_build, symObjAddr: 0x51B4, symBinAddr: 0x100005DA4, symSize: 0x13C }
  - { offset: 0x430F, size: 0x8, addend: 0x0, symName: __RNvMsf_NtNtCsaNl6UpbT7bw_4core3str4iterINtB5_13SplitInternalReE7get_endCs1bGpNmcICWC_18build_script_build, symObjAddr: 0x52F0, symBinAddr: 0x100005EE0, symSize: 0x124 }
  - { offset: 0x4591, size: 0x8, addend: 0x0, symName: __RINvMNtCsaNl6UpbT7bw_4core3stre5splitReECs1bGpNmcICWC_18build_script_build, symObjAddr: 0x0, symBinAddr: 0x100006028, symSize: 0xA4 }
  - { offset: 0x45DB, size: 0x8, addend: 0x0, symName: __RNCINvNtCsht3nMU9UgFu_3std2rt10lang_startuE0Cs1bGpNmcICWC_18build_script_build, symObjAddr: 0x1448, symBinAddr: 0x100007470, symSize: 0x34 }
  - { offset: 0x4645, size: 0x8, addend: 0x0, symName: __RINvNtCsht3nMU9UgFu_3std2rt10lang_startuECs1bGpNmcICWC_18build_script_build, symObjAddr: 0xD34, symBinAddr: 0x100006D5C, symSize: 0x60 }
  - { offset: 0x46AA, size: 0x8, addend: 0x0, symName: __RINvNtCsht3nMU9UgFu_3std3env3varNtNtCsiTraAjBDcu4_5alloc6string6StringECs1bGpNmcICWC_18build_script_build, symObjAddr: 0xD94, symBinAddr: 0x100006DBC, symSize: 0x74 }
  - { offset: 0x4740, size: 0x8, addend: 0x0, symName: __RINvNtNtCsht3nMU9UgFu_3std3sys9backtrace28___rust_begin_short_backtraceFEuuECs1bGpNmcICWC_18build_script_build, symObjAddr: 0x102C, symBinAddr: 0x100007054, symSize: 0x24 }
  - { offset: 0x485E, size: 0x8, addend: 0x0, symName: __RNvXsZ_NtCsht3nMU9UgFu_3std7processuNtB5_11Termination6reportCs1bGpNmcICWC_18build_script_build, symObjAddr: 0x2970, symBinAddr: 0x100008994, symSize: 0x10 }
  - { offset: 0x48AE, size: 0x8, addend: 0x0, symName: __RNvXsX_NtNtCsht3nMU9UgFu_3std3ffi6os_strNtNtCsiTraAjBDcu4_5alloc6string6StringINtNtCsaNl6UpbT7bw_4core7convert5AsRefNtB5_5OsStrE6as_refCs1bGpNmcICWC_18build_script_build, symObjAddr: 0x28F0, symBinAddr: 0x100008914, symSize: 0x80 }
  - { offset: 0x53C4, size: 0x8, addend: 0x0, symName: __RNvNvMNtNtCsaNl6UpbT7bw_4core3ptr9const_ptrPp20offset_from_unsigned18precondition_checkCs1bGpNmcICWC_18build_script_build, symObjAddr: 0x19A0, symBinAddr: 0x1000079C4, symSize: 0xAC }
  - { offset: 0x554E, size: 0x8, addend: 0x0, symName: __RINvNtCsaNl6UpbT7bw_4core3ptr13drop_in_placeINtNtB4_6result6ResultNtNtCsiTraAjBDcu4_5alloc6string6StringNtNtCsht3nMU9UgFu_3std3env8VarErrorEECs1bGpNmcICWC_18build_script_build, symObjAddr: 0xB20, symBinAddr: 0x100006B48, symSize: 0x50 }
  - { offset: 0x557D, size: 0x8, addend: 0x0, symName: __RINvNtCsaNl6UpbT7bw_4core3ptr13drop_in_placeINtNtCsiTraAjBDcu4_5alloc3vec3VechEECs1bGpNmcICWC_18build_script_build, symObjAddr: 0xB70, symBinAddr: 0x100006B98, symSize: 0x5C }
  - { offset: 0x55AC, size: 0x8, addend: 0x0, symName: __RINvNtCsaNl6UpbT7bw_4core3ptr13drop_in_placeINtNtCsiTraAjBDcu4_5alloc7raw_vec6RawVechEECs1bGpNmcICWC_18build_script_build, symObjAddr: 0xBCC, symBinAddr: 0x100006BF4, symSize: 0x24 }
  - { offset: 0x55DB, size: 0x8, addend: 0x0, symName: __RINvNtCsaNl6UpbT7bw_4core3ptr13drop_in_placeNCINvMsi_NtCsiTraAjBDcu4_5alloc3vecINtBP_3VechE14extend_trustedINtNtNtNtB4_4iter8adapters3map3MapINtNtNtB4_5slice4iter4IterhENCNvNtBR_3str13replace_ascii0EE0ECs1bGpNmcICWC_18build_script_build, symObjAddr: 0xBF0, symBinAddr: 0x100006C18, symSize: 0x24 }
  - { offset: 0x560A, size: 0x8, addend: 0x0, symName: __RINvNtCsaNl6UpbT7bw_4core3ptr13drop_in_placeNCINvNtNtNtB4_4iter8adapters3map8map_foldRhhuNCNvNtCsiTraAjBDcu4_5alloc3str13replace_ascii0NCINvNvNtNtNtBP_6traits8iterator8Iterator8for_each4callhNCINvMsi_NtB1v_3vecINtB3c_3VechE14extend_trustedINtBL_3MapINtNtNtB4_5slice4iter4IterhEB1p_EE0E0E0ECs1bGpNmcICWC_18build_script_build, symObjAddr: 0xC14, symBinAddr: 0x100006C3C, symSize: 0x24 }
  - { offset: 0x5639, size: 0x8, addend: 0x0, symName: __RINvNtCsaNl6UpbT7bw_4core3ptr13drop_in_placeNCINvNvNtNtNtNtB4_4iter6traits8iterator8Iterator8for_each4callhNCINvMsi_NtCsiTraAjBDcu4_5alloc3vecINtB1Q_3VechE14extend_trustedINtNtNtBT_8adapters3map3MapINtNtNtB4_5slice4iter4IterhENCNvNtB1S_3str13replace_ascii0EE0E0ECs1bGpNmcICWC_18build_script_build, symObjAddr: 0xC38, symBinAddr: 0x100006C60, symSize: 0x24 }
  - { offset: 0x5668, size: 0x8, addend: 0x0, symName: __RINvNtCsaNl6UpbT7bw_4core3ptr13drop_in_placeNtNtCsht3nMU9UgFu_3std3env8VarErrorECs1bGpNmcICWC_18build_script_build, symObjAddr: 0xC5C, symBinAddr: 0x100006C84, symSize: 0x48 }
  - { offset: 0x5697, size: 0x8, addend: 0x0, symName: __RINvNtCsaNl6UpbT7bw_4core3ptr13drop_in_placeNtNtCsiTraAjBDcu4_5alloc6string6StringECs1bGpNmcICWC_18build_script_build, symObjAddr: 0xCA4, symBinAddr: 0x100006CCC, symSize: 0x24 }
  - { offset: 0x56C6, size: 0x8, addend: 0x0, symName: __RINvNtCsaNl6UpbT7bw_4core3ptr13drop_in_placeNtNtNtCsht3nMU9UgFu_3std3ffi6os_str8OsStringECs1bGpNmcICWC_18build_script_build, symObjAddr: 0xCC8, symBinAddr: 0x100006CF0, symSize: 0x24 }
  - { offset: 0x56F5, size: 0x8, addend: 0x0, symName: __RINvNtCsaNl6UpbT7bw_4core3ptr13drop_in_placeNtNtNtCsiTraAjBDcu4_5alloc3vec15set_len_on_drop12SetLenOnDropECs1bGpNmcICWC_18build_script_build, symObjAddr: 0xCEC, symBinAddr: 0x100006D14, symSize: 0x24 }
  - { offset: 0x5724, size: 0x8, addend: 0x0, symName: __RINvNtCsaNl6UpbT7bw_4core3ptr13drop_in_placeNtNtNtNtCsht3nMU9UgFu_3std3sys6os_str5bytes3BufECs1bGpNmcICWC_18build_script_build, symObjAddr: 0xD10, symBinAddr: 0x100006D38, symSize: 0x24 }
  - { offset: 0x5892, size: 0x8, addend: 0x0, symName: __RNvNvNtCsaNl6UpbT7bw_4core3ptr19copy_nonoverlapping18precondition_checkCs1bGpNmcICWC_18build_script_build, symObjAddr: 0x1BA8, symBinAddr: 0x100007BCC, symSize: 0x36C }
  - { offset: 0x5BB1, size: 0x8, addend: 0x0, symName: __RINvMNtCsaNl6UpbT7bw_4core3stre5splitReECs1bGpNmcICWC_18build_script_build, symObjAddr: 0x0, symBinAddr: 0x100006028, symSize: 0xA4 }
  - { offset: 0x5FC4, size: 0x8, addend: 0x0, symName: __RNvNvXs5_NtNtCsaNl6UpbT7bw_4core3str6traitsINtNtNtBb_3ops5range5RangejEINtNtNtBb_5slice5index10SliceIndexeE13get_unchecked18precondition_checkCs1bGpNmcICWC_18build_script_build, symObjAddr: 0x23F4, symBinAddr: 0x100008418, symSize: 0xCC }
  - { offset: 0x60BF, size: 0x8, addend: 0x0, symName: __RNvXs9_NtNtCsaNl6UpbT7bw_4core3str6traitsINtNtNtB9_3ops5range9RangeFromjEINtNtNtB9_5slice5index10SliceIndexeE3getCs1bGpNmcICWC_18build_script_build, symObjAddr: 0x27A0, symBinAddr: 0x1000087C4, symSize: 0x150 }
  - { offset: 0x6234, size: 0x8, addend: 0x0, symName: __RNvXs_NtNtCsaNl6UpbT7bw_4core3str6traitseNtNtB8_3cmp9PartialEq2eqCs1bGpNmcICWC_18build_script_build, symObjAddr: 0x29AC, symBinAddr: 0x1000089D0, symSize: 0x64 }
  - { offset: 0x6349, size: 0x8, addend: 0x0, symName: __RINvNtNtCsaNl6UpbT7bw_4core3str11validations15next_code_pointINtNtNtB6_5slice4iter4IterhEECs1bGpNmcICWC_18build_script_build, symObjAddr: 0xE08, symBinAddr: 0x100006E30, symSize: 0x224 }
  - { offset: 0x6BC7, size: 0x8, addend: 0x0, symName: __RNvNvMs9_NtCsaNl6UpbT7bw_4core3numj13unchecked_add18precondition_checkCs1bGpNmcICWC_18build_script_build, symObjAddr: 0x1A4C, symBinAddr: 0x100007A70, symSize: 0xB0 }
  - { offset: 0x6C5B, size: 0x8, addend: 0x0, symName: __RNvNvMs9_NtCsaNl6UpbT7bw_4core3numj13unchecked_sub18precondition_checkCs1bGpNmcICWC_18build_script_build, symObjAddr: 0x1AFC, symBinAddr: 0x100007B20, symSize: 0xAC }
  - { offset: 0x7097, size: 0x8, addend: 0x0, symName: __RNvXs1b_NtCsaNl6UpbT7bw_4core3fmtRNtNtCsiTraAjBDcu4_5alloc6string6StringNtB6_7Display3fmtCs1bGpNmcICWC_18build_script_build, symObjAddr: 0x2588, symBinAddr: 0x1000085AC, symSize: 0x30 }
  - { offset: 0x7380, size: 0x8, addend: 0x0, symName: __RNvNvNtNtCsaNl6UpbT7bw_4core4char7convert18from_u32_unchecked18precondition_checkCs1bGpNmcICWC_18build_script_build, symObjAddr: 0x2114, symBinAddr: 0x100008138, symSize: 0x104 }
  - { offset: 0x7497, size: 0x8, addend: 0x0, symName: __RINvXs2V_NtNtCsaNl6UpbT7bw_4core5slice4iterINtB7_4IterhENtNtNtNtBb_4iter6traits8iterator8Iterator4folduNCINvNtNtBY_8adapters3map8map_foldRhhuNCNvNtCsiTraAjBDcu4_5alloc3str13replace_ascii0NCINvNvBS_8for_each4callhNCINvMsi_NtB2l_3vecINtB3x_3VechE14extend_trustedINtB1I_3MapBF_B2f_EE0E0E0ECs1bGpNmcICWC_18build_script_build, symObjAddr: 0x10A8, symBinAddr: 0x1000070D0, symSize: 0x1B8 }
  - { offset: 0x75EC, size: 0x8, addend: 0x0, symName: __RNvXs2V_NtNtCsaNl6UpbT7bw_4core5slice4iterINtB6_4IterhENtNtNtNtBa_4iter6traits8iterator8Iterator4nextCs1bGpNmcICWC_18build_script_build, symObjAddr: 0x25B8, symBinAddr: 0x1000085DC, symSize: 0xB0 }
  - { offset: 0x7726, size: 0x8, addend: 0x0, symName: __RNvXs2V_NtNtCsaNl6UpbT7bw_4core5slice4iterINtB6_4IterhENtNtNtNtBa_4iter6traits8iterator8Iterator9size_hintCs1bGpNmcICWC_18build_script_build, symObjAddr: 0x2668, symBinAddr: 0x10000868C, symSize: 0x70 }
  - { offset: 0x7825, size: 0x8, addend: 0x0, symName: __RNvNvNtNtCsaNl6UpbT7bw_4core5slice3raw14from_raw_parts18precondition_checkCs1bGpNmcICWC_18build_script_build, symObjAddr: 0x2218, symBinAddr: 0x10000823C, symSize: 0x1DC }
  - { offset: 0x7B30, size: 0x8, addend: 0x0, symName: __RNCINvNtNtNtCsaNl6UpbT7bw_4core4iter8adapters3map8map_foldRhhuNCNvNtCsiTraAjBDcu4_5alloc3str13replace_ascii0NCINvNvNtNtNtB8_6traits8iterator8Iterator8for_each4callhNCINvMsi_NtB14_3vecINtB2L_3VechE14extend_trustedINtB4_3MapINtNtNtBa_5slice4iter4IterhEBY_EE0E0E0Cs1bGpNmcICWC_18build_script_build, symObjAddr: 0x147C, symBinAddr: 0x1000074A4, symSize: 0x7C }
  - { offset: 0x7BBB, size: 0x8, addend: 0x0, symName: __RINvXs0_NtNtNtCsaNl6UpbT7bw_4core4iter8adapters3mapINtB6_3MapINtNtNtBc_5slice4iter4IterhENCNvNtCsiTraAjBDcu4_5alloc3str13replace_ascii0ENtNtNtBa_6traits8iterator8Iterator4folduNCINvNvB2a_8for_each4callhNCINvMsi_NtB1v_3vecINtB3n_3VechE14extend_trustedBN_E0E0ECs1bGpNmcICWC_18build_script_build, symObjAddr: 0x1050, symBinAddr: 0x100007078, symSize: 0x58 }
  - { offset: 0x7C54, size: 0x8, addend: 0x0, symName: __RNvXs0_NtNtNtCsaNl6UpbT7bw_4core4iter8adapters3mapINtB5_3MapINtNtNtBb_5slice4iter4IterhENCNvNtCsiTraAjBDcu4_5alloc3str13replace_ascii0ENtNtNtB9_6traits8iterator8Iterator9size_hintCs1bGpNmcICWC_18build_script_build, symObjAddr: 0x2564, symBinAddr: 0x100008588, symSize: 0x24 }
  - { offset: 0x7D41, size: 0x8, addend: 0x0, symName: __RINvYINtNtNtNtCsaNl6UpbT7bw_4core4iter8adapters3map3MapINtNtNtBc_5slice4iter4IterhENCNvNtCsiTraAjBDcu4_5alloc3str13replace_ascii0ENtNtNtBa_6traits8iterator8Iterator7collectINtNtB1p_3vec3VechEECs1bGpNmcICWC_18build_script_build, symObjAddr: 0x137C, symBinAddr: 0x1000073A4, symSize: 0x68 }
  - { offset: 0x7DD7, size: 0x8, addend: 0x0, symName: __RINvYINtNtNtNtCsaNl6UpbT7bw_4core4iter8adapters3map3MapINtNtNtBc_5slice4iter4IterhENCNvNtCsiTraAjBDcu4_5alloc3str13replace_ascii0ENtNtNtBa_6traits8iterator8Iterator8for_eachNCINvMsi_NtB1p_3vecINtB2U_3VechE14extend_trustedB3_E0ECs1bGpNmcICWC_18build_script_build, symObjAddr: 0x13E4, symBinAddr: 0x10000740C, symSize: 0x34 }
  - { offset: 0x7E4F, size: 0x8, addend: 0x0, symName: __RNvXNtNtNtCsaNl6UpbT7bw_4core4iter6traits7collectINtNtNtB6_8adapters3map3MapINtNtNtB8_5slice4iter4IterhENCNvNtCsiTraAjBDcu4_5alloc3str13replace_ascii0ENtB2_12IntoIterator9into_iterCs1bGpNmcICWC_18build_script_build, symObjAddr: 0x2550, symBinAddr: 0x100008574, symSize: 0x14 }
  - { offset: 0x7F9F, size: 0x8, addend: 0x0, symName: __RNvXNtNtCsaNl6UpbT7bw_4core3ops12control_flowINtB2_11ControlFlowReENtNtB4_9try_trait3Try11from_outputCs1bGpNmcICWC_18build_script_build, symObjAddr: 0x24C0, symBinAddr: 0x1000084E4, symSize: 0x18 }
  - { offset: 0x7FDD, size: 0x8, addend: 0x0, symName: __RNvXNtNtCsaNl6UpbT7bw_4core3ops12control_flowINtB2_11ControlFlowReENtNtB4_9try_trait3Try6branchCs1bGpNmcICWC_18build_script_build, symObjAddr: 0x24D8, symBinAddr: 0x1000084FC, symSize: 0x64 }
  - { offset: 0x805C, size: 0x8, addend: 0x0, symName: __RNvXs_NtNtCsaNl6UpbT7bw_4core3ops12control_flowINtB4_11ControlFlowReEINtNtB6_9try_trait12FromResidualIBK_B12_NtNtB8_7convert10InfallibleEE13from_residualCs1bGpNmcICWC_18build_script_build, symObjAddr: 0x2980, symBinAddr: 0x1000089A4, symSize: 0x2C }
  - { offset: 0x8217, size: 0x8, addend: 0x0, symName: __RNSNvYNCINvNtCsht3nMU9UgFu_3std2rt10lang_startuE0INtNtNtCsaNl6UpbT7bw_4core3ops8function6FnOnceuE9call_once6vtableCs1bGpNmcICWC_18build_script_build, symObjAddr: 0x15A0, symBinAddr: 0x1000075C8, symSize: 0x28 }
  - { offset: 0x825B, size: 0x8, addend: 0x0, symName: __RNvYFEuINtNtNtCsaNl6UpbT7bw_4core3ops8function6FnOnceuE9call_onceCs1bGpNmcICWC_18build_script_build, symObjAddr: 0x2C64, symBinAddr: 0x100008C88, symSize: 0x20 }
  - { offset: 0x829B, size: 0x8, addend: 0x0, symName: __RNvYNCINvNtCsht3nMU9UgFu_3std2rt10lang_startuE0INtNtNtCsaNl6UpbT7bw_4core3ops8function6FnOnceuE9call_onceCs1bGpNmcICWC_18build_script_build, symObjAddr: 0x2C84, symBinAddr: 0x100008CA8, symSize: 0x4C }
  - { offset: 0x82DF, size: 0x8, addend: 0x0, symName: __RNvYNvYeNtNtCsiTraAjBDcu4_5alloc6borrow7ToOwned8to_ownedINtNtNtCsaNl6UpbT7bw_4core3ops8function6FnOnceTReEE9call_onceCs1bGpNmcICWC_18build_script_build, symObjAddr: 0x2CD0, symBinAddr: 0x100008CF4, symSize: 0x2C }
  - { offset: 0x8388, size: 0x8, addend: 0x0, symName: __RNvNvNtCsaNl6UpbT7bw_4core4hint16assert_unchecked18precondition_checkCs1bGpNmcICWC_18build_script_build, symObjAddr: 0x1F14, symBinAddr: 0x100007F38, symSize: 0xA4 }
  - { offset: 0x83E8, size: 0x8, addend: 0x0, symName: __RNvNvNtCsaNl6UpbT7bw_4core4hint21unreachable_unchecked18precondition_checkCs1bGpNmcICWC_18build_script_build, symObjAddr: 0x1FB8, symBinAddr: 0x100007FDC, symSize: 0x84 }
  - { offset: 0x85B1, size: 0x8, addend: 0x0, symName: __RNvNvNtCsaNl6UpbT7bw_4core9ub_checks23maybe_is_nonoverlapping7runtimeCs1bGpNmcICWC_18build_script_build, symObjAddr: 0x203C, symBinAddr: 0x100008060, symSize: 0xD8 }
  - { offset: 0x87D1, size: 0x8, addend: 0x0, symName: __RNvXs7_NtNtCsaNl6UpbT7bw_4core3cmp5implsRReNtB7_9PartialEq2eqCs1bGpNmcICWC_18build_script_build, symObjAddr: 0x2728, symBinAddr: 0x10000874C, symSize: 0x34 }
  - { offset: 0x8820, size: 0x8, addend: 0x0, symName: __RNvXs7_NtNtCsaNl6UpbT7bw_4core3cmp5implsReNtB7_9PartialEq2eqCs1bGpNmcICWC_18build_script_build, symObjAddr: 0x275C, symBinAddr: 0x100008780, symSize: 0x44 }
  - { offset: 0x88E2, size: 0x8, addend: 0x0, symName: __RNvYjNtNtCsaNl6UpbT7bw_4core3cmp3Ord3maxCs1bGpNmcICWC_18build_script_build, symObjAddr: 0x2CFC, symBinAddr: 0x100008D20, symSize: 0x80 }
  - { offset: 0x8A46, size: 0x8, addend: 0x0, symName: __RNvXss_NtCsiTraAjBDcu4_5alloc6stringNtB5_6StringNtNtNtCsaNl6UpbT7bw_4core3ops5deref5Deref5derefCs1bGpNmcICWC_18build_script_build, symObjAddr: 0x2C40, symBinAddr: 0x100008C64, symSize: 0x24 }
  - { offset: 0x8A7A, size: 0x8, addend: 0x0, symName: __RNvXsl_NtCsiTraAjBDcu4_5alloc6stringNtB5_6StringNtNtCsaNl6UpbT7bw_4core3fmt7Display3fmtCs1bGpNmcICWC_18build_script_build, symObjAddr: 0x2BB8, symBinAddr: 0x100008BDC, symSize: 0x88 }
  - { offset: 0x8DDA, size: 0x8, addend: 0x0, symName: __RNvXs_NtNtCsiTraAjBDcu4_5alloc3vec15set_len_on_dropNtB4_12SetLenOnDropNtNtNtCsaNl6UpbT7bw_4core3ops4drop4Drop4dropCs1bGpNmcICWC_18build_script_build, symObjAddr: 0x2A34, symBinAddr: 0x100008A58, symSize: 0x20 }
  - { offset: 0x8E2C, size: 0x8, addend: 0x0, symName: __RNCINvMsi_NtCsiTraAjBDcu4_5alloc3vecINtB8_3VechE14extend_trustedINtNtNtNtCsaNl6UpbT7bw_4core4iter8adapters3map3MapINtNtNtB19_5slice4iter4IterhENCNvNtBa_3str13replace_ascii0EE0Cs1bGpNmcICWC_18build_script_build, symObjAddr: 0x1418, symBinAddr: 0x100007440, symSize: 0x30 }
  - { offset: 0x8EDB, size: 0x8, addend: 0x0, symName: __RINvXsd_NtCsiTraAjBDcu4_5alloc3vecINtB6_3VechEINtNtNtNtCsaNl6UpbT7bw_4core4iter6traits7collect12FromIteratorhE9from_iterINtNtNtBP_8adapters3map3MapINtNtNtBR_5slice4iter4IterhENCNvNtB8_3str13replace_ascii0EECs1bGpNmcICWC_18build_script_build, symObjAddr: 0x1340, symBinAddr: 0x100007368, symSize: 0x3C }
  - { offset: 0x8F27, size: 0x8, addend: 0x0, symName: __RNvXNtNtCsiTraAjBDcu4_5alloc3vec14spec_from_iterINtB4_3VechEINtB2_12SpecFromIterhINtNtNtNtCsaNl6UpbT7bw_4core4iter8adapters3map3MapINtNtNtB1q_5slice4iter4IterhENCNvNtB6_3str13replace_ascii0EE9from_iterCs1bGpNmcICWC_18build_script_build, symObjAddr: 0x253C, symBinAddr: 0x100008560, symSize: 0x14 }
  - { offset: 0x8F72, size: 0x8, addend: 0x0, symName: __RNvXs_NtNtCsiTraAjBDcu4_5alloc3vec11spec_extendINtB6_3VechEINtB4_10SpecExtendhINtNtNtNtCsaNl6UpbT7bw_4core4iter8adapters3map3MapINtNtNtB1n_5slice4iter4IterhENCNvNtB8_3str13replace_ascii0EE11spec_extendCs1bGpNmcICWC_18build_script_build, symObjAddr: 0x2A10, symBinAddr: 0x100008A34, symSize: 0x24 }
  - { offset: 0x8FD0, size: 0x8, addend: 0x0, symName: __RNvXs_NtNtCsiTraAjBDcu4_5alloc3vec21spec_from_iter_nestedINtB6_3VechEINtB4_18SpecFromIterNestedhINtNtNtNtCsaNl6UpbT7bw_4core4iter8adapters3map3MapINtNtNtB1F_5slice4iter4IterhENCNvNtB8_3str13replace_ascii0EE9from_iterCs1bGpNmcICWC_18build_script_build, symObjAddr: 0x2A54, symBinAddr: 0x100008A78, symSize: 0x164 }
  - { offset: 0x926D, size: 0x8, addend: 0x0, symName: __RNCNvNtCsiTraAjBDcu4_5alloc3fmt6format0Cs1bGpNmcICWC_18build_script_build, symObjAddr: 0x14F8, symBinAddr: 0x100007520, symSize: 0x48 }
  - { offset: 0x929E, size: 0x8, addend: 0x0, symName: __RNvNtCsiTraAjBDcu4_5alloc3fmt6formatCs1bGpNmcICWC_18build_script_build, symObjAddr: 0x18CC, symBinAddr: 0x1000078F0, symSize: 0xD4 }
  - { offset: 0x9311, size: 0x8, addend: 0x0, symName: __RINvMs3_NtCsiTraAjBDcu4_5alloc3stre7replaceReECs1bGpNmcICWC_18build_script_build, symObjAddr: 0x19C, symBinAddr: 0x1000061C4, symSize: 0x728 }
  - { offset: 0x9E7D, size: 0x8, addend: 0x0, symName: __RNCNvNtCsiTraAjBDcu4_5alloc3str13replace_ascii0Cs1bGpNmcICWC_18build_script_build, symObjAddr: 0x1540, symBinAddr: 0x100007568, symSize: 0x60 }
  - { offset: 0x9ED7, size: 0x8, addend: 0x0, symName: __RNvXs2_NtCsiTraAjBDcu4_5alloc3streNtNtB7_6borrow7ToOwned8to_ownedCs1bGpNmcICWC_18build_script_build, symObjAddr: 0x26D8, symBinAddr: 0x1000086FC, symSize: 0x50 }
  - { offset: 0x9FB4, size: 0x8, addend: 0x0, symName: __RINvXs_NvMNtCsiTraAjBDcu4_5alloc5sliceSp9to_vec_inhNtB5_10ConvertVec6to_vecNtNtBa_5alloc6GlobalECs1bGpNmcICWC_18build_script_build, symObjAddr: 0x1260, symBinAddr: 0x100007288, symSize: 0xE0 }
  - { offset: 0xA3C9, size: 0x8, addend: 0x0, symName: __RINvMNtCsaNl6UpbT7bw_4core6optionINtB3_6OptionReE11map_or_elseNtNtCsiTraAjBDcu4_5alloc6string6StringNCNvNtB12_3fmt6format0NvYeNtNtB12_6borrow7ToOwned8to_ownedECs1bGpNmcICWC_18build_script_build, symObjAddr: 0xA4, symBinAddr: 0x1000060CC, symSize: 0xCC }
  - { offset: 0xA466, size: 0x8, addend: 0x0, symName: __RINvMNtNtCsaNl6UpbT7bw_4core3fmt2rtNtB3_8Argument11new_displayRNtNtCsiTraAjBDcu4_5alloc6string6StringECs1bGpNmcICWC_18build_script_build, symObjAddr: 0x170, symBinAddr: 0x100006198, symSize: 0x2C }
  - { offset: 0xA8BA, size: 0x8, addend: 0x0, symName: __RINvMs_NtNtCsaNl6UpbT7bw_4core3fmt2rtNtB7_9Arguments6new_v1Kj1_KBW_ECs1bGpNmcICWC_18build_script_build, symObjAddr: 0x8C4, symBinAddr: 0x1000068EC, symSize: 0x50 }
  - { offset: 0xA904, size: 0x8, addend: 0x0, symName: __RINvMs_NtNtCsaNl6UpbT7bw_4core3fmt2rtNtB7_9Arguments6new_v1Kj1_Kj0_ECs1bGpNmcICWC_18build_script_build, symObjAddr: 0x914, symBinAddr: 0x10000693C, symSize: 0x4C }
  - { offset: 0xA934, size: 0x8, addend: 0x0, symName: __RINvMs_NtNtCsaNl6UpbT7bw_4core3fmt2rtNtB7_9Arguments9new_constKj1_ECs1bGpNmcICWC_18build_script_build, symObjAddr: 0x960, symBinAddr: 0x100006988, symSize: 0x48 }
  - { offset: 0xAA40, size: 0x8, addend: 0x0, symName: __RINvMsi_NtCsiTraAjBDcu4_5alloc3vecINtB6_3VechE14extend_trustedINtNtNtNtCsaNl6UpbT7bw_4core4iter8adapters3map3MapINtNtNtB17_5slice4iter4IterhENCNvNtB8_3str13replace_ascii0EECs1bGpNmcICWC_18build_script_build, symObjAddr: 0x9A8, symBinAddr: 0x1000069D0, symSize: 0x178 }
  - { offset: 0xAE5C, size: 0x8, addend: 0x0, symName: __RNvMNtCsaNl6UpbT7bw_4core6optionINtB2_6OptionReE7is_someCs1bGpNmcICWC_18build_script_build, symObjAddr: 0x15C8, symBinAddr: 0x1000075F0, symSize: 0x28 }
  - { offset: 0xAE88, size: 0x8, addend: 0x0, symName: __RNvMNtCsaNl6UpbT7bw_4core6resultINtB2_6ResultNtNtCsiTraAjBDcu4_5alloc6string6StringNtNtCsht3nMU9UgFu_3std3env8VarErrorE9unwrap_orCs1bGpNmcICWC_18build_script_build, symObjAddr: 0x15F0, symBinAddr: 0x100007618, symSize: 0xD4 }
  - { offset: 0xAF8E, size: 0x8, addend: 0x0, symName: __RNvMNtCsiTraAjBDcu4_5alloc6stringNtB2_6String6as_strCs1bGpNmcICWC_18build_script_build, symObjAddr: 0x16C4, symBinAddr: 0x1000076EC, symSize: 0x78 }
  - { offset: 0xB0B3, size: 0x8, addend: 0x0, symName: __RNvMs1_NtNtCsaNl6UpbT7bw_4core3ptr8non_nullINtB5_7NonNullhE20offset_from_unsignedCs1bGpNmcICWC_18build_script_build, symObjAddr: 0x173C, symBinAddr: 0x100007764, symSize: 0x7C }
  - { offset: 0xB21D, size: 0x8, addend: 0x0, symName: __RNvMs2_NtCsiTraAjBDcu4_5alloc7raw_vecNtB5_11RawVecInner16with_capacity_inCs1bGpNmcICWC_18build_script_build, symObjAddr: 0x17B8, symBinAddr: 0x1000077E0, symSize: 0x110 }
  - { offset: 0xB872, size: 0x8, addend: 0x0, symName: __RNvCs1bGpNmcICWC_18build_script_build4main, symObjAddr: 0x0, symBinAddr: 0x100008DA0, symSize: 0x71FC }
  - { offset: 0xBBDC, size: 0x8, addend: 0x0, symName: __RNvCs1bGpNmcICWC_18build_script_build4main, symObjAddr: 0x0, symBinAddr: 0x100008DA0, symSize: 0x71FC }
  - { offset: 0xC535, size: 0x8, addend: 0x0, symName: __RNCNvCs1bGpNmcICWC_18build_script_build4main0B3_, symObjAddr: 0x71FC, symBinAddr: 0x10000FF9C, symSize: 0x44 }
  - { offset: 0xC56B, size: 0x8, addend: 0x0, symName: __RNCNvCs1bGpNmcICWC_18build_script_build4mains_0B3_, symObjAddr: 0x7240, symBinAddr: 0x10000FFE0, symSize: 0x44 }
  - { offset: 0xC5A1, size: 0x8, addend: 0x0, symName: __RNCNvCs1bGpNmcICWC_18build_script_build4mains0_0B3_, symObjAddr: 0x7284, symBinAddr: 0x100010024, symSize: 0x44 }
  - { offset: 0xC5D7, size: 0x8, addend: 0x0, symName: __RNCNvCs1bGpNmcICWC_18build_script_build4mains1_0B3_, symObjAddr: 0x72C8, symBinAddr: 0x100010068, symSize: 0x44 }
  - { offset: 0xC60D, size: 0x8, addend: 0x0, symName: __RNCNvCs1bGpNmcICWC_18build_script_build4mains2_0B3_, symObjAddr: 0x730C, symBinAddr: 0x1000100AC, symSize: 0x44 }
  - { offset: 0xC643, size: 0x8, addend: 0x0, symName: __RNCNvCs1bGpNmcICWC_18build_script_build4mains3_0B3_, symObjAddr: 0x7350, symBinAddr: 0x1000100F0, symSize: 0x44 }
  - { offset: 0xC679, size: 0x8, addend: 0x0, symName: __RNCNvCs1bGpNmcICWC_18build_script_build4mains4_0B3_, symObjAddr: 0x7394, symBinAddr: 0x100010134, symSize: 0x44 }
  - { offset: 0xC6AF, size: 0x8, addend: 0x0, symName: __RNCNvCs1bGpNmcICWC_18build_script_build4mains5_0B3_, symObjAddr: 0x73D8, symBinAddr: 0x100010178, symSize: 0x44 }
  - { offset: 0xC6E5, size: 0x8, addend: 0x0, symName: __RNCNvCs1bGpNmcICWC_18build_script_build4mains6_0B3_, symObjAddr: 0x741C, symBinAddr: 0x1000101BC, symSize: 0x44 }
  - { offset: 0xC71B, size: 0x8, addend: 0x0, symName: __RNCNvCs1bGpNmcICWC_18build_script_build4mains7_0B3_, symObjAddr: 0x7460, symBinAddr: 0x100010200, symSize: 0x44 }
  - { offset: 0xC751, size: 0x8, addend: 0x0, symName: __RNCNvCs1bGpNmcICWC_18build_script_build4mains8_0B3_, symObjAddr: 0x74A4, symBinAddr: 0x100010244, symSize: 0x44 }
  - { offset: 0xC787, size: 0x8, addend: 0x0, symName: __RNCNvCs1bGpNmcICWC_18build_script_build4mains9_0B3_, symObjAddr: 0x74E8, symBinAddr: 0x100010288, symSize: 0x44 }
  - { offset: 0xC7BD, size: 0x8, addend: 0x0, symName: __RNCNvCs1bGpNmcICWC_18build_script_build4mainsa_0B3_, symObjAddr: 0x752C, symBinAddr: 0x1000102CC, symSize: 0x44 }
  - { offset: 0xC7F3, size: 0x8, addend: 0x0, symName: __RNCNvCs1bGpNmcICWC_18build_script_build4mainsb_0B3_, symObjAddr: 0x7570, symBinAddr: 0x100010310, symSize: 0x44 }
  - { offset: 0xC829, size: 0x8, addend: 0x0, symName: __RNCNvCs1bGpNmcICWC_18build_script_build4mainsc_0B3_, symObjAddr: 0x75B4, symBinAddr: 0x100010354, symSize: 0x44 }
  - { offset: 0xC85F, size: 0x8, addend: 0x0, symName: __RNCNvCs1bGpNmcICWC_18build_script_build4mainsd_0B3_, symObjAddr: 0x75F8, symBinAddr: 0x100010398, symSize: 0x44 }
  - { offset: 0xC895, size: 0x8, addend: 0x0, symName: __RNCNvCs1bGpNmcICWC_18build_script_build4mainse_0B3_, symObjAddr: 0x763C, symBinAddr: 0x1000103DC, symSize: 0x44 }
  - { offset: 0xC8CB, size: 0x8, addend: 0x0, symName: __RNCNvCs1bGpNmcICWC_18build_script_build4mainsf_0B3_, symObjAddr: 0x7680, symBinAddr: 0x100010420, symSize: 0x44 }
  - { offset: 0xC901, size: 0x8, addend: 0x0, symName: __RNCNvCs1bGpNmcICWC_18build_script_build4mainsg_0B3_, symObjAddr: 0x76C4, symBinAddr: 0x100010464, symSize: 0x44 }
  - { offset: 0xC937, size: 0x8, addend: 0x0, symName: __RNCNvCs1bGpNmcICWC_18build_script_build4mainsh_0B3_, symObjAddr: 0x7708, symBinAddr: 0x1000104A8, symSize: 0x44 }
  - { offset: 0xC96D, size: 0x8, addend: 0x0, symName: __RNCNvCs1bGpNmcICWC_18build_script_build4mainsi_0B3_, symObjAddr: 0x774C, symBinAddr: 0x1000104EC, symSize: 0x44 }
  - { offset: 0xC9A3, size: 0x8, addend: 0x0, symName: __RNCNvCs1bGpNmcICWC_18build_script_build4mainsj_0B3_, symObjAddr: 0x7790, symBinAddr: 0x100010530, symSize: 0x44 }
  - { offset: 0xC9D9, size: 0x8, addend: 0x0, symName: __RNCNvCs1bGpNmcICWC_18build_script_build4mainsk_0B3_, symObjAddr: 0x77D4, symBinAddr: 0x100010574, symSize: 0x44 }
  - { offset: 0xCA0F, size: 0x8, addend: 0x0, symName: __RNCNvCs1bGpNmcICWC_18build_script_build4mainsl_0B3_, symObjAddr: 0x7818, symBinAddr: 0x1000105B8, symSize: 0x44 }
  - { offset: 0xCA45, size: 0x8, addend: 0x0, symName: __RNCNvCs1bGpNmcICWC_18build_script_build4mainsm_0B3_, symObjAddr: 0x785C, symBinAddr: 0x1000105FC, symSize: 0x44 }
  - { offset: 0xCA7B, size: 0x8, addend: 0x0, symName: __RNCNvCs1bGpNmcICWC_18build_script_build4mainsn_0B3_, symObjAddr: 0x78A0, symBinAddr: 0x100010640, symSize: 0x44 }
  - { offset: 0xCAB1, size: 0x8, addend: 0x0, symName: __RNCNvCs1bGpNmcICWC_18build_script_build4mainso_0B3_, symObjAddr: 0x78E4, symBinAddr: 0x100010684, symSize: 0x44 }
  - { offset: 0xCAE7, size: 0x8, addend: 0x0, symName: __RNCNvCs1bGpNmcICWC_18build_script_build4mainsp_0B3_, symObjAddr: 0x7928, symBinAddr: 0x1000106C8, symSize: 0x44 }
  - { offset: 0xCB1D, size: 0x8, addend: 0x0, symName: __RNCNvCs1bGpNmcICWC_18build_script_build4mainsq_0B3_, symObjAddr: 0x796C, symBinAddr: 0x10001070C, symSize: 0x44 }
  - { offset: 0xCB53, size: 0x8, addend: 0x0, symName: __RNCNvCs1bGpNmcICWC_18build_script_build4mainsr_0B3_, symObjAddr: 0x79B0, symBinAddr: 0x100010750, symSize: 0x44 }
  - { offset: 0xCB89, size: 0x8, addend: 0x0, symName: __RNCNvCs1bGpNmcICWC_18build_script_build4mainss_0B3_, symObjAddr: 0x79F4, symBinAddr: 0x100010794, symSize: 0x44 }
  - { offset: 0xCBBF, size: 0x8, addend: 0x0, symName: __RNCNvCs1bGpNmcICWC_18build_script_build4mainst_0B3_, symObjAddr: 0x7A38, symBinAddr: 0x1000107D8, symSize: 0x44 }
  - { offset: 0xCBF5, size: 0x8, addend: 0x0, symName: __RNCNvCs1bGpNmcICWC_18build_script_build4mainsu_0B3_, symObjAddr: 0x7A7C, symBinAddr: 0x10001081C, symSize: 0x44 }
  - { offset: 0xCC2B, size: 0x8, addend: 0x0, symName: __RNCNvCs1bGpNmcICWC_18build_script_build4mainsv_0B3_, symObjAddr: 0x7AC0, symBinAddr: 0x100010860, symSize: 0x44 }
  - { offset: 0xCC61, size: 0x8, addend: 0x0, symName: __RNCNvCs1bGpNmcICWC_18build_script_build4mainsw_0B3_, symObjAddr: 0x7B04, symBinAddr: 0x1000108A4, symSize: 0x44 }
  - { offset: 0xCC97, size: 0x8, addend: 0x0, symName: __RNCNvCs1bGpNmcICWC_18build_script_build4mainsx_0B3_, symObjAddr: 0x7B48, symBinAddr: 0x1000108E8, symSize: 0x44 }
  - { offset: 0xCCCD, size: 0x8, addend: 0x0, symName: __RNCNvCs1bGpNmcICWC_18build_script_build4mainsy_0B3_, symObjAddr: 0x7B8C, symBinAddr: 0x10001092C, symSize: 0x44 }
  - { offset: 0xCD03, size: 0x8, addend: 0x0, symName: __RNCNvCs1bGpNmcICWC_18build_script_build4mainsz_0B3_, symObjAddr: 0x7BD0, symBinAddr: 0x100010970, symSize: 0x44 }
  - { offset: 0xCD39, size: 0x8, addend: 0x0, symName: __RNCNvCs1bGpNmcICWC_18build_script_build4mainsA_0B3_, symObjAddr: 0x7C14, symBinAddr: 0x1000109B4, symSize: 0x44 }
  - { offset: 0xD192, size: 0x8, addend: 0x0, symName: __RINvMsx_NtNtCsaNl6UpbT7bw_4core3str7patternNtB6_14TwoWaySearcher4nextNtB6_14RejectAndMatchECs1bGpNmcICWC_18build_script_build, symObjAddr: 0x0, symBinAddr: 0x100010A24, symSize: 0x540 }
  - { offset: 0xD4BC, size: 0x8, addend: 0x0, symName: __RNCINvNvNtNtNtNtCsaNl6UpbT7bw_4core4iter6traits8iterator8Iterator4find5checkReNCNvCs1bGpNmcICWC_18build_script_build4main0E0B1i_, symObjAddr: 0xA80, symBinAddr: 0x1000114A4, symSize: 0x84 }
  - { offset: 0xD518, size: 0x8, addend: 0x0, symName: __RNCINvNvNtNtNtNtCsaNl6UpbT7bw_4core4iter6traits8iterator8Iterator4find5checkReNCNvCs1bGpNmcICWC_18build_script_build4mains0_0E0B1i_, symObjAddr: 0xB04, symBinAddr: 0x100011528, symSize: 0x84 }
  - { offset: 0xD574, size: 0x8, addend: 0x0, symName: __RNCINvNvNtNtNtNtCsaNl6UpbT7bw_4core4iter6traits8iterator8Iterator4find5checkReNCNvCs1bGpNmcICWC_18build_script_build4mains1_0E0B1i_, symObjAddr: 0xB88, symBinAddr: 0x1000115AC, symSize: 0x84 }
  - { offset: 0xD5D0, size: 0x8, addend: 0x0, symName: __RNCINvNvNtNtNtNtCsaNl6UpbT7bw_4core4iter6traits8iterator8Iterator4find5checkReNCNvCs1bGpNmcICWC_18build_script_build4mains2_0E0B1i_, symObjAddr: 0xC0C, symBinAddr: 0x100011630, symSize: 0x84 }
  - { offset: 0xD62C, size: 0x8, addend: 0x0, symName: __RNCINvNvNtNtNtNtCsaNl6UpbT7bw_4core4iter6traits8iterator8Iterator4find5checkReNCNvCs1bGpNmcICWC_18build_script_build4mains3_0E0B1i_, symObjAddr: 0xC90, symBinAddr: 0x1000116B4, symSize: 0x84 }
  - { offset: 0xD688, size: 0x8, addend: 0x0, symName: __RNCINvNvNtNtNtNtCsaNl6UpbT7bw_4core4iter6traits8iterator8Iterator4find5checkReNCNvCs1bGpNmcICWC_18build_script_build4mains4_0E0B1i_, symObjAddr: 0xD14, symBinAddr: 0x100011738, symSize: 0x84 }
  - { offset: 0xD6E4, size: 0x8, addend: 0x0, symName: __RNCINvNvNtNtNtNtCsaNl6UpbT7bw_4core4iter6traits8iterator8Iterator4find5checkReNCNvCs1bGpNmcICWC_18build_script_build4mains5_0E0B1i_, symObjAddr: 0xD98, symBinAddr: 0x1000117BC, symSize: 0x84 }
  - { offset: 0xD740, size: 0x8, addend: 0x0, symName: __RNCINvNvNtNtNtNtCsaNl6UpbT7bw_4core4iter6traits8iterator8Iterator4find5checkReNCNvCs1bGpNmcICWC_18build_script_build4mains6_0E0B1i_, symObjAddr: 0xE1C, symBinAddr: 0x100011840, symSize: 0x84 }
  - { offset: 0xD79C, size: 0x8, addend: 0x0, symName: __RNCINvNvNtNtNtNtCsaNl6UpbT7bw_4core4iter6traits8iterator8Iterator4find5checkReNCNvCs1bGpNmcICWC_18build_script_build4mains7_0E0B1i_, symObjAddr: 0xEA0, symBinAddr: 0x1000118C4, symSize: 0x84 }
  - { offset: 0xD7F8, size: 0x8, addend: 0x0, symName: __RNCINvNvNtNtNtNtCsaNl6UpbT7bw_4core4iter6traits8iterator8Iterator4find5checkReNCNvCs1bGpNmcICWC_18build_script_build4mains8_0E0B1i_, symObjAddr: 0xF24, symBinAddr: 0x100011948, symSize: 0x84 }
  - { offset: 0xD854, size: 0x8, addend: 0x0, symName: __RNCINvNvNtNtNtNtCsaNl6UpbT7bw_4core4iter6traits8iterator8Iterator4find5checkReNCNvCs1bGpNmcICWC_18build_script_build4mains9_0E0B1i_, symObjAddr: 0xFA8, symBinAddr: 0x1000119CC, symSize: 0x84 }
  - { offset: 0xD8B0, size: 0x8, addend: 0x0, symName: __RNCINvNvNtNtNtNtCsaNl6UpbT7bw_4core4iter6traits8iterator8Iterator4find5checkReNCNvCs1bGpNmcICWC_18build_script_build4mainsA_0E0B1i_, symObjAddr: 0x102C, symBinAddr: 0x100011A50, symSize: 0x84 }
  - { offset: 0xD90C, size: 0x8, addend: 0x0, symName: __RNCINvNvNtNtNtNtCsaNl6UpbT7bw_4core4iter6traits8iterator8Iterator4find5checkReNCNvCs1bGpNmcICWC_18build_script_build4mains_0E0B1i_, symObjAddr: 0x10B0, symBinAddr: 0x100011AD4, symSize: 0x84 }
  - { offset: 0xD968, size: 0x8, addend: 0x0, symName: __RNCINvNvNtNtNtNtCsaNl6UpbT7bw_4core4iter6traits8iterator8Iterator4find5checkReNCNvCs1bGpNmcICWC_18build_script_build4mainsa_0E0B1i_, symObjAddr: 0x1134, symBinAddr: 0x100011B58, symSize: 0x84 }
  - { offset: 0xD9C4, size: 0x8, addend: 0x0, symName: __RNCINvNvNtNtNtNtCsaNl6UpbT7bw_4core4iter6traits8iterator8Iterator4find5checkReNCNvCs1bGpNmcICWC_18build_script_build4mainsb_0E0B1i_, symObjAddr: 0x11B8, symBinAddr: 0x100011BDC, symSize: 0x84 }
  - { offset: 0xDA20, size: 0x8, addend: 0x0, symName: __RNCINvNvNtNtNtNtCsaNl6UpbT7bw_4core4iter6traits8iterator8Iterator4find5checkReNCNvCs1bGpNmcICWC_18build_script_build4mainsc_0E0B1i_, symObjAddr: 0x123C, symBinAddr: 0x100011C60, symSize: 0x84 }
  - { offset: 0xDA7C, size: 0x8, addend: 0x0, symName: __RNCINvNvNtNtNtNtCsaNl6UpbT7bw_4core4iter6traits8iterator8Iterator4find5checkReNCNvCs1bGpNmcICWC_18build_script_build4mainsd_0E0B1i_, symObjAddr: 0x12C0, symBinAddr: 0x100011CE4, symSize: 0x84 }
  - { offset: 0xDAD8, size: 0x8, addend: 0x0, symName: __RNCINvNvNtNtNtNtCsaNl6UpbT7bw_4core4iter6traits8iterator8Iterator4find5checkReNCNvCs1bGpNmcICWC_18build_script_build4mainse_0E0B1i_, symObjAddr: 0x1344, symBinAddr: 0x100011D68, symSize: 0x84 }
  - { offset: 0xDB34, size: 0x8, addend: 0x0, symName: __RNCINvNvNtNtNtNtCsaNl6UpbT7bw_4core4iter6traits8iterator8Iterator4find5checkReNCNvCs1bGpNmcICWC_18build_script_build4mainsf_0E0B1i_, symObjAddr: 0x13C8, symBinAddr: 0x100011DEC, symSize: 0x84 }
  - { offset: 0xDB90, size: 0x8, addend: 0x0, symName: __RNCINvNvNtNtNtNtCsaNl6UpbT7bw_4core4iter6traits8iterator8Iterator4find5checkReNCNvCs1bGpNmcICWC_18build_script_build4mainsg_0E0B1i_, symObjAddr: 0x144C, symBinAddr: 0x100011E70, symSize: 0x84 }
  - { offset: 0xDBEC, size: 0x8, addend: 0x0, symName: __RNCINvNvNtNtNtNtCsaNl6UpbT7bw_4core4iter6traits8iterator8Iterator4find5checkReNCNvCs1bGpNmcICWC_18build_script_build4mainsh_0E0B1i_, symObjAddr: 0x14D0, symBinAddr: 0x100011EF4, symSize: 0x84 }
  - { offset: 0xDC48, size: 0x8, addend: 0x0, symName: __RNCINvNvNtNtNtNtCsaNl6UpbT7bw_4core4iter6traits8iterator8Iterator4find5checkReNCNvCs1bGpNmcICWC_18build_script_build4mainsi_0E0B1i_, symObjAddr: 0x1554, symBinAddr: 0x100011F78, symSize: 0x84 }
  - { offset: 0xDCA4, size: 0x8, addend: 0x0, symName: __RNCINvNvNtNtNtNtCsaNl6UpbT7bw_4core4iter6traits8iterator8Iterator4find5checkReNCNvCs1bGpNmcICWC_18build_script_build4mainsj_0E0B1i_, symObjAddr: 0x15D8, symBinAddr: 0x100011FFC, symSize: 0x84 }
  - { offset: 0xDD00, size: 0x8, addend: 0x0, symName: __RNCINvNvNtNtNtNtCsaNl6UpbT7bw_4core4iter6traits8iterator8Iterator4find5checkReNCNvCs1bGpNmcICWC_18build_script_build4mainsk_0E0B1i_, symObjAddr: 0x165C, symBinAddr: 0x100012080, symSize: 0x84 }
  - { offset: 0xDD5C, size: 0x8, addend: 0x0, symName: __RNCINvNvNtNtNtNtCsaNl6UpbT7bw_4core4iter6traits8iterator8Iterator4find5checkReNCNvCs1bGpNmcICWC_18build_script_build4mainsl_0E0B1i_, symObjAddr: 0x16E0, symBinAddr: 0x100012104, symSize: 0x84 }
  - { offset: 0xDDB8, size: 0x8, addend: 0x0, symName: __RNCINvNvNtNtNtNtCsaNl6UpbT7bw_4core4iter6traits8iterator8Iterator4find5checkReNCNvCs1bGpNmcICWC_18build_script_build4mainsm_0E0B1i_, symObjAddr: 0x1764, symBinAddr: 0x100012188, symSize: 0x84 }
  - { offset: 0xDE14, size: 0x8, addend: 0x0, symName: __RNCINvNvNtNtNtNtCsaNl6UpbT7bw_4core4iter6traits8iterator8Iterator4find5checkReNCNvCs1bGpNmcICWC_18build_script_build4mainsn_0E0B1i_, symObjAddr: 0x17E8, symBinAddr: 0x10001220C, symSize: 0x84 }
  - { offset: 0xDE70, size: 0x8, addend: 0x0, symName: __RNCINvNvNtNtNtNtCsaNl6UpbT7bw_4core4iter6traits8iterator8Iterator4find5checkReNCNvCs1bGpNmcICWC_18build_script_build4mainso_0E0B1i_, symObjAddr: 0x186C, symBinAddr: 0x100012290, symSize: 0x84 }
  - { offset: 0xDECC, size: 0x8, addend: 0x0, symName: __RNCINvNvNtNtNtNtCsaNl6UpbT7bw_4core4iter6traits8iterator8Iterator4find5checkReNCNvCs1bGpNmcICWC_18build_script_build4mainsp_0E0B1i_, symObjAddr: 0x18F0, symBinAddr: 0x100012314, symSize: 0x84 }
  - { offset: 0xDF28, size: 0x8, addend: 0x0, symName: __RNCINvNvNtNtNtNtCsaNl6UpbT7bw_4core4iter6traits8iterator8Iterator4find5checkReNCNvCs1bGpNmcICWC_18build_script_build4mainsq_0E0B1i_, symObjAddr: 0x1974, symBinAddr: 0x100012398, symSize: 0x84 }
  - { offset: 0xDF84, size: 0x8, addend: 0x0, symName: __RNCINvNvNtNtNtNtCsaNl6UpbT7bw_4core4iter6traits8iterator8Iterator4find5checkReNCNvCs1bGpNmcICWC_18build_script_build4mainsr_0E0B1i_, symObjAddr: 0x19F8, symBinAddr: 0x10001241C, symSize: 0x84 }
  - { offset: 0xDFE0, size: 0x8, addend: 0x0, symName: __RNCINvNvNtNtNtNtCsaNl6UpbT7bw_4core4iter6traits8iterator8Iterator4find5checkReNCNvCs1bGpNmcICWC_18build_script_build4mainss_0E0B1i_, symObjAddr: 0x1A7C, symBinAddr: 0x1000124A0, symSize: 0x84 }
  - { offset: 0xE03C, size: 0x8, addend: 0x0, symName: __RNCINvNvNtNtNtNtCsaNl6UpbT7bw_4core4iter6traits8iterator8Iterator4find5checkReNCNvCs1bGpNmcICWC_18build_script_build4mainst_0E0B1i_, symObjAddr: 0x1B00, symBinAddr: 0x100012524, symSize: 0x84 }
  - { offset: 0xE098, size: 0x8, addend: 0x0, symName: __RNCINvNvNtNtNtNtCsaNl6UpbT7bw_4core4iter6traits8iterator8Iterator4find5checkReNCNvCs1bGpNmcICWC_18build_script_build4mainsu_0E0B1i_, symObjAddr: 0x1B84, symBinAddr: 0x1000125A8, symSize: 0x84 }
  - { offset: 0xE0F4, size: 0x8, addend: 0x0, symName: __RNCINvNvNtNtNtNtCsaNl6UpbT7bw_4core4iter6traits8iterator8Iterator4find5checkReNCNvCs1bGpNmcICWC_18build_script_build4mainsv_0E0B1i_, symObjAddr: 0x1C08, symBinAddr: 0x10001262C, symSize: 0x84 }
  - { offset: 0xE150, size: 0x8, addend: 0x0, symName: __RNCINvNvNtNtNtNtCsaNl6UpbT7bw_4core4iter6traits8iterator8Iterator4find5checkReNCNvCs1bGpNmcICWC_18build_script_build4mainsw_0E0B1i_, symObjAddr: 0x1C8C, symBinAddr: 0x1000126B0, symSize: 0x84 }
  - { offset: 0xE1AC, size: 0x8, addend: 0x0, symName: __RNCINvNvNtNtNtNtCsaNl6UpbT7bw_4core4iter6traits8iterator8Iterator4find5checkReNCNvCs1bGpNmcICWC_18build_script_build4mainsx_0E0B1i_, symObjAddr: 0x1D10, symBinAddr: 0x100012734, symSize: 0x84 }
  - { offset: 0xE208, size: 0x8, addend: 0x0, symName: __RNCINvNvNtNtNtNtCsaNl6UpbT7bw_4core4iter6traits8iterator8Iterator4find5checkReNCNvCs1bGpNmcICWC_18build_script_build4mainsy_0E0B1i_, symObjAddr: 0x1D94, symBinAddr: 0x1000127B8, symSize: 0x84 }
  - { offset: 0xE264, size: 0x8, addend: 0x0, symName: __RNCINvNvNtNtNtNtCsaNl6UpbT7bw_4core4iter6traits8iterator8Iterator4find5checkReNCNvCs1bGpNmcICWC_18build_script_build4mainsz_0E0B1i_, symObjAddr: 0x1E18, symBinAddr: 0x10001283C, symSize: 0x84 }
  - { offset: 0xE2CC, size: 0x8, addend: 0x0, symName: __RNCINvNvNtNtNtNtCsaNl6UpbT7bw_4core4iter6traits8iterator8Iterator8for_each4callhNCINvMsi_NtCsiTraAjBDcu4_5alloc3vecINtB1p_3VechE14extend_trustedINtNtNtBc_8adapters3map3MapINtNtNtBe_5slice4iter4IterhENCNvNtB1r_3str13replace_ascii0EE0E0Cs1bGpNmcICWC_18build_script_build, symObjAddr: 0x1E9C, symBinAddr: 0x1000128C0, symSize: 0x28 }
  - { offset: 0xEA5A, size: 0x8, addend: 0x0, symName: __RNvXst_NtNtCsaNl6UpbT7bw_4core3str7patternReNtB5_7Pattern13into_searcherCs1bGpNmcICWC_18build_script_build, symObjAddr: 0x1EC4, symBinAddr: 0x1000128E8, symSize: 0x4C }
  - { offset: 0xEA97, size: 0x8, addend: 0x0, symName: __RNvXst_NtNtCsaNl6UpbT7bw_4core3str7patternReNtB5_7Pattern15as_utf8_patternCs1bGpNmcICWC_18build_script_build, symObjAddr: 0x1F10, symBinAddr: 0x100012934, symSize: 0x38 }
  - { offset: 0xEACB, size: 0x8, addend: 0x0, symName: __RNvXsv_NtNtCsaNl6UpbT7bw_4core3str7patternNtB5_11StrSearcherNtB5_8Searcher10next_matchCs1bGpNmcICWC_18build_script_build, symObjAddr: 0x1F48, symBinAddr: 0x10001296C, symSize: 0x148 }
  - { offset: 0xEB57, size: 0x8, addend: 0x0, symName: __RNvXsv_NtNtCsaNl6UpbT7bw_4core3str7patternNtB5_11StrSearcherNtB5_8Searcher4nextCs1bGpNmcICWC_18build_script_build, symObjAddr: 0x2090, symBinAddr: 0x100012AB4, symSize: 0x454 }
  - { offset: 0xEE5C, size: 0x8, addend: 0x0, symName: __RNvXsv_NtNtCsaNl6UpbT7bw_4core3str7patternNtB5_11StrSearcherNtB5_8Searcher8haystackCs1bGpNmcICWC_18build_script_build, symObjAddr: 0x24E4, symBinAddr: 0x100012F08, symSize: 0x20 }
  - { offset: 0xEE90, size: 0x8, addend: 0x0, symName: __RNvXsy_NtNtCsaNl6UpbT7bw_4core3str7patternNtB5_9MatchOnlyNtB5_14TwoWayStrategy16use_early_rejectCs1bGpNmcICWC_18build_script_build, symObjAddr: 0x2504, symBinAddr: 0x100012F28, symSize: 0xC }
  - { offset: 0xEEAE, size: 0x8, addend: 0x0, symName: __RNvXsy_NtNtCsaNl6UpbT7bw_4core3str7patternNtB5_9MatchOnlyNtB5_14TwoWayStrategy8matchingCs1bGpNmcICWC_18build_script_build, symObjAddr: 0x2510, symBinAddr: 0x100012F34, symSize: 0x28 }
  - { offset: 0xEEEB, size: 0x8, addend: 0x0, symName: __RNvXsy_NtNtCsaNl6UpbT7bw_4core3str7patternNtB5_9MatchOnlyNtB5_14TwoWayStrategy9rejectingCs1bGpNmcICWC_18build_script_build, symObjAddr: 0x2538, symBinAddr: 0x100012F5C, symSize: 0x18 }
  - { offset: 0xEF2E, size: 0x8, addend: 0x0, symName: __RNvXsz_NtNtCsaNl6UpbT7bw_4core3str7patternNtB5_14RejectAndMatchNtB5_14TwoWayStrategy16use_early_rejectCs1bGpNmcICWC_18build_script_build, symObjAddr: 0x2550, symBinAddr: 0x100012F74, symSize: 0xC }
  - { offset: 0xEF4C, size: 0x8, addend: 0x0, symName: __RNvXsz_NtNtCsaNl6UpbT7bw_4core3str7patternNtB5_14RejectAndMatchNtB5_14TwoWayStrategy8matchingCs1bGpNmcICWC_18build_script_build, symObjAddr: 0x255C, symBinAddr: 0x100012F80, symSize: 0x20 }
  - { offset: 0xEF89, size: 0x8, addend: 0x0, symName: __RNvXsz_NtNtCsaNl6UpbT7bw_4core3str7patternNtB5_14RejectAndMatchNtB5_14TwoWayStrategy9rejectingCs1bGpNmcICWC_18build_script_build, symObjAddr: 0x257C, symBinAddr: 0x100012FA0, symSize: 0x28 }
  - { offset: 0xF50E, size: 0x8, addend: 0x0, symName: __RINvMsx_NtNtCsaNl6UpbT7bw_4core3str7patternNtB6_14TwoWaySearcher4nextNtB6_14RejectAndMatchECs1bGpNmcICWC_18build_script_build, symObjAddr: 0x0, symBinAddr: 0x100010A24, symSize: 0x540 }
  - { offset: 0xF8AA, size: 0x8, addend: 0x0, symName: __RINvMsx_NtNtCsaNl6UpbT7bw_4core3str7patternNtB6_14TwoWaySearcher4nextNtB6_9MatchOnlyECs1bGpNmcICWC_18build_script_build, symObjAddr: 0x540, symBinAddr: 0x100010F64, symSize: 0x540 }
  - { offset: 0xFEB9, size: 0x8, addend: 0x0, symName: ___llvm_profile_get_magic, symObjAddr: 0x28, symBinAddr: 0x100012FE0, symSize: 0x14 }
  - { offset: 0xFEDA, size: 0x8, addend: 0x0, symName: ___llvm_profile_get_num_padding_bytes, symObjAddr: 0x44, symBinAddr: 0x100012FF4, symSize: 0xC }
  - { offset: 0xFEE2, size: 0x8, addend: 0x0, symName: ___llvm_profile_get_version, symObjAddr: 0x50, symBinAddr: 0x100013000, symSize: 0xC }
  - { offset: 0xFF0B, size: 0x8, addend: 0x0, symName: ___llvm_profile_get_version, symObjAddr: 0x50, symBinAddr: 0x100013000, symSize: 0xC }
  - { offset: 0xFF80, size: 0x8, addend: 0x0, symName: ___llvm_profile_is_continuous_mode_enabled, symObjAddr: 0x0, symBinAddr: 0x10001300C, symSize: 0x20 }
  - { offset: 0xFF9D, size: 0x8, addend: 0x0, symName: __MergedGlobals, symObjAddr: 0x3E20, symBinAddr: 0x10006D9C0, symSize: 0x0 }
  - { offset: 0xFFBF, size: 0x8, addend: 0x0, symName: __MergedGlobals, symObjAddr: 0x3E20, symBinAddr: 0x10006D9C0, symSize: 0x0 }
  - { offset: 0xFFEF, size: 0x8, addend: 0x0, symName: ___llvm_profile_is_continuous_mode_enabled, symObjAddr: 0x0, symBinAddr: 0x10001300C, symSize: 0x20 }
  - { offset: 0xFFF7, size: 0x8, addend: 0x0, symName: ___llvm_profile_enable_continuous_mode, symObjAddr: 0x20, symBinAddr: 0x10001302C, symSize: 0x10 }
  - { offset: 0x10007, size: 0x8, addend: 0x0, symName: ___llvm_profile_enable_continuous_mode, symObjAddr: 0x20, symBinAddr: 0x10001302C, symSize: 0x10 }
  - { offset: 0x1000F, size: 0x8, addend: 0x0, symName: ___llvm_profile_disable_continuous_mode, symObjAddr: 0x30, symBinAddr: 0x10001303C, symSize: 0xC }
  - { offset: 0x10024, size: 0x8, addend: 0x0, symName: ___llvm_profile_disable_continuous_mode, symObjAddr: 0x30, symBinAddr: 0x10001303C, symSize: 0xC }
  - { offset: 0x1002C, size: 0x8, addend: 0x0, symName: ___llvm_profile_set_page_size, symObjAddr: 0x3C, symBinAddr: 0x100013048, symSize: 0xC }
  - { offset: 0x10041, size: 0x8, addend: 0x0, symName: ___llvm_profile_set_page_size, symObjAddr: 0x3C, symBinAddr: 0x100013048, symSize: 0xC }
  - { offset: 0x10049, size: 0x8, addend: 0x0, symName: ___llvm_profile_get_size_for_buffer, symObjAddr: 0x48, symBinAddr: 0x100013054, symSize: 0xC4 }
  - { offset: 0x1006C, size: 0x8, addend: 0x0, symName: ___llvm_profile_get_size_for_buffer, symObjAddr: 0x48, symBinAddr: 0x100013054, symSize: 0xC4 }
  - { offset: 0x10074, size: 0x8, addend: 0x0, symName: ___llvm_profile_get_size_for_buffer_internal, symObjAddr: 0x10C, symBinAddr: 0x100013118, symSize: 0x1C0 }
  - { offset: 0x104D7, size: 0x8, addend: 0x0, symName: ___llvm_profile_get_size_for_buffer_internal, symObjAddr: 0x10C, symBinAddr: 0x100013118, symSize: 0x1C0 }
  - { offset: 0x104DF, size: 0x8, addend: 0x0, symName: ___llvm_profile_get_num_data, symObjAddr: 0x2CC, symBinAddr: 0x1000132D8, symSize: 0x10 }
  - { offset: 0x108CE, size: 0x8, addend: 0x0, symName: ___llvm_profile_get_num_data, symObjAddr: 0x2CC, symBinAddr: 0x1000132D8, symSize: 0x10 }
  - { offset: 0x108D6, size: 0x8, addend: 0x0, symName: ___llvm_profile_get_data_size, symObjAddr: 0x2DC, symBinAddr: 0x1000132E8, symSize: 0x10 }
  - { offset: 0x10907, size: 0x8, addend: 0x0, symName: ___llvm_profile_get_data_size, symObjAddr: 0x2DC, symBinAddr: 0x1000132E8, symSize: 0x10 }
  - { offset: 0x1090F, size: 0x8, addend: 0x0, symName: ___llvm_profile_get_num_vtable, symObjAddr: 0x2EC, symBinAddr: 0x1000132F8, symSize: 0x18 }
  - { offset: 0x10933, size: 0x8, addend: 0x0, symName: ___llvm_profile_get_data_size, symObjAddr: 0x2DC, symBinAddr: 0x1000132E8, symSize: 0x10 }
  - { offset: 0x10965, size: 0x8, addend: 0x0, symName: ___llvm_profile_get_num_vtable, symObjAddr: 0x2EC, symBinAddr: 0x1000132F8, symSize: 0x18 }
  - { offset: 0x1096D, size: 0x8, addend: 0x0, symName: ___llvm_profile_get_vtable_section_size, symObjAddr: 0x304, symBinAddr: 0x100013310, symSize: 0x8 }
  - { offset: 0x109BF, size: 0x8, addend: 0x0, symName: ___llvm_profile_get_vtable_section_size, symObjAddr: 0x304, symBinAddr: 0x100013310, symSize: 0x8 }
  - { offset: 0x109C7, size: 0x8, addend: 0x0, symName: ___llvm_profile_counter_entry_size, symObjAddr: 0x30C, symBinAddr: 0x100013318, symSize: 0x1C }
  - { offset: 0x109E8, size: 0x8, addend: 0x0, symName: ___llvm_profile_counter_entry_size, symObjAddr: 0x30C, symBinAddr: 0x100013318, symSize: 0x1C }
  - { offset: 0x109F0, size: 0x8, addend: 0x0, symName: ___llvm_profile_get_num_counters, symObjAddr: 0x328, symBinAddr: 0x100013334, symSize: 0x48 }
  - { offset: 0x10A00, size: 0x8, addend: 0x0, symName: ___llvm_profile_get_num_counters, symObjAddr: 0x328, symBinAddr: 0x100013334, symSize: 0x48 }
  - { offset: 0x10A08, size: 0x8, addend: 0x0, symName: ___llvm_profile_get_counters_size, symObjAddr: 0x370, symBinAddr: 0x10001337C, symSize: 0x5C }
  - { offset: 0x10A6D, size: 0x8, addend: 0x0, symName: ___llvm_profile_get_counters_size, symObjAddr: 0x370, symBinAddr: 0x10001337C, symSize: 0x5C }
  - { offset: 0x10A75, size: 0x8, addend: 0x0, symName: ___llvm_profile_get_num_bitmap_bytes, symObjAddr: 0x3CC, symBinAddr: 0x1000133D8, symSize: 0x8 }
  - { offset: 0x10B19, size: 0x8, addend: 0x0, symName: ___llvm_profile_get_num_bitmap_bytes, symObjAddr: 0x3CC, symBinAddr: 0x1000133D8, symSize: 0x8 }
  - { offset: 0x10B21, size: 0x8, addend: 0x0, symName: ___llvm_profile_get_name_size, symObjAddr: 0x3D4, symBinAddr: 0x1000133E0, symSize: 0x8 }
  - { offset: 0x10B42, size: 0x8, addend: 0x0, symName: ___llvm_profile_get_name_size, symObjAddr: 0x3D4, symBinAddr: 0x1000133E0, symSize: 0x8 }
  - { offset: 0x10B4A, size: 0x8, addend: 0x0, symName: ___llvm_profile_get_padding_sizes_for_counters, symObjAddr: 0x3DC, symBinAddr: 0x1000133E8, symSize: 0x15C }
  - { offset: 0x10B6B, size: 0x8, addend: 0x0, symName: ___llvm_profile_get_padding_sizes_for_counters, symObjAddr: 0x3DC, symBinAddr: 0x1000133E8, symSize: 0x15C }
  - { offset: 0x10B73, size: 0x8, addend: 0x0, symName: _initBufferWriter, symObjAddr: 0x538, symBinAddr: 0x100013544, symSize: 0x10 }
  - { offset: 0x10CC7, size: 0x8, addend: 0x0, symName: _initBufferWriter, symObjAddr: 0x538, symBinAddr: 0x100013544, symSize: 0x10 }
  - { offset: 0x10E31, size: 0x8, addend: 0x0, symName: __MergedGlobals, symObjAddr: 0xA4D8, symBinAddr: 0x10006D9D0, symSize: 0x0 }
  - { offset: 0x10F4D, size: 0x8, addend: 0x0, symName: __MergedGlobals, symObjAddr: 0xA4D8, symBinAddr: 0x10006D9D0, symSize: 0x0 }
  - { offset: 0x1117D, size: 0x8, addend: 0x0, symName: __MergedGlobals, symObjAddr: 0xA4D8, symBinAddr: 0x10006D9D0, symSize: 0x0 }
  - { offset: 0x112A2, size: 0x8, addend: 0x0, symName: _getCurFilenameLength, symObjAddr: 0x1C8, symBinAddr: 0x100013554, symSize: 0x108 }
  - { offset: 0x112AA, size: 0x8, addend: 0x0, symName: _getCurFilename, symObjAddr: 0x2D0, symBinAddr: 0x10001365C, symSize: 0x2B8 }
  - { offset: 0x11327, size: 0x8, addend: 0x0, symName: _getCurFilename, symObjAddr: 0x2D0, symBinAddr: 0x10001365C, symSize: 0x2B8 }
  - { offset: 0x11540, size: 0x8, addend: 0x0, symName: _parseAndSetFilename, symObjAddr: 0x688, symBinAddr: 0x100013914, symSize: 0x4B8 }
  - { offset: 0x11548, size: 0x8, addend: 0x0, symName: ___llvm_profile_initialize, symObjAddr: 0xB40, symBinAddr: 0x100013DCC, symSize: 0xB8 }
  - { offset: 0x11727, size: 0x8, addend: 0x0, symName: ___llvm_profile_initialize, symObjAddr: 0xB40, symBinAddr: 0x100013DCC, symSize: 0xB8 }
  - { offset: 0x117A3, size: 0x8, addend: 0x0, symName: ___llvm_profile_write_file, symObjAddr: 0xC74, symBinAddr: 0x100013E84, symSize: 0x1B4 }
  - { offset: 0x117AB, size: 0x8, addend: 0x0, symName: _writeFile, symObjAddr: 0xE28, symBinAddr: 0x100014038, symSize: 0x294 }
  - { offset: 0x118F6, size: 0x8, addend: 0x0, symName: _writeFile, symObjAddr: 0xE28, symBinAddr: 0x100014038, symSize: 0x294 }
  - { offset: 0x11A67, size: 0x8, addend: 0x0, symName: _writeFileWithoutReturn, symObjAddr: 0x138C, symBinAddr: 0x1000142CC, symSize: 0x4 }
  - { offset: 0x11A9C, size: 0x8, addend: 0x0, symName: _getProfileFileSizeForMerging, symObjAddr: 0x1574, symBinAddr: 0x1000142D0, symSize: 0x110 }
  - { offset: 0x11AA4, size: 0x8, addend: 0x0, symName: _mmapProfileForMerging, symObjAddr: 0x1684, symBinAddr: 0x1000143E0, symSize: 0xBC }
  - { offset: 0x11ADE, size: 0x8, addend: 0x0, symName: _mmapProfileForMerging, symObjAddr: 0x1684, symBinAddr: 0x1000143E0, symSize: 0xBC }
  - { offset: 0x11AE6, size: 0x8, addend: 0x0, symName: _mmapForContinuousMode, symObjAddr: 0x1740, symBinAddr: 0x10001449C, symSize: 0x264 }
  - { offset: 0x11B31, size: 0x8, addend: 0x0, symName: _mmapForContinuousMode, symObjAddr: 0x1740, symBinAddr: 0x10001449C, symSize: 0x264 }
  - { offset: 0x11B39, size: 0x8, addend: 0x0, symName: _fileWriter, symObjAddr: 0x19A4, symBinAddr: 0x100014700, symSize: 0x140 }
  - { offset: 0x11CF7, size: 0x8, addend: 0x0, symName: _fileWriter, symObjAddr: 0x19A4, symBinAddr: 0x100014700, symSize: 0x140 }
  - { offset: 0x11CFF, size: 0x8, addend: 0x0, symName: _truncateCurrentFile, symObjAddr: 0x1AE4, symBinAddr: 0x100014840, symSize: 0xD8 }
  - { offset: 0x11DBE, size: 0x8, addend: 0x0, symName: _truncateCurrentFile, symObjAddr: 0x1AE4, symBinAddr: 0x100014840, symSize: 0xD8 }
  - { offset: 0x11DC6, size: 0x8, addend: 0x0, symName: _initializeProfileForContinuousMode, symObjAddr: 0x1BBC, symBinAddr: 0x100014918, symSize: 0x25C }
  - { offset: 0x11E5D, size: 0x8, addend: 0x0, symName: _initializeProfileForContinuousMode, symObjAddr: 0x1BBC, symBinAddr: 0x100014918, symSize: 0x25C }
  - { offset: 0x11E65, size: 0x8, addend: 0x0, symName: _createProfileDir, symObjAddr: 0x1E18, symBinAddr: 0x100014B74, symSize: 0xA4 }
  - { offset: 0x12028, size: 0x8, addend: 0x0, symName: _createProfileDir, symObjAddr: 0x1E18, symBinAddr: 0x100014B74, symSize: 0xA4 }
  - { offset: 0x12030, size: 0x8, addend: 0x0, symName: _parseAndSetFilename.cold.1, symObjAddr: 0x1EBC, symBinAddr: 0x100048D74, symSize: 0x24 }
  - { offset: 0x12089, size: 0x8, addend: 0x0, symName: _parseAndSetFilename.cold.1, symObjAddr: 0x1EBC, symBinAddr: 0x100048D74, symSize: 0x24 }
  - { offset: 0x12091, size: 0x8, addend: 0x0, symName: _parseAndSetFilename.cold.2, symObjAddr: 0x1EE0, symBinAddr: 0x100048D98, symSize: 0x24 }
  - { offset: 0x120B3, size: 0x8, addend: 0x0, symName: _parseAndSetFilename.cold.2, symObjAddr: 0x1EE0, symBinAddr: 0x100048D98, symSize: 0x24 }
  - { offset: 0x120CD, size: 0x8, addend: 0x0, symName: _parseAndSetFilename.cold.2, symObjAddr: 0x1EE0, symBinAddr: 0x100048D98, symSize: 0x24 }
  - { offset: 0x120DD, size: 0x8, addend: 0x0, symName: _parseAndSetFilename.cold.2, symObjAddr: 0x1EE0, symBinAddr: 0x100048D98, symSize: 0x24 }
  - { offset: 0x12242, size: 0x8, addend: 0x0, symName: _lprofProfileDumped, symObjAddr: 0x0, symBinAddr: 0x100014C18, symSize: 0xC }
  - { offset: 0x1225F, size: 0x8, addend: 0x0, symName: _ProfileDumped, symObjAddr: 0x4E0, symBinAddr: 0x10006DAA0, symSize: 0x0 }
  - { offset: 0x1226F, size: 0x8, addend: 0x0, symName: _lprofProfileDumped, symObjAddr: 0x0, symBinAddr: 0x100014C18, symSize: 0xC }
  - { offset: 0x122B7, size: 0x8, addend: 0x0, symName: _lprofGetLoadModuleSignature, symObjAddr: 0x0, symBinAddr: 0x100014C24, symSize: 0xD0 }
  - { offset: 0x122E4, size: 0x8, addend: 0x0, symName: _VPMergeHook, symBinAddr: 0x10006D9B8, symSize: 0x0 }
  - { offset: 0x1254C, size: 0x8, addend: 0x0, symName: _lprofGetLoadModuleSignature, symObjAddr: 0x0, symBinAddr: 0x100014C24, symSize: 0xD0 }
  - { offset: 0x12554, size: 0x8, addend: 0x0, symName: ___llvm_profile_check_compatibility, symObjAddr: 0xD0, symBinAddr: 0x100014CF4, symSize: 0x1CC }
  - { offset: 0x125C4, size: 0x8, addend: 0x0, symName: ___llvm_profile_check_compatibility, symObjAddr: 0xD0, symBinAddr: 0x100014CF4, symSize: 0x1CC }
  - { offset: 0x125CC, size: 0x8, addend: 0x0, symName: ___llvm_profile_merge_from_buffer, symObjAddr: 0x29C, symBinAddr: 0x100014EC0, symSize: 0x3E8 }
  - { offset: 0x126A4, size: 0x8, addend: 0x0, symName: ___llvm_profile_merge_from_buffer, symObjAddr: 0x29C, symBinAddr: 0x100014EC0, symSize: 0x3E8 }
  - { offset: 0x12912, size: 0x8, addend: 0x0, symName: _lprofMergeValueProfData, symObjAddr: 0x0, symBinAddr: 0x1000152A8, symSize: 0xF0 }
  - { offset: 0x12923, size: 0x8, addend: 0x0, symName: _lprofMergeValueProfData, symObjAddr: 0x0, symBinAddr: 0x1000152A8, symSize: 0xF0 }
  - { offset: 0x12BEE, size: 0x8, addend: 0x0, symName: ___llvm_profile_begin_data, symObjAddr: 0x0, symBinAddr: 0x100015398, symSize: 0xC }
  - { offset: 0x12C0D, size: 0x8, addend: 0x0, symName: _CurrentVNode, symObjAddr: 0xC0, symBinAddr: 0x10006CEC0, symSize: 0x0 }
  - { offset: 0x12C89, size: 0x8, addend: 0x0, symName: _EndVNode, symObjAddr: 0xC8, symBinAddr: 0x10006CEC8, symSize: 0x0 }
  - { offset: 0x12C92, size: 0x8, addend: 0x0, symName: ___llvm_profile_begin_data, symObjAddr: 0x0, symBinAddr: 0x100015398, symSize: 0xC }
  - { offset: 0x12C9A, size: 0x8, addend: 0x0, symName: ___llvm_profile_end_data, symObjAddr: 0xC, symBinAddr: 0x1000153A4, symSize: 0xC }
  - { offset: 0x12CB3, size: 0x8, addend: 0x0, symName: ___llvm_profile_end_data, symObjAddr: 0xC, symBinAddr: 0x1000153A4, symSize: 0xC }
  - { offset: 0x12CBB, size: 0x8, addend: 0x0, symName: ___llvm_profile_begin_names, symObjAddr: 0x18, symBinAddr: 0x1000153B0, symSize: 0xC }
  - { offset: 0x12CD4, size: 0x8, addend: 0x0, symName: ___llvm_profile_begin_names, symObjAddr: 0x18, symBinAddr: 0x1000153B0, symSize: 0xC }
  - { offset: 0x12CDC, size: 0x8, addend: 0x0, symName: ___llvm_profile_end_names, symObjAddr: 0x24, symBinAddr: 0x1000153BC, symSize: 0xC }
  - { offset: 0x12CF5, size: 0x8, addend: 0x0, symName: ___llvm_profile_end_names, symObjAddr: 0x24, symBinAddr: 0x1000153BC, symSize: 0xC }
  - { offset: 0x12CFD, size: 0x8, addend: 0x0, symName: ___llvm_profile_begin_counters, symObjAddr: 0x30, symBinAddr: 0x1000153C8, symSize: 0xC }
  - { offset: 0x12D16, size: 0x8, addend: 0x0, symName: ___llvm_profile_begin_counters, symObjAddr: 0x30, symBinAddr: 0x1000153C8, symSize: 0xC }
  - { offset: 0x12D1E, size: 0x8, addend: 0x0, symName: ___llvm_profile_end_counters, symObjAddr: 0x3C, symBinAddr: 0x1000153D4, symSize: 0xC }
  - { offset: 0x12D37, size: 0x8, addend: 0x0, symName: ___llvm_profile_end_counters, symObjAddr: 0x3C, symBinAddr: 0x1000153D4, symSize: 0xC }
  - { offset: 0x12D3F, size: 0x8, addend: 0x0, symName: ___llvm_profile_begin_bitmap, symObjAddr: 0x48, symBinAddr: 0x1000153E0, symSize: 0xC }
  - { offset: 0x12D58, size: 0x8, addend: 0x0, symName: ___llvm_profile_begin_bitmap, symObjAddr: 0x48, symBinAddr: 0x1000153E0, symSize: 0xC }
  - { offset: 0x12D60, size: 0x8, addend: 0x0, symName: ___llvm_profile_end_bitmap, symObjAddr: 0x54, symBinAddr: 0x1000153EC, symSize: 0xC }
  - { offset: 0x12D79, size: 0x8, addend: 0x0, symName: ___llvm_profile_end_bitmap, symObjAddr: 0x54, symBinAddr: 0x1000153EC, symSize: 0xC }
  - { offset: 0x12D81, size: 0x8, addend: 0x0, symName: ___llvm_profile_begin_vtables, symObjAddr: 0x60, symBinAddr: 0x1000153F8, symSize: 0xC }
  - { offset: 0x12D9A, size: 0x8, addend: 0x0, symName: ___llvm_profile_begin_vtables, symObjAddr: 0x60, symBinAddr: 0x1000153F8, symSize: 0xC }
  - { offset: 0x12DA2, size: 0x8, addend: 0x0, symName: ___llvm_profile_end_vtables, symObjAddr: 0x6C, symBinAddr: 0x100015404, symSize: 0xC }
  - { offset: 0x12DBB, size: 0x8, addend: 0x0, symName: ___llvm_profile_end_vtables, symObjAddr: 0x6C, symBinAddr: 0x100015404, symSize: 0xC }
  - { offset: 0x12DC3, size: 0x8, addend: 0x0, symName: ___llvm_profile_begin_vtabnames, symObjAddr: 0x78, symBinAddr: 0x100015410, symSize: 0xC }
  - { offset: 0x12DDC, size: 0x8, addend: 0x0, symName: ___llvm_profile_begin_vtabnames, symObjAddr: 0x78, symBinAddr: 0x100015410, symSize: 0xC }
  - { offset: 0x12DE4, size: 0x8, addend: 0x0, symName: ___llvm_profile_end_vtabnames, symObjAddr: 0x84, symBinAddr: 0x10001541C, symSize: 0xC }
  - { offset: 0x12DFD, size: 0x8, addend: 0x0, symName: ___llvm_profile_end_vtabnames, symObjAddr: 0x84, symBinAddr: 0x10001541C, symSize: 0xC }
  - { offset: 0x12E1E, size: 0x8, addend: 0x0, symName: ___llvm_profile_begin_vnodes, symObjAddr: 0x9C, symBinAddr: 0x100015428, symSize: 0xC }
  - { offset: 0x12E26, size: 0x8, addend: 0x0, symName: ___llvm_profile_end_vnodes, symObjAddr: 0xA8, symBinAddr: 0x100015434, symSize: 0xC }
  - { offset: 0x12E3F, size: 0x8, addend: 0x0, symName: ___llvm_profile_end_vnodes, symObjAddr: 0xA8, symBinAddr: 0x100015434, symSize: 0xC }
  - { offset: 0x12E47, size: 0x8, addend: 0x0, symName: ___llvm_write_binary_ids, symObjAddr: 0xB4, symBinAddr: 0x100015440, symSize: 0x8 }
  - { offset: 0x12E60, size: 0x8, addend: 0x0, symName: ___llvm_write_binary_ids, symObjAddr: 0xB4, symBinAddr: 0x100015440, symSize: 0x8 }
  - { offset: 0x130E6, size: 0x8, addend: 0x0, symName: __GLOBAL__sub_I_InstrProfilingRuntime.cpp, symObjAddr: 0x0, symBinAddr: 0x100015448, symSize: 0x18 }
  - { offset: 0x13109, size: 0x8, addend: 0x0, symName: ___llvm_profile_runtime, symObjAddr: 0x590, symBinAddr: 0x10006D974, symSize: 0x0 }
  - { offset: 0x13139, size: 0x8, addend: 0x0, symName: __GLOBAL__sub_I_InstrProfilingRuntime.cpp, symObjAddr: 0x0, symBinAddr: 0x100015448, symSize: 0x18 }
  - { offset: 0x131B5, size: 0x8, addend: 0x0, symName: ___llvm_profile_recursive_mkdir, symObjAddr: 0x0, symBinAddr: 0x100015460, symSize: 0x58 }
  - { offset: 0x131BD, size: 0x8, addend: 0x0, symName: _lprofDirMode, symObjAddr: 0x5AC, symBinAddr: 0x10006CED0, symSize: 0x0 }
  - { offset: 0x131D4, size: 0x8, addend: 0x0, symName: _lprofDirMode, symObjAddr: 0x5AC, symBinAddr: 0x10006CED0, symSize: 0x0 }
  - { offset: 0x13209, size: 0x8, addend: 0x0, symName: ___llvm_profile_recursive_mkdir, symObjAddr: 0x0, symBinAddr: 0x100015460, symSize: 0x58 }
  - { offset: 0x13287, size: 0x8, addend: 0x0, symName: _lprofGetHostName, symObjAddr: 0x70, symBinAddr: 0x1000154B8, symSize: 0x80 }
  - { offset: 0x133BC, size: 0x8, addend: 0x0, symName: _lprofLockFileHandle, symObjAddr: 0x208, symBinAddr: 0x100015538, symSize: 0x90 }
  - { offset: 0x133C4, size: 0x8, addend: 0x0, symName: _lprofUnlockFileHandle, symObjAddr: 0x298, symBinAddr: 0x1000155C8, symSize: 0x90 }
  - { offset: 0x1344A, size: 0x8, addend: 0x0, symName: _lprofUnlockFileHandle, symObjAddr: 0x298, symBinAddr: 0x1000155C8, symSize: 0x90 }
  - { offset: 0x13452, size: 0x8, addend: 0x0, symName: _lprofOpenFileEx, symObjAddr: 0x328, symBinAddr: 0x100015658, symSize: 0xD0 }
  - { offset: 0x134B2, size: 0x8, addend: 0x0, symName: _lprofOpenFileEx, symObjAddr: 0x328, symBinAddr: 0x100015658, symSize: 0xD0 }
  - { offset: 0x1352A, size: 0x8, addend: 0x0, symName: _lprofFindFirstDirSeparator, symObjAddr: 0x538, symBinAddr: 0x100015728, symSize: 0x8 }
  - { offset: 0x13569, size: 0x8, addend: 0x0, symName: _lprofSuspendSigKill, symObjAddr: 0x548, symBinAddr: 0x100015730, symSize: 0x8 }
  - { offset: 0x13571, size: 0x8, addend: 0x0, symName: _lprofRestoreSigKill, symObjAddr: 0x550, symBinAddr: 0x100015738, symSize: 0x4 }
  - { offset: 0x1358C, size: 0x8, addend: 0x0, symName: _lprofRestoreSigKill, symObjAddr: 0x550, symBinAddr: 0x100015738, symSize: 0x4 }
  - { offset: 0x135AB, size: 0x8, addend: 0x0, symName: _lprofAtExit, symObjAddr: 0x5A8, symBinAddr: 0x10001573C, symSize: 0x4 }
  - { offset: 0x135B3, size: 0x8, addend: 0x0, symName: _lprofDirMode, symObjAddr: 0x5AC, symBinAddr: 0x10006CED0, symSize: 0x0 }
  - { offset: 0x1387D, size: 0x8, addend: 0x0, symName: _getValueProfRecordHeaderSize, symObjAddr: 0x0, symBinAddr: 0x100015740, symSize: 0xC }
  - { offset: 0x1389C, size: 0x8, addend: 0x0, symName: _VPMaxNumValsPerSite, symObjAddr: 0x1740, symBinAddr: 0x10006CED8, symSize: 0x0 }
  - { offset: 0x13931, size: 0x8, addend: 0x0, symName: __MergedGlobals, symObjAddr: 0xEF50, symBinAddr: 0x10006DAD0, symSize: 0x0 }
  - { offset: 0x13958, size: 0x8, addend: 0x0, symName: __MergedGlobals, symObjAddr: 0xEF50, symBinAddr: 0x10006DAD0, symSize: 0x0 }
  - { offset: 0x1396F, size: 0x8, addend: 0x0, symName: __MergedGlobals, symObjAddr: 0xEF50, symBinAddr: 0x10006DAD0, symSize: 0x0 }
  - { offset: 0x1398E, size: 0x8, addend: 0x0, symName: _TheVPDataReader, symObjAddr: 0x1748, symBinAddr: 0x10006CEE0, symSize: 0x0 }
  - { offset: 0x13C2E, size: 0x8, addend: 0x0, symName: _RTRecord, symObjAddr: 0xEF28, symBinAddr: 0x10006DAA8, symSize: 0x0 }
  - { offset: 0x13E22, size: 0x8, addend: 0x0, symName: _getValueProfRecordHeaderSize, symObjAddr: 0x0, symBinAddr: 0x100015740, symSize: 0xC }
  - { offset: 0x13E77, size: 0x8, addend: 0x0, symName: _getValueProfRecordValueData, symObjAddr: 0x1C, symBinAddr: 0x10001574C, symSize: 0x14 }
  - { offset: 0x13F23, size: 0x8, addend: 0x0, symName: _getValueProfRecordNext, symObjAddr: 0x1B4, symBinAddr: 0x100015760, symSize: 0x1A4 }
  - { offset: 0x13F2B, size: 0x8, addend: 0x0, symName: _getFirstValueProfRecord, symObjAddr: 0x358, symBinAddr: 0x100015904, symSize: 0x8 }
  - { offset: 0x13F92, size: 0x8, addend: 0x0, symName: _getFirstValueProfRecord, symObjAddr: 0x358, symBinAddr: 0x100015904, symSize: 0x8 }
  - { offset: 0x1406F, size: 0x8, addend: 0x0, symName: _lprofSetupValueProfiler, symObjAddr: 0xB38, symBinAddr: 0x10001590C, symSize: 0x64 }
  - { offset: 0x14181, size: 0x8, addend: 0x0, symName: ___llvm_profile_instrument_target_value, symObjAddr: 0xE30, symBinAddr: 0x100015970, symSize: 0x290 }
  - { offset: 0x1429F, size: 0x8, addend: 0x0, symName: _lprofGetVPDataReader, symObjAddr: 0x1108, symBinAddr: 0x100015C00, symSize: 0xC }
  - { offset: 0x142A7, size: 0x8, addend: 0x0, symName: _initializeValueProfRuntimeRecord, symObjAddr: 0x1114, symBinAddr: 0x100015C0C, symSize: 0x210 }
  - { offset: 0x142C1, size: 0x8, addend: 0x0, symName: _initializeValueProfRuntimeRecord, symObjAddr: 0x1114, symBinAddr: 0x100015C0C, symSize: 0x210 }
  - { offset: 0x142C9, size: 0x8, addend: 0x0, symName: _getNumValueDataForSiteWrapper, symObjAddr: 0x1324, symBinAddr: 0x100015E1C, symSize: 0x14 }
  - { offset: 0x143D7, size: 0x8, addend: 0x0, symName: _getNumValueDataForSiteWrapper, symObjAddr: 0x1324, symBinAddr: 0x100015E1C, symSize: 0x14 }
  - { offset: 0x143DF, size: 0x8, addend: 0x0, symName: _getValueProfDataSizeWrapper, symObjAddr: 0x1338, symBinAddr: 0x100015E30, symSize: 0xDC }
  - { offset: 0x1441C, size: 0x8, addend: 0x0, symName: _getNumValueDataForSiteWrapper, symObjAddr: 0x1324, symBinAddr: 0x100015E1C, symSize: 0x14 }
  - { offset: 0x14441, size: 0x8, addend: 0x0, symName: _getValueProfDataSizeWrapper, symObjAddr: 0x1338, symBinAddr: 0x100015E30, symSize: 0xDC }
  - { offset: 0x14449, size: 0x8, addend: 0x0, symName: _getNextNValueData, symObjAddr: 0x1414, symBinAddr: 0x100015F0C, symSize: 0x44 }
  - { offset: 0x144DF, size: 0x8, addend: 0x0, symName: _getNextNValueData, symObjAddr: 0x1414, symBinAddr: 0x100015F0C, symSize: 0x44 }
  - { offset: 0x144E7, size: 0x8, addend: 0x0, symName: _getNumValueSitesRT, symObjAddr: 0x1458, symBinAddr: 0x100015F50, symSize: 0x10 }
  - { offset: 0x1456F, size: 0x8, addend: 0x0, symName: _getNumValueSitesRT, symObjAddr: 0x1458, symBinAddr: 0x100015F50, symSize: 0x10 }
  - { offset: 0x14577, size: 0x8, addend: 0x0, symName: _getNumValueDataRT, symObjAddr: 0x1468, symBinAddr: 0x100015F60, symSize: 0x190 }
  - { offset: 0x145B0, size: 0x8, addend: 0x0, symName: _getNumValueDataRT, symObjAddr: 0x1468, symBinAddr: 0x100015F60, symSize: 0x190 }
  - { offset: 0x14622, size: 0x8, addend: 0x0, symName: ___llvm_profile_instrument_target_value.cold.1, symObjAddr: 0x161C, symBinAddr: 0x100048DBC, symSize: 0x24 }
  - { offset: 0x146B2, size: 0x8, addend: 0x0, symName: ___llvm_profile_raw_version, symObjAddr: 0x0, symBinAddr: 0x10006CF10, symSize: 0x0 }
  - { offset: 0x146F4, size: 0x8, addend: 0x0, symName: _lprofBufferWriter, symObjAddr: 0x0, symBinAddr: 0x1000160F0, symSize: 0x6C }
  - { offset: 0x14713, size: 0x8, addend: 0x0, symName: _FreeHook, symObjAddr: 0x4F30, symBinAddr: 0x10006D978, symSize: 0x0 }
  - { offset: 0x14739, size: 0x8, addend: 0x0, symName: _DynamicBufferIOBuffer, symObjAddr: 0x4F38, symBinAddr: 0x10006D980, symSize: 0x0 }
  - { offset: 0x14767, size: 0x8, addend: 0x0, symName: _VPBufferSize, symObjAddr: 0x4F40, symBinAddr: 0x10006D988, symSize: 0x0 }
  - { offset: 0x1478E, size: 0x8, addend: 0x0, symName: __MergedGlobals, symObjAddr: 0x6F48, symBinAddr: 0x10006FAE0, symSize: 0x0 }
  - { offset: 0x148D8, size: 0x8, addend: 0x0, symName: _BufferIOBuffer, symObjAddr: 0x4F48, symBinAddr: 0x10006DAE0, symSize: 0x0 }
  - { offset: 0x14902, size: 0x8, addend: 0x0, symName: __MergedGlobals, symObjAddr: 0x6F48, symBinAddr: 0x10006FAE0, symSize: 0x0 }
  - { offset: 0x1497E, size: 0x8, addend: 0x0, symName: _lprofBufferWriter, symObjAddr: 0x0, symBinAddr: 0x1000160F0, symSize: 0x6C }
  - { offset: 0x14A96, size: 0x8, addend: 0x0, symName: _lprofBufferIOWrite, symObjAddr: 0x100, symBinAddr: 0x10001615C, symSize: 0x134 }
  - { offset: 0x14B95, size: 0x8, addend: 0x0, symName: _lprofWriteData, symObjAddr: 0x2F4, symBinAddr: 0x100016290, symSize: 0xD4 }
  - { offset: 0x14B9D, size: 0x8, addend: 0x0, symName: _lprofWriteDataImpl, symObjAddr: 0x3C8, symBinAddr: 0x100016364, symSize: 0x46C }
  - { offset: 0x14FC2, size: 0x8, addend: 0x0, symName: _lprofWriteDataImpl, symObjAddr: 0x3C8, symBinAddr: 0x100016364, symSize: 0x46C }
  - { offset: 0x152D4, size: 0x8, addend: 0x0, symName: _writeOneValueProfData, symObjAddr: 0x8C0, symBinAddr: 0x1000167D0, symSize: 0x4A8 }
  - { offset: 0x157B2, size: 0x8, addend: 0x0, symName: '__ZN5alloc11collections5btree4node208Handle$LT$alloc..collections..btree..node..NodeRef$LT$alloc..collections..btree..node..marker..Mut$C$K$C$V$C$alloc..collections..btree..node..marker..Leaf$GT$$C$alloc..collections..btree..node..marker..KV$GT$5split17ha09fe2f6ae84e77eE', symObjAddr: 0x1166C, symBinAddr: 0x100021678, symSize: 0x164 }
  - { offset: 0x15B89, size: 0x8, addend: 0x0, symName: '__ZN5alloc11collections5btree4node212Handle$LT$alloc..collections..btree..node..NodeRef$LT$alloc..collections..btree..node..marker..Mut$C$K$C$V$C$alloc..collections..btree..node..marker..Internal$GT$$C$alloc..collections..btree..node..marker..KV$GT$5split17h8a06bb5830746347E', symObjAddr: 0x11C34, symBinAddr: 0x1000217DC, symSize: 0x218 }
  - { offset: 0x16151, size: 0x8, addend: 0x0, symName: '__ZN5alloc11collections5btree6remove259_$LT$impl$u20$alloc..collections..btree..node..Handle$LT$alloc..collections..btree..node..NodeRef$LT$alloc..collections..btree..node..marker..Mut$C$K$C$V$C$alloc..collections..btree..node..marker..Leaf$GT$$C$alloc..collections..btree..node..marker..KV$GT$$GT$14remove_leaf_kv17he90c15582b4564a9E', symObjAddr: 0x13988, symBinAddr: 0x10002201C, symSize: 0x52C }
  - { offset: 0x1771D, size: 0x8, addend: 0x0, symName: '__ZN5alloc11collections5btree4node29BalancingContext$LT$K$C$V$GT$15bulk_steal_left17hbba92f5d6a683d2bE', symObjAddr: 0x1235C, symBinAddr: 0x1000219F4, symSize: 0x1F4 }
  - { offset: 0x17C4D, size: 0x8, addend: 0x0, symName: '__ZN5alloc11collections5btree4node29BalancingContext$LT$K$C$V$GT$16bulk_steal_right17hbe50625095942a6eE', symObjAddr: 0x1281C, symBinAddr: 0x100021BE8, symSize: 0x240 }
  - { offset: 0x1829B, size: 0x8, addend: 0x0, symName: '__ZN5alloc11collections5btree4node29BalancingContext$LT$K$C$V$GT$8do_merge17h745f74eea44b50d0E', symObjAddr: 0x12CB4, symBinAddr: 0x100021E28, symSize: 0x1F4 }
  - { offset: 0x18B61, size: 0x8, addend: 0x0, symName: '__ZN5alloc11collections5btree3map25IntoIter$LT$K$C$V$C$A$GT$10dying_next17ha97a3f555acf7d48E', symObjAddr: 0x1105C, symBinAddr: 0x100021228, symSize: 0x228 }
  - { offset: 0x18F07, size: 0x8, addend: 0x0, symName: '__ZN5alloc11collections5btree3map25IntoIter$LT$K$C$V$C$A$GT$10dying_next17hb30339cd7068d6cfE', symObjAddr: 0x11284, symBinAddr: 0x100021450, symSize: 0x228 }
  - { offset: 0x19F8F, size: 0x8, addend: 0x0, symName: '__ZN5alloc7raw_vec19RawVec$LT$T$C$A$GT$8grow_one17h06cf0433792cf41cE', symObjAddr: 0x14498, symBinAddr: 0x100022908, symSize: 0xB4 }
  - { offset: 0x1A0A5, size: 0x8, addend: 0x0, symName: '__ZN5alloc7raw_vec19RawVec$LT$T$C$A$GT$8grow_one17h0ff3cfc767e809c5E', symObjAddr: 0x1454C, symBinAddr: 0x1000229BC, symSize: 0xC4 }
  - { offset: 0x1A1BB, size: 0x8, addend: 0x0, symName: '__ZN5alloc7raw_vec19RawVec$LT$T$C$A$GT$8grow_one17h2a7a88545eefe0b5E', symObjAddr: 0x14610, symBinAddr: 0x100022A80, symSize: 0xC4 }
  - { offset: 0x1A2D1, size: 0x8, addend: 0x0, symName: '__ZN5alloc7raw_vec19RawVec$LT$T$C$A$GT$8grow_one17h33ef86bd5bc7babfE', symObjAddr: 0x146D4, symBinAddr: 0x100022B44, symSize: 0xB4 }
  - { offset: 0x1A3E7, size: 0x8, addend: 0x0, symName: '__ZN5alloc7raw_vec19RawVec$LT$T$C$A$GT$8grow_one17h4794d3730a636672E', symObjAddr: 0x1484C, symBinAddr: 0x100022BF8, symSize: 0xC4 }
  - { offset: 0x1A4FD, size: 0x8, addend: 0x0, symName: '__ZN5alloc7raw_vec19RawVec$LT$T$C$A$GT$8grow_one17h4b7a36f6d62b1585E', symObjAddr: 0x14910, symBinAddr: 0x100022CBC, symSize: 0xB4 }
  - { offset: 0x1A613, size: 0x8, addend: 0x0, symName: '__ZN5alloc7raw_vec19RawVec$LT$T$C$A$GT$8grow_one17h4ec275d7687f1e24E', symObjAddr: 0x149C4, symBinAddr: 0x100022D70, symSize: 0xC4 }
  - { offset: 0x1A729, size: 0x8, addend: 0x0, symName: '__ZN5alloc7raw_vec19RawVec$LT$T$C$A$GT$8grow_one17h755f70e15600008eE', symObjAddr: 0x14A88, symBinAddr: 0x100022E34, symSize: 0xB4 }
  - { offset: 0x1A83F, size: 0x8, addend: 0x0, symName: '__ZN5alloc7raw_vec19RawVec$LT$T$C$A$GT$8grow_one17h9a9a76236db74635E', symObjAddr: 0x14B3C, symBinAddr: 0x100022EE8, symSize: 0xC0 }
  - { offset: 0x1A955, size: 0x8, addend: 0x0, symName: '__ZN5alloc7raw_vec19RawVec$LT$T$C$A$GT$8grow_one17hbdf039f48f951a6eE', symObjAddr: 0x14BFC, symBinAddr: 0x100022FA8, symSize: 0xC0 }
  - { offset: 0x1AA6B, size: 0x8, addend: 0x0, symName: '__ZN5alloc7raw_vec19RawVec$LT$T$C$A$GT$8grow_one17hf24d0ccf3cd16788E', symObjAddr: 0x14CBC, symBinAddr: 0x100023068, symSize: 0xC0 }
  - { offset: 0x1B07D, size: 0x8, addend: 0x0, symName: __ZN5alloc7raw_vec11finish_grow17h2d571ea7b67f06b7E, symObjAddr: 0x14418, symBinAddr: 0x10004BD6C, symSize: 0x80 }
  - { offset: 0x1B118, size: 0x8, addend: 0x0, symName: '__ZN5alloc7raw_vec20RawVecInner$LT$A$GT$7reserve21do_reserve_and_handle17h4b2c29e8db0b9268E', symObjAddr: 0x14D7C, symBinAddr: 0x10004BDEC, symSize: 0xF0 }
  - { offset: 0x1C195, size: 0x8, addend: 0x0, symName: __ZN5alloc5alloc15exchange_malloc17h9685023251c359e7E, symObjAddr: 0x143CC, symBinAddr: 0x1000228BC, symSize: 0x4C }
  - { offset: 0x1C263, size: 0x8, addend: 0x0, symName: '__ZN5alloc4sync16Arc$LT$T$C$A$GT$9drop_slow17h568ad2c88e43a2e4E', symObjAddr: 0x13FE4, symBinAddr: 0x100022548, symSize: 0x34 }
  - { offset: 0x1C340, size: 0x8, addend: 0x0, symName: '__ZN5alloc4sync16Arc$LT$T$C$A$GT$9drop_slow17h568f10379158be3aE', symObjAddr: 0x14018, symBinAddr: 0x10002257C, symSize: 0xC0 }
  - { offset: 0x1C665, size: 0x8, addend: 0x0, symName: '__ZN5alloc4sync16Arc$LT$T$C$A$GT$9drop_slow17h74c044505d97b8fcE', symObjAddr: 0x140D8, symBinAddr: 0x10002263C, symSize: 0x78 }
  - { offset: 0x1C831, size: 0x8, addend: 0x0, symName: '__ZN5alloc4sync16Arc$LT$T$C$A$GT$9drop_slow17h8f2220b00493c4e4E', symObjAddr: 0x14150, symBinAddr: 0x1000226B4, symSize: 0xA0 }
  - { offset: 0x1CB29, size: 0x8, addend: 0x0, symName: '__ZN5alloc4sync16Arc$LT$T$C$A$GT$9drop_slow17hb6a5023acd32b46fE', symObjAddr: 0x14264, symBinAddr: 0x100022754, symSize: 0xD0 }
  - { offset: 0x1CD3E, size: 0x8, addend: 0x0, symName: '__ZN5alloc4sync16Arc$LT$T$C$A$GT$9drop_slow17hd5e62bd79ab5d7f0E', symObjAddr: 0x14334, symBinAddr: 0x100022824, symSize: 0x98 }
  - { offset: 0x1D271, size: 0x8, addend: 0x0, symName: '__ZN64_$LT$alloc..ffi..c_str..NulError$u20$as$u20$core..fmt..Debug$GT$3fmt17hb25a36ba1a7f247bE', symObjAddr: 0x1BBE4, symBinAddr: 0x100029EA0, symSize: 0x4C }
  - { offset: 0x1D644, size: 0x8, addend: 0x0, symName: '__ZN58_$LT$alloc..string..String$u20$as$u20$core..fmt..Debug$GT$3fmt17hf1e461d83be89b72E', symObjAddr: 0xF8D0, symBinAddr: 0x100021060, symSize: 0x10 }
  - { offset: 0x1D6FF, size: 0x8, addend: 0x0, symName: '__ZN58_$LT$alloc..string..String$u20$as$u20$core..fmt..Write$GT$10write_char17h5afa657ba1086fe6E', symObjAddr: 0xF8E0, symBinAddr: 0x100021070, symSize: 0x138 }
  - { offset: 0x1D8A2, size: 0x8, addend: 0x0, symName: '__ZN58_$LT$alloc..string..String$u20$as$u20$core..fmt..Write$GT$9write_str17hba5566b7261b3df3E', symObjAddr: 0xFA18, symBinAddr: 0x1000211A8, symSize: 0x80 }
  - { offset: 0x1D9FB, size: 0x8, addend: 0x0, symName: '__ZN60_$LT$alloc..string..String$u20$as$u20$core..fmt..Display$GT$3fmt17h55315b95f551f900E', symObjAddr: 0x1BBD4, symBinAddr: 0x100029E90, symSize: 0x10 }
  - { offset: 0x1F050, size: 0x8, addend: 0x0, symName: '__ZN4core3ptr107drop_in_place$LT$core..pin..Pin$LT$alloc..boxed..Box$LT$std..sys..pal..unix..sync..mutex..Mutex$GT$$GT$$GT$17h3aeea96dd755cfb4E', symObjAddr: 0x1CF8, symBinAddr: 0x100017590, symSize: 0x2C }
  - { offset: 0x1F0E7, size: 0x8, addend: 0x0, symName: '__ZN4core3ptr119drop_in_place$LT$std..io..default_write_fmt..Adapter$LT$std..io..cursor..Cursor$LT$$RF$mut$u20$$u5b$u8$u5d$$GT$$GT$$GT$17h8294f296a7dc0264E', symObjAddr: 0x1DA8, symBinAddr: 0x1000175BC, symSize: 0x10 }
  - { offset: 0x1F0FE, size: 0x8, addend: 0x0, symName: '__ZN4core3ptr119drop_in_place$LT$std..io..default_write_fmt..Adapter$LT$std..io..cursor..Cursor$LT$$RF$mut$u20$$u5b$u8$u5d$$GT$$GT$$GT$17h8294f296a7dc0264E', symObjAddr: 0x1DA8, symBinAddr: 0x1000175BC, symSize: 0x10 }
  - { offset: 0x1F11F, size: 0x8, addend: 0x0, symName: '__ZN4core3ptr123drop_in_place$LT$addr2line..Context$LT$gimli..read..endian_slice..EndianSlice$LT$gimli..endianity..LittleEndian$GT$$GT$$GT$17h86eb599b9bd6b6b4E', symObjAddr: 0x1DB8, symBinAddr: 0x1000175CC, symSize: 0x70 }
  - { offset: 0x1F202, size: 0x8, addend: 0x0, symName: '__ZN4core3ptr128drop_in_place$LT$core..result..Result$LT$$RF$std..thread..Thread$C$$LP$$RF$std..thread..Thread$C$std..thread..Thread$RP$$GT$$GT$17h962b0ef080f547dcE', symObjAddr: 0x1F70, symBinAddr: 0x10001763C, symSize: 0x28 }
  - { offset: 0x1F3AC, size: 0x8, addend: 0x0, symName: '__ZN4core3ptr129drop_in_place$LT$addr2line..unit..ResUnit$LT$gimli..read..endian_slice..EndianSlice$LT$gimli..endianity..LittleEndian$GT$$GT$$GT$17h6704d8d711f50964E', symObjAddr: 0x1F98, symBinAddr: 0x100017664, symSize: 0xE4 }
  - { offset: 0x1F5CE, size: 0x8, addend: 0x0, symName: '__ZN4core3ptr129drop_in_place$LT$addr2line..unit..SupUnit$LT$gimli..read..endian_slice..EndianSlice$LT$gimli..endianity..LittleEndian$GT$$GT$$GT$17h3178d992ad3814bdE', symObjAddr: 0x207C, symBinAddr: 0x100017748, symSize: 0x54 }
  - { offset: 0x1F6A9, size: 0x8, addend: 0x0, symName: '__ZN4core3ptr130drop_in_place$LT$addr2line..unit..ResUnits$LT$gimli..read..endian_slice..EndianSlice$LT$gimli..endianity..LittleEndian$GT$$GT$$GT$17hec2ee29328c5cc7bE', symObjAddr: 0x20D0, symBinAddr: 0x10001779C, symSize: 0xD0 }
  - { offset: 0x1F852, size: 0x8, addend: 0x0, symName: '__ZN4core3ptr130drop_in_place$LT$addr2line..unit..SupUnits$LT$gimli..read..endian_slice..EndianSlice$LT$gimli..endianity..LittleEndian$GT$$GT$$GT$17h1322e2d105d2f1f9E', symObjAddr: 0x21A0, symBinAddr: 0x10001786C, symSize: 0xE4 }
  - { offset: 0x1FA10, size: 0x8, addend: 0x0, symName: '__ZN4core3ptr130drop_in_place$LT$gimli..read..dwarf..Dwarf$LT$gimli..read..endian_slice..EndianSlice$LT$gimli..endianity..LittleEndian$GT$$GT$$GT$17hf3b20fbd9db1a9fdE', symObjAddr: 0x2284, symBinAddr: 0x100017950, symSize: 0x58 }
  - { offset: 0x1FADE, size: 0x8, addend: 0x0, symName: '__ZN4core3ptr131drop_in_place$LT$$u5b$core..option..Option$LT$core..option..Option$LT$std..backtrace_rs..symbolize..gimli..Mapping$GT$$GT$$u5d$$GT$17h018dc685d3dd2730E', symObjAddr: 0x22DC, symBinAddr: 0x1000179A8, symSize: 0xCC }
  - { offset: 0x1FB88, size: 0x8, addend: 0x0, symName: '__ZN4core3ptr137drop_in_place$LT$gimli..read..dwarf..Unit$LT$gimli..read..endian_slice..EndianSlice$LT$gimli..endianity..LittleEndian$GT$$C$usize$GT$$GT$17h4031e9c5dec06b9aE', symObjAddr: 0x246C, symBinAddr: 0x100017A74, symSize: 0x54 }
  - { offset: 0x1FC85, size: 0x8, addend: 0x0, symName: '__ZN4core3ptr138drop_in_place$LT$addr2line..function..LazyFunction$LT$gimli..read..endian_slice..EndianSlice$LT$gimli..endianity..LittleEndian$GT$$GT$$GT$17ha3709aaa52158f89E', symObjAddr: 0x24C0, symBinAddr: 0x100017AC8, symSize: 0x64 }
  - { offset: 0x1FC9C, size: 0x8, addend: 0x0, symName: '__ZN4core3ptr138drop_in_place$LT$addr2line..function..LazyFunction$LT$gimli..read..endian_slice..EndianSlice$LT$gimli..endianity..LittleEndian$GT$$GT$$GT$17ha3709aaa52158f89E', symObjAddr: 0x24C0, symBinAddr: 0x100017AC8, symSize: 0x64 }
  - { offset: 0x1FCB1, size: 0x8, addend: 0x0, symName: '__ZN4core3ptr138drop_in_place$LT$addr2line..function..LazyFunction$LT$gimli..read..endian_slice..EndianSlice$LT$gimli..endianity..LittleEndian$GT$$GT$$GT$17ha3709aaa52158f89E', symObjAddr: 0x24C0, symBinAddr: 0x100017AC8, symSize: 0x64 }
  - { offset: 0x1FCC6, size: 0x8, addend: 0x0, symName: '__ZN4core3ptr138drop_in_place$LT$addr2line..function..LazyFunction$LT$gimli..read..endian_slice..EndianSlice$LT$gimli..endianity..LittleEndian$GT$$GT$$GT$17ha3709aaa52158f89E', symObjAddr: 0x24C0, symBinAddr: 0x100017AC8, symSize: 0x64 }
  - { offset: 0x1FE08, size: 0x8, addend: 0x0, symName: '__ZN4core3ptr144drop_in_place$LT$alloc..vec..Vec$LT$core..option..Option$LT$core..option..Option$LT$std..backtrace_rs..symbolize..gimli..Mapping$GT$$GT$$GT$$GT$17he58f1b72666b9c59E', symObjAddr: 0x2524, symBinAddr: 0x100017B2C, symSize: 0x78 }
  - { offset: 0x1FF70, size: 0x8, addend: 0x0, symName: '__ZN4core3ptr152drop_in_place$LT$alloc..vec..Vec$LT$addr2line..unit..ResUnit$LT$gimli..read..endian_slice..EndianSlice$LT$gimli..endianity..LittleEndian$GT$$GT$$GT$$GT$17he2165088e8298335E', symObjAddr: 0x2668, symBinAddr: 0x100017BA4, symSize: 0xC4 }
  - { offset: 0x200DF, size: 0x8, addend: 0x0, symName: '__ZN4core3ptr152drop_in_place$LT$alloc..vec..Vec$LT$addr2line..unit..SupUnit$LT$gimli..read..endian_slice..EndianSlice$LT$gimli..endianity..LittleEndian$GT$$GT$$GT$$GT$17h87f5dc9d3cca3a77E', symObjAddr: 0x272C, symBinAddr: 0x100017C68, symSize: 0xF4 }
  - { offset: 0x202F7, size: 0x8, addend: 0x0, symName: '__ZN4core3ptr156drop_in_place$LT$alloc..boxed..Box$LT$$u5b$core..option..Option$LT$core..option..Option$LT$std..backtrace_rs..symbolize..gimli..Mapping$GT$$GT$$u5d$$GT$$GT$17h662502e0fd7f60b9E', symObjAddr: 0x2820, symBinAddr: 0x100017D5C, symSize: 0xF8 }
  - { offset: 0x20421, size: 0x8, addend: 0x0, symName: '__ZN4core3ptr159drop_in_place$LT$alloc..sync..ArcInner$LT$gimli..read..dwarf..Dwarf$LT$gimli..read..endian_slice..EndianSlice$LT$gimli..endianity..LittleEndian$GT$$GT$$GT$$GT$17ha75a7326775ef05eE', symObjAddr: 0x2918, symBinAddr: 0x100017E54, symSize: 0x5C }
  - { offset: 0x204E6, size: 0x8, addend: 0x0, symName: '__ZN4core3ptr161drop_in_place$LT$alloc..vec..Vec$LT$addr2line..function..LazyFunction$LT$gimli..read..endian_slice..EndianSlice$LT$gimli..endianity..LittleEndian$GT$$GT$$GT$$GT$17hd921ce6f632b87b3E', symObjAddr: 0x2974, symBinAddr: 0x100017EB0, symSize: 0xAC }
  - { offset: 0x20723, size: 0x8, addend: 0x0, symName: '__ZN4core3ptr172drop_in_place$LT$core..result..Result$LT$addr2line..Context$LT$gimli..read..endian_slice..EndianSlice$LT$gimli..endianity..LittleEndian$GT$$GT$$C$gimli..read..Error$GT$$GT$17h1cda5e1d1a7951dcE', symObjAddr: 0x2ACC, symBinAddr: 0x100017F5C, symSize: 0x80 }
  - { offset: 0x207B8, size: 0x8, addend: 0x0, symName: '__ZN4core3ptr173drop_in_place$LT$alloc..boxed..Box$LT$$u5b$addr2line..function..LazyFunction$LT$gimli..read..endian_slice..EndianSlice$LT$gimli..endianity..LittleEndian$GT$$GT$$u5d$$GT$$GT$17h34d35d9ea3d3b9d5E', symObjAddr: 0x2B4C, symBinAddr: 0x100017FDC, symSize: 0x9C }
  - { offset: 0x207CF, size: 0x8, addend: 0x0, symName: '__ZN4core3ptr173drop_in_place$LT$alloc..boxed..Box$LT$$u5b$addr2line..function..LazyFunction$LT$gimli..read..endian_slice..EndianSlice$LT$gimli..endianity..LittleEndian$GT$$GT$$u5d$$GT$$GT$17h34d35d9ea3d3b9d5E', symObjAddr: 0x2B4C, symBinAddr: 0x100017FDC, symSize: 0x9C }
  - { offset: 0x20A14, size: 0x8, addend: 0x0, symName: '__ZN4core3ptr181drop_in_place$LT$core..option..Option$LT$gimli..read..line..IncompleteLineProgram$LT$gimli..read..endian_slice..EndianSlice$LT$gimli..endianity..LittleEndian$GT$$C$usize$GT$$GT$$GT$17h59a58c9c9c958e24E', symObjAddr: 0x2C58, symBinAddr: 0x100018078, symSize: 0x98 }
  - { offset: 0x20CCF, size: 0x8, addend: 0x0, symName: '__ZN4core3ptr181drop_in_place$LT$core..result..Result$LT$addr2line..frame..FrameIter$LT$gimli..read..endian_slice..EndianSlice$LT$gimli..endianity..LittleEndian$GT$$GT$$C$gimli..read..Error$GT$$GT$17h49f2f998bcc2f32aE', symObjAddr: 0x2CF0, symBinAddr: 0x100018110, symSize: 0x34 }
  - { offset: 0x20E0D, size: 0x8, addend: 0x0, symName: '__ZN4core3ptr184drop_in_place$LT$core..result..Result$LT$addr2line..function..Functions$LT$gimli..read..endian_slice..EndianSlice$LT$gimli..endianity..LittleEndian$GT$$GT$$C$gimli..read..Error$GT$$GT$17h10dd28e922629511E', symObjAddr: 0x2D24, symBinAddr: 0x100018144, symSize: 0xD8 }
  - { offset: 0x21905, size: 0x8, addend: 0x0, symName: '__ZN4core3ptr194drop_in_place$LT$core..result..Result$LT$std..sync..poison..mutex..MutexGuard$LT$$LP$$RP$$GT$$C$std..sync..poison..PoisonError$LT$std..sync..poison..mutex..MutexGuard$LT$$LP$$RP$$GT$$GT$$GT$$GT$17ha7e54304228a066cE', symObjAddr: 0x2E70, symBinAddr: 0x10001821C, symSize: 0x4C }
  - { offset: 0x21935, size: 0x8, addend: 0x0, symName: '__ZN4core3ptr199drop_in_place$LT$core..result..Result$LT$core..option..Option$LT$alloc..sync..Arc$LT$std..sync..poison..mutex..Mutex$LT$alloc..vec..Vec$LT$u8$GT$$GT$$GT$$GT$$C$std..thread..local..AccessError$GT$$GT$17hc820eafe807d521eE', symObjAddr: 0x2EBC, symBinAddr: 0x100018268, symSize: 0x2C }
  - { offset: 0x219FC, size: 0x8, addend: 0x0, symName: '__ZN4core3ptr231drop_in_place$LT$core..result..Result$LT$core..option..Option$LT$alloc..boxed..Box$LT$addr2line..unit..DwoUnit$LT$gimli..read..endian_slice..EndianSlice$LT$gimli..endianity..LittleEndian$GT$$GT$$GT$$GT$$C$gimli..read..Error$GT$$GT$17hdbd1f85fa898eaf9E', symObjAddr: 0x2EE8, symBinAddr: 0x100018294, symSize: 0xD4 }
  - { offset: 0x21BE5, size: 0x8, addend: 0x0, symName: '__ZN4core3ptr275drop_in_place$LT$gimli..read..line..LineRows$LT$gimli..read..endian_slice..EndianSlice$LT$gimli..endianity..LittleEndian$GT$$C$gimli..read..line..IncompleteLineProgram$LT$gimli..read..endian_slice..EndianSlice$LT$gimli..endianity..LittleEndian$GT$$C$usize$GT$$C$usize$GT$$GT$17hebba07efb64a969cE', symObjAddr: 0x2FD4, symBinAddr: 0x100018368, symSize: 0x8C }
  - { offset: 0x21E5A, size: 0x8, addend: 0x0, symName: '__ZN4core3ptr280drop_in_place$LT$$LT$alloc..collections..btree..map..IntoIter$LT$K$C$V$C$A$GT$$u20$as$u20$core..ops..drop..Drop$GT$..drop..DropGuard$LT$u64$C$core..result..Result$LT$alloc..sync..Arc$LT$gimli..read..abbrev..Abbreviations$GT$$C$gimli..read..Error$GT$$C$alloc..alloc..Global$GT$$GT$17h605d7228f128decdE', symObjAddr: 0x3060, symBinAddr: 0x1000183F4, symSize: 0x84 }
  - { offset: 0x21FCA, size: 0x8, addend: 0x0, symName: '__ZN4core3ptr284drop_in_place$LT$core..result..Result$LT$$RF$core..result..Result$LT$addr2line..line..Lines$C$gimli..read..Error$GT$$C$$LP$$RF$core..result..Result$LT$addr2line..line..Lines$C$gimli..read..Error$GT$$C$core..result..Result$LT$addr2line..line..Lines$C$gimli..read..Error$GT$$RP$$GT$$GT$17h4c3f39ee410886d9E', symObjAddr: 0x30E4, symBinAddr: 0x100018478, symSize: 0x14 }
  - { offset: 0x22017, size: 0x8, addend: 0x0, symName: '__ZN4core3ptr42drop_in_place$LT$alloc..string..String$GT$17hac81f7a4d168ae64E', symObjAddr: 0x32AC, symBinAddr: 0x10001848C, symSize: 0x18 }
  - { offset: 0x2202E, size: 0x8, addend: 0x0, symName: '__ZN4core3ptr42drop_in_place$LT$alloc..string..String$GT$17hac81f7a4d168ae64E', symObjAddr: 0x32AC, symBinAddr: 0x10001848C, symSize: 0x18 }
  - { offset: 0x220F2, size: 0x8, addend: 0x0, symName: '__ZN4core3ptr42drop_in_place$LT$std..io..error..Error$GT$17habd70f1b431d348cE', symObjAddr: 0x32C4, symBinAddr: 0x1000184A4, symSize: 0xAC }
  - { offset: 0x2231C, size: 0x8, addend: 0x0, symName: '__ZN4core3ptr44drop_in_place$LT$object..read..ObjectMap$GT$17h70ce07c320cc7419E', symObjAddr: 0x3370, symBinAddr: 0x100018550, symSize: 0x58 }
  - { offset: 0x2244B, size: 0x8, addend: 0x0, symName: '__ZN4core3ptr46drop_in_place$LT$alloc..vec..Vec$LT$u8$GT$$GT$17hb337dff62f58fd0bE', symObjAddr: 0x3434, symBinAddr: 0x1000185A8, symSize: 0x18 }
  - { offset: 0x224D8, size: 0x8, addend: 0x0, symName: '__ZN4core3ptr46drop_in_place$LT$std..io..stdio..StdinLock$GT$17hb805540b2d8fd9f7E', symObjAddr: 0x344C, symBinAddr: 0x1000185C0, symSize: 0x54 }
  - { offset: 0x224EF, size: 0x8, addend: 0x0, symName: '__ZN4core3ptr46drop_in_place$LT$std..io..stdio..StdinLock$GT$17hb805540b2d8fd9f7E', symObjAddr: 0x344C, symBinAddr: 0x1000185C0, symSize: 0x54 }
  - { offset: 0x22504, size: 0x8, addend: 0x0, symName: '__ZN4core3ptr46drop_in_place$LT$std..io..stdio..StdinLock$GT$17hb805540b2d8fd9f7E', symObjAddr: 0x344C, symBinAddr: 0x1000185C0, symSize: 0x54 }
  - { offset: 0x225F6, size: 0x8, addend: 0x0, symName: '__ZN4core3ptr48drop_in_place$LT$alloc..ffi..c_str..NulError$GT$17h0aa90617c2ef35ffE', symObjAddr: 0x3584, symBinAddr: 0x100018614, symSize: 0x18 }
  - { offset: 0x2260D, size: 0x8, addend: 0x0, symName: '__ZN4core3ptr48drop_in_place$LT$alloc..ffi..c_str..NulError$GT$17h0aa90617c2ef35ffE', symObjAddr: 0x3584, symBinAddr: 0x100018614, symSize: 0x18 }
  - { offset: 0x22699, size: 0x8, addend: 0x0, symName: '__ZN4core3ptr557drop_in_place$LT$core..result..Result$LT$$RF$core..result..Result$LT$addr2line..function..Function$LT$gimli..read..endian_slice..EndianSlice$LT$gimli..endianity..LittleEndian$GT$$GT$$C$gimli..read..Error$GT$$C$$LP$$RF$core..result..Result$LT$addr2line..function..Function$LT$gimli..read..endian_slice..EndianSlice$LT$gimli..endianity..LittleEndian$GT$$GT$$C$gimli..read..Error$GT$$C$core..result..Result$LT$addr2line..function..Function$LT$gimli..read..endian_slice..EndianSlice$LT$gimli..endianity..LittleEndian$GT$$GT$$C$gimli..read..Error$GT$$RP$$GT$$GT$17h748b27d3ad91b666E', symObjAddr: 0x37B0, symBinAddr: 0x10001862C, symSize: 0x64 }
  - { offset: 0x22883, size: 0x8, addend: 0x0, symName: '__ZN4core3ptr55drop_in_place$LT$gimli..read..abbrev..Abbreviations$GT$17h5d64ddc376f7673eE', symObjAddr: 0x3814, symBinAddr: 0x100018690, symSize: 0x118 }
  - { offset: 0x22BE6, size: 0x8, addend: 0x0, symName: '__ZN4core3ptr560drop_in_place$LT$core..result..Result$LT$$RF$core..result..Result$LT$addr2line..function..Functions$LT$gimli..read..endian_slice..EndianSlice$LT$gimli..endianity..LittleEndian$GT$$GT$$C$gimli..read..Error$GT$$C$$LP$$RF$core..result..Result$LT$addr2line..function..Functions$LT$gimli..read..endian_slice..EndianSlice$LT$gimli..endianity..LittleEndian$GT$$GT$$C$gimli..read..Error$GT$$C$core..result..Result$LT$addr2line..function..Functions$LT$gimli..read..endian_slice..EndianSlice$LT$gimli..endianity..LittleEndian$GT$$GT$$C$gimli..read..Error$GT$$RP$$GT$$GT$17h20f4a6896059bba5E', symObjAddr: 0x39B0, symBinAddr: 0x1000187A8, symSize: 0x14 }
  - { offset: 0x22C41, size: 0x8, addend: 0x0, symName: '__ZN4core3ptr60drop_in_place$LT$gimli..read..abbrev..AbbreviationsCache$GT$17h07c70485ebd56478E', symObjAddr: 0x39C4, symBinAddr: 0x1000187BC, symSize: 0xCC }
  - { offset: 0x22E08, size: 0x8, addend: 0x0, symName: '__ZN4core3ptr64drop_in_place$LT$std..sys..pal..unix..sync..mutex..AttrGuard$GT$17h0a5906221301930bE', symObjAddr: 0x3B1C, symBinAddr: 0x100018888, symSize: 0x48 }
  - { offset: 0x22E47, size: 0x8, addend: 0x0, symName: '__ZN4core3ptr65drop_in_place$LT$alloc..vec..Vec$LT$alloc..string..String$GT$$GT$17h66cdbc24d9622501E', symObjAddr: 0x3C30, symBinAddr: 0x1000188D0, symSize: 0x80 }
  - { offset: 0x22FE5, size: 0x8, addend: 0x0, symName: '__ZN4core3ptr65drop_in_place$LT$std..backtrace_rs..symbolize..gimli..Context$GT$17h164c0942f12400dbE', symObjAddr: 0x3CB0, symBinAddr: 0x100018950, symSize: 0xE8 }
  - { offset: 0x23277, size: 0x8, addend: 0x0, symName: '__ZN4core3ptr66drop_in_place$LT$std..backtrace_rs..backtrace..libunwind..Bomb$GT$17h551fed0d2b731830E', symObjAddr: 0x3D98, symBinAddr: 0x100018A38, symSize: 0x40 }
  - { offset: 0x232C3, size: 0x8, addend: 0x0, symName: '__ZN4core3ptr701drop_in_place$LT$core..result..Result$LT$$RF$core..result..Result$LT$core..option..Option$LT$alloc..boxed..Box$LT$addr2line..unit..DwoUnit$LT$gimli..read..endian_slice..EndianSlice$LT$gimli..endianity..LittleEndian$GT$$GT$$GT$$GT$$C$gimli..read..Error$GT$$C$$LP$$RF$core..result..Result$LT$core..option..Option$LT$alloc..boxed..Box$LT$addr2line..unit..DwoUnit$LT$gimli..read..endian_slice..EndianSlice$LT$gimli..endianity..LittleEndian$GT$$GT$$GT$$GT$$C$gimli..read..Error$GT$$C$core..result..Result$LT$core..option..Option$LT$alloc..boxed..Box$LT$addr2line..unit..DwoUnit$LT$gimli..read..endian_slice..EndianSlice$LT$gimli..endianity..LittleEndian$GT$$GT$$GT$$GT$$C$gimli..read..Error$GT$$RP$$GT$$GT$17h99be7971756b6652E', symObjAddr: 0x3DD8, symBinAddr: 0x100018A78, symSize: 0x14 }
  - { offset: 0x23364, size: 0x8, addend: 0x0, symName: '__ZN4core3ptr70drop_in_place$LT$std..backtrace_rs..symbolize..gimli..stash..Stash$GT$17hf2d48d9015d0f7c8E', symObjAddr: 0x3E6C, symBinAddr: 0x100018A8C, symSize: 0xB8 }
  - { offset: 0x2360A, size: 0x8, addend: 0x0, symName: '__ZN4core3ptr71drop_in_place$LT$std..backtrace_rs..symbolize..gimli..macho..Object$GT$17h8bb3839755842750E', symObjAddr: 0x3F24, symBinAddr: 0x100018B44, symSize: 0xD8 }
  - { offset: 0x238DD, size: 0x8, addend: 0x0, symName: '__ZN4core3ptr72drop_in_place$LT$core..option..Option$LT$object..read..ObjectMap$GT$$GT$17hc7c56c88aae4c5fcE', symObjAddr: 0x4068, symBinAddr: 0x100018C1C, symSize: 0x64 }
  - { offset: 0x23A5A, size: 0x8, addend: 0x0, symName: '__ZN4core3ptr73drop_in_place$LT$alloc..vec..Vec$LT$addr2line..line..LineSequence$GT$$GT$17he296d46dd6d5cbabE', symObjAddr: 0x40CC, symBinAddr: 0x100018C80, symSize: 0x84 }
  - { offset: 0x23BC0, size: 0x8, addend: 0x0, symName: '__ZN4core3ptr77drop_in_place$LT$alloc..boxed..Box$LT$$u5b$alloc..string..String$u5d$$GT$$GT$17hc446220f14ad3f54E', symObjAddr: 0x4188, symBinAddr: 0x100018D04, symSize: 0x70 }
  - { offset: 0x23BD7, size: 0x8, addend: 0x0, symName: '__ZN4core3ptr77drop_in_place$LT$alloc..boxed..Box$LT$$u5b$alloc..string..String$u5d$$GT$$GT$17hc446220f14ad3f54E', symObjAddr: 0x4188, symBinAddr: 0x100018D04, symSize: 0x70 }
  - { offset: 0x23CE3, size: 0x8, addend: 0x0, symName: '__ZN4core3ptr77drop_in_place$LT$std..panicking..begin_panic_handler..FormatStringPayload$GT$17h6fcfcc78704673e3E', symObjAddr: 0x41F8, symBinAddr: 0x100018D74, symSize: 0x24 }
  - { offset: 0x23D9F, size: 0x8, addend: 0x0, symName: '__ZN4core3ptr79drop_in_place$LT$std..sync..poison..rwlock..RwLockReadGuard$LT$$LP$$RP$$GT$$GT$17hc54fd0027bbd6d30E', symObjAddr: 0x4230, symBinAddr: 0x100018D98, symSize: 0x58 }
  - { offset: 0x23E3B, size: 0x8, addend: 0x0, symName: '__ZN4core3ptr81drop_in_place$LT$core..result..Result$LT$$LP$$RP$$C$std..io..error..Error$GT$$GT$17ha905afa1a1b69da6E', symObjAddr: 0x4288, symBinAddr: 0x100018DF0, symSize: 0x10 }
  - { offset: 0x23E6B, size: 0x8, addend: 0x0, symName: '__ZN4core3ptr82drop_in_place$LT$alloc..sync..ArcInner$LT$std..sys..fs..unix..InnerReadDir$GT$$GT$17h5d4f495acfd7dae8E', symObjAddr: 0x4368, symBinAddr: 0x100018E00, symSize: 0x60 }
  - { offset: 0x24038, size: 0x8, addend: 0x0, symName: '__ZN4core3ptr90drop_in_place$LT$std..io..buffered..bufwriter..BufWriter$LT$W$GT$..flush_buf..BufGuard$GT$17he92d49b51e4ad54fE', symObjAddr: 0x4450, symBinAddr: 0x100018E60, symSize: 0x60 }
  - { offset: 0x241BF, size: 0x8, addend: 0x0, symName: '__ZN4core3ptr92drop_in_place$LT$core..result..Result$LT$addr2line..line..Lines$C$gimli..read..Error$GT$$GT$17h0ed91c593b269246E', symObjAddr: 0x4508, symBinAddr: 0x100018EC0, symSize: 0xE4 }
  - { offset: 0x24405, size: 0x8, addend: 0x0, symName: '__ZN4core3ptr93drop_in_place$LT$core..option..Option$LT$std..backtrace_rs..symbolize..gimli..Mapping$GT$$GT$17h110055b033f66c0fE', symObjAddr: 0x45EC, symBinAddr: 0x100018FA4, symSize: 0x6C }
  - { offset: 0x244A2, size: 0x8, addend: 0x0, symName: '__ZN4core3ptr95drop_in_place$LT$std..io..buffered..linewriter..LineWriter$LT$std..io..stdio..StdoutRaw$GT$$GT$17hc5979ba65a107f72E', symObjAddr: 0x4658, symBinAddr: 0x100019010, symSize: 0xF8 }
  - { offset: 0x26F02, size: 0x8, addend: 0x0, symName: __ZN4core5slice4sort6stable14driftsort_main17h521ab17a5a757164E, symObjAddr: 0x9098, symBinAddr: 0x10001A98C, symSize: 0x140 }
  - { offset: 0x271A5, size: 0x8, addend: 0x0, symName: __ZN4core5slice4sort6stable14driftsort_main17ha9075508af06de20E, symObjAddr: 0x91D8, symBinAddr: 0x10001AACC, symSize: 0x164 }
  - { offset: 0x2749E, size: 0x8, addend: 0x0, symName: __ZN4core5slice4sort6stable14driftsort_main17hb0662f4917d01b7dE, symObjAddr: 0x933C, symBinAddr: 0x10001AC30, symSize: 0x140 }
  - { offset: 0x27741, size: 0x8, addend: 0x0, symName: __ZN4core5slice4sort6stable14driftsort_main17hbec9c5ede644b796E, symObjAddr: 0x947C, symBinAddr: 0x10001AD70, symSize: 0x164 }
  - { offset: 0x27A3A, size: 0x8, addend: 0x0, symName: __ZN4core5slice4sort6stable14driftsort_main17hc6af17bd05ac089fE, symObjAddr: 0x95E0, symBinAddr: 0x10001AED4, symSize: 0x140 }
  - { offset: 0x27C5B, size: 0x8, addend: 0x0, symName: __ZN4core5slice4sort6stable14driftsort_main17hfd7dcf5984234633E, symObjAddr: 0x9720, symBinAddr: 0x10001B014, symSize: 0x140 }
  - { offset: 0x280EF, size: 0x8, addend: 0x0, symName: __ZN4core5slice4sort6stable5drift4sort17h6aaaaf784e659385E, symObjAddr: 0x9860, symBinAddr: 0x10001B154, symSize: 0x4E0 }
  - { offset: 0x286DE, size: 0x8, addend: 0x0, symName: __ZN4core5slice4sort6stable5drift4sort17h866748af94df36ccE, symObjAddr: 0x9D40, symBinAddr: 0x10001B634, symSize: 0x538 }
  - { offset: 0x28D71, size: 0x8, addend: 0x0, symName: __ZN4core5slice4sort6stable5drift4sort17h9ccd45f18f7947baE, symObjAddr: 0xA278, symBinAddr: 0x10001BB6C, symSize: 0x4F8 }
  - { offset: 0x293F0, size: 0x8, addend: 0x0, symName: __ZN4core5slice4sort6stable5drift4sort17haa5e5863b64b9a60E, symObjAddr: 0xA770, symBinAddr: 0x10001C064, symSize: 0x5EC }
  - { offset: 0x29AAA, size: 0x8, addend: 0x0, symName: __ZN4core5slice4sort6stable5drift4sort17hb68090b03a5248c3E, symObjAddr: 0xAD5C, symBinAddr: 0x10001C650, symSize: 0x530 }
  - { offset: 0x2A115, size: 0x8, addend: 0x0, symName: __ZN4core5slice4sort6stable5drift4sort17he935295b9297be3dE, symObjAddr: 0xB28C, symBinAddr: 0x10001CB80, symSize: 0x4F8 }
  - { offset: 0x2A998, size: 0x8, addend: 0x0, symName: __ZN4core5slice4sort6stable9quicksort9quicksort17h0ca9f036defe4ca1E, symObjAddr: 0xB784, symBinAddr: 0x10001D078, symSize: 0x834 }
  - { offset: 0x2B583, size: 0x8, addend: 0x0, symName: __ZN4core5slice4sort6stable9quicksort9quicksort17h0dcd6807bb10c1ddE, symObjAddr: 0xBFB8, symBinAddr: 0x10001D8AC, symSize: 0x6D8 }
  - { offset: 0x2C043, size: 0x8, addend: 0x0, symName: __ZN4core5slice4sort6stable9quicksort9quicksort17h403c35809902d95cE, symObjAddr: 0xC690, symBinAddr: 0x10001DF84, symSize: 0x74C }
  - { offset: 0x2C788, size: 0x8, addend: 0x0, symName: __ZN4core5slice4sort6stable9quicksort9quicksort17h52ed04d04eb94d9aE, symObjAddr: 0xCDDC, symBinAddr: 0x10001E6D0, symSize: 0x834 }
  - { offset: 0x2D71F, size: 0x8, addend: 0x0, symName: __ZN4core5slice4sort6stable9quicksort9quicksort17h6a6db67da80ded8fE, symObjAddr: 0xD610, symBinAddr: 0x10001EF04, symSize: 0x6E0 }
  - { offset: 0x2E1DF, size: 0x8, addend: 0x0, symName: __ZN4core5slice4sort6stable9quicksort9quicksort17hfc1631ac0f214f19E, symObjAddr: 0xDCF0, symBinAddr: 0x10001F5E4, symSize: 0x810 }
  - { offset: 0x2EE5B, size: 0x8, addend: 0x0, symName: __ZN4core5slice4sort6shared9smallsort12sort4_stable17h31fac7551cf33bd2E, symObjAddr: 0x7F40, symBinAddr: 0x100019834, symSize: 0x194 }
  - { offset: 0x2F008, size: 0x8, addend: 0x0, symName: __ZN4core5slice4sort6shared9smallsort12sort4_stable17hf90c0556197dda99E, symObjAddr: 0x80D4, symBinAddr: 0x1000199C8, symSize: 0x180 }
  - { offset: 0x2F42A, size: 0x8, addend: 0x0, symName: __ZN4core5slice4sort6shared9smallsort12sort8_stable17hf7b6a991869544ccE, symObjAddr: 0x8254, symBinAddr: 0x100019B48, symSize: 0x2B8 }
  - { offset: 0x2F913, size: 0x8, addend: 0x0, symName: __ZN4core5slice4sort6shared9smallsort18small_sort_general17h034e2245b0bf43b0E, symObjAddr: 0x850C, symBinAddr: 0x100019E00, symSize: 0x400 }
  - { offset: 0x2FE80, size: 0x8, addend: 0x0, symName: __ZN4core5slice4sort6shared9smallsort18small_sort_general17h87ad8da531a3f31aE, symObjAddr: 0x890C, symBinAddr: 0x10001A200, symSize: 0x4A4 }
  - { offset: 0x30578, size: 0x8, addend: 0x0, symName: __ZN4core5slice4sort6shared9smallsort25insertion_sort_shift_left17h42562c73653bb666E, symObjAddr: 0x8DB0, symBinAddr: 0x10001A6A4, symSize: 0xA8 }
  - { offset: 0x30650, size: 0x8, addend: 0x0, symName: __ZN4core5slice4sort6shared9smallsort25insertion_sort_shift_left17ha2f1b9cdd766aaa4E, symObjAddr: 0x8E58, symBinAddr: 0x10001A74C, symSize: 0xB8 }
  - { offset: 0x3077E, size: 0x8, addend: 0x0, symName: __ZN4core5slice4sort6shared9smallsort25insertion_sort_shift_left17hbf93252988a52ab7E, symObjAddr: 0x8F10, symBinAddr: 0x10001A804, symSize: 0x94 }
  - { offset: 0x30848, size: 0x8, addend: 0x0, symName: __ZN4core5slice4sort6shared9smallsort25insertion_sort_shift_left17hd501c44f9cc25640E, symObjAddr: 0x8FA4, symBinAddr: 0x10001A898, symSize: 0xF4 }
  - { offset: 0x30C45, size: 0x8, addend: 0x0, symName: __ZN4core5slice4sort6shared5pivot11median3_rec17h0df86c062c3307f3E, symObjAddr: 0x781C, symBinAddr: 0x100019110, symSize: 0x11C }
  - { offset: 0x30D41, size: 0x8, addend: 0x0, symName: __ZN4core5slice4sort6shared5pivot11median3_rec17h4e5272a39440c6fcE, symObjAddr: 0x7938, symBinAddr: 0x10001922C, symSize: 0xCC }
  - { offset: 0x30E66, size: 0x8, addend: 0x0, symName: __ZN4core5slice4sort6shared5pivot11median3_rec17h5a457aecc5390e2dE, symObjAddr: 0x7A04, symBinAddr: 0x1000192F8, symSize: 0xD0 }
  - { offset: 0x30F61, size: 0x8, addend: 0x0, symName: __ZN4core5slice4sort6shared5pivot11median3_rec17h63b3210c63d487e5E, symObjAddr: 0x7AD4, symBinAddr: 0x1000193C8, symSize: 0xD0 }
  - { offset: 0x3105A, size: 0x8, addend: 0x0, symName: __ZN4core5slice4sort6shared5pivot11median3_rec17h6546c17569d2c228E, symObjAddr: 0x7BA4, symBinAddr: 0x100019498, symSize: 0x134 }
  - { offset: 0x31281, size: 0x8, addend: 0x0, symName: __ZN4core5slice4sort6shared5pivot11median3_rec17h825498fa0147afcdE, symObjAddr: 0x7CD8, symBinAddr: 0x1000195CC, symSize: 0xCC }
  - { offset: 0x3137A, size: 0x8, addend: 0x0, symName: __ZN4core5slice4sort6shared5pivot11median3_rec17hcc5592aee9a962d6E, symObjAddr: 0x7DA4, symBinAddr: 0x100019698, symSize: 0xCC }
  - { offset: 0x31473, size: 0x8, addend: 0x0, symName: __ZN4core5slice4sort6shared5pivot11median3_rec17hd5918a3d1c875d2dE, symObjAddr: 0x7E70, symBinAddr: 0x100019764, symSize: 0xD0 }
  - { offset: 0x31636, size: 0x8, addend: 0x0, symName: __ZN4core5slice4sort8unstable7ipnsort17h3050acbcca3cb150E, symObjAddr: 0xE500, symBinAddr: 0x10001FDF4, symSize: 0xEC }
  - { offset: 0x31778, size: 0x8, addend: 0x0, symName: __ZN4core5slice4sort8unstable7ipnsort17hfd87871531817c09E, symObjAddr: 0xE5EC, symBinAddr: 0x10001FEE0, symSize: 0x1A8 }
  - { offset: 0x31A4C, size: 0x8, addend: 0x0, symName: __ZN4core5slice4sort8unstable8heapsort8heapsort17h018ffb6550069dc5E, symObjAddr: 0xE794, symBinAddr: 0x100020088, symSize: 0x100 }
  - { offset: 0x31C38, size: 0x8, addend: 0x0, symName: __ZN4core5slice4sort8unstable8heapsort8heapsort17h13deb584184321b4E, symObjAddr: 0xE894, symBinAddr: 0x100020188, symSize: 0x160 }
  - { offset: 0x31FBB, size: 0x8, addend: 0x0, symName: __ZN4core5slice4sort8unstable9quicksort9quicksort17h6207a09384b1d73eE, symObjAddr: 0xE9F4, symBinAddr: 0x1000202E8, symSize: 0x598 }
  - { offset: 0x32B51, size: 0x8, addend: 0x0, symName: __ZN4core5slice4sort8unstable9quicksort9quicksort17hf6b9320c24c346cdE, symObjAddr: 0xEF8C, symBinAddr: 0x100020880, symSize: 0x408 }
  - { offset: 0x334D0, size: 0x8, addend: 0x0, symName: '__ZN36_$LT$T$u20$as$u20$core..any..Any$GT$7type_id17hca9570fd9e3ed26eE', symObjAddr: 0x160, symBinAddr: 0x100016C78, symSize: 0x24 }
  - { offset: 0x334EA, size: 0x8, addend: 0x0, symName: '__ZN36_$LT$T$u20$as$u20$core..any..Any$GT$7type_id17he4b6f1bd2d030df3E', symObjAddr: 0x184, symBinAddr: 0x100016C9C, symSize: 0x24 }
  - { offset: 0x3354A, size: 0x8, addend: 0x0, symName: '__ZN42_$LT$$RF$T$u20$as$u20$core..fmt..Debug$GT$3fmt17h2958e9215852db4aE', symObjAddr: 0x540, symBinAddr: 0x100016CC0, symSize: 0x1C }
  - { offset: 0x33590, size: 0x8, addend: 0x0, symName: '__ZN42_$LT$$RF$T$u20$as$u20$core..fmt..Debug$GT$3fmt17h2bb2d350b34dfff8E', symObjAddr: 0x55C, symBinAddr: 0x100016CDC, symSize: 0x10 }
  - { offset: 0x335C1, size: 0x8, addend: 0x0, symName: '__ZN42_$LT$$RF$T$u20$as$u20$core..fmt..Debug$GT$3fmt17h8ac30dcc9c5b5849E', symObjAddr: 0x8B0, symBinAddr: 0x100016CEC, symSize: 0x74 }
  - { offset: 0x336D8, size: 0x8, addend: 0x0, symName: '__ZN42_$LT$$RF$T$u20$as$u20$core..fmt..Debug$GT$3fmt17h8aff657d191ad3c5E', symObjAddr: 0x924, symBinAddr: 0x100016D60, symSize: 0x1C }
  - { offset: 0x3371E, size: 0x8, addend: 0x0, symName: '__ZN42_$LT$$RF$T$u20$as$u20$core..fmt..Debug$GT$3fmt17ha21c7837cadbd3f5E', symObjAddr: 0x9B8, symBinAddr: 0x100016D7C, symSize: 0x10 }
  - { offset: 0x337D2, size: 0x8, addend: 0x0, symName: '__ZN4core3fmt3num50_$LT$impl$u20$core..fmt..Debug$u20$for$u20$i32$GT$3fmt17h31c367ae7db50eaeE', symObjAddr: 0xDA0, symBinAddr: 0x100016E14, symSize: 0x18 }
  - { offset: 0x337E9, size: 0x8, addend: 0x0, symName: '__ZN4core3fmt3num50_$LT$impl$u20$core..fmt..Debug$u20$for$u20$i32$GT$3fmt17h31c367ae7db50eaeE', symObjAddr: 0xDA0, symBinAddr: 0x100016E14, symSize: 0x18 }
  - { offset: 0x33814, size: 0x8, addend: 0x0, symName: '__ZN4core3fmt3num52_$LT$impl$u20$core..fmt..Debug$u20$for$u20$usize$GT$3fmt17hd9a44c73645affdaE', symObjAddr: 0xE00, symBinAddr: 0x100016E2C, symSize: 0x18 }
  - { offset: 0x3382B, size: 0x8, addend: 0x0, symName: '__ZN4core3fmt3num52_$LT$impl$u20$core..fmt..Debug$u20$for$u20$usize$GT$3fmt17hd9a44c73645affdaE', symObjAddr: 0xE00, symBinAddr: 0x100016E2C, symSize: 0x18 }
  - { offset: 0x33851, size: 0x8, addend: 0x0, symName: '__ZN44_$LT$$RF$T$u20$as$u20$core..fmt..Display$GT$3fmt17h7aede7e1fafa8ecfE', symObjAddr: 0xCEC, symBinAddr: 0x100016D8C, symSize: 0x10 }
  - { offset: 0x3386C, size: 0x8, addend: 0x0, symName: '__ZN44_$LT$$RF$T$u20$as$u20$core..fmt..Display$GT$3fmt17hcdc89f6b7cdef95fE', symObjAddr: 0xCFC, symBinAddr: 0x100016D9C, symSize: 0x78 }
  - { offset: 0x33C1A, size: 0x8, addend: 0x0, symName: __ZN4core3fmt5Write10write_char17h45384c06e74ab019E, symObjAddr: 0xE18, symBinAddr: 0x100016E44, symSize: 0x150 }
  - { offset: 0x33DB1, size: 0x8, addend: 0x0, symName: __ZN4core3fmt5Write10write_char17h9a7a54bb0ca7d9cdE, symObjAddr: 0x10E8, symBinAddr: 0x100016F94, symSize: 0x128 }
  - { offset: 0x33F6C, size: 0x8, addend: 0x0, symName: __ZN4core3fmt5Write10write_char17hb7b510f6e91dde12E, symObjAddr: 0x1350, symBinAddr: 0x1000170BC, symSize: 0x180 }
  - { offset: 0x34119, size: 0x8, addend: 0x0, symName: __ZN4core3fmt5Write10write_char17hdfb28a662f1dadabE, symObjAddr: 0x14D0, symBinAddr: 0x10001723C, symSize: 0x140 }
  - { offset: 0x341EF, size: 0x8, addend: 0x0, symName: __ZN4core3fmt5Write9write_fmt17h13bdb2eccd0c285eE, symObjAddr: 0x1610, symBinAddr: 0x10001737C, symSize: 0x10 }
  - { offset: 0x3421E, size: 0x8, addend: 0x0, symName: __ZN4core3fmt5Write9write_fmt17h3d48754a628ad650E, symObjAddr: 0x1620, symBinAddr: 0x10001738C, symSize: 0x10 }
  - { offset: 0x3424D, size: 0x8, addend: 0x0, symName: __ZN4core3fmt5Write9write_fmt17h4270820d5fb62457E, symObjAddr: 0x1630, symBinAddr: 0x10001739C, symSize: 0x10 }
  - { offset: 0x3427C, size: 0x8, addend: 0x0, symName: __ZN4core3fmt5Write9write_fmt17ha2d460255287c06dE, symObjAddr: 0x1640, symBinAddr: 0x1000173AC, symSize: 0x10 }
  - { offset: 0x342AB, size: 0x8, addend: 0x0, symName: __ZN4core3fmt5Write9write_fmt17ha8ecdcf0f48f38acE, symObjAddr: 0x1650, symBinAddr: 0x1000173BC, symSize: 0x10 }
  - { offset: 0x34308, size: 0x8, addend: 0x0, symName: '__ZN50_$LT$$BP$mut$u20$T$u20$as$u20$core..fmt..Debug$GT$3fmt17h0e71da53ffdbf142E', symObjAddr: 0xF410, symBinAddr: 0x100020C88, symSize: 0x8 }
  - { offset: 0x34326, size: 0x8, addend: 0x0, symName: '__ZN50_$LT$$BP$mut$u20$T$u20$as$u20$core..fmt..Debug$GT$3fmt17h0e71da53ffdbf142E', symObjAddr: 0xF410, symBinAddr: 0x100020C88, symSize: 0x8 }
  - { offset: 0x34355, size: 0x8, addend: 0x0, symName: '__ZN52_$LT$$RF$mut$u20$T$u20$as$u20$core..fmt..Display$GT$3fmt17hc5f28addd174597dE', symObjAddr: 0xF500, symBinAddr: 0x100020C90, symSize: 0x10 }
  - { offset: 0x343BB, size: 0x8, addend: 0x0, symName: '__ZN55_$LT$$RF$str$u20$as$u20$core..str..pattern..Pattern$GT$15is_contained_in17hf6a15fe5f9aec0c7E', symObjAddr: 0xF510, symBinAddr: 0x100020CA0, symSize: 0x3C0 }
  - { offset: 0x35249, size: 0x8, addend: 0x0, symName: __ZN4core5panic12PanicPayload6as_str17h55b7c7a41678db2dE, symObjAddr: 0x7814, symBinAddr: 0x100019108, symSize: 0x8 }
  - { offset: 0x35A63, size: 0x8, addend: 0x0, symName: '__ZN4core3ops8function6FnOnce40call_once$u7b$$u7b$vtable.shim$u7d$$u7d$17h0256ef3c49b7fef6E', symObjAddr: 0x190C, symBinAddr: 0x1000173CC, symSize: 0xC }
  - { offset: 0x35AB4, size: 0x8, addend: 0x0, symName: '__ZN4core3ops8function6FnOnce40call_once$u7b$$u7b$vtable.shim$u7d$$u7d$17h1a440162a384b96dE', symObjAddr: 0x1918, symBinAddr: 0x1000173D8, symSize: 0x4 }
  - { offset: 0x35AD1, size: 0x8, addend: 0x0, symName: '__ZN4core3ops8function6FnOnce40call_once$u7b$$u7b$vtable.shim$u7d$$u7d$17h1a440162a384b96dE', symObjAddr: 0x1918, symBinAddr: 0x1000173D8, symSize: 0x4 }
  - { offset: 0x35AF0, size: 0x8, addend: 0x0, symName: '__ZN4core3ops8function6FnOnce40call_once$u7b$$u7b$vtable.shim$u7d$$u7d$17h5a3ea79ed9b56f49E', symObjAddr: 0x1924, symBinAddr: 0x1000173DC, symSize: 0x28 }
  - { offset: 0x35B2C, size: 0x8, addend: 0x0, symName: '__ZN4core3ops8function6FnOnce40call_once$u7b$$u7b$vtable.shim$u7d$$u7d$17h6ef6b541deff04acE', symObjAddr: 0x194C, symBinAddr: 0x100017404, symSize: 0xC }
  - { offset: 0x35B7D, size: 0x8, addend: 0x0, symName: '__ZN4core3ops8function6FnOnce40call_once$u7b$$u7b$vtable.shim$u7d$$u7d$17h8b0e1f22722d72f6E', symObjAddr: 0x19F4, symBinAddr: 0x100017410, symSize: 0x4 }
  - { offset: 0x35B9A, size: 0x8, addend: 0x0, symName: '__ZN4core3ops8function6FnOnce40call_once$u7b$$u7b$vtable.shim$u7d$$u7d$17h8b0e1f22722d72f6E', symObjAddr: 0x19F4, symBinAddr: 0x100017410, symSize: 0x4 }
  - { offset: 0x35BB9, size: 0x8, addend: 0x0, symName: '__ZN4core3ops8function6FnOnce40call_once$u7b$$u7b$vtable.shim$u7d$$u7d$17h9b4a9096c70fd176E', symObjAddr: 0x1A38, symBinAddr: 0x100017414, symSize: 0xA4 }
  - { offset: 0x35CFF, size: 0x8, addend: 0x0, symName: '__ZN4core3ops8function6FnOnce40call_once$u7b$$u7b$vtable.shim$u7d$$u7d$17hb135094d08c6abcbE', symObjAddr: 0x1ADC, symBinAddr: 0x1000174B8, symSize: 0x60 }
  - { offset: 0x35DE3, size: 0x8, addend: 0x0, symName: '__ZN4core3ops8function6FnOnce40call_once$u7b$$u7b$vtable.shim$u7d$$u7d$17hda98b980b7e364a0E', symObjAddr: 0x1B3C, symBinAddr: 0x100017518, symSize: 0x78 }
  - { offset: 0x3844F, size: 0x8, addend: 0x0, symName: '__ZN4core4cell4once17OnceCell$LT$T$GT$8try_init17h1f3ae8fa04109d74E', symObjAddr: 0x4750, symBinAddr: 0x100048DE0, symSize: 0x60 }
  - { offset: 0x3846D, size: 0x8, addend: 0x0, symName: '__ZN4core4cell4once17OnceCell$LT$T$GT$8try_init17h1f3ae8fa04109d74E', symObjAddr: 0x4750, symBinAddr: 0x100048DE0, symSize: 0x60 }
  - { offset: 0x38482, size: 0x8, addend: 0x0, symName: '__ZN4core4cell4once17OnceCell$LT$T$GT$8try_init17h1f3ae8fa04109d74E', symObjAddr: 0x4750, symBinAddr: 0x100048DE0, symSize: 0x60 }
  - { offset: 0x38496, size: 0x8, addend: 0x0, symName: '__ZN4core4cell4once17OnceCell$LT$T$GT$8try_init17h1f3ae8fa04109d74E', symObjAddr: 0x4750, symBinAddr: 0x100048DE0, symSize: 0x60 }
  - { offset: 0x384ED, size: 0x8, addend: 0x0, symName: '__ZN4core4cell4once17OnceCell$LT$T$GT$8try_init17h5030d0cfd605f88aE', symObjAddr: 0x47B0, symBinAddr: 0x100048E40, symSize: 0x678 }
  - { offset: 0x391AF, size: 0x8, addend: 0x0, symName: '__ZN4core4cell4once17OnceCell$LT$T$GT$8try_init17hb2acaa81388d9a1dE', symObjAddr: 0x4E28, symBinAddr: 0x1000494B8, symSize: 0x110 }
  - { offset: 0x39493, size: 0x8, addend: 0x0, symName: '__ZN4core4cell4once17OnceCell$LT$T$GT$8try_init17hec4c6057203f18caE', symObjAddr: 0x4F38, symBinAddr: 0x1000495C8, symSize: 0x1AC4 }
  - { offset: 0x3C74C, size: 0x8, addend: 0x0, symName: '__ZN4core4cell4once17OnceCell$LT$T$GT$8try_init17hf59b8f3666c9e504E', symObjAddr: 0x69FC, symBinAddr: 0x10004B08C, symSize: 0x80 }
  - { offset: 0x3C7FF, size: 0x8, addend: 0x0, symName: '__ZN4core4cell4once17OnceCell$LT$T$GT$8try_init17hfae89e2951f245baE', symObjAddr: 0x6A7C, symBinAddr: 0x10004B10C, symSize: 0xC3C }
  - { offset: 0x3E808, size: 0x8, addend: 0x0, symName: __ZN4core9panicking13assert_failed17h8219ec77f299110cE, symObjAddr: 0xF3EC, symBinAddr: 0x10004BD48, symSize: 0x24 }
  - { offset: 0x3EB8D, size: 0x8, addend: 0x0, symName: __ZN3std9panicking11panic_count8increase17h5d061070c09c1b20E, symObjAddr: 0x3BDA0, symBinAddr: 0x100032198, symSize: 0x64 }
  - { offset: 0x3EBA4, size: 0x8, addend: 0x0, symName: __ZN3std9panicking11panic_count8increase17h5d061070c09c1b20E, symObjAddr: 0x3BDA0, symBinAddr: 0x100032198, symSize: 0x64 }
  - { offset: 0x3EBB9, size: 0x8, addend: 0x0, symName: __ZN3std9panicking11panic_count8increase17h5d061070c09c1b20E, symObjAddr: 0x3BDA0, symBinAddr: 0x100032198, symSize: 0x64 }
  - { offset: 0x3EC98, size: 0x8, addend: 0x0, symName: __ZN3std9panicking11panic_count17is_zero_slow_path17h01eb20a9cec6a821E, symObjAddr: 0x3BE8C, symBinAddr: 0x10004C5B4, symSize: 0x2C }
  - { offset: 0x3EDF8, size: 0x8, addend: 0x0, symName: __RNvCs73fAdSrgOJL_7___rustc17___rust_drop_panic, symObjAddr: 0x3B3E8, symBinAddr: 0x100031A4C, symSize: 0xBC }
  - { offset: 0x3EFED, size: 0x8, addend: 0x0, symName: __RNvCs73fAdSrgOJL_7___rustc24___rust_foreign_exception, symObjAddr: 0x3B4A4, symBinAddr: 0x100031B08, symSize: 0xBC }
  - { offset: 0x3F1E2, size: 0x8, addend: 0x0, symName: __ZN3std9panicking12default_hook17h8875fb31ec87dfadE, symObjAddr: 0x3B7CC, symBinAddr: 0x100031BC4, symSize: 0x1AC }
  - { offset: 0x3F520, size: 0x8, addend: 0x0, symName: '__ZN3std9panicking12default_hook28_$u7b$$u7b$closure$u7d$$u7d$17hf623c44b740b115fE', symObjAddr: 0x3B978, symBinAddr: 0x100031D70, symSize: 0x1A4 }
  - { offset: 0x3F6F7, size: 0x8, addend: 0x0, symName: '__ZN3std9panicking12default_hook28_$u7b$$u7b$closure$u7d$$u7d$28_$u7b$$u7b$closure$u7d$$u7d$17hf47d63ca0778dae1E', symObjAddr: 0x3BB1C, symBinAddr: 0x100031F14, symSize: 0x284 }
  - { offset: 0x3FB6D, size: 0x8, addend: 0x0, symName: __RNvCs73fAdSrgOJL_7___rustc17rust_begin_unwind, symObjAddr: 0x3BF00, symBinAddr: 0x1000321FC, symSize: 0x20 }
  - { offset: 0x3FBD6, size: 0x8, addend: 0x0, symName: '__ZN102_$LT$std..panicking..begin_panic_handler..FormatStringPayload$u20$as$u20$core..panic..PanicPayload$GT$8take_box17h223afba6ccee5cb1E', symObjAddr: 0x3BF20, symBinAddr: 0x10003221C, symSize: 0x118 }
  - { offset: 0x3FE52, size: 0x8, addend: 0x0, symName: '__ZN102_$LT$std..panicking..begin_panic_handler..FormatStringPayload$u20$as$u20$core..panic..PanicPayload$GT$3get17h4f88f29aab2fd10fE', symObjAddr: 0x3C038, symBinAddr: 0x100032334, symSize: 0xB0 }
  - { offset: 0x3FF8B, size: 0x8, addend: 0x0, symName: '__ZN95_$LT$std..panicking..begin_panic_handler..FormatStringPayload$u20$as$u20$core..fmt..Display$GT$3fmt17hb0af82e86096f7f0E', symObjAddr: 0x3C0E8, symBinAddr: 0x1000323E4, symSize: 0x5C }
  - { offset: 0x40088, size: 0x8, addend: 0x0, symName: '__ZN99_$LT$std..panicking..begin_panic_handler..StaticStrPayload$u20$as$u20$core..panic..PanicPayload$GT$8take_box17h0df143ef4488f020E', symObjAddr: 0x3C144, symBinAddr: 0x100032440, symSize: 0x48 }
  - { offset: 0x400FF, size: 0x8, addend: 0x0, symName: '__ZN99_$LT$std..panicking..begin_panic_handler..StaticStrPayload$u20$as$u20$core..panic..PanicPayload$GT$3get17h5775715a100ee158E', symObjAddr: 0x3C18C, symBinAddr: 0x100032488, symSize: 0xC }
  - { offset: 0x4011A, size: 0x8, addend: 0x0, symName: '__ZN99_$LT$std..panicking..begin_panic_handler..StaticStrPayload$u20$as$u20$core..panic..PanicPayload$GT$6as_str17h4a89cb46754932c0E', symObjAddr: 0x3C198, symBinAddr: 0x100032494, symSize: 0xC }
  - { offset: 0x4013B, size: 0x8, addend: 0x0, symName: '__ZN92_$LT$std..panicking..begin_panic_handler..StaticStrPayload$u20$as$u20$core..fmt..Display$GT$3fmt17h97bd842622e6ccedE', symObjAddr: 0x3C1A4, symBinAddr: 0x1000324A0, symSize: 0x10 }
  - { offset: 0x40157, size: 0x8, addend: 0x0, symName: '__ZN3std9panicking19begin_panic_handler28_$u7b$$u7b$closure$u7d$$u7d$17hdf417b72ab8ffff8E', symObjAddr: 0x3C1B4, symBinAddr: 0x1000324B0, symSize: 0xC4 }
  - { offset: 0x402BF, size: 0x8, addend: 0x0, symName: __ZN3std9panicking14payload_as_str17h9b5790cdb2b550fcE, symObjAddr: 0x3C35C, symBinAddr: 0x100032574, symSize: 0xB0 }
  - { offset: 0x403A3, size: 0x8, addend: 0x0, symName: __ZN3std9panicking20rust_panic_with_hook17hdd8ceeeb04975c2bE, symObjAddr: 0x3C40C, symBinAddr: 0x100032624, symSize: 0x398 }
  - { offset: 0x40BF0, size: 0x8, addend: 0x0, symName: __RNvCs73fAdSrgOJL_7___rustc10rust_panic, symObjAddr: 0x3C898, symBinAddr: 0x10004C5E0, symSize: 0x60 }
  - { offset: 0x40D5D, size: 0x8, addend: 0x0, symName: __ZN3std3sys2fs4unix4File6open_c17h5a31c1e924c31a39E, symObjAddr: 0x4151C, symBinAddr: 0x100034DE0, symSize: 0x1B0 }
  - { offset: 0x40EFC, size: 0x8, addend: 0x0, symName: '__ZN65_$LT$std..sys..fs..unix..Dir$u20$as$u20$core..ops..drop..Drop$GT$4drop17hda69c3116f0d01f9E', symObjAddr: 0x411B8, symBinAddr: 0x100034D14, symSize: 0xCC }
  - { offset: 0x40FC7, size: 0x8, addend: 0x0, symName: __ZN3std3sys2fs8read_dir17ha4d851693f34a78dE, symObjAddr: 0x38968, symBinAddr: 0x1000315C0, symSize: 0x19C }
  - { offset: 0x41360, size: 0x8, addend: 0x0, symName: __ZN3std3sys3pal4unix4sync5mutex5Mutex4init17he47bfeffad10ab23E, symObjAddr: 0x3F018, symBinAddr: 0x100034344, symSize: 0x16C }
  - { offset: 0x41417, size: 0x8, addend: 0x0, symName: __ZN3std3sys3pal4unix4sync5mutex5Mutex4lock4fail17hc6db7b5c9b0389a0E, symObjAddr: 0x3F1A0, symBinAddr: 0x10004C640, symSize: 0xE4 }
  - { offset: 0x4170A, size: 0x8, addend: 0x0, symName: __ZN3std3sys3pal4unix14stack_overflow3imp14signal_handler17h46f8ef1aa7528f43E, symObjAddr: 0x3E7B8, symBinAddr: 0x100033AE4, symSize: 0x290 }
  - { offset: 0x41CDB, size: 0x8, addend: 0x0, symName: __ZN3std3sys3pal4unix14stack_overflow3imp12make_handler17he67200fb708acd59E, symObjAddr: 0x3EA48, symBinAddr: 0x100033D74, symSize: 0x234 }
  - { offset: 0x4208B, size: 0x8, addend: 0x0, symName: __ZN3std3sys3pal4unix14stack_overflow3imp12drop_handler17h683641cfe3e92d15E, symObjAddr: 0x3EC7C, symBinAddr: 0x100033FA8, symSize: 0x39C }
  - { offset: 0x428ED, size: 0x8, addend: 0x0, symName: __ZN3std3sys3pal4unix14stack_overflow11thread_info16set_current_info17hdef3efae36137112E, symObjAddr: 0x3DE70, symBinAddr: 0x10003319C, symSize: 0x948 }
  - { offset: 0x43C93, size: 0x8, addend: 0x0, symName: __ZN3std3sys3pal4unix17decode_error_kind17haabc64936b405e49E, symObjAddr: 0x3FA78, symBinAddr: 0x1000344B0, symSize: 0x150 }
  - { offset: 0x43CAD, size: 0x8, addend: 0x0, symName: __ZN3std3sys3pal4unix14abort_internal17ha2b174aef73aaa99E, symObjAddr: 0x3FBC8, symBinAddr: 0x10004C724, symSize: 0xC }
  - { offset: 0x43D14, size: 0x8, addend: 0x0, symName: __ZN3std3sys3pal6common14small_c_string24run_with_cstr_allocating17h62eae881f61189b9E, symObjAddr: 0x37AA8, symBinAddr: 0x10004C2BC, symSize: 0xC4 }
  - { offset: 0x43EDD, size: 0x8, addend: 0x0, symName: __ZN3std3sys3pal6common14small_c_string24run_with_cstr_allocating17h849b8fb7465c671dE, symObjAddr: 0x37B6C, symBinAddr: 0x10004C380, symSize: 0xAC }
  - { offset: 0x44039, size: 0x8, addend: 0x0, symName: __ZN3std3sys3pal6common14small_c_string24run_with_cstr_allocating17hf63fa4ece05c9b45E, symObjAddr: 0x37CE8, symBinAddr: 0x10004C42C, symSize: 0xA4 }
  - { offset: 0x441F6, size: 0x8, addend: 0x0, symName: '__ZN64_$LT$std..sys..stdio..unix..Stderr$u20$as$u20$std..io..Write$GT$5write17h3b1932d17393f261E', symObjAddr: 0x47870, symBinAddr: 0x100034F90, symSize: 0x58 }
  - { offset: 0x442CC, size: 0x8, addend: 0x0, symName: '__ZN64_$LT$std..sys..stdio..unix..Stderr$u20$as$u20$std..io..Write$GT$14write_vectored17h8ff0487a5ca382e1E', symObjAddr: 0x478C8, symBinAddr: 0x100034FE8, symSize: 0x58 }
  - { offset: 0x443A2, size: 0x8, addend: 0x0, symName: '__ZN64_$LT$std..sys..stdio..unix..Stderr$u20$as$u20$std..io..Write$GT$17is_write_vectored17h806729f05e1b02f1E', symObjAddr: 0x47920, symBinAddr: 0x100035040, symSize: 0x8 }
  - { offset: 0x443BC, size: 0x8, addend: 0x0, symName: '__ZN64_$LT$std..sys..stdio..unix..Stderr$u20$as$u20$std..io..Write$GT$5flush17ha8134fdfc2044e22E', symObjAddr: 0x47928, symBinAddr: 0x100035048, symSize: 0x8 }
  - { offset: 0x44404, size: 0x8, addend: 0x0, symName: '__ZN3std3sys11personality3gcc14find_eh_action28_$u7b$$u7b$closure$u7d$$u7d$17h8e0a401f13cba7b2E', symObjAddr: 0x3FBD4, symBinAddr: 0x100034600, symSize: 0xC }
  - { offset: 0x44418, size: 0x8, addend: 0x0, symName: '__ZN3std3sys11personality3gcc14find_eh_action28_$u7b$$u7b$closure$u7d$$u7d$17hb37e74614c39fe5bE', symObjAddr: 0x3FBE0, symBinAddr: 0x10003460C, symSize: 0xC }
  - { offset: 0x44448, size: 0x8, addend: 0x0, symName: _rust_eh_personality, symObjAddr: 0x3FBEC, symBinAddr: 0x100034618, symSize: 0x378 }
  - { offset: 0x447D1, size: 0x8, addend: 0x0, symName: __ZN3std3sys11personality5dwarf2eh19read_encoded_offset17ha35e0bf259a51371E, symObjAddr: 0x37E3C, symBinAddr: 0x100030CD4, symSize: 0x148 }
  - { offset: 0x44951, size: 0x8, addend: 0x0, symName: '__ZN3std3sys9backtrace10_print_fmt28_$u7b$$u7b$closure$u7d$$u7d$17h53593d80dca05be6E', symObjAddr: 0x382E8, symBinAddr: 0x100031108, symSize: 0x24 }
  - { offset: 0x4497A, size: 0x8, addend: 0x0, symName: '__ZN3std3sys9backtrace10_print_fmt28_$u7b$$u7b$closure$u7d$$u7d$17h562a49be56385aceE', symObjAddr: 0x3830C, symBinAddr: 0x10003112C, symSize: 0x130 }
  - { offset: 0x44A8E, size: 0x8, addend: 0x0, symName: '__ZN3std3sys9backtrace10_print_fmt28_$u7b$$u7b$closure$u7d$$u7d$28_$u7b$$u7b$closure$u7d$$u7d$17had6f8f8b94a1d5d2E', symObjAddr: 0x3843C, symBinAddr: 0x10003125C, symSize: 0x264 }
  - { offset: 0x44CBD, size: 0x8, addend: 0x0, symName: __ZN3std3sys9backtrace4lock17hdabe8353c49be0ebE, symObjAddr: 0x37FFC, symBinAddr: 0x100030E1C, symSize: 0x70 }
  - { offset: 0x44E06, size: 0x8, addend: 0x0, symName: __ZN3std3sys9backtrace13BacktraceLock5print17h3eb1535b8d3666caE, symObjAddr: 0x3806C, symBinAddr: 0x100030E8C, symSize: 0x54 }
  - { offset: 0x44E53, size: 0x8, addend: 0x0, symName: '__ZN98_$LT$std..sys..backtrace..BacktraceLock..print..DisplayBacktrace$u20$as$u20$core..fmt..Display$GT$3fmt17h373e57e2286956dcE', symObjAddr: 0x380C0, symBinAddr: 0x100030EE0, symSize: 0x228 }
  - { offset: 0x45338, size: 0x8, addend: 0x0, symName: __ZN3std3sys9backtrace26__rust_end_short_backtrace17h507d79c50996742eE, symObjAddr: 0x386A0, symBinAddr: 0x1000314C0, symSize: 0xC }
  - { offset: 0x45352, size: 0x8, addend: 0x0, symName: __ZN3std3sys9backtrace15output_filename17h1e17c213ac1ab78dE, symObjAddr: 0x386B8, symBinAddr: 0x1000314CC, symSize: 0xF4 }
  - { offset: 0x45513, size: 0x8, addend: 0x0, symName: '__ZN3std3sys4sync8once_box16OnceBox$LT$T$GT$10initialize17he379977f8bc9e5d3E', symObjAddr: 0x3A608, symBinAddr: 0x10004C4D0, symSize: 0xE4 }
  - { offset: 0x457E8, size: 0x8, addend: 0x0, symName: __ZN3std3sys4sync6rwlock5queue6RwLock21read_unlock_contended17h1b9e50d42faedc94E, symObjAddr: 0x4843C, symBinAddr: 0x10004C980, symSize: 0x40 }
  - { offset: 0x45806, size: 0x8, addend: 0x0, symName: __ZN3std3sys4sync6rwlock5queue6RwLock21read_unlock_contended17h1b9e50d42faedc94E, symObjAddr: 0x4843C, symBinAddr: 0x10004C980, symSize: 0x40 }
  - { offset: 0x4581B, size: 0x8, addend: 0x0, symName: __ZN3std3sys4sync6rwlock5queue6RwLock21read_unlock_contended17h1b9e50d42faedc94E, symObjAddr: 0x4843C, symBinAddr: 0x10004C980, symSize: 0x40 }
  - { offset: 0x45958, size: 0x8, addend: 0x0, symName: __ZN3std3sys4sync6rwlock5queue6RwLock16unlock_contended17h76968e98b916e2abE, symObjAddr: 0x4847C, symBinAddr: 0x10004C9C0, symSize: 0x40 }
  - { offset: 0x45A34, size: 0x8, addend: 0x0, symName: __ZN3std3sys4sync6rwlock5queue6RwLock12unlock_queue17h9c4ac3ac2d5778f9E, symObjAddr: 0x485C8, symBinAddr: 0x1000352D8, symSize: 0x1CC }
  - { offset: 0x4612C, size: 0x8, addend: 0x0, symName: __ZN3std3sys4sync6rwlock5queue9read_lock17h1f89cfb304dc509cE, symObjAddr: 0x481E8, symBinAddr: 0x1000352B8, symSize: 0x20 }
  - { offset: 0x46145, size: 0x8, addend: 0x0, symName: '__ZN83_$LT$std..sys..sync..rwlock..queue..PanicGuard$u20$as$u20$core..ops..drop..Drop$GT$4drop17h5cadc4ef1f5dcd7dE', symObjAddr: 0x48208, symBinAddr: 0x10004C93C, symSize: 0x44 }
  - { offset: 0x4623D, size: 0x8, addend: 0x0, symName: __ZN3std3sys4sync4once5queue4Once4call17hecaba0a776a35aa1E, symObjAddr: 0x47D60, symBinAddr: 0x10004C730, symSize: 0x20C }
  - { offset: 0x4652C, size: 0x8, addend: 0x0, symName: '__ZN82_$LT$std..sys..sync..once..queue..WaiterQueue$u20$as$u20$core..ops..drop..Drop$GT$4drop17h7c83cf796170585cE', symObjAddr: 0x480F4, symBinAddr: 0x1000351D8, symSize: 0xE0 }
  - { offset: 0x466EF, size: 0x8, addend: 0x0, symName: __ZN3std3sys4sync4once5queue4wait17h89a94bf1656b2ec7E, symObjAddr: 0x47F6C, symBinAddr: 0x100035050, symSize: 0x188 }
  - { offset: 0x46CC6, size: 0x8, addend: 0x0, symName: __ZN3std3sys12thread_local6native5eager7destroy17heae091946a683e1cE, symObjAddr: 0x48840, symBinAddr: 0x1000354A4, symSize: 0x2C }
  - { offset: 0x46E17, size: 0x8, addend: 0x0, symName: __ZN3std3sys12thread_local5guard5apple6enable9run_dtors17hef79a299de7fb9adE, symObjAddr: 0x48984, symBinAddr: 0x1000355E8, symSize: 0xF8 }
  - { offset: 0x47330, size: 0x8, addend: 0x0, symName: __ZN3std3sys12thread_local11destructors4list8register17hde6abc51e3c3721cE, symObjAddr: 0x4886C, symBinAddr: 0x1000354D0, symSize: 0x118 }
  - { offset: 0x47641, size: 0x8, addend: 0x0, symName: __ZN3std3sys3env4unix13env_read_lock17ha2bee16bf1e65b98E, symObjAddr: 0x3FF64, symBinAddr: 0x100034990, symSize: 0x23C }
  - { offset: 0x47D4A, size: 0x8, addend: 0x0, symName: '__ZN3std3sys3env4unix6getenv28_$u7b$$u7b$closure$u7d$$u7d$17h5aa62fce8cdb755bE', symObjAddr: 0x401A0, symBinAddr: 0x100034BCC, symSize: 0x148 }
  - { offset: 0x48137, size: 0x8, addend: 0x0, symName: '__ZN64_$LT$std..ffi..os_str..Display$u20$as$u20$core..fmt..Display$GT$3fmt17hf4e02af35f1fefceE', symObjAddr: 0x23390, symBinAddr: 0x10002D890, symSize: 0xAC }
  - { offset: 0x4821F, size: 0x8, addend: 0x0, symName: __ZN3std7process5abort17hbd14f557f4be895cE, symObjAddr: 0x35E58, symBinAddr: 0x10004C1E4, symSize: 0xC }
  - { offset: 0x482AD, size: 0x8, addend: 0x0, symName: __ZN3std4path4Path13_strip_prefix17h44ebcc45a48bcda4E, symObjAddr: 0x336DC, symBinAddr: 0x100030618, symSize: 0x21C }
  - { offset: 0x483CB, size: 0x8, addend: 0x0, symName: __ZN3std4path4Path5_join17h5f97e78c9ec6f8c6E, symObjAddr: 0x33F08, symBinAddr: 0x100030834, symSize: 0x1A4 }
  - { offset: 0x48991, size: 0x8, addend: 0x0, symName: __ZN3std4path10Components15len_before_body17h5c34a7955bf675c9E, symObjAddr: 0x31A18, symBinAddr: 0x10002F9B4, symSize: 0x188 }
  - { offset: 0x489A8, size: 0x8, addend: 0x0, symName: __ZN3std4path10Components15len_before_body17h5c34a7955bf675c9E, symObjAddr: 0x31A18, symBinAddr: 0x10002F9B4, symSize: 0x188 }
  - { offset: 0x489BD, size: 0x8, addend: 0x0, symName: __ZN3std4path10Components15len_before_body17h5c34a7955bf675c9E, symObjAddr: 0x31A18, symBinAddr: 0x10002F9B4, symSize: 0x188 }
  - { offset: 0x48B75, size: 0x8, addend: 0x0, symName: __ZN3std4path10Components7as_path17ha0723f3b84befc75E, symObjAddr: 0x31BA0, symBinAddr: 0x10002FB3C, symSize: 0x318 }
  - { offset: 0x48DED, size: 0x8, addend: 0x0, symName: __ZN3std4path10Components25parse_next_component_back17hb183b6faf02472afE, symObjAddr: 0x31EB8, symBinAddr: 0x10002FE54, symSize: 0x124 }
  - { offset: 0x48FAF, size: 0x8, addend: 0x0, symName: '__ZN80_$LT$std..path..Components$u20$as$u20$core..iter..traits..iterator..Iterator$GT$4next17hc5f2949875039169E', symObjAddr: 0x32174, symBinAddr: 0x10002FF78, symSize: 0x340 }
  - { offset: 0x492AC, size: 0x8, addend: 0x0, symName: '__ZN95_$LT$std..path..Components$u20$as$u20$core..iter..traits..double_ended..DoubleEndedIterator$GT$9next_back17h97da5c60c737f00eE', symObjAddr: 0x324B4, symBinAddr: 0x1000302B8, symSize: 0x360 }
  - { offset: 0x4948B, size: 0x8, addend: 0x0, symName: '__ZN61_$LT$std..path..Component$u20$as$u20$core..cmp..PartialEq$GT$2eq17h9abf03ee93017be9E', symObjAddr: 0x3D540, symBinAddr: 0x100033064, symSize: 0x138 }
  - { offset: 0x4964D, size: 0x8, addend: 0x0, symName: '__ZN81_$LT$std..io..default_write_fmt..Adapter$LT$T$GT$$u20$as$u20$core..fmt..Write$GT$9write_str17h1421ba9cd8ee47c5E', symObjAddr: 0x2CBD4, symBinAddr: 0x10002F054, symSize: 0xA0 }
  - { offset: 0x49775, size: 0x8, addend: 0x0, symName: '__ZN81_$LT$std..io..default_write_fmt..Adapter$LT$T$GT$$u20$as$u20$core..fmt..Write$GT$9write_str17h2d8b7e46a0e35d96E', symObjAddr: 0x2CC74, symBinAddr: 0x10002F0F4, symSize: 0x80 }
  - { offset: 0x498C1, size: 0x8, addend: 0x0, symName: '__ZN81_$LT$std..io..default_write_fmt..Adapter$LT$T$GT$$u20$as$u20$core..fmt..Write$GT$9write_str17h8e69c5e2e9f54588E', symObjAddr: 0x2CE1C, symBinAddr: 0x10002F174, symSize: 0x50 }
  - { offset: 0x498EB, size: 0x8, addend: 0x0, symName: '__ZN81_$LT$std..io..default_write_fmt..Adapter$LT$T$GT$$u20$as$u20$core..fmt..Write$GT$9write_str17hf38da0e8ae1b5efbE', symObjAddr: 0x2CE6C, symBinAddr: 0x10002F1C4, symSize: 0xD8 }
  - { offset: 0x49AAD, size: 0x8, addend: 0x0, symName: '__ZN3std2io5impls74_$LT$impl$u20$std..io..Write$u20$for$u20$alloc..vec..Vec$LT$u8$C$A$GT$$GT$5write17hb822c2b238acf3c4E', symObjAddr: 0x27060, symBinAddr: 0x10002E3AC, symSize: 0x84 }
  - { offset: 0x49BF2, size: 0x8, addend: 0x0, symName: '__ZN3std2io5impls74_$LT$impl$u20$std..io..Write$u20$for$u20$alloc..vec..Vec$LT$u8$C$A$GT$$GT$14write_vectored17h3b2a452d1d260808E', symObjAddr: 0x270E4, symBinAddr: 0x10002E430, symSize: 0x174 }
  - { offset: 0x49E3F, size: 0x8, addend: 0x0, symName: '__ZN3std2io5impls74_$LT$impl$u20$std..io..Write$u20$for$u20$alloc..vec..Vec$LT$u8$C$A$GT$$GT$17is_write_vectored17h85e25b333c28438fE', symObjAddr: 0x27258, symBinAddr: 0x10002E5A4, symSize: 0x8 }
  - { offset: 0x49E5A, size: 0x8, addend: 0x0, symName: '__ZN3std2io5impls74_$LT$impl$u20$std..io..Write$u20$for$u20$alloc..vec..Vec$LT$u8$C$A$GT$$GT$9write_all17h4986f5d3d6bca366E', symObjAddr: 0x27260, symBinAddr: 0x10002E5AC, symSize: 0x80 }
  - { offset: 0x49FA6, size: 0x8, addend: 0x0, symName: '__ZN3std2io5impls74_$LT$impl$u20$std..io..Write$u20$for$u20$alloc..vec..Vec$LT$u8$C$A$GT$$GT$18write_all_vectored17h0ce1bbe6949613dfE', symObjAddr: 0x272E0, symBinAddr: 0x10002E62C, symSize: 0x168 }
  - { offset: 0x49FD1, size: 0x8, addend: 0x0, symName: '__ZN3std2io5impls74_$LT$impl$u20$std..io..Write$u20$for$u20$alloc..vec..Vec$LT$u8$C$A$GT$$GT$18write_all_vectored17h0ce1bbe6949613dfE', symObjAddr: 0x272E0, symBinAddr: 0x10002E62C, symSize: 0x168 }
  - { offset: 0x49FE6, size: 0x8, addend: 0x0, symName: '__ZN3std2io5impls74_$LT$impl$u20$std..io..Write$u20$for$u20$alloc..vec..Vec$LT$u8$C$A$GT$$GT$18write_all_vectored17h0ce1bbe6949613dfE', symObjAddr: 0x272E0, symBinAddr: 0x10002E62C, symSize: 0x168 }
  - { offset: 0x49FFB, size: 0x8, addend: 0x0, symName: '__ZN3std2io5impls74_$LT$impl$u20$std..io..Write$u20$for$u20$alloc..vec..Vec$LT$u8$C$A$GT$$GT$18write_all_vectored17h0ce1bbe6949613dfE', symObjAddr: 0x272E0, symBinAddr: 0x10002E62C, symSize: 0x168 }
  - { offset: 0x4A00F, size: 0x8, addend: 0x0, symName: '__ZN3std2io5impls74_$LT$impl$u20$std..io..Write$u20$for$u20$alloc..vec..Vec$LT$u8$C$A$GT$$GT$18write_all_vectored17h0ce1bbe6949613dfE', symObjAddr: 0x272E0, symBinAddr: 0x10002E62C, symSize: 0x168 }
  - { offset: 0x4A228, size: 0x8, addend: 0x0, symName: '__ZN3std2io5impls74_$LT$impl$u20$std..io..Write$u20$for$u20$alloc..vec..Vec$LT$u8$C$A$GT$$GT$5flush17h2126ea47a926e7aeE', symObjAddr: 0x27448, symBinAddr: 0x10002E794, symSize: 0x8 }
  - { offset: 0x4A33D, size: 0x8, addend: 0x0, symName: '__ZN58_$LT$std..io..error..Error$u20$as$u20$core..fmt..Debug$GT$3fmt17hdf9c13a9945d5c29E', symObjAddr: 0x26864, symBinAddr: 0x10002DF10, symSize: 0x4 }
  - { offset: 0x4A37D, size: 0x8, addend: 0x0, symName: '__ZN3std2io5error83_$LT$impl$u20$core..fmt..Debug$u20$for$u20$std..io..error..repr_bitpacked..Repr$GT$3fmt17h0f29a0fd45fc1bcfE', symObjAddr: 0x26AD8, symBinAddr: 0x10002DF14, symSize: 0x294 }
  - { offset: 0x4A5C8, size: 0x8, addend: 0x0, symName: '__ZN60_$LT$std..io..error..Error$u20$as$u20$core..fmt..Display$GT$3fmt17habdd18ca5ab4309eE', symObjAddr: 0x26D6C, symBinAddr: 0x10002E1A8, symSize: 0x204 }
  - { offset: 0x4A827, size: 0x8, addend: 0x0, symName: '__ZN62_$LT$std..io..error..ErrorKind$u20$as$u20$core..fmt..Debug$GT$3fmt17h2d20d17aac9eb11fE', symObjAddr: 0x3D518, symBinAddr: 0x10003303C, symSize: 0x28 }
  - { offset: 0x4A872, size: 0x8, addend: 0x0, symName: __ZN3std2io5Write9write_all17h968f08b438f23232E, symObjAddr: 0x2CFB8, symBinAddr: 0x10002F29C, symSize: 0xB8 }
  - { offset: 0x4A98D, size: 0x8, addend: 0x0, symName: __ZN3std2io5Write18write_all_vectored17hbcff9dde3b80a800E, symObjAddr: 0x2D070, symBinAddr: 0x10002F354, symSize: 0x1CC }
  - { offset: 0x4AC3E, size: 0x8, addend: 0x0, symName: __ZN3std2io5Write9write_fmt17h00b4007fff731b84E, symObjAddr: 0x2D23C, symBinAddr: 0x10002F520, symSize: 0x128 }
  - { offset: 0x4AE88, size: 0x8, addend: 0x0, symName: __ZN3std2io5Write9write_fmt17h1c9f4e65a2760494E, symObjAddr: 0x2D364, symBinAddr: 0x10002F648, symSize: 0x128 }
  - { offset: 0x4B0D2, size: 0x8, addend: 0x0, symName: __ZN3std2io5Write9write_fmt17h619de9749845ad1bE, symObjAddr: 0x2D48C, symBinAddr: 0x10002F770, symSize: 0x128 }
  - { offset: 0x4B339, size: 0x8, addend: 0x0, symName: '__ZN3std2io8buffered9bufwriter18BufWriter$LT$W$GT$9flush_buf17h4ecd4f227cafd79eE', symObjAddr: 0x25DC8, symBinAddr: 0x10002DD18, symSize: 0x1F8 }
  - { offset: 0x4B8A7, size: 0x8, addend: 0x0, symName: '__ZN3std2io8buffered9bufwriter18BufWriter$LT$W$GT$14write_all_cold17hdc683320716deeb9E', symObjAddr: 0x2614C, symBinAddr: 0x10004C0BC, symSize: 0x128 }
  - { offset: 0x4BCC0, size: 0x8, addend: 0x0, symName: '__ZN61_$LT$$RF$std..io..stdio..Stdout$u20$as$u20$std..io..Write$GT$9write_fmt17h595bf9d2c2ff9fe0E', symObjAddr: 0x2A280, symBinAddr: 0x10002E79C, symSize: 0x190 }
  - { offset: 0x4C0C8, size: 0x8, addend: 0x0, symName: '__ZN61_$LT$std..io..stdio..StdoutLock$u20$as$u20$std..io..Write$GT$9write_all17h373dc2ca22e35da8E', symObjAddr: 0x2A72C, symBinAddr: 0x10002E92C, symSize: 0x268 }
  - { offset: 0x4C85A, size: 0x8, addend: 0x0, symName: __ZN3std2io5stdio6Stderr4lock17h2c1838d646f36f3bE, symObjAddr: 0x2ACCC, symBinAddr: 0x10002EB94, symSize: 0xE4 }
  - { offset: 0x4CB34, size: 0x8, addend: 0x0, symName: __ZN3std2io5stdio22try_set_output_capture17h02e4e20053907c68E, symObjAddr: 0x2BA9C, symBinAddr: 0x10002EC78, symSize: 0xEC }
  - { offset: 0x4CDD5, size: 0x8, addend: 0x0, symName: __ZN3std2io5stdio31print_to_buffer_if_capture_used17hcd908728fda25d1dE, symObjAddr: 0x2BB88, symBinAddr: 0x10002ED64, symSize: 0x20C }
  - { offset: 0x4D4C9, size: 0x8, addend: 0x0, symName: __ZN3std2io5stdio6_print17h934b25807d0b964aE, symObjAddr: 0x2BE68, symBinAddr: 0x10002EF70, symSize: 0xE4 }
  - { offset: 0x4D681, size: 0x8, addend: 0x0, symName: '__ZN3std4sync6poison4once4Once15call_once_force28_$u7b$$u7b$closure$u7d$$u7d$17h5fcd666c0990a5cbE', symObjAddr: 0x36574, symBinAddr: 0x100030BFC, symSize: 0x78 }
  - { offset: 0x4D7BE, size: 0x8, addend: 0x0, symName: '__ZN3std4sync6poison4once4Once15call_once_force28_$u7b$$u7b$closure$u7d$$u7d$17h8900ddc7fabd604dE', symObjAddr: 0x365EC, symBinAddr: 0x100030C74, symSize: 0x60 }
  - { offset: 0x4D87B, size: 0x8, addend: 0x0, symName: '__ZN3std4sync6poison4once4Once9call_once28_$u7b$$u7b$closure$u7d$$u7d$17h09c800c11a2781e6E', symObjAddr: 0x36154, symBinAddr: 0x1000309D8, symSize: 0x224 }
  - { offset: 0x4E205, size: 0x8, addend: 0x0, symName: '__ZN3std4sync9once_lock17OnceLock$LT$T$GT$10initialize17ha33e4a2206d74ec9E', symObjAddr: 0x36EF0, symBinAddr: 0x10004C1F0, symSize: 0x64 }
  - { offset: 0x4E230, size: 0x8, addend: 0x0, symName: '__ZN3std4sync9once_lock17OnceLock$LT$T$GT$10initialize17ha33e4a2206d74ec9E', symObjAddr: 0x36EF0, symBinAddr: 0x10004C1F0, symSize: 0x64 }
  - { offset: 0x4E244, size: 0x8, addend: 0x0, symName: '__ZN3std4sync9once_lock17OnceLock$LT$T$GT$10initialize17ha33e4a2206d74ec9E', symObjAddr: 0x36EF0, symBinAddr: 0x10004C1F0, symSize: 0x64 }
  - { offset: 0x4E258, size: 0x8, addend: 0x0, symName: '__ZN3std4sync9once_lock17OnceLock$LT$T$GT$10initialize17ha33e4a2206d74ec9E', symObjAddr: 0x36EF0, symBinAddr: 0x10004C1F0, symSize: 0x64 }
  - { offset: 0x4E26E, size: 0x8, addend: 0x0, symName: '__ZN3std4sync9once_lock17OnceLock$LT$T$GT$10initialize17hd570d1d77e17be18E', symObjAddr: 0x36FB0, symBinAddr: 0x10004C254, symSize: 0x68 }
  - { offset: 0x4E299, size: 0x8, addend: 0x0, symName: '__ZN3std4sync9once_lock17OnceLock$LT$T$GT$10initialize17hd570d1d77e17be18E', symObjAddr: 0x36FB0, symBinAddr: 0x10004C254, symSize: 0x68 }
  - { offset: 0x4E2AD, size: 0x8, addend: 0x0, symName: '__ZN3std4sync9once_lock17OnceLock$LT$T$GT$10initialize17hd570d1d77e17be18E', symObjAddr: 0x36FB0, symBinAddr: 0x10004C254, symSize: 0x68 }
  - { offset: 0x4E2C1, size: 0x8, addend: 0x0, symName: '__ZN3std4sync9once_lock17OnceLock$LT$T$GT$10initialize17hd570d1d77e17be18E', symObjAddr: 0x36FB0, symBinAddr: 0x10004C254, symSize: 0x68 }
  - { offset: 0x4E466, size: 0x8, addend: 0x0, symName: __ZN3std12backtrace_rs9symbolize5gimli7Context3new17hb91d93e0b4232d15E, symObjAddr: 0x48BB8, symBinAddr: 0x100035728, symSize: 0x1FEC }
  - { offset: 0x5210D, size: 0x8, addend: 0x0, symName: __ZN3std12backtrace_rs9symbolize5gimli7Context11find_frames17h23a2097c4c7962bdE, symObjAddr: 0x4ABA4, symBinAddr: 0x100037714, symSize: 0x390 }
  - { offset: 0x52532, size: 0x8, addend: 0x0, symName: __ZN3std12backtrace_rs9symbolize5gimli5macho6Object5parse17h5fdabfb181ac69c7E, symObjAddr: 0x4DA84, symBinAddr: 0x10003A5DC, symSize: 0xC28 }
  - { offset: 0x54346, size: 0x8, addend: 0x0, symName: __ZN3std12backtrace_rs9symbolize5gimli5macho6Object7section17hc169392917328d37E, symObjAddr: 0x4E6AC, symBinAddr: 0x10003B204, symSize: 0x154 }
  - { offset: 0x5478A, size: 0x8, addend: 0x0, symName: __ZN3std12backtrace_rs9symbolize5gimli5macho11find_header17h55f69df1f605b83cE, symObjAddr: 0x4D8B0, symBinAddr: 0x10003A408, symSize: 0x1D4 }
  - { offset: 0x547A9, size: 0x8, addend: 0x0, symName: __ZN3std12backtrace_rs9symbolize5gimli5macho11find_header17h55f69df1f605b83cE, symObjAddr: 0x4D8B0, symBinAddr: 0x10003A408, symSize: 0x1D4 }
  - { offset: 0x547BF, size: 0x8, addend: 0x0, symName: __ZN3std12backtrace_rs9symbolize5gimli5macho11find_header17h55f69df1f605b83cE, symObjAddr: 0x4D8B0, symBinAddr: 0x10003A408, symSize: 0x1D4 }
  - { offset: 0x547D5, size: 0x8, addend: 0x0, symName: __ZN3std12backtrace_rs9symbolize5gimli5macho11find_header17h55f69df1f605b83cE, symObjAddr: 0x4D8B0, symBinAddr: 0x10003A408, symSize: 0x1D4 }
  - { offset: 0x547EA, size: 0x8, addend: 0x0, symName: __ZN3std12backtrace_rs9symbolize5gimli5macho11find_header17h55f69df1f605b83cE, symObjAddr: 0x4D8B0, symBinAddr: 0x10003A408, symSize: 0x1D4 }
  - { offset: 0x547FF, size: 0x8, addend: 0x0, symName: __ZN3std12backtrace_rs9symbolize5gimli5macho11find_header17h55f69df1f605b83cE, symObjAddr: 0x4D8B0, symBinAddr: 0x10003A408, symSize: 0x1D4 }
  - { offset: 0x54814, size: 0x8, addend: 0x0, symName: __ZN3std12backtrace_rs9symbolize5gimli5macho11find_header17h55f69df1f605b83cE, symObjAddr: 0x4D8B0, symBinAddr: 0x10003A408, symSize: 0x1D4 }
  - { offset: 0x54F4B, size: 0x8, addend: 0x0, symName: __ZN3std12backtrace_rs9symbolize5gimli4mmap17h887dd2c3e0662184E, symObjAddr: 0x4AF34, symBinAddr: 0x100037AA4, symSize: 0x174 }
  - { offset: 0x555E9, size: 0x8, addend: 0x0, symName: __ZN3std12backtrace_rs9symbolize5gimli7resolve17h64427fc4373c0585E, symObjAddr: 0x4B0A8, symBinAddr: 0x100037C18, symSize: 0x27F0 }
  - { offset: 0x5B333, size: 0x8, addend: 0x0, symName: __ZN3std12backtrace_rs9symbolize6Symbol4name17he61211ceb05526e3E, symObjAddr: 0x3C9D8, symBinAddr: 0x1000329BC, symSize: 0xE4 }
  - { offset: 0x5B46A, size: 0x8, addend: 0x0, symName: '__ZN79_$LT$std..backtrace_rs..symbolize..SymbolName$u20$as$u20$core..fmt..Display$GT$3fmt17h4c4c1b4de2e31d53E', symObjAddr: 0x3CBF4, symBinAddr: 0x100032AA0, symSize: 0x100 }
  - { offset: 0x5B593, size: 0x8, addend: 0x0, symName: __ZN3std12backtrace_rs9backtrace9libunwind5trace8trace_fn17h78394d9ee4ccceffE, symObjAddr: 0x48B70, symBinAddr: 0x1000356E0, symSize: 0x48 }
  - { offset: 0x5B664, size: 0x8, addend: 0x0, symName: __ZN3std12backtrace_rs5print17BacktraceFrameFmt21print_raw_with_column17h834ed90aab55fe6fE, symObjAddr: 0x3CDF4, symBinAddr: 0x100032BA0, symSize: 0x304 }
  - { offset: 0x5B787, size: 0x8, addend: 0x0, symName: __ZN3std12backtrace_rs5print17BacktraceFrameFmt14print_fileline17h4f1f1a459d4f9b31E, symObjAddr: 0x3D0F8, symBinAddr: 0x100032EA4, symSize: 0x198 }
  - { offset: 0x5B94B, size: 0x8, addend: 0x0, symName: __ZN3std6thread7current12init_current17h772b2ceaca17750fE, symObjAddr: 0x1F8C0, symBinAddr: 0x10004BF20, symSize: 0x164 }
  - { offset: 0x5BCA8, size: 0x8, addend: 0x0, symName: __ZN3std6thread6Thread3new17h61d7fe27c37d738eE, symObjAddr: 0x207B0, symBinAddr: 0x10002D39C, symSize: 0x158 }
  - { offset: 0x5C0CF, size: 0x8, addend: 0x0, symName: __ZN3std6thread8ThreadId3new9exhausted17hc87ba1ebc9ec3293E, symObjAddr: 0x20668, symBinAddr: 0x10004C084, symSize: 0x38 }
  - { offset: 0x5C10C, size: 0x8, addend: 0x0, symName: '__ZN118_$LT$std..thread..thread_name_string..ThreadNameString$u20$as$u20$core..convert..From$LT$alloc..string..String$GT$$GT$4from17h451023573f089af3E', symObjAddr: 0x206A0, symBinAddr: 0x10002D28C, symSize: 0x110 }
  - { offset: 0x5C337, size: 0x8, addend: 0x0, symName: __ZN3std2rt15handle_rt_panic17h541ba1db327ed283E, symObjAddr: 0x1EE7C, symBinAddr: 0x10004BEDC, symSize: 0x44 }
  - { offset: 0x5C3C7, size: 0x8, addend: 0x0, symName: __ZN3std2rt19lang_start_internal17h9c67c334770c9206E, symObjAddr: 0x1EF24, symBinAddr: 0x10002CBF4, symSize: 0x698 }
  - { offset: 0x5CFA7, size: 0x8, addend: 0x0, symName: __ZN3std5panic19get_backtrace_style17h39e90e609eb8b5abE, symObjAddr: 0x317C4, symBinAddr: 0x10002F898, symSize: 0x11C }
  - { offset: 0x5CFC5, size: 0x8, addend: 0x0, symName: __ZN3std5panic19get_backtrace_style17h39e90e609eb8b5abE, symObjAddr: 0x317C4, symBinAddr: 0x10002F898, symSize: 0x11C }
  - { offset: 0x5CFDA, size: 0x8, addend: 0x0, symName: __ZN3std5panic19get_backtrace_style17h39e90e609eb8b5abE, symObjAddr: 0x317C4, symBinAddr: 0x10002F898, symSize: 0x11C }
  - { offset: 0x5D430, size: 0x8, addend: 0x0, symName: __ZN3std3env11current_dir17hcf122f2a803df77cE, symObjAddr: 0x21AB8, symBinAddr: 0x10002D4F4, symSize: 0x1A0 }
  - { offset: 0x5D7FC, size: 0x8, addend: 0x0, symName: __ZN3std3env4_var17h9dd5e1a62477915dE, symObjAddr: 0x22298, symBinAddr: 0x10002D694, symSize: 0x98 }
  - { offset: 0x5D8F8, size: 0x8, addend: 0x0, symName: __ZN3std3env7_var_os17h2a5365ce2409b350E, symObjAddr: 0x22330, symBinAddr: 0x10002D72C, symSize: 0x164 }
  - { offset: 0x5DBB9, size: 0x8, addend: 0x0, symName: __ZN3std2fs11OpenOptions5_open17h0fbed7ef40f371a5E, symObjAddr: 0x24928, symBinAddr: 0x10002D93C, symSize: 0x250 }
  - { offset: 0x5DD68, size: 0x8, addend: 0x0, symName: '__ZN75_$LT$std..fs..ReadDir$u20$as$u20$core..iter..traits..iterator..Iterator$GT$4next17h60ea7641501e923cE', symObjAddr: 0x24F5C, symBinAddr: 0x10002DB8C, symSize: 0x18C }
  - { offset: 0x5E051, size: 0x8, addend: 0x0, symName: __ZN3std5alloc24default_alloc_error_hook17hbb2afb0af5835e8dE, symObjAddr: 0x3B0F8, symBinAddr: 0x10003175C, symSize: 0x140 }
  - { offset: 0x5E294, size: 0x8, addend: 0x0, symName: __RNvCs73fAdSrgOJL_7___rustc11___rdl_alloc, symObjAddr: 0x3B238, symBinAddr: 0x10003189C, symSize: 0x6C }
  - { offset: 0x5E31A, size: 0x8, addend: 0x0, symName: __RNvCs73fAdSrgOJL_7___rustc13___rdl_dealloc, symObjAddr: 0x3B2A4, symBinAddr: 0x100031908, symSize: 0x4 }
  - { offset: 0x5E33A, size: 0x8, addend: 0x0, symName: __RNvCs73fAdSrgOJL_7___rustc13___rdl_dealloc, symObjAddr: 0x3B2A4, symBinAddr: 0x100031908, symSize: 0x4 }
  - { offset: 0x5E34E, size: 0x8, addend: 0x0, symName: __RNvCs73fAdSrgOJL_7___rustc13___rdl_realloc, symObjAddr: 0x3B2A8, symBinAddr: 0x10003190C, symSize: 0xB0 }
  - { offset: 0x5E42C, size: 0x8, addend: 0x0, symName: __RNvCs73fAdSrgOJL_7___rustc18___rdl_alloc_zeroed, symObjAddr: 0x3B358, symBinAddr: 0x1000319BC, symSize: 0x90 }
  - { offset: 0x5E4D8, size: 0x8, addend: 0x0, symName: __ZN3std5alloc8rust_oom17hdb6eb131aa920ad3E, symObjAddr: 0x48A7C, symBinAddr: 0x10004CA00, symSize: 0x2C }
  - { offset: 0x5E527, size: 0x8, addend: 0x0, symName: __RNvCs73fAdSrgOJL_7___rustc8___rg_oom, symObjAddr: 0x48AA8, symBinAddr: 0x10004CA2C, symSize: 0x18 }
  - { offset: 0x5E597, size: 0x8, addend: 0x0, symName: '__ZN9addr2line8function17Function$LT$R$GT$14parse_children17hf3df585ce7ac8262E', symObjAddr: 0x1DE2C, symBinAddr: 0x10002BBB0, symSize: 0xE84 }
  - { offset: 0x5FE12, size: 0x8, addend: 0x0, symName: __ZN9addr2line8function10name_entry17hfdced0c758d2a567E, symObjAddr: 0x1DAC0, symBinAddr: 0x10002B844, symSize: 0x36C }
  - { offset: 0x602D4, size: 0x8, addend: 0x0, symName: __ZN9addr2line8function9name_attr17h1ce69a4ce3ba7e89E, symObjAddr: 0x1ECB0, symBinAddr: 0x10002CA34, symSize: 0x1C0 }
  - { offset: 0x604F8, size: 0x8, addend: 0x0, symName: __ZN9addr2line4line11render_file17h41488bb5a6979477E, symObjAddr: 0x1C890, symBinAddr: 0x10002A614, symSize: 0x4B0 }
  - { offset: 0x60E57, size: 0x8, addend: 0x0, symName: '__ZN9addr2line4unit16ResUnit$LT$R$GT$25find_function_or_location17h3697563f577d8d9fE', symObjAddr: 0x1CD40, symBinAddr: 0x10002AAC4, symSize: 0x378 }
  - { offset: 0x6132B, size: 0x8, addend: 0x0, symName: '__ZN9addr2line4unit16ResUnit$LT$R$GT$25find_function_or_location28_$u7b$$u7b$closure$u7d$$u7d$17h0d725353a137efa6E', symObjAddr: 0x1D0B8, symBinAddr: 0x10002AE3C, symSize: 0x30C }
  - { offset: 0x616D0, size: 0x8, addend: 0x0, symName: '__ZN9addr2line16Context$LT$R$GT$9find_unit17hfe70ee874184feb7E', symObjAddr: 0x1C734, symBinAddr: 0x10002A4B8, symSize: 0x15C }
  - { offset: 0x6187F, size: 0x8, addend: 0x0, symName: '__ZN9addr2line6lookup30LoopingLookup$LT$T$C$L$C$F$GT$10new_lookup17h479f29027e320fd2E', symObjAddr: 0x1D684, symBinAddr: 0x10002B408, symSize: 0x43C }
  - { offset: 0x61D5B, size: 0x8, addend: 0x0, symName: '__ZN9addr2line5frame18FrameIter$LT$R$GT$4next17hab4653c465939ee8E', symObjAddr: 0x1D3C4, symBinAddr: 0x10002B148, symSize: 0x2C0 }
  - { offset: 0x62478, size: 0x8, addend: 0x0, symName: '__ZN5gimli4read4unit18Attribute$LT$R$GT$5value17hf92c28dec7922b31E', symObjAddr: 0x174B8, symBinAddr: 0x100025774, symSize: 0x598 }
  - { offset: 0x62891, size: 0x8, addend: 0x0, symName: '__ZN90_$LT$gimli..read..unit..AttributeValue$LT$R$C$Offset$GT$$u20$as$u20$core..clone..Clone$GT$5clone17hcb6071538b682662E', symObjAddr: 0x1C614, symBinAddr: 0x10002A450, symSize: 0x68 }
  - { offset: 0x628F1, size: 0x8, addend: 0x0, symName: '__ZN5gimli4read4unit32AttributeValue$LT$R$C$Offset$GT$11udata_value17hb0fbf782d56f4d3fE', symObjAddr: 0x17D08, symBinAddr: 0x100025FC4, symSize: 0x84 }
  - { offset: 0x6294C, size: 0x8, addend: 0x0, symName: __ZN5gimli4read4unit15parse_attribute17h04e99a6e8528e9b0E, symObjAddr: 0x16008, symBinAddr: 0x1000242C4, symSize: 0xF74 }
  - { offset: 0x6550B, size: 0x8, addend: 0x0, symName: __ZN5gimli4read4unit15skip_attributes17h34aae5d204503f89E, symObjAddr: 0x16F7C, symBinAddr: 0x100025238, symSize: 0x53C }
  - { offset: 0x65EF5, size: 0x8, addend: 0x0, symName: '__ZN5gimli4read4unit22EntriesCursor$LT$R$GT$10next_entry17hdbe6c325dc93b25aE', symObjAddr: 0x17A50, symBinAddr: 0x100025D0C, symSize: 0x2B8 }
  - { offset: 0x664B9, size: 0x8, addend: 0x0, symName: '__ZN5gimli4read4unit33DebugInfoUnitHeadersIter$LT$R$GT$4next17ha7bc19eef22d5132E', symObjAddr: 0x17D8C, symBinAddr: 0x100026048, symSize: 0x518 }
  - { offset: 0x67603, size: 0x8, addend: 0x0, symName: '__ZN5gimli4read5dwarf13Unit$LT$R$GT$3new17h686262bf18a65175E', symObjAddr: 0x182A4, symBinAddr: 0x100026560, symSize: 0x1C84 }
  - { offset: 0x6AD5C, size: 0x8, addend: 0x0, symName: '__ZN5gimli4read5dwarf14Dwarf$LT$R$GT$11attr_string17h1e958f109b0daeb0E', symObjAddr: 0x19F28, symBinAddr: 0x1000281E4, symSize: 0x220 }
  - { offset: 0x6B748, size: 0x8, addend: 0x0, symName: __ZN5gimli4read6reader6Reader11read_offset17hfc4380759744d0ccE, symObjAddr: 0x1A808, symBinAddr: 0x100028AC4, symSize: 0xB4 }
  - { offset: 0x6B967, size: 0x8, addend: 0x0, symName: __ZN5gimli4read6reader6Reader12read_sleb12817h1bb18c7db89a5c45E, symObjAddr: 0x1A8BC, symBinAddr: 0x100028B78, symSize: 0x23C }
  - { offset: 0x6BA43, size: 0x8, addend: 0x0, symName: __ZN5gimli4read6reader6Reader12read_uleb12817he2bb007cca6a74e8E, symObjAddr: 0x1AAF8, symBinAddr: 0x100028DB4, symSize: 0xB8 }
  - { offset: 0x6BAEA, size: 0x8, addend: 0x0, symName: __ZN5gimli4read6reader6Reader17read_sized_offset17h350128ac40d4d88bE, symObjAddr: 0x1ABB0, symBinAddr: 0x100028E6C, symSize: 0x10C }
  - { offset: 0x6C256, size: 0x8, addend: 0x0, symName: '__ZN5gimli4read4line27FileEntry$LT$R$C$Offset$GT$5parse17he72fe970b5aeb997E', symObjAddr: 0x15DEC, symBinAddr: 0x1000240A8, symSize: 0x21C }
  - { offset: 0x6C4AD, size: 0x8, addend: 0x0, symName: __ZN5gimli4read4line13parse_file_v517h17de60bb2846bd30E, symObjAddr: 0x14E6C, symBinAddr: 0x100023128, symSize: 0x2B4 }
  - { offset: 0x6C625, size: 0x8, addend: 0x0, symName: __ZN5gimli4read4line15FileEntryFormat5parse17h5b94835e6d431828E, symObjAddr: 0x15120, symBinAddr: 0x1000233DC, symSize: 0x370 }
  - { offset: 0x6CDF8, size: 0x8, addend: 0x0, symName: __ZN5gimli4read4line15parse_attribute17h44b66ac1f1fd4d70E, symObjAddr: 0x15490, symBinAddr: 0x10002374C, symSize: 0x874 }
  - { offset: 0x6E5B2, size: 0x8, addend: 0x0, symName: __ZN5gimli4read4line18parse_directory_v517hc1cf6537e0e6b55eE, symObjAddr: 0x15D04, symBinAddr: 0x100023FC0, symSize: 0xE8 }
  - { offset: 0x6E73D, size: 0x8, addend: 0x0, symName: '__ZN5gimli4read8rnglists20RngListIter$LT$R$GT$4next17h3cf0be4737bd2bfbE', symObjAddr: 0x1AF64, symBinAddr: 0x100029220, symSize: 0xC70 }
  - { offset: 0x71088, size: 0x8, addend: 0x0, symName: '__ZN5gimli4read5index18UnitIndex$LT$R$GT$5parse17hb6f2329c704ae441E', symObjAddr: 0x1A148, symBinAddr: 0x100028404, symSize: 0x6C0 }
  - { offset: 0x715FC, size: 0x8, addend: 0x0, symName: '__ZN5gimli4read7aranges30ArangeHeader$LT$R$C$Offset$GT$5parse17ha7ab83fde3103809E', symObjAddr: 0x1ACBC, symBinAddr: 0x100028F78, symSize: 0x2A8 }
  - { offset: 0x722B9, size: 0x8, addend: 0x0, symName: __ZN6object4read7archive13ArchiveMember5parse17h529fa28f4fec8200E, symObjAddr: 0x1C00C, symBinAddr: 0x100029EEC, symSize: 0x304 }
  - { offset: 0x722D7, size: 0x8, addend: 0x0, symName: __ZN6object4read7archive13ArchiveMember5parse17h529fa28f4fec8200E, symObjAddr: 0x1C00C, symBinAddr: 0x100029EEC, symSize: 0x304 }
  - { offset: 0x722EC, size: 0x8, addend: 0x0, symName: __ZN6object4read7archive13ArchiveMember5parse17h529fa28f4fec8200E, symObjAddr: 0x1C00C, symBinAddr: 0x100029EEC, symSize: 0x304 }
  - { offset: 0x72AE6, size: 0x8, addend: 0x0, symName: __ZN6object4read7archive23parse_bsd_extended_name17ha21d7e6d1cf5441dE, symObjAddr: 0x1C310, symBinAddr: 0x10002A1F0, symSize: 0x260 }
  - { offset: 0x7392D, size: 0x8, addend: 0x0, symName: _OUTLINED_FUNCTION_0, symObjAddr: 0x4E800, symBinAddr: 0x10003B358, symSize: 0x8 }
  - { offset: 0x73945, size: 0x8, addend: 0x0, symName: _OUTLINED_FUNCTION_1, symObjAddr: 0x4E808, symBinAddr: 0x10003B360, symSize: 0xC }
  - { offset: 0x7395D, size: 0x8, addend: 0x0, symName: _OUTLINED_FUNCTION_2, symObjAddr: 0x4E814, symBinAddr: 0x10003B36C, symSize: 0xC }
  - { offset: 0x73975, size: 0x8, addend: 0x0, symName: _OUTLINED_FUNCTION_3, symObjAddr: 0x4E820, symBinAddr: 0x10003B378, symSize: 0xC }
  - { offset: 0x7398D, size: 0x8, addend: 0x0, symName: _OUTLINED_FUNCTION_4, symObjAddr: 0x4E82C, symBinAddr: 0x10003B384, symSize: 0xC }
  - { offset: 0x739A5, size: 0x8, addend: 0x0, symName: _OUTLINED_FUNCTION_5, symObjAddr: 0x4E838, symBinAddr: 0x10003B390, symSize: 0x8 }
  - { offset: 0x739BD, size: 0x8, addend: 0x0, symName: _OUTLINED_FUNCTION_6, symObjAddr: 0x4E840, symBinAddr: 0x10003B398, symSize: 0x24 }
  - { offset: 0x739D5, size: 0x8, addend: 0x0, symName: _OUTLINED_FUNCTION_7, symObjAddr: 0x4E864, symBinAddr: 0x10003B3BC, symSize: 0x10 }
  - { offset: 0x739ED, size: 0x8, addend: 0x0, symName: _OUTLINED_FUNCTION_8, symObjAddr: 0x4E874, symBinAddr: 0x10003B3CC, symSize: 0x8 }
  - { offset: 0x73A05, size: 0x8, addend: 0x0, symName: _OUTLINED_FUNCTION_9, symObjAddr: 0x4E87C, symBinAddr: 0x10003B3D4, symSize: 0x8 }
  - { offset: 0x73A1D, size: 0x8, addend: 0x0, symName: _OUTLINED_FUNCTION_10, symObjAddr: 0x4E884, symBinAddr: 0x10003B3DC, symSize: 0x24 }
  - { offset: 0x73A35, size: 0x8, addend: 0x0, symName: _OUTLINED_FUNCTION_11, symObjAddr: 0x4E8A8, symBinAddr: 0x10003B400, symSize: 0x20 }
  - { offset: 0x73A4D, size: 0x8, addend: 0x0, symName: _OUTLINED_FUNCTION_12, symObjAddr: 0x4E8C8, symBinAddr: 0x10003B420, symSize: 0x8 }
  - { offset: 0x73A65, size: 0x8, addend: 0x0, symName: _OUTLINED_FUNCTION_13, symObjAddr: 0x4E8D0, symBinAddr: 0x10003B428, symSize: 0x8 }
  - { offset: 0x73A7D, size: 0x8, addend: 0x0, symName: _OUTLINED_FUNCTION_14, symObjAddr: 0x4E8D8, symBinAddr: 0x10003B430, symSize: 0x8 }
  - { offset: 0x73A95, size: 0x8, addend: 0x0, symName: _OUTLINED_FUNCTION_15, symObjAddr: 0x4E8E0, symBinAddr: 0x10003B438, symSize: 0x8 }
  - { offset: 0x73AAD, size: 0x8, addend: 0x0, symName: _OUTLINED_FUNCTION_16, symObjAddr: 0x4E8E8, symBinAddr: 0x10003B440, symSize: 0x8 }
  - { offset: 0x73AC5, size: 0x8, addend: 0x0, symName: _OUTLINED_FUNCTION_17, symObjAddr: 0x4E8F0, symBinAddr: 0x10003B448, symSize: 0x10 }
  - { offset: 0x73ADD, size: 0x8, addend: 0x0, symName: _OUTLINED_FUNCTION_18, symObjAddr: 0x4E900, symBinAddr: 0x10003B458, symSize: 0x10 }
  - { offset: 0x73AF5, size: 0x8, addend: 0x0, symName: _OUTLINED_FUNCTION_19, symObjAddr: 0x4E910, symBinAddr: 0x10003B468, symSize: 0x10 }
  - { offset: 0x73B0D, size: 0x8, addend: 0x0, symName: _OUTLINED_FUNCTION_20, symObjAddr: 0x4E920, symBinAddr: 0x10003B478, symSize: 0x10 }
  - { offset: 0x73B25, size: 0x8, addend: 0x0, symName: _OUTLINED_FUNCTION_21, symObjAddr: 0x4E930, symBinAddr: 0x10003B488, symSize: 0xC }
  - { offset: 0x73B3D, size: 0x8, addend: 0x0, symName: _OUTLINED_FUNCTION_22, symObjAddr: 0x4E93C, symBinAddr: 0x10003B494, symSize: 0x18 }
  - { offset: 0x73B55, size: 0x8, addend: 0x0, symName: _OUTLINED_FUNCTION_23, symObjAddr: 0x4E954, symBinAddr: 0x10003B4AC, symSize: 0x8 }
  - { offset: 0x73B6D, size: 0x8, addend: 0x0, symName: _OUTLINED_FUNCTION_24, symObjAddr: 0x4E95C, symBinAddr: 0x10003B4B4, symSize: 0xC }
  - { offset: 0x73B85, size: 0x8, addend: 0x0, symName: _OUTLINED_FUNCTION_25, symObjAddr: 0x4E968, symBinAddr: 0x10003B4C0, symSize: 0xC }
  - { offset: 0x73B9D, size: 0x8, addend: 0x0, symName: _OUTLINED_FUNCTION_26, symObjAddr: 0x4E974, symBinAddr: 0x10003B4CC, symSize: 0x8 }
  - { offset: 0x73BB5, size: 0x8, addend: 0x0, symName: _OUTLINED_FUNCTION_27, symObjAddr: 0x4E97C, symBinAddr: 0x10003B4D4, symSize: 0x8 }
  - { offset: 0x73BCD, size: 0x8, addend: 0x0, symName: _OUTLINED_FUNCTION_28, symObjAddr: 0x4E984, symBinAddr: 0x10003B4DC, symSize: 0xC }
  - { offset: 0x73BE5, size: 0x8, addend: 0x0, symName: _OUTLINED_FUNCTION_29, symObjAddr: 0x4E990, symBinAddr: 0x10003B4E8, symSize: 0xC }
  - { offset: 0x73BFD, size: 0x8, addend: 0x0, symName: _OUTLINED_FUNCTION_30, symObjAddr: 0x4E99C, symBinAddr: 0x10003B4F4, symSize: 0xC }
  - { offset: 0x73C15, size: 0x8, addend: 0x0, symName: _OUTLINED_FUNCTION_31, symObjAddr: 0x4E9A8, symBinAddr: 0x10003B500, symSize: 0x8 }
  - { offset: 0x73C2D, size: 0x8, addend: 0x0, symName: _OUTLINED_FUNCTION_32, symObjAddr: 0x4E9B0, symBinAddr: 0x10003B508, symSize: 0x10 }
  - { offset: 0x73C45, size: 0x8, addend: 0x0, symName: _OUTLINED_FUNCTION_33, symObjAddr: 0x4E9C0, symBinAddr: 0x10003B518, symSize: 0x14 }
  - { offset: 0x73C5D, size: 0x8, addend: 0x0, symName: _OUTLINED_FUNCTION_34, symObjAddr: 0x4E9D4, symBinAddr: 0x10003B52C, symSize: 0x14 }
  - { offset: 0x73C75, size: 0x8, addend: 0x0, symName: _OUTLINED_FUNCTION_35, symObjAddr: 0x4E9E8, symBinAddr: 0x10003B540, symSize: 0x14 }
  - { offset: 0x73C8D, size: 0x8, addend: 0x0, symName: _OUTLINED_FUNCTION_36, symObjAddr: 0x4E9FC, symBinAddr: 0x10003B554, symSize: 0x14 }
  - { offset: 0x73CC3, size: 0x8, addend: 0x0, symName: '__ZN4core3ptr49drop_in_place$LT$panic_unwind..imp..Exception$GT$17h527397a192ffb8f1E', symObjAddr: 0x0, symBinAddr: 0x10003B568, symSize: 0x78 }
  - { offset: 0x73CE9, size: 0x8, addend: 0x0, symName: '__ZN4core3ptr49drop_in_place$LT$panic_unwind..imp..Exception$GT$17h527397a192ffb8f1E', symObjAddr: 0x0, symBinAddr: 0x10003B568, symSize: 0x78 }
  - { offset: 0x73DF0, size: 0x8, addend: 0x0, symName: '__ZN4core3ptr74drop_in_place$LT$alloc..boxed..Box$LT$panic_unwind..imp..Exception$GT$$GT$17ha4260977db93ebb9E', symObjAddr: 0x78, symBinAddr: 0x10003B5E0, symSize: 0x8C }
  - { offset: 0x740B8, size: 0x8, addend: 0x0, symName: __ZN12panic_unwind3imp5panic17exception_cleanup17h2bbea2a6f8ecfebbE, symObjAddr: 0x20C, symBinAddr: 0x10003B774, symSize: 0x18 }
  - { offset: 0x740D4, size: 0x8, addend: 0x0, symName: __RNvCs73fAdSrgOJL_7___rustc20___rust_panic_cleanup, symObjAddr: 0x104, symBinAddr: 0x10003B66C, symSize: 0x68 }
  - { offset: 0x7417A, size: 0x8, addend: 0x0, symName: __RNvCs73fAdSrgOJL_7___rustc18___rust_start_panic, symObjAddr: 0x16C, symBinAddr: 0x10003B6D4, symSize: 0xA0 }
  - { offset: 0x74259, size: 0x8, addend: 0x0, symName: __ZN4core3fmt5Write9write_fmt17hc140709df235180dE, symObjAddr: 0x94, symBinAddr: 0x100042FC8, symSize: 0x10 }
  - { offset: 0x7429B, size: 0x8, addend: 0x0, symName: '__ZN53_$LT$core..fmt..Error$u20$as$u20$core..fmt..Debug$GT$3fmt17haea4712e43834251E', symObjAddr: 0x3A4, symBinAddr: 0x100042FF0, symSize: 0x14 }
  - { offset: 0x74321, size: 0x8, addend: 0x0, symName: '__ZN4core3ptr42drop_in_place$LT$alloc..string..String$GT$17h263ff4f12d214cf2E', symObjAddr: 0xBC, symBinAddr: 0x100042FD8, symSize: 0x18 }
  - { offset: 0x746DD, size: 0x8, addend: 0x0, symName: '__ZN69_$LT$core..alloc..layout..LayoutError$u20$as$u20$core..fmt..Debug$GT$3fmt17h13fbca3ca3dd174dE', symObjAddr: 0x3B8, symBinAddr: 0x100043004, symSize: 0x14 }
  - { offset: 0x74A35, size: 0x8, addend: 0x0, symName: __ZN5alloc7raw_vec17capacity_overflow17hd8f87080832cecbdE, symObjAddr: 0x3CC, symBinAddr: 0x10004CAF0, symSize: 0x34 }
  - { offset: 0x74A7C, size: 0x8, addend: 0x0, symName: '__ZN5alloc7raw_vec20RawVecInner$LT$A$GT$7reserve21do_reserve_and_handle17h4dd33506b8348a9cE', symObjAddr: 0x4A0, symBinAddr: 0x10004CB24, symSize: 0xB0 }
  - { offset: 0x74B7E, size: 0x8, addend: 0x0, symName: __ZN5alloc7raw_vec11finish_grow17h38abc94d42a7bc55E, symObjAddr: 0x550, symBinAddr: 0x10004CBD4, symSize: 0x80 }
  - { offset: 0x74BF4, size: 0x8, addend: 0x0, symName: __ZN5alloc7raw_vec12handle_error17h2ea1403ff25ec75cE, symObjAddr: 0x5D0, symBinAddr: 0x10004CC54, symSize: 0x18 }
  - { offset: 0x74CEE, size: 0x8, addend: 0x0, symName: __ZN5alloc5alloc18handle_alloc_error17h18ccdcfeddefd4c6E, symObjAddr: 0x5E8, symBinAddr: 0x10004CC6C, symSize: 0x18 }
  - { offset: 0x74D98, size: 0x8, addend: 0x0, symName: __ZN5alloc6string6String15from_utf8_lossy17hbc43f3fc78418a81E, symObjAddr: 0x2E90, symBinAddr: 0x100043C90, symSize: 0x23C }
  - { offset: 0x752DE, size: 0x8, addend: 0x0, symName: '__ZN98_$LT$alloc..string..String$u20$as$u20$core..convert..From$LT$alloc..borrow..Cow$LT$str$GT$$GT$$GT$4from17h4b68af2740d6abffE', symObjAddr: 0x47BC, symBinAddr: 0x100043ECC, symSize: 0xB4 }
  - { offset: 0x75434, size: 0x8, addend: 0x0, symName: '__ZN58_$LT$alloc..string..String$u20$as$u20$core..fmt..Write$GT$9write_str17hba5566b7261b3df3E', symObjAddr: 0x491C, symBinAddr: 0x100043F80, symSize: 0x78 }
  - { offset: 0x75587, size: 0x8, addend: 0x0, symName: '__ZN58_$LT$alloc..string..String$u20$as$u20$core..fmt..Write$GT$10write_char17h5afa657ba1086fe6E', symObjAddr: 0x4994, symBinAddr: 0x100043FF8, symSize: 0x130 }
  - { offset: 0x758E6, size: 0x8, addend: 0x0, symName: '__ZN93_$LT$alloc..collections..btree..mem..replace..PanicGuard$u20$as$u20$core..ops..drop..Drop$GT$4drop17he91a4622e79b07ddE', symObjAddr: 0xE74, symBinAddr: 0x10004CC84, symSize: 0x4 }
  - { offset: 0x759A0, size: 0x8, addend: 0x0, symName: '__ZN5alloc3str21_$LT$impl$u20$str$GT$12to_uppercase17h16aa2e335329c7f4E', symObjAddr: 0x2644, symBinAddr: 0x100043444, symSize: 0x84C }
  - { offset: 0x7641B, size: 0x8, addend: 0x0, symName: '__ZN72_$LT$$RF$str$u20$as$u20$alloc..ffi..c_str..CString..new..SpecNewImpl$GT$13spec_new_impl17h19bc653579af59a5E', symObjAddr: 0xEF8, symBinAddr: 0x100043018, symSize: 0x114 }
  - { offset: 0x76647, size: 0x8, addend: 0x0, symName: __ZN5alloc3ffi5c_str7CString19_from_vec_unchecked17h26f80605e3bdda78E, symObjAddr: 0x1150, symBinAddr: 0x10004312C, symSize: 0x160 }
  - { offset: 0x7697A, size: 0x8, addend: 0x0, symName: __ZN5alloc3fmt6format12format_inner17haed4f2c70b405047E, symObjAddr: 0x1858, symBinAddr: 0x10004328C, symSize: 0x1B8 }
  - { offset: 0x76BB9, size: 0x8, addend: 0x0, symName: __ZN5alloc4sync32arcinner_layout_for_value_layout17h8c52c76ed82694fdE, symObjAddr: 0x4C48, symBinAddr: 0x100044128, symSize: 0x74 }
  - { offset: 0x77268, size: 0x8, addend: 0x0, symName: __ZN4core5slice5index26slice_start_index_len_fail8do_panic7runtime17h429c9cce17a0ea9bE, symObjAddr: 0x1C14C, symBinAddr: 0x10004D110, symSize: 0x50 }
  - { offset: 0x7729B, size: 0x8, addend: 0x0, symName: __ZN4core5slice5index26slice_start_index_len_fail17haf25ebf915d057aaE, symObjAddr: 0xF0BC, symBinAddr: 0x10004D078, symSize: 0xC }
  - { offset: 0x772E1, size: 0x8, addend: 0x0, symName: __ZN4core5slice5index24slice_end_index_len_fail8do_panic7runtime17hdec1e0cff231be1dE, symObjAddr: 0x1C19C, symBinAddr: 0x10004D160, symSize: 0x50 }
  - { offset: 0x77314, size: 0x8, addend: 0x0, symName: __ZN4core5slice5index24slice_end_index_len_fail17he89357cd02fca028E, symObjAddr: 0xF0C8, symBinAddr: 0x10004D084, symSize: 0xC }
  - { offset: 0x7735A, size: 0x8, addend: 0x0, symName: __ZN4core5slice5index22slice_index_order_fail8do_panic7runtime17h6303e3dc084ed840E, symObjAddr: 0x1C1EC, symBinAddr: 0x10004D1B0, symSize: 0x50 }
  - { offset: 0x7738D, size: 0x8, addend: 0x0, symName: __ZN4core5slice5index22slice_index_order_fail17he9c8f4194031cd00E, symObjAddr: 0xF0D4, symBinAddr: 0x10004D090, symSize: 0xC }
  - { offset: 0x77710, size: 0x8, addend: 0x0, symName: __ZN4core5slice6memchr14memchr_aligned17hb906e7bc9e85c06eE, symObjAddr: 0xEA94, symBinAddr: 0x100046378, symSize: 0xDC }
  - { offset: 0x777EC, size: 0x8, addend: 0x0, symName: __ZN4core5slice6memchr7memrchr17h7ceb156575b1a919E, symObjAddr: 0xEB70, symBinAddr: 0x100046454, symSize: 0x120 }
  - { offset: 0x77945, size: 0x8, addend: 0x0, symName: __ZN4core5slice4sort6stable5drift11sqrt_approx17hd32bbcccc9c319c0E, symObjAddr: 0xEC90, symBinAddr: 0x100046574, symSize: 0x2C }
  - { offset: 0x779C2, size: 0x8, addend: 0x0, symName: __ZN4core5slice4sort6shared9smallsort22panic_on_ord_violation17h87378ecb72803b59E, symObjAddr: 0xECBC, symBinAddr: 0x10004D040, symSize: 0x38 }
  - { offset: 0x77B10, size: 0x8, addend: 0x0, symName: '__ZN42_$LT$str$u20$as$u20$core..fmt..Display$GT$3fmt17h42462a8471c7143dE', symObjAddr: 0xE768, symBinAddr: 0x100046110, symSize: 0x14 }
  - { offset: 0x77C98, size: 0x8, addend: 0x0, symName: __ZN4core3fmt9Formatter12pad_integral17heb070ef6e4499464E, symObjAddr: 0xC07C, symBinAddr: 0x1000451B8, symSize: 0x3B4 }
  - { offset: 0x77F99, size: 0x8, addend: 0x0, symName: __ZN4core3fmt9Formatter3pad17h299da9dcc544e21cE, symObjAddr: 0xC4AC, symBinAddr: 0x1000455E8, symSize: 0x304 }
  - { offset: 0x782F9, size: 0x8, addend: 0x0, symName: __ZN4core3fmt9Formatter9write_str17hd9a1b7644989a9c8E, symObjAddr: 0xCC04, symBinAddr: 0x1000458EC, symSize: 0x10 }
  - { offset: 0x7830D, size: 0x8, addend: 0x0, symName: __ZN4core3fmt9Formatter12debug_struct17hf7643d0658ff94cfE, symObjAddr: 0xCC20, symBinAddr: 0x1000458FC, symSize: 0x3C }
  - { offset: 0x7834C, size: 0x8, addend: 0x0, symName: __ZN4core3fmt9Formatter26debug_struct_field1_finish17h3d8cc21df86d1f08E, symObjAddr: 0xCC5C, symBinAddr: 0x100045938, symSize: 0xD0 }
  - { offset: 0x78423, size: 0x8, addend: 0x0, symName: __ZN4core3fmt9Formatter26debug_struct_field2_finish17h32b4f697403bec40E, symObjAddr: 0xCD2C, symBinAddr: 0x100045A08, symSize: 0x104 }
  - { offset: 0x784FA, size: 0x8, addend: 0x0, symName: __ZN4core3fmt9Formatter11debug_tuple17h3a3ca798bd11b2bcE, symObjAddr: 0xD340, symBinAddr: 0x100045B0C, symSize: 0x50 }
  - { offset: 0x7854F, size: 0x8, addend: 0x0, symName: __ZN4core3fmt9Formatter25debug_tuple_field2_finish17h0773e66da7fec5dcE, symObjAddr: 0xD4F0, symBinAddr: 0x100045B5C, symSize: 0x1D8 }
  - { offset: 0x78847, size: 0x8, addend: 0x0, symName: __ZN4core3fmt9Formatter10debug_list17hb567e092460f51e4E, symObjAddr: 0xE2A4, symBinAddr: 0x100045D34, symSize: 0x48 }
  - { offset: 0x788EF, size: 0x8, addend: 0x0, symName: __ZN4core3fmt8builders11DebugStruct5field17hcf92289f4867f5e5E, symObjAddr: 0x8288, symBinAddr: 0x1000449F4, symSize: 0x1B4 }
  - { offset: 0x78AEE, size: 0x8, addend: 0x0, symName: __ZN4core3fmt8builders11DebugStruct6finish17h21c87724d91d861aE, symObjAddr: 0x8500, symBinAddr: 0x100044BA8, symSize: 0x80 }
  - { offset: 0x78BEF, size: 0x8, addend: 0x0, symName: '__ZN68_$LT$core..fmt..builders..PadAdapter$u20$as$u20$core..fmt..Write$GT$9write_str17hc0cf6ed124d300b4E', symObjAddr: 0x7FB0, symBinAddr: 0x10004471C, symSize: 0x258 }
  - { offset: 0x78E6F, size: 0x8, addend: 0x0, symName: '__ZN68_$LT$core..fmt..builders..PadAdapter$u20$as$u20$core..fmt..Write$GT$10write_char17h9657826e049c4398E', symObjAddr: 0x8208, symBinAddr: 0x100044974, symSize: 0x80 }
  - { offset: 0x78EF4, size: 0x8, addend: 0x0, symName: __ZN4core3fmt8builders10DebugTuple5field17he743b1e43a659b47E, symObjAddr: 0x8580, symBinAddr: 0x100044C28, symSize: 0x148 }
  - { offset: 0x79080, size: 0x8, addend: 0x0, symName: __ZN4core3fmt8builders10DebugTuple6finish17h39fdb22d98cc1346E, symObjAddr: 0x8788, symBinAddr: 0x100044D70, symSize: 0xB0 }
  - { offset: 0x791CF, size: 0x8, addend: 0x0, symName: __ZN4core3fmt8builders8DebugSet5entry17h99c874a0178a5542E, symObjAddr: 0x8838, symBinAddr: 0x100044E20, symSize: 0x148 }
  - { offset: 0x79374, size: 0x8, addend: 0x0, symName: __ZN4core3fmt8builders9DebugList6finish17hd378c2ebba87d08dE, symObjAddr: 0x8B58, symBinAddr: 0x100044F68, symSize: 0x4C }
  - { offset: 0x79544, size: 0x8, addend: 0x0, symName: '__ZN4core3fmt3num53_$LT$impl$u20$core..fmt..LowerHex$u20$for$u20$i32$GT$3fmt17h6e850657c74d9d25E', symObjAddr: 0x19818, symBinAddr: 0x100048348, symSize: 0x80 }
  - { offset: 0x795EC, size: 0x8, addend: 0x0, symName: '__ZN4core3fmt3num53_$LT$impl$u20$core..fmt..UpperHex$u20$for$u20$i32$GT$3fmt17h997afd280f6b29c7E', symObjAddr: 0x19898, symBinAddr: 0x1000483C8, symSize: 0x80 }
  - { offset: 0x79694, size: 0x8, addend: 0x0, symName: '__ZN4core3fmt3num53_$LT$impl$u20$core..fmt..LowerHex$u20$for$u20$i64$GT$3fmt17hbe7c020a02da664cE', symObjAddr: 0x199F8, symBinAddr: 0x100048448, symSize: 0x80 }
  - { offset: 0x7973C, size: 0x8, addend: 0x0, symName: '__ZN4core3fmt3num53_$LT$impl$u20$core..fmt..UpperHex$u20$for$u20$i64$GT$3fmt17h740b27e908318385E', symObjAddr: 0x19A78, symBinAddr: 0x1000484C8, symSize: 0x80 }
  - { offset: 0x797D7, size: 0x8, addend: 0x0, symName: '__ZN4core3fmt3num52_$LT$impl$u20$core..fmt..LowerHex$u20$for$u20$i8$GT$3fmt17h4b4be5c7ea7962d0E', symObjAddr: 0x19458, symBinAddr: 0x100048248, symSize: 0x80 }
  - { offset: 0x79886, size: 0x8, addend: 0x0, symName: '__ZN4core3fmt3num52_$LT$impl$u20$core..fmt..UpperHex$u20$for$u20$i8$GT$3fmt17h05fab38eb12d6eccE', symObjAddr: 0x194D8, symBinAddr: 0x1000482C8, symSize: 0x80 }
  - { offset: 0x7995A, size: 0x8, addend: 0x0, symName: '__ZN4core3fmt3num3imp51_$LT$impl$u20$core..fmt..Display$u20$for$u20$u8$GT$3fmt17h6b187241d8419cbfE', symObjAddr: 0x1A470, symBinAddr: 0x100048548, symSize: 0xB0 }
  - { offset: 0x79A1E, size: 0x8, addend: 0x0, symName: '__ZN4core3fmt3num3imp52_$LT$impl$u20$core..fmt..Display$u20$for$u20$u32$GT$3fmt17hdad8bbb1fd1b667aE', symObjAddr: 0x1A984, symBinAddr: 0x1000485F8, symSize: 0x130 }
  - { offset: 0x79AF7, size: 0x8, addend: 0x0, symName: '__ZN4core3fmt3num3imp52_$LT$impl$u20$core..fmt..Display$u20$for$u20$i32$GT$3fmt17hf57747113c1e0663E', symObjAddr: 0x1AAB4, symBinAddr: 0x100048728, symSize: 0x13C }
  - { offset: 0x79BF5, size: 0x8, addend: 0x0, symName: '__ZN4core3fmt3num3imp52_$LT$impl$u20$core..fmt..Display$u20$for$u20$u64$GT$3fmt17ha8fcf0d52ed54e0fE', symObjAddr: 0x1ACF8, symBinAddr: 0x100048864, symSize: 0x13C }
  - { offset: 0x79D4E, size: 0x8, addend: 0x0, symName: '__ZN57_$LT$core..fmt..Formatter$u20$as$u20$core..fmt..Write$GT$10write_char17h6d68564ee698b1edE', symObjAddr: 0xE38C, symBinAddr: 0x100045D7C, symSize: 0x10 }
  - { offset: 0x79D81, size: 0x8, addend: 0x0, symName: __ZN4core3fmt5Write9write_fmt17h9614ff1edc252aa5E, symObjAddr: 0xBE40, symBinAddr: 0x100044FB4, symSize: 0x10 }
  - { offset: 0x79DC4, size: 0x8, addend: 0x0, symName: '__ZN59_$LT$core..fmt..Arguments$u20$as$u20$core..fmt..Display$GT$3fmt17h3a775e5eedaf7738E', symObjAddr: 0xBE88, symBinAddr: 0x100044FC4, symSize: 0xC }
  - { offset: 0x79E28, size: 0x8, addend: 0x0, symName: __ZN4core3fmt5write17h2c4a0b98b09e3b30E, symObjAddr: 0xBE94, symBinAddr: 0x100044FD0, symSize: 0x1E8 }
  - { offset: 0x7A007, size: 0x8, addend: 0x0, symName: __ZN4core3fmt9Formatter12pad_integral12write_prefix17hc2a717568d4daf91E, symObjAddr: 0xC430, symBinAddr: 0x10004556C, symSize: 0x7C }
  - { offset: 0x7A04D, size: 0x8, addend: 0x0, symName: '__ZN42_$LT$$RF$T$u20$as$u20$core..fmt..Debug$GT$3fmt17h6e4f67bb97a98f3cE', symObjAddr: 0x1BFA8, symBinAddr: 0x1000489A0, symSize: 0xE0 }
  - { offset: 0x7A16B, size: 0x8, addend: 0x0, symName: '__ZN42_$LT$$RF$T$u20$as$u20$core..fmt..Debug$GT$3fmt17hfbab3261e141b19fE', symObjAddr: 0x1C090, symBinAddr: 0x100048A80, symSize: 0x10 }
  - { offset: 0x7A1A7, size: 0x8, addend: 0x0, symName: '__ZN40_$LT$str$u20$as$u20$core..fmt..Debug$GT$3fmt17h6bb0dde775cede54E', symObjAddr: 0xE3E4, symBinAddr: 0x100045D8C, symSize: 0x384 }
  - { offset: 0x7A5AC, size: 0x8, addend: 0x0, symName: '__ZN41_$LT$char$u20$as$u20$core..fmt..Debug$GT$3fmt17h5b77a63018c31381E', symObjAddr: 0xE77C, symBinAddr: 0x100046124, symSize: 0xA8 }
  - { offset: 0x7A6B6, size: 0x8, addend: 0x0, symName: '__ZN43_$LT$char$u20$as$u20$core..fmt..Display$GT$3fmt17hccc7cc18179c4872E', symObjAddr: 0xE824, symBinAddr: 0x1000461CC, symSize: 0xEC }
  - { offset: 0x7A735, size: 0x8, addend: 0x0, symName: __ZN4core3fmt17pointer_fmt_inner17h454be370dc368025E, symObjAddr: 0xE910, symBinAddr: 0x1000462B8, symSize: 0xC0 }
  - { offset: 0x7A81D, size: 0x8, addend: 0x0, symName: '__ZN44_$LT$$RF$T$u20$as$u20$core..fmt..Display$GT$3fmt17hbbf5e2ca3c54582bE', symObjAddr: 0x1C0B0, symBinAddr: 0x100048A90, symSize: 0x10 }
  - { offset: 0x7A95D, size: 0x8, addend: 0x0, symName: __ZN4core6option13unwrap_failed17h1f788aa856a0b42eE, symObjAddr: 0x7830, symBinAddr: 0x10004CCCC, symSize: 0x1C }
  - { offset: 0x7A978, size: 0x8, addend: 0x0, symName: __ZN4core6option13expect_failed17h89af471ff13548f9E, symObjAddr: 0x784C, symBinAddr: 0x10004CCE8, symSize: 0x48 }
  - { offset: 0x7A9D0, size: 0x8, addend: 0x0, symName: '__ZN71_$LT$core..ops..range..Range$LT$Idx$GT$$u20$as$u20$core..fmt..Debug$GT$3fmt17h658e9a2f8f4bbb48E', symObjAddr: 0x414C, symBinAddr: 0x10004419C, symSize: 0x1F8 }
  - { offset: 0x7AE69, size: 0x8, addend: 0x0, symName: __ZN4core6result13unwrap_failed17h7f68c62f4ec5b70eE, symObjAddr: 0x7EFC, symBinAddr: 0x10004CFE4, symSize: 0x5C }
  - { offset: 0x7B0A8, size: 0x8, addend: 0x0, symName: __ZN4core3str5count14do_count_chars17hd2a57b08be8d1b70E, symObjAddr: 0xF77C, symBinAddr: 0x100046814, symSize: 0x718 }
  - { offset: 0x7B3F9, size: 0x8, addend: 0x0, symName: __ZN4core3str5count23char_count_general_case17h0d6812726d9a8e15E, symObjAddr: 0xFE94, symBinAddr: 0x100046F2C, symSize: 0x2A8 }
  - { offset: 0x7B4A6, size: 0x8, addend: 0x0, symName: __ZN4core3str8converts9from_utf817h7b78634a00291fadE, symObjAddr: 0xF294, symBinAddr: 0x1000465A0, symSize: 0x274 }
  - { offset: 0x7B4C3, size: 0x8, addend: 0x0, symName: __ZN4core3str8converts9from_utf817h7b78634a00291fadE, symObjAddr: 0xF294, symBinAddr: 0x1000465A0, symSize: 0x274 }
  - { offset: 0x7B5B1, size: 0x8, addend: 0x0, symName: __ZN4core3str7pattern11StrSearcher3new17hd95460b09bffc181E, symObjAddr: 0x1087C, symBinAddr: 0x1000471D4, symSize: 0x8BC }
  - { offset: 0x7B8CB, size: 0x8, addend: 0x0, symName: '__ZN87_$LT$core..str..lossy..Utf8Chunks$u20$as$u20$core..iter..traits..iterator..Iterator$GT$4next17h454b21b309792e7dE', symObjAddr: 0x1149C, symBinAddr: 0x100047A90, symSize: 0x1C0 }
  - { offset: 0x7BACF, size: 0x8, addend: 0x0, symName: __ZN4core3str16slice_error_fail17h061e87b9dfc55aadE, symObjAddr: 0x11728, symBinAddr: 0x10004D09C, symSize: 0xC }
  - { offset: 0x7BAE9, size: 0x8, addend: 0x0, symName: __ZN4core3str19slice_error_fail_rt17h7e572c53c14a04e8E, symObjAddr: 0x11768, symBinAddr: 0x100047C50, symSize: 0x344 }
  - { offset: 0x7BD11, size: 0x8, addend: 0x0, symName: '__ZN4core4char7methods22_$LT$impl$u20$char$GT$16escape_debug_ext17h530e3c57cef50f83E', symObjAddr: 0x4EEC, symBinAddr: 0x1000443A8, symSize: 0x284 }
  - { offset: 0x7BFBA, size: 0x8, addend: 0x0, symName: '__ZN65_$LT$core..cell..BorrowMutError$u20$as$u20$core..fmt..Display$GT$3fmt17hce6430c2316144b4E', symObjAddr: 0x4DB8, symBinAddr: 0x100044394, symSize: 0x14 }
  - { offset: 0x7BFEC, size: 0x8, addend: 0x0, symName: __ZN4core4cell22panic_already_borrowed17h0d36ae2fc2f0ba17E, symObjAddr: 0x4DCC, symBinAddr: 0x10004CC88, symSize: 0x44 }
  - { offset: 0x7C03C, size: 0x8, addend: 0x0, symName: __ZN4core7unicode12unicode_data15grapheme_extend11lookup_slow17hd2a4fb5538b8240dE, symObjAddr: 0x1D5B0, symBinAddr: 0x100048AB8, symSize: 0x108 }
  - { offset: 0x7C201, size: 0x8, addend: 0x0, symName: __ZN4core7unicode12unicode_data2cc6lookup17h1698536727c00c0fE, symObjAddr: 0x1D598, symBinAddr: 0x100048AA0, symSize: 0x18 }
  - { offset: 0x7C21F, size: 0x8, addend: 0x0, symName: __ZN4core7unicode12unicode_data2cc6lookup17h1698536727c00c0fE, symObjAddr: 0x1D598, symBinAddr: 0x100048AA0, symSize: 0x18 }
  - { offset: 0x7C26D, size: 0x8, addend: 0x0, symName: __ZN4core7unicode12unicode_data11conversions8to_upper17h389ef6301d18a811E, symObjAddr: 0x1DB50, symBinAddr: 0x100048BC0, symSize: 0x1A4 }
  - { offset: 0x7C3EC, size: 0x8, addend: 0x0, symName: __ZN4core7unicode9printable12is_printable17h484639cf451143c4E, symObjAddr: 0x12484, symBinAddr: 0x100047F94, symSize: 0x2B4 }
  - { offset: 0x7C6FE, size: 0x8, addend: 0x0, symName: __ZN4core3ffi5c_str4CStr19from_bytes_with_nul17h3a2ee221267d5c22E, symObjAddr: 0x5480, symBinAddr: 0x10004462C, symSize: 0xF0 }
  - { offset: 0x7C71C, size: 0x8, addend: 0x0, symName: __ZN4core3ffi5c_str4CStr19from_bytes_with_nul17h3a2ee221267d5c22E, symObjAddr: 0x5480, symBinAddr: 0x10004462C, symSize: 0xF0 }
  - { offset: 0x7C7EB, size: 0x8, addend: 0x0, symName: __ZN4core9panicking9panic_fmt17h3505bfbec5a0b799E, symObjAddr: 0x7AA4, symBinAddr: 0x10004CD30, symSize: 0x20 }
  - { offset: 0x7C82E, size: 0x8, addend: 0x0, symName: __ZN4core9panicking18panic_nounwind_fmt17h9dceef42c0a45ea6E, symObjAddr: 0x7AC4, symBinAddr: 0x10004CD50, symSize: 0x3C }
  - { offset: 0x7C873, size: 0x8, addend: 0x0, symName: __ZN4core9panicking5panic17he76e9111fdaa2ca0E, symObjAddr: 0x7B00, symBinAddr: 0x10004CD8C, symSize: 0x34 }
  - { offset: 0x7C8A2, size: 0x8, addend: 0x0, symName: __ZN4core9panicking14panic_nounwind17h9f7565b148aca0eaE, symObjAddr: 0x7B34, symBinAddr: 0x10004CDC0, symSize: 0x3C }
  - { offset: 0x7C8D1, size: 0x8, addend: 0x0, symName: __ZN4core9panicking26panic_nounwind_nobacktrace17h12b19155b129e9d4E, symObjAddr: 0x7B70, symBinAddr: 0x10004CDFC, symSize: 0x3C }
  - { offset: 0x7C900, size: 0x8, addend: 0x0, symName: __ZN4core9panicking18panic_bounds_check17he97faa96f3a18922E, symObjAddr: 0x7BF4, symBinAddr: 0x10004CE38, symSize: 0x50 }
  - { offset: 0x7C932, size: 0x8, addend: 0x0, symName: __ZN4core9panicking19panic_cannot_unwind17hf7c38fa209f60374E, symObjAddr: 0x7CD4, symBinAddr: 0x10004CE88, symSize: 0x18 }
  - { offset: 0x7C94D, size: 0x8, addend: 0x0, symName: __ZN4core9panicking16panic_in_cleanup17hdc9dae2f5fec47e4E, symObjAddr: 0x7CEC, symBinAddr: 0x10004CEA0, symSize: 0x18 }
  - { offset: 0x7C968, size: 0x8, addend: 0x0, symName: __ZN4core9panicking13assert_failed17h0019f4c0f6063c60E, symObjAddr: 0x7D68, symBinAddr: 0x10004CEB8, symSize: 0x24 }
  - { offset: 0x7C983, size: 0x8, addend: 0x0, symName: __ZN4core9panicking13assert_failed17h748d75638d28cdb2E, symObjAddr: 0x7D8C, symBinAddr: 0x10004CEDC, symSize: 0x24 }
  - { offset: 0x7C99E, size: 0x8, addend: 0x0, symName: __ZN4core9panicking19assert_failed_inner17hcd9fdaaa091321f9E, symObjAddr: 0x7DC4, symBinAddr: 0x10004CF00, symSize: 0xE4 }
  - { offset: 0x7C9EB, size: 0x8, addend: 0x0, symName: __ZN4core9panicking11panic_const23panic_const_div_by_zero17h31f967ea86996136E, symObjAddr: 0x18300, symBinAddr: 0x10004D0A8, symSize: 0x34 }
  - { offset: 0x7CA1A, size: 0x8, addend: 0x0, symName: __ZN4core9panicking11panic_const23panic_const_rem_by_zero17ha1e16486c02437ccE, symObjAddr: 0x18334, symBinAddr: 0x10004D0DC, symSize: 0x34 }
  - { offset: 0x7CA8C, size: 0x8, addend: 0x0, symName: _OUTLINED_FUNCTION_0, symObjAddr: 0x1DCF4, symBinAddr: 0x100048D64, symSize: 0x10 }
...
