---
triple:          'arm64-apple-darwin'
binary-path:     '/Users/tyler/fall25/cse380/final_project/final_project_sqlite/target/debug/deps/libpoem_derive-545ed4e2a90d599e.dylib'
relocations:
  - { offset: 0x1E, size: 0x8, addend: 0x0, symName: __RINvMs2_NtNtCsht3nMU9UgFu_3std6thread5localINtB6_8LocalKeyINtNtCsaNl6UpbT7bw_4core4cell4CellPuEE4withNCNvMs3_B6_BF_7replace0B1s_ECs5R1CLfetgKi_11poem_derive, symObjAddr: 0x0, symBinAddr: 0xC50, symSize: 0x54 }
  - { offset: 0x40, size: 0x8, addend: 0x0, symName: ___rustc_proc_macro_decls_44332983129ee050__, symObjAddr: 0x6478, symBinAddr: 0x2D42E0, symSize: 0x0 }
  - { offset: 0x5A, size: 0x8, addend: 0x0, symName: __RNCNvCs5R1CLfetgKi_11poem_derive16generate_handler0B3_, symObjAddr: 0x3ECC, symBinAddr: 0x4B1C, symSize: 0x50 }
  - { offset: 0x90, size: 0x8, addend: 0x0, symName: __RNCNvCs5R1CLfetgKi_11poem_derive16generate_handlers_0B3_, symObjAddr: 0x3F1C, symBinAddr: 0x4B6C, symSize: 0x84 }
  - { offset: 0xE3, size: 0x8, addend: 0x0, symName: __RNCNvCs5R1CLfetgKi_11poem_derive16generate_handlers0_0B3_, symObjAddr: 0x3FA0, symBinAddr: 0x4BF0, symSize: 0x168 }
  - { offset: 0x1C8, size: 0x8, addend: 0x0, symName: __RNCNvCs5R1CLfetgKi_11poem_derive16generate_handlers1_0B3_, symObjAddr: 0x4108, symBinAddr: 0x4D58, symSize: 0x170 }
  - { offset: 0x234, size: 0x8, addend: 0x0, symName: __RNCNvCs5R1CLfetgKi_11poem_derive16generate_handlers2_0B3_, symObjAddr: 0x4278, symBinAddr: 0x4EC8, symSize: 0x148 }
  - { offset: 0x2BD, size: 0x8, addend: 0x0, symName: __RNvCs5R1CLfetgKi_11poem_derive7handler, symObjAddr: 0x18C0, symBinAddr: 0x2510, symSize: 0x218 }
  - { offset: 0x36F, size: 0x8, addend: 0x0, symName: __RNCNvCs5R1CLfetgKi_11poem_derive7handler0B3_, symObjAddr: 0x1AD8, symBinAddr: 0x2728, symSize: 0xD0 }
  - { offset: 0x3C1, size: 0x8, addend: 0x0, symName: __RNvCs5R1CLfetgKi_11poem_derive16generate_handler, symObjAddr: 0x1BA8, symBinAddr: 0x27F8, symSize: 0x2324 }
  - { offset: 0xB08, size: 0x8, addend: 0x0, symName: __RNvCs5R1CLfetgKi_11poem_derive30generate_implement_middlewares, symObjAddr: 0x43C0, symBinAddr: 0x5010, symSize: 0x12F8 }
  - { offset: 0x108C, size: 0x8, addend: 0x0, symName: __RNCNvCs5R1CLfetgKi_11poem_derive30generate_implement_middlewares0B3_, symObjAddr: 0x56B8, symBinAddr: 0x6308, symSize: 0x14C }
  - { offset: 0x13E5, size: 0x8, addend: 0x0, symName: __RNCINvNtNtCs7yrEGia95Wz_10proc_macro6bridge6client10run_clientNtB4_11TokenStreamINtNtCsaNl6UpbT7bw_4core6option6OptionBY_ENCNCINvMs6_B4_INtB4_6ClientNtB8_11TokenStreamB2n_E7expand1NvCs5R1CLfetgKi_11poem_derive30generate_implement_middlewaresE00E0B2U_, symObjAddr: 0x69C, symBinAddr: 0x12EC, symSize: 0x324 }
  - { offset: 0x160A, size: 0x8, addend: 0x0, symName: __RNCINvNtNtCs7yrEGia95Wz_10proc_macro6bridge6client10run_clientTNtB4_11TokenStreamBZ_EINtNtCsaNl6UpbT7bw_4core6option6OptionBZ_ENCNCINvMs7_B4_INtB4_6ClientTNtB8_11TokenStreamB2t_EB2t_E7expand2NvCs5R1CLfetgKi_11poem_derive7handlerE00E0B35_, symObjAddr: 0x9C0, symBinAddr: 0x1610, symSize: 0x344 }
  - { offset: 0x1834, size: 0x8, addend: 0x0, symName: __RNCNCINvNtNtCs7yrEGia95Wz_10proc_macro6bridge6client10run_clientNtB6_11TokenStreamINtNtCsaNl6UpbT7bw_4core6option6OptionB10_ENCNCINvMs6_B6_INtB6_6ClientNtBa_11TokenStreamB2q_E7expand1NvCs5R1CLfetgKi_11poem_derive30generate_implement_middlewaresE00E00B2X_, symObjAddr: 0xD78, symBinAddr: 0x19C8, symSize: 0x28 }
  - { offset: 0x188E, size: 0x8, addend: 0x0, symName: __RNCNCINvNtNtCs7yrEGia95Wz_10proc_macro6bridge6client10run_clientTNtB6_11TokenStreamB11_EINtNtCsaNl6UpbT7bw_4core6option6OptionB11_ENCNCINvMs7_B6_INtB6_6ClientTNtBa_11TokenStreamB2x_EB2x_E7expand2NvCs5R1CLfetgKi_11poem_derive7handlerE00E00B39_, symObjAddr: 0xDA0, symBinAddr: 0x19F0, symSize: 0x24 }
  - { offset: 0x190E, size: 0x8, addend: 0x0, symName: __RNCNCINvMs6_NtNtCs7yrEGia95Wz_10proc_macro6bridge6clientINtBa_6ClientNtBe_11TokenStreamB15_E7expand1NvCs5R1CLfetgKi_11poem_derive30generate_implement_middlewaresE00B1C_, symObjAddr: 0xD04, symBinAddr: 0x1954, symSize: 0x30 }
  - { offset: 0x1957, size: 0x8, addend: 0x0, symName: __RNCINvMs6_NtNtCs7yrEGia95Wz_10proc_macro6bridge6clientINtB8_6ClientNtBc_11TokenStreamB13_E7expand1NvCs5R1CLfetgKi_11poem_derive30generate_implement_middlewaresE0B1A_, symObjAddr: 0x63C, symBinAddr: 0x128C, symSize: 0x30 }
  - { offset: 0x19A2, size: 0x8, addend: 0x0, symName: __RINvNtNtCs7yrEGia95Wz_10proc_macro6bridge6client10run_clientNtB2_11TokenStreamINtNtCsaNl6UpbT7bw_4core6option6OptionBW_ENCNCINvMs6_B2_INtB2_6ClientNtB6_11TokenStreamB2l_E7expand1NvCs5R1CLfetgKi_11poem_derive30generate_implement_middlewaresE00EB2S_, symObjAddr: 0x138, symBinAddr: 0xD88, symSize: 0x21C }
  - { offset: 0x1B99, size: 0x8, addend: 0x0, symName: __RNCNCINvMs7_NtNtCs7yrEGia95Wz_10proc_macro6bridge6clientINtBa_6ClientTNtBe_11TokenStreamB16_EB16_E7expand2NvCs5R1CLfetgKi_11poem_derive7handlerE00B1I_, symObjAddr: 0xD34, symBinAddr: 0x1984, symSize: 0x44 }
  - { offset: 0x1C0C, size: 0x8, addend: 0x0, symName: __RNCINvMs7_NtNtCs7yrEGia95Wz_10proc_macro6bridge6clientINtB8_6ClientTNtBc_11TokenStreamB14_EB14_E7expand2NvCs5R1CLfetgKi_11poem_derive7handlerE0B1G_, symObjAddr: 0x66C, symBinAddr: 0x12BC, symSize: 0x30 }
  - { offset: 0x1C57, size: 0x8, addend: 0x0, symName: __RINvNtNtCs7yrEGia95Wz_10proc_macro6bridge6client10run_clientTNtB2_11TokenStreamBX_EINtNtCsaNl6UpbT7bw_4core6option6OptionBX_ENCNCINvMs7_B2_INtB2_6ClientTNtB6_11TokenStreamB2r_EB2r_E7expand2NvCs5R1CLfetgKi_11poem_derive7handlerE00EB33_, symObjAddr: 0x354, symBinAddr: 0xFA4, symSize: 0x21C }
  - { offset: 0x1E7F, size: 0x8, addend: 0x0, symName: __RNvXsf_NtNtCs7yrEGia95Wz_10proc_macro6bridge6clientNtB5_11TokenStreamINtNtB7_3rpc6EncodeuE6encodeCs5R1CLfetgKi_11poem_derive, symObjAddr: 0x1754, symBinAddr: 0x23A4, symSize: 0x50 }
  - { offset: 0x1F90, size: 0x8, addend: 0x0, symName: __RNvXsi_NtNtCs7yrEGia95Wz_10proc_macro6bridge6clientNtB5_11TokenStreamINtNtB7_3rpc9DecodeMutuE6decodeCs5R1CLfetgKi_11poem_derive, symObjAddr: 0x17A4, symBinAddr: 0x23F4, symSize: 0x2C }
  - { offset: 0x1FD9, size: 0x8, addend: 0x0, symName: __RNvXsk_NtNtCs7yrEGia95Wz_10proc_macro6bridge6clientNtB5_4SpanINtNtB7_3rpc9DecodeMutuE6decodeCs5R1CLfetgKi_11poem_derive, symObjAddr: 0x17D0, symBinAddr: 0x2420, symSize: 0x2C }
  - { offset: 0x2228, size: 0x8, addend: 0x0, symName: __RNvXs9_NtNtCs7yrEGia95Wz_10proc_macro6bridge3rpcTNtNtB7_6client11TokenStreamBL_EINtB5_9DecodeMutuE6decodeCs5R1CLfetgKi_11poem_derive, symObjAddr: 0x16D4, symBinAddr: 0x2324, symSize: 0x80 }
  - { offset: 0x5417, size: 0x8, addend: 0x0, symName: __RNvNvNtCsaNl6UpbT7bw_4core3ptr19copy_nonoverlapping18precondition_checkCs5R1CLfetgKi_11poem_derive, symObjAddr: 0x1024, symBinAddr: 0x1C74, symSize: 0x36C }
  - { offset: 0x5D87, size: 0x8, addend: 0x0, symName: __RNvXs1_NtNtNtCsaNl6UpbT7bw_4core3ops8function5implsQNCNvCs5R1CLfetgKi_11poem_derive16generate_handler0INtB7_5FnMutTRRNtNtCsc29TF2YcYso_3syn4attr9AttributeEE8call_mutBS_, symObjAddr: 0x1434, symBinAddr: 0x2084, symSize: 0x30 }
  - { offset: 0x5DD6, size: 0x8, addend: 0x0, symName: __RNvXs1_NtNtNtCsaNl6UpbT7bw_4core3ops8function5implsQNCNvCs5R1CLfetgKi_11poem_derive16generate_handlers_0INtB7_5FnMutTRNtNtCsc29TF2YcYso_3syn8generics12GenericParamEE8call_mutBS_, symObjAddr: 0x1464, symBinAddr: 0x20B4, symSize: 0x30 }
  - { offset: 0x60C9, size: 0x8, addend: 0x0, symName: __RNvXsn_NtNtCsaNl6UpbT7bw_4core5panic11unwind_safeINtB5_16AssertUnwindSafeNCINvNtNtCs7yrEGia95Wz_10proc_macro6bridge6client10run_clientNtB1e_11TokenStreamINtNtB9_6option6OptionB28_ENCNCINvMs6_B1e_INtB1e_6ClientNtB1i_11TokenStreamB3l_E7expand1NvCs5R1CLfetgKi_11poem_derive30generate_implement_middlewaresE00E0EINtNtNtB9_3ops8function6FnOnceuE9call_onceB3T_, symObjAddr: 0x17FC, symBinAddr: 0x244C, symSize: 0x38 }
  - { offset: 0x6121, size: 0x8, addend: 0x0, symName: __RNvXsn_NtNtCsaNl6UpbT7bw_4core5panic11unwind_safeINtB5_16AssertUnwindSafeNCINvNtNtCs7yrEGia95Wz_10proc_macro6bridge6client10run_clientTNtB1e_11TokenStreamB29_EINtNtB9_6option6OptionB29_ENCNCINvMs7_B1e_INtB1e_6ClientTNtB1i_11TokenStreamB3s_EB3s_E7expand2NvCs5R1CLfetgKi_11poem_derive7handlerE00E0EINtNtNtB9_3ops8function6FnOnceuE9call_onceB45_, symObjAddr: 0x1834, symBinAddr: 0x2484, symSize: 0x38 }
  - { offset: 0x61BE, size: 0x8, addend: 0x0, symName: __RINvXs2V_NtNtCsaNl6UpbT7bw_4core5slice4iterINtB7_4IterNtNtCsc29TF2YcYso_3syn4attr9AttributeENtNtNtNtBb_4iter6traits8iterator8Iterator4findQNCNvCs5R1CLfetgKi_11poem_derive16generate_handler0EB2h_, symObjAddr: 0x570, symBinAddr: 0x11C0, symSize: 0xB0 }
  - { offset: 0x6223, size: 0x8, addend: 0x0, symName: __RNvXs2V_NtNtCsaNl6UpbT7bw_4core5slice4iterINtB6_4IterNtCshnvkK9b4wzu_11proc_macro211TokenStreamENtNtNtNtBa_4iter6traits8iterator8Iterator4nextCs5R1CLfetgKi_11poem_derive, symObjAddr: 0x1494, symBinAddr: 0x20E4, symSize: 0xB0 }
  - { offset: 0x635D, size: 0x8, addend: 0x0, symName: __RNvXs2V_NtNtCsaNl6UpbT7bw_4core5slice4iterINtB6_4IterNtCshnvkK9b4wzu_11proc_macro25IdentENtNtNtNtBa_4iter6traits8iterator8Iterator4nextCs5R1CLfetgKi_11poem_derive, symObjAddr: 0x1544, symBinAddr: 0x2194, symSize: 0xB0 }
  - { offset: 0x6497, size: 0x8, addend: 0x0, symName: __RNvXs2V_NtNtCsaNl6UpbT7bw_4core5slice4iterINtB6_4IterNtNtCsc29TF2YcYso_3syn4attr9AttributeENtNtNtNtBa_4iter6traits8iterator8Iterator9size_hintCs5R1CLfetgKi_11poem_derive, symObjAddr: 0x15F4, symBinAddr: 0x2244, symSize: 0x70 }
  - { offset: 0x6635, size: 0x8, addend: 0x0, symName: __RINvYINtNtNtCsaNl6UpbT7bw_4core5slice4iter4IterNtNtCsc29TF2YcYso_3syn4attr9AttributeENtNtNtNtBa_4iter6traits8iterator8Iterator6filterNCNvCs5R1CLfetgKi_11poem_derive16generate_handler0EB2b_, symObjAddr: 0x620, symBinAddr: 0x1270, symSize: 0x1C }
  - { offset: 0x6684, size: 0x8, addend: 0x0, symName: __RNvYINtNtNtNtCsaNl6UpbT7bw_4core4iter8adapters10filter_map9FilterMapINtNtCsc29TF2YcYso_3syn10punctuated4IterNtNtB19_8generics12GenericParamENCNvCs5R1CLfetgKi_11poem_derive16generate_handlers_0ENtNtNtB9_6traits8iterator8Iterator9enumerateB2i_, symObjAddr: 0x186C, symBinAddr: 0x24BC, symSize: 0x28 }
  - { offset: 0x66E2, size: 0x8, addend: 0x0, symName: __RNvXs0_NtNtNtCsaNl6UpbT7bw_4core4iter8adapters10filter_mapINtB5_9FilterMapINtNtCsc29TF2YcYso_3syn10punctuated4IterNtNtB1f_8generics12GenericParamENCNvCs5R1CLfetgKi_11poem_derive16generate_handlers_0ENtNtNtB9_6traits8iterator8Iterator4nextB2o_, symObjAddr: 0x1408, symBinAddr: 0x2058, symSize: 0x2C }
  - { offset: 0x672F, size: 0x8, addend: 0x0, symName: __RNvXs6_NtNtNtCsaNl6UpbT7bw_4core4iter8adapters10filter_mapINtB5_9FilterMapINtNtCsc29TF2YcYso_3syn10punctuated4IterNtNtB1f_8generics12GenericParamENCNvCs5R1CLfetgKi_11poem_derive16generate_handlers_0ENtNtBb_5clone5Clone5cloneB2o_, symObjAddr: 0x1664, symBinAddr: 0x22B4, symSize: 0x70 }
  - { offset: 0x6AF5, size: 0x8, addend: 0x0, symName: __RNvNvMNtNtCsaNl6UpbT7bw_4core5alloc6layoutNtB4_6Layout25from_size_align_unchecked18precondition_checkCs5R1CLfetgKi_11poem_derive, symObjAddr: 0xF68, symBinAddr: 0x1BB8, symSize: 0xBC }
  - { offset: 0x732B, size: 0x8, addend: 0x0, symName: __RNCNvMs3_NtNtCsht3nMU9UgFu_3std6thread5localINtB7_8LocalKeyINtNtCsaNl6UpbT7bw_4core4cell4CellPuEE7replace0Cs5R1CLfetgKi_11poem_derive, symObjAddr: 0xDC4, symBinAddr: 0x1A14, symSize: 0x28 }
  - { offset: 0x7597, size: 0x8, addend: 0x0, symName: __RINvMs2_NtNtCsht3nMU9UgFu_3std6thread5localINtB6_8LocalKeyINtNtCsaNl6UpbT7bw_4core4cell4CellPuEE4withNCNvMs3_B6_BF_7replace0B1s_ECs5R1CLfetgKi_11poem_derive, symObjAddr: 0x0, symBinAddr: 0xC50, symSize: 0x54 }
  - { offset: 0x7650, size: 0x8, addend: 0x0, symName: __RINvMs2_NtNtCsht3nMU9UgFu_3std6thread5localINtB6_8LocalKeyINtNtCsaNl6UpbT7bw_4core4cell4CellPuEE8try_withNCNvMs3_B6_BF_7replace0B1s_ECs5R1CLfetgKi_11poem_derive, symObjAddr: 0x54, symBinAddr: 0xCA4, symSize: 0xE4 }
  - { offset: 0x86C0, size: 0x8, addend: 0x0, symName: __RNvNtCsiTraAjBDcu4_5alloc3fmt6formatCs5R1CLfetgKi_11poem_derive, symObjAddr: 0xE94, symBinAddr: 0x1AE4, symSize: 0xD4 }
  - { offset: 0x8B66, size: 0x8, addend: 0x0, symName: __RNvMs4_NtNtCsaNl6UpbT7bw_4core5slice4iterINtB5_4IterNtCshnvkK9b4wzu_11proc_macro211TokenStreamE3newCs5R1CLfetgKi_11poem_derive, symObjAddr: 0xDEC, symBinAddr: 0x1A3C, symSize: 0x50 }
  - { offset: 0x8D30, size: 0x8, addend: 0x0, symName: __RNvMs4_NtNtCsaNl6UpbT7bw_4core5slice4iterINtB5_4IterNtCshnvkK9b4wzu_11proc_macro25IdentE3newCs5R1CLfetgKi_11poem_derive, symObjAddr: 0xE3C, symBinAddr: 0x1A8C, symSize: 0x58 }
  - { offset: 0x8F9A, size: 0x8, addend: 0x0, symName: __RNvXNtCs4EAaWzSXu1l_5quote14ident_fragmentRjNtB2_13IdentFragment3fmtCs5R1CLfetgKi_11poem_derive, symObjAddr: 0x1390, symBinAddr: 0x1FE0, symSize: 0x40 }
  - { offset: 0x8FDD, size: 0x8, addend: 0x0, symName: __RNvXNtCs4EAaWzSXu1l_5quote14ident_fragmentRjNtB2_13IdentFragment4spanCs5R1CLfetgKi_11poem_derive, symObjAddr: 0x13D0, symBinAddr: 0x2020, symSize: 0x38 }
  - { offset: 0x9018, size: 0x8, addend: 0x0, symName: __RNvYjNtNtCs4EAaWzSXu1l_5quote14ident_fragment13IdentFragment4spanCs5R1CLfetgKi_11poem_derive, symObjAddr: 0x1894, symBinAddr: 0x24E4, symSize: 0x2C }
  - { offset: 0xE8D6, size: 0x8, addend: 0x0, symName: __RINvCsc29TF2YcYso_3syn5parseNtNtB2_4item6ItemFnECs5R1CLfetgKi_11poem_derive, symObjAddr: 0x0, symBinAddr: 0x64A8, symSize: 0x30 }
  - { offset: 0xEBC8, size: 0x8, addend: 0x0, symName: __RINvNvNtCsht3nMU9UgFu_3std9panicking12catch_unwind7do_callINtNtNtCsaNl6UpbT7bw_4core5panic11unwind_safe16AssertUnwindSafeNCINvNtNtCs7yrEGia95Wz_10proc_macro6bridge6client10run_clientNtB20_11TokenStreamINtNtB11_6option6OptionB2U_ENCNCINvMs6_B20_INtB20_6ClientNtB24_11TokenStreamB48_E7expand1NvCs5R1CLfetgKi_11poem_derive30generate_implement_middlewaresE00E0EuEB4G_, symObjAddr: 0x1434, symBinAddr: 0x78DC, symSize: 0x50 }
  - { offset: 0xEC90, size: 0x8, addend: 0x0, symName: __RINvNvNtCsht3nMU9UgFu_3std9panicking12catch_unwind7do_callINtNtNtCsaNl6UpbT7bw_4core5panic11unwind_safe16AssertUnwindSafeNCINvNtNtCs7yrEGia95Wz_10proc_macro6bridge6client10run_clientTNtB20_11TokenStreamB2V_EINtNtB11_6option6OptionB2V_ENCNCINvMs7_B20_INtB20_6ClientTNtB24_11TokenStreamB4f_EB4f_E7expand2NvCs5R1CLfetgKi_11poem_derive7handlerE00E0EuEB4S_, symObjAddr: 0x1484, symBinAddr: 0x792C, symSize: 0x50 }
  - { offset: 0xED58, size: 0x8, addend: 0x0, symName: __RINvNvNtCsht3nMU9UgFu_3std9panicking12catch_unwind8do_catchINtNtNtCsaNl6UpbT7bw_4core5panic11unwind_safe16AssertUnwindSafeNCINvNtNtCs7yrEGia95Wz_10proc_macro6bridge6client10run_clientNtB21_11TokenStreamINtNtB12_6option6OptionB2V_ENCNCINvMs6_B21_INtB21_6ClientNtB25_11TokenStreamB49_E7expand1NvCs5R1CLfetgKi_11poem_derive30generate_implement_middlewaresE00E0EuEB4H_, symObjAddr: 0x14D4, symBinAddr: 0x797C, symSize: 0x70 }
  - { offset: 0xEDED, size: 0x8, addend: 0x0, symName: __RINvNvNtCsht3nMU9UgFu_3std9panicking12catch_unwind8do_catchINtNtNtCsaNl6UpbT7bw_4core5panic11unwind_safe16AssertUnwindSafeNCINvNtNtCs7yrEGia95Wz_10proc_macro6bridge6client10run_clientTNtB21_11TokenStreamB2W_EINtNtB12_6option6OptionB2W_ENCNCINvMs7_B21_INtB21_6ClientTNtB25_11TokenStreamB4g_EB4g_E7expand2NvCs5R1CLfetgKi_11poem_derive7handlerE00E0EuEB4T_, symObjAddr: 0x1544, symBinAddr: 0x79EC, symSize: 0x70 }
  - { offset: 0xF050, size: 0x8, addend: 0x0, symName: __RNvNvMs1_NtNtCsaNl6UpbT7bw_4core3ptr8non_nullINtB7_7NonNullpE13new_unchecked18precondition_checkCs5R1CLfetgKi_11poem_derive, symObjAddr: 0x2844, symBinAddr: 0x8CE8, symSize: 0xA4 }
  - { offset: 0xF561, size: 0x8, addend: 0x0, symName: __RNvNvMNtNtCsaNl6UpbT7bw_4core3ptr9const_ptrPp20offset_from_unsigned18precondition_checkCs5R1CLfetgKi_11poem_derive, symObjAddr: 0x2798, symBinAddr: 0x8C3C, symSize: 0xAC }
  - { offset: 0xF774, size: 0x8, addend: 0x0, symName: __RINvNtCsaNl6UpbT7bw_4core3ptr13drop_in_placeINtNtB4_4cell10UnsafeCellNtNtNtCs7yrEGia95Wz_10proc_macro6bridge6client6BridgeEECs5R1CLfetgKi_11poem_derive, symObjAddr: 0x3A4, symBinAddr: 0x684C, symSize: 0x24 }
  - { offset: 0xF7A3, size: 0x8, addend: 0x0, symName: __RINvNtCsaNl6UpbT7bw_4core3ptr13drop_in_placeINtNtB4_4cell7RefCellNtNtNtCs7yrEGia95Wz_10proc_macro6bridge6client6BridgeEECs5R1CLfetgKi_11poem_derive, symObjAddr: 0x3C8, symBinAddr: 0x6870, symSize: 0x24 }
  - { offset: 0xF7D2, size: 0x8, addend: 0x0, symName: __RINvNtCsaNl6UpbT7bw_4core3ptr13drop_in_placeINtNtB4_6option4ItemNtNtCsc29TF2YcYso_3syn4item5FnArgEECs5R1CLfetgKi_11poem_derive, symObjAddr: 0x3EC, symBinAddr: 0x6894, symSize: 0x24 }
  - { offset: 0xF801, size: 0x8, addend: 0x0, symName: __RINvNtCsaNl6UpbT7bw_4core3ptr13drop_in_placeINtNtB4_6option6OptionNtNtCsc29TF2YcYso_3syn4attr9AttributeEECs5R1CLfetgKi_11poem_derive, symObjAddr: 0x410, symBinAddr: 0x68B8, symSize: 0x44 }
  - { offset: 0xF830, size: 0x8, addend: 0x0, symName: __RINvNtCsaNl6UpbT7bw_4core3ptr13drop_in_placeINtNtB4_6option6OptionNtNtCsc29TF2YcYso_3syn4item5FnArgEECs5R1CLfetgKi_11poem_derive, symObjAddr: 0x454, symBinAddr: 0x68FC, symSize: 0x48 }
  - { offset: 0xF85F, size: 0x8, addend: 0x0, symName: __RINvNtCsaNl6UpbT7bw_4core3ptr13drop_in_placeINtNtB4_6option8IntoIterNtNtCsc29TF2YcYso_3syn4item5FnArgEECs5R1CLfetgKi_11poem_derive, symObjAddr: 0x49C, symBinAddr: 0x6944, symSize: 0x24 }
  - { offset: 0xF88E, size: 0x8, addend: 0x0, symName: __RINvNtCsaNl6UpbT7bw_4core3ptr13drop_in_placeINtNtB4_6result6ResultNtCscLWQOx7bb4A_16proc_macro_crate10FoundCrateNtB14_5ErrorEECs5R1CLfetgKi_11poem_derive, symObjAddr: 0x4C0, symBinAddr: 0x6968, symSize: 0x54 }
  - { offset: 0xF8BD, size: 0x8, addend: 0x0, symName: __RINvNtCsaNl6UpbT7bw_4core3ptr13drop_in_placeINtNtCs4EAaWzSXu1l_5quote9___private9RepInterpNtCshnvkK9b4wzu_11proc_macro211TokenStreamEECs5R1CLfetgKi_11poem_derive, symObjAddr: 0x514, symBinAddr: 0x69BC, symSize: 0x24 }
  - { offset: 0xF8EC, size: 0x8, addend: 0x0, symName: __RINvNtCsaNl6UpbT7bw_4core3ptr13drop_in_placeINtNtCsc29TF2YcYso_3syn10punctuated4IterNtNtBL_8generics12GenericParamEECs5R1CLfetgKi_11poem_derive, symObjAddr: 0x538, symBinAddr: 0x69E0, symSize: 0x24 }
  - { offset: 0xF91B, size: 0x8, addend: 0x0, symName: __RINvNtCsaNl6UpbT7bw_4core3ptr13drop_in_placeINtNtCsc29TF2YcYso_3syn10punctuated8IntoIterNtNtBL_4item5FnArgEECs5R1CLfetgKi_11poem_derive, symObjAddr: 0x55C, symBinAddr: 0x6A04, symSize: 0x24 }
  - { offset: 0xF94A, size: 0x8, addend: 0x0, symName: __RINvNtCsaNl6UpbT7bw_4core3ptr13drop_in_placeINtNtCsiTraAjBDcu4_5alloc3vec3VecNtCshnvkK9b4wzu_11proc_macro211TokenStreamEECs5R1CLfetgKi_11poem_derive, symObjAddr: 0x580, symBinAddr: 0x6A28, symSize: 0x5C }
  - { offset: 0xF979, size: 0x8, addend: 0x0, symName: __RINvNtCsaNl6UpbT7bw_4core3ptr13drop_in_placeINtNtCsiTraAjBDcu4_5alloc3vec3VecNtCshnvkK9b4wzu_11proc_macro25IdentEECs5R1CLfetgKi_11poem_derive, symObjAddr: 0x5DC, symBinAddr: 0x6A84, symSize: 0x5C }
  - { offset: 0xF9A8, size: 0x8, addend: 0x0, symName: __RINvNtCsaNl6UpbT7bw_4core3ptr13drop_in_placeINtNtCsiTraAjBDcu4_5alloc3vec3VecNtNtCsc29TF2YcYso_3syn4item5FnArgEECs5R1CLfetgKi_11poem_derive, symObjAddr: 0x638, symBinAddr: 0x6AE0, symSize: 0x5C }
  - { offset: 0xF9D7, size: 0x8, addend: 0x0, symName: __RINvNtCsaNl6UpbT7bw_4core3ptr13drop_in_placeINtNtCsiTraAjBDcu4_5alloc5boxed3BoxINtNtCsc29TF2YcYso_3syn5drops6NoDropDINtNtB1k_10punctuated9IterTraitNtNtB1k_8generics12GenericParamEp4ItemRB2l_EL_EEECs5R1CLfetgKi_11poem_derive, symObjAddr: 0x694, symBinAddr: 0x6B3C, symSize: 0x2C }
  - { offset: 0xFA06, size: 0x8, addend: 0x0, symName: __RINvNtCsaNl6UpbT7bw_4core3ptr13drop_in_placeINtNtCsiTraAjBDcu4_5alloc7raw_vec6RawVecNtCshnvkK9b4wzu_11proc_macro211TokenStreamEECs5R1CLfetgKi_11poem_derive, symObjAddr: 0x6C0, symBinAddr: 0x6B68, symSize: 0x24 }
  - { offset: 0xFA35, size: 0x8, addend: 0x0, symName: __RINvNtCsaNl6UpbT7bw_4core3ptr13drop_in_placeINtNtCsiTraAjBDcu4_5alloc7raw_vec6RawVecNtCshnvkK9b4wzu_11proc_macro25IdentEECs5R1CLfetgKi_11poem_derive, symObjAddr: 0x6E4, symBinAddr: 0x6B8C, symSize: 0x24 }
  - { offset: 0xFA64, size: 0x8, addend: 0x0, symName: __RINvNtCsaNl6UpbT7bw_4core3ptr13drop_in_placeINtNtCsiTraAjBDcu4_5alloc7raw_vec6RawVecNtNtCsc29TF2YcYso_3syn4item5FnArgEECs5R1CLfetgKi_11poem_derive, symObjAddr: 0x708, symBinAddr: 0x6BB0, symSize: 0x24 }
  - { offset: 0xFA93, size: 0x8, addend: 0x0, symName: __RINvNtCsaNl6UpbT7bw_4core3ptr13drop_in_placeINtNtNtCsiTraAjBDcu4_5alloc3vec9into_iter8IntoIterNtNtCsc29TF2YcYso_3syn4item5FnArgEECs5R1CLfetgKi_11poem_derive, symObjAddr: 0x72C, symBinAddr: 0x6BD4, symSize: 0x24 }
  - { offset: 0xFAC2, size: 0x8, addend: 0x0, symName: __RINvNtCsaNl6UpbT7bw_4core3ptr13drop_in_placeINtNtNtCsiTraAjBDcu4_5alloc3vec9into_iter8IntoIterTNtNtCsc29TF2YcYso_3syn4item5FnArgNtNtB1z_5token5CommaEEECs5R1CLfetgKi_11poem_derive, symObjAddr: 0x750, symBinAddr: 0x6BF8, symSize: 0x24 }
  - { offset: 0xFAF1, size: 0x8, addend: 0x0, symName: __RINvNtCsaNl6UpbT7bw_4core3ptr13drop_in_placeINtNtNtNtB4_4iter8adapters10filter_map9FilterMapINtNtCsc29TF2YcYso_3syn10punctuated4IterNtNtB1x_8generics12GenericParamENCNvCs5R1CLfetgKi_11poem_derive16generate_handlers_0EEB2G_, symObjAddr: 0x774, symBinAddr: 0x6C1C, symSize: 0x24 }
  - { offset: 0xFB20, size: 0x8, addend: 0x0, symName: __RINvNtCsaNl6UpbT7bw_4core3ptr13drop_in_placeINtNtNtNtB4_4iter8adapters3map3MapIBH_INtNtBL_9enumerate9EnumerateINtNtBL_10filter_map9FilterMapINtNtCsc29TF2YcYso_3syn10punctuated4IterNtNtB2j_8generics12GenericParamENCNvCs5R1CLfetgKi_11poem_derive16generate_handlers_0EENCB3q_s0_0ENCB3q_s1_0EEB3s_, symObjAddr: 0x798, symBinAddr: 0x6C40, symSize: 0x24 }
  - { offset: 0xFB4F, size: 0x8, addend: 0x0, symName: __RINvNtCsaNl6UpbT7bw_4core3ptr13drop_in_placeINtNtNtNtB4_4iter8adapters3map3MapIBH_INtNtBL_9enumerate9EnumerateINtNtBL_10filter_map9FilterMapINtNtCsc29TF2YcYso_3syn10punctuated4IterNtNtB2j_8generics12GenericParamENCNvCs5R1CLfetgKi_11poem_derive16generate_handlers_0EENCB3q_s0_0ENCB3q_s2_0EEB3s_, symObjAddr: 0x7BC, symBinAddr: 0x6C64, symSize: 0x24 }
  - { offset: 0xFB7E, size: 0x8, addend: 0x0, symName: __RINvNtCsaNl6UpbT7bw_4core3ptr13drop_in_placeINtNtNtNtB4_4iter8adapters3map3MapINtNtBL_9enumerate9EnumerateINtNtBL_10filter_map9FilterMapINtNtCsc29TF2YcYso_3syn10punctuated4IterNtNtB2f_8generics12GenericParamENCNvCs5R1CLfetgKi_11poem_derive16generate_handlers_0EENCB3m_s0_0EEB3o_, symObjAddr: 0x7E0, symBinAddr: 0x6C88, symSize: 0x24 }
  - { offset: 0xFBAD, size: 0x8, addend: 0x0, symName: __RINvNtCsaNl6UpbT7bw_4core3ptr13drop_in_placeINtNtNtNtB4_4iter8adapters3map3MapINtNtNtCsiTraAjBDcu4_5alloc3vec9into_iter8IntoIterTNtNtCsc29TF2YcYso_3syn4item5FnArgNtNtB27_5token5CommaEENCNvXs8_NtB27_10punctuatedINtB34_10PunctuatedB23_B2A_ENtNtNtBN_6traits7collect12IntoIterator9into_iter0EECs5R1CLfetgKi_11poem_derive, symObjAddr: 0x804, symBinAddr: 0x6CAC, symSize: 0x24 }
  - { offset: 0xFBDC, size: 0x8, addend: 0x0, symName: __RINvNtCsaNl6UpbT7bw_4core3ptr13drop_in_placeINtNtNtNtB4_4iter8adapters9enumerate9EnumerateINtNtBL_10filter_map9FilterMapINtNtCsc29TF2YcYso_3syn10punctuated4IterNtNtB1Z_8generics12GenericParamENCNvCs5R1CLfetgKi_11poem_derive16generate_handlers_0EEEB38_, symObjAddr: 0x828, symBinAddr: 0x6CD0, symSize: 0x24 }
  - { offset: 0xFC0B, size: 0x8, addend: 0x0, symName: __RINvNtCsaNl6UpbT7bw_4core3ptr13drop_in_placeINtNtNtNtB4_4iter8adapters9enumerate9EnumerateINtNtCsc29TF2YcYso_3syn10punctuated8IntoIterNtNtB1v_4item5FnArgEEECs5R1CLfetgKi_11poem_derive, symObjAddr: 0x84C, symBinAddr: 0x6CF4, symSize: 0x24 }
  - { offset: 0xFC3A, size: 0x8, addend: 0x0, symName: __RINvNtCsaNl6UpbT7bw_4core3ptr13drop_in_placeINtNvXsd_NtNtCsiTraAjBDcu4_5alloc3vec9into_iterINtBP_8IntoIterppENtNtNtB4_3ops4drop4Drop4drop9DropGuardNtNtCsc29TF2YcYso_3syn4item5FnArgNtNtBT_5alloc6GlobalEECs5R1CLfetgKi_11poem_derive, symObjAddr: 0x870, symBinAddr: 0x6D18, symSize: 0x24 }
  - { offset: 0xFC69, size: 0x8, addend: 0x0, symName: __RINvNtCsaNl6UpbT7bw_4core3ptr13drop_in_placeINtNvXsd_NtNtCsiTraAjBDcu4_5alloc3vec9into_iterINtBP_8IntoIterppENtNtNtB4_3ops4drop4Drop4drop9DropGuardTNtNtCsc29TF2YcYso_3syn4item5FnArgNtNtB2q_5token5CommaENtNtBT_5alloc6GlobalEECs5R1CLfetgKi_11poem_derive, symObjAddr: 0x894, symBinAddr: 0x6D3C, symSize: 0x24 }
  - { offset: 0xFC98, size: 0x8, addend: 0x0, symName: __RINvNtCsaNl6UpbT7bw_4core3ptr13drop_in_placeNCINvMsi_NtCsiTraAjBDcu4_5alloc3vecINtBP_3VecNtCshnvkK9b4wzu_11proc_macro25IdentE14extend_trustedINtNtNtNtB4_4iter8adapters3map3MapINtNtNtB4_3ops5range5RangejENCNvCs5R1CLfetgKi_11poem_derive30generate_implement_middlewares0EE0EB3j_, symObjAddr: 0x8B8, symBinAddr: 0x6D60, symSize: 0x24 }
  - { offset: 0xFCC7, size: 0x8, addend: 0x0, symName: __RINvNtCsaNl6UpbT7bw_4core3ptr13drop_in_placeNCINvMsi_NtCsiTraAjBDcu4_5alloc3vecINtBP_3VecNtNtCsc29TF2YcYso_3syn4item5FnArgE14extend_trustedINtNtB4_6option8IntoIterB1p_EE0ECs5R1CLfetgKi_11poem_derive, symObjAddr: 0x8DC, symBinAddr: 0x6D84, symSize: 0x24 }
  - { offset: 0xFCF6, size: 0x8, addend: 0x0, symName: __RINvNtCsaNl6UpbT7bw_4core3ptr13drop_in_placeNCINvMsi_NtCsiTraAjBDcu4_5alloc3vecINtBP_3VecNtNtCsc29TF2YcYso_3syn4item5FnArgE14extend_trustedINtNtNtNtB4_4iter8adapters3map3MapINtNtBP_9into_iter8IntoIterTB1p_NtNtB1t_5token5CommaEENCNvXs8_NtB1t_10punctuatedINtB3L_10PunctuatedB1p_B3h_ENtNtNtB2k_6traits7collect12IntoIterator9into_iter0EE0ECs5R1CLfetgKi_11poem_derive, symObjAddr: 0x900, symBinAddr: 0x6DA8, symSize: 0x24 }
  - { offset: 0xFD25, size: 0x8, addend: 0x0, symName: __RINvNtCsaNl6UpbT7bw_4core3ptr13drop_in_placeNCINvNtNtNtB4_4iter8adapters3map8map_foldTNtNtCsc29TF2YcYso_3syn4item5FnArgNtNtB1q_5token5CommaEB1m_uNCNvXs8_NtB1q_10punctuatedINtB2r_10PunctuatedB1m_B1T_ENtNtNtBP_6traits7collect12IntoIterator9into_iter0NCINvNvNtNtB3f_8iterator8Iterator8for_each4callB1m_NCINvMsi_NtCsiTraAjBDcu4_5alloc3vecINtB4W_3VecB1m_E14extend_trustedINtBL_3MapINtNtB4W_9into_iter8IntoIterB1l_EB2j_EE0E0E0ECs5R1CLfetgKi_11poem_derive, symObjAddr: 0x924, symBinAddr: 0x6DCC, symSize: 0x24 }
  - { offset: 0xFD54, size: 0x8, addend: 0x0, symName: __RINvNtCsaNl6UpbT7bw_4core3ptr13drop_in_placeNCINvNtNtNtB4_4iter8adapters3map8map_foldjNtCshnvkK9b4wzu_11proc_macro25IdentuNCNvCs5R1CLfetgKi_11poem_derive30generate_implement_middlewares0NCINvNvNtNtNtBP_6traits8iterator8Iterator8for_each4callB1m_NCINvMsi_NtCsiTraAjBDcu4_5alloc3vecINtB44_3VecB1m_E14extend_trustedINtBL_3MapINtNtNtB4_3ops5range5RangejEB1W_EE0E0E0EB20_, symObjAddr: 0x948, symBinAddr: 0x6DF0, symSize: 0x24 }
  - { offset: 0xFD83, size: 0x8, addend: 0x0, symName: __RINvNtCsaNl6UpbT7bw_4core3ptr13drop_in_placeNCINvNvNtNtNtNtB4_4iter6traits8iterator8Iterator8for_each4callNtCshnvkK9b4wzu_11proc_macro25IdentNCINvMsi_NtCsiTraAjBDcu4_5alloc3vecINtB2o_3VecB1G_E14extend_trustedINtNtNtBT_8adapters3map3MapINtNtNtB4_3ops5range5RangejENCNvCs5R1CLfetgKi_11poem_derive30generate_implement_middlewares0EE0E0EB4h_, symObjAddr: 0x96C, symBinAddr: 0x6E14, symSize: 0x24 }
  - { offset: 0xFDB2, size: 0x8, addend: 0x0, symName: __RINvNtCsaNl6UpbT7bw_4core3ptr13drop_in_placeNCINvNvNtNtNtNtB4_4iter6traits8iterator8Iterator8for_each4callNtNtCsc29TF2YcYso_3syn4item5FnArgNCINvMsi_NtCsiTraAjBDcu4_5alloc3vecINtB2m_3VecB1G_E14extend_trustedINtNtB4_6option8IntoIterB1G_EE0E0ECs5R1CLfetgKi_11poem_derive, symObjAddr: 0x990, symBinAddr: 0x6E38, symSize: 0x24 }
  - { offset: 0xFDE1, size: 0x8, addend: 0x0, symName: __RINvNtCsaNl6UpbT7bw_4core3ptr13drop_in_placeNCINvNvNtNtNtNtB4_4iter6traits8iterator8Iterator8for_each4callNtNtCsc29TF2YcYso_3syn4item5FnArgNCINvMsi_NtCsiTraAjBDcu4_5alloc3vecINtB2m_3VecB1G_E14extend_trustedINtNtNtBT_8adapters3map3MapINtNtB2m_9into_iter8IntoIterTB1G_NtNtB1K_5token5CommaEENCNvXs8_NtB1K_10punctuatedINtB4K_10PunctuatedB1G_B4g_ENtNtBR_7collect12IntoIterator9into_iter0EE0E0ECs5R1CLfetgKi_11poem_derive, symObjAddr: 0x9B4, symBinAddr: 0x6E5C, symSize: 0x24 }
  - { offset: 0xFE10, size: 0x8, addend: 0x0, symName: __RINvNtCsaNl6UpbT7bw_4core3ptr13drop_in_placeNCNCINvNtNtCs7yrEGia95Wz_10proc_macro6bridge6client10run_clientNtBN_11TokenStreamINtNtB4_6option6OptionB1H_ENCNCINvMs6_BN_INtBN_6ClientNtBR_11TokenStreamB2R_E7expand1NvCs5R1CLfetgKi_11poem_derive30generate_implement_middlewaresE00E00EB3o_, symObjAddr: 0x9D8, symBinAddr: 0x6E80, symSize: 0x24 }
  - { offset: 0xFE3F, size: 0x8, addend: 0x0, symName: __RINvNtCsaNl6UpbT7bw_4core3ptr13drop_in_placeNCNCINvNtNtCs7yrEGia95Wz_10proc_macro6bridge6client10run_clientTNtBN_11TokenStreamB1I_EINtNtB4_6option6OptionB1I_ENCNCINvMs7_BN_INtBN_6ClientTNtBR_11TokenStreamB2Y_EB2Y_E7expand2NvCs5R1CLfetgKi_11poem_derive7handlerE00E00EB3A_, symObjAddr: 0x9FC, symBinAddr: 0x6EA4, symSize: 0x24 }
  - { offset: 0xFE6E, size: 0x8, addend: 0x0, symName: __RINvNtCsaNl6UpbT7bw_4core3ptr13drop_in_placeNtCscLWQOx7bb4A_16proc_macro_crate5ErrorECs5R1CLfetgKi_11poem_derive, symObjAddr: 0xA20, symBinAddr: 0x6EC8, symSize: 0x120 }
  - { offset: 0xFE9D, size: 0x8, addend: 0x0, symName: __RINvNtCsaNl6UpbT7bw_4core3ptr13drop_in_placeNtNtCsc29TF2YcYso_3syn4meta15ParseNestedMetaECs5R1CLfetgKi_11poem_derive, symObjAddr: 0xB40, symBinAddr: 0x6FE8, symSize: 0x24 }
  - { offset: 0xFECC, size: 0x8, addend: 0x0, symName: __RINvNtCsaNl6UpbT7bw_4core3ptr13drop_in_placeNtNtNtCs7yrEGia95Wz_10proc_macro6bridge3rpc12PanicMessageECs5R1CLfetgKi_11poem_derive, symObjAddr: 0xB64, symBinAddr: 0x700C, symSize: 0x50 }
  - { offset: 0xFEFB, size: 0x8, addend: 0x0, symName: __RINvNtCsaNl6UpbT7bw_4core3ptr13drop_in_placeNtNtNtCs7yrEGia95Wz_10proc_macro6bridge6buffer6BufferECs5R1CLfetgKi_11poem_derive, symObjAddr: 0xBB4, symBinAddr: 0x705C, symSize: 0x24 }
  - { offset: 0xFF2A, size: 0x8, addend: 0x0, symName: __RINvNtCsaNl6UpbT7bw_4core3ptr13drop_in_placeNtNtNtCs7yrEGia95Wz_10proc_macro6bridge6client6BridgeECs5R1CLfetgKi_11poem_derive, symObjAddr: 0xBD8, symBinAddr: 0x7080, symSize: 0x24 }
  - { offset: 0xFF59, size: 0x8, addend: 0x0, symName: __RINvNtCsaNl6UpbT7bw_4core3ptr13drop_in_placeNtNvNtNtNtCs7yrEGia95Wz_10proc_macro6bridge6client5state3set13RestoreOnDropECs5R1CLfetgKi_11poem_derive, symObjAddr: 0xBFC, symBinAddr: 0x70A4, symSize: 0x24 }
  - { offset: 0xFF88, size: 0x8, addend: 0x0, symName: __RINvNtCsaNl6UpbT7bw_4core3ptr13drop_in_placeSNtCshnvkK9b4wzu_11proc_macro211TokenStreamECs5R1CLfetgKi_11poem_derive, symObjAddr: 0xC20, symBinAddr: 0x70C8, symSize: 0xB4 }
  - { offset: 0xFFB7, size: 0x8, addend: 0x0, symName: __RINvNtCsaNl6UpbT7bw_4core3ptr13drop_in_placeSNtCshnvkK9b4wzu_11proc_macro25IdentECs5R1CLfetgKi_11poem_derive, symObjAddr: 0xCD4, symBinAddr: 0x717C, symSize: 0xC4 }
  - { offset: 0xFFE6, size: 0x8, addend: 0x0, symName: __RINvNtCsaNl6UpbT7bw_4core3ptr13drop_in_placeSNtNtCsc29TF2YcYso_3syn4item5FnArgECs5R1CLfetgKi_11poem_derive, symObjAddr: 0xD98, symBinAddr: 0x7240, symSize: 0xC4 }
  - { offset: 0x10015, size: 0x8, addend: 0x0, symName: __RINvNtCsaNl6UpbT7bw_4core3ptr13drop_in_placeTNtNtNtCs7yrEGia95Wz_10proc_macro6bridge6client11TokenStreamBH_EECs5R1CLfetgKi_11poem_derive, symObjAddr: 0xE5C, symBinAddr: 0x7304, symSize: 0x60 }
  - { offset: 0x124F8, size: 0x8, addend: 0x0, symName: __RNvXs6_NtCsaNl6UpbT7bw_4core6optionINtB5_6OptionNtNtCsc29TF2YcYso_3syn4item5FnArgENtNtNtNtB7_4iter6traits7collect12IntoIterator9into_iterCs5R1CLfetgKi_11poem_derive, symObjAddr: 0x328C, symBinAddr: 0x9730, symSize: 0x48 }
  - { offset: 0x128A7, size: 0x8, addend: 0x0, symName: __RNvXsw_NtCsaNl6UpbT7bw_4core6optionINtB5_8IntoIterNtNtCsc29TF2YcYso_3syn4item5FnArgENtNtNtNtB7_4iter6traits8iterator8Iterator4nextCs5R1CLfetgKi_11poem_derive, symObjAddr: 0x46E4, symBinAddr: 0xAB88, symSize: 0x60 }
  - { offset: 0x1291F, size: 0x8, addend: 0x0, symName: __RNvXsw_NtCsaNl6UpbT7bw_4core6optionINtB5_8IntoIterNtNtCsc29TF2YcYso_3syn4item5FnArgENtNtNtNtB7_4iter6traits8iterator8Iterator9size_hintCs5R1CLfetgKi_11poem_derive, symObjAddr: 0x4744, symBinAddr: 0xABE8, symSize: 0x48 }
  - { offset: 0x137DA, size: 0x8, addend: 0x0, symName: __RNvMNtCsaNl6UpbT7bw_4core5sliceSh15copy_from_sliceCs5R1CLfetgKi_11poem_derive, symObjAddr: 0x20F8, symBinAddr: 0x85A0, symSize: 0xAC }
  - { offset: 0x138E0, size: 0x8, addend: 0x0, symName: __RNvNvNtNtCsaNl6UpbT7bw_4core5slice3raw14from_raw_parts18precondition_checkCs5R1CLfetgKi_11poem_derive, symObjAddr: 0x29C0, symBinAddr: 0x8E64, symSize: 0x1DC }
  - { offset: 0x13A9A, size: 0x8, addend: 0x0, symName: __RNvXs0_NtNtCsaNl6UpbT7bw_4core5slice5indexjINtB5_10SliceIndexSNtCshnvkK9b4wzu_11proc_macro25IdentE5indexCs5R1CLfetgKi_11poem_derive, symObjAddr: 0x2D00, symBinAddr: 0x91A4, symSize: 0x64 }
  - { offset: 0x13D3A, size: 0x8, addend: 0x0, symName: __RNCINvNtNtNtCsaNl6UpbT7bw_4core4iter8adapters3map8map_foldTNtNtCsc29TF2YcYso_3syn4item5FnArgNtNtBZ_5token5CommaEBV_uNCNvXs8_NtBZ_10punctuatedINtB1Y_10PunctuatedBV_B1s_ENtNtNtB8_6traits7collect12IntoIterator9into_iter0NCINvNvNtNtB2K_8iterator8Iterator8for_each4callBV_NCINvMsi_NtCsiTraAjBDcu4_5alloc3vecINtB4q_3VecBV_E14extend_trustedINtB4_3MapINtNtB4q_9into_iter8IntoIterBU_EB1Q_EE0E0E0Cs5R1CLfetgKi_11poem_derive, symObjAddr: 0x1D98, symBinAddr: 0x8240, symSize: 0xB0 }
  - { offset: 0x13DC0, size: 0x8, addend: 0x0, symName: __RNCINvNtNtNtCsaNl6UpbT7bw_4core4iter8adapters3map8map_foldjNtCshnvkK9b4wzu_11proc_macro25IdentuNCNvCs5R1CLfetgKi_11poem_derive30generate_implement_middlewares0NCINvNvNtNtNtB8_6traits8iterator8Iterator8for_each4callBV_NCINvMsi_NtCsiTraAjBDcu4_5alloc3vecINtB3C_3VecBV_E14extend_trustedINtB4_3MapINtNtNtBa_3ops5range5RangejEB1v_EE0E0E0B1z_, symObjAddr: 0x1E48, symBinAddr: 0x82F0, symSize: 0x88 }
  - { offset: 0x13E4B, size: 0x8, addend: 0x0, symName: __RINvXs0_NtNtNtCsaNl6UpbT7bw_4core4iter8adapters3mapINtB6_3MapINtNtNtBc_3ops5range5RangejENCNvCs5R1CLfetgKi_11poem_derive30generate_implement_middlewares0ENtNtNtBa_6traits8iterator8Iterator4folduNCINvNvB2s_8for_each4callNtCshnvkK9b4wzu_11proc_macro25IdentNCINvMsi_NtCsiTraAjBDcu4_5alloc3vecINtB4d_3VecB3v_E14extend_trustedBN_E0E0EB1t_, symObjAddr: 0x166C, symBinAddr: 0x7B14, symSize: 0x3C }
  - { offset: 0x13EE3, size: 0x8, addend: 0x0, symName: __RINvXs0_NtNtNtCsaNl6UpbT7bw_4core4iter8adapters3mapINtB6_3MapINtNtNtCsiTraAjBDcu4_5alloc3vec9into_iter8IntoIterTNtNtCsc29TF2YcYso_3syn4item5FnArgNtNtB1Q_5token5CommaEENCNvXs8_NtB1Q_10punctuatedINtB2N_10PunctuatedB1M_B2j_ENtNtNtBa_6traits7collect12IntoIterator9into_iter0ENtNtB3B_8iterator8Iterator4folduNCINvNvB4l_8for_each4callB1M_NCINvMsi_B12_INtB12_3VecB1M_E14extend_trustedBN_E0E0ECs5R1CLfetgKi_11poem_derive, symObjAddr: 0x16A8, symBinAddr: 0x7B50, symSize: 0x4C }
  - { offset: 0x13F7C, size: 0x8, addend: 0x0, symName: __RNvXs0_NtNtNtCsaNl6UpbT7bw_4core4iter8adapters3mapINtB5_3MapIBN_INtNtB7_9enumerate9EnumerateINtNtB7_10filter_map9FilterMapINtNtCsc29TF2YcYso_3syn10punctuated4IterNtNtB21_8generics12GenericParamENCNvCs5R1CLfetgKi_11poem_derive16generate_handlers_0EENCB38_s0_0ENCB38_s1_0ENtNtNtB9_6traits8iterator8Iterator4nextB3a_, symObjAddr: 0x2D64, symBinAddr: 0x9208, symSize: 0xA8 }
  - { offset: 0x14014, size: 0x8, addend: 0x0, symName: __RNvXs0_NtNtNtCsaNl6UpbT7bw_4core4iter8adapters3mapINtB5_3MapIBN_INtNtB7_9enumerate9EnumerateINtNtB7_10filter_map9FilterMapINtNtCsc29TF2YcYso_3syn10punctuated4IterNtNtB21_8generics12GenericParamENCNvCs5R1CLfetgKi_11poem_derive16generate_handlers_0EENCB38_s0_0ENCB38_s2_0ENtNtNtB9_6traits8iterator8Iterator4nextB3a_, symObjAddr: 0x2E0C, symBinAddr: 0x92B0, symSize: 0xA8 }
  - { offset: 0x140AC, size: 0x8, addend: 0x0, symName: __RNvXs0_NtNtNtCsaNl6UpbT7bw_4core4iter8adapters3mapINtB5_3MapINtNtB7_9enumerate9EnumerateINtNtB7_10filter_map9FilterMapINtNtCsc29TF2YcYso_3syn10punctuated4IterNtNtB1X_8generics12GenericParamENCNvCs5R1CLfetgKi_11poem_derive16generate_handlers_0EENCB34_s0_0ENtNtNtB9_6traits8iterator8Iterator4nextB36_, symObjAddr: 0x2EB4, symBinAddr: 0x9358, symSize: 0xA4 }
  - { offset: 0x14144, size: 0x8, addend: 0x0, symName: __RNvXs0_NtNtNtCsaNl6UpbT7bw_4core4iter8adapters3mapINtB5_3MapINtNtNtBb_3ops5range5RangejENCNvCs5R1CLfetgKi_11poem_derive30generate_implement_middlewares0ENtNtNtB9_6traits8iterator8Iterator9size_hintB1s_, symObjAddr: 0x2F58, symBinAddr: 0x93FC, symSize: 0x24 }
  - { offset: 0x1418B, size: 0x8, addend: 0x0, symName: __RNvXs0_NtNtNtCsaNl6UpbT7bw_4core4iter8adapters3mapINtB5_3MapINtNtNtCsiTraAjBDcu4_5alloc3vec9into_iter8IntoIterTNtNtCsc29TF2YcYso_3syn4item5FnArgNtNtB1P_5token5CommaEENCNvXs8_NtB1P_10punctuatedINtB2M_10PunctuatedB1L_B2i_ENtNtNtB9_6traits7collect12IntoIterator9into_iter0ENtNtB3A_8iterator8Iterator9size_hintCs5R1CLfetgKi_11poem_derive, symObjAddr: 0x2F7C, symBinAddr: 0x9420, symSize: 0x24 }
  - { offset: 0x14349, size: 0x8, addend: 0x0, symName: __RNvXsb_NtNtNtCsaNl6UpbT7bw_4core4iter8adapters3mapINtB5_3MapINtNtB7_9enumerate9EnumerateINtNtB7_10filter_map9FilterMapINtNtCsc29TF2YcYso_3syn10punctuated4IterNtNtB1X_8generics12GenericParamENCNvCs5R1CLfetgKi_11poem_derive16generate_handlers_0EENCB34_s0_0ENtNtBb_5clone5Clone5cloneB36_, symObjAddr: 0x3D10, symBinAddr: 0xA1B4, symSize: 0x78 }
  - { offset: 0x14423, size: 0x8, addend: 0x0, symName: __RNvXs_NtNtNtCsaNl6UpbT7bw_4core4iter8adapters9enumerateINtB4_9EnumerateINtNtB6_10filter_map9FilterMapINtNtCsc29TF2YcYso_3syn10punctuated4IterNtNtB1G_8generics12GenericParamENCNvCs5R1CLfetgKi_11poem_derive16generate_handlers_0EENtNtNtB8_6traits8iterator8Iterator4nextB2P_, symObjAddr: 0x399C, symBinAddr: 0x9E40, symSize: 0xE0 }
  - { offset: 0x14505, size: 0x8, addend: 0x0, symName: __RNvXs_NtNtNtCsaNl6UpbT7bw_4core4iter8adapters9enumerateINtB4_9EnumerateINtNtCsc29TF2YcYso_3syn10punctuated8IntoIterNtNtB1c_4item5FnArgEENtNtNtB8_6traits8iterator8Iterator4nextCs5R1CLfetgKi_11poem_derive, symObjAddr: 0x3A7C, symBinAddr: 0x9F20, symSize: 0x178 }
  - { offset: 0x145F0, size: 0x8, addend: 0x0, symName: __RNvXsa_NtNtNtCsaNl6UpbT7bw_4core4iter8adapters9enumerateINtB5_9EnumerateINtNtB7_10filter_map9FilterMapINtNtCsc29TF2YcYso_3syn10punctuated4IterNtNtB1H_8generics12GenericParamENCNvCs5R1CLfetgKi_11poem_derive16generate_handlers_0EENtNtBb_5clone5Clone5cloneB2Q_, symObjAddr: 0x3CCC, symBinAddr: 0xA170, symSize: 0x44 }
  - { offset: 0x146B2, size: 0x8, addend: 0x0, symName: __RNvXs_NtNtNtCsaNl6UpbT7bw_4core4iter8adapters6clonedINtB4_6ClonedINtNtB6_6filter6FilterINtNtNtBa_5slice4iter4IterNtNtCsc29TF2YcYso_3syn4attr9AttributeENCNvCs5R1CLfetgKi_11poem_derive16generate_handler0EENtNtNtB8_6traits8iterator8Iterator4nextB2t_, symObjAddr: 0x38F4, symBinAddr: 0x9D98, symSize: 0x84 }
  - { offset: 0x14723, size: 0x8, addend: 0x0, symName: __RNvXs_NtNtNtCsaNl6UpbT7bw_4core4iter8adapters6clonedINtB4_6ClonedINtNtB6_6filter6FilterINtNtNtBa_5slice4iter4IterNtNtCsc29TF2YcYso_3syn4attr9AttributeENCNvCs5R1CLfetgKi_11poem_derive16generate_handler0EENtNtNtB8_6traits8iterator8Iterator9size_hintB2t_, symObjAddr: 0x3978, symBinAddr: 0x9E1C, symSize: 0x24 }
  - { offset: 0x1480D, size: 0x8, addend: 0x0, symName: __RNCINvNvNtNtNtNtCsaNl6UpbT7bw_4core4iter6traits8iterator8Iterator8for_each4callNtCshnvkK9b4wzu_11proc_macro25IdentNCINvMsi_NtCsiTraAjBDcu4_5alloc3vecINtB1X_3VecB1f_E14extend_trustedINtNtNtBc_8adapters3map3MapINtNtNtBe_3ops5range5RangejENCNvCs5R1CLfetgKi_11poem_derive30generate_implement_middlewares0EE0E0B3Q_, symObjAddr: 0x1F30, symBinAddr: 0x83D8, symSize: 0x3C }
  - { offset: 0x14866, size: 0x8, addend: 0x0, symName: __RNCINvNvNtNtNtNtCsaNl6UpbT7bw_4core4iter6traits8iterator8Iterator8for_each4callNtNtCsc29TF2YcYso_3syn4item5FnArgNCINvMsi_NtCsiTraAjBDcu4_5alloc3vecINtB1V_3VecB1f_E14extend_trustedINtNtBe_6option8IntoIterB1f_EE0E0Cs5R1CLfetgKi_11poem_derive, symObjAddr: 0x1F6C, symBinAddr: 0x8414, symSize: 0x40 }
  - { offset: 0x148BF, size: 0x8, addend: 0x0, symName: __RNCINvNvNtNtNtNtCsaNl6UpbT7bw_4core4iter6traits8iterator8Iterator8for_each4callNtNtCsc29TF2YcYso_3syn4item5FnArgNCINvMsi_NtCsiTraAjBDcu4_5alloc3vecINtB1V_3VecB1f_E14extend_trustedINtNtNtBc_8adapters3map3MapINtNtB1V_9into_iter8IntoIterTB1f_NtNtB1j_5token5CommaEENCNvXs8_NtB1j_10punctuatedINtB4j_10PunctuatedB1f_B3P_ENtNtBa_7collect12IntoIterator9into_iter0EE0E0Cs5R1CLfetgKi_11poem_derive, symObjAddr: 0x1FAC, symBinAddr: 0x8454, symSize: 0x40 }
  - { offset: 0x149AA, size: 0x8, addend: 0x0, symName: __RINvYINtNtCsaNl6UpbT7bw_4core6option8IntoIterNtNtCsc29TF2YcYso_3syn4item5FnArgENtNtNtNtB8_4iter6traits8iterator8Iterator4folduNCINvNvB1f_8for_each4callBH_NCINvMsi_NtCsiTraAjBDcu4_5alloc3vecINtB2B_3VecBH_E14extend_trustedB3_E0E0ECs5R1CLfetgKi_11poem_derive, symObjAddr: 0x16F4, symBinAddr: 0x7B9C, symSize: 0x144 }
  - { offset: 0x14A3C, size: 0x8, addend: 0x0, symName: __RINvYINtNtCsaNl6UpbT7bw_4core6option8IntoIterNtNtCsc29TF2YcYso_3syn4item5FnArgENtNtNtNtB8_4iter6traits8iterator8Iterator8for_eachNCINvMsi_NtCsiTraAjBDcu4_5alloc3vecINtB2c_3VecBH_E14extend_trustedB3_E0ECs5R1CLfetgKi_11poem_derive, symObjAddr: 0x1838, symBinAddr: 0x7CE0, symSize: 0x34 }
  - { offset: 0x14AA8, size: 0x8, addend: 0x0, symName: __RINvYINtNtCsc29TF2YcYso_3syn10punctuated4IterNtNtB8_8generics12GenericParamENtNtNtNtCsaNl6UpbT7bw_4core4iter6traits8iterator8Iterator10filter_mapRNtBJ_9TypeParamNCNvCs5R1CLfetgKi_11poem_derive16generate_handlers_0EB2D_, symObjAddr: 0x186C, symBinAddr: 0x7D14, symSize: 0x1C }
  - { offset: 0x14B00, size: 0x8, addend: 0x0, symName: __RINvYINtNtCsc29TF2YcYso_3syn10punctuated4IterNtNtB8_8generics12GenericParamENtNtNtNtCsaNl6UpbT7bw_4core4iter6traits8iterator8Iterator8find_mapRNtBJ_9TypeParamQNCNvCs5R1CLfetgKi_11poem_derive16generate_handlers_0EB2B_, symObjAddr: 0x1888, symBinAddr: 0x7D30, symSize: 0x78 }
  - { offset: 0x14B84, size: 0x8, addend: 0x0, symName: __RINvYINtNtCsc29TF2YcYso_3syn10punctuated4IterNtNtB8_8generics12GenericParamENtNtNtNtCsaNl6UpbT7bw_4core4iter6traits8iterator8Iterator8try_folduNCINvNvB1c_8find_map5checkRBH_RNtBJ_9TypeParamQNCNvCs5R1CLfetgKi_11poem_derive16generate_handlers_0E0INtNtNtB1k_3ops12control_flow11ControlFlowB2L_EEB36_, symObjAddr: 0x1900, symBinAddr: 0x7DA8, symSize: 0x140 }
  - { offset: 0x14C37, size: 0x8, addend: 0x0, symName: __RINvYINtNtNtCsaNl6UpbT7bw_4core3ops5range5RangejENtNtNtNtBa_4iter6traits8iterator8Iterator3mapNtCshnvkK9b4wzu_11proc_macro25IdentNCNvCs5R1CLfetgKi_11poem_derive30generate_implement_middlewares0EB27_, symObjAddr: 0x1A40, symBinAddr: 0x7EE8, symSize: 0x14 }
  - { offset: 0x14C8F, size: 0x8, addend: 0x0, symName: __RINvYINtNtNtCsaNl6UpbT7bw_4core3ops5range5RangejENtNtNtNtBa_4iter6traits8iterator8Iterator4folduNCINvNtNtBR_8adapters3map8map_foldjNtCshnvkK9b4wzu_11proc_macro25IdentuNCNvCs5R1CLfetgKi_11poem_derive30generate_implement_middlewares0NCINvNvBL_8for_each4callB25_NCINvMsi_NtCsiTraAjBDcu4_5alloc3vecINtB4i_3VecB25_E14extend_trustedINtB1B_3MapB3_B2F_EE0E0E0EB2J_, symObjAddr: 0x1A54, symBinAddr: 0x7EFC, symSize: 0xDC }
  - { offset: 0x14D1F, size: 0x8, addend: 0x0, symName: __RINvYINtNtNtNtCsaNl6UpbT7bw_4core4iter8adapters3map3MapINtNtB8_9enumerate9EnumerateINtNtB8_10filter_map9FilterMapINtNtCsc29TF2YcYso_3syn10punctuated4IterNtNtB1S_8generics12GenericParamENCNvCs5R1CLfetgKi_11poem_derive16generate_handlers_0EENCB2Z_s0_0ENtNtNtBa_6traits8iterator8Iterator3mapNtCshnvkK9b4wzu_11proc_macro211TokenStreamNCB2Z_s1_0EB31_, symObjAddr: 0x1B30, symBinAddr: 0x7FD8, symSize: 0x20 }
  - { offset: 0x14D8C, size: 0x8, addend: 0x0, symName: __RINvYINtNtNtNtCsaNl6UpbT7bw_4core4iter8adapters3map3MapINtNtB8_9enumerate9EnumerateINtNtB8_10filter_map9FilterMapINtNtCsc29TF2YcYso_3syn10punctuated4IterNtNtB1S_8generics12GenericParamENCNvCs5R1CLfetgKi_11poem_derive16generate_handlers_0EENCB2Z_s0_0ENtNtNtBa_6traits8iterator8Iterator3mapNtCshnvkK9b4wzu_11proc_macro211TokenStreamNCB2Z_s2_0EB31_, symObjAddr: 0x1B50, symBinAddr: 0x7FF8, symSize: 0x20 }
  - { offset: 0x14DF9, size: 0x8, addend: 0x0, symName: __RINvYINtNtNtNtCsaNl6UpbT7bw_4core4iter8adapters3map3MapINtNtNtBc_3ops5range5RangejENCNvCs5R1CLfetgKi_11poem_derive30generate_implement_middlewares0ENtNtNtBa_6traits8iterator8Iterator7collectINtNtCsiTraAjBDcu4_5alloc3vec3VecNtCshnvkK9b4wzu_11proc_macro25IdentEEB1n_, symObjAddr: 0x1B70, symBinAddr: 0x8018, symSize: 0x58 }
  - { offset: 0x14E8E, size: 0x8, addend: 0x0, symName: __RINvYINtNtNtNtCsaNl6UpbT7bw_4core4iter8adapters3map3MapINtNtNtBc_3ops5range5RangejENCNvCs5R1CLfetgKi_11poem_derive30generate_implement_middlewares0ENtNtNtBa_6traits8iterator8Iterator8for_eachNCINvMsi_NtCsiTraAjBDcu4_5alloc3vecINtB3c_3VecNtCshnvkK9b4wzu_11proc_macro25IdentE14extend_trustedB3_E0EB1n_, symObjAddr: 0x1BC8, symBinAddr: 0x8070, symSize: 0x3C }
  - { offset: 0x14EF9, size: 0x8, addend: 0x0, symName: __RINvYINtNtNtNtCsaNl6UpbT7bw_4core4iter8adapters3map3MapINtNtNtCsiTraAjBDcu4_5alloc3vec9into_iter8IntoIterTNtNtCsc29TF2YcYso_3syn4item5FnArgNtNtB1K_5token5CommaEENCNvXs8_NtB1K_10punctuatedINtB2H_10PunctuatedB1G_B2d_ENtNtNtBa_6traits7collect12IntoIterator9into_iter0ENtNtB3v_8iterator8Iterator8for_eachNCINvMsi_BW_INtBW_3VecB1G_E14extend_trustedB3_E0ECs5R1CLfetgKi_11poem_derive, symObjAddr: 0x1C04, symBinAddr: 0x80AC, symSize: 0x34 }
  - { offset: 0x14F65, size: 0x8, addend: 0x0, symName: __RINvYINtNtNtNtCsaNl6UpbT7bw_4core4iter8adapters6cloned6ClonedINtNtB8_6filter6FilterINtNtNtBc_5slice4iter4IterNtNtCsc29TF2YcYso_3syn4attr9AttributeENCNvCs5R1CLfetgKi_11poem_derive16generate_handler0EENtNtNtBa_6traits8iterator8Iterator7collectINtNtCsiTraAjBDcu4_5alloc3vec3VecB1J_EEB2p_, symObjAddr: 0x1C38, symBinAddr: 0x80E0, symSize: 0x60 }
  - { offset: 0x14FFA, size: 0x8, addend: 0x0, symName: __RINvYINtNtNtNtCsaNl6UpbT7bw_4core4iter8adapters9enumerate9EnumerateINtNtB8_10filter_map9FilterMapINtNtCsc29TF2YcYso_3syn10punctuated4IterNtNtB1C_8generics12GenericParamENCNvCs5R1CLfetgKi_11poem_derive16generate_handlers_0EENtNtNtBa_6traits8iterator8Iterator3mapTNtCshnvkK9b4wzu_11proc_macro25IdentRB4c_ENCB2J_s0_0EB2L_, symObjAddr: 0x1C98, symBinAddr: 0x8140, symSize: 0x20 }
  - { offset: 0x15071, size: 0x8, addend: 0x0, symName: __RNCINvNvNtNtNtNtCsaNl6UpbT7bw_4core4iter6traits8iterator8Iterator8find_map5checkRNtNtCsc29TF2YcYso_3syn8generics12GenericParamRNtB1j_9TypeParamQNCNvCs5R1CLfetgKi_11poem_derive16generate_handlers_0E0B2m_, symObjAddr: 0x1ED0, symBinAddr: 0x8378, symSize: 0x60 }
  - { offset: 0x15109, size: 0x8, addend: 0x0, symName: __RNvYINtNtCsc29TF2YcYso_3syn10punctuated8IntoIterNtNtB7_4item5FnArgENtNtNtNtCsaNl6UpbT7bw_4core4iter6traits8iterator8Iterator9enumerateCs5R1CLfetgKi_11poem_derive, symObjAddr: 0x478C, symBinAddr: 0xAC30, symSize: 0x18 }
  - { offset: 0x1513A, size: 0x8, addend: 0x0, symName: __RNvYINtNtCsc29TF2YcYso_3syn10punctuated8IntoIterNtNtB7_4item5FnArgENtNtNtNtCsaNl6UpbT7bw_4core4iter6traits8iterator8Iterator9enumerateCs5R1CLfetgKi_11poem_derive, symObjAddr: 0x478C, symBinAddr: 0xAC30, symSize: 0x18 }
  - { offset: 0x15161, size: 0x8, addend: 0x0, symName: __RNvXNtNtNtCsaNl6UpbT7bw_4core4iter6traits7collectINtNtNtB6_8adapters3map3MapINtNtNtB8_3ops5range5RangejENCNvCs5R1CLfetgKi_11poem_derive30generate_implement_middlewares0ENtB2_12IntoIterator9into_iterB1I_, symObjAddr: 0x2C8C, symBinAddr: 0x9130, symSize: 0x14 }
  - { offset: 0x15198, size: 0x8, addend: 0x0, symName: __RNvXNtNtNtCsaNl6UpbT7bw_4core4iter6traits7collectINtNtNtB6_8adapters3map3MapINtNtNtCsiTraAjBDcu4_5alloc3vec9into_iter8IntoIterTNtNtCsc29TF2YcYso_3syn4item5FnArgNtNtB25_5token5CommaEENCNvXs8_NtB25_10punctuatedINtB32_10PunctuatedB21_B2y_ENtB2_12IntoIterator9into_iter0EB3M_9into_iterCs5R1CLfetgKi_11poem_derive, symObjAddr: 0x2CA0, symBinAddr: 0x9144, symSize: 0x14 }
  - { offset: 0x151CF, size: 0x8, addend: 0x0, symName: __RNvXNtNtNtCsaNl6UpbT7bw_4core4iter6traits7collectINtNtNtB6_8adapters6cloned6ClonedINtNtBQ_6filter6FilterINtNtNtB8_5slice4iter4IterNtNtCsc29TF2YcYso_3syn4attr9AttributeENCNvCs5R1CLfetgKi_11poem_derive16generate_handler0EENtB2_12IntoIterator9into_iterB2K_, symObjAddr: 0x2CB4, symBinAddr: 0x9158, symSize: 0x1C }
  - { offset: 0x15206, size: 0x8, addend: 0x0, symName: __RNvXNtNtNtCsaNl6UpbT7bw_4core4iter6traits7collectINtNtNtB6_8adapters9enumerate9EnumerateINtNtCsc29TF2YcYso_3syn10punctuated8IntoIterNtNtB1t_4item5FnArgEENtB2_12IntoIterator9into_iterCs5R1CLfetgKi_11poem_derive, symObjAddr: 0x2CD0, symBinAddr: 0x9174, symSize: 0x30 }
  - { offset: 0x152F7, size: 0x8, addend: 0x0, symName: __RNvXNtNtCsaNl6UpbT7bw_4core3ops12control_flowINtB2_11ControlFlowRNtNtCsc29TF2YcYso_3syn8generics9TypeParamENtNtB4_9try_trait3Try11from_outputCs5R1CLfetgKi_11poem_derive, symObjAddr: 0x2C30, symBinAddr: 0x90D4, symSize: 0x14 }
  - { offset: 0x15335, size: 0x8, addend: 0x0, symName: __RNvXNtNtCsaNl6UpbT7bw_4core3ops12control_flowINtB2_11ControlFlowRNtNtCsc29TF2YcYso_3syn8generics9TypeParamENtNtB4_9try_trait3Try6branchCs5R1CLfetgKi_11poem_derive, symObjAddr: 0x2C44, symBinAddr: 0x90E8, symSize: 0x48 }
  - { offset: 0x153B3, size: 0x8, addend: 0x0, symName: __RNvXs_NtNtCsaNl6UpbT7bw_4core3ops12control_flowINtB4_11ControlFlowRNtNtCsc29TF2YcYso_3syn8generics9TypeParamEINtNtB6_9try_trait12FromResidualIBK_B12_NtNtB8_7convert10InfallibleEE13from_residualCs5R1CLfetgKi_11poem_derive, symObjAddr: 0x38D8, symBinAddr: 0x9D7C, symSize: 0x1C }
  - { offset: 0x156B4, size: 0x8, addend: 0x0, symName: __RNvYNCNkNvNtNtNtCs7yrEGia95Wz_10proc_macro6bridge6client5state12BRIDGE_STATE0s_0INtNtNtCsaNl6UpbT7bw_4core3ops8function6FnOnceTINtNtB1n_6option6OptionQIB22_INtNtB1n_4cell4CellPuEEEEE9call_onceCs5R1CLfetgKi_11poem_derive, symObjAddr: 0x4890, symBinAddr: 0xAD34, symSize: 0x4C }
  - { offset: 0x156F8, size: 0x8, addend: 0x0, symName: __RNvYNvYNtNtCsc29TF2YcYso_3syn4item6ItemFnNtNtB9_5parse5Parse5parseINtNtNtCsaNl6UpbT7bw_4core3ops8function6FnOnceTRNtBF_11ParseBufferEE9call_onceCs5R1CLfetgKi_11poem_derive, symObjAddr: 0x4954, symBinAddr: 0xADF8, symSize: 0x24 }
  - { offset: 0x15742, size: 0x8, addend: 0x0, symName: __RNvYNvCs5R1CLfetgKi_11poem_derive30generate_implement_middlewaresINtNtNtCsaNl6UpbT7bw_4core3ops8function2FnTNtCs7yrEGia95Wz_10proc_macro11TokenStreamEE4callB4_, symObjAddr: 0x48FC, symBinAddr: 0xADA0, symSize: 0x28 }
  - { offset: 0x15786, size: 0x8, addend: 0x0, symName: __RNvYNvCs5R1CLfetgKi_11poem_derive7handlerINtNtNtCsaNl6UpbT7bw_4core3ops8function2FnTNtCs7yrEGia95Wz_10proc_macro11TokenStreamB1k_EE4callB4_, symObjAddr: 0x4924, symBinAddr: 0xADC8, symSize: 0x30 }
  - { offset: 0x15894, size: 0x8, addend: 0x0, symName: __RNvNvNtCsaNl6UpbT7bw_4core9ub_checks23maybe_is_nonoverlapping7runtimeCs5R1CLfetgKi_11poem_derive, symObjAddr: 0x28E8, symBinAddr: 0x8D8C, symSize: 0xD8 }
  - { offset: 0x15AFC, size: 0x8, addend: 0x0, symName: __RNvYNCNvCs5R1CLfetgKi_11poem_derive16generate_handlers0_0NtNtCsaNl6UpbT7bw_4core5clone5Clone5cloneB6_, symObjAddr: 0x48DC, symBinAddr: 0xAD80, symSize: 0x10 }
  - { offset: 0x15B29, size: 0x8, addend: 0x0, symName: __RNvYNCNvCs5R1CLfetgKi_11poem_derive16generate_handlers_0NtNtCsaNl6UpbT7bw_4core5clone5Clone5cloneB6_, symObjAddr: 0x48EC, symBinAddr: 0xAD90, symSize: 0x10 }
  - { offset: 0x15CD4, size: 0x8, addend: 0x0, symName: __RINvNtNtNtCs7yrEGia95Wz_10proc_macro6bridge6client5state3setINtNtCsaNl6UpbT7bw_4core6option6OptionNtB4_11TokenStreamENCNCINvB4_10run_clientB1y_BW_NCNCINvMs6_B4_INtB4_6ClientNtB8_11TokenStreamB2L_E7expand1NvCs5R1CLfetgKi_11poem_derive30generate_implement_middlewaresE00E00EB3i_, symObjAddr: 0x1260, symBinAddr: 0x7708, symSize: 0xE8 }
  - { offset: 0x15DA9, size: 0x8, addend: 0x0, symName: __RINvNtNtNtCs7yrEGia95Wz_10proc_macro6bridge6client5state3setINtNtCsaNl6UpbT7bw_4core6option6OptionNtB4_11TokenStreamENCNCINvB4_10run_clientTB1y_B1y_EBW_NCNCINvMs7_B4_INtB4_6ClientTNtB8_11TokenStreamB2S_EB2S_E7expand2NvCs5R1CLfetgKi_11poem_derive7handlerE00E00EB3u_, symObjAddr: 0x1348, symBinAddr: 0x77F0, symSize: 0xEC }
  - { offset: 0x15E89, size: 0x8, addend: 0x0, symName: __RNCNkNvNtNtNtCs7yrEGia95Wz_10proc_macro6bridge6client5state12BRIDGE_STATE0s_0Cs5R1CLfetgKi_11poem_derive, symObjAddr: 0x1FEC, symBinAddr: 0x8494, symSize: 0x30 }
  - { offset: 0x163E8, size: 0x8, addend: 0x0, symName: __RNvXs5_NtNtCs7yrEGia95Wz_10proc_macro6bridge6bufferNtB5_6BufferNtNtNtCsaNl6UpbT7bw_4core3ops4drop4Drop4dropCs5R1CLfetgKi_11poem_derive, symObjAddr: 0x3200, symBinAddr: 0x96A4, symSize: 0x8C }
  - { offset: 0x1656B, size: 0x8, addend: 0x0, symName: __RINvNvNtNtCs7yrEGia95Wz_10proc_macro6bridge14selfless_reify31reify_to_extern_c_fn_hrt_bridge7wrapperNtNtB6_6buffer6BufferNCINvMs6_NtB6_6clientINtB24_6ClientNtB8_11TokenStreamB2u_E7expand1NvCs5R1CLfetgKi_11poem_derive30generate_implement_middlewaresE0EB31_, symObjAddr: 0x15B4, symBinAddr: 0x7A5C, symSize: 0x5C }
  - { offset: 0x165C7, size: 0x8, addend: 0x0, symName: __RINvNvNtNtCs7yrEGia95Wz_10proc_macro6bridge14selfless_reify31reify_to_extern_c_fn_hrt_bridge7wrapperNtNtB6_6buffer6BufferNCINvMs7_NtB6_6clientINtB24_6ClientTNtB8_11TokenStreamB2v_EB2v_E7expand2NvCs5R1CLfetgKi_11poem_derive7handlerE0EB37_, symObjAddr: 0x1610, symBinAddr: 0x7AB8, symSize: 0x5C }
  - { offset: 0x1662F, size: 0x8, addend: 0x0, symName: __RNvXNtNtCs7yrEGia95Wz_10proc_macro6bridge3rpcuINtB2_6EncodeuE6encodeCs5R1CLfetgKi_11poem_derive, symObjAddr: 0x2C1C, symBinAddr: 0x90C0, symSize: 0x14 }
  - { offset: 0x16676, size: 0x8, addend: 0x0, symName: __RNvXs7_NtNtCs7yrEGia95Wz_10proc_macro6bridge3rpcINtNtNtCsaNl6UpbT7bw_4core3num7nonzero7NonZeromEINtB5_9DecodeMutuE6decodeCs5R1CLfetgKi_11poem_derive, symObjAddr: 0x32D4, symBinAddr: 0x9778, symSize: 0x5C }
  - { offset: 0x166F1, size: 0x8, addend: 0x0, symName: __RNvXs9_NtNtCs7yrEGia95Wz_10proc_macro6bridge3rpcTINtB7_11ExpnGlobalsNtNtB7_6client4SpanENtB16_11TokenStreamEINtB5_9DecodeMutuE6decodeCs5R1CLfetgKi_11poem_derive, symObjAddr: 0x34F0, symBinAddr: 0x9994, symSize: 0x84 }
  - { offset: 0x16746, size: 0x8, addend: 0x0, symName: __RNvXs9_NtNtCs7yrEGia95Wz_10proc_macro6bridge3rpcTINtB7_11ExpnGlobalsNtNtB7_6client4SpanETNtB16_11TokenStreamB1p_EEINtB5_9DecodeMutuE6decodeCs5R1CLfetgKi_11poem_derive, symObjAddr: 0x3574, symBinAddr: 0x9A18, symSize: 0x90 }
  - { offset: 0x16833, size: 0x8, addend: 0x0, symName: __RNvXsa_NtNtCs7yrEGia95Wz_10proc_macro6bridge3rpcRShINtB5_6EncodeuE6encodeCs5R1CLfetgKi_11poem_derive, symObjAddr: 0x3BF4, symBinAddr: 0xA098, symSize: 0xD8 }
  - { offset: 0x16935, size: 0x8, addend: 0x0, symName: __RNvXsc_NtNtCs7yrEGia95Wz_10proc_macro6bridge3rpcReINtB5_6EncodeuE6encodeCs5R1CLfetgKi_11poem_derive, symObjAddr: 0x3D88, symBinAddr: 0xA22C, symSize: 0x38 }
  - { offset: 0x16A1D, size: 0x8, addend: 0x0, symName: __RNvXsl_NtNtCs7yrEGia95Wz_10proc_macro6bridge3rpcNtB5_12PanicMessageINtB5_6EncodeuE6encodeCs5R1CLfetgKi_11poem_derive, symObjAddr: 0x4404, symBinAddr: 0xA8A8, symSize: 0x128 }
  - { offset: 0x16BE3, size: 0x8, addend: 0x0, symName: __RNvXso_NtNtCs7yrEGia95Wz_10proc_macro6bridge3rpcmINtB5_9DecodeMutuE6decodeCs5R1CLfetgKi_11poem_derive, symObjAddr: 0x4560, symBinAddr: 0xAA04, symSize: 0x108 }
  - { offset: 0x16D31, size: 0x8, addend: 0x0, symName: __RNvXs1J_NtCs7yrEGia95Wz_10proc_macro6bridgeINtB6_11ExpnGlobalsNtNtB6_6client4SpanEINtNtB6_3rpc9DecodeMutuE6decodeCs5R1CLfetgKi_11poem_derive, symObjAddr: 0x2FA0, symBinAddr: 0x9444, symSize: 0xB0 }
  - { offset: 0x16D83, size: 0x8, addend: 0x0, symName: __RNvXsR_NtCs7yrEGia95Wz_10proc_macro6bridgeINtNtCsaNl6UpbT7bw_4core6option6OptionNtNtB5_6client11TokenStreamEINtNtB5_3rpc6EncodeuE6encodeCs5R1CLfetgKi_11poem_derive, symObjAddr: 0x3734, symBinAddr: 0x9BD8, symSize: 0xCC }
  - { offset: 0x16E29, size: 0x8, addend: 0x0, symName: __RNvXsR_NtCs7yrEGia95Wz_10proc_macro6bridgeINtNtCsaNl6UpbT7bw_4core6option6OptionReEINtNtB5_3rpc6EncodeuE6encodeCs5R1CLfetgKi_11poem_derive, symObjAddr: 0x3800, symBinAddr: 0x9CA4, symSize: 0xD8 }
  - { offset: 0x17278, size: 0x8, addend: 0x0, symName: __RNvXsF_NtCshnvkK9b4wzu_11proc_macro23impNtB5_5IdentNtNtCsaNl6UpbT7bw_4core5clone5Clone5cloneCs5R1CLfetgKi_11poem_derive, symObjAddr: 0x3698, symBinAddr: 0x9B3C, symSize: 0x9C }
  - { offset: 0x17386, size: 0x8, addend: 0x0, symName: __RNvXsA_NtCshnvkK9b4wzu_11proc_macro28fallbackNtB5_5IdentNtNtCsaNl6UpbT7bw_4core5clone5Clone5cloneCs5R1CLfetgKi_11poem_derive, symObjAddr: 0x3604, symBinAddr: 0x9AA8, symSize: 0x94 }
  - { offset: 0x173BA, size: 0x8, addend: 0x0, symName: __RNvXsu_NtCshnvkK9b4wzu_11proc_macro28fallbackNtB5_4SpanNtNtCsaNl6UpbT7bw_4core5clone5Clone5cloneCs5R1CLfetgKi_11poem_derive, symObjAddr: 0x46D4, symBinAddr: 0xAB78, symSize: 0x10 }
  - { offset: 0x17405, size: 0x8, addend: 0x0, symName: __RNvXs1_NtCshnvkK9b4wzu_11proc_macro26markerNtB5_19ProcMacroAutoTraitsNtNtCsaNl6UpbT7bw_4core5clone5Clone5cloneCs5R1CLfetgKi_11poem_derive, symObjAddr: 0x3050, symBinAddr: 0x94F4, symSize: 0x10 }
  - { offset: 0x17641, size: 0x8, addend: 0x0, symName: __RINvCsc29TF2YcYso_3syn5parseNtNtB2_4item6ItemFnECs5R1CLfetgKi_11poem_derive, symObjAddr: 0x0, symBinAddr: 0x64A8, symSize: 0x30 }
  - { offset: 0x197AE, size: 0x8, addend: 0x0, symName: __RNCNvXs8_NtCsc29TF2YcYso_3syn10punctuatedINtB7_10PunctuatedNtNtB9_4item5FnArgNtNtB9_5token5CommaENtNtNtNtCsaNl6UpbT7bw_4core4iter6traits7collect12IntoIterator9into_iter0Cs5R1CLfetgKi_11poem_derive, symObjAddr: 0x201C, symBinAddr: 0x84C4, symSize: 0x44 }
  - { offset: 0x197FA, size: 0x8, addend: 0x0, symName: __RNCNvXs8_NtCsc29TF2YcYso_3syn10punctuatedINtB7_10PunctuatedNtNtB9_4item5FnArgNtNtB9_5token5CommaENtNtNtNtCsaNl6UpbT7bw_4core4iter6traits7collect12IntoIterator9into_iters_0Cs5R1CLfetgKi_11poem_derive, symObjAddr: 0x2060, symBinAddr: 0x8508, symSize: 0x98 }
  - { offset: 0x19846, size: 0x8, addend: 0x0, symName: __RNvXs8_NtCsc29TF2YcYso_3syn10punctuatedINtB5_10PunctuatedNtNtB7_4item5FnArgNtNtB7_5token5CommaENtNtNtNtCsaNl6UpbT7bw_4core4iter6traits7collect12IntoIterator9into_iterCs5R1CLfetgKi_11poem_derive, symObjAddr: 0x3330, symBinAddr: 0x97D4, symSize: 0x1C0 }
  - { offset: 0x198C1, size: 0x8, addend: 0x0, symName: __RNvXsn_NtCsc29TF2YcYso_3syn10punctuatedINtB5_8IntoIterNtNtB7_4item5FnArgENtNtNtNtCsaNl6UpbT7bw_4core4iter6traits8iterator8Iterator4nextCs5R1CLfetgKi_11poem_derive, symObjAddr: 0x452C, symBinAddr: 0xA9D0, symSize: 0x34 }
  - { offset: 0x198FE, size: 0x8, addend: 0x0, symName: __RNvXss_NtCsc29TF2YcYso_3syn10punctuatedINtB5_4IterNtNtB7_8generics12GenericParamENtNtCsaNl6UpbT7bw_4core5clone5Clone5cloneCs5R1CLfetgKi_11poem_derive, symObjAddr: 0x4668, symBinAddr: 0xAB0C, symSize: 0x48 }
  - { offset: 0x1C47B, size: 0x8, addend: 0x0, symName: __RINvNtCsc29TF2YcYso_3syn4meta17parse_nested_metaNCNvCs5R1CLfetgKi_11poem_derive7handler0EBO_, symObjAddr: 0xEBC, symBinAddr: 0x7364, symSize: 0x380 }
  - { offset: 0x1C53D, size: 0x8, addend: 0x0, symName: __RINvNtCsc29TF2YcYso_3syn4meta6parserNCNvCs5R1CLfetgKi_11poem_derive7handler0EBC_, symObjAddr: 0x123C, symBinAddr: 0x76E4, symSize: 0x24 }
  - { offset: 0x1C577, size: 0x8, addend: 0x0, symName: __RNCINvNtCsc29TF2YcYso_3syn4meta6parserNCNvCs5R1CLfetgKi_11poem_derive7handler0E0BE_, symObjAddr: 0x1CB8, symBinAddr: 0x8160, symSize: 0xE0 }
  - { offset: 0x1C61F, size: 0x8, addend: 0x0, symName: __RNvXsh_NtCsc29TF2YcYso_3syn5parseNCINvNtB7_4meta6parserNCNvCs5R1CLfetgKi_11poem_derive7handler0E0NtB5_6Parser6parse2BV_, symObjAddr: 0x3DC0, symBinAddr: 0xA264, symSize: 0x2F0 }
  - { offset: 0x1C72D, size: 0x8, addend: 0x0, symName: __RNvXsh_NtCsc29TF2YcYso_3syn5parseNvYNtNtB7_4item6ItemFnNtB5_5Parse5parseNtB5_6Parser6parse2Cs5R1CLfetgKi_11poem_derive, symObjAddr: 0x40B0, symBinAddr: 0xA554, symSize: 0x354 }
  - { offset: 0x1C843, size: 0x8, addend: 0x0, symName: __RNvYNCINvNtCsc29TF2YcYso_3syn4meta6parserNCNvCs5R1CLfetgKi_11poem_derive7handler0E0NtNtB9_5parse6Parser5parseBH_, symObjAddr: 0x47F4, symBinAddr: 0xAC98, symSize: 0x9C }
  - { offset: 0x1C889, size: 0x8, addend: 0x0, symName: __RNvYNvYNtNtCsc29TF2YcYso_3syn4item6ItemFnNtNtB9_5parse5Parse5parseNtBF_6Parser5parseCs5R1CLfetgKi_11poem_derive, symObjAddr: 0x4978, symBinAddr: 0xAE1C, symSize: 0x88 }
  - { offset: 0x1DC84, size: 0x8, addend: 0x0, symName: __RNvXs1_NtCsiTraAjBDcu4_5alloc7raw_vecINtB5_6RawVecNtCshnvkK9b4wzu_11proc_macro211TokenStreamENtNtNtCsaNl6UpbT7bw_4core3ops4drop4Drop4dropCs5R1CLfetgKi_11poem_derive, symObjAddr: 0x3060, symBinAddr: 0x9504, symSize: 0x34 }
  - { offset: 0x1DCC0, size: 0x8, addend: 0x0, symName: __RNvXs1_NtCsiTraAjBDcu4_5alloc7raw_vecINtB5_6RawVecNtCshnvkK9b4wzu_11proc_macro25IdentENtNtNtCsaNl6UpbT7bw_4core3ops4drop4Drop4dropCs5R1CLfetgKi_11poem_derive, symObjAddr: 0x3094, symBinAddr: 0x9538, symSize: 0x34 }
  - { offset: 0x1DCFC, size: 0x8, addend: 0x0, symName: __RNvXs1_NtCsiTraAjBDcu4_5alloc7raw_vecINtB5_6RawVecNtNtCsc29TF2YcYso_3syn4item5FnArgENtNtNtCsaNl6UpbT7bw_4core3ops4drop4Drop4dropCs5R1CLfetgKi_11poem_derive, symObjAddr: 0x30C8, symBinAddr: 0x956C, symSize: 0x34 }
  - { offset: 0x1DE26, size: 0x8, addend: 0x0, symName: __RNvXss_NtCsiTraAjBDcu4_5alloc6stringNtB5_6StringNtNtNtCsaNl6UpbT7bw_4core3ops5deref5Deref5derefCs5R1CLfetgKi_11poem_derive, symObjAddr: 0x46B0, symBinAddr: 0xAB54, symSize: 0x24 }
  - { offset: 0x1E463, size: 0x8, addend: 0x0, symName: __RINvMNtCsaNl6UpbT7bw_4core6optionINtB3_6OptionINtNtCsiTraAjBDcu4_5alloc5boxed3BoxNtNtCsc29TF2YcYso_3syn4item5FnArgEE3mapB1h_NCNvXs8_NtB1l_10punctuatedINtB26_10PunctuatedB1h_NtNtB1l_5token5CommaENtNtNtNtB5_4iter6traits7collect12IntoIterator9into_iters_0ECs5R1CLfetgKi_11poem_derive, symObjAddr: 0x30, symBinAddr: 0x64D8, symSize: 0x70 }
  - { offset: 0x1E586, size: 0x8, addend: 0x0, symName: __RNvYINtNtNtNtCsaNl6UpbT7bw_4core4iter8adapters3map3MapIB3_INtNtB7_9enumerate9EnumerateINtNtB7_10filter_map9FilterMapINtNtCsc29TF2YcYso_3syn10punctuated4IterNtNtB1V_8generics12GenericParamENCNvCs5R1CLfetgKi_11poem_derive16generate_handlers_0EENCB32_s0_0ENCB32_s1_0ENtNtNtCs4EAaWzSXu1l_5quote9___private3ext14RepIteratorExt15quote_into_iterB34_, symObjAddr: 0x47A4, symBinAddr: 0xAC48, symSize: 0x28 }
  - { offset: 0x1E5BB, size: 0x8, addend: 0x0, symName: __RNvYINtNtNtNtCsaNl6UpbT7bw_4core4iter8adapters3map3MapIB3_INtNtB7_9enumerate9EnumerateINtNtB7_10filter_map9FilterMapINtNtCsc29TF2YcYso_3syn10punctuated4IterNtNtB1V_8generics12GenericParamENCNvCs5R1CLfetgKi_11poem_derive16generate_handlers_0EENCB32_s0_0ENCB32_s2_0ENtNtNtCs4EAaWzSXu1l_5quote9___private3ext14RepIteratorExt15quote_into_iterB34_, symObjAddr: 0x47CC, symBinAddr: 0xAC70, symSize: 0x28 }
  - { offset: 0x1E623, size: 0x8, addend: 0x0, symName: __RNvXNtCs4EAaWzSXu1l_5quote9to_tokensRNtNtCsc29TF2YcYso_3syn11restriction10VisibilityNtB2_8ToTokens9to_tokensCs5R1CLfetgKi_11poem_derive, symObjAddr: 0x2B9C, symBinAddr: 0x9040, symSize: 0x40 }
  - { offset: 0x1E662, size: 0x8, addend: 0x0, symName: __RNvXNtCs4EAaWzSXu1l_5quote9to_tokensRNtNtCsc29TF2YcYso_3syn8generics11WhereClauseNtB2_8ToTokens9to_tokensCs5R1CLfetgKi_11poem_derive, symObjAddr: 0x2BDC, symBinAddr: 0x9080, symSize: 0x40 }
  - { offset: 0x1E6A7, size: 0x8, addend: 0x0, symName: __RNvXs3_NtCs4EAaWzSXu1l_5quote9to_tokensINtNtCsaNl6UpbT7bw_4core6option6OptionNtCshnvkK9b4wzu_11proc_macro211TokenStreamENtB5_8ToTokens9to_tokensCs5R1CLfetgKi_11poem_derive, symObjAddr: 0x30FC, symBinAddr: 0x95A0, symSize: 0x84 }
  - { offset: 0x1E703, size: 0x8, addend: 0x0, symName: __RNvXs3_NtCs4EAaWzSXu1l_5quote9to_tokensINtNtCsaNl6UpbT7bw_4core6option6OptionRNtNtCsc29TF2YcYso_3syn8generics11WhereClauseENtB5_8ToTokens9to_tokensCs5R1CLfetgKi_11poem_derive, symObjAddr: 0x3180, symBinAddr: 0x9624, symSize: 0x80 }
  - { offset: 0x1E77C, size: 0x8, addend: 0x0, symName: __RINvMNtNtCsaNl6UpbT7bw_4core3fmt2rtNtB3_8Argument11new_displayINtNtCs4EAaWzSXu1l_5quote9___private20IdentFragmentAdapterRjEECs5R1CLfetgKi_11poem_derive, symObjAddr: 0xA0, symBinAddr: 0x6548, symSize: 0x2C }
  - { offset: 0x1E83C, size: 0x8, addend: 0x0, symName: __RINvMs3_NtNtCs7yrEGia95Wz_10proc_macro6bridge6bufferNtB6_6Buffer17extend_from_arrayKj4_ECs5R1CLfetgKi_11poem_derive, symObjAddr: 0xCC, symBinAddr: 0x6574, symSize: 0x16C }
  - { offset: 0x1E9C4, size: 0x8, addend: 0x0, symName: __RINvMs3_NtNtCs7yrEGia95Wz_10proc_macro6bridge6bufferNtB6_6Buffer17extend_from_arrayKj8_ECs5R1CLfetgKi_11poem_derive, symObjAddr: 0x238, symBinAddr: 0x66E0, symSize: 0x16C }
  - { offset: 0x1ECF5, size: 0x8, addend: 0x0, symName: __RNvNtCs5R1CLfetgKi_11poem_derive5utils14get_crate_name, symObjAddr: 0x4A00, symBinAddr: 0xAEA4, symSize: 0x298 }
  - { offset: 0x1EFAD, size: 0x8, addend: 0x0, symName: __RNvMNtCsaNl6UpbT7bw_4core6optionINtB2_6OptionNtCshnvkK9b4wzu_11proc_macro24SpanE2orCs5R1CLfetgKi_11poem_derive, symObjAddr: 0x21A4, symBinAddr: 0x864C, symSize: 0x84 }
  - { offset: 0x1F013, size: 0x8, addend: 0x0, symName: __RNvMNtCsaNl6UpbT7bw_4core6optionINtB2_6OptionNtNtCsc29TF2YcYso_3syn5token5AsyncE7is_someCs5R1CLfetgKi_11poem_derive, symObjAddr: 0x2228, symBinAddr: 0x86D0, symSize: 0x20 }
  - { offset: 0x1F04C, size: 0x8, addend: 0x0, symName: __RNvMNtCsc29TF2YcYso_3syn10punctuatedINtB2_10PunctuatedNtNtB4_4item5FnArgNtNtB4_5token5CommaE3lenCs5R1CLfetgKi_11poem_derive, symObjAddr: 0x2248, symBinAddr: 0x86F0, symSize: 0xA0 }
  - { offset: 0x1F167, size: 0x8, addend: 0x0, symName: __RNvMNtCsiTraAjBDcu4_5alloc6stringNtB2_6String6as_strCs5R1CLfetgKi_11poem_derive, symObjAddr: 0x22E8, symBinAddr: 0x8790, symSize: 0x78 }
  - { offset: 0x1F2CF, size: 0x8, addend: 0x0, symName: __RNvMs0_NtCsiTraAjBDcu4_5alloc7raw_vecINtB5_6RawVecNtCshnvkK9b4wzu_11proc_macro211TokenStreamE8grow_oneCs5R1CLfetgKi_11poem_derive, symObjAddr: 0x2360, symBinAddr: 0x8808, symSize: 0x90 }
  - { offset: 0x1F37D, size: 0x8, addend: 0x0, symName: __RNvMs0_NtCsiTraAjBDcu4_5alloc7raw_vecINtB5_6RawVecNtCshnvkK9b4wzu_11proc_macro25IdentE8grow_oneCs5R1CLfetgKi_11poem_derive, symObjAddr: 0x23F0, symBinAddr: 0x8898, symSize: 0x90 }
  - { offset: 0x1F40F, size: 0x8, addend: 0x0, symName: __RNvMs1_NtNtCsaNl6UpbT7bw_4core3ptr8non_nullINtB5_7NonNullNtNtCsc29TF2YcYso_3syn4item5FnArgE20offset_from_unsignedCs5R1CLfetgKi_11poem_derive, symObjAddr: 0x2480, symBinAddr: 0x8928, symSize: 0x7C }
  - { offset: 0x1F4F1, size: 0x8, addend: 0x0, symName: __RNvMs3_NtNtCs7yrEGia95Wz_10proc_macro6bridge6bufferNtB5_6Buffer17extend_from_sliceCs5R1CLfetgKi_11poem_derive, symObjAddr: 0x24FC, symBinAddr: 0x89A4, symSize: 0x164 }
  - { offset: 0x1F66F, size: 0x8, addend: 0x0, symName: __RNvMs3_NtNtCs7yrEGia95Wz_10proc_macro6bridge6bufferNtB5_6Buffer4pushCs5R1CLfetgKi_11poem_derive, symObjAddr: 0x2660, symBinAddr: 0x8B08, symSize: 0x134 }
  - { offset: 0x203DE, size: 0x8, addend: 0x0, symName: __RINvMNtCsiTraAjBDcu4_5alloc5sliceSNtCshnvkK9b4wzu_11proc_macro211TokenStream8into_vecNtNtB5_5alloc6GlobalECs5R1CLfetgKi_11poem_derive, symObjAddr: 0x0, symBinAddr: 0xB13C, symSize: 0x9C }
  - { offset: 0x2082A, size: 0x8, addend: 0x0, symName: __RNvXsV_NtCs7yrEGia95Wz_10proc_macro6bridgeINtNtCsaNl6UpbT7bw_4core6result6ResultINtNtBJ_6option6OptionNtNtB5_6client11TokenStreamEuEINtNtB5_3rpc6EncodeuE6encodeCs5R1CLfetgKi_11poem_derive, symObjAddr: 0x1E08, symBinAddr: 0xCF44, symSize: 0x110 }
  - { offset: 0x208EE, size: 0x8, addend: 0x0, symName: __RNvXsV_NtCs7yrEGia95Wz_10proc_macro6bridgeINtNtCsaNl6UpbT7bw_4core6result6ResultuNtNtB5_3rpc12PanicMessageEINtB1j_6EncodeuE6encodeCs5R1CLfetgKi_11poem_derive, symObjAddr: 0x1F18, symBinAddr: 0xD054, symSize: 0x12C }
  - { offset: 0x20AC4, size: 0x8, addend: 0x0, symName: __RNvXs1e_Cs7yrEGia95Wz_10proc_macroNtB6_5IdentNtNtCsaNl6UpbT7bw_4core5clone5Clone5cloneCs5R1CLfetgKi_11poem_derive, symObjAddr: 0x1820, symBinAddr: 0xC95C, symSize: 0x40 }
  - { offset: 0x2101D, size: 0x8, addend: 0x0, symName: __RNvXsY_CshnvkK9b4wzu_11proc_macro2NtB5_5IdentNtNtCsaNl6UpbT7bw_4core5clone5Clone5cloneCs5R1CLfetgKi_11poem_derive, symObjAddr: 0x2044, symBinAddr: 0xD180, symSize: 0x78 }
  - { offset: 0x2457F, size: 0x8, addend: 0x0, symName: __RNvXsq_NtCsaNl6UpbT7bw_4core6resultINtB5_6ResultNtCs7yrEGia95Wz_10proc_macro11TokenStreamNtNtCsc29TF2YcYso_3syn5error5ErrorEINtNtNtB7_3ops9try_trait12FromResidualIBy_NtNtB7_7convert10InfallibleB1p_EE13from_residualCs5R1CLfetgKi_11poem_derive, symObjAddr: 0x2830, symBinAddr: 0xD96C, symSize: 0x40 }
  - { offset: 0x2474A, size: 0x8, addend: 0x0, symName: __RNvXsp_NtCsaNl6UpbT7bw_4core6resultINtB5_6ResultNtNtCsc29TF2YcYso_3syn4item6ItemFnNtNtBO_5error5ErrorENtNtNtB7_3ops9try_trait3Try6branchCs5R1CLfetgKi_11poem_derive, symObjAddr: 0x277C, symBinAddr: 0xD8B8, symSize: 0xB4 }
  - { offset: 0x24B72, size: 0x8, addend: 0x0, symName: __RNvXs1_NtNtNtCsaNl6UpbT7bw_4core4iter8adapters6filterINtB5_6FilterINtNtNtBb_5slice4iter4IterNtNtCsc29TF2YcYso_3syn4attr9AttributeENCNvCs5R1CLfetgKi_11poem_derive16generate_handler0ENtNtNtB9_6traits8iterator8Iterator4nextB28_, symObjAddr: 0x17A8, symBinAddr: 0xC8E4, symSize: 0x2C }
  - { offset: 0x24BB0, size: 0x8, addend: 0x0, symName: __RNvXs1_NtNtNtCsaNl6UpbT7bw_4core4iter8adapters6filterINtB5_6FilterINtNtNtBb_5slice4iter4IterNtNtCsc29TF2YcYso_3syn4attr9AttributeENCNvCs5R1CLfetgKi_11poem_derive16generate_handler0ENtNtNtB9_6traits8iterator8Iterator9size_hintB28_, symObjAddr: 0x17D4, symBinAddr: 0xC910, symSize: 0x4C }
  - { offset: 0x24C1D, size: 0x8, addend: 0x0, symName: __RINvYINtNtNtCsiTraAjBDcu4_5alloc3vec9into_iter8IntoIterTNtNtCsc29TF2YcYso_3syn4item5FnArgNtNtBW_5token5CommaEENtNtNtNtCsaNl6UpbT7bw_4core4iter6traits8iterator8Iterator3mapBS_NCNvXs8_NtBW_10punctuatedINtB2U_10PunctuatedBS_B1p_ENtNtB1O_7collect12IntoIterator9into_iter0ECs5R1CLfetgKi_11poem_derive, symObjAddr: 0x958, symBinAddr: 0xBA94, symSize: 0x1C }
  - { offset: 0x24C8A, size: 0x8, addend: 0x0, symName: __RINvYINtNtNtNtCsaNl6UpbT7bw_4core4iter8adapters6filter6FilterINtNtNtBc_5slice4iter4IterNtNtCsc29TF2YcYso_3syn4attr9AttributeENCNvCs5R1CLfetgKi_11poem_derive16generate_handler0ENtNtNtBa_6traits8iterator8Iterator6clonedB1n_EB23_, symObjAddr: 0x974, symBinAddr: 0xBAB0, symSize: 0x1C }
  - { offset: 0x24D45, size: 0x8, addend: 0x0, symName: __RNvYINtNtNtCsiTraAjBDcu4_5alloc3vec9into_iter8IntoIterNtNtCsc29TF2YcYso_3syn4item5FnArgENtNtNtNtCsaNl6UpbT7bw_4core4iter6traits10exact_size17ExactSizeIterator3lenCs5R1CLfetgKi_11poem_derive, symObjAddr: 0x288C, symBinAddr: 0xD9C8, symSize: 0xC4 }
  - { offset: 0x24E40, size: 0x8, addend: 0x0, symName: __RNvYINtNtNtCsiTraAjBDcu4_5alloc3vec9into_iter8IntoIterTNtNtCsc29TF2YcYso_3syn4item5FnArgNtNtBV_5token5CommaEENtNtNtNtCsaNl6UpbT7bw_4core4iter6traits10exact_size17ExactSizeIterator3lenCs5R1CLfetgKi_11poem_derive, symObjAddr: 0x2950, symBinAddr: 0xDA8C, symSize: 0xC4 }
  - { offset: 0x25365, size: 0x8, addend: 0x0, symName: __RNvMNtCsaNl6UpbT7bw_4core5sliceSNtCshnvkK9b4wzu_11proc_macro211TokenStream4iterCs5R1CLfetgKi_11poem_derive, symObjAddr: 0xA7C, symBinAddr: 0xBBB8, symSize: 0x28 }
  - { offset: 0x2539C, size: 0x8, addend: 0x0, symName: __RNvMNtCsaNl6UpbT7bw_4core5sliceSNtCshnvkK9b4wzu_11proc_macro25Ident4iterCs5R1CLfetgKi_11poem_derive, symObjAddr: 0xAA4, symBinAddr: 0xBBE0, symSize: 0x28 }
  - { offset: 0x253D3, size: 0x8, addend: 0x0, symName: __RNvMNtCsaNl6UpbT7bw_4core5sliceSNtCshnvkK9b4wzu_11proc_macro25Ident4lastCs5R1CLfetgKi_11poem_derive, symObjAddr: 0xACC, symBinAddr: 0xBC08, symSize: 0x58 }
  - { offset: 0x25420, size: 0x8, addend: 0x0, symName: __RNvMNtCsaNl6UpbT7bw_4core5sliceSNtCshnvkK9b4wzu_11proc_macro25Ident5firstCs5R1CLfetgKi_11poem_derive, symObjAddr: 0xB24, symBinAddr: 0xBC60, symSize: 0x44 }
  - { offset: 0x25706, size: 0x8, addend: 0x0, symName: __RNvXs1_NtCsaNl6UpbT7bw_4core7convertNtCshnvkK9b4wzu_11proc_macro211TokenStreamINtB5_4IntoNtCs7yrEGia95Wz_10proc_macro11TokenStreamE4intoCs5R1CLfetgKi_11poem_derive, symObjAddr: 0x1794, symBinAddr: 0xC8D0, symSize: 0x14 }
  - { offset: 0x257C3, size: 0x8, addend: 0x0, symName: __RNvXs6_NtCsiTraAjBDcu4_5alloc5boxedINtB5_3BoxANtCshnvkK9b4wzu_11proc_macro211TokenStreamj1_ENtNtNtCsaNl6UpbT7bw_4core3ops4drop4Drop4dropCs5R1CLfetgKi_11poem_derive, symObjAddr: 0x1BF4, symBinAddr: 0xCD30, symSize: 0xB8 }
  - { offset: 0x258FA, size: 0x8, addend: 0x0, symName: __RNvXs6_NtCsiTraAjBDcu4_5alloc5boxedINtB5_3BoxINtNtCsc29TF2YcYso_3syn5drops6NoDropDINtNtBM_10punctuated9IterTraitNtNtBM_8generics12GenericParamEp4ItemRB1M_EL_EENtNtNtCsaNl6UpbT7bw_4core3ops4drop4Drop4dropCs5R1CLfetgKi_11poem_derive, symObjAddr: 0x1CAC, symBinAddr: 0xCDE8, symSize: 0x120 }
  - { offset: 0x26684, size: 0x8, addend: 0x0, symName: __RINvXs3_NtNtCsiTraAjBDcu4_5alloc3vec9into_iterINtB6_8IntoIterTNtNtCsc29TF2YcYso_3syn4item5FnArgNtNtB12_5token5CommaEENtNtNtNtCsaNl6UpbT7bw_4core4iter6traits8iterator8Iterator4folduNCINvNtNtB1X_8adapters3map8map_foldBX_BY_uNCNvXs8_NtB12_10punctuatedINtB3G_10PunctuatedBY_B1v_ENtNtB1V_7collect12IntoIterator9into_iter0NCINvNvB1R_8for_each4callBY_NCINvMsi_B8_INtB8_3VecBY_E14extend_trustedINtB2X_3MapBI_B3y_EE0E0E0ECs5R1CLfetgKi_11poem_derive, symObjAddr: 0x704, symBinAddr: 0xB840, symSize: 0x14C }
  - { offset: 0x26854, size: 0x8, addend: 0x0, symName: __RNvXs3_NtNtCsiTraAjBDcu4_5alloc3vec9into_iterINtB5_8IntoIterNtNtCsc29TF2YcYso_3syn4item5FnArgENtNtNtNtCsaNl6UpbT7bw_4core4iter6traits8iterator8Iterator4nextCs5R1CLfetgKi_11poem_derive, symObjAddr: 0x1860, symBinAddr: 0xC99C, symSize: 0xDC }
  - { offset: 0x269C6, size: 0x8, addend: 0x0, symName: __RNvXs3_NtNtCsiTraAjBDcu4_5alloc3vec9into_iterINtB5_8IntoIterNtNtCsc29TF2YcYso_3syn4item5FnArgENtNtNtNtCsaNl6UpbT7bw_4core4iter6traits8iterator8Iterator9size_hintCs5R1CLfetgKi_11poem_derive, symObjAddr: 0x193C, symBinAddr: 0xCA78, symSize: 0x6C }
  - { offset: 0x26A21, size: 0x8, addend: 0x0, symName: __RNvXs3_NtNtCsiTraAjBDcu4_5alloc3vec9into_iterINtB5_8IntoIterTNtNtCsc29TF2YcYso_3syn4item5FnArgNtNtB11_5token5CommaEENtNtNtNtCsaNl6UpbT7bw_4core4iter6traits8iterator8Iterator9size_hintCs5R1CLfetgKi_11poem_derive, symObjAddr: 0x19A8, symBinAddr: 0xCAE4, symSize: 0x6C }
  - { offset: 0x26A8C, size: 0x8, addend: 0x0, symName: __RNvXNvXsd_NtNtCsiTraAjBDcu4_5alloc3vec9into_iterINtB8_8IntoIterppENtNtNtCsaNl6UpbT7bw_4core3ops4drop4Drop4dropINtB2_9DropGuardNtNtCsc29TF2YcYso_3syn4item5FnArgNtNtBc_5alloc6GlobalEB12_4dropCs5R1CLfetgKi_11poem_derive, symObjAddr: 0x169C, symBinAddr: 0xC7D8, symSize: 0x7C }
  - { offset: 0x26B99, size: 0x8, addend: 0x0, symName: __RNvXNvXsd_NtNtCsiTraAjBDcu4_5alloc3vec9into_iterINtB8_8IntoIterppENtNtNtCsaNl6UpbT7bw_4core3ops4drop4Drop4dropINtB2_9DropGuardTNtNtCsc29TF2YcYso_3syn4item5FnArgNtNtB25_5token5CommaENtNtBc_5alloc6GlobalEB12_4dropCs5R1CLfetgKi_11poem_derive, symObjAddr: 0x1718, symBinAddr: 0xC854, symSize: 0x7C }
  - { offset: 0x26CF6, size: 0x8, addend: 0x0, symName: __RNvXsd_NtNtCsiTraAjBDcu4_5alloc3vec9into_iterINtB5_8IntoIterNtNtCsc29TF2YcYso_3syn4item5FnArgENtNtNtCsaNl6UpbT7bw_4core3ops4drop4Drop4dropCs5R1CLfetgKi_11poem_derive, symObjAddr: 0x23DC, symBinAddr: 0xD518, symSize: 0x98 }
  - { offset: 0x26D90, size: 0x8, addend: 0x0, symName: __RNvXsd_NtNtCsiTraAjBDcu4_5alloc3vec9into_iterINtB5_8IntoIterTNtNtCsc29TF2YcYso_3syn4item5FnArgNtNtB11_5token5CommaEENtNtNtCsaNl6UpbT7bw_4core3ops4drop4Drop4dropCs5R1CLfetgKi_11poem_derive, symObjAddr: 0x2474, symBinAddr: 0xD5B0, symSize: 0x98 }
  - { offset: 0x26EBB, size: 0x8, addend: 0x0, symName: __RINvXsd_NtCsiTraAjBDcu4_5alloc3vecINtB6_3VecNtCshnvkK9b4wzu_11proc_macro25IdentEINtNtNtNtCsaNl6UpbT7bw_4core4iter6traits7collect12FromIteratorBG_E9from_iterINtNtNtB1n_8adapters3map3MapINtNtNtB1p_3ops5range5RangejENCNvCs5R1CLfetgKi_11poem_derive30generate_implement_middlewares0EEB3t_, symObjAddr: 0x850, symBinAddr: 0xB98C, symSize: 0x38 }
  - { offset: 0x26EFB, size: 0x8, addend: 0x0, symName: __RINvXsd_NtCsiTraAjBDcu4_5alloc3vecINtB6_3VecNtNtCsc29TF2YcYso_3syn4attr9AttributeEINtNtNtNtCsaNl6UpbT7bw_4core4iter6traits7collect12FromIteratorBG_E9from_iterINtNtNtB1p_8adapters6cloned6ClonedINtNtB2B_6filter6FilterINtNtNtB1r_5slice4iter4IterBG_ENCNvCs5R1CLfetgKi_11poem_derive16generate_handler0EEEB40_, symObjAddr: 0x888, symBinAddr: 0xB9C4, symSize: 0x40 }
  - { offset: 0x26F41, size: 0x8, addend: 0x0, symName: __RINvXsh_NtCsiTraAjBDcu4_5alloc3vecINtB6_3VecNtNtCsc29TF2YcYso_3syn4item5FnArgEINtNtNtNtCsaNl6UpbT7bw_4core4iter6traits7collect6ExtendBG_E6extendINtNtB1n_6option6OptionBG_EECs5R1CLfetgKi_11poem_derive, symObjAddr: 0x8C8, symBinAddr: 0xBA04, symSize: 0x48 }
  - { offset: 0x26F96, size: 0x8, addend: 0x0, symName: __RINvXsh_NtCsiTraAjBDcu4_5alloc3vecINtB6_3VecNtNtCsc29TF2YcYso_3syn4item5FnArgEINtNtNtNtCsaNl6UpbT7bw_4core4iter6traits7collect6ExtendBG_E6extendINtNtNtB1l_8adapters3map3MapINtNtB6_9into_iter8IntoIterTBG_NtNtBK_5token5CommaEENCNvXs8_NtBK_10punctuatedINtB3I_10PunctuatedBG_B3f_ENtB1h_12IntoIterator9into_iter0EECs5R1CLfetgKi_11poem_derive, symObjAddr: 0x910, symBinAddr: 0xBA4C, symSize: 0x48 }
  - { offset: 0x26FF6, size: 0x8, addend: 0x0, symName: __RNCINvMsi_NtCsiTraAjBDcu4_5alloc3vecINtB8_3VecNtCshnvkK9b4wzu_11proc_macro25IdentE14extend_trustedINtNtNtNtCsaNl6UpbT7bw_4core4iter8adapters3map3MapINtNtNtB1H_3ops5range5RangejENCNvCs5R1CLfetgKi_11poem_derive30generate_implement_middlewares0EE0B2T_, symObjAddr: 0x990, symBinAddr: 0xBACC, symSize: 0x44 }
  - { offset: 0x270A3, size: 0x8, addend: 0x0, symName: __RNCINvMsi_NtCsiTraAjBDcu4_5alloc3vecINtB8_3VecNtNtCsc29TF2YcYso_3syn4item5FnArgE14extend_trustedINtNtCsaNl6UpbT7bw_4core6option8IntoIterBI_EE0Cs5R1CLfetgKi_11poem_derive, symObjAddr: 0x9D4, symBinAddr: 0xBB10, symSize: 0x54 }
  - { offset: 0x27161, size: 0x8, addend: 0x0, symName: __RNCINvMsi_NtCsiTraAjBDcu4_5alloc3vecINtB8_3VecNtNtCsc29TF2YcYso_3syn4item5FnArgE14extend_trustedINtNtNtNtCsaNl6UpbT7bw_4core4iter8adapters3map3MapINtNtB8_9into_iter8IntoIterTBI_NtNtBM_5token5CommaEENCNvXs8_NtBM_10punctuatedINtB3i_10PunctuatedBI_B2P_ENtNtNtB1D_6traits7collect12IntoIterator9into_iter0EE0Cs5R1CLfetgKi_11poem_derive, symObjAddr: 0xA28, symBinAddr: 0xBB64, symSize: 0x54 }
  - { offset: 0x27249, size: 0x8, addend: 0x0, symName: __RNvXNtNtCsiTraAjBDcu4_5alloc3vec11spec_extendINtB4_3VecNtNtCsc29TF2YcYso_3syn4attr9AttributeEINtB2_10SpecExtendBR_INtNtNtNtCsaNl6UpbT7bw_4core4iter8adapters6cloned6ClonedINtNtB1T_6filter6FilterINtNtNtB1X_5slice4iter4IterBR_ENCNvCs5R1CLfetgKi_11poem_derive16generate_handler0EEE11spec_extendB3E_, symObjAddr: 0x13EC, symBinAddr: 0xC528, symSize: 0x34 }
  - { offset: 0x272A0, size: 0x8, addend: 0x0, symName: __RNvXs_NtNtCsiTraAjBDcu4_5alloc3vec11spec_extendINtB6_3VecNtCshnvkK9b4wzu_11proc_macro25IdentEINtB4_10SpecExtendBT_INtNtNtNtCsaNl6UpbT7bw_4core4iter8adapters3map3MapINtNtNtB1X_3ops5range5RangejENCNvCs5R1CLfetgKi_11poem_derive30generate_implement_middlewares0EE11spec_extendB39_, symObjAddr: 0x2178, symBinAddr: 0xD2B4, symSize: 0x2C }
  - { offset: 0x272F1, size: 0x8, addend: 0x0, symName: __RNvXs_NtNtCsiTraAjBDcu4_5alloc3vec11spec_extendINtB6_3VecNtNtCsc29TF2YcYso_3syn4item5FnArgEINtB4_10SpecExtendBT_INtNtCsaNl6UpbT7bw_4core6option8IntoIterBT_EE11spec_extendCs5R1CLfetgKi_11poem_derive, symObjAddr: 0x21A4, symBinAddr: 0xD2E0, symSize: 0x24 }
  - { offset: 0x27343, size: 0x8, addend: 0x0, symName: __RNvXs_NtNtCsiTraAjBDcu4_5alloc3vec11spec_extendINtB6_3VecNtNtCsc29TF2YcYso_3syn4item5FnArgEINtB4_10SpecExtendBT_INtNtNtNtCsaNl6UpbT7bw_4core4iter8adapters3map3MapINtNtB6_9into_iter8IntoIterTBT_NtNtBX_5token5CommaEENCNvXs8_NtBX_10punctuatedINtB3y_10PunctuatedBT_B35_ENtNtNtB1T_6traits7collect12IntoIterator9into_iter0EE11spec_extendCs5R1CLfetgKi_11poem_derive, symObjAddr: 0x21C8, symBinAddr: 0xD304, symSize: 0x24 }
  - { offset: 0x273A1, size: 0x8, addend: 0x0, symName: __RNvXNtNtCsiTraAjBDcu4_5alloc3vec14spec_from_iterINtB4_3VecNtCshnvkK9b4wzu_11proc_macro25IdentEINtB2_12SpecFromIterBU_INtNtNtNtCsaNl6UpbT7bw_4core4iter8adapters3map3MapINtNtNtB20_3ops5range5RangejENCNvCs5R1CLfetgKi_11poem_derive30generate_implement_middlewares0EE9from_iterB3c_, symObjAddr: 0x1420, symBinAddr: 0xC55C, symSize: 0x24 }
  - { offset: 0x273DF, size: 0x8, addend: 0x0, symName: __RNvXNtNtCsiTraAjBDcu4_5alloc3vec14spec_from_iterINtB4_3VecNtNtCsc29TF2YcYso_3syn4attr9AttributeEINtB2_12SpecFromIterBU_INtNtNtNtCsaNl6UpbT7bw_4core4iter8adapters6cloned6ClonedINtNtB1Y_6filter6FilterINtNtNtB22_5slice4iter4IterBU_ENCNvCs5R1CLfetgKi_11poem_derive16generate_handler0EEE9from_iterB3J_, symObjAddr: 0x1444, symBinAddr: 0xC580, symSize: 0x2C }
  - { offset: 0x27429, size: 0x8, addend: 0x0, symName: __RNvXNtNtCsiTraAjBDcu4_5alloc3vec21spec_from_iter_nestedINtB4_3VecNtNtCsc29TF2YcYso_3syn4attr9AttributeEINtB2_18SpecFromIterNestedB11_INtNtNtNtCsaNl6UpbT7bw_4core4iter8adapters6cloned6ClonedINtNtB2c_6filter6FilterINtNtNtB2g_5slice4iter4IterB11_ENCNvCs5R1CLfetgKi_11poem_derive16generate_handler0EEE9from_iterB3Y_, symObjAddr: 0x1470, symBinAddr: 0xC5AC, symSize: 0x22C }
  - { offset: 0x2764E, size: 0x8, addend: 0x0, symName: __RNvXs_NtNtCsiTraAjBDcu4_5alloc3vec21spec_from_iter_nestedINtB6_3VecNtCshnvkK9b4wzu_11proc_macro25IdentEINtB4_18SpecFromIterNestedB13_INtNtNtNtCsaNl6UpbT7bw_4core4iter8adapters3map3MapINtNtNtB2g_3ops5range5RangejENCNvCs5R1CLfetgKi_11poem_derive30generate_implement_middlewares0EE9from_iterB3s_, symObjAddr: 0x21EC, symBinAddr: 0xD328, symSize: 0x164 }
  - { offset: 0x2772B, size: 0x8, addend: 0x0, symName: __RNvXs6_NtCsiTraAjBDcu4_5alloc3vecINtB5_3VecNtCshnvkK9b4wzu_11proc_macro211TokenStreamENtNtNtCsaNl6UpbT7bw_4core3ops5deref5Deref5derefCs5R1CLfetgKi_11poem_derive, symObjAddr: 0x1BAC, symBinAddr: 0xCCE8, symSize: 0x24 }
  - { offset: 0x2776B, size: 0x8, addend: 0x0, symName: __RNvXs6_NtCsiTraAjBDcu4_5alloc3vecINtB5_3VecNtCshnvkK9b4wzu_11proc_macro25IdentENtNtNtCsaNl6UpbT7bw_4core3ops5deref5Deref5derefCs5R1CLfetgKi_11poem_derive, symObjAddr: 0x1BD0, symBinAddr: 0xCD0C, symSize: 0x24 }
  - { offset: 0x277E1, size: 0x8, addend: 0x0, symName: __RNvXsb_NtCsiTraAjBDcu4_5alloc3vecINtB5_3VecNtCshnvkK9b4wzu_11proc_macro25IdentEINtNtNtCsaNl6UpbT7bw_4core3ops5index5IndexjE5indexCs5R1CLfetgKi_11poem_derive, symObjAddr: 0x2350, symBinAddr: 0xD48C, symSize: 0x8C }
  - { offset: 0x27969, size: 0x8, addend: 0x0, symName: __RNvXse_NtCsiTraAjBDcu4_5alloc3vecINtB5_3VecNtNtCsc29TF2YcYso_3syn4item5FnArgENtNtNtNtCsaNl6UpbT7bw_4core4iter6traits7collect12IntoIterator9into_iterCs5R1CLfetgKi_11poem_derive, symObjAddr: 0x250C, symBinAddr: 0xD648, symSize: 0xE4 }
  - { offset: 0x27BFB, size: 0x8, addend: 0x0, symName: __RNvXse_NtCsiTraAjBDcu4_5alloc3vecINtB5_3VecTNtNtCsc29TF2YcYso_3syn4item5FnArgNtNtBK_5token5CommaEENtNtNtNtCsaNl6UpbT7bw_4core4iter6traits7collect12IntoIterator9into_iterCs5R1CLfetgKi_11poem_derive, symObjAddr: 0x25F0, symBinAddr: 0xD72C, symSize: 0xE4 }
  - { offset: 0x27E93, size: 0x8, addend: 0x0, symName: __RNvXsn_NtCsiTraAjBDcu4_5alloc3vecINtB5_3VecNtCshnvkK9b4wzu_11proc_macro211TokenStreamENtNtNtCsaNl6UpbT7bw_4core3ops4drop4Drop4dropCs5R1CLfetgKi_11poem_derive, symObjAddr: 0x26D4, symBinAddr: 0xD810, symSize: 0x38 }
  - { offset: 0x27F43, size: 0x8, addend: 0x0, symName: __RNvXsn_NtCsiTraAjBDcu4_5alloc3vecINtB5_3VecNtCshnvkK9b4wzu_11proc_macro25IdentENtNtNtCsaNl6UpbT7bw_4core3ops4drop4Drop4dropCs5R1CLfetgKi_11poem_derive, symObjAddr: 0x270C, symBinAddr: 0xD848, symSize: 0x38 }
  - { offset: 0x27FF3, size: 0x8, addend: 0x0, symName: __RNvXsn_NtCsiTraAjBDcu4_5alloc3vecINtB5_3VecNtNtCsc29TF2YcYso_3syn4item5FnArgENtNtNtCsaNl6UpbT7bw_4core3ops4drop4Drop4dropCs5R1CLfetgKi_11poem_derive, symObjAddr: 0x2744, symBinAddr: 0xD880, symSize: 0x38 }
  - { offset: 0x2816A, size: 0x8, addend: 0x0, symName: __RNvXs_NtCsiTraAjBDcu4_5alloc5allocNtB4_6GlobalNtNtCsaNl6UpbT7bw_4core5alloc9Allocator10deallocateCs5R1CLfetgKi_11poem_derive, symObjAddr: 0x20F8, symBinAddr: 0xD234, symSize: 0x80 }
  - { offset: 0x28232, size: 0x8, addend: 0x0, symName: __RNvNtCsiTraAjBDcu4_5alloc5alloc15exchange_mallocCs5R1CLfetgKi_11poem_derive, symObjAddr: 0x1280, symBinAddr: 0xC3BC, symSize: 0xAC }
  - { offset: 0x29065, size: 0x8, addend: 0x0, symName: __RINvMNtCsiTraAjBDcu4_5alloc5sliceSNtCshnvkK9b4wzu_11proc_macro211TokenStream8into_vecNtNtB5_5alloc6GlobalECs5R1CLfetgKi_11poem_derive, symObjAddr: 0x0, symBinAddr: 0xB13C, symSize: 0x9C }
  - { offset: 0x29739, size: 0x8, addend: 0x0, symName: __RINvMsi_NtCsiTraAjBDcu4_5alloc3vecINtB6_3VecNtCshnvkK9b4wzu_11proc_macro25IdentE14extend_trustedINtNtNtNtCsaNl6UpbT7bw_4core4iter8adapters3map3MapINtNtNtB1F_3ops5range5RangejENCNvCs5R1CLfetgKi_11poem_derive30generate_implement_middlewares0EEB2R_, symObjAddr: 0x9C, symBinAddr: 0xB1D8, symSize: 0x16C }
  - { offset: 0x2E584, size: 0x8, addend: 0x0, symName: __RNvXs_NtCsc29TF2YcYso_3syn5dropsINtB4_6NoDropDINtNtB6_10punctuated9IterTraitNtNtB6_8generics12GenericParamEp4ItemRB1c_EL_ENtNtNtCsaNl6UpbT7bw_4core3ops5deref5Deref5derefCs5R1CLfetgKi_11poem_derive, symObjAddr: 0x20BC, symBinAddr: 0xD1F8, symSize: 0x3C }
  - { offset: 0x2ECB3, size: 0x8, addend: 0x0, symName: __RINvMsi_NtCsiTraAjBDcu4_5alloc3vecINtB6_3VecNtNtCsc29TF2YcYso_3syn4attr9AttributeE16extend_desugaredINtNtNtNtCsaNl6UpbT7bw_4core4iter8adapters6cloned6ClonedINtNtB1F_6filter6FilterINtNtNtB1J_5slice4iter4IterBG_ENCNvCs5R1CLfetgKi_11poem_derive16generate_handler0EEEB3q_, symObjAddr: 0x208, symBinAddr: 0xB344, symSize: 0x1DC }
  - { offset: 0x2EFE6, size: 0x8, addend: 0x0, symName: __RINvMsi_NtCsiTraAjBDcu4_5alloc3vecINtB6_3VecNtNtCsc29TF2YcYso_3syn4item5FnArgE14extend_trustedINtNtCsaNl6UpbT7bw_4core6option8IntoIterBG_EECs5R1CLfetgKi_11poem_derive, symObjAddr: 0x3E4, symBinAddr: 0xB520, symSize: 0x19C }
  - { offset: 0x2F2A9, size: 0x8, addend: 0x0, symName: __RINvMsi_NtCsiTraAjBDcu4_5alloc3vecINtB6_3VecNtNtCsc29TF2YcYso_3syn4item5FnArgE14extend_trustedINtNtNtNtCsaNl6UpbT7bw_4core4iter8adapters3map3MapINtNtB6_9into_iter8IntoIterTBG_NtNtBK_5token5CommaEENCNvXs8_NtBK_10punctuatedINtB3g_10PunctuatedBG_B2N_ENtNtNtB1B_6traits7collect12IntoIterator9into_iter0EECs5R1CLfetgKi_11poem_derive, symObjAddr: 0x580, symBinAddr: 0xB6BC, symSize: 0x184 }
  - { offset: 0x2F575, size: 0x8, addend: 0x0, symName: __RNvMNtCsiTraAjBDcu4_5alloc3vecINtB2_3VecNtCshnvkK9b4wzu_11proc_macro211TokenStreamE3newCs5R1CLfetgKi_11poem_derive, symObjAddr: 0xB68, symBinAddr: 0xBCA4, symSize: 0x14 }
  - { offset: 0x2F592, size: 0x8, addend: 0x0, symName: __RNvMNtCsiTraAjBDcu4_5alloc3vecINtB2_3VecNtCshnvkK9b4wzu_11proc_macro25IdentE3newCs5R1CLfetgKi_11poem_derive, symObjAddr: 0xB7C, symBinAddr: 0xBCB8, symSize: 0x14 }
  - { offset: 0x2F611, size: 0x8, addend: 0x0, symName: __RNvMNtCsiTraAjBDcu4_5alloc3vecINtB2_3VecNtNtCsc29TF2YcYso_3syn4item5FnArgE13with_capacityCs5R1CLfetgKi_11poem_derive, symObjAddr: 0xB90, symBinAddr: 0xBCCC, symSize: 0x48 }
  - { offset: 0x2F809, size: 0x8, addend: 0x0, symName: __RNvMNtCsiTraAjBDcu4_5alloc5allocNtB2_6Global10alloc_implCs5R1CLfetgKi_11poem_derive, symObjAddr: 0xBD8, symBinAddr: 0xBD14, symSize: 0x204 }
  - { offset: 0x2FBE0, size: 0x8, addend: 0x0, symName: __RNvXs4_NtNtCs4EAaWzSXu1l_5quote9___private3extINtNtCsiTraAjBDcu4_5alloc3vec3VecNtCshnvkK9b4wzu_11proc_macro211TokenStreamENtB5_16RepAsIteratorExt15quote_into_iterCs5R1CLfetgKi_11poem_derive, symObjAddr: 0x1A14, symBinAddr: 0xCB50, symSize: 0x38 }
  - { offset: 0x2FC15, size: 0x8, addend: 0x0, symName: __RNvXs4_NtNtCs4EAaWzSXu1l_5quote9___private3extINtNtCsiTraAjBDcu4_5alloc3vec3VecNtCshnvkK9b4wzu_11proc_macro25IdentENtB5_16RepAsIteratorExt15quote_into_iterCs5R1CLfetgKi_11poem_derive, symObjAddr: 0x1A4C, symBinAddr: 0xCB88, symSize: 0x38 }
  - { offset: 0x2FC4A, size: 0x8, addend: 0x0, symName: __RNvXs4_NtNtCs4EAaWzSXu1l_5quote9___private3extINtNtCsiTraAjBDcu4_5alloc3vec3VecNtNtCsc29TF2YcYso_3syn4attr9AttributeENtB5_16RepAsIteratorExt15quote_into_iterCs5R1CLfetgKi_11poem_derive, symObjAddr: 0x1A84, symBinAddr: 0xCBC0, symSize: 0x38 }
  - { offset: 0x2FC86, size: 0x8, addend: 0x0, symName: __RNvXs5_NtCs4EAaWzSXu1l_5quote9___privateINtB5_9RepInterpNtCshnvkK9b4wzu_11proc_macro211TokenStreamENtNtB7_9to_tokens8ToTokens9to_tokensCs5R1CLfetgKi_11poem_derive, symObjAddr: 0x1ABC, symBinAddr: 0xCBF8, symSize: 0x3C }
  - { offset: 0x2FCC5, size: 0x8, addend: 0x0, symName: __RNvXs5_NtCs4EAaWzSXu1l_5quote9___privateINtB5_9RepInterpRNtCshnvkK9b4wzu_11proc_macro211TokenStreamENtNtB7_9to_tokens8ToTokens9to_tokensCs5R1CLfetgKi_11poem_derive, symObjAddr: 0x1AF8, symBinAddr: 0xCC34, symSize: 0x3C }
  - { offset: 0x2FD04, size: 0x8, addend: 0x0, symName: __RNvXs5_NtCs4EAaWzSXu1l_5quote9___privateINtB5_9RepInterpRNtCshnvkK9b4wzu_11proc_macro25IdentENtNtB7_9to_tokens8ToTokens9to_tokensCs5R1CLfetgKi_11poem_derive, symObjAddr: 0x1B34, symBinAddr: 0xCC70, symSize: 0x3C }
  - { offset: 0x2FD43, size: 0x8, addend: 0x0, symName: __RNvXs5_NtCs4EAaWzSXu1l_5quote9___privateINtB5_9RepInterpRNtNtCsc29TF2YcYso_3syn4attr9AttributeENtNtB7_9to_tokens8ToTokens9to_tokensCs5R1CLfetgKi_11poem_derive, symObjAddr: 0x1B70, symBinAddr: 0xCCAC, symSize: 0x3C }
  - { offset: 0x2FD88, size: 0x8, addend: 0x0, symName: __RNvXs7_NtCs4EAaWzSXu1l_5quote9___privateINtB5_20IdentFragmentAdapterRjENtNtCsaNl6UpbT7bw_4core3fmt7Display3fmtCs5R1CLfetgKi_11poem_derive, symObjAddr: 0x1DCC, symBinAddr: 0xCF08, symSize: 0x3C }
  - { offset: 0x2FDD4, size: 0x8, addend: 0x0, symName: __RNvYINtNtCs4EAaWzSXu1l_5quote9___private11HasIteratorKb1_EINtB5_16CheckHasIteratorKBQ_E5checkCs5R1CLfetgKi_11poem_derive, symObjAddr: 0x2870, symBinAddr: 0xD9AC, symSize: 0x1C }
  - { offset: 0x2FE91, size: 0x8, addend: 0x0, symName: __RNvXNtCs4EAaWzSXu1l_5quote9to_tokensRINtNtCsiTraAjBDcu4_5alloc5boxed3BoxNtNtCsc29TF2YcYso_3syn2ty4TypeENtB2_8ToTokens9to_tokensCs5R1CLfetgKi_11poem_derive, symObjAddr: 0x132C, symBinAddr: 0xC468, symSize: 0x40 }
  - { offset: 0x2FED0, size: 0x8, addend: 0x0, symName: __RNvXNtCs4EAaWzSXu1l_5quote9to_tokensRNtCshnvkK9b4wzu_11proc_macro211TokenStreamNtB2_8ToTokens9to_tokensCs5R1CLfetgKi_11poem_derive, symObjAddr: 0x136C, symBinAddr: 0xC4A8, symSize: 0x40 }
  - { offset: 0x2FF0F, size: 0x8, addend: 0x0, symName: __RNvXNtCs4EAaWzSXu1l_5quote9to_tokensRNtCshnvkK9b4wzu_11proc_macro25IdentNtB2_8ToTokens9to_tokensCs5R1CLfetgKi_11poem_derive, symObjAddr: 0x13AC, symBinAddr: 0xC4E8, symSize: 0x40 }
  - { offset: 0x2FF6B, size: 0x8, addend: 0x0, symName: __RNvMs6_NtCs4EAaWzSXu1l_5quote9___privateINtB5_20IdentFragmentAdapterRjE4spanCs5R1CLfetgKi_11poem_derive, symObjAddr: 0xDDC, symBinAddr: 0xBF18, symSize: 0x34 }
  - { offset: 0x3009D, size: 0x8, addend: 0x0, symName: __RNvMs_NtCsiTraAjBDcu4_5alloc3vecINtB4_3VecNtCshnvkK9b4wzu_11proc_macro211TokenStreamE4pushCs5R1CLfetgKi_11poem_derive, symObjAddr: 0xE10, symBinAddr: 0xBF4C, symSize: 0x100 }
  - { offset: 0x302EC, size: 0x8, addend: 0x0, symName: __RNvMs_NtCsiTraAjBDcu4_5alloc3vecINtB4_3VecNtCshnvkK9b4wzu_11proc_macro211TokenStreamE8as_sliceCs5R1CLfetgKi_11poem_derive, symObjAddr: 0xF10, symBinAddr: 0xC04C, symSize: 0x6C }
  - { offset: 0x30485, size: 0x8, addend: 0x0, symName: __RNvMs_NtCsiTraAjBDcu4_5alloc3vecINtB4_3VecNtCshnvkK9b4wzu_11proc_macro25IdentE4pushCs5R1CLfetgKi_11poem_derive, symObjAddr: 0xF7C, symBinAddr: 0xC0B8, symSize: 0x108 }
  - { offset: 0x3075C, size: 0x8, addend: 0x0, symName: __RNvMs_NtCsiTraAjBDcu4_5alloc3vecINtB4_3VecNtCshnvkK9b4wzu_11proc_macro25IdentE7reserveCs5R1CLfetgKi_11poem_derive, symObjAddr: 0x1084, symBinAddr: 0xC1C0, symSize: 0xC8 }
  - { offset: 0x30967, size: 0x8, addend: 0x0, symName: __RNvMs_NtCsiTraAjBDcu4_5alloc3vecINtB4_3VecNtCshnvkK9b4wzu_11proc_macro25IdentE8as_sliceCs5R1CLfetgKi_11poem_derive, symObjAddr: 0x114C, symBinAddr: 0xC288, symSize: 0x6C }
  - { offset: 0x30B37, size: 0x8, addend: 0x0, symName: __RNvMs_NtCsiTraAjBDcu4_5alloc3vecINtB4_3VecNtNtCsc29TF2YcYso_3syn4item5FnArgE7reserveCs5R1CLfetgKi_11poem_derive, symObjAddr: 0x11B8, symBinAddr: 0xC2F4, symSize: 0xC8 }
  - { offset: 0x31A2F, size: 0x8, addend: 0x0, symName: __RINvXNvMNtCsiTraAjBDcu4_5alloc5sliceSp9to_vec_inNtNtCsc29TF2YcYso_3syn4item11ForeignItemNtB3_10ConvertVec6to_vecNtNtB8_5alloc6GlobalEBO_, symObjAddr: 0x0, symBinAddr: 0xDB68, symSize: 0x374 }
  - { offset: 0x32FA6, size: 0x8, addend: 0x0, symName: __RNvXNtNtCsc29TF2YcYso_3syn4item7parsingNtB4_4ItemNtNtB6_5parse5Parse5parse, symObjAddr: 0x35A4, symBinAddr: 0xF5A0, symSize: 0x1B4 }
  - { offset: 0x3304C, size: 0x8, addend: 0x0, symName: __RNvXs0_NtNtCsc29TF2YcYso_3syn4item7parsingNtB7_9ItemMacroNtNtB9_5parse5Parse5parse, symObjAddr: 0x3758, symBinAddr: 0xF754, symSize: 0x628 }
  - { offset: 0x3321A, size: 0x8, addend: 0x0, symName: __RNvXs1_NtNtCsc29TF2YcYso_3syn4item7parsingNtB7_15ItemExternCrateNtNtB9_5parse5Parse5parse, symObjAddr: 0x3D80, symBinAddr: 0xFD7C, symSize: 0x93C }
  - { offset: 0x33424, size: 0x8, addend: 0x0, symName: __RNvXs3_NtNtCsc29TF2YcYso_3syn4item7parsingNtB7_7UseTreeNtNtB9_5parse5Parse5parse, symObjAddr: 0x4714, symBinAddr: 0x106B8, symSize: 0x58 }
  - { offset: 0x33476, size: 0x8, addend: 0x0, symName: __RNvXs6_NtNtCsc29TF2YcYso_3syn4item7parsingNtB7_9SignatureNtNtB9_5parse5Parse5parse, symObjAddr: 0x5C94, symBinAddr: 0x10710, symSize: 0x60 }
  - { offset: 0x334C8, size: 0x8, addend: 0x0, symName: __RNvXs7_NtNtCsc29TF2YcYso_3syn4item7parsingNtB7_6ItemFnNtNtB9_5parse5Parse5parse, symObjAddr: 0x5CF4, symBinAddr: 0x10770, symSize: 0x364 }
  - { offset: 0x335FB, size: 0x8, addend: 0x0, symName: __RNvXs9_NtNtCsc29TF2YcYso_3syn4item7parsingNtB7_8ReceiverNtNtB9_5parse5Parse5parse, symObjAddr: 0x6324, symBinAddr: 0x10AD4, symSize: 0x94C }
  - { offset: 0x3385C, size: 0x8, addend: 0x0, symName: __RNvXsa_NtNtCsc29TF2YcYso_3syn4item7parsingNtB7_7ItemModNtNtB9_5parse5Parse5parse, symObjAddr: 0x6C70, symBinAddr: 0x11420, symSize: 0xC34 }
  - { offset: 0x33ABF, size: 0x8, addend: 0x0, symName: __RNvXsb_NtNtCsc29TF2YcYso_3syn4item7parsingNtB7_14ItemForeignModNtNtB9_5parse5Parse5parse, symObjAddr: 0x78A4, symBinAddr: 0x12054, symSize: 0x610 }
  - { offset: 0x33C70, size: 0x8, addend: 0x0, symName: __RNvXsc_NtNtCsc29TF2YcYso_3syn4item7parsingNtB7_11ForeignItemNtNtB9_5parse5Parse5parse, symObjAddr: 0x7EB4, symBinAddr: 0x12664, symSize: 0x1D8C }
  - { offset: 0x342E0, size: 0x8, addend: 0x0, symName: __RNvXsg_NtNtCsc29TF2YcYso_3syn4item7parsingNtB7_16ForeignItemMacroNtNtB9_5parse5Parse5parse, symObjAddr: 0xAF68, symBinAddr: 0x143F0, symSize: 0x32C }
  - { offset: 0x343F4, size: 0x8, addend: 0x0, symName: __RNvXsi_NtNtCsc29TF2YcYso_3syn4item7parsingNtB7_10ItemStructNtNtB9_5parse5Parse5parse, symObjAddr: 0xBC6C, symBinAddr: 0x1471C, symSize: 0x638 }
  - { offset: 0x345F1, size: 0x8, addend: 0x0, symName: __RNvXsj_NtNtCsc29TF2YcYso_3syn4item7parsingNtB7_8ItemEnumNtNtB9_5parse5Parse5parse, symObjAddr: 0xC2A4, symBinAddr: 0x14D54, symSize: 0x63C }
  - { offset: 0x347EE, size: 0x8, addend: 0x0, symName: __RNvXsk_NtNtCsc29TF2YcYso_3syn4item7parsingNtB7_9ItemUnionNtNtB9_5parse5Parse5parse, symObjAddr: 0xC8E0, symBinAddr: 0x15390, symSize: 0x62C }
  - { offset: 0x349DA, size: 0x8, addend: 0x0, symName: __RNvXsl_NtNtCsc29TF2YcYso_3syn4item7parsingNtB7_9ItemTraitNtNtB9_5parse5Parse5parse, symObjAddr: 0xCF0C, symBinAddr: 0x159BC, symSize: 0x634 }
  - { offset: 0x34BE1, size: 0x8, addend: 0x0, symName: __RNvXsn_NtNtCsc29TF2YcYso_3syn4item7parsingNtB7_9TraitItemNtNtB9_5parse5Parse5parse, symObjAddr: 0xD7B0, symBinAddr: 0x15FF0, symSize: 0x1648 }
  - { offset: 0x35055, size: 0x8, addend: 0x0, symName: __RNvXsp_NtNtCsc29TF2YcYso_3syn4item7parsingNtB7_11TraitItemFnNtNtB9_5parse5Parse5parse, symObjAddr: 0xF66C, symBinAddr: 0x17638, symSize: 0x7DC }
  - { offset: 0x35261, size: 0x8, addend: 0x0, symName: __RNvXsr_NtNtCsc29TF2YcYso_3syn4item7parsingNtB7_14TraitItemMacroNtNtB9_5parse5Parse5parse, symObjAddr: 0x1056C, symBinAddr: 0x17E14, symSize: 0x32C }
  - { offset: 0x35375, size: 0x8, addend: 0x0, symName: __RNvXst_NtNtCsc29TF2YcYso_3syn4item7parsingNtB7_8ImplItemNtNtB9_5parse5Parse5parse, symObjAddr: 0x108F8, symBinAddr: 0x18140, symSize: 0x1A6C }
  - { offset: 0x3589F, size: 0x8, addend: 0x0, symName: __RNvXsx_NtNtCsc29TF2YcYso_3syn4item7parsingNtB7_13ImplItemMacroNtNtB9_5parse5Parse5parse, symObjAddr: 0x135D4, symBinAddr: 0x19BAC, symSize: 0x32C }
  - { offset: 0x359B3, size: 0x8, addend: 0x0, symName: __RNvXsz_NtNtCsc29TF2YcYso_3syn4item7parsingNtB7_16StaticMutabilityNtNtB9_5parse5Parse5parse, symObjAddr: 0x13900, symBinAddr: 0x19ED8, symSize: 0xDC }
  - { offset: 0x35A29, size: 0x8, addend: 0x0, symName: __RNvXNtNtCsc29TF2YcYso_3syn4item8printingNtB4_15ItemExternCrateNtNtCs4EAaWzSXu1l_5quote9to_tokens8ToTokens9to_tokens, symObjAddr: 0x139DC, symBinAddr: 0x19FB4, symSize: 0x10C }
  - { offset: 0x35A96, size: 0x8, addend: 0x0, symName: __RNvXs_NtNtCsc29TF2YcYso_3syn4item8printingNtB6_7ItemUseNtNtCs4EAaWzSXu1l_5quote9to_tokens8ToTokens9to_tokens, symObjAddr: 0x13AE8, symBinAddr: 0x1A0C0, symSize: 0xA4 }
  - { offset: 0x35AD5, size: 0x8, addend: 0x0, symName: __RNvXs0_NtNtCsc29TF2YcYso_3syn4item8printingNtB7_10ItemStaticNtNtCs4EAaWzSXu1l_5quote9to_tokens8ToTokens9to_tokens, symObjAddr: 0x13B8C, symBinAddr: 0x1A164, symSize: 0xE4 }
  - { offset: 0x35B14, size: 0x8, addend: 0x0, symName: __RNvXs1_NtNtCsc29TF2YcYso_3syn4item8printingNtB7_9ItemConstNtNtCs4EAaWzSXu1l_5quote9to_tokens8ToTokens9to_tokens, symObjAddr: 0x13C70, symBinAddr: 0x1A248, symSize: 0xD4 }
  - { offset: 0x35B53, size: 0x8, addend: 0x0, symName: __RNvXs2_NtNtCsc29TF2YcYso_3syn4item8printingNtB7_6ItemFnNtNtCs4EAaWzSXu1l_5quote9to_tokens8ToTokens9to_tokens, symObjAddr: 0x13D44, symBinAddr: 0x1A31C, symSize: 0xDC }
  - { offset: 0x35B92, size: 0x8, addend: 0x0, symName: __RNvXs3_NtNtCsc29TF2YcYso_3syn4item8printingNtB7_7ItemModNtNtCs4EAaWzSXu1l_5quote9to_tokens8ToTokens9to_tokens, symObjAddr: 0x13E20, symBinAddr: 0x1A3F8, symSize: 0x10C }
  - { offset: 0x35BFF, size: 0x8, addend: 0x0, symName: __RNvXs4_NtNtCsc29TF2YcYso_3syn4item8printingNtB7_14ItemForeignModNtNtCs4EAaWzSXu1l_5quote9to_tokens8ToTokens9to_tokens, symObjAddr: 0x13F2C, symBinAddr: 0x1A504, symSize: 0x88 }
  - { offset: 0x35C3E, size: 0x8, addend: 0x0, symName: __RNvXs5_NtNtCsc29TF2YcYso_3syn4item8printingNtB7_8ItemTypeNtNtCs4EAaWzSXu1l_5quote9to_tokens8ToTokens9to_tokens, symObjAddr: 0x13FB4, symBinAddr: 0x1A58C, symSize: 0xD4 }
  - { offset: 0x35C7D, size: 0x8, addend: 0x0, symName: __RNvXs6_NtNtCsc29TF2YcYso_3syn4item8printingNtB7_8ItemEnumNtNtCs4EAaWzSXu1l_5quote9to_tokens8ToTokens9to_tokens, symObjAddr: 0x14088, symBinAddr: 0x1A660, symSize: 0xB8 }
  - { offset: 0x35CBC, size: 0x8, addend: 0x0, symName: __RNvXs7_NtNtCsc29TF2YcYso_3syn4item8printingNtB7_10ItemStructNtNtCs4EAaWzSXu1l_5quote9to_tokens8ToTokens9to_tokens, symObjAddr: 0x14140, symBinAddr: 0x1A718, symSize: 0x188 }
  - { offset: 0x35D37, size: 0x8, addend: 0x0, symName: __RNvXs8_NtNtCsc29TF2YcYso_3syn4item8printingNtB7_9ItemUnionNtNtCs4EAaWzSXu1l_5quote9to_tokens8ToTokens9to_tokens, symObjAddr: 0x142C8, symBinAddr: 0x1A8A0, symSize: 0xB4 }
  - { offset: 0x35D76, size: 0x8, addend: 0x0, symName: __RNvXs9_NtNtCsc29TF2YcYso_3syn4item8printingNtB7_9ItemTraitNtNtCs4EAaWzSXu1l_5quote9to_tokens8ToTokens9to_tokens, symObjAddr: 0x1437C, symBinAddr: 0x1A954, symSize: 0x130 }
  - { offset: 0x35DB5, size: 0x8, addend: 0x0, symName: __RNvXsa_NtNtCsc29TF2YcYso_3syn4item8printingNtB7_14ItemTraitAliasNtNtCs4EAaWzSXu1l_5quote9to_tokens8ToTokens9to_tokens, symObjAddr: 0x144AC, symBinAddr: 0x1AA84, symSize: 0xD4 }
  - { offset: 0x35DF4, size: 0x8, addend: 0x0, symName: __RNvXsb_NtNtCsc29TF2YcYso_3syn4item8printingNtB7_8ItemImplNtNtCs4EAaWzSXu1l_5quote9to_tokens8ToTokens9to_tokens, symObjAddr: 0x14580, symBinAddr: 0x1AB58, symSize: 0x148 }
  - { offset: 0x35E71, size: 0x8, addend: 0x0, symName: __RNvXsc_NtNtCsc29TF2YcYso_3syn4item8printingNtB7_9ItemMacroNtNtCs4EAaWzSXu1l_5quote9to_tokens8ToTokens9to_tokens, symObjAddr: 0x146C8, symBinAddr: 0x1ACA0, symSize: 0x148 }
  - { offset: 0x35F02, size: 0x8, addend: 0x0, symName: __RNvXsd_NtNtCsc29TF2YcYso_3syn4item8printingNtB7_7UsePathNtNtCs4EAaWzSXu1l_5quote9to_tokens8ToTokens9to_tokens, symObjAddr: 0x14810, symBinAddr: 0x1ADE8, symSize: 0x60 }
  - { offset: 0x35F41, size: 0x8, addend: 0x0, symName: __RNvXse_NtNtCsc29TF2YcYso_3syn4item8printingNtB7_7UseNameNtNtCs4EAaWzSXu1l_5quote9to_tokens8ToTokens9to_tokens, symObjAddr: 0x14870, symBinAddr: 0x1AE48, symSize: 0x3C }
  - { offset: 0x35F80, size: 0x8, addend: 0x0, symName: __RNvXsf_NtNtCsc29TF2YcYso_3syn4item8printingNtB7_9UseRenameNtNtCs4EAaWzSXu1l_5quote9to_tokens8ToTokens9to_tokens, symObjAddr: 0x148AC, symBinAddr: 0x1AE84, symSize: 0x60 }
  - { offset: 0x35FBF, size: 0x8, addend: 0x0, symName: __RNvXsg_NtNtCsc29TF2YcYso_3syn4item8printingNtB7_7UseGlobNtNtCs4EAaWzSXu1l_5quote9to_tokens8ToTokens9to_tokens, symObjAddr: 0x1490C, symBinAddr: 0x1AEE4, symSize: 0x3C }
  - { offset: 0x35FFE, size: 0x8, addend: 0x0, symName: __RNvXsh_NtNtCsc29TF2YcYso_3syn4item8printingNtB7_8UseGroupNtNtCs4EAaWzSXu1l_5quote9to_tokens8ToTokens9to_tokens, symObjAddr: 0x14948, symBinAddr: 0x1AF20, symSize: 0x44 }
  - { offset: 0x3603D, size: 0x8, addend: 0x0, symName: __RNvXsi_NtNtCsc29TF2YcYso_3syn4item8printingNtB7_14TraitItemConstNtNtCs4EAaWzSXu1l_5quote9to_tokens8ToTokens9to_tokens, symObjAddr: 0x1498C, symBinAddr: 0x1AF64, symSize: 0x10C }
  - { offset: 0x360AA, size: 0x8, addend: 0x0, symName: __RNvXsj_NtNtCsc29TF2YcYso_3syn4item8printingNtB7_11TraitItemFnNtNtCs4EAaWzSXu1l_5quote9to_tokens8ToTokens9to_tokens, symObjAddr: 0x14A98, symBinAddr: 0x1B070, symSize: 0xD4 }
  - { offset: 0x36107, size: 0x8, addend: 0x0, symName: __RNvXsk_NtNtCsc29TF2YcYso_3syn4item8printingNtB7_13TraitItemTypeNtNtCs4EAaWzSXu1l_5quote9to_tokens8ToTokens9to_tokens, symObjAddr: 0x14B6C, symBinAddr: 0x1B144, symSize: 0x164 }
  - { offset: 0x36174, size: 0x8, addend: 0x0, symName: __RNvXsl_NtNtCsc29TF2YcYso_3syn4item8printingNtB7_14TraitItemMacroNtNtCs4EAaWzSXu1l_5quote9to_tokens8ToTokens9to_tokens, symObjAddr: 0x14CD0, symBinAddr: 0x1B2A8, symSize: 0x74 }
  - { offset: 0x361B3, size: 0x8, addend: 0x0, symName: __RNvXsm_NtNtCsc29TF2YcYso_3syn4item8printingNtB7_13ImplItemConstNtNtCs4EAaWzSXu1l_5quote9to_tokens8ToTokens9to_tokens, symObjAddr: 0x14D44, symBinAddr: 0x1B31C, symSize: 0xE4 }
  - { offset: 0x361F2, size: 0x8, addend: 0x0, symName: __RNvXsn_NtNtCsc29TF2YcYso_3syn4item8printingNtB7_10ImplItemFnNtNtCs4EAaWzSXu1l_5quote9to_tokens8ToTokens9to_tokens, symObjAddr: 0x14E28, symBinAddr: 0x1B400, symSize: 0x98 }
  - { offset: 0x36231, size: 0x8, addend: 0x0, symName: __RNvXso_NtNtCsc29TF2YcYso_3syn4item8printingNtB7_12ImplItemTypeNtNtCs4EAaWzSXu1l_5quote9to_tokens8ToTokens9to_tokens, symObjAddr: 0x14EC0, symBinAddr: 0x1B498, symSize: 0xE4 }
  - { offset: 0x36270, size: 0x8, addend: 0x0, symName: __RNvXsp_NtNtCsc29TF2YcYso_3syn4item8printingNtB7_13ImplItemMacroNtNtCs4EAaWzSXu1l_5quote9to_tokens8ToTokens9to_tokens, symObjAddr: 0x14FA4, symBinAddr: 0x1B57C, symSize: 0x74 }
  - { offset: 0x362AF, size: 0x8, addend: 0x0, symName: __RNvXsq_NtNtCsc29TF2YcYso_3syn4item8printingNtB7_13ForeignItemFnNtNtCs4EAaWzSXu1l_5quote9to_tokens8ToTokens9to_tokens, symObjAddr: 0x15018, symBinAddr: 0x1B5F0, symSize: 0x84 }
  - { offset: 0x362EE, size: 0x8, addend: 0x0, symName: __RNvXsr_NtNtCsc29TF2YcYso_3syn4item8printingNtB7_17ForeignItemStaticNtNtCs4EAaWzSXu1l_5quote9to_tokens8ToTokens9to_tokens, symObjAddr: 0x1509C, symBinAddr: 0x1B674, symSize: 0xC4 }
  - { offset: 0x3632D, size: 0x8, addend: 0x0, symName: __RNvXss_NtNtCsc29TF2YcYso_3syn4item8printingNtB7_15ForeignItemTypeNtNtCs4EAaWzSXu1l_5quote9to_tokens8ToTokens9to_tokens, symObjAddr: 0x15160, symBinAddr: 0x1B738, symSize: 0xB4 }
  - { offset: 0x3636C, size: 0x8, addend: 0x0, symName: __RNvXst_NtNtCsc29TF2YcYso_3syn4item8printingNtB7_16ForeignItemMacroNtNtCs4EAaWzSXu1l_5quote9to_tokens8ToTokens9to_tokens, symObjAddr: 0x15214, symBinAddr: 0x1B7EC, symSize: 0x74 }
  - { offset: 0x363AB, size: 0x8, addend: 0x0, symName: __RNvXsu_NtNtCsc29TF2YcYso_3syn4item8printingNtB7_9SignatureNtNtCs4EAaWzSXu1l_5quote9to_tokens8ToTokens9to_tokens, symObjAddr: 0x15288, symBinAddr: 0x1B860, symSize: 0xD4 }
  - { offset: 0x363EA, size: 0x8, addend: 0x0, symName: __RNvXsv_NtNtCsc29TF2YcYso_3syn4item8printingNtB7_8ReceiverNtNtCs4EAaWzSXu1l_5quote9to_tokens8ToTokens9to_tokens, symObjAddr: 0x1535C, symBinAddr: 0x1B934, symSize: 0x450 }
  - { offset: 0x364E2, size: 0x8, addend: 0x0, symName: __RNvXsw_NtNtCsc29TF2YcYso_3syn4item8printingNtB7_8VariadicNtNtCs4EAaWzSXu1l_5quote9to_tokens8ToTokens9to_tokens, symObjAddr: 0x157AC, symBinAddr: 0x1BD84, symSize: 0xDC }
  - { offset: 0x3654F, size: 0x8, addend: 0x0, symName: __RNvXsx_NtNtCsc29TF2YcYso_3syn4item8printingNtB7_16StaticMutabilityNtNtCs4EAaWzSXu1l_5quote9to_tokens8ToTokens9to_tokens, symObjAddr: 0x15888, symBinAddr: 0x1BE60, symSize: 0x84 }
  - { offset: 0x365B2, size: 0x8, addend: 0x0, symName: __RNcNtNtNtCsc29TF2YcYso_3syn4item4Item4Enum0B7_, symObjAddr: 0x1590C, symBinAddr: 0x1BEE4, symSize: 0x3C }
  - { offset: 0x365E1, size: 0x8, addend: 0x0, symName: __RNcNtNtNtCsc29TF2YcYso_3syn4item4Item11ExternCrate0B7_, symObjAddr: 0x15948, symBinAddr: 0x1BF20, symSize: 0x3C }
  - { offset: 0x36610, size: 0x8, addend: 0x0, symName: __RNcNtNtNtCsc29TF2YcYso_3syn4item4Item2Fn0B7_, symObjAddr: 0x15984, symBinAddr: 0x1BF5C, symSize: 0x30 }
  - { offset: 0x3663F, size: 0x8, addend: 0x0, symName: __RNcNtNtNtCsc29TF2YcYso_3syn4item4Item10ForeignMod0B7_, symObjAddr: 0x159B4, symBinAddr: 0x1BF8C, symSize: 0x3C }
  - { offset: 0x3666E, size: 0x8, addend: 0x0, symName: __RNcNtNtNtCsc29TF2YcYso_3syn4item4Item5Macro0B7_, symObjAddr: 0x159F0, symBinAddr: 0x1BFC8, symSize: 0x3C }
  - { offset: 0x3669D, size: 0x8, addend: 0x0, symName: __RNcNtNtNtCsc29TF2YcYso_3syn4item4Item3Mod0B7_, symObjAddr: 0x15A2C, symBinAddr: 0x1C004, symSize: 0x3C }
  - { offset: 0x366CC, size: 0x8, addend: 0x0, symName: __RNcNtNtNtCsc29TF2YcYso_3syn4item4Item6Struct0B7_, symObjAddr: 0x15A68, symBinAddr: 0x1C040, symSize: 0x3C }
  - { offset: 0x366FB, size: 0x8, addend: 0x0, symName: __RNcNtNtNtCsc29TF2YcYso_3syn4item4Item5Trait0B7_, symObjAddr: 0x15AA4, symBinAddr: 0x1C07C, symSize: 0x3C }
  - { offset: 0x3672A, size: 0x8, addend: 0x0, symName: __RNcNtNtNtCsc29TF2YcYso_3syn4item4Item10TraitAlias0B7_, symObjAddr: 0x15AE0, symBinAddr: 0x1C0B8, symSize: 0x3C }
  - { offset: 0x36759, size: 0x8, addend: 0x0, symName: __RNcNtNtNtCsc29TF2YcYso_3syn4item4Item5Union0B7_, symObjAddr: 0x15B1C, symBinAddr: 0x1C0F4, symSize: 0x3C }
  - { offset: 0x36789, size: 0x8, addend: 0x0, symName: __RNvXsk_NtCsc29TF2YcYso_3syn4itemNtB5_4ItemNtNtCs4EAaWzSXu1l_5quote9to_tokens8ToTokens9to_tokens, symObjAddr: 0x15FC0, symBinAddr: 0x1C130, symSize: 0x230 }
  - { offset: 0x3699B, size: 0x8, addend: 0x0, symName: __RNvXsq_NtCsc29TF2YcYso_3syn4itemNtB5_7UseTreeNtNtCs4EAaWzSXu1l_5quote9to_tokens8ToTokens9to_tokens, symObjAddr: 0x1633C, symBinAddr: 0x1C360, symSize: 0x10C }
  - { offset: 0x36A6D, size: 0x8, addend: 0x0, symName: __RNcNtNtNtCsc29TF2YcYso_3syn4item11ForeignItem5Macro0B7_, symObjAddr: 0x16448, symBinAddr: 0x1C46C, symSize: 0x3C }
  - { offset: 0x36A9F, size: 0x8, addend: 0x0, symName: __RNvXsv_NtCsc29TF2YcYso_3syn4itemNtB5_11ForeignItemNtNtCs4EAaWzSXu1l_5quote9to_tokens8ToTokens9to_tokens, symObjAddr: 0x165A8, symBinAddr: 0x1C4A8, symSize: 0x118 }
  - { offset: 0x36B71, size: 0x8, addend: 0x0, symName: __RNcNtNtNtCsc29TF2YcYso_3syn4item9TraitItem2Fn0B7_, symObjAddr: 0x166C0, symBinAddr: 0x1C5C0, symSize: 0x3C }
  - { offset: 0x36BA2, size: 0x8, addend: 0x0, symName: __RNcNtNtNtCsc29TF2YcYso_3syn4item9TraitItem5Macro0B7_, symObjAddr: 0x166FC, symBinAddr: 0x1C5FC, symSize: 0x3C }
  - { offset: 0x36BD4, size: 0x8, addend: 0x0, symName: __RNvXsA_NtCsc29TF2YcYso_3syn4itemNtB5_9TraitItemNtNtCs4EAaWzSXu1l_5quote9to_tokens8ToTokens9to_tokens, symObjAddr: 0x1685C, symBinAddr: 0x1C638, symSize: 0x118 }
  - { offset: 0x36CA6, size: 0x8, addend: 0x0, symName: __RNcNtNtNtCsc29TF2YcYso_3syn4item8ImplItem5Macro0B7_, symObjAddr: 0x16974, symBinAddr: 0x1C750, symSize: 0x3C }
  - { offset: 0x36CD8, size: 0x8, addend: 0x0, symName: __RNvXsF_NtCsc29TF2YcYso_3syn4itemNtB5_8ImplItemNtNtCs4EAaWzSXu1l_5quote9to_tokens8ToTokens9to_tokens, symObjAddr: 0x16AD4, symBinAddr: 0x1C78C, symSize: 0x118 }
  - { offset: 0x36DA5, size: 0x8, addend: 0x0, symName: __RNvXsI_NtCsc29TF2YcYso_3syn4itemNtB5_5FnArgNtNtCs4EAaWzSXu1l_5quote9to_tokens8ToTokens9to_tokens, symObjAddr: 0x16C78, symBinAddr: 0x1C8A4, symSize: 0x8C }
  - { offset: 0x36E20, size: 0x8, addend: 0x0, symName: __RNcNtNtNtCsc29TF2YcYso_3syn4item16StaticMutability3Mut0B7_, symObjAddr: 0x16D04, symBinAddr: 0x1C930, symSize: 0x20 }
  - { offset: 0x3A8CE, size: 0x8, addend: 0x0, symName: __RNvXs16_NtNtCsc29TF2YcYso_3syn3gen5cloneNtNtBa_4item5FnArgNtNtCsaNl6UpbT7bw_4core5clone5Clone5clone, symObjAddr: 0x16D24, symBinAddr: 0x1C950, symSize: 0xDC }
  - { offset: 0x3A936, size: 0x8, addend: 0x0, symName: __RNvXs17_NtNtCsc29TF2YcYso_3syn3gen5cloneNtNtBa_4item11ForeignItemNtNtCsaNl6UpbT7bw_4core5clone5Clone5clone, symObjAddr: 0x16E00, symBinAddr: 0x1CA2C, symSize: 0x224 }
  - { offset: 0x3A9F8, size: 0x8, addend: 0x0, symName: __RNvXs18_NtNtCsc29TF2YcYso_3syn3gen5cloneNtNtBa_4item13ForeignItemFnNtNtCsaNl6UpbT7bw_4core5clone5Clone5clone, symObjAddr: 0x17024, symBinAddr: 0x1CC50, symSize: 0x13C }
  - { offset: 0x3AA2C, size: 0x8, addend: 0x0, symName: __RNvXs19_NtNtCsc29TF2YcYso_3syn3gen5cloneNtNtBa_4item16ForeignItemMacroNtNtCsaNl6UpbT7bw_4core5clone5Clone5clone, symObjAddr: 0x17160, symBinAddr: 0x1CD8C, symSize: 0xF4 }
  - { offset: 0x3AA60, size: 0x8, addend: 0x0, symName: __RNvXs1a_NtNtCsc29TF2YcYso_3syn3gen5cloneNtNtBa_4item17ForeignItemStaticNtNtCsaNl6UpbT7bw_4core5clone5Clone5clone, symObjAddr: 0x17254, symBinAddr: 0x1CE80, symSize: 0x1DC }
  - { offset: 0x3AA94, size: 0x8, addend: 0x0, symName: __RNvXs1b_NtNtCsc29TF2YcYso_3syn3gen5cloneNtNtBa_4item15ForeignItemTypeNtNtCsaNl6UpbT7bw_4core5clone5Clone5clone, symObjAddr: 0x17430, symBinAddr: 0x1D05C, symSize: 0x198 }
  - { offset: 0x3AAC8, size: 0x8, addend: 0x0, symName: __RNvXs1f_NtNtCsc29TF2YcYso_3syn3gen5cloneNtNtBa_4item8ImplItemNtNtCsaNl6UpbT7bw_4core5clone5Clone5clone, symObjAddr: 0x175C8, symBinAddr: 0x1D1F4, symSize: 0x21C }
  - { offset: 0x3AB8A, size: 0x8, addend: 0x0, symName: __RNvXs1g_NtNtCsc29TF2YcYso_3syn3gen5cloneNtNtBa_4item13ImplItemConstNtNtCsaNl6UpbT7bw_4core5clone5Clone5clone, symObjAddr: 0x177E4, symBinAddr: 0x1D410, symSize: 0x2AC }
  - { offset: 0x3ABBE, size: 0x8, addend: 0x0, symName: __RNvXs1h_NtNtCsc29TF2YcYso_3syn3gen5cloneNtNtBa_4item10ImplItemFnNtNtCsaNl6UpbT7bw_4core5clone5Clone5clone, symObjAddr: 0x17A90, symBinAddr: 0x1D6BC, symSize: 0x160 }
  - { offset: 0x3ABF2, size: 0x8, addend: 0x0, symName: __RNvXs1i_NtNtCsc29TF2YcYso_3syn3gen5cloneNtNtBa_4item13ImplItemMacroNtNtCsaNl6UpbT7bw_4core5clone5Clone5clone, symObjAddr: 0x17BF0, symBinAddr: 0x1D81C, symSize: 0xF4 }
  - { offset: 0x3AC26, size: 0x8, addend: 0x0, symName: __RNvXs1j_NtNtCsc29TF2YcYso_3syn3gen5cloneNtNtBa_4item12ImplItemTypeNtNtCsaNl6UpbT7bw_4core5clone5Clone5clone, symObjAddr: 0x17CE4, symBinAddr: 0x1D910, symSize: 0x238 }
  - { offset: 0x3AC5A, size: 0x8, addend: 0x0, symName: __RNvXs1m_NtNtCsc29TF2YcYso_3syn3gen5cloneNtNtBa_4item4ItemNtNtCsaNl6UpbT7bw_4core5clone5Clone5clone, symObjAddr: 0x17F28, symBinAddr: 0x1DB48, symSize: 0x5D0 }
  - { offset: 0x3AE71, size: 0x8, addend: 0x0, symName: __RNvXs1n_NtNtCsc29TF2YcYso_3syn3gen5cloneNtNtBa_4item9ItemConstNtNtCsaNl6UpbT7bw_4core5clone5Clone5clone, symObjAddr: 0x184F8, symBinAddr: 0x1E118, symSize: 0x270 }
  - { offset: 0x3AEA5, size: 0x8, addend: 0x0, symName: __RNvXs1o_NtNtCsc29TF2YcYso_3syn3gen5cloneNtNtBa_4item8ItemEnumNtNtCsaNl6UpbT7bw_4core5clone5Clone5clone, symObjAddr: 0x18768, symBinAddr: 0x1E388, symSize: 0x1C0 }
  - { offset: 0x3AED9, size: 0x8, addend: 0x0, symName: __RNvXs1p_NtNtCsc29TF2YcYso_3syn3gen5cloneNtNtBa_4item15ItemExternCrateNtNtCsaNl6UpbT7bw_4core5clone5Clone5clone, symObjAddr: 0x18928, symBinAddr: 0x1E548, symSize: 0x1A4 }
  - { offset: 0x3AF0D, size: 0x8, addend: 0x0, symName: __RNvXs1q_NtNtCsc29TF2YcYso_3syn3gen5cloneNtNtBa_4item6ItemFnNtNtCsaNl6UpbT7bw_4core5clone5Clone5clone, symObjAddr: 0x18ACC, symBinAddr: 0x1E6EC, symSize: 0x12C }
  - { offset: 0x3AF41, size: 0x8, addend: 0x0, symName: __RNvXs1r_NtNtCsc29TF2YcYso_3syn3gen5cloneNtNtBa_4item14ItemForeignModNtNtCsaNl6UpbT7bw_4core5clone5Clone5clone, symObjAddr: 0x18BF8, symBinAddr: 0x1E818, symSize: 0x14C }
  - { offset: 0x3AF75, size: 0x8, addend: 0x0, symName: __RNvXs1s_NtNtCsc29TF2YcYso_3syn3gen5cloneNtNtBa_4item8ItemImplNtNtCsaNl6UpbT7bw_4core5clone5Clone5clone, symObjAddr: 0x18D44, symBinAddr: 0x1E964, symSize: 0x220 }
  - { offset: 0x3AFA9, size: 0x8, addend: 0x0, symName: __RNvXs1t_NtNtCsc29TF2YcYso_3syn3gen5cloneNtNtBa_4item9ItemMacroNtNtCsaNl6UpbT7bw_4core5clone5Clone5clone, symObjAddr: 0x18F64, symBinAddr: 0x1EB84, symSize: 0x134 }
  - { offset: 0x3AFDD, size: 0x8, addend: 0x0, symName: __RNvXs1u_NtNtCsc29TF2YcYso_3syn3gen5cloneNtNtBa_4item7ItemModNtNtCsaNl6UpbT7bw_4core5clone5Clone5clone, symObjAddr: 0x19098, symBinAddr: 0x1ECB8, symSize: 0x1B8 }
  - { offset: 0x3B011, size: 0x8, addend: 0x0, symName: __RNvXs1v_NtNtCsc29TF2YcYso_3syn3gen5cloneNtNtBa_4item10ItemStaticNtNtCsaNl6UpbT7bw_4core5clone5Clone5clone, symObjAddr: 0x19250, symBinAddr: 0x1EE70, symSize: 0x248 }
  - { offset: 0x3B045, size: 0x8, addend: 0x0, symName: __RNvXs1w_NtNtCsc29TF2YcYso_3syn3gen5cloneNtNtBa_4item10ItemStructNtNtCsaNl6UpbT7bw_4core5clone5Clone5clone, symObjAddr: 0x19498, symBinAddr: 0x1F0B8, symSize: 0x1DC }
  - { offset: 0x3B079, size: 0x8, addend: 0x0, symName: __RNvXs1x_NtNtCsc29TF2YcYso_3syn3gen5cloneNtNtBa_4item9ItemTraitNtNtCsaNl6UpbT7bw_4core5clone5Clone5clone, symObjAddr: 0x19674, symBinAddr: 0x1F294, symSize: 0x288 }
  - { offset: 0x3B0AD, size: 0x8, addend: 0x0, symName: __RNvXs1y_NtNtCsc29TF2YcYso_3syn3gen5cloneNtNtBa_4item14ItemTraitAliasNtNtCsaNl6UpbT7bw_4core5clone5Clone5clone, symObjAddr: 0x198FC, symBinAddr: 0x1F51C, symSize: 0x204 }
  - { offset: 0x3B0E1, size: 0x8, addend: 0x0, symName: __RNvXs1z_NtNtCsc29TF2YcYso_3syn3gen5cloneNtNtBa_4item8ItemTypeNtNtCsaNl6UpbT7bw_4core5clone5Clone5clone, symObjAddr: 0x19B00, symBinAddr: 0x1F720, symSize: 0x204 }
  - { offset: 0x3B115, size: 0x8, addend: 0x0, symName: __RNvXs1A_NtNtCsc29TF2YcYso_3syn3gen5cloneNtNtBa_4item9ItemUnionNtNtCsaNl6UpbT7bw_4core5clone5Clone5clone, symObjAddr: 0x19D04, symBinAddr: 0x1F924, symSize: 0x194 }
  - { offset: 0x3B149, size: 0x8, addend: 0x0, symName: __RNvXs1B_NtNtCsc29TF2YcYso_3syn3gen5cloneNtNtBa_4item7ItemUseNtNtCsaNl6UpbT7bw_4core5clone5Clone5clone, symObjAddr: 0x19E98, symBinAddr: 0x1FAB8, symSize: 0x174 }
  - { offset: 0x3B17D, size: 0x8, addend: 0x0, symName: __RNvXs2b_NtNtCsc29TF2YcYso_3syn3gen5cloneNtNtBa_4item8ReceiverNtNtCsaNl6UpbT7bw_4core5clone5Clone5clone, symObjAddr: 0x1A00C, symBinAddr: 0x1FC2C, symSize: 0x154 }
  - { offset: 0x3B1B1, size: 0x8, addend: 0x0, symName: __RNvXs2d_NtNtCsc29TF2YcYso_3syn3gen5cloneNtNtBa_4item9SignatureNtNtCsaNl6UpbT7bw_4core5clone5Clone5clone, symObjAddr: 0x1A160, symBinAddr: 0x1FD80, symSize: 0x278 }
  - { offset: 0x3B1E5, size: 0x8, addend: 0x0, symName: __RNvXs2e_NtNtCsc29TF2YcYso_3syn3gen5cloneNtNtBa_4item16StaticMutabilityNtNtCsaNl6UpbT7bw_4core5clone5Clone5clone, symObjAddr: 0x1A3D8, symBinAddr: 0x1FFF8, symSize: 0x90 }
  - { offset: 0x3B237, size: 0x8, addend: 0x0, symName: __RNvXs2k_NtNtCsc29TF2YcYso_3syn3gen5cloneNtNtBa_4item9TraitItemNtNtCsaNl6UpbT7bw_4core5clone5Clone5clone, symObjAddr: 0x1A468, symBinAddr: 0x20088, symSize: 0x21C }
  - { offset: 0x3B2F9, size: 0x8, addend: 0x0, symName: __RNvXs2l_NtNtCsc29TF2YcYso_3syn3gen5cloneNtNtBa_4item14TraitItemConstNtNtCsaNl6UpbT7bw_4core5clone5Clone5clone, symObjAddr: 0x1A684, symBinAddr: 0x202A4, symSize: 0x218 }
  - { offset: 0x3B32D, size: 0x8, addend: 0x0, symName: __RNvXs2m_NtNtCsc29TF2YcYso_3syn3gen5cloneNtNtBa_4item11TraitItemFnNtNtCsaNl6UpbT7bw_4core5clone5Clone5clone, symObjAddr: 0x1A89C, symBinAddr: 0x204BC, symSize: 0x140 }
  - { offset: 0x3B361, size: 0x8, addend: 0x0, symName: __RNvXs2n_NtNtCsc29TF2YcYso_3syn3gen5cloneNtNtBa_4item14TraitItemMacroNtNtCsaNl6UpbT7bw_4core5clone5Clone5clone, symObjAddr: 0x1A9DC, symBinAddr: 0x205FC, symSize: 0xF4 }
  - { offset: 0x3B395, size: 0x8, addend: 0x0, symName: __RNvXs2o_NtNtCsc29TF2YcYso_3syn3gen5cloneNtNtBa_4item13TraitItemTypeNtNtCsaNl6UpbT7bw_4core5clone5Clone5clone, symObjAddr: 0x1AAD0, symBinAddr: 0x206F0, symSize: 0x20C }
  - { offset: 0x3B3C9, size: 0x8, addend: 0x0, symName: __RNvXs2I_NtNtCsc29TF2YcYso_3syn3gen5cloneNtNtBa_4item7UseGlobNtNtCsaNl6UpbT7bw_4core5clone5Clone5clone, symObjAddr: 0x1ACDC, symBinAddr: 0x208FC, symSize: 0x4C }
  - { offset: 0x3B3FD, size: 0x8, addend: 0x0, symName: __RNvXs2J_NtNtCsc29TF2YcYso_3syn3gen5cloneNtNtBa_4item8UseGroupNtNtCsaNl6UpbT7bw_4core5clone5Clone5clone, symObjAddr: 0x1AD28, symBinAddr: 0x20948, symSize: 0x70 }
  - { offset: 0x3B431, size: 0x8, addend: 0x0, symName: __RNvXs2K_NtNtCsc29TF2YcYso_3syn3gen5cloneNtNtBa_4item7UseNameNtNtCsaNl6UpbT7bw_4core5clone5Clone5clone, symObjAddr: 0x1AD98, symBinAddr: 0x209B8, symSize: 0x50 }
  - { offset: 0x3B465, size: 0x8, addend: 0x0, symName: __RNvXs2L_NtNtCsc29TF2YcYso_3syn3gen5cloneNtNtBa_4item7UsePathNtNtCsaNl6UpbT7bw_4core5clone5Clone5clone, symObjAddr: 0x1ADE8, symBinAddr: 0x20A08, symSize: 0xC0 }
  - { offset: 0x3B499, size: 0x8, addend: 0x0, symName: __RNvXs2M_NtNtCsc29TF2YcYso_3syn3gen5cloneNtNtBa_4item9UseRenameNtNtCsaNl6UpbT7bw_4core5clone5Clone5clone, symObjAddr: 0x1AEA8, symBinAddr: 0x20AC8, symSize: 0xB8 }
  - { offset: 0x3B4CD, size: 0x8, addend: 0x0, symName: __RNvXs2N_NtNtCsc29TF2YcYso_3syn3gen5cloneNtNtBa_4item7UseTreeNtNtCsaNl6UpbT7bw_4core5clone5Clone5clone, symObjAddr: 0x1AF60, symBinAddr: 0x20B80, symSize: 0x20C }
  - { offset: 0x3B590, size: 0x8, addend: 0x0, symName: __RNvXs2O_NtNtCsc29TF2YcYso_3syn3gen5cloneNtNtBa_4item8VariadicNtNtCsaNl6UpbT7bw_4core5clone5Clone5clone, symObjAddr: 0x1B16C, symBinAddr: 0x20D8C, symSize: 0x108 }
  - { offset: 0x3CF5E, size: 0x8, addend: 0x0, symName: __RINvXNvMNtCsiTraAjBDcu4_5alloc5sliceSp9to_vec_inNtNtCsc29TF2YcYso_3syn4item11ForeignItemNtB3_10ConvertVec6to_vecNtNtB8_5alloc6GlobalEBO_, symObjAddr: 0x0, symBinAddr: 0xDB68, symSize: 0x374 }
  - { offset: 0x3D413, size: 0x8, addend: 0x0, symName: __RINvXNvMNtCsiTraAjBDcu4_5alloc5sliceSp9to_vec_inNtNtCsc29TF2YcYso_3syn4item4ItemNtB3_10ConvertVec6to_vecNtNtB8_5alloc6GlobalEBO_, symObjAddr: 0x374, symBinAddr: 0xDEDC, symSize: 0x374 }
  - { offset: 0x3D8C8, size: 0x8, addend: 0x0, symName: __RINvXNvMNtCsiTraAjBDcu4_5alloc5sliceSp9to_vec_inNtNtCsc29TF2YcYso_3syn4item8ImplItemNtB3_10ConvertVec6to_vecNtNtB8_5alloc6GlobalEBO_, symObjAddr: 0x6E8, symBinAddr: 0xE250, symSize: 0x374 }
  - { offset: 0x3DD7D, size: 0x8, addend: 0x0, symName: __RINvXNvMNtCsiTraAjBDcu4_5alloc5sliceSp9to_vec_inNtNtCsc29TF2YcYso_3syn4item9TraitItemNtB3_10ConvertVec6to_vecNtNtB8_5alloc6GlobalEBO_, symObjAddr: 0xA5C, symBinAddr: 0xE5C4, symSize: 0x374 }
  - { offset: 0x3E232, size: 0x8, addend: 0x0, symName: __RINvXNvMNtCsiTraAjBDcu4_5alloc5sliceSp9to_vec_inTNtNtCsc29TF2YcYso_3syn4item5FnArgNtNtBP_5token5CommaENtB3_10ConvertVec6to_vecNtNtB8_5alloc6GlobalEBP_, symObjAddr: 0xDD0, symBinAddr: 0xE938, symSize: 0x370 }
  - { offset: 0x3E6E7, size: 0x8, addend: 0x0, symName: __RINvXNvMNtCsiTraAjBDcu4_5alloc5sliceSp9to_vec_inTNtNtCsc29TF2YcYso_3syn4item7UseTreeNtNtBP_5token5CommaENtB3_10ConvertVec6to_vecNtNtB8_5alloc6GlobalEBP_, symObjAddr: 0x1140, symBinAddr: 0xECA8, symSize: 0x370 }
  - { offset: 0x42C4A, size: 0x8, addend: 0x0, symName: __RNvMNtCsaNl6UpbT7bw_4core5sliceSTNtNtCsc29TF2YcYso_3syn4item5FnArgNtNtBz_5token5CommaE4iterBz_, symObjAddr: 0x14B0, symBinAddr: 0xF018, symSize: 0x28 }
  - { offset: 0x42C81, size: 0x8, addend: 0x0, symName: __RNvMNtCsaNl6UpbT7bw_4core5sliceSTNtNtCsc29TF2YcYso_3syn4item7UseTreeNtNtBz_5token5CommaE4iterBz_, symObjAddr: 0x14D8, symBinAddr: 0xF040, symSize: 0x28 }
  - { offset: 0x43371, size: 0x8, addend: 0x0, symName: __RNvXNtNtCsaNl6UpbT7bw_4core5clone6uninitNtNtCsc29TF2YcYso_3syn4item5FnArgNtB2_8CopySpec9clone_oneBG_, symObjAddr: 0x1680, symBinAddr: 0xF1E8, symSize: 0x48 }
  - { offset: 0x433D5, size: 0x8, addend: 0x0, symName: __RNvXNtNtCsaNl6UpbT7bw_4core5clone6uninitNtNtCsc29TF2YcYso_3syn4item7UseTreeNtB2_8CopySpec9clone_oneBG_, symObjAddr: 0x16C8, symBinAddr: 0xF230, symSize: 0x48 }
  - { offset: 0x45C43, size: 0x8, addend: 0x0, symName: __RNvXNtCs4EAaWzSXu1l_5quote9to_tokensRNtNtCsc29TF2YcYso_3syn4item11ForeignItemNtB2_8ToTokens9to_tokensBD_, symObjAddr: 0x1500, symBinAddr: 0xF068, symSize: 0x40 }
  - { offset: 0x45C82, size: 0x8, addend: 0x0, symName: __RNvXNtCs4EAaWzSXu1l_5quote9to_tokensRNtNtCsc29TF2YcYso_3syn4item4ItemNtB2_8ToTokens9to_tokensBD_, symObjAddr: 0x1540, symBinAddr: 0xF0A8, symSize: 0x40 }
  - { offset: 0x45CC1, size: 0x8, addend: 0x0, symName: __RNvXNtCs4EAaWzSXu1l_5quote9to_tokensRNtNtCsc29TF2YcYso_3syn4item5FnArgNtB2_8ToTokens9to_tokensBD_, symObjAddr: 0x1580, symBinAddr: 0xF0E8, symSize: 0x40 }
  - { offset: 0x45D00, size: 0x8, addend: 0x0, symName: __RNvXNtCs4EAaWzSXu1l_5quote9to_tokensRNtNtCsc29TF2YcYso_3syn4item7UseTreeNtB2_8ToTokens9to_tokensBD_, symObjAddr: 0x15C0, symBinAddr: 0xF128, symSize: 0x40 }
  - { offset: 0x45D3F, size: 0x8, addend: 0x0, symName: __RNvXNtCs4EAaWzSXu1l_5quote9to_tokensRNtNtCsc29TF2YcYso_3syn4item8ImplItemNtB2_8ToTokens9to_tokensBD_, symObjAddr: 0x1600, symBinAddr: 0xF168, symSize: 0x40 }
  - { offset: 0x45D7E, size: 0x8, addend: 0x0, symName: __RNvXNtCs4EAaWzSXu1l_5quote9to_tokensRNtNtCsc29TF2YcYso_3syn4item9TraitItemNtB2_8ToTokens9to_tokensBD_, symObjAddr: 0x1640, symBinAddr: 0xF1A8, symSize: 0x40 }
  - { offset: 0x45DDA, size: 0x8, addend: 0x0, symName: __RNvMNtCsc29TF2YcYso_3syn4itemNtB2_4Item13replace_attrs, symObjAddr: 0x2CE8, symBinAddr: 0xF278, symSize: 0x328 }
  - { offset: 0x463B1, size: 0x8, addend: 0x0, symName: __RINvMs_NtCsiTraAjBDcu4_5alloc3vecINtB5_3VecReE10retain_mutNCNvMNtCsc29TF2YcYso_3syn9lookaheadNtBZ_10Lookahead15error0EB11_, symObjAddr: 0x0, symBinAddr: 0x20E94, symSize: 0xE4 }
  - { offset: 0x4E6F9, size: 0x8, addend: 0x0, symName: __RNvXs1_NtCsaNl6UpbT7bw_4core7convertINtNtCsiTraAjBDcu4_5alloc3vec3VechEINtB5_4IntoBy_E4intoCsc29TF2YcYso_3syn, symObjAddr: 0x6F84, symBinAddr: 0x257F4, symSize: 0x18 }
  - { offset: 0x4E936, size: 0x8, addend: 0x0, symName: __RINvNvMs_NtCsiTraAjBDcu4_5alloc3vecINtB7_3VecppE10retain_mut12process_loopNCNvMNtCsc29TF2YcYso_3syn9lookaheadNtB1f_10Lookahead15error0ReNtNtB9_5alloc6GlobalKb0_EB1h_, symObjAddr: 0xC48, symBinAddr: 0x21468, symSize: 0xCC }
  - { offset: 0x4EA8A, size: 0x8, addend: 0x0, symName: __RINvNvMs_NtCsiTraAjBDcu4_5alloc3vecINtB7_3VecppE10retain_mut12process_loopNCNvMNtCsc29TF2YcYso_3syn9lookaheadNtB1f_10Lookahead15error0ReNtNtB9_5alloc6GlobalKb1_EB1h_, symObjAddr: 0xD14, symBinAddr: 0x21534, symSize: 0x170 }
  - { offset: 0x4EC80, size: 0x8, addend: 0x0, symName: __RNvXNvMs_NtCsiTraAjBDcu4_5alloc3vecINtB7_3VecppE10retain_mutINtB2_15BackshiftOnDropReNtNtB9_5alloc6GlobalENtNtNtCsaNl6UpbT7bw_4core3ops4drop4Drop4dropCsc29TF2YcYso_3syn, symObjAddr: 0x6B78, symBinAddr: 0x254B0, symSize: 0x12C }
  - { offset: 0x516EF, size: 0x8, addend: 0x0, symName: __RINvXsh_NtCsiTraAjBDcu4_5alloc3vecINtB6_3VecNtCshnvkK9b4wzu_11proc_macro29TokenTreeEINtNtNtNtCsaNl6UpbT7bw_4core4iter6traits7collect6ExtendBG_E6extendINtNtNtB1r_8adapters7flatten7FlattenINtNtB2t_3map3MapIB2Z_IB2Z_INtNtNtB1t_5slice4iter4IterNtNtCsc29TF2YcYso_3syn5error12ErrorMessageENvMs_B3S_B3Q_16to_compile_errorENCINvXs7_BI_NtBI_11TokenStreamINtB1n_12FromIteratorB5f_E9from_iterB3k_E0ENCINvXs6_NtBI_3impNtB6n_11TokenStreamIB5y_B6w_E9from_iterB3f_Es_0EEEB3U_, symObjAddr: 0xEC0, symBinAddr: 0x216A4, symSize: 0x48 }
  - { offset: 0x51744, size: 0x8, addend: 0x0, symName: __RINvXsh_NtCsiTraAjBDcu4_5alloc3vecINtB6_3VecNtNtCsc29TF2YcYso_3syn4attr9AttributeEINtNtNtNtCsaNl6UpbT7bw_4core4iter6traits7collect6ExtendBG_E6extendBw_EBK_, symObjAddr: 0xF08, symBinAddr: 0x216EC, symSize: 0x48 }
  - { offset: 0x51799, size: 0x8, addend: 0x0, symName: __RINvXsh_NtCsiTraAjBDcu4_5alloc3vecINtB6_3VecNtNtCsc29TF2YcYso_3syn8generics14TypeParamBoundEINtNtNtNtCsaNl6UpbT7bw_4core4iter6traits7collect6ExtendBG_E6extendINtNtB1B_6option6OptionBG_EEBK_, symObjAddr: 0x1078, symBinAddr: 0x21734, symSize: 0x48 }
  - { offset: 0x517EE, size: 0x8, addend: 0x0, symName: __RINvXsh_NtCsiTraAjBDcu4_5alloc3vecINtB6_3VecNtNtCsc29TF2YcYso_3syn8generics14TypeParamBoundEINtNtNtNtCsaNl6UpbT7bw_4core4iter6traits7collect6ExtendBG_E6extendINtNtNtB1z_8adapters3map3MapINtNtB6_9into_iter8IntoIterTBG_NtNtBK_5token4PlusEENCNvXs8_NtBK_10punctuatedINtB3V_10PunctuatedBG_B3t_ENtB1v_12IntoIterator9into_iter0EEBK_, symObjAddr: 0x10C0, symBinAddr: 0x2177C, symSize: 0x48 }
  - { offset: 0x5184E, size: 0x8, addend: 0x0, symName: __RNCINvMsi_NtCsiTraAjBDcu4_5alloc3vecINtB8_3VecNtNtCsc29TF2YcYso_3syn8generics14TypeParamBoundE14extend_trustedINtNtCsaNl6UpbT7bw_4core6option8IntoIterBI_EE0BM_, symObjAddr: 0x1204, symBinAddr: 0x217C4, symSize: 0x54 }
  - { offset: 0x5190C, size: 0x8, addend: 0x0, symName: __RNCINvMsi_NtCsiTraAjBDcu4_5alloc3vecINtB8_3VecNtNtCsc29TF2YcYso_3syn8generics14TypeParamBoundE14extend_trustedINtNtNtNtCsaNl6UpbT7bw_4core4iter8adapters3map3MapINtNtB8_9into_iter8IntoIterTBI_NtNtBM_5token4PlusEENCNvXs8_NtBM_10punctuatedINtB3v_10PunctuatedBI_B33_ENtNtNtB1R_6traits7collect12IntoIterator9into_iter0EE0BM_, symObjAddr: 0x1258, symBinAddr: 0x21818, symSize: 0x54 }
  - { offset: 0x51E0C, size: 0x8, addend: 0x0, symName: __RNvXs6_NtCsiTraAjBDcu4_5alloc3vecINtB5_3VecNtNtCsc29TF2YcYso_3syn4attr9AttributeENtNtNtCsaNl6UpbT7bw_4core3ops5deref5Deref5derefBJ_, symObjAddr: 0x6F9C, symBinAddr: 0x2580C, symSize: 0x24 }
  - { offset: 0x51E4C, size: 0x8, addend: 0x0, symName: __RNvXs6_NtCsiTraAjBDcu4_5alloc3vecINtB5_3VecNtNtCsc29TF2YcYso_3syn4expr3ArmENtNtNtCsaNl6UpbT7bw_4core3ops5deref5Deref5derefBJ_, symObjAddr: 0x6FC0, symBinAddr: 0x25830, symSize: 0x24 }
  - { offset: 0x51E8C, size: 0x8, addend: 0x0, symName: __RNvXs6_NtCsiTraAjBDcu4_5alloc3vecINtB5_3VecNtNtCsc29TF2YcYso_3syn5error12ErrorMessageENtNtNtCsaNl6UpbT7bw_4core3ops5deref5Deref5derefBJ_, symObjAddr: 0x6FE4, symBinAddr: 0x25854, symSize: 0x24 }
  - { offset: 0x51ECC, size: 0x8, addend: 0x0, symName: __RNvXs6_NtCsiTraAjBDcu4_5alloc3vecINtB5_3VecReENtNtNtCsaNl6UpbT7bw_4core3ops5deref5Deref5derefCsc29TF2YcYso_3syn, symObjAddr: 0x7008, symBinAddr: 0x25878, symSize: 0x24 }
  - { offset: 0x51F0C, size: 0x8, addend: 0x0, symName: __RNvXs6_NtCsiTraAjBDcu4_5alloc3vecINtB5_3VecTNtNtCsc29TF2YcYso_3syn2ty4TypeNtNtBK_5token5CommaEENtNtNtCsaNl6UpbT7bw_4core3ops5deref5Deref5derefBK_, symObjAddr: 0x702C, symBinAddr: 0x2589C, symSize: 0x24 }
  - { offset: 0x51F4C, size: 0x8, addend: 0x0, symName: __RNvXs6_NtCsiTraAjBDcu4_5alloc3vecINtB5_3VecTNtNtCsc29TF2YcYso_3syn2ty9BareFnArgNtNtBK_5token5CommaEENtNtNtCsaNl6UpbT7bw_4core3ops5deref5Deref5derefBK_, symObjAddr: 0x7050, symBinAddr: 0x258C0, symSize: 0x24 }
  - { offset: 0x51F8C, size: 0x8, addend: 0x0, symName: __RNvXs6_NtCsiTraAjBDcu4_5alloc3vecINtB5_3VecTNtNtCsc29TF2YcYso_3syn3pat3PatNtNtBK_5token2OrEENtNtNtCsaNl6UpbT7bw_4core3ops5deref5Deref5derefBK_, symObjAddr: 0x7074, symBinAddr: 0x258E4, symSize: 0x24 }
  - { offset: 0x51FCC, size: 0x8, addend: 0x0, symName: __RNvXs6_NtCsiTraAjBDcu4_5alloc3vecINtB5_3VecTNtNtCsc29TF2YcYso_3syn3pat3PatNtNtBK_5token5CommaEENtNtNtCsaNl6UpbT7bw_4core3ops5deref5Deref5derefBK_, symObjAddr: 0x7098, symBinAddr: 0x25908, symSize: 0x24 }
  - { offset: 0x5200C, size: 0x8, addend: 0x0, symName: __RNvXs6_NtCsiTraAjBDcu4_5alloc3vecINtB5_3VecTNtNtCsc29TF2YcYso_3syn3pat8FieldPatNtNtBK_5token5CommaEENtNtNtCsaNl6UpbT7bw_4core3ops5deref5Deref5derefBK_, symObjAddr: 0x70BC, symBinAddr: 0x2592C, symSize: 0x24 }
  - { offset: 0x5204C, size: 0x8, addend: 0x0, symName: __RNvXs6_NtCsiTraAjBDcu4_5alloc3vecINtB5_3VecTNtNtCsc29TF2YcYso_3syn4data5FieldNtNtBK_5token5CommaEENtNtNtCsaNl6UpbT7bw_4core3ops5deref5Deref5derefBK_, symObjAddr: 0x70E0, symBinAddr: 0x25950, symSize: 0x24 }
  - { offset: 0x5208C, size: 0x8, addend: 0x0, symName: __RNvXs6_NtCsiTraAjBDcu4_5alloc3vecINtB5_3VecTNtNtCsc29TF2YcYso_3syn4data7VariantNtNtBK_5token5CommaEENtNtNtCsaNl6UpbT7bw_4core3ops5deref5Deref5derefBK_, symObjAddr: 0x7104, symBinAddr: 0x25974, symSize: 0x24 }
  - { offset: 0x520CC, size: 0x8, addend: 0x0, symName: __RNvXs6_NtCsiTraAjBDcu4_5alloc3vecINtB5_3VecTNtNtCsc29TF2YcYso_3syn4expr10FieldValueNtNtBK_5token5CommaEENtNtNtCsaNl6UpbT7bw_4core3ops5deref5Deref5derefBK_, symObjAddr: 0x7128, symBinAddr: 0x25998, symSize: 0x24 }
  - { offset: 0x5210C, size: 0x8, addend: 0x0, symName: __RNvXs6_NtCsiTraAjBDcu4_5alloc3vecINtB5_3VecTNtNtCsc29TF2YcYso_3syn4expr4ExprNtNtBK_5token5CommaEENtNtNtCsaNl6UpbT7bw_4core3ops5deref5Deref5derefBK_, symObjAddr: 0x714C, symBinAddr: 0x259BC, symSize: 0x24 }
  - { offset: 0x5214C, size: 0x8, addend: 0x0, symName: __RNvXs6_NtCsiTraAjBDcu4_5alloc3vecINtB5_3VecTNtNtCsc29TF2YcYso_3syn4item5FnArgNtNtBK_5token5CommaEENtNtNtCsaNl6UpbT7bw_4core3ops5deref5Deref5derefBK_, symObjAddr: 0x7170, symBinAddr: 0x259E0, symSize: 0x24 }
  - { offset: 0x5218C, size: 0x8, addend: 0x0, symName: __RNvXs6_NtCsiTraAjBDcu4_5alloc3vecINtB5_3VecTNtNtCsc29TF2YcYso_3syn4item7UseTreeNtNtBK_5token5CommaEENtNtNtCsaNl6UpbT7bw_4core3ops5deref5Deref5derefBK_, symObjAddr: 0x7194, symBinAddr: 0x25A04, symSize: 0x24 }
  - { offset: 0x521CC, size: 0x8, addend: 0x0, symName: __RNvXs6_NtCsiTraAjBDcu4_5alloc3vecINtB5_3VecTNtNtCsc29TF2YcYso_3syn4path11PathSegmentNtNtBK_5token7PathSepEENtNtNtCsaNl6UpbT7bw_4core3ops5deref5Deref5derefBK_, symObjAddr: 0x71B8, symBinAddr: 0x25A28, symSize: 0x24 }
  - { offset: 0x5220C, size: 0x8, addend: 0x0, symName: __RNvXs6_NtCsiTraAjBDcu4_5alloc3vecINtB5_3VecTNtNtCsc29TF2YcYso_3syn4path15GenericArgumentNtNtBK_5token5CommaEENtNtNtCsaNl6UpbT7bw_4core3ops5deref5Deref5derefBK_, symObjAddr: 0x71DC, symBinAddr: 0x25A4C, symSize: 0x24 }
  - { offset: 0x5224C, size: 0x8, addend: 0x0, symName: __RNvXs6_NtCsiTraAjBDcu4_5alloc3vecINtB5_3VecTNtNtCsc29TF2YcYso_3syn8generics12GenericParamNtNtBK_5token5CommaEENtNtNtCsaNl6UpbT7bw_4core3ops5deref5Deref5derefBK_, symObjAddr: 0x7200, symBinAddr: 0x25A70, symSize: 0x24 }
  - { offset: 0x5228C, size: 0x8, addend: 0x0, symName: __RNvXs6_NtCsiTraAjBDcu4_5alloc3vecINtB5_3VecTNtNtCsc29TF2YcYso_3syn8generics13CapturedParamNtNtBK_5token5CommaEENtNtNtCsaNl6UpbT7bw_4core3ops5deref5Deref5derefBK_, symObjAddr: 0x7224, symBinAddr: 0x25A94, symSize: 0x24 }
  - { offset: 0x522CC, size: 0x8, addend: 0x0, symName: __RNvXs6_NtCsiTraAjBDcu4_5alloc3vecINtB5_3VecTNtNtCsc29TF2YcYso_3syn8generics14TypeParamBoundNtNtBK_5token4PlusEENtNtNtCsaNl6UpbT7bw_4core3ops5deref5Deref5derefBK_, symObjAddr: 0x7248, symBinAddr: 0x25AB8, symSize: 0x24 }
  - { offset: 0x5230C, size: 0x8, addend: 0x0, symName: __RNvXs6_NtCsiTraAjBDcu4_5alloc3vecINtB5_3VecTNtNtCsc29TF2YcYso_3syn8generics14WherePredicateNtNtBK_5token5CommaEENtNtNtCsaNl6UpbT7bw_4core3ops5deref5Deref5derefBK_, symObjAddr: 0x726C, symBinAddr: 0x25ADC, symSize: 0x24 }
  - { offset: 0x5234C, size: 0x8, addend: 0x0, symName: __RNvXs6_NtCsiTraAjBDcu4_5alloc3vecINtB5_3VecTNtNtCsc29TF2YcYso_3syn8lifetime8LifetimeNtNtBK_5token4PlusEENtNtNtCsaNl6UpbT7bw_4core3ops5deref5Deref5derefBK_, symObjAddr: 0x7290, symBinAddr: 0x25B00, symSize: 0x24 }
  - { offset: 0x5238C, size: 0x8, addend: 0x0, symName: __RNvXs6_NtCsiTraAjBDcu4_5alloc3vecINtB5_3VechENtNtNtCsaNl6UpbT7bw_4core3ops5deref5Deref5derefCsc29TF2YcYso_3syn, symObjAddr: 0x72B4, symBinAddr: 0x25B24, symSize: 0x24 }
  - { offset: 0x52B22, size: 0x8, addend: 0x0, symName: __RNvXsb_NtCsiTraAjBDcu4_5alloc3vecINtB5_3VecNtNtCsc29TF2YcYso_3syn5error12ErrorMessageEINtNtNtCsaNl6UpbT7bw_4core3ops5index5IndexjE5indexBJ_, symObjAddr: 0x82B0, symBinAddr: 0x269DC, symSize: 0x8C }
  - { offset: 0x52CA4, size: 0x8, addend: 0x0, symName: __RNvXsb_NtCsiTraAjBDcu4_5alloc3vecINtB5_3VecReEINtNtNtCsaNl6UpbT7bw_4core3ops5index5IndexjE5indexCsc29TF2YcYso_3syn, symObjAddr: 0x833C, symBinAddr: 0x26A68, symSize: 0x8C }
  - { offset: 0x52E26, size: 0x8, addend: 0x0, symName: __RNvXsb_NtCsiTraAjBDcu4_5alloc3vecINtB5_3VecTNtNtCsc29TF2YcYso_3syn3pat3PatNtNtBK_5token5CommaEEINtNtNtCsaNl6UpbT7bw_4core3ops5index5IndexjE5indexBK_, symObjAddr: 0x83C8, symBinAddr: 0x26AF4, symSize: 0x8C }
  - { offset: 0x52FA8, size: 0x8, addend: 0x0, symName: __RNvXsb_NtCsiTraAjBDcu4_5alloc3vecINtB5_3VecTNtNtCsc29TF2YcYso_3syn4path11PathSegmentNtNtBK_5token7PathSepEEINtNtNtCsaNl6UpbT7bw_4core3ops5index5IndexjE5indexBK_, symObjAddr: 0x8454, symBinAddr: 0x26B80, symSize: 0x8C }
  - { offset: 0x5312A, size: 0x8, addend: 0x0, symName: __RNvXsb_NtCsiTraAjBDcu4_5alloc3vecINtB5_3VechEINtNtNtCsaNl6UpbT7bw_4core3ops5index5IndexINtNtBM_5range9RangeFromjEE5indexCsc29TF2YcYso_3syn, symObjAddr: 0x84E0, symBinAddr: 0x26C0C, symSize: 0x88 }
  - { offset: 0x532AC, size: 0x8, addend: 0x0, symName: __RNvXsb_NtCsiTraAjBDcu4_5alloc3vecINtB5_3VechEINtNtNtCsaNl6UpbT7bw_4core3ops5index5IndexjE5indexCsc29TF2YcYso_3syn, symObjAddr: 0x8568, symBinAddr: 0x26C94, symSize: 0x88 }
  - { offset: 0x53439, size: 0x8, addend: 0x0, symName: __RNvXNtNtCsiTraAjBDcu4_5alloc3vec11spec_extendINtB4_3VecNtCshnvkK9b4wzu_11proc_macro29TokenTreeEINtB2_10SpecExtendBR_INtNtNtNtCsaNl6UpbT7bw_4core4iter8adapters7flatten7FlattenINtNtB1V_3map3MapIB2N_IB2N_INtNtNtB1Z_5slice4iter4IterNtNtCsc29TF2YcYso_3syn5error12ErrorMessageENvMs_B3G_B3E_16to_compile_errorENCINvXs7_BT_NtBT_11TokenStreamINtNtNtB1X_6traits7collect12FromIteratorB53_E9from_iterB38_E0ENCINvXs6_NtBT_3impNtB6u_11TokenStreamIB5m_B6D_E9from_iterB33_Es_0EEE11spec_extendB3I_, symObjAddr: 0x68EC, symBinAddr: 0x2548C, symSize: 0x24 }
  - { offset: 0x53491, size: 0x8, addend: 0x0, symName: __RNvXs0_NtNtCsiTraAjBDcu4_5alloc3vec11spec_extendINtB7_3VecNtNtCsc29TF2YcYso_3syn4attr9AttributeEINtB5_10SpecExtendBU_INtNtB7_9into_iter8IntoIterBU_EE11spec_extendBY_, symObjAddr: 0x6E24, symBinAddr: 0x2575C, symSize: 0x98 }
  - { offset: 0x534FD, size: 0x8, addend: 0x0, symName: __RNvXs_NtNtCsiTraAjBDcu4_5alloc3vec11spec_extendINtB6_3VecNtNtCsc29TF2YcYso_3syn8generics14TypeParamBoundEINtB4_10SpecExtendBT_INtNtCsaNl6UpbT7bw_4core6option8IntoIterBT_EE11spec_extendBX_, symObjAddr: 0x8268, symBinAddr: 0x26994, symSize: 0x24 }
  - { offset: 0x5354F, size: 0x8, addend: 0x0, symName: __RNvXs_NtNtCsiTraAjBDcu4_5alloc3vec11spec_extendINtB6_3VecNtNtCsc29TF2YcYso_3syn8generics14TypeParamBoundEINtB4_10SpecExtendBT_INtNtNtNtCsaNl6UpbT7bw_4core4iter8adapters3map3MapINtNtB6_9into_iter8IntoIterTBT_NtNtBX_5token4PlusEENCNvXs8_NtBX_10punctuatedINtB3L_10PunctuatedBT_B3j_ENtNtNtB27_6traits7collect12IntoIterator9into_iter0EE11spec_extendBX_, symObjAddr: 0x828C, symBinAddr: 0x269B8, symSize: 0x24 }
  - { offset: 0x535A8, size: 0x8, addend: 0x0, symName: __RNvXs7_NtCsiTraAjBDcu4_5alloc3vecINtB5_3VecTNtNtCsc29TF2YcYso_3syn4path11PathSegmentNtNtBK_5token7PathSepEENtNtNtCsaNl6UpbT7bw_4core3ops5deref8DerefMut9deref_mutBK_, symObjAddr: 0x72FC, symBinAddr: 0x25B48, symSize: 0x24 }
  - { offset: 0x5367E, size: 0x8, addend: 0x0, symName: __RNvXs9_NtCsiTraAjBDcu4_5alloc3vecINtB5_3VecNtNtCsc29TF2YcYso_3syn4attr9AttributeENtNtCsaNl6UpbT7bw_4core5clone5Clone5cloneBJ_, symObjAddr: 0x7344, symBinAddr: 0x25B6C, symSize: 0x90 }
  - { offset: 0x5384F, size: 0x8, addend: 0x0, symName: __RNvXs9_NtCsiTraAjBDcu4_5alloc3vecINtB5_3VecNtNtCsc29TF2YcYso_3syn4expr3ArmENtNtCsaNl6UpbT7bw_4core5clone5Clone5cloneBJ_, symObjAddr: 0x73D4, symBinAddr: 0x25BFC, symSize: 0x90 }
  - { offset: 0x53A20, size: 0x8, addend: 0x0, symName: __RNvXs9_NtCsiTraAjBDcu4_5alloc3vecINtB5_3VecNtNtCsc29TF2YcYso_3syn4item11ForeignItemENtNtCsaNl6UpbT7bw_4core5clone5Clone5cloneBJ_, symObjAddr: 0x7464, symBinAddr: 0x25C8C, symSize: 0x90 }
  - { offset: 0x53BF1, size: 0x8, addend: 0x0, symName: __RNvXs9_NtCsiTraAjBDcu4_5alloc3vecINtB5_3VecNtNtCsc29TF2YcYso_3syn4item4ItemENtNtCsaNl6UpbT7bw_4core5clone5Clone5cloneBJ_, symObjAddr: 0x74F4, symBinAddr: 0x25D1C, symSize: 0x90 }
  - { offset: 0x53DC2, size: 0x8, addend: 0x0, symName: __RNvXs9_NtCsiTraAjBDcu4_5alloc3vecINtB5_3VecNtNtCsc29TF2YcYso_3syn4item8ImplItemENtNtCsaNl6UpbT7bw_4core5clone5Clone5cloneBJ_, symObjAddr: 0x7584, symBinAddr: 0x25DAC, symSize: 0x90 }
  - { offset: 0x53F93, size: 0x8, addend: 0x0, symName: __RNvXs9_NtCsiTraAjBDcu4_5alloc3vecINtB5_3VecNtNtCsc29TF2YcYso_3syn4item9TraitItemENtNtCsaNl6UpbT7bw_4core5clone5Clone5cloneBJ_, symObjAddr: 0x7614, symBinAddr: 0x25E3C, symSize: 0x90 }
  - { offset: 0x54164, size: 0x8, addend: 0x0, symName: __RNvXs9_NtCsiTraAjBDcu4_5alloc3vecINtB5_3VecNtNtCsc29TF2YcYso_3syn4stmt4StmtENtNtCsaNl6UpbT7bw_4core5clone5Clone5cloneBJ_, symObjAddr: 0x76A4, symBinAddr: 0x25ECC, symSize: 0x90 }
  - { offset: 0x54335, size: 0x8, addend: 0x0, symName: __RNvXs9_NtCsiTraAjBDcu4_5alloc3vecINtB5_3VecTNtNtCsc29TF2YcYso_3syn2ty4TypeNtNtBK_5token5CommaEENtNtCsaNl6UpbT7bw_4core5clone5Clone5cloneBK_, symObjAddr: 0x77C4, symBinAddr: 0x25F5C, symSize: 0x90 }
  - { offset: 0x54506, size: 0x8, addend: 0x0, symName: __RNvXs9_NtCsiTraAjBDcu4_5alloc3vecINtB5_3VecTNtNtCsc29TF2YcYso_3syn2ty9BareFnArgNtNtBK_5token5CommaEENtNtCsaNl6UpbT7bw_4core5clone5Clone5cloneBK_, symObjAddr: 0x7854, symBinAddr: 0x25FEC, symSize: 0x90 }
  - { offset: 0x546D7, size: 0x8, addend: 0x0, symName: __RNvXs9_NtCsiTraAjBDcu4_5alloc3vecINtB5_3VecTNtNtCsc29TF2YcYso_3syn3pat3PatNtNtBK_5token2OrEENtNtCsaNl6UpbT7bw_4core5clone5Clone5cloneBK_, symObjAddr: 0x78E4, symBinAddr: 0x2607C, symSize: 0x90 }
  - { offset: 0x548A8, size: 0x8, addend: 0x0, symName: __RNvXs9_NtCsiTraAjBDcu4_5alloc3vecINtB5_3VecTNtNtCsc29TF2YcYso_3syn3pat3PatNtNtBK_5token5CommaEENtNtCsaNl6UpbT7bw_4core5clone5Clone5cloneBK_, symObjAddr: 0x7974, symBinAddr: 0x2610C, symSize: 0x90 }
  - { offset: 0x54A79, size: 0x8, addend: 0x0, symName: __RNvXs9_NtCsiTraAjBDcu4_5alloc3vecINtB5_3VecTNtNtCsc29TF2YcYso_3syn3pat8FieldPatNtNtBK_5token5CommaEENtNtCsaNl6UpbT7bw_4core5clone5Clone5cloneBK_, symObjAddr: 0x7A04, symBinAddr: 0x2619C, symSize: 0x90 }
  - { offset: 0x54C4A, size: 0x8, addend: 0x0, symName: __RNvXs9_NtCsiTraAjBDcu4_5alloc3vecINtB5_3VecTNtNtCsc29TF2YcYso_3syn4data5FieldNtNtBK_5token5CommaEENtNtCsaNl6UpbT7bw_4core5clone5Clone5cloneBK_, symObjAddr: 0x7A94, symBinAddr: 0x2622C, symSize: 0x90 }
  - { offset: 0x54E1B, size: 0x8, addend: 0x0, symName: __RNvXs9_NtCsiTraAjBDcu4_5alloc3vecINtB5_3VecTNtNtCsc29TF2YcYso_3syn4data7VariantNtNtBK_5token5CommaEENtNtCsaNl6UpbT7bw_4core5clone5Clone5cloneBK_, symObjAddr: 0x7B24, symBinAddr: 0x262BC, symSize: 0x90 }
  - { offset: 0x54FEC, size: 0x8, addend: 0x0, symName: __RNvXs9_NtCsiTraAjBDcu4_5alloc3vecINtB5_3VecTNtNtCsc29TF2YcYso_3syn4expr10FieldValueNtNtBK_5token5CommaEENtNtCsaNl6UpbT7bw_4core5clone5Clone5cloneBK_, symObjAddr: 0x7BB4, symBinAddr: 0x2634C, symSize: 0x90 }
  - { offset: 0x551BD, size: 0x8, addend: 0x0, symName: __RNvXs9_NtCsiTraAjBDcu4_5alloc3vecINtB5_3VecTNtNtCsc29TF2YcYso_3syn4expr4ExprNtNtBK_5token5CommaEENtNtCsaNl6UpbT7bw_4core5clone5Clone5cloneBK_, symObjAddr: 0x7C44, symBinAddr: 0x263DC, symSize: 0x90 }
  - { offset: 0x5538E, size: 0x8, addend: 0x0, symName: __RNvXs9_NtCsiTraAjBDcu4_5alloc3vecINtB5_3VecTNtNtCsc29TF2YcYso_3syn4item5FnArgNtNtBK_5token5CommaEENtNtCsaNl6UpbT7bw_4core5clone5Clone5cloneBK_, symObjAddr: 0x7CD4, symBinAddr: 0x2646C, symSize: 0x90 }
  - { offset: 0x5555F, size: 0x8, addend: 0x0, symName: __RNvXs9_NtCsiTraAjBDcu4_5alloc3vecINtB5_3VecTNtNtCsc29TF2YcYso_3syn4item7UseTreeNtNtBK_5token5CommaEENtNtCsaNl6UpbT7bw_4core5clone5Clone5cloneBK_, symObjAddr: 0x7D64, symBinAddr: 0x264FC, symSize: 0x90 }
  - { offset: 0x55730, size: 0x8, addend: 0x0, symName: __RNvXs9_NtCsiTraAjBDcu4_5alloc3vecINtB5_3VecTNtNtCsc29TF2YcYso_3syn4path11PathSegmentNtNtBK_5token7PathSepEENtNtCsaNl6UpbT7bw_4core5clone5Clone5cloneBK_, symObjAddr: 0x7DF4, symBinAddr: 0x2658C, symSize: 0x90 }
  - { offset: 0x55901, size: 0x8, addend: 0x0, symName: __RNvXs9_NtCsiTraAjBDcu4_5alloc3vecINtB5_3VecTNtNtCsc29TF2YcYso_3syn4path15GenericArgumentNtNtBK_5token5CommaEENtNtCsaNl6UpbT7bw_4core5clone5Clone5cloneBK_, symObjAddr: 0x7E84, symBinAddr: 0x2661C, symSize: 0x90 }
  - { offset: 0x55AD2, size: 0x8, addend: 0x0, symName: __RNvXs9_NtCsiTraAjBDcu4_5alloc3vecINtB5_3VecTNtNtCsc29TF2YcYso_3syn8generics12GenericParamNtNtBK_5token5CommaEENtNtCsaNl6UpbT7bw_4core5clone5Clone5cloneBK_, symObjAddr: 0x7F14, symBinAddr: 0x266AC, symSize: 0x90 }
  - { offset: 0x55CA3, size: 0x8, addend: 0x0, symName: __RNvXs9_NtCsiTraAjBDcu4_5alloc3vecINtB5_3VecTNtNtCsc29TF2YcYso_3syn8generics13CapturedParamNtNtBK_5token5CommaEENtNtCsaNl6UpbT7bw_4core5clone5Clone5cloneBK_, symObjAddr: 0x7FA4, symBinAddr: 0x2673C, symSize: 0x90 }
  - { offset: 0x55E74, size: 0x8, addend: 0x0, symName: __RNvXs9_NtCsiTraAjBDcu4_5alloc3vecINtB5_3VecTNtNtCsc29TF2YcYso_3syn8generics14TypeParamBoundNtNtBK_5token4PlusEENtNtCsaNl6UpbT7bw_4core5clone5Clone5cloneBK_, symObjAddr: 0x8034, symBinAddr: 0x267CC, symSize: 0x90 }
  - { offset: 0x56045, size: 0x8, addend: 0x0, symName: __RNvXs9_NtCsiTraAjBDcu4_5alloc3vecINtB5_3VecTNtNtCsc29TF2YcYso_3syn8generics14WherePredicateNtNtBK_5token5CommaEENtNtCsaNl6UpbT7bw_4core5clone5Clone5cloneBK_, symObjAddr: 0x80C4, symBinAddr: 0x2685C, symSize: 0x90 }
  - { offset: 0x56216, size: 0x8, addend: 0x0, symName: __RNvXs9_NtCsiTraAjBDcu4_5alloc3vecINtB5_3VecTNtNtCsc29TF2YcYso_3syn8lifetime8LifetimeNtNtBK_5token4PlusEENtNtCsaNl6UpbT7bw_4core5clone5Clone5cloneBK_, symObjAddr: 0x8154, symBinAddr: 0x268EC, symSize: 0x90 }
  - { offset: 0x563ED, size: 0x8, addend: 0x0, symName: __RNvXsc_NtCsiTraAjBDcu4_5alloc3vecINtB5_3VecNtNtCsc29TF2YcYso_3syn6buffer5EntryEINtNtNtCsaNl6UpbT7bw_4core3ops5index8IndexMutjE9index_mutBJ_, symObjAddr: 0x85F0, symBinAddr: 0x26D1C, symSize: 0x8C }
  - { offset: 0x56541, size: 0x8, addend: 0x0, symName: __RNvXsc_NtCsiTraAjBDcu4_5alloc3vecINtB5_3VechEINtNtNtCsaNl6UpbT7bw_4core3ops5index8IndexMutjE9index_mutCsc29TF2YcYso_3syn, symObjAddr: 0x867C, symBinAddr: 0x26DA8, symSize: 0x88 }
  - { offset: 0x5669B, size: 0x8, addend: 0x0, symName: __RNvXse_NtCsiTraAjBDcu4_5alloc3vecINtB5_3VecNtNtCsc29TF2YcYso_3syn4attr9AttributeENtNtNtNtCsaNl6UpbT7bw_4core4iter6traits7collect12IntoIterator9into_iterBJ_, symObjAddr: 0x8704, symBinAddr: 0x26E30, symSize: 0xDC }
  - { offset: 0x5692D, size: 0x8, addend: 0x0, symName: __RNvXse_NtCsiTraAjBDcu4_5alloc3vecINtB5_3VecNtNtCsc29TF2YcYso_3syn8generics14TypeParamBoundENtNtNtNtCsaNl6UpbT7bw_4core4iter6traits7collect12IntoIterator9into_iterBJ_, symObjAddr: 0x89A8, symBinAddr: 0x26F0C, symSize: 0xE4 }
  - { offset: 0x56BBF, size: 0x8, addend: 0x0, symName: __RNvXse_NtCsiTraAjBDcu4_5alloc3vecINtB5_3VecTNtNtCsc29TF2YcYso_3syn4path11PathSegmentNtNtBK_5token7PathSepEENtNtNtNtCsaNl6UpbT7bw_4core4iter6traits7collect12IntoIterator9into_iterBK_, symObjAddr: 0x8C54, symBinAddr: 0x26FF0, symSize: 0xE4 }
  - { offset: 0x56E51, size: 0x8, addend: 0x0, symName: __RNvXse_NtCsiTraAjBDcu4_5alloc3vecINtB5_3VecTNtNtCsc29TF2YcYso_3syn8generics14TypeParamBoundNtNtBK_5token4PlusEENtNtNtNtCsaNl6UpbT7bw_4core4iter6traits7collect12IntoIterator9into_iterBK_, symObjAddr: 0x8D38, symBinAddr: 0x270D4, symSize: 0xDC }
  - { offset: 0x570E9, size: 0x8, addend: 0x0, symName: __RNvXsf_NtCsiTraAjBDcu4_5alloc3vecRINtB5_3VecNtNtCsc29TF2YcYso_3syn4attr9AttributeENtNtNtNtCsaNl6UpbT7bw_4core4iter6traits7collect12IntoIterator9into_iterBK_, symObjAddr: 0x8E14, symBinAddr: 0x271B0, symSize: 0xA4 }
  - { offset: 0x57327, size: 0x8, addend: 0x0, symName: __RNvXsf_NtCsiTraAjBDcu4_5alloc3vecRINtB5_3VecNtNtCsc29TF2YcYso_3syn4item11ForeignItemENtNtNtNtCsaNl6UpbT7bw_4core4iter6traits7collect12IntoIterator9into_iterBK_, symObjAddr: 0x8EB8, symBinAddr: 0x27254, symSize: 0xAC }
  - { offset: 0x57565, size: 0x8, addend: 0x0, symName: __RNvXsf_NtCsiTraAjBDcu4_5alloc3vecRINtB5_3VecNtNtCsc29TF2YcYso_3syn4item4ItemENtNtNtNtCsaNl6UpbT7bw_4core4iter6traits7collect12IntoIterator9into_iterBK_, symObjAddr: 0x8F64, symBinAddr: 0x27300, symSize: 0xAC }
  - { offset: 0x577A3, size: 0x8, addend: 0x0, symName: __RNvXsf_NtCsiTraAjBDcu4_5alloc3vecRINtB5_3VecNtNtCsc29TF2YcYso_3syn4item8ImplItemENtNtNtNtCsaNl6UpbT7bw_4core4iter6traits7collect12IntoIterator9into_iterBK_, symObjAddr: 0x9010, symBinAddr: 0x273AC, symSize: 0xAC }
  - { offset: 0x579E1, size: 0x8, addend: 0x0, symName: __RNvXsf_NtCsiTraAjBDcu4_5alloc3vecRINtB5_3VecNtNtCsc29TF2YcYso_3syn4item9TraitItemENtNtNtNtCsaNl6UpbT7bw_4core4iter6traits7collect12IntoIterator9into_iterBK_, symObjAddr: 0x90BC, symBinAddr: 0x27458, symSize: 0xAC }
  - { offset: 0x57C1F, size: 0x8, addend: 0x0, symName: __RNvXsf_NtCsiTraAjBDcu4_5alloc3vecRINtB5_3VecNtNtCsc29TF2YcYso_3syn4stmt4StmtENtNtNtNtCsaNl6UpbT7bw_4core4iter6traits7collect12IntoIterator9into_iterBK_, symObjAddr: 0x9168, symBinAddr: 0x27504, symSize: 0xAC }
  - { offset: 0x57E63, size: 0x8, addend: 0x0, symName: __RNvXsg_NtCsiTraAjBDcu4_5alloc3vecQINtB5_3VechENtNtNtNtCsaNl6UpbT7bw_4core4iter6traits7collect12IntoIterator9into_iterCsc29TF2YcYso_3syn, symObjAddr: 0x9E24, symBinAddr: 0x275B0, symSize: 0xA0 }
  - { offset: 0x58079, size: 0x8, addend: 0x0, symName: __RNvXsn_NtCsiTraAjBDcu4_5alloc3vecINtB5_3VecNtNtCsc29TF2YcYso_3syn4attr9AttributeENtNtNtCsaNl6UpbT7bw_4core3ops4drop4Drop4dropBJ_, symObjAddr: 0x9EC4, symBinAddr: 0x27650, symSize: 0x38 }
  - { offset: 0x58129, size: 0x8, addend: 0x0, symName: __RNvXsn_NtCsiTraAjBDcu4_5alloc3vecINtB5_3VecNtNtCsc29TF2YcYso_3syn4expr3ArmENtNtNtCsaNl6UpbT7bw_4core3ops4drop4Drop4dropBJ_, symObjAddr: 0x9F34, symBinAddr: 0x27688, symSize: 0x38 }
  - { offset: 0x581D9, size: 0x8, addend: 0x0, symName: __RNvXsn_NtCsiTraAjBDcu4_5alloc3vecINtB5_3VecNtNtCsc29TF2YcYso_3syn4expr6ExprIfENtNtNtCsaNl6UpbT7bw_4core3ops4drop4Drop4dropBJ_, symObjAddr: 0x9F6C, symBinAddr: 0x276C0, symSize: 0x38 }
  - { offset: 0x58289, size: 0x8, addend: 0x0, symName: __RNvXsn_NtCsiTraAjBDcu4_5alloc3vecINtB5_3VecNtNtCsc29TF2YcYso_3syn4item11ForeignItemENtNtNtCsaNl6UpbT7bw_4core3ops4drop4Drop4dropBJ_, symObjAddr: 0x9FA4, symBinAddr: 0x276F8, symSize: 0x38 }
  - { offset: 0x58339, size: 0x8, addend: 0x0, symName: __RNvXsn_NtCsiTraAjBDcu4_5alloc3vecINtB5_3VecNtNtCsc29TF2YcYso_3syn4item4ItemENtNtNtCsaNl6UpbT7bw_4core3ops4drop4Drop4dropBJ_, symObjAddr: 0x9FDC, symBinAddr: 0x27730, symSize: 0x38 }
  - { offset: 0x583E9, size: 0x8, addend: 0x0, symName: __RNvXsn_NtCsiTraAjBDcu4_5alloc3vecINtB5_3VecNtNtCsc29TF2YcYso_3syn4item8ImplItemENtNtNtCsaNl6UpbT7bw_4core3ops4drop4Drop4dropBJ_, symObjAddr: 0xA014, symBinAddr: 0x27768, symSize: 0x38 }
  - { offset: 0x58499, size: 0x8, addend: 0x0, symName: __RNvXsn_NtCsiTraAjBDcu4_5alloc3vecINtB5_3VecNtNtCsc29TF2YcYso_3syn4item9TraitItemENtNtNtCsaNl6UpbT7bw_4core3ops4drop4Drop4dropBJ_, symObjAddr: 0xA04C, symBinAddr: 0x277A0, symSize: 0x38 }
  - { offset: 0x58549, size: 0x8, addend: 0x0, symName: __RNvXsn_NtCsiTraAjBDcu4_5alloc3vecINtB5_3VecNtNtCsc29TF2YcYso_3syn4stmt4StmtENtNtNtCsaNl6UpbT7bw_4core3ops4drop4Drop4dropBJ_, symObjAddr: 0xA084, symBinAddr: 0x277D8, symSize: 0x38 }
  - { offset: 0x585F9, size: 0x8, addend: 0x0, symName: __RNvXsn_NtCsiTraAjBDcu4_5alloc3vecINtB5_3VecNtNtCsc29TF2YcYso_3syn5error12ErrorMessageENtNtNtCsaNl6UpbT7bw_4core3ops4drop4Drop4dropBJ_, symObjAddr: 0xA0BC, symBinAddr: 0x27810, symSize: 0x38 }
  - { offset: 0x586A9, size: 0x8, addend: 0x0, symName: __RNvXsn_NtCsiTraAjBDcu4_5alloc3vecINtB5_3VecNtNtCsc29TF2YcYso_3syn6buffer5EntryENtNtNtCsaNl6UpbT7bw_4core3ops4drop4Drop4dropBJ_, symObjAddr: 0xA0F4, symBinAddr: 0x27848, symSize: 0x38 }
  - { offset: 0x58759, size: 0x8, addend: 0x0, symName: __RNvXsn_NtCsiTraAjBDcu4_5alloc3vecINtB5_3VecNtNtCsc29TF2YcYso_3syn8generics14TypeParamBoundENtNtNtCsaNl6UpbT7bw_4core3ops4drop4Drop4dropBJ_, symObjAddr: 0xA12C, symBinAddr: 0x27880, symSize: 0x38 }
  - { offset: 0x58809, size: 0x8, addend: 0x0, symName: __RNvXsn_NtCsiTraAjBDcu4_5alloc3vecINtB5_3VecReENtNtNtCsaNl6UpbT7bw_4core3ops4drop4Drop4dropCsc29TF2YcYso_3syn, symObjAddr: 0xA164, symBinAddr: 0x278B8, symSize: 0x24 }
  - { offset: 0x588B9, size: 0x8, addend: 0x0, symName: __RNvXsn_NtCsiTraAjBDcu4_5alloc3vecINtB5_3VecTNtNtCsc29TF2YcYso_3syn2ty4TypeNtNtBK_5token5CommaEENtNtNtCsaNl6UpbT7bw_4core3ops4drop4Drop4dropBK_, symObjAddr: 0xA188, symBinAddr: 0x278DC, symSize: 0x38 }
  - { offset: 0x58969, size: 0x8, addend: 0x0, symName: __RNvXsn_NtCsiTraAjBDcu4_5alloc3vecINtB5_3VecTNtNtCsc29TF2YcYso_3syn2ty9BareFnArgNtNtBK_5token5CommaEENtNtNtCsaNl6UpbT7bw_4core3ops4drop4Drop4dropBK_, symObjAddr: 0xA1C0, symBinAddr: 0x27914, symSize: 0x38 }
  - { offset: 0x58A19, size: 0x8, addend: 0x0, symName: __RNvXsn_NtCsiTraAjBDcu4_5alloc3vecINtB5_3VecTNtNtCsc29TF2YcYso_3syn3pat3PatNtNtBK_5token2OrEENtNtNtCsaNl6UpbT7bw_4core3ops4drop4Drop4dropBK_, symObjAddr: 0xA1F8, symBinAddr: 0x2794C, symSize: 0x38 }
  - { offset: 0x58AC9, size: 0x8, addend: 0x0, symName: __RNvXsn_NtCsiTraAjBDcu4_5alloc3vecINtB5_3VecTNtNtCsc29TF2YcYso_3syn3pat3PatNtNtBK_5token5CommaEENtNtNtCsaNl6UpbT7bw_4core3ops4drop4Drop4dropBK_, symObjAddr: 0xA230, symBinAddr: 0x27984, symSize: 0x38 }
  - { offset: 0x58B79, size: 0x8, addend: 0x0, symName: __RNvXsn_NtCsiTraAjBDcu4_5alloc3vecINtB5_3VecTNtNtCsc29TF2YcYso_3syn3pat8FieldPatNtNtBK_5token5CommaEENtNtNtCsaNl6UpbT7bw_4core3ops4drop4Drop4dropBK_, symObjAddr: 0xA268, symBinAddr: 0x279BC, symSize: 0x38 }
  - { offset: 0x58C29, size: 0x8, addend: 0x0, symName: __RNvXsn_NtCsiTraAjBDcu4_5alloc3vecINtB5_3VecTNtNtCsc29TF2YcYso_3syn4data5FieldNtNtBK_5token5CommaEENtNtNtCsaNl6UpbT7bw_4core3ops4drop4Drop4dropBK_, symObjAddr: 0xA2A0, symBinAddr: 0x279F4, symSize: 0x38 }
  - { offset: 0x58CD9, size: 0x8, addend: 0x0, symName: __RNvXsn_NtCsiTraAjBDcu4_5alloc3vecINtB5_3VecTNtNtCsc29TF2YcYso_3syn4data7VariantNtNtBK_5token5CommaEENtNtNtCsaNl6UpbT7bw_4core3ops4drop4Drop4dropBK_, symObjAddr: 0xA310, symBinAddr: 0x27A2C, symSize: 0x38 }
  - { offset: 0x58D89, size: 0x8, addend: 0x0, symName: __RNvXsn_NtCsiTraAjBDcu4_5alloc3vecINtB5_3VecTNtNtCsc29TF2YcYso_3syn4expr10FieldValueNtNtBK_5token5CommaEENtNtNtCsaNl6UpbT7bw_4core3ops4drop4Drop4dropBK_, symObjAddr: 0xA348, symBinAddr: 0x27A64, symSize: 0x38 }
  - { offset: 0x58E39, size: 0x8, addend: 0x0, symName: __RNvXsn_NtCsiTraAjBDcu4_5alloc3vecINtB5_3VecTNtNtCsc29TF2YcYso_3syn4expr4ExprNtNtBK_5token5CommaEENtNtNtCsaNl6UpbT7bw_4core3ops4drop4Drop4dropBK_, symObjAddr: 0xA380, symBinAddr: 0x27A9C, symSize: 0x38 }
  - { offset: 0x58EE9, size: 0x8, addend: 0x0, symName: __RNvXsn_NtCsiTraAjBDcu4_5alloc3vecINtB5_3VecTNtNtCsc29TF2YcYso_3syn4item5FnArgNtNtBK_5token5CommaEENtNtNtCsaNl6UpbT7bw_4core3ops4drop4Drop4dropBK_, symObjAddr: 0xA3B8, symBinAddr: 0x27AD4, symSize: 0x38 }
  - { offset: 0x58F99, size: 0x8, addend: 0x0, symName: __RNvXsn_NtCsiTraAjBDcu4_5alloc3vecINtB5_3VecTNtNtCsc29TF2YcYso_3syn4item7UseTreeNtNtBK_5token5CommaEENtNtNtCsaNl6UpbT7bw_4core3ops4drop4Drop4dropBK_, symObjAddr: 0xA3F0, symBinAddr: 0x27B0C, symSize: 0x38 }
  - { offset: 0x59049, size: 0x8, addend: 0x0, symName: __RNvXsn_NtCsiTraAjBDcu4_5alloc3vecINtB5_3VecTNtNtCsc29TF2YcYso_3syn4path11PathSegmentNtNtBK_5token7PathSepEENtNtNtCsaNl6UpbT7bw_4core3ops4drop4Drop4dropBK_, symObjAddr: 0xA428, symBinAddr: 0x27B44, symSize: 0x38 }
  - { offset: 0x590F9, size: 0x8, addend: 0x0, symName: __RNvXsn_NtCsiTraAjBDcu4_5alloc3vecINtB5_3VecTNtNtCsc29TF2YcYso_3syn4path15GenericArgumentNtNtBK_5token5CommaEENtNtNtCsaNl6UpbT7bw_4core3ops4drop4Drop4dropBK_, symObjAddr: 0xA460, symBinAddr: 0x27B7C, symSize: 0x38 }
  - { offset: 0x591A9, size: 0x8, addend: 0x0, symName: __RNvXsn_NtCsiTraAjBDcu4_5alloc3vecINtB5_3VecTNtNtCsc29TF2YcYso_3syn8generics12GenericParamNtNtBK_5token5CommaEENtNtNtCsaNl6UpbT7bw_4core3ops4drop4Drop4dropBK_, symObjAddr: 0xA498, symBinAddr: 0x27BB4, symSize: 0x38 }
  - { offset: 0x59259, size: 0x8, addend: 0x0, symName: __RNvXsn_NtCsiTraAjBDcu4_5alloc3vecINtB5_3VecTNtNtCsc29TF2YcYso_3syn8generics13CapturedParamNtNtBK_5token5CommaEENtNtNtCsaNl6UpbT7bw_4core3ops4drop4Drop4dropBK_, symObjAddr: 0xA4D0, symBinAddr: 0x27BEC, symSize: 0x38 }
  - { offset: 0x59309, size: 0x8, addend: 0x0, symName: __RNvXsn_NtCsiTraAjBDcu4_5alloc3vecINtB5_3VecTNtNtCsc29TF2YcYso_3syn8generics14TypeParamBoundNtNtBK_5token4PlusEENtNtNtCsaNl6UpbT7bw_4core3ops4drop4Drop4dropBK_, symObjAddr: 0xA508, symBinAddr: 0x27C24, symSize: 0x38 }
  - { offset: 0x593B9, size: 0x8, addend: 0x0, symName: __RNvXsn_NtCsiTraAjBDcu4_5alloc3vecINtB5_3VecTNtNtCsc29TF2YcYso_3syn8generics14WherePredicateNtNtBK_5token5CommaEENtNtNtCsaNl6UpbT7bw_4core3ops4drop4Drop4dropBK_, symObjAddr: 0xA540, symBinAddr: 0x27C5C, symSize: 0x38 }
  - { offset: 0x59469, size: 0x8, addend: 0x0, symName: __RNvXsn_NtCsiTraAjBDcu4_5alloc3vecINtB5_3VecTNtNtCsc29TF2YcYso_3syn8lifetime8LifetimeNtNtBK_5token4PlusEENtNtNtCsaNl6UpbT7bw_4core3ops4drop4Drop4dropBK_, symObjAddr: 0xA578, symBinAddr: 0x27C94, symSize: 0x38 }
  - { offset: 0x5951F, size: 0x8, addend: 0x0, symName: __RNvXsp_NtCsiTraAjBDcu4_5alloc3vecINtB5_3VecNtNtCsc29TF2YcYso_3syn5error12ErrorMessageENtNtCsaNl6UpbT7bw_4core3fmt5Debug3fmtBJ_, symObjAddr: 0xA914, symBinAddr: 0x27CCC, symSize: 0x7C }
  - { offset: 0x5962F, size: 0x8, addend: 0x0, symName: __RNvXsp_NtCsiTraAjBDcu4_5alloc3vecINtB5_3VechENtNtCsaNl6UpbT7bw_4core3fmt5Debug3fmtCsc29TF2YcYso_3syn, symObjAddr: 0xA990, symBinAddr: 0x27D48, symSize: 0x78 }
  - { offset: 0x5BB5D, size: 0x8, addend: 0x0, symName: __RNvXsT_NtCsiTraAjBDcu4_5alloc6stringINtNtB7_3vec3VechEINtNtCsaNl6UpbT7bw_4core7convert4FromNtB5_6StringE4fromCsc29TF2YcYso_3syn, symObjAddr: 0x81E4, symBinAddr: 0x2697C, symSize: 0x18 }
  - { offset: 0x5BDB2, size: 0x8, addend: 0x0, symName: __RNvXNvMs_NtNtCsiTraAjBDcu4_5alloc3ffi5c_strNtB7_7CString3newINtNtBb_3vec3VechENtB2_11SpecNewImpl13spec_new_implCsc29TF2YcYso_3syn, symObjAddr: 0x6CA4, symBinAddr: 0x255DC, symSize: 0x180 }
  - { offset: 0x6141D, size: 0x8, addend: 0x0, symName: __RINvMs_NtCsiTraAjBDcu4_5alloc3vecINtB5_3VecReE10retain_mutNCNvMNtCsc29TF2YcYso_3syn9lookaheadNtBZ_10Lookahead15error0EB11_, symObjAddr: 0x0, symBinAddr: 0x20E94, symSize: 0xE4 }
  - { offset: 0x61717, size: 0x8, addend: 0x0, symName: __RINvMsi_NtCsiTraAjBDcu4_5alloc3vecINtB6_3VecNtCshnvkK9b4wzu_11proc_macro29TokenTreeE16extend_desugaredINtNtNtNtCsaNl6UpbT7bw_4core4iter8adapters7flatten7FlattenINtNtB1H_3map3MapIB2z_IB2z_INtNtNtB1L_5slice4iter4IterNtNtCsc29TF2YcYso_3syn5error12ErrorMessageENvMs_B3s_B3q_16to_compile_errorENCINvXs7_BI_NtBI_11TokenStreamINtNtNtB1J_6traits7collect12FromIteratorB4P_E9from_iterB2U_E0ENCINvXs6_NtBI_3impNtB6g_11TokenStreamIB58_B6p_E9from_iterB2P_Es_0EEEB3u_, symObjAddr: 0xE4, symBinAddr: 0x20F78, symSize: 0x1D0 }
  - { offset: 0x620BD, size: 0x8, addend: 0x0, symName: __RINvMsi_NtCsiTraAjBDcu4_5alloc3vecINtB6_3VecNtNtCsc29TF2YcYso_3syn8generics14TypeParamBoundE14extend_trustedINtNtCsaNl6UpbT7bw_4core6option8IntoIterBG_EEBK_, symObjAddr: 0x928, symBinAddr: 0x21148, symSize: 0x19C }
  - { offset: 0x62381, size: 0x8, addend: 0x0, symName: __RINvMsi_NtCsiTraAjBDcu4_5alloc3vecINtB6_3VecNtNtCsc29TF2YcYso_3syn8generics14TypeParamBoundE14extend_trustedINtNtNtNtCsaNl6UpbT7bw_4core4iter8adapters3map3MapINtNtB6_9into_iter8IntoIterTBG_NtNtBK_5token4PlusEENCNvXs8_NtBK_10punctuatedINtB3t_10PunctuatedBG_B31_ENtNtNtB1P_6traits7collect12IntoIterator9into_iter0EEBK_, symObjAddr: 0xAC4, symBinAddr: 0x212E4, symSize: 0x184 }
  - { offset: 0x626DA, size: 0x8, addend: 0x0, symName: __RNvMNtCsiTraAjBDcu4_5alloc3vecINtB2_3VecNtNtCsc29TF2YcYso_3syn4attr9AttributeE3newBG_, symObjAddr: 0x12AC, symBinAddr: 0x2186C, symSize: 0x14 }
  - { offset: 0x626F7, size: 0x8, addend: 0x0, symName: __RNvMNtCsiTraAjBDcu4_5alloc3vecINtB2_3VecNtNtCsc29TF2YcYso_3syn4expr3ArmE3newBG_, symObjAddr: 0x1308, symBinAddr: 0x21880, symSize: 0x14 }
  - { offset: 0x62714, size: 0x8, addend: 0x0, symName: __RNvMNtCsiTraAjBDcu4_5alloc3vecINtB2_3VecNtNtCsc29TF2YcYso_3syn4expr6ExprIfE3newBG_, symObjAddr: 0x131C, symBinAddr: 0x21894, symSize: 0x14 }
  - { offset: 0x62731, size: 0x8, addend: 0x0, symName: __RNvMNtCsiTraAjBDcu4_5alloc3vecINtB2_3VecNtNtCsc29TF2YcYso_3syn4item11ForeignItemE3newBG_, symObjAddr: 0x1330, symBinAddr: 0x218A8, symSize: 0x14 }
  - { offset: 0x6274E, size: 0x8, addend: 0x0, symName: __RNvMNtCsiTraAjBDcu4_5alloc3vecINtB2_3VecNtNtCsc29TF2YcYso_3syn4item4ItemE3newBG_, symObjAddr: 0x1344, symBinAddr: 0x218BC, symSize: 0x14 }
  - { offset: 0x6276B, size: 0x8, addend: 0x0, symName: __RNvMNtCsiTraAjBDcu4_5alloc3vecINtB2_3VecNtNtCsc29TF2YcYso_3syn4item8ImplItemE3newBG_, symObjAddr: 0x1358, symBinAddr: 0x218D0, symSize: 0x14 }
  - { offset: 0x62788, size: 0x8, addend: 0x0, symName: __RNvMNtCsiTraAjBDcu4_5alloc3vecINtB2_3VecNtNtCsc29TF2YcYso_3syn4item9TraitItemE3newBG_, symObjAddr: 0x136C, symBinAddr: 0x218E4, symSize: 0x14 }
  - { offset: 0x627A5, size: 0x8, addend: 0x0, symName: __RNvMNtCsiTraAjBDcu4_5alloc3vecINtB2_3VecNtNtCsc29TF2YcYso_3syn4stmt4StmtE3newBG_, symObjAddr: 0x1380, symBinAddr: 0x218F8, symSize: 0x14 }
  - { offset: 0x627C2, size: 0x8, addend: 0x0, symName: __RNvMNtCsiTraAjBDcu4_5alloc3vecINtB2_3VecNtNtCsc29TF2YcYso_3syn6buffer5EntryE3newBG_, symObjAddr: 0x1394, symBinAddr: 0x2190C, symSize: 0x14 }
  - { offset: 0x62841, size: 0x8, addend: 0x0, symName: __RNvMNtCsiTraAjBDcu4_5alloc3vecINtB2_3VecNtNtCsc29TF2YcYso_3syn8generics14TypeParamBoundE13with_capacityBG_, symObjAddr: 0x13A8, symBinAddr: 0x21920, symSize: 0x48 }
  - { offset: 0x628B9, size: 0x8, addend: 0x0, symName: __RNvMNtCsiTraAjBDcu4_5alloc3vecINtB2_3VecReE3newCsc29TF2YcYso_3syn, symObjAddr: 0x13F0, symBinAddr: 0x21968, symSize: 0x14 }
  - { offset: 0x628D6, size: 0x8, addend: 0x0, symName: __RNvMNtCsiTraAjBDcu4_5alloc3vecINtB2_3VecTNtNtCsc29TF2YcYso_3syn2ty4TypeNtNtBH_5token5CommaEE3newBH_, symObjAddr: 0x1404, symBinAddr: 0x2197C, symSize: 0x14 }
  - { offset: 0x628F3, size: 0x8, addend: 0x0, symName: __RNvMNtCsiTraAjBDcu4_5alloc3vecINtB2_3VecTNtNtCsc29TF2YcYso_3syn2ty9BareFnArgNtNtBH_5token5CommaEE3newBH_, symObjAddr: 0x1418, symBinAddr: 0x21990, symSize: 0x14 }
  - { offset: 0x62910, size: 0x8, addend: 0x0, symName: __RNvMNtCsiTraAjBDcu4_5alloc3vecINtB2_3VecTNtNtCsc29TF2YcYso_3syn3pat3PatNtNtBH_5token2OrEE3newBH_, symObjAddr: 0x142C, symBinAddr: 0x219A4, symSize: 0x14 }
  - { offset: 0x6292D, size: 0x8, addend: 0x0, symName: __RNvMNtCsiTraAjBDcu4_5alloc3vecINtB2_3VecTNtNtCsc29TF2YcYso_3syn3pat3PatNtNtBH_5token5CommaEE3newBH_, symObjAddr: 0x1440, symBinAddr: 0x219B8, symSize: 0x14 }
  - { offset: 0x6294A, size: 0x8, addend: 0x0, symName: __RNvMNtCsiTraAjBDcu4_5alloc3vecINtB2_3VecTNtNtCsc29TF2YcYso_3syn3pat8FieldPatNtNtBH_5token5CommaEE3newBH_, symObjAddr: 0x1454, symBinAddr: 0x219CC, symSize: 0x14 }
  - { offset: 0x62967, size: 0x8, addend: 0x0, symName: __RNvMNtCsiTraAjBDcu4_5alloc3vecINtB2_3VecTNtNtCsc29TF2YcYso_3syn4data5FieldNtNtBH_5token5CommaEE3newBH_, symObjAddr: 0x1468, symBinAddr: 0x219E0, symSize: 0x14 }
  - { offset: 0x62984, size: 0x8, addend: 0x0, symName: __RNvMNtCsiTraAjBDcu4_5alloc3vecINtB2_3VecTNtNtCsc29TF2YcYso_3syn4data7VariantNtNtBH_5token5CommaEE3newBH_, symObjAddr: 0x1490, symBinAddr: 0x219F4, symSize: 0x14 }
  - { offset: 0x629A1, size: 0x8, addend: 0x0, symName: __RNvMNtCsiTraAjBDcu4_5alloc3vecINtB2_3VecTNtNtCsc29TF2YcYso_3syn4expr10FieldValueNtNtBH_5token5CommaEE3newBH_, symObjAddr: 0x14A4, symBinAddr: 0x21A08, symSize: 0x14 }
  - { offset: 0x629BE, size: 0x8, addend: 0x0, symName: __RNvMNtCsiTraAjBDcu4_5alloc3vecINtB2_3VecTNtNtCsc29TF2YcYso_3syn4expr4ExprNtNtBH_5token5CommaEE3newBH_, symObjAddr: 0x14B8, symBinAddr: 0x21A1C, symSize: 0x14 }
  - { offset: 0x629DB, size: 0x8, addend: 0x0, symName: __RNvMNtCsiTraAjBDcu4_5alloc3vecINtB2_3VecTNtNtCsc29TF2YcYso_3syn4item5FnArgNtNtBH_5token5CommaEE3newBH_, symObjAddr: 0x14CC, symBinAddr: 0x21A30, symSize: 0x14 }
  - { offset: 0x629F8, size: 0x8, addend: 0x0, symName: __RNvMNtCsiTraAjBDcu4_5alloc3vecINtB2_3VecTNtNtCsc29TF2YcYso_3syn4item7UseTreeNtNtBH_5token5CommaEE3newBH_, symObjAddr: 0x14E0, symBinAddr: 0x21A44, symSize: 0x14 }
  - { offset: 0x62A15, size: 0x8, addend: 0x0, symName: __RNvMNtCsiTraAjBDcu4_5alloc3vecINtB2_3VecTNtNtCsc29TF2YcYso_3syn4path11PathSegmentNtNtBH_5token7PathSepEE3newBH_, symObjAddr: 0x14F4, symBinAddr: 0x21A58, symSize: 0x14 }
  - { offset: 0x62A32, size: 0x8, addend: 0x0, symName: __RNvMNtCsiTraAjBDcu4_5alloc3vecINtB2_3VecTNtNtCsc29TF2YcYso_3syn4path15GenericArgumentNtNtBH_5token5CommaEE3newBH_, symObjAddr: 0x1508, symBinAddr: 0x21A6C, symSize: 0x14 }
  - { offset: 0x62A4F, size: 0x8, addend: 0x0, symName: __RNvMNtCsiTraAjBDcu4_5alloc3vecINtB2_3VecTNtNtCsc29TF2YcYso_3syn8generics12GenericParamNtNtBH_5token5CommaEE3newBH_, symObjAddr: 0x151C, symBinAddr: 0x21A80, symSize: 0x14 }
  - { offset: 0x62A6C, size: 0x8, addend: 0x0, symName: __RNvMNtCsiTraAjBDcu4_5alloc3vecINtB2_3VecTNtNtCsc29TF2YcYso_3syn8generics13CapturedParamNtNtBH_5token5CommaEE3newBH_, symObjAddr: 0x1530, symBinAddr: 0x21A94, symSize: 0x14 }
  - { offset: 0x62A89, size: 0x8, addend: 0x0, symName: __RNvMNtCsiTraAjBDcu4_5alloc3vecINtB2_3VecTNtNtCsc29TF2YcYso_3syn8generics14TypeParamBoundNtNtBH_5token4PlusEE3newBH_, symObjAddr: 0x1544, symBinAddr: 0x21AA8, symSize: 0x14 }
  - { offset: 0x62AA6, size: 0x8, addend: 0x0, symName: __RNvMNtCsiTraAjBDcu4_5alloc3vecINtB2_3VecTNtNtCsc29TF2YcYso_3syn8generics14WherePredicateNtNtBH_5token5CommaEE3newBH_, symObjAddr: 0x1558, symBinAddr: 0x21ABC, symSize: 0x14 }
  - { offset: 0x62AC3, size: 0x8, addend: 0x0, symName: __RNvMNtCsiTraAjBDcu4_5alloc3vecINtB2_3VecTNtNtCsc29TF2YcYso_3syn8lifetime8LifetimeNtNtBH_5token4PlusEE3newBH_, symObjAddr: 0x156C, symBinAddr: 0x21AD0, symSize: 0x14 }
  - { offset: 0x62AE0, size: 0x8, addend: 0x0, symName: __RNvMNtCsiTraAjBDcu4_5alloc3vecINtB2_3VechE3newCsc29TF2YcYso_3syn, symObjAddr: 0x1580, symBinAddr: 0x21AE4, symSize: 0x14 }
  - { offset: 0x62BE4, size: 0x8, addend: 0x0, symName: __RNvMs0_NtCsiTraAjBDcu4_5alloc3vecINtB5_3VechE17extend_from_sliceCsc29TF2YcYso_3syn, symObjAddr: 0x1594, symBinAddr: 0x21AF8, symSize: 0x74 }
  - { offset: 0x62E4E, size: 0x8, addend: 0x0, symName: __RNvMs0_NtCsiTraAjBDcu4_5alloc3vecINtB5_3VechE6resizeCsc29TF2YcYso_3syn, symObjAddr: 0x1608, symBinAddr: 0x21B6C, symSize: 0x100 }
  - { offset: 0x630EF, size: 0x8, addend: 0x0, symName: __RNvMs2_NtCsiTraAjBDcu4_5alloc3vecINtB5_3VechE11extend_withCsc29TF2YcYso_3syn, symObjAddr: 0x1708, symBinAddr: 0x21C6C, symSize: 0x22C }
  - { offset: 0x634DD, size: 0x8, addend: 0x0, symName: __RNvMs_NtCsiTraAjBDcu4_5alloc3vecINtB4_3VecNtNtCsc29TF2YcYso_3syn4attr9AttributeE15append_elementsBI_, symObjAddr: 0x1934, symBinAddr: 0x21E98, symSize: 0xE0 }
  - { offset: 0x6374E, size: 0x8, addend: 0x0, symName: __RNvMs_NtCsiTraAjBDcu4_5alloc3vecINtB4_3VecNtNtCsc29TF2YcYso_3syn4attr9AttributeE4pushBI_, symObjAddr: 0x1A14, symBinAddr: 0x21F78, symSize: 0x118 }
  - { offset: 0x639EA, size: 0x8, addend: 0x0, symName: __RNvMs_NtCsiTraAjBDcu4_5alloc3vecINtB4_3VecNtNtCsc29TF2YcYso_3syn4attr9AttributeE6appendBI_, symObjAddr: 0x1B2C, symBinAddr: 0x22090, symSize: 0x94 }
  - { offset: 0x63C1F, size: 0x8, addend: 0x0, symName: __RNvMs_NtCsiTraAjBDcu4_5alloc3vecINtB4_3VecNtNtCsc29TF2YcYso_3syn4attr9AttributeE7reserveBI_, symObjAddr: 0x1BC0, symBinAddr: 0x22124, symSize: 0xC8 }
  - { offset: 0x63DF6, size: 0x8, addend: 0x0, symName: __RNvMs_NtCsiTraAjBDcu4_5alloc3vecINtB4_3VecNtNtCsc29TF2YcYso_3syn4attr9AttributeE8as_sliceBI_, symObjAddr: 0x1C88, symBinAddr: 0x221EC, symSize: 0x6C }
  - { offset: 0x63ED5, size: 0x8, addend: 0x0, symName: __RNvMs_NtCsiTraAjBDcu4_5alloc3vecINtB4_3VecNtNtCsc29TF2YcYso_3syn4attr9AttributeE8is_emptyBI_, symObjAddr: 0x1CF4, symBinAddr: 0x22258, symSize: 0x20 }
  - { offset: 0x63F35, size: 0x8, addend: 0x0, symName: __RNvMs_NtCsiTraAjBDcu4_5alloc3vecINtB4_3VecNtNtCsc29TF2YcYso_3syn4expr3ArmE3lenBI_, symObjAddr: 0x1DDC, symBinAddr: 0x22278, symSize: 0x18 }
  - { offset: 0x6407D, size: 0x8, addend: 0x0, symName: __RNvMs_NtCsiTraAjBDcu4_5alloc3vecINtB4_3VecNtNtCsc29TF2YcYso_3syn4expr3ArmE4pushBI_, symObjAddr: 0x1DF4, symBinAddr: 0x22290, symSize: 0x120 }
  - { offset: 0x642CB, size: 0x8, addend: 0x0, symName: __RNvMs_NtCsiTraAjBDcu4_5alloc3vecINtB4_3VecNtNtCsc29TF2YcYso_3syn4expr3ArmE8as_sliceBI_, symObjAddr: 0x1F14, symBinAddr: 0x223B0, symSize: 0x6C }
  - { offset: 0x644DF, size: 0x8, addend: 0x0, symName: __RNvMs_NtCsiTraAjBDcu4_5alloc3vecINtB4_3VecNtNtCsc29TF2YcYso_3syn4expr6ExprIfE3popBI_, symObjAddr: 0x1F80, symBinAddr: 0x2241C, symSize: 0x108 }
  - { offset: 0x64753, size: 0x8, addend: 0x0, symName: __RNvMs_NtCsiTraAjBDcu4_5alloc3vecINtB4_3VecNtNtCsc29TF2YcYso_3syn4expr6ExprIfE4pushBI_, symObjAddr: 0x2088, symBinAddr: 0x22524, symSize: 0x120 }
  - { offset: 0x64A1D, size: 0x8, addend: 0x0, symName: __RNvMs_NtCsiTraAjBDcu4_5alloc3vecINtB4_3VecNtNtCsc29TF2YcYso_3syn4item11ForeignItemE4pushBI_, symObjAddr: 0x21A8, symBinAddr: 0x22644, symSize: 0x120 }
  - { offset: 0x64CE7, size: 0x8, addend: 0x0, symName: __RNvMs_NtCsiTraAjBDcu4_5alloc3vecINtB4_3VecNtNtCsc29TF2YcYso_3syn4item4ItemE4pushBI_, symObjAddr: 0x22C8, symBinAddr: 0x22764, symSize: 0x120 }
  - { offset: 0x64FB1, size: 0x8, addend: 0x0, symName: __RNvMs_NtCsiTraAjBDcu4_5alloc3vecINtB4_3VecNtNtCsc29TF2YcYso_3syn4item8ImplItemE4pushBI_, symObjAddr: 0x23E8, symBinAddr: 0x22884, symSize: 0x120 }
  - { offset: 0x6527B, size: 0x8, addend: 0x0, symName: __RNvMs_NtCsiTraAjBDcu4_5alloc3vecINtB4_3VecNtNtCsc29TF2YcYso_3syn4item9TraitItemE4pushBI_, symObjAddr: 0x2508, symBinAddr: 0x229A4, symSize: 0x120 }
  - { offset: 0x65545, size: 0x8, addend: 0x0, symName: __RNvMs_NtCsiTraAjBDcu4_5alloc3vecINtB4_3VecNtNtCsc29TF2YcYso_3syn4stmt4StmtE4pushBI_, symObjAddr: 0x2628, symBinAddr: 0x22AC4, symSize: 0x120 }
  - { offset: 0x65757, size: 0x8, addend: 0x0, symName: __RNvMs_NtCsiTraAjBDcu4_5alloc3vecINtB4_3VecNtNtCsc29TF2YcYso_3syn5error12ErrorMessageE3lenBI_, symObjAddr: 0x2830, symBinAddr: 0x22BE4, symSize: 0x18 }
  - { offset: 0x65827, size: 0x8, addend: 0x0, symName: __RNvMs_NtCsiTraAjBDcu4_5alloc3vecINtB4_3VecNtNtCsc29TF2YcYso_3syn5error12ErrorMessageE8as_sliceBI_, symObjAddr: 0x2910, symBinAddr: 0x22BFC, symSize: 0x6C }
  - { offset: 0x65A0E, size: 0x8, addend: 0x0, symName: __RNvMs_NtCsiTraAjBDcu4_5alloc3vecINtB4_3VecNtNtCsc29TF2YcYso_3syn6buffer5EntryE13shrink_to_fitBI_, symObjAddr: 0x297C, symBinAddr: 0x22C68, symSize: 0xE8 }
  - { offset: 0x65C81, size: 0x8, addend: 0x0, symName: __RNvMs_NtCsiTraAjBDcu4_5alloc3vecINtB4_3VecNtNtCsc29TF2YcYso_3syn6buffer5EntryE16into_boxed_sliceBI_, symObjAddr: 0x2A64, symBinAddr: 0x22D50, symSize: 0x118 }
  - { offset: 0x65E4A, size: 0x8, addend: 0x0, symName: __RNvMs_NtCsiTraAjBDcu4_5alloc3vecINtB4_3VecNtNtCsc29TF2YcYso_3syn6buffer5EntryE3lenBI_, symObjAddr: 0x2B7C, symBinAddr: 0x22E68, symSize: 0x18 }
  - { offset: 0x65F6B, size: 0x8, addend: 0x0, symName: __RNvMs_NtCsiTraAjBDcu4_5alloc3vecINtB4_3VecNtNtCsc29TF2YcYso_3syn6buffer5EntryE4pushBI_, symObjAddr: 0x2B94, symBinAddr: 0x22E80, symSize: 0x100 }
  - { offset: 0x66235, size: 0x8, addend: 0x0, symName: __RNvMs_NtCsiTraAjBDcu4_5alloc3vecINtB4_3VecNtNtCsc29TF2YcYso_3syn8generics14TypeParamBoundE7reserveBI_, symObjAddr: 0x2C94, symBinAddr: 0x22F80, symSize: 0xC8 }
  - { offset: 0x6639C, size: 0x8, addend: 0x0, symName: __RNvMs_NtCsiTraAjBDcu4_5alloc3vecINtB4_3VecReE3lenCsc29TF2YcYso_3syn, symObjAddr: 0x2D5C, symBinAddr: 0x23048, symSize: 0x18 }
  - { offset: 0x664B0, size: 0x8, addend: 0x0, symName: __RNvMs_NtCsiTraAjBDcu4_5alloc3vecINtB4_3VecReE4pushCsc29TF2YcYso_3syn, symObjAddr: 0x2D74, symBinAddr: 0x23060, symSize: 0xF4 }
  - { offset: 0x666D3, size: 0x8, addend: 0x0, symName: __RNvMs_NtCsiTraAjBDcu4_5alloc3vecINtB4_3VecReE8as_sliceCsc29TF2YcYso_3syn, symObjAddr: 0x2E68, symBinAddr: 0x23154, symSize: 0x6C }
  - { offset: 0x6679A, size: 0x8, addend: 0x0, symName: __RNvMs_NtCsiTraAjBDcu4_5alloc3vecINtB4_3VecTNtNtCsc29TF2YcYso_3syn2ty4TypeNtNtBJ_5token5CommaEE3lenBJ_, symObjAddr: 0x2ED4, symBinAddr: 0x231C0, symSize: 0x18 }
  - { offset: 0x668E2, size: 0x8, addend: 0x0, symName: __RNvMs_NtCsiTraAjBDcu4_5alloc3vecINtB4_3VecTNtNtCsc29TF2YcYso_3syn2ty4TypeNtNtBJ_5token5CommaEE4pushBJ_, symObjAddr: 0x2EEC, symBinAddr: 0x231D8, symSize: 0x120 }
  - { offset: 0x66B30, size: 0x8, addend: 0x0, symName: __RNvMs_NtCsiTraAjBDcu4_5alloc3vecINtB4_3VecTNtNtCsc29TF2YcYso_3syn2ty4TypeNtNtBJ_5token5CommaEE8as_sliceBJ_, symObjAddr: 0x300C, symBinAddr: 0x232F8, symSize: 0x6C }
  - { offset: 0x66BF7, size: 0x8, addend: 0x0, symName: __RNvMs_NtCsiTraAjBDcu4_5alloc3vecINtB4_3VecTNtNtCsc29TF2YcYso_3syn2ty9BareFnArgNtNtBJ_5token5CommaEE3lenBJ_, symObjAddr: 0x3078, symBinAddr: 0x23364, symSize: 0x18 }
  - { offset: 0x66D3F, size: 0x8, addend: 0x0, symName: __RNvMs_NtCsiTraAjBDcu4_5alloc3vecINtB4_3VecTNtNtCsc29TF2YcYso_3syn2ty9BareFnArgNtNtBJ_5token5CommaEE4pushBJ_, symObjAddr: 0x3090, symBinAddr: 0x2337C, symSize: 0x120 }
  - { offset: 0x66F8D, size: 0x8, addend: 0x0, symName: __RNvMs_NtCsiTraAjBDcu4_5alloc3vecINtB4_3VecTNtNtCsc29TF2YcYso_3syn2ty9BareFnArgNtNtBJ_5token5CommaEE8as_sliceBJ_, symObjAddr: 0x31B0, symBinAddr: 0x2349C, symSize: 0x6C }
  - { offset: 0x6715A, size: 0x8, addend: 0x0, symName: __RNvMs_NtCsiTraAjBDcu4_5alloc3vecINtB4_3VecTNtNtCsc29TF2YcYso_3syn3pat3PatNtNtBJ_5token2OrEE4pushBJ_, symObjAddr: 0x321C, symBinAddr: 0x23508, symSize: 0x120 }
  - { offset: 0x673B5, size: 0x8, addend: 0x0, symName: __RNvMs_NtCsiTraAjBDcu4_5alloc3vecINtB4_3VecTNtNtCsc29TF2YcYso_3syn3pat3PatNtNtBJ_5token2OrEE8as_sliceBJ_, symObjAddr: 0x333C, symBinAddr: 0x23628, symSize: 0x6C }
  - { offset: 0x6747C, size: 0x8, addend: 0x0, symName: __RNvMs_NtCsiTraAjBDcu4_5alloc3vecINtB4_3VecTNtNtCsc29TF2YcYso_3syn3pat3PatNtNtBJ_5token5CommaEE3lenBJ_, symObjAddr: 0x33A8, symBinAddr: 0x23694, symSize: 0x18 }
  - { offset: 0x675C4, size: 0x8, addend: 0x0, symName: __RNvMs_NtCsiTraAjBDcu4_5alloc3vecINtB4_3VecTNtNtCsc29TF2YcYso_3syn3pat3PatNtNtBJ_5token5CommaEE4pushBJ_, symObjAddr: 0x33C0, symBinAddr: 0x236AC, symSize: 0x120 }
  - { offset: 0x67812, size: 0x8, addend: 0x0, symName: __RNvMs_NtCsiTraAjBDcu4_5alloc3vecINtB4_3VecTNtNtCsc29TF2YcYso_3syn3pat3PatNtNtBJ_5token5CommaEE8as_sliceBJ_, symObjAddr: 0x34E0, symBinAddr: 0x237CC, symSize: 0x6C }
  - { offset: 0x679DF, size: 0x8, addend: 0x0, symName: __RNvMs_NtCsiTraAjBDcu4_5alloc3vecINtB4_3VecTNtNtCsc29TF2YcYso_3syn3pat8FieldPatNtNtBJ_5token5CommaEE4pushBJ_, symObjAddr: 0x354C, symBinAddr: 0x23838, symSize: 0x118 }
  - { offset: 0x67C38, size: 0x8, addend: 0x0, symName: __RNvMs_NtCsiTraAjBDcu4_5alloc3vecINtB4_3VecTNtNtCsc29TF2YcYso_3syn3pat8FieldPatNtNtBJ_5token5CommaEE8as_sliceBJ_, symObjAddr: 0x3664, symBinAddr: 0x23950, symSize: 0x6C }
  - { offset: 0x67E2C, size: 0x8, addend: 0x0, symName: __RNvMs_NtCsiTraAjBDcu4_5alloc3vecINtB4_3VecTNtNtCsc29TF2YcYso_3syn4data5FieldNtNtBJ_5token5CommaEE4pushBJ_, symObjAddr: 0x3754, symBinAddr: 0x239BC, symSize: 0x120 }
  - { offset: 0x68071, size: 0x8, addend: 0x0, symName: __RNvMs_NtCsiTraAjBDcu4_5alloc3vecINtB4_3VecTNtNtCsc29TF2YcYso_3syn4data5FieldNtNtBJ_5token5CommaEE8as_sliceBJ_, symObjAddr: 0x3874, symBinAddr: 0x23ADC, symSize: 0x6C }
  - { offset: 0x6823E, size: 0x8, addend: 0x0, symName: __RNvMs_NtCsiTraAjBDcu4_5alloc3vecINtB4_3VecTNtNtCsc29TF2YcYso_3syn4data7VariantNtNtBJ_5token5CommaEE4pushBJ_, symObjAddr: 0x38F8, symBinAddr: 0x23B48, symSize: 0x120 }
  - { offset: 0x68499, size: 0x8, addend: 0x0, symName: __RNvMs_NtCsiTraAjBDcu4_5alloc3vecINtB4_3VecTNtNtCsc29TF2YcYso_3syn4data7VariantNtNtBJ_5token5CommaEE8as_sliceBJ_, symObjAddr: 0x3A18, symBinAddr: 0x23C68, symSize: 0x6C }
  - { offset: 0x68666, size: 0x8, addend: 0x0, symName: __RNvMs_NtCsiTraAjBDcu4_5alloc3vecINtB4_3VecTNtNtCsc29TF2YcYso_3syn4expr10FieldValueNtNtBJ_5token5CommaEE4pushBJ_, symObjAddr: 0x3A84, symBinAddr: 0x23CD4, symSize: 0x120 }
  - { offset: 0x688C1, size: 0x8, addend: 0x0, symName: __RNvMs_NtCsiTraAjBDcu4_5alloc3vecINtB4_3VecTNtNtCsc29TF2YcYso_3syn4expr10FieldValueNtNtBJ_5token5CommaEE8as_sliceBJ_, symObjAddr: 0x3BA4, symBinAddr: 0x23DF4, symSize: 0x6C }
  - { offset: 0x68988, size: 0x8, addend: 0x0, symName: __RNvMs_NtCsiTraAjBDcu4_5alloc3vecINtB4_3VecTNtNtCsc29TF2YcYso_3syn4expr4ExprNtNtBJ_5token5CommaEE3lenBJ_, symObjAddr: 0x3C10, symBinAddr: 0x23E60, symSize: 0x18 }
  - { offset: 0x68AD0, size: 0x8, addend: 0x0, symName: __RNvMs_NtCsiTraAjBDcu4_5alloc3vecINtB4_3VecTNtNtCsc29TF2YcYso_3syn4expr4ExprNtNtBJ_5token5CommaEE4pushBJ_, symObjAddr: 0x3C28, symBinAddr: 0x23E78, symSize: 0x120 }
  - { offset: 0x68D1E, size: 0x8, addend: 0x0, symName: __RNvMs_NtCsiTraAjBDcu4_5alloc3vecINtB4_3VecTNtNtCsc29TF2YcYso_3syn4expr4ExprNtNtBJ_5token5CommaEE8as_sliceBJ_, symObjAddr: 0x3D48, symBinAddr: 0x23F98, symSize: 0x6C }
  - { offset: 0x68DE5, size: 0x8, addend: 0x0, symName: __RNvMs_NtCsiTraAjBDcu4_5alloc3vecINtB4_3VecTNtNtCsc29TF2YcYso_3syn4item5FnArgNtNtBJ_5token5CommaEE3lenBJ_, symObjAddr: 0x3DB4, symBinAddr: 0x24004, symSize: 0x18 }
  - { offset: 0x68F2D, size: 0x8, addend: 0x0, symName: __RNvMs_NtCsiTraAjBDcu4_5alloc3vecINtB4_3VecTNtNtCsc29TF2YcYso_3syn4item5FnArgNtNtBJ_5token5CommaEE4pushBJ_, symObjAddr: 0x3DCC, symBinAddr: 0x2401C, symSize: 0x120 }
  - { offset: 0x6917B, size: 0x8, addend: 0x0, symName: __RNvMs_NtCsiTraAjBDcu4_5alloc3vecINtB4_3VecTNtNtCsc29TF2YcYso_3syn4item5FnArgNtNtBJ_5token5CommaEE8as_sliceBJ_, symObjAddr: 0x3EEC, symBinAddr: 0x2413C, symSize: 0x6C }
  - { offset: 0x69348, size: 0x8, addend: 0x0, symName: __RNvMs_NtCsiTraAjBDcu4_5alloc3vecINtB4_3VecTNtNtCsc29TF2YcYso_3syn4item7UseTreeNtNtBJ_5token5CommaEE4pushBJ_, symObjAddr: 0x3F58, symBinAddr: 0x241A8, symSize: 0x118 }
  - { offset: 0x695A1, size: 0x8, addend: 0x0, symName: __RNvMs_NtCsiTraAjBDcu4_5alloc3vecINtB4_3VecTNtNtCsc29TF2YcYso_3syn4item7UseTreeNtNtBJ_5token5CommaEE8as_sliceBJ_, symObjAddr: 0x4070, symBinAddr: 0x242C0, symSize: 0x6C }
  - { offset: 0x69736, size: 0x8, addend: 0x0, symName: __RNvMs_NtCsiTraAjBDcu4_5alloc3vecINtB4_3VecTNtNtCsc29TF2YcYso_3syn4path11PathSegmentNtNtBJ_5token7PathSepEE12as_mut_sliceBJ_, symObjAddr: 0x40DC, symBinAddr: 0x2432C, symSize: 0x6C }
  - { offset: 0x69812, size: 0x8, addend: 0x0, symName: __RNvMs_NtCsiTraAjBDcu4_5alloc3vecINtB4_3VecTNtNtCsc29TF2YcYso_3syn4path11PathSegmentNtNtBJ_5token7PathSepEE3lenBJ_, symObjAddr: 0x4148, symBinAddr: 0x24398, symSize: 0x18 }
  - { offset: 0x69960, size: 0x8, addend: 0x0, symName: __RNvMs_NtCsiTraAjBDcu4_5alloc3vecINtB4_3VecTNtNtCsc29TF2YcYso_3syn4path11PathSegmentNtNtBJ_5token7PathSepEE3popBJ_, symObjAddr: 0x4160, symBinAddr: 0x243B0, symSize: 0x10C }
  - { offset: 0x69BD4, size: 0x8, addend: 0x0, symName: __RNvMs_NtCsiTraAjBDcu4_5alloc3vecINtB4_3VecTNtNtCsc29TF2YcYso_3syn4path11PathSegmentNtNtBJ_5token7PathSepEE4pushBJ_, symObjAddr: 0x426C, symBinAddr: 0x244BC, symSize: 0x120 }
  - { offset: 0x69E19, size: 0x8, addend: 0x0, symName: __RNvMs_NtCsiTraAjBDcu4_5alloc3vecINtB4_3VecTNtNtCsc29TF2YcYso_3syn4path11PathSegmentNtNtBJ_5token7PathSepEE8as_sliceBJ_, symObjAddr: 0x438C, symBinAddr: 0x245DC, symSize: 0x6C }
  - { offset: 0x69EE0, size: 0x8, addend: 0x0, symName: __RNvMs_NtCsiTraAjBDcu4_5alloc3vecINtB4_3VecTNtNtCsc29TF2YcYso_3syn4path15GenericArgumentNtNtBJ_5token5CommaEE3lenBJ_, symObjAddr: 0x43F8, symBinAddr: 0x24648, symSize: 0x18 }
  - { offset: 0x6A028, size: 0x8, addend: 0x0, symName: __RNvMs_NtCsiTraAjBDcu4_5alloc3vecINtB4_3VecTNtNtCsc29TF2YcYso_3syn4path15GenericArgumentNtNtBJ_5token5CommaEE4pushBJ_, symObjAddr: 0x4410, symBinAddr: 0x24660, symSize: 0x120 }
  - { offset: 0x6A276, size: 0x8, addend: 0x0, symName: __RNvMs_NtCsiTraAjBDcu4_5alloc3vecINtB4_3VecTNtNtCsc29TF2YcYso_3syn4path15GenericArgumentNtNtBJ_5token5CommaEE8as_sliceBJ_, symObjAddr: 0x4530, symBinAddr: 0x24780, symSize: 0x6C }
  - { offset: 0x6A398, size: 0x8, addend: 0x0, symName: __RNvMs_NtCsiTraAjBDcu4_5alloc3vecINtB4_3VecTNtNtCsc29TF2YcYso_3syn8generics12GenericParamNtNtBJ_5token5CommaEE3lenBJ_, symObjAddr: 0x4608, symBinAddr: 0x247EC, symSize: 0x18 }
  - { offset: 0x6A4AC, size: 0x8, addend: 0x0, symName: __RNvMs_NtCsiTraAjBDcu4_5alloc3vecINtB4_3VecTNtNtCsc29TF2YcYso_3syn8generics12GenericParamNtNtBJ_5token5CommaEE4pushBJ_, symObjAddr: 0x4620, symBinAddr: 0x24804, symSize: 0x120 }
  - { offset: 0x6A6F1, size: 0x8, addend: 0x0, symName: __RNvMs_NtCsiTraAjBDcu4_5alloc3vecINtB4_3VecTNtNtCsc29TF2YcYso_3syn8generics12GenericParamNtNtBJ_5token5CommaEE8as_sliceBJ_, symObjAddr: 0x4740, symBinAddr: 0x24924, symSize: 0x6C }
  - { offset: 0x6A8BE, size: 0x8, addend: 0x0, symName: __RNvMs_NtCsiTraAjBDcu4_5alloc3vecINtB4_3VecTNtNtCsc29TF2YcYso_3syn8generics13CapturedParamNtNtBJ_5token5CommaEE4pushBJ_, symObjAddr: 0x47AC, symBinAddr: 0x24990, symSize: 0x118 }
  - { offset: 0x6AB17, size: 0x8, addend: 0x0, symName: __RNvMs_NtCsiTraAjBDcu4_5alloc3vecINtB4_3VecTNtNtCsc29TF2YcYso_3syn8generics13CapturedParamNtNtBJ_5token5CommaEE8as_sliceBJ_, symObjAddr: 0x48C4, symBinAddr: 0x24AA8, symSize: 0x6C }
  - { offset: 0x6ABDE, size: 0x8, addend: 0x0, symName: __RNvMs_NtCsiTraAjBDcu4_5alloc3vecINtB4_3VecTNtNtCsc29TF2YcYso_3syn8generics14TypeParamBoundNtNtBJ_5token4PlusEE3lenBJ_, symObjAddr: 0x4930, symBinAddr: 0x24B14, symSize: 0x18 }
  - { offset: 0x6AD19, size: 0x8, addend: 0x0, symName: __RNvMs_NtCsiTraAjBDcu4_5alloc3vecINtB4_3VecTNtNtCsc29TF2YcYso_3syn8generics14TypeParamBoundNtNtBJ_5token4PlusEE4pushBJ_, symObjAddr: 0x4948, symBinAddr: 0x24B2C, symSize: 0x118 }
  - { offset: 0x6AF67, size: 0x8, addend: 0x0, symName: __RNvMs_NtCsiTraAjBDcu4_5alloc3vecINtB4_3VecTNtNtCsc29TF2YcYso_3syn8generics14TypeParamBoundNtNtBJ_5token4PlusEE8as_sliceBJ_, symObjAddr: 0x4A60, symBinAddr: 0x24C44, symSize: 0x6C }
  - { offset: 0x6B02E, size: 0x8, addend: 0x0, symName: __RNvMs_NtCsiTraAjBDcu4_5alloc3vecINtB4_3VecTNtNtCsc29TF2YcYso_3syn8generics14WherePredicateNtNtBJ_5token5CommaEE3lenBJ_, symObjAddr: 0x4ACC, symBinAddr: 0x24CB0, symSize: 0x18 }
  - { offset: 0x6B176, size: 0x8, addend: 0x0, symName: __RNvMs_NtCsiTraAjBDcu4_5alloc3vecINtB4_3VecTNtNtCsc29TF2YcYso_3syn8generics14WherePredicateNtNtBJ_5token5CommaEE4pushBJ_, symObjAddr: 0x4AE4, symBinAddr: 0x24CC8, symSize: 0x120 }
  - { offset: 0x6B3C4, size: 0x8, addend: 0x0, symName: __RNvMs_NtCsiTraAjBDcu4_5alloc3vecINtB4_3VecTNtNtCsc29TF2YcYso_3syn8generics14WherePredicateNtNtBJ_5token5CommaEE8as_sliceBJ_, symObjAddr: 0x4C04, symBinAddr: 0x24DE8, symSize: 0x6C }
  - { offset: 0x6B48B, size: 0x8, addend: 0x0, symName: __RNvMs_NtCsiTraAjBDcu4_5alloc3vecINtB4_3VecTNtNtCsc29TF2YcYso_3syn8lifetime8LifetimeNtNtBJ_5token4PlusEE3lenBJ_, symObjAddr: 0x4C70, symBinAddr: 0x24E54, symSize: 0x18 }
  - { offset: 0x6B5D3, size: 0x8, addend: 0x0, symName: __RNvMs_NtCsiTraAjBDcu4_5alloc3vecINtB4_3VecTNtNtCsc29TF2YcYso_3syn8lifetime8LifetimeNtNtBJ_5token4PlusEE4pushBJ_, symObjAddr: 0x4C88, symBinAddr: 0x24E6C, symSize: 0x118 }
  - { offset: 0x6B81F, size: 0x8, addend: 0x0, symName: __RNvMs_NtCsiTraAjBDcu4_5alloc3vecINtB4_3VecTNtNtCsc29TF2YcYso_3syn8lifetime8LifetimeNtNtBJ_5token4PlusEE8as_sliceBJ_, symObjAddr: 0x4DA0, symBinAddr: 0x24F84, symSize: 0x6C }
  - { offset: 0x6B9DF, size: 0x8, addend: 0x0, symName: __RNvMs_NtCsiTraAjBDcu4_5alloc3vecINtB4_3VechE13shrink_to_fitCsc29TF2YcYso_3syn, symObjAddr: 0x4E0C, symBinAddr: 0x24FF0, symSize: 0xE0 }
  - { offset: 0x6BC0D, size: 0x8, addend: 0x0, symName: __RNvMs_NtCsiTraAjBDcu4_5alloc3vecINtB4_3VechE16into_boxed_sliceCsc29TF2YcYso_3syn, symObjAddr: 0x4EEC, symBinAddr: 0x250D0, symSize: 0x118 }
  - { offset: 0x6BDD6, size: 0x8, addend: 0x0, symName: __RNvMs_NtCsiTraAjBDcu4_5alloc3vecINtB4_3VechE3lenCsc29TF2YcYso_3syn, symObjAddr: 0x5004, symBinAddr: 0x251E8, symSize: 0x18 }
  - { offset: 0x6BEEA, size: 0x8, addend: 0x0, symName: __RNvMs_NtCsiTraAjBDcu4_5alloc3vecINtB4_3VechE4pushCsc29TF2YcYso_3syn, symObjAddr: 0x501C, symBinAddr: 0x25200, symSize: 0xDC }
  - { offset: 0x6C10C, size: 0x8, addend: 0x0, symName: __RNvMs_NtCsiTraAjBDcu4_5alloc3vecINtB4_3VechE8as_sliceCsc29TF2YcYso_3syn, symObjAddr: 0x50F8, symBinAddr: 0x252DC, symSize: 0x68 }
  - { offset: 0x6C37C, size: 0x8, addend: 0x0, symName: __RNvMs_NtCsiTraAjBDcu4_5alloc3vecINtB4_3VechE9split_offCsc29TF2YcYso_3syn, symObjAddr: 0x5160, symBinAddr: 0x25344, symSize: 0x148 }
  - { offset: 0x70584, size: 0x8, addend: 0x0, symName: __RINvXNvMNtCsiTraAjBDcu4_5alloc5sliceSp9to_vec_inNtNtCsc29TF2YcYso_3syn4expr3ArmNtB3_10ConvertVec6to_vecNtNtB8_5alloc6GlobalEBO_, symObjAddr: 0x0, symBinAddr: 0x27DC0, symSize: 0x374 }
  - { offset: 0x7187A, size: 0x8, addend: 0x0, symName: __RINvXNvMNtCsiTraAjBDcu4_5alloc5sliceSp9to_vec_inNtNtCsc29TF2YcYso_3syn4expr3ArmNtB3_10ConvertVec6to_vecNtNtB8_5alloc6GlobalEBO_, symObjAddr: 0x0, symBinAddr: 0x27DC0, symSize: 0x374 }
  - { offset: 0x71D2F, size: 0x8, addend: 0x0, symName: __RINvXNvMNtCsiTraAjBDcu4_5alloc5sliceSp9to_vec_inTNtNtCsc29TF2YcYso_3syn4expr10FieldValueNtNtBP_5token5CommaENtB3_10ConvertVec6to_vecNtNtB8_5alloc6GlobalEBP_, symObjAddr: 0x374, symBinAddr: 0x28134, symSize: 0x374 }
  - { offset: 0x721E4, size: 0x8, addend: 0x0, symName: __RINvXNvMNtCsiTraAjBDcu4_5alloc5sliceSp9to_vec_inTNtNtCsc29TF2YcYso_3syn4expr4ExprNtNtBP_5token5CommaENtB3_10ConvertVec6to_vecNtNtB8_5alloc6GlobalEBP_, symObjAddr: 0x6E8, symBinAddr: 0x284A8, symSize: 0x374 }
  - { offset: 0x75215, size: 0x8, addend: 0x0, symName: __RNvXs1_NtCsc29TF2YcYso_3syn4exprNtB5_6MemberINtNtCsaNl6UpbT7bw_4core7convert4FromjE4from, symObjAddr: 0x27CC, symBinAddr: 0x2949C, symSize: 0x48 }
  - { offset: 0x75249, size: 0x8, addend: 0x0, symName: __RNvXs7_NtCsc29TF2YcYso_3syn4exprNtB5_5IndexINtNtCsaNl6UpbT7bw_4core7convert4FromjE4from, symObjAddr: 0x2AE4, symBinAddr: 0x29550, symSize: 0x84 }
  - { offset: 0x75282, size: 0x8, addend: 0x0, symName: __RNvXNtNtCsc29TF2YcYso_3syn4expr7parsingNtB4_4ExprNtNtB6_5parse5Parse5parse, symObjAddr: 0x2C1C, symBinAddr: 0x295D4, symSize: 0x3C }
  - { offset: 0x752B6, size: 0x8, addend: 0x0, symName: __RNvXs4_NtNtCsc29TF2YcYso_3syn4expr7parsingNtB7_7ExprLitNtNtB9_5parse5Parse5parse, symObjAddr: 0x36BC, symBinAddr: 0x29610, symSize: 0x14C }
  - { offset: 0x75309, size: 0x8, addend: 0x0, symName: __RNvXs7_NtNtCsc29TF2YcYso_3syn4expr7parsingNtB7_6ExprIfNtNtB9_5parse5Parse5parse, symObjAddr: 0x3AF0, symBinAddr: 0x2975C, symSize: 0x1040 }
  - { offset: 0x75580, size: 0x8, addend: 0x0, symName: __RNvXs8_NtNtCsc29TF2YcYso_3syn4expr7parsingNtB7_9ExprInferNtNtB9_5parse5Parse5parse, symObjAddr: 0x4B30, symBinAddr: 0x2A79C, symSize: 0x1D0 }
  - { offset: 0x75611, size: 0x8, addend: 0x0, symName: __RNvXs9_NtNtCsc29TF2YcYso_3syn4expr7parsingNtB7_11ExprForLoopNtNtB9_5parse5Parse5parse, symObjAddr: 0x4D00, symBinAddr: 0x2A96C, symSize: 0x9A4 }
  - { offset: 0x758E0, size: 0x8, addend: 0x0, symName: __RNvXsa_NtNtCsc29TF2YcYso_3syn4expr7parsingNtB7_8ExprLoopNtNtB9_5parse5Parse5parse, symObjAddr: 0x56A4, symBinAddr: 0x2B310, symSize: 0x590 }
  - { offset: 0x75A93, size: 0x8, addend: 0x0, symName: __RNvXsb_NtNtCsc29TF2YcYso_3syn4expr7parsingNtB7_9ExprMatchNtNtB9_5parse5Parse5parse, symObjAddr: 0x5C34, symBinAddr: 0x2B8A0, symSize: 0x60C }
  - { offset: 0x75C84, size: 0x8, addend: 0x0, symName: __RNvXsh_NtNtCsc29TF2YcYso_3syn4expr7parsingNtB7_10ExprReturnNtNtB9_5parse5Parse5parse, symObjAddr: 0x6A7C, symBinAddr: 0x2BEAC, symSize: 0x210 }
  - { offset: 0x75CE6, size: 0x8, addend: 0x0, symName: __RNvXsi_NtNtCsc29TF2YcYso_3syn4expr7parsingNtB7_12ExprTryBlockNtNtB9_5parse5Parse5parse, symObjAddr: 0x6C8C, symBinAddr: 0x2C0BC, symSize: 0x220 }
  - { offset: 0x75D58, size: 0x8, addend: 0x0, symName: __RNvXsj_NtNtCsc29TF2YcYso_3syn4expr7parsingNtB7_9ExprYieldNtNtB9_5parse5Parse5parse, symObjAddr: 0x6EAC, symBinAddr: 0x2C2DC, symSize: 0x210 }
  - { offset: 0x75DBA, size: 0x8, addend: 0x0, symName: __RNvXsk_NtNtCsc29TF2YcYso_3syn4expr7parsingNtB7_9ExprAsyncNtNtB9_5parse5Parse5parse, symObjAddr: 0x70BC, symBinAddr: 0x2C4EC, symSize: 0x2E8 }
  - { offset: 0x75E4B, size: 0x8, addend: 0x0, symName: __RNvXsl_NtNtCsc29TF2YcYso_3syn4expr7parsingNtB7_9ExprWhileNtNtB9_5parse5Parse5parse, symObjAddr: 0x73A4, symBinAddr: 0x2C7D4, symSize: 0x760 }
  - { offset: 0x76081, size: 0x8, addend: 0x0, symName: __RNvXsm_NtNtCsc29TF2YcYso_3syn4expr7parsingNtB7_9ExprConstNtNtB9_5parse5Parse5parse, symObjAddr: 0x7B04, symBinAddr: 0x2CF34, symSize: 0x3BC }
  - { offset: 0x761D7, size: 0x8, addend: 0x0, symName: __RNvXsn_NtNtCsc29TF2YcYso_3syn4expr7parsingNtB7_5LabelNtNtB9_5parse5Parse5parse, symObjAddr: 0x7EC0, symBinAddr: 0x2D2F0, symSize: 0x1D4 }
  - { offset: 0x76268, size: 0x8, addend: 0x0, symName: __RNvXsp_NtNtCsc29TF2YcYso_3syn4expr7parsingNtB7_12ExprContinueNtNtB9_5parse5Parse5parse, symObjAddr: 0x8094, symBinAddr: 0x2D4C4, symSize: 0x200 }
  - { offset: 0x762DA, size: 0x8, addend: 0x0, symName: __RNvXsq_NtNtCsc29TF2YcYso_3syn4expr7parsingNtB7_10FieldValueNtNtB9_5parse5Parse5parse, symObjAddr: 0x8294, symBinAddr: 0x2D6C4, symSize: 0x560 }
  - { offset: 0x76479, size: 0x8, addend: 0x0, symName: __RNvXss_NtNtCsc29TF2YcYso_3syn4expr7parsingNtB7_10ExprUnsafeNtNtB9_5parse5Parse5parse, symObjAddr: 0x89B4, symBinAddr: 0x2DC24, symSize: 0x3BC }
  - { offset: 0x765CF, size: 0x8, addend: 0x0, symName: __RNvXst_NtNtCsc29TF2YcYso_3syn4expr7parsingNtB7_9ExprBlockNtNtB9_5parse5Parse5parse, symObjAddr: 0x8D70, symBinAddr: 0x2DFE0, symSize: 0x4FC }
  - { offset: 0x76755, size: 0x8, addend: 0x0, symName: __RNvXsu_NtNtCsc29TF2YcYso_3syn4expr7parsingNtB7_11RangeLimitsNtNtB9_5parse5Parse5parse, symObjAddr: 0x926C, symBinAddr: 0x2E4DC, symSize: 0x234 }
  - { offset: 0x767E3, size: 0x8, addend: 0x0, symName: __RNvXsw_NtNtCsc29TF2YcYso_3syn4expr7parsingNtB7_8ExprPathNtNtB9_5parse5Parse5parse, symObjAddr: 0x97D4, symBinAddr: 0x2EA44, symSize: 0x238 }
  - { offset: 0x768D1, size: 0x8, addend: 0x0, symName: __RNvXsx_NtNtCsc29TF2YcYso_3syn4expr7parsingNtB7_6MemberNtNtB9_5parse5Parse5parse, symObjAddr: 0x9A0C, symBinAddr: 0x2EC7C, symSize: 0xFC }
  - { offset: 0x76905, size: 0x8, addend: 0x0, symName: __RNvXsz_NtNtCsc29TF2YcYso_3syn4expr7parsingNtB7_3ArmNtNtB9_5parse5Parse5parse, symObjAddr: 0x9CCC, symBinAddr: 0x2EF3C, symSize: 0x8EC }
  - { offset: 0x76B3D, size: 0x8, addend: 0x0, symName: __RNvXsA_NtNtCsc29TF2YcYso_3syn4expr7parsingNtB7_5IndexNtNtB9_5parse5Parse5parse, symObjAddr: 0xA5B8, symBinAddr: 0x2F828, symSize: 0x28C }
  - { offset: 0x76BEB, size: 0x8, addend: 0x0, symName: __RNvXNtNtCsc29TF2YcYso_3syn4expr8printingNtB4_9ExprArrayNtNtCs4EAaWzSXu1l_5quote9to_tokens8ToTokens9to_tokens, symObjAddr: 0xAAFC, symBinAddr: 0x2FAB4, symSize: 0x58 }
  - { offset: 0x76C2A, size: 0x8, addend: 0x0, symName: __RNvXs_NtNtCsc29TF2YcYso_3syn4expr8printingNtB6_10ExprAssignNtNtCs4EAaWzSXu1l_5quote9to_tokens8ToTokens9to_tokens, symObjAddr: 0xAB54, symBinAddr: 0x2FB0C, symSize: 0x58 }
  - { offset: 0x76C69, size: 0x8, addend: 0x0, symName: __RNvXs0_NtNtCsc29TF2YcYso_3syn4expr8printingNtB7_9ExprAsyncNtNtCs4EAaWzSXu1l_5quote9to_tokens8ToTokens9to_tokens, symObjAddr: 0xABAC, symBinAddr: 0x2FB64, symSize: 0x74 }
  - { offset: 0x76CA8, size: 0x8, addend: 0x0, symName: __RNvXs1_NtNtCsc29TF2YcYso_3syn4expr8printingNtB7_9ExprAwaitNtNtCs4EAaWzSXu1l_5quote9to_tokens8ToTokens9to_tokens, symObjAddr: 0xAC20, symBinAddr: 0x2FBD8, symSize: 0x58 }
  - { offset: 0x76CE7, size: 0x8, addend: 0x0, symName: __RNvXs2_NtNtCsc29TF2YcYso_3syn4expr8printingNtB7_10ExprBinaryNtNtCs4EAaWzSXu1l_5quote9to_tokens8ToTokens9to_tokens, symObjAddr: 0xAC78, symBinAddr: 0x2FC30, symSize: 0x58 }
  - { offset: 0x76D26, size: 0x8, addend: 0x0, symName: __RNvXs3_NtNtCsc29TF2YcYso_3syn4expr8printingNtB7_9ExprBlockNtNtCs4EAaWzSXu1l_5quote9to_tokens8ToTokens9to_tokens, symObjAddr: 0xACD0, symBinAddr: 0x2FC88, symSize: 0x68 }
  - { offset: 0x76D65, size: 0x8, addend: 0x0, symName: __RNvXs4_NtNtCsc29TF2YcYso_3syn4expr8printingNtB7_9ExprBreakNtNtCs4EAaWzSXu1l_5quote9to_tokens8ToTokens9to_tokens, symObjAddr: 0xAD38, symBinAddr: 0x2FCF0, symSize: 0x58 }
  - { offset: 0x76DA4, size: 0x8, addend: 0x0, symName: __RNvXs5_NtNtCsc29TF2YcYso_3syn4expr8printingNtB7_8ExprCallNtNtCs4EAaWzSXu1l_5quote9to_tokens8ToTokens9to_tokens, symObjAddr: 0xAD90, symBinAddr: 0x2FD48, symSize: 0x58 }
  - { offset: 0x76DE3, size: 0x8, addend: 0x0, symName: __RNvXs6_NtNtCsc29TF2YcYso_3syn4expr8printingNtB7_8ExprCastNtNtCs4EAaWzSXu1l_5quote9to_tokens8ToTokens9to_tokens, symObjAddr: 0xADE8, symBinAddr: 0x2FDA0, symSize: 0x58 }
  - { offset: 0x76E22, size: 0x8, addend: 0x0, symName: __RNvXs7_NtNtCsc29TF2YcYso_3syn4expr8printingNtB7_11ExprClosureNtNtCs4EAaWzSXu1l_5quote9to_tokens8ToTokens9to_tokens, symObjAddr: 0xAE40, symBinAddr: 0x2FDF8, symSize: 0x58 }
  - { offset: 0x76E61, size: 0x8, addend: 0x0, symName: __RNvXs8_NtNtCsc29TF2YcYso_3syn4expr8printingNtB7_9ExprConstNtNtCs4EAaWzSXu1l_5quote9to_tokens8ToTokens9to_tokens, symObjAddr: 0xAE98, symBinAddr: 0x2FE50, symSize: 0x68 }
  - { offset: 0x76EA0, size: 0x8, addend: 0x0, symName: __RNvXs9_NtNtCsc29TF2YcYso_3syn4expr8printingNtB7_12ExprContinueNtNtCs4EAaWzSXu1l_5quote9to_tokens8ToTokens9to_tokens, symObjAddr: 0xAF00, symBinAddr: 0x2FEB8, symSize: 0x64 }
  - { offset: 0x76EDF, size: 0x8, addend: 0x0, symName: __RNvXsa_NtNtCsc29TF2YcYso_3syn4expr8printingNtB7_9ExprFieldNtNtCs4EAaWzSXu1l_5quote9to_tokens8ToTokens9to_tokens, symObjAddr: 0xAF64, symBinAddr: 0x2FF1C, symSize: 0x58 }
  - { offset: 0x76F1E, size: 0x8, addend: 0x0, symName: __RNvXsb_NtNtCsc29TF2YcYso_3syn4expr8printingNtB7_11ExprForLoopNtNtCs4EAaWzSXu1l_5quote9to_tokens8ToTokens9to_tokens, symObjAddr: 0xAFBC, symBinAddr: 0x2FF74, symSize: 0x104 }
  - { offset: 0x76F5D, size: 0x8, addend: 0x0, symName: __RNvXsc_NtNtCsc29TF2YcYso_3syn4expr8printingNtB7_9ExprGroupNtNtCs4EAaWzSXu1l_5quote9to_tokens8ToTokens9to_tokens, symObjAddr: 0xB0C0, symBinAddr: 0x30078, symSize: 0x58 }
  - { offset: 0x76F9C, size: 0x8, addend: 0x0, symName: __RNvXsd_NtNtCsc29TF2YcYso_3syn4expr8printingNtB7_6ExprIfNtNtCs4EAaWzSXu1l_5quote9to_tokens8ToTokens9to_tokens, symObjAddr: 0xB118, symBinAddr: 0x300D0, symSize: 0x260 }
  - { offset: 0x77072, size: 0x8, addend: 0x0, symName: __RNvXse_NtNtCsc29TF2YcYso_3syn4expr8printingNtB7_9ExprIndexNtNtCs4EAaWzSXu1l_5quote9to_tokens8ToTokens9to_tokens, symObjAddr: 0xB378, symBinAddr: 0x30330, symSize: 0x58 }
  - { offset: 0x770B1, size: 0x8, addend: 0x0, symName: __RNvXsf_NtNtCsc29TF2YcYso_3syn4expr8printingNtB7_9ExprInferNtNtCs4EAaWzSXu1l_5quote9to_tokens8ToTokens9to_tokens, symObjAddr: 0xB3D0, symBinAddr: 0x30388, symSize: 0x54 }
  - { offset: 0x770F0, size: 0x8, addend: 0x0, symName: __RNvXsg_NtNtCsc29TF2YcYso_3syn4expr8printingNtB7_7ExprLetNtNtCs4EAaWzSXu1l_5quote9to_tokens8ToTokens9to_tokens, symObjAddr: 0xB424, symBinAddr: 0x303DC, symSize: 0x58 }
  - { offset: 0x7712F, size: 0x8, addend: 0x0, symName: __RNvXsh_NtNtCsc29TF2YcYso_3syn4expr8printingNtB7_7ExprLitNtNtCs4EAaWzSXu1l_5quote9to_tokens8ToTokens9to_tokens, symObjAddr: 0xB47C, symBinAddr: 0x30434, symSize: 0x54 }
  - { offset: 0x7716E, size: 0x8, addend: 0x0, symName: __RNvXsi_NtNtCsc29TF2YcYso_3syn4expr8printingNtB7_8ExprLoopNtNtCs4EAaWzSXu1l_5quote9to_tokens8ToTokens9to_tokens, symObjAddr: 0xB4D0, symBinAddr: 0x30488, symSize: 0x78 }
  - { offset: 0x771AD, size: 0x8, addend: 0x0, symName: __RNvXsj_NtNtCsc29TF2YcYso_3syn4expr8printingNtB7_9ExprMacroNtNtCs4EAaWzSXu1l_5quote9to_tokens8ToTokens9to_tokens, symObjAddr: 0xB548, symBinAddr: 0x30500, symSize: 0x54 }
  - { offset: 0x771EC, size: 0x8, addend: 0x0, symName: __RNvXsk_NtNtCsc29TF2YcYso_3syn4expr8printingNtB7_9ExprMatchNtNtCs4EAaWzSXu1l_5quote9to_tokens8ToTokens9to_tokens, symObjAddr: 0xB59C, symBinAddr: 0x30554, symSize: 0xD4 }
  - { offset: 0x7722B, size: 0x8, addend: 0x0, symName: __RNvXsl_NtNtCsc29TF2YcYso_3syn4expr8printingNtB7_14ExprMethodCallNtNtCs4EAaWzSXu1l_5quote9to_tokens8ToTokens9to_tokens, symObjAddr: 0xB670, symBinAddr: 0x30628, symSize: 0x58 }
  - { offset: 0x7726A, size: 0x8, addend: 0x0, symName: __RNvXsm_NtNtCsc29TF2YcYso_3syn4expr8printingNtB7_9ExprParenNtNtCs4EAaWzSXu1l_5quote9to_tokens8ToTokens9to_tokens, symObjAddr: 0xB6C8, symBinAddr: 0x30680, symSize: 0x58 }
  - { offset: 0x772A9, size: 0x8, addend: 0x0, symName: __RNvXsn_NtNtCsc29TF2YcYso_3syn4expr8printingNtB7_8ExprPathNtNtCs4EAaWzSXu1l_5quote9to_tokens8ToTokens9to_tokens, symObjAddr: 0xB720, symBinAddr: 0x306D8, symSize: 0x64 }
  - { offset: 0x772E8, size: 0x8, addend: 0x0, symName: __RNvXso_NtNtCsc29TF2YcYso_3syn4expr8printingNtB7_9ExprRangeNtNtCs4EAaWzSXu1l_5quote9to_tokens8ToTokens9to_tokens, symObjAddr: 0xB784, symBinAddr: 0x3073C, symSize: 0x58 }
  - { offset: 0x77327, size: 0x8, addend: 0x0, symName: __RNvXsp_NtNtCsc29TF2YcYso_3syn4expr8printingNtB7_11ExprRawAddrNtNtCs4EAaWzSXu1l_5quote9to_tokens8ToTokens9to_tokens, symObjAddr: 0xB7DC, symBinAddr: 0x30794, symSize: 0x58 }
  - { offset: 0x77366, size: 0x8, addend: 0x0, symName: __RNvXsq_NtNtCsc29TF2YcYso_3syn4expr8printingNtB7_13ExprReferenceNtNtCs4EAaWzSXu1l_5quote9to_tokens8ToTokens9to_tokens, symObjAddr: 0xB834, symBinAddr: 0x307EC, symSize: 0x58 }
  - { offset: 0x773A5, size: 0x8, addend: 0x0, symName: __RNvXsr_NtNtCsc29TF2YcYso_3syn4expr8printingNtB7_10ExprRepeatNtNtCs4EAaWzSXu1l_5quote9to_tokens8ToTokens9to_tokens, symObjAddr: 0xB88C, symBinAddr: 0x30844, symSize: 0x58 }
  - { offset: 0x773E4, size: 0x8, addend: 0x0, symName: __RNvXss_NtNtCsc29TF2YcYso_3syn4expr8printingNtB7_10ExprReturnNtNtCs4EAaWzSXu1l_5quote9to_tokens8ToTokens9to_tokens, symObjAddr: 0xB8E4, symBinAddr: 0x3089C, symSize: 0x58 }
  - { offset: 0x77423, size: 0x8, addend: 0x0, symName: __RNvXst_NtNtCsc29TF2YcYso_3syn4expr8printingNtB7_10ExprStructNtNtCs4EAaWzSXu1l_5quote9to_tokens8ToTokens9to_tokens, symObjAddr: 0xB93C, symBinAddr: 0x308F4, symSize: 0x78 }
  - { offset: 0x77462, size: 0x8, addend: 0x0, symName: __RNvXsu_NtNtCsc29TF2YcYso_3syn4expr8printingNtB7_7ExprTryNtNtCs4EAaWzSXu1l_5quote9to_tokens8ToTokens9to_tokens, symObjAddr: 0xB9B4, symBinAddr: 0x3096C, symSize: 0x58 }
  - { offset: 0x774A1, size: 0x8, addend: 0x0, symName: __RNvXsv_NtNtCsc29TF2YcYso_3syn4expr8printingNtB7_12ExprTryBlockNtNtCs4EAaWzSXu1l_5quote9to_tokens8ToTokens9to_tokens, symObjAddr: 0xBA0C, symBinAddr: 0x309C4, symSize: 0x64 }
  - { offset: 0x774E0, size: 0x8, addend: 0x0, symName: __RNvXsw_NtNtCsc29TF2YcYso_3syn4expr8printingNtB7_9ExprTupleNtNtCs4EAaWzSXu1l_5quote9to_tokens8ToTokens9to_tokens, symObjAddr: 0xBA70, symBinAddr: 0x30A28, symSize: 0x58 }
  - { offset: 0x7751F, size: 0x8, addend: 0x0, symName: __RNvXsx_NtNtCsc29TF2YcYso_3syn4expr8printingNtB7_9ExprUnaryNtNtCs4EAaWzSXu1l_5quote9to_tokens8ToTokens9to_tokens, symObjAddr: 0xBAC8, symBinAddr: 0x30A80, symSize: 0x58 }
  - { offset: 0x7755E, size: 0x8, addend: 0x0, symName: __RNvXsy_NtNtCsc29TF2YcYso_3syn4expr8printingNtB7_10ExprUnsafeNtNtCs4EAaWzSXu1l_5quote9to_tokens8ToTokens9to_tokens, symObjAddr: 0xBB20, symBinAddr: 0x30AD8, symSize: 0x68 }
  - { offset: 0x7759D, size: 0x8, addend: 0x0, symName: __RNvXsz_NtNtCsc29TF2YcYso_3syn4expr8printingNtB7_9ExprWhileNtNtCs4EAaWzSXu1l_5quote9to_tokens8ToTokens9to_tokens, symObjAddr: 0xBB88, symBinAddr: 0x30B40, symSize: 0xE4 }
  - { offset: 0x775DC, size: 0x8, addend: 0x0, symName: __RNvXsA_NtNtCsc29TF2YcYso_3syn4expr8printingNtB7_9ExprYieldNtNtCs4EAaWzSXu1l_5quote9to_tokens8ToTokens9to_tokens, symObjAddr: 0xBC6C, symBinAddr: 0x30C24, symSize: 0x58 }
  - { offset: 0x7761B, size: 0x8, addend: 0x0, symName: __RNvXsB_NtNtCsc29TF2YcYso_3syn4expr8printingNtB7_3ArmNtNtCs4EAaWzSXu1l_5quote9to_tokens8ToTokens9to_tokens, symObjAddr: 0xBCC4, symBinAddr: 0x30C7C, symSize: 0x14C }
  - { offset: 0x77688, size: 0x8, addend: 0x0, symName: __RNvXsC_NtNtCsc29TF2YcYso_3syn4expr8printingNtB7_10FieldValueNtNtCs4EAaWzSXu1l_5quote9to_tokens8ToTokens9to_tokens, symObjAddr: 0xBE10, symBinAddr: 0x30DC8, symSize: 0xB4 }
  - { offset: 0x776E5, size: 0x8, addend: 0x0, symName: __RNvXsD_NtNtCsc29TF2YcYso_3syn4expr8printingNtB7_5IndexNtNtCs4EAaWzSXu1l_5quote9to_tokens8ToTokens9to_tokens, symObjAddr: 0xBEC4, symBinAddr: 0x30E7C, symSize: 0xD4 }
  - { offset: 0x7773A, size: 0x8, addend: 0x0, symName: __RNvXsE_NtNtCsc29TF2YcYso_3syn4expr8printingNtB7_5LabelNtNtCs4EAaWzSXu1l_5quote9to_tokens8ToTokens9to_tokens, symObjAddr: 0xBF98, symBinAddr: 0x30F50, symSize: 0x50 }
  - { offset: 0x77779, size: 0x8, addend: 0x0, symName: __RNvXsF_NtNtCsc29TF2YcYso_3syn4expr8printingNtB7_6MemberNtNtCs4EAaWzSXu1l_5quote9to_tokens8ToTokens9to_tokens, symObjAddr: 0xBFE8, symBinAddr: 0x30FA0, symSize: 0x98 }
  - { offset: 0x777EC, size: 0x8, addend: 0x0, symName: __RNvXsG_NtNtCsc29TF2YcYso_3syn4expr8printingNtB7_11RangeLimitsNtNtCs4EAaWzSXu1l_5quote9to_tokens8ToTokens9to_tokens, symObjAddr: 0xC080, symBinAddr: 0x31038, symSize: 0x9C }
  - { offset: 0x7785F, size: 0x8, addend: 0x0, symName: __RNvXsH_NtNtCsc29TF2YcYso_3syn4expr8printingNtB7_17PointerMutabilityNtNtCs4EAaWzSXu1l_5quote9to_tokens8ToTokens9to_tokens, symObjAddr: 0xC11C, symBinAddr: 0x310D4, symSize: 0x9C }
  - { offset: 0x778D8, size: 0x8, addend: 0x0, symName: __RNcNtNtNtCsc29TF2YcYso_3syn4expr4Expr5Async0B7_, symObjAddr: 0xC1B8, symBinAddr: 0x31170, symSize: 0x3C }
  - { offset: 0x77907, size: 0x8, addend: 0x0, symName: __RNcNtNtNtCsc29TF2YcYso_3syn4expr4Expr5Block0B7_, symObjAddr: 0xC1F4, symBinAddr: 0x311AC, symSize: 0x3C }
  - { offset: 0x77936, size: 0x8, addend: 0x0, symName: __RNcNtNtNtCsc29TF2YcYso_3syn4expr4Expr5Break0B7_, symObjAddr: 0xC230, symBinAddr: 0x311E8, symSize: 0x3C }
  - { offset: 0x77965, size: 0x8, addend: 0x0, symName: __RNcNtNtNtCsc29TF2YcYso_3syn4expr4Expr7Closure0B7_, symObjAddr: 0xC26C, symBinAddr: 0x31224, symSize: 0x3C }
  - { offset: 0x77994, size: 0x8, addend: 0x0, symName: __RNcNtNtNtCsc29TF2YcYso_3syn4expr4Expr5Const0B7_, symObjAddr: 0xC2A8, symBinAddr: 0x31260, symSize: 0x3C }
  - { offset: 0x779C3, size: 0x8, addend: 0x0, symName: __RNcNtNtNtCsc29TF2YcYso_3syn4expr4Expr8Continue0B7_, symObjAddr: 0xC2E4, symBinAddr: 0x3129C, symSize: 0x3C }
  - { offset: 0x779F2, size: 0x8, addend: 0x0, symName: __RNcNtNtNtCsc29TF2YcYso_3syn4expr4Expr7ForLoop0B7_, symObjAddr: 0xC320, symBinAddr: 0x312D8, symSize: 0x3C }
  - { offset: 0x77A21, size: 0x8, addend: 0x0, symName: __RNcNtNtNtCsc29TF2YcYso_3syn4expr4Expr2If0B7_, symObjAddr: 0xC35C, symBinAddr: 0x31314, symSize: 0x3C }
  - { offset: 0x77A50, size: 0x8, addend: 0x0, symName: __RNcNtNtNtCsc29TF2YcYso_3syn4expr4Expr5Infer0B7_, symObjAddr: 0xC398, symBinAddr: 0x31350, symSize: 0x20 }
  - { offset: 0x77A7E, size: 0x8, addend: 0x0, symName: __RNcNtNtNtCsc29TF2YcYso_3syn4expr4Expr3Let0B7_, symObjAddr: 0xC3B8, symBinAddr: 0x31370, symSize: 0x3C }
  - { offset: 0x77AAD, size: 0x8, addend: 0x0, symName: __RNcNtNtNtCsc29TF2YcYso_3syn4expr4Expr3Lit0B7_, symObjAddr: 0xC3F4, symBinAddr: 0x313AC, symSize: 0x3C }
  - { offset: 0x77ADC, size: 0x8, addend: 0x0, symName: __RNcNtNtNtCsc29TF2YcYso_3syn4expr4Expr4Loop0B7_, symObjAddr: 0xC430, symBinAddr: 0x313E8, symSize: 0x3C }
  - { offset: 0x77B0B, size: 0x8, addend: 0x0, symName: __RNcNtNtNtCsc29TF2YcYso_3syn4expr4Expr5Match0B7_, symObjAddr: 0xC46C, symBinAddr: 0x31424, symSize: 0x3C }
  - { offset: 0x77B3A, size: 0x8, addend: 0x0, symName: __RNcNtNtNtCsc29TF2YcYso_3syn4expr4Expr5Range0B7_, symObjAddr: 0xC4A8, symBinAddr: 0x31460, symSize: 0x3C }
  - { offset: 0x77B69, size: 0x8, addend: 0x0, symName: __RNcNtNtNtCsc29TF2YcYso_3syn4expr4Expr6Return0B7_, symObjAddr: 0xC4E4, symBinAddr: 0x3149C, symSize: 0x3C }
  - { offset: 0x77B98, size: 0x8, addend: 0x0, symName: __RNcNtNtNtCsc29TF2YcYso_3syn4expr4Expr6Struct0B7_, symObjAddr: 0xC520, symBinAddr: 0x314D8, symSize: 0x3C }
  - { offset: 0x77BC7, size: 0x8, addend: 0x0, symName: __RNcNtNtNtCsc29TF2YcYso_3syn4expr4Expr8TryBlock0B7_, symObjAddr: 0xC55C, symBinAddr: 0x31514, symSize: 0x3C }
  - { offset: 0x77BF6, size: 0x8, addend: 0x0, symName: __RNcNtNtNtCsc29TF2YcYso_3syn4expr4Expr5Unary0B7_, symObjAddr: 0xC598, symBinAddr: 0x31550, symSize: 0x3C }
  - { offset: 0x77C25, size: 0x8, addend: 0x0, symName: __RNcNtNtNtCsc29TF2YcYso_3syn4expr4Expr6Unsafe0B7_, symObjAddr: 0xC5D4, symBinAddr: 0x3158C, symSize: 0x3C }
  - { offset: 0x77C54, size: 0x8, addend: 0x0, symName: __RNcNtNtNtCsc29TF2YcYso_3syn4expr4Expr5While0B7_, symObjAddr: 0xC610, symBinAddr: 0x315C8, symSize: 0x3C }
  - { offset: 0x77C83, size: 0x8, addend: 0x0, symName: __RNcNtNtNtCsc29TF2YcYso_3syn4expr4Expr5Yield0B7_, symObjAddr: 0xC64C, symBinAddr: 0x31604, symSize: 0x3C }
  - { offset: 0x77CB3, size: 0x8, addend: 0x0, symName: __RNvXsP_NtCsc29TF2YcYso_3syn4exprNtB5_4ExprNtNtCs4EAaWzSXu1l_5quote9to_tokens8ToTokens9to_tokens, symObjAddr: 0xD200, symBinAddr: 0x31640, symSize: 0x4CC }
  - { offset: 0x7819C, size: 0x8, addend: 0x0, symName: __RNcNtNtNtCsc29TF2YcYso_3syn4expr6Member5Named0B7_, symObjAddr: 0xD6CC, symBinAddr: 0x31B0C, symSize: 0x18 }
  - { offset: 0x781CC, size: 0x8, addend: 0x0, symName: __RNcNtNtNtCsc29TF2YcYso_3syn4expr6Member7Unnamed0B7_, symObjAddr: 0xD6E4, symBinAddr: 0x31B24, symSize: 0x28 }
  - { offset: 0x78202, size: 0x8, addend: 0x0, symName: __RNcNtNtNtCsc29TF2YcYso_3syn4expr11RangeLimits8HalfOpen0B7_, symObjAddr: 0xD70C, symBinAddr: 0x31B4C, symSize: 0x24 }
  - { offset: 0x78232, size: 0x8, addend: 0x0, symName: __RNcNtNtNtCsc29TF2YcYso_3syn4expr11RangeLimits6Closed0B7_, symObjAddr: 0xD730, symBinAddr: 0x31B70, symSize: 0x20 }
  - { offset: 0x7ABEA, size: 0x8, addend: 0x0, symName: __RNvXs0_NtNtCsc29TF2YcYso_3syn3gen5cloneNtNtB9_4expr3ArmNtNtCsaNl6UpbT7bw_4core5clone5Clone5clone, symObjAddr: 0x10720, symBinAddr: 0x31B90, symSize: 0x1BC }
  - { offset: 0x7AC1C, size: 0x8, addend: 0x0, symName: __RNvXsk_NtNtCsc29TF2YcYso_3syn3gen5cloneNtNtB9_4expr4ExprNtNtCsaNl6UpbT7bw_4core5clone5Clone5clone, symObjAddr: 0x108DC, symBinAddr: 0x31D4C, symSize: 0xE1C }
  - { offset: 0x7B111, size: 0x8, addend: 0x0, symName: __RNvXsl_NtNtCsc29TF2YcYso_3syn3gen5cloneNtNtB9_4expr9ExprArrayNtNtCsaNl6UpbT7bw_4core5clone5Clone5clone, symObjAddr: 0x116F8, symBinAddr: 0x32B68, symSize: 0xC8 }
  - { offset: 0x7B145, size: 0x8, addend: 0x0, symName: __RNvXsm_NtNtCsc29TF2YcYso_3syn3gen5cloneNtNtB9_4expr10ExprAssignNtNtCsaNl6UpbT7bw_4core5clone5Clone5clone, symObjAddr: 0x117C0, symBinAddr: 0x32C30, symSize: 0x108 }
  - { offset: 0x7B179, size: 0x8, addend: 0x0, symName: __RNvXsn_NtNtCsc29TF2YcYso_3syn3gen5cloneNtNtB9_4expr9ExprAsyncNtNtCsaNl6UpbT7bw_4core5clone5Clone5clone, symObjAddr: 0x118C8, symBinAddr: 0x32D38, symSize: 0xEC }
  - { offset: 0x7B1AD, size: 0x8, addend: 0x0, symName: __RNvXso_NtNtCsc29TF2YcYso_3syn3gen5cloneNtNtB9_4expr9ExprAwaitNtNtCsaNl6UpbT7bw_4core5clone5Clone5clone, symObjAddr: 0x119B4, symBinAddr: 0x32E24, symSize: 0x108 }
  - { offset: 0x7B1E1, size: 0x8, addend: 0x0, symName: __RNvXsp_NtNtCsc29TF2YcYso_3syn3gen5cloneNtNtB9_4expr10ExprBinaryNtNtCsaNl6UpbT7bw_4core5clone5Clone5clone, symObjAddr: 0x11ABC, symBinAddr: 0x32F2C, symSize: 0xF8 }
  - { offset: 0x7B215, size: 0x8, addend: 0x0, symName: __RNvXsq_NtNtCsc29TF2YcYso_3syn3gen5cloneNtNtB9_4expr9ExprBlockNtNtCsaNl6UpbT7bw_4core5clone5Clone5clone, symObjAddr: 0x11BB4, symBinAddr: 0x33024, symSize: 0xF0 }
  - { offset: 0x7B249, size: 0x8, addend: 0x0, symName: __RNvXsr_NtNtCsc29TF2YcYso_3syn3gen5cloneNtNtB9_4expr9ExprBreakNtNtCsaNl6UpbT7bw_4core5clone5Clone5clone, symObjAddr: 0x11CA4, symBinAddr: 0x33114, symSize: 0xF8 }
  - { offset: 0x7B27D, size: 0x8, addend: 0x0, symName: __RNvXss_NtNtCsc29TF2YcYso_3syn3gen5cloneNtNtB9_4expr8ExprCallNtNtCsaNl6UpbT7bw_4core5clone5Clone5clone, symObjAddr: 0x11D9C, symBinAddr: 0x3320C, symSize: 0x108 }
  - { offset: 0x7B2B1, size: 0x8, addend: 0x0, symName: __RNvXst_NtNtCsc29TF2YcYso_3syn3gen5cloneNtNtB9_4expr8ExprCastNtNtCsaNl6UpbT7bw_4core5clone5Clone5clone, symObjAddr: 0x11EA4, symBinAddr: 0x33314, symSize: 0xF8 }
  - { offset: 0x7B2E5, size: 0x8, addend: 0x0, symName: __RNvXsu_NtNtCsc29TF2YcYso_3syn3gen5cloneNtNtB9_4expr11ExprClosureNtNtCsaNl6UpbT7bw_4core5clone5Clone5clone, symObjAddr: 0x11F9C, symBinAddr: 0x3340C, symSize: 0x25C }
  - { offset: 0x7B319, size: 0x8, addend: 0x0, symName: __RNvXsv_NtNtCsc29TF2YcYso_3syn3gen5cloneNtNtB9_4expr9ExprConstNtNtCsaNl6UpbT7bw_4core5clone5Clone5clone, symObjAddr: 0x121F8, symBinAddr: 0x33668, symSize: 0xC4 }
  - { offset: 0x7B34D, size: 0x8, addend: 0x0, symName: __RNvXsw_NtNtCsc29TF2YcYso_3syn3gen5cloneNtNtB9_4expr12ExprContinueNtNtCsaNl6UpbT7bw_4core5clone5Clone5clone, symObjAddr: 0x122BC, symBinAddr: 0x3372C, symSize: 0xC0 }
  - { offset: 0x7B381, size: 0x8, addend: 0x0, symName: __RNvXsx_NtNtCsc29TF2YcYso_3syn3gen5cloneNtNtB9_4expr9ExprFieldNtNtCsaNl6UpbT7bw_4core5clone5Clone5clone, symObjAddr: 0x1237C, symBinAddr: 0x337EC, symSize: 0x110 }
  - { offset: 0x7B3B5, size: 0x8, addend: 0x0, symName: __RNvXsy_NtNtCsc29TF2YcYso_3syn3gen5cloneNtNtB9_4expr11ExprForLoopNtNtCsaNl6UpbT7bw_4core5clone5Clone5clone, symObjAddr: 0x1248C, symBinAddr: 0x338FC, symSize: 0x1A8 }
  - { offset: 0x7B3E9, size: 0x8, addend: 0x0, symName: __RNvXsz_NtNtCsc29TF2YcYso_3syn3gen5cloneNtNtB9_4expr9ExprGroupNtNtCsaNl6UpbT7bw_4core5clone5Clone5clone, symObjAddr: 0x12634, symBinAddr: 0x33AA4, symSize: 0xB8 }
  - { offset: 0x7B41D, size: 0x8, addend: 0x0, symName: __RNvXsA_NtNtCsc29TF2YcYso_3syn3gen5cloneNtNtB9_4expr6ExprIfNtNtCsaNl6UpbT7bw_4core5clone5Clone5clone, symObjAddr: 0x126EC, symBinAddr: 0x33B5C, symSize: 0x14C }
  - { offset: 0x7B451, size: 0x8, addend: 0x0, symName: __RNvXsB_NtNtCsc29TF2YcYso_3syn3gen5cloneNtNtB9_4expr9ExprIndexNtNtCsaNl6UpbT7bw_4core5clone5Clone5clone, symObjAddr: 0x12838, symBinAddr: 0x33CA8, symSize: 0x100 }
  - { offset: 0x7B485, size: 0x8, addend: 0x0, symName: __RNvXsC_NtNtCsc29TF2YcYso_3syn3gen5cloneNtNtB9_4expr9ExprInferNtNtCsaNl6UpbT7bw_4core5clone5Clone5clone, symObjAddr: 0x12938, symBinAddr: 0x33DA8, symSize: 0xAC }
  - { offset: 0x7B4B9, size: 0x8, addend: 0x0, symName: __RNvXsD_NtNtCsc29TF2YcYso_3syn3gen5cloneNtNtB9_4expr7ExprLetNtNtCsaNl6UpbT7bw_4core5clone5Clone5clone, symObjAddr: 0x129E4, symBinAddr: 0x33E54, symSize: 0x124 }
  - { offset: 0x7B4ED, size: 0x8, addend: 0x0, symName: __RNvXsE_NtNtCsc29TF2YcYso_3syn3gen5cloneNtNtB9_4expr7ExprLitNtNtCsaNl6UpbT7bw_4core5clone5Clone5clone, symObjAddr: 0x12B08, symBinAddr: 0x33F78, symSize: 0xA4 }
  - { offset: 0x7B521, size: 0x8, addend: 0x0, symName: __RNvXsF_NtNtCsc29TF2YcYso_3syn3gen5cloneNtNtB9_4expr8ExprLoopNtNtCsaNl6UpbT7bw_4core5clone5Clone5clone, symObjAddr: 0x12BAC, symBinAddr: 0x3401C, symSize: 0x10C }
  - { offset: 0x7B555, size: 0x8, addend: 0x0, symName: __RNvXsG_NtNtCsc29TF2YcYso_3syn3gen5cloneNtNtB9_4expr9ExprMacroNtNtCsaNl6UpbT7bw_4core5clone5Clone5clone, symObjAddr: 0x12CB8, symBinAddr: 0x34128, symSize: 0xA8 }
  - { offset: 0x7B589, size: 0x8, addend: 0x0, symName: __RNvXsH_NtNtCsc29TF2YcYso_3syn3gen5cloneNtNtB9_4expr9ExprMatchNtNtCsaNl6UpbT7bw_4core5clone5Clone5clone, symObjAddr: 0x12D60, symBinAddr: 0x341D0, symSize: 0x12C }
  - { offset: 0x7B5BD, size: 0x8, addend: 0x0, symName: __RNvXsI_NtNtCsc29TF2YcYso_3syn3gen5cloneNtNtB9_4expr14ExprMethodCallNtNtCsaNl6UpbT7bw_4core5clone5Clone5clone, symObjAddr: 0x12E8C, symBinAddr: 0x342FC, symSize: 0x1D0 }
  - { offset: 0x7B5F1, size: 0x8, addend: 0x0, symName: __RNvXsJ_NtNtCsc29TF2YcYso_3syn3gen5cloneNtNtB9_4expr9ExprParenNtNtCsaNl6UpbT7bw_4core5clone5Clone5clone, symObjAddr: 0x1305C, symBinAddr: 0x344CC, symSize: 0xC0 }
  - { offset: 0x7B625, size: 0x8, addend: 0x0, symName: __RNvXsK_NtNtCsc29TF2YcYso_3syn3gen5cloneNtNtB9_4expr8ExprPathNtNtCsaNl6UpbT7bw_4core5clone5Clone5clone, symObjAddr: 0x1311C, symBinAddr: 0x3458C, symSize: 0xE8 }
  - { offset: 0x7B659, size: 0x8, addend: 0x0, symName: __RNvXsL_NtNtCsc29TF2YcYso_3syn3gen5cloneNtNtB9_4expr9ExprRangeNtNtCsaNl6UpbT7bw_4core5clone5Clone5clone, symObjAddr: 0x13204, symBinAddr: 0x34674, symSize: 0xF8 }
  - { offset: 0x7B68D, size: 0x8, addend: 0x0, symName: __RNvXsM_NtNtCsc29TF2YcYso_3syn3gen5cloneNtNtB9_4expr11ExprRawAddrNtNtCsaNl6UpbT7bw_4core5clone5Clone5clone, symObjAddr: 0x132FC, symBinAddr: 0x3476C, symSize: 0x10C }
  - { offset: 0x7B6C1, size: 0x8, addend: 0x0, symName: __RNvXsN_NtNtCsc29TF2YcYso_3syn3gen5cloneNtNtB9_4expr13ExprReferenceNtNtCsaNl6UpbT7bw_4core5clone5Clone5clone, symObjAddr: 0x13408, symBinAddr: 0x34878, symSize: 0xF0 }
  - { offset: 0x7B6F5, size: 0x8, addend: 0x0, symName: __RNvXsO_NtNtCsc29TF2YcYso_3syn3gen5cloneNtNtB9_4expr10ExprRepeatNtNtCsaNl6UpbT7bw_4core5clone5Clone5clone, symObjAddr: 0x134F8, symBinAddr: 0x34968, symSize: 0x12C }
  - { offset: 0x7B729, size: 0x8, addend: 0x0, symName: __RNvXsP_NtNtCsc29TF2YcYso_3syn3gen5cloneNtNtB9_4expr10ExprReturnNtNtCsaNl6UpbT7bw_4core5clone5Clone5clone, symObjAddr: 0x13624, symBinAddr: 0x34A94, symSize: 0xB8 }
  - { offset: 0x7B75D, size: 0x8, addend: 0x0, symName: __RNvXsQ_NtNtCsc29TF2YcYso_3syn3gen5cloneNtNtB9_4expr10ExprStructNtNtCsaNl6UpbT7bw_4core5clone5Clone5clone, symObjAddr: 0x136DC, symBinAddr: 0x34B4C, symSize: 0x1B8 }
  - { offset: 0x7B791, size: 0x8, addend: 0x0, symName: __RNvXsR_NtNtCsc29TF2YcYso_3syn3gen5cloneNtNtB9_4expr7ExprTryNtNtCsaNl6UpbT7bw_4core5clone5Clone5clone, symObjAddr: 0x13894, symBinAddr: 0x34D04, symSize: 0xEC }
  - { offset: 0x7B7C5, size: 0x8, addend: 0x0, symName: __RNvXsS_NtNtCsc29TF2YcYso_3syn3gen5cloneNtNtB9_4expr12ExprTryBlockNtNtCsaNl6UpbT7bw_4core5clone5Clone5clone, symObjAddr: 0x13980, symBinAddr: 0x34DF0, symSize: 0xC4 }
  - { offset: 0x7B7F9, size: 0x8, addend: 0x0, symName: __RNvXsT_NtNtCsc29TF2YcYso_3syn3gen5cloneNtNtB9_4expr9ExprTupleNtNtCsaNl6UpbT7bw_4core5clone5Clone5clone, symObjAddr: 0x13A44, symBinAddr: 0x34EB4, symSize: 0xC8 }
  - { offset: 0x7B82D, size: 0x8, addend: 0x0, symName: __RNvXsU_NtNtCsc29TF2YcYso_3syn3gen5cloneNtNtB9_4expr9ExprUnaryNtNtCsaNl6UpbT7bw_4core5clone5Clone5clone, symObjAddr: 0x13B0C, symBinAddr: 0x34F7C, symSize: 0xC8 }
  - { offset: 0x7B861, size: 0x8, addend: 0x0, symName: __RNvXsV_NtNtCsc29TF2YcYso_3syn3gen5cloneNtNtB9_4expr10ExprUnsafeNtNtCsaNl6UpbT7bw_4core5clone5Clone5clone, symObjAddr: 0x13BD4, symBinAddr: 0x35044, symSize: 0xC4 }
  - { offset: 0x7B895, size: 0x8, addend: 0x0, symName: __RNvXsW_NtNtCsc29TF2YcYso_3syn3gen5cloneNtNtB9_4expr9ExprWhileNtNtCsaNl6UpbT7bw_4core5clone5Clone5clone, symObjAddr: 0x13C98, symBinAddr: 0x35108, symSize: 0x14C }
  - { offset: 0x7B8C9, size: 0x8, addend: 0x0, symName: __RNvXsX_NtNtCsc29TF2YcYso_3syn3gen5cloneNtNtB9_4expr9ExprYieldNtNtCsaNl6UpbT7bw_4core5clone5Clone5clone, symObjAddr: 0x13DE4, symBinAddr: 0x35254, symSize: 0xB8 }
  - { offset: 0x7B8FD, size: 0x8, addend: 0x0, symName: __RNvXs11_NtNtCsc29TF2YcYso_3syn3gen5cloneNtNtBa_4expr10FieldValueNtNtCsaNl6UpbT7bw_4core5clone5Clone5clone, symObjAddr: 0x13E9C, symBinAddr: 0x3530C, symSize: 0x118 }
  - { offset: 0x7B931, size: 0x8, addend: 0x0, symName: __RNvXs1l_NtNtCsc29TF2YcYso_3syn3gen5cloneNtNtBa_4expr5IndexNtNtCsaNl6UpbT7bw_4core5clone5Clone5clone, symObjAddr: 0x13FB4, symBinAddr: 0x35424, symSize: 0x48 }
  - { offset: 0x7B965, size: 0x8, addend: 0x0, symName: __RNvXs1C_NtNtCsc29TF2YcYso_3syn3gen5cloneNtNtBa_4expr5LabelNtNtCsaNl6UpbT7bw_4core5clone5Clone5clone, symObjAddr: 0x13FFC, symBinAddr: 0x3546C, symSize: 0xA4 }
  - { offset: 0x7B999, size: 0x8, addend: 0x0, symName: __RNvXs1K_NtNtCsc29TF2YcYso_3syn3gen5cloneNtNtBa_4expr6MemberNtNtCsaNl6UpbT7bw_4core5clone5Clone5clone, symObjAddr: 0x140A0, symBinAddr: 0x35510, symSize: 0xB8 }
  - { offset: 0x7BA01, size: 0x8, addend: 0x0, symName: __RNvXs24_NtNtCsc29TF2YcYso_3syn3gen5cloneNtNtBa_4expr17PointerMutabilityNtNtCsaNl6UpbT7bw_4core5clone5Clone5clone, symObjAddr: 0x14158, symBinAddr: 0x355C8, symSize: 0xA8 }
  - { offset: 0x7BA69, size: 0x8, addend: 0x0, symName: __RNvXs2a_NtNtCsc29TF2YcYso_3syn3gen5cloneNtNtBa_4expr11RangeLimitsNtNtCsaNl6UpbT7bw_4core5clone5Clone5clone, symObjAddr: 0x14200, symBinAddr: 0x35670, symSize: 0x2C }
  - { offset: 0x7EF70, size: 0x8, addend: 0x0, symName: __RNvMNtCsaNl6UpbT7bw_4core5sliceSNtNtCsc29TF2YcYso_3syn4expr3Arm4iterBy_, symObjAddr: 0xA5C, symBinAddr: 0x2881C, symSize: 0x28 }
  - { offset: 0x7EFA7, size: 0x8, addend: 0x0, symName: __RNvMNtCsaNl6UpbT7bw_4core5sliceSTNtNtCsc29TF2YcYso_3syn4expr10FieldValueNtNtBz_5token5CommaE4iterBz_, symObjAddr: 0xA84, symBinAddr: 0x28844, symSize: 0x28 }
  - { offset: 0x7EFDE, size: 0x8, addend: 0x0, symName: __RNvMNtCsaNl6UpbT7bw_4core5sliceSTNtNtCsc29TF2YcYso_3syn4expr4ExprNtNtBz_5token5CommaE4iterBz_, symObjAddr: 0xAAC, symBinAddr: 0x2886C, symSize: 0x28 }
  - { offset: 0x7F392, size: 0x8, addend: 0x0, symName: __RNvXNtNtCsaNl6UpbT7bw_4core5clone6uninitNtNtCsc29TF2YcYso_3syn4expr10FieldValueNtB2_8CopySpec9clone_oneBG_, symObjAddr: 0xB54, symBinAddr: 0x28914, symSize: 0x50 }
  - { offset: 0x7F3F6, size: 0x8, addend: 0x0, symName: __RNvXNtNtCsaNl6UpbT7bw_4core5clone6uninitNtNtCsc29TF2YcYso_3syn4expr4ExprNtB2_8CopySpec9clone_oneBG_, symObjAddr: 0xBA4, symBinAddr: 0x28964, symSize: 0x48 }
  - { offset: 0x812D5, size: 0x8, addend: 0x0, symName: __RNvXNtCs4EAaWzSXu1l_5quote9to_tokensRNtNtCsc29TF2YcYso_3syn4expr10FieldValueNtB2_8ToTokens9to_tokensBD_, symObjAddr: 0xAD4, symBinAddr: 0x28894, symSize: 0x40 }
  - { offset: 0x81314, size: 0x8, addend: 0x0, symName: __RNvXNtCs4EAaWzSXu1l_5quote9to_tokensRNtNtCsc29TF2YcYso_3syn4expr4ExprNtB2_8ToTokens9to_tokensBD_, symObjAddr: 0xB14, symBinAddr: 0x288D4, symSize: 0x40 }
  - { offset: 0x813CC, size: 0x8, addend: 0x0, symName: __RNvMNtCsc29TF2YcYso_3syn4exprNtB2_4Expr25parse_without_eager_brace, symObjAddr: 0x1C7C, symBinAddr: 0x289AC, symSize: 0x3C }
  - { offset: 0x813EF, size: 0x8, addend: 0x0, symName: __RNvMNtCsc29TF2YcYso_3syn4exprNtB2_4Expr32parse_with_earlier_boundary_rule, symObjAddr: 0x1CB8, symBinAddr: 0x289E8, symSize: 0x34 }
  - { offset: 0x81412, size: 0x8, addend: 0x0, symName: __RNvMNtCsc29TF2YcYso_3syn4exprNtB2_4Expr4peek, symObjAddr: 0x1CEC, symBinAddr: 0x28A1C, symSize: 0x408 }
  - { offset: 0x81442, size: 0x8, addend: 0x0, symName: __RNvMNtCsc29TF2YcYso_3syn4exprNtB2_4Expr13replace_attrs, symObjAddr: 0x20F4, symBinAddr: 0x28E24, symSize: 0x678 }
  - { offset: 0x81498, size: 0x8, addend: 0x0, symName: __RNvMs6_NtCsc29TF2YcYso_3syn4exprNtB5_6Member8is_named, symObjAddr: 0x2A78, symBinAddr: 0x294E4, symSize: 0x6C }
  - { offset: 0x814F3, size: 0x8, addend: 0x0, symName: __RNvMsv_NtNtCsc29TF2YcYso_3syn4expr7parsingNtB7_11RangeLimits14parse_obsolete, symObjAddr: 0x94A0, symBinAddr: 0x2E710, symSize: 0x334 }
  - { offset: 0x815AE, size: 0x8, addend: 0x0, symName: __RNvMsy_NtNtCsc29TF2YcYso_3syn4expr7parsingNtB7_3Arm14parse_multiple, symObjAddr: 0x9B08, symBinAddr: 0x2ED78, symSize: 0x1C4 }
  - { offset: 0x8199D, size: 0x8, addend: 0x0, symName: __RINvMsv_NtCshnvkK9b4wzu_11proc_macro23impNtB6_7Literal7subspanINtNtNtCsaNl6UpbT7bw_4core3ops5range5RangejEECsc29TF2YcYso_3syn, symObjAddr: 0x0, symBinAddr: 0x3569C, symSize: 0xD4 }
  - { offset: 0x82199, size: 0x8, addend: 0x0, symName: __RNvXs0_NtCsc29TF2YcYso_3syn5tokenNtNtNtB7_3ext7private8IdentAnyNtB5_5Token4peekB7_, symObjAddr: 0x5D64, symBinAddr: 0x3A538, symSize: 0x3C }
  - { offset: 0x82A9B, size: 0x8, addend: 0x0, symName: __RNvXNtCsc29TF2YcYso_3syn4pathNtB2_4PathINtNtCsaNl6UpbT7bw_4core7convert4FromNtCshnvkK9b4wzu_11proc_macro25IdentE4fromB4_, symObjAddr: 0x7394, symBinAddr: 0x3BB24, symSize: 0x118 }
  - { offset: 0x82AEC, size: 0x8, addend: 0x0, symName: __RNvXs0_NtCsc29TF2YcYso_3syn4pathNtB5_11PathSegmentINtNtCsaNl6UpbT7bw_4core7convert4FromNtCshnvkK9b4wzu_11proc_macro25IdentE4fromB7_, symObjAddr: 0x773C, symBinAddr: 0x3BDB8, symSize: 0x68 }
  - { offset: 0x82B2D, size: 0x8, addend: 0x0, symName: __RNvXNtNtCsc29TF2YcYso_3syn4path7parsingNtB4_4PathNtNtB6_5parse5Parse5parse, symObjAddr: 0x7908, symBinAddr: 0x3BF64, symSize: 0x3C }
  - { offset: 0x82B61, size: 0x8, addend: 0x0, symName: __RNvXs_NtNtCsc29TF2YcYso_3syn4path7parsingNtB6_15GenericArgumentNtNtB8_5parse5Parse5parse, symObjAddr: 0x7944, symBinAddr: 0x3BFA0, symSize: 0x13C0 }
  - { offset: 0x82E32, size: 0x8, addend: 0x0, symName: __RNvXs1_NtNtCsc29TF2YcYso_3syn4path7parsingNtB7_30AngleBracketedGenericArgumentsNtNtB9_5parse5Parse5parse, symObjAddr: 0x926C, symBinAddr: 0x3D8C8, symSize: 0xD8 }
  - { offset: 0x82EA2, size: 0x8, addend: 0x0, symName: __RNvXs2_NtNtCsc29TF2YcYso_3syn4path7parsingNtB7_29ParenthesizedGenericArgumentsNtNtB9_5parse5Parse5parse, symObjAddr: 0x9344, symBinAddr: 0x3D9A0, symSize: 0x338 }
  - { offset: 0x82F83, size: 0x8, addend: 0x0, symName: __RNvXs0_NtNtCsc29TF2YcYso_3syn4path8printingNtB7_4PathNtNtCs4EAaWzSXu1l_5quote9to_tokens8ToTokens9to_tokens, symObjAddr: 0xA8AC, symBinAddr: 0x3EECC, symSize: 0x54 }
  - { offset: 0x82FC2, size: 0x8, addend: 0x0, symName: __RNvXs3_NtNtCsc29TF2YcYso_3syn4path8printingNtB7_15GenericArgumentNtNtCs4EAaWzSXu1l_5quote9to_tokens8ToTokens9to_tokens, symObjAddr: 0xA9A8, symBinAddr: 0x3EF20, symSize: 0x1A8 }
  - { offset: 0x830AD, size: 0x8, addend: 0x0, symName: __RNvXs4_NtNtCsc29TF2YcYso_3syn4path8printingNtB7_30AngleBracketedGenericArgumentsNtNtCs4EAaWzSXu1l_5quote9to_tokens8ToTokens9to_tokens, symObjAddr: 0xAB50, symBinAddr: 0x3F0C8, symSize: 0x54 }
  - { offset: 0x830EC, size: 0x8, addend: 0x0, symName: __RNvXs5_NtNtCsc29TF2YcYso_3syn4path8printingNtB7_9AssocTypeNtNtCs4EAaWzSXu1l_5quote9to_tokens8ToTokens9to_tokens, symObjAddr: 0xABA4, symBinAddr: 0x3F11C, symSize: 0x70 }
  - { offset: 0x8312B, size: 0x8, addend: 0x0, symName: __RNvXs6_NtNtCsc29TF2YcYso_3syn4path8printingNtB7_10AssocConstNtNtCs4EAaWzSXu1l_5quote9to_tokens8ToTokens9to_tokens, symObjAddr: 0xAC14, symBinAddr: 0x3F18C, symSize: 0x70 }
  - { offset: 0x8316A, size: 0x8, addend: 0x0, symName: __RNvXs7_NtNtCsc29TF2YcYso_3syn4path8printingNtB7_10ConstraintNtNtCs4EAaWzSXu1l_5quote9to_tokens8ToTokens9to_tokens, symObjAddr: 0xAC84, symBinAddr: 0x3F1FC, symSize: 0x70 }
  - { offset: 0x831AF, size: 0x8, addend: 0x0, symName: __RNcNtNtNtCsc29TF2YcYso_3syn4path15GenericArgument5Const0B7_, symObjAddr: 0xB2B8, symBinAddr: 0x3F79C, symSize: 0x3C }
  - { offset: 0x86A68, size: 0x8, addend: 0x0, symName: __RNvNtNtCsc29TF2YcYso_3syn8generics7parsing26choose_generics_over_qpath, symObjAddr: 0x5F9C, symBinAddr: 0x3A72C, symSize: 0x1F8 }
  - { offset: 0x86A96, size: 0x8, addend: 0x0, symName: __RNvNtNtCsc29TF2YcYso_3syn8generics7parsing40choose_generics_over_qpath_after_keyword, symObjAddr: 0x6194, symBinAddr: 0x3A924, symSize: 0x150 }
  - { offset: 0x870D4, size: 0x8, addend: 0x0, symName: __RNvXNtNtCsc29TF2YcYso_3syn2op7parsingNtB4_5BinOpNtNtB6_5parse5Parse5parse, symObjAddr: 0x62E4, symBinAddr: 0x3AA74, symSize: 0x84C }
  - { offset: 0x87106, size: 0x8, addend: 0x0, symName: __RNvXs_NtNtCsc29TF2YcYso_3syn2op7parsingNtB6_4UnOpNtNtB8_5parse5Parse5parse, symObjAddr: 0x6B30, symBinAddr: 0x3B2C0, symSize: 0x1F0 }
  - { offset: 0x87153, size: 0x8, addend: 0x0, symName: __RNvXNtNtCsc29TF2YcYso_3syn2op8printingNtB4_5BinOpNtNtCs4EAaWzSXu1l_5quote9to_tokens8ToTokens9to_tokens, symObjAddr: 0x6D20, symBinAddr: 0x3B4B0, symSize: 0x598 }
  - { offset: 0x874C7, size: 0x8, addend: 0x0, symName: __RNvXs_NtNtCsc29TF2YcYso_3syn2op8printingNtB6_4UnOpNtNtCs4EAaWzSXu1l_5quote9to_tokens8ToTokens9to_tokens, symObjAddr: 0x72B8, symBinAddr: 0x3BA48, symSize: 0xDC }
  - { offset: 0x87558, size: 0x8, addend: 0x0, symName: __RNcNtNtNtCsc29TF2YcYso_3syn2op5BinOp3Add0B7_, symObjAddr: 0xAD88, symBinAddr: 0x3F26C, symSize: 0x24 }
  - { offset: 0x87586, size: 0x8, addend: 0x0, symName: __RNcNtNtNtCsc29TF2YcYso_3syn2op5BinOp3Sub0B7_, symObjAddr: 0xADAC, symBinAddr: 0x3F290, symSize: 0x2C }
  - { offset: 0x875B4, size: 0x8, addend: 0x0, symName: __RNcNtNtNtCsc29TF2YcYso_3syn2op5BinOp3Mul0B7_, symObjAddr: 0xADD8, symBinAddr: 0x3F2BC, symSize: 0x2C }
  - { offset: 0x875E2, size: 0x8, addend: 0x0, symName: __RNcNtNtNtCsc29TF2YcYso_3syn2op5BinOp3Div0B7_, symObjAddr: 0xAE04, symBinAddr: 0x3F2E8, symSize: 0x2C }
  - { offset: 0x87610, size: 0x8, addend: 0x0, symName: __RNcNtNtNtCsc29TF2YcYso_3syn2op5BinOp3Rem0B7_, symObjAddr: 0xAE30, symBinAddr: 0x3F314, symSize: 0x2C }
  - { offset: 0x8763E, size: 0x8, addend: 0x0, symName: __RNcNtNtNtCsc29TF2YcYso_3syn2op5BinOp3And0B7_, symObjAddr: 0xAE5C, symBinAddr: 0x3F340, symSize: 0x2C }
  - { offset: 0x8766C, size: 0x8, addend: 0x0, symName: __RNcNtNtNtCsc29TF2YcYso_3syn2op5BinOp2Or0B7_, symObjAddr: 0xAE88, symBinAddr: 0x3F36C, symSize: 0x2C }
  - { offset: 0x8769A, size: 0x8, addend: 0x0, symName: __RNcNtNtNtCsc29TF2YcYso_3syn2op5BinOp6BitXor0B7_, symObjAddr: 0xAEB4, symBinAddr: 0x3F398, symSize: 0x2C }
  - { offset: 0x876C8, size: 0x8, addend: 0x0, symName: __RNcNtNtNtCsc29TF2YcYso_3syn2op5BinOp6BitAnd0B7_, symObjAddr: 0xAEE0, symBinAddr: 0x3F3C4, symSize: 0x2C }
  - { offset: 0x876F6, size: 0x8, addend: 0x0, symName: __RNcNtNtNtCsc29TF2YcYso_3syn2op5BinOp5BitOr0B7_, symObjAddr: 0xAF0C, symBinAddr: 0x3F3F0, symSize: 0x2C }
  - { offset: 0x87724, size: 0x8, addend: 0x0, symName: __RNcNtNtNtCsc29TF2YcYso_3syn2op5BinOp3Shl0B7_, symObjAddr: 0xAF38, symBinAddr: 0x3F41C, symSize: 0x2C }
  - { offset: 0x87752, size: 0x8, addend: 0x0, symName: __RNcNtNtNtCsc29TF2YcYso_3syn2op5BinOp3Shr0B7_, symObjAddr: 0xAF64, symBinAddr: 0x3F448, symSize: 0x2C }
  - { offset: 0x87780, size: 0x8, addend: 0x0, symName: __RNcNtNtNtCsc29TF2YcYso_3syn2op5BinOp2Eq0B7_, symObjAddr: 0xAF90, symBinAddr: 0x3F474, symSize: 0x2C }
  - { offset: 0x877AE, size: 0x8, addend: 0x0, symName: __RNcNtNtNtCsc29TF2YcYso_3syn2op5BinOp2Lt0B7_, symObjAddr: 0xAFBC, symBinAddr: 0x3F4A0, symSize: 0x2C }
  - { offset: 0x877DC, size: 0x8, addend: 0x0, symName: __RNcNtNtNtCsc29TF2YcYso_3syn2op5BinOp2Le0B7_, symObjAddr: 0xAFE8, symBinAddr: 0x3F4CC, symSize: 0x2C }
  - { offset: 0x8780A, size: 0x8, addend: 0x0, symName: __RNcNtNtNtCsc29TF2YcYso_3syn2op5BinOp2Ne0B7_, symObjAddr: 0xB014, symBinAddr: 0x3F4F8, symSize: 0x2C }
  - { offset: 0x87838, size: 0x8, addend: 0x0, symName: __RNcNtNtNtCsc29TF2YcYso_3syn2op5BinOp2Ge0B7_, symObjAddr: 0xB040, symBinAddr: 0x3F524, symSize: 0x2C }
  - { offset: 0x87866, size: 0x8, addend: 0x0, symName: __RNcNtNtNtCsc29TF2YcYso_3syn2op5BinOp2Gt0B7_, symObjAddr: 0xB06C, symBinAddr: 0x3F550, symSize: 0x2C }
  - { offset: 0x87894, size: 0x8, addend: 0x0, symName: __RNcNtNtNtCsc29TF2YcYso_3syn2op5BinOp9AddAssign0B7_, symObjAddr: 0xB098, symBinAddr: 0x3F57C, symSize: 0x2C }
  - { offset: 0x878C2, size: 0x8, addend: 0x0, symName: __RNcNtNtNtCsc29TF2YcYso_3syn2op5BinOp9SubAssign0B7_, symObjAddr: 0xB0C4, symBinAddr: 0x3F5A8, symSize: 0x2C }
  - { offset: 0x878F0, size: 0x8, addend: 0x0, symName: __RNcNtNtNtCsc29TF2YcYso_3syn2op5BinOp9MulAssign0B7_, symObjAddr: 0xB0F0, symBinAddr: 0x3F5D4, symSize: 0x2C }
  - { offset: 0x8791E, size: 0x8, addend: 0x0, symName: __RNcNtNtNtCsc29TF2YcYso_3syn2op5BinOp9DivAssign0B7_, symObjAddr: 0xB11C, symBinAddr: 0x3F600, symSize: 0x2C }
  - { offset: 0x8794C, size: 0x8, addend: 0x0, symName: __RNcNtNtNtCsc29TF2YcYso_3syn2op5BinOp9RemAssign0B7_, symObjAddr: 0xB148, symBinAddr: 0x3F62C, symSize: 0x2C }
  - { offset: 0x8797A, size: 0x8, addend: 0x0, symName: __RNcNtNtNtCsc29TF2YcYso_3syn2op5BinOp12BitXorAssign0B7_, symObjAddr: 0xB174, symBinAddr: 0x3F658, symSize: 0x2C }
  - { offset: 0x879A8, size: 0x8, addend: 0x0, symName: __RNcNtNtNtCsc29TF2YcYso_3syn2op5BinOp12BitAndAssign0B7_, symObjAddr: 0xB1A0, symBinAddr: 0x3F684, symSize: 0x2C }
  - { offset: 0x879D6, size: 0x8, addend: 0x0, symName: __RNcNtNtNtCsc29TF2YcYso_3syn2op5BinOp11BitOrAssign0B7_, symObjAddr: 0xB1CC, symBinAddr: 0x3F6B0, symSize: 0x2C }
  - { offset: 0x87A04, size: 0x8, addend: 0x0, symName: __RNcNtNtNtCsc29TF2YcYso_3syn2op5BinOp9ShlAssign0B7_, symObjAddr: 0xB1F8, symBinAddr: 0x3F6DC, symSize: 0x20 }
  - { offset: 0x87A32, size: 0x8, addend: 0x0, symName: __RNcNtNtNtCsc29TF2YcYso_3syn2op5BinOp9ShrAssign0B7_, symObjAddr: 0xB218, symBinAddr: 0x3F6FC, symSize: 0x20 }
  - { offset: 0x87A66, size: 0x8, addend: 0x0, symName: __RNcNtNtNtCsc29TF2YcYso_3syn2op4UnOp5Deref0B7_, symObjAddr: 0xB238, symBinAddr: 0x3F71C, symSize: 0x28 }
  - { offset: 0x87A94, size: 0x8, addend: 0x0, symName: __RNcNtNtNtCsc29TF2YcYso_3syn2op4UnOp3Not0B7_, symObjAddr: 0xB260, symBinAddr: 0x3F744, symSize: 0x2C }
  - { offset: 0x87AC2, size: 0x8, addend: 0x0, symName: __RNcNtNtNtCsc29TF2YcYso_3syn2op4UnOp3Neg0B7_, symObjAddr: 0xB28C, symBinAddr: 0x3F770, symSize: 0x2C }
  - { offset: 0x87AFC, size: 0x8, addend: 0x0, symName: __RNCNvXNtCsc29TF2YcYso_3syn3extNtCshnvkK9b4wzu_11proc_macro25IdentNtB4_8IdentExt9parse_any0B6_, symObjAddr: 0x5DA0, symBinAddr: 0x3A574, symSize: 0x130 }
  - { offset: 0x87B6E, size: 0x8, addend: 0x0, symName: __RNvXs0_NtCsc29TF2YcYso_3syn3extNtNtB5_7private8IdentAnyNtNtNtB7_5token7private11CustomToken4peek, symObjAddr: 0x5ED0, symBinAddr: 0x3A6A4, symSize: 0x88 }
  - { offset: 0x87DB2, size: 0x8, addend: 0x0, symName: __RNvXs_NtNtCsc29TF2YcYso_3syn3gen5cloneNtNtB8_4path30AngleBracketedGenericArgumentsNtNtCsaNl6UpbT7bw_4core5clone5Clone5clone, symObjAddr: 0xB2F4, symBinAddr: 0x3F7D8, symSize: 0xE8 }
  - { offset: 0x87DE4, size: 0x8, addend: 0x0, symName: __RNvXs1_NtNtCsc29TF2YcYso_3syn3gen5cloneNtNtB9_4path10AssocConstNtNtCsaNl6UpbT7bw_4core5clone5Clone5clone, symObjAddr: 0xB3DC, symBinAddr: 0x3F8C0, symSize: 0x118 }
  - { offset: 0x87E16, size: 0x8, addend: 0x0, symName: __RNvXs2_NtNtCsc29TF2YcYso_3syn3gen5cloneNtNtB9_4path9AssocTypeNtNtCsaNl6UpbT7bw_4core5clone5Clone5clone, symObjAddr: 0xB4F4, symBinAddr: 0x3F9D8, symSize: 0x11C }
  - { offset: 0x87E48, size: 0x8, addend: 0x0, symName: __RNvXs9_NtNtCsc29TF2YcYso_3syn3gen5cloneNtNtB9_2op5BinOpNtNtCsaNl6UpbT7bw_4core5clone5Clone5clone, symObjAddr: 0xB610, symBinAddr: 0x3FAF4, symSize: 0x2C }
  - { offset: 0x87E7A, size: 0x8, addend: 0x0, symName: __RNvXse_NtNtCsc29TF2YcYso_3syn3gen5cloneNtNtB9_4path10ConstraintNtNtCsaNl6UpbT7bw_4core5clone5Clone5clone, symObjAddr: 0xB63C, symBinAddr: 0x3FB20, symSize: 0x110 }
  - { offset: 0x87EAC, size: 0x8, addend: 0x0, symName: __RNvXs1c_NtNtCsc29TF2YcYso_3syn3gen5cloneNtNtBa_4path15GenericArgumentNtNtCsaNl6UpbT7bw_4core5clone5Clone5clone, symObjAddr: 0xB74C, symBinAddr: 0x3FC30, symSize: 0x284 }
  - { offset: 0x87F8D, size: 0x8, addend: 0x0, symName: __RNvXs1O_NtNtCsc29TF2YcYso_3syn3gen5cloneNtNtBa_4path29ParenthesizedGenericArgumentsNtNtCsaNl6UpbT7bw_4core5clone5Clone5clone, symObjAddr: 0xB9D0, symBinAddr: 0x3FEB4, symSize: 0xB4 }
  - { offset: 0x87FC1, size: 0x8, addend: 0x0, symName: __RNvXs21_NtNtCsc29TF2YcYso_3syn3gen5cloneNtNtBa_4path4PathNtNtCsaNl6UpbT7bw_4core5clone5Clone5clone, symObjAddr: 0xBA84, symBinAddr: 0x3FF68, symSize: 0x70 }
  - { offset: 0x87FF5, size: 0x8, addend: 0x0, symName: __RNvXs22_NtNtCsc29TF2YcYso_3syn3gen5cloneNtNtBa_4path13PathArgumentsNtNtCsaNl6UpbT7bw_4core5clone5Clone5clone, symObjAddr: 0xBAF4, symBinAddr: 0x3FFD8, symSize: 0x11C }
  - { offset: 0x8805D, size: 0x8, addend: 0x0, symName: __RNvXs23_NtNtCsc29TF2YcYso_3syn3gen5cloneNtNtBa_4path11PathSegmentNtNtCsaNl6UpbT7bw_4core5clone5Clone5clone, symObjAddr: 0xBC10, symBinAddr: 0x400F4, symSize: 0x9C }
  - { offset: 0x88091, size: 0x8, addend: 0x0, symName: __RNvXs28_NtNtCsc29TF2YcYso_3syn3gen5cloneNtNtBa_4path5QSelfNtNtCsaNl6UpbT7bw_4core5clone5Clone5clone, symObjAddr: 0xBCAC, symBinAddr: 0x40190, symSize: 0x100 }
  - { offset: 0x880C5, size: 0x8, addend: 0x0, symName: __RNvXs2H_NtNtCsc29TF2YcYso_3syn3gen5cloneNtNtBa_2op4UnOpNtNtCsaNl6UpbT7bw_4core5clone5Clone5clone, symObjAddr: 0xBDAC, symBinAddr: 0x40290, symSize: 0x30 }
  - { offset: 0x8937F, size: 0x8, addend: 0x0, symName: __RINvXNvMNtCsiTraAjBDcu4_5alloc5sliceSp9to_vec_inTNtNtCsc29TF2YcYso_3syn4path11PathSegmentNtNtBP_5token7PathSepENtB3_10ConvertVec6to_vecNtNtB8_5alloc6GlobalEBP_, symObjAddr: 0xD4, symBinAddr: 0x35770, symSize: 0x370 }
  - { offset: 0x89834, size: 0x8, addend: 0x0, symName: __RINvXNvMNtCsiTraAjBDcu4_5alloc5sliceSp9to_vec_inTNtNtCsc29TF2YcYso_3syn4path15GenericArgumentNtNtBP_5token5CommaENtB3_10ConvertVec6to_vecNtNtB8_5alloc6GlobalEBP_, symObjAddr: 0x444, symBinAddr: 0x35AE0, symSize: 0x374 }
  - { offset: 0x89FBE, size: 0x8, addend: 0x0, symName: __RINvXs5_NtCshnvkK9b4wzu_11proc_macro23impNtB6_11TokenStreamINtNtNtNtCsaNl6UpbT7bw_4core4iter6traits7collect12FromIteratorNtB8_9TokenTreeE9from_iterINtNtNtB14_5array4iter8IntoIterB1V_Kj1_EECsc29TF2YcYso_3syn, symObjAddr: 0xE84, symBinAddr: 0x363B4, symSize: 0x16C }
  - { offset: 0x89FF4, size: 0x8, addend: 0x0, symName: __RINvXs5_NtCshnvkK9b4wzu_11proc_macro23impNtB6_11TokenStreamINtNtNtNtCsaNl6UpbT7bw_4core4iter6traits7collect12FromIteratorNtB8_9TokenTreeE9from_iterINtNtNtB14_5array4iter8IntoIterB1V_Kj8_EECsc29TF2YcYso_3syn, symObjAddr: 0xFF0, symBinAddr: 0x36520, symSize: 0x170 }
  - { offset: 0x8A02A, size: 0x8, addend: 0x0, symName: __RINvXs5_NtCshnvkK9b4wzu_11proc_macro23impNtB6_11TokenStreamINtNtNtNtCsaNl6UpbT7bw_4core4iter6traits7collect12FromIteratorNtB8_9TokenTreeE9from_iterINtNtNtCsiTraAjBDcu4_5alloc3vec9into_iter8IntoIterB1V_EECsc29TF2YcYso_3syn, symObjAddr: 0x1160, symBinAddr: 0x36690, symSize: 0x164 }
  - { offset: 0x8A066, size: 0x8, addend: 0x0, symName: __RINvXs6_NtCshnvkK9b4wzu_11proc_macro23impNtB6_11TokenStreamINtNtNtNtCsaNl6UpbT7bw_4core4iter6traits7collect12FromIteratorBD_E9from_iterINtNtNtB12_8adapters3map3MapIB2a_INtNtNtB14_5slice4iter4IterNtNtCsc29TF2YcYso_3syn5error12ErrorMessageENvMs_B39_B37_16to_compile_errorENCINvXs7_B8_NtB8_11TokenStreamIBW_B4w_E9from_iterB2B_E0EEB3b_, symObjAddr: 0x12C4, symBinAddr: 0x367F4, symSize: 0x24C }
  - { offset: 0x8A0E0, size: 0x8, addend: 0x0, symName: __RNCINvXs6_NtCshnvkK9b4wzu_11proc_macro23impNtB8_11TokenStreamINtNtNtNtCsaNl6UpbT7bw_4core4iter6traits7collect12FromIteratorBF_E9from_iterINtNtNtB14_8adapters3map3MapIB2c_INtNtNtB16_5slice4iter4IterNtNtCsc29TF2YcYso_3syn5error12ErrorMessageENvMs_B3b_B39_16to_compile_errorENCINvXs7_Ba_NtBa_11TokenStreamIBY_B4y_E9from_iterB2D_E0EE0B3d_, symObjAddr: 0x1940, symBinAddr: 0x36E70, symSize: 0x10C }
  - { offset: 0x8A13D, size: 0x8, addend: 0x0, symName: __RNCINvXs6_NtCshnvkK9b4wzu_11proc_macro23impNtB8_11TokenStreamINtNtNtNtCsaNl6UpbT7bw_4core4iter6traits7collect12FromIteratorBF_E9from_iterINtNtNtB14_8adapters3map3MapIB2c_INtNtNtB16_5slice4iter4IterNtNtCsc29TF2YcYso_3syn5error12ErrorMessageENvMs_B3b_B39_16to_compile_errorENCINvXs7_Ba_NtBa_11TokenStreamIBY_B4y_E9from_iterB2D_E0EEs_0B3d_, symObjAddr: 0x1A4C, symBinAddr: 0x36F7C, symSize: 0xF8 }
  - { offset: 0x8A197, size: 0x8, addend: 0x0, symName: __RNcNtNtNtCshnvkK9b4wzu_11proc_macro23imp4Span8Fallback0Csc29TF2YcYso_3syn, symObjAddr: 0x1B44, symBinAddr: 0x37074, symSize: 0x14 }
  - { offset: 0x8A1C8, size: 0x8, addend: 0x0, symName: __RNvXsA_NtCshnvkK9b4wzu_11proc_macro23impNtB5_19DeferredTokenStreamNtNtCsaNl6UpbT7bw_4core5clone5Clone5cloneCsc29TF2YcYso_3syn, symObjAddr: 0x5414, symBinAddr: 0x39C48, symSize: 0x90 }
  - { offset: 0x8A1FA, size: 0x8, addend: 0x0, symName: __RNvXsE_NtCshnvkK9b4wzu_11proc_macro23impNtB5_5GroupNtNtCsaNl6UpbT7bw_4core5clone5Clone5cloneCsc29TF2YcYso_3syn, symObjAddr: 0x54A4, symBinAddr: 0x39CD8, symSize: 0x9C }
  - { offset: 0x8A26A, size: 0x8, addend: 0x0, symName: __RNvXsF_NtCshnvkK9b4wzu_11proc_macro23impNtB5_5IdentNtNtCsaNl6UpbT7bw_4core5clone5Clone5cloneCsc29TF2YcYso_3syn, symObjAddr: 0x5540, symBinAddr: 0x39D74, symSize: 0x9C }
  - { offset: 0x8A2DA, size: 0x8, addend: 0x0, symName: __RNvXsG_NtCshnvkK9b4wzu_11proc_macro23impNtB5_7LiteralNtNtCsaNl6UpbT7bw_4core5clone5Clone5cloneCsc29TF2YcYso_3syn, symObjAddr: 0x55DC, symBinAddr: 0x39E10, symSize: 0x9C }
  - { offset: 0x8A34A, size: 0x8, addend: 0x0, symName: __RNvXss_NtCshnvkK9b4wzu_11proc_macro23impNtB5_5IdentINtNtCsaNl6UpbT7bw_4core3cmp9PartialEqRReE2eqCsc29TF2YcYso_3syn, symObjAddr: 0x5A18, symBinAddr: 0x3A24C, symSize: 0x108 }
  - { offset: 0x8A3DA, size: 0x8, addend: 0x0, symName: __RNvXss_NtCshnvkK9b4wzu_11proc_macro23impNtB5_5IdentINtNtCsaNl6UpbT7bw_4core3cmp9PartialEqReE2eqCsc29TF2YcYso_3syn, symObjAddr: 0x5B20, symBinAddr: 0x3A354, symSize: 0x108 }
  - { offset: 0x8A470, size: 0x8, addend: 0x0, symName: __RNvXsz_NtCshnvkK9b4wzu_11proc_macro23impNtB5_11TokenStreamNtNtCsaNl6UpbT7bw_4core5clone5Clone5cloneCsc29TF2YcYso_3syn, symObjAddr: 0x5C28, symBinAddr: 0x3A45C, symSize: 0x98 }
  - { offset: 0x9184F, size: 0x8, addend: 0x0, symName: __RINvXs2V_NtNtCsaNl6UpbT7bw_4core5slice4iterINtB7_4IterNtNtCsc29TF2YcYso_3syn4attr9AttributeENtNtNtNtBb_4iter6traits8iterator8Iterator4findQFG0_RL1_RL0_BQ_EbEBU_, symObjAddr: 0x7B8, symBinAddr: 0x35E54, symSize: 0xB0 }
  - { offset: 0x918B4, size: 0x8, addend: 0x0, symName: __RINvXs2V_NtNtCsaNl6UpbT7bw_4core5slice4iterINtB7_4IterNtNtCsc29TF2YcYso_3syn5error12ErrorMessageENtNtNtNtBb_4iter6traits8iterator8Iterator4folduNCINvNtNtB1D_8adapters3map8map_foldRBQ_NtCshnvkK9b4wzu_11proc_macro211TokenStreamuNvMs_BS_BQ_16to_compile_errorNCIB2l_B2V_NtNtB2X_3imp11TokenStreamuNCINvXs7_B2X_B2V_INtNtB1B_7collect12FromIteratorB2V_E9from_iterINtB2n_3MapBF_B3C_EE0NCIB2l_B4g_NtCs7yrEGia95Wz_10proc_macro11TokenStreamuNCINvXs6_B4i_B4g_IB4Y_B4g_E9from_iterIB5I_B5H_B4G_EE0NCINvNvB1x_8for_each4callB6d_NCINvXsj_B6f_B6d_INtB50_6ExtendB6d_E6extendIB5I_B7u_B6T_EE0E0E0E0E0EBU_, symObjAddr: 0x868, symBinAddr: 0x35F04, symSize: 0x194 }
  - { offset: 0x91A08, size: 0x8, addend: 0x0, symName: __RINvXs2V_NtNtCsaNl6UpbT7bw_4core5slice4iterINtB7_4IterhENtNtNtNtBb_4iter6traits8iterator8Iterator4findNCNvNtNtCsc29TF2YcYso_3syn3lit5value15parse_lit_float0EB1K_, symObjAddr: 0x9FC, symBinAddr: 0x36098, symSize: 0xAC }
  - { offset: 0x91A6D, size: 0x8, addend: 0x0, symName: __RNvXs2V_NtNtCsaNl6UpbT7bw_4core5slice4iterINtB6_4IterNtCshnvkK9b4wzu_11proc_macro24SpanENtNtNtNtBa_4iter6traits8iterator8Iterator4nextCsc29TF2YcYso_3syn, symObjAddr: 0x2BF8, symBinAddr: 0x37F24, symSize: 0xB0 }
  - { offset: 0x91BA7, size: 0x8, addend: 0x0, symName: __RNvXs2V_NtNtCsaNl6UpbT7bw_4core5slice4iterINtB6_4IterNtNtCsc29TF2YcYso_3syn4attr9AttributeENtNtNtNtBa_4iter6traits8iterator8Iterator4nextBT_, symObjAddr: 0x2CA8, symBinAddr: 0x37FD4, symSize: 0xB0 }
  - { offset: 0x91CE1, size: 0x8, addend: 0x0, symName: __RNvXs2V_NtNtCsaNl6UpbT7bw_4core5slice4iterINtB6_4IterNtNtCsc29TF2YcYso_3syn4expr3ArmENtNtNtNtBa_4iter6traits8iterator8Iterator4nextBT_, symObjAddr: 0x2D58, symBinAddr: 0x38084, symSize: 0xB0 }
  - { offset: 0x91E1B, size: 0x8, addend: 0x0, symName: __RNvXs2V_NtNtCsaNl6UpbT7bw_4core5slice4iterINtB6_4IterNtNtCsc29TF2YcYso_3syn4item11ForeignItemENtNtNtNtBa_4iter6traits8iterator8Iterator4nextBT_, symObjAddr: 0x2E08, symBinAddr: 0x38134, symSize: 0xB0 }
  - { offset: 0x91F55, size: 0x8, addend: 0x0, symName: __RNvXs2V_NtNtCsaNl6UpbT7bw_4core5slice4iterINtB6_4IterNtNtCsc29TF2YcYso_3syn4item4ItemENtNtNtNtBa_4iter6traits8iterator8Iterator4nextBT_, symObjAddr: 0x2EB8, symBinAddr: 0x381E4, symSize: 0xB0 }
  - { offset: 0x9208F, size: 0x8, addend: 0x0, symName: __RNvXs2V_NtNtCsaNl6UpbT7bw_4core5slice4iterINtB6_4IterNtNtCsc29TF2YcYso_3syn4item8ImplItemENtNtNtNtBa_4iter6traits8iterator8Iterator4nextBT_, symObjAddr: 0x2F68, symBinAddr: 0x38294, symSize: 0xB0 }
  - { offset: 0x921C9, size: 0x8, addend: 0x0, symName: __RNvXs2V_NtNtCsaNl6UpbT7bw_4core5slice4iterINtB6_4IterNtNtCsc29TF2YcYso_3syn4item9TraitItemENtNtNtNtBa_4iter6traits8iterator8Iterator4nextBT_, symObjAddr: 0x3018, symBinAddr: 0x38344, symSize: 0xB0 }
  - { offset: 0x92303, size: 0x8, addend: 0x0, symName: __RNvXs2V_NtNtCsaNl6UpbT7bw_4core5slice4iterINtB6_4IterNtNtCsc29TF2YcYso_3syn4stmt4StmtENtNtNtNtBa_4iter6traits8iterator8Iterator4nextBT_, symObjAddr: 0x30C8, symBinAddr: 0x383F4, symSize: 0xB0 }
  - { offset: 0x9243D, size: 0x8, addend: 0x0, symName: __RNvXs2V_NtNtCsaNl6UpbT7bw_4core5slice4iterINtB6_4IterNtNtCsc29TF2YcYso_3syn5error12ErrorMessageENtNtNtNtBa_4iter6traits8iterator8Iterator4nextBT_, symObjAddr: 0x3178, symBinAddr: 0x384A4, symSize: 0xB0 }
  - { offset: 0x92577, size: 0x8, addend: 0x0, symName: __RNvXs2V_NtNtCsaNl6UpbT7bw_4core5slice4iterINtB6_4IterNtNtCsc29TF2YcYso_3syn5error12ErrorMessageENtNtNtNtBa_4iter6traits8iterator8Iterator9size_hintBT_, symObjAddr: 0x3228, symBinAddr: 0x38554, symSize: 0x70 }
  - { offset: 0x925E6, size: 0x8, addend: 0x0, symName: __RNvXs2V_NtNtCsaNl6UpbT7bw_4core5slice4iterINtB6_4IterTNtNtCsc29TF2YcYso_3syn2ty4TypeNtNtBU_5token5CommaEENtNtNtNtBa_4iter6traits8iterator8Iterator4nextBU_, symObjAddr: 0x3298, symBinAddr: 0x385C4, symSize: 0xB0 }
  - { offset: 0x92720, size: 0x8, addend: 0x0, symName: __RNvXs2V_NtNtCsaNl6UpbT7bw_4core5slice4iterINtB6_4IterTNtNtCsc29TF2YcYso_3syn2ty9BareFnArgNtNtBU_5token5CommaEENtNtNtNtBa_4iter6traits8iterator8Iterator4nextBU_, symObjAddr: 0x3348, symBinAddr: 0x38674, symSize: 0xB0 }
  - { offset: 0x9285A, size: 0x8, addend: 0x0, symName: __RNvXs2V_NtNtCsaNl6UpbT7bw_4core5slice4iterINtB6_4IterTNtNtCsc29TF2YcYso_3syn3pat3PatNtNtBU_5token2OrEENtNtNtNtBa_4iter6traits8iterator8Iterator4nextBU_, symObjAddr: 0x33F8, symBinAddr: 0x38724, symSize: 0xB0 }
  - { offset: 0x92994, size: 0x8, addend: 0x0, symName: __RNvXs2V_NtNtCsaNl6UpbT7bw_4core5slice4iterINtB6_4IterTNtNtCsc29TF2YcYso_3syn3pat3PatNtNtBU_5token5CommaEENtNtNtNtBa_4iter6traits8iterator8Iterator4nextBU_, symObjAddr: 0x34A8, symBinAddr: 0x387D4, symSize: 0xB0 }
  - { offset: 0x92ACE, size: 0x8, addend: 0x0, symName: __RNvXs2V_NtNtCsaNl6UpbT7bw_4core5slice4iterINtB6_4IterTNtNtCsc29TF2YcYso_3syn3pat8FieldPatNtNtBU_5token5CommaEENtNtNtNtBa_4iter6traits8iterator8Iterator4nextBU_, symObjAddr: 0x3558, symBinAddr: 0x38884, symSize: 0xB0 }
  - { offset: 0x92C08, size: 0x8, addend: 0x0, symName: __RNvXs2V_NtNtCsaNl6UpbT7bw_4core5slice4iterINtB6_4IterTNtNtCsc29TF2YcYso_3syn4data5FieldNtNtBU_5token5CommaEENtNtNtNtBa_4iter6traits8iterator8Iterator4nextBU_, symObjAddr: 0x3608, symBinAddr: 0x38934, symSize: 0xB0 }
  - { offset: 0x92D42, size: 0x8, addend: 0x0, symName: __RNvXs2V_NtNtCsaNl6UpbT7bw_4core5slice4iterINtB6_4IterTNtNtCsc29TF2YcYso_3syn4data7VariantNtNtBU_5token5CommaEENtNtNtNtBa_4iter6traits8iterator8Iterator4nextBU_, symObjAddr: 0x36B8, symBinAddr: 0x389E4, symSize: 0xB0 }
  - { offset: 0x92E7C, size: 0x8, addend: 0x0, symName: __RNvXs2V_NtNtCsaNl6UpbT7bw_4core5slice4iterINtB6_4IterTNtNtCsc29TF2YcYso_3syn4expr10FieldValueNtNtBU_5token5CommaEENtNtNtNtBa_4iter6traits8iterator8Iterator4nextBU_, symObjAddr: 0x3768, symBinAddr: 0x38A94, symSize: 0xB0 }
  - { offset: 0x92FB6, size: 0x8, addend: 0x0, symName: __RNvXs2V_NtNtCsaNl6UpbT7bw_4core5slice4iterINtB6_4IterTNtNtCsc29TF2YcYso_3syn4expr4ExprNtNtBU_5token5CommaEENtNtNtNtBa_4iter6traits8iterator8Iterator4nextBU_, symObjAddr: 0x3818, symBinAddr: 0x38B44, symSize: 0xB0 }
  - { offset: 0x930F0, size: 0x8, addend: 0x0, symName: __RNvXs2V_NtNtCsaNl6UpbT7bw_4core5slice4iterINtB6_4IterTNtNtCsc29TF2YcYso_3syn4item5FnArgNtNtBU_5token5CommaEENtNtNtNtBa_4iter6traits8iterator8Iterator4nextBU_, symObjAddr: 0x38C8, symBinAddr: 0x38BF4, symSize: 0xB0 }
  - { offset: 0x9322A, size: 0x8, addend: 0x0, symName: __RNvXs2V_NtNtCsaNl6UpbT7bw_4core5slice4iterINtB6_4IterTNtNtCsc29TF2YcYso_3syn4item7UseTreeNtNtBU_5token5CommaEENtNtNtNtBa_4iter6traits8iterator8Iterator4nextBU_, symObjAddr: 0x3978, symBinAddr: 0x38CA4, symSize: 0xB0 }
  - { offset: 0x93364, size: 0x8, addend: 0x0, symName: __RNvXs2V_NtNtCsaNl6UpbT7bw_4core5slice4iterINtB6_4IterTNtNtCsc29TF2YcYso_3syn4path11PathSegmentNtNtBU_5token7PathSepEENtNtNtNtBa_4iter6traits8iterator8Iterator4nextBU_, symObjAddr: 0x3A28, symBinAddr: 0x38D54, symSize: 0xB0 }
  - { offset: 0x9349E, size: 0x8, addend: 0x0, symName: __RNvXs2V_NtNtCsaNl6UpbT7bw_4core5slice4iterINtB6_4IterTNtNtCsc29TF2YcYso_3syn4path15GenericArgumentNtNtBU_5token5CommaEENtNtNtNtBa_4iter6traits8iterator8Iterator4nextBU_, symObjAddr: 0x3AD8, symBinAddr: 0x38E04, symSize: 0xB0 }
  - { offset: 0x935D8, size: 0x8, addend: 0x0, symName: __RNvXs2V_NtNtCsaNl6UpbT7bw_4core5slice4iterINtB6_4IterTNtNtCsc29TF2YcYso_3syn8generics12GenericParamNtNtBU_5token5CommaEENtNtNtNtBa_4iter6traits8iterator8Iterator4nextBU_, symObjAddr: 0x3B88, symBinAddr: 0x38EB4, symSize: 0xB0 }
  - { offset: 0x93712, size: 0x8, addend: 0x0, symName: __RNvXs2V_NtNtCsaNl6UpbT7bw_4core5slice4iterINtB6_4IterTNtNtCsc29TF2YcYso_3syn8generics13CapturedParamNtNtBU_5token5CommaEENtNtNtNtBa_4iter6traits8iterator8Iterator4nextBU_, symObjAddr: 0x3C38, symBinAddr: 0x38F64, symSize: 0xB0 }
  - { offset: 0x9384C, size: 0x8, addend: 0x0, symName: __RNvXs2V_NtNtCsaNl6UpbT7bw_4core5slice4iterINtB6_4IterTNtNtCsc29TF2YcYso_3syn8generics14TypeParamBoundNtNtBU_5token4PlusEENtNtNtNtBa_4iter6traits8iterator8Iterator4nextBU_, symObjAddr: 0x3CE8, symBinAddr: 0x39014, symSize: 0xB0 }
  - { offset: 0x93986, size: 0x8, addend: 0x0, symName: __RNvXs2V_NtNtCsaNl6UpbT7bw_4core5slice4iterINtB6_4IterTNtNtCsc29TF2YcYso_3syn8generics14WherePredicateNtNtBU_5token5CommaEENtNtNtNtBa_4iter6traits8iterator8Iterator4nextBU_, symObjAddr: 0x3D98, symBinAddr: 0x390C4, symSize: 0xB0 }
  - { offset: 0x93AC0, size: 0x8, addend: 0x0, symName: __RNvXs2V_NtNtCsaNl6UpbT7bw_4core5slice4iterINtB6_4IterTNtNtCsc29TF2YcYso_3syn8lifetime8LifetimeNtNtBU_5token4PlusEENtNtNtNtBa_4iter6traits8iterator8Iterator4nextBU_, symObjAddr: 0x3E48, symBinAddr: 0x39174, symSize: 0xB0 }
  - { offset: 0x9446A, size: 0x8, addend: 0x0, symName: __RNvXs2W_NtNtCsaNl6UpbT7bw_4core5slice4iterINtB6_4IterNtCshnvkK9b4wzu_11proc_macro24SpanENtNtNtNtBa_4iter6traits12double_ended19DoubleEndedIterator9next_backCsc29TF2YcYso_3syn, symObjAddr: 0x3EF8, symBinAddr: 0x39224, symSize: 0x108 }
  - { offset: 0x945C6, size: 0x8, addend: 0x0, symName: __RNvXs2W_NtNtCsaNl6UpbT7bw_4core5slice4iterINtB6_4IterTNtNtCsc29TF2YcYso_3syn4path11PathSegmentNtNtBU_5token7PathSepEENtNtNtNtBa_4iter6traits12double_ended19DoubleEndedIterator9next_backBU_, symObjAddr: 0x4210, symBinAddr: 0x3932C, symSize: 0x108 }
  - { offset: 0x94722, size: 0x8, addend: 0x0, symName: __RNvXs2W_NtNtCsaNl6UpbT7bw_4core5slice4iterINtB6_4IterTNtNtCsc29TF2YcYso_3syn8generics12GenericParamNtNtBU_5token5CommaEENtNtNtNtBa_4iter6traits12double_ended19DoubleEndedIterator9next_backBU_, symObjAddr: 0x4318, symBinAddr: 0x39434, symSize: 0x108 }
  - { offset: 0x9487E, size: 0x8, addend: 0x0, symName: __RNvXs2W_NtNtCsaNl6UpbT7bw_4core5slice4iterINtB6_4IterTNtNtCsc29TF2YcYso_3syn8generics14TypeParamBoundNtNtBU_5token4PlusEENtNtNtNtBa_4iter6traits12double_ended19DoubleEndedIterator9next_backBU_, symObjAddr: 0x4420, symBinAddr: 0x3953C, symSize: 0x108 }
  - { offset: 0x949DA, size: 0x8, addend: 0x0, symName: __RNvXs2W_NtNtCsaNl6UpbT7bw_4core5slice4iterINtB6_4IterhENtNtNtNtBa_4iter6traits12double_ended19DoubleEndedIterator9next_backCsc29TF2YcYso_3syn, symObjAddr: 0x4528, symBinAddr: 0x39644, symSize: 0x108 }
  - { offset: 0x94BB3, size: 0x8, addend: 0x0, symName: __RNvXs33_NtNtCsaNl6UpbT7bw_4core5slice4iterINtB6_7IterMutTNtNtCsc29TF2YcYso_3syn4path11PathSegmentNtNtBX_5token7PathSepEENtNtNtNtBa_4iter6traits8iterator8Iterator4nextBX_, symObjAddr: 0x4C2C, symBinAddr: 0x39960, symSize: 0xB0 }
  - { offset: 0x94CD8, size: 0x8, addend: 0x0, symName: __RNvXs33_NtNtCsaNl6UpbT7bw_4core5slice4iterINtB6_7IterMuthENtNtNtNtBa_4iter6traits8iterator8Iterator4nextCsc29TF2YcYso_3syn, symObjAddr: 0x4D8C, symBinAddr: 0x39A10, symSize: 0xB0 }
  - { offset: 0x94E03, size: 0x8, addend: 0x0, symName: __RNvXs34_NtNtCsaNl6UpbT7bw_4core5slice4iterINtB6_7IterMutTNtNtCsc29TF2YcYso_3syn4path11PathSegmentNtNtBX_5token7PathSepEENtNtNtNtBa_4iter6traits12double_ended19DoubleEndedIterator9next_backBX_, symObjAddr: 0x4F44, symBinAddr: 0x39AC0, symSize: 0x108 }
  - { offset: 0x94F65, size: 0x8, addend: 0x0, symName: __RNvXs5_NtNtCsaNl6UpbT7bw_4core5slice4iterINtB5_4IterTNtNtCsc29TF2YcYso_3syn4path11PathSegmentNtNtBT_5token7PathSepEENtNtB9_5clone5Clone5cloneBT_, symObjAddr: 0x51B4, symBinAddr: 0x39BE8, symSize: 0x20 }
  - { offset: 0x94F9A, size: 0x8, addend: 0x0, symName: __RNvXs5_NtNtCsaNl6UpbT7bw_4core5slice4iterINtB5_4IterTNtNtCsc29TF2YcYso_3syn8generics12GenericParamNtNtBT_5token5CommaEENtNtB9_5clone5Clone5cloneBT_, symObjAddr: 0x51D4, symBinAddr: 0x39C08, symSize: 0x20 }
  - { offset: 0x94FCF, size: 0x8, addend: 0x0, symName: __RNvXs5_NtNtCsaNl6UpbT7bw_4core5slice4iterINtB5_4IterTNtNtCsc29TF2YcYso_3syn8generics14TypeParamBoundNtNtBT_5token4PlusEENtNtB9_5clone5Clone5cloneBT_, symObjAddr: 0x51F4, symBinAddr: 0x39C28, symSize: 0x20 }
  - { offset: 0x951D3, size: 0x8, addend: 0x0, symName: __RNvMNtCsaNl6UpbT7bw_4core5sliceSTNtNtCsc29TF2YcYso_3syn4path11PathSegmentNtNtBz_5token7PathSepE4iterBz_, symObjAddr: 0x1B58, symBinAddr: 0x37088, symSize: 0x28 }
  - { offset: 0x9520A, size: 0x8, addend: 0x0, symName: __RNvMNtCsaNl6UpbT7bw_4core5sliceSTNtNtCsc29TF2YcYso_3syn4path11PathSegmentNtNtBz_5token7PathSepE8iter_mutBz_, symObjAddr: 0x1B80, symBinAddr: 0x370B0, symSize: 0x28 }
  - { offset: 0x95241, size: 0x8, addend: 0x0, symName: __RNvMNtCsaNl6UpbT7bw_4core5sliceSTNtNtCsc29TF2YcYso_3syn4path15GenericArgumentNtNtBz_5token5CommaE4iterBz_, symObjAddr: 0x1BA8, symBinAddr: 0x370D8, symSize: 0x28 }
  - { offset: 0x953A5, size: 0x8, addend: 0x0, symName: __RNvNtNtCsaNl6UpbT7bw_4core5slice6memchr6memchrCsc29TF2YcYso_3syn, symObjAddr: 0x2450, symBinAddr: 0x378D0, symSize: 0x114 }
  - { offset: 0x95C2A, size: 0x8, addend: 0x0, symName: __RINvYINtNtNtCsaNl6UpbT7bw_4core5array4iter8IntoIterNtCshnvkK9b4wzu_11proc_macro29TokenTreeKj1_ENtNtNtNtBa_4iter6traits8iterator8Iterator3mapNtCs7yrEGia95Wz_10proc_macro9TokenTreeNvNtBP_3imp19into_compiler_tokenECsc29TF2YcYso_3syn, symObjAddr: 0x1510, symBinAddr: 0x36A40, symSize: 0x30 }
  - { offset: 0x95C98, size: 0x8, addend: 0x0, symName: __RINvYINtNtNtCsaNl6UpbT7bw_4core5array4iter8IntoIterNtCshnvkK9b4wzu_11proc_macro29TokenTreeKj1_ENtNtNtNtBa_4iter6traits8iterator8Iterator7collectNtNtBP_3imp11TokenStreamECsc29TF2YcYso_3syn, symObjAddr: 0x1540, symBinAddr: 0x36A70, symSize: 0x6C }
  - { offset: 0x95D2E, size: 0x8, addend: 0x0, symName: __RINvYINtNtNtCsaNl6UpbT7bw_4core5array4iter8IntoIterNtCshnvkK9b4wzu_11proc_macro29TokenTreeKj1_ENtNtNtNtBa_4iter6traits8iterator8Iterator7collectNtNtBP_8fallback11TokenStreamECsc29TF2YcYso_3syn, symObjAddr: 0x15AC, symBinAddr: 0x36ADC, symSize: 0x6C }
  - { offset: 0x95DC4, size: 0x8, addend: 0x0, symName: __RINvYINtNtNtCsaNl6UpbT7bw_4core5array4iter8IntoIterNtCshnvkK9b4wzu_11proc_macro29TokenTreeKj1_ENtNtNtNtBa_4iter6traits8iterator8Iterator8for_eachNCINvXsa_NtBP_8fallbackNtB2s_11TokenStreamINtNtB1z_7collect6ExtendBN_E6extendB3_E0ECsc29TF2YcYso_3syn, symObjAddr: 0x1618, symBinAddr: 0x36B48, symSize: 0x24 }
  - { offset: 0x95E10, size: 0x8, addend: 0x0, symName: __RINvYINtNtNtCsaNl6UpbT7bw_4core5array4iter8IntoIterNtCshnvkK9b4wzu_11proc_macro29TokenTreeKj8_ENtNtNtNtBa_4iter6traits8iterator8Iterator3mapNtCs7yrEGia95Wz_10proc_macro9TokenTreeNvNtBP_3imp19into_compiler_tokenECsc29TF2YcYso_3syn, symObjAddr: 0x163C, symBinAddr: 0x36B6C, symSize: 0x30 }
  - { offset: 0x95E7E, size: 0x8, addend: 0x0, symName: __RINvYINtNtNtCsaNl6UpbT7bw_4core5array4iter8IntoIterNtCshnvkK9b4wzu_11proc_macro29TokenTreeKj8_ENtNtNtNtBa_4iter6traits8iterator8Iterator7collectNtNtBP_3imp11TokenStreamECsc29TF2YcYso_3syn, symObjAddr: 0x166C, symBinAddr: 0x36B9C, symSize: 0x74 }
  - { offset: 0x95F14, size: 0x8, addend: 0x0, symName: __RINvYINtNtNtCsaNl6UpbT7bw_4core5array4iter8IntoIterNtCshnvkK9b4wzu_11proc_macro29TokenTreeKj8_ENtNtNtNtBa_4iter6traits8iterator8Iterator7collectNtNtBP_8fallback11TokenStreamECsc29TF2YcYso_3syn, symObjAddr: 0x16E0, symBinAddr: 0x36C10, symSize: 0x74 }
  - { offset: 0x95FAA, size: 0x8, addend: 0x0, symName: __RINvYINtNtNtCsaNl6UpbT7bw_4core5array4iter8IntoIterNtCshnvkK9b4wzu_11proc_macro29TokenTreeKj8_ENtNtNtNtBa_4iter6traits8iterator8Iterator8for_eachNCINvXsa_NtBP_8fallbackNtB2s_11TokenStreamINtNtB1z_7collect6ExtendBN_E6extendB3_E0ECsc29TF2YcYso_3syn, symObjAddr: 0x1754, symBinAddr: 0x36C84, symSize: 0x24 }
  - { offset: 0x95FF6, size: 0x8, addend: 0x0, symName: __RINvYINtNtNtCsaNl6UpbT7bw_4core5slice4iter4IterNtNtCsc29TF2YcYso_3syn4attr9AttributeENtNtNtNtBa_4iter6traits8iterator8Iterator6filterFG0_RL1_RL0_BJ_EbEBN_, symObjAddr: 0x1778, symBinAddr: 0x36CA8, symSize: 0x30 }
  - { offset: 0x9605A, size: 0x8, addend: 0x0, symName: __RINvYINtNtNtCsaNl6UpbT7bw_4core5slice4iter4IterNtNtCsc29TF2YcYso_3syn5error12ErrorMessageENtNtNtNtBa_4iter6traits8iterator8Iterator3mapNtCshnvkK9b4wzu_11proc_macro211TokenStreamNvMs_BL_BJ_16to_compile_errorEBN_, symObjAddr: 0x17A8, symBinAddr: 0x36CD8, symSize: 0x1C }
  - { offset: 0x960B2, size: 0x8, addend: 0x0, symName: __RINvYINtNtNtCsaNl6UpbT7bw_4core5slice4iter4IterReENtNtNtNtBa_4iter6traits8iterator8Iterator8try_foldjNCINvNtNtBS_8adapters3map12map_try_foldRBJ_jjINtNtBa_6option6OptionjENCNCINvNtCsiTraAjBDcu4_5alloc3str17join_generic_copyehBJ_E00NvMs9_NtBa_3numj11checked_addE0B2k_ECsc29TF2YcYso_3syn, symObjAddr: 0x17C4, symBinAddr: 0x36CF4, symSize: 0x17C }
  - { offset: 0x96166, size: 0x8, addend: 0x0, symName: __RNvYINtNtNtCsaNl6UpbT7bw_4core5slice4iter4IterNtNtCsc29TF2YcYso_3syn4expr3ArmENtNtNtNtB9_4iter6traits8iterator8Iterator9enumerateBM_, symObjAddr: 0x5CC0, symBinAddr: 0x3A4F4, symSize: 0x28 }
  - { offset: 0x961B2, size: 0x8, addend: 0x0, symName: __RNvYINtNtNtCsaNl6UpbT7bw_4core5slice4iter4IterhENtNtNtNtB9_4iter6traits8iterator8Iterator3revCsc29TF2YcYso_3syn, symObjAddr: 0x5CE8, symBinAddr: 0x3A51C, symSize: 0x1C }
  - { offset: 0x961F5, size: 0x8, addend: 0x0, symName: __RNvXNtNtNtCsaNl6UpbT7bw_4core4iter6traits7collectINtNtNtB8_5array4iter8IntoIterNtCshnvkK9b4wzu_11proc_macro29TokenTreeKj1_ENtB2_12IntoIterator9into_iterCsc29TF2YcYso_3syn, symObjAddr: 0x2684, symBinAddr: 0x37B04, symSize: 0x30 }
  - { offset: 0x9622D, size: 0x8, addend: 0x0, symName: __RNvXNtNtNtCsaNl6UpbT7bw_4core4iter6traits7collectINtNtNtB8_5array4iter8IntoIterNtCshnvkK9b4wzu_11proc_macro29TokenTreeKj8_ENtB2_12IntoIterator9into_iterCsc29TF2YcYso_3syn, symObjAddr: 0x26B4, symBinAddr: 0x37B34, symSize: 0x30 }
  - { offset: 0x96265, size: 0x8, addend: 0x0, symName: __RNvXNtNtNtCsaNl6UpbT7bw_4core4iter6traits7collectINtNtNtB8_5slice4iter4IterNtCshnvkK9b4wzu_11proc_macro24SpanENtB2_12IntoIterator9into_iterCsc29TF2YcYso_3syn, symObjAddr: 0x26E4, symBinAddr: 0x37B64, symSize: 0x1C }
  - { offset: 0x9629C, size: 0x8, addend: 0x0, symName: __RNvXNtNtNtCsaNl6UpbT7bw_4core4iter6traits7collectINtNtNtB8_5slice4iter4IterNtNtCsc29TF2YcYso_3syn5error12ErrorMessageENtB2_12IntoIterator9into_iterB1f_, symObjAddr: 0x27C4, symBinAddr: 0x37B80, symSize: 0x1C }
  - { offset: 0x965B7, size: 0x8, addend: 0x0, symName: __RINvXs2_NtNtCsaNl6UpbT7bw_4core5array4iterINtB6_8IntoIterNtCshnvkK9b4wzu_11proc_macro29TokenTreeKj1_ENtNtNtNtBa_4iter6traits8iterator8Iterator4folduNCINvNtNtB1H_8adapters3map8map_foldBT_NtCs7yrEGia95Wz_10proc_macro9TokenTreeuNvNtBV_3imp19into_compiler_tokenNCINvNvB1B_8for_each4callB2Y_NCINvXsg_B30_NtB30_11TokenStreamINtNtB1F_7collect12FromIteratorB2Y_E9from_iterINtB2r_3MapBE_B3B_EE0E0E0ECsc29TF2YcYso_3syn, symObjAddr: 0xAA8, symBinAddr: 0x36144, symSize: 0x9C }
  - { offset: 0x966C1, size: 0x8, addend: 0x0, symName: __RINvXs2_NtNtCsaNl6UpbT7bw_4core5array4iterINtB6_8IntoIterNtCshnvkK9b4wzu_11proc_macro29TokenTreeKj1_ENtNtNtNtBa_4iter6traits8iterator8Iterator4folduNCINvNvB1B_8for_each4callBT_NCINvXsa_NtBV_8fallbackNtB2X_11TokenStreamINtNtB1F_7collect6ExtendBT_E6extendBE_E0E0ECsc29TF2YcYso_3syn, symObjAddr: 0xB44, symBinAddr: 0x361E0, symSize: 0x9C }
  - { offset: 0x967CB, size: 0x8, addend: 0x0, symName: __RINvXs2_NtNtCsaNl6UpbT7bw_4core5array4iterINtB6_8IntoIterNtCshnvkK9b4wzu_11proc_macro29TokenTreeKj8_ENtNtNtNtBa_4iter6traits8iterator8Iterator4folduNCINvNtNtB1H_8adapters3map8map_foldBT_NtCs7yrEGia95Wz_10proc_macro9TokenTreeuNvNtBV_3imp19into_compiler_tokenNCINvNvB1B_8for_each4callB2Y_NCINvXsg_B30_NtB30_11TokenStreamINtNtB1F_7collect12FromIteratorB2Y_E9from_iterINtB2r_3MapBE_B3B_EE0E0E0ECsc29TF2YcYso_3syn, symObjAddr: 0xBE0, symBinAddr: 0x3627C, symSize: 0x9C }
  - { offset: 0x968D5, size: 0x8, addend: 0x0, symName: __RINvXs2_NtNtCsaNl6UpbT7bw_4core5array4iterINtB6_8IntoIterNtCshnvkK9b4wzu_11proc_macro29TokenTreeKj8_ENtNtNtNtBa_4iter6traits8iterator8Iterator4folduNCINvNvB1B_8for_each4callBT_NCINvXsa_NtBV_8fallbackNtB2X_11TokenStreamINtNtB1F_7collect6ExtendBT_E6extendBE_E0E0ECsc29TF2YcYso_3syn, symObjAddr: 0xC7C, symBinAddr: 0x36318, symSize: 0x9C }
  - { offset: 0x969DF, size: 0x8, addend: 0x0, symName: __RNvXs2_NtNtCsaNl6UpbT7bw_4core5array4iterINtB5_8IntoIterNtCshnvkK9b4wzu_11proc_macro29TokenTreeKj1_ENtNtNtNtB9_4iter6traits8iterator8Iterator9size_hintCsc29TF2YcYso_3syn, symObjAddr: 0x47BC, symBinAddr: 0x398D8, symSize: 0x44 }
  - { offset: 0x96A52, size: 0x8, addend: 0x0, symName: __RNvXs2_NtNtCsaNl6UpbT7bw_4core5array4iterINtB5_8IntoIterNtCshnvkK9b4wzu_11proc_macro29TokenTreeKj8_ENtNtNtNtB9_4iter6traits8iterator8Iterator9size_hintCsc29TF2YcYso_3syn, symObjAddr: 0x4800, symBinAddr: 0x3991C, symSize: 0x44 }
  - { offset: 0x96B08, size: 0x8, addend: 0x0, symName: __RNvXs4_NtNtCsaNl6UpbT7bw_4core5array4iterINtB5_8IntoIterNtCshnvkK9b4wzu_11proc_macro29TokenTreeKj1_ENtNtNtB9_3ops4drop4Drop4dropCsc29TF2YcYso_3syn, symObjAddr: 0x5154, symBinAddr: 0x39BC8, symSize: 0x10 }
  - { offset: 0x96B3B, size: 0x8, addend: 0x0, symName: __RNvXs4_NtNtCsaNl6UpbT7bw_4core5array4iterINtB5_8IntoIterNtCshnvkK9b4wzu_11proc_macro29TokenTreeKj8_ENtNtNtB9_3ops4drop4Drop4dropCsc29TF2YcYso_3syn, symObjAddr: 0x5164, symBinAddr: 0x39BD8, symSize: 0x10 }
  - { offset: 0x97532, size: 0x8, addend: 0x0, symName: __RNvXNtNtCsaNl6UpbT7bw_4core5clone6uninitNtNtCsc29TF2YcYso_3syn4path11PathSegmentNtB2_8CopySpec9clone_oneBG_, symObjAddr: 0x25A4, symBinAddr: 0x37A24, symSize: 0x48 }
  - { offset: 0x97596, size: 0x8, addend: 0x0, symName: __RNvXNtNtCsaNl6UpbT7bw_4core5clone6uninitNtNtCsc29TF2YcYso_3syn4path15GenericArgumentNtB2_8CopySpec9clone_oneBG_, symObjAddr: 0x25EC, symBinAddr: 0x37A6C, symSize: 0x50 }
  - { offset: 0x975FA, size: 0x8, addend: 0x0, symName: __RNvXNtNtCsaNl6UpbT7bw_4core5clone6uninitNtNtCsc29TF2YcYso_3syn4path4PathNtB2_8CopySpec9clone_oneBG_, symObjAddr: 0x263C, symBinAddr: 0x37ABC, symSize: 0x48 }
  - { offset: 0x97735, size: 0x8, addend: 0x0, symName: __RNvXs0_NtNtCsaNl6UpbT7bw_4core3str7patternNtB5_12CharSearcherNtB5_15ReverseSearcher15next_match_backCsc29TF2YcYso_3syn, symObjAddr: 0x27E0, symBinAddr: 0x37B9C, symSize: 0x388 }
  - { offset: 0x97C3C, size: 0x8, addend: 0x0, symName: __RNvXs2_NtNtCsaNl6UpbT7bw_4core3str7patterncNtB5_7Pattern12is_suffix_ofCsc29TF2YcYso_3syn, symObjAddr: 0x4630, symBinAddr: 0x3974C, symSize: 0x78 }
  - { offset: 0x97CE3, size: 0x8, addend: 0x0, symName: __RNvXs2_NtNtCsaNl6UpbT7bw_4core3str7patterncNtB5_7Pattern13into_searcherCsc29TF2YcYso_3syn, symObjAddr: 0x46A8, symBinAddr: 0x397C4, symSize: 0x114 }
  - { offset: 0x97E01, size: 0x8, addend: 0x0, symName: __RNvXs_NtNtCsaNl6UpbT7bw_4core3str7patternNtB4_12CharSearcherNtB4_8Searcher10next_matchCsc29TF2YcYso_3syn, symObjAddr: 0x5678, symBinAddr: 0x39EAC, symSize: 0x380 }
  - { offset: 0x98265, size: 0x8, addend: 0x0, symName: __RNvXs_NtNtCsaNl6UpbT7bw_4core3str7patternNtB4_12CharSearcherNtB4_8Searcher8haystackCsc29TF2YcYso_3syn, symObjAddr: 0x59F8, symBinAddr: 0x3A22C, symSize: 0x20 }
  - { offset: 0x989A9, size: 0x8, addend: 0x0, symName: __RINvMsv_NtCshnvkK9b4wzu_11proc_macro23impNtB6_7Literal7subspanINtNtNtCsaNl6UpbT7bw_4core3ops5range5RangejEECsc29TF2YcYso_3syn, symObjAddr: 0x0, symBinAddr: 0x3569C, symSize: 0xD4 }
  - { offset: 0x999C0, size: 0x8, addend: 0x0, symName: __RNvMs4_NtNtCsaNl6UpbT7bw_4core5slice4iterINtB5_4IterNtCshnvkK9b4wzu_11proc_macro24SpanE3newCsc29TF2YcYso_3syn, symObjAddr: 0x1BD0, symBinAddr: 0x37100, symSize: 0x50 }
  - { offset: 0x99B70, size: 0x8, addend: 0x0, symName: __RNvMs4_NtNtCsaNl6UpbT7bw_4core5slice4iterINtB5_4IterNtNtCsc29TF2YcYso_3syn4attr9AttributeE3newBS_, symObjAddr: 0x1C20, symBinAddr: 0x37150, symSize: 0x50 }
  - { offset: 0x99D3A, size: 0x8, addend: 0x0, symName: __RNvMs4_NtNtCsaNl6UpbT7bw_4core5slice4iterINtB5_4IterNtNtCsc29TF2YcYso_3syn4expr3ArmE3newBS_, symObjAddr: 0x1C70, symBinAddr: 0x371A0, symSize: 0x58 }
  - { offset: 0x99EEA, size: 0x8, addend: 0x0, symName: __RNvMs4_NtNtCsaNl6UpbT7bw_4core5slice4iterINtB5_4IterNtNtCsc29TF2YcYso_3syn5error12ErrorMessageE3newBS_, symObjAddr: 0x1CC8, symBinAddr: 0x371F8, symSize: 0x58 }
  - { offset: 0x9A0B4, size: 0x8, addend: 0x0, symName: __RNvMs4_NtNtCsaNl6UpbT7bw_4core5slice4iterINtB5_4IterTNtNtCsc29TF2YcYso_3syn2ty4TypeNtNtBT_5token5CommaEE3newBT_, symObjAddr: 0x1D20, symBinAddr: 0x37250, symSize: 0x58 }
  - { offset: 0x9A27E, size: 0x8, addend: 0x0, symName: __RNvMs4_NtNtCsaNl6UpbT7bw_4core5slice4iterINtB5_4IterTNtNtCsc29TF2YcYso_3syn2ty9BareFnArgNtNtBT_5token5CommaEE3newBT_, symObjAddr: 0x1D78, symBinAddr: 0x372A8, symSize: 0x58 }
  - { offset: 0x9A448, size: 0x8, addend: 0x0, symName: __RNvMs4_NtNtCsaNl6UpbT7bw_4core5slice4iterINtB5_4IterTNtNtCsc29TF2YcYso_3syn3pat3PatNtNtBT_5token2OrEE3newBT_, symObjAddr: 0x1DD0, symBinAddr: 0x37300, symSize: 0x58 }
  - { offset: 0x9A612, size: 0x8, addend: 0x0, symName: __RNvMs4_NtNtCsaNl6UpbT7bw_4core5slice4iterINtB5_4IterTNtNtCsc29TF2YcYso_3syn3pat3PatNtNtBT_5token5CommaEE3newBT_, symObjAddr: 0x1E28, symBinAddr: 0x37358, symSize: 0x58 }
  - { offset: 0x9A7DC, size: 0x8, addend: 0x0, symName: __RNvMs4_NtNtCsaNl6UpbT7bw_4core5slice4iterINtB5_4IterTNtNtCsc29TF2YcYso_3syn3pat8FieldPatNtNtBT_5token5CommaEE3newBT_, symObjAddr: 0x1E80, symBinAddr: 0x373B0, symSize: 0x58 }
  - { offset: 0x9A9A6, size: 0x8, addend: 0x0, symName: __RNvMs4_NtNtCsaNl6UpbT7bw_4core5slice4iterINtB5_4IterTNtNtCsc29TF2YcYso_3syn4data5FieldNtNtBT_5token5CommaEE3newBT_, symObjAddr: 0x1ED8, symBinAddr: 0x37408, symSize: 0x58 }
  - { offset: 0x9AB70, size: 0x8, addend: 0x0, symName: __RNvMs4_NtNtCsaNl6UpbT7bw_4core5slice4iterINtB5_4IterTNtNtCsc29TF2YcYso_3syn4data7VariantNtNtBT_5token5CommaEE3newBT_, symObjAddr: 0x1F30, symBinAddr: 0x37460, symSize: 0x58 }
  - { offset: 0x9AD3A, size: 0x8, addend: 0x0, symName: __RNvMs4_NtNtCsaNl6UpbT7bw_4core5slice4iterINtB5_4IterTNtNtCsc29TF2YcYso_3syn4expr10FieldValueNtNtBT_5token5CommaEE3newBT_, symObjAddr: 0x1F88, symBinAddr: 0x374B8, symSize: 0x58 }
  - { offset: 0x9AF04, size: 0x8, addend: 0x0, symName: __RNvMs4_NtNtCsaNl6UpbT7bw_4core5slice4iterINtB5_4IterTNtNtCsc29TF2YcYso_3syn4expr4ExprNtNtBT_5token5CommaEE3newBT_, symObjAddr: 0x1FE0, symBinAddr: 0x37510, symSize: 0x58 }
  - { offset: 0x9B0CE, size: 0x8, addend: 0x0, symName: __RNvMs4_NtNtCsaNl6UpbT7bw_4core5slice4iterINtB5_4IterTNtNtCsc29TF2YcYso_3syn4item5FnArgNtNtBT_5token5CommaEE3newBT_, symObjAddr: 0x2038, symBinAddr: 0x37568, symSize: 0x58 }
  - { offset: 0x9B298, size: 0x8, addend: 0x0, symName: __RNvMs4_NtNtCsaNl6UpbT7bw_4core5slice4iterINtB5_4IterTNtNtCsc29TF2YcYso_3syn4item7UseTreeNtNtBT_5token5CommaEE3newBT_, symObjAddr: 0x2090, symBinAddr: 0x375C0, symSize: 0x58 }
  - { offset: 0x9B3F6, size: 0x8, addend: 0x0, symName: __RNvMs4_NtNtCsaNl6UpbT7bw_4core5slice4iterINtB5_4IterTNtNtCsc29TF2YcYso_3syn4path11PathSegmentNtNtBT_5token7PathSepEE3newBT_, symObjAddr: 0x20E8, symBinAddr: 0x37618, symSize: 0x58 }
  - { offset: 0x9B554, size: 0x8, addend: 0x0, symName: __RNvMs4_NtNtCsaNl6UpbT7bw_4core5slice4iterINtB5_4IterTNtNtCsc29TF2YcYso_3syn4path15GenericArgumentNtNtBT_5token5CommaEE3newBT_, symObjAddr: 0x2140, symBinAddr: 0x37670, symSize: 0x58 }
  - { offset: 0x9B71E, size: 0x8, addend: 0x0, symName: __RNvMs4_NtNtCsaNl6UpbT7bw_4core5slice4iterINtB5_4IterTNtNtCsc29TF2YcYso_3syn8generics12GenericParamNtNtBT_5token5CommaEE3newBT_, symObjAddr: 0x2198, symBinAddr: 0x376C8, symSize: 0x58 }
  - { offset: 0x9B8E8, size: 0x8, addend: 0x0, symName: __RNvMs4_NtNtCsaNl6UpbT7bw_4core5slice4iterINtB5_4IterTNtNtCsc29TF2YcYso_3syn8generics13CapturedParamNtNtBT_5token5CommaEE3newBT_, symObjAddr: 0x21F0, symBinAddr: 0x37720, symSize: 0x58 }
  - { offset: 0x9BAB2, size: 0x8, addend: 0x0, symName: __RNvMs4_NtNtCsaNl6UpbT7bw_4core5slice4iterINtB5_4IterTNtNtCsc29TF2YcYso_3syn8generics14TypeParamBoundNtNtBT_5token4PlusEE3newBT_, symObjAddr: 0x2248, symBinAddr: 0x37778, symSize: 0x50 }
  - { offset: 0x9BC7C, size: 0x8, addend: 0x0, symName: __RNvMs4_NtNtCsaNl6UpbT7bw_4core5slice4iterINtB5_4IterTNtNtCsc29TF2YcYso_3syn8generics14WherePredicateNtNtBT_5token5CommaEE3newBT_, symObjAddr: 0x2298, symBinAddr: 0x377C8, symSize: 0x58 }
  - { offset: 0x9BE46, size: 0x8, addend: 0x0, symName: __RNvMs4_NtNtCsaNl6UpbT7bw_4core5slice4iterINtB5_4IterTNtNtCsc29TF2YcYso_3syn8lifetime8LifetimeNtNtBT_5token4PlusEE3newBT_, symObjAddr: 0x22F0, symBinAddr: 0x37820, symSize: 0x58 }
  - { offset: 0x9BFED, size: 0x8, addend: 0x0, symName: __RNvMsa_NtNtCsaNl6UpbT7bw_4core5slice4iterINtB5_7IterMutTNtNtCsc29TF2YcYso_3syn4path11PathSegmentNtNtBW_5token7PathSepEE3newBW_, symObjAddr: 0x23A0, symBinAddr: 0x37878, symSize: 0x58 }
  - { offset: 0x9C128, size: 0x8, addend: 0x0, symName: __RNvXNtCs4EAaWzSXu1l_5quote9to_tokensRNtNtCsc29TF2YcYso_3syn4path15GenericArgumentNtB2_8ToTokens9to_tokensBD_, symObjAddr: 0x2564, symBinAddr: 0x379E4, symSize: 0x40 }
  - { offset: 0x9D5D4, size: 0x8, addend: 0x0, symName: __RINvMs_NtCsc29TF2YcYso_3syn4pathNtB5_4Path8is_identeEB7_, symObjAddr: 0x74AC, symBinAddr: 0x3BC3C, symSize: 0x94 }
  - { offset: 0x9D637, size: 0x8, addend: 0x0, symName: __RNvMs_NtCsc29TF2YcYso_3syn4pathNtB4_4Path9get_ident, symObjAddr: 0x7540, symBinAddr: 0x3BCD0, symSize: 0xE8 }
  - { offset: 0x9D673, size: 0x8, addend: 0x0, symName: __RNvMs2_NtCsc29TF2YcYso_3syn4pathNtB5_13PathArguments8is_empty, symObjAddr: 0x77C4, symBinAddr: 0x3BE20, symSize: 0xCC }
  - { offset: 0x9D6B2, size: 0x8, addend: 0x0, symName: __RNvMs2_NtCsc29TF2YcYso_3syn4pathNtB5_13PathArguments7is_none, symObjAddr: 0x7890, symBinAddr: 0x3BEEC, symSize: 0x78 }
  - { offset: 0x9D733, size: 0x8, addend: 0x0, symName: __RNvMs0_NtNtCsc29TF2YcYso_3syn4path7parsingNtB7_30AngleBracketedGenericArguments15parse_turbofish, symObjAddr: 0x8D04, symBinAddr: 0x3D360, symSize: 0xD0 }
  - { offset: 0x9D792, size: 0x8, addend: 0x0, symName: __RNvMs0_NtNtCsc29TF2YcYso_3syn4path7parsingNtB7_30AngleBracketedGenericArguments8do_parse, symObjAddr: 0x8DD4, symBinAddr: 0x3D430, symSize: 0x498 }
  - { offset: 0x9D89D, size: 0x8, addend: 0x0, symName: __RNvMs4_NtNtCsc29TF2YcYso_3syn4path7parsingNtB7_11PathSegment12parse_helper, symObjAddr: 0x96B8, symBinAddr: 0x3DCD8, symSize: 0x66C }
  - { offset: 0x9D9D6, size: 0x8, addend: 0x0, symName: __RNvMs5_NtNtCsc29TF2YcYso_3syn4path7parsingNtB7_4Path15parse_mod_style, symObjAddr: 0x9D24, symBinAddr: 0x3E344, symSize: 0x568 }
  - { offset: 0x9DAB2, size: 0x8, addend: 0x0, symName: __RNvMs5_NtNtCsc29TF2YcYso_3syn4path7parsingNtB7_4Path12parse_helper, symObjAddr: 0xA28C, symBinAddr: 0x3E8AC, symSize: 0x330 }
  - { offset: 0x9DBB2, size: 0x8, addend: 0x0, symName: __RNvMs5_NtNtCsc29TF2YcYso_3syn4path7parsingNtB7_4Path10parse_rest, symObjAddr: 0xA5BC, symBinAddr: 0x3EBDC, symSize: 0x26C }
  - { offset: 0x9DC87, size: 0x8, addend: 0x0, symName: __RNvMs5_NtNtCsc29TF2YcYso_3syn4path7parsingNtB7_4Path12is_mod_style, symObjAddr: 0xA828, symBinAddr: 0x3EE48, symSize: 0x84 }
  - { offset: 0x9ED5A, size: 0x8, addend: 0x0, symName: __RNvMs9_NtCsaNl6UpbT7bw_4core3numj11checked_addCsc29TF2YcYso_3syn, symObjAddr: 0x6190, symBinAddr: 0x46044, symSize: 0x74 }
  - { offset: 0x9EDE4, size: 0x8, addend: 0x0, symName: __RNvNvMs9_NtCsaNl6UpbT7bw_4core3numj13unchecked_add18precondition_checkCsc29TF2YcYso_3syn, symObjAddr: 0x699C, symBinAddr: 0x46704, symSize: 0xB0 }
  - { offset: 0x9EEA2, size: 0x8, addend: 0x0, symName: __RNvNvMs9_NtCsaNl6UpbT7bw_4core3numj13unchecked_mul18precondition_checkCsc29TF2YcYso_3syn, symObjAddr: 0x6A4C, symBinAddr: 0x467B4, symSize: 0xAC }
  - { offset: 0x9F033, size: 0x8, addend: 0x0, symName: __RNvMsA_NtCsaNl6UpbT7bw_4core3numm16from_ascii_radixCsc29TF2YcYso_3syn, symObjAddr: 0x6204, symBinAddr: 0x460B8, symSize: 0x594 }
  - { offset: 0x9F2D0, size: 0x8, addend: 0x0, symName: __RNvNvMs3_NtCsaNl6UpbT7bw_4core3numi13unchecked_neg18precondition_checkCsc29TF2YcYso_3syn, symObjAddr: 0x68E4, symBinAddr: 0x4664C, symSize: 0xB8 }
  - { offset: 0x9F36D, size: 0x8, addend: 0x0, symName: __RNvXsz_NtCsaNl6UpbT7bw_4core3nummNtNtNtB7_3str6traits7FromStr8from_strCsc29TF2YcYso_3syn, symObjAddr: 0x14A54, symBinAddr: 0x53388, symSize: 0x40 }
  - { offset: 0xA8CF1, size: 0x8, addend: 0x0, symName: __RNvXsp_NtCsaNl6UpbT7bw_4core6resultINtB5_6ResultANtCshnvkK9b4wzu_11proc_macro24Spanj1_NtNtCsc29TF2YcYso_3syn5error5ErrorENtNtNtB7_3ops9try_trait3Try6branchB1q_, symObjAddr: 0x709C, symBinAddr: 0x46DA8, symSize: 0x8C }
  - { offset: 0xA8D6E, size: 0x8, addend: 0x0, symName: __RNvXsp_NtCsaNl6UpbT7bw_4core6resultINtB5_6ResultANtCshnvkK9b4wzu_11proc_macro24Spanj2_NtNtCsc29TF2YcYso_3syn5error5ErrorENtNtNtB7_3ops9try_trait3Try6branchB1q_, symObjAddr: 0x7128, symBinAddr: 0x46E34, symSize: 0x8C }
  - { offset: 0xA8DEB, size: 0x8, addend: 0x0, symName: __RNvXsp_NtCsaNl6UpbT7bw_4core6resultINtB5_6ResultANtCshnvkK9b4wzu_11proc_macro24Spanj3_NtNtCsc29TF2YcYso_3syn5error5ErrorENtNtNtB7_3ops9try_trait3Try6branchB1q_, symObjAddr: 0x71B4, symBinAddr: 0x46EC0, symSize: 0x9C }
  - { offset: 0xA8E68, size: 0x8, addend: 0x0, symName: __RNvXsp_NtCsaNl6UpbT7bw_4core6resultINtB5_6ResultINtNtB7_6option6OptionINtNtCsiTraAjBDcu4_5alloc5boxed3BoxNtNtCsc29TF2YcYso_3syn4expr4ExprEENtNtB1J_5error5ErrorENtNtNtB7_3ops9try_trait3Try6branchB1J_, symObjAddr: 0x7250, symBinAddr: 0x46F5C, symSize: 0x88 }
  - { offset: 0xA8EE6, size: 0x8, addend: 0x0, symName: __RNvXsp_NtCsaNl6UpbT7bw_4core6resultINtB5_6ResultINtNtB7_6option6OptionNtCshnvkK9b4wzu_11proc_macro25IdentENtNtCsc29TF2YcYso_3syn5error5ErrorENtNtNtB7_3ops9try_trait3Try6branchB1K_, symObjAddr: 0x72D8, symBinAddr: 0x46FE4, symSize: 0x94 }
  - { offset: 0xA8F63, size: 0x8, addend: 0x0, symName: __RNvXsp_NtCsaNl6UpbT7bw_4core6resultINtB5_6ResultINtNtB7_6option6OptionNtNtCsc29TF2YcYso_3syn2ty3AbiENtNtB1a_5error5ErrorENtNtNtB7_3ops9try_trait3Try6branchB1a_, symObjAddr: 0x736C, symBinAddr: 0x47078, symSize: 0x94 }
  - { offset: 0xA8FE0, size: 0x8, addend: 0x0, symName: __RNvXsp_NtCsaNl6UpbT7bw_4core6resultINtB5_6ResultINtNtB7_6option6OptionNtNtCsc29TF2YcYso_3syn3lit3LitENtNtB1a_5error5ErrorENtNtNtB7_3ops9try_trait3Try6branchB1a_, symObjAddr: 0x7400, symBinAddr: 0x4710C, symSize: 0x94 }
  - { offset: 0xA905D, size: 0x8, addend: 0x0, symName: __RNvXsp_NtCsaNl6UpbT7bw_4core6resultINtB5_6ResultINtNtB7_6option6OptionNtNtCsc29TF2YcYso_3syn3lit6LitStrENtNtB1a_5error5ErrorENtNtNtB7_3ops9try_trait3Try6branchB1a_, symObjAddr: 0x7494, symBinAddr: 0x471A0, symSize: 0x88 }
  - { offset: 0xA90DB, size: 0x8, addend: 0x0, symName: __RNvXsp_NtCsaNl6UpbT7bw_4core6resultINtB5_6ResultINtNtB7_6option6OptionNtNtCsc29TF2YcYso_3syn3lit8LitFloatENtNtB1a_5error5ErrorENtNtNtB7_3ops9try_trait3Try6branchB1a_, symObjAddr: 0x751C, symBinAddr: 0x47228, symSize: 0x88 }
  - { offset: 0xA9159, size: 0x8, addend: 0x0, symName: __RNvXsp_NtCsaNl6UpbT7bw_4core6resultINtB5_6ResultINtNtB7_6option6OptionNtNtCsc29TF2YcYso_3syn4expr5LabelENtNtB1a_5error5ErrorENtNtNtB7_3ops9try_trait3Try6branchB1a_, symObjAddr: 0x75A4, symBinAddr: 0x472B0, symSize: 0xB0 }
  - { offset: 0xA91D6, size: 0x8, addend: 0x0, symName: __RNvXsp_NtCsaNl6UpbT7bw_4core6resultINtB5_6ResultINtNtB7_6option6OptionNtNtCsc29TF2YcYso_3syn4item10ImplItemFnENtNtB1a_5error5ErrorENtNtNtB7_3ops9try_trait3Try6branchB1a_, symObjAddr: 0x7654, symBinAddr: 0x47360, symSize: 0xC0 }
  - { offset: 0xA9254, size: 0x8, addend: 0x0, symName: __RNvXsp_NtCsaNl6UpbT7bw_4core6resultINtB5_6ResultINtNtB7_6option6OptionNtNtCsc29TF2YcYso_3syn4item7ItemUseENtNtB1a_5error5ErrorENtNtNtB7_3ops9try_trait3Try6branchB1a_, symObjAddr: 0x7714, symBinAddr: 0x47420, symSize: 0xB8 }
  - { offset: 0xA92D2, size: 0x8, addend: 0x0, symName: __RNvXsp_NtCsaNl6UpbT7bw_4core6resultINtB5_6ResultINtNtB7_6option6OptionNtNtCsc29TF2YcYso_3syn4item7UseTreeENtNtB1a_5error5ErrorENtNtNtB7_3ops9try_trait3Try6branchB1a_, symObjAddr: 0x77CC, symBinAddr: 0x474D8, symSize: 0xAC }
  - { offset: 0xA934F, size: 0x8, addend: 0x0, symName: __RNvXsp_NtCsaNl6UpbT7bw_4core6resultINtB5_6ResultINtNtB7_6option6OptionNtNtCsc29TF2YcYso_3syn4item8ItemImplENtNtB1a_5error5ErrorENtNtNtB7_3ops9try_trait3Try6branchB1a_, symObjAddr: 0x7878, symBinAddr: 0x47584, symSize: 0xB8 }
  - { offset: 0xA93CD, size: 0x8, addend: 0x0, symName: __RNvXsp_NtCsaNl6UpbT7bw_4core6resultINtB5_6ResultINtNtB7_6option6OptionNtNtCsc29TF2YcYso_3syn4item9SignatureENtNtB1a_5error5ErrorENtNtNtB7_3ops9try_trait3Try6branchB1a_, symObjAddr: 0x7930, symBinAddr: 0x4763C, symSize: 0xB4 }
  - { offset: 0xA944B, size: 0x8, addend: 0x0, symName: __RNvXsp_NtCsaNl6UpbT7bw_4core6resultINtB5_6ResultINtNtB7_6option6OptionNtNtCsc29TF2YcYso_3syn5token2EqENtNtB1a_5error5ErrorENtNtNtB7_3ops9try_trait3Try6branchB1a_, symObjAddr: 0x79E4, symBinAddr: 0x476F0, symSize: 0x8C }
  - { offset: 0xA94C8, size: 0x8, addend: 0x0, symName: __RNvXsp_NtCsaNl6UpbT7bw_4core6resultINtB5_6ResultINtNtB7_6option6OptionNtNtCsc29TF2YcYso_3syn5token2OrENtNtB1a_5error5ErrorENtNtNtB7_3ops9try_trait3Try6branchB1a_, symObjAddr: 0x7A70, symBinAddr: 0x4777C, symSize: 0x8C }
  - { offset: 0xA9545, size: 0x8, addend: 0x0, symName: __RNvXsp_NtCsaNl6UpbT7bw_4core6resultINtB5_6ResultINtNtB7_6option6OptionNtNtCsc29TF2YcYso_3syn5token3BoxENtNtB1a_5error5ErrorENtNtNtB7_3ops9try_trait3Try6branchB1a_, symObjAddr: 0x7AFC, symBinAddr: 0x47808, symSize: 0x94 }
  - { offset: 0xA95C3, size: 0x8, addend: 0x0, symName: __RNvXsp_NtCsaNl6UpbT7bw_4core6resultINtB5_6ResultINtNtB7_6option6OptionNtNtCsc29TF2YcYso_3syn5token3DynENtNtB1a_5error5ErrorENtNtNtB7_3ops9try_trait3Try6branchB1a_, symObjAddr: 0x7B90, symBinAddr: 0x4789C, symSize: 0x94 }
  - { offset: 0xA9641, size: 0x8, addend: 0x0, symName: __RNvXsp_NtCsaNl6UpbT7bw_4core6resultINtB5_6ResultINtNtB7_6option6OptionNtNtCsc29TF2YcYso_3syn5token3MutENtNtB1a_5error5ErrorENtNtNtB7_3ops9try_trait3Try6branchB1a_, symObjAddr: 0x7C24, symBinAddr: 0x47930, symSize: 0x94 }
  - { offset: 0xA96BF, size: 0x8, addend: 0x0, symName: __RNvXsp_NtCsaNl6UpbT7bw_4core6resultINtB5_6ResultINtNtB7_6option6OptionNtNtCsc29TF2YcYso_3syn5token3RefENtNtB1a_5error5ErrorENtNtNtB7_3ops9try_trait3Try6branchB1a_, symObjAddr: 0x7CB8, symBinAddr: 0x479C4, symSize: 0x94 }
  - { offset: 0xA973D, size: 0x8, addend: 0x0, symName: __RNvXsp_NtCsaNl6UpbT7bw_4core6resultINtB5_6ResultINtNtB7_6option6OptionNtNtCsc29TF2YcYso_3syn5token4AutoENtNtB1a_5error5ErrorENtNtNtB7_3ops9try_trait3Try6branchB1a_, symObjAddr: 0x7D4C, symBinAddr: 0x47A58, symSize: 0x94 }
  - { offset: 0xA97BB, size: 0x8, addend: 0x0, symName: __RNvXsp_NtCsaNl6UpbT7bw_4core6resultINtB5_6ResultINtNtB7_6option6OptionNtNtCsc29TF2YcYso_3syn5token4MoveENtNtB1a_5error5ErrorENtNtNtB7_3ops9try_trait3Try6branchB1a_, symObjAddr: 0x7DE0, symBinAddr: 0x47AEC, symSize: 0x94 }
  - { offset: 0xA9839, size: 0x8, addend: 0x0, symName: __RNvXsp_NtCsaNl6UpbT7bw_4core6resultINtB5_6ResultINtNtB7_6option6OptionNtNtCsc29TF2YcYso_3syn5token4PlusENtNtB1a_5error5ErrorENtNtNtB7_3ops9try_trait3Try6branchB1a_, symObjAddr: 0x7E74, symBinAddr: 0x47B80, symSize: 0x8C }
  - { offset: 0xA98B6, size: 0x8, addend: 0x0, symName: __RNvXsp_NtCsaNl6UpbT7bw_4core6resultINtB5_6ResultINtNtB7_6option6OptionNtNtCsc29TF2YcYso_3syn5token4SemiENtNtB1a_5error5ErrorENtNtNtB7_3ops9try_trait3Try6branchB1a_, symObjAddr: 0x7F00, symBinAddr: 0x47C0C, symSize: 0x8C }
  - { offset: 0xA9933, size: 0x8, addend: 0x0, symName: __RNvXsp_NtCsaNl6UpbT7bw_4core6resultINtB5_6ResultINtNtB7_6option6OptionNtNtCsc29TF2YcYso_3syn5token4StarENtNtB1a_5error5ErrorENtNtNtB7_3ops9try_trait3Try6branchB1a_, symObjAddr: 0x7F8C, symBinAddr: 0x47C98, symSize: 0x8C }
  - { offset: 0xA99B0, size: 0x8, addend: 0x0, symName: __RNvXsp_NtCsaNl6UpbT7bw_4core6resultINtB5_6ResultINtNtB7_6option6OptionNtNtCsc29TF2YcYso_3syn5token5AsyncENtNtB1a_5error5ErrorENtNtNtB7_3ops9try_trait3Try6branchB1a_, symObjAddr: 0x8018, symBinAddr: 0x47D24, symSize: 0x94 }
  - { offset: 0xA9A2E, size: 0x8, addend: 0x0, symName: __RNvXsp_NtCsaNl6UpbT7bw_4core6resultINtB5_6ResultINtNtB7_6option6OptionNtNtCsc29TF2YcYso_3syn5token5AwaitENtNtB1a_5error5ErrorENtNtNtB7_3ops9try_trait3Try6branchB1a_, symObjAddr: 0x80AC, symBinAddr: 0x47DB8, symSize: 0x94 }
  - { offset: 0xA9AAC, size: 0x8, addend: 0x0, symName: __RNvXsp_NtCsaNl6UpbT7bw_4core6resultINtB5_6ResultINtNtB7_6option6OptionNtNtCsc29TF2YcYso_3syn5token5ColonENtNtB1a_5error5ErrorENtNtNtB7_3ops9try_trait3Try6branchB1a_, symObjAddr: 0x8140, symBinAddr: 0x47E4C, symSize: 0x8C }
  - { offset: 0xA9B29, size: 0x8, addend: 0x0, symName: __RNvXsp_NtCsaNl6UpbT7bw_4core6resultINtB5_6ResultINtNtB7_6option6OptionNtNtCsc29TF2YcYso_3syn5token5CommaENtNtB1a_5error5ErrorENtNtNtB7_3ops9try_trait3Try6branchB1a_, symObjAddr: 0x81CC, symBinAddr: 0x47ED8, symSize: 0x8C }
  - { offset: 0xA9BA6, size: 0x8, addend: 0x0, symName: __RNvXsp_NtCsaNl6UpbT7bw_4core6resultINtB5_6ResultINtNtB7_6option6OptionNtNtCsc29TF2YcYso_3syn5token5ConstENtNtB1a_5error5ErrorENtNtNtB7_3ops9try_trait3Try6branchB1a_, symObjAddr: 0x8258, symBinAddr: 0x47F64, symSize: 0x94 }
  - { offset: 0xA9C24, size: 0x8, addend: 0x0, symName: __RNvXsp_NtCsaNl6UpbT7bw_4core6resultINtB5_6ResultINtNtB7_6option6OptionNtNtCsc29TF2YcYso_3syn5token6StaticENtNtB1a_5error5ErrorENtNtNtB7_3ops9try_trait3Try6branchB1a_, symObjAddr: 0x82EC, symBinAddr: 0x47FF8, symSize: 0x94 }
  - { offset: 0xA9CA2, size: 0x8, addend: 0x0, symName: __RNvXsp_NtCsaNl6UpbT7bw_4core6resultINtB5_6ResultINtNtB7_6option6OptionNtNtCsc29TF2YcYso_3syn5token6UnsafeENtNtB1a_5error5ErrorENtNtNtB7_3ops9try_trait3Try6branchB1a_, symObjAddr: 0x8380, symBinAddr: 0x4808C, symSize: 0x94 }
  - { offset: 0xA9D20, size: 0x8, addend: 0x0, symName: __RNvXsp_NtCsaNl6UpbT7bw_4core6resultINtB5_6ResultINtNtB7_6option6OptionNtNtCsc29TF2YcYso_3syn5token7DefaultENtNtB1a_5error5ErrorENtNtNtB7_3ops9try_trait3Try6branchB1a_, symObjAddr: 0x8414, symBinAddr: 0x48120, symSize: 0x94 }
  - { offset: 0xA9D9E, size: 0x8, addend: 0x0, symName: __RNvXsp_NtCsaNl6UpbT7bw_4core6resultINtB5_6ResultINtNtB7_6option6OptionNtNtCsc29TF2YcYso_3syn5token7PathSepENtNtB1a_5error5ErrorENtNtNtB7_3ops9try_trait3Try6branchB1a_, symObjAddr: 0x84A8, symBinAddr: 0x481B4, symSize: 0x9C }
  - { offset: 0xA9E1B, size: 0x8, addend: 0x0, symName: __RNvXsp_NtCsaNl6UpbT7bw_4core6resultINtB5_6ResultINtNtB7_6option6OptionNtNtCsc29TF2YcYso_3syn5token8QuestionENtNtB1a_5error5ErrorENtNtNtB7_3ops9try_trait3Try6branchB1a_, symObjAddr: 0x8544, symBinAddr: 0x48250, symSize: 0x8C }
  - { offset: 0xA9E98, size: 0x8, addend: 0x0, symName: __RNvXsp_NtCsaNl6UpbT7bw_4core6resultINtB5_6ResultINtNtB7_6option6OptionNtNtCsc29TF2YcYso_3syn5token9DotDotDotENtNtB1a_5error5ErrorENtNtNtB7_3ops9try_trait3Try6branchB1a_, symObjAddr: 0x85D0, symBinAddr: 0x482DC, symSize: 0x8C }
  - { offset: 0xA9F15, size: 0x8, addend: 0x0, symName: __RNvXsp_NtCsaNl6UpbT7bw_4core6resultINtB5_6ResultINtNtB7_6option6OptionNtNtCsc29TF2YcYso_3syn8generics10TraitBoundENtNtB1a_5error5ErrorENtNtNtB7_3ops9try_trait3Try6branchB1a_, symObjAddr: 0x865C, symBinAddr: 0x48368, symSize: 0xBC }
  - { offset: 0xA9F92, size: 0x8, addend: 0x0, symName: __RNvXsp_NtCsaNl6UpbT7bw_4core6resultINtB5_6ResultINtNtB7_6option6OptionNtNtCsc29TF2YcYso_3syn8generics11WhereClauseENtNtB1a_5error5ErrorENtNtNtB7_3ops9try_trait3Try6branchB1a_, symObjAddr: 0x8718, symBinAddr: 0x48424, symSize: 0xB0 }
  - { offset: 0xAA00F, size: 0x8, addend: 0x0, symName: __RNvXsp_NtCsaNl6UpbT7bw_4core6resultINtB5_6ResultINtNtB7_6option6OptionNtNtCsc29TF2YcYso_3syn8generics14BoundLifetimesENtNtB1a_5error5ErrorENtNtNtB7_3ops9try_trait3Try6branchB1a_, symObjAddr: 0x87C8, symBinAddr: 0x484D4, symSize: 0xB0 }
  - { offset: 0xAA08C, size: 0x8, addend: 0x0, symName: __RNvXsp_NtCsaNl6UpbT7bw_4core6resultINtB5_6ResultINtNtB7_6option6OptionNtNtCsc29TF2YcYso_3syn8lifetime8LifetimeENtNtB1a_5error5ErrorENtNtNtB7_3ops9try_trait3Try6branchB1a_, symObjAddr: 0x8878, symBinAddr: 0x48584, symSize: 0x94 }
  - { offset: 0xAA109, size: 0x8, addend: 0x0, symName: __RNvXsp_NtCsaNl6UpbT7bw_4core6resultINtB5_6ResultINtNtB7_6option6OptionNtNtNtCsc29TF2YcYso_3syn3pat7parsing13PatRangeBoundENtNtB1c_5error5ErrorENtNtNtB7_3ops9try_trait3Try6branchB1c_, symObjAddr: 0x890C, symBinAddr: 0x48618, symSize: 0xBC }
  - { offset: 0xAA186, size: 0x8, addend: 0x0, symName: __RNvXsp_NtCsaNl6UpbT7bw_4core6resultINtB5_6ResultINtNtB7_6option6OptionTNtNtCsc29TF2YcYso_3syn5token2EqNtNtB1b_2ty4TypeEENtNtB1b_5error5ErrorENtNtNtB7_3ops9try_trait3Try6branchB1b_, symObjAddr: 0x89C8, symBinAddr: 0x486D4, symSize: 0xC0 }
  - { offset: 0xAA204, size: 0x8, addend: 0x0, symName: __RNvXsp_NtCsaNl6UpbT7bw_4core6resultINtB5_6ResultINtNtCsc29TF2YcYso_3syn10punctuated10PunctuatedNtNtBP_2ty4TypeNtNtBP_5token5CommaENtNtBP_5error5ErrorENtNtNtB7_3ops9try_trait3Try6branchBP_, symObjAddr: 0x8A88, symBinAddr: 0x48794, symSize: 0xA0 }
  - { offset: 0xAA281, size: 0x8, addend: 0x0, symName: __RNvXsp_NtCsaNl6UpbT7bw_4core6resultINtB5_6ResultINtNtCsc29TF2YcYso_3syn10punctuated10PunctuatedNtNtBP_4data5FieldNtNtBP_5token5CommaENtNtBP_5error5ErrorENtNtNtB7_3ops9try_trait3Try6branchBP_, symObjAddr: 0x8B28, symBinAddr: 0x48834, symSize: 0xA0 }
  - { offset: 0xAA2FE, size: 0x8, addend: 0x0, symName: __RNvXsp_NtCsaNl6UpbT7bw_4core6resultINtB5_6ResultINtNtCsc29TF2YcYso_3syn10punctuated10PunctuatedNtNtBP_4data7VariantNtNtBP_5token5CommaENtNtBP_5error5ErrorENtNtNtB7_3ops9try_trait3Try6branchBP_, symObjAddr: 0x8BC8, symBinAddr: 0x488D4, symSize: 0xA0 }
  - { offset: 0xAA37B, size: 0x8, addend: 0x0, symName: __RNvXsp_NtCsaNl6UpbT7bw_4core6resultINtB5_6ResultINtNtCsc29TF2YcYso_3syn10punctuated10PunctuatedNtNtBP_4expr4ExprNtNtBP_5token5CommaENtNtBP_5error5ErrorENtNtNtB7_3ops9try_trait3Try6branchBP_, symObjAddr: 0x8C68, symBinAddr: 0x48974, symSize: 0xA0 }
  - { offset: 0xAA3F8, size: 0x8, addend: 0x0, symName: __RNvXsp_NtCsaNl6UpbT7bw_4core6resultINtB5_6ResultINtNtCsc29TF2YcYso_3syn10punctuated10PunctuatedNtNtBP_8generics14TypeParamBoundNtNtBP_5token4PlusENtNtBP_5error5ErrorENtNtNtB7_3ops9try_trait3Try6branchBP_, symObjAddr: 0x8D08, symBinAddr: 0x48A14, symSize: 0xA0 }
  - { offset: 0xAA475, size: 0x8, addend: 0x0, symName: __RNvXsp_NtCsaNl6UpbT7bw_4core6resultINtB5_6ResultINtNtCsiTraAjBDcu4_5alloc3vec3VecNtNtCsc29TF2YcYso_3syn4attr9AttributeENtNtB1l_5error5ErrorENtNtNtB7_3ops9try_trait3Try6branchB1l_, symObjAddr: 0x8DA8, symBinAddr: 0x48AB4, symSize: 0x94 }
  - { offset: 0xAA4F2, size: 0x8, addend: 0x0, symName: __RNvXsp_NtCsaNl6UpbT7bw_4core6resultINtB5_6ResultINtNtCsiTraAjBDcu4_5alloc3vec3VecNtNtCsc29TF2YcYso_3syn4expr3ArmENtNtB1l_5error5ErrorENtNtNtB7_3ops9try_trait3Try6branchB1l_, symObjAddr: 0x8E3C, symBinAddr: 0x48B48, symSize: 0x94 }
  - { offset: 0xAA56F, size: 0x8, addend: 0x0, symName: __RNvXsp_NtCsaNl6UpbT7bw_4core6resultINtB5_6ResultINtNtCsiTraAjBDcu4_5alloc3vec3VecNtNtCsc29TF2YcYso_3syn4stmt4StmtENtNtB1l_5error5ErrorENtNtNtB7_3ops9try_trait3Try6branchB1l_, symObjAddr: 0x8ED0, symBinAddr: 0x48BDC, symSize: 0x94 }
  - { offset: 0xAA5EC, size: 0x8, addend: 0x0, symName: __RNvXsp_NtCsaNl6UpbT7bw_4core6resultINtB5_6ResultINtNtCsiTraAjBDcu4_5alloc5boxed3BoxNtNtCsc29TF2YcYso_3syn2ty4TypeENtNtB1n_5error5ErrorENtNtNtB7_3ops9try_trait3Try6branchB1n_, symObjAddr: 0x8F64, symBinAddr: 0x48C70, symSize: 0x88 }
  - { offset: 0xAA66A, size: 0x8, addend: 0x0, symName: __RNvXsp_NtCsaNl6UpbT7bw_4core6resultINtB5_6ResultINtNtCsiTraAjBDcu4_5alloc5boxed3BoxNtNtCsc29TF2YcYso_3syn4expr4ExprENtNtB1n_5error5ErrorENtNtNtB7_3ops9try_trait3Try6branchB1n_, symObjAddr: 0x8FEC, symBinAddr: 0x48CF8, symSize: 0x88 }
  - { offset: 0xAA6E8, size: 0x8, addend: 0x0, symName: __RNvXsp_NtCsaNl6UpbT7bw_4core6resultINtB5_6ResultNtCshnvkK9b4wzu_11proc_macro211TokenStreamNtBM_8LexErrorENtNtNtB7_3ops9try_trait3Try6branchCsc29TF2YcYso_3syn, symObjAddr: 0x9074, symBinAddr: 0x48D80, symSize: 0x84 }
  - { offset: 0xAA765, size: 0x8, addend: 0x0, symName: __RNvXsp_NtCsaNl6UpbT7bw_4core6resultINtB5_6ResultNtCshnvkK9b4wzu_11proc_macro211TokenStreamNtNtCsc29TF2YcYso_3syn5error5ErrorENtNtNtB7_3ops9try_trait3Try6branchB1u_, symObjAddr: 0x90F8, symBinAddr: 0x48E04, symSize: 0xA0 }
  - { offset: 0xAA7E2, size: 0x8, addend: 0x0, symName: __RNvXsp_NtCsaNl6UpbT7bw_4core6resultINtB5_6ResultNtCshnvkK9b4wzu_11proc_macro24SpanNtNtCsc29TF2YcYso_3syn5error5ErrorENtNtNtB7_3ops9try_trait3Try6branchB1m_, symObjAddr: 0x9198, symBinAddr: 0x48EA4, symSize: 0x88 }
  - { offset: 0xAA860, size: 0x8, addend: 0x0, symName: __RNvXsp_NtCsaNl6UpbT7bw_4core6resultINtB5_6ResultNtCshnvkK9b4wzu_11proc_macro25IdentNtNtCsc29TF2YcYso_3syn5error5ErrorENtNtNtB7_3ops9try_trait3Try6branchB1n_, symObjAddr: 0x9220, symBinAddr: 0x48F2C, symSize: 0x94 }
  - { offset: 0xAA8DD, size: 0x8, addend: 0x0, symName: __RNvXsp_NtCsaNl6UpbT7bw_4core6resultINtB5_6ResultNtNtCsc29TF2YcYso_3syn11restriction10VisibilityNtNtBO_5error5ErrorENtNtNtB7_3ops9try_trait3Try6branchBO_, symObjAddr: 0x92B4, symBinAddr: 0x48FC0, symSize: 0x9C }
  - { offset: 0xAA95A, size: 0x8, addend: 0x0, symName: __RNvXsp_NtCsaNl6UpbT7bw_4core6resultINtB5_6ResultNtNtCsc29TF2YcYso_3syn2op4UnOpNtNtBO_5error5ErrorENtNtNtB7_3ops9try_trait3Try6branchBO_, symObjAddr: 0x9350, symBinAddr: 0x4905C, symSize: 0x8C }
  - { offset: 0xAA9D7, size: 0x8, addend: 0x0, symName: __RNvXsp_NtCsaNl6UpbT7bw_4core6resultINtB5_6ResultNtNtCsc29TF2YcYso_3syn2ty10ReturnTypeNtNtBO_5error5ErrorENtNtNtB7_3ops9try_trait3Try6branchBO_, symObjAddr: 0x93DC, symBinAddr: 0x490E8, symSize: 0x8C }
  - { offset: 0xAAA54, size: 0x8, addend: 0x0, symName: __RNvXsp_NtCsaNl6UpbT7bw_4core6resultINtB5_6ResultNtNtCsc29TF2YcYso_3syn2ty10TypeBareFnNtNtBO_5error5ErrorENtNtNtB7_3ops9try_trait3Try6branchBO_, symObjAddr: 0x9468, symBinAddr: 0x49174, symSize: 0xB4 }
  - { offset: 0xAAAD2, size: 0x8, addend: 0x0, symName: __RNvXsp_NtCsaNl6UpbT7bw_4core6resultINtB5_6ResultNtNtCsc29TF2YcYso_3syn2ty12BareVariadicNtNtBO_5error5ErrorENtNtNtB7_3ops9try_trait3Try6branchBO_, symObjAddr: 0x951C, symBinAddr: 0x49228, symSize: 0xB0 }
  - { offset: 0xAAB4F, size: 0x8, addend: 0x0, symName: __RNvXsp_NtCsaNl6UpbT7bw_4core6resultINtB5_6ResultNtNtCsc29TF2YcYso_3syn2ty15TypeTraitObjectNtNtBO_5error5ErrorENtNtNtB7_3ops9try_trait3Try6branchBO_, symObjAddr: 0x95CC, symBinAddr: 0x492D8, symSize: 0xB0 }
  - { offset: 0xAABCC, size: 0x8, addend: 0x0, symName: __RNvXsp_NtCsaNl6UpbT7bw_4core6resultINtB5_6ResultNtNtCsc29TF2YcYso_3syn2ty3AbiNtNtBO_5error5ErrorENtNtNtB7_3ops9try_trait3Try6branchBO_, symObjAddr: 0x967C, symBinAddr: 0x49388, symSize: 0x94 }
  - { offset: 0xAAC4A, size: 0x8, addend: 0x0, symName: __RNvXsp_NtCsaNl6UpbT7bw_4core6resultINtB5_6ResultNtNtCsc29TF2YcYso_3syn2ty4TypeNtNtBO_5error5ErrorENtNtNtB7_3ops9try_trait3Try6branchBO_, symObjAddr: 0x9710, symBinAddr: 0x4941C, symSize: 0xB4 }
  - { offset: 0xAACC8, size: 0x8, addend: 0x0, symName: __RNvXsp_NtCsaNl6UpbT7bw_4core6resultINtB5_6ResultNtNtCsc29TF2YcYso_3syn2ty8TypePathNtNtBO_5error5ErrorENtNtNtB7_3ops9try_trait3Try6branchBO_, symObjAddr: 0x97C4, symBinAddr: 0x494D0, symSize: 0xB0 }
  - { offset: 0xAAD45, size: 0x8, addend: 0x0, symName: __RNvXsp_NtCsaNl6UpbT7bw_4core6resultINtB5_6ResultNtNtCsc29TF2YcYso_3syn2ty9BareFnArgNtNtBO_5error5ErrorENtNtNtB7_3ops9try_trait3Try6branchBO_, symObjAddr: 0x9874, symBinAddr: 0x49580, symSize: 0xC0 }
  - { offset: 0xAADC3, size: 0x8, addend: 0x0, symName: __RNvXsp_NtCsaNl6UpbT7bw_4core6resultINtB5_6ResultNtNtCsc29TF2YcYso_3syn2ty9TypeGroupNtNtBO_5error5ErrorENtNtNtB7_3ops9try_trait3Try6branchBO_, symObjAddr: 0x9934, symBinAddr: 0x49640, symSize: 0x94 }
  - { offset: 0xAAE41, size: 0x8, addend: 0x0, symName: __RNvXsp_NtCsaNl6UpbT7bw_4core6resultINtB5_6ResultNtNtCsc29TF2YcYso_3syn3lit3LitNtNtBO_5error5ErrorENtNtNtB7_3ops9try_trait3Try6branchBO_, symObjAddr: 0x99C8, symBinAddr: 0x496D4, symSize: 0x94 }
  - { offset: 0xAAEBE, size: 0x8, addend: 0x0, symName: __RNvXsp_NtCsaNl6UpbT7bw_4core6resultINtB5_6ResultNtNtCsc29TF2YcYso_3syn3lit6LitIntNtNtBO_5error5ErrorENtNtNtB7_3ops9try_trait3Try6branchBO_, symObjAddr: 0x9A5C, symBinAddr: 0x49768, symSize: 0x88 }
  - { offset: 0xAAF3C, size: 0x8, addend: 0x0, symName: __RNvXsp_NtCsaNl6UpbT7bw_4core6resultINtB5_6ResultNtNtCsc29TF2YcYso_3syn3lit6LitStrNtNtBO_5error5ErrorENtNtNtB7_3ops9try_trait3Try6branchBO_, symObjAddr: 0x9AE4, symBinAddr: 0x497F0, symSize: 0x88 }
  - { offset: 0xAAFBA, size: 0x8, addend: 0x0, symName: __RNvXsp_NtCsaNl6UpbT7bw_4core6resultINtB5_6ResultNtNtCsc29TF2YcYso_3syn3lit8LitFloatNtNtBO_5error5ErrorENtNtNtB7_3ops9try_trait3Try6branchBO_, symObjAddr: 0x9B6C, symBinAddr: 0x49878, symSize: 0x88 }
  - { offset: 0xAB038, size: 0x8, addend: 0x0, symName: __RNvXsp_NtCsaNl6UpbT7bw_4core6resultINtB5_6ResultNtNtCsc29TF2YcYso_3syn3mac5MacroNtNtBO_5error5ErrorENtNtNtB7_3ops9try_trait3Try6branchBO_, symObjAddr: 0x9BF4, symBinAddr: 0x49900, symSize: 0xBC }
  - { offset: 0xAB0B5, size: 0x8, addend: 0x0, symName: __RNvXsp_NtCsaNl6UpbT7bw_4core6resultINtB5_6ResultNtNtCsc29TF2YcYso_3syn3pat3PatNtNtBO_5error5ErrorENtNtNtB7_3ops9try_trait3Try6branchBO_, symObjAddr: 0x9CB0, symBinAddr: 0x499BC, symSize: 0xCC }
  - { offset: 0xAB133, size: 0x8, addend: 0x0, symName: __RNvXsp_NtCsaNl6UpbT7bw_4core6resultINtB5_6ResultNtNtCsc29TF2YcYso_3syn3pat8FieldPatNtNtBO_5error5ErrorENtNtNtB7_3ops9try_trait3Try6branchBO_, symObjAddr: 0x9D7C, symBinAddr: 0x49A88, symSize: 0xB0 }
  - { offset: 0xAB1B0, size: 0x8, addend: 0x0, symName: __RNvXsp_NtCsaNl6UpbT7bw_4core6resultINtB5_6ResultNtNtCsc29TF2YcYso_3syn4attr4MetaNtNtBO_5error5ErrorENtNtNtB7_3ops9try_trait3Try6branchBO_, symObjAddr: 0x9E2C, symBinAddr: 0x49B38, symSize: 0xC0 }
  - { offset: 0xAB22E, size: 0x8, addend: 0x0, symName: __RNvXsp_NtCsaNl6UpbT7bw_4core6resultINtB5_6ResultNtNtCsc29TF2YcYso_3syn4attr9AttributeNtNtBO_5error5ErrorENtNtNtB7_3ops9try_trait3Try6branchBO_, symObjAddr: 0x9EEC, symBinAddr: 0x49BF8, symSize: 0xB4 }
  - { offset: 0xAB2AC, size: 0x8, addend: 0x0, symName: __RNvXsp_NtCsaNl6UpbT7bw_4core6resultINtB5_6ResultNtNtCsc29TF2YcYso_3syn4data11FieldsNamedNtNtBO_5error5ErrorENtNtNtB7_3ops9try_trait3Try6branchBO_, symObjAddr: 0x9FA0, symBinAddr: 0x49CAC, symSize: 0xB0 }
  - { offset: 0xAB329, size: 0x8, addend: 0x0, symName: __RNvXsp_NtCsaNl6UpbT7bw_4core6resultINtB5_6ResultNtNtCsc29TF2YcYso_3syn4data13FieldsUnnamedNtNtBO_5error5ErrorENtNtNtB7_3ops9try_trait3Try6branchBO_, symObjAddr: 0xA050, symBinAddr: 0x49D5C, symSize: 0xB0 }
  - { offset: 0xAB3A6, size: 0x8, addend: 0x0, symName: __RNvXsp_NtCsaNl6UpbT7bw_4core6resultINtB5_6ResultNtNtCsc29TF2YcYso_3syn4data5FieldNtNtBO_5error5ErrorENtNtNtB7_3ops9try_trait3Try6branchBO_, symObjAddr: 0xA100, symBinAddr: 0x49E0C, symSize: 0xC0 }
  - { offset: 0xAB424, size: 0x8, addend: 0x0, symName: __RNvXsp_NtCsaNl6UpbT7bw_4core6resultINtB5_6ResultNtNtCsc29TF2YcYso_3syn4data7VariantNtNtBO_5error5ErrorENtNtNtB7_3ops9try_trait3Try6branchBO_, symObjAddr: 0xA1C0, symBinAddr: 0x49ECC, symSize: 0xB4 }
  - { offset: 0xAB4A2, size: 0x8, addend: 0x0, symName: __RNvXsp_NtCsaNl6UpbT7bw_4core6resultINtB5_6ResultNtNtCsc29TF2YcYso_3syn4expr10ExprUnsafeNtNtBO_5error5ErrorENtNtNtB7_3ops9try_trait3Try6branchBO_, symObjAddr: 0xA274, symBinAddr: 0x49F80, symSize: 0xB0 }
  - { offset: 0xAB51F, size: 0x8, addend: 0x0, symName: __RNvXsp_NtCsaNl6UpbT7bw_4core6resultINtB5_6ResultNtNtCsc29TF2YcYso_3syn4expr10FieldValueNtNtBO_5error5ErrorENtNtNtB7_3ops9try_trait3Try6branchBO_, symObjAddr: 0xA324, symBinAddr: 0x4A030, symSize: 0xC0 }
  - { offset: 0xAB59D, size: 0x8, addend: 0x0, symName: __RNvXsp_NtCsaNl6UpbT7bw_4core6resultINtB5_6ResultNtNtCsc29TF2YcYso_3syn4expr11ExprForLoopNtNtBO_5error5ErrorENtNtNtB7_3ops9try_trait3Try6branchBO_, symObjAddr: 0xA3E4, symBinAddr: 0x4A0F0, symSize: 0xB0 }
  - { offset: 0xAB61A, size: 0x8, addend: 0x0, symName: __RNvXsp_NtCsaNl6UpbT7bw_4core6resultINtB5_6ResultNtNtCsc29TF2YcYso_3syn4expr11RangeLimitsNtNtBO_5error5ErrorENtNtNtB7_3ops9try_trait3Try6branchBO_, symObjAddr: 0xA494, symBinAddr: 0x4A1A0, symSize: 0x8C }
  - { offset: 0xAB697, size: 0x8, addend: 0x0, symName: __RNvXsp_NtCsaNl6UpbT7bw_4core6resultINtB5_6ResultNtNtCsc29TF2YcYso_3syn4expr12ExprTryBlockNtNtBO_5error5ErrorENtNtNtB7_3ops9try_trait3Try6branchBO_, symObjAddr: 0xA520, symBinAddr: 0x4A22C, symSize: 0xB0 }
  - { offset: 0xAB714, size: 0x8, addend: 0x0, symName: __RNvXsp_NtCsaNl6UpbT7bw_4core6resultINtB5_6ResultNtNtCsc29TF2YcYso_3syn4expr3ArmNtNtBO_5error5ErrorENtNtNtB7_3ops9try_trait3Try6branchBO_, symObjAddr: 0xA664, symBinAddr: 0x4A2DC, symSize: 0xC4 }
  - { offset: 0xAB792, size: 0x8, addend: 0x0, symName: __RNvXsp_NtCsaNl6UpbT7bw_4core6resultINtB5_6ResultNtNtCsc29TF2YcYso_3syn4expr4ExprNtNtBO_5error5ErrorENtNtNtB7_3ops9try_trait3Try6branchBO_, symObjAddr: 0xA728, symBinAddr: 0x4A3A0, symSize: 0xB4 }
  - { offset: 0xAB810, size: 0x8, addend: 0x0, symName: __RNvXsp_NtCsaNl6UpbT7bw_4core6resultINtB5_6ResultNtNtCsc29TF2YcYso_3syn4expr5IndexNtNtBO_5error5ErrorENtNtNtB7_3ops9try_trait3Try6branchBO_, symObjAddr: 0xA7DC, symBinAddr: 0x4A454, symSize: 0x94 }
  - { offset: 0xAB88E, size: 0x8, addend: 0x0, symName: __RNvXsp_NtCsaNl6UpbT7bw_4core6resultINtB5_6ResultNtNtCsc29TF2YcYso_3syn4expr5LabelNtNtBO_5error5ErrorENtNtNtB7_3ops9try_trait3Try6branchBO_, symObjAddr: 0xA870, symBinAddr: 0x4A4E8, symSize: 0xB0 }
  - { offset: 0xAB90B, size: 0x8, addend: 0x0, symName: __RNvXsp_NtCsaNl6UpbT7bw_4core6resultINtB5_6ResultNtNtCsc29TF2YcYso_3syn4expr6ExprIfNtNtBO_5error5ErrorENtNtNtB7_3ops9try_trait3Try6branchBO_, symObjAddr: 0xA920, symBinAddr: 0x4A598, symSize: 0xB0 }
  - { offset: 0xAB988, size: 0x8, addend: 0x0, symName: __RNvXsp_NtCsaNl6UpbT7bw_4core6resultINtB5_6ResultNtNtCsc29TF2YcYso_3syn4expr6MemberNtNtBO_5error5ErrorENtNtNtB7_3ops9try_trait3Try6branchBO_, symObjAddr: 0xA9D0, symBinAddr: 0x4A648, symSize: 0x94 }
  - { offset: 0xABA05, size: 0x8, addend: 0x0, symName: __RNvXsp_NtCsaNl6UpbT7bw_4core6resultINtB5_6ResultNtNtCsc29TF2YcYso_3syn4expr7ExprLitNtNtBO_5error5ErrorENtNtNtB7_3ops9try_trait3Try6branchBO_, symObjAddr: 0xAA64, symBinAddr: 0x4A6DC, symSize: 0xB0 }
  - { offset: 0xABA82, size: 0x8, addend: 0x0, symName: __RNvXsp_NtCsaNl6UpbT7bw_4core6resultINtB5_6ResultNtNtCsc29TF2YcYso_3syn4expr8ExprLoopNtNtBO_5error5ErrorENtNtNtB7_3ops9try_trait3Try6branchBO_, symObjAddr: 0xAB14, symBinAddr: 0x4A78C, symSize: 0xB0 }
  - { offset: 0xABAFF, size: 0x8, addend: 0x0, symName: __RNvXsp_NtCsaNl6UpbT7bw_4core6resultINtB5_6ResultNtNtCsc29TF2YcYso_3syn4expr8ExprPathNtNtBO_5error5ErrorENtNtNtB7_3ops9try_trait3Try6branchBO_, symObjAddr: 0xABC4, symBinAddr: 0x4A83C, symSize: 0xBC }
  - { offset: 0xABB7C, size: 0x8, addend: 0x0, symName: __RNvXsp_NtCsaNl6UpbT7bw_4core6resultINtB5_6ResultNtNtCsc29TF2YcYso_3syn4expr9ExprBlockNtNtBO_5error5ErrorENtNtNtB7_3ops9try_trait3Try6branchBO_, symObjAddr: 0xAC80, symBinAddr: 0x4A8F8, symSize: 0xBC }
  - { offset: 0xABBF9, size: 0x8, addend: 0x0, symName: __RNvXsp_NtCsaNl6UpbT7bw_4core6resultINtB5_6ResultNtNtCsc29TF2YcYso_3syn4expr9ExprConstNtNtBO_5error5ErrorENtNtNtB7_3ops9try_trait3Try6branchBO_, symObjAddr: 0xAD3C, symBinAddr: 0x4A9B4, symSize: 0xB0 }
  - { offset: 0xABC76, size: 0x8, addend: 0x0, symName: __RNvXsp_NtCsaNl6UpbT7bw_4core6resultINtB5_6ResultNtNtCsc29TF2YcYso_3syn4expr9ExprMatchNtNtBO_5error5ErrorENtNtNtB7_3ops9try_trait3Try6branchBO_, symObjAddr: 0xADEC, symBinAddr: 0x4AA64, symSize: 0xB0 }
  - { offset: 0xABCF3, size: 0x8, addend: 0x0, symName: __RNvXsp_NtCsaNl6UpbT7bw_4core6resultINtB5_6ResultNtNtCsc29TF2YcYso_3syn4expr9ExprWhileNtNtBO_5error5ErrorENtNtNtB7_3ops9try_trait3Try6branchBO_, symObjAddr: 0xAE9C, symBinAddr: 0x4AB14, symSize: 0xBC }
  - { offset: 0xABD70, size: 0x8, addend: 0x0, symName: __RNvXsp_NtCsaNl6UpbT7bw_4core6resultINtB5_6ResultNtNtCsc29TF2YcYso_3syn4item11ForeignItemNtNtBO_5error5ErrorENtNtNtB7_3ops9try_trait3Try6branchBO_, symObjAddr: 0xB008, symBinAddr: 0x4ABD0, symSize: 0xB4 }
  - { offset: 0xABDEE, size: 0x8, addend: 0x0, symName: __RNvXsp_NtCsaNl6UpbT7bw_4core6resultINtB5_6ResultNtNtCsc29TF2YcYso_3syn4item16StaticMutabilityNtNtBO_5error5ErrorENtNtNtB7_3ops9try_trait3Try6branchBO_, symObjAddr: 0xB0BC, symBinAddr: 0x4AC84, symSize: 0x94 }
  - { offset: 0xABE6C, size: 0x8, addend: 0x0, symName: __RNvXsp_NtCsaNl6UpbT7bw_4core6resultINtB5_6ResultNtNtCsc29TF2YcYso_3syn4item4ItemNtNtBO_5error5ErrorENtNtNtB7_3ops9try_trait3Try6branchBO_, symObjAddr: 0xB150, symBinAddr: 0x4AD18, symSize: 0xB4 }
  - { offset: 0xABEEA, size: 0x8, addend: 0x0, symName: __RNvXsp_NtCsaNl6UpbT7bw_4core6resultINtB5_6ResultNtNtCsc29TF2YcYso_3syn4item7UseTreeNtNtBO_5error5ErrorENtNtNtB7_3ops9try_trait3Try6branchBO_, symObjAddr: 0xB204, symBinAddr: 0x4ADCC, symSize: 0xAC }
  - { offset: 0xABF67, size: 0x8, addend: 0x0, symName: __RNvXsp_NtCsaNl6UpbT7bw_4core6resultINtB5_6ResultNtNtCsc29TF2YcYso_3syn4item8ImplItemNtNtBO_5error5ErrorENtNtNtB7_3ops9try_trait3Try6branchBO_, symObjAddr: 0xB2B0, symBinAddr: 0x4AE78, symSize: 0xB4 }
  - { offset: 0xABFE5, size: 0x8, addend: 0x0, symName: __RNvXsp_NtCsaNl6UpbT7bw_4core6resultINtB5_6ResultNtNtCsc29TF2YcYso_3syn4item9SignatureNtNtBO_5error5ErrorENtNtNtB7_3ops9try_trait3Try6branchBO_, symObjAddr: 0xB364, symBinAddr: 0x4AF2C, symSize: 0xB4 }
  - { offset: 0xAC063, size: 0x8, addend: 0x0, symName: __RNvXsp_NtCsaNl6UpbT7bw_4core6resultINtB5_6ResultNtNtCsc29TF2YcYso_3syn4item9TraitItemNtNtBO_5error5ErrorENtNtNtB7_3ops9try_trait3Try6branchBO_, symObjAddr: 0xB418, symBinAddr: 0x4AFE0, symSize: 0xB4 }
  - { offset: 0xAC0E1, size: 0x8, addend: 0x0, symName: __RNvXsp_NtCsaNl6UpbT7bw_4core6resultINtB5_6ResultNtNtCsc29TF2YcYso_3syn4path11PathSegmentNtNtBO_5error5ErrorENtNtNtB7_3ops9try_trait3Try6branchBO_, symObjAddr: 0xB4CC, symBinAddr: 0x4B094, symSize: 0xB8 }
  - { offset: 0xAC15E, size: 0x8, addend: 0x0, symName: __RNvXsp_NtCsaNl6UpbT7bw_4core6resultINtB5_6ResultNtNtCsc29TF2YcYso_3syn4path15GenericArgumentNtNtBO_5error5ErrorENtNtNtB7_3ops9try_trait3Try6branchBO_, symObjAddr: 0xB584, symBinAddr: 0x4B14C, symSize: 0xC0 }
  - { offset: 0xAC1DC, size: 0x8, addend: 0x0, symName: __RNvXsp_NtCsaNl6UpbT7bw_4core6resultINtB5_6ResultNtNtCsc29TF2YcYso_3syn4path29ParenthesizedGenericArgumentsNtNtBO_5error5ErrorENtNtNtB7_3ops9try_trait3Try6branchBO_, symObjAddr: 0xB644, symBinAddr: 0x4B20C, symSize: 0xB0 }
  - { offset: 0xAC259, size: 0x8, addend: 0x0, symName: __RNvXsp_NtCsaNl6UpbT7bw_4core6resultINtB5_6ResultNtNtCsc29TF2YcYso_3syn4path30AngleBracketedGenericArgumentsNtNtBO_5error5ErrorENtNtNtB7_3ops9try_trait3Try6branchBO_, symObjAddr: 0xB6F4, symBinAddr: 0x4B2BC, symSize: 0xB0 }
  - { offset: 0xAC2D6, size: 0x8, addend: 0x0, symName: __RNvXsp_NtCsaNl6UpbT7bw_4core6resultINtB5_6ResultNtNtCsc29TF2YcYso_3syn4path4PathNtNtBO_5error5ErrorENtNtNtB7_3ops9try_trait3Try6branchBO_, symObjAddr: 0xB7A4, symBinAddr: 0x4B36C, symSize: 0xB0 }
  - { offset: 0xAC353, size: 0x8, addend: 0x0, symName: __RNvXsp_NtCsaNl6UpbT7bw_4core6resultINtB5_6ResultNtNtCsc29TF2YcYso_3syn4stmt4StmtNtNtBO_5error5ErrorENtNtNtB7_3ops9try_trait3Try6branchBO_, symObjAddr: 0xB854, symBinAddr: 0x4B41C, symSize: 0xB4 }
  - { offset: 0xAC3D1, size: 0x8, addend: 0x0, symName: __RNvXsp_NtCsaNl6UpbT7bw_4core6resultINtB5_6ResultNtNtCsc29TF2YcYso_3syn4stmt5BlockNtNtBO_5error5ErrorENtNtNtB7_3ops9try_trait3Try6branchBO_, symObjAddr: 0xB908, symBinAddr: 0x4B4D0, symSize: 0xB0 }
  - { offset: 0xAC44E, size: 0x8, addend: 0x0, symName: __RNvXsp_NtCsaNl6UpbT7bw_4core6resultINtB5_6ResultNtNtCsc29TF2YcYso_3syn5group5GroupNtNtBO_5error5ErrorENtNtNtB7_3ops9try_trait3Try6branchBO_, symObjAddr: 0xB9B8, symBinAddr: 0x4B580, symSize: 0xB0 }
  - { offset: 0xAC4CB, size: 0x8, addend: 0x0, symName: __RNvXsp_NtCsaNl6UpbT7bw_4core6resultINtB5_6ResultNtNtCsc29TF2YcYso_3syn5token10UnderscoreNtNtBO_5error5ErrorENtNtNtB7_3ops9try_trait3Try6branchBO_, symObjAddr: 0xBA68, symBinAddr: 0x4B630, symSize: 0x8C }
  - { offset: 0xAC548, size: 0x8, addend: 0x0, symName: __RNvXsp_NtCsaNl6UpbT7bw_4core6resultINtB5_6ResultNtNtCsc29TF2YcYso_3syn5token2AsNtNtBO_5error5ErrorENtNtNtB7_3ops9try_trait3Try6branchBO_, symObjAddr: 0xBAF4, symBinAddr: 0x4B6BC, symSize: 0x88 }
  - { offset: 0xAC5C6, size: 0x8, addend: 0x0, symName: __RNvXsp_NtCsaNl6UpbT7bw_4core6resultINtB5_6ResultNtNtCsc29TF2YcYso_3syn5token2AtNtNtBO_5error5ErrorENtNtNtB7_3ops9try_trait3Try6branchBO_, symObjAddr: 0xBB7C, symBinAddr: 0x4B744, symSize: 0x8C }
  - { offset: 0xAC643, size: 0x8, addend: 0x0, symName: __RNvXsp_NtCsaNl6UpbT7bw_4core6resultINtB5_6ResultNtNtCsc29TF2YcYso_3syn5token2EqNtNtBO_5error5ErrorENtNtNtB7_3ops9try_trait3Try6branchBO_, symObjAddr: 0xBC08, symBinAddr: 0x4B7D0, symSize: 0x8C }
  - { offset: 0xAC6C0, size: 0x8, addend: 0x0, symName: __RNvXsp_NtCsaNl6UpbT7bw_4core6resultINtB5_6ResultNtNtCsc29TF2YcYso_3syn5token2FnNtNtBO_5error5ErrorENtNtNtB7_3ops9try_trait3Try6branchBO_, symObjAddr: 0xBC94, symBinAddr: 0x4B85C, symSize: 0x88 }
  - { offset: 0xAC73E, size: 0x8, addend: 0x0, symName: __RNvXsp_NtCsaNl6UpbT7bw_4core6resultINtB5_6ResultNtNtCsc29TF2YcYso_3syn5token2GtNtNtBO_5error5ErrorENtNtNtB7_3ops9try_trait3Try6branchBO_, symObjAddr: 0xBD1C, symBinAddr: 0x4B8E4, symSize: 0x8C }
  - { offset: 0xAC7BB, size: 0x8, addend: 0x0, symName: __RNvXsp_NtCsaNl6UpbT7bw_4core6resultINtB5_6ResultNtNtCsc29TF2YcYso_3syn5token2IfNtNtBO_5error5ErrorENtNtNtB7_3ops9try_trait3Try6branchBO_, symObjAddr: 0xBDA8, symBinAddr: 0x4B970, symSize: 0x88 }
  - { offset: 0xAC839, size: 0x8, addend: 0x0, symName: __RNvXsp_NtCsaNl6UpbT7bw_4core6resultINtB5_6ResultNtNtCsc29TF2YcYso_3syn5token2InNtNtBO_5error5ErrorENtNtNtB7_3ops9try_trait3Try6branchBO_, symObjAddr: 0xBE30, symBinAddr: 0x4B9F8, symSize: 0x88 }
  - { offset: 0xAC8B7, size: 0x8, addend: 0x0, symName: __RNvXsp_NtCsaNl6UpbT7bw_4core6resultINtB5_6ResultNtNtCsc29TF2YcYso_3syn5token2LtNtNtBO_5error5ErrorENtNtNtB7_3ops9try_trait3Try6branchBO_, symObjAddr: 0xBEB8, symBinAddr: 0x4BA80, symSize: 0x8C }
  - { offset: 0xAC934, size: 0x8, addend: 0x0, symName: __RNvXsp_NtCsaNl6UpbT7bw_4core6resultINtB5_6ResultNtNtCsc29TF2YcYso_3syn5token2OrNtNtBO_5error5ErrorENtNtNtB7_3ops9try_trait3Try6branchBO_, symObjAddr: 0xBF44, symBinAddr: 0x4BB0C, symSize: 0x8C }
  - { offset: 0xAC9B1, size: 0x8, addend: 0x0, symName: __RNvXsp_NtCsaNl6UpbT7bw_4core6resultINtB5_6ResultNtNtCsc29TF2YcYso_3syn5token3AndNtNtBO_5error5ErrorENtNtNtB7_3ops9try_trait3Try6branchBO_, symObjAddr: 0xBFD0, symBinAddr: 0x4BB98, symSize: 0x8C }
  - { offset: 0xACA2E, size: 0x8, addend: 0x0, symName: __RNvXsp_NtCsaNl6UpbT7bw_4core6resultINtB5_6ResultNtNtCsc29TF2YcYso_3syn5token3BoxNtNtBO_5error5ErrorENtNtNtB7_3ops9try_trait3Try6branchBO_, symObjAddr: 0xC05C, symBinAddr: 0x4BC24, symSize: 0x88 }
  - { offset: 0xACAAC, size: 0x8, addend: 0x0, symName: __RNvXsp_NtCsaNl6UpbT7bw_4core6resultINtB5_6ResultNtNtCsc29TF2YcYso_3syn5token3DotNtNtBO_5error5ErrorENtNtNtB7_3ops9try_trait3Try6branchBO_, symObjAddr: 0xC0E4, symBinAddr: 0x4BCAC, symSize: 0x8C }
  - { offset: 0xACB29, size: 0x8, addend: 0x0, symName: __RNvXsp_NtCsaNl6UpbT7bw_4core6resultINtB5_6ResultNtNtCsc29TF2YcYso_3syn5token3DynNtNtBO_5error5ErrorENtNtNtB7_3ops9try_trait3Try6branchBO_, symObjAddr: 0xC170, symBinAddr: 0x4BD38, symSize: 0x88 }
  - { offset: 0xACBA7, size: 0x8, addend: 0x0, symName: __RNvXsp_NtCsaNl6UpbT7bw_4core6resultINtB5_6ResultNtNtCsc29TF2YcYso_3syn5token3ForNtNtBO_5error5ErrorENtNtNtB7_3ops9try_trait3Try6branchBO_, symObjAddr: 0xC1F8, symBinAddr: 0x4BDC0, symSize: 0x88 }
  - { offset: 0xACC25, size: 0x8, addend: 0x0, symName: __RNvXsp_NtCsaNl6UpbT7bw_4core6resultINtB5_6ResultNtNtCsc29TF2YcYso_3syn5token3LetNtNtBO_5error5ErrorENtNtNtB7_3ops9try_trait3Try6branchBO_, symObjAddr: 0xC280, symBinAddr: 0x4BE48, symSize: 0x88 }
  - { offset: 0xACCA3, size: 0x8, addend: 0x0, symName: __RNvXsp_NtCsaNl6UpbT7bw_4core6resultINtB5_6ResultNtNtCsc29TF2YcYso_3syn5token3ModNtNtBO_5error5ErrorENtNtNtB7_3ops9try_trait3Try6branchBO_, symObjAddr: 0xC308, symBinAddr: 0x4BED0, symSize: 0x88 }
  - { offset: 0xACD21, size: 0x8, addend: 0x0, symName: __RNvXsp_NtCsaNl6UpbT7bw_4core6resultINtB5_6ResultNtNtCsc29TF2YcYso_3syn5token3MutNtNtBO_5error5ErrorENtNtNtB7_3ops9try_trait3Try6branchBO_, symObjAddr: 0xC390, symBinAddr: 0x4BF58, symSize: 0x88 }
  - { offset: 0xACD9F, size: 0x8, addend: 0x0, symName: __RNvXsp_NtCsaNl6UpbT7bw_4core6resultINtB5_6ResultNtNtCsc29TF2YcYso_3syn5token3NotNtNtBO_5error5ErrorENtNtNtB7_3ops9try_trait3Try6branchBO_, symObjAddr: 0xC418, symBinAddr: 0x4BFE0, symSize: 0x8C }
  - { offset: 0xACE1C, size: 0x8, addend: 0x0, symName: __RNvXsp_NtCsaNl6UpbT7bw_4core6resultINtB5_6ResultNtNtCsc29TF2YcYso_3syn5token3PubNtNtBO_5error5ErrorENtNtNtB7_3ops9try_trait3Try6branchBO_, symObjAddr: 0xC4A4, symBinAddr: 0x4C06C, symSize: 0x88 }
  - { offset: 0xACE9A, size: 0x8, addend: 0x0, symName: __RNvXsp_NtCsaNl6UpbT7bw_4core6resultINtB5_6ResultNtNtCsc29TF2YcYso_3syn5token3RawNtNtBO_5error5ErrorENtNtNtB7_3ops9try_trait3Try6branchBO_, symObjAddr: 0xC52C, symBinAddr: 0x4C0F4, symSize: 0x88 }
  - { offset: 0xACF18, size: 0x8, addend: 0x0, symName: __RNvXsp_NtCsaNl6UpbT7bw_4core6resultINtB5_6ResultNtNtCsc29TF2YcYso_3syn5token3RefNtNtBO_5error5ErrorENtNtNtB7_3ops9try_trait3Try6branchBO_, symObjAddr: 0xC5B4, symBinAddr: 0x4C17C, symSize: 0x88 }
  - { offset: 0xACF96, size: 0x8, addend: 0x0, symName: __RNvXsp_NtCsaNl6UpbT7bw_4core6resultINtB5_6ResultNtNtCsc29TF2YcYso_3syn5token3TryNtNtBO_5error5ErrorENtNtNtB7_3ops9try_trait3Try6branchBO_, symObjAddr: 0xC63C, symBinAddr: 0x4C204, symSize: 0x88 }
  - { offset: 0xAD014, size: 0x8, addend: 0x0, symName: __RNvXsp_NtCsaNl6UpbT7bw_4core6resultINtB5_6ResultNtNtCsc29TF2YcYso_3syn5token3UseNtNtBO_5error5ErrorENtNtNtB7_3ops9try_trait3Try6branchBO_, symObjAddr: 0xC6C4, symBinAddr: 0x4C28C, symSize: 0x88 }
  - { offset: 0xAD092, size: 0x8, addend: 0x0, symName: __RNvXsp_NtCsaNl6UpbT7bw_4core6resultINtB5_6ResultNtNtCsc29TF2YcYso_3syn5token4AutoNtNtBO_5error5ErrorENtNtNtB7_3ops9try_trait3Try6branchBO_, symObjAddr: 0xC74C, symBinAddr: 0x4C314, symSize: 0x88 }
  - { offset: 0xAD110, size: 0x8, addend: 0x0, symName: __RNvXsp_NtCsaNl6UpbT7bw_4core6resultINtB5_6ResultNtNtCsc29TF2YcYso_3syn5token4ElseNtNtBO_5error5ErrorENtNtNtB7_3ops9try_trait3Try6branchBO_, symObjAddr: 0xC7D4, symBinAddr: 0x4C39C, symSize: 0x88 }
  - { offset: 0xAD18E, size: 0x8, addend: 0x0, symName: __RNvXsp_NtCsaNl6UpbT7bw_4core6resultINtB5_6ResultNtNtCsc29TF2YcYso_3syn5token4EnumNtNtBO_5error5ErrorENtNtNtB7_3ops9try_trait3Try6branchBO_, symObjAddr: 0xC85C, symBinAddr: 0x4C424, symSize: 0x88 }
  - { offset: 0xAD20C, size: 0x8, addend: 0x0, symName: __RNvXsp_NtCsaNl6UpbT7bw_4core6resultINtB5_6ResultNtNtCsc29TF2YcYso_3syn5token4ImplNtNtBO_5error5ErrorENtNtNtB7_3ops9try_trait3Try6branchBO_, symObjAddr: 0xC8E4, symBinAddr: 0x4C4AC, symSize: 0x88 }
  - { offset: 0xAD28A, size: 0x8, addend: 0x0, symName: __RNvXsp_NtCsaNl6UpbT7bw_4core6resultINtB5_6ResultNtNtCsc29TF2YcYso_3syn5token4LoopNtNtBO_5error5ErrorENtNtNtB7_3ops9try_trait3Try6branchBO_, symObjAddr: 0xC96C, symBinAddr: 0x4C534, symSize: 0x88 }
  - { offset: 0xAD308, size: 0x8, addend: 0x0, symName: __RNvXsp_NtCsaNl6UpbT7bw_4core6resultINtB5_6ResultNtNtCsc29TF2YcYso_3syn5token4MoveNtNtBO_5error5ErrorENtNtNtB7_3ops9try_trait3Try6branchBO_, symObjAddr: 0xC9F4, symBinAddr: 0x4C5BC, symSize: 0x88 }
  - { offset: 0xAD386, size: 0x8, addend: 0x0, symName: __RNvXsp_NtCsaNl6UpbT7bw_4core6resultINtB5_6ResultNtNtCsc29TF2YcYso_3syn5token4PlusNtNtBO_5error5ErrorENtNtNtB7_3ops9try_trait3Try6branchBO_, symObjAddr: 0xCA7C, symBinAddr: 0x4C644, symSize: 0x8C }
  - { offset: 0xAD403, size: 0x8, addend: 0x0, symName: __RNvXsp_NtCsaNl6UpbT7bw_4core6resultINtB5_6ResultNtNtCsc29TF2YcYso_3syn5token4SemiNtNtBO_5error5ErrorENtNtNtB7_3ops9try_trait3Try6branchBO_, symObjAddr: 0xCB08, symBinAddr: 0x4C6D0, symSize: 0x8C }
  - { offset: 0xAD480, size: 0x8, addend: 0x0, symName: __RNvXsp_NtCsaNl6UpbT7bw_4core6resultINtB5_6ResultNtNtCsc29TF2YcYso_3syn5token4StarNtNtBO_5error5ErrorENtNtNtB7_3ops9try_trait3Try6branchBO_, symObjAddr: 0xCB94, symBinAddr: 0x4C75C, symSize: 0x8C }
  - { offset: 0xAD4FD, size: 0x8, addend: 0x0, symName: __RNvXsp_NtCsaNl6UpbT7bw_4core6resultINtB5_6ResultNtNtCsc29TF2YcYso_3syn5token4TypeNtNtBO_5error5ErrorENtNtNtB7_3ops9try_trait3Try6branchBO_, symObjAddr: 0xCC20, symBinAddr: 0x4C7E8, symSize: 0x88 }
  - { offset: 0xAD57B, size: 0x8, addend: 0x0, symName: __RNvXsp_NtCsaNl6UpbT7bw_4core6resultINtB5_6ResultNtNtCsc29TF2YcYso_3syn5token5AsyncNtNtBO_5error5ErrorENtNtNtB7_3ops9try_trait3Try6branchBO_, symObjAddr: 0xCCA8, symBinAddr: 0x4C870, symSize: 0x88 }
  - { offset: 0xAD5F9, size: 0x8, addend: 0x0, symName: __RNvXsp_NtCsaNl6UpbT7bw_4core6resultINtB5_6ResultNtNtCsc29TF2YcYso_3syn5token5AwaitNtNtBO_5error5ErrorENtNtNtB7_3ops9try_trait3Try6branchBO_, symObjAddr: 0xCD30, symBinAddr: 0x4C8F8, symSize: 0x88 }
  - { offset: 0xAD677, size: 0x8, addend: 0x0, symName: __RNvXsp_NtCsaNl6UpbT7bw_4core6resultINtB5_6ResultNtNtCsc29TF2YcYso_3syn5token5BreakNtNtBO_5error5ErrorENtNtNtB7_3ops9try_trait3Try6branchBO_, symObjAddr: 0xCDB8, symBinAddr: 0x4C980, symSize: 0x88 }
  - { offset: 0xAD6F5, size: 0x8, addend: 0x0, symName: __RNvXsp_NtCsaNl6UpbT7bw_4core6resultINtB5_6ResultNtNtCsc29TF2YcYso_3syn5token5ColonNtNtBO_5error5ErrorENtNtNtB7_3ops9try_trait3Try6branchBO_, symObjAddr: 0xCE40, symBinAddr: 0x4CA08, symSize: 0x8C }
  - { offset: 0xAD772, size: 0x8, addend: 0x0, symName: __RNvXsp_NtCsaNl6UpbT7bw_4core6resultINtB5_6ResultNtNtCsc29TF2YcYso_3syn5token5CommaNtNtBO_5error5ErrorENtNtNtB7_3ops9try_trait3Try6branchBO_, symObjAddr: 0xCECC, symBinAddr: 0x4CA94, symSize: 0x8C }
  - { offset: 0xAD7EF, size: 0x8, addend: 0x0, symName: __RNvXsp_NtCsaNl6UpbT7bw_4core6resultINtB5_6ResultNtNtCsc29TF2YcYso_3syn5token5ConstNtNtBO_5error5ErrorENtNtNtB7_3ops9try_trait3Try6branchBO_, symObjAddr: 0xCF58, symBinAddr: 0x4CB20, symSize: 0x88 }
  - { offset: 0xAD86D, size: 0x8, addend: 0x0, symName: __RNvXsp_NtCsaNl6UpbT7bw_4core6resultINtB5_6ResultNtNtCsc29TF2YcYso_3syn5token5CrateNtNtBO_5error5ErrorENtNtNtB7_3ops9try_trait3Try6branchBO_, symObjAddr: 0xCFE0, symBinAddr: 0x4CBA8, symSize: 0x88 }
  - { offset: 0xAD8EB, size: 0x8, addend: 0x0, symName: __RNvXsp_NtCsaNl6UpbT7bw_4core6resultINtB5_6ResultNtNtCsc29TF2YcYso_3syn5token5MacroNtNtBO_5error5ErrorENtNtNtB7_3ops9try_trait3Try6branchBO_, symObjAddr: 0xD068, symBinAddr: 0x4CC30, symSize: 0x88 }
  - { offset: 0xAD969, size: 0x8, addend: 0x0, symName: __RNvXsp_NtCsaNl6UpbT7bw_4core6resultINtB5_6ResultNtNtCsc29TF2YcYso_3syn5token5MatchNtNtBO_5error5ErrorENtNtNtB7_3ops9try_trait3Try6branchBO_, symObjAddr: 0xD0F0, symBinAddr: 0x4CCB8, symSize: 0x88 }
  - { offset: 0xAD9E7, size: 0x8, addend: 0x0, symName: __RNvXsp_NtCsaNl6UpbT7bw_4core6resultINtB5_6ResultNtNtCsc29TF2YcYso_3syn5token5PoundNtNtBO_5error5ErrorENtNtNtB7_3ops9try_trait3Try6branchBO_, symObjAddr: 0xD178, symBinAddr: 0x4CD40, symSize: 0x8C }
  - { offset: 0xADA64, size: 0x8, addend: 0x0, symName: __RNvXsp_NtCsaNl6UpbT7bw_4core6resultINtB5_6ResultNtNtCsc29TF2YcYso_3syn5token5TraitNtNtBO_5error5ErrorENtNtNtB7_3ops9try_trait3Try6branchBO_, symObjAddr: 0xD204, symBinAddr: 0x4CDCC, symSize: 0x88 }
  - { offset: 0xADAE2, size: 0x8, addend: 0x0, symName: __RNvXsp_NtCsaNl6UpbT7bw_4core6resultINtB5_6ResultNtNtCsc29TF2YcYso_3syn5token5UnionNtNtBO_5error5ErrorENtNtNtB7_3ops9try_trait3Try6branchBO_, symObjAddr: 0xD28C, symBinAddr: 0x4CE54, symSize: 0x88 }
  - { offset: 0xADB60, size: 0x8, addend: 0x0, symName: __RNvXsp_NtCsaNl6UpbT7bw_4core6resultINtB5_6ResultNtNtCsc29TF2YcYso_3syn5token5WhereNtNtBO_5error5ErrorENtNtNtB7_3ops9try_trait3Try6branchBO_, symObjAddr: 0xD314, symBinAddr: 0x4CEDC, symSize: 0x88 }
  - { offset: 0xADBDE, size: 0x8, addend: 0x0, symName: __RNvXsp_NtCsaNl6UpbT7bw_4core6resultINtB5_6ResultNtNtCsc29TF2YcYso_3syn5token5WhileNtNtBO_5error5ErrorENtNtNtB7_3ops9try_trait3Try6branchBO_, symObjAddr: 0xD39C, symBinAddr: 0x4CF64, symSize: 0x88 }
  - { offset: 0xADC5C, size: 0x8, addend: 0x0, symName: __RNvXsp_NtCsaNl6UpbT7bw_4core6resultINtB5_6ResultNtNtCsc29TF2YcYso_3syn5token5YieldNtNtBO_5error5ErrorENtNtNtB7_3ops9try_trait3Try6branchBO_, symObjAddr: 0xD424, symBinAddr: 0x4CFEC, symSize: 0x88 }
  - { offset: 0xADCDA, size: 0x8, addend: 0x0, symName: __RNvXsp_NtCsaNl6UpbT7bw_4core6resultINtB5_6ResultNtNtCsc29TF2YcYso_3syn5token6BecomeNtNtBO_5error5ErrorENtNtNtB7_3ops9try_trait3Try6branchBO_, symObjAddr: 0xD4AC, symBinAddr: 0x4D074, symSize: 0x88 }
  - { offset: 0xADD58, size: 0x8, addend: 0x0, symName: __RNvXsp_NtCsaNl6UpbT7bw_4core6resultINtB5_6ResultNtNtCsc29TF2YcYso_3syn5token6DotDotNtNtBO_5error5ErrorENtNtNtB7_3ops9try_trait3Try6branchBO_, symObjAddr: 0xD534, symBinAddr: 0x4D0FC, symSize: 0x8C }
  - { offset: 0xADDD5, size: 0x8, addend: 0x0, symName: __RNvXsp_NtCsaNl6UpbT7bw_4core6resultINtB5_6ResultNtNtCsc29TF2YcYso_3syn5token6ExternNtNtBO_5error5ErrorENtNtNtB7_3ops9try_trait3Try6branchBO_, symObjAddr: 0xD5C0, symBinAddr: 0x4D188, symSize: 0x88 }
  - { offset: 0xADE53, size: 0x8, addend: 0x0, symName: __RNvXsp_NtCsaNl6UpbT7bw_4core6resultINtB5_6ResultNtNtCsc29TF2YcYso_3syn5token6RArrowNtNtBO_5error5ErrorENtNtNtB7_3ops9try_trait3Try6branchBO_, symObjAddr: 0xD648, symBinAddr: 0x4D210, symSize: 0x8C }
  - { offset: 0xADED0, size: 0x8, addend: 0x0, symName: __RNvXsp_NtCsaNl6UpbT7bw_4core6resultINtB5_6ResultNtNtCsc29TF2YcYso_3syn5token6ReturnNtNtBO_5error5ErrorENtNtNtB7_3ops9try_trait3Try6branchBO_, symObjAddr: 0xD6D4, symBinAddr: 0x4D29C, symSize: 0x88 }
  - { offset: 0xADF4E, size: 0x8, addend: 0x0, symName: __RNvXsp_NtCsaNl6UpbT7bw_4core6resultINtB5_6ResultNtNtCsc29TF2YcYso_3syn5token6StaticNtNtBO_5error5ErrorENtNtNtB7_3ops9try_trait3Try6branchBO_, symObjAddr: 0xD75C, symBinAddr: 0x4D324, symSize: 0x88 }
  - { offset: 0xADFCC, size: 0x8, addend: 0x0, symName: __RNvXsp_NtCsaNl6UpbT7bw_4core6resultINtB5_6ResultNtNtCsc29TF2YcYso_3syn5token6StructNtNtBO_5error5ErrorENtNtNtB7_3ops9try_trait3Try6branchBO_, symObjAddr: 0xD7E4, symBinAddr: 0x4D3AC, symSize: 0x88 }
  - { offset: 0xAE04A, size: 0x8, addend: 0x0, symName: __RNvXsp_NtCsaNl6UpbT7bw_4core6resultINtB5_6ResultNtNtCsc29TF2YcYso_3syn5token6UnsafeNtNtBO_5error5ErrorENtNtNtB7_3ops9try_trait3Try6branchBO_, symObjAddr: 0xD86C, symBinAddr: 0x4D434, symSize: 0x88 }
  - { offset: 0xAE0C8, size: 0x8, addend: 0x0, symName: __RNvXsp_NtCsaNl6UpbT7bw_4core6resultINtB5_6ResultNtNtCsc29TF2YcYso_3syn5token7DefaultNtNtBO_5error5ErrorENtNtNtB7_3ops9try_trait3Try6branchBO_, symObjAddr: 0xD8F4, symBinAddr: 0x4D4BC, symSize: 0x88 }
  - { offset: 0xAE146, size: 0x8, addend: 0x0, symName: __RNvXsp_NtCsaNl6UpbT7bw_4core6resultINtB5_6ResultNtNtCsc29TF2YcYso_3syn5token7PathSepNtNtBO_5error5ErrorENtNtNtB7_3ops9try_trait3Try6branchBO_, symObjAddr: 0xD97C, symBinAddr: 0x4D544, symSize: 0x8C }
  - { offset: 0xAE1C3, size: 0x8, addend: 0x0, symName: __RNvXsp_NtCsaNl6UpbT7bw_4core6resultINtB5_6ResultNtNtCsc29TF2YcYso_3syn5token8ContinueNtNtBO_5error5ErrorENtNtNtB7_3ops9try_trait3Try6branchBO_, symObjAddr: 0xDA08, symBinAddr: 0x4D5D0, symSize: 0x88 }
  - { offset: 0xAE241, size: 0x8, addend: 0x0, symName: __RNvXsp_NtCsaNl6UpbT7bw_4core6resultINtB5_6ResultNtNtCsc29TF2YcYso_3syn5token8FatArrowNtNtBO_5error5ErrorENtNtNtB7_3ops9try_trait3Try6branchBO_, symObjAddr: 0xDA90, symBinAddr: 0x4D658, symSize: 0x8C }
  - { offset: 0xAE2BE, size: 0x8, addend: 0x0, symName: __RNvXsp_NtCsaNl6UpbT7bw_4core6resultINtB5_6ResultNtNtCsc29TF2YcYso_3syn5token8QuestionNtNtBO_5error5ErrorENtNtNtB7_3ops9try_trait3Try6branchBO_, symObjAddr: 0xDB1C, symBinAddr: 0x4D6E4, symSize: 0x8C }
  - { offset: 0xAE33B, size: 0x8, addend: 0x0, symName: __RNvXsp_NtCsaNl6UpbT7bw_4core6resultINtB5_6ResultNtNtCsc29TF2YcYso_3syn5token9DotDotDotNtNtBO_5error5ErrorENtNtNtB7_3ops9try_trait3Try6branchBO_, symObjAddr: 0xDBA8, symBinAddr: 0x4D770, symSize: 0x9C }
  - { offset: 0xAE3B8, size: 0x8, addend: 0x0, symName: __RNvXsp_NtCsaNl6UpbT7bw_4core6resultINtB5_6ResultNtNtCsc29TF2YcYso_3syn5token9SelfValueNtNtBO_5error5ErrorENtNtNtB7_3ops9try_trait3Try6branchBO_, symObjAddr: 0xDC44, symBinAddr: 0x4D80C, symSize: 0x88 }
  - { offset: 0xAE436, size: 0x8, addend: 0x0, symName: __RNvXsp_NtCsaNl6UpbT7bw_4core6resultINtB5_6ResultNtNtCsc29TF2YcYso_3syn8generics10ConstParamNtNtBO_5error5ErrorENtNtNtB7_3ops9try_trait3Try6branchBO_, symObjAddr: 0xDCCC, symBinAddr: 0x4D894, symSize: 0xB4 }
  - { offset: 0xAE4B4, size: 0x8, addend: 0x0, symName: __RNvXsp_NtCsaNl6UpbT7bw_4core6resultINtB5_6ResultNtNtCsc29TF2YcYso_3syn8generics10TraitBoundNtNtBO_5error5ErrorENtNtNtB7_3ops9try_trait3Try6branchBO_, symObjAddr: 0xDD80, symBinAddr: 0x4D948, symSize: 0xBC }
  - { offset: 0xAE531, size: 0x8, addend: 0x0, symName: __RNvXsp_NtCsaNl6UpbT7bw_4core6resultINtB5_6ResultNtNtCsc29TF2YcYso_3syn8generics11WhereClauseNtNtBO_5error5ErrorENtNtNtB7_3ops9try_trait3Try6branchBO_, symObjAddr: 0xDE3C, symBinAddr: 0x4DA04, symSize: 0xB0 }
  - { offset: 0xAE5AE, size: 0x8, addend: 0x0, symName: __RNvXsp_NtCsaNl6UpbT7bw_4core6resultINtB5_6ResultNtNtCsc29TF2YcYso_3syn8generics12GenericParamNtNtBO_5error5ErrorENtNtNtB7_3ops9try_trait3Try6branchBO_, symObjAddr: 0xDEEC, symBinAddr: 0x4DAB4, symSize: 0xB4 }
  - { offset: 0xAE62C, size: 0x8, addend: 0x0, symName: __RNvXsp_NtCsaNl6UpbT7bw_4core6resultINtB5_6ResultNtNtCsc29TF2YcYso_3syn8generics13CapturedParamNtNtBO_5error5ErrorENtNtNtB7_3ops9try_trait3Try6branchBO_, symObjAddr: 0xDFA0, symBinAddr: 0x4DB68, symSize: 0xAC }
  - { offset: 0xAE6A9, size: 0x8, addend: 0x0, symName: __RNvXsp_NtCsaNl6UpbT7bw_4core6resultINtB5_6ResultNtNtCsc29TF2YcYso_3syn8generics13LifetimeParamNtNtBO_5error5ErrorENtNtNtB7_3ops9try_trait3Try6branchBO_, symObjAddr: 0xE04C, symBinAddr: 0x4DC14, symSize: 0xB0 }
  - { offset: 0xAE726, size: 0x8, addend: 0x0, symName: __RNvXsp_NtCsaNl6UpbT7bw_4core6resultINtB5_6ResultNtNtCsc29TF2YcYso_3syn8generics14PreciseCaptureNtNtBO_5error5ErrorENtNtNtB7_3ops9try_trait3Try6branchBO_, symObjAddr: 0xE0FC, symBinAddr: 0x4DCC4, symSize: 0xB0 }
  - { offset: 0xAE7A3, size: 0x8, addend: 0x0, symName: __RNvXsp_NtCsaNl6UpbT7bw_4core6resultINtB5_6ResultNtNtCsc29TF2YcYso_3syn8generics14TypeParamBoundNtNtBO_5error5ErrorENtNtNtB7_3ops9try_trait3Try6branchBO_, symObjAddr: 0xE1AC, symBinAddr: 0x4DD74, symSize: 0xBC }
  - { offset: 0xAE820, size: 0x8, addend: 0x0, symName: __RNvXsp_NtCsaNl6UpbT7bw_4core6resultINtB5_6ResultNtNtCsc29TF2YcYso_3syn8generics14WherePredicateNtNtBO_5error5ErrorENtNtNtB7_3ops9try_trait3Try6branchBO_, symObjAddr: 0xE268, symBinAddr: 0x4DE30, symSize: 0xC0 }
  - { offset: 0xAE89E, size: 0x8, addend: 0x0, symName: __RNvXsp_NtCsaNl6UpbT7bw_4core6resultINtB5_6ResultNtNtCsc29TF2YcYso_3syn8generics18TraitBoundModifierNtNtBO_5error5ErrorENtNtNtB7_3ops9try_trait3Try6branchBO_, symObjAddr: 0xE328, symBinAddr: 0x4DEF0, symSize: 0x8C }
  - { offset: 0xAE91B, size: 0x8, addend: 0x0, symName: __RNvXsp_NtCsaNl6UpbT7bw_4core6resultINtB5_6ResultNtNtCsc29TF2YcYso_3syn8generics8GenericsNtNtBO_5error5ErrorENtNtNtB7_3ops9try_trait3Try6branchBO_, symObjAddr: 0xE3B4, symBinAddr: 0x4DF7C, symSize: 0xB0 }
  - { offset: 0xAE998, size: 0x8, addend: 0x0, symName: __RNvXsp_NtCsaNl6UpbT7bw_4core6resultINtB5_6ResultNtNtCsc29TF2YcYso_3syn8generics9TypeParamNtNtBO_5error5ErrorENtNtNtB7_3ops9try_trait3Try6branchBO_, symObjAddr: 0xE464, symBinAddr: 0x4E02C, symSize: 0xB4 }
  - { offset: 0xAEA16, size: 0x8, addend: 0x0, symName: __RNvXsp_NtCsaNl6UpbT7bw_4core6resultINtB5_6ResultNtNtCsc29TF2YcYso_3syn8lifetime8LifetimeNtNtBO_5error5ErrorENtNtNtB7_3ops9try_trait3Try6branchBO_, symObjAddr: 0xE518, symBinAddr: 0x4E0E0, symSize: 0x94 }
  - { offset: 0xAEA93, size: 0x8, addend: 0x0, symName: __RNvXsp_NtCsaNl6UpbT7bw_4core6resultINtB5_6ResultNtNtNtCsc29TF2YcYso_3syn4item7parsing15FnArgOrVariadicNtNtBQ_5error5ErrorENtNtNtB7_3ops9try_trait3Try6branchBQ_, symObjAddr: 0xE5AC, symBinAddr: 0x4E174, symSize: 0xB8 }
  - { offset: 0xAEB10, size: 0x8, addend: 0x0, symName: __RNvXsp_NtCsaNl6UpbT7bw_4core6resultINtB5_6ResultNtNtNtCsc29TF2YcYso_3syn4item7parsing16FlexibleItemTypeNtNtBQ_5error5ErrorENtNtNtB7_3ops9try_trait3Try6branchBQ_, symObjAddr: 0xE664, symBinAddr: 0x4E22C, symSize: 0xB4 }
  - { offset: 0xAEB8E, size: 0x8, addend: 0x0, symName: __RNvXsp_NtCsaNl6UpbT7bw_4core6resultINtB5_6ResultTINtNtB7_6option6OptionNtNtCsc29TF2YcYso_3syn4path5QSelfENtB19_4PathENtNtB1b_5error5ErrorENtNtNtB7_3ops9try_trait3Try6branchB1b_, symObjAddr: 0xE718, symBinAddr: 0x4E2E0, symSize: 0xB0 }
  - { offset: 0xAEC0B, size: 0x8, addend: 0x0, symName: __RNvXsp_NtCsaNl6UpbT7bw_4core6resultINtB5_6ResultTINtNtB7_6option6OptionNtNtCsc29TF2YcYso_3syn5token5ColonEINtNtB1b_10punctuated10PunctuatedNtNtB1b_8generics14TypeParamBoundNtB19_4PlusEENtNtB1b_5error5ErrorENtNtNtB7_3ops9try_trait3Try6branchB1b_, symObjAddr: 0xE7C8, symBinAddr: 0x4E390, symSize: 0xB0 }
  - { offset: 0xAEC88, size: 0x8, addend: 0x0, symName: __RNvXsp_NtCsaNl6UpbT7bw_4core6resultINtB5_6ResultTINtNtB7_6option6OptionNtNtCsc29TF2YcYso_3syn8generics11WhereClauseENtNtB1b_4data11FieldsNamedENtNtB1b_5error5ErrorENtNtNtB7_3ops9try_trait3Try6branchB1b_, symObjAddr: 0xE878, symBinAddr: 0x4E440, symSize: 0xB0 }
  - { offset: 0xAED05, size: 0x8, addend: 0x0, symName: __RNvXsp_NtCsaNl6UpbT7bw_4core6resultINtB5_6ResultTINtNtB7_6option6OptionNtNtCsc29TF2YcYso_3syn8generics11WhereClauseENtNtB1b_4data6FieldsIBM_NtNtB1b_5token4SemiEENtNtB1b_5error5ErrorENtNtNtB7_3ops9try_trait3Try6branchB1b_, symObjAddr: 0xE928, symBinAddr: 0x4E4F0, symSize: 0xB8 }
  - { offset: 0xAED82, size: 0x8, addend: 0x0, symName: __RNvXsp_NtCsaNl6UpbT7bw_4core6resultINtB5_6ResultTINtNtB7_6option6OptionNtNtCsc29TF2YcYso_3syn8generics11WhereClauseENtNtB1b_5token5BraceINtNtB1b_10punctuated10PunctuatedNtNtB1b_4data7VariantNtB1S_5CommaEENtNtB1b_5error5ErrorENtNtNtB7_3ops9try_trait3Try6branchB1b_, symObjAddr: 0xE9E0, symBinAddr: 0x4E5A8, symSize: 0xB0 }
  - { offset: 0xAEDFF, size: 0x8, addend: 0x0, symName: __RNvXsp_NtCsaNl6UpbT7bw_4core6resultINtB5_6ResultTINtNtCsc29TF2YcYso_3syn10punctuated10PunctuatedNtNtBQ_4item5FnArgNtNtBQ_5token5CommaEINtNtB7_6option6OptionNtB1y_8VariadicEENtNtBQ_5error5ErrorENtNtNtB7_3ops9try_trait3Try6branchBQ_, symObjAddr: 0xEA90, symBinAddr: 0x4E658, symSize: 0xB0 }
  - { offset: 0xAEE7C, size: 0x8, addend: 0x0, symName: __RNvXsp_NtCsaNl6UpbT7bw_4core6resultINtB5_6ResultTINtNtCsiTraAjBDcu4_5alloc3vec3VecNtNtCsc29TF2YcYso_3syn4attr9AttributeENtNtB1m_11restriction10VisibilityNtNtB1m_5token5TraitNtCshnvkK9b4wzu_11proc_macro25IdentNtNtB1m_8generics8GenericsENtNtB1m_5error5ErrorENtNtNtB7_3ops9try_trait3Try6branchB1m_, symObjAddr: 0xEB40, symBinAddr: 0x4E708, symSize: 0xB8 }
  - { offset: 0xAEEFA, size: 0x8, addend: 0x0, symName: __RNvXsp_NtCsaNl6UpbT7bw_4core6resultINtB5_6ResultTNtCshnvkK9b4wzu_11proc_macro211TokenStreamNtNtCsc29TF2YcYso_3syn6buffer6CursorENtNtB1v_5error5ErrorENtNtNtB7_3ops9try_trait3Try6branchB1v_, symObjAddr: 0xEBF8, symBinAddr: 0x4E7C0, symSize: 0xB0 }
  - { offset: 0xAEF77, size: 0x8, addend: 0x0, symName: __RNvXsp_NtCsaNl6UpbT7bw_4core6resultINtB5_6ResultTNtCshnvkK9b4wzu_11proc_macro24SpanNtNtCsc29TF2YcYso_3syn6buffer6CursorENtNtB1n_5error5ErrorENtNtNtB7_3ops9try_trait3Try6branchB1n_, symObjAddr: 0xECA8, symBinAddr: 0x4E870, symSize: 0x94 }
  - { offset: 0xAEFF4, size: 0x8, addend: 0x0, symName: __RNvXsp_NtCsaNl6UpbT7bw_4core6resultINtB5_6ResultTNtCshnvkK9b4wzu_11proc_macro25IdentNtNtCsc29TF2YcYso_3syn6buffer6CursorENtNtB1o_5error5ErrorENtNtNtB7_3ops9try_trait3Try6branchB1o_, symObjAddr: 0xEDE8, symBinAddr: 0x4E904, symSize: 0xB0 }
  - { offset: 0xAF071, size: 0x8, addend: 0x0, symName: __RNvXsp_NtCsaNl6UpbT7bw_4core6resultINtB5_6ResultTNtNtCsc29TF2YcYso_3syn3lit3LitNtNtBP_6buffer6CursorENtNtBP_5error5ErrorENtNtNtB7_3ops9try_trait3Try6branchBP_, symObjAddr: 0xF090, symBinAddr: 0x4E9B4, symSize: 0xB8 }
  - { offset: 0xAF0EE, size: 0x8, addend: 0x0, symName: __RNvXsp_NtCsaNl6UpbT7bw_4core6resultINtB5_6ResultTNtNtCsc29TF2YcYso_3syn3mac14MacroDelimiterNtCshnvkK9b4wzu_11proc_macro211TokenStreamENtNtBP_5error5ErrorENtNtNtB7_3ops9try_trait3Try6branchBP_, symObjAddr: 0xF148, symBinAddr: 0x4EA6C, symSize: 0xB0 }
  - { offset: 0xAF16B, size: 0x8, addend: 0x0, symName: __RNvXsp_NtCsaNl6UpbT7bw_4core6resultINtB5_6ResultTNtNtCsc29TF2YcYso_3syn5token10UnderscoreNtNtBP_6buffer6CursorENtNtBP_5error5ErrorENtNtNtB7_3ops9try_trait3Try6branchBP_, symObjAddr: 0xF1F8, symBinAddr: 0x4EB1C, symSize: 0x94 }
  - { offset: 0xAF1E8, size: 0x8, addend: 0x0, symName: __RNvXsp_NtCsaNl6UpbT7bw_4core6resultINtB5_6ResultTNtNtCsc29TF2YcYso_3syn8lifetime8LifetimeNtNtBP_6buffer6CursorENtNtBP_5error5ErrorENtNtNtB7_3ops9try_trait3Try6branchBP_, symObjAddr: 0xF28C, symBinAddr: 0x4EBB0, symSize: 0xAC }
  - { offset: 0xAF265, size: 0x8, addend: 0x0, symName: __RNvXsp_NtCsaNl6UpbT7bw_4core6resultINtB5_6ResultTTNtNtCsc29TF2YcYso_3syn3mac14MacroDelimiterNtCshnvkK9b4wzu_11proc_macro211TokenStreamENtNtBQ_6buffer6CursorENtNtBQ_5error5ErrorENtNtNtB7_3ops9try_trait3Try6branchBQ_, symObjAddr: 0xF3E4, symBinAddr: 0x4EC5C, symSize: 0xB0 }
  - { offset: 0xAF2E2, size: 0x8, addend: 0x0, symName: __RNvXsp_NtCsaNl6UpbT7bw_4core6resultINtB5_6ResultTTNtNtCshnvkK9b4wzu_11proc_macro25extra9DelimSpanNtNtCsc29TF2YcYso_3syn5parse11ParseBufferENtNtB1B_6buffer6CursorENtNtB1B_5error5ErrorENtNtNtB7_3ops9try_trait3Try6branchB1B_, symObjAddr: 0xF494, symBinAddr: 0x4ED0C, symSize: 0xB0 }
  - { offset: 0xAF35F, size: 0x8, addend: 0x0, symName: __RNvXsp_NtCsaNl6UpbT7bw_4core6resultINtB5_6ResultTuNtNtCsc29TF2YcYso_3syn6buffer6CursorENtNtBQ_5error5ErrorENtNtNtB7_3ops9try_trait3Try6branchBQ_, symObjAddr: 0xF544, symBinAddr: 0x4EDBC, symSize: 0x94 }
  - { offset: 0xAF3DD, size: 0x8, addend: 0x0, symName: __RNvXsp_NtCsaNl6UpbT7bw_4core6resultINtB5_6ResultbNtNtCsc29TF2YcYso_3syn5error5ErrorENtNtNtB7_3ops9try_trait3Try6branchBP_, symObjAddr: 0xF5D8, symBinAddr: 0x4EE50, symSize: 0x94 }
  - { offset: 0xAF45B, size: 0x8, addend: 0x0, symName: __RNvXsp_NtCsaNl6UpbT7bw_4core6resultINtB5_6ResultmNtNtCsc29TF2YcYso_3syn5error5ErrorENtNtNtB7_3ops9try_trait3Try6branchBP_, symObjAddr: 0xF66C, symBinAddr: 0x4EEE4, symSize: 0x88 }
  - { offset: 0xAF4D9, size: 0x8, addend: 0x0, symName: __RNvXsp_NtCsaNl6UpbT7bw_4core6resultINtB5_6ResultuNtNtCsc29TF2YcYso_3syn5error5ErrorENtNtNtB7_3ops9try_trait3Try6branchBP_, symObjAddr: 0xF6F4, symBinAddr: 0x4EF6C, symSize: 0x78 }
  - { offset: 0xAF55D, size: 0x8, addend: 0x0, symName: __RNvXsq_NtCsaNl6UpbT7bw_4core6resultINtB5_6ResultANtCshnvkK9b4wzu_11proc_macro24Spanj1_NtNtCsc29TF2YcYso_3syn5error5ErrorEINtNtNtB7_3ops9try_trait12FromResidualIBy_NtNtB7_7convert10InfallibleB1m_EE13from_residualB1q_, symObjAddr: 0xF76C, symBinAddr: 0x4EFE4, symSize: 0x40 }
  - { offset: 0xAF5E2, size: 0x8, addend: 0x0, symName: __RNvXsq_NtCsaNl6UpbT7bw_4core6resultINtB5_6ResultANtCshnvkK9b4wzu_11proc_macro24Spanj2_NtNtCsc29TF2YcYso_3syn5error5ErrorEINtNtNtB7_3ops9try_trait12FromResidualIBy_NtNtB7_7convert10InfallibleB1m_EE13from_residualB1q_, symObjAddr: 0xF7AC, symBinAddr: 0x4F024, symSize: 0x40 }
  - { offset: 0xAF667, size: 0x8, addend: 0x0, symName: __RNvXsq_NtCsaNl6UpbT7bw_4core6resultINtB5_6ResultANtCshnvkK9b4wzu_11proc_macro24Spanj3_NtNtCsc29TF2YcYso_3syn5error5ErrorEINtNtNtB7_3ops9try_trait12FromResidualIBy_NtNtB7_7convert10InfallibleB1m_EE13from_residualB1q_, symObjAddr: 0xF7EC, symBinAddr: 0x4F064, symSize: 0x40 }
  - { offset: 0xAF6EC, size: 0x8, addend: 0x0, symName: __RNvXsq_NtCsaNl6UpbT7bw_4core6resultINtB5_6ResultINtNtB7_6option6OptionINtNtCsiTraAjBDcu4_5alloc5boxed3BoxNtNtCsc29TF2YcYso_3syn4expr4ExprEENtNtB1J_5error5ErrorEINtNtNtB7_3ops9try_trait12FromResidualIBy_NtNtB7_7convert10InfallibleB2d_EE13from_residualB1J_, symObjAddr: 0xF82C, symBinAddr: 0x4F0A4, symSize: 0x40 }
  - { offset: 0xAF771, size: 0x8, addend: 0x0, symName: __RNvXsq_NtCsaNl6UpbT7bw_4core6resultINtB5_6ResultINtNtB7_6option6OptionNtCshnvkK9b4wzu_11proc_macro25IdentENtNtCsc29TF2YcYso_3syn5error5ErrorEINtNtNtB7_3ops9try_trait12FromResidualIBy_NtNtB7_7convert10InfallibleB1G_EE13from_residualB1K_, symObjAddr: 0xF86C, symBinAddr: 0x4F0E4, symSize: 0x48 }
  - { offset: 0xAF7F6, size: 0x8, addend: 0x0, symName: __RNvXsq_NtCsaNl6UpbT7bw_4core6resultINtB5_6ResultINtNtB7_6option6OptionNtNtCsc29TF2YcYso_3syn3lit3LitENtNtB1a_5error5ErrorEINtNtNtB7_3ops9try_trait12FromResidualIBy_NtNtB7_7convert10InfallibleB1B_EE13from_residualB1a_, symObjAddr: 0xF8B4, symBinAddr: 0x4F12C, symSize: 0x48 }
  - { offset: 0xAF87B, size: 0x8, addend: 0x0, symName: __RNvXsq_NtCsaNl6UpbT7bw_4core6resultINtB5_6ResultINtNtB7_6option6OptionNtNtCsc29TF2YcYso_3syn3lit6LitStrENtNtB1a_5error5ErrorEINtNtNtB7_3ops9try_trait12FromResidualIBy_NtNtB7_7convert10InfallibleB1E_EE13from_residualB1a_, symObjAddr: 0xF8FC, symBinAddr: 0x4F174, symSize: 0x40 }
  - { offset: 0xAF900, size: 0x8, addend: 0x0, symName: __RNvXsq_NtCsaNl6UpbT7bw_4core6resultINtB5_6ResultINtNtB7_6option6OptionNtNtCsc29TF2YcYso_3syn3lit8LitFloatENtNtB1a_5error5ErrorEINtNtNtB7_3ops9try_trait12FromResidualIBy_NtNtB7_7convert10InfallibleB1G_EE13from_residualB1a_, symObjAddr: 0xF93C, symBinAddr: 0x4F1B4, symSize: 0x40 }
  - { offset: 0xAF985, size: 0x8, addend: 0x0, symName: __RNvXsq_NtCsaNl6UpbT7bw_4core6resultINtB5_6ResultINtNtB7_6option6OptionNtNtCsc29TF2YcYso_3syn4item10ImplItemFnENtNtB1a_5error5ErrorEINtNtNtB7_3ops9try_trait12FromResidualIBy_NtNtB7_7convert10InfallibleB1K_EE13from_residualB1a_, symObjAddr: 0xF97C, symBinAddr: 0x4F1F4, symSize: 0x48 }
  - { offset: 0xAFA0A, size: 0x8, addend: 0x0, symName: __RNvXsq_NtCsaNl6UpbT7bw_4core6resultINtB5_6ResultINtNtB7_6option6OptionNtNtCsc29TF2YcYso_3syn4item7ItemUseENtNtB1a_5error5ErrorEINtNtNtB7_3ops9try_trait12FromResidualIBy_NtNtB7_7convert10InfallibleB1G_EE13from_residualB1a_, symObjAddr: 0xF9C4, symBinAddr: 0x4F23C, symSize: 0x48 }
  - { offset: 0xAFA8F, size: 0x8, addend: 0x0, symName: __RNvXsq_NtCsaNl6UpbT7bw_4core6resultINtB5_6ResultINtNtB7_6option6OptionNtNtCsc29TF2YcYso_3syn4item7UseTreeENtNtB1a_5error5ErrorEINtNtNtB7_3ops9try_trait12FromResidualIBy_NtNtB7_7convert10InfallibleB1G_EE13from_residualB1a_, symObjAddr: 0xFA0C, symBinAddr: 0x4F284, symSize: 0x48 }
  - { offset: 0xAFB14, size: 0x8, addend: 0x0, symName: __RNvXsq_NtCsaNl6UpbT7bw_4core6resultINtB5_6ResultINtNtB7_6option6OptionNtNtCsc29TF2YcYso_3syn4item8ItemImplENtNtB1a_5error5ErrorEINtNtNtB7_3ops9try_trait12FromResidualIBy_NtNtB7_7convert10InfallibleB1H_EE13from_residualB1a_, symObjAddr: 0xFA54, symBinAddr: 0x4F2CC, symSize: 0x48 }
  - { offset: 0xAFB99, size: 0x8, addend: 0x0, symName: __RNvXsq_NtCsaNl6UpbT7bw_4core6resultINtB5_6ResultINtNtB7_6option6OptionNtNtCsc29TF2YcYso_3syn4item9SignatureENtNtB1a_5error5ErrorEINtNtNtB7_3ops9try_trait12FromResidualIBy_NtNtB7_7convert10InfallibleB1I_EE13from_residualB1a_, symObjAddr: 0xFA9C, symBinAddr: 0x4F314, symSize: 0x48 }
  - { offset: 0xAFC1E, size: 0x8, addend: 0x0, symName: __RNvXsq_NtCsaNl6UpbT7bw_4core6resultINtB5_6ResultINtNtB7_6option6OptionNtNtCsc29TF2YcYso_3syn5token2EqENtNtB1a_5error5ErrorEINtNtNtB7_3ops9try_trait12FromResidualIBy_NtNtB7_7convert10InfallibleB1C_EE13from_residualB1a_, symObjAddr: 0xFAE4, symBinAddr: 0x4F35C, symSize: 0x40 }
  - { offset: 0xAFCA3, size: 0x8, addend: 0x0, symName: __RNvXsq_NtCsaNl6UpbT7bw_4core6resultINtB5_6ResultINtNtB7_6option6OptionNtNtCsc29TF2YcYso_3syn5token2OrENtNtB1a_5error5ErrorEINtNtNtB7_3ops9try_trait12FromResidualIBy_NtNtB7_7convert10InfallibleB1C_EE13from_residualB1a_, symObjAddr: 0xFB24, symBinAddr: 0x4F39C, symSize: 0x40 }
  - { offset: 0xAFD28, size: 0x8, addend: 0x0, symName: __RNvXsq_NtCsaNl6UpbT7bw_4core6resultINtB5_6ResultINtNtB7_6option6OptionNtNtCsc29TF2YcYso_3syn5token3BoxENtNtB1a_5error5ErrorEINtNtNtB7_3ops9try_trait12FromResidualIBy_NtNtB7_7convert10InfallibleB1D_EE13from_residualB1a_, symObjAddr: 0xFB64, symBinAddr: 0x4F3DC, symSize: 0x40 }
  - { offset: 0xAFDAD, size: 0x8, addend: 0x0, symName: __RNvXsq_NtCsaNl6UpbT7bw_4core6resultINtB5_6ResultINtNtB7_6option6OptionNtNtCsc29TF2YcYso_3syn5token3DynENtNtB1a_5error5ErrorEINtNtNtB7_3ops9try_trait12FromResidualIBy_NtNtB7_7convert10InfallibleB1D_EE13from_residualB1a_, symObjAddr: 0xFBA4, symBinAddr: 0x4F41C, symSize: 0x40 }
  - { offset: 0xAFE32, size: 0x8, addend: 0x0, symName: __RNvXsq_NtCsaNl6UpbT7bw_4core6resultINtB5_6ResultINtNtB7_6option6OptionNtNtCsc29TF2YcYso_3syn5token3MutENtNtB1a_5error5ErrorEINtNtNtB7_3ops9try_trait12FromResidualIBy_NtNtB7_7convert10InfallibleB1D_EE13from_residualB1a_, symObjAddr: 0xFBE4, symBinAddr: 0x4F45C, symSize: 0x40 }
  - { offset: 0xAFEB7, size: 0x8, addend: 0x0, symName: __RNvXsq_NtCsaNl6UpbT7bw_4core6resultINtB5_6ResultINtNtB7_6option6OptionNtNtCsc29TF2YcYso_3syn5token3RefENtNtB1a_5error5ErrorEINtNtNtB7_3ops9try_trait12FromResidualIBy_NtNtB7_7convert10InfallibleB1D_EE13from_residualB1a_, symObjAddr: 0xFC24, symBinAddr: 0x4F49C, symSize: 0x40 }
  - { offset: 0xAFF3C, size: 0x8, addend: 0x0, symName: __RNvXsq_NtCsaNl6UpbT7bw_4core6resultINtB5_6ResultINtNtB7_6option6OptionNtNtCsc29TF2YcYso_3syn5token4AutoENtNtB1a_5error5ErrorEINtNtNtB7_3ops9try_trait12FromResidualIBy_NtNtB7_7convert10InfallibleB1E_EE13from_residualB1a_, symObjAddr: 0xFC64, symBinAddr: 0x4F4DC, symSize: 0x40 }
  - { offset: 0xAFFC1, size: 0x8, addend: 0x0, symName: __RNvXsq_NtCsaNl6UpbT7bw_4core6resultINtB5_6ResultINtNtB7_6option6OptionNtNtCsc29TF2YcYso_3syn5token4MoveENtNtB1a_5error5ErrorEINtNtNtB7_3ops9try_trait12FromResidualIBy_NtNtB7_7convert10InfallibleB1E_EE13from_residualB1a_, symObjAddr: 0xFCA4, symBinAddr: 0x4F51C, symSize: 0x40 }
  - { offset: 0xB0046, size: 0x8, addend: 0x0, symName: __RNvXsq_NtCsaNl6UpbT7bw_4core6resultINtB5_6ResultINtNtB7_6option6OptionNtNtCsc29TF2YcYso_3syn5token4PlusENtNtB1a_5error5ErrorEINtNtNtB7_3ops9try_trait12FromResidualIBy_NtNtB7_7convert10InfallibleB1E_EE13from_residualB1a_, symObjAddr: 0xFCE4, symBinAddr: 0x4F55C, symSize: 0x40 }
  - { offset: 0xB00CB, size: 0x8, addend: 0x0, symName: __RNvXsq_NtCsaNl6UpbT7bw_4core6resultINtB5_6ResultINtNtB7_6option6OptionNtNtCsc29TF2YcYso_3syn5token4SemiENtNtB1a_5error5ErrorEINtNtNtB7_3ops9try_trait12FromResidualIBy_NtNtB7_7convert10InfallibleB1E_EE13from_residualB1a_, symObjAddr: 0xFD24, symBinAddr: 0x4F59C, symSize: 0x40 }
  - { offset: 0xB0150, size: 0x8, addend: 0x0, symName: __RNvXsq_NtCsaNl6UpbT7bw_4core6resultINtB5_6ResultINtNtB7_6option6OptionNtNtCsc29TF2YcYso_3syn5token4StarENtNtB1a_5error5ErrorEINtNtNtB7_3ops9try_trait12FromResidualIBy_NtNtB7_7convert10InfallibleB1E_EE13from_residualB1a_, symObjAddr: 0xFD64, symBinAddr: 0x4F5DC, symSize: 0x40 }
  - { offset: 0xB01D5, size: 0x8, addend: 0x0, symName: __RNvXsq_NtCsaNl6UpbT7bw_4core6resultINtB5_6ResultINtNtB7_6option6OptionNtNtCsc29TF2YcYso_3syn5token5AsyncENtNtB1a_5error5ErrorEINtNtNtB7_3ops9try_trait12FromResidualIBy_NtNtB7_7convert10InfallibleB1F_EE13from_residualB1a_, symObjAddr: 0xFDA4, symBinAddr: 0x4F61C, symSize: 0x40 }
  - { offset: 0xB025A, size: 0x8, addend: 0x0, symName: __RNvXsq_NtCsaNl6UpbT7bw_4core6resultINtB5_6ResultINtNtB7_6option6OptionNtNtCsc29TF2YcYso_3syn5token5AwaitENtNtB1a_5error5ErrorEINtNtNtB7_3ops9try_trait12FromResidualIBy_NtNtB7_7convert10InfallibleB1F_EE13from_residualB1a_, symObjAddr: 0xFDE4, symBinAddr: 0x4F65C, symSize: 0x40 }
  - { offset: 0xB02DF, size: 0x8, addend: 0x0, symName: __RNvXsq_NtCsaNl6UpbT7bw_4core6resultINtB5_6ResultINtNtB7_6option6OptionNtNtCsc29TF2YcYso_3syn5token5ColonENtNtB1a_5error5ErrorEINtNtNtB7_3ops9try_trait12FromResidualIBy_NtNtB7_7convert10InfallibleB1F_EE13from_residualB1a_, symObjAddr: 0xFE24, symBinAddr: 0x4F69C, symSize: 0x40 }
  - { offset: 0xB0364, size: 0x8, addend: 0x0, symName: __RNvXsq_NtCsaNl6UpbT7bw_4core6resultINtB5_6ResultINtNtB7_6option6OptionNtNtCsc29TF2YcYso_3syn5token5CommaENtNtB1a_5error5ErrorEINtNtNtB7_3ops9try_trait12FromResidualIBy_NtNtB7_7convert10InfallibleB1F_EE13from_residualB1a_, symObjAddr: 0xFE64, symBinAddr: 0x4F6DC, symSize: 0x40 }
  - { offset: 0xB03E9, size: 0x8, addend: 0x0, symName: __RNvXsq_NtCsaNl6UpbT7bw_4core6resultINtB5_6ResultINtNtB7_6option6OptionNtNtCsc29TF2YcYso_3syn5token5ConstENtNtB1a_5error5ErrorEINtNtNtB7_3ops9try_trait12FromResidualIBy_NtNtB7_7convert10InfallibleB1F_EE13from_residualB1a_, symObjAddr: 0xFEA4, symBinAddr: 0x4F71C, symSize: 0x40 }
  - { offset: 0xB046E, size: 0x8, addend: 0x0, symName: __RNvXsq_NtCsaNl6UpbT7bw_4core6resultINtB5_6ResultINtNtB7_6option6OptionNtNtCsc29TF2YcYso_3syn5token6StaticENtNtB1a_5error5ErrorEINtNtNtB7_3ops9try_trait12FromResidualIBy_NtNtB7_7convert10InfallibleB1G_EE13from_residualB1a_, symObjAddr: 0xFEE4, symBinAddr: 0x4F75C, symSize: 0x40 }
  - { offset: 0xB04F3, size: 0x8, addend: 0x0, symName: __RNvXsq_NtCsaNl6UpbT7bw_4core6resultINtB5_6ResultINtNtB7_6option6OptionNtNtCsc29TF2YcYso_3syn5token6UnsafeENtNtB1a_5error5ErrorEINtNtNtB7_3ops9try_trait12FromResidualIBy_NtNtB7_7convert10InfallibleB1G_EE13from_residualB1a_, symObjAddr: 0xFF24, symBinAddr: 0x4F79C, symSize: 0x40 }
  - { offset: 0xB0578, size: 0x8, addend: 0x0, symName: __RNvXsq_NtCsaNl6UpbT7bw_4core6resultINtB5_6ResultINtNtB7_6option6OptionNtNtCsc29TF2YcYso_3syn5token7DefaultENtNtB1a_5error5ErrorEINtNtNtB7_3ops9try_trait12FromResidualIBy_NtNtB7_7convert10InfallibleB1H_EE13from_residualB1a_, symObjAddr: 0xFF64, symBinAddr: 0x4F7DC, symSize: 0x40 }
  - { offset: 0xB05FD, size: 0x8, addend: 0x0, symName: __RNvXsq_NtCsaNl6UpbT7bw_4core6resultINtB5_6ResultINtNtB7_6option6OptionNtNtCsc29TF2YcYso_3syn5token7PathSepENtNtB1a_5error5ErrorEINtNtNtB7_3ops9try_trait12FromResidualIBy_NtNtB7_7convert10InfallibleB1H_EE13from_residualB1a_, symObjAddr: 0xFFA4, symBinAddr: 0x4F81C, symSize: 0x40 }
  - { offset: 0xB0682, size: 0x8, addend: 0x0, symName: __RNvXsq_NtCsaNl6UpbT7bw_4core6resultINtB5_6ResultINtNtB7_6option6OptionNtNtCsc29TF2YcYso_3syn5token8QuestionENtNtB1a_5error5ErrorEINtNtNtB7_3ops9try_trait12FromResidualIBy_NtNtB7_7convert10InfallibleB1I_EE13from_residualB1a_, symObjAddr: 0xFFE4, symBinAddr: 0x4F85C, symSize: 0x40 }
  - { offset: 0xB0707, size: 0x8, addend: 0x0, symName: __RNvXsq_NtCsaNl6UpbT7bw_4core6resultINtB5_6ResultINtNtB7_6option6OptionNtNtCsc29TF2YcYso_3syn5token9DotDotDotENtNtB1a_5error5ErrorEINtNtNtB7_3ops9try_trait12FromResidualIBy_NtNtB7_7convert10InfallibleB1J_EE13from_residualB1a_, symObjAddr: 0x10024, symBinAddr: 0x4F89C, symSize: 0x40 }
  - { offset: 0xB078C, size: 0x8, addend: 0x0, symName: __RNvXsq_NtCsaNl6UpbT7bw_4core6resultINtB5_6ResultINtNtB7_6option6OptionNtNtCsc29TF2YcYso_3syn8generics10TraitBoundENtNtB1a_5error5ErrorEINtNtNtB7_3ops9try_trait12FromResidualIBy_NtNtB7_7convert10InfallibleB1O_EE13from_residualB1a_, symObjAddr: 0x10064, symBinAddr: 0x4F8DC, symSize: 0x48 }
  - { offset: 0xB0811, size: 0x8, addend: 0x0, symName: __RNvXsq_NtCsaNl6UpbT7bw_4core6resultINtB5_6ResultINtNtB7_6option6OptionNtNtCsc29TF2YcYso_3syn8lifetime8LifetimeENtNtB1a_5error5ErrorEINtNtNtB7_3ops9try_trait12FromResidualIBy_NtNtB7_7convert10InfallibleB1L_EE13from_residualB1a_, symObjAddr: 0x100AC, symBinAddr: 0x4F924, symSize: 0x48 }
  - { offset: 0xB0896, size: 0x8, addend: 0x0, symName: __RNvXsq_NtCsaNl6UpbT7bw_4core6resultINtB5_6ResultINtNtB7_6option6OptionNtNtNtCsc29TF2YcYso_3syn3pat7parsing13PatRangeBoundENtNtB1c_5error5ErrorEINtNtNtB7_3ops9try_trait12FromResidualIBy_NtNtB7_7convert10InfallibleB1W_EE13from_residualB1c_, symObjAddr: 0x100F4, symBinAddr: 0x4F96C, symSize: 0x48 }
  - { offset: 0xB091B, size: 0x8, addend: 0x0, symName: __RNvXsq_NtCsaNl6UpbT7bw_4core6resultINtB5_6ResultINtNtB7_6option6OptionTNtNtCsc29TF2YcYso_3syn5token2EqNtNtB1b_2ty4TypeEENtNtB1b_5error5ErrorEINtNtNtB7_3ops9try_trait12FromResidualIBy_NtNtB7_7convert10InfallibleB1U_EE13from_residualB1b_, symObjAddr: 0x1013C, symBinAddr: 0x4F9B4, symSize: 0x48 }
  - { offset: 0xB09A0, size: 0x8, addend: 0x0, symName: __RNvXsq_NtCsaNl6UpbT7bw_4core6resultINtB5_6ResultINtNtCsc29TF2YcYso_3syn10punctuated10PunctuatedNtNtBP_2ty4TypeNtNtBP_5token5CommaENtNtBP_5error5ErrorEINtNtNtB7_3ops9try_trait12FromResidualIBy_NtNtB7_7convert10InfallibleB24_EE13from_residualBP_, symObjAddr: 0x10184, symBinAddr: 0x4F9FC, symSize: 0x48 }
  - { offset: 0xB0A25, size: 0x8, addend: 0x0, symName: __RNvXsq_NtCsaNl6UpbT7bw_4core6resultINtB5_6ResultINtNtCsc29TF2YcYso_3syn10punctuated10PunctuatedNtNtBP_4data5FieldNtNtBP_5token5CommaENtNtBP_5error5ErrorEINtNtNtB7_3ops9try_trait12FromResidualIBy_NtNtB7_7convert10InfallibleB27_EE13from_residualBP_, symObjAddr: 0x101CC, symBinAddr: 0x4FA44, symSize: 0x48 }
  - { offset: 0xB0AAA, size: 0x8, addend: 0x0, symName: __RNvXsq_NtCsaNl6UpbT7bw_4core6resultINtB5_6ResultINtNtCsc29TF2YcYso_3syn10punctuated10PunctuatedNtNtBP_4data7VariantNtNtBP_5token5CommaENtNtBP_5error5ErrorEINtNtNtB7_3ops9try_trait12FromResidualIBy_NtNtB7_7convert10InfallibleB29_EE13from_residualBP_, symObjAddr: 0x10214, symBinAddr: 0x4FA8C, symSize: 0x48 }
  - { offset: 0xB0B2F, size: 0x8, addend: 0x0, symName: __RNvXsq_NtCsaNl6UpbT7bw_4core6resultINtB5_6ResultINtNtCsc29TF2YcYso_3syn10punctuated10PunctuatedNtNtBP_4expr4ExprNtNtBP_5token5CommaENtNtBP_5error5ErrorEINtNtNtB7_3ops9try_trait12FromResidualIBy_NtNtB7_7convert10InfallibleB26_EE13from_residualBP_, symObjAddr: 0x1025C, symBinAddr: 0x4FAD4, symSize: 0x48 }
  - { offset: 0xB0BB4, size: 0x8, addend: 0x0, symName: __RNvXsq_NtCsaNl6UpbT7bw_4core6resultINtB5_6ResultINtNtCsc29TF2YcYso_3syn10punctuated10PunctuatedNtNtBP_8generics14TypeParamBoundNtNtBP_5token4PlusENtNtBP_5error5ErrorEINtNtNtB7_3ops9try_trait12FromResidualIBy_NtNtB7_7convert10InfallibleB2k_EE13from_residualBP_, symObjAddr: 0x102A4, symBinAddr: 0x4FB1C, symSize: 0x48 }
  - { offset: 0xB0C39, size: 0x8, addend: 0x0, symName: __RNvXsq_NtCsaNl6UpbT7bw_4core6resultINtB5_6ResultINtNtCsiTraAjBDcu4_5alloc3vec3VecNtNtCsc29TF2YcYso_3syn4attr9AttributeENtNtB1l_5error5ErrorEINtNtNtB7_3ops9try_trait12FromResidualIBy_NtNtB7_7convert10InfallibleB1T_EE13from_residualB1l_, symObjAddr: 0x102EC, symBinAddr: 0x4FB64, symSize: 0x48 }
  - { offset: 0xB0CBE, size: 0x8, addend: 0x0, symName: __RNvXsq_NtCsaNl6UpbT7bw_4core6resultINtB5_6ResultINtNtCsiTraAjBDcu4_5alloc3vec3VecNtNtCsc29TF2YcYso_3syn4expr3ArmENtNtB1l_5error5ErrorEINtNtNtB7_3ops9try_trait12FromResidualIBy_NtNtB7_7convert10InfallibleB1N_EE13from_residualB1l_, symObjAddr: 0x10334, symBinAddr: 0x4FBAC, symSize: 0x48 }
  - { offset: 0xB0D43, size: 0x8, addend: 0x0, symName: __RNvXsq_NtCsaNl6UpbT7bw_4core6resultINtB5_6ResultINtNtCsiTraAjBDcu4_5alloc3vec3VecNtNtCsc29TF2YcYso_3syn4stmt4StmtENtNtB1l_5error5ErrorEINtNtNtB7_3ops9try_trait12FromResidualIBy_NtNtB7_7convert10InfallibleB1O_EE13from_residualB1l_, symObjAddr: 0x1037C, symBinAddr: 0x4FBF4, symSize: 0x48 }
  - { offset: 0xB0DC8, size: 0x8, addend: 0x0, symName: __RNvXsq_NtCsaNl6UpbT7bw_4core6resultINtB5_6ResultINtNtCsiTraAjBDcu4_5alloc5boxed3BoxNtNtCsc29TF2YcYso_3syn4expr4ExprENtNtB1n_5error5ErrorEINtNtNtB7_3ops9try_trait12FromResidualIBy_NtNtB7_7convert10InfallibleB1Q_EE13from_residualB1n_, symObjAddr: 0x103C4, symBinAddr: 0x4FC3C, symSize: 0x40 }
  - { offset: 0xB0E4D, size: 0x8, addend: 0x0, symName: __RNvXsq_NtCsaNl6UpbT7bw_4core6resultINtB5_6ResultNtCshnvkK9b4wzu_11proc_macro211TokenStreamNtNtCsc29TF2YcYso_3syn5error5ErrorEINtNtNtB7_3ops9try_trait12FromResidualIBy_NtNtB7_7convert10InfallibleB1q_EE13from_residualB1u_, symObjAddr: 0x10404, symBinAddr: 0x4FC7C, symSize: 0x48 }
  - { offset: 0xB0ED2, size: 0x8, addend: 0x0, symName: __RNvXsq_NtCsaNl6UpbT7bw_4core6resultINtB5_6ResultNtCshnvkK9b4wzu_11proc_macro24SpanNtNtCsc29TF2YcYso_3syn5error5ErrorEINtNtNtB7_3ops9try_trait12FromResidualIBy_NtNtB7_7convert10InfallibleB1i_EE13from_residualB1m_, symObjAddr: 0x1044C, symBinAddr: 0x4FCC4, symSize: 0x40 }
  - { offset: 0xB0F57, size: 0x8, addend: 0x0, symName: __RNvXsq_NtCsaNl6UpbT7bw_4core6resultINtB5_6ResultNtCshnvkK9b4wzu_11proc_macro25IdentNtNtCsc29TF2YcYso_3syn5error5ErrorEINtNtNtB7_3ops9try_trait12FromResidualIBy_NtNtB7_7convert10InfallibleB1j_EE13from_residualB1n_, symObjAddr: 0x104D4, symBinAddr: 0x4FD04, symSize: 0x48 }
  - { offset: 0xB0FDC, size: 0x8, addend: 0x0, symName: __RNvXsq_NtCsaNl6UpbT7bw_4core6resultINtB5_6ResultNtNtCsc29TF2YcYso_3syn11restriction10VisibilityNtNtBO_5error5ErrorEINtNtNtB7_3ops9try_trait12FromResidualIBy_NtNtB7_7convert10InfallibleB1v_EE13from_residualBO_, symObjAddr: 0x105EC, symBinAddr: 0x4FD4C, symSize: 0x48 }
  - { offset: 0xB1061, size: 0x8, addend: 0x0, symName: __RNvXsq_NtCsaNl6UpbT7bw_4core6resultINtB5_6ResultNtNtCsc29TF2YcYso_3syn2ty10ReturnTypeNtNtBO_5error5ErrorEINtNtNtB7_3ops9try_trait12FromResidualIBy_NtNtB7_7convert10InfallibleB1l_EE13from_residualBO_, symObjAddr: 0x10634, symBinAddr: 0x4FD94, symSize: 0x40 }
  - { offset: 0xB10E6, size: 0x8, addend: 0x0, symName: __RNvXsq_NtCsaNl6UpbT7bw_4core6resultINtB5_6ResultNtNtCsc29TF2YcYso_3syn2ty10TypeBareFnNtNtBO_5error5ErrorEINtNtNtB7_3ops9try_trait12FromResidualIBy_NtNtB7_7convert10InfallibleB1l_EE13from_residualBO_, symObjAddr: 0x10674, symBinAddr: 0x4FDD4, symSize: 0x48 }
  - { offset: 0xB116B, size: 0x8, addend: 0x0, symName: __RNvXsq_NtCsaNl6UpbT7bw_4core6resultINtB5_6ResultNtNtCsc29TF2YcYso_3syn2ty12BareVariadicNtNtBO_5error5ErrorEINtNtNtB7_3ops9try_trait12FromResidualIBy_NtNtB7_7convert10InfallibleB1n_EE13from_residualBO_, symObjAddr: 0x106BC, symBinAddr: 0x4FE1C, symSize: 0x48 }
  - { offset: 0xB11F0, size: 0x8, addend: 0x0, symName: __RNvXsq_NtCsaNl6UpbT7bw_4core6resultINtB5_6ResultNtNtCsc29TF2YcYso_3syn2ty13TypeImplTraitNtNtBO_5error5ErrorEINtNtNtB7_3ops9try_trait12FromResidualIBy_NtNtB7_7convert10InfallibleB1o_EE13from_residualBO_, symObjAddr: 0x10704, symBinAddr: 0x4FE64, symSize: 0x48 }
  - { offset: 0xB1275, size: 0x8, addend: 0x0, symName: __RNvXsq_NtCsaNl6UpbT7bw_4core6resultINtB5_6ResultNtNtCsc29TF2YcYso_3syn2ty13TypeReferenceNtNtBO_5error5ErrorEINtNtNtB7_3ops9try_trait12FromResidualIBy_NtNtB7_7convert10InfallibleB1o_EE13from_residualBO_, symObjAddr: 0x1074C, symBinAddr: 0x4FEAC, symSize: 0x48 }
  - { offset: 0xB12FA, size: 0x8, addend: 0x0, symName: __RNvXsq_NtCsaNl6UpbT7bw_4core6resultINtB5_6ResultNtNtCsc29TF2YcYso_3syn2ty15TypeTraitObjectNtNtBO_5error5ErrorEINtNtNtB7_3ops9try_trait12FromResidualIBy_NtNtB7_7convert10InfallibleB1q_EE13from_residualBO_, symObjAddr: 0x10794, symBinAddr: 0x4FEF4, symSize: 0x48 }
  - { offset: 0xB137F, size: 0x8, addend: 0x0, symName: __RNvXsq_NtCsaNl6UpbT7bw_4core6resultINtB5_6ResultNtNtCsc29TF2YcYso_3syn2ty3AbiNtNtBO_5error5ErrorEINtNtNtB7_3ops9try_trait12FromResidualIBy_NtNtB7_7convert10InfallibleB1d_EE13from_residualBO_, symObjAddr: 0x107DC, symBinAddr: 0x4FF3C, symSize: 0x40 }
  - { offset: 0xB1404, size: 0x8, addend: 0x0, symName: __RNvXsq_NtCsaNl6UpbT7bw_4core6resultINtB5_6ResultNtNtCsc29TF2YcYso_3syn2ty4TypeNtNtBO_5error5ErrorEINtNtNtB7_3ops9try_trait12FromResidualIBy_NtNtB7_7convert10InfallibleB1e_EE13from_residualBO_, symObjAddr: 0x1081C, symBinAddr: 0x4FF7C, symSize: 0x48 }
  - { offset: 0xB1489, size: 0x8, addend: 0x0, symName: __RNvXsq_NtCsaNl6UpbT7bw_4core6resultINtB5_6ResultNtNtCsc29TF2YcYso_3syn2ty7TypePtrNtNtBO_5error5ErrorEINtNtNtB7_3ops9try_trait12FromResidualIBy_NtNtB7_7convert10InfallibleB1h_EE13from_residualBO_, symObjAddr: 0x10864, symBinAddr: 0x4FFC4, symSize: 0x48 }
  - { offset: 0xB150E, size: 0x8, addend: 0x0, symName: __RNvXsq_NtCsaNl6UpbT7bw_4core6resultINtB5_6ResultNtNtCsc29TF2YcYso_3syn2ty8TypePathNtNtBO_5error5ErrorEINtNtNtB7_3ops9try_trait12FromResidualIBy_NtNtB7_7convert10InfallibleB1i_EE13from_residualBO_, symObjAddr: 0x108AC, symBinAddr: 0x5000C, symSize: 0x48 }
  - { offset: 0xB1593, size: 0x8, addend: 0x0, symName: __RNvXsq_NtCsaNl6UpbT7bw_4core6resultINtB5_6ResultNtNtCsc29TF2YcYso_3syn2ty9BareFnArgNtNtBO_5error5ErrorEINtNtNtB7_3ops9try_trait12FromResidualIBy_NtNtB7_7convert10InfallibleB1j_EE13from_residualBO_, symObjAddr: 0x108F4, symBinAddr: 0x50054, symSize: 0x48 }
  - { offset: 0xB1618, size: 0x8, addend: 0x0, symName: __RNvXsq_NtCsaNl6UpbT7bw_4core6resultINtB5_6ResultNtNtCsc29TF2YcYso_3syn2ty9TypeGroupNtNtBO_5error5ErrorEINtNtNtB7_3ops9try_trait12FromResidualIBy_NtNtB7_7convert10InfallibleB1j_EE13from_residualBO_, symObjAddr: 0x10984, symBinAddr: 0x5009C, symSize: 0x40 }
  - { offset: 0xB169D, size: 0x8, addend: 0x0, symName: __RNvXsq_NtCsaNl6UpbT7bw_4core6resultINtB5_6ResultNtNtCsc29TF2YcYso_3syn2ty9TypeInferNtNtBO_5error5ErrorEINtNtNtB7_3ops9try_trait12FromResidualIBy_NtNtB7_7convert10InfallibleB1j_EE13from_residualBO_, symObjAddr: 0x109C4, symBinAddr: 0x500DC, symSize: 0x40 }
  - { offset: 0xB1722, size: 0x8, addend: 0x0, symName: __RNvXsq_NtCsaNl6UpbT7bw_4core6resultINtB5_6ResultNtNtCsc29TF2YcYso_3syn2ty9TypeNeverNtNtBO_5error5ErrorEINtNtNtB7_3ops9try_trait12FromResidualIBy_NtNtB7_7convert10InfallibleB1j_EE13from_residualBO_, symObjAddr: 0x10A4C, symBinAddr: 0x5011C, symSize: 0x40 }
  - { offset: 0xB17A7, size: 0x8, addend: 0x0, symName: __RNvXsq_NtCsaNl6UpbT7bw_4core6resultINtB5_6ResultNtNtCsc29TF2YcYso_3syn3lit3LitNtNtBO_5error5ErrorEINtNtNtB7_3ops9try_trait12FromResidualIBy_NtNtB7_7convert10InfallibleB1e_EE13from_residualBO_, symObjAddr: 0x10B64, symBinAddr: 0x5015C, symSize: 0x48 }
  - { offset: 0xB182C, size: 0x8, addend: 0x0, symName: __RNvXsq_NtCsaNl6UpbT7bw_4core6resultINtB5_6ResultNtNtCsc29TF2YcYso_3syn3mac5MacroNtNtBO_5error5ErrorEINtNtNtB7_3ops9try_trait12FromResidualIBy_NtNtB7_7convert10InfallibleB1g_EE13from_residualBO_, symObjAddr: 0x10BAC, symBinAddr: 0x501A4, symSize: 0x48 }
  - { offset: 0xB18B1, size: 0x8, addend: 0x0, symName: __RNvXsq_NtCsaNl6UpbT7bw_4core6resultINtB5_6ResultNtNtCsc29TF2YcYso_3syn3pat12PatReferenceNtNtBO_5error5ErrorEINtNtNtB7_3ops9try_trait12FromResidualIBy_NtNtB7_7convert10InfallibleB1o_EE13from_residualBO_, symObjAddr: 0x10BF4, symBinAddr: 0x501EC, symSize: 0x48 }
  - { offset: 0xB1936, size: 0x8, addend: 0x0, symName: __RNvXsq_NtCsaNl6UpbT7bw_4core6resultINtB5_6ResultNtNtCsc29TF2YcYso_3syn3pat14PatTupleStructNtNtBO_5error5ErrorEINtNtNtB7_3ops9try_trait12FromResidualIBy_NtNtB7_7convert10InfallibleB1q_EE13from_residualBO_, symObjAddr: 0x10C3C, symBinAddr: 0x50234, symSize: 0x48 }
  - { offset: 0xB19BB, size: 0x8, addend: 0x0, symName: __RNvXsq_NtCsaNl6UpbT7bw_4core6resultINtB5_6ResultNtNtCsc29TF2YcYso_3syn3pat3PatNtNtBO_5error5ErrorEINtNtNtB7_3ops9try_trait12FromResidualIBy_NtNtB7_7convert10InfallibleB1e_EE13from_residualBO_, symObjAddr: 0x10C84, symBinAddr: 0x5027C, symSize: 0x4C }
  - { offset: 0xB1A40, size: 0x8, addend: 0x0, symName: __RNvXsq_NtCsaNl6UpbT7bw_4core6resultINtB5_6ResultNtNtCsc29TF2YcYso_3syn3pat7PatWildNtNtBO_5error5ErrorEINtNtNtB7_3ops9try_trait12FromResidualIBy_NtNtB7_7convert10InfallibleB1i_EE13from_residualBO_, symObjAddr: 0x10D18, symBinAddr: 0x502C8, symSize: 0x48 }
  - { offset: 0xB1AC5, size: 0x8, addend: 0x0, symName: __RNvXsq_NtCsaNl6UpbT7bw_4core6resultINtB5_6ResultNtNtCsc29TF2YcYso_3syn3pat8FieldPatNtNtBO_5error5ErrorEINtNtNtB7_3ops9try_trait12FromResidualIBy_NtNtB7_7convert10InfallibleB1j_EE13from_residualBO_, symObjAddr: 0x10D60, symBinAddr: 0x50310, symSize: 0x48 }
  - { offset: 0xB1B4A, size: 0x8, addend: 0x0, symName: __RNvXsq_NtCsaNl6UpbT7bw_4core6resultINtB5_6ResultNtNtCsc29TF2YcYso_3syn3pat8PatIdentNtNtBO_5error5ErrorEINtNtNtB7_3ops9try_trait12FromResidualIBy_NtNtB7_7convert10InfallibleB1j_EE13from_residualBO_, symObjAddr: 0x10DA8, symBinAddr: 0x50358, symSize: 0x48 }
  - { offset: 0xB1BCF, size: 0x8, addend: 0x0, symName: __RNvXsq_NtCsaNl6UpbT7bw_4core6resultINtB5_6ResultNtNtCsc29TF2YcYso_3syn3pat8PatSliceNtNtBO_5error5ErrorEINtNtNtB7_3ops9try_trait12FromResidualIBy_NtNtB7_7convert10InfallibleB1j_EE13from_residualBO_, symObjAddr: 0x10DF0, symBinAddr: 0x503A0, symSize: 0x48 }
  - { offset: 0xB1C54, size: 0x8, addend: 0x0, symName: __RNvXsq_NtCsaNl6UpbT7bw_4core6resultINtB5_6ResultNtNtCsc29TF2YcYso_3syn3pat9PatStructNtNtBO_5error5ErrorEINtNtNtB7_3ops9try_trait12FromResidualIBy_NtNtB7_7convert10InfallibleB1k_EE13from_residualBO_, symObjAddr: 0x10E38, symBinAddr: 0x503E8, symSize: 0x48 }
  - { offset: 0xB1CD9, size: 0x8, addend: 0x0, symName: __RNvXsq_NtCsaNl6UpbT7bw_4core6resultINtB5_6ResultNtNtCsc29TF2YcYso_3syn4attr13MetaNameValueNtNtBO_5error5ErrorEINtNtNtB7_3ops9try_trait12FromResidualIBy_NtNtB7_7convert10InfallibleB1q_EE13from_residualBO_, symObjAddr: 0x10E80, symBinAddr: 0x50430, symSize: 0x48 }
  - { offset: 0xB1D5E, size: 0x8, addend: 0x0, symName: __RNvXsq_NtCsaNl6UpbT7bw_4core6resultINtB5_6ResultNtNtCsc29TF2YcYso_3syn4attr4MetaNtNtBO_5error5ErrorEINtNtNtB7_3ops9try_trait12FromResidualIBy_NtNtB7_7convert10InfallibleB1g_EE13from_residualBO_, symObjAddr: 0x10EC8, symBinAddr: 0x50478, symSize: 0x48 }
  - { offset: 0xB1DE3, size: 0x8, addend: 0x0, symName: __RNvXsq_NtCsaNl6UpbT7bw_4core6resultINtB5_6ResultNtNtCsc29TF2YcYso_3syn4attr8MetaListNtNtBO_5error5ErrorEINtNtNtB7_3ops9try_trait12FromResidualIBy_NtNtB7_7convert10InfallibleB1k_EE13from_residualBO_, symObjAddr: 0x10F10, symBinAddr: 0x504C0, symSize: 0x48 }
  - { offset: 0xB1E68, size: 0x8, addend: 0x0, symName: __RNvXsq_NtCsaNl6UpbT7bw_4core6resultINtB5_6ResultNtNtCsc29TF2YcYso_3syn4attr9AttributeNtNtBO_5error5ErrorEINtNtNtB7_3ops9try_trait12FromResidualIBy_NtNtB7_7convert10InfallibleB1l_EE13from_residualBO_, symObjAddr: 0x10F58, symBinAddr: 0x50508, symSize: 0x48 }
  - { offset: 0xB1EED, size: 0x8, addend: 0x0, symName: __RNvXsq_NtCsaNl6UpbT7bw_4core6resultINtB5_6ResultNtNtCsc29TF2YcYso_3syn4data11FieldsNamedNtNtBO_5error5ErrorEINtNtNtB7_3ops9try_trait12FromResidualIBy_NtNtB7_7convert10InfallibleB1o_EE13from_residualBO_, symObjAddr: 0x10FA0, symBinAddr: 0x50550, symSize: 0x48 }
  - { offset: 0xB1F72, size: 0x8, addend: 0x0, symName: __RNvXsq_NtCsaNl6UpbT7bw_4core6resultINtB5_6ResultNtNtCsc29TF2YcYso_3syn4data13FieldsUnnamedNtNtBO_5error5ErrorEINtNtNtB7_3ops9try_trait12FromResidualIBy_NtNtB7_7convert10InfallibleB1q_EE13from_residualBO_, symObjAddr: 0x10FE8, symBinAddr: 0x50598, symSize: 0x48 }
  - { offset: 0xB1FF7, size: 0x8, addend: 0x0, symName: __RNvXsq_NtCsaNl6UpbT7bw_4core6resultINtB5_6ResultNtNtCsc29TF2YcYso_3syn4data5FieldNtNtBO_5error5ErrorEINtNtNtB7_3ops9try_trait12FromResidualIBy_NtNtB7_7convert10InfallibleB1h_EE13from_residualBO_, symObjAddr: 0x11030, symBinAddr: 0x505E0, symSize: 0x48 }
  - { offset: 0xB207C, size: 0x8, addend: 0x0, symName: __RNvXsq_NtCsaNl6UpbT7bw_4core6resultINtB5_6ResultNtNtCsc29TF2YcYso_3syn4data7VariantNtNtBO_5error5ErrorEINtNtNtB7_3ops9try_trait12FromResidualIBy_NtNtB7_7convert10InfallibleB1j_EE13from_residualBO_, symObjAddr: 0x11078, symBinAddr: 0x50628, symSize: 0x48 }
  - { offset: 0xB2101, size: 0x8, addend: 0x0, symName: __RNvXsq_NtCsaNl6UpbT7bw_4core6resultINtB5_6ResultNtNtCsc29TF2YcYso_3syn4expr10ExprReturnNtNtBO_5error5ErrorEINtNtNtB7_3ops9try_trait12FromResidualIBy_NtNtB7_7convert10InfallibleB1n_EE13from_residualBO_, symObjAddr: 0x11198, symBinAddr: 0x50670, symSize: 0x48 }
  - { offset: 0xB2186, size: 0x8, addend: 0x0, symName: __RNvXsq_NtCsaNl6UpbT7bw_4core6resultINtB5_6ResultNtNtCsc29TF2YcYso_3syn4expr10ExprStructNtNtBO_5error5ErrorEINtNtNtB7_3ops9try_trait12FromResidualIBy_NtNtB7_7convert10InfallibleB1n_EE13from_residualBO_, symObjAddr: 0x111E0, symBinAddr: 0x506B8, symSize: 0x48 }
  - { offset: 0xB220B, size: 0x8, addend: 0x0, symName: __RNvXsq_NtCsaNl6UpbT7bw_4core6resultINtB5_6ResultNtNtCsc29TF2YcYso_3syn4expr10ExprUnsafeNtNtBO_5error5ErrorEINtNtNtB7_3ops9try_trait12FromResidualIBy_NtNtB7_7convert10InfallibleB1n_EE13from_residualBO_, symObjAddr: 0x11228, symBinAddr: 0x50700, symSize: 0x48 }
  - { offset: 0xB2290, size: 0x8, addend: 0x0, symName: __RNvXsq_NtCsaNl6UpbT7bw_4core6resultINtB5_6ResultNtNtCsc29TF2YcYso_3syn4expr10FieldValueNtNtBO_5error5ErrorEINtNtNtB7_3ops9try_trait12FromResidualIBy_NtNtB7_7convert10InfallibleB1n_EE13from_residualBO_, symObjAddr: 0x11270, symBinAddr: 0x50748, symSize: 0x48 }
  - { offset: 0xB2315, size: 0x8, addend: 0x0, symName: __RNvXsq_NtCsaNl6UpbT7bw_4core6resultINtB5_6ResultNtNtCsc29TF2YcYso_3syn4expr11ExprClosureNtNtBO_5error5ErrorEINtNtNtB7_3ops9try_trait12FromResidualIBy_NtNtB7_7convert10InfallibleB1o_EE13from_residualBO_, symObjAddr: 0x112B8, symBinAddr: 0x50790, symSize: 0x48 }
  - { offset: 0xB239A, size: 0x8, addend: 0x0, symName: __RNvXsq_NtCsaNl6UpbT7bw_4core6resultINtB5_6ResultNtNtCsc29TF2YcYso_3syn4expr11ExprForLoopNtNtBO_5error5ErrorEINtNtNtB7_3ops9try_trait12FromResidualIBy_NtNtB7_7convert10InfallibleB1o_EE13from_residualBO_, symObjAddr: 0x11300, symBinAddr: 0x507D8, symSize: 0x48 }
  - { offset: 0xB241F, size: 0x8, addend: 0x0, symName: __RNvXsq_NtCsaNl6UpbT7bw_4core6resultINtB5_6ResultNtNtCsc29TF2YcYso_3syn4expr11RangeLimitsNtNtBO_5error5ErrorEINtNtNtB7_3ops9try_trait12FromResidualIBy_NtNtB7_7convert10InfallibleB1o_EE13from_residualBO_, symObjAddr: 0x11390, symBinAddr: 0x50820, symSize: 0x40 }
  - { offset: 0xB24A4, size: 0x8, addend: 0x0, symName: __RNvXsq_NtCsaNl6UpbT7bw_4core6resultINtB5_6ResultNtNtCsc29TF2YcYso_3syn4expr12ExprContinueNtNtBO_5error5ErrorEINtNtNtB7_3ops9try_trait12FromResidualIBy_NtNtB7_7convert10InfallibleB1p_EE13from_residualBO_, symObjAddr: 0x113D0, symBinAddr: 0x50860, symSize: 0x48 }
  - { offset: 0xB2529, size: 0x8, addend: 0x0, symName: __RNvXsq_NtCsaNl6UpbT7bw_4core6resultINtB5_6ResultNtNtCsc29TF2YcYso_3syn4expr12ExprTryBlockNtNtBO_5error5ErrorEINtNtNtB7_3ops9try_trait12FromResidualIBy_NtNtB7_7convert10InfallibleB1p_EE13from_residualBO_, symObjAddr: 0x11418, symBinAddr: 0x508A8, symSize: 0x48 }
  - { offset: 0xB25AE, size: 0x8, addend: 0x0, symName: __RNvXsq_NtCsaNl6UpbT7bw_4core6resultINtB5_6ResultNtNtCsc29TF2YcYso_3syn4expr3ArmNtNtBO_5error5ErrorEINtNtNtB7_3ops9try_trait12FromResidualIBy_NtNtB7_7convert10InfallibleB1f_EE13from_residualBO_, symObjAddr: 0x11530, symBinAddr: 0x508F0, symSize: 0x48 }
  - { offset: 0xB2633, size: 0x8, addend: 0x0, symName: __RNvXsq_NtCsaNl6UpbT7bw_4core6resultINtB5_6ResultNtNtCsc29TF2YcYso_3syn4expr4ExprNtNtBO_5error5ErrorEINtNtNtB7_3ops9try_trait12FromResidualIBy_NtNtB7_7convert10InfallibleB1g_EE13from_residualBO_, symObjAddr: 0x11578, symBinAddr: 0x50938, symSize: 0x48 }
  - { offset: 0xB26B8, size: 0x8, addend: 0x0, symName: __RNvXsq_NtCsaNl6UpbT7bw_4core6resultINtB5_6ResultNtNtCsc29TF2YcYso_3syn4expr5IndexNtNtBO_5error5ErrorEINtNtNtB7_3ops9try_trait12FromResidualIBy_NtNtB7_7convert10InfallibleB1h_EE13from_residualBO_, symObjAddr: 0x115C0, symBinAddr: 0x50980, symSize: 0x40 }
  - { offset: 0xB273D, size: 0x8, addend: 0x0, symName: __RNvXsq_NtCsaNl6UpbT7bw_4core6resultINtB5_6ResultNtNtCsc29TF2YcYso_3syn4expr5IndexNtNtBO_5error5ErrorEINtNtNtB7_3ops9try_trait12FromResidualIBy_NtNtB7_7convert10InfallibleNtCshnvkK9b4wzu_11proc_macro28LexErrorEE13from_residualBO_, symObjAddr: 0x11600, symBinAddr: 0x509C0, symSize: 0x44 }
  - { offset: 0xB27A4, size: 0x8, addend: 0x0, symName: __RNvXsq_NtCsaNl6UpbT7bw_4core6resultINtB5_6ResultNtNtCsc29TF2YcYso_3syn4expr5LabelNtNtBO_5error5ErrorEINtNtNtB7_3ops9try_trait12FromResidualIBy_NtNtB7_7convert10InfallibleB1h_EE13from_residualBO_, symObjAddr: 0x11644, symBinAddr: 0x50A04, symSize: 0x48 }
  - { offset: 0xB2829, size: 0x8, addend: 0x0, symName: __RNvXsq_NtCsaNl6UpbT7bw_4core6resultINtB5_6ResultNtNtCsc29TF2YcYso_3syn4expr6ExprIfNtNtBO_5error5ErrorEINtNtNtB7_3ops9try_trait12FromResidualIBy_NtNtB7_7convert10InfallibleB1i_EE13from_residualBO_, symObjAddr: 0x1168C, symBinAddr: 0x50A4C, symSize: 0x48 }
  - { offset: 0xB28AE, size: 0x8, addend: 0x0, symName: __RNvXsq_NtCsaNl6UpbT7bw_4core6resultINtB5_6ResultNtNtCsc29TF2YcYso_3syn4expr7ExprLetNtNtBO_5error5ErrorEINtNtNtB7_3ops9try_trait12FromResidualIBy_NtNtB7_7convert10InfallibleB1j_EE13from_residualBO_, symObjAddr: 0x116D4, symBinAddr: 0x50A94, symSize: 0x48 }
  - { offset: 0xB2933, size: 0x8, addend: 0x0, symName: __RNvXsq_NtCsaNl6UpbT7bw_4core6resultINtB5_6ResultNtNtCsc29TF2YcYso_3syn4expr7ExprLitNtNtBO_5error5ErrorEINtNtNtB7_3ops9try_trait12FromResidualIBy_NtNtB7_7convert10InfallibleB1j_EE13from_residualBO_, symObjAddr: 0x1171C, symBinAddr: 0x50ADC, symSize: 0x48 }
  - { offset: 0xB29B8, size: 0x8, addend: 0x0, symName: __RNvXsq_NtCsaNl6UpbT7bw_4core6resultINtB5_6ResultNtNtCsc29TF2YcYso_3syn4expr8ExprLoopNtNtBO_5error5ErrorEINtNtNtB7_3ops9try_trait12FromResidualIBy_NtNtB7_7convert10InfallibleB1k_EE13from_residualBO_, symObjAddr: 0x1183C, symBinAddr: 0x50B24, symSize: 0x48 }
  - { offset: 0xB2A3D, size: 0x8, addend: 0x0, symName: __RNvXsq_NtCsaNl6UpbT7bw_4core6resultINtB5_6ResultNtNtCsc29TF2YcYso_3syn4expr8ExprPathNtNtBO_5error5ErrorEINtNtNtB7_3ops9try_trait12FromResidualIBy_NtNtB7_7convert10InfallibleB1k_EE13from_residualBO_, symObjAddr: 0x11884, symBinAddr: 0x50B6C, symSize: 0x48 }
  - { offset: 0xB2AC2, size: 0x8, addend: 0x0, symName: __RNvXsq_NtCsaNl6UpbT7bw_4core6resultINtB5_6ResultNtNtCsc29TF2YcYso_3syn4expr9ExprAsyncNtNtBO_5error5ErrorEINtNtNtB7_3ops9try_trait12FromResidualIBy_NtNtB7_7convert10InfallibleB1l_EE13from_residualBO_, symObjAddr: 0x11914, symBinAddr: 0x50BB4, symSize: 0x48 }
  - { offset: 0xB2B47, size: 0x8, addend: 0x0, symName: __RNvXsq_NtCsaNl6UpbT7bw_4core6resultINtB5_6ResultNtNtCsc29TF2YcYso_3syn4expr9ExprBlockNtNtBO_5error5ErrorEINtNtNtB7_3ops9try_trait12FromResidualIBy_NtNtB7_7convert10InfallibleB1l_EE13from_residualBO_, symObjAddr: 0x119A4, symBinAddr: 0x50BFC, symSize: 0x48 }
  - { offset: 0xB2BCC, size: 0x8, addend: 0x0, symName: __RNvXsq_NtCsaNl6UpbT7bw_4core6resultINtB5_6ResultNtNtCsc29TF2YcYso_3syn4expr9ExprBreakNtNtBO_5error5ErrorEINtNtNtB7_3ops9try_trait12FromResidualIBy_NtNtB7_7convert10InfallibleB1l_EE13from_residualBO_, symObjAddr: 0x119EC, symBinAddr: 0x50C44, symSize: 0x48 }
  - { offset: 0xB2C51, size: 0x8, addend: 0x0, symName: __RNvXsq_NtCsaNl6UpbT7bw_4core6resultINtB5_6ResultNtNtCsc29TF2YcYso_3syn4expr9ExprConstNtNtBO_5error5ErrorEINtNtNtB7_3ops9try_trait12FromResidualIBy_NtNtB7_7convert10InfallibleB1l_EE13from_residualBO_, symObjAddr: 0x11A34, symBinAddr: 0x50C8C, symSize: 0x48 }
  - { offset: 0xB2CD6, size: 0x8, addend: 0x0, symName: __RNvXsq_NtCsaNl6UpbT7bw_4core6resultINtB5_6ResultNtNtCsc29TF2YcYso_3syn4expr9ExprInferNtNtBO_5error5ErrorEINtNtNtB7_3ops9try_trait12FromResidualIBy_NtNtB7_7convert10InfallibleB1l_EE13from_residualBO_, symObjAddr: 0x11B0C, symBinAddr: 0x50CD4, symSize: 0x48 }
  - { offset: 0xB2D5B, size: 0x8, addend: 0x0, symName: __RNvXsq_NtCsaNl6UpbT7bw_4core6resultINtB5_6ResultNtNtCsc29TF2YcYso_3syn4expr9ExprMatchNtNtBO_5error5ErrorEINtNtNtB7_3ops9try_trait12FromResidualIBy_NtNtB7_7convert10InfallibleB1l_EE13from_residualBO_, symObjAddr: 0x11B9C, symBinAddr: 0x50D1C, symSize: 0x48 }
  - { offset: 0xB2DE0, size: 0x8, addend: 0x0, symName: __RNvXsq_NtCsaNl6UpbT7bw_4core6resultINtB5_6ResultNtNtCsc29TF2YcYso_3syn4expr9ExprRangeNtNtBO_5error5ErrorEINtNtNtB7_3ops9try_trait12FromResidualIBy_NtNtB7_7convert10InfallibleB1l_EE13from_residualBO_, symObjAddr: 0x11C2C, symBinAddr: 0x50D64, symSize: 0x48 }
  - { offset: 0xB2E65, size: 0x8, addend: 0x0, symName: __RNvXsq_NtCsaNl6UpbT7bw_4core6resultINtB5_6ResultNtNtCsc29TF2YcYso_3syn4expr9ExprUnaryNtNtBO_5error5ErrorEINtNtNtB7_3ops9try_trait12FromResidualIBy_NtNtB7_7convert10InfallibleB1l_EE13from_residualBO_, symObjAddr: 0x11CBC, symBinAddr: 0x50DAC, symSize: 0x48 }
  - { offset: 0xB2EEA, size: 0x8, addend: 0x0, symName: __RNvXsq_NtCsaNl6UpbT7bw_4core6resultINtB5_6ResultNtNtCsc29TF2YcYso_3syn4expr9ExprWhileNtNtBO_5error5ErrorEINtNtNtB7_3ops9try_trait12FromResidualIBy_NtNtB7_7convert10InfallibleB1l_EE13from_residualBO_, symObjAddr: 0x11D04, symBinAddr: 0x50DF4, symSize: 0x48 }
  - { offset: 0xB2F6F, size: 0x8, addend: 0x0, symName: __RNvXsq_NtCsaNl6UpbT7bw_4core6resultINtB5_6ResultNtNtCsc29TF2YcYso_3syn4expr9ExprYieldNtNtBO_5error5ErrorEINtNtNtB7_3ops9try_trait12FromResidualIBy_NtNtB7_7convert10InfallibleB1l_EE13from_residualBO_, symObjAddr: 0x11D4C, symBinAddr: 0x50E3C, symSize: 0x48 }
  - { offset: 0xB2FF4, size: 0x8, addend: 0x0, symName: __RNvXsq_NtCsaNl6UpbT7bw_4core6resultINtB5_6ResultNtNtCsc29TF2YcYso_3syn4item10ItemStructNtNtBO_5error5ErrorEINtNtNtB7_3ops9try_trait12FromResidualIBy_NtNtB7_7convert10InfallibleB1n_EE13from_residualBO_, symObjAddr: 0x11E70, symBinAddr: 0x50E84, symSize: 0x48 }
  - { offset: 0xB3079, size: 0x8, addend: 0x0, symName: __RNvXsq_NtCsaNl6UpbT7bw_4core6resultINtB5_6ResultNtNtCsc29TF2YcYso_3syn4item11ForeignItemNtNtBO_5error5ErrorEINtNtNtB7_3ops9try_trait12FromResidualIBy_NtNtB7_7convert10InfallibleB1o_EE13from_residualBO_, symObjAddr: 0x11EB8, symBinAddr: 0x50ECC, symSize: 0x48 }
  - { offset: 0xB30FE, size: 0x8, addend: 0x0, symName: __RNvXsq_NtCsaNl6UpbT7bw_4core6resultINtB5_6ResultNtNtCsc29TF2YcYso_3syn4item11TraitItemFnNtNtBO_5error5ErrorEINtNtNtB7_3ops9try_trait12FromResidualIBy_NtNtB7_7convert10InfallibleB1o_EE13from_residualBO_, symObjAddr: 0x11F00, symBinAddr: 0x50F14, symSize: 0x48 }
  - { offset: 0xB3183, size: 0x8, addend: 0x0, symName: __RNvXsq_NtCsaNl6UpbT7bw_4core6resultINtB5_6ResultNtNtCsc29TF2YcYso_3syn4item13ImplItemMacroNtNtBO_5error5ErrorEINtNtNtB7_3ops9try_trait12FromResidualIBy_NtNtB7_7convert10InfallibleB1q_EE13from_residualBO_, symObjAddr: 0x12020, symBinAddr: 0x50F5C, symSize: 0x48 }
  - { offset: 0xB3208, size: 0x8, addend: 0x0, symName: __RNvXsq_NtCsaNl6UpbT7bw_4core6resultINtB5_6ResultNtNtCsc29TF2YcYso_3syn4item14ItemForeignModNtNtBO_5error5ErrorEINtNtNtB7_3ops9try_trait12FromResidualIBy_NtNtB7_7convert10InfallibleB1r_EE13from_residualBO_, symObjAddr: 0x120B0, symBinAddr: 0x50FA4, symSize: 0x48 }
  - { offset: 0xB328D, size: 0x8, addend: 0x0, symName: __RNvXsq_NtCsaNl6UpbT7bw_4core6resultINtB5_6ResultNtNtCsc29TF2YcYso_3syn4item14ItemTraitAliasNtNtBO_5error5ErrorEINtNtNtB7_3ops9try_trait12FromResidualIBy_NtNtB7_7convert10InfallibleB1r_EE13from_residualBO_, symObjAddr: 0x120F8, symBinAddr: 0x50FEC, symSize: 0x48 }
  - { offset: 0xB3312, size: 0x8, addend: 0x0, symName: __RNvXsq_NtCsaNl6UpbT7bw_4core6resultINtB5_6ResultNtNtCsc29TF2YcYso_3syn4item14TraitItemMacroNtNtBO_5error5ErrorEINtNtNtB7_3ops9try_trait12FromResidualIBy_NtNtB7_7convert10InfallibleB1r_EE13from_residualBO_, symObjAddr: 0x12188, symBinAddr: 0x51034, symSize: 0x48 }
  - { offset: 0xB3397, size: 0x8, addend: 0x0, symName: __RNvXsq_NtCsaNl6UpbT7bw_4core6resultINtB5_6ResultNtNtCsc29TF2YcYso_3syn4item15ItemExternCrateNtNtBO_5error5ErrorEINtNtNtB7_3ops9try_trait12FromResidualIBy_NtNtB7_7convert10InfallibleB1s_EE13from_residualBO_, symObjAddr: 0x12218, symBinAddr: 0x5107C, symSize: 0x48 }
  - { offset: 0xB341C, size: 0x8, addend: 0x0, symName: __RNvXsq_NtCsaNl6UpbT7bw_4core6resultINtB5_6ResultNtNtCsc29TF2YcYso_3syn4item16ForeignItemMacroNtNtBO_5error5ErrorEINtNtNtB7_3ops9try_trait12FromResidualIBy_NtNtB7_7convert10InfallibleB1t_EE13from_residualBO_, symObjAddr: 0x12260, symBinAddr: 0x510C4, symSize: 0x48 }
  - { offset: 0xB34A1, size: 0x8, addend: 0x0, symName: __RNvXsq_NtCsaNl6UpbT7bw_4core6resultINtB5_6ResultNtNtCsc29TF2YcYso_3syn4item16StaticMutabilityNtNtBO_5error5ErrorEINtNtNtB7_3ops9try_trait12FromResidualIBy_NtNtB7_7convert10InfallibleB1t_EE13from_residualBO_, symObjAddr: 0x122A8, symBinAddr: 0x5110C, symSize: 0x40 }
  - { offset: 0xB3526, size: 0x8, addend: 0x0, symName: __RNvXsq_NtCsaNl6UpbT7bw_4core6resultINtB5_6ResultNtNtCsc29TF2YcYso_3syn4item4ItemNtNtBO_5error5ErrorEINtNtNtB7_3ops9try_trait12FromResidualIBy_NtNtB7_7convert10InfallibleB1g_EE13from_residualBO_, symObjAddr: 0x12330, symBinAddr: 0x5114C, symSize: 0x48 }
  - { offset: 0xB35AB, size: 0x8, addend: 0x0, symName: __RNvXsq_NtCsaNl6UpbT7bw_4core6resultINtB5_6ResultNtNtCsc29TF2YcYso_3syn4item6ItemFnNtNtBO_5error5ErrorEINtNtNtB7_3ops9try_trait12FromResidualIBy_NtNtB7_7convert10InfallibleB1i_EE13from_residualBO_, symObjAddr: 0x123C0, symBinAddr: 0x51194, symSize: 0x48 }
  - { offset: 0xB3630, size: 0x8, addend: 0x0, symName: __RNvXsq_NtCsaNl6UpbT7bw_4core6resultINtB5_6ResultNtNtCsc29TF2YcYso_3syn4item7ItemModNtNtBO_5error5ErrorEINtNtNtB7_3ops9try_trait12FromResidualIBy_NtNtB7_7convert10InfallibleB1j_EE13from_residualBO_, symObjAddr: 0x12408, symBinAddr: 0x511DC, symSize: 0x48 }
  - { offset: 0xB36B5, size: 0x8, addend: 0x0, symName: __RNvXsq_NtCsaNl6UpbT7bw_4core6resultINtB5_6ResultNtNtCsc29TF2YcYso_3syn4item8ImplItemNtNtBO_5error5ErrorEINtNtNtB7_3ops9try_trait12FromResidualIBy_NtNtB7_7convert10InfallibleB1k_EE13from_residualBO_, symObjAddr: 0x12450, symBinAddr: 0x51224, symSize: 0x48 }
  - { offset: 0xB373A, size: 0x8, addend: 0x0, symName: __RNvXsq_NtCsaNl6UpbT7bw_4core6resultINtB5_6ResultNtNtCsc29TF2YcYso_3syn4item8ItemEnumNtNtBO_5error5ErrorEINtNtNtB7_3ops9try_trait12FromResidualIBy_NtNtB7_7convert10InfallibleB1k_EE13from_residualBO_, symObjAddr: 0x12498, symBinAddr: 0x5126C, symSize: 0x48 }
  - { offset: 0xB37BF, size: 0x8, addend: 0x0, symName: __RNvXsq_NtCsaNl6UpbT7bw_4core6resultINtB5_6ResultNtNtCsc29TF2YcYso_3syn4item8ReceiverNtNtBO_5error5ErrorEINtNtNtB7_3ops9try_trait12FromResidualIBy_NtNtB7_7convert10InfallibleB1k_EE13from_residualBO_, symObjAddr: 0x12528, symBinAddr: 0x512B4, symSize: 0x48 }
  - { offset: 0xB3844, size: 0x8, addend: 0x0, symName: __RNvXsq_NtCsaNl6UpbT7bw_4core6resultINtB5_6ResultNtNtCsc29TF2YcYso_3syn4item9ItemMacroNtNtBO_5error5ErrorEINtNtNtB7_3ops9try_trait12FromResidualIBy_NtNtB7_7convert10InfallibleB1l_EE13from_residualBO_, symObjAddr: 0x125B8, symBinAddr: 0x512FC, symSize: 0x48 }
  - { offset: 0xB38C9, size: 0x8, addend: 0x0, symName: __RNvXsq_NtCsaNl6UpbT7bw_4core6resultINtB5_6ResultNtNtCsc29TF2YcYso_3syn4item9ItemTraitNtNtBO_5error5ErrorEINtNtNtB7_3ops9try_trait12FromResidualIBy_NtNtB7_7convert10InfallibleB1l_EE13from_residualBO_, symObjAddr: 0x12600, symBinAddr: 0x51344, symSize: 0x48 }
  - { offset: 0xB394E, size: 0x8, addend: 0x0, symName: __RNvXsq_NtCsaNl6UpbT7bw_4core6resultINtB5_6ResultNtNtCsc29TF2YcYso_3syn4item9ItemUnionNtNtBO_5error5ErrorEINtNtNtB7_3ops9try_trait12FromResidualIBy_NtNtB7_7convert10InfallibleB1l_EE13from_residualBO_, symObjAddr: 0x12648, symBinAddr: 0x5138C, symSize: 0x48 }
  - { offset: 0xB39D3, size: 0x8, addend: 0x0, symName: __RNvXsq_NtCsaNl6UpbT7bw_4core6resultINtB5_6ResultNtNtCsc29TF2YcYso_3syn4item9TraitItemNtNtBO_5error5ErrorEINtNtNtB7_3ops9try_trait12FromResidualIBy_NtNtB7_7convert10InfallibleB1l_EE13from_residualBO_, symObjAddr: 0x12690, symBinAddr: 0x513D4, symSize: 0x48 }
  - { offset: 0xB3A58, size: 0x8, addend: 0x0, symName: __RNvXsq_NtCsaNl6UpbT7bw_4core6resultINtB5_6ResultNtNtCsc29TF2YcYso_3syn4path11PathSegmentNtNtBO_5error5ErrorEINtNtNtB7_3ops9try_trait12FromResidualIBy_NtNtB7_7convert10InfallibleB1o_EE13from_residualBO_, symObjAddr: 0x126D8, symBinAddr: 0x5141C, symSize: 0x4C }
  - { offset: 0xB3ADD, size: 0x8, addend: 0x0, symName: __RNvXsq_NtCsaNl6UpbT7bw_4core6resultINtB5_6ResultNtNtCsc29TF2YcYso_3syn4path15GenericArgumentNtNtBO_5error5ErrorEINtNtNtB7_3ops9try_trait12FromResidualIBy_NtNtB7_7convert10InfallibleB1s_EE13from_residualBO_, symObjAddr: 0x12724, symBinAddr: 0x51468, symSize: 0x48 }
  - { offset: 0xB3B62, size: 0x8, addend: 0x0, symName: __RNvXsq_NtCsaNl6UpbT7bw_4core6resultINtB5_6ResultNtNtCsc29TF2YcYso_3syn4path29ParenthesizedGenericArgumentsNtNtBO_5error5ErrorEINtNtNtB7_3ops9try_trait12FromResidualIBy_NtNtB7_7convert10InfallibleB1G_EE13from_residualBO_, symObjAddr: 0x1276C, symBinAddr: 0x514B0, symSize: 0x48 }
  - { offset: 0xB3BE7, size: 0x8, addend: 0x0, symName: __RNvXsq_NtCsaNl6UpbT7bw_4core6resultINtB5_6ResultNtNtCsc29TF2YcYso_3syn4path30AngleBracketedGenericArgumentsNtNtBO_5error5ErrorEINtNtNtB7_3ops9try_trait12FromResidualIBy_NtNtB7_7convert10InfallibleB1H_EE13from_residualBO_, symObjAddr: 0x127B4, symBinAddr: 0x514F8, symSize: 0x48 }
  - { offset: 0xB3C6C, size: 0x8, addend: 0x0, symName: __RNvXsq_NtCsaNl6UpbT7bw_4core6resultINtB5_6ResultNtNtCsc29TF2YcYso_3syn4path4PathNtNtBO_5error5ErrorEINtNtNtB7_3ops9try_trait12FromResidualIBy_NtNtB7_7convert10InfallibleB1g_EE13from_residualBO_, symObjAddr: 0x127FC, symBinAddr: 0x51540, symSize: 0x48 }
  - { offset: 0xB3CF1, size: 0x8, addend: 0x0, symName: __RNvXsq_NtCsaNl6UpbT7bw_4core6resultINtB5_6ResultNtNtCsc29TF2YcYso_3syn4stmt4StmtNtNtBO_5error5ErrorEINtNtNtB7_3ops9try_trait12FromResidualIBy_NtNtB7_7convert10InfallibleB1g_EE13from_residualBO_, symObjAddr: 0x12844, symBinAddr: 0x51588, symSize: 0x48 }
  - { offset: 0xB3D76, size: 0x8, addend: 0x0, symName: __RNvXsq_NtCsaNl6UpbT7bw_4core6resultINtB5_6ResultNtNtCsc29TF2YcYso_3syn4stmt5BlockNtNtBO_5error5ErrorEINtNtNtB7_3ops9try_trait12FromResidualIBy_NtNtB7_7convert10InfallibleB1h_EE13from_residualBO_, symObjAddr: 0x1288C, symBinAddr: 0x515D0, symSize: 0x48 }
  - { offset: 0xB3DFB, size: 0x8, addend: 0x0, symName: __RNvXsq_NtCsaNl6UpbT7bw_4core6resultINtB5_6ResultNtNtCsc29TF2YcYso_3syn4stmt5LocalNtNtBO_5error5ErrorEINtNtNtB7_3ops9try_trait12FromResidualIBy_NtNtB7_7convert10InfallibleB1h_EE13from_residualBO_, symObjAddr: 0x128D4, symBinAddr: 0x51618, symSize: 0x48 }
  - { offset: 0xB3E80, size: 0x8, addend: 0x0, symName: __RNvXsq_NtCsaNl6UpbT7bw_4core6resultINtB5_6ResultNtNtCsc29TF2YcYso_3syn4stmt9StmtMacroNtNtBO_5error5ErrorEINtNtNtB7_3ops9try_trait12FromResidualIBy_NtNtB7_7convert10InfallibleB1l_EE13from_residualBO_, symObjAddr: 0x1291C, symBinAddr: 0x51660, symSize: 0x48 }
  - { offset: 0xB3F05, size: 0x8, addend: 0x0, symName: __RNvXsq_NtCsaNl6UpbT7bw_4core6resultINtB5_6ResultNtNtCsc29TF2YcYso_3syn5token10UnderscoreNtNtBO_5error5ErrorEINtNtNtB7_3ops9try_trait12FromResidualIBy_NtNtB7_7convert10InfallibleB1o_EE13from_residualBO_, symObjAddr: 0x12964, symBinAddr: 0x516A8, symSize: 0x40 }
  - { offset: 0xB3F8A, size: 0x8, addend: 0x0, symName: __RNvXsq_NtCsaNl6UpbT7bw_4core6resultINtB5_6ResultNtNtCsc29TF2YcYso_3syn5token2AsNtNtBO_5error5ErrorEINtNtNtB7_3ops9try_trait12FromResidualIBy_NtNtB7_7convert10InfallibleB1f_EE13from_residualBO_, symObjAddr: 0x129A4, symBinAddr: 0x516E8, symSize: 0x40 }
  - { offset: 0xB400F, size: 0x8, addend: 0x0, symName: __RNvXsq_NtCsaNl6UpbT7bw_4core6resultINtB5_6ResultNtNtCsc29TF2YcYso_3syn5token2AtNtNtBO_5error5ErrorEINtNtNtB7_3ops9try_trait12FromResidualIBy_NtNtB7_7convert10InfallibleB1f_EE13from_residualBO_, symObjAddr: 0x129E4, symBinAddr: 0x51728, symSize: 0x40 }
  - { offset: 0xB4094, size: 0x8, addend: 0x0, symName: __RNvXsq_NtCsaNl6UpbT7bw_4core6resultINtB5_6ResultNtNtCsc29TF2YcYso_3syn5token2EqNtNtBO_5error5ErrorEINtNtNtB7_3ops9try_trait12FromResidualIBy_NtNtB7_7convert10InfallibleB1f_EE13from_residualBO_, symObjAddr: 0x12A64, symBinAddr: 0x51768, symSize: 0x40 }
  - { offset: 0xB4119, size: 0x8, addend: 0x0, symName: __RNvXsq_NtCsaNl6UpbT7bw_4core6resultINtB5_6ResultNtNtCsc29TF2YcYso_3syn5token2FnNtNtBO_5error5ErrorEINtNtNtB7_3ops9try_trait12FromResidualIBy_NtNtB7_7convert10InfallibleB1f_EE13from_residualBO_, symObjAddr: 0x12AA4, symBinAddr: 0x517A8, symSize: 0x40 }
  - { offset: 0xB419E, size: 0x8, addend: 0x0, symName: __RNvXsq_NtCsaNl6UpbT7bw_4core6resultINtB5_6ResultNtNtCsc29TF2YcYso_3syn5token2GeNtNtBO_5error5ErrorEINtNtNtB7_3ops9try_trait12FromResidualIBy_NtNtB7_7convert10InfallibleB1f_EE13from_residualBO_, symObjAddr: 0x12AE4, symBinAddr: 0x517E8, symSize: 0x40 }
  - { offset: 0xB4223, size: 0x8, addend: 0x0, symName: __RNvXsq_NtCsaNl6UpbT7bw_4core6resultINtB5_6ResultNtNtCsc29TF2YcYso_3syn5token2GtNtNtBO_5error5ErrorEINtNtNtB7_3ops9try_trait12FromResidualIBy_NtNtB7_7convert10InfallibleB1f_EE13from_residualBO_, symObjAddr: 0x12B24, symBinAddr: 0x51828, symSize: 0x40 }
  - { offset: 0xB42A8, size: 0x8, addend: 0x0, symName: __RNvXsq_NtCsaNl6UpbT7bw_4core6resultINtB5_6ResultNtNtCsc29TF2YcYso_3syn5token2IfNtNtBO_5error5ErrorEINtNtNtB7_3ops9try_trait12FromResidualIBy_NtNtB7_7convert10InfallibleB1f_EE13from_residualBO_, symObjAddr: 0x12B64, symBinAddr: 0x51868, symSize: 0x40 }
  - { offset: 0xB432D, size: 0x8, addend: 0x0, symName: __RNvXsq_NtCsaNl6UpbT7bw_4core6resultINtB5_6ResultNtNtCsc29TF2YcYso_3syn5token2InNtNtBO_5error5ErrorEINtNtNtB7_3ops9try_trait12FromResidualIBy_NtNtB7_7convert10InfallibleB1f_EE13from_residualBO_, symObjAddr: 0x12BA4, symBinAddr: 0x518A8, symSize: 0x40 }
  - { offset: 0xB43B2, size: 0x8, addend: 0x0, symName: __RNvXsq_NtCsaNl6UpbT7bw_4core6resultINtB5_6ResultNtNtCsc29TF2YcYso_3syn5token2LeNtNtBO_5error5ErrorEINtNtNtB7_3ops9try_trait12FromResidualIBy_NtNtB7_7convert10InfallibleB1f_EE13from_residualBO_, symObjAddr: 0x12BE4, symBinAddr: 0x518E8, symSize: 0x40 }
  - { offset: 0xB4437, size: 0x8, addend: 0x0, symName: __RNvXsq_NtCsaNl6UpbT7bw_4core6resultINtB5_6ResultNtNtCsc29TF2YcYso_3syn5token2LtNtNtBO_5error5ErrorEINtNtNtB7_3ops9try_trait12FromResidualIBy_NtNtB7_7convert10InfallibleB1f_EE13from_residualBO_, symObjAddr: 0x12C24, symBinAddr: 0x51928, symSize: 0x40 }
  - { offset: 0xB44BC, size: 0x8, addend: 0x0, symName: __RNvXsq_NtCsaNl6UpbT7bw_4core6resultINtB5_6ResultNtNtCsc29TF2YcYso_3syn5token2NeNtNtBO_5error5ErrorEINtNtNtB7_3ops9try_trait12FromResidualIBy_NtNtB7_7convert10InfallibleB1f_EE13from_residualBO_, symObjAddr: 0x12C64, symBinAddr: 0x51968, symSize: 0x40 }
  - { offset: 0xB4541, size: 0x8, addend: 0x0, symName: __RNvXsq_NtCsaNl6UpbT7bw_4core6resultINtB5_6ResultNtNtCsc29TF2YcYso_3syn5token2OrNtNtBO_5error5ErrorEINtNtNtB7_3ops9try_trait12FromResidualIBy_NtNtB7_7convert10InfallibleB1f_EE13from_residualBO_, symObjAddr: 0x12CA4, symBinAddr: 0x519A8, symSize: 0x40 }
  - { offset: 0xB45C6, size: 0x8, addend: 0x0, symName: __RNvXsq_NtCsaNl6UpbT7bw_4core6resultINtB5_6ResultNtNtCsc29TF2YcYso_3syn5token3AndNtNtBO_5error5ErrorEINtNtNtB7_3ops9try_trait12FromResidualIBy_NtNtB7_7convert10InfallibleB1g_EE13from_residualBO_, symObjAddr: 0x12CE4, symBinAddr: 0x519E8, symSize: 0x40 }
  - { offset: 0xB464B, size: 0x8, addend: 0x0, symName: __RNvXsq_NtCsaNl6UpbT7bw_4core6resultINtB5_6ResultNtNtCsc29TF2YcYso_3syn5token3BoxNtNtBO_5error5ErrorEINtNtNtB7_3ops9try_trait12FromResidualIBy_NtNtB7_7convert10InfallibleB1g_EE13from_residualBO_, symObjAddr: 0x12D24, symBinAddr: 0x51A28, symSize: 0x40 }
  - { offset: 0xB46D0, size: 0x8, addend: 0x0, symName: __RNvXsq_NtCsaNl6UpbT7bw_4core6resultINtB5_6ResultNtNtCsc29TF2YcYso_3syn5token3DotNtNtBO_5error5ErrorEINtNtNtB7_3ops9try_trait12FromResidualIBy_NtNtB7_7convert10InfallibleB1g_EE13from_residualBO_, symObjAddr: 0x12D64, symBinAddr: 0x51A68, symSize: 0x40 }
  - { offset: 0xB4755, size: 0x8, addend: 0x0, symName: __RNvXsq_NtCsaNl6UpbT7bw_4core6resultINtB5_6ResultNtNtCsc29TF2YcYso_3syn5token3DynNtNtBO_5error5ErrorEINtNtNtB7_3ops9try_trait12FromResidualIBy_NtNtB7_7convert10InfallibleB1g_EE13from_residualBO_, symObjAddr: 0x12DA4, symBinAddr: 0x51AA8, symSize: 0x40 }
  - { offset: 0xB47DA, size: 0x8, addend: 0x0, symName: __RNvXsq_NtCsaNl6UpbT7bw_4core6resultINtB5_6ResultNtNtCsc29TF2YcYso_3syn5token3ForNtNtBO_5error5ErrorEINtNtNtB7_3ops9try_trait12FromResidualIBy_NtNtB7_7convert10InfallibleB1g_EE13from_residualBO_, symObjAddr: 0x12DE4, symBinAddr: 0x51AE8, symSize: 0x40 }
  - { offset: 0xB485F, size: 0x8, addend: 0x0, symName: __RNvXsq_NtCsaNl6UpbT7bw_4core6resultINtB5_6ResultNtNtCsc29TF2YcYso_3syn5token3LetNtNtBO_5error5ErrorEINtNtNtB7_3ops9try_trait12FromResidualIBy_NtNtB7_7convert10InfallibleB1g_EE13from_residualBO_, symObjAddr: 0x12E24, symBinAddr: 0x51B28, symSize: 0x40 }
  - { offset: 0xB48E4, size: 0x8, addend: 0x0, symName: __RNvXsq_NtCsaNl6UpbT7bw_4core6resultINtB5_6ResultNtNtCsc29TF2YcYso_3syn5token3ModNtNtBO_5error5ErrorEINtNtNtB7_3ops9try_trait12FromResidualIBy_NtNtB7_7convert10InfallibleB1g_EE13from_residualBO_, symObjAddr: 0x12E64, symBinAddr: 0x51B68, symSize: 0x40 }
  - { offset: 0xB4969, size: 0x8, addend: 0x0, symName: __RNvXsq_NtCsaNl6UpbT7bw_4core6resultINtB5_6ResultNtNtCsc29TF2YcYso_3syn5token3MutNtNtBO_5error5ErrorEINtNtNtB7_3ops9try_trait12FromResidualIBy_NtNtB7_7convert10InfallibleB1g_EE13from_residualBO_, symObjAddr: 0x12EA4, symBinAddr: 0x51BA8, symSize: 0x40 }
  - { offset: 0xB49EE, size: 0x8, addend: 0x0, symName: __RNvXsq_NtCsaNl6UpbT7bw_4core6resultINtB5_6ResultNtNtCsc29TF2YcYso_3syn5token3NotNtNtBO_5error5ErrorEINtNtNtB7_3ops9try_trait12FromResidualIBy_NtNtB7_7convert10InfallibleB1g_EE13from_residualBO_, symObjAddr: 0x12EE4, symBinAddr: 0x51BE8, symSize: 0x40 }
  - { offset: 0xB4A73, size: 0x8, addend: 0x0, symName: __RNvXsq_NtCsaNl6UpbT7bw_4core6resultINtB5_6ResultNtNtCsc29TF2YcYso_3syn5token3PubNtNtBO_5error5ErrorEINtNtNtB7_3ops9try_trait12FromResidualIBy_NtNtB7_7convert10InfallibleB1g_EE13from_residualBO_, symObjAddr: 0x12F24, symBinAddr: 0x51C28, symSize: 0x40 }
  - { offset: 0xB4AF8, size: 0x8, addend: 0x0, symName: __RNvXsq_NtCsaNl6UpbT7bw_4core6resultINtB5_6ResultNtNtCsc29TF2YcYso_3syn5token3RawNtNtBO_5error5ErrorEINtNtNtB7_3ops9try_trait12FromResidualIBy_NtNtB7_7convert10InfallibleB1g_EE13from_residualBO_, symObjAddr: 0x12F64, symBinAddr: 0x51C68, symSize: 0x40 }
  - { offset: 0xB4B7D, size: 0x8, addend: 0x0, symName: __RNvXsq_NtCsaNl6UpbT7bw_4core6resultINtB5_6ResultNtNtCsc29TF2YcYso_3syn5token3RefNtNtBO_5error5ErrorEINtNtNtB7_3ops9try_trait12FromResidualIBy_NtNtB7_7convert10InfallibleB1g_EE13from_residualBO_, symObjAddr: 0x12FA4, symBinAddr: 0x51CA8, symSize: 0x40 }
  - { offset: 0xB4C02, size: 0x8, addend: 0x0, symName: __RNvXsq_NtCsaNl6UpbT7bw_4core6resultINtB5_6ResultNtNtCsc29TF2YcYso_3syn5token3ShlNtNtBO_5error5ErrorEINtNtNtB7_3ops9try_trait12FromResidualIBy_NtNtB7_7convert10InfallibleB1g_EE13from_residualBO_, symObjAddr: 0x12FE4, symBinAddr: 0x51CE8, symSize: 0x40 }
  - { offset: 0xB4C87, size: 0x8, addend: 0x0, symName: __RNvXsq_NtCsaNl6UpbT7bw_4core6resultINtB5_6ResultNtNtCsc29TF2YcYso_3syn5token3ShrNtNtBO_5error5ErrorEINtNtNtB7_3ops9try_trait12FromResidualIBy_NtNtB7_7convert10InfallibleB1g_EE13from_residualBO_, symObjAddr: 0x13024, symBinAddr: 0x51D28, symSize: 0x40 }
  - { offset: 0xB4D0C, size: 0x8, addend: 0x0, symName: __RNvXsq_NtCsaNl6UpbT7bw_4core6resultINtB5_6ResultNtNtCsc29TF2YcYso_3syn5token3TryNtNtBO_5error5ErrorEINtNtNtB7_3ops9try_trait12FromResidualIBy_NtNtB7_7convert10InfallibleB1g_EE13from_residualBO_, symObjAddr: 0x13064, symBinAddr: 0x51D68, symSize: 0x40 }
  - { offset: 0xB4D91, size: 0x8, addend: 0x0, symName: __RNvXsq_NtCsaNl6UpbT7bw_4core6resultINtB5_6ResultNtNtCsc29TF2YcYso_3syn5token3UseNtNtBO_5error5ErrorEINtNtNtB7_3ops9try_trait12FromResidualIBy_NtNtB7_7convert10InfallibleB1g_EE13from_residualBO_, symObjAddr: 0x130A4, symBinAddr: 0x51DA8, symSize: 0x40 }
  - { offset: 0xB4E16, size: 0x8, addend: 0x0, symName: __RNvXsq_NtCsaNl6UpbT7bw_4core6resultINtB5_6ResultNtNtCsc29TF2YcYso_3syn5token4AutoNtNtBO_5error5ErrorEINtNtNtB7_3ops9try_trait12FromResidualIBy_NtNtB7_7convert10InfallibleB1h_EE13from_residualBO_, symObjAddr: 0x130E4, symBinAddr: 0x51DE8, symSize: 0x40 }
  - { offset: 0xB4E9B, size: 0x8, addend: 0x0, symName: __RNvXsq_NtCsaNl6UpbT7bw_4core6resultINtB5_6ResultNtNtCsc29TF2YcYso_3syn5token4ElseNtNtBO_5error5ErrorEINtNtNtB7_3ops9try_trait12FromResidualIBy_NtNtB7_7convert10InfallibleB1h_EE13from_residualBO_, symObjAddr: 0x13124, symBinAddr: 0x51E28, symSize: 0x40 }
  - { offset: 0xB4F20, size: 0x8, addend: 0x0, symName: __RNvXsq_NtCsaNl6UpbT7bw_4core6resultINtB5_6ResultNtNtCsc29TF2YcYso_3syn5token4EnumNtNtBO_5error5ErrorEINtNtNtB7_3ops9try_trait12FromResidualIBy_NtNtB7_7convert10InfallibleB1h_EE13from_residualBO_, symObjAddr: 0x13164, symBinAddr: 0x51E68, symSize: 0x40 }
  - { offset: 0xB4FA5, size: 0x8, addend: 0x0, symName: __RNvXsq_NtCsaNl6UpbT7bw_4core6resultINtB5_6ResultNtNtCsc29TF2YcYso_3syn5token4EqEqNtNtBO_5error5ErrorEINtNtNtB7_3ops9try_trait12FromResidualIBy_NtNtB7_7convert10InfallibleB1h_EE13from_residualBO_, symObjAddr: 0x131A4, symBinAddr: 0x51EA8, symSize: 0x40 }
  - { offset: 0xB502A, size: 0x8, addend: 0x0, symName: __RNvXsq_NtCsaNl6UpbT7bw_4core6resultINtB5_6ResultNtNtCsc29TF2YcYso_3syn5token4ImplNtNtBO_5error5ErrorEINtNtNtB7_3ops9try_trait12FromResidualIBy_NtNtB7_7convert10InfallibleB1h_EE13from_residualBO_, symObjAddr: 0x131E4, symBinAddr: 0x51EE8, symSize: 0x40 }
  - { offset: 0xB50AF, size: 0x8, addend: 0x0, symName: __RNvXsq_NtCsaNl6UpbT7bw_4core6resultINtB5_6ResultNtNtCsc29TF2YcYso_3syn5token4LoopNtNtBO_5error5ErrorEINtNtNtB7_3ops9try_trait12FromResidualIBy_NtNtB7_7convert10InfallibleB1h_EE13from_residualBO_, symObjAddr: 0x13224, symBinAddr: 0x51F28, symSize: 0x40 }
  - { offset: 0xB5134, size: 0x8, addend: 0x0, symName: __RNvXsq_NtCsaNl6UpbT7bw_4core6resultINtB5_6ResultNtNtCsc29TF2YcYso_3syn5token4MoveNtNtBO_5error5ErrorEINtNtNtB7_3ops9try_trait12FromResidualIBy_NtNtB7_7convert10InfallibleB1h_EE13from_residualBO_, symObjAddr: 0x13264, symBinAddr: 0x51F68, symSize: 0x40 }
  - { offset: 0xB51B9, size: 0x8, addend: 0x0, symName: __RNvXsq_NtCsaNl6UpbT7bw_4core6resultINtB5_6ResultNtNtCsc29TF2YcYso_3syn5token4OrEqNtNtBO_5error5ErrorEINtNtNtB7_3ops9try_trait12FromResidualIBy_NtNtB7_7convert10InfallibleB1h_EE13from_residualBO_, symObjAddr: 0x132A4, symBinAddr: 0x51FA8, symSize: 0x40 }
  - { offset: 0xB523E, size: 0x8, addend: 0x0, symName: __RNvXsq_NtCsaNl6UpbT7bw_4core6resultINtB5_6ResultNtNtCsc29TF2YcYso_3syn5token4OrOrNtNtBO_5error5ErrorEINtNtNtB7_3ops9try_trait12FromResidualIBy_NtNtB7_7convert10InfallibleB1h_EE13from_residualBO_, symObjAddr: 0x132E4, symBinAddr: 0x51FE8, symSize: 0x40 }
  - { offset: 0xB52C3, size: 0x8, addend: 0x0, symName: __RNvXsq_NtCsaNl6UpbT7bw_4core6resultINtB5_6ResultNtNtCsc29TF2YcYso_3syn5token4PlusNtNtBO_5error5ErrorEINtNtNtB7_3ops9try_trait12FromResidualIBy_NtNtB7_7convert10InfallibleB1h_EE13from_residualBO_, symObjAddr: 0x13324, symBinAddr: 0x52028, symSize: 0x40 }
  - { offset: 0xB5348, size: 0x8, addend: 0x0, symName: __RNvXsq_NtCsaNl6UpbT7bw_4core6resultINtB5_6ResultNtNtCsc29TF2YcYso_3syn5token4SemiNtNtBO_5error5ErrorEINtNtNtB7_3ops9try_trait12FromResidualIBy_NtNtB7_7convert10InfallibleB1h_EE13from_residualBO_, symObjAddr: 0x133A4, symBinAddr: 0x52068, symSize: 0x40 }
  - { offset: 0xB53CD, size: 0x8, addend: 0x0, symName: __RNvXsq_NtCsaNl6UpbT7bw_4core6resultINtB5_6ResultNtNtCsc29TF2YcYso_3syn5token4StarNtNtBO_5error5ErrorEINtNtNtB7_3ops9try_trait12FromResidualIBy_NtNtB7_7convert10InfallibleB1h_EE13from_residualBO_, symObjAddr: 0x133E4, symBinAddr: 0x520A8, symSize: 0x40 }
  - { offset: 0xB5452, size: 0x8, addend: 0x0, symName: __RNvXsq_NtCsaNl6UpbT7bw_4core6resultINtB5_6ResultNtNtCsc29TF2YcYso_3syn5token4TypeNtNtBO_5error5ErrorEINtNtNtB7_3ops9try_trait12FromResidualIBy_NtNtB7_7convert10InfallibleB1h_EE13from_residualBO_, symObjAddr: 0x13424, symBinAddr: 0x520E8, symSize: 0x40 }
  - { offset: 0xB54D7, size: 0x8, addend: 0x0, symName: __RNvXsq_NtCsaNl6UpbT7bw_4core6resultINtB5_6ResultNtNtCsc29TF2YcYso_3syn5token5AndEqNtNtBO_5error5ErrorEINtNtNtB7_3ops9try_trait12FromResidualIBy_NtNtB7_7convert10InfallibleB1i_EE13from_residualBO_, symObjAddr: 0x13464, symBinAddr: 0x52128, symSize: 0x40 }
  - { offset: 0xB555C, size: 0x8, addend: 0x0, symName: __RNvXsq_NtCsaNl6UpbT7bw_4core6resultINtB5_6ResultNtNtCsc29TF2YcYso_3syn5token5AsyncNtNtBO_5error5ErrorEINtNtNtB7_3ops9try_trait12FromResidualIBy_NtNtB7_7convert10InfallibleB1i_EE13from_residualBO_, symObjAddr: 0x134A4, symBinAddr: 0x52168, symSize: 0x40 }
  - { offset: 0xB55E1, size: 0x8, addend: 0x0, symName: __RNvXsq_NtCsaNl6UpbT7bw_4core6resultINtB5_6ResultNtNtCsc29TF2YcYso_3syn5token5AwaitNtNtBO_5error5ErrorEINtNtNtB7_3ops9try_trait12FromResidualIBy_NtNtB7_7convert10InfallibleB1i_EE13from_residualBO_, symObjAddr: 0x134E4, symBinAddr: 0x521A8, symSize: 0x40 }
  - { offset: 0xB5666, size: 0x8, addend: 0x0, symName: __RNvXsq_NtCsaNl6UpbT7bw_4core6resultINtB5_6ResultNtNtCsc29TF2YcYso_3syn5token5BreakNtNtBO_5error5ErrorEINtNtNtB7_3ops9try_trait12FromResidualIBy_NtNtB7_7convert10InfallibleB1i_EE13from_residualBO_, symObjAddr: 0x13524, symBinAddr: 0x521E8, symSize: 0x40 }
  - { offset: 0xB56EB, size: 0x8, addend: 0x0, symName: __RNvXsq_NtCsaNl6UpbT7bw_4core6resultINtB5_6ResultNtNtCsc29TF2YcYso_3syn5token5CaretNtNtBO_5error5ErrorEINtNtNtB7_3ops9try_trait12FromResidualIBy_NtNtB7_7convert10InfallibleB1i_EE13from_residualBO_, symObjAddr: 0x13564, symBinAddr: 0x52228, symSize: 0x40 }
  - { offset: 0xB5770, size: 0x8, addend: 0x0, symName: __RNvXsq_NtCsaNl6UpbT7bw_4core6resultINtB5_6ResultNtNtCsc29TF2YcYso_3syn5token5ColonNtNtBO_5error5ErrorEINtNtNtB7_3ops9try_trait12FromResidualIBy_NtNtB7_7convert10InfallibleB1i_EE13from_residualBO_, symObjAddr: 0x135A4, symBinAddr: 0x52268, symSize: 0x40 }
  - { offset: 0xB57F5, size: 0x8, addend: 0x0, symName: __RNvXsq_NtCsaNl6UpbT7bw_4core6resultINtB5_6ResultNtNtCsc29TF2YcYso_3syn5token5CommaNtNtBO_5error5ErrorEINtNtNtB7_3ops9try_trait12FromResidualIBy_NtNtB7_7convert10InfallibleB1i_EE13from_residualBO_, symObjAddr: 0x135E4, symBinAddr: 0x522A8, symSize: 0x40 }
  - { offset: 0xB587A, size: 0x8, addend: 0x0, symName: __RNvXsq_NtCsaNl6UpbT7bw_4core6resultINtB5_6ResultNtNtCsc29TF2YcYso_3syn5token5ConstNtNtBO_5error5ErrorEINtNtNtB7_3ops9try_trait12FromResidualIBy_NtNtB7_7convert10InfallibleB1i_EE13from_residualBO_, symObjAddr: 0x13624, symBinAddr: 0x522E8, symSize: 0x40 }
  - { offset: 0xB58FF, size: 0x8, addend: 0x0, symName: __RNvXsq_NtCsaNl6UpbT7bw_4core6resultINtB5_6ResultNtNtCsc29TF2YcYso_3syn5token5CrateNtNtBO_5error5ErrorEINtNtNtB7_3ops9try_trait12FromResidualIBy_NtNtB7_7convert10InfallibleB1i_EE13from_residualBO_, symObjAddr: 0x13664, symBinAddr: 0x52328, symSize: 0x40 }
  - { offset: 0xB5984, size: 0x8, addend: 0x0, symName: __RNvXsq_NtCsaNl6UpbT7bw_4core6resultINtB5_6ResultNtNtCsc29TF2YcYso_3syn5token5MacroNtNtBO_5error5ErrorEINtNtNtB7_3ops9try_trait12FromResidualIBy_NtNtB7_7convert10InfallibleB1i_EE13from_residualBO_, symObjAddr: 0x136E4, symBinAddr: 0x52368, symSize: 0x40 }
  - { offset: 0xB5A09, size: 0x8, addend: 0x0, symName: __RNvXsq_NtCsaNl6UpbT7bw_4core6resultINtB5_6ResultNtNtCsc29TF2YcYso_3syn5token5MatchNtNtBO_5error5ErrorEINtNtNtB7_3ops9try_trait12FromResidualIBy_NtNtB7_7convert10InfallibleB1i_EE13from_residualBO_, symObjAddr: 0x13724, symBinAddr: 0x523A8, symSize: 0x40 }
  - { offset: 0xB5A8E, size: 0x8, addend: 0x0, symName: __RNvXsq_NtCsaNl6UpbT7bw_4core6resultINtB5_6ResultNtNtCsc29TF2YcYso_3syn5token5MinusNtNtBO_5error5ErrorEINtNtNtB7_3ops9try_trait12FromResidualIBy_NtNtB7_7convert10InfallibleB1i_EE13from_residualBO_, symObjAddr: 0x13764, symBinAddr: 0x523E8, symSize: 0x40 }
  - { offset: 0xB5B13, size: 0x8, addend: 0x0, symName: __RNvXsq_NtCsaNl6UpbT7bw_4core6resultINtB5_6ResultNtNtCsc29TF2YcYso_3syn5token5PoundNtNtBO_5error5ErrorEINtNtNtB7_3ops9try_trait12FromResidualIBy_NtNtB7_7convert10InfallibleB1i_EE13from_residualBO_, symObjAddr: 0x137A4, symBinAddr: 0x52428, symSize: 0x40 }
  - { offset: 0xB5B98, size: 0x8, addend: 0x0, symName: __RNvXsq_NtCsaNl6UpbT7bw_4core6resultINtB5_6ResultNtNtCsc29TF2YcYso_3syn5token5ShlEqNtNtBO_5error5ErrorEINtNtNtB7_3ops9try_trait12FromResidualIBy_NtNtB7_7convert10InfallibleB1i_EE13from_residualBO_, symObjAddr: 0x137E4, symBinAddr: 0x52468, symSize: 0x40 }
  - { offset: 0xB5C1D, size: 0x8, addend: 0x0, symName: __RNvXsq_NtCsaNl6UpbT7bw_4core6resultINtB5_6ResultNtNtCsc29TF2YcYso_3syn5token5ShrEqNtNtBO_5error5ErrorEINtNtNtB7_3ops9try_trait12FromResidualIBy_NtNtB7_7convert10InfallibleB1i_EE13from_residualBO_, symObjAddr: 0x13824, symBinAddr: 0x524A8, symSize: 0x40 }
  - { offset: 0xB5CA2, size: 0x8, addend: 0x0, symName: __RNvXsq_NtCsaNl6UpbT7bw_4core6resultINtB5_6ResultNtNtCsc29TF2YcYso_3syn5token5SlashNtNtBO_5error5ErrorEINtNtNtB7_3ops9try_trait12FromResidualIBy_NtNtB7_7convert10InfallibleB1i_EE13from_residualBO_, symObjAddr: 0x13864, symBinAddr: 0x524E8, symSize: 0x40 }
  - { offset: 0xB5D27, size: 0x8, addend: 0x0, symName: __RNvXsq_NtCsaNl6UpbT7bw_4core6resultINtB5_6ResultNtNtCsc29TF2YcYso_3syn5token5TraitNtNtBO_5error5ErrorEINtNtNtB7_3ops9try_trait12FromResidualIBy_NtNtB7_7convert10InfallibleB1i_EE13from_residualBO_, symObjAddr: 0x13924, symBinAddr: 0x52528, symSize: 0x40 }
  - { offset: 0xB5DAC, size: 0x8, addend: 0x0, symName: __RNvXsq_NtCsaNl6UpbT7bw_4core6resultINtB5_6ResultNtNtCsc29TF2YcYso_3syn5token5UnionNtNtBO_5error5ErrorEINtNtNtB7_3ops9try_trait12FromResidualIBy_NtNtB7_7convert10InfallibleB1i_EE13from_residualBO_, symObjAddr: 0x13964, symBinAddr: 0x52568, symSize: 0x40 }
  - { offset: 0xB5E31, size: 0x8, addend: 0x0, symName: __RNvXsq_NtCsaNl6UpbT7bw_4core6resultINtB5_6ResultNtNtCsc29TF2YcYso_3syn5token5WhereNtNtBO_5error5ErrorEINtNtNtB7_3ops9try_trait12FromResidualIBy_NtNtB7_7convert10InfallibleB1i_EE13from_residualBO_, symObjAddr: 0x139A4, symBinAddr: 0x525A8, symSize: 0x40 }
  - { offset: 0xB5EB6, size: 0x8, addend: 0x0, symName: __RNvXsq_NtCsaNl6UpbT7bw_4core6resultINtB5_6ResultNtNtCsc29TF2YcYso_3syn5token5WhileNtNtBO_5error5ErrorEINtNtNtB7_3ops9try_trait12FromResidualIBy_NtNtB7_7convert10InfallibleB1i_EE13from_residualBO_, symObjAddr: 0x139E4, symBinAddr: 0x525E8, symSize: 0x40 }
  - { offset: 0xB5F3B, size: 0x8, addend: 0x0, symName: __RNvXsq_NtCsaNl6UpbT7bw_4core6resultINtB5_6ResultNtNtCsc29TF2YcYso_3syn5token5YieldNtNtBO_5error5ErrorEINtNtNtB7_3ops9try_trait12FromResidualIBy_NtNtB7_7convert10InfallibleB1i_EE13from_residualBO_, symObjAddr: 0x13A24, symBinAddr: 0x52628, symSize: 0x40 }
  - { offset: 0xB5FC0, size: 0x8, addend: 0x0, symName: __RNvXsq_NtCsaNl6UpbT7bw_4core6resultINtB5_6ResultNtNtCsc29TF2YcYso_3syn5token6AndAndNtNtBO_5error5ErrorEINtNtNtB7_3ops9try_trait12FromResidualIBy_NtNtB7_7convert10InfallibleB1j_EE13from_residualBO_, symObjAddr: 0x13A64, symBinAddr: 0x52668, symSize: 0x40 }
  - { offset: 0xB6045, size: 0x8, addend: 0x0, symName: __RNvXsq_NtCsaNl6UpbT7bw_4core6resultINtB5_6ResultNtNtCsc29TF2YcYso_3syn5token6BecomeNtNtBO_5error5ErrorEINtNtNtB7_3ops9try_trait12FromResidualIBy_NtNtB7_7convert10InfallibleB1j_EE13from_residualBO_, symObjAddr: 0x13AA4, symBinAddr: 0x526A8, symSize: 0x40 }
  - { offset: 0xB60CA, size: 0x8, addend: 0x0, symName: __RNvXsq_NtCsaNl6UpbT7bw_4core6resultINtB5_6ResultNtNtCsc29TF2YcYso_3syn5token6DotDotNtNtBO_5error5ErrorEINtNtNtB7_3ops9try_trait12FromResidualIBy_NtNtB7_7convert10InfallibleB1j_EE13from_residualBO_, symObjAddr: 0x13B24, symBinAddr: 0x526E8, symSize: 0x40 }
  - { offset: 0xB614F, size: 0x8, addend: 0x0, symName: __RNvXsq_NtCsaNl6UpbT7bw_4core6resultINtB5_6ResultNtNtCsc29TF2YcYso_3syn5token6ExternNtNtBO_5error5ErrorEINtNtNtB7_3ops9try_trait12FromResidualIBy_NtNtB7_7convert10InfallibleB1j_EE13from_residualBO_, symObjAddr: 0x13B64, symBinAddr: 0x52728, symSize: 0x40 }
  - { offset: 0xB61D4, size: 0x8, addend: 0x0, symName: __RNvXsq_NtCsaNl6UpbT7bw_4core6resultINtB5_6ResultNtNtCsc29TF2YcYso_3syn5token6PlusEqNtNtBO_5error5ErrorEINtNtNtB7_3ops9try_trait12FromResidualIBy_NtNtB7_7convert10InfallibleB1j_EE13from_residualBO_, symObjAddr: 0x13BE4, symBinAddr: 0x52768, symSize: 0x40 }
  - { offset: 0xB6259, size: 0x8, addend: 0x0, symName: __RNvXsq_NtCsaNl6UpbT7bw_4core6resultINtB5_6ResultNtNtCsc29TF2YcYso_3syn5token6RArrowNtNtBO_5error5ErrorEINtNtNtB7_3ops9try_trait12FromResidualIBy_NtNtB7_7convert10InfallibleB1j_EE13from_residualBO_, symObjAddr: 0x13C24, symBinAddr: 0x527A8, symSize: 0x40 }
  - { offset: 0xB62DE, size: 0x8, addend: 0x0, symName: __RNvXsq_NtCsaNl6UpbT7bw_4core6resultINtB5_6ResultNtNtCsc29TF2YcYso_3syn5token6ReturnNtNtBO_5error5ErrorEINtNtNtB7_3ops9try_trait12FromResidualIBy_NtNtB7_7convert10InfallibleB1j_EE13from_residualBO_, symObjAddr: 0x13C64, symBinAddr: 0x527E8, symSize: 0x40 }
  - { offset: 0xB6363, size: 0x8, addend: 0x0, symName: __RNvXsq_NtCsaNl6UpbT7bw_4core6resultINtB5_6ResultNtNtCsc29TF2YcYso_3syn5token6StarEqNtNtBO_5error5ErrorEINtNtNtB7_3ops9try_trait12FromResidualIBy_NtNtB7_7convert10InfallibleB1j_EE13from_residualBO_, symObjAddr: 0x13CA4, symBinAddr: 0x52828, symSize: 0x40 }
  - { offset: 0xB63E8, size: 0x8, addend: 0x0, symName: __RNvXsq_NtCsaNl6UpbT7bw_4core6resultINtB5_6ResultNtNtCsc29TF2YcYso_3syn5token6StaticNtNtBO_5error5ErrorEINtNtNtB7_3ops9try_trait12FromResidualIBy_NtNtB7_7convert10InfallibleB1j_EE13from_residualBO_, symObjAddr: 0x13CE4, symBinAddr: 0x52868, symSize: 0x40 }
  - { offset: 0xB646D, size: 0x8, addend: 0x0, symName: __RNvXsq_NtCsaNl6UpbT7bw_4core6resultINtB5_6ResultNtNtCsc29TF2YcYso_3syn5token6StructNtNtBO_5error5ErrorEINtNtNtB7_3ops9try_trait12FromResidualIBy_NtNtB7_7convert10InfallibleB1j_EE13from_residualBO_, symObjAddr: 0x13D24, symBinAddr: 0x528A8, symSize: 0x40 }
  - { offset: 0xB64F2, size: 0x8, addend: 0x0, symName: __RNvXsq_NtCsaNl6UpbT7bw_4core6resultINtB5_6ResultNtNtCsc29TF2YcYso_3syn5token6UnsafeNtNtBO_5error5ErrorEINtNtNtB7_3ops9try_trait12FromResidualIBy_NtNtB7_7convert10InfallibleB1j_EE13from_residualBO_, symObjAddr: 0x13DA4, symBinAddr: 0x528E8, symSize: 0x40 }
  - { offset: 0xB6577, size: 0x8, addend: 0x0, symName: __RNvXsq_NtCsaNl6UpbT7bw_4core6resultINtB5_6ResultNtNtCsc29TF2YcYso_3syn5token7CaretEqNtNtBO_5error5ErrorEINtNtNtB7_3ops9try_trait12FromResidualIBy_NtNtB7_7convert10InfallibleB1k_EE13from_residualBO_, symObjAddr: 0x13DE4, symBinAddr: 0x52928, symSize: 0x40 }
  - { offset: 0xB65FC, size: 0x8, addend: 0x0, symName: __RNvXsq_NtCsaNl6UpbT7bw_4core6resultINtB5_6ResultNtNtCsc29TF2YcYso_3syn5token7DefaultNtNtBO_5error5ErrorEINtNtNtB7_3ops9try_trait12FromResidualIBy_NtNtB7_7convert10InfallibleB1k_EE13from_residualBO_, symObjAddr: 0x13E24, symBinAddr: 0x52968, symSize: 0x40 }
  - { offset: 0xB6681, size: 0x8, addend: 0x0, symName: __RNvXsq_NtCsaNl6UpbT7bw_4core6resultINtB5_6ResultNtNtCsc29TF2YcYso_3syn5token7MinusEqNtNtBO_5error5ErrorEINtNtNtB7_3ops9try_trait12FromResidualIBy_NtNtB7_7convert10InfallibleB1k_EE13from_residualBO_, symObjAddr: 0x13E64, symBinAddr: 0x529A8, symSize: 0x40 }
  - { offset: 0xB6706, size: 0x8, addend: 0x0, symName: __RNvXsq_NtCsaNl6UpbT7bw_4core6resultINtB5_6ResultNtNtCsc29TF2YcYso_3syn5token7PathSepNtNtBO_5error5ErrorEINtNtNtB7_3ops9try_trait12FromResidualIBy_NtNtB7_7convert10InfallibleB1k_EE13from_residualBO_, symObjAddr: 0x13EA4, symBinAddr: 0x529E8, symSize: 0x40 }
  - { offset: 0xB678B, size: 0x8, addend: 0x0, symName: __RNvXsq_NtCsaNl6UpbT7bw_4core6resultINtB5_6ResultNtNtCsc29TF2YcYso_3syn5token7PercentNtNtBO_5error5ErrorEINtNtNtB7_3ops9try_trait12FromResidualIBy_NtNtB7_7convert10InfallibleB1k_EE13from_residualBO_, symObjAddr: 0x13EE4, symBinAddr: 0x52A28, symSize: 0x40 }
  - { offset: 0xB6810, size: 0x8, addend: 0x0, symName: __RNvXsq_NtCsaNl6UpbT7bw_4core6resultINtB5_6ResultNtNtCsc29TF2YcYso_3syn5token7SlashEqNtNtBO_5error5ErrorEINtNtNtB7_3ops9try_trait12FromResidualIBy_NtNtB7_7convert10InfallibleB1k_EE13from_residualBO_, symObjAddr: 0x13F24, symBinAddr: 0x52A68, symSize: 0x40 }
  - { offset: 0xB6895, size: 0x8, addend: 0x0, symName: __RNvXsq_NtCsaNl6UpbT7bw_4core6resultINtB5_6ResultNtNtCsc29TF2YcYso_3syn5token8ContinueNtNtBO_5error5ErrorEINtNtNtB7_3ops9try_trait12FromResidualIBy_NtNtB7_7convert10InfallibleB1l_EE13from_residualBO_, symObjAddr: 0x14024, symBinAddr: 0x52AA8, symSize: 0x40 }
  - { offset: 0xB691A, size: 0x8, addend: 0x0, symName: __RNvXsq_NtCsaNl6UpbT7bw_4core6resultINtB5_6ResultNtNtCsc29TF2YcYso_3syn5token8DotDotEqNtNtBO_5error5ErrorEINtNtNtB7_3ops9try_trait12FromResidualIBy_NtNtB7_7convert10InfallibleB1l_EE13from_residualBO_, symObjAddr: 0x14064, symBinAddr: 0x52AE8, symSize: 0x40 }
  - { offset: 0xB699F, size: 0x8, addend: 0x0, symName: __RNvXsq_NtCsaNl6UpbT7bw_4core6resultINtB5_6ResultNtNtCsc29TF2YcYso_3syn5token8FatArrowNtNtBO_5error5ErrorEINtNtNtB7_3ops9try_trait12FromResidualIBy_NtNtB7_7convert10InfallibleB1l_EE13from_residualBO_, symObjAddr: 0x140A4, symBinAddr: 0x52B28, symSize: 0x40 }
  - { offset: 0xB6A24, size: 0x8, addend: 0x0, symName: __RNvXsq_NtCsaNl6UpbT7bw_4core6resultINtB5_6ResultNtNtCsc29TF2YcYso_3syn5token8QuestionNtNtBO_5error5ErrorEINtNtNtB7_3ops9try_trait12FromResidualIBy_NtNtB7_7convert10InfallibleB1l_EE13from_residualBO_, symObjAddr: 0x14124, symBinAddr: 0x52B68, symSize: 0x40 }
  - { offset: 0xB6AA9, size: 0x8, addend: 0x0, symName: __RNvXsq_NtCsaNl6UpbT7bw_4core6resultINtB5_6ResultNtNtCsc29TF2YcYso_3syn5token9DotDotDotNtNtBO_5error5ErrorEINtNtNtB7_3ops9try_trait12FromResidualIBy_NtNtB7_7convert10InfallibleB1m_EE13from_residualBO_, symObjAddr: 0x141A4, symBinAddr: 0x52BA8, symSize: 0x40 }
  - { offset: 0xB6B2E, size: 0x8, addend: 0x0, symName: __RNvXsq_NtCsaNl6UpbT7bw_4core6resultINtB5_6ResultNtNtCsc29TF2YcYso_3syn5token9PercentEqNtNtBO_5error5ErrorEINtNtNtB7_3ops9try_trait12FromResidualIBy_NtNtB7_7convert10InfallibleB1m_EE13from_residualBO_, symObjAddr: 0x141E4, symBinAddr: 0x52BE8, symSize: 0x40 }
  - { offset: 0xB6BB3, size: 0x8, addend: 0x0, symName: __RNvXsq_NtCsaNl6UpbT7bw_4core6resultINtB5_6ResultNtNtCsc29TF2YcYso_3syn5token9SelfValueNtNtBO_5error5ErrorEINtNtNtB7_3ops9try_trait12FromResidualIBy_NtNtB7_7convert10InfallibleB1m_EE13from_residualBO_, symObjAddr: 0x14224, symBinAddr: 0x52C28, symSize: 0x40 }
  - { offset: 0xB6C38, size: 0x8, addend: 0x0, symName: __RNvXsq_NtCsaNl6UpbT7bw_4core6resultINtB5_6ResultNtNtCsc29TF2YcYso_3syn8generics10ConstParamNtNtBO_5error5ErrorEINtNtNtB7_3ops9try_trait12FromResidualIBy_NtNtB7_7convert10InfallibleB1r_EE13from_residualBO_, symObjAddr: 0x142AC, symBinAddr: 0x52C68, symSize: 0x48 }
  - { offset: 0xB6CBD, size: 0x8, addend: 0x0, symName: __RNvXsq_NtCsaNl6UpbT7bw_4core6resultINtB5_6ResultNtNtCsc29TF2YcYso_3syn8generics11WhereClauseNtNtBO_5error5ErrorEINtNtNtB7_3ops9try_trait12FromResidualIBy_NtNtB7_7convert10InfallibleB1s_EE13from_residualBO_, symObjAddr: 0x142F4, symBinAddr: 0x52CB0, symSize: 0x48 }
  - { offset: 0xB6D42, size: 0x8, addend: 0x0, symName: __RNvXsq_NtCsaNl6UpbT7bw_4core6resultINtB5_6ResultNtNtCsc29TF2YcYso_3syn8generics12GenericParamNtNtBO_5error5ErrorEINtNtNtB7_3ops9try_trait12FromResidualIBy_NtNtB7_7convert10InfallibleB1t_EE13from_residualBO_, symObjAddr: 0x1433C, symBinAddr: 0x52CF8, symSize: 0x48 }
  - { offset: 0xB6DC7, size: 0x8, addend: 0x0, symName: __RNvXsq_NtCsaNl6UpbT7bw_4core6resultINtB5_6ResultNtNtCsc29TF2YcYso_3syn8generics13LifetimeParamNtNtBO_5error5ErrorEINtNtNtB7_3ops9try_trait12FromResidualIBy_NtNtB7_7convert10InfallibleB1u_EE13from_residualBO_, symObjAddr: 0x14384, symBinAddr: 0x52D40, symSize: 0x48 }
  - { offset: 0xB6E4C, size: 0x8, addend: 0x0, symName: __RNvXsq_NtCsaNl6UpbT7bw_4core6resultINtB5_6ResultNtNtCsc29TF2YcYso_3syn8generics14BoundLifetimesNtNtBO_5error5ErrorEINtNtNtB7_3ops9try_trait12FromResidualIBy_NtNtB7_7convert10InfallibleB1v_EE13from_residualBO_, symObjAddr: 0x143CC, symBinAddr: 0x52D88, symSize: 0x48 }
  - { offset: 0xB6ED1, size: 0x8, addend: 0x0, symName: __RNvXsq_NtCsaNl6UpbT7bw_4core6resultINtB5_6ResultNtNtCsc29TF2YcYso_3syn8generics14PreciseCaptureNtNtBO_5error5ErrorEINtNtNtB7_3ops9try_trait12FromResidualIBy_NtNtB7_7convert10InfallibleB1v_EE13from_residualBO_, symObjAddr: 0x14414, symBinAddr: 0x52DD0, symSize: 0x48 }
  - { offset: 0xB6F56, size: 0x8, addend: 0x0, symName: __RNvXsq_NtCsaNl6UpbT7bw_4core6resultINtB5_6ResultNtNtCsc29TF2YcYso_3syn8generics14TypeParamBoundNtNtBO_5error5ErrorEINtNtNtB7_3ops9try_trait12FromResidualIBy_NtNtB7_7convert10InfallibleB1v_EE13from_residualBO_, symObjAddr: 0x1445C, symBinAddr: 0x52E18, symSize: 0x48 }
  - { offset: 0xB6FDB, size: 0x8, addend: 0x0, symName: __RNvXsq_NtCsaNl6UpbT7bw_4core6resultINtB5_6ResultNtNtCsc29TF2YcYso_3syn8generics14WherePredicateNtNtBO_5error5ErrorEINtNtNtB7_3ops9try_trait12FromResidualIBy_NtNtB7_7convert10InfallibleB1v_EE13from_residualBO_, symObjAddr: 0x144A4, symBinAddr: 0x52E60, symSize: 0x48 }
  - { offset: 0xB7060, size: 0x8, addend: 0x0, symName: __RNvXsq_NtCsaNl6UpbT7bw_4core6resultINtB5_6ResultNtNtCsc29TF2YcYso_3syn8generics8GenericsNtNtBO_5error5ErrorEINtNtNtB7_3ops9try_trait12FromResidualIBy_NtNtB7_7convert10InfallibleB1o_EE13from_residualBO_, symObjAddr: 0x144EC, symBinAddr: 0x52EA8, symSize: 0x48 }
  - { offset: 0xB70E5, size: 0x8, addend: 0x0, symName: __RNvXsq_NtCsaNl6UpbT7bw_4core6resultINtB5_6ResultNtNtCsc29TF2YcYso_3syn8generics9TypeParamNtNtBO_5error5ErrorEINtNtNtB7_3ops9try_trait12FromResidualIBy_NtNtB7_7convert10InfallibleB1p_EE13from_residualBO_, symObjAddr: 0x14534, symBinAddr: 0x52EF0, symSize: 0x48 }
  - { offset: 0xB716A, size: 0x8, addend: 0x0, symName: __RNvXsq_NtCsaNl6UpbT7bw_4core6resultINtB5_6ResultNtNtCsc29TF2YcYso_3syn8lifetime8LifetimeNtNtBO_5error5ErrorEINtNtNtB7_3ops9try_trait12FromResidualIBy_NtNtB7_7convert10InfallibleB1o_EE13from_residualBO_, symObjAddr: 0x1457C, symBinAddr: 0x52F38, symSize: 0x48 }
  - { offset: 0xB71EF, size: 0x8, addend: 0x0, symName: __RNvXsq_NtCsaNl6UpbT7bw_4core6resultINtB5_6ResultNtNtNtCsc29TF2YcYso_3syn4item7parsing15FnArgOrVariadicNtNtBQ_5error5ErrorEINtNtNtB7_3ops9try_trait12FromResidualIBy_NtNtB7_7convert10InfallibleB1C_EE13from_residualBQ_, symObjAddr: 0x145C4, symBinAddr: 0x52F80, symSize: 0x4C }
  - { offset: 0xB7274, size: 0x8, addend: 0x0, symName: __RNvXsq_NtCsaNl6UpbT7bw_4core6resultINtB5_6ResultNtNtNtCsc29TF2YcYso_3syn4item7parsing16FlexibleItemTypeNtNtBQ_5error5ErrorEINtNtNtB7_3ops9try_trait12FromResidualIBy_NtNtB7_7convert10InfallibleB1D_EE13from_residualBQ_, symObjAddr: 0x14610, symBinAddr: 0x52FCC, symSize: 0x48 }
  - { offset: 0xB72F9, size: 0x8, addend: 0x0, symName: __RNvXsq_NtCsaNl6UpbT7bw_4core6resultINtB5_6ResultTINtNtB7_6option6OptionNtNtCsc29TF2YcYso_3syn4path5QSelfENtB19_4PathENtNtB1b_5error5ErrorEINtNtNtB7_3ops9try_trait12FromResidualIBy_NtNtB7_7convert10InfallibleB1R_EE13from_residualB1b_, symObjAddr: 0x14698, symBinAddr: 0x53014, symSize: 0x48 }
  - { offset: 0xB737E, size: 0x8, addend: 0x0, symName: __RNvXsq_NtCsaNl6UpbT7bw_4core6resultINtB5_6ResultTINtNtB7_6option6OptionNtNtCsc29TF2YcYso_3syn5token5ColonEINtNtB1b_10punctuated10PunctuatedNtNtB1b_8generics14TypeParamBoundNtB19_4PlusEENtNtB1b_5error5ErrorEINtNtNtB7_3ops9try_trait12FromResidualIBy_NtNtB7_7convert10InfallibleB2X_EE13from_residualB1b_, symObjAddr: 0x146E0, symBinAddr: 0x5305C, symSize: 0x48 }
  - { offset: 0xB7403, size: 0x8, addend: 0x0, symName: __RNvXsq_NtCsaNl6UpbT7bw_4core6resultINtB5_6ResultTINtNtB7_6option6OptionNtNtCsc29TF2YcYso_3syn8generics11WhereClauseENtNtB1b_4data11FieldsNamedENtNtB1b_5error5ErrorEINtNtNtB7_3ops9try_trait12FromResidualIBy_NtNtB7_7convert10InfallibleB2h_EE13from_residualB1b_, symObjAddr: 0x14728, symBinAddr: 0x530A4, symSize: 0x48 }
  - { offset: 0xB7488, size: 0x8, addend: 0x0, symName: __RNvXsq_NtCsaNl6UpbT7bw_4core6resultINtB5_6ResultTINtNtB7_6option6OptionNtNtCsc29TF2YcYso_3syn8generics11WhereClauseENtNtB1b_4data6FieldsIBM_NtNtB1b_5token4SemiEENtNtB1b_5error5ErrorEINtNtNtB7_3ops9try_trait12FromResidualIBy_NtNtB7_7convert10InfallibleB2z_EE13from_residualB1b_, symObjAddr: 0x14770, symBinAddr: 0x530EC, symSize: 0x48 }
  - { offset: 0xB750D, size: 0x8, addend: 0x0, symName: __RNvXsq_NtCsaNl6UpbT7bw_4core6resultINtB5_6ResultTINtNtB7_6option6OptionNtNtCsc29TF2YcYso_3syn8generics11WhereClauseENtNtB1b_5token5BraceINtNtB1b_10punctuated10PunctuatedNtNtB1b_4data7VariantNtB1S_5CommaEENtNtB1b_5error5ErrorEINtNtNtB7_3ops9try_trait12FromResidualIBy_NtNtB7_7convert10InfallibleB3g_EE13from_residualB1b_, symObjAddr: 0x147B8, symBinAddr: 0x53134, symSize: 0x48 }
  - { offset: 0xB7592, size: 0x8, addend: 0x0, symName: __RNvXsq_NtCsaNl6UpbT7bw_4core6resultINtB5_6ResultTINtNtCsc29TF2YcYso_3syn10punctuated10PunctuatedNtNtBQ_4item5FnArgNtNtBQ_5token5CommaEINtNtB7_6option6OptionNtB1y_8VariadicEENtNtBQ_5error5ErrorEINtNtNtB7_3ops9try_trait12FromResidualIBy_NtNtB7_7convert10InfallibleB2L_EE13from_residualBQ_, symObjAddr: 0x14800, symBinAddr: 0x5317C, symSize: 0x48 }
  - { offset: 0xB7617, size: 0x8, addend: 0x0, symName: __RNvXsq_NtCsaNl6UpbT7bw_4core6resultINtB5_6ResultTINtNtCsiTraAjBDcu4_5alloc3vec3VecNtNtCsc29TF2YcYso_3syn4attr9AttributeENtNtB1m_11restriction10VisibilityNtNtB1m_5token5TraitNtCshnvkK9b4wzu_11proc_macro25IdentNtNtB1m_8generics8GenericsENtNtB1m_5error5ErrorEINtNtNtB7_3ops9try_trait12FromResidualIBy_NtNtB7_7convert10InfallibleB3L_EE13from_residualB1m_, symObjAddr: 0x14848, symBinAddr: 0x531C4, symSize: 0x48 }
  - { offset: 0xB769C, size: 0x8, addend: 0x0, symName: __RNvXsq_NtCsaNl6UpbT7bw_4core6resultINtB5_6ResultTNtNtCsc29TF2YcYso_3syn3mac14MacroDelimiterNtCshnvkK9b4wzu_11proc_macro211TokenStreamENtNtBP_5error5ErrorEINtNtNtB7_3ops9try_trait12FromResidualIBy_NtNtB7_7convert10InfallibleB28_EE13from_residualBP_, symObjAddr: 0x148D8, symBinAddr: 0x5320C, symSize: 0x48 }
  - { offset: 0xB7721, size: 0x8, addend: 0x0, symName: __RNvXsq_NtCsaNl6UpbT7bw_4core6resultINtB5_6ResultTNtNtCshnvkK9b4wzu_11proc_macro25extra9DelimSpanNtNtCsc29TF2YcYso_3syn5parse11ParseBufferENtNtB1A_5error5ErrorEINtNtNtB7_3ops9try_trait12FromResidualIBy_NtNtB7_7convert10InfallibleB2c_EE13from_residualB1A_, symObjAddr: 0x14920, symBinAddr: 0x53254, symSize: 0x48 }
  - { offset: 0xB77A6, size: 0x8, addend: 0x0, symName: __RNvXsq_NtCsaNl6UpbT7bw_4core6resultINtB5_6ResultbNtNtCsc29TF2YcYso_3syn5error5ErrorEINtNtNtB7_3ops9try_trait12FromResidualIBy_NtNtB7_7convert10InfallibleBL_EE13from_residualBP_, symObjAddr: 0x14968, symBinAddr: 0x5329C, symSize: 0x40 }
  - { offset: 0xB782B, size: 0x8, addend: 0x0, symName: __RNvXsq_NtCsaNl6UpbT7bw_4core6resultINtB5_6ResultuNtNtCsc29TF2YcYso_3syn5error5ErrorEINtNtNtB7_3ops9try_trait12FromResidualIBy_NtNtB7_7convert10InfallibleBL_EE13from_residualBP_, symObjAddr: 0x149A8, symBinAddr: 0x532DC, symSize: 0x40 }
  - { offset: 0xBCAD8, size: 0x8, addend: 0x0, symName: __RNvXs1_NtCsaNl6UpbT7bw_4core7convertNtNtCsiTraAjBDcu4_5alloc6string6StringINtB5_4IntoINtNtBC_3vec3VechEE4intoCsc29TF2YcYso_3syn, symObjAddr: 0x6D04, symBinAddr: 0x46A3C, symSize: 0x14 }
  - { offset: 0xC4C7E, size: 0x8, addend: 0x0, symName: __RNvXss_NtCsiTraAjBDcu4_5alloc6stringNtB5_6StringNtNtNtCsaNl6UpbT7bw_4core3ops5deref5Deref5derefCsc29TF2YcYso_3syn, symObjAddr: 0x149E8, symBinAddr: 0x5331C, symSize: 0x24 }
  - { offset: 0xC4CF7, size: 0x8, addend: 0x0, symName: __RNvXs1U_NtCsiTraAjBDcu4_5alloc6stringReNtB6_12SpecToString14spec_to_stringCsc29TF2YcYso_3syn, symObjAddr: 0x6CA8, symBinAddr: 0x469E0, symSize: 0x5C }
  - { offset: 0xC4E02, size: 0x8, addend: 0x0, symName: __RNvXs1i_NtCsiTraAjBDcu4_5alloc6stringNtB6_13FromUtf8ErrorNtNtCsaNl6UpbT7bw_4core3fmt5Debug3fmtCsc29TF2YcYso_3syn, symObjAddr: 0x6D44, symBinAddr: 0x46A50, symSize: 0x88 }
  - { offset: 0xC4E7F, size: 0x8, addend: 0x0, symName: __RNvXs1p_NtCsiTraAjBDcu4_5alloc6stringNtB6_6StringINtNtCsaNl6UpbT7bw_4core3cmp9PartialEqReE2eqCsc29TF2YcYso_3syn, symObjAddr: 0x6DCC, symBinAddr: 0x46AD8, symSize: 0xD0 }
  - { offset: 0xC50C1, size: 0x8, addend: 0x0, symName: __RNvXsC_NtCsiTraAjBDcu4_5alloc6stringNtB5_6StringNtB5_12SpecToString14spec_to_stringCsc29TF2YcYso_3syn, symObjAddr: 0x6F44, symBinAddr: 0x46C50, symSize: 0x2C }
  - { offset: 0xC5113, size: 0x8, addend: 0x0, symName: __RNvXsV_NtCsiTraAjBDcu4_5alloc6stringNtB5_6StringNtNtCsaNl6UpbT7bw_4core3fmt5Write10write_charCsc29TF2YcYso_3syn, symObjAddr: 0x6F70, symBinAddr: 0x46C7C, symSize: 0x38 }
  - { offset: 0xC5150, size: 0x8, addend: 0x0, symName: __RNvXsV_NtCsiTraAjBDcu4_5alloc6stringNtB5_6StringNtNtCsaNl6UpbT7bw_4core3fmt5Write9write_strCsc29TF2YcYso_3syn, symObjAddr: 0x6FA8, symBinAddr: 0x46CB4, symSize: 0x40 }
  - { offset: 0xC5193, size: 0x8, addend: 0x0, symName: __RNvXsm_NtCsiTraAjBDcu4_5alloc6stringNtB5_6StringNtNtCsaNl6UpbT7bw_4core3fmt5Debug3fmtCsc29TF2YcYso_3syn, symObjAddr: 0x7014, symBinAddr: 0x46D20, symSize: 0x88 }
  - { offset: 0xC52F8, size: 0x8, addend: 0x0, symName: __RNvXsw_NtCsiTraAjBDcu4_5alloc6stringNtB5_6StringNtB5_8ToString9to_stringCsc29TF2YcYso_3syn, symObjAddr: 0x14A0C, symBinAddr: 0x53340, symSize: 0x24 }
  - { offset: 0xC532F, size: 0x8, addend: 0x0, symName: __RNvXsw_NtCsiTraAjBDcu4_5alloc6stringReNtB5_8ToString9to_stringCsc29TF2YcYso_3syn, symObjAddr: 0x14A30, symBinAddr: 0x53364, symSize: 0x24 }
  - { offset: 0xC53B7, size: 0x8, addend: 0x0, symName: __RNvXNvMs_NtNtCsiTraAjBDcu4_5alloc3ffi5c_strNtB7_7CString3newNtNtBb_6string6StringNtB2_11SpecNewImpl13spec_new_implCsc29TF2YcYso_3syn, symObjAddr: 0x6AF8, symBinAddr: 0x46860, symSize: 0x180 }
  - { offset: 0xC5678, size: 0x8, addend: 0x0, symName: __RNvXsA_NtCsiTraAjBDcu4_5alloc4syncINtB5_3ArcNtNtCsht3nMU9UgFu_3std6thread5InnerENtNtNtCsaNl6UpbT7bw_4core3ops4drop4Drop4dropCsc29TF2YcYso_3syn, symObjAddr: 0x6E9C, symBinAddr: 0x46BA8, symSize: 0xA8 }
  - { offset: 0xCA9F4, size: 0x8, addend: 0x0, symName: __RNvNtNtCsc29TF2YcYso_3syn5ident7parsing15accept_as_ident, symObjAddr: 0x14A94, symBinAddr: 0x533C8, symSize: 0xE74 }
  - { offset: 0xCAA2A, size: 0x8, addend: 0x0, symName: __RNCNvXNtNtCsc29TF2YcYso_3syn5ident7parsingNtCshnvkK9b4wzu_11proc_macro25IdentNtNtB8_5parse5Parse5parse0B8_, symObjAddr: 0x15908, symBinAddr: 0x5423C, symSize: 0x2DC }
  - { offset: 0xCAAB4, size: 0x8, addend: 0x0, symName: __RNvNtCsc29TF2YcYso_3syn4meta15parse_meta_path, symObjAddr: 0x15CB0, symBinAddr: 0x54518, symSize: 0x5B8 }
  - { offset: 0xCABFB, size: 0x8, addend: 0x0, symName: __RNvXNtCsc29TF2YcYso_3syn5printINtB2_15TokensOrDefaultNtNtB4_5token2AsENtNtCs4EAaWzSXu1l_5quote9to_tokens8ToTokens9to_tokensB4_, symObjAddr: 0x16268, symBinAddr: 0x54AD0, symSize: 0xC0 }
  - { offset: 0xCAC57, size: 0x8, addend: 0x0, symName: __RNvXNtCsc29TF2YcYso_3syn5printINtB2_15TokensOrDefaultNtNtB4_5token2EqENtNtCs4EAaWzSXu1l_5quote9to_tokens8ToTokens9to_tokensB4_, symObjAddr: 0x16328, symBinAddr: 0x54B90, symSize: 0xC4 }
  - { offset: 0xCACB3, size: 0x8, addend: 0x0, symName: __RNvXNtCsc29TF2YcYso_3syn5printINtB2_15TokensOrDefaultNtNtB4_5token2GtENtNtCs4EAaWzSXu1l_5quote9to_tokens8ToTokens9to_tokensB4_, symObjAddr: 0x163EC, symBinAddr: 0x54C54, symSize: 0xC4 }
  - { offset: 0xCAD0F, size: 0x8, addend: 0x0, symName: __RNvXNtCsc29TF2YcYso_3syn5printINtB2_15TokensOrDefaultNtNtB4_5token2LtENtNtCs4EAaWzSXu1l_5quote9to_tokens8ToTokens9to_tokensB4_, symObjAddr: 0x164B0, symBinAddr: 0x54D18, symSize: 0xC4 }
  - { offset: 0xCAD6B, size: 0x8, addend: 0x0, symName: __RNvXNtCsc29TF2YcYso_3syn5printINtB2_15TokensOrDefaultNtNtB4_5token4SemiENtNtCs4EAaWzSXu1l_5quote9to_tokens8ToTokens9to_tokensB4_, symObjAddr: 0x16574, symBinAddr: 0x54DDC, symSize: 0xC4 }
  - { offset: 0xCADC7, size: 0x8, addend: 0x0, symName: __RNvXNtCsc29TF2YcYso_3syn5printINtB2_15TokensOrDefaultNtNtB4_5token5ColonENtNtCs4EAaWzSXu1l_5quote9to_tokens8ToTokens9to_tokensB4_, symObjAddr: 0x16638, symBinAddr: 0x54EA0, symSize: 0xC4 }
  - { offset: 0xCAE23, size: 0x8, addend: 0x0, symName: __RNvXNtCsc29TF2YcYso_3syn5printINtB2_15TokensOrDefaultNtNtB4_5token5ConstENtNtCs4EAaWzSXu1l_5quote9to_tokens8ToTokens9to_tokensB4_, symObjAddr: 0x166FC, symBinAddr: 0x54F64, symSize: 0xC0 }
  - { offset: 0xCAE7F, size: 0x8, addend: 0x0, symName: __RNvXNtCsc29TF2YcYso_3syn5printINtB2_15TokensOrDefaultNtNtB4_5token7PathSepENtNtCs4EAaWzSXu1l_5quote9to_tokens8ToTokens9to_tokensB4_, symObjAddr: 0x167BC, symBinAddr: 0x55024, symSize: 0xC4 }
  - { offset: 0xCB542, size: 0x8, addend: 0x0, symName: __RNvXsg_NtCsht3nMU9UgFu_3std6threadNtB5_8ThreadIdNtNtCsaNl6UpbT7bw_4core3cmp9PartialEq2eqCsc29TF2YcYso_3syn, symObjAddr: 0x6FE8, symBinAddr: 0x46CF4, symSize: 0x2C }
  - { offset: 0xCB62D, size: 0x8, addend: 0x0, symName: __RINvMNtCsaNl6UpbT7bw_4core6resultINtB3_6ResultINtNtB5_6option6OptionNtNtCsc29TF2YcYso_3syn4item7UseTreeENtNtB18_5error5ErrorE3mapB14_NvMBL_BI_6unwrapEB18_, symObjAddr: 0x1A4, symBinAddr: 0x402C0, symSize: 0xC8 }
  - { offset: 0xCB6F0, size: 0x8, addend: 0x0, symName: __RINvMNtCsaNl6UpbT7bw_4core6resultINtB3_6ResultINtNtB5_6option6OptionNtNtCsc29TF2YcYso_3syn4item9SignatureENtNtB18_5error5ErrorE3mapB14_NvMBL_BI_6unwrapEB18_, symObjAddr: 0x338, symBinAddr: 0x40388, symSize: 0xC8 }
  - { offset: 0xCB79B, size: 0x8, addend: 0x0, symName: __RINvMNtCsaNl6UpbT7bw_4core6resultINtB3_6ResultINtNtB5_6option6OptionNtNtCsc29TF2YcYso_3syn8generics10TraitBoundENtNtB18_5error5ErrorE3mapB14_NvMBL_BI_6unwrapEB18_, symObjAddr: 0x400, symBinAddr: 0x40450, symSize: 0xD8 }
  - { offset: 0xCB846, size: 0x8, addend: 0x0, symName: __RINvMNtCsaNl6UpbT7bw_4core6resultINtB3_6ResultNtCshnvkK9b4wzu_11proc_macro211TokenStreamNtNtCsc29TF2YcYso_3syn5error5ErrorE3mapNtNtB1s_3pat3PatNcNtB21_8Verbatim0EB1s_, symObjAddr: 0x4D8, symBinAddr: 0x40528, symSize: 0xC8 }
  - { offset: 0xCB8F1, size: 0x8, addend: 0x0, symName: __RINvMNtCsaNl6UpbT7bw_4core6resultINtB3_6ResultNtCshnvkK9b4wzu_11proc_macro25IdentNtNtCsc29TF2YcYso_3syn5error5ErrorE3mapINtNtB5_6option6OptionBI_ENcNtB1U_4Some0EB1l_, symObjAddr: 0x5A0, symBinAddr: 0x405F0, symSize: 0xAC }
  - { offset: 0xCB99C, size: 0x8, addend: 0x0, symName: __RINvMNtCsaNl6UpbT7bw_4core6resultINtB3_6ResultNtCshnvkK9b4wzu_11proc_macro25IdentNtNtCsc29TF2YcYso_3syn5error5ErrorE3mapNtNtB1l_4expr6MemberNcNtB1U_5Named0EB1l_, symObjAddr: 0x64C, symBinAddr: 0x4069C, symSize: 0xAC }
  - { offset: 0xCBA47, size: 0x8, addend: 0x0, symName: __RINvMNtCsaNl6UpbT7bw_4core6resultINtB3_6ResultNtCshnvkK9b4wzu_11proc_macro25IdentNtNtCsc29TF2YcYso_3syn5error5ErrorE3mapNtNtB1l_8generics13CapturedParamNcNtB1U_5Ident0EB1l_, symObjAddr: 0x6F8, symBinAddr: 0x40748, symSize: 0xAC }
  - { offset: 0xCBAF2, size: 0x8, addend: 0x0, symName: __RINvMNtCsaNl6UpbT7bw_4core6resultINtB3_6ResultNtNtCsc29TF2YcYso_3syn2ty13TypeImplTraitNtNtBM_5error5ErrorE3mapNtBK_4TypeNcNtB1K_9ImplTrait0EBM_, symObjAddr: 0x7A4, symBinAddr: 0x407F4, symSize: 0xD0 }
  - { offset: 0xCBB9D, size: 0x8, addend: 0x0, symName: __RINvMNtCsaNl6UpbT7bw_4core6resultINtB3_6ResultNtNtCsc29TF2YcYso_3syn2ty13TypeReferenceNtNtBM_5error5ErrorE3mapNtBK_4TypeNcNtB1K_9Reference0EBM_, symObjAddr: 0x874, symBinAddr: 0x408C4, symSize: 0xCC }
  - { offset: 0xCBC48, size: 0x8, addend: 0x0, symName: __RINvMNtCsaNl6UpbT7bw_4core6resultINtB3_6ResultNtNtCsc29TF2YcYso_3syn2ty15TypeTraitObjectNtNtBM_5error5ErrorE3mapNtBK_4TypeNcNtB1M_11TraitObject0EBM_, symObjAddr: 0x940, symBinAddr: 0x40990, symSize: 0xD0 }
  - { offset: 0xCBCF3, size: 0x8, addend: 0x0, symName: __RINvMNtCsaNl6UpbT7bw_4core6resultINtB3_6ResultNtNtCsc29TF2YcYso_3syn2ty3AbiNtNtBM_5error5ErrorE3mapINtNtB5_6option6OptionBI_ENcNtB1z_4Some0EBM_, symObjAddr: 0xA10, symBinAddr: 0x40A60, symSize: 0xA4 }
  - { offset: 0xCBD9E, size: 0x8, addend: 0x0, symName: __RINvMNtCsaNl6UpbT7bw_4core6resultINtB3_6ResultNtNtCsc29TF2YcYso_3syn2ty4TypeNtNtBM_5error5ErrorE3mapINtNtCsiTraAjBDcu4_5alloc5boxed3BoxBI_ENvMB1D_B1A_3newEBM_, symObjAddr: 0xAB4, symBinAddr: 0x40B04, symSize: 0xB8 }
  - { offset: 0xCBE49, size: 0x8, addend: 0x0, symName: __RINvMNtCsaNl6UpbT7bw_4core6resultINtB3_6ResultNtNtCsc29TF2YcYso_3syn2ty7TypePtrNtNtBM_5error5ErrorE3mapNtBK_4TypeNcNtB1D_3Ptr0EBM_, symObjAddr: 0xB6C, symBinAddr: 0x40BBC, symSize: 0xC0 }
  - { offset: 0xCBEF4, size: 0x8, addend: 0x0, symName: __RINvMNtCsaNl6UpbT7bw_4core6resultINtB3_6ResultNtNtCsc29TF2YcYso_3syn2ty9TypeInferNtNtBM_5error5ErrorE3mapNtBK_4TypeNcNtB1F_5Infer0EBM_, symObjAddr: 0xC2C, symBinAddr: 0x40C7C, symSize: 0xC4 }
  - { offset: 0xCBF9F, size: 0x8, addend: 0x0, symName: __RINvMNtCsaNl6UpbT7bw_4core6resultINtB3_6ResultNtNtCsc29TF2YcYso_3syn2ty9TypeNeverNtNtBM_5error5ErrorE3mapNtBK_4TypeNcNtB1F_5Never0EBM_, symObjAddr: 0xCF0, symBinAddr: 0x40D40, symSize: 0xC4 }
  - { offset: 0xCC04A, size: 0x8, addend: 0x0, symName: __RINvMNtCsaNl6UpbT7bw_4core6resultINtB3_6ResultNtNtCsc29TF2YcYso_3syn3pat12PatReferenceNtNtBM_5error5ErrorE3mapNtBK_3PatNcNtB1K_9Reference0EBM_, symObjAddr: 0xDB4, symBinAddr: 0x40E04, symSize: 0xE0 }
  - { offset: 0xCC0F5, size: 0x8, addend: 0x0, symName: __RINvMNtCsaNl6UpbT7bw_4core6resultINtB3_6ResultNtNtCsc29TF2YcYso_3syn3pat14PatTupleStructNtNtBM_5error5ErrorE3mapNtBK_3PatNcNtB1M_11TupleStruct0EBM_, symObjAddr: 0xE94, symBinAddr: 0x40EE4, symSize: 0xE0 }
  - { offset: 0xCC1B8, size: 0x8, addend: 0x0, symName: __RINvMNtCsaNl6UpbT7bw_4core6resultINtB3_6ResultNtNtCsc29TF2YcYso_3syn3pat7PatWildNtNtBM_5error5ErrorE3mapNtBK_3PatNcNtB1E_4Wild0EBM_, symObjAddr: 0x1034, symBinAddr: 0x40FC4, symSize: 0xC8 }
  - { offset: 0xCC263, size: 0x8, addend: 0x0, symName: __RINvMNtCsaNl6UpbT7bw_4core6resultINtB3_6ResultNtNtCsc29TF2YcYso_3syn3pat8PatIdentNtNtBM_5error5ErrorE3mapNtBK_3PatNcNtB1F_5Ident0EBM_, symObjAddr: 0x10FC, symBinAddr: 0x4108C, symSize: 0xE0 }
  - { offset: 0xCC30E, size: 0x8, addend: 0x0, symName: __RINvMNtCsaNl6UpbT7bw_4core6resultINtB3_6ResultNtNtCsc29TF2YcYso_3syn3pat8PatSliceNtNtBM_5error5ErrorE3mapNtBK_3PatNcNtB1F_5Slice0EBM_, symObjAddr: 0x11DC, symBinAddr: 0x4116C, symSize: 0xE0 }
  - { offset: 0xCC3B9, size: 0x8, addend: 0x0, symName: __RINvMNtCsaNl6UpbT7bw_4core6resultINtB3_6ResultNtNtCsc29TF2YcYso_3syn3pat9PatStructNtNtBM_5error5ErrorE3mapNtBK_3PatNcNtB1G_6Struct0EBM_, symObjAddr: 0x12BC, symBinAddr: 0x4124C, symSize: 0xDC }
  - { offset: 0xCC464, size: 0x8, addend: 0x0, symName: __RINvMNtCsaNl6UpbT7bw_4core6resultINtB3_6ResultNtNtCsc29TF2YcYso_3syn4attr13MetaNameValueNtNtBM_5error5ErrorE3mapNtBK_4MetaNcNtB1M_9NameValue0EBM_, symObjAddr: 0x1398, symBinAddr: 0x41328, symSize: 0xD4 }
  - { offset: 0xCC50F, size: 0x8, addend: 0x0, symName: __RINvMNtCsaNl6UpbT7bw_4core6resultINtB3_6ResultNtNtCsc29TF2YcYso_3syn4attr8MetaListNtNtBM_5error5ErrorE3mapNtBK_4MetaNcNtB1G_4List0EBM_, symObjAddr: 0x146C, symBinAddr: 0x413FC, symSize: 0xDC }
  - { offset: 0xCC5BA, size: 0x8, addend: 0x0, symName: __RINvMNtCsaNl6UpbT7bw_4core6resultINtB3_6ResultNtNtCsc29TF2YcYso_3syn4expr10ExprReturnNtNtBM_5error5ErrorE3mapNtBK_4ExprNcNtB1J_6Return0EBM_, symObjAddr: 0x1548, symBinAddr: 0x414D8, symSize: 0xD0 }
  - { offset: 0xCC665, size: 0x8, addend: 0x0, symName: __RINvMNtCsaNl6UpbT7bw_4core6resultINtB3_6ResultNtNtCsc29TF2YcYso_3syn4expr10ExprStructNtNtBM_5error5ErrorE3mapNtBK_4ExprNcNtB1J_6Struct0EBM_, symObjAddr: 0x1618, symBinAddr: 0x415A8, symSize: 0xD0 }
  - { offset: 0xCC710, size: 0x8, addend: 0x0, symName: __RINvMNtCsaNl6UpbT7bw_4core6resultINtB3_6ResultNtNtCsc29TF2YcYso_3syn4expr10ExprUnsafeNtNtBM_5error5ErrorE3mapNtBK_4ExprNcNtB1J_6Unsafe0EBM_, symObjAddr: 0x16E8, symBinAddr: 0x41678, symSize: 0xD0 }
  - { offset: 0xCC7BB, size: 0x8, addend: 0x0, symName: __RINvMNtCsaNl6UpbT7bw_4core6resultINtB3_6ResultNtNtCsc29TF2YcYso_3syn4expr11ExprClosureNtNtBM_5error5ErrorE3mapNtBK_4ExprNcNtB1K_7Closure0EBM_, symObjAddr: 0x17B8, symBinAddr: 0x41748, symSize: 0xD0 }
  - { offset: 0xCC866, size: 0x8, addend: 0x0, symName: __RINvMNtCsaNl6UpbT7bw_4core6resultINtB3_6ResultNtNtCsc29TF2YcYso_3syn4expr11ExprForLoopNtNtBM_5error5ErrorE3mapNtBK_4ExprNcNtB1K_7ForLoop0EBM_, symObjAddr: 0x1888, symBinAddr: 0x41818, symSize: 0xD0 }
  - { offset: 0xCC911, size: 0x8, addend: 0x0, symName: __RINvMNtCsaNl6UpbT7bw_4core6resultINtB3_6ResultNtNtCsc29TF2YcYso_3syn4expr12ExprContinueNtNtBM_5error5ErrorE3mapNtBK_4ExprNcNtB1L_8Continue0EBM_, symObjAddr: 0x1958, symBinAddr: 0x418E8, symSize: 0xD0 }
  - { offset: 0xCC9BC, size: 0x8, addend: 0x0, symName: __RINvMNtCsaNl6UpbT7bw_4core6resultINtB3_6ResultNtNtCsc29TF2YcYso_3syn4expr12ExprTryBlockNtNtBM_5error5ErrorE3mapNtBK_4ExprNcNtB1L_8TryBlock0EBM_, symObjAddr: 0x1A28, symBinAddr: 0x419B8, symSize: 0xD0 }
  - { offset: 0xCCA67, size: 0x8, addend: 0x0, symName: __RINvMNtCsaNl6UpbT7bw_4core6resultINtB3_6ResultNtNtCsc29TF2YcYso_3syn4expr4ExprNtNtBM_5error5ErrorE3mapINtNtCsiTraAjBDcu4_5alloc5boxed3BoxBI_ENvMB1F_B1C_3newEBM_, symObjAddr: 0x1AF8, symBinAddr: 0x41A88, symSize: 0xB8 }
  - { offset: 0xCCB12, size: 0x8, addend: 0x0, symName: __RINvMNtCsaNl6UpbT7bw_4core6resultINtB3_6ResultNtNtCsc29TF2YcYso_3syn4expr4ExprNtNtBM_5error5ErrorE3mapNtNtBM_4path15GenericArgumentNcNtB1C_5Const0EBM_, symObjAddr: 0x1BB0, symBinAddr: 0x41B40, symSize: 0xD8 }
  - { offset: 0xCCBBD, size: 0x8, addend: 0x0, symName: __RINvMNtCsaNl6UpbT7bw_4core6resultINtB3_6ResultNtNtCsc29TF2YcYso_3syn4expr5IndexNtNtBM_5error5ErrorE3mapNtBK_6MemberNcNtB1D_7Unnamed0EBM_, symObjAddr: 0x1C88, symBinAddr: 0x41C18, symSize: 0xA4 }
  - { offset: 0xCCC5D, size: 0x8, addend: 0x0, symName: __RINvMNtCsaNl6UpbT7bw_4core6resultINtB3_6ResultNtNtCsc29TF2YcYso_3syn4expr5IndexNtNtBM_5error5ErrorE7map_errB1f_NCNvNtBK_7parsing11multi_index0EBM_, symObjAddr: 0x1D2C, symBinAddr: 0x41CBC, symSize: 0xB8 }
  - { offset: 0xCCD08, size: 0x8, addend: 0x0, symName: __RINvMNtCsaNl6UpbT7bw_4core6resultINtB3_6ResultNtNtCsc29TF2YcYso_3syn4expr5LabelNtNtBM_5error5ErrorE3mapINtNtB5_6option6OptionBI_ENcNtB1D_4Some0EBM_, symObjAddr: 0x1DE4, symBinAddr: 0x41D74, symSize: 0xC4 }
  - { offset: 0xCCDB3, size: 0x8, addend: 0x0, symName: __RINvMNtCsaNl6UpbT7bw_4core6resultINtB3_6ResultNtNtCsc29TF2YcYso_3syn4expr6ExprIfNtNtBM_5error5ErrorE3mapNtBK_4ExprNcNtB1E_2If0EBM_, symObjAddr: 0x1EA8, symBinAddr: 0x41E38, symSize: 0xD0 }
  - { offset: 0xCCE5E, size: 0x8, addend: 0x0, symName: __RINvMNtCsaNl6UpbT7bw_4core6resultINtB3_6ResultNtNtCsc29TF2YcYso_3syn4expr7ExprLetNtNtBM_5error5ErrorE3mapNtBK_4ExprNcNtB1F_3Let0EBM_, symObjAddr: 0x1F78, symBinAddr: 0x41F08, symSize: 0xD0 }
  - { offset: 0xCCF09, size: 0x8, addend: 0x0, symName: __RINvMNtCsaNl6UpbT7bw_4core6resultINtB3_6ResultNtNtCsc29TF2YcYso_3syn4expr7ExprLitNtNtBM_5error5ErrorE3mapNtBK_4ExprNcNtB1F_3Lit0EBM_, symObjAddr: 0x2048, symBinAddr: 0x41FD8, symSize: 0xD0 }
  - { offset: 0xCCFB4, size: 0x8, addend: 0x0, symName: __RINvMNtCsaNl6UpbT7bw_4core6resultINtB3_6ResultNtNtCsc29TF2YcYso_3syn4expr8ExprLoopNtNtBM_5error5ErrorE3mapNtBK_4ExprNcNtB1G_4Loop0EBM_, symObjAddr: 0x2118, symBinAddr: 0x420A8, symSize: 0xD0 }
  - { offset: 0xCD05F, size: 0x8, addend: 0x0, symName: __RINvMNtCsaNl6UpbT7bw_4core6resultINtB3_6ResultNtNtCsc29TF2YcYso_3syn4expr9ExprAsyncNtNtBM_5error5ErrorE3mapNtBK_4ExprNcNtB1H_5Async0EBM_, symObjAddr: 0x21E8, symBinAddr: 0x42178, symSize: 0xD0 }
  - { offset: 0xCD10A, size: 0x8, addend: 0x0, symName: __RINvMNtCsaNl6UpbT7bw_4core6resultINtB3_6ResultNtNtCsc29TF2YcYso_3syn4expr9ExprBlockNtNtBM_5error5ErrorE3mapNtBK_4ExprNcNtB1H_5Block0EBM_, symObjAddr: 0x22B8, symBinAddr: 0x42248, symSize: 0xD0 }
  - { offset: 0xCD1B5, size: 0x8, addend: 0x0, symName: __RINvMNtCsaNl6UpbT7bw_4core6resultINtB3_6ResultNtNtCsc29TF2YcYso_3syn4expr9ExprBreakNtNtBM_5error5ErrorE3mapNtBK_4ExprNcNtB1H_5Break0EBM_, symObjAddr: 0x2388, symBinAddr: 0x42318, symSize: 0xD0 }
  - { offset: 0xCD260, size: 0x8, addend: 0x0, symName: __RINvMNtCsaNl6UpbT7bw_4core6resultINtB3_6ResultNtNtCsc29TF2YcYso_3syn4expr9ExprConstNtNtBM_5error5ErrorE3mapNtBK_4ExprNcNtB1H_5Const0EBM_, symObjAddr: 0x2458, symBinAddr: 0x423E8, symSize: 0xD0 }
  - { offset: 0xCD30B, size: 0x8, addend: 0x0, symName: __RINvMNtCsaNl6UpbT7bw_4core6resultINtB3_6ResultNtNtCsc29TF2YcYso_3syn4expr9ExprInferNtNtBM_5error5ErrorE3mapNtBK_4ExprNcNtB1H_5Infer0EBM_, symObjAddr: 0x2528, symBinAddr: 0x424B8, symSize: 0xC4 }
  - { offset: 0xCD3B6, size: 0x8, addend: 0x0, symName: __RINvMNtCsaNl6UpbT7bw_4core6resultINtB3_6ResultNtNtCsc29TF2YcYso_3syn4expr9ExprMatchNtNtBM_5error5ErrorE3mapNtBK_4ExprNcNtB1H_5Match0EBM_, symObjAddr: 0x25EC, symBinAddr: 0x4257C, symSize: 0xD0 }
  - { offset: 0xCD461, size: 0x8, addend: 0x0, symName: __RINvMNtCsaNl6UpbT7bw_4core6resultINtB3_6ResultNtNtCsc29TF2YcYso_3syn4expr9ExprRangeNtNtBM_5error5ErrorE3mapNtBK_4ExprNcNtB1H_5Range0EBM_, symObjAddr: 0x26BC, symBinAddr: 0x4264C, symSize: 0xD0 }
  - { offset: 0xCD50C, size: 0x8, addend: 0x0, symName: __RINvMNtCsaNl6UpbT7bw_4core6resultINtB3_6ResultNtNtCsc29TF2YcYso_3syn4expr9ExprUnaryNtNtBM_5error5ErrorE3mapNtBK_4ExprNcNtB1H_5Unary0EBM_, symObjAddr: 0x278C, symBinAddr: 0x4271C, symSize: 0xD0 }
  - { offset: 0xCD5B7, size: 0x8, addend: 0x0, symName: __RINvMNtCsaNl6UpbT7bw_4core6resultINtB3_6ResultNtNtCsc29TF2YcYso_3syn4expr9ExprWhileNtNtBM_5error5ErrorE3mapNtBK_4ExprNcNtB1H_5While0EBM_, symObjAddr: 0x285C, symBinAddr: 0x427EC, symSize: 0xD0 }
  - { offset: 0xCD662, size: 0x8, addend: 0x0, symName: __RINvMNtCsaNl6UpbT7bw_4core6resultINtB3_6ResultNtNtCsc29TF2YcYso_3syn4expr9ExprYieldNtNtBM_5error5ErrorE3mapNtBK_4ExprNcNtB1H_5Yield0EBM_, symObjAddr: 0x292C, symBinAddr: 0x428BC, symSize: 0xD0 }
  - { offset: 0xCD70D, size: 0x8, addend: 0x0, symName: __RINvMNtCsaNl6UpbT7bw_4core6resultINtB3_6ResultNtNtCsc29TF2YcYso_3syn4item10ItemStructNtNtBM_5error5ErrorE3mapNtBK_4ItemNcNtB1J_6Struct0EBM_, symObjAddr: 0x29FC, symBinAddr: 0x4298C, symSize: 0xCC }
  - { offset: 0xCD7B8, size: 0x8, addend: 0x0, symName: __RINvMNtCsaNl6UpbT7bw_4core6resultINtB3_6ResultNtNtCsc29TF2YcYso_3syn4item11TraitItemFnNtNtBM_5error5ErrorE3mapNtBK_9TraitItemNcNtB1K_2Fn0EBM_, symObjAddr: 0x2AC8, symBinAddr: 0x42A58, symSize: 0xD0 }
  - { offset: 0xCD863, size: 0x8, addend: 0x0, symName: __RINvMNtCsaNl6UpbT7bw_4core6resultINtB3_6ResultNtNtCsc29TF2YcYso_3syn4item13ImplItemMacroNtNtBM_5error5ErrorE3mapNtBK_8ImplItemNcNtB1M_5Macro0EBM_, symObjAddr: 0x2B98, symBinAddr: 0x42B28, symSize: 0xD0 }
  - { offset: 0xCD90E, size: 0x8, addend: 0x0, symName: __RINvMNtCsaNl6UpbT7bw_4core6resultINtB3_6ResultNtNtCsc29TF2YcYso_3syn4item14ItemForeignModNtNtBM_5error5ErrorE3mapNtBK_4ItemNcNtB1N_10ForeignMod0EBM_, symObjAddr: 0x2C68, symBinAddr: 0x42BF8, symSize: 0xD0 }
  - { offset: 0xCD9B9, size: 0x8, addend: 0x0, symName: __RINvMNtCsaNl6UpbT7bw_4core6resultINtB3_6ResultNtNtCsc29TF2YcYso_3syn4item14ItemTraitAliasNtNtBM_5error5ErrorE3mapNtBK_4ItemNcNtB1N_10TraitAlias0EBM_, symObjAddr: 0x2D38, symBinAddr: 0x42CC8, symSize: 0xD0 }
  - { offset: 0xCDA64, size: 0x8, addend: 0x0, symName: __RINvMNtCsaNl6UpbT7bw_4core6resultINtB3_6ResultNtNtCsc29TF2YcYso_3syn4item14TraitItemMacroNtNtBM_5error5ErrorE3mapNtBK_9TraitItemNcNtB1N_5Macro0EBM_, symObjAddr: 0x2E08, symBinAddr: 0x42D98, symSize: 0xD0 }
  - { offset: 0xCDB0F, size: 0x8, addend: 0x0, symName: __RINvMNtCsaNl6UpbT7bw_4core6resultINtB3_6ResultNtNtCsc29TF2YcYso_3syn4item15ItemExternCrateNtNtBM_5error5ErrorE3mapNtBK_4ItemNcNtB1O_11ExternCrate0EBM_, symObjAddr: 0x2ED8, symBinAddr: 0x42E68, symSize: 0xD0 }
  - { offset: 0xCDBBA, size: 0x8, addend: 0x0, symName: __RINvMNtCsaNl6UpbT7bw_4core6resultINtB3_6ResultNtNtCsc29TF2YcYso_3syn4item16ForeignItemMacroNtNtBM_5error5ErrorE3mapNtBK_11ForeignItemNcNtB1P_5Macro0EBM_, symObjAddr: 0x2FA8, symBinAddr: 0x42F38, symSize: 0xD0 }
  - { offset: 0xCDC65, size: 0x8, addend: 0x0, symName: __RINvMNtCsaNl6UpbT7bw_4core6resultINtB3_6ResultNtNtCsc29TF2YcYso_3syn4item6ItemFnNtNtBM_5error5ErrorE3mapNtBK_4ItemNcNtB1E_2Fn0EBM_, symObjAddr: 0x3078, symBinAddr: 0x43008, symSize: 0xCC }
  - { offset: 0xCDD10, size: 0x8, addend: 0x0, symName: __RINvMNtCsaNl6UpbT7bw_4core6resultINtB3_6ResultNtNtCsc29TF2YcYso_3syn4item7ItemModNtNtBM_5error5ErrorE3mapNtBK_4ItemNcNtB1F_3Mod0EBM_, symObjAddr: 0x3144, symBinAddr: 0x430D4, symSize: 0xD0 }
  - { offset: 0xCDDBB, size: 0x8, addend: 0x0, symName: __RINvMNtCsaNl6UpbT7bw_4core6resultINtB3_6ResultNtNtCsc29TF2YcYso_3syn4item8ItemEnumNtNtBM_5error5ErrorE3mapNtBK_4ItemNcNtB1G_4Enum0EBM_, symObjAddr: 0x3214, symBinAddr: 0x431A4, symSize: 0xD0 }
  - { offset: 0xCDE66, size: 0x8, addend: 0x0, symName: __RINvMNtCsaNl6UpbT7bw_4core6resultINtB3_6ResultNtNtCsc29TF2YcYso_3syn4item9ItemMacroNtNtBM_5error5ErrorE3mapNtBK_4ItemNcNtB1H_5Macro0EBM_, symObjAddr: 0x32E4, symBinAddr: 0x43274, symSize: 0xD0 }
  - { offset: 0xCDF11, size: 0x8, addend: 0x0, symName: __RINvMNtCsaNl6UpbT7bw_4core6resultINtB3_6ResultNtNtCsc29TF2YcYso_3syn4item9ItemTraitNtNtBM_5error5ErrorE3mapNtBK_4ItemNcNtB1H_5Trait0EBM_, symObjAddr: 0x33B4, symBinAddr: 0x43344, symSize: 0xD0 }
  - { offset: 0xCDFBC, size: 0x8, addend: 0x0, symName: __RINvMNtCsaNl6UpbT7bw_4core6resultINtB3_6ResultNtNtCsc29TF2YcYso_3syn4item9ItemUnionNtNtBM_5error5ErrorE3mapNtBK_4ItemNcNtB1H_5Union0EBM_, symObjAddr: 0x3484, symBinAddr: 0x43414, symSize: 0xD0 }
  - { offset: 0xCE067, size: 0x8, addend: 0x0, symName: __RINvMNtCsaNl6UpbT7bw_4core6resultINtB3_6ResultNtNtCsc29TF2YcYso_3syn4stmt5LocalNtNtBM_5error5ErrorE3mapNtBK_4StmtNcNtB1D_5Local0EBM_, symObjAddr: 0x3554, symBinAddr: 0x434E4, symSize: 0xD0 }
  - { offset: 0xCE112, size: 0x8, addend: 0x0, symName: __RINvMNtCsaNl6UpbT7bw_4core6resultINtB3_6ResultNtNtCsc29TF2YcYso_3syn4stmt9StmtMacroNtNtBM_5error5ErrorE3mapNtBK_4StmtNcNtB1H_5Macro0EBM_, symObjAddr: 0x3624, symBinAddr: 0x435B4, symSize: 0xD0 }
  - { offset: 0xCE1BD, size: 0x8, addend: 0x0, symName: __RINvMNtCsaNl6UpbT7bw_4core6resultINtB3_6ResultNtNtCsc29TF2YcYso_3syn5token2GeNtNtBM_5error5ErrorE3mapNtNtBM_2op5BinOpNcNtB1B_2Ge0EBM_, symObjAddr: 0x36F4, symBinAddr: 0x43684, symSize: 0xA4 }
  - { offset: 0xCE268, size: 0x8, addend: 0x0, symName: __RINvMNtCsaNl6UpbT7bw_4core6resultINtB3_6ResultNtNtCsc29TF2YcYso_3syn5token2GtNtNtBM_5error5ErrorE3mapNtNtBM_2op5BinOpNcNtB1B_2Gt0EBM_, symObjAddr: 0x3798, symBinAddr: 0x43728, symSize: 0xA4 }
  - { offset: 0xCE313, size: 0x8, addend: 0x0, symName: __RINvMNtCsaNl6UpbT7bw_4core6resultINtB3_6ResultNtNtCsc29TF2YcYso_3syn5token2LeNtNtBM_5error5ErrorE3mapNtNtBM_2op5BinOpNcNtB1B_2Le0EBM_, symObjAddr: 0x383C, symBinAddr: 0x437CC, symSize: 0xA4 }
  - { offset: 0xCE3BE, size: 0x8, addend: 0x0, symName: __RINvMNtCsaNl6UpbT7bw_4core6resultINtB3_6ResultNtNtCsc29TF2YcYso_3syn5token2LtNtNtBM_5error5ErrorE3mapNtNtBM_2op5BinOpNcNtB1B_2Lt0EBM_, symObjAddr: 0x38E0, symBinAddr: 0x43870, symSize: 0xA4 }
  - { offset: 0xCE469, size: 0x8, addend: 0x0, symName: __RINvMNtCsaNl6UpbT7bw_4core6resultINtB3_6ResultNtNtCsc29TF2YcYso_3syn5token2NeNtNtBM_5error5ErrorE3mapNtNtBM_2op5BinOpNcNtB1B_2Ne0EBM_, symObjAddr: 0x3984, symBinAddr: 0x43914, symSize: 0xA4 }
  - { offset: 0xCE514, size: 0x8, addend: 0x0, symName: __RINvMNtCsaNl6UpbT7bw_4core6resultINtB3_6ResultNtNtCsc29TF2YcYso_3syn5token2OrNtNtBM_5error5ErrorE3mapNtNtBM_2op5BinOpNcNtB1B_5BitOr0EBM_, symObjAddr: 0x3A28, symBinAddr: 0x439B8, symSize: 0xA4 }
  - { offset: 0xCE5BF, size: 0x8, addend: 0x0, symName: __RINvMNtCsaNl6UpbT7bw_4core6resultINtB3_6ResultNtNtCsc29TF2YcYso_3syn5token3AndNtNtBM_5error5ErrorE3mapNtNtBM_2op5BinOpNcNtB1C_6BitAnd0EBM_, symObjAddr: 0x3ACC, symBinAddr: 0x43A5C, symSize: 0xA4 }
  - { offset: 0xCE66A, size: 0x8, addend: 0x0, symName: __RINvMNtCsaNl6UpbT7bw_4core6resultINtB3_6ResultNtNtCsc29TF2YcYso_3syn5token3NotNtNtBM_5error5ErrorE3mapNtNtBM_2op4UnOpNcNtB1C_3Not0EBM_, symObjAddr: 0x3B70, symBinAddr: 0x43B00, symSize: 0xAC }
  - { offset: 0xCE715, size: 0x8, addend: 0x0, symName: __RINvMNtCsaNl6UpbT7bw_4core6resultINtB3_6ResultNtNtCsc29TF2YcYso_3syn5token3ShlNtNtBM_5error5ErrorE3mapNtNtBM_2op5BinOpNcNtB1C_3Shl0EBM_, symObjAddr: 0x3C1C, symBinAddr: 0x43BAC, symSize: 0xA4 }
  - { offset: 0xCE7C0, size: 0x8, addend: 0x0, symName: __RINvMNtCsaNl6UpbT7bw_4core6resultINtB3_6ResultNtNtCsc29TF2YcYso_3syn5token3ShrNtNtBM_5error5ErrorE3mapNtNtBM_2op5BinOpNcNtB1C_3Shr0EBM_, symObjAddr: 0x3CC0, symBinAddr: 0x43C50, symSize: 0xA4 }
  - { offset: 0xCE86B, size: 0x8, addend: 0x0, symName: __RINvMNtCsaNl6UpbT7bw_4core6resultINtB3_6ResultNtNtCsc29TF2YcYso_3syn5token4EqEqNtNtBM_5error5ErrorE3mapNtNtBM_2op5BinOpNcNtB1D_2Eq0EBM_, symObjAddr: 0x3D64, symBinAddr: 0x43CF4, symSize: 0xA4 }
  - { offset: 0xCE916, size: 0x8, addend: 0x0, symName: __RINvMNtCsaNl6UpbT7bw_4core6resultINtB3_6ResultNtNtCsc29TF2YcYso_3syn5token4OrEqNtNtBM_5error5ErrorE3mapNtNtBM_2op5BinOpNcNtB1D_11BitOrAssign0EBM_, symObjAddr: 0x3E08, symBinAddr: 0x43D98, symSize: 0xA4 }
  - { offset: 0xCE9C1, size: 0x8, addend: 0x0, symName: __RINvMNtCsaNl6UpbT7bw_4core6resultINtB3_6ResultNtNtCsc29TF2YcYso_3syn5token4OrOrNtNtBM_5error5ErrorE3mapNtNtBM_2op5BinOpNcNtB1D_2Or0EBM_, symObjAddr: 0x3EAC, symBinAddr: 0x43E3C, symSize: 0xA4 }
  - { offset: 0xCEA6C, size: 0x8, addend: 0x0, symName: __RINvMNtCsaNl6UpbT7bw_4core6resultINtB3_6ResultNtNtCsc29TF2YcYso_3syn5token4PlusNtNtBM_5error5ErrorE3mapNtNtBM_2op5BinOpNcNtB1D_3Add0EBM_, symObjAddr: 0x3F50, symBinAddr: 0x43EE0, symSize: 0xA4 }
  - { offset: 0xCEB17, size: 0x8, addend: 0x0, symName: __RINvMNtCsaNl6UpbT7bw_4core6resultINtB3_6ResultNtNtCsc29TF2YcYso_3syn5token4StarNtNtBM_5error5ErrorE3mapNtNtBM_2op4UnOpNcNtB1D_5Deref0EBM_, symObjAddr: 0x3FF4, symBinAddr: 0x43F84, symSize: 0xAC }
  - { offset: 0xCEBC2, size: 0x8, addend: 0x0, symName: __RINvMNtCsaNl6UpbT7bw_4core6resultINtB3_6ResultNtNtCsc29TF2YcYso_3syn5token4StarNtNtBM_5error5ErrorE3mapNtNtBM_2op5BinOpNcNtB1D_3Mul0EBM_, symObjAddr: 0x40A0, symBinAddr: 0x44030, symSize: 0xA4 }
  - { offset: 0xCEC6D, size: 0x8, addend: 0x0, symName: __RINvMNtCsaNl6UpbT7bw_4core6resultINtB3_6ResultNtNtCsc29TF2YcYso_3syn5token5AndEqNtNtBM_5error5ErrorE3mapNtNtBM_2op5BinOpNcNtB1E_12BitAndAssign0EBM_, symObjAddr: 0x4144, symBinAddr: 0x440D4, symSize: 0xA4 }
  - { offset: 0xCED18, size: 0x8, addend: 0x0, symName: __RINvMNtCsaNl6UpbT7bw_4core6resultINtB3_6ResultNtNtCsc29TF2YcYso_3syn5token5CaretNtNtBM_5error5ErrorE3mapNtNtBM_2op5BinOpNcNtB1E_6BitXor0EBM_, symObjAddr: 0x41E8, symBinAddr: 0x44178, symSize: 0xA4 }
  - { offset: 0xCEDC3, size: 0x8, addend: 0x0, symName: __RINvMNtCsaNl6UpbT7bw_4core6resultINtB3_6ResultNtNtCsc29TF2YcYso_3syn5token5MinusNtNtBM_5error5ErrorE3mapNtNtBM_2op4UnOpNcNtB1E_3Neg0EBM_, symObjAddr: 0x428C, symBinAddr: 0x4421C, symSize: 0xAC }
  - { offset: 0xCEE6E, size: 0x8, addend: 0x0, symName: __RINvMNtCsaNl6UpbT7bw_4core6resultINtB3_6ResultNtNtCsc29TF2YcYso_3syn5token5MinusNtNtBM_5error5ErrorE3mapNtNtBM_2op5BinOpNcNtB1E_3Sub0EBM_, symObjAddr: 0x4338, symBinAddr: 0x442C8, symSize: 0xA4 }
  - { offset: 0xCEF19, size: 0x8, addend: 0x0, symName: __RINvMNtCsaNl6UpbT7bw_4core6resultINtB3_6ResultNtNtCsc29TF2YcYso_3syn5token5ShlEqNtNtBM_5error5ErrorE3mapNtNtBM_2op5BinOpNcNtB1E_9ShlAssign0EBM_, symObjAddr: 0x43DC, symBinAddr: 0x4436C, symSize: 0xAC }
  - { offset: 0xCEFC4, size: 0x8, addend: 0x0, symName: __RINvMNtCsaNl6UpbT7bw_4core6resultINtB3_6ResultNtNtCsc29TF2YcYso_3syn5token5ShrEqNtNtBM_5error5ErrorE3mapNtNtBM_2op5BinOpNcNtB1E_9ShrAssign0EBM_, symObjAddr: 0x4488, symBinAddr: 0x44418, symSize: 0xAC }
  - { offset: 0xCF06F, size: 0x8, addend: 0x0, symName: __RINvMNtCsaNl6UpbT7bw_4core6resultINtB3_6ResultNtNtCsc29TF2YcYso_3syn5token5SlashNtNtBM_5error5ErrorE3mapNtNtBM_2op5BinOpNcNtB1E_3Div0EBM_, symObjAddr: 0x4534, symBinAddr: 0x444C4, symSize: 0xA4 }
  - { offset: 0xCF11A, size: 0x8, addend: 0x0, symName: __RINvMNtCsaNl6UpbT7bw_4core6resultINtB3_6ResultNtNtCsc29TF2YcYso_3syn5token6AndAndNtNtBM_5error5ErrorE3mapNtNtBM_2op5BinOpNcNtB1F_3And0EBM_, symObjAddr: 0x45D8, symBinAddr: 0x44568, symSize: 0xA4 }
  - { offset: 0xCF1C5, size: 0x8, addend: 0x0, symName: __RINvMNtCsaNl6UpbT7bw_4core6resultINtB3_6ResultNtNtCsc29TF2YcYso_3syn5token6DotDotNtNtBM_5error5ErrorE3mapNtNtBM_4expr11RangeLimitsNcNtB1F_8HalfOpen0EBM_, symObjAddr: 0x467C, symBinAddr: 0x4460C, symSize: 0xA4 }
  - { offset: 0xCF270, size: 0x8, addend: 0x0, symName: __RINvMNtCsaNl6UpbT7bw_4core6resultINtB3_6ResultNtNtCsc29TF2YcYso_3syn5token6PlusEqNtNtBM_5error5ErrorE3mapNtNtBM_2op5BinOpNcNtB1F_9AddAssign0EBM_, symObjAddr: 0x4720, symBinAddr: 0x446B0, symSize: 0xA4 }
  - { offset: 0xCF31B, size: 0x8, addend: 0x0, symName: __RINvMNtCsaNl6UpbT7bw_4core6resultINtB3_6ResultNtNtCsc29TF2YcYso_3syn5token6StarEqNtNtBM_5error5ErrorE3mapNtNtBM_2op5BinOpNcNtB1F_9MulAssign0EBM_, symObjAddr: 0x47C4, symBinAddr: 0x44754, symSize: 0xA4 }
  - { offset: 0xCF3C6, size: 0x8, addend: 0x0, symName: __RINvMNtCsaNl6UpbT7bw_4core6resultINtB3_6ResultNtNtCsc29TF2YcYso_3syn5token7CaretEqNtNtBM_5error5ErrorE3mapNtNtBM_2op5BinOpNcNtB1G_12BitXorAssign0EBM_, symObjAddr: 0x4868, symBinAddr: 0x447F8, symSize: 0xA4 }
  - { offset: 0xCF471, size: 0x8, addend: 0x0, symName: __RINvMNtCsaNl6UpbT7bw_4core6resultINtB3_6ResultNtNtCsc29TF2YcYso_3syn5token7MinusEqNtNtBM_5error5ErrorE3mapNtNtBM_2op5BinOpNcNtB1G_9SubAssign0EBM_, symObjAddr: 0x490C, symBinAddr: 0x4489C, symSize: 0xA4 }
  - { offset: 0xCF51C, size: 0x8, addend: 0x0, symName: __RINvMNtCsaNl6UpbT7bw_4core6resultINtB3_6ResultNtNtCsc29TF2YcYso_3syn5token7PercentNtNtBM_5error5ErrorE3mapNtNtBM_2op5BinOpNcNtB1G_3Rem0EBM_, symObjAddr: 0x49B0, symBinAddr: 0x44940, symSize: 0xA4 }
  - { offset: 0xCF5C7, size: 0x8, addend: 0x0, symName: __RINvMNtCsaNl6UpbT7bw_4core6resultINtB3_6ResultNtNtCsc29TF2YcYso_3syn5token7SlashEqNtNtBM_5error5ErrorE3mapNtNtBM_2op5BinOpNcNtB1G_9DivAssign0EBM_, symObjAddr: 0x4A54, symBinAddr: 0x449E4, symSize: 0xA4 }
  - { offset: 0xCF672, size: 0x8, addend: 0x0, symName: __RINvMNtCsaNl6UpbT7bw_4core6resultINtB3_6ResultNtNtCsc29TF2YcYso_3syn5token8DotDotEqNtNtBM_5error5ErrorE3mapNtNtBM_4expr11RangeLimitsNcNtB1H_6Closed0EBM_, symObjAddr: 0x4AF8, symBinAddr: 0x44A88, symSize: 0xAC }
  - { offset: 0xCF71D, size: 0x8, addend: 0x0, symName: __RINvMNtCsaNl6UpbT7bw_4core6resultINtB3_6ResultNtNtCsc29TF2YcYso_3syn5token8QuestionNtNtBM_5error5ErrorE3mapNtNtBM_8generics18TraitBoundModifierNcNtB1H_5Maybe0EBM_, symObjAddr: 0x4BA4, symBinAddr: 0x44B34, symSize: 0xAC }
  - { offset: 0xCF7C8, size: 0x8, addend: 0x0, symName: __RINvMNtCsaNl6UpbT7bw_4core6resultINtB3_6ResultNtNtCsc29TF2YcYso_3syn5token9PercentEqNtNtBM_5error5ErrorE3mapNtNtBM_2op5BinOpNcNtB1I_9RemAssign0EBM_, symObjAddr: 0x4C50, symBinAddr: 0x44BE0, symSize: 0xA4 }
  - { offset: 0xCF873, size: 0x8, addend: 0x0, symName: __RINvMNtCsaNl6UpbT7bw_4core6resultINtB3_6ResultNtNtCsc29TF2YcYso_3syn8generics11WhereClauseNtNtBM_5error5ErrorE3mapINtNtB5_6option6OptionBI_ENcNtB1O_4Some0EBM_, symObjAddr: 0x4CF4, symBinAddr: 0x44C84, symSize: 0xC4 }
  - { offset: 0xCF91E, size: 0x8, addend: 0x0, symName: __RINvMNtCsaNl6UpbT7bw_4core6resultINtB3_6ResultNtNtCsc29TF2YcYso_3syn8generics14BoundLifetimesNtNtBM_5error5ErrorE3mapINtNtB5_6option6OptionBI_ENcNtB1R_4Some0EBM_, symObjAddr: 0x4DB8, symBinAddr: 0x44D48, symSize: 0xC4 }
  - { offset: 0xCF9C9, size: 0x8, addend: 0x0, symName: __RINvMNtCsaNl6UpbT7bw_4core6resultINtB3_6ResultNtNtCsc29TF2YcYso_3syn8lifetime8LifetimeNtNtBM_5error5ErrorE3mapNtNtBM_8generics13CapturedParamNcNtB1K_8Lifetime0EBM_, symObjAddr: 0x4E7C, symBinAddr: 0x44E0C, symSize: 0xAC }
  - { offset: 0xCFA74, size: 0x8, addend: 0x0, symName: __RINvMNtCsaNl6UpbT7bw_4core6resultINtB3_6ResultNtNtCsc29TF2YcYso_3syn8lifetime8LifetimeNtNtBM_5error5ErrorE3mapNtNtBM_8generics14TypeParamBoundNcNtB1K_8Lifetime0EBM_, symObjAddr: 0x4F28, symBinAddr: 0x44EB8, symSize: 0xB4 }
  - { offset: 0xCFB53, size: 0x8, addend: 0x0, symName: __RINvMNtCsaNl6UpbT7bw_4core6resultINtB3_6ResultTNtNtCshnvkK9b4wzu_11proc_macro25extra9DelimSpanNtNtCsc29TF2YcYso_3syn5parse11ParseBufferENtNtB1y_5error5ErrorE3mapNtNtB1y_5group5GroupNCNvB2B_11parse_group0EB1y_, symObjAddr: 0x4FDC, symBinAddr: 0x44F6C, symSize: 0xD4 }
  - { offset: 0xCFBE6, size: 0x8, addend: 0x0, symName: __RINvMNtCsaNl6UpbT7bw_4core6resultINtB3_6ResultTNtNtCshnvkK9b4wzu_11proc_macro25extra9DelimSpanNtNtCsc29TF2YcYso_3syn5parse11ParseBufferENtNtB1y_5error5ErrorE3mapNtNtB1y_5group6BracesNCNvB2B_12parse_braces0EB1y_, symObjAddr: 0x50B0, symBinAddr: 0x45040, symSize: 0xC4 }
  - { offset: 0xCFC79, size: 0x8, addend: 0x0, symName: __RINvMNtCsaNl6UpbT7bw_4core6resultINtB3_6ResultTNtNtCshnvkK9b4wzu_11proc_macro25extra9DelimSpanNtNtCsc29TF2YcYso_3syn5parse11ParseBufferENtNtB1y_5error5ErrorE3mapNtNtB1y_5group6ParensNCNvB2B_12parse_parens0EB1y_, symObjAddr: 0x5174, symBinAddr: 0x45104, symSize: 0xC4 }
  - { offset: 0xCFD0C, size: 0x8, addend: 0x0, symName: __RINvMNtCsaNl6UpbT7bw_4core6resultINtB3_6ResultTNtNtCshnvkK9b4wzu_11proc_macro25extra9DelimSpanNtNtCsc29TF2YcYso_3syn5parse11ParseBufferENtNtB1y_5error5ErrorE3mapNtNtB1y_5group8BracketsNCNvB2B_14parse_brackets0EB1y_, symObjAddr: 0x5238, symBinAddr: 0x451C8, symSize: 0xC4 }
  - { offset: 0xCFDAC, size: 0x8, addend: 0x0, symName: __RINvMNtCsaNl6UpbT7bw_4core6resultINtB3_6ResultmNtNtNtB5_3num5error13ParseIntErrorE7map_errNtNtCsc29TF2YcYso_3syn5error5ErrorNCNvXsA_NtNtB1u_4expr7parsingNtB28_5IndexNtNtB1u_5parse5Parse5parse0EB1u_, symObjAddr: 0x52FC, symBinAddr: 0x4528C, symSize: 0x84 }
  - { offset: 0xCFE4B, size: 0x8, addend: 0x0, symName: __RNvMNtCsaNl6UpbT7bw_4core6resultINtB2_6ResultINtNtB4_6option6OptionNtNtCsc29TF2YcYso_3syn2ty3AbiENtNtB17_5error5ErrorE5is_okB17_, symObjAddr: 0x5380, symBinAddr: 0x45310, symSize: 0x20 }
  - { offset: 0xCFE8D, size: 0x8, addend: 0x0, symName: __RNvMNtCsaNl6UpbT7bw_4core6resultINtB2_6ResultINtNtB4_6option6OptionNtNtCsc29TF2YcYso_3syn5token5AsyncENtNtB17_5error5ErrorE5is_okB17_, symObjAddr: 0x53A0, symBinAddr: 0x45330, symSize: 0x2C }
  - { offset: 0xCFECF, size: 0x8, addend: 0x0, symName: __RNvMNtCsaNl6UpbT7bw_4core6resultINtB2_6ResultINtNtB4_6option6OptionNtNtCsc29TF2YcYso_3syn5token5ConstENtNtB17_5error5ErrorE5is_okB17_, symObjAddr: 0x53CC, symBinAddr: 0x4535C, symSize: 0x2C }
  - { offset: 0xCFF11, size: 0x8, addend: 0x0, symName: __RNvMNtCsaNl6UpbT7bw_4core6resultINtB2_6ResultINtNtB4_6option6OptionNtNtCsc29TF2YcYso_3syn5token6UnsafeENtNtB17_5error5ErrorE5is_okB17_, symObjAddr: 0x53F8, symBinAddr: 0x45388, symSize: 0x2C }
  - { offset: 0xCFF53, size: 0x8, addend: 0x0, symName: __RNvMNtCsaNl6UpbT7bw_4core6resultINtB2_6ResultNtCshnvkK9b4wzu_11proc_macro24SpanNtNtCsc29TF2YcYso_3syn5error5ErrorE5is_okB1j_, symObjAddr: 0x5424, symBinAddr: 0x453B4, symSize: 0x2C }
  - { offset: 0xCFFB3, size: 0x8, addend: 0x0, symName: __RNvMNtCsaNl6UpbT7bw_4core6resultINtB2_6ResultNtCshnvkK9b4wzu_11proc_macro25IdentNtNtCsc29TF2YcYso_3syn5error5ErrorE10unwrap_errB1k_, symObjAddr: 0x5450, symBinAddr: 0x453E0, symSize: 0xB0 }
  - { offset: 0xD0014, size: 0x8, addend: 0x0, symName: __RNvMNtCsaNl6UpbT7bw_4core6resultINtB2_6ResultNtNtCsc29TF2YcYso_3syn3lit3LitNtNtBL_5error5ErrorE5is_okBL_, symObjAddr: 0x552C, symBinAddr: 0x45490, symSize: 0x20 }
  - { offset: 0xD0056, size: 0x8, addend: 0x0, symName: __RNvMNtCsaNl6UpbT7bw_4core6resultINtB2_6ResultNtNtCsc29TF2YcYso_3syn3lit6LitIntNtNtBL_5error5ErrorE5is_okBL_, symObjAddr: 0x554C, symBinAddr: 0x454B0, symSize: 0x2C }
  - { offset: 0xD0098, size: 0x8, addend: 0x0, symName: __RNvMNtCsaNl6UpbT7bw_4core6resultINtB2_6ResultNtNtCsc29TF2YcYso_3syn3lit6LitStrNtNtBL_5error5ErrorE5is_okBL_, symObjAddr: 0x5578, symBinAddr: 0x454DC, symSize: 0x2C }
  - { offset: 0xD00DA, size: 0x8, addend: 0x0, symName: __RNvMNtCsaNl6UpbT7bw_4core6resultINtB2_6ResultNtNtCsc29TF2YcYso_3syn3lit8LitFloatNtNtBL_5error5ErrorE5is_okBL_, symObjAddr: 0x5654, symBinAddr: 0x45508, symSize: 0x2C }
  - { offset: 0xD012D, size: 0x8, addend: 0x0, symName: __RNvMNtCsaNl6UpbT7bw_4core6resultINtB2_6ResultNtNtNtCsiTraAjBDcu4_5alloc3ffi5c_str7CStringNtBJ_8NulErrorE2okCsc29TF2YcYso_3syn, symObjAddr: 0x5680, symBinAddr: 0x45534, symSize: 0x8C }
  - { offset: 0xD0181, size: 0x8, addend: 0x0, symName: __RNvMNtCsiTraAjBDcu4_5alloc6stringNtB2_6String10into_bytesCsc29TF2YcYso_3syn, symObjAddr: 0x570C, symBinAddr: 0x455C0, symSize: 0x18 }
  - { offset: 0xD0222, size: 0x8, addend: 0x0, symName: __RNvMNtCsiTraAjBDcu4_5alloc6stringNtB2_6String13with_capacityCsc29TF2YcYso_3syn, symObjAddr: 0x5724, symBinAddr: 0x455D8, symSize: 0x58 }
  - { offset: 0xD0321, size: 0x8, addend: 0x0, symName: __RNvMNtCsiTraAjBDcu4_5alloc6stringNtB2_6String14into_boxed_strCsc29TF2YcYso_3syn, symObjAddr: 0x577C, symBinAddr: 0x45630, symSize: 0x7C }
  - { offset: 0xD0433, size: 0x8, addend: 0x0, symName: __RNvMNtCsiTraAjBDcu4_5alloc6stringNtB2_6String3lenCsc29TF2YcYso_3syn, symObjAddr: 0x57F8, symBinAddr: 0x456AC, symSize: 0x18 }
  - { offset: 0xD047B, size: 0x8, addend: 0x0, symName: __RNvMNtCsiTraAjBDcu4_5alloc6stringNtB2_6String3newCsc29TF2YcYso_3syn, symObjAddr: 0x5810, symBinAddr: 0x456C4, symSize: 0x30 }
  - { offset: 0xD05E1, size: 0x8, addend: 0x0, symName: __RNvMNtCsiTraAjBDcu4_5alloc6stringNtB2_6String4pushCsc29TF2YcYso_3syn, symObjAddr: 0x5840, symBinAddr: 0x456F4, symSize: 0xF8 }
  - { offset: 0xD08AA, size: 0x8, addend: 0x0, symName: __RNvMNtCsiTraAjBDcu4_5alloc6stringNtB2_6String6as_strCsc29TF2YcYso_3syn, symObjAddr: 0x5938, symBinAddr: 0x457EC, symSize: 0x78 }
  - { offset: 0xD0B0C, size: 0x8, addend: 0x0, symName: __RNvMNtCsiTraAjBDcu4_5alloc6stringNtB2_6String6insertCsc29TF2YcYso_3syn, symObjAddr: 0x59B0, symBinAddr: 0x45864, symSize: 0x2D4 }
  - { offset: 0xD0FE4, size: 0x8, addend: 0x0, symName: __RNvMNtCsiTraAjBDcu4_5alloc6stringNtB2_6String8is_emptyCsc29TF2YcYso_3syn, symObjAddr: 0x5C84, symBinAddr: 0x45B38, symSize: 0x20 }
  - { offset: 0xD111A, size: 0x8, addend: 0x0, symName: __RNvMNtCsiTraAjBDcu4_5alloc6stringNtB2_6String8push_strCsc29TF2YcYso_3syn, symObjAddr: 0x5CA4, symBinAddr: 0x45B58, symSize: 0x58 }
  - { offset: 0xD13EA, size: 0x8, addend: 0x0, symName: __RNvMNtCsiTraAjBDcu4_5alloc6stringNtB2_6String8truncateCsc29TF2YcYso_3syn, symObjAddr: 0x5CFC, symBinAddr: 0x45BB0, symSize: 0x1B4 }
  - { offset: 0xD176B, size: 0x8, addend: 0x0, symName: __RNvMNtCsiTraAjBDcu4_5alloc6stringNtB2_6String9from_utf8Csc29TF2YcYso_3syn, symObjAddr: 0x5EB0, symBinAddr: 0x45D64, symSize: 0x158 }
  - { offset: 0xD192A, size: 0x8, addend: 0x0, symName: __RNvMNtCsiTraAjBDcu4_5alloc6stringNtB2_6String9split_offCsc29TF2YcYso_3syn, symObjAddr: 0x6008, symBinAddr: 0x45EBC, symSize: 0x16C }
  - { offset: 0xD1BC1, size: 0x8, addend: 0x0, symName: __RNvMs2_NtCsht3nMU9UgFu_3std6threadNtB5_6Thread2idCsc29TF2YcYso_3syn, symObjAddr: 0x6174, symBinAddr: 0x46028, symSize: 0x1C }
  - { offset: 0xD423B, size: 0x8, addend: 0x0, symName: __RNCNvMNtCsc29TF2YcYso_3syn10punctuatedINtB4_10PunctuatedNtNtB6_4path11PathSegmentNtNtB6_5token7PathSepE10into_pairs0B6_, symObjAddr: 0x6A58, symBinAddr: 0x597B8, symSize: 0x98 }
  - { offset: 0xD4290, size: 0x8, addend: 0x0, symName: __RNCNvMNtCsc29TF2YcYso_3syn10punctuatedINtB4_10PunctuatedNtNtB6_4path11PathSegmentNtNtB6_5token7PathSepE3pop0B6_, symObjAddr: 0xAE9C, symBinAddr: 0x5DBFC, symSize: 0xC4 }
  - { offset: 0xD42D8, size: 0x8, addend: 0x0, symName: __RNCNvMNtCsc29TF2YcYso_3syn10punctuatedINtB4_10PunctuatedNtNtB6_4path11PathSegmentNtNtB6_5token7PathSepE3pops_0B6_, symObjAddr: 0xAF60, symBinAddr: 0x5DCC0, symSize: 0x74 }
  - { offset: 0xD4410, size: 0x8, addend: 0x0, symName: __RNvXs_NtCsc29TF2YcYso_3syn10punctuatedINtB4_10PunctuatedNtNtB6_2ty4TypeNtNtB6_5token5CommaENtNtCsaNl6UpbT7bw_4core5clone5Clone5cloneB6_, symObjAddr: 0xC4A4, symBinAddr: 0x5F204, symSize: 0x9C }
  - { offset: 0xD4450, size: 0x8, addend: 0x0, symName: __RNvXs_NtCsc29TF2YcYso_3syn10punctuatedINtB4_10PunctuatedNtNtB6_2ty9BareFnArgNtNtB6_5token5CommaENtNtCsaNl6UpbT7bw_4core5clone5Clone5cloneB6_, symObjAddr: 0xC540, symBinAddr: 0x5F2A0, symSize: 0x9C }
  - { offset: 0xD4490, size: 0x8, addend: 0x0, symName: __RNvXs_NtCsc29TF2YcYso_3syn10punctuatedINtB4_10PunctuatedNtNtB6_3pat3PatNtNtB6_5token2OrENtNtCsaNl6UpbT7bw_4core5clone5Clone5cloneB6_, symObjAddr: 0xC5DC, symBinAddr: 0x5F33C, symSize: 0x9C }
  - { offset: 0xD44D0, size: 0x8, addend: 0x0, symName: __RNvXs_NtCsc29TF2YcYso_3syn10punctuatedINtB4_10PunctuatedNtNtB6_3pat3PatNtNtB6_5token5CommaENtNtCsaNl6UpbT7bw_4core5clone5Clone5cloneB6_, symObjAddr: 0xC678, symBinAddr: 0x5F3D8, symSize: 0x9C }
  - { offset: 0xD4510, size: 0x8, addend: 0x0, symName: __RNvXs_NtCsc29TF2YcYso_3syn10punctuatedINtB4_10PunctuatedNtNtB6_3pat8FieldPatNtNtB6_5token5CommaENtNtCsaNl6UpbT7bw_4core5clone5Clone5cloneB6_, symObjAddr: 0xC714, symBinAddr: 0x5F474, symSize: 0x9C }
  - { offset: 0xD4550, size: 0x8, addend: 0x0, symName: __RNvXs_NtCsc29TF2YcYso_3syn10punctuatedINtB4_10PunctuatedNtNtB6_4data5FieldNtNtB6_5token5CommaENtNtCsaNl6UpbT7bw_4core5clone5Clone5cloneB6_, symObjAddr: 0xC7B0, symBinAddr: 0x5F510, symSize: 0x9C }
  - { offset: 0xD4590, size: 0x8, addend: 0x0, symName: __RNvXs_NtCsc29TF2YcYso_3syn10punctuatedINtB4_10PunctuatedNtNtB6_4data7VariantNtNtB6_5token5CommaENtNtCsaNl6UpbT7bw_4core5clone5Clone5cloneB6_, symObjAddr: 0xC84C, symBinAddr: 0x5F5AC, symSize: 0x9C }
  - { offset: 0xD45D0, size: 0x8, addend: 0x0, symName: __RNvXs_NtCsc29TF2YcYso_3syn10punctuatedINtB4_10PunctuatedNtNtB6_4expr10FieldValueNtNtB6_5token5CommaENtNtCsaNl6UpbT7bw_4core5clone5Clone5cloneB6_, symObjAddr: 0xC8E8, symBinAddr: 0x5F648, symSize: 0x9C }
  - { offset: 0xD4610, size: 0x8, addend: 0x0, symName: __RNvXs_NtCsc29TF2YcYso_3syn10punctuatedINtB4_10PunctuatedNtNtB6_4expr4ExprNtNtB6_5token5CommaENtNtCsaNl6UpbT7bw_4core5clone5Clone5cloneB6_, symObjAddr: 0xC984, symBinAddr: 0x5F6E4, symSize: 0x9C }
  - { offset: 0xD4650, size: 0x8, addend: 0x0, symName: __RNvXs_NtCsc29TF2YcYso_3syn10punctuatedINtB4_10PunctuatedNtNtB6_4item5FnArgNtNtB6_5token5CommaENtNtCsaNl6UpbT7bw_4core5clone5Clone5cloneB6_, symObjAddr: 0xCA20, symBinAddr: 0x5F780, symSize: 0x9C }
  - { offset: 0xD4690, size: 0x8, addend: 0x0, symName: __RNvXs_NtCsc29TF2YcYso_3syn10punctuatedINtB4_10PunctuatedNtNtB6_4item7UseTreeNtNtB6_5token5CommaENtNtCsaNl6UpbT7bw_4core5clone5Clone5cloneB6_, symObjAddr: 0xCABC, symBinAddr: 0x5F81C, symSize: 0x9C }
  - { offset: 0xD46D0, size: 0x8, addend: 0x0, symName: __RNvXs_NtCsc29TF2YcYso_3syn10punctuatedINtB4_10PunctuatedNtNtB6_4path11PathSegmentNtNtB6_5token7PathSepENtNtCsaNl6UpbT7bw_4core5clone5Clone5cloneB6_, symObjAddr: 0xCB58, symBinAddr: 0x5F8B8, symSize: 0x9C }
  - { offset: 0xD4710, size: 0x8, addend: 0x0, symName: __RNvXs_NtCsc29TF2YcYso_3syn10punctuatedINtB4_10PunctuatedNtNtB6_4path15GenericArgumentNtNtB6_5token5CommaENtNtCsaNl6UpbT7bw_4core5clone5Clone5cloneB6_, symObjAddr: 0xCBF4, symBinAddr: 0x5F954, symSize: 0x9C }
  - { offset: 0xD4750, size: 0x8, addend: 0x0, symName: __RNvXs_NtCsc29TF2YcYso_3syn10punctuatedINtB4_10PunctuatedNtNtB6_8generics12GenericParamNtNtB6_5token5CommaENtNtCsaNl6UpbT7bw_4core5clone5Clone5cloneB6_, symObjAddr: 0xCC90, symBinAddr: 0x5F9F0, symSize: 0x9C }
  - { offset: 0xD4790, size: 0x8, addend: 0x0, symName: __RNvXs_NtCsc29TF2YcYso_3syn10punctuatedINtB4_10PunctuatedNtNtB6_8generics13CapturedParamNtNtB6_5token5CommaENtNtCsaNl6UpbT7bw_4core5clone5Clone5cloneB6_, symObjAddr: 0xCD2C, symBinAddr: 0x5FA8C, symSize: 0x9C }
  - { offset: 0xD47D0, size: 0x8, addend: 0x0, symName: __RNvXs_NtCsc29TF2YcYso_3syn10punctuatedINtB4_10PunctuatedNtNtB6_8generics14TypeParamBoundNtNtB6_5token4PlusENtNtCsaNl6UpbT7bw_4core5clone5Clone5cloneB6_, symObjAddr: 0xCDC8, symBinAddr: 0x5FB28, symSize: 0x9C }
  - { offset: 0xD4810, size: 0x8, addend: 0x0, symName: __RNvXs_NtCsc29TF2YcYso_3syn10punctuatedINtB4_10PunctuatedNtNtB6_8generics14WherePredicateNtNtB6_5token5CommaENtNtCsaNl6UpbT7bw_4core5clone5Clone5cloneB6_, symObjAddr: 0xCE64, symBinAddr: 0x5FBC4, symSize: 0x9C }
  - { offset: 0xD4850, size: 0x8, addend: 0x0, symName: __RNvXs_NtCsc29TF2YcYso_3syn10punctuatedINtB4_10PunctuatedNtNtB6_8lifetime8LifetimeNtNtB6_5token4PlusENtNtCsaNl6UpbT7bw_4core5clone5Clone5cloneB6_, symObjAddr: 0xCF00, symBinAddr: 0x5FC60, symSize: 0x9C }
  - { offset: 0xD4896, size: 0x8, addend: 0x0, symName: __RINvXs7_NtCsc29TF2YcYso_3syn10punctuatedINtB6_10PunctuatedNtNtB8_4path11PathSegmentNtNtB8_5token7PathSepEINtNtNtNtCsaNl6UpbT7bw_4core4iter6traits7collect6ExtendINtB6_4PairBU_B1j_EE6extendINtB6_9IntoPairsBU_B1j_EEB8_, symObjAddr: 0xEFAC, symBinAddr: 0x5FCFC, symSize: 0x124 }
  - { offset: 0xD48EC, size: 0x8, addend: 0x0, symName: __RINvNtCsc29TF2YcYso_3syn10punctuated9do_extendNtNtB4_4path11PathSegmentNtNtB4_5token7PathSepINtB2_9IntoPairsBI_B17_EEB4_, symObjAddr: 0xF0D0, symBinAddr: 0x5FE20, symSize: 0x3B4 }
  - { offset: 0xD49E9, size: 0x8, addend: 0x0, symName: __RNvXs8_NtCsc29TF2YcYso_3syn10punctuatedINtB5_10PunctuatedNtNtB7_8generics14TypeParamBoundNtNtB7_5token4PlusENtNtNtNtCsaNl6UpbT7bw_4core4iter6traits7collect12IntoIterator9into_iterB7_, symObjAddr: 0xF804, symBinAddr: 0x601D4, symSize: 0x1C0 }
  - { offset: 0xD4A45, size: 0x8, addend: 0x0, symName: __RNCNvXs8_NtCsc29TF2YcYso_3syn10punctuatedINtB7_10PunctuatedNtNtB9_8generics14TypeParamBoundNtNtB9_5token4PlusENtNtNtNtCsaNl6UpbT7bw_4core4iter6traits7collect12IntoIterator9into_iter0B9_, symObjAddr: 0xFA4C, symBinAddr: 0x60394, symSize: 0x44 }
  - { offset: 0xD4A91, size: 0x8, addend: 0x0, symName: __RNCNvXs8_NtCsc29TF2YcYso_3syn10punctuatedINtB7_10PunctuatedNtNtB9_8generics14TypeParamBoundNtNtB9_5token4PlusENtNtNtNtCsaNl6UpbT7bw_4core4iter6traits7collect12IntoIterator9into_iters_0B9_, symObjAddr: 0xFBC0, symBinAddr: 0x603D8, symSize: 0x98 }
  - { offset: 0xD4AF1, size: 0x8, addend: 0x0, symName: __RNvXs9_NtCsc29TF2YcYso_3syn10punctuatedRINtB5_10PunctuatedNtNtB7_8generics14TypeParamBoundNtNtB7_5token4PlusENtNtNtNtCsaNl6UpbT7bw_4core4iter6traits7collect12IntoIterator9into_iterB7_, symObjAddr: 0xFC58, symBinAddr: 0x60470, symSize: 0x34 }
  - { offset: 0xD4B37, size: 0x8, addend: 0x0, symName: __RNvXsc_NtCsc29TF2YcYso_3syn10punctuatedINtB5_5PairsNtNtB7_2ty4TypeNtNtB7_5token5CommaENtNtNtNtCsaNl6UpbT7bw_4core4iter6traits8iterator8Iterator4nextB7_, symObjAddr: 0xFC8C, symBinAddr: 0x604A4, symSize: 0x58 }
  - { offset: 0xD4B77, size: 0x8, addend: 0x0, symName: __RNvXsc_NtCsc29TF2YcYso_3syn10punctuatedINtB5_5PairsNtNtB7_2ty9BareFnArgNtNtB7_5token5CommaENtNtNtNtCsaNl6UpbT7bw_4core4iter6traits8iterator8Iterator4nextB7_, symObjAddr: 0xFCE4, symBinAddr: 0x604FC, symSize: 0x58 }
  - { offset: 0xD4BB7, size: 0x8, addend: 0x0, symName: __RNvXsc_NtCsc29TF2YcYso_3syn10punctuatedINtB5_5PairsNtNtB7_3pat3PatNtNtB7_5token2OrENtNtNtNtCsaNl6UpbT7bw_4core4iter6traits8iterator8Iterator4nextB7_, symObjAddr: 0xFD3C, symBinAddr: 0x60554, symSize: 0x58 }
  - { offset: 0xD4BF7, size: 0x8, addend: 0x0, symName: __RNvXsc_NtCsc29TF2YcYso_3syn10punctuatedINtB5_5PairsNtNtB7_3pat3PatNtNtB7_5token5CommaENtNtNtNtCsaNl6UpbT7bw_4core4iter6traits8iterator8Iterator4nextB7_, symObjAddr: 0xFD94, symBinAddr: 0x605AC, symSize: 0x58 }
  - { offset: 0xD4C37, size: 0x8, addend: 0x0, symName: __RNvXsc_NtCsc29TF2YcYso_3syn10punctuatedINtB5_5PairsNtNtB7_3pat8FieldPatNtNtB7_5token5CommaENtNtNtNtCsaNl6UpbT7bw_4core4iter6traits8iterator8Iterator4nextB7_, symObjAddr: 0xFDEC, symBinAddr: 0x60604, symSize: 0x58 }
  - { offset: 0xD4C77, size: 0x8, addend: 0x0, symName: __RNvXsc_NtCsc29TF2YcYso_3syn10punctuatedINtB5_5PairsNtNtB7_4data5FieldNtNtB7_5token5CommaENtNtNtNtCsaNl6UpbT7bw_4core4iter6traits8iterator8Iterator4nextB7_, symObjAddr: 0xFE44, symBinAddr: 0x6065C, symSize: 0x58 }
  - { offset: 0xD4CB7, size: 0x8, addend: 0x0, symName: __RNvXsc_NtCsc29TF2YcYso_3syn10punctuatedINtB5_5PairsNtNtB7_4data7VariantNtNtB7_5token5CommaENtNtNtNtCsaNl6UpbT7bw_4core4iter6traits8iterator8Iterator4nextB7_, symObjAddr: 0xFE9C, symBinAddr: 0x606B4, symSize: 0x58 }
  - { offset: 0xD4CF7, size: 0x8, addend: 0x0, symName: __RNvXsc_NtCsc29TF2YcYso_3syn10punctuatedINtB5_5PairsNtNtB7_4expr10FieldValueNtNtB7_5token5CommaENtNtNtNtCsaNl6UpbT7bw_4core4iter6traits8iterator8Iterator4nextB7_, symObjAddr: 0xFEF4, symBinAddr: 0x6070C, symSize: 0x58 }
  - { offset: 0xD4D37, size: 0x8, addend: 0x0, symName: __RNvXsc_NtCsc29TF2YcYso_3syn10punctuatedINtB5_5PairsNtNtB7_4expr4ExprNtNtB7_5token5CommaENtNtNtNtCsaNl6UpbT7bw_4core4iter6traits8iterator8Iterator4nextB7_, symObjAddr: 0xFF4C, symBinAddr: 0x60764, symSize: 0x58 }
  - { offset: 0xD4D77, size: 0x8, addend: 0x0, symName: __RNvXsc_NtCsc29TF2YcYso_3syn10punctuatedINtB5_5PairsNtNtB7_4item5FnArgNtNtB7_5token5CommaENtNtNtNtCsaNl6UpbT7bw_4core4iter6traits8iterator8Iterator4nextB7_, symObjAddr: 0xFFA4, symBinAddr: 0x607BC, symSize: 0x58 }
  - { offset: 0xD4DB7, size: 0x8, addend: 0x0, symName: __RNvXsc_NtCsc29TF2YcYso_3syn10punctuatedINtB5_5PairsNtNtB7_4item7UseTreeNtNtB7_5token5CommaENtNtNtNtCsaNl6UpbT7bw_4core4iter6traits8iterator8Iterator4nextB7_, symObjAddr: 0xFFFC, symBinAddr: 0x60814, symSize: 0x58 }
  - { offset: 0xD4DF7, size: 0x8, addend: 0x0, symName: __RNvXsc_NtCsc29TF2YcYso_3syn10punctuatedINtB5_5PairsNtNtB7_4path11PathSegmentNtNtB7_5token7PathSepENtNtNtNtCsaNl6UpbT7bw_4core4iter6traits8iterator8Iterator4nextB7_, symObjAddr: 0x10054, symBinAddr: 0x6086C, symSize: 0x58 }
  - { offset: 0xD4E37, size: 0x8, addend: 0x0, symName: __RNvXsc_NtCsc29TF2YcYso_3syn10punctuatedINtB5_5PairsNtNtB7_4path15GenericArgumentNtNtB7_5token5CommaENtNtNtNtCsaNl6UpbT7bw_4core4iter6traits8iterator8Iterator4nextB7_, symObjAddr: 0x100AC, symBinAddr: 0x608C4, symSize: 0x58 }
  - { offset: 0xD4E77, size: 0x8, addend: 0x0, symName: __RNvXsc_NtCsc29TF2YcYso_3syn10punctuatedINtB5_5PairsNtNtB7_8generics12GenericParamNtNtB7_5token5CommaENtNtNtNtCsaNl6UpbT7bw_4core4iter6traits8iterator8Iterator4nextB7_, symObjAddr: 0x10104, symBinAddr: 0x6091C, symSize: 0x58 }
  - { offset: 0xD4EB7, size: 0x8, addend: 0x0, symName: __RNvXsc_NtCsc29TF2YcYso_3syn10punctuatedINtB5_5PairsNtNtB7_8generics13CapturedParamNtNtB7_5token5CommaENtNtNtNtCsaNl6UpbT7bw_4core4iter6traits8iterator8Iterator4nextB7_, symObjAddr: 0x1015C, symBinAddr: 0x60974, symSize: 0x58 }
  - { offset: 0xD4EF7, size: 0x8, addend: 0x0, symName: __RNvXsc_NtCsc29TF2YcYso_3syn10punctuatedINtB5_5PairsNtNtB7_8generics14TypeParamBoundNtNtB7_5token4PlusENtNtNtNtCsaNl6UpbT7bw_4core4iter6traits8iterator8Iterator4nextB7_, symObjAddr: 0x101B4, symBinAddr: 0x609CC, symSize: 0x58 }
  - { offset: 0xD4F37, size: 0x8, addend: 0x0, symName: __RNvXsc_NtCsc29TF2YcYso_3syn10punctuatedINtB5_5PairsNtNtB7_8generics14WherePredicateNtNtB7_5token5CommaENtNtNtNtCsaNl6UpbT7bw_4core4iter6traits8iterator8Iterator4nextB7_, symObjAddr: 0x1020C, symBinAddr: 0x60A24, symSize: 0x58 }
  - { offset: 0xD4F77, size: 0x8, addend: 0x0, symName: __RNvXsc_NtCsc29TF2YcYso_3syn10punctuatedINtB5_5PairsNtNtB7_8lifetime8LifetimeNtNtB7_5token4PlusENtNtNtNtCsaNl6UpbT7bw_4core4iter6traits8iterator8Iterator4nextB7_, symObjAddr: 0x10264, symBinAddr: 0x60A7C, symSize: 0x58 }
  - { offset: 0xD4FBC, size: 0x8, addend: 0x0, symName: __RNCNvXsc_NtCsc29TF2YcYso_3syn10punctuatedINtB7_5PairsNtNtB9_2ty4TypeNtNtB9_5token5CommaENtNtNtNtCsaNl6UpbT7bw_4core4iter6traits8iterator8Iterator4next0B9_, symObjAddr: 0x102BC, symBinAddr: 0x60AD4, symSize: 0x40 }
  - { offset: 0xD5031, size: 0x8, addend: 0x0, symName: __RNCNvXsc_NtCsc29TF2YcYso_3syn10punctuatedINtB7_5PairsNtNtB9_2ty9BareFnArgNtNtB9_5token5CommaENtNtNtNtCsaNl6UpbT7bw_4core4iter6traits8iterator8Iterator4next0B9_, symObjAddr: 0x102FC, symBinAddr: 0x60B14, symSize: 0x40 }
  - { offset: 0xD50A6, size: 0x8, addend: 0x0, symName: __RNCNvXsc_NtCsc29TF2YcYso_3syn10punctuatedINtB7_5PairsNtNtB9_3pat3PatNtNtB9_5token2OrENtNtNtNtCsaNl6UpbT7bw_4core4iter6traits8iterator8Iterator4next0B9_, symObjAddr: 0x1033C, symBinAddr: 0x60B54, symSize: 0x40 }
  - { offset: 0xD511B, size: 0x8, addend: 0x0, symName: __RNCNvXsc_NtCsc29TF2YcYso_3syn10punctuatedINtB7_5PairsNtNtB9_3pat3PatNtNtB9_5token5CommaENtNtNtNtCsaNl6UpbT7bw_4core4iter6traits8iterator8Iterator4next0B9_, symObjAddr: 0x1037C, symBinAddr: 0x60B94, symSize: 0x40 }
  - { offset: 0xD5190, size: 0x8, addend: 0x0, symName: __RNCNvXsc_NtCsc29TF2YcYso_3syn10punctuatedINtB7_5PairsNtNtB9_3pat8FieldPatNtNtB9_5token5CommaENtNtNtNtCsaNl6UpbT7bw_4core4iter6traits8iterator8Iterator4next0B9_, symObjAddr: 0x103BC, symBinAddr: 0x60BD4, symSize: 0x40 }
  - { offset: 0xD5205, size: 0x8, addend: 0x0, symName: __RNCNvXsc_NtCsc29TF2YcYso_3syn10punctuatedINtB7_5PairsNtNtB9_4data5FieldNtNtB9_5token5CommaENtNtNtNtCsaNl6UpbT7bw_4core4iter6traits8iterator8Iterator4next0B9_, symObjAddr: 0x103FC, symBinAddr: 0x60C14, symSize: 0x40 }
  - { offset: 0xD527A, size: 0x8, addend: 0x0, symName: __RNCNvXsc_NtCsc29TF2YcYso_3syn10punctuatedINtB7_5PairsNtNtB9_4data7VariantNtNtB9_5token5CommaENtNtNtNtCsaNl6UpbT7bw_4core4iter6traits8iterator8Iterator4next0B9_, symObjAddr: 0x1043C, symBinAddr: 0x60C54, symSize: 0x40 }
  - { offset: 0xD52EF, size: 0x8, addend: 0x0, symName: __RNCNvXsc_NtCsc29TF2YcYso_3syn10punctuatedINtB7_5PairsNtNtB9_4expr10FieldValueNtNtB9_5token5CommaENtNtNtNtCsaNl6UpbT7bw_4core4iter6traits8iterator8Iterator4next0B9_, symObjAddr: 0x1047C, symBinAddr: 0x60C94, symSize: 0x40 }
  - { offset: 0xD5364, size: 0x8, addend: 0x0, symName: __RNCNvXsc_NtCsc29TF2YcYso_3syn10punctuatedINtB7_5PairsNtNtB9_4expr4ExprNtNtB9_5token5CommaENtNtNtNtCsaNl6UpbT7bw_4core4iter6traits8iterator8Iterator4next0B9_, symObjAddr: 0x104BC, symBinAddr: 0x60CD4, symSize: 0x40 }
  - { offset: 0xD53D9, size: 0x8, addend: 0x0, symName: __RNCNvXsc_NtCsc29TF2YcYso_3syn10punctuatedINtB7_5PairsNtNtB9_4item5FnArgNtNtB9_5token5CommaENtNtNtNtCsaNl6UpbT7bw_4core4iter6traits8iterator8Iterator4next0B9_, symObjAddr: 0x104FC, symBinAddr: 0x60D14, symSize: 0x40 }
  - { offset: 0xD544E, size: 0x8, addend: 0x0, symName: __RNCNvXsc_NtCsc29TF2YcYso_3syn10punctuatedINtB7_5PairsNtNtB9_4item7UseTreeNtNtB9_5token5CommaENtNtNtNtCsaNl6UpbT7bw_4core4iter6traits8iterator8Iterator4next0B9_, symObjAddr: 0x1053C, symBinAddr: 0x60D54, symSize: 0x40 }
  - { offset: 0xD54C3, size: 0x8, addend: 0x0, symName: __RNCNvXsc_NtCsc29TF2YcYso_3syn10punctuatedINtB7_5PairsNtNtB9_4path11PathSegmentNtNtB9_5token7PathSepENtNtNtNtCsaNl6UpbT7bw_4core4iter6traits8iterator8Iterator4next0B9_, symObjAddr: 0x1057C, symBinAddr: 0x60D94, symSize: 0x40 }
  - { offset: 0xD5538, size: 0x8, addend: 0x0, symName: __RNCNvXsc_NtCsc29TF2YcYso_3syn10punctuatedINtB7_5PairsNtNtB9_4path15GenericArgumentNtNtB9_5token5CommaENtNtNtNtCsaNl6UpbT7bw_4core4iter6traits8iterator8Iterator4next0B9_, symObjAddr: 0x105BC, symBinAddr: 0x60DD4, symSize: 0x40 }
  - { offset: 0xD55AD, size: 0x8, addend: 0x0, symName: __RNCNvXsc_NtCsc29TF2YcYso_3syn10punctuatedINtB7_5PairsNtNtB9_8generics12GenericParamNtNtB9_5token5CommaENtNtNtNtCsaNl6UpbT7bw_4core4iter6traits8iterator8Iterator4next0B9_, symObjAddr: 0x105FC, symBinAddr: 0x60E14, symSize: 0x40 }
  - { offset: 0xD5622, size: 0x8, addend: 0x0, symName: __RNCNvXsc_NtCsc29TF2YcYso_3syn10punctuatedINtB7_5PairsNtNtB9_8generics13CapturedParamNtNtB9_5token5CommaENtNtNtNtCsaNl6UpbT7bw_4core4iter6traits8iterator8Iterator4next0B9_, symObjAddr: 0x1063C, symBinAddr: 0x60E54, symSize: 0x40 }
  - { offset: 0xD5697, size: 0x8, addend: 0x0, symName: __RNCNvXsc_NtCsc29TF2YcYso_3syn10punctuatedINtB7_5PairsNtNtB9_8generics14TypeParamBoundNtNtB9_5token4PlusENtNtNtNtCsaNl6UpbT7bw_4core4iter6traits8iterator8Iterator4next0B9_, symObjAddr: 0x1067C, symBinAddr: 0x60E94, symSize: 0x40 }
  - { offset: 0xD570C, size: 0x8, addend: 0x0, symName: __RNCNvXsc_NtCsc29TF2YcYso_3syn10punctuatedINtB7_5PairsNtNtB9_8generics14WherePredicateNtNtB9_5token5CommaENtNtNtNtCsaNl6UpbT7bw_4core4iter6traits8iterator8Iterator4next0B9_, symObjAddr: 0x106BC, symBinAddr: 0x60ED4, symSize: 0x40 }
  - { offset: 0xD5781, size: 0x8, addend: 0x0, symName: __RNCNvXsc_NtCsc29TF2YcYso_3syn10punctuatedINtB7_5PairsNtNtB9_8lifetime8LifetimeNtNtB9_5token4PlusENtNtNtNtCsaNl6UpbT7bw_4core4iter6traits8iterator8Iterator4next0B9_, symObjAddr: 0x106FC, symBinAddr: 0x60F14, symSize: 0x40 }
  - { offset: 0xD57F6, size: 0x8, addend: 0x0, symName: __RNCNvXsc_NtCsc29TF2YcYso_3syn10punctuatedINtB7_5PairsNtNtB9_2ty4TypeNtNtB9_5token5CommaENtNtNtNtCsaNl6UpbT7bw_4core4iter6traits8iterator8Iterator4nexts_0B9_, symObjAddr: 0x1073C, symBinAddr: 0x60F54, symSize: 0x40 }
  - { offset: 0xD5838, size: 0x8, addend: 0x0, symName: __RNCNvXsc_NtCsc29TF2YcYso_3syn10punctuatedINtB7_5PairsNtNtB9_2ty9BareFnArgNtNtB9_5token5CommaENtNtNtNtCsaNl6UpbT7bw_4core4iter6traits8iterator8Iterator4nexts_0B9_, symObjAddr: 0x1077C, symBinAddr: 0x60F94, symSize: 0x40 }
  - { offset: 0xD587A, size: 0x8, addend: 0x0, symName: __RNCNvXsc_NtCsc29TF2YcYso_3syn10punctuatedINtB7_5PairsNtNtB9_3pat3PatNtNtB9_5token2OrENtNtNtNtCsaNl6UpbT7bw_4core4iter6traits8iterator8Iterator4nexts_0B9_, symObjAddr: 0x107BC, symBinAddr: 0x60FD4, symSize: 0x40 }
  - { offset: 0xD58BC, size: 0x8, addend: 0x0, symName: __RNCNvXsc_NtCsc29TF2YcYso_3syn10punctuatedINtB7_5PairsNtNtB9_3pat3PatNtNtB9_5token5CommaENtNtNtNtCsaNl6UpbT7bw_4core4iter6traits8iterator8Iterator4nexts_0B9_, symObjAddr: 0x107FC, symBinAddr: 0x61014, symSize: 0x40 }
  - { offset: 0xD58FE, size: 0x8, addend: 0x0, symName: __RNCNvXsc_NtCsc29TF2YcYso_3syn10punctuatedINtB7_5PairsNtNtB9_3pat8FieldPatNtNtB9_5token5CommaENtNtNtNtCsaNl6UpbT7bw_4core4iter6traits8iterator8Iterator4nexts_0B9_, symObjAddr: 0x1083C, symBinAddr: 0x61054, symSize: 0x40 }
  - { offset: 0xD5940, size: 0x8, addend: 0x0, symName: __RNCNvXsc_NtCsc29TF2YcYso_3syn10punctuatedINtB7_5PairsNtNtB9_4data5FieldNtNtB9_5token5CommaENtNtNtNtCsaNl6UpbT7bw_4core4iter6traits8iterator8Iterator4nexts_0B9_, symObjAddr: 0x1087C, symBinAddr: 0x61094, symSize: 0x40 }
  - { offset: 0xD5982, size: 0x8, addend: 0x0, symName: __RNCNvXsc_NtCsc29TF2YcYso_3syn10punctuatedINtB7_5PairsNtNtB9_4data7VariantNtNtB9_5token5CommaENtNtNtNtCsaNl6UpbT7bw_4core4iter6traits8iterator8Iterator4nexts_0B9_, symObjAddr: 0x108BC, symBinAddr: 0x610D4, symSize: 0x40 }
  - { offset: 0xD59C4, size: 0x8, addend: 0x0, symName: __RNCNvXsc_NtCsc29TF2YcYso_3syn10punctuatedINtB7_5PairsNtNtB9_4expr10FieldValueNtNtB9_5token5CommaENtNtNtNtCsaNl6UpbT7bw_4core4iter6traits8iterator8Iterator4nexts_0B9_, symObjAddr: 0x108FC, symBinAddr: 0x61114, symSize: 0x40 }
  - { offset: 0xD5A06, size: 0x8, addend: 0x0, symName: __RNCNvXsc_NtCsc29TF2YcYso_3syn10punctuatedINtB7_5PairsNtNtB9_4expr4ExprNtNtB9_5token5CommaENtNtNtNtCsaNl6UpbT7bw_4core4iter6traits8iterator8Iterator4nexts_0B9_, symObjAddr: 0x1093C, symBinAddr: 0x61154, symSize: 0x40 }
  - { offset: 0xD5A48, size: 0x8, addend: 0x0, symName: __RNCNvXsc_NtCsc29TF2YcYso_3syn10punctuatedINtB7_5PairsNtNtB9_4item5FnArgNtNtB9_5token5CommaENtNtNtNtCsaNl6UpbT7bw_4core4iter6traits8iterator8Iterator4nexts_0B9_, symObjAddr: 0x1097C, symBinAddr: 0x61194, symSize: 0x40 }
  - { offset: 0xD5A8A, size: 0x8, addend: 0x0, symName: __RNCNvXsc_NtCsc29TF2YcYso_3syn10punctuatedINtB7_5PairsNtNtB9_4item7UseTreeNtNtB9_5token5CommaENtNtNtNtCsaNl6UpbT7bw_4core4iter6traits8iterator8Iterator4nexts_0B9_, symObjAddr: 0x109BC, symBinAddr: 0x611D4, symSize: 0x40 }
  - { offset: 0xD5ACC, size: 0x8, addend: 0x0, symName: __RNCNvXsc_NtCsc29TF2YcYso_3syn10punctuatedINtB7_5PairsNtNtB9_4path11PathSegmentNtNtB9_5token7PathSepENtNtNtNtCsaNl6UpbT7bw_4core4iter6traits8iterator8Iterator4nexts_0B9_, symObjAddr: 0x109FC, symBinAddr: 0x61214, symSize: 0x40 }
  - { offset: 0xD5B0E, size: 0x8, addend: 0x0, symName: __RNCNvXsc_NtCsc29TF2YcYso_3syn10punctuatedINtB7_5PairsNtNtB9_4path15GenericArgumentNtNtB9_5token5CommaENtNtNtNtCsaNl6UpbT7bw_4core4iter6traits8iterator8Iterator4nexts_0B9_, symObjAddr: 0x10A3C, symBinAddr: 0x61254, symSize: 0x40 }
  - { offset: 0xD5B50, size: 0x8, addend: 0x0, symName: __RNCNvXsc_NtCsc29TF2YcYso_3syn10punctuatedINtB7_5PairsNtNtB9_8generics12GenericParamNtNtB9_5token5CommaENtNtNtNtCsaNl6UpbT7bw_4core4iter6traits8iterator8Iterator4nexts_0B9_, symObjAddr: 0x10A7C, symBinAddr: 0x61294, symSize: 0x40 }
  - { offset: 0xD5B92, size: 0x8, addend: 0x0, symName: __RNCNvXsc_NtCsc29TF2YcYso_3syn10punctuatedINtB7_5PairsNtNtB9_8generics13CapturedParamNtNtB9_5token5CommaENtNtNtNtCsaNl6UpbT7bw_4core4iter6traits8iterator8Iterator4nexts_0B9_, symObjAddr: 0x10ABC, symBinAddr: 0x612D4, symSize: 0x40 }
  - { offset: 0xD5BD4, size: 0x8, addend: 0x0, symName: __RNCNvXsc_NtCsc29TF2YcYso_3syn10punctuatedINtB7_5PairsNtNtB9_8generics14TypeParamBoundNtNtB9_5token4PlusENtNtNtNtCsaNl6UpbT7bw_4core4iter6traits8iterator8Iterator4nexts_0B9_, symObjAddr: 0x10AFC, symBinAddr: 0x61314, symSize: 0x40 }
  - { offset: 0xD5C16, size: 0x8, addend: 0x0, symName: __RNCNvXsc_NtCsc29TF2YcYso_3syn10punctuatedINtB7_5PairsNtNtB9_8generics14WherePredicateNtNtB9_5token5CommaENtNtNtNtCsaNl6UpbT7bw_4core4iter6traits8iterator8Iterator4nexts_0B9_, symObjAddr: 0x10B3C, symBinAddr: 0x61354, symSize: 0x40 }
  - { offset: 0xD5C58, size: 0x8, addend: 0x0, symName: __RNCNvXsc_NtCsc29TF2YcYso_3syn10punctuatedINtB7_5PairsNtNtB9_8lifetime8LifetimeNtNtB9_5token4PlusENtNtNtNtCsaNl6UpbT7bw_4core4iter6traits8iterator8Iterator4nexts_0B9_, symObjAddr: 0x10B7C, symBinAddr: 0x61394, symSize: 0x40 }
  - { offset: 0xD5D1F, size: 0x8, addend: 0x0, symName: __RNvXsj_NtCsc29TF2YcYso_3syn10punctuatedINtB5_9IntoPairsNtNtB7_4path11PathSegmentNtNtB7_5token7PathSepENtNtNtNtCsaNl6UpbT7bw_4core4iter6traits8iterator8Iterator4nextB7_, symObjAddr: 0x10BBC, symBinAddr: 0x613D4, symSize: 0x6C }
  - { offset: 0xD5D64, size: 0x8, addend: 0x0, symName: __RNCNvXsj_NtCsc29TF2YcYso_3syn10punctuatedINtB7_9IntoPairsNtNtB9_4path11PathSegmentNtNtB9_5token7PathSepENtNtNtNtCsaNl6UpbT7bw_4core4iter6traits8iterator8Iterator4next0B9_, symObjAddr: 0x10C28, symBinAddr: 0x61440, symSize: 0x74 }
  - { offset: 0xD5DD2, size: 0x8, addend: 0x0, symName: __RNCNvXsj_NtCsc29TF2YcYso_3syn10punctuatedINtB7_9IntoPairsNtNtB9_4path11PathSegmentNtNtB9_5token7PathSepENtNtNtNtCsaNl6UpbT7bw_4core4iter6traits8iterator8Iterator4nexts_0B9_, symObjAddr: 0x10C9C, symBinAddr: 0x614B4, symSize: 0x4C }
  - { offset: 0xD5E22, size: 0x8, addend: 0x0, symName: __RNvXsn_NtCsc29TF2YcYso_3syn10punctuatedINtB5_8IntoIterNtNtB7_8generics14TypeParamBoundENtNtNtNtCsaNl6UpbT7bw_4core4iter6traits8iterator8Iterator4nextB7_, symObjAddr: 0x10CE8, symBinAddr: 0x61500, symSize: 0x34 }
  - { offset: 0xD5E5F, size: 0x8, addend: 0x0, symName: __RNvXst_NtCsc29TF2YcYso_3syn10punctuatedINtB5_4IterNtNtB7_4path11PathSegmentENtNtNtNtCsaNl6UpbT7bw_4core4iter6traits8iterator8Iterator4nextB7_, symObjAddr: 0x10E5C, symBinAddr: 0x61534, symSize: 0x48 }
  - { offset: 0xD5E96, size: 0x8, addend: 0x0, symName: __RNvXst_NtCsc29TF2YcYso_3syn10punctuatedINtB5_4IterNtNtB7_8generics12GenericParamENtNtNtNtCsaNl6UpbT7bw_4core4iter6traits8iterator8Iterator4nextB7_, symObjAddr: 0x10EA4, symBinAddr: 0x6157C, symSize: 0x48 }
  - { offset: 0xD5ECD, size: 0x8, addend: 0x0, symName: __RNvXst_NtCsc29TF2YcYso_3syn10punctuatedINtB5_4IterNtNtB7_8generics14TypeParamBoundENtNtNtNtCsaNl6UpbT7bw_4core4iter6traits8iterator8Iterator4nextB7_, symObjAddr: 0x10EEC, symBinAddr: 0x615C4, symSize: 0x48 }
  - { offset: 0xD5F0A, size: 0x8, addend: 0x0, symName: __RNvXsu_NtCsc29TF2YcYso_3syn10punctuatedINtB5_4IterNtNtB7_4path11PathSegmentENtNtNtNtCsaNl6UpbT7bw_4core4iter6traits12double_ended19DoubleEndedIterator9next_backB7_, symObjAddr: 0x10F34, symBinAddr: 0x6160C, symSize: 0x48 }
  - { offset: 0xD5F41, size: 0x8, addend: 0x0, symName: __RNvXsu_NtCsc29TF2YcYso_3syn10punctuatedINtB5_4IterNtNtB7_8generics14TypeParamBoundENtNtNtNtCsaNl6UpbT7bw_4core4iter6traits12double_ended19DoubleEndedIterator9next_backB7_, symObjAddr: 0x10F7C, symBinAddr: 0x61654, symSize: 0x48 }
  - { offset: 0xD5F7E, size: 0x8, addend: 0x0, symName: __RNvXsw_NtCsc29TF2YcYso_3syn10punctuatedINtB5_11PrivateIterNtNtB7_4path11PathSegmentNtNtB7_5token7PathSepENtNtNtNtCsaNl6UpbT7bw_4core4iter6traits8iterator8Iterator4nextB7_, symObjAddr: 0x1104C, symBinAddr: 0x6169C, symSize: 0x44 }
  - { offset: 0xD5FBE, size: 0x8, addend: 0x0, symName: __RNvXsw_NtCsc29TF2YcYso_3syn10punctuatedINtB5_11PrivateIterNtNtB7_8generics12GenericParamNtNtB7_5token5CommaENtNtNtNtCsaNl6UpbT7bw_4core4iter6traits8iterator8Iterator4nextB7_, symObjAddr: 0x11090, symBinAddr: 0x616E0, symSize: 0x44 }
  - { offset: 0xD5FFE, size: 0x8, addend: 0x0, symName: __RNvXsw_NtCsc29TF2YcYso_3syn10punctuatedINtB5_11PrivateIterNtNtB7_8generics14TypeParamBoundNtNtB7_5token4PlusENtNtNtNtCsaNl6UpbT7bw_4core4iter6traits8iterator8Iterator4nextB7_, symObjAddr: 0x110D4, symBinAddr: 0x61724, symSize: 0x44 }
  - { offset: 0xD6043, size: 0x8, addend: 0x0, symName: __RNCNvXsw_NtCsc29TF2YcYso_3syn10punctuatedINtB7_11PrivateIterNtNtB9_4path11PathSegmentNtNtB9_5token7PathSepENtNtNtNtCsaNl6UpbT7bw_4core4iter6traits8iterator8Iterator4next0B9_, symObjAddr: 0x11160, symBinAddr: 0x61768, symSize: 0x24 }
  - { offset: 0xD608E, size: 0x8, addend: 0x0, symName: __RNCNvXsw_NtCsc29TF2YcYso_3syn10punctuatedINtB7_11PrivateIterNtNtB9_8generics12GenericParamNtNtB9_5token5CommaENtNtNtNtCsaNl6UpbT7bw_4core4iter6traits8iterator8Iterator4next0B9_, symObjAddr: 0x11184, symBinAddr: 0x6178C, symSize: 0x24 }
  - { offset: 0xD60D9, size: 0x8, addend: 0x0, symName: __RNCNvXsw_NtCsc29TF2YcYso_3syn10punctuatedINtB7_11PrivateIterNtNtB9_8generics14TypeParamBoundNtNtB9_5token4PlusENtNtNtNtCsaNl6UpbT7bw_4core4iter6traits8iterator8Iterator4next0B9_, symObjAddr: 0x111A8, symBinAddr: 0x617B0, symSize: 0x24 }
  - { offset: 0xD6124, size: 0x8, addend: 0x0, symName: __RNCNvXsw_NtCsc29TF2YcYso_3syn10punctuatedINtB7_11PrivateIterNtNtB9_4path11PathSegmentNtNtB9_5token7PathSepENtNtNtNtCsaNl6UpbT7bw_4core4iter6traits8iterator8Iterator4nexts_0B9_, symObjAddr: 0x11234, symBinAddr: 0x617D4, symSize: 0x34 }
  - { offset: 0xD6166, size: 0x8, addend: 0x0, symName: __RNCNvXsw_NtCsc29TF2YcYso_3syn10punctuatedINtB7_11PrivateIterNtNtB9_8generics12GenericParamNtNtB9_5token5CommaENtNtNtNtCsaNl6UpbT7bw_4core4iter6traits8iterator8Iterator4nexts_0B9_, symObjAddr: 0x11268, symBinAddr: 0x61808, symSize: 0x34 }
  - { offset: 0xD61A8, size: 0x8, addend: 0x0, symName: __RNCNvXsw_NtCsc29TF2YcYso_3syn10punctuatedINtB7_11PrivateIterNtNtB9_8generics14TypeParamBoundNtNtB9_5token4PlusENtNtNtNtCsaNl6UpbT7bw_4core4iter6traits8iterator8Iterator4nexts_0B9_, symObjAddr: 0x1129C, symBinAddr: 0x6183C, symSize: 0x34 }
  - { offset: 0xD6206, size: 0x8, addend: 0x0, symName: __RNvXsx_NtCsc29TF2YcYso_3syn10punctuatedINtB5_11PrivateIterNtNtB7_4path11PathSegmentNtNtB7_5token7PathSepENtNtNtNtCsaNl6UpbT7bw_4core4iter6traits12double_ended19DoubleEndedIterator9next_backB7_, symObjAddr: 0x11350, symBinAddr: 0x61870, symSize: 0x40 }
  - { offset: 0xD6246, size: 0x8, addend: 0x0, symName: __RNvXsx_NtCsc29TF2YcYso_3syn10punctuatedINtB5_11PrivateIterNtNtB7_8generics12GenericParamNtNtB7_5token5CommaENtNtNtNtCsaNl6UpbT7bw_4core4iter6traits12double_ended19DoubleEndedIterator9next_backB7_, symObjAddr: 0x11390, symBinAddr: 0x618B0, symSize: 0x40 }
  - { offset: 0xD6286, size: 0x8, addend: 0x0, symName: __RNvXsx_NtCsc29TF2YcYso_3syn10punctuatedINtB5_11PrivateIterNtNtB7_8generics14TypeParamBoundNtNtB7_5token4PlusENtNtNtNtCsaNl6UpbT7bw_4core4iter6traits12double_ended19DoubleEndedIterator9next_backB7_, symObjAddr: 0x113D0, symBinAddr: 0x618F0, symSize: 0x40 }
  - { offset: 0xD62CB, size: 0x8, addend: 0x0, symName: __RNCNvXsx_NtCsc29TF2YcYso_3syn10punctuatedINtB7_11PrivateIterNtNtB9_4path11PathSegmentNtNtB9_5token7PathSepENtNtNtNtCsaNl6UpbT7bw_4core4iter6traits12double_ended19DoubleEndedIterator9next_back0B9_, symObjAddr: 0x11480, symBinAddr: 0x61930, symSize: 0x38 }
  - { offset: 0xD630D, size: 0x8, addend: 0x0, symName: __RNCNvXsx_NtCsc29TF2YcYso_3syn10punctuatedINtB7_11PrivateIterNtNtB9_8generics12GenericParamNtNtB9_5token5CommaENtNtNtNtCsaNl6UpbT7bw_4core4iter6traits12double_ended19DoubleEndedIterator9next_back0B9_, symObjAddr: 0x114B8, symBinAddr: 0x61968, symSize: 0x38 }
  - { offset: 0xD634F, size: 0x8, addend: 0x0, symName: __RNCNvXsx_NtCsc29TF2YcYso_3syn10punctuatedINtB7_11PrivateIterNtNtB9_8generics14TypeParamBoundNtNtB9_5token4PlusENtNtNtNtCsaNl6UpbT7bw_4core4iter6traits12double_ended19DoubleEndedIterator9next_back0B9_, symObjAddr: 0x114F0, symBinAddr: 0x619A0, symSize: 0x38 }
  - { offset: 0xD6396, size: 0x8, addend: 0x0, symName: __RNCNCNvXsx_NtCsc29TF2YcYso_3syn10punctuatedINtB9_11PrivateIterNtNtBb_4path11PathSegmentNtNtBb_5token7PathSepENtNtNtNtCsaNl6UpbT7bw_4core4iter6traits12double_ended19DoubleEndedIterator9next_back00Bb_, symObjAddr: 0x11570, symBinAddr: 0x619D8, symSize: 0x24 }
  - { offset: 0xD63E1, size: 0x8, addend: 0x0, symName: __RNCNCNvXsx_NtCsc29TF2YcYso_3syn10punctuatedINtB9_11PrivateIterNtNtBb_8generics12GenericParamNtNtBb_5token5CommaENtNtNtNtCsaNl6UpbT7bw_4core4iter6traits12double_ended19DoubleEndedIterator9next_back00Bb_, symObjAddr: 0x11594, symBinAddr: 0x619FC, symSize: 0x24 }
  - { offset: 0xD642C, size: 0x8, addend: 0x0, symName: __RNCNCNvXsx_NtCsc29TF2YcYso_3syn10punctuatedINtB9_11PrivateIterNtNtBb_8generics14TypeParamBoundNtNtBb_5token4PlusENtNtNtNtCsaNl6UpbT7bw_4core4iter6traits12double_ended19DoubleEndedIterator9next_back00Bb_, symObjAddr: 0x115B8, symBinAddr: 0x61A20, symSize: 0x24 }
  - { offset: 0xD6494, size: 0x8, addend: 0x0, symName: __RNvXsy_NtCsc29TF2YcYso_3syn10punctuatedINtB5_11PrivateIterNtNtB7_4path11PathSegmentNtNtB7_5token7PathSepENtNtNtNtCsaNl6UpbT7bw_4core4iter6traits10exact_size17ExactSizeIterator3lenB7_, symObjAddr: 0x11704, symBinAddr: 0x61A44, symSize: 0x94 }
  - { offset: 0xD6508, size: 0x8, addend: 0x0, symName: __RNvXsy_NtCsc29TF2YcYso_3syn10punctuatedINtB5_11PrivateIterNtNtB7_8generics12GenericParamNtNtB7_5token5CommaENtNtNtNtCsaNl6UpbT7bw_4core4iter6traits10exact_size17ExactSizeIterator3lenB7_, symObjAddr: 0x11798, symBinAddr: 0x61AD8, symSize: 0x94 }
  - { offset: 0xD657C, size: 0x8, addend: 0x0, symName: __RNvXsy_NtCsc29TF2YcYso_3syn10punctuatedINtB5_11PrivateIterNtNtB7_8generics14TypeParamBoundNtNtB7_5token4PlusENtNtNtNtCsaNl6UpbT7bw_4core4iter6traits10exact_size17ExactSizeIterator3lenB7_, symObjAddr: 0x1182C, symBinAddr: 0x61B6C, symSize: 0x94 }
  - { offset: 0xD65F6, size: 0x8, addend: 0x0, symName: __RNvXsz_NtCsc29TF2YcYso_3syn10punctuatedINtB5_11PrivateIterNtNtB7_4path11PathSegmentNtNtB7_5token7PathSepENtNtCsaNl6UpbT7bw_4core5clone5Clone5cloneB7_, symObjAddr: 0x11990, symBinAddr: 0x61C00, symSize: 0x68 }
  - { offset: 0xD6636, size: 0x8, addend: 0x0, symName: __RNvXsz_NtCsc29TF2YcYso_3syn10punctuatedINtB5_11PrivateIterNtNtB7_8generics12GenericParamNtNtB7_5token5CommaENtNtCsaNl6UpbT7bw_4core5clone5Clone5cloneB7_, symObjAddr: 0x119F8, symBinAddr: 0x61C68, symSize: 0x68 }
  - { offset: 0xD6676, size: 0x8, addend: 0x0, symName: __RNvXsz_NtCsc29TF2YcYso_3syn10punctuatedINtB5_11PrivateIterNtNtB7_8generics14TypeParamBoundNtNtB7_5token4PlusENtNtCsaNl6UpbT7bw_4core5clone5Clone5cloneB7_, symObjAddr: 0x11A60, symBinAddr: 0x61CD0, symSize: 0x68 }
  - { offset: 0xD66BC, size: 0x8, addend: 0x0, symName: __RNvXsA_NtCsc29TF2YcYso_3syn10punctuatedINtB5_11PrivateIterNtNtB7_4path11PathSegmentNtNtB7_5token7PathSepEINtB5_9IterTraitBU_E9clone_boxB7_, symObjAddr: 0x11BF0, symBinAddr: 0x61D38, symSize: 0x94 }
  - { offset: 0xD671A, size: 0x8, addend: 0x0, symName: __RNvXsA_NtCsc29TF2YcYso_3syn10punctuatedINtB5_11PrivateIterNtNtB7_8generics12GenericParamNtNtB7_5token5CommaEINtB5_9IterTraitBU_E9clone_boxB7_, symObjAddr: 0x11C84, symBinAddr: 0x61DCC, symSize: 0x94 }
  - { offset: 0xD6778, size: 0x8, addend: 0x0, symName: __RNvXsA_NtCsc29TF2YcYso_3syn10punctuatedINtB5_11PrivateIterNtNtB7_8generics14TypeParamBoundNtNtB7_5token4PlusEINtB5_9IterTraitBU_E9clone_boxB7_, symObjAddr: 0x11D18, symBinAddr: 0x61E60, symSize: 0x94 }
  - { offset: 0xD67DC, size: 0x8, addend: 0x0, symName: __RNvXsD_NtCsc29TF2YcYso_3syn10punctuatedINtB5_7IterMutNtNtB7_4path11PathSegmentENtNtNtNtCsaNl6UpbT7bw_4core4iter6traits12double_ended19DoubleEndedIterator9next_backB7_, symObjAddr: 0x11ECC, symBinAddr: 0x61EF4, symSize: 0x48 }
  - { offset: 0xD6819, size: 0x8, addend: 0x0, symName: __RNvXsF_NtCsc29TF2YcYso_3syn10punctuatedINtB5_14PrivateIterMutNtNtB7_4path11PathSegmentNtNtB7_5token7PathSepENtNtNtNtCsaNl6UpbT7bw_4core4iter6traits8iterator8Iterator4nextB7_, symObjAddr: 0x11F58, symBinAddr: 0x61F3C, symSize: 0x44 }
  - { offset: 0xD685E, size: 0x8, addend: 0x0, symName: __RNCNvXsF_NtCsc29TF2YcYso_3syn10punctuatedINtB7_14PrivateIterMutNtNtB9_4path11PathSegmentNtNtB9_5token7PathSepENtNtNtNtCsaNl6UpbT7bw_4core4iter6traits8iterator8Iterator4next0B9_, symObjAddr: 0x12004, symBinAddr: 0x61F80, symSize: 0x24 }
  - { offset: 0xD68A9, size: 0x8, addend: 0x0, symName: __RNCNvXsF_NtCsc29TF2YcYso_3syn10punctuatedINtB7_14PrivateIterMutNtNtB9_4path11PathSegmentNtNtB9_5token7PathSepENtNtNtNtCsaNl6UpbT7bw_4core4iter6traits8iterator8Iterator4nexts_0B9_, symObjAddr: 0x12080, symBinAddr: 0x61FA4, symSize: 0x34 }
  - { offset: 0xD68F9, size: 0x8, addend: 0x0, symName: __RNvXsG_NtCsc29TF2YcYso_3syn10punctuatedINtB5_14PrivateIterMutNtNtB7_4path11PathSegmentNtNtB7_5token7PathSepENtNtNtNtCsaNl6UpbT7bw_4core4iter6traits12double_ended19DoubleEndedIterator9next_backB7_, symObjAddr: 0x12128, symBinAddr: 0x61FD8, symSize: 0x40 }
  - { offset: 0xD693E, size: 0x8, addend: 0x0, symName: __RNCNvXsG_NtCsc29TF2YcYso_3syn10punctuatedINtB7_14PrivateIterMutNtNtB9_4path11PathSegmentNtNtB9_5token7PathSepENtNtNtNtCsaNl6UpbT7bw_4core4iter6traits12double_ended19DoubleEndedIterator9next_back0B9_, symObjAddr: 0x121E0, symBinAddr: 0x62018, symSize: 0x38 }
  - { offset: 0xD6985, size: 0x8, addend: 0x0, symName: __RNCNCNvXsG_NtCsc29TF2YcYso_3syn10punctuatedINtB9_14PrivateIterMutNtNtBb_4path11PathSegmentNtNtBb_5token7PathSepENtNtNtNtCsaNl6UpbT7bw_4core4iter6traits12double_ended19DoubleEndedIterator9next_back00Bb_, symObjAddr: 0x12274, symBinAddr: 0x62050, symSize: 0x24 }
  - { offset: 0xD69DF, size: 0x8, addend: 0x0, symName: __RNvXsH_NtCsc29TF2YcYso_3syn10punctuatedINtB5_14PrivateIterMutNtNtB7_4path11PathSegmentNtNtB7_5token7PathSepENtNtNtNtCsaNl6UpbT7bw_4core4iter6traits10exact_size17ExactSizeIterator3lenB7_, symObjAddr: 0x12350, symBinAddr: 0x62074, symSize: 0x94 }
  - { offset: 0xD6A5E, size: 0x8, addend: 0x0, symName: __RNcNtINtNtCsc29TF2YcYso_3syn10punctuated4PairNtNtB8_4path11PathSegmentNtNtB8_5token7PathSepE3End0B8_, symObjAddr: 0x12478, symBinAddr: 0x62108, symSize: 0x40 }
  - { offset: 0xD6A9B, size: 0x8, addend: 0x0, symName: __RNcNtINtNtCsc29TF2YcYso_3syn10punctuated4PairRNtNtB8_2ty4TypeRNtNtB8_5token5CommaE3End0B8_, symObjAddr: 0x124B8, symBinAddr: 0x62148, symSize: 0x1C }
  - { offset: 0xD6AD7, size: 0x8, addend: 0x0, symName: __RNcNtINtNtCsc29TF2YcYso_3syn10punctuated4PairRNtNtB8_2ty9BareFnArgRNtNtB8_5token5CommaE3End0B8_, symObjAddr: 0x124D4, symBinAddr: 0x62164, symSize: 0x1C }
  - { offset: 0xD6B13, size: 0x8, addend: 0x0, symName: __RNcNtINtNtCsc29TF2YcYso_3syn10punctuated4PairRNtNtB8_3pat3PatRNtNtB8_5token2OrE3End0B8_, symObjAddr: 0x124F0, symBinAddr: 0x62180, symSize: 0x1C }
  - { offset: 0xD6B4F, size: 0x8, addend: 0x0, symName: __RNcNtINtNtCsc29TF2YcYso_3syn10punctuated4PairRNtNtB8_3pat3PatRNtNtB8_5token5CommaE3End0B8_, symObjAddr: 0x1250C, symBinAddr: 0x6219C, symSize: 0x1C }
  - { offset: 0xD6B8B, size: 0x8, addend: 0x0, symName: __RNcNtINtNtCsc29TF2YcYso_3syn10punctuated4PairRNtNtB8_3pat8FieldPatRNtNtB8_5token5CommaE3End0B8_, symObjAddr: 0x12528, symBinAddr: 0x621B8, symSize: 0x1C }
  - { offset: 0xD6BC7, size: 0x8, addend: 0x0, symName: __RNcNtINtNtCsc29TF2YcYso_3syn10punctuated4PairRNtNtB8_4data5FieldRNtNtB8_5token5CommaE3End0B8_, symObjAddr: 0x12544, symBinAddr: 0x621D4, symSize: 0x1C }
  - { offset: 0xD6C03, size: 0x8, addend: 0x0, symName: __RNcNtINtNtCsc29TF2YcYso_3syn10punctuated4PairRNtNtB8_4data7VariantRNtNtB8_5token5CommaE3End0B8_, symObjAddr: 0x12560, symBinAddr: 0x621F0, symSize: 0x1C }
  - { offset: 0xD6C3F, size: 0x8, addend: 0x0, symName: __RNcNtINtNtCsc29TF2YcYso_3syn10punctuated4PairRNtNtB8_4expr10FieldValueRNtNtB8_5token5CommaE3End0B8_, symObjAddr: 0x1257C, symBinAddr: 0x6220C, symSize: 0x1C }
  - { offset: 0xD6C7B, size: 0x8, addend: 0x0, symName: __RNcNtINtNtCsc29TF2YcYso_3syn10punctuated4PairRNtNtB8_4expr4ExprRNtNtB8_5token5CommaE3End0B8_, symObjAddr: 0x12598, symBinAddr: 0x62228, symSize: 0x1C }
  - { offset: 0xD6CB7, size: 0x8, addend: 0x0, symName: __RNcNtINtNtCsc29TF2YcYso_3syn10punctuated4PairRNtNtB8_4item5FnArgRNtNtB8_5token5CommaE3End0B8_, symObjAddr: 0x125B4, symBinAddr: 0x62244, symSize: 0x1C }
  - { offset: 0xD6CF3, size: 0x8, addend: 0x0, symName: __RNcNtINtNtCsc29TF2YcYso_3syn10punctuated4PairRNtNtB8_4item7UseTreeRNtNtB8_5token5CommaE3End0B8_, symObjAddr: 0x125D0, symBinAddr: 0x62260, symSize: 0x1C }
  - { offset: 0xD6D2F, size: 0x8, addend: 0x0, symName: __RNcNtINtNtCsc29TF2YcYso_3syn10punctuated4PairRNtNtB8_4path11PathSegmentRNtNtB8_5token7PathSepE3End0B8_, symObjAddr: 0x125EC, symBinAddr: 0x6227C, symSize: 0x1C }
  - { offset: 0xD6D6B, size: 0x8, addend: 0x0, symName: __RNcNtINtNtCsc29TF2YcYso_3syn10punctuated4PairRNtNtB8_4path15GenericArgumentRNtNtB8_5token5CommaE3End0B8_, symObjAddr: 0x12608, symBinAddr: 0x62298, symSize: 0x1C }
  - { offset: 0xD6DA7, size: 0x8, addend: 0x0, symName: __RNcNtINtNtCsc29TF2YcYso_3syn10punctuated4PairRNtNtB8_8generics12GenericParamRNtNtB8_5token5CommaE3End0B8_, symObjAddr: 0x12624, symBinAddr: 0x622B4, symSize: 0x1C }
  - { offset: 0xD6DE3, size: 0x8, addend: 0x0, symName: __RNcNtINtNtCsc29TF2YcYso_3syn10punctuated4PairRNtNtB8_8generics13CapturedParamRNtNtB8_5token5CommaE3End0B8_, symObjAddr: 0x12640, symBinAddr: 0x622D0, symSize: 0x1C }
  - { offset: 0xD6E1F, size: 0x8, addend: 0x0, symName: __RNcNtINtNtCsc29TF2YcYso_3syn10punctuated4PairRNtNtB8_8generics14TypeParamBoundRNtNtB8_5token4PlusE3End0B8_, symObjAddr: 0x1265C, symBinAddr: 0x622EC, symSize: 0x1C }
  - { offset: 0xD6E5B, size: 0x8, addend: 0x0, symName: __RNcNtINtNtCsc29TF2YcYso_3syn10punctuated4PairRNtNtB8_8generics14WherePredicateRNtNtB8_5token5CommaE3End0B8_, symObjAddr: 0x12678, symBinAddr: 0x62308, symSize: 0x1C }
  - { offset: 0xD6E97, size: 0x8, addend: 0x0, symName: __RNcNtINtNtCsc29TF2YcYso_3syn10punctuated4PairRNtNtB8_8lifetime8LifetimeRNtNtB8_5token4PlusE3End0B8_, symObjAddr: 0x12694, symBinAddr: 0x62324, symSize: 0x1C }
  - { offset: 0xD7246, size: 0x8, addend: 0x0, symName: __RNvXsN_NtCsc29TF2YcYso_3syn10punctuatedINtB5_10PunctuatedNtNtB7_3pat3PatNtNtB7_5token5CommaEINtNtNtCsaNl6UpbT7bw_4core3ops5index5IndexjE5indexB7_, symObjAddr: 0x12B34, symBinAddr: 0x627C4, symSize: 0x174 }
  - { offset: 0xD72AB, size: 0x8, addend: 0x0, symName: __RNvXsN_NtCsc29TF2YcYso_3syn10punctuatedINtB5_10PunctuatedNtNtB7_4path11PathSegmentNtNtB7_5token7PathSepEINtNtNtCsaNl6UpbT7bw_4core3ops5index5IndexjE5indexB7_, symObjAddr: 0x12CA8, symBinAddr: 0x62938, symSize: 0x174 }
  - { offset: 0xD731B, size: 0x8, addend: 0x0, symName: __RNvXNtNtCsc29TF2YcYso_3syn10punctuated8printingINtB4_10PunctuatedNtNtB6_2ty4TypeNtNtB6_5token5CommaENtNtCs4EAaWzSXu1l_5quote9to_tokens8ToTokens9to_tokensB6_, symObjAddr: 0x12E1C, symBinAddr: 0x62AAC, symSize: 0x50 }
  - { offset: 0xD7366, size: 0x8, addend: 0x0, symName: __RNvXNtNtCsc29TF2YcYso_3syn10punctuated8printingINtB4_10PunctuatedNtNtB6_2ty9BareFnArgNtNtB6_5token5CommaENtNtCs4EAaWzSXu1l_5quote9to_tokens8ToTokens9to_tokensB6_, symObjAddr: 0x12E6C, symBinAddr: 0x62AFC, symSize: 0x50 }
  - { offset: 0xD73B1, size: 0x8, addend: 0x0, symName: __RNvXNtNtCsc29TF2YcYso_3syn10punctuated8printingINtB4_10PunctuatedNtNtB6_3pat3PatNtNtB6_5token2OrENtNtCs4EAaWzSXu1l_5quote9to_tokens8ToTokens9to_tokensB6_, symObjAddr: 0x12EBC, symBinAddr: 0x62B4C, symSize: 0x50 }
  - { offset: 0xD73FC, size: 0x8, addend: 0x0, symName: __RNvXNtNtCsc29TF2YcYso_3syn10punctuated8printingINtB4_10PunctuatedNtNtB6_3pat3PatNtNtB6_5token5CommaENtNtCs4EAaWzSXu1l_5quote9to_tokens8ToTokens9to_tokensB6_, symObjAddr: 0x12F0C, symBinAddr: 0x62B9C, symSize: 0x50 }
  - { offset: 0xD7447, size: 0x8, addend: 0x0, symName: __RNvXNtNtCsc29TF2YcYso_3syn10punctuated8printingINtB4_10PunctuatedNtNtB6_3pat8FieldPatNtNtB6_5token5CommaENtNtCs4EAaWzSXu1l_5quote9to_tokens8ToTokens9to_tokensB6_, symObjAddr: 0x12F5C, symBinAddr: 0x62BEC, symSize: 0x50 }
  - { offset: 0xD7492, size: 0x8, addend: 0x0, symName: __RNvXNtNtCsc29TF2YcYso_3syn10punctuated8printingINtB4_10PunctuatedNtNtB6_4data5FieldNtNtB6_5token5CommaENtNtCs4EAaWzSXu1l_5quote9to_tokens8ToTokens9to_tokensB6_, symObjAddr: 0x12FAC, symBinAddr: 0x62C3C, symSize: 0x50 }
  - { offset: 0xD74DD, size: 0x8, addend: 0x0, symName: __RNvXNtNtCsc29TF2YcYso_3syn10punctuated8printingINtB4_10PunctuatedNtNtB6_4data7VariantNtNtB6_5token5CommaENtNtCs4EAaWzSXu1l_5quote9to_tokens8ToTokens9to_tokensB6_, symObjAddr: 0x12FFC, symBinAddr: 0x62C8C, symSize: 0x50 }
  - { offset: 0xD7528, size: 0x8, addend: 0x0, symName: __RNvXNtNtCsc29TF2YcYso_3syn10punctuated8printingINtB4_10PunctuatedNtNtB6_4expr10FieldValueNtNtB6_5token5CommaENtNtCs4EAaWzSXu1l_5quote9to_tokens8ToTokens9to_tokensB6_, symObjAddr: 0x1304C, symBinAddr: 0x62CDC, symSize: 0x50 }
  - { offset: 0xD7573, size: 0x8, addend: 0x0, symName: __RNvXNtNtCsc29TF2YcYso_3syn10punctuated8printingINtB4_10PunctuatedNtNtB6_4expr4ExprNtNtB6_5token5CommaENtNtCs4EAaWzSXu1l_5quote9to_tokens8ToTokens9to_tokensB6_, symObjAddr: 0x1309C, symBinAddr: 0x62D2C, symSize: 0x50 }
  - { offset: 0xD75BE, size: 0x8, addend: 0x0, symName: __RNvXNtNtCsc29TF2YcYso_3syn10punctuated8printingINtB4_10PunctuatedNtNtB6_4item5FnArgNtNtB6_5token5CommaENtNtCs4EAaWzSXu1l_5quote9to_tokens8ToTokens9to_tokensB6_, symObjAddr: 0x130EC, symBinAddr: 0x62D7C, symSize: 0x50 }
  - { offset: 0xD7609, size: 0x8, addend: 0x0, symName: __RNvXNtNtCsc29TF2YcYso_3syn10punctuated8printingINtB4_10PunctuatedNtNtB6_4item7UseTreeNtNtB6_5token5CommaENtNtCs4EAaWzSXu1l_5quote9to_tokens8ToTokens9to_tokensB6_, symObjAddr: 0x1313C, symBinAddr: 0x62DCC, symSize: 0x50 }
  - { offset: 0xD7654, size: 0x8, addend: 0x0, symName: __RNvXNtNtCsc29TF2YcYso_3syn10punctuated8printingINtB4_10PunctuatedNtNtB6_8generics12GenericParamNtNtB6_5token5CommaENtNtCs4EAaWzSXu1l_5quote9to_tokens8ToTokens9to_tokensB6_, symObjAddr: 0x1318C, symBinAddr: 0x62E1C, symSize: 0x50 }
  - { offset: 0xD769F, size: 0x8, addend: 0x0, symName: __RNvXNtNtCsc29TF2YcYso_3syn10punctuated8printingINtB4_10PunctuatedNtNtB6_8generics14TypeParamBoundNtNtB6_5token4PlusENtNtCs4EAaWzSXu1l_5quote9to_tokens8ToTokens9to_tokensB6_, symObjAddr: 0x131DC, symBinAddr: 0x62E6C, symSize: 0x50 }
  - { offset: 0xD76EA, size: 0x8, addend: 0x0, symName: __RNvXNtNtCsc29TF2YcYso_3syn10punctuated8printingINtB4_10PunctuatedNtNtB6_8generics14WherePredicateNtNtB6_5token5CommaENtNtCs4EAaWzSXu1l_5quote9to_tokens8ToTokens9to_tokensB6_, symObjAddr: 0x1322C, symBinAddr: 0x62EBC, symSize: 0x50 }
  - { offset: 0xD7735, size: 0x8, addend: 0x0, symName: __RNvXNtNtCsc29TF2YcYso_3syn10punctuated8printingINtB4_10PunctuatedNtNtB6_8lifetime8LifetimeNtNtB6_5token4PlusENtNtCs4EAaWzSXu1l_5quote9to_tokens8ToTokens9to_tokensB6_, symObjAddr: 0x1327C, symBinAddr: 0x62F0C, symSize: 0x50 }
  - { offset: 0xD7786, size: 0x8, addend: 0x0, symName: __RNvXs_NtNtCsc29TF2YcYso_3syn10punctuated8printingINtB6_4PairRNtNtB8_2ty4TypeRNtNtB8_5token5CommaENtNtCs4EAaWzSXu1l_5quote9to_tokens8ToTokens9to_tokensB8_, symObjAddr: 0x132CC, symBinAddr: 0x62F5C, symSize: 0xB4 }
  - { offset: 0xD7815, size: 0x8, addend: 0x0, symName: __RNvXs_NtNtCsc29TF2YcYso_3syn10punctuated8printingINtB6_4PairRNtNtB8_2ty9BareFnArgRNtNtB8_5token5CommaENtNtCs4EAaWzSXu1l_5quote9to_tokens8ToTokens9to_tokensB8_, symObjAddr: 0x13380, symBinAddr: 0x63010, symSize: 0xB4 }
  - { offset: 0xD78A4, size: 0x8, addend: 0x0, symName: __RNvXs_NtNtCsc29TF2YcYso_3syn10punctuated8printingINtB6_4PairRNtNtB8_3pat3PatRNtNtB8_5token2OrENtNtCs4EAaWzSXu1l_5quote9to_tokens8ToTokens9to_tokensB8_, symObjAddr: 0x13434, symBinAddr: 0x630C4, symSize: 0xB4 }
  - { offset: 0xD7933, size: 0x8, addend: 0x0, symName: __RNvXs_NtNtCsc29TF2YcYso_3syn10punctuated8printingINtB6_4PairRNtNtB8_3pat3PatRNtNtB8_5token5CommaENtNtCs4EAaWzSXu1l_5quote9to_tokens8ToTokens9to_tokensB8_, symObjAddr: 0x134E8, symBinAddr: 0x63178, symSize: 0xB4 }
  - { offset: 0xD79C2, size: 0x8, addend: 0x0, symName: __RNvXs_NtNtCsc29TF2YcYso_3syn10punctuated8printingINtB6_4PairRNtNtB8_3pat8FieldPatRNtNtB8_5token5CommaENtNtCs4EAaWzSXu1l_5quote9to_tokens8ToTokens9to_tokensB8_, symObjAddr: 0x1359C, symBinAddr: 0x6322C, symSize: 0xB4 }
  - { offset: 0xD7A51, size: 0x8, addend: 0x0, symName: __RNvXs_NtNtCsc29TF2YcYso_3syn10punctuated8printingINtB6_4PairRNtNtB8_4data5FieldRNtNtB8_5token5CommaENtNtCs4EAaWzSXu1l_5quote9to_tokens8ToTokens9to_tokensB8_, symObjAddr: 0x13650, symBinAddr: 0x632E0, symSize: 0xB4 }
  - { offset: 0xD7AE0, size: 0x8, addend: 0x0, symName: __RNvXs_NtNtCsc29TF2YcYso_3syn10punctuated8printingINtB6_4PairRNtNtB8_4data7VariantRNtNtB8_5token5CommaENtNtCs4EAaWzSXu1l_5quote9to_tokens8ToTokens9to_tokensB8_, symObjAddr: 0x13704, symBinAddr: 0x63394, symSize: 0xB4 }
  - { offset: 0xD7B6F, size: 0x8, addend: 0x0, symName: __RNvXs_NtNtCsc29TF2YcYso_3syn10punctuated8printingINtB6_4PairRNtNtB8_4expr10FieldValueRNtNtB8_5token5CommaENtNtCs4EAaWzSXu1l_5quote9to_tokens8ToTokens9to_tokensB8_, symObjAddr: 0x137B8, symBinAddr: 0x63448, symSize: 0xB4 }
  - { offset: 0xD7BFE, size: 0x8, addend: 0x0, symName: __RNvXs_NtNtCsc29TF2YcYso_3syn10punctuated8printingINtB6_4PairRNtNtB8_4expr4ExprRNtNtB8_5token5CommaENtNtCs4EAaWzSXu1l_5quote9to_tokens8ToTokens9to_tokensB8_, symObjAddr: 0x1386C, symBinAddr: 0x634FC, symSize: 0xB4 }
  - { offset: 0xD7C8D, size: 0x8, addend: 0x0, symName: __RNvXs_NtNtCsc29TF2YcYso_3syn10punctuated8printingINtB6_4PairRNtNtB8_4item5FnArgRNtNtB8_5token5CommaENtNtCs4EAaWzSXu1l_5quote9to_tokens8ToTokens9to_tokensB8_, symObjAddr: 0x13920, symBinAddr: 0x635B0, symSize: 0xB4 }
  - { offset: 0xD7D1C, size: 0x8, addend: 0x0, symName: __RNvXs_NtNtCsc29TF2YcYso_3syn10punctuated8printingINtB6_4PairRNtNtB8_4item7UseTreeRNtNtB8_5token5CommaENtNtCs4EAaWzSXu1l_5quote9to_tokens8ToTokens9to_tokensB8_, symObjAddr: 0x139D4, symBinAddr: 0x63664, symSize: 0xB4 }
  - { offset: 0xD7DAB, size: 0x8, addend: 0x0, symName: __RNvXs_NtNtCsc29TF2YcYso_3syn10punctuated8printingINtB6_4PairRNtNtB8_4path15GenericArgumentRNtNtB8_5token5CommaENtNtCs4EAaWzSXu1l_5quote9to_tokens8ToTokens9to_tokensB8_, symObjAddr: 0x13A88, symBinAddr: 0x63718, symSize: 0xB4 }
  - { offset: 0xD7E3A, size: 0x8, addend: 0x0, symName: __RNvXs_NtNtCsc29TF2YcYso_3syn10punctuated8printingINtB6_4PairRNtNtB8_8generics12GenericParamRNtNtB8_5token5CommaENtNtCs4EAaWzSXu1l_5quote9to_tokens8ToTokens9to_tokensB8_, symObjAddr: 0x13B3C, symBinAddr: 0x637CC, symSize: 0xB4 }
  - { offset: 0xD7EC9, size: 0x8, addend: 0x0, symName: __RNvXs_NtNtCsc29TF2YcYso_3syn10punctuated8printingINtB6_4PairRNtNtB8_8generics13CapturedParamRNtNtB8_5token5CommaENtNtCs4EAaWzSXu1l_5quote9to_tokens8ToTokens9to_tokensB8_, symObjAddr: 0x13BF0, symBinAddr: 0x63880, symSize: 0xB4 }
  - { offset: 0xD7F58, size: 0x8, addend: 0x0, symName: __RNvXs_NtNtCsc29TF2YcYso_3syn10punctuated8printingINtB6_4PairRNtNtB8_8generics14TypeParamBoundRNtNtB8_5token4PlusENtNtCs4EAaWzSXu1l_5quote9to_tokens8ToTokens9to_tokensB8_, symObjAddr: 0x13CA4, symBinAddr: 0x63934, symSize: 0xB4 }
  - { offset: 0xD7FE7, size: 0x8, addend: 0x0, symName: __RNvXs_NtNtCsc29TF2YcYso_3syn10punctuated8printingINtB6_4PairRNtNtB8_8generics14WherePredicateRNtNtB8_5token5CommaENtNtCs4EAaWzSXu1l_5quote9to_tokens8ToTokens9to_tokensB8_, symObjAddr: 0x13D58, symBinAddr: 0x639E8, symSize: 0xB4 }
  - { offset: 0xD8076, size: 0x8, addend: 0x0, symName: __RNvXs_NtNtCsc29TF2YcYso_3syn10punctuated8printingINtB6_4PairRNtNtB8_8lifetime8LifetimeRNtNtB8_5token4PlusENtNtCs4EAaWzSXu1l_5quote9to_tokens8ToTokens9to_tokensB8_, symObjAddr: 0x13E0C, symBinAddr: 0x63A9C, symSize: 0xB4 }
  - { offset: 0xD8B7F, size: 0x8, addend: 0x0, symName: __RNCNvXNtNtCsc29TF2YcYso_3syn4attr8printingNtB6_9AttributeNtNtCs4EAaWzSXu1l_5quote9to_tokens8ToTokens9to_tokens0B8_, symObjAddr: 0x3E4C, symBinAddr: 0x57204, symSize: 0x3C }
  - { offset: 0xDD248, size: 0x8, addend: 0x0, symName: __RNvNvMNtCsc29TF2YcYso_3syn10precedenceNtB4_10Precedence2of12prefix_attrs, symObjAddr: 0x46BC, symBinAddr: 0x57A74, symSize: 0xCC }
  - { offset: 0xDD2A5, size: 0x8, addend: 0x0, symName: __RNvXs1_NtCsc29TF2YcYso_3syn10precedenceNtB5_10PrecedenceNtNtCsaNl6UpbT7bw_4core3cmp9PartialEq2eq, symObjAddr: 0x47B0, symBinAddr: 0x57B40, symSize: 0x3C }
  - { offset: 0xDD2E5, size: 0x8, addend: 0x0, symName: __RNvXs2_NtCsc29TF2YcYso_3syn10precedenceNtB5_10PrecedenceNtNtCsaNl6UpbT7bw_4core3cmp10PartialOrd11partial_cmp, symObjAddr: 0x47EC, symBinAddr: 0x57B7C, symSize: 0x5C }
  - { offset: 0xE0133, size: 0x8, addend: 0x0, symName: __RNvXs0_NtCsaNl6UpbT7bw_4core4cellINtB5_4CellNtNtCsc29TF2YcYso_3syn6buffer6CursorENtNtB7_5clone5Clone5cloneBK_, symObjAddr: 0x1610, symBinAddr: 0x55EF8, symSize: 0x20 }
  - { offset: 0xE018E, size: 0x8, addend: 0x0, symName: __RNvXsE_NtCsaNl6UpbT7bw_4core4cellNtB5_12BorrowRefMutNtNtNtB7_3ops4drop4Drop4dropCsc29TF2YcYso_3syn, symObjAddr: 0x1A54, symBinAddr: 0x56244, symSize: 0x28 }
  - { offset: 0xE0214, size: 0x8, addend: 0x0, symName: __RNvXsH_NtCsaNl6UpbT7bw_4core4cellINtB5_6RefMutINtNtCsiTraAjBDcu4_5alloc3vec3VecReEENtNtNtB7_3ops5deref8DerefMut9deref_mutCsc29TF2YcYso_3syn, symObjAddr: 0x1A7C, symBinAddr: 0x5626C, symSize: 0x18 }
  - { offset: 0xE4091, size: 0x8, addend: 0x0, symName: __RNvNvXs0_NtNtCsaNl6UpbT7bw_4core5slice5indexjINtB7_10SliceIndexSpE13get_unchecked18precondition_checkCsc29TF2YcYso_3syn, symObjAddr: 0x11C8, symBinAddr: 0x55AB0, symSize: 0xAC }
  - { offset: 0xE40FF, size: 0x8, addend: 0x0, symName: __RNvNvXs0_NtNtCsaNl6UpbT7bw_4core5slice5indexjINtB7_10SliceIndexSpE17get_unchecked_mut18precondition_checkCsc29TF2YcYso_3syn, symObjAddr: 0x1274, symBinAddr: 0x55B5C, symSize: 0xAC }
  - { offset: 0xE4168, size: 0x8, addend: 0x0, symName: __RNvXs0_NtNtCsaNl6UpbT7bw_4core5slice5indexjINtB5_10SliceIndexSNtNtCsc29TF2YcYso_3syn5error12ErrorMessageE5indexB12_, symObjAddr: 0x1630, symBinAddr: 0x55F18, symSize: 0x64 }
  - { offset: 0xE41AE, size: 0x8, addend: 0x0, symName: __RNvXs0_NtNtCsaNl6UpbT7bw_4core5slice5indexjINtB5_10SliceIndexSNtNtCsc29TF2YcYso_3syn6buffer5EntryE9index_mutB12_, symObjAddr: 0x1694, symBinAddr: 0x55F7C, symSize: 0x5C }
  - { offset: 0xE41F4, size: 0x8, addend: 0x0, symName: __RNvXs0_NtNtCsaNl6UpbT7bw_4core5slice5indexjINtB5_10SliceIndexSReE5indexCsc29TF2YcYso_3syn, symObjAddr: 0x16F0, symBinAddr: 0x55FD8, symSize: 0x5C }
  - { offset: 0xE423A, size: 0x8, addend: 0x0, symName: __RNvXs0_NtNtCsaNl6UpbT7bw_4core5slice5indexjINtB5_10SliceIndexSTNtNtCsc29TF2YcYso_3syn3pat3PatNtNtB13_5token5CommaEE5indexB13_, symObjAddr: 0x174C, symBinAddr: 0x56034, symSize: 0x64 }
  - { offset: 0xE4280, size: 0x8, addend: 0x0, symName: __RNvXs0_NtNtCsaNl6UpbT7bw_4core5slice5indexjINtB5_10SliceIndexSTNtNtCsc29TF2YcYso_3syn4path11PathSegmentNtNtB13_5token7PathSepEE5indexB13_, symObjAddr: 0x17B0, symBinAddr: 0x56098, symSize: 0x64 }
  - { offset: 0xE42C6, size: 0x8, addend: 0x0, symName: __RNvXs0_NtNtCsaNl6UpbT7bw_4core5slice5indexjINtB5_10SliceIndexShE5indexCsc29TF2YcYso_3syn, symObjAddr: 0x1814, symBinAddr: 0x560FC, symSize: 0x5C }
  - { offset: 0xE430C, size: 0x8, addend: 0x0, symName: __RNvXs0_NtNtCsaNl6UpbT7bw_4core5slice5indexjINtB5_10SliceIndexShE9index_mutCsc29TF2YcYso_3syn, symObjAddr: 0x1870, symBinAddr: 0x56158, symSize: 0x5C }
  - { offset: 0xE435D, size: 0x8, addend: 0x0, symName: __RNvNvXs2_NtNtCsaNl6UpbT7bw_4core5slice5indexINtNtNtBb_3ops5range5RangejEINtB7_10SliceIndexSpE17get_unchecked_mut18precondition_checkCsc29TF2YcYso_3syn, symObjAddr: 0x1320, symBinAddr: 0x55C08, symSize: 0xCC }
  - { offset: 0xE43EB, size: 0x8, addend: 0x0, symName: __RINvYINtNtCsc29TF2YcYso_3syn10punctuated11PrivateIterNtNtB8_4path11PathSegmentNtNtB8_5token7PathSepENtNtNtNtCsaNl6UpbT7bw_4core4iter6traits8iterator8Iterator8try_foldINtNtNtB1I_3num7nonzero7NonZerojENCNvXs_NvB1A_10advance_byB3_NtB3i_13SpecAdvanceBy15spec_advance_by0INtNtB1I_6option6OptionB2E_EEB8_, symObjAddr: 0x2B0, symBinAddr: 0x550E8, symSize: 0x154 }
  - { offset: 0xE449F, size: 0x8, addend: 0x0, symName: __RINvYINtNtCsc29TF2YcYso_3syn10punctuated11PrivateIterNtNtB8_8generics12GenericParamNtNtB8_5token5CommaENtNtNtNtCsaNl6UpbT7bw_4core4iter6traits8iterator8Iterator8try_foldINtNtNtB1L_3num7nonzero7NonZerojENCNvXs_NvB1D_10advance_byB3_NtB3l_13SpecAdvanceBy15spec_advance_by0INtNtB1L_6option6OptionB2H_EEB8_, symObjAddr: 0x404, symBinAddr: 0x5523C, symSize: 0x154 }
  - { offset: 0xE4553, size: 0x8, addend: 0x0, symName: __RINvYINtNtCsc29TF2YcYso_3syn10punctuated11PrivateIterNtNtB8_8generics14TypeParamBoundNtNtB8_5token4PlusENtNtNtNtCsaNl6UpbT7bw_4core4iter6traits8iterator8Iterator8try_foldINtNtNtB1M_3num7nonzero7NonZerojENCNvXs_NvB1E_10advance_byB3_NtB3m_13SpecAdvanceBy15spec_advance_by0INtNtB1M_6option6OptionB2I_EEB8_, symObjAddr: 0x558, symBinAddr: 0x55390, symSize: 0x154 }
  - { offset: 0xE4607, size: 0x8, addend: 0x0, symName: __RINvYINtNtCsc29TF2YcYso_3syn10punctuated14PrivateIterMutNtNtB8_4path11PathSegmentNtNtB8_5token7PathSepENtNtNtNtCsaNl6UpbT7bw_4core4iter6traits8iterator8Iterator8try_foldINtNtNtB1L_3num7nonzero7NonZerojENCNvXs_NvB1D_10advance_byB3_NtB3l_13SpecAdvanceBy15spec_advance_by0INtNtB1L_6option6OptionB2H_EEB8_, symObjAddr: 0x800, symBinAddr: 0x554E4, symSize: 0x154 }
  - { offset: 0xE46BB, size: 0x8, addend: 0x0, symName: __RINvYINtNtCsc29TF2YcYso_3syn10punctuated4IterNtNtB8_4path11PathSegmentENtNtNtNtCsaNl6UpbT7bw_4core4iter6traits8iterator8Iterator3allNCNvMs5_NtBJ_7parsingNtBJ_4Path12is_mod_style0EB8_, symObjAddr: 0xAA8, symBinAddr: 0x55638, symSize: 0x3C }
  - { offset: 0xE470A, size: 0x8, addend: 0x0, symName: __RINvYINtNtCsc29TF2YcYso_3syn10punctuated4IterNtNtB8_4path11PathSegmentENtNtNtNtCsaNl6UpbT7bw_4core4iter6traits8iterator8Iterator8try_folduNCINvNvB17_3all5checkRBH_NCNvMs5_NtBJ_7parsingNtBJ_4Path12is_mod_style0E0INtNtNtB1f_3ops12control_flow11ControlFlowuEEB8_, symObjAddr: 0xAE4, symBinAddr: 0x55674, symSize: 0x128 }
  - { offset: 0xE47C6, size: 0x8, addend: 0x0, symName: __RNvXs_NvNtNtNtNtCsaNl6UpbT7bw_4core4iter6traits8iterator8Iterator10advance_byINtNtCsc29TF2YcYso_3syn10punctuated11PrivateIterNtNtB1i_4path11PathSegmentNtNtB1i_5token7PathSepENtB4_13SpecAdvanceBy15spec_advance_byB1i_, symObjAddr: 0x1C68, symBinAddr: 0x562A8, symSize: 0x8C }
  - { offset: 0xE4874, size: 0x8, addend: 0x0, symName: __RNvXs_NvNtNtNtNtCsaNl6UpbT7bw_4core4iter6traits8iterator8Iterator10advance_byINtNtCsc29TF2YcYso_3syn10punctuated11PrivateIterNtNtB1i_8generics12GenericParamNtNtB1i_5token5CommaENtB4_13SpecAdvanceBy15spec_advance_byB1i_, symObjAddr: 0x1CF4, symBinAddr: 0x56334, symSize: 0x8C }
  - { offset: 0xE4922, size: 0x8, addend: 0x0, symName: __RNvXs_NvNtNtNtNtCsaNl6UpbT7bw_4core4iter6traits8iterator8Iterator10advance_byINtNtCsc29TF2YcYso_3syn10punctuated11PrivateIterNtNtB1i_8generics14TypeParamBoundNtNtB1i_5token4PlusENtB4_13SpecAdvanceBy15spec_advance_byB1i_, symObjAddr: 0x1D80, symBinAddr: 0x563C0, symSize: 0x8C }
  - { offset: 0xE49D0, size: 0x8, addend: 0x0, symName: __RNvXs_NvNtNtNtNtCsaNl6UpbT7bw_4core4iter6traits8iterator8Iterator10advance_byINtNtCsc29TF2YcYso_3syn10punctuated14PrivateIterMutNtNtB1i_4path11PathSegmentNtNtB1i_5token7PathSepENtB4_13SpecAdvanceBy15spec_advance_byB1i_, symObjAddr: 0x1E98, symBinAddr: 0x5644C, symSize: 0x8C }
  - { offset: 0xE4AA2, size: 0x8, addend: 0x0, symName: __RNvYINtNtCsc29TF2YcYso_3syn10punctuated11PrivateIterNtNtB7_4path11PathSegmentNtNtB7_5token7PathSepENtNtNtNtCsaNl6UpbT7bw_4core4iter6traits8iterator8Iterator10advance_byB7_, symObjAddr: 0x283C, symBinAddr: 0x566C4, symSize: 0x28 }
  - { offset: 0xE4AE8, size: 0x8, addend: 0x0, symName: __RNvYINtNtCsc29TF2YcYso_3syn10punctuated11PrivateIterNtNtB7_4path11PathSegmentNtNtB7_5token7PathSepENtNtNtNtCsaNl6UpbT7bw_4core4iter6traits8iterator8Iterator3nthB7_, symObjAddr: 0x2864, symBinAddr: 0x566EC, symSize: 0x7C }
  - { offset: 0xE4BB4, size: 0x8, addend: 0x0, symName: __RNvYINtNtCsc29TF2YcYso_3syn10punctuated11PrivateIterNtNtB7_4path11PathSegmentNtNtB7_5token7PathSepENtNtNtNtCsaNl6UpbT7bw_4core4iter6traits8iterator8Iterator9size_hintB7_, symObjAddr: 0x28E0, symBinAddr: 0x56768, symSize: 0x34 }
  - { offset: 0xE4BE9, size: 0x8, addend: 0x0, symName: __RNvYINtNtCsc29TF2YcYso_3syn10punctuated11PrivateIterNtNtB7_8generics12GenericParamNtNtB7_5token5CommaENtNtNtNtCsaNl6UpbT7bw_4core4iter6traits8iterator8Iterator10advance_byB7_, symObjAddr: 0x2B00, symBinAddr: 0x56988, symSize: 0x28 }
  - { offset: 0xE4C2F, size: 0x8, addend: 0x0, symName: __RNvYINtNtCsc29TF2YcYso_3syn10punctuated11PrivateIterNtNtB7_8generics12GenericParamNtNtB7_5token5CommaENtNtNtNtCsaNl6UpbT7bw_4core4iter6traits8iterator8Iterator3nthB7_, symObjAddr: 0x2B28, symBinAddr: 0x569B0, symSize: 0x7C }
  - { offset: 0xE4CFB, size: 0x8, addend: 0x0, symName: __RNvYINtNtCsc29TF2YcYso_3syn10punctuated11PrivateIterNtNtB7_8generics12GenericParamNtNtB7_5token5CommaENtNtNtNtCsaNl6UpbT7bw_4core4iter6traits8iterator8Iterator9size_hintB7_, symObjAddr: 0x2BA4, symBinAddr: 0x56A2C, symSize: 0x34 }
  - { offset: 0xE4D30, size: 0x8, addend: 0x0, symName: __RNvYINtNtCsc29TF2YcYso_3syn10punctuated11PrivateIterNtNtB7_8generics14TypeParamBoundNtNtB7_5token4PlusENtNtNtNtCsaNl6UpbT7bw_4core4iter6traits8iterator8Iterator10advance_byB7_, symObjAddr: 0x2DC4, symBinAddr: 0x56C4C, symSize: 0x28 }
  - { offset: 0xE4D76, size: 0x8, addend: 0x0, symName: __RNvYINtNtCsc29TF2YcYso_3syn10punctuated11PrivateIterNtNtB7_8generics14TypeParamBoundNtNtB7_5token4PlusENtNtNtNtCsaNl6UpbT7bw_4core4iter6traits8iterator8Iterator3nthB7_, symObjAddr: 0x2DEC, symBinAddr: 0x56C74, symSize: 0x7C }
  - { offset: 0xE4E42, size: 0x8, addend: 0x0, symName: __RNvYINtNtCsc29TF2YcYso_3syn10punctuated11PrivateIterNtNtB7_8generics14TypeParamBoundNtNtB7_5token4PlusENtNtNtNtCsaNl6UpbT7bw_4core4iter6traits8iterator8Iterator9size_hintB7_, symObjAddr: 0x2E68, symBinAddr: 0x56CF0, symSize: 0x34 }
  - { offset: 0xE4E77, size: 0x8, addend: 0x0, symName: __RNvYINtNtCsc29TF2YcYso_3syn10punctuated14PrivateIterMutNtNtB7_4path11PathSegmentNtNtB7_5token7PathSepENtNtNtNtCsaNl6UpbT7bw_4core4iter6traits8iterator8Iterator10advance_byB7_, symObjAddr: 0x334C, symBinAddr: 0x56F10, symSize: 0x28 }
  - { offset: 0xE4EBD, size: 0x8, addend: 0x0, symName: __RNvYINtNtCsc29TF2YcYso_3syn10punctuated14PrivateIterMutNtNtB7_4path11PathSegmentNtNtB7_5token7PathSepENtNtNtNtCsaNl6UpbT7bw_4core4iter6traits8iterator8Iterator3nthB7_, symObjAddr: 0x3374, symBinAddr: 0x56F38, symSize: 0x7C }
  - { offset: 0xE4F89, size: 0x8, addend: 0x0, symName: __RNvYINtNtCsc29TF2YcYso_3syn10punctuated14PrivateIterMutNtNtB7_4path11PathSegmentNtNtB7_5token7PathSepENtNtNtNtCsaNl6UpbT7bw_4core4iter6traits8iterator8Iterator9size_hintB7_, symObjAddr: 0x33F0, symBinAddr: 0x56FB4, symSize: 0x34 }
  - { offset: 0xE4FBE, size: 0x8, addend: 0x0, symName: __RNvYINtNtCsc29TF2YcYso_3syn10punctuated5PairsNtNtB7_4path11PathSegmentNtNtB7_5token7PathSepENtNtNtNtCsaNl6UpbT7bw_4core4iter6traits8iterator8Iterator6by_refB7_, symObjAddr: 0x3710, symBinAddr: 0x56FE8, symSize: 0x14 }
