---
triple:          'arm64-apple-darwin'
binary-path:     '/Users/tyler/fall25/cse380/final_project/final_project_sqlite/target/debug/build/thiserror-084437ad8ba2a5bd/build_script_build-084437ad8ba2a5bd'
relocations:
  - { offset: 0x1E, size: 0x8, addend: 0x0, symName: __RINvMNtCsaNl6UpbT7bw_4core6optionINtB3_6OptionNtNtNtCsht3nMU9UgFu_3std3ffi6os_str8OsStringE14unwrap_or_elseNCNvCsgxw10D4Wwa7_18build_script_build13cargo_env_var0EB1L_, symObjAddr: 0x0, symBinAddr: 0x100000BF0, symSize: 0x7C }
  - { offset: 0x84, size: 0x8, addend: 0x0, symName: __RNvXNvNtCsht3nMU9UgFu_3std2io17default_write_fmtINtB2_7AdapterNtNtNtNtB6_3sys5stdio4unix6StderrENtNtCsaNl6UpbT7bw_4core3fmt5Write9write_strCsgxw10D4Wwa7_18build_script_build, symObjAddr: 0x4464, symBinAddr: 0x100004FA8, symSize: 0xB4 }
  - { offset: 0x43F, size: 0x8, addend: 0x0, symName: __RNvXsi_NtNtCsht3nMU9UgFu_3std2io5errorNtB5_9ErrorKindNtNtCsaNl6UpbT7bw_4core3cmp9PartialEq2eqCsgxw10D4Wwa7_18build_script_build, symObjAddr: 0x4EC8, symBinAddr: 0x100005A0C, symSize: 0x2C }
  - { offset: 0x4A3, size: 0x8, addend: 0x0, symName: __RINvNtCsht3nMU9UgFu_3std2io17default_write_fmtNtNtNtNtB4_3sys5stdio4unix6StderrECsgxw10D4Wwa7_18build_script_build, symObjAddr: 0x19A0, symBinAddr: 0x1000024E8, symSize: 0x120 }
  - { offset: 0x557, size: 0x8, addend: 0x0, symName: __RNvYNtNtNtNtCsht3nMU9UgFu_3std3sys5stdio4unix6StderrNtNtBa_2io5Write9write_allCsgxw10D4Wwa7_18build_script_build, symObjAddr: 0x53C4, symBinAddr: 0x100005F08, symSize: 0x270 }
  - { offset: 0x6EF, size: 0x8, addend: 0x0, symName: __RNvYNtNtNtNtCsht3nMU9UgFu_3std3sys5stdio4unix6StderrNtNtBa_2io5Write9write_fmtCsgxw10D4Wwa7_18build_script_build, symObjAddr: 0x5634, symBinAddr: 0x100006178, symSize: 0x154 }
  - { offset: 0xA5A, size: 0x8, addend: 0x0, symName: __RNvNtNtNtCsht3nMU9UgFu_3std3sys2fs4unix23debug_assert_fd_is_openCsgxw10D4Wwa7_18build_script_build, symObjAddr: 0x39C0, symBinAddr: 0x100004504, symSize: 0xCC }
  - { offset: 0xAED, size: 0x8, addend: 0x0, symName: __RNvNtNtNtCsht3nMU9UgFu_3std3sys3pal4unix17decode_error_kindCsgxw10D4Wwa7_18build_script_build, symObjAddr: 0x3A8C, symBinAddr: 0x1000045D0, symSize: 0x24C }
  - { offset: 0xBA4, size: 0x8, addend: 0x0, symName: __RNCINvNtCsht3nMU9UgFu_3std2rt10lang_startuE0Csgxw10D4Wwa7_18build_script_build, symObjAddr: 0x2290, symBinAddr: 0x100002DD8, symSize: 0x34 }
  - { offset: 0xC0E, size: 0x8, addend: 0x0, symName: __RINvNtCsht3nMU9UgFu_3std2rt10lang_startuECsgxw10D4Wwa7_18build_script_build, symObjAddr: 0x1AC0, symBinAddr: 0x100002608, symSize: 0x60 }
  - { offset: 0xD3B, size: 0x8, addend: 0x0, symName: __RNvXs5_NtNtCsht3nMU9UgFu_3std3ffi6os_strNtB5_8OsStringNtNtNtCsaNl6UpbT7bw_4core3ops5deref5Deref5derefCsgxw10D4Wwa7_18build_script_build, symObjAddr: 0x4928, symBinAddr: 0x10000546C, symSize: 0x2C }
  - { offset: 0xE05, size: 0x8, addend: 0x0, symName: __RNvXsV_NtNtCsht3nMU9UgFu_3std3ffi6os_strNtB5_8OsStringINtNtCsaNl6UpbT7bw_4core7convert5AsRefNtB5_5OsStrE6as_refCsgxw10D4Wwa7_18build_script_build, symObjAddr: 0x4B74, symBinAddr: 0x1000056B8, symSize: 0x2C }
  - { offset: 0xE57, size: 0x8, addend: 0x0, symName: __RNvXs3_NtNtCsht3nMU9UgFu_3std3ffi6os_strNtB5_8OsStringINtNtNtCsaNl6UpbT7bw_4core3ops5index5IndexNtNtBV_5range9RangeFullE5indexCsgxw10D4Wwa7_18build_script_build, symObjAddr: 0x4854, symBinAddr: 0x100005398, symSize: 0x80 }
  - { offset: 0xF91, size: 0x8, addend: 0x0, symName: __RNvXsU_NtNtCsht3nMU9UgFu_3std3ffi6os_strNtB5_5OsStrINtNtCsaNl6UpbT7bw_4core7convert5AsRefBC_E6as_refCsgxw10D4Wwa7_18build_script_build, symObjAddr: 0x4B5C, symBinAddr: 0x1000056A0, symSize: 0x18 }
  - { offset: 0xFC5, size: 0x8, addend: 0x0, symName: __RNvXsW_NtNtCsht3nMU9UgFu_3std3ffi6os_streINtNtCsaNl6UpbT7bw_4core7convert5AsRefNtB5_5OsStrE6as_refCsgxw10D4Wwa7_18build_script_build, symObjAddr: 0x4BA0, symBinAddr: 0x1000056E4, symSize: 0x18 }
  - { offset: 0x1077, size: 0x8, addend: 0x0, symName: __RNvXsd_NtNtCsht3nMU9UgFu_3std3ffi6os_strNtB5_8OsStringINtNtCsaNl6UpbT7bw_4core3cmp9PartialEqReE2eqCsgxw10D4Wwa7_18build_script_build, symObjAddr: 0x4E08, symBinAddr: 0x10000594C, symSize: 0xC0 }
  - { offset: 0x13CB, size: 0x8, addend: 0x0, symName: __RNvXs11_NtCsht3nMU9UgFu_3std4pathNtB6_7PathBufINtNtCsaNl6UpbT7bw_4core7convert5AsRefNtNtNtB8_3ffi6os_str5OsStrE6as_refCsgxw10D4Wwa7_18build_script_build, symObjAddr: 0x4610, symBinAddr: 0x100005154, symSize: 0x2C }
  - { offset: 0x13FF, size: 0x8, addend: 0x0, symName: __RNvXs1d_NtCsht3nMU9UgFu_3std4pathNtB6_4PathINtNtCsaNl6UpbT7bw_4core7convert5AsRefBv_E6as_refCsgxw10D4Wwa7_18build_script_build, symObjAddr: 0x46D0, symBinAddr: 0x100005214, symSize: 0x18 }
  - { offset: 0x1433, size: 0x8, addend: 0x0, symName: __RNvXs1h_NtCsht3nMU9UgFu_3std4patheINtNtCsaNl6UpbT7bw_4core7convert5AsRefNtB6_4PathE6as_refCsgxw10D4Wwa7_18build_script_build, symObjAddr: 0x46E8, symBinAddr: 0x10000522C, symSize: 0x18 }
  - { offset: 0x1485, size: 0x8, addend: 0x0, symName: __RNvXsH_NtCsht3nMU9UgFu_3std4pathNtB5_7PathBufNtNtNtCsaNl6UpbT7bw_4core3ops5deref5Deref5derefCsgxw10D4Wwa7_18build_script_build, symObjAddr: 0x4B28, symBinAddr: 0x10000566C, symSize: 0x34 }
  - { offset: 0x1513, size: 0x8, addend: 0x0, symName: __RNvXs1j_NtCsht3nMU9UgFu_3std4pathNtB6_7PathBufINtNtCsaNl6UpbT7bw_4core7convert5AsRefNtB6_4PathE6as_refCsgxw10D4Wwa7_18build_script_build, symObjAddr: 0x4700, symBinAddr: 0x100005244, symSize: 0x34 }
  - { offset: 0x15BF, size: 0x8, addend: 0x0, symName: __RNvXsA_NtCsht3nMU9UgFu_3std4pathNtB5_7PathBufINtNtCsaNl6UpbT7bw_4core7convert4FromNtNtNtB7_3ffi6os_str8OsStringE4fromCsgxw10D4Wwa7_18build_script_build, symObjAddr: 0x4A08, symBinAddr: 0x10000554C, symSize: 0x18 }
  - { offset: 0x1649, size: 0x8, addend: 0x0, symName: __RINvNtCsht3nMU9UgFu_3std2fs10create_dirRNtNtB4_4path7PathBufECsgxw10D4Wwa7_18build_script_build, symObjAddr: 0x180C, symBinAddr: 0x100002354, symSize: 0x74 }
  - { offset: 0x1695, size: 0x8, addend: 0x0, symName: __RINvNtCsht3nMU9UgFu_3std2fs14remove_dir_allRNtNtB4_4path7PathBufECsgxw10D4Wwa7_18build_script_build, symObjAddr: 0x1880, symBinAddr: 0x1000023C8, symSize: 0x64 }
  - { offset: 0x16CC, size: 0x8, addend: 0x0, symName: __RINvNtCsht3nMU9UgFu_3std2fs5writeNtNtB4_4path7PathBufNtNtCsiTraAjBDcu4_5alloc6string6StringECsgxw10D4Wwa7_18build_script_build, symObjAddr: 0x18E4, symBinAddr: 0x10000242C, symSize: 0xBC }
  - { offset: 0x1723, size: 0x8, addend: 0x0, symName: __RINvNtCsht3nMU9UgFu_3std3env3varReECsgxw10D4Wwa7_18build_script_build, symObjAddr: 0x1B20, symBinAddr: 0x100002668, symSize: 0x68 }
  - { offset: 0x1758, size: 0x8, addend: 0x0, symName: __RINvNtCsht3nMU9UgFu_3std3env6var_osReECsgxw10D4Wwa7_18build_script_build, symObjAddr: 0x1B88, symBinAddr: 0x1000026D0, symSize: 0x68 }
  - { offset: 0x1794, size: 0x8, addend: 0x0, symName: __RNvXsk_NtCsht3nMU9UgFu_3std3envNtB5_8VarErrorNtNtCsaNl6UpbT7bw_4core3fmt5Debug3fmtCsgxw10D4Wwa7_18build_script_build, symObjAddr: 0x4EF4, symBinAddr: 0x100005A38, symSize: 0xA0 }
  - { offset: 0x18E2, size: 0x8, addend: 0x0, symName: __RNvXs5_NtNtNtCsht3nMU9UgFu_3std2os2fd5ownedNtB5_7OwnedFdNtNtNtCsaNl6UpbT7bw_4core3ops4drop4Drop4dropCsgxw10D4Wwa7_18build_script_build, symObjAddr: 0x4954, symBinAddr: 0x100005498, symSize: 0x40 }
  - { offset: 0x2333, size: 0x8, addend: 0x0, symName: __RINvNtCsaNl6UpbT7bw_4core3ptr13drop_in_placeINtNtB4_6option4ItemNtNtNtCsht3nMU9UgFu_3std3ffi6os_str8OsStringEECsgxw10D4Wwa7_18build_script_build, symObjAddr: 0x91C, symBinAddr: 0x100001464, symSize: 0x24 }
  - { offset: 0x2362, size: 0x8, addend: 0x0, symName: __RINvNtCsaNl6UpbT7bw_4core3ptr13drop_in_placeINtNtB4_6option6OptionINtBJ_8IntoIterNtNtNtCsht3nMU9UgFu_3std3ffi6os_str8OsStringEEECsgxw10D4Wwa7_18build_script_build, symObjAddr: 0x940, symBinAddr: 0x100001488, symSize: 0x48 }
  - { offset: 0x2391, size: 0x8, addend: 0x0, symName: __RINvNtCsaNl6UpbT7bw_4core3ptr13drop_in_placeINtNtB4_6option6OptionINtNtCsiTraAjBDcu4_5alloc5boxed3BoxSmEEECsgxw10D4Wwa7_18build_script_build, symObjAddr: 0x988, symBinAddr: 0x1000014D0, symSize: 0x44 }
  - { offset: 0x23C0, size: 0x8, addend: 0x0, symName: __RINvNtCsaNl6UpbT7bw_4core3ptr13drop_in_placeINtNtB4_6option6OptionINtNtNtNtB4_4iter7sources4once4OnceNtNtNtCsht3nMU9UgFu_3std3ffi6os_str8OsStringEEECsgxw10D4Wwa7_18build_script_build, symObjAddr: 0x9CC, symBinAddr: 0x100001514, symSize: 0x48 }
  - { offset: 0x23EF, size: 0x8, addend: 0x0, symName: __RINvNtCsaNl6UpbT7bw_4core3ptr13drop_in_placeINtNtB4_6option6OptionINtNtNtNtB4_4iter8adapters5chain5ChainINtBJ_8IntoIterNtNtNtCsht3nMU9UgFu_3std3ffi6os_str8OsStringEB1E_EEECsgxw10D4Wwa7_18build_script_build, symObjAddr: 0xA14, symBinAddr: 0x10000155C, symSize: 0x4C }
  - { offset: 0x241E, size: 0x8, addend: 0x0, symName: __RINvNtCsaNl6UpbT7bw_4core3ptr13drop_in_placeINtNtB4_6option6OptionNtNtNtCsht3nMU9UgFu_3std3ffi6os_str8OsStringEECsgxw10D4Wwa7_18build_script_build, symObjAddr: 0xA60, symBinAddr: 0x1000015A8, symSize: 0x48 }
  - { offset: 0x244D, size: 0x8, addend: 0x0, symName: __RINvNtCsaNl6UpbT7bw_4core3ptr13drop_in_placeINtNtB4_6option6OptionNtNtNtCsiTraAjBDcu4_5alloc3ffi5c_str7CStringEECsgxw10D4Wwa7_18build_script_build, symObjAddr: 0xAA8, symBinAddr: 0x1000015F0, symSize: 0x44 }
  - { offset: 0x247C, size: 0x8, addend: 0x0, symName: __RINvNtCsaNl6UpbT7bw_4core3ptr13drop_in_placeINtNtB4_6option6OptionNtNtNtNtNtCsht3nMU9UgFu_3std3sys7process4unix6common5StdioEECsgxw10D4Wwa7_18build_script_build, symObjAddr: 0xAEC, symBinAddr: 0x100001634, symSize: 0x44 }
  - { offset: 0x24AB, size: 0x8, addend: 0x0, symName: __RINvNtCsaNl6UpbT7bw_4core3ptr13drop_in_placeINtNtB4_6option8IntoIterNtNtNtCsht3nMU9UgFu_3std3ffi6os_str8OsStringEECsgxw10D4Wwa7_18build_script_build, symObjAddr: 0xB30, symBinAddr: 0x100001678, symSize: 0x24 }
  - { offset: 0x24DA, size: 0x8, addend: 0x0, symName: __RINvNtCsaNl6UpbT7bw_4core3ptr13drop_in_placeINtNtB4_6result6ResultNtNtCsht3nMU9UgFu_3std7process10ExitStatusNtNtNtB16_2io5error5ErrorEECsgxw10D4Wwa7_18build_script_build, symObjAddr: 0xB54, symBinAddr: 0x10000169C, symSize: 0x40 }
  - { offset: 0x2509, size: 0x8, addend: 0x0, symName: __RINvNtCsaNl6UpbT7bw_4core3ptr13drop_in_placeINtNtB4_6result6ResultNtNtCsht3nMU9UgFu_3std7process6OutputNtNtNtB16_2io5error5ErrorEECsgxw10D4Wwa7_18build_script_build, symObjAddr: 0xB94, symBinAddr: 0x1000016DC, symSize: 0x5C }
  - { offset: 0x2538, size: 0x8, addend: 0x0, symName: __RINvNtCsaNl6UpbT7bw_4core3ptr13drop_in_placeINtNtB4_6result6ResultNtNtCsiTraAjBDcu4_5alloc6string6StringNtNtCsht3nMU9UgFu_3std3env8VarErrorEECsgxw10D4Wwa7_18build_script_build, symObjAddr: 0xBF0, symBinAddr: 0x100001738, symSize: 0x50 }
  - { offset: 0x2567, size: 0x8, addend: 0x0, symName: __RINvNtCsaNl6UpbT7bw_4core3ptr13drop_in_placeINtNtB4_6result6ResultuNtNtNtCsht3nMU9UgFu_3std2io5error5ErrorEECsgxw10D4Wwa7_18build_script_build, symObjAddr: 0xC40, symBinAddr: 0x100001788, symSize: 0x44 }
  - { offset: 0x2596, size: 0x8, addend: 0x0, symName: __RINvNtCsaNl6UpbT7bw_4core3ptr13drop_in_placeINtNtCsiTraAjBDcu4_5alloc3vec3VecINtNtBL_5boxed3BoxDINtNtNtB4_3ops8function5FnMutuEp6OutputINtNtB4_6result6ResultuNtNtNtCsht3nMU9UgFu_3std2io5error5ErrorENtNtB4_6marker4SyncNtB3c_4SendEL_EEECsgxw10D4Wwa7_18build_script_build, symObjAddr: 0xC84, symBinAddr: 0x1000017CC, symSize: 0x5C }
  - { offset: 0x25C5, size: 0x8, addend: 0x0, symName: __RINvNtCsaNl6UpbT7bw_4core3ptr13drop_in_placeINtNtCsiTraAjBDcu4_5alloc3vec3VecPaEECsgxw10D4Wwa7_18build_script_build, symObjAddr: 0xCE0, symBinAddr: 0x100001828, symSize: 0x5C }
  - { offset: 0x25F4, size: 0x8, addend: 0x0, symName: __RINvNtCsaNl6UpbT7bw_4core3ptr13drop_in_placeINtNtCsiTraAjBDcu4_5alloc3vec3VechEECsgxw10D4Wwa7_18build_script_build, symObjAddr: 0xD3C, symBinAddr: 0x100001884, symSize: 0x5C }
  - { offset: 0x2623, size: 0x8, addend: 0x0, symName: __RINvNtCsaNl6UpbT7bw_4core3ptr13drop_in_placeINtNtCsiTraAjBDcu4_5alloc5boxed3BoxDINtNtNtB4_3ops8function5FnMutuEp6OutputINtNtB4_6result6ResultuNtNtNtCsht3nMU9UgFu_3std2io5error5ErrorENtNtB4_6marker4SyncNtB2W_4SendEL_EECsgxw10D4Wwa7_18build_script_build, symObjAddr: 0xD98, symBinAddr: 0x1000018E0, symSize: 0x80 }
  - { offset: 0x2652, size: 0x8, addend: 0x0, symName: __RINvNtCsaNl6UpbT7bw_4core3ptr13drop_in_placeINtNtCsiTraAjBDcu4_5alloc5boxed3BoxDNtNtB4_5error5ErrorNtNtB4_6marker4SyncNtB1B_4SendEL_EECsgxw10D4Wwa7_18build_script_build, symObjAddr: 0xE18, symBinAddr: 0x100001960, symSize: 0x80 }
  - { offset: 0x2681, size: 0x8, addend: 0x0, symName: __RINvNtCsaNl6UpbT7bw_4core3ptr13drop_in_placeINtNtCsiTraAjBDcu4_5alloc5boxed3BoxNtNtNtCsht3nMU9UgFu_3std2io5error6CustomEECsgxw10D4Wwa7_18build_script_build, symObjAddr: 0xE98, symBinAddr: 0x1000019E0, symSize: 0x60 }
  - { offset: 0x26B0, size: 0x8, addend: 0x0, symName: __RINvNtCsaNl6UpbT7bw_4core3ptr13drop_in_placeINtNtCsiTraAjBDcu4_5alloc5boxed3BoxShEECsgxw10D4Wwa7_18build_script_build, symObjAddr: 0xEF8, symBinAddr: 0x100001A40, symSize: 0x2C }
  - { offset: 0x26DF, size: 0x8, addend: 0x0, symName: __RINvNtCsaNl6UpbT7bw_4core3ptr13drop_in_placeINtNtCsiTraAjBDcu4_5alloc5boxed3BoxSmEECsgxw10D4Wwa7_18build_script_build, symObjAddr: 0xF24, symBinAddr: 0x100001A6C, symSize: 0x2C }
  - { offset: 0x270E, size: 0x8, addend: 0x0, symName: __RINvNtCsaNl6UpbT7bw_4core3ptr13drop_in_placeINtNtCsiTraAjBDcu4_5alloc7raw_vec6RawVecINtNtBL_5boxed3BoxDINtNtNtB4_3ops8function5FnMutuEp6OutputINtNtB4_6result6ResultuNtNtNtCsht3nMU9UgFu_3std2io5error5ErrorENtNtB4_6marker4SyncNtB3j_4SendEL_EEECsgxw10D4Wwa7_18build_script_build, symObjAddr: 0xF50, symBinAddr: 0x100001A98, symSize: 0x24 }
  - { offset: 0x273D, size: 0x8, addend: 0x0, symName: __RINvNtCsaNl6UpbT7bw_4core3ptr13drop_in_placeINtNtCsiTraAjBDcu4_5alloc7raw_vec6RawVecPaEECsgxw10D4Wwa7_18build_script_build, symObjAddr: 0xF74, symBinAddr: 0x100001ABC, symSize: 0x24 }
  - { offset: 0x276C, size: 0x8, addend: 0x0, symName: __RINvNtCsaNl6UpbT7bw_4core3ptr13drop_in_placeINtNtCsiTraAjBDcu4_5alloc7raw_vec6RawVechEECsgxw10D4Wwa7_18build_script_build, symObjAddr: 0xF98, symBinAddr: 0x100001AE0, symSize: 0x24 }
  - { offset: 0x279B, size: 0x8, addend: 0x0, symName: __RINvNtCsaNl6UpbT7bw_4core3ptr13drop_in_placeINtNtNtCsht3nMU9UgFu_3std2io5error9ErrorDataINtNtCsiTraAjBDcu4_5alloc5boxed3BoxNtBJ_6CustomEEECsgxw10D4Wwa7_18build_script_build, symObjAddr: 0xFBC, symBinAddr: 0x100001B04, symSize: 0x48 }
  - { offset: 0x27CA, size: 0x8, addend: 0x0, symName: __RINvNtCsaNl6UpbT7bw_4core3ptr13drop_in_placeINtNtNtNtB4_4iter7sources4once4OnceNtNtNtCsht3nMU9UgFu_3std3ffi6os_str8OsStringEECsgxw10D4Wwa7_18build_script_build, symObjAddr: 0x1004, symBinAddr: 0x100001B4C, symSize: 0x24 }
  - { offset: 0x27F9, size: 0x8, addend: 0x0, symName: __RINvNtCsaNl6UpbT7bw_4core3ptr13drop_in_placeINtNtNtNtB4_4iter8adapters5chain5ChainIBH_INtNtB4_6option8IntoIterNtNtNtCsht3nMU9UgFu_3std3ffi6os_str8OsStringEB1m_EINtNtNtBN_7sources4once4OnceB1K_EEECsgxw10D4Wwa7_18build_script_build, symObjAddr: 0x1028, symBinAddr: 0x100001B70, symSize: 0x5C }
  - { offset: 0x2828, size: 0x8, addend: 0x0, symName: __RINvNtCsaNl6UpbT7bw_4core3ptr13drop_in_placeINtNtNtNtB4_4iter8adapters5chain5ChainINtNtB4_6option8IntoIterNtNtNtCsht3nMU9UgFu_3std3ffi6os_str8OsStringEB1i_EECsgxw10D4Wwa7_18build_script_build, symObjAddr: 0x1084, symBinAddr: 0x100001BCC, symSize: 0x60 }
  - { offset: 0x2857, size: 0x8, addend: 0x0, symName: __RINvNtCsaNl6UpbT7bw_4core3ptr13drop_in_placeINtNtNtNtCsiTraAjBDcu4_5alloc11collections5btree3map8BTreeMapNtNtNtCsht3nMU9UgFu_3std3ffi6os_str8OsStringINtNtB4_6option6OptionB1F_EEECsgxw10D4Wwa7_18build_script_build, symObjAddr: 0x10E4, symBinAddr: 0x100001C2C, symSize: 0x24 }
  - { offset: 0x2886, size: 0x8, addend: 0x0, symName: __RINvNtCsaNl6UpbT7bw_4core3ptr13drop_in_placeINtNtNtNtCsiTraAjBDcu4_5alloc11collections5btree3map8IntoIterNtNtNtCsht3nMU9UgFu_3std3ffi6os_str8OsStringINtNtB4_6option6OptionB1F_EEECsgxw10D4Wwa7_18build_script_build, symObjAddr: 0x1108, symBinAddr: 0x100001C50, symSize: 0x24 }
  - { offset: 0x28B5, size: 0x8, addend: 0x0, symName: __RINvNtCsaNl6UpbT7bw_4core3ptr13drop_in_placeINtNvMsT_NtNtNtCsiTraAjBDcu4_5alloc11collections5btree4nodeINtBP_6HandleINtBP_7NodeRefNtNtBP_6marker5DyingpppENtB26_2KVE12drop_key_val7DropperINtNtB4_6option6OptionNtNtNtCsht3nMU9UgFu_3std3ffi6os_str8OsStringEEECsgxw10D4Wwa7_18build_script_build, symObjAddr: 0x112C, symBinAddr: 0x100001C74, symSize: 0x24 }
  - { offset: 0x28E4, size: 0x8, addend: 0x0, symName: __RINvNtCsaNl6UpbT7bw_4core3ptr13drop_in_placeINtNvNtCsht3nMU9UgFu_3std2io17default_write_fmt7AdapterNtNtNtNtBN_3sys5stdio4unix6StderrEECsgxw10D4Wwa7_18build_script_build, symObjAddr: 0x1150, symBinAddr: 0x100001C98, symSize: 0x24 }
  - { offset: 0x2913, size: 0x8, addend: 0x0, symName: __RINvNtCsaNl6UpbT7bw_4core3ptr13drop_in_placeINtNvXsw_NtNtNtCsiTraAjBDcu4_5alloc11collections5btree3mapINtBP_8IntoIterpppENtNtNtB4_3ops4drop4Drop4drop9DropGuardNtNtNtCsht3nMU9UgFu_3std3ffi6os_str8OsStringINtNtB4_6option6OptionB2x_ENtNtBV_5alloc6GlobalEECsgxw10D4Wwa7_18build_script_build, symObjAddr: 0x1174, symBinAddr: 0x100001CBC, symSize: 0x24 }
  - { offset: 0x2942, size: 0x8, addend: 0x0, symName: __RINvNtCsaNl6UpbT7bw_4core3ptr13drop_in_placeNCINvMsi_NtCsiTraAjBDcu4_5alloc3vecINtBP_3VechE14extend_trustedINtNtNtNtB4_4iter8adapters3map3MapINtNtNtB4_5slice4iter4IterhENCNvNtBR_3str13replace_ascii0EE0ECsgxw10D4Wwa7_18build_script_build, symObjAddr: 0x1198, symBinAddr: 0x100001CE0, symSize: 0x24 }
  - { offset: 0x2971, size: 0x8, addend: 0x0, symName: __RINvNtCsaNl6UpbT7bw_4core3ptr13drop_in_placeNCINvNtNtNtB4_4iter8adapters3map8map_foldRhhuNCNvNtCsiTraAjBDcu4_5alloc3str13replace_ascii0NCINvNvNtNtNtBP_6traits8iterator8Iterator8for_each4callhNCINvMsi_NtB1v_3vecINtB3c_3VechE14extend_trustedINtBL_3MapINtNtNtB4_5slice4iter4IterhEB1p_EE0E0E0ECsgxw10D4Wwa7_18build_script_build, symObjAddr: 0x11BC, symBinAddr: 0x100001D04, symSize: 0x24 }
  - { offset: 0x29A0, size: 0x8, addend: 0x0, symName: __RINvNtCsaNl6UpbT7bw_4core3ptr13drop_in_placeNCINvNvNtNtNtNtB4_4iter6traits8iterator8Iterator8for_each4callhNCINvMsi_NtCsiTraAjBDcu4_5alloc3vecINtB1Q_3VechE14extend_trustedINtNtNtBT_8adapters3map3MapINtNtNtB4_5slice4iter4IterhENCNvNtB1S_3str13replace_ascii0EE0E0ECsgxw10D4Wwa7_18build_script_build, symObjAddr: 0x11E0, symBinAddr: 0x100001D28, symSize: 0x24 }
  - { offset: 0x29CF, size: 0x8, addend: 0x0, symName: __RINvNtCsaNl6UpbT7bw_4core3ptr13drop_in_placeNtNtCsht3nMU9UgFu_3std3env8VarErrorECsgxw10D4Wwa7_18build_script_build, symObjAddr: 0x1204, symBinAddr: 0x100001D4C, symSize: 0x48 }
  - { offset: 0x29FE, size: 0x8, addend: 0x0, symName: __RINvNtCsaNl6UpbT7bw_4core3ptr13drop_in_placeNtNtCsht3nMU9UgFu_3std4path7PathBufECsgxw10D4Wwa7_18build_script_build, symObjAddr: 0x124C, symBinAddr: 0x100001D94, symSize: 0x24 }
  - { offset: 0x2A2D, size: 0x8, addend: 0x0, symName: __RINvNtCsaNl6UpbT7bw_4core3ptr13drop_in_placeNtNtCsht3nMU9UgFu_3std7process6OutputECsgxw10D4Wwa7_18build_script_build, symObjAddr: 0x1270, symBinAddr: 0x100001DB8, symSize: 0x60 }
  - { offset: 0x2A5C, size: 0x8, addend: 0x0, symName: __RINvNtCsaNl6UpbT7bw_4core3ptr13drop_in_placeNtNtCsht3nMU9UgFu_3std7process7CommandECsgxw10D4Wwa7_18build_script_build, symObjAddr: 0x12D0, symBinAddr: 0x100001E18, symSize: 0x24 }
  - { offset: 0x2A8B, size: 0x8, addend: 0x0, symName: __RINvNtCsaNl6UpbT7bw_4core3ptr13drop_in_placeNtNtCsiTraAjBDcu4_5alloc6string6StringECsgxw10D4Wwa7_18build_script_build, symObjAddr: 0x12F4, symBinAddr: 0x100001E3C, symSize: 0x24 }
  - { offset: 0x2ABA, size: 0x8, addend: 0x0, symName: __RINvNtCsaNl6UpbT7bw_4core3ptr13drop_in_placeNtNtNtCsht3nMU9UgFu_3std2io5error5ErrorECsgxw10D4Wwa7_18build_script_build, symObjAddr: 0x1318, symBinAddr: 0x100001E60, symSize: 0x24 }
  - { offset: 0x2AE9, size: 0x8, addend: 0x0, symName: __RINvNtCsaNl6UpbT7bw_4core3ptr13drop_in_placeNtNtNtCsht3nMU9UgFu_3std2io5error6CustomECsgxw10D4Wwa7_18build_script_build, symObjAddr: 0x133C, symBinAddr: 0x100001E84, symSize: 0x24 }
  - { offset: 0x2B18, size: 0x8, addend: 0x0, symName: __RINvNtCsaNl6UpbT7bw_4core3ptr13drop_in_placeNtNtNtCsht3nMU9UgFu_3std3ffi6os_str8OsStringECsgxw10D4Wwa7_18build_script_build, symObjAddr: 0x1360, symBinAddr: 0x100001EA8, symSize: 0x24 }
  - { offset: 0x2B47, size: 0x8, addend: 0x0, symName: __RINvNtCsaNl6UpbT7bw_4core3ptr13drop_in_placeNtNtNtCsiTraAjBDcu4_5alloc3ffi5c_str7CStringECsgxw10D4Wwa7_18build_script_build, symObjAddr: 0x1384, symBinAddr: 0x100001ECC, symSize: 0x5C }
  - { offset: 0x2B76, size: 0x8, addend: 0x0, symName: __RINvNtCsaNl6UpbT7bw_4core3ptr13drop_in_placeNtNtNtCsiTraAjBDcu4_5alloc3vec15set_len_on_drop12SetLenOnDropECsgxw10D4Wwa7_18build_script_build, symObjAddr: 0x13E0, symBinAddr: 0x100001F28, symSize: 0x24 }
  - { offset: 0x2BA5, size: 0x8, addend: 0x0, symName: __RINvNtCsaNl6UpbT7bw_4core3ptr13drop_in_placeNtNtNtNtCsht3nMU9UgFu_3std2io5error14repr_bitpacked4ReprECsgxw10D4Wwa7_18build_script_build, symObjAddr: 0x1404, symBinAddr: 0x100001F4C, symSize: 0x24 }
  - { offset: 0x2BD4, size: 0x8, addend: 0x0, symName: __RINvNtCsaNl6UpbT7bw_4core3ptr13drop_in_placeNtNtNtNtCsht3nMU9UgFu_3std2os2fd5owned7OwnedFdECsgxw10D4Wwa7_18build_script_build, symObjAddr: 0x1428, symBinAddr: 0x100001F70, symSize: 0x24 }
  - { offset: 0x2C03, size: 0x8, addend: 0x0, symName: __RINvNtCsaNl6UpbT7bw_4core3ptr13drop_in_placeNtNtNtNtCsht3nMU9UgFu_3std3sys2fd4unix8FileDescECsgxw10D4Wwa7_18build_script_build, symObjAddr: 0x144C, symBinAddr: 0x100001F94, symSize: 0x24 }
  - { offset: 0x2C32, size: 0x8, addend: 0x0, symName: __RINvNtCsaNl6UpbT7bw_4core3ptr13drop_in_placeNtNtNtNtCsht3nMU9UgFu_3std3sys6os_str5bytes3BufECsgxw10D4Wwa7_18build_script_build, symObjAddr: 0x1470, symBinAddr: 0x100001FB8, symSize: 0x24 }
  - { offset: 0x2C61, size: 0x8, addend: 0x0, symName: __RINvNtCsaNl6UpbT7bw_4core3ptr13drop_in_placeNtNtNtNtCsht3nMU9UgFu_3std3sys7process3env10CommandEnvECsgxw10D4Wwa7_18build_script_build, symObjAddr: 0x1494, symBinAddr: 0x100001FDC, symSize: 0x24 }
  - { offset: 0x2C90, size: 0x8, addend: 0x0, symName: __RINvNtCsaNl6UpbT7bw_4core3ptr13drop_in_placeNtNtNtNtNtCsht3nMU9UgFu_3std3sys7process4unix6common5StdioECsgxw10D4Wwa7_18build_script_build, symObjAddr: 0x14B8, symBinAddr: 0x100002000, symSize: 0x44 }
  - { offset: 0x2CBF, size: 0x8, addend: 0x0, symName: __RINvNtCsaNl6UpbT7bw_4core3ptr13drop_in_placeNtNtNtNtNtCsht3nMU9UgFu_3std3sys7process4unix6common7CommandECsgxw10D4Wwa7_18build_script_build, symObjAddr: 0x14FC, symBinAddr: 0x100002044, symSize: 0x1DC }
  - { offset: 0x2CEE, size: 0x8, addend: 0x0, symName: __RINvNtCsaNl6UpbT7bw_4core3ptr13drop_in_placeNtNtNtNtNtNtCsht3nMU9UgFu_3std3sys7process4unix6common13cstring_array12CStringArrayECsgxw10D4Wwa7_18build_script_build, symObjAddr: 0x16D8, symBinAddr: 0x100002220, symSize: 0x5C }
  - { offset: 0x2D1D, size: 0x8, addend: 0x0, symName: __RINvNtCsaNl6UpbT7bw_4core3ptr13drop_in_placeNtNvNtNtNtCsiTraAjBDcu4_5alloc11collections5btree3mem7replace10PanicGuardECsgxw10D4Wwa7_18build_script_build, symObjAddr: 0x1734, symBinAddr: 0x10000227C, symSize: 0x24 }
  - { offset: 0x2D4C, size: 0x8, addend: 0x0, symName: __RINvNtCsaNl6UpbT7bw_4core3ptr13drop_in_placeSINtNtCsiTraAjBDcu4_5alloc5boxed3BoxDINtNtNtB4_3ops8function5FnMutuEp6OutputINtNtB4_6result6ResultuNtNtNtCsht3nMU9UgFu_3std2io5error5ErrorENtNtB4_6marker4SyncNtB2X_4SendEL_EECsgxw10D4Wwa7_18build_script_build, symObjAddr: 0x1758, symBinAddr: 0x1000022A0, symSize: 0xB4 }
  - { offset: 0x2EF4, size: 0x8, addend: 0x0, symName: __RNvNvMNtNtCsaNl6UpbT7bw_4core3ptr9const_ptrPp20offset_from_unsigned18precondition_checkCsgxw10D4Wwa7_18build_script_build, symObjAddr: 0x3CD8, symBinAddr: 0x10000481C, symSize: 0xAC }
  - { offset: 0x31D4, size: 0x8, addend: 0x0, symName: __RNvXs5_NtNtCsaNl6UpbT7bw_4core3num5errorNtB5_15TryFromIntErrorNtNtB9_3fmt5Debug3fmtCsgxw10D4Wwa7_18build_script_build, symObjAddr: 0x48D4, symBinAddr: 0x100005418, symSize: 0x54 }
  - { offset: 0x32DF, size: 0x8, addend: 0x0, symName: __RNvNvMs9_NtCsaNl6UpbT7bw_4core3numj13unchecked_add18precondition_checkCsgxw10D4Wwa7_18build_script_build, symObjAddr: 0x3E40, symBinAddr: 0x100004984, symSize: 0xB0 }
  - { offset: 0x3373, size: 0x8, addend: 0x0, symName: __RNvNvMs9_NtCsaNl6UpbT7bw_4core3numj13unchecked_sub18precondition_checkCsgxw10D4Wwa7_18build_script_build, symObjAddr: 0x3EF0, symBinAddr: 0x100004A34, symSize: 0xAC }
  - { offset: 0x355F, size: 0x8, addend: 0x0, symName: __RNvMsA_NtCsaNl6UpbT7bw_4core3numm16from_ascii_radixCsgxw10D4Wwa7_18build_script_build, symObjAddr: 0x2A18, symBinAddr: 0x100003560, symSize: 0x594 }
  - { offset: 0x37D9, size: 0x8, addend: 0x0, symName: __RNvXsz_NtCsaNl6UpbT7bw_4core3nummNtNtNtB7_3str6traits7FromStr8from_strCsgxw10D4Wwa7_18build_script_build, symObjAddr: 0x5224, symBinAddr: 0x100005D68, symSize: 0x40 }
  - { offset: 0x3D05, size: 0x8, addend: 0x0, symName: __RNvXsC_NtCsaNl6UpbT7bw_4core6optionINtB5_6OptionNtNtCsht3nMU9UgFu_3std7process6OutputENtNtNtB7_3ops9try_trait3Try6branchCsgxw10D4Wwa7_18build_script_build, symObjAddr: 0x4A20, symBinAddr: 0x100005564, symSize: 0x78 }
  - { offset: 0x3D5B, size: 0x8, addend: 0x0, symName: __RNvXsC_NtCsaNl6UpbT7bw_4core6optionINtB5_6OptionReENtNtNtB7_3ops9try_trait3Try6branchCsgxw10D4Wwa7_18build_script_build, symObjAddr: 0x4A98, symBinAddr: 0x1000055DC, symSize: 0x54 }
  - { offset: 0x3EC6, size: 0x8, addend: 0x0, symName: __RNvXsD_NtCsaNl6UpbT7bw_4core6optionINtB5_6OptionmEINtNtNtB7_3ops9try_trait12FromResidualIBy_NtNtB7_7convert10InfallibleEE13from_residualCsgxw10D4Wwa7_18build_script_build, symObjAddr: 0x4AEC, symBinAddr: 0x100005630, symSize: 0x18 }
  - { offset: 0x42B5, size: 0x8, addend: 0x0, symName: __RNvXs6_NtCsaNl6UpbT7bw_4core6optionINtB5_6OptionNtNtNtCsht3nMU9UgFu_3std3ffi6os_str8OsStringENtNtNtNtB7_4iter6traits7collect12IntoIterator9into_iterCsgxw10D4Wwa7_18build_script_build, symObjAddr: 0x4994, symBinAddr: 0x1000054D8, symSize: 0x30 }
  - { offset: 0x42F2, size: 0x8, addend: 0x0, symName: __RNvXsd_NtCsaNl6UpbT7bw_4core6optionINtB5_6OptionReENtNtB7_3cmp9PartialEq2eqCsgxw10D4Wwa7_18build_script_build, symObjAddr: 0x4D5C, symBinAddr: 0x1000058A0, symSize: 0xAC }
  - { offset: 0x438D, size: 0x8, addend: 0x0, symName: __RNvXsw_NtCsaNl6UpbT7bw_4core6optionINtB5_8IntoIterNtNtNtCsht3nMU9UgFu_3std3ffi6os_str8OsStringENtNtNtNtB7_4iter6traits8iterator8Iterator4nextCsgxw10D4Wwa7_18build_script_build, symObjAddr: 0x5148, symBinAddr: 0x100005C8C, symSize: 0x40 }
  - { offset: 0x477D, size: 0x8, addend: 0x0, symName: __RNCINvNtNtNtCsaNl6UpbT7bw_4core4iter8adapters3map8map_foldRhhuNCNvNtCsiTraAjBDcu4_5alloc3str13replace_ascii0NCINvNvNtNtNtB8_6traits8iterator8Iterator8for_each4callhNCINvMsi_NtB14_3vecINtB2L_3VechE14extend_trustedINtB4_3MapINtNtNtBa_5slice4iter4IterhEBY_EE0E0E0Csgxw10D4Wwa7_18build_script_build, symObjAddr: 0x22C4, symBinAddr: 0x100002E0C, symSize: 0x7C }
  - { offset: 0x4808, size: 0x8, addend: 0x0, symName: __RINvXs0_NtNtNtCsaNl6UpbT7bw_4core4iter8adapters3mapINtB6_3MapINtNtNtBc_5slice4iter4IterhENCNvNtCsiTraAjBDcu4_5alloc3str13replace_ascii0ENtNtNtBa_6traits8iterator8Iterator4folduNCINvNvB2a_8for_each4callhNCINvMsi_NtB1v_3vecINtB3n_3VechE14extend_trustedBN_E0E0ECsgxw10D4Wwa7_18build_script_build, symObjAddr: 0x1EE0, symBinAddr: 0x100002A28, symSize: 0x58 }
  - { offset: 0x48A1, size: 0x8, addend: 0x0, symName: __RNvXs0_NtNtNtCsaNl6UpbT7bw_4core4iter8adapters3mapINtB5_3MapINtNtNtBb_5slice4iter4IterhENCNvNtCsiTraAjBDcu4_5alloc3str13replace_ascii0ENtNtNtB9_6traits8iterator8Iterator9size_hintCsgxw10D4Wwa7_18build_script_build, symObjAddr: 0x45EC, symBinAddr: 0x100005130, symSize: 0x24 }
  - { offset: 0x4974, size: 0x8, addend: 0x0, symName: __RNCINvNvNtNtNtNtCsaNl6UpbT7bw_4core4iter6traits8iterator8Iterator8for_each4callhNCINvMsi_NtCsiTraAjBDcu4_5alloc3vecINtB1p_3VechE14extend_trustedINtNtNtBc_8adapters3map3MapINtNtNtBe_5slice4iter4IterhENCNvNtB1r_3str13replace_ascii0EE0E0Csgxw10D4Wwa7_18build_script_build, symObjAddr: 0x2340, symBinAddr: 0x100002E88, symSize: 0x28 }
  - { offset: 0x49FE, size: 0x8, addend: 0x0, symName: __RINvYINtNtCsaNl6UpbT7bw_4core6option8IntoIterNtNtNtCsht3nMU9UgFu_3std3ffi6os_str8OsStringENtNtNtNtB8_4iter6traits8iterator8Iterator5chainINtB6_6OptionBH_EECsgxw10D4Wwa7_18build_script_build, symObjAddr: 0x20F0, symBinAddr: 0x100002C38, symSize: 0xAC }
  - { offset: 0x4A75, size: 0x8, addend: 0x0, symName: __RINvYINtNtNtNtCsaNl6UpbT7bw_4core4iter8adapters3map3MapINtNtNtBc_5slice4iter4IterhENCNvNtCsiTraAjBDcu4_5alloc3str13replace_ascii0ENtNtNtBa_6traits8iterator8Iterator7collectINtNtB1p_3vec3VechEECsgxw10D4Wwa7_18build_script_build, symObjAddr: 0x219C, symBinAddr: 0x100002CE4, symSize: 0x68 }
  - { offset: 0x4B0B, size: 0x8, addend: 0x0, symName: __RINvYINtNtNtNtCsaNl6UpbT7bw_4core4iter8adapters3map3MapINtNtNtBc_5slice4iter4IterhENCNvNtCsiTraAjBDcu4_5alloc3str13replace_ascii0ENtNtNtBa_6traits8iterator8Iterator8for_eachNCINvMsi_NtB1p_3vecINtB2U_3VechE14extend_trustedB3_E0ECsgxw10D4Wwa7_18build_script_build, symObjAddr: 0x2204, symBinAddr: 0x100002D4C, symSize: 0x34 }
  - { offset: 0x4B83, size: 0x8, addend: 0x0, symName: __RNvXNtNtNtCsaNl6UpbT7bw_4core4iter6traits7collectINtNtNtB6_8adapters3map3MapINtNtNtB8_5slice4iter4IterhENCNvNtCsiTraAjBDcu4_5alloc3str13replace_ascii0ENtB2_12IntoIterator9into_iterCsgxw10D4Wwa7_18build_script_build, symObjAddr: 0x43D4, symBinAddr: 0x100004F18, symSize: 0x14 }
  - { offset: 0x4BBA, size: 0x8, addend: 0x0, symName: __RNvXNtNtNtCsaNl6UpbT7bw_4core4iter6traits7collectINtNtNtB8_3str4iter5SplitcENtB2_12IntoIterator9into_iterCsgxw10D4Wwa7_18build_script_build, symObjAddr: 0x43E8, symBinAddr: 0x100004F2C, symSize: 0x30 }
  - { offset: 0x4E65, size: 0x8, addend: 0x0, symName: __RNvXs19_NtCsaNl6UpbT7bw_4core3fmtRNtNtNtCsht3nMU9UgFu_3std3ffi6os_str8OsStringNtB6_5Debug3fmtCsgxw10D4Wwa7_18build_script_build, symObjAddr: 0x463C, symBinAddr: 0x100005180, symSize: 0x30 }
  - { offset: 0x4EBB, size: 0x8, addend: 0x0, symName: __RNvXs_NvNtNtCsaNl6UpbT7bw_4core3fmt5Write9write_fmtQINtNvNtCsht3nMU9UgFu_3std2io17default_write_fmt7AdapterNtNtNtNtBV_3sys5stdio4unix6StderrENtB4_12SpecWriteFmt14spec_write_fmtCsgxw10D4Wwa7_18build_script_build, symObjAddr: 0x4BFC, symBinAddr: 0x100005740, symSize: 0x160 }
  - { offset: 0x4F6A, size: 0x8, addend: 0x0, symName: __RNvYINtNvNtCsht3nMU9UgFu_3std2io17default_write_fmt7AdapterNtNtNtNtB9_3sys5stdio4unix6StderrENtNtCsaNl6UpbT7bw_4core3fmt5Write10write_charCsgxw10D4Wwa7_18build_script_build, symObjAddr: 0x52B4, symBinAddr: 0x100005DF8, symSize: 0x70 }
  - { offset: 0x4FD2, size: 0x8, addend: 0x0, symName: __RNvYINtNvNtCsht3nMU9UgFu_3std2io17default_write_fmt7AdapterNtNtNtNtB9_3sys5stdio4unix6StderrENtNtCsaNl6UpbT7bw_4core3fmt5Write9write_fmtCsgxw10D4Wwa7_18build_script_build, symObjAddr: 0x5324, symBinAddr: 0x100005E68, symSize: 0x24 }
  - { offset: 0x52A1, size: 0x8, addend: 0x0, symName: __RINvNtNtCsaNl6UpbT7bw_4core3str11validations15next_code_pointINtNtNtB6_5slice4iter4IterhEECsgxw10D4Wwa7_18build_script_build, symObjAddr: 0x1BF0, symBinAddr: 0x100002738, symSize: 0x224 }
  - { offset: 0x5672, size: 0x8, addend: 0x0, symName: __RNCNvMsp_NtNtCsaNl6UpbT7bw_4core3str4iterINtB7_20MatchIndicesInternalReE4next0Csgxw10D4Wwa7_18build_script_build, symObjAddr: 0x2368, symBinAddr: 0x100002EB0, symSize: 0xA8 }
  - { offset: 0x5841, size: 0x8, addend: 0x0, symName: __RNvXsX_NtNtCsaNl6UpbT7bw_4core3str4iterINtB5_5SplitcENtNtNtNtB9_4iter6traits8iterator8Iterator4nextCsgxw10D4Wwa7_18build_script_build, symObjAddr: 0x4BB8, symBinAddr: 0x1000056FC, symSize: 0x24 }
  - { offset: 0x5CBD, size: 0x8, addend: 0x0, symName: __RNSNvYNCINvNtCsht3nMU9UgFu_3std2rt10lang_startuE0INtNtNtCsaNl6UpbT7bw_4core3ops8function6FnOnceuE9call_once6vtableCsgxw10D4Wwa7_18build_script_build, symObjAddr: 0x2410, symBinAddr: 0x100002F58, symSize: 0x28 }
  - { offset: 0x5D01, size: 0x8, addend: 0x0, symName: __RNvYFEuINtNtNtCsaNl6UpbT7bw_4core3ops8function6FnOnceuE9call_onceCsgxw10D4Wwa7_18build_script_build, symObjAddr: 0x5264, symBinAddr: 0x100005DA8, symSize: 0x20 }
  - { offset: 0x5D41, size: 0x8, addend: 0x0, symName: __RNvYNCINvNtCsht3nMU9UgFu_3std2rt10lang_startuE0INtNtNtCsaNl6UpbT7bw_4core3ops8function6FnOnceuE9call_onceCsgxw10D4Wwa7_18build_script_build, symObjAddr: 0x5348, symBinAddr: 0x100005E8C, symSize: 0x4C }
  - { offset: 0x5D85, size: 0x8, addend: 0x0, symName: __RNvYNvYINtNtCsaNl6UpbT7bw_4core6option8IntoIterNtNtNtCsht3nMU9UgFu_3std3ffi6os_str8OsStringENtNtNtNtBa_4iter6traits8iterator8Iterator4nextINtNtNtBa_3ops8function6FnOnceTQB5_EE9call_onceCsgxw10D4Wwa7_18build_script_build, symObjAddr: 0x5788, symBinAddr: 0x1000062CC, symSize: 0x24 }
  - { offset: 0x5DC9, size: 0x8, addend: 0x0, symName: __RNvYNvYINtNtNtNtCsaNl6UpbT7bw_4core4iter8adapters5chain5ChainINtNtBe_6option8IntoIterNtNtNtCsht3nMU9UgFu_3std3ffi6os_str8OsStringEBX_ENtNtNtBc_6traits8iterator8Iterator4nextINtNtNtBe_3ops8function6FnOnceTQB5_EE9call_onceCsgxw10D4Wwa7_18build_script_build, symObjAddr: 0x57AC, symBinAddr: 0x1000062F0, symSize: 0x24 }
  - { offset: 0x5E24, size: 0x8, addend: 0x0, symName: __RNvXNtCsaNl6UpbT7bw_4core7convertRNtNtCsht3nMU9UgFu_3std4path4PathINtB2_5AsRefBw_E6as_refCsgxw10D4Wwa7_18build_script_build, symObjAddr: 0x42C4, symBinAddr: 0x100004E08, symSize: 0x30 }
  - { offset: 0x5E64, size: 0x8, addend: 0x0, symName: __RNvXNtCsaNl6UpbT7bw_4core7convertRNtNtCsht3nMU9UgFu_3std4path7PathBufINtB2_5AsRefNtBy_4PathE6as_refCsgxw10D4Wwa7_18build_script_build, symObjAddr: 0x42F4, symBinAddr: 0x100004E38, symSize: 0x28 }
  - { offset: 0x5EA4, size: 0x8, addend: 0x0, symName: __RNvXNtCsaNl6UpbT7bw_4core7convertRNtNtCsht3nMU9UgFu_3std4path7PathBufINtB2_5AsRefNtNtNtBA_3ffi6os_str5OsStrE6as_refCsgxw10D4Wwa7_18build_script_build, symObjAddr: 0x431C, symBinAddr: 0x100004E60, symSize: 0x28 }
  - { offset: 0x5EE4, size: 0x8, addend: 0x0, symName: __RNvXNtCsaNl6UpbT7bw_4core7convertRNtNtNtCsht3nMU9UgFu_3std3ffi6os_str5OsStrINtB2_5AsRefBw_E6as_refCsgxw10D4Wwa7_18build_script_build, symObjAddr: 0x4344, symBinAddr: 0x100004E88, symSize: 0x30 }
  - { offset: 0x5F24, size: 0x8, addend: 0x0, symName: __RNvXNtCsaNl6UpbT7bw_4core7convertReINtB2_5AsRefNtNtCsht3nMU9UgFu_3std4path4PathE6as_refCsgxw10D4Wwa7_18build_script_build, symObjAddr: 0x4374, symBinAddr: 0x100004EB8, symSize: 0x30 }
  - { offset: 0x5F64, size: 0x8, addend: 0x0, symName: __RNvXNtCsaNl6UpbT7bw_4core7convertReINtB2_5AsRefNtNtNtCsht3nMU9UgFu_3std3ffi6os_str5OsStrE6as_refCsgxw10D4Wwa7_18build_script_build, symObjAddr: 0x43A4, symBinAddr: 0x100004EE8, symSize: 0x30 }
  - { offset: 0x5FEB, size: 0x8, addend: 0x0, symName: __RINvXs2V_NtNtCsaNl6UpbT7bw_4core5slice4iterINtB7_4IterhENtNtNtNtBb_4iter6traits8iterator8Iterator4folduNCINvNtNtBY_8adapters3map8map_foldRhhuNCNvNtCsiTraAjBDcu4_5alloc3str13replace_ascii0NCINvNvBS_8for_each4callhNCINvMsi_NtB2l_3vecINtB3x_3VechE14extend_trustedINtB1I_3MapBF_B2f_EE0E0E0ECsgxw10D4Wwa7_18build_script_build, symObjAddr: 0x1F38, symBinAddr: 0x100002A80, symSize: 0x1B8 }
  - { offset: 0x6140, size: 0x8, addend: 0x0, symName: __RNvXs2V_NtNtCsaNl6UpbT7bw_4core5slice4iterINtB6_4IterhENtNtNtNtBa_4iter6traits8iterator8Iterator4nextCsgxw10D4Wwa7_18build_script_build, symObjAddr: 0x4734, symBinAddr: 0x100005278, symSize: 0xB0 }
  - { offset: 0x627A, size: 0x8, addend: 0x0, symName: __RNvXs2V_NtNtCsaNl6UpbT7bw_4core5slice4iterINtB6_4IterhENtNtNtNtBa_4iter6traits8iterator8Iterator9size_hintCsgxw10D4Wwa7_18build_script_build, symObjAddr: 0x47E4, symBinAddr: 0x100005328, symSize: 0x70 }
  - { offset: 0x64A5, size: 0x8, addend: 0x0, symName: __RNvNtNtCsaNl6UpbT7bw_4core5slice6memchr6memchrCsgxw10D4Wwa7_18build_script_build, symObjAddr: 0x38AC, symBinAddr: 0x1000043F0, symSize: 0x114 }
  - { offset: 0x651A, size: 0x8, addend: 0x0, symName: __RNvNvXs0_NtNtCsaNl6UpbT7bw_4core5slice5indexjINtB7_10SliceIndexSpE13get_unchecked18precondition_checkCsgxw10D4Wwa7_18build_script_build, symObjAddr: 0x40A0, symBinAddr: 0x100004BE4, symSize: 0xAC }
  - { offset: 0x6588, size: 0x8, addend: 0x0, symName: __RNvNvXs0_NtNtCsaNl6UpbT7bw_4core5slice5indexjINtB7_10SliceIndexSpE17get_unchecked_mut18precondition_checkCsgxw10D4Wwa7_18build_script_build, symObjAddr: 0x414C, symBinAddr: 0x100004C90, symSize: 0xAC }
  - { offset: 0x6630, size: 0x8, addend: 0x0, symName: __RNvNvXs2_NtNtCsaNl6UpbT7bw_4core5slice5indexINtNtNtBb_3ops5range5RangejEINtB7_10SliceIndexSpE13get_unchecked18precondition_checkCsgxw10D4Wwa7_18build_script_build, symObjAddr: 0x41F8, symBinAddr: 0x100004D3C, symSize: 0xCC }
  - { offset: 0x673D, size: 0x8, addend: 0x0, symName: __RNvMNtNtCsaNl6UpbT7bw_4core4char7methodsc8to_digitCsgxw10D4Wwa7_18build_script_build, symObjAddr: 0x26E4, symBinAddr: 0x10000322C, symSize: 0x14C }
  - { offset: 0x6867, size: 0x8, addend: 0x0, symName: __RNvNtNtCsaNl6UpbT7bw_4core4char7methods15encode_utf8_rawCsgxw10D4Wwa7_18build_script_build, symObjAddr: 0x3650, symBinAddr: 0x100004194, symSize: 0x110 }
  - { offset: 0x6967, size: 0x8, addend: 0x0, symName: __RNvNtNtCsaNl6UpbT7bw_4core4char7methods25encode_utf8_raw_uncheckedCsgxw10D4Wwa7_18build_script_build, symObjAddr: 0x3760, symBinAddr: 0x1000042A4, symSize: 0x14C }
  - { offset: 0x6AF0, size: 0x8, addend: 0x0, symName: __RNvNvNtNtCsaNl6UpbT7bw_4core4char7convert18from_u32_unchecked18precondition_checkCsgxw10D4Wwa7_18build_script_build, symObjAddr: 0x3F9C, symBinAddr: 0x100004AE0, symSize: 0x104 }
  - { offset: 0x6BEE, size: 0x8, addend: 0x0, symName: __RNvNvMNtNtCsaNl6UpbT7bw_4core5alloc6layoutNtB4_6Layout25from_size_align_unchecked18precondition_checkCsgxw10D4Wwa7_18build_script_build, symObjAddr: 0x3D84, symBinAddr: 0x1000048C8, symSize: 0xBC }
  - { offset: 0x6C69, size: 0x8, addend: 0x0, symName: __RNvXs7_NtNtCsaNl6UpbT7bw_4core3cmp5implsReNtB7_9PartialEq2eqCsgxw10D4Wwa7_18build_script_build, symObjAddr: 0x49C4, symBinAddr: 0x100005508, symSize: 0x44 }
  - { offset: 0x6CEF, size: 0x8, addend: 0x0, symName: __RNvYINtNtCsaNl6UpbT7bw_4core6option6OptionReENtNtB7_3cmp9PartialEq2neCsgxw10D4Wwa7_18build_script_build, symObjAddr: 0x5284, symBinAddr: 0x100005DC8, symSize: 0x30 }
  - { offset: 0x6D3E, size: 0x8, addend: 0x0, symName: __RNvYNtNtNtCsht3nMU9UgFu_3std2io5error9ErrorKindNtNtCsaNl6UpbT7bw_4core3cmp9PartialEq2neCsgxw10D4Wwa7_18build_script_build, symObjAddr: 0x5394, symBinAddr: 0x100005ED8, symSize: 0x30 }
  - { offset: 0x6D93, size: 0x8, addend: 0x0, symName: __RNvYjNtNtCsaNl6UpbT7bw_4core3cmp3Ord3maxCsgxw10D4Wwa7_18build_script_build, symObjAddr: 0x57D0, symBinAddr: 0x100006314, symSize: 0x80 }
  - { offset: 0x6FDB, size: 0x8, addend: 0x0, symName: __RNvXs_NtNtCsiTraAjBDcu4_5alloc3vec15set_len_on_dropNtB4_12SetLenOnDropNtNtNtCsaNl6UpbT7bw_4core3ops4drop4Drop4dropCsgxw10D4Wwa7_18build_script_build, symObjAddr: 0x4BDC, symBinAddr: 0x100005720, symSize: 0x20 }
  - { offset: 0x71E5, size: 0x8, addend: 0x0, symName: __RNvXs1_NtCsiTraAjBDcu4_5alloc7raw_vecINtB5_6RawVecINtNtB7_5boxed3BoxDINtNtNtCsaNl6UpbT7bw_4core3ops8function5FnMutuEp6OutputINtNtB1c_6result6ResultuNtNtNtCsht3nMU9UgFu_3std2io5error5ErrorENtNtB1c_6marker4SyncNtB32_4SendEL_EENtNtB1a_4drop4Drop4dropCsgxw10D4Wwa7_18build_script_build, symObjAddr: 0x466C, symBinAddr: 0x1000051B0, symSize: 0x34 }
  - { offset: 0x7221, size: 0x8, addend: 0x0, symName: __RNvXs1_NtCsiTraAjBDcu4_5alloc7raw_vecINtB5_6RawVecPaENtNtNtCsaNl6UpbT7bw_4core3ops4drop4Drop4dropCsgxw10D4Wwa7_18build_script_build, symObjAddr: 0x46A0, symBinAddr: 0x1000051E4, symSize: 0x30 }
  - { offset: 0x7493, size: 0x8, addend: 0x0, symName: __RNCINvMsm_NtNtNtCsiTraAjBDcu4_5alloc11collections5btree8navigateINtNtBa_4node6HandleINtB13_7NodeRefNtNtB13_6marker5DyingNtNtNtCsht3nMU9UgFu_3std3ffi6os_str8OsStringINtNtCsaNl6UpbT7bw_4core6option6OptionB1U_ENtB1B_4LeafENtB1B_4EdgeE27deallocating_next_uncheckedNtNtBe_5alloc6GlobalE0Csgxw10D4Wwa7_18build_script_build, symObjAddr: 0x2238, symBinAddr: 0x100002D80, symSize: 0x58 }
  - { offset: 0x7ABB, size: 0x8, addend: 0x0, symName: __RINvNtNtNtCsiTraAjBDcu4_5alloc11collections5btree3mem7replaceINtNtB4_4node6HandleINtB10_7NodeRefNtNtB10_6marker5DyingNtNtNtCsht3nMU9UgFu_3std3ffi6os_str8OsStringINtNtCsaNl6UpbT7bw_4core6option6OptionB1R_ENtB1y_4LeafENtB1y_4EdgeEIBY_IB1i_B1w_B1R_B2z_NtB1y_14LeafOrInternalENtB1y_2KVENCINvMsm_NtB4_8navigateBX_27deallocating_next_uncheckedNtNtB8_5alloc6GlobalE0ECsgxw10D4Wwa7_18build_script_build, symObjAddr: 0x1E14, symBinAddr: 0x10000295C, symSize: 0xCC }
  - { offset: 0x7C91, size: 0x8, addend: 0x0, symName: __RNvXNtNtNtCsiTraAjBDcu4_5alloc11collections5btree3mapINtB2_8BTreeMapNtNtNtCsht3nMU9UgFu_3std3ffi6os_str8OsStringINtNtCsaNl6UpbT7bw_4core6option6OptionB14_EENtNtNtB1R_3ops4drop4Drop4dropCsgxw10D4Wwa7_18build_script_build, symObjAddr: 0x4418, symBinAddr: 0x100004F5C, symSize: 0x4C }
  - { offset: 0x7D1E, size: 0x8, addend: 0x0, symName: __RNvXNvXsw_NtNtNtCsiTraAjBDcu4_5alloc11collections5btree3mapINtB8_8IntoIterpppENtNtNtCsaNl6UpbT7bw_4core3ops4drop4Drop4dropINtB2_9DropGuardNtNtNtCsht3nMU9UgFu_3std3ffi6os_str8OsStringINtNtB1k_6option6OptionB2c_ENtNtBe_5alloc6GlobalEB1e_4dropCsgxw10D4Wwa7_18build_script_build, symObjAddr: 0x4518, symBinAddr: 0x10000505C, symSize: 0x64 }
  - { offset: 0x7DB3, size: 0x8, addend: 0x0, symName: __RNvXsw_NtNtNtCsiTraAjBDcu4_5alloc11collections5btree3mapINtB5_8IntoIterNtNtNtCsht3nMU9UgFu_3std3ffi6os_str8OsStringINtNtCsaNl6UpbT7bw_4core6option6OptionB17_EENtNtNtB1U_3ops4drop4Drop4dropCsgxw10D4Wwa7_18build_script_build, symObjAddr: 0x5188, symBinAddr: 0x100005CCC, symSize: 0x9C }
  - { offset: 0x7E2A, size: 0x8, addend: 0x0, symName: __RNvXsv_NtNtNtCsiTraAjBDcu4_5alloc11collections5btree3mapINtB5_8BTreeMapNtNtNtCsht3nMU9UgFu_3std3ffi6os_str8OsStringINtNtCsaNl6UpbT7bw_4core6option6OptionB17_EENtNtNtNtB1U_4iter6traits7collect12IntoIterator9into_iterCsgxw10D4Wwa7_18build_script_build, symObjAddr: 0x4FB8, symBinAddr: 0x100005AFC, symSize: 0x190 }
  - { offset: 0x80B6, size: 0x8, addend: 0x0, symName: __RNvXsG_NtCsiTraAjBDcu4_5alloc6stringNtB5_6StringINtNtCsaNl6UpbT7bw_4core7convert5AsRefShE6as_refCsgxw10D4Wwa7_18build_script_build, symObjAddr: 0x4B04, symBinAddr: 0x100005648, symSize: 0x24 }
  - { offset: 0x8108, size: 0x8, addend: 0x0, symName: __RNvXss_NtCsiTraAjBDcu4_5alloc6stringNtB5_6StringNtNtNtCsaNl6UpbT7bw_4core3ops5deref5Deref5derefCsgxw10D4Wwa7_18build_script_build, symObjAddr: 0x4F94, symBinAddr: 0x100005AD8, symSize: 0x24 }
  - { offset: 0x8147, size: 0x8, addend: 0x0, symName: __RNvXs0_NtNtCsiTraAjBDcu4_5alloc3ffi5c_strNtB5_7CStringNtNtNtCsaNl6UpbT7bw_4core3ops4drop4Drop4dropCsgxw10D4Wwa7_18build_script_build, symObjAddr: 0x457C, symBinAddr: 0x1000050C0, symSize: 0x70 }
  - { offset: 0x8245, size: 0x8, addend: 0x0, symName: __RINvMNtCsaNl6UpbT7bw_4core6optionINtB3_6OptionNtNtNtCsht3nMU9UgFu_3std3ffi6os_str8OsStringE14unwrap_or_elseNCNvCsgxw10D4Wwa7_18build_script_build13cargo_env_var0EB1L_, symObjAddr: 0x0, symBinAddr: 0x100000BF0, symSize: 0x7C }
  - { offset: 0x82A8, size: 0x8, addend: 0x0, symName: __RINvMNtCsaNl6UpbT7bw_4core6optionINtB3_6OptionNtNtNtCsht3nMU9UgFu_3std3ffi6os_str8OsStringE6filterNCNvCsgxw10D4Wwa7_18build_script_build13compile_probe0EB1C_, symObjAddr: 0x7C, symBinAddr: 0x100000C6C, symSize: 0x170 }
  - { offset: 0x8303, size: 0x8, addend: 0x0, symName: __RINvMNtCsaNl6UpbT7bw_4core6optionINtB3_6OptionNtNtNtCsht3nMU9UgFu_3std3ffi6os_str8OsStringE6filterNCNvCsgxw10D4Wwa7_18build_script_build13compile_probes_0EB1C_, symObjAddr: 0x1EC, symBinAddr: 0x100000DDC, symSize: 0x170 }
  - { offset: 0x836B, size: 0x8, addend: 0x0, symName: __RINvMNtCsaNl6UpbT7bw_4core6optionINtB3_6OptionNtNtNtCsht3nMU9UgFu_3std3ffi6os_str8OsStringE7or_elseNCNvXs_NtNtNtB5_4iter8adapters5chainINtB1G_5ChainIB2a_INtB3_8IntoIterBI_EB2r_EINtNtNtB1K_7sources4once4OnceBI_EENtNtNtB1K_6traits8iterator8Iterator4next0ECsgxw10D4Wwa7_18build_script_build, symObjAddr: 0x35C, symBinAddr: 0x100000F4C, symSize: 0xD4 }
  - { offset: 0x83DB, size: 0x8, addend: 0x0, symName: __RINvMNtCsaNl6UpbT7bw_4core6optionINtB3_6OptionNtNtNtCsht3nMU9UgFu_3std3ffi6os_str8OsStringE7or_elseNCNvXs_NtNtNtB5_4iter8adapters5chainINtB1G_5ChainINtB3_8IntoIterBI_EB2m_ENtNtNtB1K_6traits8iterator8Iterator4next0ECsgxw10D4Wwa7_18build_script_build, symObjAddr: 0x430, symBinAddr: 0x100001020, symSize: 0xD4 }
  - { offset: 0x8465, size: 0x8, addend: 0x0, symName: __RINvMs12_NtCsht3nMU9UgFu_3std4pathNtB7_4Path3newNtNtNtB9_3ffi6os_str8OsStringECsgxw10D4Wwa7_18build_script_build, symObjAddr: 0x504, symBinAddr: 0x1000010F4, symSize: 0x24 }
  - { offset: 0x8491, size: 0x8, addend: 0x0, symName: __RINvMs12_NtCsht3nMU9UgFu_3std4pathNtB7_4Path3neweECsgxw10D4Wwa7_18build_script_build, symObjAddr: 0x528, symBinAddr: 0x100001118, symSize: 0x28 }
  - { offset: 0x84BD, size: 0x8, addend: 0x0, symName: __RINvMs12_NtCsht3nMU9UgFu_3std4pathNtB7_4Path4joinReECsgxw10D4Wwa7_18build_script_build, symObjAddr: 0x550, symBinAddr: 0x100001140, symSize: 0x80 }
  - { offset: 0x8513, size: 0x8, addend: 0x0, symName: __RINvMsA_NtCsht3nMU9UgFu_3std2fsNtB6_10DirBuilder6createRNtNtB8_4path4PathECsgxw10D4Wwa7_18build_script_build, symObjAddr: 0x5D0, symBinAddr: 0x1000011C0, symSize: 0x74 }
  - { offset: 0x8669, size: 0x8, addend: 0x0, symName: __RINvMs_NtNtCsaNl6UpbT7bw_4core3fmt2rtNtB7_9Arguments6new_v1Kj2_Kj1_ECsgxw10D4Wwa7_18build_script_build, symObjAddr: 0x644, symBinAddr: 0x100001234, symSize: 0x54 }
  - { offset: 0x86CD, size: 0x8, addend: 0x0, symName: __RINvMs_NtNtCsaNl6UpbT7bw_4core3fmt2rtNtB7_9Arguments6new_v1Kj3_Kj2_ECsgxw10D4Wwa7_18build_script_build, symObjAddr: 0x698, symBinAddr: 0x100001288, symSize: 0x54 }
  - { offset: 0x8717, size: 0x8, addend: 0x0, symName: __RINvMs_NtNtCsaNl6UpbT7bw_4core3fmt2rtNtB7_9Arguments9new_constKj1_ECsgxw10D4Wwa7_18build_script_build, symObjAddr: 0x6EC, symBinAddr: 0x1000012DC, symSize: 0x48 }
  - { offset: 0x87C3, size: 0x8, addend: 0x0, symName: __RINvMsb_NtNtNtCsiTraAjBDcu4_5alloc11collections5btree8navigateINtB6_13LazyLeafRangeNtNtNtB8_4node6marker5DyingNtNtNtCsht3nMU9UgFu_3std3ffi6os_str8OsStringINtNtCsaNl6UpbT7bw_4core6option6OptionB1K_EE16deallocating_endNtNtBc_5alloc6GlobalECsgxw10D4Wwa7_18build_script_build, symObjAddr: 0x734, symBinAddr: 0x100001324, symSize: 0x98 }
  - { offset: 0x8895, size: 0x8, addend: 0x0, symName: __RINvMsb_NtNtNtCsiTraAjBDcu4_5alloc11collections5btree8navigateINtB6_13LazyLeafRangeNtNtNtB8_4node6marker5DyingNtNtNtCsht3nMU9UgFu_3std3ffi6os_str8OsStringINtNtCsaNl6UpbT7bw_4core6option6OptionB1K_EE27deallocating_next_uncheckedNtNtBc_5alloc6GlobalECsgxw10D4Wwa7_18build_script_build, symObjAddr: 0x7CC, symBinAddr: 0x1000013BC, symSize: 0xA8 }
  - { offset: 0x8B6D, size: 0x8, addend: 0x0, symName: __RNvMNtCsaNl6UpbT7bw_4core6optionINtB2_6OptionNtNtNtCsht3nMU9UgFu_3std3ffi6os_str8OsStringE7is_someCsgxw10D4Wwa7_18build_script_build, symObjAddr: 0x2438, symBinAddr: 0x100002F80, symSize: 0x2C }
  - { offset: 0x8B99, size: 0x8, addend: 0x0, symName: __RNvMNtCsaNl6UpbT7bw_4core6resultINtB2_6ResultNtNtCsht3nMU9UgFu_3std7process6OutputNtNtNtBL_2io5error5ErrorE2okCsgxw10D4Wwa7_18build_script_build, symObjAddr: 0x2464, symBinAddr: 0x100002FAC, symSize: 0xA8 }
  - { offset: 0x8BED, size: 0x8, addend: 0x0, symName: __RNvMNtCsaNl6UpbT7bw_4core6resultINtB2_6ResultReNtNtNtB4_3str5error9Utf8ErrorE2okCsgxw10D4Wwa7_18build_script_build, symObjAddr: 0x250C, symBinAddr: 0x100003054, symSize: 0x60 }
  - { offset: 0x8C41, size: 0x8, addend: 0x0, symName: __RNvMNtCsaNl6UpbT7bw_4core6resultINtB2_6ResulthNtNtNtB4_3num5error15TryFromIntErrorE6expectCsgxw10D4Wwa7_18build_script_build, symObjAddr: 0x256C, symBinAddr: 0x1000030B4, symSize: 0x84 }
  - { offset: 0x8CA3, size: 0x8, addend: 0x0, symName: __RNvMNtCsaNl6UpbT7bw_4core6resultINtB2_6ResultmNtNtNtB4_3num5error13ParseIntErrorE2okCsgxw10D4Wwa7_18build_script_build, symObjAddr: 0x25F0, symBinAddr: 0x100003138, symSize: 0x5C }
  - { offset: 0x8DBF, size: 0x8, addend: 0x0, symName: __RNvMNtCsiTraAjBDcu4_5alloc6stringNtB2_6String6as_strCsgxw10D4Wwa7_18build_script_build, symObjAddr: 0x264C, symBinAddr: 0x100003194, symSize: 0x78 }
  - { offset: 0x8EF4, size: 0x8, addend: 0x0, symName: __RNvMNtCsiTraAjBDcu4_5alloc6stringNtB2_6String8is_emptyCsgxw10D4Wwa7_18build_script_build, symObjAddr: 0x26C4, symBinAddr: 0x10000320C, symSize: 0x20 }
  - { offset: 0x8F84, size: 0x8, addend: 0x0, symName: __RNvMs12_NtCsht3nMU9UgFu_3std4pathNtB6_4Path7displayCsgxw10D4Wwa7_18build_script_build, symObjAddr: 0x2830, symBinAddr: 0x100003378, symSize: 0x18 }
  - { offset: 0x9041, size: 0x8, addend: 0x0, symName: __RNvMs2_NtCsiTraAjBDcu4_5alloc7raw_vecNtB5_11RawVecInner16with_capacity_inCsgxw10D4Wwa7_18build_script_build, symObjAddr: 0x2848, symBinAddr: 0x100003390, symSize: 0x110 }
  - { offset: 0x91CC, size: 0x8, addend: 0x0, symName: __RNvMs5_NtNtCsht3nMU9UgFu_3std2io5errorNtB5_5Error4kindCsgxw10D4Wwa7_18build_script_build, symObjAddr: 0x2958, symBinAddr: 0x1000034A0, symSize: 0xC0 }
  - { offset: 0x9439, size: 0x8, addend: 0x0, symName: __RNvMsb_NtNtNtCsiTraAjBDcu4_5alloc11collections5btree8navigateINtB5_13LazyLeafRangeNtNtNtB7_4node6marker5DyingNtNtNtCsht3nMU9UgFu_3std3ffi6os_str8OsStringINtNtCsaNl6UpbT7bw_4core6option6OptionB1J_EE10take_frontCsgxw10D4Wwa7_18build_script_build, symObjAddr: 0x2FAC, symBinAddr: 0x100003AF4, symSize: 0x1C4 }
  - { offset: 0x978C, size: 0x8, addend: 0x0, symName: __RNvMsc_NtNtNtCsiTraAjBDcu4_5alloc11collections5btree8navigateINtB5_13LazyLeafRangeNtNtNtB7_4node6marker5DyingNtNtNtCsht3nMU9UgFu_3std3ffi6os_str8OsStringINtNtCsaNl6UpbT7bw_4core6option6OptionB1J_EE10init_frontCsgxw10D4Wwa7_18build_script_build, symObjAddr: 0x3170, symBinAddr: 0x100003CB8, symSize: 0x1C8 }
  - { offset: 0x9933, size: 0x8, addend: 0x0, symName: __RNvMsf_NtNtCsaNl6UpbT7bw_4core3str4iterINtB5_13SplitInternalcE4nextCsgxw10D4Wwa7_18build_script_build, symObjAddr: 0x3338, symBinAddr: 0x100003E80, symSize: 0x140 }
  - { offset: 0x9A6F, size: 0x8, addend: 0x0, symName: __RNvMsf_NtNtCsaNl6UpbT7bw_4core3str4iterINtB5_13SplitInternalcE7get_endCsgxw10D4Wwa7_18build_script_build, symObjAddr: 0x3478, symBinAddr: 0x100003FC0, symSize: 0x128 }
  - { offset: 0x9B6D, size: 0x8, addend: 0x0, symName: __RNvMsl_NtNtCsht3nMU9UgFu_3std3ffi6os_strNtB5_5OsStr8is_emptyCsgxw10D4Wwa7_18build_script_build, symObjAddr: 0x35A0, symBinAddr: 0x1000040E8, symSize: 0x1C }
  - { offset: 0x9BB2, size: 0x8, addend: 0x0, symName: __RNvMsx_NtNtNtCsiTraAjBDcu4_5alloc11collections5btree3mapINtB5_8IntoIterNtNtNtCsht3nMU9UgFu_3std3ffi6os_str8OsStringINtNtCsaNl6UpbT7bw_4core6option6OptionB17_EE10dying_nextCsgxw10D4Wwa7_18build_script_build, symObjAddr: 0x35BC, symBinAddr: 0x100004104, symSize: 0x90 }
  - { offset: 0xA7FC, size: 0x8, addend: 0x0, symName: __RINvMsk_NtCsht3nMU9UgFu_3std7processNtB6_7Command10env_removeReECsgxw10D4Wwa7_18build_script_build, symObjAddr: 0x0, symBinAddr: 0x100006394, symSize: 0x78 }
  - { offset: 0xAAB9, size: 0x8, addend: 0x0, symName: __RINvNtNtCsht3nMU9UgFu_3std3sys9backtrace28___rust_begin_short_backtraceFEuuECsgxw10D4Wwa7_18build_script_build, symObjAddr: 0xF4C, symBinAddr: 0x1000072E0, symSize: 0x24 }
  - { offset: 0xAD45, size: 0x8, addend: 0x0, symName: __RNCNvXs1_NtNtNtCsht3nMU9UgFu_3std2io5error14repr_bitpackedNtB7_4ReprNtNtNtCsaNl6UpbT7bw_4core3ops4drop4Drop4drop0Csgxw10D4Wwa7_18build_script_build, symObjAddr: 0x1664, symBinAddr: 0x1000079F8, symSize: 0x3C }
  - { offset: 0xADFA, size: 0x8, addend: 0x0, symName: __RNvXs1_NtNtNtCsht3nMU9UgFu_3std2io5error14repr_bitpackedNtB5_4ReprNtNtNtCsaNl6UpbT7bw_4core3ops4drop4Drop4dropCsgxw10D4Wwa7_18build_script_build, symObjAddr: 0x26C0, symBinAddr: 0x100008A54, symSize: 0x38 }
  - { offset: 0xAE23, size: 0x8, addend: 0x0, symName: __RINvNtNtNtCsht3nMU9UgFu_3std2io5error14repr_bitpacked11decode_reprINtNtCsiTraAjBDcu4_5alloc5boxed3BoxNtB4_6CustomENCNvXs1_B2_NtB2_4ReprNtNtNtCsaNl6UpbT7bw_4core3ops4drop4Drop4drop0ECsgxw10D4Wwa7_18build_script_build, symObjAddr: 0x11D0, symBinAddr: 0x100007564, symSize: 0x1DC }
  - { offset: 0xB090, size: 0x8, addend: 0x0, symName: __RNCNvMs0_NtNtNtCsht3nMU9UgFu_3std2io5error14repr_bitpackedNtB7_4Repr4data0Csgxw10D4Wwa7_18build_script_build, symObjAddr: 0x1650, symBinAddr: 0x1000079E4, symSize: 0x14 }
  - { offset: 0xB0C8, size: 0x8, addend: 0x0, symName: __RINvNtNtNtCsht3nMU9UgFu_3std2io5error14repr_bitpacked11decode_reprRNtB4_6CustomNCNvMs0_B2_NtB2_4Repr4data0ECsgxw10D4Wwa7_18build_script_build, symObjAddr: 0x13AC, symBinAddr: 0x100007740, symSize: 0x1DC }
  - { offset: 0xB324, size: 0x8, addend: 0x0, symName: __RNvNtNtNtCsht3nMU9UgFu_3std2io5error14repr_bitpacked14kind_from_primCsgxw10D4Wwa7_18build_script_build, symObjAddr: 0x18BC, symBinAddr: 0x100007C50, symSize: 0x758 }
  - { offset: 0xBF11, size: 0x8, addend: 0x0, symName: __RNvXsZ_NtCsht3nMU9UgFu_3std7processuNtB5_11Termination6reportCsgxw10D4Wwa7_18build_script_build, symObjAddr: 0x29EC, symBinAddr: 0x100008D80, symSize: 0x10 }
  - { offset: 0xC413, size: 0x8, addend: 0x0, symName: __RNvNvMs1_NtNtCsaNl6UpbT7bw_4core3ptr8non_nullINtB7_7NonNullpE13new_unchecked18precondition_checkCsgxw10D4Wwa7_18build_script_build, symObjAddr: 0x2014, symBinAddr: 0x1000083A8, symSize: 0xA4 }
  - { offset: 0xDB16, size: 0x8, addend: 0x0, symName: __RINvNtNtNtCsaNl6UpbT7bw_4core4iter8adapters5chain17and_then_or_clearINtB2_5ChainINtNtB8_6option8IntoIterNtNtNtCsht3nMU9UgFu_3std3ffi6os_str8OsStringEB1g_EB1E_NvYB14_NtNtNtB6_6traits8iterator8Iterator4nextECsgxw10D4Wwa7_18build_script_build, symObjAddr: 0xF70, symBinAddr: 0x100007304, symSize: 0x134 }
  - { offset: 0xDC54, size: 0x8, addend: 0x0, symName: __RINvNtNtNtCsaNl6UpbT7bw_4core4iter8adapters5chain17and_then_or_clearINtNtB8_6option8IntoIterNtNtNtCsht3nMU9UgFu_3std3ffi6os_str8OsStringEB1s_NvYB14_NtNtNtB6_6traits8iterator8Iterator4nextECsgxw10D4Wwa7_18build_script_build, symObjAddr: 0x10A4, symBinAddr: 0x100007438, symSize: 0x12C }
  - { offset: 0xDD9D, size: 0x8, addend: 0x0, symName: __RNCNvXs_NtNtNtCsaNl6UpbT7bw_4core4iter8adapters5chainINtB6_5ChainIBQ_INtNtBc_6option8IntoIterNtNtNtCsht3nMU9UgFu_3std3ffi6os_str8OsStringEB15_EINtNtNtBa_7sources4once4OnceB1t_EENtNtNtBa_6traits8iterator8Iterator4next0Csgxw10D4Wwa7_18build_script_build, symObjAddr: 0x16A0, symBinAddr: 0x100007A34, symSize: 0x8C }
  - { offset: 0xDE6D, size: 0x8, addend: 0x0, symName: __RNCNvXs_NtNtNtCsaNl6UpbT7bw_4core4iter8adapters5chainINtB6_5ChainINtNtBc_6option8IntoIterNtNtNtCsht3nMU9UgFu_3std3ffi6os_str8OsStringEB11_ENtNtNtBa_6traits8iterator8Iterator4next0Csgxw10D4Wwa7_18build_script_build, symObjAddr: 0x172C, symBinAddr: 0x100007AC0, symSize: 0x8C }
  - { offset: 0xDF3E, size: 0x8, addend: 0x0, symName: __RNvXs_NtNtNtCsaNl6UpbT7bw_4core4iter8adapters5chainINtB4_5ChainIBO_INtNtBa_6option8IntoIterNtNtNtCsht3nMU9UgFu_3std3ffi6os_str8OsStringEB13_EINtNtNtB8_7sources4once4OnceB1r_EENtNtNtB8_6traits8iterator8Iterator4nextCsgxw10D4Wwa7_18build_script_build, symObjAddr: 0x2E80, symBinAddr: 0x100009214, symSize: 0x44 }
  - { offset: 0xDF7C, size: 0x8, addend: 0x0, symName: __RNvXs_NtNtNtCsaNl6UpbT7bw_4core4iter8adapters5chainINtB4_5ChainINtNtBa_6option8IntoIterNtNtNtCsht3nMU9UgFu_3std3ffi6os_str8OsStringEBZ_ENtNtNtB8_6traits8iterator8Iterator4nextCsgxw10D4Wwa7_18build_script_build, symObjAddr: 0x2EC4, symBinAddr: 0x100009258, symSize: 0x44 }
  - { offset: 0xE2EA, size: 0x8, addend: 0x0, symName: __RINvYINtNtNtNtCsaNl6UpbT7bw_4core4iter8adapters5chain5ChainINtNtBc_6option8IntoIterNtNtNtCsht3nMU9UgFu_3std3ffi6os_str8OsStringEBV_ENtNtNtBa_6traits8iterator8Iterator5chainINtNtNtBa_7sources4once4OnceB1j_EECsgxw10D4Wwa7_18build_script_build, symObjAddr: 0x1588, symBinAddr: 0x10000791C, symSize: 0xC8 }
  - { offset: 0xE36E, size: 0x8, addend: 0x0, symName: __RNvXNtNtNtCsaNl6UpbT7bw_4core4iter6traits7collectINtNtNtB6_8adapters5chain5ChainIBM_INtNtB8_6option8IntoIterNtNtNtCsht3nMU9UgFu_3std3ffi6os_str8OsStringEB1k_EINtNtNtB6_7sources4once4OnceB1I_EENtB2_12IntoIterator9into_iterCsgxw10D4Wwa7_18build_script_build, symObjAddr: 0x2664, symBinAddr: 0x1000089F8, symSize: 0x30 }
  - { offset: 0xE7A5, size: 0x8, addend: 0x0, symName: __RNvXs5_NtNtCsaNl6UpbT7bw_4core5slice5indexINtNtNtB9_3ops5range9RangeFromjEINtB5_10SliceIndexShE5indexCsgxw10D4Wwa7_18build_script_build, symObjAddr: 0x280C, symBinAddr: 0x100008BA0, symSize: 0x90 }
  - { offset: 0xEA44, size: 0x8, addend: 0x0, symName: __RNvNvNtNtCsaNl6UpbT7bw_4core5slice3raw14from_raw_parts18precondition_checkCsgxw10D4Wwa7_18build_script_build, symObjAddr: 0x21E0, symBinAddr: 0x100008574, symSize: 0x1DC }
  - { offset: 0xEBC8, size: 0x8, addend: 0x0, symName: __RNvNvNtNtCsaNl6UpbT7bw_4core5slice3raw18from_raw_parts_mut18precondition_checkCsgxw10D4Wwa7_18build_script_build, symObjAddr: 0x23BC, symBinAddr: 0x100008750, symSize: 0x1DC }
  - { offset: 0xEFAE, size: 0x8, addend: 0x0, symName: __RNvXs2_NtNtCsaNl6UpbT7bw_4core3str7patterncNtB5_7Pattern13into_searcherCsgxw10D4Wwa7_18build_script_build, symObjAddr: 0x26F8, symBinAddr: 0x100008A8C, symSize: 0x114 }
  - { offset: 0xF133, size: 0x8, addend: 0x0, symName: __RNvXs_NtNtCsaNl6UpbT7bw_4core3str7patternNtB4_12CharSearcherNtB4_8Searcher10next_matchCsgxw10D4Wwa7_18build_script_build, symObjAddr: 0x2AE0, symBinAddr: 0x100008E74, symSize: 0x380 }
  - { offset: 0xF597, size: 0x8, addend: 0x0, symName: __RNvXs_NtNtCsaNl6UpbT7bw_4core3str7patternNtB4_12CharSearcherNtB4_8Searcher8haystackCsgxw10D4Wwa7_18build_script_build, symObjAddr: 0x2E60, symBinAddr: 0x1000091F4, symSize: 0x20 }
  - { offset: 0xF5CB, size: 0x8, addend: 0x0, symName: __RNvXst_NtNtCsaNl6UpbT7bw_4core3str7patternReNtB5_7Pattern13into_searcherCsgxw10D4Wwa7_18build_script_build, symObjAddr: 0x2F08, symBinAddr: 0x10000929C, symSize: 0x4C }
  - { offset: 0xF608, size: 0x8, addend: 0x0, symName: __RNvXst_NtNtCsaNl6UpbT7bw_4core3str7patternReNtB5_7Pattern15as_utf8_patternCsgxw10D4Wwa7_18build_script_build, symObjAddr: 0x2F54, symBinAddr: 0x1000092E8, symSize: 0x38 }
  - { offset: 0xF63C, size: 0x8, addend: 0x0, symName: __RNvXsv_NtNtCsaNl6UpbT7bw_4core3str7patternNtB5_11StrSearcherNtB5_8Searcher10next_matchCsgxw10D4Wwa7_18build_script_build, symObjAddr: 0x2F8C, symBinAddr: 0x100009320, symSize: 0x148 }
  - { offset: 0xF6C8, size: 0x8, addend: 0x0, symName: __RNvXsv_NtNtCsaNl6UpbT7bw_4core3str7patternNtB5_11StrSearcherNtB5_8Searcher4nextCsgxw10D4Wwa7_18build_script_build, symObjAddr: 0x30D4, symBinAddr: 0x100009468, symSize: 0x454 }
  - { offset: 0xF9CD, size: 0x8, addend: 0x0, symName: __RNvXsv_NtNtCsaNl6UpbT7bw_4core3str7patternNtB5_11StrSearcherNtB5_8Searcher8haystackCsgxw10D4Wwa7_18build_script_build, symObjAddr: 0x3528, symBinAddr: 0x1000098BC, symSize: 0x20 }
  - { offset: 0xFA01, size: 0x8, addend: 0x0, symName: __RNvXsy_NtNtCsaNl6UpbT7bw_4core3str7patternNtB5_9MatchOnlyNtB5_14TwoWayStrategy16use_early_rejectCsgxw10D4Wwa7_18build_script_build, symObjAddr: 0x3548, symBinAddr: 0x1000098DC, symSize: 0xC }
  - { offset: 0xFA1F, size: 0x8, addend: 0x0, symName: __RNvXsy_NtNtCsaNl6UpbT7bw_4core3str7patternNtB5_9MatchOnlyNtB5_14TwoWayStrategy8matchingCsgxw10D4Wwa7_18build_script_build, symObjAddr: 0x3554, symBinAddr: 0x1000098E8, symSize: 0x28 }
  - { offset: 0xFA5C, size: 0x8, addend: 0x0, symName: __RNvXsy_NtNtCsaNl6UpbT7bw_4core3str7patternNtB5_9MatchOnlyNtB5_14TwoWayStrategy9rejectingCsgxw10D4Wwa7_18build_script_build, symObjAddr: 0x357C, symBinAddr: 0x100009910, symSize: 0x18 }
  - { offset: 0xFA9F, size: 0x8, addend: 0x0, symName: __RNvXsz_NtNtCsaNl6UpbT7bw_4core3str7patternNtB5_14RejectAndMatchNtB5_14TwoWayStrategy16use_early_rejectCsgxw10D4Wwa7_18build_script_build, symObjAddr: 0x3594, symBinAddr: 0x100009928, symSize: 0xC }
  - { offset: 0xFABD, size: 0x8, addend: 0x0, symName: __RNvXsz_NtNtCsaNl6UpbT7bw_4core3str7patternNtB5_14RejectAndMatchNtB5_14TwoWayStrategy8matchingCsgxw10D4Wwa7_18build_script_build, symObjAddr: 0x35A0, symBinAddr: 0x100009934, symSize: 0x20 }
  - { offset: 0xFAFA, size: 0x8, addend: 0x0, symName: __RNvXsz_NtNtCsaNl6UpbT7bw_4core3str7patternNtB5_14RejectAndMatchNtB5_14TwoWayStrategy9rejectingCsgxw10D4Wwa7_18build_script_build, symObjAddr: 0x35C0, symBinAddr: 0x100009954, symSize: 0x28 }
  - { offset: 0xFC71, size: 0x8, addend: 0x0, symName: __RNvNvXs5_NtNtCsaNl6UpbT7bw_4core3str6traitsINtNtNtBb_3ops5range5RangejEINtNtNtBb_5slice5index10SliceIndexeE13get_unchecked18precondition_checkCsgxw10D4Wwa7_18build_script_build, symObjAddr: 0x2598, symBinAddr: 0x10000892C, symSize: 0xCC }
  - { offset: 0xFD6C, size: 0x8, addend: 0x0, symName: __RNvXs9_NtNtCsaNl6UpbT7bw_4core3str6traitsINtNtNtB9_3ops5range9RangeFromjEINtNtNtB9_5slice5index10SliceIndexeE3getCsgxw10D4Wwa7_18build_script_build, symObjAddr: 0x289C, symBinAddr: 0x100008C30, symSize: 0x150 }
  - { offset: 0xFF36, size: 0x8, addend: 0x0, symName: __RNvXs_NtNtCsaNl6UpbT7bw_4core3str6traitseNtNtB8_3cmp9PartialEq2eqCsgxw10D4Wwa7_18build_script_build, symObjAddr: 0x2A7C, symBinAddr: 0x100008E10, symSize: 0x64 }
  - { offset: 0x10365, size: 0x8, addend: 0x0, symName: __RNvNvNtCsaNl6UpbT7bw_4core4hint16assert_unchecked18precondition_checkCsgxw10D4Wwa7_18build_script_build, symObjAddr: 0x20B8, symBinAddr: 0x10000844C, symSize: 0xA4 }
  - { offset: 0x103C5, size: 0x8, addend: 0x0, symName: __RNvNvNtCsaNl6UpbT7bw_4core4hint21unreachable_unchecked18precondition_checkCsgxw10D4Wwa7_18build_script_build, symObjAddr: 0x215C, symBinAddr: 0x1000084F0, symSize: 0x84 }
  - { offset: 0x10483, size: 0x8, addend: 0x0, symName: __RNvXs1_NtCsaNl6UpbT7bw_4core7convertNtNtCsht3nMU9UgFu_3std7process5StdioINtB5_4IntoBy_E4intoCsgxw10D4Wwa7_18build_script_build, symObjAddr: 0x2694, symBinAddr: 0x100008A28, symSize: 0x1C }
  - { offset: 0x10CB5, size: 0x8, addend: 0x0, symName: __RNvXs1_NtCsiTraAjBDcu4_5alloc5allocNtB5_6GlobalNtNtCsaNl6UpbT7bw_4core5clone5Clone5cloneCsgxw10D4Wwa7_18build_script_build, symObjAddr: 0x26B0, symBinAddr: 0x100008A44, symSize: 0x10 }
  - { offset: 0x10D06, size: 0x8, addend: 0x0, symName: __RNvXs_NtCsiTraAjBDcu4_5alloc5allocNtB4_6GlobalNtNtCsaNl6UpbT7bw_4core5alloc9Allocator10deallocateCsgxw10D4Wwa7_18build_script_build, symObjAddr: 0x29FC, symBinAddr: 0x100008D90, symSize: 0x80 }
  - { offset: 0x11259, size: 0x8, addend: 0x0, symName: __RINvMsk_NtCsht3nMU9UgFu_3std7processNtB6_7Command10env_removeReECsgxw10D4Wwa7_18build_script_build, symObjAddr: 0x0, symBinAddr: 0x100006394, symSize: 0x78 }
  - { offset: 0x112B2, size: 0x8, addend: 0x0, symName: __RINvMsk_NtCsht3nMU9UgFu_3std7processNtB6_7Command3argNtNtB8_4path7PathBufECsgxw10D4Wwa7_18build_script_build, symObjAddr: 0x78, symBinAddr: 0x10000640C, symSize: 0x84 }
  - { offset: 0x112EE, size: 0x8, addend: 0x0, symName: __RINvMsk_NtCsht3nMU9UgFu_3std7processNtB6_7Command3argNtNtNtB8_3ffi6os_str8OsStringECsgxw10D4Wwa7_18build_script_build, symObjAddr: 0xFC, symBinAddr: 0x100006490, symSize: 0x84 }
  - { offset: 0x11337, size: 0x8, addend: 0x0, symName: __RINvMsk_NtCsht3nMU9UgFu_3std7processNtB6_7Command3argRNtNtB8_4path7PathBufECsgxw10D4Wwa7_18build_script_build, symObjAddr: 0x180, symBinAddr: 0x100006514, symSize: 0x6C }
  - { offset: 0x11399, size: 0x8, addend: 0x0, symName: __RINvMsk_NtCsht3nMU9UgFu_3std7processNtB6_7Command3argRNtNtNtB8_3ffi6os_str5OsStrECsgxw10D4Wwa7_18build_script_build, symObjAddr: 0x1EC, symBinAddr: 0x100006580, symSize: 0x70 }
  - { offset: 0x113D4, size: 0x8, addend: 0x0, symName: __RINvMsk_NtCsht3nMU9UgFu_3std7processNtB6_7Command3argReECsgxw10D4Wwa7_18build_script_build, symObjAddr: 0x25C, symBinAddr: 0x1000065F0, symSize: 0x70 }
  - { offset: 0x1140F, size: 0x8, addend: 0x0, symName: __RINvMsk_NtCsht3nMU9UgFu_3std7processNtB6_7Command3newNtNtNtB8_3ffi6os_str8OsStringECsgxw10D4Wwa7_18build_script_build, symObjAddr: 0x2CC, symBinAddr: 0x100006660, symSize: 0x90 }
  - { offset: 0x1143C, size: 0x8, addend: 0x0, symName: __RINvMsk_NtCsht3nMU9UgFu_3std7processNtB6_7Command4argsINtNtNtNtCsaNl6UpbT7bw_4core4iter8adapters5chain5ChainIBR_INtNtBZ_6option8IntoIterNtNtNtB8_3ffi6os_str8OsStringEB1M_EINtNtNtBX_7sources4once4OnceB2a_EEB2a_ECsgxw10D4Wwa7_18build_script_build, symObjAddr: 0x35C, symBinAddr: 0x1000066F0, symSize: 0x114 }
  - { offset: 0x114AE, size: 0x8, addend: 0x0, symName: __RINvMsk_NtCsht3nMU9UgFu_3std7processNtB6_7Command6stderrNtB6_5StdioECsgxw10D4Wwa7_18build_script_build, symObjAddr: 0x470, symBinAddr: 0x100006804, symSize: 0x5C }
  - { offset: 0x11584, size: 0x8, addend: 0x0, symName: __RINvMsx_NtNtCsaNl6UpbT7bw_4core3str7patternNtB6_14TwoWaySearcher4nextNtB6_14RejectAndMatchECsgxw10D4Wwa7_18build_script_build, symObjAddr: 0x4CC, symBinAddr: 0x100006860, symSize: 0x540 }
  - { offset: 0x11920, size: 0x8, addend: 0x0, symName: __RINvMsx_NtNtCsaNl6UpbT7bw_4core3str7patternNtB6_14TwoWaySearcher4nextNtB6_9MatchOnlyECsgxw10D4Wwa7_18build_script_build, symObjAddr: 0xA0C, symBinAddr: 0x100006DA0, symSize: 0x540 }
  - { offset: 0x120BB, size: 0x8, addend: 0x0, symName: __RNvMs1_NtNtCsaNl6UpbT7bw_4core3ptr8non_nullINtB5_7NonNullhE20offset_from_unsignedCsgxw10D4Wwa7_18build_script_build, symObjAddr: 0x17B8, symBinAddr: 0x100007B4C, symSize: 0x7C }
  - { offset: 0x12256, size: 0x8, addend: 0x0, symName: __RNvMsI_NtCsht3nMU9UgFu_3std7processNtB5_10ExitStatus7successCsgxw10D4Wwa7_18build_script_build, symObjAddr: 0x1834, symBinAddr: 0x100007BC8, symSize: 0x70 }
  - { offset: 0x1232D, size: 0x8, addend: 0x0, symName: __RNvMsv_NtCsht3nMU9UgFu_3std7processNtB5_5Stdio4nullCsgxw10D4Wwa7_18build_script_build, symObjAddr: 0x18A4, symBinAddr: 0x100007C38, symSize: 0x18 }
  - { offset: 0x126C9, size: 0x8, addend: 0x0, symName: __RINvMNtCsaNl6UpbT7bw_4core3stre5parsemECsgxw10D4Wwa7_18build_script_build, symObjAddr: 0x0, symBinAddr: 0x10000997C, symSize: 0x38 }
  - { offset: 0x12EFE, size: 0x8, addend: 0x0, symName: __RINvXsd_NtCsiTraAjBDcu4_5alloc3vecINtB6_3VechEINtNtNtNtCsaNl6UpbT7bw_4core4iter6traits7collect12FromIteratorhE9from_iterINtNtNtBP_8adapters3map3MapINtNtNtBR_5slice4iter4IterhENCNvNtB8_3str13replace_ascii0EECsgxw10D4Wwa7_18build_script_build, symObjAddr: 0xEF4, symBinAddr: 0x10000A870, symSize: 0x3C }
  - { offset: 0x12F4A, size: 0x8, addend: 0x0, symName: __RNCINvMsi_NtCsiTraAjBDcu4_5alloc3vecINtB8_3VechE14extend_trustedINtNtNtNtCsaNl6UpbT7bw_4core4iter8adapters3map3MapINtNtNtB19_5slice4iter4IterhENCNvNtBa_3str13replace_ascii0EE0Csgxw10D4Wwa7_18build_script_build, symObjAddr: 0xF30, symBinAddr: 0x10000A8AC, symSize: 0x30 }
  - { offset: 0x12FFE, size: 0x8, addend: 0x0, symName: __RNvXNtNtCsiTraAjBDcu4_5alloc3vec14spec_from_iterINtB4_3VechEINtB2_12SpecFromIterhINtNtNtNtCsaNl6UpbT7bw_4core4iter8adapters3map3MapINtNtNtB1q_5slice4iter4IterhENCNvNtB6_3str13replace_ascii0EE9from_iterCsgxw10D4Wwa7_18build_script_build, symObjAddr: 0x156C, symBinAddr: 0x10000AEE8, symSize: 0x14 }
  - { offset: 0x13044, size: 0x8, addend: 0x0, symName: __RNvXs6_NtCsiTraAjBDcu4_5alloc3vecINtB5_3VechENtNtNtCsaNl6UpbT7bw_4core3ops5deref5Deref5derefCsgxw10D4Wwa7_18build_script_build, symObjAddr: 0x1604, symBinAddr: 0x10000AF80, symSize: 0x24 }
  - { offset: 0x1308F, size: 0x8, addend: 0x0, symName: __RNvXs_NtNtCsiTraAjBDcu4_5alloc3vec11spec_extendINtB6_3VechEINtB4_10SpecExtendhINtNtNtNtCsaNl6UpbT7bw_4core4iter8adapters3map3MapINtNtNtB1n_5slice4iter4IterhENCNvNtB8_3str13replace_ascii0EE11spec_extendCsgxw10D4Wwa7_18build_script_build, symObjAddr: 0x1A00, symBinAddr: 0x10000B37C, symSize: 0x24 }
  - { offset: 0x130ED, size: 0x8, addend: 0x0, symName: __RNvXs_NtNtCsiTraAjBDcu4_5alloc3vec21spec_from_iter_nestedINtB6_3VechEINtB4_18SpecFromIterNestedhINtNtNtNtCsaNl6UpbT7bw_4core4iter8adapters3map3MapINtNtNtB1F_5slice4iter4IterhENCNvNtB8_3str13replace_ascii0EE9from_iterCsgxw10D4Wwa7_18build_script_build, symObjAddr: 0x1A24, symBinAddr: 0x10000B3A0, symSize: 0x164 }
  - { offset: 0x13226, size: 0x8, addend: 0x0, symName: __RNvXsn_NtCsiTraAjBDcu4_5alloc3vecINtB5_3VecINtNtB7_5boxed3BoxDINtNtNtCsaNl6UpbT7bw_4core3ops8function5FnMutuEp6OutputINtNtB15_6result6ResultuNtNtNtCsht3nMU9UgFu_3std2io5error5ErrorENtNtB15_6marker4SyncNtB2V_4SendEL_EENtNtB13_4drop4Drop4dropCsgxw10D4Wwa7_18build_script_build, symObjAddr: 0x1B88, symBinAddr: 0x10000B504, symSize: 0x38 }
  - { offset: 0x132D6, size: 0x8, addend: 0x0, symName: __RNvXsn_NtCsiTraAjBDcu4_5alloc3vecINtB5_3VecPaENtNtNtCsaNl6UpbT7bw_4core3ops4drop4Drop4dropCsgxw10D4Wwa7_18build_script_build, symObjAddr: 0x1BC0, symBinAddr: 0x10000B53C, symSize: 0x24 }
  - { offset: 0x13676, size: 0x8, addend: 0x0, symName: __RINvMs3_NtCsiTraAjBDcu4_5alloc3stre7replaceReECsgxw10D4Wwa7_18build_script_build, symObjAddr: 0x154, symBinAddr: 0x100009AD0, symSize: 0x728 }
  - { offset: 0x141E2, size: 0x8, addend: 0x0, symName: __RNCNvNtCsiTraAjBDcu4_5alloc3str13replace_ascii0Csgxw10D4Wwa7_18build_script_build, symObjAddr: 0xF60, symBinAddr: 0x10000A8DC, symSize: 0x60 }
  - { offset: 0x14CE1, size: 0x8, addend: 0x0, symName: __RNvXNvMsT_NtNtNtCsiTraAjBDcu4_5alloc11collections5btree4nodeINtB8_6HandleINtB8_7NodeRefNtNtB8_6marker5DyingpppENtB1p_2KVE12drop_key_valINtB2_7DropperINtNtCsaNl6UpbT7bw_4core6option6OptionNtNtNtCsht3nMU9UgFu_3std3ffi6os_str8OsStringEENtNtNtB2s_3ops4drop4Drop4dropCsgxw10D4Wwa7_18build_script_build, symObjAddr: 0x15D8, symBinAddr: 0x10000AF54, symSize: 0x2C }
  - { offset: 0x14E0B, size: 0x8, addend: 0x0, symName: __RNvXs6_NtCsiTraAjBDcu4_5alloc5boxedINtB5_3BoxDINtNtNtCsaNl6UpbT7bw_4core3ops8function5FnMutuEp6OutputINtNtBP_6result6ResultuNtNtNtCsht3nMU9UgFu_3std2io5error5ErrorENtNtBP_6marker4SyncNtB2E_4SendEL_ENtNtBN_4drop4Drop4dropCsgxw10D4Wwa7_18build_script_build, symObjAddr: 0x1628, symBinAddr: 0x10000AFA4, symSize: 0xCC }
  - { offset: 0x14F42, size: 0x8, addend: 0x0, symName: __RNvXs6_NtCsiTraAjBDcu4_5alloc5boxedINtB5_3BoxDNtNtCsaNl6UpbT7bw_4core5error5ErrorNtNtBM_6marker4SyncNtB1j_4SendEL_ENtNtNtBM_3ops4drop4Drop4dropCsgxw10D4Wwa7_18build_script_build, symObjAddr: 0x16F4, symBinAddr: 0x10000B070, symSize: 0xCC }
  - { offset: 0x15079, size: 0x8, addend: 0x0, symName: __RNvXs6_NtCsiTraAjBDcu4_5alloc5boxedINtB5_3BoxNtNtNtCsht3nMU9UgFu_3std2io5error6CustomENtNtNtCsaNl6UpbT7bw_4core3ops4drop4Drop4dropCsgxw10D4Wwa7_18build_script_build, symObjAddr: 0x17C0, symBinAddr: 0x10000B13C, symSize: 0xB8 }
  - { offset: 0x151B0, size: 0x8, addend: 0x0, symName: __RNvXs6_NtCsiTraAjBDcu4_5alloc5boxedINtB5_3BoxShENtNtNtCsaNl6UpbT7bw_4core3ops4drop4Drop4dropCsgxw10D4Wwa7_18build_script_build, symObjAddr: 0x1878, symBinAddr: 0x10000B1F4, symSize: 0xC4 }
  - { offset: 0x152E7, size: 0x8, addend: 0x0, symName: __RNvXs6_NtCsiTraAjBDcu4_5alloc5boxedINtB5_3BoxSmENtNtNtCsaNl6UpbT7bw_4core3ops4drop4Drop4dropCsgxw10D4Wwa7_18build_script_build, symObjAddr: 0x193C, symBinAddr: 0x10000B2B8, symSize: 0xC4 }
  - { offset: 0x161CC, size: 0x8, addend: 0x0, symName: __RINvMNtCsaNl6UpbT7bw_4core3stre5parsemECsgxw10D4Wwa7_18build_script_build, symObjAddr: 0x0, symBinAddr: 0x10000997C, symSize: 0x38 }
  - { offset: 0x16203, size: 0x8, addend: 0x0, symName: __RINvMNtCsaNl6UpbT7bw_4core3stre5splitcECsgxw10D4Wwa7_18build_script_build, symObjAddr: 0x38, symBinAddr: 0x1000099B4, symSize: 0x98 }
  - { offset: 0x1798B, size: 0x8, addend: 0x0, symName: __RNvXNtNtNtCsaNl6UpbT7bw_4core4iter6traits7collectINtNtNtB6_7sources4once4OnceNtNtNtCsht3nMU9UgFu_3std3ffi6os_str8OsStringENtB2_12IntoIterator9into_iterCsgxw10D4Wwa7_18build_script_build, symObjAddr: 0x1580, symBinAddr: 0x10000AEFC, symSize: 0x18 }
  - { offset: 0x179CF, size: 0x8, addend: 0x0, symName: __RINvNtNtNtCsaNl6UpbT7bw_4core4iter7sources4once4onceNtNtNtCsht3nMU9UgFu_3std3ffi6os_str8OsStringECsgxw10D4Wwa7_18build_script_build, symObjAddr: 0xEA4, symBinAddr: 0x10000A820, symSize: 0x50 }
  - { offset: 0x17A1D, size: 0x8, addend: 0x0, symName: __RNvXNtNtNtCsaNl6UpbT7bw_4core4iter7sources4onceINtB2_4OnceNtNtNtCsht3nMU9UgFu_3std3ffi6os_str8OsStringENtNtNtB6_6traits8iterator8Iterator4nextCsgxw10D4Wwa7_18build_script_build, symObjAddr: 0x1598, symBinAddr: 0x10000AF14, symSize: 0x40 }
  - { offset: 0x181E0, size: 0x8, addend: 0x0, symName: __RINvMNtNtCsaNl6UpbT7bw_4core3fmt2rtNtB3_8Argument11new_displayNtNtCsht3nMU9UgFu_3std4path7DisplayECsgxw10D4Wwa7_18build_script_build, symObjAddr: 0xD0, symBinAddr: 0x100009A4C, symSize: 0x2C }
  - { offset: 0x18218, size: 0x8, addend: 0x0, symName: __RINvMNtNtCsaNl6UpbT7bw_4core3fmt2rtNtB3_8Argument11new_displayNtNtNtCsht3nMU9UgFu_3std2io5error5ErrorECsgxw10D4Wwa7_18build_script_build, symObjAddr: 0xFC, symBinAddr: 0x100009A78, symSize: 0x2C }
  - { offset: 0x18250, size: 0x8, addend: 0x0, symName: __RINvMNtNtCsaNl6UpbT7bw_4core3fmt2rtNtB3_8Argument11new_displayReECsgxw10D4Wwa7_18build_script_build, symObjAddr: 0x128, symBinAddr: 0x100009AA4, symSize: 0x2C }
  - { offset: 0x18792, size: 0x8, addend: 0x0, symName: __RINvMsh_NtNtNtCsiTraAjBDcu4_5alloc11collections5btree4nodeINtB6_7NodeRefNtNtB6_6marker5DyingNtNtNtCsht3nMU9UgFu_3std3ffi6os_str8OsStringINtNtCsaNl6UpbT7bw_4core6option6OptionB1s_ENtB1a_14LeafOrInternalE21deallocate_and_ascendNtNtBc_5alloc6GlobalECsgxw10D4Wwa7_18build_script_build, symObjAddr: 0x87C, symBinAddr: 0x10000A1F8, symSize: 0x188 }
  - { offset: 0x18AF3, size: 0x8, addend: 0x0, symName: __RINvMsi_NtCsiTraAjBDcu4_5alloc3vecINtB6_3VechE14extend_trustedINtNtNtNtCsaNl6UpbT7bw_4core4iter8adapters3map3MapINtNtNtB17_5slice4iter4IterhENCNvNtB8_3str13replace_ascii0EECsgxw10D4Wwa7_18build_script_build, symObjAddr: 0xA04, symBinAddr: 0x10000A380, symSize: 0x178 }
  - { offset: 0x18D5E, size: 0x8, addend: 0x0, symName: __RINvMsj_NtNtNtCsiTraAjBDcu4_5alloc11collections5btree8navigateINtNtB8_4node6HandleINtB11_7NodeRefNtNtB11_6marker5DyingNtNtNtCsht3nMU9UgFu_3std3ffi6os_str8OsStringINtNtCsaNl6UpbT7bw_4core6option6OptionB1S_ENtB1z_4LeafENtB1z_4EdgeE16deallocating_endNtNtBc_5alloc6GlobalECsgxw10D4Wwa7_18build_script_build, symObjAddr: 0xB7C, symBinAddr: 0x10000A4F8, symSize: 0xD4 }
  - { offset: 0x18FDF, size: 0x8, addend: 0x0, symName: __RINvMsj_NtNtNtCsiTraAjBDcu4_5alloc11collections5btree8navigateINtNtB8_4node6HandleINtB11_7NodeRefNtNtB11_6marker5DyingNtNtNtCsht3nMU9UgFu_3std3ffi6os_str8OsStringINtNtCsaNl6UpbT7bw_4core6option6OptionB1S_ENtB1z_4LeafENtB1z_4EdgeE17deallocating_nextNtNtBc_5alloc6GlobalECsgxw10D4Wwa7_18build_script_build, symObjAddr: 0xC50, symBinAddr: 0x10000A5CC, symSize: 0x254 }
  - { offset: 0x192AD, size: 0x8, addend: 0x0, symName: __RNvMsO_NtNtNtCsiTraAjBDcu4_5alloc11collections5btree4nodeINtB5_6HandleINtB5_7NodeRefNtNtB5_6marker5DyingNtNtNtCsht3nMU9UgFu_3std3ffi6os_str8OsStringINtNtCsaNl6UpbT7bw_4core6option6OptionB1E_ENtB1m_8InternalENtB1m_4EdgeE7descendCsgxw10D4Wwa7_18build_script_build, symObjAddr: 0xFC0, symBinAddr: 0x10000A93C, symSize: 0x9C }
  - { offset: 0x1958C, size: 0x8, addend: 0x0, symName: __RNvMsT_NtNtNtCsiTraAjBDcu4_5alloc11collections5btree4nodeINtB5_6HandleINtB5_7NodeRefNtNtB5_6marker5DyingNtNtNtCsht3nMU9UgFu_3std3ffi6os_str8OsStringINtNtCsaNl6UpbT7bw_4core6option6OptionB1E_ENtB1m_14LeafOrInternalENtB1m_2KVE12drop_key_valCsgxw10D4Wwa7_18build_script_build, symObjAddr: 0x105C, symBinAddr: 0x10000A9D8, symSize: 0x138 }
  - { offset: 0x197DC, size: 0x8, addend: 0x0, symName: __RNvMs_NtCsiTraAjBDcu4_5alloc3vecINtB4_3VechE8as_sliceCsgxw10D4Wwa7_18build_script_build, symObjAddr: 0x1194, symBinAddr: 0x10000AB10, symSize: 0x68 }
  - { offset: 0x199B6, size: 0x8, addend: 0x0, symName: __RNvMse_NtNtNtCsiTraAjBDcu4_5alloc11collections5btree4nodeINtB5_7NodeRefNtNtB5_6marker5DyingNtNtNtCsht3nMU9UgFu_3std3ffi6os_str8OsStringINtNtCsaNl6UpbT7bw_4core6option6OptionB1r_ENtB19_14LeafOrInternalE6ascendCsgxw10D4Wwa7_18build_script_build, symObjAddr: 0x11FC, symBinAddr: 0x10000AB78, symSize: 0x160 }
  - { offset: 0x19D22, size: 0x8, addend: 0x0, symName: __RNvMsp_NtNtNtCsiTraAjBDcu4_5alloc11collections5btree8navigateINtNtB7_4node6HandleINtB10_7NodeRefNtNtB10_6marker5DyingNtNtNtCsht3nMU9UgFu_3std3ffi6os_str8OsStringINtNtCsaNl6UpbT7bw_4core6option6OptionB1R_ENtB1y_14LeafOrInternalENtB1y_2KVE14next_leaf_edgeCsgxw10D4Wwa7_18build_script_build, symObjAddr: 0x135C, symBinAddr: 0x10000ACD8, symSize: 0x210 }
  - { offset: 0x1A602, size: 0x8, addend: 0x0, symName: __RNvCsgxw10D4Wwa7_18build_script_build4main, symObjAddr: 0x1BE4, symBinAddr: 0x10000B560, symSize: 0x6B8 }
  - { offset: 0x1A752, size: 0x8, addend: 0x0, symName: __RNvCsgxw10D4Wwa7_18build_script_build13compile_probe, symObjAddr: 0x229C, symBinAddr: 0x10000BC18, symSize: 0xE14 }
  - { offset: 0x1A978, size: 0x8, addend: 0x0, symName: __RNCNvCsgxw10D4Wwa7_18build_script_build13compile_probe0B3_, symObjAddr: 0x30B0, symBinAddr: 0x10000CA2C, symSize: 0x3C }
  - { offset: 0x1A9AE, size: 0x8, addend: 0x0, symName: __RNCNvCsgxw10D4Wwa7_18build_script_build13compile_probes_0B3_, symObjAddr: 0x30EC, symBinAddr: 0x10000CA68, symSize: 0x3C }
  - { offset: 0x1A9F3, size: 0x8, addend: 0x0, symName: __RNvCsgxw10D4Wwa7_18build_script_build19rustc_minor_version, symObjAddr: 0x3128, symBinAddr: 0x10000CAA4, symSize: 0x3CC }
  - { offset: 0x1AAC8, size: 0x8, addend: 0x0, symName: __RNvCsgxw10D4Wwa7_18build_script_build13cargo_env_var, symObjAddr: 0x34F4, symBinAddr: 0x10000CE70, symSize: 0x68 }
  - { offset: 0x1AAF9, size: 0x8, addend: 0x0, symName: __RNCNvCsgxw10D4Wwa7_18build_script_build13cargo_env_var0B3_, symObjAddr: 0x355C, symBinAddr: 0x10000CED8, symSize: 0x5C }
  - { offset: 0x1ACD6, size: 0x8, addend: 0x0, symName: ___llvm_profile_get_magic, symObjAddr: 0x28, symBinAddr: 0x10000CF78, symSize: 0x14 }
  - { offset: 0x1ACF7, size: 0x8, addend: 0x0, symName: ___llvm_profile_get_num_padding_bytes, symObjAddr: 0x44, symBinAddr: 0x10000CF8C, symSize: 0xC }
  - { offset: 0x1ACFF, size: 0x8, addend: 0x0, symName: ___llvm_profile_get_version, symObjAddr: 0x50, symBinAddr: 0x10000CF98, symSize: 0xC }
  - { offset: 0x1AD28, size: 0x8, addend: 0x0, symName: ___llvm_profile_get_version, symObjAddr: 0x50, symBinAddr: 0x10000CF98, symSize: 0xC }
  - { offset: 0x1AD9D, size: 0x8, addend: 0x0, symName: ___llvm_profile_is_continuous_mode_enabled, symObjAddr: 0x0, symBinAddr: 0x10000CFA4, symSize: 0x20 }
  - { offset: 0x1ADBA, size: 0x8, addend: 0x0, symName: __MergedGlobals, symObjAddr: 0x3E20, symBinAddr: 0x10006D278, symSize: 0x0 }
  - { offset: 0x1ADDC, size: 0x8, addend: 0x0, symName: __MergedGlobals, symObjAddr: 0x3E20, symBinAddr: 0x10006D278, symSize: 0x0 }
  - { offset: 0x1AE0C, size: 0x8, addend: 0x0, symName: ___llvm_profile_is_continuous_mode_enabled, symObjAddr: 0x0, symBinAddr: 0x10000CFA4, symSize: 0x20 }
  - { offset: 0x1AE14, size: 0x8, addend: 0x0, symName: ___llvm_profile_enable_continuous_mode, symObjAddr: 0x20, symBinAddr: 0x10000CFC4, symSize: 0x10 }
  - { offset: 0x1AE24, size: 0x8, addend: 0x0, symName: ___llvm_profile_enable_continuous_mode, symObjAddr: 0x20, symBinAddr: 0x10000CFC4, symSize: 0x10 }
  - { offset: 0x1AE2C, size: 0x8, addend: 0x0, symName: ___llvm_profile_disable_continuous_mode, symObjAddr: 0x30, symBinAddr: 0x10000CFD4, symSize: 0xC }
  - { offset: 0x1AE41, size: 0x8, addend: 0x0, symName: ___llvm_profile_disable_continuous_mode, symObjAddr: 0x30, symBinAddr: 0x10000CFD4, symSize: 0xC }
  - { offset: 0x1AE49, size: 0x8, addend: 0x0, symName: ___llvm_profile_set_page_size, symObjAddr: 0x3C, symBinAddr: 0x10000CFE0, symSize: 0xC }
  - { offset: 0x1AE5E, size: 0x8, addend: 0x0, symName: ___llvm_profile_set_page_size, symObjAddr: 0x3C, symBinAddr: 0x10000CFE0, symSize: 0xC }
  - { offset: 0x1AE66, size: 0x8, addend: 0x0, symName: ___llvm_profile_get_size_for_buffer, symObjAddr: 0x48, symBinAddr: 0x10000CFEC, symSize: 0xC4 }
  - { offset: 0x1AE89, size: 0x8, addend: 0x0, symName: ___llvm_profile_get_size_for_buffer, symObjAddr: 0x48, symBinAddr: 0x10000CFEC, symSize: 0xC4 }
  - { offset: 0x1AE91, size: 0x8, addend: 0x0, symName: ___llvm_profile_get_size_for_buffer_internal, symObjAddr: 0x10C, symBinAddr: 0x10000D0B0, symSize: 0x1C0 }
  - { offset: 0x1B2F4, size: 0x8, addend: 0x0, symName: ___llvm_profile_get_size_for_buffer_internal, symObjAddr: 0x10C, symBinAddr: 0x10000D0B0, symSize: 0x1C0 }
  - { offset: 0x1B2FC, size: 0x8, addend: 0x0, symName: ___llvm_profile_get_num_data, symObjAddr: 0x2CC, symBinAddr: 0x10000D270, symSize: 0x10 }
  - { offset: 0x1B6EB, size: 0x8, addend: 0x0, symName: ___llvm_profile_get_num_data, symObjAddr: 0x2CC, symBinAddr: 0x10000D270, symSize: 0x10 }
  - { offset: 0x1B6F3, size: 0x8, addend: 0x0, symName: ___llvm_profile_get_data_size, symObjAddr: 0x2DC, symBinAddr: 0x10000D280, symSize: 0x10 }
  - { offset: 0x1B724, size: 0x8, addend: 0x0, symName: ___llvm_profile_get_data_size, symObjAddr: 0x2DC, symBinAddr: 0x10000D280, symSize: 0x10 }
  - { offset: 0x1B72C, size: 0x8, addend: 0x0, symName: ___llvm_profile_get_num_vtable, symObjAddr: 0x2EC, symBinAddr: 0x10000D290, symSize: 0x18 }
  - { offset: 0x1B750, size: 0x8, addend: 0x0, symName: ___llvm_profile_get_data_size, symObjAddr: 0x2DC, symBinAddr: 0x10000D280, symSize: 0x10 }
  - { offset: 0x1B782, size: 0x8, addend: 0x0, symName: ___llvm_profile_get_num_vtable, symObjAddr: 0x2EC, symBinAddr: 0x10000D290, symSize: 0x18 }
  - { offset: 0x1B78A, size: 0x8, addend: 0x0, symName: ___llvm_profile_get_vtable_section_size, symObjAddr: 0x304, symBinAddr: 0x10000D2A8, symSize: 0x8 }
  - { offset: 0x1B7DC, size: 0x8, addend: 0x0, symName: ___llvm_profile_get_vtable_section_size, symObjAddr: 0x304, symBinAddr: 0x10000D2A8, symSize: 0x8 }
  - { offset: 0x1B7E4, size: 0x8, addend: 0x0, symName: ___llvm_profile_counter_entry_size, symObjAddr: 0x30C, symBinAddr: 0x10000D2B0, symSize: 0x1C }
  - { offset: 0x1B805, size: 0x8, addend: 0x0, symName: ___llvm_profile_counter_entry_size, symObjAddr: 0x30C, symBinAddr: 0x10000D2B0, symSize: 0x1C }
  - { offset: 0x1B80D, size: 0x8, addend: 0x0, symName: ___llvm_profile_get_num_counters, symObjAddr: 0x328, symBinAddr: 0x10000D2CC, symSize: 0x48 }
  - { offset: 0x1B81D, size: 0x8, addend: 0x0, symName: ___llvm_profile_get_num_counters, symObjAddr: 0x328, symBinAddr: 0x10000D2CC, symSize: 0x48 }
  - { offset: 0x1B825, size: 0x8, addend: 0x0, symName: ___llvm_profile_get_counters_size, symObjAddr: 0x370, symBinAddr: 0x10000D314, symSize: 0x5C }
  - { offset: 0x1B88A, size: 0x8, addend: 0x0, symName: ___llvm_profile_get_counters_size, symObjAddr: 0x370, symBinAddr: 0x10000D314, symSize: 0x5C }
  - { offset: 0x1B892, size: 0x8, addend: 0x0, symName: ___llvm_profile_get_num_bitmap_bytes, symObjAddr: 0x3CC, symBinAddr: 0x10000D370, symSize: 0x8 }
  - { offset: 0x1B936, size: 0x8, addend: 0x0, symName: ___llvm_profile_get_num_bitmap_bytes, symObjAddr: 0x3CC, symBinAddr: 0x10000D370, symSize: 0x8 }
  - { offset: 0x1B93E, size: 0x8, addend: 0x0, symName: ___llvm_profile_get_name_size, symObjAddr: 0x3D4, symBinAddr: 0x10000D378, symSize: 0x8 }
  - { offset: 0x1B95F, size: 0x8, addend: 0x0, symName: ___llvm_profile_get_name_size, symObjAddr: 0x3D4, symBinAddr: 0x10000D378, symSize: 0x8 }
  - { offset: 0x1B967, size: 0x8, addend: 0x0, symName: ___llvm_profile_get_padding_sizes_for_counters, symObjAddr: 0x3DC, symBinAddr: 0x10000D380, symSize: 0x15C }
  - { offset: 0x1B988, size: 0x8, addend: 0x0, symName: ___llvm_profile_get_padding_sizes_for_counters, symObjAddr: 0x3DC, symBinAddr: 0x10000D380, symSize: 0x15C }
  - { offset: 0x1B990, size: 0x8, addend: 0x0, symName: _initBufferWriter, symObjAddr: 0x538, symBinAddr: 0x10000D4DC, symSize: 0x10 }
  - { offset: 0x1BAE4, size: 0x8, addend: 0x0, symName: _initBufferWriter, symObjAddr: 0x538, symBinAddr: 0x10000D4DC, symSize: 0x10 }
  - { offset: 0x1BC4E, size: 0x8, addend: 0x0, symName: __MergedGlobals, symObjAddr: 0xA4D8, symBinAddr: 0x10006D288, symSize: 0x0 }
  - { offset: 0x1BD6A, size: 0x8, addend: 0x0, symName: __MergedGlobals, symObjAddr: 0xA4D8, symBinAddr: 0x10006D288, symSize: 0x0 }
  - { offset: 0x1BF9A, size: 0x8, addend: 0x0, symName: __MergedGlobals, symObjAddr: 0xA4D8, symBinAddr: 0x10006D288, symSize: 0x0 }
  - { offset: 0x1C0C0, size: 0x8, addend: 0x0, symName: _getCurFilenameLength, symObjAddr: 0x1C8, symBinAddr: 0x10000D4EC, symSize: 0x108 }
  - { offset: 0x1C0C8, size: 0x8, addend: 0x0, symName: _getCurFilename, symObjAddr: 0x2D0, symBinAddr: 0x10000D5F4, symSize: 0x2B8 }
  - { offset: 0x1C14B, size: 0x8, addend: 0x0, symName: _getCurFilename, symObjAddr: 0x2D0, symBinAddr: 0x10000D5F4, symSize: 0x2B8 }
  - { offset: 0x1C37C, size: 0x8, addend: 0x0, symName: _parseAndSetFilename, symObjAddr: 0x688, symBinAddr: 0x10000D8AC, symSize: 0x4B8 }
  - { offset: 0x1C384, size: 0x8, addend: 0x0, symName: ___llvm_profile_initialize, symObjAddr: 0xB40, symBinAddr: 0x10000DD64, symSize: 0xB8 }
  - { offset: 0x1C56C, size: 0x8, addend: 0x0, symName: ___llvm_profile_initialize, symObjAddr: 0xB40, symBinAddr: 0x10000DD64, symSize: 0xB8 }
  - { offset: 0x1C5E8, size: 0x8, addend: 0x0, symName: ___llvm_profile_write_file, symObjAddr: 0xC74, symBinAddr: 0x10000DE1C, symSize: 0x1B4 }
  - { offset: 0x1C5F0, size: 0x8, addend: 0x0, symName: _writeFile, symObjAddr: 0xE28, symBinAddr: 0x10000DFD0, symSize: 0x294 }
  - { offset: 0x1C74A, size: 0x8, addend: 0x0, symName: _writeFile, symObjAddr: 0xE28, symBinAddr: 0x10000DFD0, symSize: 0x294 }
  - { offset: 0x1C8BE, size: 0x8, addend: 0x0, symName: _writeFileWithoutReturn, symObjAddr: 0x138C, symBinAddr: 0x10000E264, symSize: 0x4 }
  - { offset: 0x1C8F4, size: 0x8, addend: 0x0, symName: _getProfileFileSizeForMerging, symObjAddr: 0x1574, symBinAddr: 0x10000E268, symSize: 0x110 }
  - { offset: 0x1C8FC, size: 0x8, addend: 0x0, symName: _mmapProfileForMerging, symObjAddr: 0x1684, symBinAddr: 0x10000E378, symSize: 0xBC }
  - { offset: 0x1C939, size: 0x8, addend: 0x0, symName: _mmapProfileForMerging, symObjAddr: 0x1684, symBinAddr: 0x10000E378, symSize: 0xBC }
  - { offset: 0x1C941, size: 0x8, addend: 0x0, symName: _mmapForContinuousMode, symObjAddr: 0x1740, symBinAddr: 0x10000E434, symSize: 0x264 }
  - { offset: 0x1C98F, size: 0x8, addend: 0x0, symName: _mmapForContinuousMode, symObjAddr: 0x1740, symBinAddr: 0x10000E434, symSize: 0x264 }
  - { offset: 0x1C997, size: 0x8, addend: 0x0, symName: _fileWriter, symObjAddr: 0x19A4, symBinAddr: 0x10000E698, symSize: 0x140 }
  - { offset: 0x1CB56, size: 0x8, addend: 0x0, symName: _fileWriter, symObjAddr: 0x19A4, symBinAddr: 0x10000E698, symSize: 0x140 }
  - { offset: 0x1CB5E, size: 0x8, addend: 0x0, symName: _truncateCurrentFile, symObjAddr: 0x1AE4, symBinAddr: 0x10000E7D8, symSize: 0xD8 }
  - { offset: 0x1CC26, size: 0x8, addend: 0x0, symName: _truncateCurrentFile, symObjAddr: 0x1AE4, symBinAddr: 0x10000E7D8, symSize: 0xD8 }
  - { offset: 0x1CC2E, size: 0x8, addend: 0x0, symName: _initializeProfileForContinuousMode, symObjAddr: 0x1BBC, symBinAddr: 0x10000E8B0, symSize: 0x25C }
  - { offset: 0x1CCCC, size: 0x8, addend: 0x0, symName: _initializeProfileForContinuousMode, symObjAddr: 0x1BBC, symBinAddr: 0x10000E8B0, symSize: 0x25C }
  - { offset: 0x1CCD4, size: 0x8, addend: 0x0, symName: _createProfileDir, symObjAddr: 0x1E18, symBinAddr: 0x10000EB0C, symSize: 0xA4 }
  - { offset: 0x1CEA1, size: 0x8, addend: 0x0, symName: _createProfileDir, symObjAddr: 0x1E18, symBinAddr: 0x10000EB0C, symSize: 0xA4 }
  - { offset: 0x1CEA9, size: 0x8, addend: 0x0, symName: _parseAndSetFilename.cold.1, symObjAddr: 0x1EBC, symBinAddr: 0x10004A590, symSize: 0x24 }
  - { offset: 0x1CF06, size: 0x8, addend: 0x0, symName: _parseAndSetFilename.cold.1, symObjAddr: 0x1EBC, symBinAddr: 0x10004A590, symSize: 0x24 }
  - { offset: 0x1CF0E, size: 0x8, addend: 0x0, symName: _parseAndSetFilename.cold.2, symObjAddr: 0x1EE0, symBinAddr: 0x10004A5B4, symSize: 0x24 }
  - { offset: 0x1CF30, size: 0x8, addend: 0x0, symName: _parseAndSetFilename.cold.2, symObjAddr: 0x1EE0, symBinAddr: 0x10004A5B4, symSize: 0x24 }
  - { offset: 0x1CF4A, size: 0x8, addend: 0x0, symName: _parseAndSetFilename.cold.2, symObjAddr: 0x1EE0, symBinAddr: 0x10004A5B4, symSize: 0x24 }
  - { offset: 0x1CF5A, size: 0x8, addend: 0x0, symName: _parseAndSetFilename.cold.2, symObjAddr: 0x1EE0, symBinAddr: 0x10004A5B4, symSize: 0x24 }
  - { offset: 0x1D0BF, size: 0x8, addend: 0x0, symName: _lprofProfileDumped, symObjAddr: 0x0, symBinAddr: 0x10000EBB0, symSize: 0xC }
  - { offset: 0x1D0DC, size: 0x8, addend: 0x0, symName: _ProfileDumped, symObjAddr: 0x4E0, symBinAddr: 0x10006D358, symSize: 0x0 }
  - { offset: 0x1D0EC, size: 0x8, addend: 0x0, symName: _lprofProfileDumped, symObjAddr: 0x0, symBinAddr: 0x10000EBB0, symSize: 0xC }
  - { offset: 0x1D134, size: 0x8, addend: 0x0, symName: _lprofGetLoadModuleSignature, symObjAddr: 0x0, symBinAddr: 0x10000EBBC, symSize: 0xD0 }
  - { offset: 0x1D161, size: 0x8, addend: 0x0, symName: _VPMergeHook, symBinAddr: 0x10006D270, symSize: 0x0 }
  - { offset: 0x1D3C9, size: 0x8, addend: 0x0, symName: _lprofGetLoadModuleSignature, symObjAddr: 0x0, symBinAddr: 0x10000EBBC, symSize: 0xD0 }
  - { offset: 0x1D3D1, size: 0x8, addend: 0x0, symName: ___llvm_profile_check_compatibility, symObjAddr: 0xD0, symBinAddr: 0x10000EC8C, symSize: 0x1CC }
  - { offset: 0x1D441, size: 0x8, addend: 0x0, symName: ___llvm_profile_check_compatibility, symObjAddr: 0xD0, symBinAddr: 0x10000EC8C, symSize: 0x1CC }
  - { offset: 0x1D449, size: 0x8, addend: 0x0, symName: ___llvm_profile_merge_from_buffer, symObjAddr: 0x29C, symBinAddr: 0x10000EE58, symSize: 0x3E8 }
  - { offset: 0x1D521, size: 0x8, addend: 0x0, symName: ___llvm_profile_merge_from_buffer, symObjAddr: 0x29C, symBinAddr: 0x10000EE58, symSize: 0x3E8 }
  - { offset: 0x1D793, size: 0x8, addend: 0x0, symName: _lprofMergeValueProfData, symObjAddr: 0x0, symBinAddr: 0x10000F240, symSize: 0xF0 }
  - { offset: 0x1D7A4, size: 0x8, addend: 0x0, symName: _lprofMergeValueProfData, symObjAddr: 0x0, symBinAddr: 0x10000F240, symSize: 0xF0 }
  - { offset: 0x1DA6F, size: 0x8, addend: 0x0, symName: ___llvm_profile_begin_data, symObjAddr: 0x0, symBinAddr: 0x10000F330, symSize: 0xC }
  - { offset: 0x1DA8E, size: 0x8, addend: 0x0, symName: _CurrentVNode, symObjAddr: 0xC0, symBinAddr: 0x10006C728, symSize: 0x0 }
  - { offset: 0x1DB0A, size: 0x8, addend: 0x0, symName: _EndVNode, symObjAddr: 0xC8, symBinAddr: 0x10006C730, symSize: 0x0 }
  - { offset: 0x1DB13, size: 0x8, addend: 0x0, symName: ___llvm_profile_begin_data, symObjAddr: 0x0, symBinAddr: 0x10000F330, symSize: 0xC }
  - { offset: 0x1DB1B, size: 0x8, addend: 0x0, symName: ___llvm_profile_end_data, symObjAddr: 0xC, symBinAddr: 0x10000F33C, symSize: 0xC }
  - { offset: 0x1DB34, size: 0x8, addend: 0x0, symName: ___llvm_profile_end_data, symObjAddr: 0xC, symBinAddr: 0x10000F33C, symSize: 0xC }
  - { offset: 0x1DB3C, size: 0x8, addend: 0x0, symName: ___llvm_profile_begin_names, symObjAddr: 0x18, symBinAddr: 0x10000F348, symSize: 0xC }
  - { offset: 0x1DB55, size: 0x8, addend: 0x0, symName: ___llvm_profile_begin_names, symObjAddr: 0x18, symBinAddr: 0x10000F348, symSize: 0xC }
  - { offset: 0x1DB5D, size: 0x8, addend: 0x0, symName: ___llvm_profile_end_names, symObjAddr: 0x24, symBinAddr: 0x10000F354, symSize: 0xC }
  - { offset: 0x1DB76, size: 0x8, addend: 0x0, symName: ___llvm_profile_end_names, symObjAddr: 0x24, symBinAddr: 0x10000F354, symSize: 0xC }
  - { offset: 0x1DB7E, size: 0x8, addend: 0x0, symName: ___llvm_profile_begin_counters, symObjAddr: 0x30, symBinAddr: 0x10000F360, symSize: 0xC }
  - { offset: 0x1DB97, size: 0x8, addend: 0x0, symName: ___llvm_profile_begin_counters, symObjAddr: 0x30, symBinAddr: 0x10000F360, symSize: 0xC }
  - { offset: 0x1DB9F, size: 0x8, addend: 0x0, symName: ___llvm_profile_end_counters, symObjAddr: 0x3C, symBinAddr: 0x10000F36C, symSize: 0xC }
  - { offset: 0x1DBB8, size: 0x8, addend: 0x0, symName: ___llvm_profile_end_counters, symObjAddr: 0x3C, symBinAddr: 0x10000F36C, symSize: 0xC }
  - { offset: 0x1DBC0, size: 0x8, addend: 0x0, symName: ___llvm_profile_begin_bitmap, symObjAddr: 0x48, symBinAddr: 0x10000F378, symSize: 0xC }
  - { offset: 0x1DBD9, size: 0x8, addend: 0x0, symName: ___llvm_profile_begin_bitmap, symObjAddr: 0x48, symBinAddr: 0x10000F378, symSize: 0xC }
  - { offset: 0x1DBE1, size: 0x8, addend: 0x0, symName: ___llvm_profile_end_bitmap, symObjAddr: 0x54, symBinAddr: 0x10000F384, symSize: 0xC }
  - { offset: 0x1DBFA, size: 0x8, addend: 0x0, symName: ___llvm_profile_end_bitmap, symObjAddr: 0x54, symBinAddr: 0x10000F384, symSize: 0xC }
  - { offset: 0x1DC02, size: 0x8, addend: 0x0, symName: ___llvm_profile_begin_vtables, symObjAddr: 0x60, symBinAddr: 0x10000F390, symSize: 0xC }
  - { offset: 0x1DC1B, size: 0x8, addend: 0x0, symName: ___llvm_profile_begin_vtables, symObjAddr: 0x60, symBinAddr: 0x10000F390, symSize: 0xC }
  - { offset: 0x1DC23, size: 0x8, addend: 0x0, symName: ___llvm_profile_end_vtables, symObjAddr: 0x6C, symBinAddr: 0x10000F39C, symSize: 0xC }
  - { offset: 0x1DC3C, size: 0x8, addend: 0x0, symName: ___llvm_profile_end_vtables, symObjAddr: 0x6C, symBinAddr: 0x10000F39C, symSize: 0xC }
  - { offset: 0x1DC44, size: 0x8, addend: 0x0, symName: ___llvm_profile_begin_vtabnames, symObjAddr: 0x78, symBinAddr: 0x10000F3A8, symSize: 0xC }
  - { offset: 0x1DC5D, size: 0x8, addend: 0x0, symName: ___llvm_profile_begin_vtabnames, symObjAddr: 0x78, symBinAddr: 0x10000F3A8, symSize: 0xC }
  - { offset: 0x1DC65, size: 0x8, addend: 0x0, symName: ___llvm_profile_end_vtabnames, symObjAddr: 0x84, symBinAddr: 0x10000F3B4, symSize: 0xC }
  - { offset: 0x1DC7E, size: 0x8, addend: 0x0, symName: ___llvm_profile_end_vtabnames, symObjAddr: 0x84, symBinAddr: 0x10000F3B4, symSize: 0xC }
  - { offset: 0x1DC9F, size: 0x8, addend: 0x0, symName: ___llvm_profile_begin_vnodes, symObjAddr: 0x9C, symBinAddr: 0x10000F3C0, symSize: 0xC }
  - { offset: 0x1DCA7, size: 0x8, addend: 0x0, symName: ___llvm_profile_end_vnodes, symObjAddr: 0xA8, symBinAddr: 0x10000F3CC, symSize: 0xC }
  - { offset: 0x1DCC0, size: 0x8, addend: 0x0, symName: ___llvm_profile_end_vnodes, symObjAddr: 0xA8, symBinAddr: 0x10000F3CC, symSize: 0xC }
  - { offset: 0x1DCC8, size: 0x8, addend: 0x0, symName: ___llvm_write_binary_ids, symObjAddr: 0xB4, symBinAddr: 0x10000F3D8, symSize: 0x8 }
  - { offset: 0x1DCE1, size: 0x8, addend: 0x0, symName: ___llvm_write_binary_ids, symObjAddr: 0xB4, symBinAddr: 0x10000F3D8, symSize: 0x8 }
  - { offset: 0x1DF67, size: 0x8, addend: 0x0, symName: __GLOBAL__sub_I_InstrProfilingRuntime.cpp, symObjAddr: 0x0, symBinAddr: 0x10000F3E0, symSize: 0x18 }
  - { offset: 0x1DF8A, size: 0x8, addend: 0x0, symName: ___llvm_profile_runtime, symObjAddr: 0x590, symBinAddr: 0x10006D20C, symSize: 0x0 }
  - { offset: 0x1DFBA, size: 0x8, addend: 0x0, symName: __GLOBAL__sub_I_InstrProfilingRuntime.cpp, symObjAddr: 0x0, symBinAddr: 0x10000F3E0, symSize: 0x18 }
  - { offset: 0x1E036, size: 0x8, addend: 0x0, symName: ___llvm_profile_recursive_mkdir, symObjAddr: 0x0, symBinAddr: 0x10000F3F8, symSize: 0x58 }
  - { offset: 0x1E03E, size: 0x8, addend: 0x0, symName: _lprofDirMode, symObjAddr: 0x5AC, symBinAddr: 0x10006C738, symSize: 0x0 }
  - { offset: 0x1E055, size: 0x8, addend: 0x0, symName: _lprofDirMode, symObjAddr: 0x5AC, symBinAddr: 0x10006C738, symSize: 0x0 }
  - { offset: 0x1E08A, size: 0x8, addend: 0x0, symName: ___llvm_profile_recursive_mkdir, symObjAddr: 0x0, symBinAddr: 0x10000F3F8, symSize: 0x58 }
  - { offset: 0x1E109, size: 0x8, addend: 0x0, symName: _lprofGetHostName, symObjAddr: 0x70, symBinAddr: 0x10000F450, symSize: 0x80 }
  - { offset: 0x1E23E, size: 0x8, addend: 0x0, symName: _lprofLockFileHandle, symObjAddr: 0x208, symBinAddr: 0x10000F4D0, symSize: 0x90 }
  - { offset: 0x1E246, size: 0x8, addend: 0x0, symName: _lprofUnlockFileHandle, symObjAddr: 0x298, symBinAddr: 0x10000F560, symSize: 0x90 }
  - { offset: 0x1E2CC, size: 0x8, addend: 0x0, symName: _lprofUnlockFileHandle, symObjAddr: 0x298, symBinAddr: 0x10000F560, symSize: 0x90 }
  - { offset: 0x1E2D4, size: 0x8, addend: 0x0, symName: _lprofOpenFileEx, symObjAddr: 0x328, symBinAddr: 0x10000F5F0, symSize: 0xD0 }
  - { offset: 0x1E334, size: 0x8, addend: 0x0, symName: _lprofOpenFileEx, symObjAddr: 0x328, symBinAddr: 0x10000F5F0, symSize: 0xD0 }
  - { offset: 0x1E3AC, size: 0x8, addend: 0x0, symName: _lprofFindFirstDirSeparator, symObjAddr: 0x538, symBinAddr: 0x10000F6C0, symSize: 0x8 }
  - { offset: 0x1E3EC, size: 0x8, addend: 0x0, symName: _lprofSuspendSigKill, symObjAddr: 0x548, symBinAddr: 0x10000F6C8, symSize: 0x8 }
  - { offset: 0x1E3F4, size: 0x8, addend: 0x0, symName: _lprofRestoreSigKill, symObjAddr: 0x550, symBinAddr: 0x10000F6D0, symSize: 0x4 }
  - { offset: 0x1E40F, size: 0x8, addend: 0x0, symName: _lprofRestoreSigKill, symObjAddr: 0x550, symBinAddr: 0x10000F6D0, symSize: 0x4 }
  - { offset: 0x1E42E, size: 0x8, addend: 0x0, symName: _lprofAtExit, symObjAddr: 0x5A8, symBinAddr: 0x10000F6D4, symSize: 0x4 }
  - { offset: 0x1E436, size: 0x8, addend: 0x0, symName: _lprofDirMode, symObjAddr: 0x5AC, symBinAddr: 0x10006C738, symSize: 0x0 }
  - { offset: 0x1E700, size: 0x8, addend: 0x0, symName: _getValueProfRecordHeaderSize, symObjAddr: 0x0, symBinAddr: 0x10000F6D8, symSize: 0xC }
  - { offset: 0x1E71F, size: 0x8, addend: 0x0, symName: _VPMaxNumValsPerSite, symObjAddr: 0x1740, symBinAddr: 0x10006C740, symSize: 0x0 }
  - { offset: 0x1E7B4, size: 0x8, addend: 0x0, symName: __MergedGlobals, symObjAddr: 0xEF50, symBinAddr: 0x10006D388, symSize: 0x0 }
  - { offset: 0x1E7DB, size: 0x8, addend: 0x0, symName: __MergedGlobals, symObjAddr: 0xEF50, symBinAddr: 0x10006D388, symSize: 0x0 }
  - { offset: 0x1E7F2, size: 0x8, addend: 0x0, symName: __MergedGlobals, symObjAddr: 0xEF50, symBinAddr: 0x10006D388, symSize: 0x0 }
  - { offset: 0x1E811, size: 0x8, addend: 0x0, symName: _TheVPDataReader, symObjAddr: 0x1748, symBinAddr: 0x10006C748, symSize: 0x0 }
  - { offset: 0x1EAB1, size: 0x8, addend: 0x0, symName: _RTRecord, symObjAddr: 0xEF28, symBinAddr: 0x10006D360, symSize: 0x0 }
  - { offset: 0x1ECA5, size: 0x8, addend: 0x0, symName: _getValueProfRecordHeaderSize, symObjAddr: 0x0, symBinAddr: 0x10000F6D8, symSize: 0xC }
  - { offset: 0x1ECFB, size: 0x8, addend: 0x0, symName: _getValueProfRecordValueData, symObjAddr: 0x1C, symBinAddr: 0x10000F6E4, symSize: 0x14 }
  - { offset: 0x1EDA9, size: 0x8, addend: 0x0, symName: _getValueProfRecordNext, symObjAddr: 0x1B4, symBinAddr: 0x10000F6F8, symSize: 0x1A4 }
  - { offset: 0x1EDB1, size: 0x8, addend: 0x0, symName: _getFirstValueProfRecord, symObjAddr: 0x358, symBinAddr: 0x10000F89C, symSize: 0x8 }
  - { offset: 0x1EE18, size: 0x8, addend: 0x0, symName: _getFirstValueProfRecord, symObjAddr: 0x358, symBinAddr: 0x10000F89C, symSize: 0x8 }
  - { offset: 0x1EEFA, size: 0x8, addend: 0x0, symName: _lprofSetupValueProfiler, symObjAddr: 0xB38, symBinAddr: 0x10000F8A4, symSize: 0x64 }
  - { offset: 0x1F00C, size: 0x8, addend: 0x0, symName: ___llvm_profile_instrument_target_value, symObjAddr: 0xE30, symBinAddr: 0x10000F908, symSize: 0x290 }
  - { offset: 0x1F12A, size: 0x8, addend: 0x0, symName: _lprofGetVPDataReader, symObjAddr: 0x1108, symBinAddr: 0x10000FB98, symSize: 0xC }
  - { offset: 0x1F132, size: 0x8, addend: 0x0, symName: _initializeValueProfRuntimeRecord, symObjAddr: 0x1114, symBinAddr: 0x10000FBA4, symSize: 0x210 }
  - { offset: 0x1F14D, size: 0x8, addend: 0x0, symName: _initializeValueProfRuntimeRecord, symObjAddr: 0x1114, symBinAddr: 0x10000FBA4, symSize: 0x210 }
  - { offset: 0x1F155, size: 0x8, addend: 0x0, symName: _getNumValueDataForSiteWrapper, symObjAddr: 0x1324, symBinAddr: 0x10000FDB4, symSize: 0x14 }
  - { offset: 0x1F270, size: 0x8, addend: 0x0, symName: _getNumValueDataForSiteWrapper, symObjAddr: 0x1324, symBinAddr: 0x10000FDB4, symSize: 0x14 }
  - { offset: 0x1F278, size: 0x8, addend: 0x0, symName: _getValueProfDataSizeWrapper, symObjAddr: 0x1338, symBinAddr: 0x10000FDC8, symSize: 0xDC }
  - { offset: 0x1F2B6, size: 0x8, addend: 0x0, symName: _getNumValueDataForSiteWrapper, symObjAddr: 0x1324, symBinAddr: 0x10000FDB4, symSize: 0x14 }
  - { offset: 0x1F2DC, size: 0x8, addend: 0x0, symName: _getValueProfDataSizeWrapper, symObjAddr: 0x1338, symBinAddr: 0x10000FDC8, symSize: 0xDC }
  - { offset: 0x1F2E4, size: 0x8, addend: 0x0, symName: _getNextNValueData, symObjAddr: 0x1414, symBinAddr: 0x10000FEA4, symSize: 0x44 }
  - { offset: 0x1F37B, size: 0x8, addend: 0x0, symName: _getNextNValueData, symObjAddr: 0x1414, symBinAddr: 0x10000FEA4, symSize: 0x44 }
  - { offset: 0x1F383, size: 0x8, addend: 0x0, symName: _getNumValueSitesRT, symObjAddr: 0x1458, symBinAddr: 0x10000FEE8, symSize: 0x10 }
  - { offset: 0x1F411, size: 0x8, addend: 0x0, symName: _getNumValueSitesRT, symObjAddr: 0x1458, symBinAddr: 0x10000FEE8, symSize: 0x10 }
  - { offset: 0x1F419, size: 0x8, addend: 0x0, symName: _getNumValueDataRT, symObjAddr: 0x1468, symBinAddr: 0x10000FEF8, symSize: 0x190 }
  - { offset: 0x1F454, size: 0x8, addend: 0x0, symName: _getNumValueDataRT, symObjAddr: 0x1468, symBinAddr: 0x10000FEF8, symSize: 0x190 }
  - { offset: 0x1F4CA, size: 0x8, addend: 0x0, symName: ___llvm_profile_instrument_target_value.cold.1, symObjAddr: 0x161C, symBinAddr: 0x10004A5D8, symSize: 0x24 }
  - { offset: 0x1F55A, size: 0x8, addend: 0x0, symName: ___llvm_profile_raw_version, symObjAddr: 0x0, symBinAddr: 0x10006C778, symSize: 0x0 }
  - { offset: 0x1F59C, size: 0x8, addend: 0x0, symName: _lprofBufferWriter, symObjAddr: 0x0, symBinAddr: 0x100010088, symSize: 0x6C }
  - { offset: 0x1F5BB, size: 0x8, addend: 0x0, symName: _FreeHook, symObjAddr: 0x4F30, symBinAddr: 0x10006D210, symSize: 0x0 }
  - { offset: 0x1F5E1, size: 0x8, addend: 0x0, symName: _DynamicBufferIOBuffer, symObjAddr: 0x4F38, symBinAddr: 0x10006D218, symSize: 0x0 }
  - { offset: 0x1F60F, size: 0x8, addend: 0x0, symName: _VPBufferSize, symObjAddr: 0x4F40, symBinAddr: 0x10006D220, symSize: 0x0 }
  - { offset: 0x1F636, size: 0x8, addend: 0x0, symName: __MergedGlobals, symObjAddr: 0x6F48, symBinAddr: 0x10006F398, symSize: 0x0 }
  - { offset: 0x1F780, size: 0x8, addend: 0x0, symName: _BufferIOBuffer, symObjAddr: 0x4F48, symBinAddr: 0x10006D398, symSize: 0x0 }
  - { offset: 0x1F7AA, size: 0x8, addend: 0x0, symName: __MergedGlobals, symObjAddr: 0x6F48, symBinAddr: 0x10006F398, symSize: 0x0 }
  - { offset: 0x1F826, size: 0x8, addend: 0x0, symName: _lprofBufferWriter, symObjAddr: 0x0, symBinAddr: 0x100010088, symSize: 0x6C }
  - { offset: 0x1F93E, size: 0x8, addend: 0x0, symName: _lprofBufferIOWrite, symObjAddr: 0x100, symBinAddr: 0x1000100F4, symSize: 0x134 }
  - { offset: 0x1FA3F, size: 0x8, addend: 0x0, symName: _lprofWriteData, symObjAddr: 0x2F4, symBinAddr: 0x100010228, symSize: 0xD4 }
  - { offset: 0x1FA47, size: 0x8, addend: 0x0, symName: _lprofWriteDataImpl, symObjAddr: 0x3C8, symBinAddr: 0x1000102FC, symSize: 0x46C }
  - { offset: 0x1FE6D, size: 0x8, addend: 0x0, symName: _lprofWriteDataImpl, symObjAddr: 0x3C8, symBinAddr: 0x1000102FC, symSize: 0x46C }
  - { offset: 0x20197, size: 0x8, addend: 0x0, symName: _writeOneValueProfData, symObjAddr: 0x8C0, symBinAddr: 0x100010768, symSize: 0x4A8 }
  - { offset: 0x2045C, size: 0x8, addend: 0x0, symName: '__ZN108_$LT$alloc..collections..btree..map..Iter$LT$K$C$V$GT$$u20$as$u20$core..iter..traits..iterator..Iterator$GT$4next17hd09f2d96589fb435E', symObjAddr: 0x0, symBinAddr: 0x100010C10, symSize: 0x13C }
  - { offset: 0x2095A, size: 0x8, addend: 0x0, symName: '__ZN5alloc11collections5btree4node208Handle$LT$alloc..collections..btree..node..NodeRef$LT$alloc..collections..btree..node..marker..Mut$C$K$C$V$C$alloc..collections..btree..node..marker..Leaf$GT$$C$alloc..collections..btree..node..marker..KV$GT$5split17h6d01fe3bbe152ad6E', symObjAddr: 0x114AC, symBinAddr: 0x10001D6AC, symSize: 0x1C0 }
  - { offset: 0x20DC8, size: 0x8, addend: 0x0, symName: '__ZN5alloc11collections5btree4node208Handle$LT$alloc..collections..btree..node..NodeRef$LT$alloc..collections..btree..node..marker..Mut$C$K$C$V$C$alloc..collections..btree..node..marker..Leaf$GT$$C$alloc..collections..btree..node..marker..KV$GT$5split17ha09fe2f6ae84e77eE', symObjAddr: 0x1166C, symBinAddr: 0x10001D86C, symSize: 0x164 }
  - { offset: 0x21183, size: 0x8, addend: 0x0, symName: '__ZN5alloc11collections5btree4node208Handle$LT$alloc..collections..btree..node..NodeRef$LT$alloc..collections..btree..node..marker..Mut$C$K$C$V$C$alloc..collections..btree..node..marker..Leaf$GT$$C$alloc..collections..btree..node..marker..KV$GT$5split17hc7dc550ac250e0f6E', symObjAddr: 0x117D0, symBinAddr: 0x10001D9D0, symSize: 0x1CC }
  - { offset: 0x2161A, size: 0x8, addend: 0x0, symName: '__ZN5alloc11collections5btree4node212Handle$LT$alloc..collections..btree..node..NodeRef$LT$alloc..collections..btree..node..marker..Mut$C$K$C$V$C$alloc..collections..btree..node..marker..Internal$GT$$C$alloc..collections..btree..node..marker..KV$GT$5split17h4416f9f8a3a2a225E', symObjAddr: 0x1199C, symBinAddr: 0x10001DB9C, symSize: 0x298 }
  - { offset: 0x21CDB, size: 0x8, addend: 0x0, symName: '__ZN5alloc11collections5btree4node212Handle$LT$alloc..collections..btree..node..NodeRef$LT$alloc..collections..btree..node..marker..Mut$C$K$C$V$C$alloc..collections..btree..node..marker..Internal$GT$$C$alloc..collections..btree..node..marker..KV$GT$5split17h8a06bb5830746347E', symObjAddr: 0x11C34, symBinAddr: 0x10001DE34, symSize: 0x218 }
  - { offset: 0x2226B, size: 0x8, addend: 0x0, symName: '__ZN5alloc11collections5btree4node212Handle$LT$alloc..collections..btree..node..NodeRef$LT$alloc..collections..btree..node..marker..Mut$C$K$C$V$C$alloc..collections..btree..node..marker..Internal$GT$$C$alloc..collections..btree..node..marker..KV$GT$5split17hb4d18c041628fb6dE', symObjAddr: 0x11E4C, symBinAddr: 0x10001E04C, symSize: 0x28C }
  - { offset: 0x2293B, size: 0x8, addend: 0x0, symName: '__ZN5alloc11collections5btree6remove259_$LT$impl$u20$alloc..collections..btree..node..Handle$LT$alloc..collections..btree..node..NodeRef$LT$alloc..collections..btree..node..marker..Mut$C$K$C$V$C$alloc..collections..btree..node..marker..Leaf$GT$$C$alloc..collections..btree..node..marker..KV$GT$$GT$14remove_leaf_kv17h6c3ea96fd2888b8dE', symObjAddr: 0x12EA8, symBinAddr: 0x10001F0A8, symSize: 0x570 }
  - { offset: 0x2357A, size: 0x8, addend: 0x0, symName: '__ZN5alloc11collections5btree6remove259_$LT$impl$u20$alloc..collections..btree..node..Handle$LT$alloc..collections..btree..node..NodeRef$LT$alloc..collections..btree..node..marker..Mut$C$K$C$V$C$alloc..collections..btree..node..marker..Leaf$GT$$C$alloc..collections..btree..node..marker..KV$GT$$GT$14remove_leaf_kv17h73689d62ad792e56E', symObjAddr: 0x13418, symBinAddr: 0x10001F618, symSize: 0x570 }
  - { offset: 0x241B9, size: 0x8, addend: 0x0, symName: '__ZN5alloc11collections5btree6remove259_$LT$impl$u20$alloc..collections..btree..node..Handle$LT$alloc..collections..btree..node..NodeRef$LT$alloc..collections..btree..node..marker..Mut$C$K$C$V$C$alloc..collections..btree..node..marker..Leaf$GT$$C$alloc..collections..btree..node..marker..KV$GT$$GT$14remove_leaf_kv17he90c15582b4564a9E', symObjAddr: 0x13988, symBinAddr: 0x10001FB88, symSize: 0x52C }
  - { offset: 0x26419, size: 0x8, addend: 0x0, symName: '__ZN5alloc11collections5btree4node29BalancingContext$LT$K$C$V$GT$15bulk_steal_left17h75e64982df7e0642E', symObjAddr: 0x120D8, symBinAddr: 0x10001E2D8, symSize: 0x284 }
  - { offset: 0x26981, size: 0x8, addend: 0x0, symName: '__ZN5alloc11collections5btree4node29BalancingContext$LT$K$C$V$GT$15bulk_steal_left17hbba92f5d6a683d2bE', symObjAddr: 0x1235C, symBinAddr: 0x10001E55C, symSize: 0x1F4 }
  - { offset: 0x26EB1, size: 0x8, addend: 0x0, symName: '__ZN5alloc11collections5btree4node29BalancingContext$LT$K$C$V$GT$16bulk_steal_right17h38344368ffc8c5cbE', symObjAddr: 0x12550, symBinAddr: 0x10001E750, symSize: 0x2CC }
  - { offset: 0x274CE, size: 0x8, addend: 0x0, symName: '__ZN5alloc11collections5btree4node29BalancingContext$LT$K$C$V$GT$16bulk_steal_right17hbe50625095942a6eE', symObjAddr: 0x1281C, symBinAddr: 0x10001EA1C, symSize: 0x240 }
  - { offset: 0x27B1C, size: 0x8, addend: 0x0, symName: '__ZN5alloc11collections5btree4node29BalancingContext$LT$K$C$V$GT$8do_merge17h4b602dda9210b2bdE', symObjAddr: 0x12A5C, symBinAddr: 0x10001EC5C, symSize: 0x258 }
  - { offset: 0x28154, size: 0x8, addend: 0x0, symName: '__ZN5alloc11collections5btree4node29BalancingContext$LT$K$C$V$GT$8do_merge17h745f74eea44b50d0E', symObjAddr: 0x12CB4, symBinAddr: 0x10001EEB4, symSize: 0x1F4 }
  - { offset: 0x289EA, size: 0x8, addend: 0x0, symName: '__ZN108_$LT$alloc..collections..btree..map..Iter$LT$K$C$V$GT$$u20$as$u20$core..iter..traits..iterator..Iterator$GT$4next17hd09f2d96589fb435E', symObjAddr: 0x0, symBinAddr: 0x100010C10, symSize: 0x13C }
  - { offset: 0x28D40, size: 0x8, addend: 0x0, symName: '__ZN5alloc11collections5btree3map25BTreeMap$LT$K$C$V$C$A$GT$6insert17h1b51d01431bfbb0bE', symObjAddr: 0xFA98, symBinAddr: 0x10001BC98, symSize: 0x9B0 }
  - { offset: 0x2A549, size: 0x8, addend: 0x0, symName: '__ZN5alloc11collections5btree3map25BTreeMap$LT$K$C$V$C$A$GT$6insert17hc2a6d914d80639a1E', symObjAddr: 0x10448, symBinAddr: 0x10001C648, symSize: 0x9EC }
  - { offset: 0x2BF63, size: 0x8, addend: 0x0, symName: '__ZN5alloc11collections5btree3map25IntoIter$LT$K$C$V$C$A$GT$10dying_next17h14374c324bbb3051E', symObjAddr: 0x10E34, symBinAddr: 0x10001D034, symSize: 0x228 }
  - { offset: 0x2C309, size: 0x8, addend: 0x0, symName: '__ZN5alloc11collections5btree3map25IntoIter$LT$K$C$V$C$A$GT$10dying_next17ha97a3f555acf7d48E', symObjAddr: 0x1105C, symBinAddr: 0x10001D25C, symSize: 0x228 }
  - { offset: 0x2C6AF, size: 0x8, addend: 0x0, symName: '__ZN5alloc11collections5btree3map25IntoIter$LT$K$C$V$C$A$GT$10dying_next17hb30339cd7068d6cfE', symObjAddr: 0x11284, symBinAddr: 0x10001D484, symSize: 0x228 }
  - { offset: 0x2D9F3, size: 0x8, addend: 0x0, symName: '__ZN5alloc7raw_vec19RawVec$LT$T$C$A$GT$8grow_one17h06cf0433792cf41cE', symObjAddr: 0x14498, symBinAddr: 0x100020474, symSize: 0xB4 }
  - { offset: 0x2DB09, size: 0x8, addend: 0x0, symName: '__ZN5alloc7raw_vec19RawVec$LT$T$C$A$GT$8grow_one17h0ff3cfc767e809c5E', symObjAddr: 0x1454C, symBinAddr: 0x100020528, symSize: 0xC4 }
  - { offset: 0x2DC1F, size: 0x8, addend: 0x0, symName: '__ZN5alloc7raw_vec19RawVec$LT$T$C$A$GT$8grow_one17h2a7a88545eefe0b5E', symObjAddr: 0x14610, symBinAddr: 0x1000205EC, symSize: 0xC4 }
  - { offset: 0x2DD35, size: 0x8, addend: 0x0, symName: '__ZN5alloc7raw_vec19RawVec$LT$T$C$A$GT$8grow_one17h33ef86bd5bc7babfE', symObjAddr: 0x146D4, symBinAddr: 0x1000206B0, symSize: 0xB4 }
  - { offset: 0x2DE4B, size: 0x8, addend: 0x0, symName: '__ZN5alloc7raw_vec19RawVec$LT$T$C$A$GT$8grow_one17h4794d3730a636672E', symObjAddr: 0x1484C, symBinAddr: 0x100020764, symSize: 0xC4 }
  - { offset: 0x2DF61, size: 0x8, addend: 0x0, symName: '__ZN5alloc7raw_vec19RawVec$LT$T$C$A$GT$8grow_one17h4b7a36f6d62b1585E', symObjAddr: 0x14910, symBinAddr: 0x100020828, symSize: 0xB4 }
  - { offset: 0x2E077, size: 0x8, addend: 0x0, symName: '__ZN5alloc7raw_vec19RawVec$LT$T$C$A$GT$8grow_one17h4ec275d7687f1e24E', symObjAddr: 0x149C4, symBinAddr: 0x1000208DC, symSize: 0xC4 }
  - { offset: 0x2E18D, size: 0x8, addend: 0x0, symName: '__ZN5alloc7raw_vec19RawVec$LT$T$C$A$GT$8grow_one17h755f70e15600008eE', symObjAddr: 0x14A88, symBinAddr: 0x1000209A0, symSize: 0xB4 }
  - { offset: 0x2E2A3, size: 0x8, addend: 0x0, symName: '__ZN5alloc7raw_vec19RawVec$LT$T$C$A$GT$8grow_one17h9a9a76236db74635E', symObjAddr: 0x14B3C, symBinAddr: 0x100020A54, symSize: 0xC0 }
  - { offset: 0x2E3B9, size: 0x8, addend: 0x0, symName: '__ZN5alloc7raw_vec19RawVec$LT$T$C$A$GT$8grow_one17hbdf039f48f951a6eE', symObjAddr: 0x14BFC, symBinAddr: 0x100020B14, symSize: 0xC0 }
  - { offset: 0x2E4CF, size: 0x8, addend: 0x0, symName: '__ZN5alloc7raw_vec19RawVec$LT$T$C$A$GT$8grow_one17hf24d0ccf3cd16788E', symObjAddr: 0x14CBC, symBinAddr: 0x100020BD4, symSize: 0xC0 }
  - { offset: 0x2EBB2, size: 0x8, addend: 0x0, symName: __ZN5alloc7raw_vec11finish_grow17h2d571ea7b67f06b7E, symObjAddr: 0x14418, symBinAddr: 0x10004D5BC, symSize: 0x80 }
  - { offset: 0x2EC4D, size: 0x8, addend: 0x0, symName: '__ZN5alloc7raw_vec20RawVecInner$LT$A$GT$7reserve21do_reserve_and_handle17h4b2c29e8db0b9268E', symObjAddr: 0x14D7C, symBinAddr: 0x10004D63C, symSize: 0xF0 }
  - { offset: 0x2FF41, size: 0x8, addend: 0x0, symName: __ZN5alloc5alloc15exchange_malloc17h9685023251c359e7E, symObjAddr: 0x143CC, symBinAddr: 0x100020428, symSize: 0x4C }
  - { offset: 0x3000F, size: 0x8, addend: 0x0, symName: '__ZN5alloc4sync16Arc$LT$T$C$A$GT$9drop_slow17h568ad2c88e43a2e4E', symObjAddr: 0x13FE4, symBinAddr: 0x1000200B4, symSize: 0x34 }
  - { offset: 0x300EC, size: 0x8, addend: 0x0, symName: '__ZN5alloc4sync16Arc$LT$T$C$A$GT$9drop_slow17h568f10379158be3aE', symObjAddr: 0x14018, symBinAddr: 0x1000200E8, symSize: 0xC0 }
  - { offset: 0x30411, size: 0x8, addend: 0x0, symName: '__ZN5alloc4sync16Arc$LT$T$C$A$GT$9drop_slow17h74c044505d97b8fcE', symObjAddr: 0x140D8, symBinAddr: 0x1000201A8, symSize: 0x78 }
  - { offset: 0x305DD, size: 0x8, addend: 0x0, symName: '__ZN5alloc4sync16Arc$LT$T$C$A$GT$9drop_slow17h8f2220b00493c4e4E', symObjAddr: 0x14150, symBinAddr: 0x100020220, symSize: 0xA0 }
  - { offset: 0x308D5, size: 0x8, addend: 0x0, symName: '__ZN5alloc4sync16Arc$LT$T$C$A$GT$9drop_slow17hb6a5023acd32b46fE', symObjAddr: 0x14264, symBinAddr: 0x1000202C0, symSize: 0xD0 }
  - { offset: 0x30AEA, size: 0x8, addend: 0x0, symName: '__ZN5alloc4sync16Arc$LT$T$C$A$GT$9drop_slow17hd5e62bd79ab5d7f0E', symObjAddr: 0x14334, symBinAddr: 0x100020390, symSize: 0x98 }
  - { offset: 0x3101D, size: 0x8, addend: 0x0, symName: '__ZN64_$LT$alloc..ffi..c_str..NulError$u20$as$u20$core..fmt..Debug$GT$3fmt17hb25a36ba1a7f247bE', symObjAddr: 0x1BBE4, symBinAddr: 0x100027A0C, symSize: 0x4C }
  - { offset: 0x314F7, size: 0x8, addend: 0x0, symName: '__ZN58_$LT$alloc..string..String$u20$as$u20$core..fmt..Debug$GT$3fmt17hf1e461d83be89b72E', symObjAddr: 0xF8D0, symBinAddr: 0x10001BAD0, symSize: 0x10 }
  - { offset: 0x315B2, size: 0x8, addend: 0x0, symName: '__ZN58_$LT$alloc..string..String$u20$as$u20$core..fmt..Write$GT$10write_char17h5afa657ba1086fe6E', symObjAddr: 0xF8E0, symBinAddr: 0x10001BAE0, symSize: 0x138 }
  - { offset: 0x31755, size: 0x8, addend: 0x0, symName: '__ZN58_$LT$alloc..string..String$u20$as$u20$core..fmt..Write$GT$9write_str17hba5566b7261b3df3E', symObjAddr: 0xFA18, symBinAddr: 0x10001BC18, symSize: 0x80 }
  - { offset: 0x318AE, size: 0x8, addend: 0x0, symName: '__ZN60_$LT$alloc..string..String$u20$as$u20$core..fmt..Display$GT$3fmt17h55315b95f551f900E', symObjAddr: 0x1BBD4, symBinAddr: 0x1000279FC, symSize: 0x10 }
  - { offset: 0x333E1, size: 0x8, addend: 0x0, symName: '__ZN4core3ptr107drop_in_place$LT$alloc..vec..Vec$LT$$LP$std..ffi..os_str..OsString$C$std..ffi..os_str..OsString$RP$$GT$$GT$17h54613c9c01320632E', symObjAddr: 0x1C64, symBinAddr: 0x100011A28, symSize: 0x94 }
  - { offset: 0x33614, size: 0x8, addend: 0x0, symName: '__ZN4core3ptr107drop_in_place$LT$core..pin..Pin$LT$alloc..boxed..Box$LT$std..sys..pal..unix..sync..mutex..Mutex$GT$$GT$$GT$17h3aeea96dd755cfb4E', symObjAddr: 0x1CF8, symBinAddr: 0x100011ABC, symSize: 0x2C }
  - { offset: 0x336B9, size: 0x8, addend: 0x0, symName: '__ZN4core3ptr112drop_in_place$LT$$LP$std..ffi..os_str..OsString$C$core..option..Option$LT$std..ffi..os_str..OsString$GT$$RP$$GT$17hde53fbf4695a9e14E', symObjAddr: 0x1D24, symBinAddr: 0x100011AE8, symSize: 0x58 }
  - { offset: 0x3382E, size: 0x8, addend: 0x0, symName: '__ZN4core3ptr119drop_in_place$LT$std..io..default_write_fmt..Adapter$LT$std..io..cursor..Cursor$LT$$RF$mut$u20$$u5b$u8$u5d$$GT$$GT$$GT$17h8294f296a7dc0264E', symObjAddr: 0x1DA8, symBinAddr: 0x100011B40, symSize: 0x10 }
  - { offset: 0x33845, size: 0x8, addend: 0x0, symName: '__ZN4core3ptr119drop_in_place$LT$std..io..default_write_fmt..Adapter$LT$std..io..cursor..Cursor$LT$$RF$mut$u20$$u5b$u8$u5d$$GT$$GT$$GT$17h8294f296a7dc0264E', symObjAddr: 0x1DA8, symBinAddr: 0x100011B40, symSize: 0x10 }
  - { offset: 0x33866, size: 0x8, addend: 0x0, symName: '__ZN4core3ptr123drop_in_place$LT$addr2line..Context$LT$gimli..read..endian_slice..EndianSlice$LT$gimli..endianity..LittleEndian$GT$$GT$$GT$17h86eb599b9bd6b6b4E', symObjAddr: 0x1DB8, symBinAddr: 0x100011B50, symSize: 0x70 }
  - { offset: 0x3393B, size: 0x8, addend: 0x0, symName: '__ZN4core3ptr124drop_in_place$LT$alloc..collections..btree..map..BTreeMap$LT$std..ffi..os_str..OsString$C$std..ffi..os_str..OsString$GT$$GT$17h3839acf51fe12fe1E', symObjAddr: 0x1E28, symBinAddr: 0x100011BC0, symSize: 0xB8 }
  - { offset: 0x33B6E, size: 0x8, addend: 0x0, symName: '__ZN4core3ptr124drop_in_place$LT$alloc..collections..btree..map..IntoIter$LT$std..ffi..os_str..OsString$C$std..ffi..os_str..OsString$GT$$GT$17h5df7ec7eeb3dc239E', symObjAddr: 0x1EE0, symBinAddr: 0x100011C78, symSize: 0x90 }
  - { offset: 0x33D77, size: 0x8, addend: 0x0, symName: '__ZN4core3ptr128drop_in_place$LT$core..result..Result$LT$$RF$std..thread..Thread$C$$LP$$RF$std..thread..Thread$C$std..thread..Thread$RP$$GT$$GT$17h962b0ef080f547dcE', symObjAddr: 0x1F70, symBinAddr: 0x100011D08, symSize: 0x28 }
  - { offset: 0x33F21, size: 0x8, addend: 0x0, symName: '__ZN4core3ptr129drop_in_place$LT$addr2line..unit..ResUnit$LT$gimli..read..endian_slice..EndianSlice$LT$gimli..endianity..LittleEndian$GT$$GT$$GT$17h6704d8d711f50964E', symObjAddr: 0x1F98, symBinAddr: 0x100011D30, symSize: 0xE4 }
  - { offset: 0x34143, size: 0x8, addend: 0x0, symName: '__ZN4core3ptr129drop_in_place$LT$addr2line..unit..SupUnit$LT$gimli..read..endian_slice..EndianSlice$LT$gimli..endianity..LittleEndian$GT$$GT$$GT$17h3178d992ad3814bdE', symObjAddr: 0x207C, symBinAddr: 0x100011E14, symSize: 0x54 }
  - { offset: 0x3421E, size: 0x8, addend: 0x0, symName: '__ZN4core3ptr130drop_in_place$LT$addr2line..unit..ResUnits$LT$gimli..read..endian_slice..EndianSlice$LT$gimli..endianity..LittleEndian$GT$$GT$$GT$17hec2ee29328c5cc7bE', symObjAddr: 0x20D0, symBinAddr: 0x100011E68, symSize: 0xD0 }
  - { offset: 0x343C7, size: 0x8, addend: 0x0, symName: '__ZN4core3ptr130drop_in_place$LT$addr2line..unit..SupUnits$LT$gimli..read..endian_slice..EndianSlice$LT$gimli..endianity..LittleEndian$GT$$GT$$GT$17h1322e2d105d2f1f9E', symObjAddr: 0x21A0, symBinAddr: 0x100011F38, symSize: 0xE4 }
  - { offset: 0x34585, size: 0x8, addend: 0x0, symName: '__ZN4core3ptr130drop_in_place$LT$gimli..read..dwarf..Dwarf$LT$gimli..read..endian_slice..EndianSlice$LT$gimli..endianity..LittleEndian$GT$$GT$$GT$17hf3b20fbd9db1a9fdE', symObjAddr: 0x2284, symBinAddr: 0x10001201C, symSize: 0x58 }
  - { offset: 0x34653, size: 0x8, addend: 0x0, symName: '__ZN4core3ptr131drop_in_place$LT$$u5b$core..option..Option$LT$core..option..Option$LT$std..backtrace_rs..symbolize..gimli..Mapping$GT$$GT$$u5d$$GT$17h018dc685d3dd2730E', symObjAddr: 0x22DC, symBinAddr: 0x100012074, symSize: 0xCC }
  - { offset: 0x346FD, size: 0x8, addend: 0x0, symName: '__ZN4core3ptr137drop_in_place$LT$gimli..read..dwarf..Unit$LT$gimli..read..endian_slice..EndianSlice$LT$gimli..endianity..LittleEndian$GT$$C$usize$GT$$GT$17h4031e9c5dec06b9aE', symObjAddr: 0x246C, symBinAddr: 0x100012140, symSize: 0x54 }
  - { offset: 0x347FA, size: 0x8, addend: 0x0, symName: '__ZN4core3ptr138drop_in_place$LT$addr2line..function..LazyFunction$LT$gimli..read..endian_slice..EndianSlice$LT$gimli..endianity..LittleEndian$GT$$GT$$GT$17ha3709aaa52158f89E', symObjAddr: 0x24C0, symBinAddr: 0x100012194, symSize: 0x64 }
  - { offset: 0x34811, size: 0x8, addend: 0x0, symName: '__ZN4core3ptr138drop_in_place$LT$addr2line..function..LazyFunction$LT$gimli..read..endian_slice..EndianSlice$LT$gimli..endianity..LittleEndian$GT$$GT$$GT$17ha3709aaa52158f89E', symObjAddr: 0x24C0, symBinAddr: 0x100012194, symSize: 0x64 }
  - { offset: 0x34826, size: 0x8, addend: 0x0, symName: '__ZN4core3ptr138drop_in_place$LT$addr2line..function..LazyFunction$LT$gimli..read..endian_slice..EndianSlice$LT$gimli..endianity..LittleEndian$GT$$GT$$GT$17ha3709aaa52158f89E', symObjAddr: 0x24C0, symBinAddr: 0x100012194, symSize: 0x64 }
  - { offset: 0x3483B, size: 0x8, addend: 0x0, symName: '__ZN4core3ptr138drop_in_place$LT$addr2line..function..LazyFunction$LT$gimli..read..endian_slice..EndianSlice$LT$gimli..endianity..LittleEndian$GT$$GT$$GT$17ha3709aaa52158f89E', symObjAddr: 0x24C0, symBinAddr: 0x100012194, symSize: 0x64 }
  - { offset: 0x3497D, size: 0x8, addend: 0x0, symName: '__ZN4core3ptr144drop_in_place$LT$alloc..vec..Vec$LT$core..option..Option$LT$core..option..Option$LT$std..backtrace_rs..symbolize..gimli..Mapping$GT$$GT$$GT$$GT$17he58f1b72666b9c59E', symObjAddr: 0x2524, symBinAddr: 0x1000121F8, symSize: 0x78 }
  - { offset: 0x34AE5, size: 0x8, addend: 0x0, symName: '__ZN4core3ptr152drop_in_place$LT$alloc..vec..Vec$LT$addr2line..unit..ResUnit$LT$gimli..read..endian_slice..EndianSlice$LT$gimli..endianity..LittleEndian$GT$$GT$$GT$$GT$17he2165088e8298335E', symObjAddr: 0x2668, symBinAddr: 0x100012270, symSize: 0xC4 }
  - { offset: 0x34C54, size: 0x8, addend: 0x0, symName: '__ZN4core3ptr152drop_in_place$LT$alloc..vec..Vec$LT$addr2line..unit..SupUnit$LT$gimli..read..endian_slice..EndianSlice$LT$gimli..endianity..LittleEndian$GT$$GT$$GT$$GT$17h87f5dc9d3cca3a77E', symObjAddr: 0x272C, symBinAddr: 0x100012334, symSize: 0xF4 }
  - { offset: 0x34E6C, size: 0x8, addend: 0x0, symName: '__ZN4core3ptr156drop_in_place$LT$alloc..boxed..Box$LT$$u5b$core..option..Option$LT$core..option..Option$LT$std..backtrace_rs..symbolize..gimli..Mapping$GT$$GT$$u5d$$GT$$GT$17h662502e0fd7f60b9E', symObjAddr: 0x2820, symBinAddr: 0x100012428, symSize: 0xF8 }
  - { offset: 0x34F96, size: 0x8, addend: 0x0, symName: '__ZN4core3ptr159drop_in_place$LT$alloc..sync..ArcInner$LT$gimli..read..dwarf..Dwarf$LT$gimli..read..endian_slice..EndianSlice$LT$gimli..endianity..LittleEndian$GT$$GT$$GT$$GT$17ha75a7326775ef05eE', symObjAddr: 0x2918, symBinAddr: 0x100012520, symSize: 0x5C }
  - { offset: 0x3505B, size: 0x8, addend: 0x0, symName: '__ZN4core3ptr161drop_in_place$LT$alloc..vec..Vec$LT$addr2line..function..LazyFunction$LT$gimli..read..endian_slice..EndianSlice$LT$gimli..endianity..LittleEndian$GT$$GT$$GT$$GT$17hd921ce6f632b87b3E', symObjAddr: 0x2974, symBinAddr: 0x10001257C, symSize: 0xAC }
  - { offset: 0x35298, size: 0x8, addend: 0x0, symName: '__ZN4core3ptr172drop_in_place$LT$core..result..Result$LT$addr2line..Context$LT$gimli..read..endian_slice..EndianSlice$LT$gimli..endianity..LittleEndian$GT$$GT$$C$gimli..read..Error$GT$$GT$17h1cda5e1d1a7951dcE', symObjAddr: 0x2ACC, symBinAddr: 0x100012628, symSize: 0x80 }
  - { offset: 0x3532D, size: 0x8, addend: 0x0, symName: '__ZN4core3ptr173drop_in_place$LT$alloc..boxed..Box$LT$$u5b$addr2line..function..LazyFunction$LT$gimli..read..endian_slice..EndianSlice$LT$gimli..endianity..LittleEndian$GT$$GT$$u5d$$GT$$GT$17h34d35d9ea3d3b9d5E', symObjAddr: 0x2B4C, symBinAddr: 0x1000126A8, symSize: 0x9C }
  - { offset: 0x35344, size: 0x8, addend: 0x0, symName: '__ZN4core3ptr173drop_in_place$LT$alloc..boxed..Box$LT$$u5b$addr2line..function..LazyFunction$LT$gimli..read..endian_slice..EndianSlice$LT$gimli..endianity..LittleEndian$GT$$GT$$u5d$$GT$$GT$17h34d35d9ea3d3b9d5E', symObjAddr: 0x2B4C, symBinAddr: 0x1000126A8, symSize: 0x9C }
  - { offset: 0x35589, size: 0x8, addend: 0x0, symName: '__ZN4core3ptr181drop_in_place$LT$core..option..Option$LT$gimli..read..line..IncompleteLineProgram$LT$gimli..read..endian_slice..EndianSlice$LT$gimli..endianity..LittleEndian$GT$$C$usize$GT$$GT$$GT$17h59a58c9c9c958e24E', symObjAddr: 0x2C58, symBinAddr: 0x100012744, symSize: 0x98 }
  - { offset: 0x35844, size: 0x8, addend: 0x0, symName: '__ZN4core3ptr181drop_in_place$LT$core..result..Result$LT$addr2line..frame..FrameIter$LT$gimli..read..endian_slice..EndianSlice$LT$gimli..endianity..LittleEndian$GT$$GT$$C$gimli..read..Error$GT$$GT$17h49f2f998bcc2f32aE', symObjAddr: 0x2CF0, symBinAddr: 0x1000127DC, symSize: 0x34 }
  - { offset: 0x35982, size: 0x8, addend: 0x0, symName: '__ZN4core3ptr184drop_in_place$LT$core..result..Result$LT$addr2line..function..Functions$LT$gimli..read..endian_slice..EndianSlice$LT$gimli..endianity..LittleEndian$GT$$GT$$C$gimli..read..Error$GT$$GT$17h10dd28e922629511E', symObjAddr: 0x2D24, symBinAddr: 0x100012810, symSize: 0xD8 }
  - { offset: 0x36568, size: 0x8, addend: 0x0, symName: '__ZN4core3ptr194drop_in_place$LT$core..result..Result$LT$std..sync..poison..mutex..MutexGuard$LT$$LP$$RP$$GT$$C$std..sync..poison..PoisonError$LT$std..sync..poison..mutex..MutexGuard$LT$$LP$$RP$$GT$$GT$$GT$$GT$17ha7e54304228a066cE', symObjAddr: 0x2E70, symBinAddr: 0x1000128E8, symSize: 0x4C }
  - { offset: 0x36598, size: 0x8, addend: 0x0, symName: '__ZN4core3ptr199drop_in_place$LT$core..result..Result$LT$core..option..Option$LT$alloc..sync..Arc$LT$std..sync..poison..mutex..Mutex$LT$alloc..vec..Vec$LT$u8$GT$$GT$$GT$$GT$$C$std..thread..local..AccessError$GT$$GT$17hc820eafe807d521eE', symObjAddr: 0x2EBC, symBinAddr: 0x100012934, symSize: 0x2C }
  - { offset: 0x3665F, size: 0x8, addend: 0x0, symName: '__ZN4core3ptr231drop_in_place$LT$core..result..Result$LT$core..option..Option$LT$alloc..boxed..Box$LT$addr2line..unit..DwoUnit$LT$gimli..read..endian_slice..EndianSlice$LT$gimli..endianity..LittleEndian$GT$$GT$$GT$$GT$$C$gimli..read..Error$GT$$GT$17hdbd1f85fa898eaf9E', symObjAddr: 0x2EE8, symBinAddr: 0x100012960, symSize: 0xD4 }
  - { offset: 0x36848, size: 0x8, addend: 0x0, symName: '__ZN4core3ptr275drop_in_place$LT$gimli..read..line..LineRows$LT$gimli..read..endian_slice..EndianSlice$LT$gimli..endianity..LittleEndian$GT$$C$gimli..read..line..IncompleteLineProgram$LT$gimli..read..endian_slice..EndianSlice$LT$gimli..endianity..LittleEndian$GT$$C$usize$GT$$C$usize$GT$$GT$17hebba07efb64a969cE', symObjAddr: 0x2FD4, symBinAddr: 0x100012A34, symSize: 0x8C }
  - { offset: 0x36ABD, size: 0x8, addend: 0x0, symName: '__ZN4core3ptr280drop_in_place$LT$$LT$alloc..collections..btree..map..IntoIter$LT$K$C$V$C$A$GT$$u20$as$u20$core..ops..drop..Drop$GT$..drop..DropGuard$LT$u64$C$core..result..Result$LT$alloc..sync..Arc$LT$gimli..read..abbrev..Abbreviations$GT$$C$gimli..read..Error$GT$$C$alloc..alloc..Global$GT$$GT$17h605d7228f128decdE', symObjAddr: 0x3060, symBinAddr: 0x100012AC0, symSize: 0x84 }
  - { offset: 0x36C2D, size: 0x8, addend: 0x0, symName: '__ZN4core3ptr284drop_in_place$LT$core..result..Result$LT$$RF$core..result..Result$LT$addr2line..line..Lines$C$gimli..read..Error$GT$$C$$LP$$RF$core..result..Result$LT$addr2line..line..Lines$C$gimli..read..Error$GT$$C$core..result..Result$LT$addr2line..line..Lines$C$gimli..read..Error$GT$$RP$$GT$$GT$17h4c3f39ee410886d9E', symObjAddr: 0x30E4, symBinAddr: 0x100012B44, symSize: 0x14 }
  - { offset: 0x36C88, size: 0x8, addend: 0x0, symName: '__ZN4core3ptr37drop_in_place$LT$std..env..VarsOs$GT$17h691c0706c4a0a296E', symObjAddr: 0x30F8, symBinAddr: 0x100012B58, symSize: 0xAC }
  - { offset: 0x36FDB, size: 0x8, addend: 0x0, symName: '__ZN4core3ptr42drop_in_place$LT$alloc..string..String$GT$17hac81f7a4d168ae64E', symObjAddr: 0x32AC, symBinAddr: 0x100012C04, symSize: 0x18 }
  - { offset: 0x36FF2, size: 0x8, addend: 0x0, symName: '__ZN4core3ptr42drop_in_place$LT$alloc..string..String$GT$17hac81f7a4d168ae64E', symObjAddr: 0x32AC, symBinAddr: 0x100012C04, symSize: 0x18 }
  - { offset: 0x370B6, size: 0x8, addend: 0x0, symName: '__ZN4core3ptr42drop_in_place$LT$std..io..error..Error$GT$17habd70f1b431d348cE', symObjAddr: 0x32C4, symBinAddr: 0x100012C1C, symSize: 0xAC }
  - { offset: 0x372E0, size: 0x8, addend: 0x0, symName: '__ZN4core3ptr44drop_in_place$LT$object..read..ObjectMap$GT$17h70ce07c320cc7419E', symObjAddr: 0x3370, symBinAddr: 0x100012CC8, symSize: 0x58 }
  - { offset: 0x3740F, size: 0x8, addend: 0x0, symName: '__ZN4core3ptr46drop_in_place$LT$alloc..vec..Vec$LT$u8$GT$$GT$17hb337dff62f58fd0bE', symObjAddr: 0x3434, symBinAddr: 0x100012D20, symSize: 0x18 }
  - { offset: 0x3749C, size: 0x8, addend: 0x0, symName: '__ZN4core3ptr46drop_in_place$LT$std..io..stdio..StdinLock$GT$17hb805540b2d8fd9f7E', symObjAddr: 0x344C, symBinAddr: 0x100012D38, symSize: 0x54 }
  - { offset: 0x374B3, size: 0x8, addend: 0x0, symName: '__ZN4core3ptr46drop_in_place$LT$std..io..stdio..StdinLock$GT$17hb805540b2d8fd9f7E', symObjAddr: 0x344C, symBinAddr: 0x100012D38, symSize: 0x54 }
  - { offset: 0x374C8, size: 0x8, addend: 0x0, symName: '__ZN4core3ptr46drop_in_place$LT$std..io..stdio..StdinLock$GT$17hb805540b2d8fd9f7E', symObjAddr: 0x344C, symBinAddr: 0x100012D38, symSize: 0x54 }
  - { offset: 0x375BA, size: 0x8, addend: 0x0, symName: '__ZN4core3ptr48drop_in_place$LT$alloc..ffi..c_str..NulError$GT$17h0aa90617c2ef35ffE', symObjAddr: 0x3584, symBinAddr: 0x100012D8C, symSize: 0x18 }
  - { offset: 0x375D1, size: 0x8, addend: 0x0, symName: '__ZN4core3ptr48drop_in_place$LT$alloc..ffi..c_str..NulError$GT$17h0aa90617c2ef35ffE', symObjAddr: 0x3584, symBinAddr: 0x100012D8C, symSize: 0x18 }
  - { offset: 0x3765D, size: 0x8, addend: 0x0, symName: '__ZN4core3ptr557drop_in_place$LT$core..result..Result$LT$$RF$core..result..Result$LT$addr2line..function..Function$LT$gimli..read..endian_slice..EndianSlice$LT$gimli..endianity..LittleEndian$GT$$GT$$C$gimli..read..Error$GT$$C$$LP$$RF$core..result..Result$LT$addr2line..function..Function$LT$gimli..read..endian_slice..EndianSlice$LT$gimli..endianity..LittleEndian$GT$$GT$$C$gimli..read..Error$GT$$C$core..result..Result$LT$addr2line..function..Function$LT$gimli..read..endian_slice..EndianSlice$LT$gimli..endianity..LittleEndian$GT$$GT$$C$gimli..read..Error$GT$$RP$$GT$$GT$17h748b27d3ad91b666E', symObjAddr: 0x37B0, symBinAddr: 0x100012DA4, symSize: 0x64 }
  - { offset: 0x37847, size: 0x8, addend: 0x0, symName: '__ZN4core3ptr55drop_in_place$LT$gimli..read..abbrev..Abbreviations$GT$17h5d64ddc376f7673eE', symObjAddr: 0x3814, symBinAddr: 0x100012E08, symSize: 0x118 }
  - { offset: 0x37BAA, size: 0x8, addend: 0x0, symName: '__ZN4core3ptr560drop_in_place$LT$core..result..Result$LT$$RF$core..result..Result$LT$addr2line..function..Functions$LT$gimli..read..endian_slice..EndianSlice$LT$gimli..endianity..LittleEndian$GT$$GT$$C$gimli..read..Error$GT$$C$$LP$$RF$core..result..Result$LT$addr2line..function..Functions$LT$gimli..read..endian_slice..EndianSlice$LT$gimli..endianity..LittleEndian$GT$$GT$$C$gimli..read..Error$GT$$C$core..result..Result$LT$addr2line..function..Functions$LT$gimli..read..endian_slice..EndianSlice$LT$gimli..endianity..LittleEndian$GT$$GT$$C$gimli..read..Error$GT$$RP$$GT$$GT$17h20f4a6896059bba5E', symObjAddr: 0x39B0, symBinAddr: 0x100012F20, symSize: 0x14 }
  - { offset: 0x37C05, size: 0x8, addend: 0x0, symName: '__ZN4core3ptr60drop_in_place$LT$gimli..read..abbrev..AbbreviationsCache$GT$17h07c70485ebd56478E', symObjAddr: 0x39C4, symBinAddr: 0x100012F34, symSize: 0xCC }
  - { offset: 0x37DCC, size: 0x8, addend: 0x0, symName: '__ZN4core3ptr64drop_in_place$LT$std..sys..pal..unix..sync..mutex..AttrGuard$GT$17h0a5906221301930bE', symObjAddr: 0x3B1C, symBinAddr: 0x100013000, symSize: 0x48 }
  - { offset: 0x37DFD, size: 0x8, addend: 0x0, symName: '__ZN4core3ptr64drop_in_place$LT$std..sys..process..unix..common..ChildPipes$GT$17h10e8f412fa846c73E', symObjAddr: 0x3B64, symBinAddr: 0x100013048, symSize: 0x78 }
  - { offset: 0x37F0D, size: 0x8, addend: 0x0, symName: '__ZN4core3ptr64drop_in_place$LT$std..sys..process..unix..common..StdioPipes$GT$17hf4120600f772654aE', symObjAddr: 0x3BDC, symBinAddr: 0x1000130C0, symSize: 0x54 }
  - { offset: 0x38085, size: 0x8, addend: 0x0, symName: '__ZN4core3ptr65drop_in_place$LT$alloc..vec..Vec$LT$alloc..string..String$GT$$GT$17h66cdbc24d9622501E', symObjAddr: 0x3C30, symBinAddr: 0x100013114, symSize: 0x80 }
  - { offset: 0x38223, size: 0x8, addend: 0x0, symName: '__ZN4core3ptr65drop_in_place$LT$std..backtrace_rs..symbolize..gimli..Context$GT$17h164c0942f12400dbE', symObjAddr: 0x3CB0, symBinAddr: 0x100013194, symSize: 0xE8 }
  - { offset: 0x384B5, size: 0x8, addend: 0x0, symName: '__ZN4core3ptr66drop_in_place$LT$std..backtrace_rs..backtrace..libunwind..Bomb$GT$17h551fed0d2b731830E', symObjAddr: 0x3D98, symBinAddr: 0x10001327C, symSize: 0x40 }
  - { offset: 0x38501, size: 0x8, addend: 0x0, symName: '__ZN4core3ptr701drop_in_place$LT$core..result..Result$LT$$RF$core..result..Result$LT$core..option..Option$LT$alloc..boxed..Box$LT$addr2line..unit..DwoUnit$LT$gimli..read..endian_slice..EndianSlice$LT$gimli..endianity..LittleEndian$GT$$GT$$GT$$GT$$C$gimli..read..Error$GT$$C$$LP$$RF$core..result..Result$LT$core..option..Option$LT$alloc..boxed..Box$LT$addr2line..unit..DwoUnit$LT$gimli..read..endian_slice..EndianSlice$LT$gimli..endianity..LittleEndian$GT$$GT$$GT$$GT$$C$gimli..read..Error$GT$$C$core..result..Result$LT$core..option..Option$LT$alloc..boxed..Box$LT$addr2line..unit..DwoUnit$LT$gimli..read..endian_slice..EndianSlice$LT$gimli..endianity..LittleEndian$GT$$GT$$GT$$GT$$C$gimli..read..Error$GT$$RP$$GT$$GT$17h99be7971756b6652E', symObjAddr: 0x3DD8, symBinAddr: 0x1000132BC, symSize: 0x14 }
  - { offset: 0x385A2, size: 0x8, addend: 0x0, symName: '__ZN4core3ptr70drop_in_place$LT$std..backtrace_rs..symbolize..gimli..stash..Stash$GT$17hf2d48d9015d0f7c8E', symObjAddr: 0x3E6C, symBinAddr: 0x1000132D0, symSize: 0xB8 }
  - { offset: 0x38848, size: 0x8, addend: 0x0, symName: '__ZN4core3ptr71drop_in_place$LT$std..backtrace_rs..symbolize..gimli..macho..Object$GT$17h8bb3839755842750E', symObjAddr: 0x3F24, symBinAddr: 0x100013388, symSize: 0xD8 }
  - { offset: 0x38B1B, size: 0x8, addend: 0x0, symName: '__ZN4core3ptr72drop_in_place$LT$core..option..Option$LT$object..read..ObjectMap$GT$$GT$17hc7c56c88aae4c5fcE', symObjAddr: 0x4068, symBinAddr: 0x100013460, symSize: 0x64 }
  - { offset: 0x38C98, size: 0x8, addend: 0x0, symName: '__ZN4core3ptr73drop_in_place$LT$alloc..vec..Vec$LT$addr2line..line..LineSequence$GT$$GT$17he296d46dd6d5cbabE', symObjAddr: 0x40CC, symBinAddr: 0x1000134C4, symSize: 0x84 }
  - { offset: 0x38DFE, size: 0x8, addend: 0x0, symName: '__ZN4core3ptr77drop_in_place$LT$alloc..boxed..Box$LT$$u5b$alloc..string..String$u5d$$GT$$GT$17hc446220f14ad3f54E', symObjAddr: 0x4188, symBinAddr: 0x100013548, symSize: 0x70 }
  - { offset: 0x38E15, size: 0x8, addend: 0x0, symName: '__ZN4core3ptr77drop_in_place$LT$alloc..boxed..Box$LT$$u5b$alloc..string..String$u5d$$GT$$GT$17hc446220f14ad3f54E', symObjAddr: 0x4188, symBinAddr: 0x100013548, symSize: 0x70 }
  - { offset: 0x38F21, size: 0x8, addend: 0x0, symName: '__ZN4core3ptr77drop_in_place$LT$std..panicking..begin_panic_handler..FormatStringPayload$GT$17h6fcfcc78704673e3E', symObjAddr: 0x41F8, symBinAddr: 0x1000135B8, symSize: 0x24 }
  - { offset: 0x38FDD, size: 0x8, addend: 0x0, symName: '__ZN4core3ptr78drop_in_place$LT$core..result..Result$LT$usize$C$std..io..error..Error$GT$$GT$17h2f8ac36bcb547dffE', symObjAddr: 0x421C, symBinAddr: 0x1000135DC, symSize: 0x14 }
  - { offset: 0x38FF1, size: 0x8, addend: 0x0, symName: '__ZN4core3ptr79drop_in_place$LT$std..sync..poison..rwlock..RwLockReadGuard$LT$$LP$$RP$$GT$$GT$17hc54fd0027bbd6d30E', symObjAddr: 0x4230, symBinAddr: 0x1000135F0, symSize: 0x58 }
  - { offset: 0x3908D, size: 0x8, addend: 0x0, symName: '__ZN4core3ptr81drop_in_place$LT$core..result..Result$LT$$LP$$RP$$C$std..io..error..Error$GT$$GT$17ha905afa1a1b69da6E', symObjAddr: 0x4288, symBinAddr: 0x100013648, symSize: 0x10 }
  - { offset: 0x390BD, size: 0x8, addend: 0x0, symName: '__ZN4core3ptr81drop_in_place$LT$std..sys..process..unix..common..cstring_array..CStringArray$GT$17h601d89b39b80fabfE', symObjAddr: 0x4298, symBinAddr: 0x100013658, symSize: 0xD0 }
  - { offset: 0x393E0, size: 0x8, addend: 0x0, symName: '__ZN4core3ptr82drop_in_place$LT$alloc..sync..ArcInner$LT$std..sys..fs..unix..InnerReadDir$GT$$GT$17h5d4f495acfd7dae8E', symObjAddr: 0x4368, symBinAddr: 0x100013728, symSize: 0x60 }
  - { offset: 0x39583, size: 0x8, addend: 0x0, symName: '__ZN4core3ptr84drop_in_place$LT$$LP$std..ffi..os_str..OsString$C$std..ffi..os_str..OsString$RP$$GT$17h62ddf8343f8db47bE', symObjAddr: 0x43C8, symBinAddr: 0x100013788, symSize: 0x4C }
  - { offset: 0x39708, size: 0x8, addend: 0x0, symName: '__ZN4core3ptr90drop_in_place$LT$std..io..buffered..bufwriter..BufWriter$LT$W$GT$..flush_buf..BufGuard$GT$17he92d49b51e4ad54fE', symObjAddr: 0x4450, symBinAddr: 0x1000137D4, symSize: 0x60 }
  - { offset: 0x3988F, size: 0x8, addend: 0x0, symName: '__ZN4core3ptr92drop_in_place$LT$core..result..Result$LT$addr2line..line..Lines$C$gimli..read..Error$GT$$GT$17h0ed91c593b269246E', symObjAddr: 0x4508, symBinAddr: 0x100013834, symSize: 0xE4 }
  - { offset: 0x39AD5, size: 0x8, addend: 0x0, symName: '__ZN4core3ptr93drop_in_place$LT$core..option..Option$LT$std..backtrace_rs..symbolize..gimli..Mapping$GT$$GT$17h110055b033f66c0fE', symObjAddr: 0x45EC, symBinAddr: 0x100013918, symSize: 0x6C }
  - { offset: 0x39B72, size: 0x8, addend: 0x0, symName: '__ZN4core3ptr95drop_in_place$LT$std..io..buffered..linewriter..LineWriter$LT$std..io..stdio..StdoutRaw$GT$$GT$17hc5979ba65a107f72E', symObjAddr: 0x4658, symBinAddr: 0x100013984, symSize: 0xF8 }
  - { offset: 0x3D14F, size: 0x8, addend: 0x0, symName: __ZN4core5slice4sort6stable14driftsort_main17h521ab17a5a757164E, symObjAddr: 0x9098, symBinAddr: 0x1000153FC, symSize: 0x140 }
  - { offset: 0x3D3F2, size: 0x8, addend: 0x0, symName: __ZN4core5slice4sort6stable14driftsort_main17ha9075508af06de20E, symObjAddr: 0x91D8, symBinAddr: 0x10001553C, symSize: 0x164 }
  - { offset: 0x3D6EB, size: 0x8, addend: 0x0, symName: __ZN4core5slice4sort6stable14driftsort_main17hb0662f4917d01b7dE, symObjAddr: 0x933C, symBinAddr: 0x1000156A0, symSize: 0x140 }
  - { offset: 0x3D98E, size: 0x8, addend: 0x0, symName: __ZN4core5slice4sort6stable14driftsort_main17hbec9c5ede644b796E, symObjAddr: 0x947C, symBinAddr: 0x1000157E0, symSize: 0x164 }
  - { offset: 0x3DC87, size: 0x8, addend: 0x0, symName: __ZN4core5slice4sort6stable14driftsort_main17hc6af17bd05ac089fE, symObjAddr: 0x95E0, symBinAddr: 0x100015944, symSize: 0x140 }
  - { offset: 0x3DEA8, size: 0x8, addend: 0x0, symName: __ZN4core5slice4sort6stable14driftsort_main17hfd7dcf5984234633E, symObjAddr: 0x9720, symBinAddr: 0x100015A84, symSize: 0x140 }
  - { offset: 0x3E33C, size: 0x8, addend: 0x0, symName: __ZN4core5slice4sort6stable5drift4sort17h6aaaaf784e659385E, symObjAddr: 0x9860, symBinAddr: 0x100015BC4, symSize: 0x4E0 }
  - { offset: 0x3E92B, size: 0x8, addend: 0x0, symName: __ZN4core5slice4sort6stable5drift4sort17h866748af94df36ccE, symObjAddr: 0x9D40, symBinAddr: 0x1000160A4, symSize: 0x538 }
  - { offset: 0x3EFBE, size: 0x8, addend: 0x0, symName: __ZN4core5slice4sort6stable5drift4sort17h9ccd45f18f7947baE, symObjAddr: 0xA278, symBinAddr: 0x1000165DC, symSize: 0x4F8 }
  - { offset: 0x3F63D, size: 0x8, addend: 0x0, symName: __ZN4core5slice4sort6stable5drift4sort17haa5e5863b64b9a60E, symObjAddr: 0xA770, symBinAddr: 0x100016AD4, symSize: 0x5EC }
  - { offset: 0x3FCF7, size: 0x8, addend: 0x0, symName: __ZN4core5slice4sort6stable5drift4sort17hb68090b03a5248c3E, symObjAddr: 0xAD5C, symBinAddr: 0x1000170C0, symSize: 0x530 }
  - { offset: 0x40362, size: 0x8, addend: 0x0, symName: __ZN4core5slice4sort6stable5drift4sort17he935295b9297be3dE, symObjAddr: 0xB28C, symBinAddr: 0x1000175F0, symSize: 0x4F8 }
  - { offset: 0x40BE5, size: 0x8, addend: 0x0, symName: __ZN4core5slice4sort6stable9quicksort9quicksort17h0ca9f036defe4ca1E, symObjAddr: 0xB784, symBinAddr: 0x100017AE8, symSize: 0x834 }
  - { offset: 0x417D0, size: 0x8, addend: 0x0, symName: __ZN4core5slice4sort6stable9quicksort9quicksort17h0dcd6807bb10c1ddE, symObjAddr: 0xBFB8, symBinAddr: 0x10001831C, symSize: 0x6D8 }
  - { offset: 0x42290, size: 0x8, addend: 0x0, symName: __ZN4core5slice4sort6stable9quicksort9quicksort17h403c35809902d95cE, symObjAddr: 0xC690, symBinAddr: 0x1000189F4, symSize: 0x74C }
  - { offset: 0x429D5, size: 0x8, addend: 0x0, symName: __ZN4core5slice4sort6stable9quicksort9quicksort17h52ed04d04eb94d9aE, symObjAddr: 0xCDDC, symBinAddr: 0x100019140, symSize: 0x834 }
  - { offset: 0x4396C, size: 0x8, addend: 0x0, symName: __ZN4core5slice4sort6stable9quicksort9quicksort17h6a6db67da80ded8fE, symObjAddr: 0xD610, symBinAddr: 0x100019974, symSize: 0x6E0 }
  - { offset: 0x4442C, size: 0x8, addend: 0x0, symName: __ZN4core5slice4sort6stable9quicksort9quicksort17hfc1631ac0f214f19E, symObjAddr: 0xDCF0, symBinAddr: 0x10001A054, symSize: 0x810 }
  - { offset: 0x450A8, size: 0x8, addend: 0x0, symName: __ZN4core5slice4sort6shared9smallsort12sort4_stable17h31fac7551cf33bd2E, symObjAddr: 0x7F40, symBinAddr: 0x1000142A4, symSize: 0x194 }
  - { offset: 0x45255, size: 0x8, addend: 0x0, symName: __ZN4core5slice4sort6shared9smallsort12sort4_stable17hf90c0556197dda99E, symObjAddr: 0x80D4, symBinAddr: 0x100014438, symSize: 0x180 }
  - { offset: 0x45677, size: 0x8, addend: 0x0, symName: __ZN4core5slice4sort6shared9smallsort12sort8_stable17hf7b6a991869544ccE, symObjAddr: 0x8254, symBinAddr: 0x1000145B8, symSize: 0x2B8 }
  - { offset: 0x45B60, size: 0x8, addend: 0x0, symName: __ZN4core5slice4sort6shared9smallsort18small_sort_general17h034e2245b0bf43b0E, symObjAddr: 0x850C, symBinAddr: 0x100014870, symSize: 0x400 }
  - { offset: 0x460CD, size: 0x8, addend: 0x0, symName: __ZN4core5slice4sort6shared9smallsort18small_sort_general17h87ad8da531a3f31aE, symObjAddr: 0x890C, symBinAddr: 0x100014C70, symSize: 0x4A4 }
  - { offset: 0x467C5, size: 0x8, addend: 0x0, symName: __ZN4core5slice4sort6shared9smallsort25insertion_sort_shift_left17h42562c73653bb666E, symObjAddr: 0x8DB0, symBinAddr: 0x100015114, symSize: 0xA8 }
  - { offset: 0x4689D, size: 0x8, addend: 0x0, symName: __ZN4core5slice4sort6shared9smallsort25insertion_sort_shift_left17ha2f1b9cdd766aaa4E, symObjAddr: 0x8E58, symBinAddr: 0x1000151BC, symSize: 0xB8 }
  - { offset: 0x469CB, size: 0x8, addend: 0x0, symName: __ZN4core5slice4sort6shared9smallsort25insertion_sort_shift_left17hbf93252988a52ab7E, symObjAddr: 0x8F10, symBinAddr: 0x100015274, symSize: 0x94 }
  - { offset: 0x46A95, size: 0x8, addend: 0x0, symName: __ZN4core5slice4sort6shared9smallsort25insertion_sort_shift_left17hd501c44f9cc25640E, symObjAddr: 0x8FA4, symBinAddr: 0x100015308, symSize: 0xF4 }
  - { offset: 0x46E92, size: 0x8, addend: 0x0, symName: __ZN4core5slice4sort6shared5pivot11median3_rec17h0df86c062c3307f3E, symObjAddr: 0x781C, symBinAddr: 0x100013B80, symSize: 0x11C }
  - { offset: 0x46F8E, size: 0x8, addend: 0x0, symName: __ZN4core5slice4sort6shared5pivot11median3_rec17h4e5272a39440c6fcE, symObjAddr: 0x7938, symBinAddr: 0x100013C9C, symSize: 0xCC }
  - { offset: 0x470B3, size: 0x8, addend: 0x0, symName: __ZN4core5slice4sort6shared5pivot11median3_rec17h5a457aecc5390e2dE, symObjAddr: 0x7A04, symBinAddr: 0x100013D68, symSize: 0xD0 }
  - { offset: 0x471AE, size: 0x8, addend: 0x0, symName: __ZN4core5slice4sort6shared5pivot11median3_rec17h63b3210c63d487e5E, symObjAddr: 0x7AD4, symBinAddr: 0x100013E38, symSize: 0xD0 }
  - { offset: 0x472A7, size: 0x8, addend: 0x0, symName: __ZN4core5slice4sort6shared5pivot11median3_rec17h6546c17569d2c228E, symObjAddr: 0x7BA4, symBinAddr: 0x100013F08, symSize: 0x134 }
  - { offset: 0x474CE, size: 0x8, addend: 0x0, symName: __ZN4core5slice4sort6shared5pivot11median3_rec17h825498fa0147afcdE, symObjAddr: 0x7CD8, symBinAddr: 0x10001403C, symSize: 0xCC }
  - { offset: 0x475C7, size: 0x8, addend: 0x0, symName: __ZN4core5slice4sort6shared5pivot11median3_rec17hcc5592aee9a962d6E, symObjAddr: 0x7DA4, symBinAddr: 0x100014108, symSize: 0xCC }
  - { offset: 0x476C0, size: 0x8, addend: 0x0, symName: __ZN4core5slice4sort6shared5pivot11median3_rec17hd5918a3d1c875d2dE, symObjAddr: 0x7E70, symBinAddr: 0x1000141D4, symSize: 0xD0 }
  - { offset: 0x47883, size: 0x8, addend: 0x0, symName: __ZN4core5slice4sort8unstable7ipnsort17h3050acbcca3cb150E, symObjAddr: 0xE500, symBinAddr: 0x10001A864, symSize: 0xEC }
  - { offset: 0x479C5, size: 0x8, addend: 0x0, symName: __ZN4core5slice4sort8unstable7ipnsort17hfd87871531817c09E, symObjAddr: 0xE5EC, symBinAddr: 0x10001A950, symSize: 0x1A8 }
  - { offset: 0x47C99, size: 0x8, addend: 0x0, symName: __ZN4core5slice4sort8unstable8heapsort8heapsort17h018ffb6550069dc5E, symObjAddr: 0xE794, symBinAddr: 0x10001AAF8, symSize: 0x100 }
  - { offset: 0x47E85, size: 0x8, addend: 0x0, symName: __ZN4core5slice4sort8unstable8heapsort8heapsort17h13deb584184321b4E, symObjAddr: 0xE894, symBinAddr: 0x10001ABF8, symSize: 0x160 }
  - { offset: 0x48208, size: 0x8, addend: 0x0, symName: __ZN4core5slice4sort8unstable9quicksort9quicksort17h6207a09384b1d73eE, symObjAddr: 0xE9F4, symBinAddr: 0x10001AD58, symSize: 0x598 }
  - { offset: 0x48D9E, size: 0x8, addend: 0x0, symName: __ZN4core5slice4sort8unstable9quicksort9quicksort17hf6b9320c24c346cdE, symObjAddr: 0xEF8C, symBinAddr: 0x10001B2F0, symSize: 0x408 }
  - { offset: 0x4975A, size: 0x8, addend: 0x0, symName: '__ZN36_$LT$T$u20$as$u20$core..any..Any$GT$7type_id17hca9570fd9e3ed26eE', symObjAddr: 0x160, symBinAddr: 0x100010D4C, symSize: 0x24 }
  - { offset: 0x49774, size: 0x8, addend: 0x0, symName: '__ZN36_$LT$T$u20$as$u20$core..any..Any$GT$7type_id17he4b6f1bd2d030df3E', symObjAddr: 0x184, symBinAddr: 0x100010D70, symSize: 0x24 }
  - { offset: 0x497E2, size: 0x8, addend: 0x0, symName: '__ZN42_$LT$$RF$T$u20$as$u20$core..fmt..Debug$GT$3fmt17h0fc7b8965e6afc5aE', symObjAddr: 0x4CC, symBinAddr: 0x100010D94, symSize: 0x74 }
  - { offset: 0x49876, size: 0x8, addend: 0x0, symName: '__ZN42_$LT$$RF$T$u20$as$u20$core..fmt..Debug$GT$3fmt17h2958e9215852db4aE', symObjAddr: 0x540, symBinAddr: 0x100010E08, symSize: 0x1C }
  - { offset: 0x498BC, size: 0x8, addend: 0x0, symName: '__ZN42_$LT$$RF$T$u20$as$u20$core..fmt..Debug$GT$3fmt17h2bb2d350b34dfff8E', symObjAddr: 0x55C, symBinAddr: 0x100010E24, symSize: 0x10 }
  - { offset: 0x498ED, size: 0x8, addend: 0x0, symName: '__ZN42_$LT$$RF$T$u20$as$u20$core..fmt..Debug$GT$3fmt17h83b5ff28188540c2E', symObjAddr: 0x7FC, symBinAddr: 0x100010E34, symSize: 0x14 }
  - { offset: 0x4991E, size: 0x8, addend: 0x0, symName: '__ZN42_$LT$$RF$T$u20$as$u20$core..fmt..Debug$GT$3fmt17h8ac30dcc9c5b5849E', symObjAddr: 0x8B0, symBinAddr: 0x100010E48, symSize: 0x74 }
  - { offset: 0x49A35, size: 0x8, addend: 0x0, symName: '__ZN42_$LT$$RF$T$u20$as$u20$core..fmt..Debug$GT$3fmt17h8aff657d191ad3c5E', symObjAddr: 0x924, symBinAddr: 0x100010EBC, symSize: 0x1C }
  - { offset: 0x49A7B, size: 0x8, addend: 0x0, symName: '__ZN42_$LT$$RF$T$u20$as$u20$core..fmt..Debug$GT$3fmt17ha21c7837cadbd3f5E', symObjAddr: 0x9B8, symBinAddr: 0x100010ED8, symSize: 0x10 }
  - { offset: 0x49A9D, size: 0x8, addend: 0x0, symName: '__ZN42_$LT$$RF$T$u20$as$u20$core..fmt..Debug$GT$3fmt17heec2750af2870f2eE', symObjAddr: 0xB68, symBinAddr: 0x100010EE8, symSize: 0x9C }
  - { offset: 0x49BDA, size: 0x8, addend: 0x0, symName: '__ZN4core3fmt3num50_$LT$impl$u20$core..fmt..Debug$u20$for$u20$i32$GT$3fmt17h31c367ae7db50eaeE', symObjAddr: 0xDA0, symBinAddr: 0x10001100C, symSize: 0x18 }
  - { offset: 0x49BF1, size: 0x8, addend: 0x0, symName: '__ZN4core3fmt3num50_$LT$impl$u20$core..fmt..Debug$u20$for$u20$i32$GT$3fmt17h31c367ae7db50eaeE', symObjAddr: 0xDA0, symBinAddr: 0x10001100C, symSize: 0x18 }
  - { offset: 0x49C1C, size: 0x8, addend: 0x0, symName: '__ZN4core3fmt3num52_$LT$impl$u20$core..fmt..Debug$u20$for$u20$usize$GT$3fmt17hd9a44c73645affdaE', symObjAddr: 0xE00, symBinAddr: 0x100011024, symSize: 0x18 }
  - { offset: 0x49C33, size: 0x8, addend: 0x0, symName: '__ZN4core3fmt3num52_$LT$impl$u20$core..fmt..Debug$u20$for$u20$usize$GT$3fmt17hd9a44c73645affdaE', symObjAddr: 0xE00, symBinAddr: 0x100011024, symSize: 0x18 }
  - { offset: 0x49C6D, size: 0x8, addend: 0x0, symName: '__ZN44_$LT$$RF$T$u20$as$u20$core..fmt..Display$GT$3fmt17h7aede7e1fafa8ecfE', symObjAddr: 0xCEC, symBinAddr: 0x100010F84, symSize: 0x10 }
  - { offset: 0x49C88, size: 0x8, addend: 0x0, symName: '__ZN44_$LT$$RF$T$u20$as$u20$core..fmt..Display$GT$3fmt17hcdc89f6b7cdef95fE', symObjAddr: 0xCFC, symBinAddr: 0x100010F94, symSize: 0x78 }
  - { offset: 0x4A077, size: 0x8, addend: 0x0, symName: __ZN4core3fmt5Write10write_char17h45384c06e74ab019E, symObjAddr: 0xE18, symBinAddr: 0x10001103C, symSize: 0x150 }
  - { offset: 0x4A20E, size: 0x8, addend: 0x0, symName: __ZN4core3fmt5Write10write_char17h9a7a54bb0ca7d9cdE, symObjAddr: 0x10E8, symBinAddr: 0x10001118C, symSize: 0x128 }
  - { offset: 0x4A3C9, size: 0x8, addend: 0x0, symName: __ZN4core3fmt5Write10write_char17hb6b75da55e1d63aaE, symObjAddr: 0x1210, symBinAddr: 0x1000112B4, symSize: 0x140 }
  - { offset: 0x4A452, size: 0x8, addend: 0x0, symName: __ZN4core3fmt5Write10write_char17hb7b510f6e91dde12E, symObjAddr: 0x1350, symBinAddr: 0x1000113F4, symSize: 0x180 }
  - { offset: 0x4A5FF, size: 0x8, addend: 0x0, symName: __ZN4core3fmt5Write10write_char17hdfb28a662f1dadabE, symObjAddr: 0x14D0, symBinAddr: 0x100011574, symSize: 0x140 }
  - { offset: 0x4A6E2, size: 0x8, addend: 0x0, symName: __ZN4core3fmt5Write9write_fmt17h13bdb2eccd0c285eE, symObjAddr: 0x1610, symBinAddr: 0x1000116B4, symSize: 0x10 }
  - { offset: 0x4A711, size: 0x8, addend: 0x0, symName: __ZN4core3fmt5Write9write_fmt17h3d48754a628ad650E, symObjAddr: 0x1620, symBinAddr: 0x1000116C4, symSize: 0x10 }
  - { offset: 0x4A740, size: 0x8, addend: 0x0, symName: __ZN4core3fmt5Write9write_fmt17h4270820d5fb62457E, symObjAddr: 0x1630, symBinAddr: 0x1000116D4, symSize: 0x10 }
  - { offset: 0x4A76F, size: 0x8, addend: 0x0, symName: __ZN4core3fmt5Write9write_fmt17ha2d460255287c06dE, symObjAddr: 0x1640, symBinAddr: 0x1000116E4, symSize: 0x10 }
  - { offset: 0x4A79E, size: 0x8, addend: 0x0, symName: __ZN4core3fmt5Write9write_fmt17ha8ecdcf0f48f38acE, symObjAddr: 0x1650, symBinAddr: 0x1000116F4, symSize: 0x10 }
  - { offset: 0x4A7CD, size: 0x8, addend: 0x0, symName: __ZN4core3fmt5Write9write_fmt17hc6c9dcaece3bb60dE, symObjAddr: 0x1660, symBinAddr: 0x100011704, symSize: 0x10 }
  - { offset: 0x4A82A, size: 0x8, addend: 0x0, symName: '__ZN50_$LT$$BP$mut$u20$T$u20$as$u20$core..fmt..Debug$GT$3fmt17h0e71da53ffdbf142E', symObjAddr: 0xF410, symBinAddr: 0x10001B6F8, symSize: 0x8 }
  - { offset: 0x4A848, size: 0x8, addend: 0x0, symName: '__ZN50_$LT$$BP$mut$u20$T$u20$as$u20$core..fmt..Debug$GT$3fmt17h0e71da53ffdbf142E', symObjAddr: 0xF410, symBinAddr: 0x10001B6F8, symSize: 0x8 }
  - { offset: 0x4A877, size: 0x8, addend: 0x0, symName: '__ZN52_$LT$$RF$mut$u20$T$u20$as$u20$core..fmt..Display$GT$3fmt17hc5f28addd174597dE', symObjAddr: 0xF500, symBinAddr: 0x10001B700, symSize: 0x10 }
  - { offset: 0x4A8F6, size: 0x8, addend: 0x0, symName: '__ZN55_$LT$$RF$str$u20$as$u20$core..str..pattern..Pattern$GT$15is_contained_in17hf6a15fe5f9aec0c7E', symObjAddr: 0xF510, symBinAddr: 0x10001B710, symSize: 0x3C0 }
  - { offset: 0x4B349, size: 0x8, addend: 0x0, symName: '__ZN70_$LT$core..num..error..TryFromIntError$u20$as$u20$core..fmt..Debug$GT$3fmt17h43e59b0425417061E', symObjAddr: 0x1C570, symBinAddr: 0x100027FBC, symSize: 0x40 }
  - { offset: 0x4B44B, size: 0x8, addend: 0x0, symName: '__ZN4core5array69_$LT$impl$u20$core..fmt..Debug$u20$for$u20$$u5b$T$u3b$$u20$N$u5d$$GT$3fmt17h666d4f1ab6b28ee7E', symObjAddr: 0x76B8, symBinAddr: 0x100013A7C, symSize: 0xFC }
  - { offset: 0x4B998, size: 0x8, addend: 0x0, symName: __ZN4core5panic12PanicPayload6as_str17h55b7c7a41678db2dE, symObjAddr: 0x7814, symBinAddr: 0x100013B78, symSize: 0x8 }
  - { offset: 0x4C1E7, size: 0x8, addend: 0x0, symName: __ZN4core3ops8function2Fn4call17h4cee00de71f7796dE, symObjAddr: 0x1734, symBinAddr: 0x100011714, symSize: 0xAC }
  - { offset: 0x4C2E2, size: 0x8, addend: 0x0, symName: __ZN4core3ops8function2Fn4call17h53dbb0b9a48294dcE, symObjAddr: 0x1818, symBinAddr: 0x1000117C0, symSize: 0xA4 }
  - { offset: 0x4C3FE, size: 0x8, addend: 0x0, symName: '__ZN4core3ops8function6FnOnce40call_once$u7b$$u7b$vtable.shim$u7d$$u7d$17h0256ef3c49b7fef6E', symObjAddr: 0x190C, symBinAddr: 0x100011864, symSize: 0xC }
  - { offset: 0x4C44F, size: 0x8, addend: 0x0, symName: '__ZN4core3ops8function6FnOnce40call_once$u7b$$u7b$vtable.shim$u7d$$u7d$17h1a440162a384b96dE', symObjAddr: 0x1918, symBinAddr: 0x100011870, symSize: 0x4 }
  - { offset: 0x4C46C, size: 0x8, addend: 0x0, symName: '__ZN4core3ops8function6FnOnce40call_once$u7b$$u7b$vtable.shim$u7d$$u7d$17h1a440162a384b96dE', symObjAddr: 0x1918, symBinAddr: 0x100011870, symSize: 0x4 }
  - { offset: 0x4C48B, size: 0x8, addend: 0x0, symName: '__ZN4core3ops8function6FnOnce40call_once$u7b$$u7b$vtable.shim$u7d$$u7d$17h5a3ea79ed9b56f49E', symObjAddr: 0x1924, symBinAddr: 0x100011874, symSize: 0x28 }
  - { offset: 0x4C4C7, size: 0x8, addend: 0x0, symName: '__ZN4core3ops8function6FnOnce40call_once$u7b$$u7b$vtable.shim$u7d$$u7d$17h6ef6b541deff04acE', symObjAddr: 0x194C, symBinAddr: 0x10001189C, symSize: 0xC }
  - { offset: 0x4C518, size: 0x8, addend: 0x0, symName: '__ZN4core3ops8function6FnOnce40call_once$u7b$$u7b$vtable.shim$u7d$$u7d$17h8b0e1f22722d72f6E', symObjAddr: 0x19F4, symBinAddr: 0x1000118A8, symSize: 0x4 }
  - { offset: 0x4C535, size: 0x8, addend: 0x0, symName: '__ZN4core3ops8function6FnOnce40call_once$u7b$$u7b$vtable.shim$u7d$$u7d$17h8b0e1f22722d72f6E', symObjAddr: 0x19F4, symBinAddr: 0x1000118A8, symSize: 0x4 }
  - { offset: 0x4C554, size: 0x8, addend: 0x0, symName: '__ZN4core3ops8function6FnOnce40call_once$u7b$$u7b$vtable.shim$u7d$$u7d$17h9b4a9096c70fd176E', symObjAddr: 0x1A38, symBinAddr: 0x1000118AC, symSize: 0xA4 }
  - { offset: 0x4C69A, size: 0x8, addend: 0x0, symName: '__ZN4core3ops8function6FnOnce40call_once$u7b$$u7b$vtable.shim$u7d$$u7d$17hb135094d08c6abcbE', symObjAddr: 0x1ADC, symBinAddr: 0x100011950, symSize: 0x60 }
  - { offset: 0x4C77E, size: 0x8, addend: 0x0, symName: '__ZN4core3ops8function6FnOnce40call_once$u7b$$u7b$vtable.shim$u7d$$u7d$17hda98b980b7e364a0E', symObjAddr: 0x1B3C, symBinAddr: 0x1000119B0, symSize: 0x78 }
  - { offset: 0x4F482, size: 0x8, addend: 0x0, symName: '__ZN4core4cell4once17OnceCell$LT$T$GT$8try_init17h1f3ae8fa04109d74E', symObjAddr: 0x4750, symBinAddr: 0x10004A5FC, symSize: 0x60 }
  - { offset: 0x4F4A0, size: 0x8, addend: 0x0, symName: '__ZN4core4cell4once17OnceCell$LT$T$GT$8try_init17h1f3ae8fa04109d74E', symObjAddr: 0x4750, symBinAddr: 0x10004A5FC, symSize: 0x60 }
  - { offset: 0x4F4B5, size: 0x8, addend: 0x0, symName: '__ZN4core4cell4once17OnceCell$LT$T$GT$8try_init17h1f3ae8fa04109d74E', symObjAddr: 0x4750, symBinAddr: 0x10004A5FC, symSize: 0x60 }
  - { offset: 0x4F4C9, size: 0x8, addend: 0x0, symName: '__ZN4core4cell4once17OnceCell$LT$T$GT$8try_init17h1f3ae8fa04109d74E', symObjAddr: 0x4750, symBinAddr: 0x10004A5FC, symSize: 0x60 }
  - { offset: 0x4F520, size: 0x8, addend: 0x0, symName: '__ZN4core4cell4once17OnceCell$LT$T$GT$8try_init17h5030d0cfd605f88aE', symObjAddr: 0x47B0, symBinAddr: 0x10004A65C, symSize: 0x678 }
  - { offset: 0x501E2, size: 0x8, addend: 0x0, symName: '__ZN4core4cell4once17OnceCell$LT$T$GT$8try_init17hb2acaa81388d9a1dE', symObjAddr: 0x4E28, symBinAddr: 0x10004ACD4, symSize: 0x110 }
  - { offset: 0x504C6, size: 0x8, addend: 0x0, symName: '__ZN4core4cell4once17OnceCell$LT$T$GT$8try_init17hec4c6057203f18caE', symObjAddr: 0x4F38, symBinAddr: 0x10004ADE4, symSize: 0x1AC4 }
  - { offset: 0x5377F, size: 0x8, addend: 0x0, symName: '__ZN4core4cell4once17OnceCell$LT$T$GT$8try_init17hf59b8f3666c9e504E', symObjAddr: 0x69FC, symBinAddr: 0x10004C8A8, symSize: 0x80 }
  - { offset: 0x53832, size: 0x8, addend: 0x0, symName: '__ZN4core4cell4once17OnceCell$LT$T$GT$8try_init17hfae89e2951f245baE', symObjAddr: 0x6A7C, symBinAddr: 0x10004C928, symSize: 0xC3C }
  - { offset: 0x5589D, size: 0x8, addend: 0x0, symName: __ZN4core9panicking13assert_failed17h49968851add484acE, symObjAddr: 0xF3B8, symBinAddr: 0x10004D564, symSize: 0x34 }
  - { offset: 0x558B8, size: 0x8, addend: 0x0, symName: __ZN4core9panicking13assert_failed17h8219ec77f299110cE, symObjAddr: 0xF3EC, symBinAddr: 0x10004D598, symSize: 0x24 }
  - { offset: 0x55D0C, size: 0x8, addend: 0x0, symName: __ZN3std9panicking11panic_count8increase17h5d061070c09c1b20E, symObjAddr: 0x3BDA0, symBinAddr: 0x1000316FC, symSize: 0x64 }
  - { offset: 0x55D23, size: 0x8, addend: 0x0, symName: __ZN3std9panicking11panic_count8increase17h5d061070c09c1b20E, symObjAddr: 0x3BDA0, symBinAddr: 0x1000316FC, symSize: 0x64 }
  - { offset: 0x55D38, size: 0x8, addend: 0x0, symName: __ZN3std9panicking11panic_count8increase17h5d061070c09c1b20E, symObjAddr: 0x3BDA0, symBinAddr: 0x1000316FC, symSize: 0x64 }
  - { offset: 0x55E17, size: 0x8, addend: 0x0, symName: __ZN3std9panicking11panic_count17is_zero_slow_path17h01eb20a9cec6a821E, symObjAddr: 0x3BE8C, symBinAddr: 0x10004DF90, symSize: 0x2C }
  - { offset: 0x55F77, size: 0x8, addend: 0x0, symName: __RNvCs73fAdSrgOJL_7___rustc17___rust_drop_panic, symObjAddr: 0x3B3E8, symBinAddr: 0x100030FB0, symSize: 0xBC }
  - { offset: 0x5616C, size: 0x8, addend: 0x0, symName: __RNvCs73fAdSrgOJL_7___rustc24___rust_foreign_exception, symObjAddr: 0x3B4A4, symBinAddr: 0x10003106C, symSize: 0xBC }
  - { offset: 0x56361, size: 0x8, addend: 0x0, symName: __ZN3std9panicking12default_hook17h8875fb31ec87dfadE, symObjAddr: 0x3B7CC, symBinAddr: 0x100031128, symSize: 0x1AC }
  - { offset: 0x5669F, size: 0x8, addend: 0x0, symName: '__ZN3std9panicking12default_hook28_$u7b$$u7b$closure$u7d$$u7d$17hf623c44b740b115fE', symObjAddr: 0x3B978, symBinAddr: 0x1000312D4, symSize: 0x1A4 }
  - { offset: 0x56876, size: 0x8, addend: 0x0, symName: '__ZN3std9panicking12default_hook28_$u7b$$u7b$closure$u7d$$u7d$28_$u7b$$u7b$closure$u7d$$u7d$17hf47d63ca0778dae1E', symObjAddr: 0x3BB1C, symBinAddr: 0x100031478, symSize: 0x284 }
  - { offset: 0x56CEC, size: 0x8, addend: 0x0, symName: __RNvCs73fAdSrgOJL_7___rustc17rust_begin_unwind, symObjAddr: 0x3BF00, symBinAddr: 0x100031760, symSize: 0x20 }
  - { offset: 0x56D55, size: 0x8, addend: 0x0, symName: '__ZN102_$LT$std..panicking..begin_panic_handler..FormatStringPayload$u20$as$u20$core..panic..PanicPayload$GT$8take_box17h223afba6ccee5cb1E', symObjAddr: 0x3BF20, symBinAddr: 0x100031780, symSize: 0x118 }
  - { offset: 0x56FD1, size: 0x8, addend: 0x0, symName: '__ZN102_$LT$std..panicking..begin_panic_handler..FormatStringPayload$u20$as$u20$core..panic..PanicPayload$GT$3get17h4f88f29aab2fd10fE', symObjAddr: 0x3C038, symBinAddr: 0x100031898, symSize: 0xB0 }
  - { offset: 0x5710A, size: 0x8, addend: 0x0, symName: '__ZN95_$LT$std..panicking..begin_panic_handler..FormatStringPayload$u20$as$u20$core..fmt..Display$GT$3fmt17hb0af82e86096f7f0E', symObjAddr: 0x3C0E8, symBinAddr: 0x100031948, symSize: 0x5C }
  - { offset: 0x57207, size: 0x8, addend: 0x0, symName: '__ZN99_$LT$std..panicking..begin_panic_handler..StaticStrPayload$u20$as$u20$core..panic..PanicPayload$GT$8take_box17h0df143ef4488f020E', symObjAddr: 0x3C144, symBinAddr: 0x1000319A4, symSize: 0x48 }
  - { offset: 0x5727E, size: 0x8, addend: 0x0, symName: '__ZN99_$LT$std..panicking..begin_panic_handler..StaticStrPayload$u20$as$u20$core..panic..PanicPayload$GT$3get17h5775715a100ee158E', symObjAddr: 0x3C18C, symBinAddr: 0x1000319EC, symSize: 0xC }
  - { offset: 0x57299, size: 0x8, addend: 0x0, symName: '__ZN99_$LT$std..panicking..begin_panic_handler..StaticStrPayload$u20$as$u20$core..panic..PanicPayload$GT$6as_str17h4a89cb46754932c0E', symObjAddr: 0x3C198, symBinAddr: 0x1000319F8, symSize: 0xC }
  - { offset: 0x572BA, size: 0x8, addend: 0x0, symName: '__ZN92_$LT$std..panicking..begin_panic_handler..StaticStrPayload$u20$as$u20$core..fmt..Display$GT$3fmt17h97bd842622e6ccedE', symObjAddr: 0x3C1A4, symBinAddr: 0x100031A04, symSize: 0x10 }
  - { offset: 0x572D6, size: 0x8, addend: 0x0, symName: '__ZN3std9panicking19begin_panic_handler28_$u7b$$u7b$closure$u7d$$u7d$17hdf417b72ab8ffff8E', symObjAddr: 0x3C1B4, symBinAddr: 0x100031A14, symSize: 0xC4 }
  - { offset: 0x5743E, size: 0x8, addend: 0x0, symName: __ZN3std9panicking14payload_as_str17h9b5790cdb2b550fcE, symObjAddr: 0x3C35C, symBinAddr: 0x100031AD8, symSize: 0xB0 }
  - { offset: 0x57522, size: 0x8, addend: 0x0, symName: __ZN3std9panicking20rust_panic_with_hook17hdd8ceeeb04975c2bE, symObjAddr: 0x3C40C, symBinAddr: 0x100031B88, symSize: 0x398 }
  - { offset: 0x57D6F, size: 0x8, addend: 0x0, symName: __RNvCs73fAdSrgOJL_7___rustc10rust_panic, symObjAddr: 0x3C898, symBinAddr: 0x10004DFBC, symSize: 0x60 }
  - { offset: 0x57F0B, size: 0x8, addend: 0x0, symName: __ZN3std3sys7process4unix4unix7Process4wait17hf16eee4591add28bE, symObjAddr: 0x47350, symBinAddr: 0x100036EE8, symSize: 0xA0 }
  - { offset: 0x580CE, size: 0x8, addend: 0x0, symName: '__ZN102_$LT$std..sys..process..unix..common..cstring_array..CStringArray$u20$as$u20$core..ops..drop..Drop$GT$4drop17h78e7b17770d00f7eE', symObjAddr: 0x44808, symBinAddr: 0x1000350AC, symSize: 0x70 }
  - { offset: 0x581E7, size: 0x8, addend: 0x0, symName: __ZN3std3sys7process4unix6common13cstring_array12CStringArray13with_capacity17h99fa5c23e0df8330E, symObjAddr: 0x44628, symBinAddr: 0x100034FD4, symSize: 0xD8 }
  - { offset: 0x583A8, size: 0x8, addend: 0x0, symName: __ZN3std3sys7process4unix6common7Command3new17hee79130fbef3296eE, symObjAddr: 0x448E8, symBinAddr: 0x10003511C, symSize: 0x284 }
  - { offset: 0x58864, size: 0x8, addend: 0x0, symName: __ZN3std3sys7process4unix6common7Command3arg17h226ffd4f27122ef8E, symObjAddr: 0x44CB4, symBinAddr: 0x1000353A0, symSize: 0xEC }
  - { offset: 0x58B66, size: 0x8, addend: 0x0, symName: __ZN3std3sys7process4unix6common7Command6stderr17hf6aa7067185bb6cbE, symObjAddr: 0x45080, symBinAddr: 0x10003548C, symSize: 0x44 }
  - { offset: 0x58BEF, size: 0x8, addend: 0x0, symName: __ZN3std3sys7process4unix6common7Command11capture_env17h0cfcb5df006c563cE, symObjAddr: 0x450C4, symBinAddr: 0x1000354D0, symSize: 0x91C }
  - { offset: 0x5A493, size: 0x8, addend: 0x0, symName: __ZN3std3sys7process4unix6common7Command8setup_io17h49fecf1d8531d22fE, symObjAddr: 0x459E0, symBinAddr: 0x100035DEC, symSize: 0x2F8 }
  - { offset: 0x5A94A, size: 0x8, addend: 0x0, symName: '__ZN3std3sys7process4unix4unix58_$LT$impl$u20$std..sys..process..unix..common..Command$GT$5spawn17h83be88a7218a58a1E', symObjAddr: 0x46674, symBinAddr: 0x100036240, symSize: 0x928 }
  - { offset: 0x5B9A0, size: 0x8, addend: 0x0, symName: '__ZN3std3sys7process4unix4unix58_$LT$impl$u20$std..sys..process..unix..common..Command$GT$7do_exec17h7cf7ac48f439483cE', symObjAddr: 0x46F9C, symBinAddr: 0x100036B68, symSize: 0x380 }
  - { offset: 0x5C316, size: 0x8, addend: 0x0, symName: __ZN3std3sys7process4unix6common5Stdio14to_child_stdio17hb95d2f9ba1abe590E, symObjAddr: 0x45CD8, symBinAddr: 0x1000360E4, symSize: 0x15C }
  - { offset: 0x5C47E, size: 0x8, addend: 0x0, symName: __ZN3std3sys7process3env10CommandEnv6remove17h3c9f8276daaa27abE, symObjAddr: 0x3A0DC, symBinAddr: 0x100030908, symSize: 0x3B8 }
  - { offset: 0x5D000, size: 0x8, addend: 0x0, symName: __ZN3std3sys2fs4unix15remove_dir_impl24remove_dir_all_recursive17h776ee7b828702387E, symObjAddr: 0x427B0, symBinAddr: 0x100034C8C, symSize: 0x348 }
  - { offset: 0x5D855, size: 0x8, addend: 0x0, symName: __ZN3std3sys2fs4unix4File6open_c17h5a31c1e924c31a39E, symObjAddr: 0x4151C, symBinAddr: 0x100034A98, symSize: 0x1B0 }
  - { offset: 0x5D99C, size: 0x8, addend: 0x0, symName: '__ZN86_$LT$std..sys..fs..unix..ReadDir$u20$as$u20$core..iter..traits..iterator..Iterator$GT$4next17h9b7743c8c0a5f434E', symObjAddr: 0x41080, symBinAddr: 0x100034894, symSize: 0x138 }
  - { offset: 0x5DCA1, size: 0x8, addend: 0x0, symName: '__ZN3std3sys2fs4unix10DirBuilder5mkdir28_$u7b$$u7b$closure$u7d$$u7d$17hfc1600754cc9153eE', symObjAddr: 0x417F4, symBinAddr: 0x100034C48, symSize: 0x44 }
  - { offset: 0x5DD5F, size: 0x8, addend: 0x0, symName: '__ZN65_$LT$std..sys..fs..unix..Dir$u20$as$u20$core..ops..drop..Drop$GT$4drop17hda69c3116f0d01f9E', symObjAddr: 0x411B8, symBinAddr: 0x1000349CC, symSize: 0xCC }
  - { offset: 0x5DE37, size: 0x8, addend: 0x0, symName: __ZN3std3sys2fs8read_dir17ha4d851693f34a78dE, symObjAddr: 0x38968, symBinAddr: 0x100030654, symSize: 0x19C }
  - { offset: 0x5E0DD, size: 0x8, addend: 0x0, symName: __ZN3std3sys2fs14remove_dir_all17h062485d391b5fd38E, symObjAddr: 0x38E9C, symBinAddr: 0x1000307F0, symSize: 0x118 }
  - { offset: 0x5E2AC, size: 0x8, addend: 0x0, symName: __ZN3std3sys2fd4unix8FileDesc11read_to_end17h4dd597c33f28b34bE, symObjAddr: 0x40840, symBinAddr: 0x100034658, symSize: 0x23C }
  - { offset: 0x5E75C, size: 0x8, addend: 0x0, symName: __ZN3std3sys3pal4unix2os4exit17h6753c8f46b8c92e5E, symObjAddr: 0x3DA78, symBinAddr: 0x100032700, symSize: 0xC }
  - { offset: 0x5E7EA, size: 0x8, addend: 0x0, symName: __ZN3std3sys3pal4unix4sync5mutex5Mutex4init17he47bfeffad10ab23E, symObjAddr: 0x3F018, symBinAddr: 0x100033C88, symSize: 0x16C }
  - { offset: 0x5E8A1, size: 0x8, addend: 0x0, symName: __ZN3std3sys3pal4unix4sync5mutex5Mutex4lock4fail17hc6db7b5c9b0389a0E, symObjAddr: 0x3F1A0, symBinAddr: 0x10004E074, symSize: 0xE4 }
  - { offset: 0x5EB94, size: 0x8, addend: 0x0, symName: __ZN3std3sys3pal4unix14stack_overflow3imp14signal_handler17h46f8ef1aa7528f43E, symObjAddr: 0x3E7B8, symBinAddr: 0x100033428, symSize: 0x290 }
  - { offset: 0x5F165, size: 0x8, addend: 0x0, symName: __ZN3std3sys3pal4unix14stack_overflow3imp12make_handler17he67200fb708acd59E, symObjAddr: 0x3EA48, symBinAddr: 0x1000336B8, symSize: 0x234 }
  - { offset: 0x5F515, size: 0x8, addend: 0x0, symName: __ZN3std3sys3pal4unix14stack_overflow3imp12drop_handler17h683641cfe3e92d15E, symObjAddr: 0x3EC7C, symBinAddr: 0x1000338EC, symSize: 0x39C }
  - { offset: 0x5FD77, size: 0x8, addend: 0x0, symName: __ZN3std3sys3pal4unix14stack_overflow11thread_info16set_current_info17hdef3efae36137112E, symObjAddr: 0x3DE70, symBinAddr: 0x100032AE0, symSize: 0x948 }
  - { offset: 0x61126, size: 0x8, addend: 0x0, symName: __ZN3std3sys3pal4unix4pipe8AnonPipe5write17h16a4c9da9673706eE, symObjAddr: 0x3DBAC, symBinAddr: 0x100032834, symSize: 0x54 }
  - { offset: 0x61203, size: 0x8, addend: 0x0, symName: __ZN3std3sys3pal4unix4pipe9anon_pipe17ha2e56c5565a24655E, symObjAddr: 0x3DA84, symBinAddr: 0x10003270C, symSize: 0x128 }
  - { offset: 0x614F8, size: 0x8, addend: 0x0, symName: __ZN3std3sys3pal4unix4pipe5read217h426c633f7d168e0dE, symObjAddr: 0x3DC00, symBinAddr: 0x100032888, symSize: 0x258 }
  - { offset: 0x61A26, size: 0x8, addend: 0x0, symName: '__ZN3std3sys3pal4unix4weak18DlsymWeak$LT$F$GT$10initialize17ha6b700ee2a93a6c2E', symObjAddr: 0x3D788, symBinAddr: 0x10004E01C, symSize: 0x58 }
  - { offset: 0x61AA8, size: 0x8, addend: 0x0, symName: __ZN3std3sys3pal4unix17decode_error_kind17haabc64936b405e49E, symObjAddr: 0x3FA78, symBinAddr: 0x100033DF4, symSize: 0x150 }
  - { offset: 0x61AC2, size: 0x8, addend: 0x0, symName: __ZN3std3sys3pal4unix14abort_internal17ha2b174aef73aaa99E, symObjAddr: 0x3FBC8, symBinAddr: 0x10004E158, symSize: 0xC }
  - { offset: 0x61BBC, size: 0x8, addend: 0x0, symName: __ZN3std3sys3pal6common14small_c_string24run_with_cstr_allocating17h4ec231ca57273a05E, symObjAddr: 0x379EC, symBinAddr: 0x10004DB0C, symSize: 0xBC }
  - { offset: 0x61D98, size: 0x8, addend: 0x0, symName: __ZN3std3sys3pal6common14small_c_string24run_with_cstr_allocating17h62eae881f61189b9E, symObjAddr: 0x37AA8, symBinAddr: 0x10004DBC8, symSize: 0xC4 }
  - { offset: 0x61F61, size: 0x8, addend: 0x0, symName: __ZN3std3sys3pal6common14small_c_string24run_with_cstr_allocating17h849b8fb7465c671dE, symObjAddr: 0x37B6C, symBinAddr: 0x10004DC8C, symSize: 0xAC }
  - { offset: 0x620BD, size: 0x8, addend: 0x0, symName: __ZN3std3sys3pal6common14small_c_string24run_with_cstr_allocating17h9731a74c6f43e353E, symObjAddr: 0x37C18, symBinAddr: 0x10004DD38, symSize: 0xD0 }
  - { offset: 0x62286, size: 0x8, addend: 0x0, symName: __ZN3std3sys3pal6common14small_c_string24run_with_cstr_allocating17hf63fa4ece05c9b45E, symObjAddr: 0x37CE8, symBinAddr: 0x10004DE08, symSize: 0xA4 }
  - { offset: 0x6245D, size: 0x8, addend: 0x0, symName: '__ZN64_$LT$std..sys..stdio..unix..Stderr$u20$as$u20$std..io..Write$GT$5write17h3b1932d17393f261E', symObjAddr: 0x47870, symBinAddr: 0x100036F88, symSize: 0x58 }
  - { offset: 0x62533, size: 0x8, addend: 0x0, symName: '__ZN64_$LT$std..sys..stdio..unix..Stderr$u20$as$u20$std..io..Write$GT$14write_vectored17h8ff0487a5ca382e1E', symObjAddr: 0x478C8, symBinAddr: 0x100036FE0, symSize: 0x58 }
  - { offset: 0x62609, size: 0x8, addend: 0x0, symName: '__ZN64_$LT$std..sys..stdio..unix..Stderr$u20$as$u20$std..io..Write$GT$17is_write_vectored17h806729f05e1b02f1E', symObjAddr: 0x47920, symBinAddr: 0x100037038, symSize: 0x8 }
  - { offset: 0x62623, size: 0x8, addend: 0x0, symName: '__ZN64_$LT$std..sys..stdio..unix..Stderr$u20$as$u20$std..io..Write$GT$5flush17ha8134fdfc2044e22E', symObjAddr: 0x47928, symBinAddr: 0x100037040, symSize: 0x8 }
  - { offset: 0x6266B, size: 0x8, addend: 0x0, symName: '__ZN3std3sys11personality3gcc14find_eh_action28_$u7b$$u7b$closure$u7d$$u7d$17h8e0a401f13cba7b2E', symObjAddr: 0x3FBD4, symBinAddr: 0x100033F44, symSize: 0xC }
  - { offset: 0x6267F, size: 0x8, addend: 0x0, symName: '__ZN3std3sys11personality3gcc14find_eh_action28_$u7b$$u7b$closure$u7d$$u7d$17hb37e74614c39fe5bE', symObjAddr: 0x3FBE0, symBinAddr: 0x100033F50, symSize: 0xC }
  - { offset: 0x626AF, size: 0x8, addend: 0x0, symName: _rust_eh_personality, symObjAddr: 0x3FBEC, symBinAddr: 0x100033F5C, symSize: 0x378 }
  - { offset: 0x62A38, size: 0x8, addend: 0x0, symName: __ZN3std3sys11personality5dwarf2eh19read_encoded_offset17ha35e0bf259a51371E, symObjAddr: 0x37E3C, symBinAddr: 0x10002FD68, symSize: 0x148 }
  - { offset: 0x62BB8, size: 0x8, addend: 0x0, symName: '__ZN3std3sys9backtrace10_print_fmt28_$u7b$$u7b$closure$u7d$$u7d$17h53593d80dca05be6E', symObjAddr: 0x382E8, symBinAddr: 0x10003019C, symSize: 0x24 }
  - { offset: 0x62BE1, size: 0x8, addend: 0x0, symName: '__ZN3std3sys9backtrace10_print_fmt28_$u7b$$u7b$closure$u7d$$u7d$17h562a49be56385aceE', symObjAddr: 0x3830C, symBinAddr: 0x1000301C0, symSize: 0x130 }
  - { offset: 0x62CF5, size: 0x8, addend: 0x0, symName: '__ZN3std3sys9backtrace10_print_fmt28_$u7b$$u7b$closure$u7d$$u7d$28_$u7b$$u7b$closure$u7d$$u7d$17had6f8f8b94a1d5d2E', symObjAddr: 0x3843C, symBinAddr: 0x1000302F0, symSize: 0x264 }
  - { offset: 0x62F24, size: 0x8, addend: 0x0, symName: __ZN3std3sys9backtrace4lock17hdabe8353c49be0ebE, symObjAddr: 0x37FFC, symBinAddr: 0x10002FEB0, symSize: 0x70 }
  - { offset: 0x6306D, size: 0x8, addend: 0x0, symName: __ZN3std3sys9backtrace13BacktraceLock5print17h3eb1535b8d3666caE, symObjAddr: 0x3806C, symBinAddr: 0x10002FF20, symSize: 0x54 }
  - { offset: 0x630BA, size: 0x8, addend: 0x0, symName: '__ZN98_$LT$std..sys..backtrace..BacktraceLock..print..DisplayBacktrace$u20$as$u20$core..fmt..Display$GT$3fmt17h373e57e2286956dcE', symObjAddr: 0x380C0, symBinAddr: 0x10002FF74, symSize: 0x228 }
  - { offset: 0x6359F, size: 0x8, addend: 0x0, symName: __ZN3std3sys9backtrace26__rust_end_short_backtrace17h507d79c50996742eE, symObjAddr: 0x386A0, symBinAddr: 0x100030554, symSize: 0xC }
  - { offset: 0x635B9, size: 0x8, addend: 0x0, symName: __ZN3std3sys9backtrace15output_filename17h1e17c213ac1ab78dE, symObjAddr: 0x386B8, symBinAddr: 0x100030560, symSize: 0xF4 }
  - { offset: 0x63787, size: 0x8, addend: 0x0, symName: '__ZN3std3sys4sync8once_box16OnceBox$LT$T$GT$10initialize17he379977f8bc9e5d3E', symObjAddr: 0x3A608, symBinAddr: 0x10004DEAC, symSize: 0xE4 }
  - { offset: 0x63A69, size: 0x8, addend: 0x0, symName: __ZN3std3sys4sync6rwlock5queue6RwLock21read_unlock_contended17h1b9e50d42faedc94E, symObjAddr: 0x4843C, symBinAddr: 0x10004E3B4, symSize: 0x40 }
  - { offset: 0x63A87, size: 0x8, addend: 0x0, symName: __ZN3std3sys4sync6rwlock5queue6RwLock21read_unlock_contended17h1b9e50d42faedc94E, symObjAddr: 0x4843C, symBinAddr: 0x10004E3B4, symSize: 0x40 }
  - { offset: 0x63A9C, size: 0x8, addend: 0x0, symName: __ZN3std3sys4sync6rwlock5queue6RwLock21read_unlock_contended17h1b9e50d42faedc94E, symObjAddr: 0x4843C, symBinAddr: 0x10004E3B4, symSize: 0x40 }
  - { offset: 0x63BD9, size: 0x8, addend: 0x0, symName: __ZN3std3sys4sync6rwlock5queue6RwLock16unlock_contended17h76968e98b916e2abE, symObjAddr: 0x4847C, symBinAddr: 0x10004E3F4, symSize: 0x40 }
  - { offset: 0x63CB5, size: 0x8, addend: 0x0, symName: __ZN3std3sys4sync6rwlock5queue6RwLock12unlock_queue17h9c4ac3ac2d5778f9E, symObjAddr: 0x485C8, symBinAddr: 0x1000372D0, symSize: 0x1CC }
  - { offset: 0x643AD, size: 0x8, addend: 0x0, symName: __ZN3std3sys4sync6rwlock5queue9read_lock17h1f89cfb304dc509cE, symObjAddr: 0x481E8, symBinAddr: 0x1000372B0, symSize: 0x20 }
  - { offset: 0x643C6, size: 0x8, addend: 0x0, symName: '__ZN83_$LT$std..sys..sync..rwlock..queue..PanicGuard$u20$as$u20$core..ops..drop..Drop$GT$4drop17h5cadc4ef1f5dcd7dE', symObjAddr: 0x48208, symBinAddr: 0x10004E370, symSize: 0x44 }
  - { offset: 0x644BE, size: 0x8, addend: 0x0, symName: __ZN3std3sys4sync4once5queue4Once4call17hecaba0a776a35aa1E, symObjAddr: 0x47D60, symBinAddr: 0x10004E164, symSize: 0x20C }
  - { offset: 0x647AD, size: 0x8, addend: 0x0, symName: '__ZN82_$LT$std..sys..sync..once..queue..WaiterQueue$u20$as$u20$core..ops..drop..Drop$GT$4drop17h7c83cf796170585cE', symObjAddr: 0x480F4, symBinAddr: 0x1000371D0, symSize: 0xE0 }
  - { offset: 0x64970, size: 0x8, addend: 0x0, symName: __ZN3std3sys4sync4once5queue4wait17h89a94bf1656b2ec7E, symObjAddr: 0x47F6C, symBinAddr: 0x100037048, symSize: 0x188 }
  - { offset: 0x64F47, size: 0x8, addend: 0x0, symName: __ZN3std3sys12thread_local6native5eager7destroy17heae091946a683e1cE, symObjAddr: 0x48840, symBinAddr: 0x10003749C, symSize: 0x2C }
  - { offset: 0x65098, size: 0x8, addend: 0x0, symName: __ZN3std3sys12thread_local5guard5apple6enable9run_dtors17hef79a299de7fb9adE, symObjAddr: 0x48984, symBinAddr: 0x1000375E0, symSize: 0xF8 }
  - { offset: 0x655B1, size: 0x8, addend: 0x0, symName: __ZN3std3sys12thread_local11destructors4list8register17hde6abc51e3c3721cE, symObjAddr: 0x4886C, symBinAddr: 0x1000374C8, symSize: 0x118 }
  - { offset: 0x6590F, size: 0x8, addend: 0x0, symName: __ZN3std3sys3env4unix13env_read_lock17ha2bee16bf1e65b98E, symObjAddr: 0x3FF64, symBinAddr: 0x1000342D4, symSize: 0x23C }
  - { offset: 0x66018, size: 0x8, addend: 0x0, symName: '__ZN3std3sys3env4unix6getenv28_$u7b$$u7b$closure$u7d$$u7d$17h5aa62fce8cdb755bE', symObjAddr: 0x401A0, symBinAddr: 0x100034510, symSize: 0x148 }
  - { offset: 0x664C1, size: 0x8, addend: 0x0, symName: '__ZN64_$LT$std..ffi..os_str..Display$u20$as$u20$core..fmt..Display$GT$3fmt17hf4e02af35f1fefceE', symObjAddr: 0x23390, symBinAddr: 0x10002B7AC, symSize: 0xAC }
  - { offset: 0x665FE, size: 0x8, addend: 0x0, symName: __ZN3std7process7Command6output17h8dcdf4d4d26f2b3aE, symObjAddr: 0x3517C, symBinAddr: 0x10002F658, symSize: 0x2F8 }
  - { offset: 0x66B68, size: 0x8, addend: 0x0, symName: __ZN3std7process7Command6status17h8a3e92f044f9afa2E, symObjAddr: 0x35474, symBinAddr: 0x10002F950, symSize: 0x100 }
  - { offset: 0x66E4B, size: 0x8, addend: 0x0, symName: __ZN3std7process4exit17h9ea9ef2bb2cbf5d6E, symObjAddr: 0x35E3C, symBinAddr: 0x10002FA50, symSize: 0x1C }
  - { offset: 0x66E66, size: 0x8, addend: 0x0, symName: __ZN3std7process5abort17hbd14f557f4be895cE, symObjAddr: 0x35E58, symBinAddr: 0x10004DA34, symSize: 0xC }
  - { offset: 0x66F02, size: 0x8, addend: 0x0, symName: __ZN3std4path4Path13_strip_prefix17h44ebcc45a48bcda4E, symObjAddr: 0x336DC, symBinAddr: 0x10002F0CC, symSize: 0x21C }
  - { offset: 0x67020, size: 0x8, addend: 0x0, symName: __ZN3std4path4Path5_join17h5f97e78c9ec6f8c6E, symObjAddr: 0x33F08, symBinAddr: 0x10002F2E8, symSize: 0x1A4 }
  - { offset: 0x674AA, size: 0x8, addend: 0x0, symName: __ZN3std4path4Path6is_dir17h6e36cee7714ed1fbE, symObjAddr: 0x3499C, symBinAddr: 0x10002F48C, symSize: 0x1C8 }
  - { offset: 0x67A1C, size: 0x8, addend: 0x0, symName: __ZN3std4path10Components15len_before_body17h5c34a7955bf675c9E, symObjAddr: 0x31A18, symBinAddr: 0x10002E440, symSize: 0x188 }
  - { offset: 0x67A33, size: 0x8, addend: 0x0, symName: __ZN3std4path10Components15len_before_body17h5c34a7955bf675c9E, symObjAddr: 0x31A18, symBinAddr: 0x10002E440, symSize: 0x188 }
  - { offset: 0x67A48, size: 0x8, addend: 0x0, symName: __ZN3std4path10Components15len_before_body17h5c34a7955bf675c9E, symObjAddr: 0x31A18, symBinAddr: 0x10002E440, symSize: 0x188 }
  - { offset: 0x67C00, size: 0x8, addend: 0x0, symName: __ZN3std4path10Components7as_path17ha0723f3b84befc75E, symObjAddr: 0x31BA0, symBinAddr: 0x10002E5C8, symSize: 0x318 }
  - { offset: 0x67E78, size: 0x8, addend: 0x0, symName: __ZN3std4path10Components25parse_next_component_back17hb183b6faf02472afE, symObjAddr: 0x31EB8, symBinAddr: 0x10002E8E0, symSize: 0x124 }
  - { offset: 0x6803A, size: 0x8, addend: 0x0, symName: '__ZN80_$LT$std..path..Components$u20$as$u20$core..iter..traits..iterator..Iterator$GT$4next17hc5f2949875039169E', symObjAddr: 0x32174, symBinAddr: 0x10002EA04, symSize: 0x340 }
  - { offset: 0x68337, size: 0x8, addend: 0x0, symName: '__ZN95_$LT$std..path..Components$u20$as$u20$core..iter..traits..double_ended..DoubleEndedIterator$GT$9next_back17h97da5c60c737f00eE', symObjAddr: 0x324B4, symBinAddr: 0x10002ED44, symSize: 0x360 }
  - { offset: 0x684E1, size: 0x8, addend: 0x0, symName: '__ZN55_$LT$std..path..PathBuf$u20$as$u20$core..fmt..Debug$GT$3fmt17h89c2629322c89316E', symObjAddr: 0x335BC, symBinAddr: 0x10002F0A4, symSize: 0x28 }
  - { offset: 0x68657, size: 0x8, addend: 0x0, symName: '__ZN57_$LT$std..path..Display$u20$as$u20$core..fmt..Display$GT$3fmt17h55d7fd966bb4560dE', symObjAddr: 0x34D7C, symBinAddr: 0x10002F654, symSize: 0x4 }
  - { offset: 0x686A6, size: 0x8, addend: 0x0, symName: '__ZN61_$LT$std..path..Component$u20$as$u20$core..cmp..PartialEq$GT$2eq17h9abf03ee93017be9E', symObjAddr: 0x3D540, symBinAddr: 0x1000325C8, symSize: 0x138 }
  - { offset: 0x6889C, size: 0x8, addend: 0x0, symName: '__ZN81_$LT$std..io..default_write_fmt..Adapter$LT$T$GT$$u20$as$u20$core..fmt..Write$GT$9write_str17h1421ba9cd8ee47c5E', symObjAddr: 0x2CBD4, symBinAddr: 0x10002DA90, symSize: 0xA0 }
  - { offset: 0x689C4, size: 0x8, addend: 0x0, symName: '__ZN81_$LT$std..io..default_write_fmt..Adapter$LT$T$GT$$u20$as$u20$core..fmt..Write$GT$9write_str17h2d8b7e46a0e35d96E', symObjAddr: 0x2CC74, symBinAddr: 0x10002DB30, symSize: 0x80 }
  - { offset: 0x68B10, size: 0x8, addend: 0x0, symName: '__ZN81_$LT$std..io..default_write_fmt..Adapter$LT$T$GT$$u20$as$u20$core..fmt..Write$GT$9write_str17h380bc0a47db0c372E', symObjAddr: 0x2CCF4, symBinAddr: 0x10002DBB0, symSize: 0x50 }
  - { offset: 0x68B3A, size: 0x8, addend: 0x0, symName: '__ZN81_$LT$std..io..default_write_fmt..Adapter$LT$T$GT$$u20$as$u20$core..fmt..Write$GT$9write_str17h8e69c5e2e9f54588E', symObjAddr: 0x2CE1C, symBinAddr: 0x10002DC00, symSize: 0x50 }
  - { offset: 0x68B64, size: 0x8, addend: 0x0, symName: '__ZN81_$LT$std..io..default_write_fmt..Adapter$LT$T$GT$$u20$as$u20$core..fmt..Write$GT$9write_str17hf38da0e8ae1b5efbE', symObjAddr: 0x2CE6C, symBinAddr: 0x10002DC50, symSize: 0xD8 }
  - { offset: 0x68D26, size: 0x8, addend: 0x0, symName: '__ZN3std2io5impls74_$LT$impl$u20$std..io..Write$u20$for$u20$alloc..vec..Vec$LT$u8$C$A$GT$$GT$5write17hb822c2b238acf3c4E', symObjAddr: 0x27060, symBinAddr: 0x10002C98C, symSize: 0x84 }
  - { offset: 0x68E6B, size: 0x8, addend: 0x0, symName: '__ZN3std2io5impls74_$LT$impl$u20$std..io..Write$u20$for$u20$alloc..vec..Vec$LT$u8$C$A$GT$$GT$14write_vectored17h3b2a452d1d260808E', symObjAddr: 0x270E4, symBinAddr: 0x10002CA10, symSize: 0x174 }
  - { offset: 0x690B8, size: 0x8, addend: 0x0, symName: '__ZN3std2io5impls74_$LT$impl$u20$std..io..Write$u20$for$u20$alloc..vec..Vec$LT$u8$C$A$GT$$GT$17is_write_vectored17h85e25b333c28438fE', symObjAddr: 0x27258, symBinAddr: 0x10002CB84, symSize: 0x8 }
  - { offset: 0x690D3, size: 0x8, addend: 0x0, symName: '__ZN3std2io5impls74_$LT$impl$u20$std..io..Write$u20$for$u20$alloc..vec..Vec$LT$u8$C$A$GT$$GT$9write_all17h4986f5d3d6bca366E', symObjAddr: 0x27260, symBinAddr: 0x10002CB8C, symSize: 0x80 }
  - { offset: 0x6921F, size: 0x8, addend: 0x0, symName: '__ZN3std2io5impls74_$LT$impl$u20$std..io..Write$u20$for$u20$alloc..vec..Vec$LT$u8$C$A$GT$$GT$18write_all_vectored17h0ce1bbe6949613dfE', symObjAddr: 0x272E0, symBinAddr: 0x10002CC0C, symSize: 0x168 }
  - { offset: 0x6924A, size: 0x8, addend: 0x0, symName: '__ZN3std2io5impls74_$LT$impl$u20$std..io..Write$u20$for$u20$alloc..vec..Vec$LT$u8$C$A$GT$$GT$18write_all_vectored17h0ce1bbe6949613dfE', symObjAddr: 0x272E0, symBinAddr: 0x10002CC0C, symSize: 0x168 }
  - { offset: 0x6925F, size: 0x8, addend: 0x0, symName: '__ZN3std2io5impls74_$LT$impl$u20$std..io..Write$u20$for$u20$alloc..vec..Vec$LT$u8$C$A$GT$$GT$18write_all_vectored17h0ce1bbe6949613dfE', symObjAddr: 0x272E0, symBinAddr: 0x10002CC0C, symSize: 0x168 }
  - { offset: 0x69274, size: 0x8, addend: 0x0, symName: '__ZN3std2io5impls74_$LT$impl$u20$std..io..Write$u20$for$u20$alloc..vec..Vec$LT$u8$C$A$GT$$GT$18write_all_vectored17h0ce1bbe6949613dfE', symObjAddr: 0x272E0, symBinAddr: 0x10002CC0C, symSize: 0x168 }
  - { offset: 0x69288, size: 0x8, addend: 0x0, symName: '__ZN3std2io5impls74_$LT$impl$u20$std..io..Write$u20$for$u20$alloc..vec..Vec$LT$u8$C$A$GT$$GT$18write_all_vectored17h0ce1bbe6949613dfE', symObjAddr: 0x272E0, symBinAddr: 0x10002CC0C, symSize: 0x168 }
  - { offset: 0x694A1, size: 0x8, addend: 0x0, symName: '__ZN3std2io5impls74_$LT$impl$u20$std..io..Write$u20$for$u20$alloc..vec..Vec$LT$u8$C$A$GT$$GT$5flush17h2126ea47a926e7aeE', symObjAddr: 0x27448, symBinAddr: 0x10002CD74, symSize: 0x8 }
  - { offset: 0x69645, size: 0x8, addend: 0x0, symName: __ZN3std2io5error14repr_bitpacked11decode_repr17hcdf376292fdb65d2E, symObjAddr: 0x26804, symBinAddr: 0x10002C490, symSize: 0x60 }
  - { offset: 0x696AE, size: 0x8, addend: 0x0, symName: '__ZN58_$LT$std..io..error..Error$u20$as$u20$core..fmt..Debug$GT$3fmt17hdf9c13a9945d5c29E', symObjAddr: 0x26864, symBinAddr: 0x10002C4F0, symSize: 0x4 }
  - { offset: 0x696EE, size: 0x8, addend: 0x0, symName: '__ZN3std2io5error83_$LT$impl$u20$core..fmt..Debug$u20$for$u20$std..io..error..repr_bitpacked..Repr$GT$3fmt17h0f29a0fd45fc1bcfE', symObjAddr: 0x26AD8, symBinAddr: 0x10002C4F4, symSize: 0x294 }
  - { offset: 0x69939, size: 0x8, addend: 0x0, symName: '__ZN60_$LT$std..io..error..Error$u20$as$u20$core..fmt..Display$GT$3fmt17habdd18ca5ab4309eE', symObjAddr: 0x26D6C, symBinAddr: 0x10002C788, symSize: 0x204 }
  - { offset: 0x69B98, size: 0x8, addend: 0x0, symName: '__ZN62_$LT$std..io..error..ErrorKind$u20$as$u20$core..fmt..Debug$GT$3fmt17h2d20d17aac9eb11fE', symObjAddr: 0x3D518, symBinAddr: 0x1000325A0, symSize: 0x28 }
  - { offset: 0x69BFF, size: 0x8, addend: 0x0, symName: __ZN3std2io5Write9write_all17h968f08b438f23232E, symObjAddr: 0x2CFB8, symBinAddr: 0x10002DD28, symSize: 0xB8 }
  - { offset: 0x69D1A, size: 0x8, addend: 0x0, symName: __ZN3std2io5Write18write_all_vectored17hbcff9dde3b80a800E, symObjAddr: 0x2D070, symBinAddr: 0x10002DDE0, symSize: 0x1CC }
  - { offset: 0x69FCB, size: 0x8, addend: 0x0, symName: __ZN3std2io5Write9write_fmt17h00b4007fff731b84E, symObjAddr: 0x2D23C, symBinAddr: 0x10002DFAC, symSize: 0x128 }
  - { offset: 0x6A215, size: 0x8, addend: 0x0, symName: __ZN3std2io5Write9write_fmt17h1c9f4e65a2760494E, symObjAddr: 0x2D364, symBinAddr: 0x10002E0D4, symSize: 0x128 }
  - { offset: 0x6A45F, size: 0x8, addend: 0x0, symName: __ZN3std2io5Write9write_fmt17h619de9749845ad1bE, symObjAddr: 0x2D48C, symBinAddr: 0x10002E1FC, symSize: 0x128 }
  - { offset: 0x6A6C6, size: 0x8, addend: 0x0, symName: '__ZN3std2io8buffered9bufwriter18BufWriter$LT$W$GT$9flush_buf17h4ecd4f227cafd79eE', symObjAddr: 0x25DC8, symBinAddr: 0x10002C298, symSize: 0x1F8 }
  - { offset: 0x6AC34, size: 0x8, addend: 0x0, symName: '__ZN3std2io8buffered9bufwriter18BufWriter$LT$W$GT$14write_all_cold17hdc683320716deeb9E', symObjAddr: 0x2614C, symBinAddr: 0x10004D90C, symSize: 0x128 }
  - { offset: 0x6B06D, size: 0x8, addend: 0x0, symName: '__ZN61_$LT$$RF$std..io..stdio..Stdout$u20$as$u20$std..io..Write$GT$9write_fmt17h595bf9d2c2ff9fe0E', symObjAddr: 0x2A280, symBinAddr: 0x10002CD7C, symSize: 0x190 }
  - { offset: 0x6B475, size: 0x8, addend: 0x0, symName: '__ZN61_$LT$std..io..stdio..StdoutLock$u20$as$u20$std..io..Write$GT$9write_all17h373dc2ca22e35da8E', symObjAddr: 0x2A72C, symBinAddr: 0x10002CF0C, symSize: 0x268 }
  - { offset: 0x6BC07, size: 0x8, addend: 0x0, symName: __ZN3std2io5stdio6Stderr4lock17h2c1838d646f36f3bE, symObjAddr: 0x2ACCC, symBinAddr: 0x10002D174, symSize: 0xE4 }
  - { offset: 0x6BEBF, size: 0x8, addend: 0x0, symName: '__ZN61_$LT$$RF$std..io..stdio..Stderr$u20$as$u20$std..io..Write$GT$9write_fmt17h4951ea7a8e2d9c1cE', symObjAddr: 0x2B43C, symBinAddr: 0x10002D258, symSize: 0x190 }
  - { offset: 0x6C2B3, size: 0x8, addend: 0x0, symName: '__ZN61_$LT$std..io..stdio..StderrLock$u20$as$u20$std..io..Write$GT$9write_all17he3efbae95858efe9E', symObjAddr: 0x2B7E0, symBinAddr: 0x10002D3E8, symSize: 0x114 }
  - { offset: 0x6C5FD, size: 0x8, addend: 0x0, symName: __ZN3std2io5stdio22try_set_output_capture17h02e4e20053907c68E, symObjAddr: 0x2BA9C, symBinAddr: 0x10002D4FC, symSize: 0xEC }
  - { offset: 0x6C89E, size: 0x8, addend: 0x0, symName: __ZN3std2io5stdio31print_to_buffer_if_capture_used17hcd908728fda25d1dE, symObjAddr: 0x2BB88, symBinAddr: 0x10002D5E8, symSize: 0x20C }
  - { offset: 0x6CF92, size: 0x8, addend: 0x0, symName: __ZN3std2io5stdio6_print17h934b25807d0b964aE, symObjAddr: 0x2BE68, symBinAddr: 0x10002D7F4, symSize: 0xE4 }
  - { offset: 0x6D099, size: 0x8, addend: 0x0, symName: __ZN3std2io5stdio7_eprint17hb6a163456652f820E, symObjAddr: 0x2BF4C, symBinAddr: 0x10002D8D8, symSize: 0xC8 }
  - { offset: 0x6D16F, size: 0x8, addend: 0x0, symName: __ZN3std2io19default_read_to_end16small_probe_read17ha70487dca9140dd9E, symObjAddr: 0x2C90C, symBinAddr: 0x10002D9A0, symSize: 0xF0 }
  - { offset: 0x6D3EF, size: 0x8, addend: 0x0, symName: '__ZN3std4sync6poison4once4Once15call_once_force28_$u7b$$u7b$closure$u7d$$u7d$17h5fcd666c0990a5cbE', symObjAddr: 0x36574, symBinAddr: 0x10002FC90, symSize: 0x78 }
  - { offset: 0x6D52C, size: 0x8, addend: 0x0, symName: '__ZN3std4sync6poison4once4Once15call_once_force28_$u7b$$u7b$closure$u7d$$u7d$17h8900ddc7fabd604dE', symObjAddr: 0x365EC, symBinAddr: 0x10002FD08, symSize: 0x60 }
  - { offset: 0x6D5E9, size: 0x8, addend: 0x0, symName: '__ZN3std4sync6poison4once4Once9call_once28_$u7b$$u7b$closure$u7d$$u7d$17h09c800c11a2781e6E', symObjAddr: 0x36154, symBinAddr: 0x10002FA6C, symSize: 0x224 }
  - { offset: 0x6DF73, size: 0x8, addend: 0x0, symName: '__ZN3std4sync9once_lock17OnceLock$LT$T$GT$10initialize17ha33e4a2206d74ec9E', symObjAddr: 0x36EF0, symBinAddr: 0x10004DA40, symSize: 0x64 }
  - { offset: 0x6DF9E, size: 0x8, addend: 0x0, symName: '__ZN3std4sync9once_lock17OnceLock$LT$T$GT$10initialize17ha33e4a2206d74ec9E', symObjAddr: 0x36EF0, symBinAddr: 0x10004DA40, symSize: 0x64 }
  - { offset: 0x6DFB2, size: 0x8, addend: 0x0, symName: '__ZN3std4sync9once_lock17OnceLock$LT$T$GT$10initialize17ha33e4a2206d74ec9E', symObjAddr: 0x36EF0, symBinAddr: 0x10004DA40, symSize: 0x64 }
  - { offset: 0x6DFC6, size: 0x8, addend: 0x0, symName: '__ZN3std4sync9once_lock17OnceLock$LT$T$GT$10initialize17ha33e4a2206d74ec9E', symObjAddr: 0x36EF0, symBinAddr: 0x10004DA40, symSize: 0x64 }
  - { offset: 0x6DFDC, size: 0x8, addend: 0x0, symName: '__ZN3std4sync9once_lock17OnceLock$LT$T$GT$10initialize17hd570d1d77e17be18E', symObjAddr: 0x36FB0, symBinAddr: 0x10004DAA4, symSize: 0x68 }
  - { offset: 0x6E007, size: 0x8, addend: 0x0, symName: '__ZN3std4sync9once_lock17OnceLock$LT$T$GT$10initialize17hd570d1d77e17be18E', symObjAddr: 0x36FB0, symBinAddr: 0x10004DAA4, symSize: 0x68 }
  - { offset: 0x6E01B, size: 0x8, addend: 0x0, symName: '__ZN3std4sync9once_lock17OnceLock$LT$T$GT$10initialize17hd570d1d77e17be18E', symObjAddr: 0x36FB0, symBinAddr: 0x10004DAA4, symSize: 0x68 }
  - { offset: 0x6E02F, size: 0x8, addend: 0x0, symName: '__ZN3std4sync9once_lock17OnceLock$LT$T$GT$10initialize17hd570d1d77e17be18E', symObjAddr: 0x36FB0, symBinAddr: 0x10004DAA4, symSize: 0x68 }
  - { offset: 0x6E1FD, size: 0x8, addend: 0x0, symName: __ZN3std12backtrace_rs9symbolize5gimli7Context3new17hb91d93e0b4232d15E, symObjAddr: 0x48BB8, symBinAddr: 0x100037720, symSize: 0x1FEC }
  - { offset: 0x71EA4, size: 0x8, addend: 0x0, symName: __ZN3std12backtrace_rs9symbolize5gimli7Context11find_frames17h23a2097c4c7962bdE, symObjAddr: 0x4ABA4, symBinAddr: 0x10003970C, symSize: 0x390 }
  - { offset: 0x722C9, size: 0x8, addend: 0x0, symName: __ZN3std12backtrace_rs9symbolize5gimli5macho6Object5parse17h5fdabfb181ac69c7E, symObjAddr: 0x4DA84, symBinAddr: 0x10003C5D4, symSize: 0xC28 }
  - { offset: 0x740DD, size: 0x8, addend: 0x0, symName: __ZN3std12backtrace_rs9symbolize5gimli5macho6Object7section17hc169392917328d37E, symObjAddr: 0x4E6AC, symBinAddr: 0x10003D1FC, symSize: 0x154 }
  - { offset: 0x74521, size: 0x8, addend: 0x0, symName: __ZN3std12backtrace_rs9symbolize5gimli5macho11find_header17h55f69df1f605b83cE, symObjAddr: 0x4D8B0, symBinAddr: 0x10003C400, symSize: 0x1D4 }
  - { offset: 0x74540, size: 0x8, addend: 0x0, symName: __ZN3std12backtrace_rs9symbolize5gimli5macho11find_header17h55f69df1f605b83cE, symObjAddr: 0x4D8B0, symBinAddr: 0x10003C400, symSize: 0x1D4 }
  - { offset: 0x74556, size: 0x8, addend: 0x0, symName: __ZN3std12backtrace_rs9symbolize5gimli5macho11find_header17h55f69df1f605b83cE, symObjAddr: 0x4D8B0, symBinAddr: 0x10003C400, symSize: 0x1D4 }
  - { offset: 0x7456C, size: 0x8, addend: 0x0, symName: __ZN3std12backtrace_rs9symbolize5gimli5macho11find_header17h55f69df1f605b83cE, symObjAddr: 0x4D8B0, symBinAddr: 0x10003C400, symSize: 0x1D4 }
  - { offset: 0x74581, size: 0x8, addend: 0x0, symName: __ZN3std12backtrace_rs9symbolize5gimli5macho11find_header17h55f69df1f605b83cE, symObjAddr: 0x4D8B0, symBinAddr: 0x10003C400, symSize: 0x1D4 }
  - { offset: 0x74596, size: 0x8, addend: 0x0, symName: __ZN3std12backtrace_rs9symbolize5gimli5macho11find_header17h55f69df1f605b83cE, symObjAddr: 0x4D8B0, symBinAddr: 0x10003C400, symSize: 0x1D4 }
  - { offset: 0x745AB, size: 0x8, addend: 0x0, symName: __ZN3std12backtrace_rs9symbolize5gimli5macho11find_header17h55f69df1f605b83cE, symObjAddr: 0x4D8B0, symBinAddr: 0x10003C400, symSize: 0x1D4 }
  - { offset: 0x74CE2, size: 0x8, addend: 0x0, symName: __ZN3std12backtrace_rs9symbolize5gimli4mmap17h887dd2c3e0662184E, symObjAddr: 0x4AF34, symBinAddr: 0x100039A9C, symSize: 0x174 }
  - { offset: 0x75380, size: 0x8, addend: 0x0, symName: __ZN3std12backtrace_rs9symbolize5gimli7resolve17h64427fc4373c0585E, symObjAddr: 0x4B0A8, symBinAddr: 0x100039C10, symSize: 0x27F0 }
  - { offset: 0x7B0CA, size: 0x8, addend: 0x0, symName: __ZN3std12backtrace_rs9symbolize6Symbol4name17he61211ceb05526e3E, symObjAddr: 0x3C9D8, symBinAddr: 0x100031F20, symSize: 0xE4 }
  - { offset: 0x7B201, size: 0x8, addend: 0x0, symName: '__ZN79_$LT$std..backtrace_rs..symbolize..SymbolName$u20$as$u20$core..fmt..Display$GT$3fmt17h4c4c1b4de2e31d53E', symObjAddr: 0x3CBF4, symBinAddr: 0x100032004, symSize: 0x100 }
  - { offset: 0x7B32A, size: 0x8, addend: 0x0, symName: __ZN3std12backtrace_rs9backtrace9libunwind5trace8trace_fn17h78394d9ee4ccceffE, symObjAddr: 0x48B70, symBinAddr: 0x1000376D8, symSize: 0x48 }
  - { offset: 0x7B3FB, size: 0x8, addend: 0x0, symName: __ZN3std12backtrace_rs5print17BacktraceFrameFmt21print_raw_with_column17h834ed90aab55fe6fE, symObjAddr: 0x3CDF4, symBinAddr: 0x100032104, symSize: 0x304 }
  - { offset: 0x7B51E, size: 0x8, addend: 0x0, symName: __ZN3std12backtrace_rs5print17BacktraceFrameFmt14print_fileline17h4f1f1a459d4f9b31E, symObjAddr: 0x3D0F8, symBinAddr: 0x100032408, symSize: 0x198 }
  - { offset: 0x7B6E2, size: 0x8, addend: 0x0, symName: __ZN3std6thread7current12init_current17h772b2ceaca17750fE, symObjAddr: 0x1F8C0, symBinAddr: 0x10004D770, symSize: 0x164 }
  - { offset: 0x7BA3F, size: 0x8, addend: 0x0, symName: __ZN3std6thread6Thread3new17h61d7fe27c37d738eE, symObjAddr: 0x207B0, symBinAddr: 0x10002AFAC, symSize: 0x158 }
  - { offset: 0x7BE66, size: 0x8, addend: 0x0, symName: __ZN3std6thread8ThreadId3new9exhausted17hc87ba1ebc9ec3293E, symObjAddr: 0x20668, symBinAddr: 0x10004D8D4, symSize: 0x38 }
  - { offset: 0x7BEA3, size: 0x8, addend: 0x0, symName: '__ZN118_$LT$std..thread..thread_name_string..ThreadNameString$u20$as$u20$core..convert..From$LT$alloc..string..String$GT$$GT$4from17h451023573f089af3E', symObjAddr: 0x206A0, symBinAddr: 0x10002AE9C, symSize: 0x110 }
  - { offset: 0x7C0CE, size: 0x8, addend: 0x0, symName: __ZN3std2rt15handle_rt_panic17h541ba1db327ed283E, symObjAddr: 0x1EE7C, symBinAddr: 0x10004D72C, symSize: 0x44 }
  - { offset: 0x7C0FE, size: 0x8, addend: 0x0, symName: __ZN3std2rt7cleanup17h0e0598d379d3a04fE, symObjAddr: 0x1EEC0, symBinAddr: 0x10002A7A0, symSize: 0x64 }
  - { offset: 0x7C121, size: 0x8, addend: 0x0, symName: __ZN3std2rt7cleanup17h0e0598d379d3a04fE, symObjAddr: 0x1EEC0, symBinAddr: 0x10002A7A0, symSize: 0x64 }
  - { offset: 0x7C135, size: 0x8, addend: 0x0, symName: __ZN3std2rt7cleanup17h0e0598d379d3a04fE, symObjAddr: 0x1EEC0, symBinAddr: 0x10002A7A0, symSize: 0x64 }
  - { offset: 0x7C149, size: 0x8, addend: 0x0, symName: __ZN3std2rt7cleanup17h0e0598d379d3a04fE, symObjAddr: 0x1EEC0, symBinAddr: 0x10002A7A0, symSize: 0x64 }
  - { offset: 0x7C1BF, size: 0x8, addend: 0x0, symName: __ZN3std2rt19lang_start_internal17h9c67c334770c9206E, symObjAddr: 0x1EF24, symBinAddr: 0x10002A804, symSize: 0x698 }
  - { offset: 0x7CD9F, size: 0x8, addend: 0x0, symName: __ZN3std5panic19get_backtrace_style17h39e90e609eb8b5abE, symObjAddr: 0x317C4, symBinAddr: 0x10002E324, symSize: 0x11C }
  - { offset: 0x7CDBD, size: 0x8, addend: 0x0, symName: __ZN3std5panic19get_backtrace_style17h39e90e609eb8b5abE, symObjAddr: 0x317C4, symBinAddr: 0x10002E324, symSize: 0x11C }
  - { offset: 0x7CDD2, size: 0x8, addend: 0x0, symName: __ZN3std5panic19get_backtrace_style17h39e90e609eb8b5abE, symObjAddr: 0x317C4, symBinAddr: 0x10002E324, symSize: 0x11C }
  - { offset: 0x7D236, size: 0x8, addend: 0x0, symName: __ZN3std3env11current_dir17hcf122f2a803df77cE, symObjAddr: 0x21AB8, symBinAddr: 0x10002B104, symSize: 0x1A0 }
  - { offset: 0x7D602, size: 0x8, addend: 0x0, symName: __ZN3std3env7vars_os17h5da3b85263f16da8E, symObjAddr: 0x21C5C, symBinAddr: 0x10002B2A4, symSize: 0x30C }
  - { offset: 0x7DC49, size: 0x8, addend: 0x0, symName: __ZN3std3env4_var17h9dd5e1a62477915dE, symObjAddr: 0x22298, symBinAddr: 0x10002B5B0, symSize: 0x98 }
  - { offset: 0x7DD45, size: 0x8, addend: 0x0, symName: __ZN3std3env7_var_os17h2a5365ce2409b350E, symObjAddr: 0x22330, symBinAddr: 0x10002B648, symSize: 0x164 }
  - { offset: 0x7E03E, size: 0x8, addend: 0x0, symName: __ZN3std2fs11OpenOptions5_open17h0fbed7ef40f371a5E, symObjAddr: 0x24928, symBinAddr: 0x10002B988, symSize: 0x250 }
  - { offset: 0x7E20F, size: 0x8, addend: 0x0, symName: __ZN3std2fs5write5inner17h8aee5eb49f459e31E, symObjAddr: 0x237A8, symBinAddr: 0x10002B858, symSize: 0x130 }
  - { offset: 0x7E547, size: 0x8, addend: 0x0, symName: '__ZN75_$LT$std..fs..ReadDir$u20$as$u20$core..iter..traits..iterator..Iterator$GT$4next17h60ea7641501e923cE', symObjAddr: 0x24F5C, symBinAddr: 0x10002BBD8, symSize: 0x18C }
  - { offset: 0x7E821, size: 0x8, addend: 0x0, symName: __ZN3std2fs10DirBuilder7_create17hdda3853e62cea1b7E, symObjAddr: 0x25350, symBinAddr: 0x10002BD64, symSize: 0xC8 }
  - { offset: 0x7E93A, size: 0x8, addend: 0x0, symName: __ZN3std2fs10DirBuilder14create_dir_all17h99484843811ceb78E, symObjAddr: 0x25418, symBinAddr: 0x10002BE2C, symSize: 0x46C }
  - { offset: 0x7F117, size: 0x8, addend: 0x0, symName: __ZN3std5alloc24default_alloc_error_hook17hbb2afb0af5835e8dE, symObjAddr: 0x3B0F8, symBinAddr: 0x100030CC0, symSize: 0x140 }
  - { offset: 0x7F35A, size: 0x8, addend: 0x0, symName: __RNvCs73fAdSrgOJL_7___rustc11___rdl_alloc, symObjAddr: 0x3B238, symBinAddr: 0x100030E00, symSize: 0x6C }
  - { offset: 0x7F3E0, size: 0x8, addend: 0x0, symName: __RNvCs73fAdSrgOJL_7___rustc13___rdl_dealloc, symObjAddr: 0x3B2A4, symBinAddr: 0x100030E6C, symSize: 0x4 }
  - { offset: 0x7F400, size: 0x8, addend: 0x0, symName: __RNvCs73fAdSrgOJL_7___rustc13___rdl_dealloc, symObjAddr: 0x3B2A4, symBinAddr: 0x100030E6C, symSize: 0x4 }
  - { offset: 0x7F414, size: 0x8, addend: 0x0, symName: __RNvCs73fAdSrgOJL_7___rustc13___rdl_realloc, symObjAddr: 0x3B2A8, symBinAddr: 0x100030E70, symSize: 0xB0 }
  - { offset: 0x7F4F2, size: 0x8, addend: 0x0, symName: __RNvCs73fAdSrgOJL_7___rustc18___rdl_alloc_zeroed, symObjAddr: 0x3B358, symBinAddr: 0x100030F20, symSize: 0x90 }
  - { offset: 0x7F59E, size: 0x8, addend: 0x0, symName: __ZN3std5alloc8rust_oom17hdb6eb131aa920ad3E, symObjAddr: 0x48A7C, symBinAddr: 0x10004E434, symSize: 0x2C }
  - { offset: 0x7F5ED, size: 0x8, addend: 0x0, symName: __RNvCs73fAdSrgOJL_7___rustc8___rg_oom, symObjAddr: 0x48AA8, symBinAddr: 0x10004E460, symSize: 0x18 }
  - { offset: 0x7F65D, size: 0x8, addend: 0x0, symName: '__ZN9addr2line8function17Function$LT$R$GT$14parse_children17hf3df585ce7ac8262E', symObjAddr: 0x1DE2C, symBinAddr: 0x10002975C, symSize: 0xE84 }
  - { offset: 0x80ED8, size: 0x8, addend: 0x0, symName: __ZN9addr2line8function10name_entry17hfdced0c758d2a567E, symObjAddr: 0x1DAC0, symBinAddr: 0x1000293F0, symSize: 0x36C }
  - { offset: 0x8139A, size: 0x8, addend: 0x0, symName: __ZN9addr2line8function9name_attr17h1ce69a4ce3ba7e89E, symObjAddr: 0x1ECB0, symBinAddr: 0x10002A5E0, symSize: 0x1C0 }
  - { offset: 0x815BE, size: 0x8, addend: 0x0, symName: __ZN9addr2line4line11render_file17h41488bb5a6979477E, symObjAddr: 0x1C890, symBinAddr: 0x1000281C0, symSize: 0x4B0 }
  - { offset: 0x81F1D, size: 0x8, addend: 0x0, symName: '__ZN9addr2line4unit16ResUnit$LT$R$GT$25find_function_or_location17h3697563f577d8d9fE', symObjAddr: 0x1CD40, symBinAddr: 0x100028670, symSize: 0x378 }
  - { offset: 0x823F1, size: 0x8, addend: 0x0, symName: '__ZN9addr2line4unit16ResUnit$LT$R$GT$25find_function_or_location28_$u7b$$u7b$closure$u7d$$u7d$17h0d725353a137efa6E', symObjAddr: 0x1D0B8, symBinAddr: 0x1000289E8, symSize: 0x30C }
  - { offset: 0x82796, size: 0x8, addend: 0x0, symName: '__ZN9addr2line16Context$LT$R$GT$9find_unit17hfe70ee874184feb7E', symObjAddr: 0x1C734, symBinAddr: 0x100028064, symSize: 0x15C }
  - { offset: 0x82945, size: 0x8, addend: 0x0, symName: '__ZN9addr2line6lookup30LoopingLookup$LT$T$C$L$C$F$GT$10new_lookup17h479f29027e320fd2E', symObjAddr: 0x1D684, symBinAddr: 0x100028FB4, symSize: 0x43C }
  - { offset: 0x82E21, size: 0x8, addend: 0x0, symName: '__ZN9addr2line5frame18FrameIter$LT$R$GT$4next17hab4653c465939ee8E', symObjAddr: 0x1D3C4, symBinAddr: 0x100028CF4, symSize: 0x2C0 }
  - { offset: 0x8353E, size: 0x8, addend: 0x0, symName: '__ZN5gimli4read4unit18Attribute$LT$R$GT$5value17hf92c28dec7922b31E', symObjAddr: 0x174B8, symBinAddr: 0x1000232E0, symSize: 0x598 }
  - { offset: 0x83957, size: 0x8, addend: 0x0, symName: '__ZN90_$LT$gimli..read..unit..AttributeValue$LT$R$C$Offset$GT$$u20$as$u20$core..clone..Clone$GT$5clone17hcb6071538b682662E', symObjAddr: 0x1C614, symBinAddr: 0x100027FFC, symSize: 0x68 }
  - { offset: 0x839B7, size: 0x8, addend: 0x0, symName: '__ZN5gimli4read4unit32AttributeValue$LT$R$C$Offset$GT$11udata_value17hb0fbf782d56f4d3fE', symObjAddr: 0x17D08, symBinAddr: 0x100023B30, symSize: 0x84 }
  - { offset: 0x83A12, size: 0x8, addend: 0x0, symName: __ZN5gimli4read4unit15parse_attribute17h04e99a6e8528e9b0E, symObjAddr: 0x16008, symBinAddr: 0x100021E30, symSize: 0xF74 }
  - { offset: 0x865D1, size: 0x8, addend: 0x0, symName: __ZN5gimli4read4unit15skip_attributes17h34aae5d204503f89E, symObjAddr: 0x16F7C, symBinAddr: 0x100022DA4, symSize: 0x53C }
  - { offset: 0x86FBB, size: 0x8, addend: 0x0, symName: '__ZN5gimli4read4unit22EntriesCursor$LT$R$GT$10next_entry17hdbe6c325dc93b25aE', symObjAddr: 0x17A50, symBinAddr: 0x100023878, symSize: 0x2B8 }
  - { offset: 0x8757F, size: 0x8, addend: 0x0, symName: '__ZN5gimli4read4unit33DebugInfoUnitHeadersIter$LT$R$GT$4next17ha7bc19eef22d5132E', symObjAddr: 0x17D8C, symBinAddr: 0x100023BB4, symSize: 0x518 }
  - { offset: 0x886C9, size: 0x8, addend: 0x0, symName: '__ZN5gimli4read5dwarf13Unit$LT$R$GT$3new17h686262bf18a65175E', symObjAddr: 0x182A4, symBinAddr: 0x1000240CC, symSize: 0x1C84 }
  - { offset: 0x8BE22, size: 0x8, addend: 0x0, symName: '__ZN5gimli4read5dwarf14Dwarf$LT$R$GT$11attr_string17h1e958f109b0daeb0E', symObjAddr: 0x19F28, symBinAddr: 0x100025D50, symSize: 0x220 }
  - { offset: 0x8C80E, size: 0x8, addend: 0x0, symName: __ZN5gimli4read6reader6Reader11read_offset17hfc4380759744d0ccE, symObjAddr: 0x1A808, symBinAddr: 0x100026630, symSize: 0xB4 }
  - { offset: 0x8CA2D, size: 0x8, addend: 0x0, symName: __ZN5gimli4read6reader6Reader12read_sleb12817h1bb18c7db89a5c45E, symObjAddr: 0x1A8BC, symBinAddr: 0x1000266E4, symSize: 0x23C }
  - { offset: 0x8CB09, size: 0x8, addend: 0x0, symName: __ZN5gimli4read6reader6Reader12read_uleb12817he2bb007cca6a74e8E, symObjAddr: 0x1AAF8, symBinAddr: 0x100026920, symSize: 0xB8 }
  - { offset: 0x8CBB0, size: 0x8, addend: 0x0, symName: __ZN5gimli4read6reader6Reader17read_sized_offset17h350128ac40d4d88bE, symObjAddr: 0x1ABB0, symBinAddr: 0x1000269D8, symSize: 0x10C }
  - { offset: 0x8D31C, size: 0x8, addend: 0x0, symName: '__ZN5gimli4read4line27FileEntry$LT$R$C$Offset$GT$5parse17he72fe970b5aeb997E', symObjAddr: 0x15DEC, symBinAddr: 0x100021C14, symSize: 0x21C }
  - { offset: 0x8D573, size: 0x8, addend: 0x0, symName: __ZN5gimli4read4line13parse_file_v517h17de60bb2846bd30E, symObjAddr: 0x14E6C, symBinAddr: 0x100020C94, symSize: 0x2B4 }
  - { offset: 0x8D6EB, size: 0x8, addend: 0x0, symName: __ZN5gimli4read4line15FileEntryFormat5parse17h5b94835e6d431828E, symObjAddr: 0x15120, symBinAddr: 0x100020F48, symSize: 0x370 }
  - { offset: 0x8DEBE, size: 0x8, addend: 0x0, symName: __ZN5gimli4read4line15parse_attribute17h44b66ac1f1fd4d70E, symObjAddr: 0x15490, symBinAddr: 0x1000212B8, symSize: 0x874 }
  - { offset: 0x8F678, size: 0x8, addend: 0x0, symName: __ZN5gimli4read4line18parse_directory_v517hc1cf6537e0e6b55eE, symObjAddr: 0x15D04, symBinAddr: 0x100021B2C, symSize: 0xE8 }
  - { offset: 0x8F803, size: 0x8, addend: 0x0, symName: '__ZN5gimli4read8rnglists20RngListIter$LT$R$GT$4next17h3cf0be4737bd2bfbE', symObjAddr: 0x1AF64, symBinAddr: 0x100026D8C, symSize: 0xC70 }
  - { offset: 0x9214E, size: 0x8, addend: 0x0, symName: '__ZN5gimli4read5index18UnitIndex$LT$R$GT$5parse17hb6f2329c704ae441E', symObjAddr: 0x1A148, symBinAddr: 0x100025F70, symSize: 0x6C0 }
  - { offset: 0x926C2, size: 0x8, addend: 0x0, symName: '__ZN5gimli4read7aranges30ArangeHeader$LT$R$C$Offset$GT$5parse17ha7ab83fde3103809E', symObjAddr: 0x1ACBC, symBinAddr: 0x100026AE4, symSize: 0x2A8 }
  - { offset: 0x9337F, size: 0x8, addend: 0x0, symName: __ZN6object4read7archive13ArchiveMember5parse17h529fa28f4fec8200E, symObjAddr: 0x1C00C, symBinAddr: 0x100027A58, symSize: 0x304 }
  - { offset: 0x9339D, size: 0x8, addend: 0x0, symName: __ZN6object4read7archive13ArchiveMember5parse17h529fa28f4fec8200E, symObjAddr: 0x1C00C, symBinAddr: 0x100027A58, symSize: 0x304 }
  - { offset: 0x933B2, size: 0x8, addend: 0x0, symName: __ZN6object4read7archive13ArchiveMember5parse17h529fa28f4fec8200E, symObjAddr: 0x1C00C, symBinAddr: 0x100027A58, symSize: 0x304 }
  - { offset: 0x93BAC, size: 0x8, addend: 0x0, symName: __ZN6object4read7archive23parse_bsd_extended_name17ha21d7e6d1cf5441dE, symObjAddr: 0x1C310, symBinAddr: 0x100027D5C, symSize: 0x260 }
  - { offset: 0x949F3, size: 0x8, addend: 0x0, symName: _OUTLINED_FUNCTION_0, symObjAddr: 0x4E800, symBinAddr: 0x10003D350, symSize: 0x8 }
  - { offset: 0x94A0B, size: 0x8, addend: 0x0, symName: _OUTLINED_FUNCTION_1, symObjAddr: 0x4E808, symBinAddr: 0x10003D358, symSize: 0xC }
  - { offset: 0x94A23, size: 0x8, addend: 0x0, symName: _OUTLINED_FUNCTION_2, symObjAddr: 0x4E814, symBinAddr: 0x10003D364, symSize: 0xC }
  - { offset: 0x94A3B, size: 0x8, addend: 0x0, symName: _OUTLINED_FUNCTION_3, symObjAddr: 0x4E820, symBinAddr: 0x10003D370, symSize: 0xC }
  - { offset: 0x94A53, size: 0x8, addend: 0x0, symName: _OUTLINED_FUNCTION_4, symObjAddr: 0x4E82C, symBinAddr: 0x10003D37C, symSize: 0xC }
  - { offset: 0x94A6B, size: 0x8, addend: 0x0, symName: _OUTLINED_FUNCTION_5, symObjAddr: 0x4E838, symBinAddr: 0x10003D388, symSize: 0x8 }
  - { offset: 0x94A83, size: 0x8, addend: 0x0, symName: _OUTLINED_FUNCTION_6, symObjAddr: 0x4E840, symBinAddr: 0x10003D390, symSize: 0x24 }
  - { offset: 0x94A9B, size: 0x8, addend: 0x0, symName: _OUTLINED_FUNCTION_7, symObjAddr: 0x4E864, symBinAddr: 0x10003D3B4, symSize: 0x10 }
  - { offset: 0x94AB3, size: 0x8, addend: 0x0, symName: _OUTLINED_FUNCTION_8, symObjAddr: 0x4E874, symBinAddr: 0x10003D3C4, symSize: 0x8 }
  - { offset: 0x94ACB, size: 0x8, addend: 0x0, symName: _OUTLINED_FUNCTION_9, symObjAddr: 0x4E87C, symBinAddr: 0x10003D3CC, symSize: 0x8 }
  - { offset: 0x94AE3, size: 0x8, addend: 0x0, symName: _OUTLINED_FUNCTION_10, symObjAddr: 0x4E884, symBinAddr: 0x10003D3D4, symSize: 0x24 }
  - { offset: 0x94AFB, size: 0x8, addend: 0x0, symName: _OUTLINED_FUNCTION_11, symObjAddr: 0x4E8A8, symBinAddr: 0x10003D3F8, symSize: 0x20 }
  - { offset: 0x94B13, size: 0x8, addend: 0x0, symName: _OUTLINED_FUNCTION_12, symObjAddr: 0x4E8C8, symBinAddr: 0x10003D418, symSize: 0x8 }
  - { offset: 0x94B2B, size: 0x8, addend: 0x0, symName: _OUTLINED_FUNCTION_13, symObjAddr: 0x4E8D0, symBinAddr: 0x10003D420, symSize: 0x8 }
  - { offset: 0x94B43, size: 0x8, addend: 0x0, symName: _OUTLINED_FUNCTION_14, symObjAddr: 0x4E8D8, symBinAddr: 0x10003D428, symSize: 0x8 }
  - { offset: 0x94B5B, size: 0x8, addend: 0x0, symName: _OUTLINED_FUNCTION_15, symObjAddr: 0x4E8E0, symBinAddr: 0x10003D430, symSize: 0x8 }
  - { offset: 0x94B73, size: 0x8, addend: 0x0, symName: _OUTLINED_FUNCTION_16, symObjAddr: 0x4E8E8, symBinAddr: 0x10003D438, symSize: 0x8 }
  - { offset: 0x94B8B, size: 0x8, addend: 0x0, symName: _OUTLINED_FUNCTION_17, symObjAddr: 0x4E8F0, symBinAddr: 0x10003D440, symSize: 0x10 }
  - { offset: 0x94BA3, size: 0x8, addend: 0x0, symName: _OUTLINED_FUNCTION_18, symObjAddr: 0x4E900, symBinAddr: 0x10003D450, symSize: 0x10 }
  - { offset: 0x94BBB, size: 0x8, addend: 0x0, symName: _OUTLINED_FUNCTION_19, symObjAddr: 0x4E910, symBinAddr: 0x10003D460, symSize: 0x10 }
  - { offset: 0x94BD3, size: 0x8, addend: 0x0, symName: _OUTLINED_FUNCTION_20, symObjAddr: 0x4E920, symBinAddr: 0x10003D470, symSize: 0x10 }
  - { offset: 0x94BEB, size: 0x8, addend: 0x0, symName: _OUTLINED_FUNCTION_21, symObjAddr: 0x4E930, symBinAddr: 0x10003D480, symSize: 0xC }
  - { offset: 0x94C03, size: 0x8, addend: 0x0, symName: _OUTLINED_FUNCTION_22, symObjAddr: 0x4E93C, symBinAddr: 0x10003D48C, symSize: 0x18 }
  - { offset: 0x94C1B, size: 0x8, addend: 0x0, symName: _OUTLINED_FUNCTION_23, symObjAddr: 0x4E954, symBinAddr: 0x10003D4A4, symSize: 0x8 }
  - { offset: 0x94C33, size: 0x8, addend: 0x0, symName: _OUTLINED_FUNCTION_24, symObjAddr: 0x4E95C, symBinAddr: 0x10003D4AC, symSize: 0xC }
  - { offset: 0x94C4B, size: 0x8, addend: 0x0, symName: _OUTLINED_FUNCTION_25, symObjAddr: 0x4E968, symBinAddr: 0x10003D4B8, symSize: 0xC }
  - { offset: 0x94C63, size: 0x8, addend: 0x0, symName: _OUTLINED_FUNCTION_26, symObjAddr: 0x4E974, symBinAddr: 0x10003D4C4, symSize: 0x8 }
  - { offset: 0x94C7B, size: 0x8, addend: 0x0, symName: _OUTLINED_FUNCTION_27, symObjAddr: 0x4E97C, symBinAddr: 0x10003D4CC, symSize: 0x8 }
  - { offset: 0x94C93, size: 0x8, addend: 0x0, symName: _OUTLINED_FUNCTION_28, symObjAddr: 0x4E984, symBinAddr: 0x10003D4D4, symSize: 0xC }
  - { offset: 0x94CAB, size: 0x8, addend: 0x0, symName: _OUTLINED_FUNCTION_29, symObjAddr: 0x4E990, symBinAddr: 0x10003D4E0, symSize: 0xC }
  - { offset: 0x94CC3, size: 0x8, addend: 0x0, symName: _OUTLINED_FUNCTION_30, symObjAddr: 0x4E99C, symBinAddr: 0x10003D4EC, symSize: 0xC }
  - { offset: 0x94CDB, size: 0x8, addend: 0x0, symName: _OUTLINED_FUNCTION_31, symObjAddr: 0x4E9A8, symBinAddr: 0x10003D4F8, symSize: 0x8 }
  - { offset: 0x94CF3, size: 0x8, addend: 0x0, symName: _OUTLINED_FUNCTION_32, symObjAddr: 0x4E9B0, symBinAddr: 0x10003D500, symSize: 0x10 }
  - { offset: 0x94D0B, size: 0x8, addend: 0x0, symName: _OUTLINED_FUNCTION_33, symObjAddr: 0x4E9C0, symBinAddr: 0x10003D510, symSize: 0x14 }
  - { offset: 0x94D23, size: 0x8, addend: 0x0, symName: _OUTLINED_FUNCTION_34, symObjAddr: 0x4E9D4, symBinAddr: 0x10003D524, symSize: 0x14 }
  - { offset: 0x94D3B, size: 0x8, addend: 0x0, symName: _OUTLINED_FUNCTION_35, symObjAddr: 0x4E9E8, symBinAddr: 0x10003D538, symSize: 0x14 }
  - { offset: 0x94D53, size: 0x8, addend: 0x0, symName: _OUTLINED_FUNCTION_36, symObjAddr: 0x4E9FC, symBinAddr: 0x10003D54C, symSize: 0x14 }
  - { offset: 0x94D89, size: 0x8, addend: 0x0, symName: '__ZN4core3ptr49drop_in_place$LT$panic_unwind..imp..Exception$GT$17h527397a192ffb8f1E', symObjAddr: 0x0, symBinAddr: 0x10003D560, symSize: 0x78 }
  - { offset: 0x94DAF, size: 0x8, addend: 0x0, symName: '__ZN4core3ptr49drop_in_place$LT$panic_unwind..imp..Exception$GT$17h527397a192ffb8f1E', symObjAddr: 0x0, symBinAddr: 0x10003D560, symSize: 0x78 }
  - { offset: 0x94EB6, size: 0x8, addend: 0x0, symName: '__ZN4core3ptr74drop_in_place$LT$alloc..boxed..Box$LT$panic_unwind..imp..Exception$GT$$GT$17ha4260977db93ebb9E', symObjAddr: 0x78, symBinAddr: 0x10003D5D8, symSize: 0x8C }
  - { offset: 0x9517E, size: 0x8, addend: 0x0, symName: __ZN12panic_unwind3imp5panic17exception_cleanup17h2bbea2a6f8ecfebbE, symObjAddr: 0x20C, symBinAddr: 0x10003D76C, symSize: 0x18 }
  - { offset: 0x9519A, size: 0x8, addend: 0x0, symName: __RNvCs73fAdSrgOJL_7___rustc20___rust_panic_cleanup, symObjAddr: 0x104, symBinAddr: 0x10003D664, symSize: 0x68 }
  - { offset: 0x95240, size: 0x8, addend: 0x0, symName: __RNvCs73fAdSrgOJL_7___rustc18___rust_start_panic, symObjAddr: 0x16C, symBinAddr: 0x10003D6CC, symSize: 0xA0 }
  - { offset: 0x954C3, size: 0x8, addend: 0x0, symName: '__ZN69_$LT$core..alloc..layout..LayoutError$u20$as$u20$core..fmt..Debug$GT$3fmt17h13fbca3ca3dd174dE', symObjAddr: 0x3B8, symBinAddr: 0x100044FE4, symSize: 0x14 }
  - { offset: 0x957B0, size: 0x8, addend: 0x0, symName: __ZN5alloc7raw_vec17capacity_overflow17hd8f87080832cecbdE, symObjAddr: 0x3CC, symBinAddr: 0x10004E524, symSize: 0x34 }
  - { offset: 0x957F7, size: 0x8, addend: 0x0, symName: '__ZN5alloc7raw_vec20RawVecInner$LT$A$GT$7reserve21do_reserve_and_handle17h4dd33506b8348a9cE', symObjAddr: 0x4A0, symBinAddr: 0x10004E558, symSize: 0xB0 }
  - { offset: 0x958F9, size: 0x8, addend: 0x0, symName: __ZN5alloc7raw_vec11finish_grow17h38abc94d42a7bc55E, symObjAddr: 0x550, symBinAddr: 0x10004E608, symSize: 0x80 }
  - { offset: 0x9596F, size: 0x8, addend: 0x0, symName: __ZN5alloc7raw_vec12handle_error17h2ea1403ff25ec75cE, symObjAddr: 0x5D0, symBinAddr: 0x10004E688, symSize: 0x18 }
  - { offset: 0x95A69, size: 0x8, addend: 0x0, symName: __ZN5alloc5alloc18handle_alloc_error17h18ccdcfeddefd4c6E, symObjAddr: 0x5E8, symBinAddr: 0x10004E6A0, symSize: 0x18 }
  - { offset: 0x95ADB, size: 0x8, addend: 0x0, symName: __ZN5alloc6string6String15from_utf8_lossy17hbc43f3fc78418a81E, symObjAddr: 0x2E90, symBinAddr: 0x100045314, symSize: 0x23C }
  - { offset: 0x96013, size: 0x8, addend: 0x0, symName: '__ZN98_$LT$alloc..string..String$u20$as$u20$core..convert..From$LT$alloc..borrow..Cow$LT$str$GT$$GT$$GT$4from17h4b68af2740d6abffE', symObjAddr: 0x47BC, symBinAddr: 0x100045550, symSize: 0xB4 }
  - { offset: 0x962AF, size: 0x8, addend: 0x0, symName: '__ZN93_$LT$alloc..collections..btree..mem..replace..PanicGuard$u20$as$u20$core..ops..drop..Drop$GT$4drop17he91a4622e79b07ddE', symObjAddr: 0xE74, symBinAddr: 0x10004E6B8, symSize: 0x4 }
  - { offset: 0x963B0, size: 0x8, addend: 0x0, symName: '__ZN72_$LT$$RF$str$u20$as$u20$alloc..ffi..c_str..CString..new..SpecNewImpl$GT$13spec_new_impl17h19bc653579af59a5E', symObjAddr: 0xEF8, symBinAddr: 0x100044FF8, symSize: 0x114 }
  - { offset: 0x965DC, size: 0x8, addend: 0x0, symName: __ZN5alloc3ffi5c_str7CString19_from_vec_unchecked17h26f80605e3bdda78E, symObjAddr: 0x1150, symBinAddr: 0x10004510C, symSize: 0x160 }
  - { offset: 0x96902, size: 0x8, addend: 0x0, symName: __ZN5alloc3ffi5c_str7CString8from_raw17h1a969b5b39f2d46eE, symObjAddr: 0x12B0, symBinAddr: 0x10004526C, symSize: 0x28 }
  - { offset: 0x96937, size: 0x8, addend: 0x0, symName: '__ZN100_$LT$alloc..ffi..c_str..CString$u20$as$u20$core..convert..From$LT$$RF$core..ffi..c_str..CStr$GT$$GT$4from17h793c5ab38e4e723fE', symObjAddr: 0x17CC, symBinAddr: 0x100045294, symSize: 0x80 }
  - { offset: 0x96A3F, size: 0x8, addend: 0x0, symName: __ZN5alloc4sync32arcinner_layout_for_value_layout17h8c52c76ed82694fdE, symObjAddr: 0x4C48, symBinAddr: 0x100045604, symSize: 0x74 }
  - { offset: 0x96B9D, size: 0x8, addend: 0x0, symName: __ZN4core3num22from_ascii_radix_panic8do_panic7runtime17h9ec10103f7c0716dE, symObjAddr: 0x17C88, symBinAddr: 0x10004EAE8, symSize: 0x44 }
  - { offset: 0x96BD0, size: 0x8, addend: 0x0, symName: __ZN4core3num22from_ascii_radix_panic17h8860cac63b800d2bE, symObjAddr: 0x3FD8, symBinAddr: 0x10004E6BC, symSize: 0xC }
  - { offset: 0x9716F, size: 0x8, addend: 0x0, symName: __ZN4core5slice5index26slice_start_index_len_fail8do_panic7runtime17h429c9cce17a0ea9bE, symObjAddr: 0x1C14C, symBinAddr: 0x10004EC00, symSize: 0x50 }
  - { offset: 0x971A2, size: 0x8, addend: 0x0, symName: __ZN4core5slice5index26slice_start_index_len_fail17haf25ebf915d057aaE, symObjAddr: 0xF0BC, symBinAddr: 0x10004EAB8, symSize: 0xC }
  - { offset: 0x971E8, size: 0x8, addend: 0x0, symName: __ZN4core5slice5index24slice_end_index_len_fail8do_panic7runtime17hdec1e0cff231be1dE, symObjAddr: 0x1C19C, symBinAddr: 0x10004EC50, symSize: 0x50 }
  - { offset: 0x9721B, size: 0x8, addend: 0x0, symName: __ZN4core5slice5index24slice_end_index_len_fail17he89357cd02fca028E, symObjAddr: 0xF0C8, symBinAddr: 0x10004EAC4, symSize: 0xC }
  - { offset: 0x97261, size: 0x8, addend: 0x0, symName: __ZN4core5slice5index22slice_index_order_fail8do_panic7runtime17h6303e3dc084ed840E, symObjAddr: 0x1C1EC, symBinAddr: 0x10004ECA0, symSize: 0x50 }
  - { offset: 0x97294, size: 0x8, addend: 0x0, symName: __ZN4core5slice5index22slice_index_order_fail17he9c8f4194031cd00E, symObjAddr: 0xF0D4, symBinAddr: 0x10004EAD0, symSize: 0xC }
  - { offset: 0x975ED, size: 0x8, addend: 0x0, symName: __ZN4core5slice6memchr14memchr_aligned17hb906e7bc9e85c06eE, symObjAddr: 0xEA94, symBinAddr: 0x1000479B4, symSize: 0xDC }
  - { offset: 0x976C9, size: 0x8, addend: 0x0, symName: __ZN4core5slice6memchr7memrchr17h7ceb156575b1a919E, symObjAddr: 0xEB70, symBinAddr: 0x100047A90, symSize: 0x120 }
  - { offset: 0x97822, size: 0x8, addend: 0x0, symName: __ZN4core5slice4sort6stable5drift11sqrt_approx17hd32bbcccc9c319c0E, symObjAddr: 0xEC90, symBinAddr: 0x100047BB0, symSize: 0x2C }
  - { offset: 0x9789F, size: 0x8, addend: 0x0, symName: __ZN4core5slice4sort6shared9smallsort22panic_on_ord_violation17h87378ecb72803b59E, symObjAddr: 0xECBC, symBinAddr: 0x10004EA80, symSize: 0x38 }
  - { offset: 0x97A22, size: 0x8, addend: 0x0, symName: '__ZN42_$LT$str$u20$as$u20$core..fmt..Display$GT$3fmt17h42462a8471c7143dE', symObjAddr: 0xE768, symBinAddr: 0x10004774C, symSize: 0x14 }
  - { offset: 0x97BD1, size: 0x8, addend: 0x0, symName: __ZN4core3fmt9Formatter12pad_integral17heb070ef6e4499464E, symObjAddr: 0xC07C, symBinAddr: 0x100046694, symSize: 0x3B4 }
  - { offset: 0x97ED2, size: 0x8, addend: 0x0, symName: __ZN4core3fmt9Formatter3pad17h299da9dcc544e21cE, symObjAddr: 0xC4AC, symBinAddr: 0x100046AC4, symSize: 0x304 }
  - { offset: 0x98232, size: 0x8, addend: 0x0, symName: __ZN4core3fmt9Formatter9write_str17hd9a1b7644989a9c8E, symObjAddr: 0xCC04, symBinAddr: 0x100046DC8, symSize: 0x10 }
  - { offset: 0x98246, size: 0x8, addend: 0x0, symName: __ZN4core3fmt9Formatter12debug_struct17hf7643d0658ff94cfE, symObjAddr: 0xCC20, symBinAddr: 0x100046DD8, symSize: 0x3C }
  - { offset: 0x98285, size: 0x8, addend: 0x0, symName: __ZN4core3fmt9Formatter26debug_struct_field1_finish17h3d8cc21df86d1f08E, symObjAddr: 0xCC5C, symBinAddr: 0x100046E14, symSize: 0xD0 }
  - { offset: 0x9835C, size: 0x8, addend: 0x0, symName: __ZN4core3fmt9Formatter26debug_struct_field2_finish17h32b4f697403bec40E, symObjAddr: 0xCD2C, symBinAddr: 0x100046EE4, symSize: 0x104 }
  - { offset: 0x98433, size: 0x8, addend: 0x0, symName: __ZN4core3fmt9Formatter11debug_tuple17h3a3ca798bd11b2bcE, symObjAddr: 0xD340, symBinAddr: 0x100046FE8, symSize: 0x50 }
  - { offset: 0x98488, size: 0x8, addend: 0x0, symName: __ZN4core3fmt9Formatter25debug_tuple_field1_finish17h293fabc56e30d0f7E, symObjAddr: 0xD390, symBinAddr: 0x100047038, symSize: 0x160 }
  - { offset: 0x9868A, size: 0x8, addend: 0x0, symName: __ZN4core3fmt9Formatter25debug_tuple_field2_finish17h0773e66da7fec5dcE, symObjAddr: 0xD4F0, symBinAddr: 0x100047198, symSize: 0x1D8 }
  - { offset: 0x98982, size: 0x8, addend: 0x0, symName: __ZN4core3fmt9Formatter10debug_list17hb567e092460f51e4E, symObjAddr: 0xE2A4, symBinAddr: 0x100047370, symSize: 0x48 }
  - { offset: 0x98A2A, size: 0x8, addend: 0x0, symName: __ZN4core3fmt8builders11DebugStruct5field17hcf92289f4867f5e5E, symObjAddr: 0x8288, symBinAddr: 0x100045ED0, symSize: 0x1B4 }
  - { offset: 0x98C29, size: 0x8, addend: 0x0, symName: __ZN4core3fmt8builders11DebugStruct6finish17h21c87724d91d861aE, symObjAddr: 0x8500, symBinAddr: 0x100046084, symSize: 0x80 }
  - { offset: 0x98D2A, size: 0x8, addend: 0x0, symName: '__ZN68_$LT$core..fmt..builders..PadAdapter$u20$as$u20$core..fmt..Write$GT$9write_str17hc0cf6ed124d300b4E', symObjAddr: 0x7FB0, symBinAddr: 0x100045BF8, symSize: 0x258 }
  - { offset: 0x98FAA, size: 0x8, addend: 0x0, symName: '__ZN68_$LT$core..fmt..builders..PadAdapter$u20$as$u20$core..fmt..Write$GT$10write_char17h9657826e049c4398E', symObjAddr: 0x8208, symBinAddr: 0x100045E50, symSize: 0x80 }
  - { offset: 0x9902F, size: 0x8, addend: 0x0, symName: __ZN4core3fmt8builders10DebugTuple5field17he743b1e43a659b47E, symObjAddr: 0x8580, symBinAddr: 0x100046104, symSize: 0x148 }
  - { offset: 0x991BB, size: 0x8, addend: 0x0, symName: __ZN4core3fmt8builders10DebugTuple6finish17h39fdb22d98cc1346E, symObjAddr: 0x8788, symBinAddr: 0x10004624C, symSize: 0xB0 }
  - { offset: 0x9930A, size: 0x8, addend: 0x0, symName: __ZN4core3fmt8builders8DebugSet5entry17h99c874a0178a5542E, symObjAddr: 0x8838, symBinAddr: 0x1000462FC, symSize: 0x148 }
  - { offset: 0x994AF, size: 0x8, addend: 0x0, symName: __ZN4core3fmt8builders9DebugList6finish17hd378c2ebba87d08dE, symObjAddr: 0x8B58, symBinAddr: 0x100046444, symSize: 0x4C }
  - { offset: 0x9967F, size: 0x8, addend: 0x0, symName: '__ZN4core3fmt3num53_$LT$impl$u20$core..fmt..LowerHex$u20$for$u20$i32$GT$3fmt17h6e850657c74d9d25E', symObjAddr: 0x19818, symBinAddr: 0x100049D08, symSize: 0x80 }
  - { offset: 0x99727, size: 0x8, addend: 0x0, symName: '__ZN4core3fmt3num53_$LT$impl$u20$core..fmt..UpperHex$u20$for$u20$i32$GT$3fmt17h997afd280f6b29c7E', symObjAddr: 0x19898, symBinAddr: 0x100049D88, symSize: 0x80 }
  - { offset: 0x997CF, size: 0x8, addend: 0x0, symName: '__ZN4core3fmt3num53_$LT$impl$u20$core..fmt..LowerHex$u20$for$u20$i64$GT$3fmt17hbe7c020a02da664cE', symObjAddr: 0x199F8, symBinAddr: 0x100049E08, symSize: 0x80 }
  - { offset: 0x99877, size: 0x8, addend: 0x0, symName: '__ZN4core3fmt3num53_$LT$impl$u20$core..fmt..UpperHex$u20$for$u20$i64$GT$3fmt17h740b27e908318385E', symObjAddr: 0x19A78, symBinAddr: 0x100049E88, symSize: 0x80 }
  - { offset: 0x99912, size: 0x8, addend: 0x0, symName: '__ZN4core3fmt3num52_$LT$impl$u20$core..fmt..LowerHex$u20$for$u20$i8$GT$3fmt17h4b4be5c7ea7962d0E', symObjAddr: 0x19458, symBinAddr: 0x100049C08, symSize: 0x80 }
  - { offset: 0x999C1, size: 0x8, addend: 0x0, symName: '__ZN4core3fmt3num52_$LT$impl$u20$core..fmt..UpperHex$u20$for$u20$i8$GT$3fmt17h05fab38eb12d6eccE', symObjAddr: 0x194D8, symBinAddr: 0x100049C88, symSize: 0x80 }
  - { offset: 0x99A95, size: 0x8, addend: 0x0, symName: '__ZN4core3fmt3num3imp51_$LT$impl$u20$core..fmt..Display$u20$for$u20$u8$GT$3fmt17h6b187241d8419cbfE', symObjAddr: 0x1A470, symBinAddr: 0x100049F08, symSize: 0xB0 }
  - { offset: 0x99B59, size: 0x8, addend: 0x0, symName: '__ZN4core3fmt3num3imp52_$LT$impl$u20$core..fmt..Display$u20$for$u20$u32$GT$3fmt17hdad8bbb1fd1b667aE', symObjAddr: 0x1A984, symBinAddr: 0x100049FB8, symSize: 0x130 }
  - { offset: 0x99C32, size: 0x8, addend: 0x0, symName: '__ZN4core3fmt3num3imp52_$LT$impl$u20$core..fmt..Display$u20$for$u20$i32$GT$3fmt17hf57747113c1e0663E', symObjAddr: 0x1AAB4, symBinAddr: 0x10004A0E8, symSize: 0x13C }
  - { offset: 0x99D30, size: 0x8, addend: 0x0, symName: '__ZN4core3fmt3num3imp52_$LT$impl$u20$core..fmt..Display$u20$for$u20$u64$GT$3fmt17ha8fcf0d52ed54e0fE', symObjAddr: 0x1ACF8, symBinAddr: 0x10004A224, symSize: 0x13C }
  - { offset: 0x99E89, size: 0x8, addend: 0x0, symName: '__ZN57_$LT$core..fmt..Formatter$u20$as$u20$core..fmt..Write$GT$10write_char17h6d68564ee698b1edE', symObjAddr: 0xE38C, symBinAddr: 0x1000473B8, symSize: 0x10 }
  - { offset: 0x99EBC, size: 0x8, addend: 0x0, symName: __ZN4core3fmt5Write9write_fmt17h9614ff1edc252aa5E, symObjAddr: 0xBE40, symBinAddr: 0x100046490, symSize: 0x10 }
  - { offset: 0x99EFF, size: 0x8, addend: 0x0, symName: '__ZN59_$LT$core..fmt..Arguments$u20$as$u20$core..fmt..Display$GT$3fmt17h3a775e5eedaf7738E', symObjAddr: 0xBE88, symBinAddr: 0x1000464A0, symSize: 0xC }
  - { offset: 0x99F63, size: 0x8, addend: 0x0, symName: __ZN4core3fmt5write17h2c4a0b98b09e3b30E, symObjAddr: 0xBE94, symBinAddr: 0x1000464AC, symSize: 0x1E8 }
  - { offset: 0x9A142, size: 0x8, addend: 0x0, symName: __ZN4core3fmt9Formatter12pad_integral12write_prefix17hc2a717568d4daf91E, symObjAddr: 0xC430, symBinAddr: 0x100046A48, symSize: 0x7C }
  - { offset: 0x9A188, size: 0x8, addend: 0x0, symName: '__ZN42_$LT$$RF$T$u20$as$u20$core..fmt..Debug$GT$3fmt17h6e4f67bb97a98f3cE', symObjAddr: 0x1BFA8, symBinAddr: 0x10004A360, symSize: 0xE0 }
  - { offset: 0x9A2A6, size: 0x8, addend: 0x0, symName: '__ZN42_$LT$$RF$T$u20$as$u20$core..fmt..Debug$GT$3fmt17hfbab3261e141b19fE', symObjAddr: 0x1C090, symBinAddr: 0x10004A440, symSize: 0x10 }
  - { offset: 0x9A2E2, size: 0x8, addend: 0x0, symName: '__ZN40_$LT$str$u20$as$u20$core..fmt..Debug$GT$3fmt17h6bb0dde775cede54E', symObjAddr: 0xE3E4, symBinAddr: 0x1000473C8, symSize: 0x384 }
  - { offset: 0x9A6E7, size: 0x8, addend: 0x0, symName: '__ZN41_$LT$char$u20$as$u20$core..fmt..Debug$GT$3fmt17h5b77a63018c31381E', symObjAddr: 0xE77C, symBinAddr: 0x100047760, symSize: 0xA8 }
  - { offset: 0x9A7F1, size: 0x8, addend: 0x0, symName: '__ZN43_$LT$char$u20$as$u20$core..fmt..Display$GT$3fmt17hccc7cc18179c4872E', symObjAddr: 0xE824, symBinAddr: 0x100047808, symSize: 0xEC }
  - { offset: 0x9A870, size: 0x8, addend: 0x0, symName: __ZN4core3fmt17pointer_fmt_inner17h454be370dc368025E, symObjAddr: 0xE910, symBinAddr: 0x1000478F4, symSize: 0xC0 }
  - { offset: 0x9A958, size: 0x8, addend: 0x0, symName: '__ZN44_$LT$$RF$T$u20$as$u20$core..fmt..Display$GT$3fmt17hbbf5e2ca3c54582bE', symObjAddr: 0x1C0B0, symBinAddr: 0x10004A450, symSize: 0x10 }
  - { offset: 0x9AA8A, size: 0x8, addend: 0x0, symName: __ZN4core6option13unwrap_failed17h1f788aa856a0b42eE, symObjAddr: 0x7830, symBinAddr: 0x10004E70C, symSize: 0x1C }
  - { offset: 0x9AAA5, size: 0x8, addend: 0x0, symName: __ZN4core6option13expect_failed17h89af471ff13548f9E, symObjAddr: 0x784C, symBinAddr: 0x10004E728, symSize: 0x48 }
  - { offset: 0x9AAFD, size: 0x8, addend: 0x0, symName: '__ZN71_$LT$core..ops..range..Range$LT$Idx$GT$$u20$as$u20$core..fmt..Debug$GT$3fmt17h658e9a2f8f4bbb48E', symObjAddr: 0x414C, symBinAddr: 0x100045678, symSize: 0x1F8 }
  - { offset: 0x9AF7A, size: 0x8, addend: 0x0, symName: __ZN4core6result13unwrap_failed17h7f68c62f4ec5b70eE, symObjAddr: 0x7EFC, symBinAddr: 0x10004EA24, symSize: 0x5C }
  - { offset: 0x9B1D4, size: 0x8, addend: 0x0, symName: __ZN4core3str5count14do_count_chars17hd2a57b08be8d1b70E, symObjAddr: 0xF77C, symBinAddr: 0x100047E50, symSize: 0x718 }
  - { offset: 0x9B525, size: 0x8, addend: 0x0, symName: __ZN4core3str5count23char_count_general_case17h0d6812726d9a8e15E, symObjAddr: 0xFE94, symBinAddr: 0x100048568, symSize: 0x2A8 }
  - { offset: 0x9B5D2, size: 0x8, addend: 0x0, symName: __ZN4core3str8converts9from_utf817h7b78634a00291fadE, symObjAddr: 0xF294, symBinAddr: 0x100047BDC, symSize: 0x274 }
  - { offset: 0x9B5EF, size: 0x8, addend: 0x0, symName: __ZN4core3str8converts9from_utf817h7b78634a00291fadE, symObjAddr: 0xF294, symBinAddr: 0x100047BDC, symSize: 0x274 }
  - { offset: 0x9B6DD, size: 0x8, addend: 0x0, symName: __ZN4core3str7pattern11StrSearcher3new17hd95460b09bffc181E, symObjAddr: 0x1087C, symBinAddr: 0x100048810, symSize: 0x8BC }
  - { offset: 0x9BA34, size: 0x8, addend: 0x0, symName: '__ZN60_$LT$core..str..lossy..Debug$u20$as$u20$core..fmt..Debug$GT$3fmt17h61e9a8e340b24faaE', symObjAddr: 0x11138, symBinAddr: 0x1000490CC, symSize: 0x364 }
  - { offset: 0x9BD4A, size: 0x8, addend: 0x0, symName: '__ZN87_$LT$core..str..lossy..Utf8Chunks$u20$as$u20$core..iter..traits..iterator..Iterator$GT$4next17h454b21b309792e7dE', symObjAddr: 0x1149C, symBinAddr: 0x100049430, symSize: 0x1C0 }
  - { offset: 0x9BF4E, size: 0x8, addend: 0x0, symName: __ZN4core3str16slice_error_fail17h061e87b9dfc55aadE, symObjAddr: 0x11728, symBinAddr: 0x10004EADC, symSize: 0xC }
  - { offset: 0x9BF68, size: 0x8, addend: 0x0, symName: __ZN4core3str19slice_error_fail_rt17h7e572c53c14a04e8E, symObjAddr: 0x11768, symBinAddr: 0x1000495F0, symSize: 0x344 }
  - { offset: 0x9C190, size: 0x8, addend: 0x0, symName: '__ZN4core4char7methods22_$LT$impl$u20$char$GT$16escape_debug_ext17h530e3c57cef50f83E', symObjAddr: 0x4EEC, symBinAddr: 0x100045884, symSize: 0x284 }
  - { offset: 0x9C3CE, size: 0x8, addend: 0x0, symName: __ZN4core4char7methods15encode_utf8_raw8do_panic7runtime17he7bfa606ee446088E, symObjAddr: 0x17D20, symBinAddr: 0x10004EB2C, symSize: 0x6C }
  - { offset: 0x9C495, size: 0x8, addend: 0x0, symName: '__ZN65_$LT$core..cell..BorrowMutError$u20$as$u20$core..fmt..Display$GT$3fmt17hce6430c2316144b4E', symObjAddr: 0x4DB8, symBinAddr: 0x100045870, symSize: 0x14 }
  - { offset: 0x9C4C7, size: 0x8, addend: 0x0, symName: __ZN4core4cell22panic_already_borrowed17h0d36ae2fc2f0ba17E, symObjAddr: 0x4DCC, symBinAddr: 0x10004E6C8, symSize: 0x44 }
  - { offset: 0x9C517, size: 0x8, addend: 0x0, symName: __ZN4core7unicode12unicode_data15grapheme_extend11lookup_slow17hd2a4fb5538b8240dE, symObjAddr: 0x1D5B0, symBinAddr: 0x10004A478, symSize: 0x108 }
  - { offset: 0x9C6DC, size: 0x8, addend: 0x0, symName: __ZN4core7unicode12unicode_data2cc6lookup17h1698536727c00c0fE, symObjAddr: 0x1D598, symBinAddr: 0x10004A460, symSize: 0x18 }
  - { offset: 0x9C6FA, size: 0x8, addend: 0x0, symName: __ZN4core7unicode12unicode_data2cc6lookup17h1698536727c00c0fE, symObjAddr: 0x1D598, symBinAddr: 0x10004A460, symSize: 0x18 }
  - { offset: 0x9C72E, size: 0x8, addend: 0x0, symName: __ZN4core7unicode9printable12is_printable17h484639cf451143c4E, symObjAddr: 0x12484, symBinAddr: 0x100049934, symSize: 0x2B4 }
  - { offset: 0x9CA40, size: 0x8, addend: 0x0, symName: __ZN4core3ffi5c_str4CStr19from_bytes_with_nul17h3a2ee221267d5c22E, symObjAddr: 0x5480, symBinAddr: 0x100045B08, symSize: 0xF0 }
  - { offset: 0x9CA5E, size: 0x8, addend: 0x0, symName: __ZN4core3ffi5c_str4CStr19from_bytes_with_nul17h3a2ee221267d5c22E, symObjAddr: 0x5480, symBinAddr: 0x100045B08, symSize: 0xF0 }
  - { offset: 0x9CB2D, size: 0x8, addend: 0x0, symName: __ZN4core9panicking9panic_fmt17h3505bfbec5a0b799E, symObjAddr: 0x7AA4, symBinAddr: 0x10004E770, symSize: 0x20 }
  - { offset: 0x9CB70, size: 0x8, addend: 0x0, symName: __ZN4core9panicking18panic_nounwind_fmt17h9dceef42c0a45ea6E, symObjAddr: 0x7AC4, symBinAddr: 0x10004E790, symSize: 0x3C }
  - { offset: 0x9CBB5, size: 0x8, addend: 0x0, symName: __ZN4core9panicking5panic17he76e9111fdaa2ca0E, symObjAddr: 0x7B00, symBinAddr: 0x10004E7CC, symSize: 0x34 }
  - { offset: 0x9CBE4, size: 0x8, addend: 0x0, symName: __ZN4core9panicking14panic_nounwind17h9f7565b148aca0eaE, symObjAddr: 0x7B34, symBinAddr: 0x10004E800, symSize: 0x3C }
  - { offset: 0x9CC13, size: 0x8, addend: 0x0, symName: __ZN4core9panicking26panic_nounwind_nobacktrace17h12b19155b129e9d4E, symObjAddr: 0x7B70, symBinAddr: 0x10004E83C, symSize: 0x3C }
  - { offset: 0x9CC42, size: 0x8, addend: 0x0, symName: __ZN4core9panicking18panic_bounds_check17he97faa96f3a18922E, symObjAddr: 0x7BF4, symBinAddr: 0x10004E878, symSize: 0x50 }
  - { offset: 0x9CC74, size: 0x8, addend: 0x0, symName: __ZN4core9panicking19panic_cannot_unwind17hf7c38fa209f60374E, symObjAddr: 0x7CD4, symBinAddr: 0x10004E8C8, symSize: 0x18 }
  - { offset: 0x9CC8F, size: 0x8, addend: 0x0, symName: __ZN4core9panicking16panic_in_cleanup17hdc9dae2f5fec47e4E, symObjAddr: 0x7CEC, symBinAddr: 0x10004E8E0, symSize: 0x18 }
  - { offset: 0x9CCAA, size: 0x8, addend: 0x0, symName: __ZN4core9panicking13assert_failed17h0019f4c0f6063c60E, symObjAddr: 0x7D68, symBinAddr: 0x10004E8F8, symSize: 0x24 }
  - { offset: 0x9CCC5, size: 0x8, addend: 0x0, symName: __ZN4core9panicking13assert_failed17h748d75638d28cdb2E, symObjAddr: 0x7D8C, symBinAddr: 0x10004E91C, symSize: 0x24 }
  - { offset: 0x9CCE0, size: 0x8, addend: 0x0, symName: __ZN4core9panicking19assert_failed_inner17hcd9fdaaa091321f9E, symObjAddr: 0x7DC4, symBinAddr: 0x10004E940, symSize: 0xE4 }
  - { offset: 0x9CD2D, size: 0x8, addend: 0x0, symName: __ZN4core9panicking11panic_const23panic_const_div_by_zero17h31f967ea86996136E, symObjAddr: 0x18300, symBinAddr: 0x10004EB98, symSize: 0x34 }
  - { offset: 0x9CD5C, size: 0x8, addend: 0x0, symName: __ZN4core9panicking11panic_const23panic_const_rem_by_zero17ha1e16486c02437ccE, symObjAddr: 0x18334, symBinAddr: 0x10004EBCC, symSize: 0x34 }
  - { offset: 0x9CDC8, size: 0x8, addend: 0x0, symName: __ZN4core5alloc6layout6Layout19is_size_align_valid17h9081c126d538f17aE, symObjAddr: 0x129D4, symBinAddr: 0x100049BE8, symSize: 0x20 }
  - { offset: 0x9CDE5, size: 0x8, addend: 0x0, symName: __ZN4core5alloc6layout6Layout19is_size_align_valid17h9081c126d538f17aE, symObjAddr: 0x129D4, symBinAddr: 0x100049BE8, symSize: 0x20 }
  - { offset: 0x9CE0F, size: 0x8, addend: 0x0, symName: _OUTLINED_FUNCTION_0, symObjAddr: 0x1DCF4, symBinAddr: 0x10004A580, symSize: 0x10 }
...
