---
triple:          'arm64-apple-darwin'
binary-path:     '/Users/tyler/fall25/cse380/final_project/final_project_sqlite/target/debug/deps/libpin_project_internal-fa762b4125145e1d.dylib'
relocations:
  - { offset: 0x1E, size: 0x8, addend: 0x0, symName: __RINvNtNtCs807mVM355fU_3syn3gen9visit_mut13visit_abi_mutNtNtCs9kQvaEtA2Tf_20pin_project_internal5utils15ReplaceReceiverEBV_, symObjAddr: 0x0, symBinAddr: 0xC58, symSize: 0x90 }
  - { offset: 0x97D, size: 0x8, addend: 0x0, symName: __RINvNtNtCs807mVM355fU_3syn3gen9visit_mut13visit_abi_mutNtNtCs9kQvaEtA2Tf_20pin_project_internal5utils15ReplaceReceiverEBV_, symObjAddr: 0x0, symBinAddr: 0xC58, symSize: 0x90 }
  - { offset: 0x9DD, size: 0x8, addend: 0x0, symName: __RINvNtNtCs807mVM355fU_3syn3gen9visit_mut13visit_abi_mutNtNvNtCs9kQvaEtA2Tf_20pin_project_internal5utils23determine_lifetime_name16CollectLifetimesEBX_, symObjAddr: 0x90, symBinAddr: 0xCE8, symSize: 0x90 }
  - { offset: 0xA3D, size: 0x8, addend: 0x0, symName: __RINvNtNtCs807mVM355fU_3syn3gen9visit_mut13visit_abi_mutNtNvNtCs9kQvaEtA2Tf_20pin_project_internal7project15replace_item_fn9FnVisitorEBX_, symObjAddr: 0x120, symBinAddr: 0xD78, symSize: 0x90 }
  - { offset: 0xA9D, size: 0x8, addend: 0x0, symName: __RINvNtNtCs807mVM355fU_3syn3gen9visit_mut13visit_abi_mutNtNvNtCs9kQvaEtA2Tf_20pin_project_internal7project16replace_item_use14UseTreeVisitorEBX_, symObjAddr: 0x1B0, symBinAddr: 0xE08, symSize: 0x90 }
  - { offset: 0xAFD, size: 0x8, addend: 0x0, symName: __RINvNtNtCs807mVM355fU_3syn3gen9visit_mut13visit_arm_mutNtNtCs9kQvaEtA2Tf_20pin_project_internal5utils15ReplaceReceiverEBV_, symObjAddr: 0x240, symBinAddr: 0xE98, symSize: 0x210 }
  - { offset: 0xBA7, size: 0x8, addend: 0x0, symName: __RINvNtNtCs807mVM355fU_3syn3gen9visit_mut13visit_arm_mutNtNvNtCs9kQvaEtA2Tf_20pin_project_internal5utils23determine_lifetime_name16CollectLifetimesEBX_, symObjAddr: 0x450, symBinAddr: 0x10A8, symSize: 0x210 }
  - { offset: 0xC51, size: 0x8, addend: 0x0, symName: __RINvNtNtCs807mVM355fU_3syn3gen9visit_mut13visit_arm_mutNtNvNtCs9kQvaEtA2Tf_20pin_project_internal7project15replace_item_fn9FnVisitorEBX_, symObjAddr: 0x660, symBinAddr: 0x12B8, symSize: 0x210 }
  - { offset: 0xCFB, size: 0x8, addend: 0x0, symName: __RINvNtNtCs807mVM355fU_3syn3gen9visit_mut13visit_arm_mutNtNvNtCs9kQvaEtA2Tf_20pin_project_internal7project16replace_item_use14UseTreeVisitorEBX_, symObjAddr: 0x870, symBinAddr: 0x14C8, symSize: 0x210 }
  - { offset: 0xDA5, size: 0x8, addend: 0x0, symName: __RINvNtNtCs807mVM355fU_3syn3gen9visit_mut13visit_lit_mutNtNtCs9kQvaEtA2Tf_20pin_project_internal5utils15ReplaceReceiverEBV_, symObjAddr: 0xA80, symBinAddr: 0x16D8, symSize: 0x220 }
  - { offset: 0xEB9, size: 0x8, addend: 0x0, symName: __RINvNtNtCs807mVM355fU_3syn3gen9visit_mut13visit_lit_mutNtNvNtCs9kQvaEtA2Tf_20pin_project_internal5utils23determine_lifetime_name16CollectLifetimesEBX_, symObjAddr: 0xCA0, symBinAddr: 0x18F8, symSize: 0x220 }
  - { offset: 0xFCD, size: 0x8, addend: 0x0, symName: __RINvNtNtCs807mVM355fU_3syn3gen9visit_mut13visit_lit_mutNtNvNtCs9kQvaEtA2Tf_20pin_project_internal7project15replace_item_fn9FnVisitorEBX_, symObjAddr: 0xEC0, symBinAddr: 0x1B18, symSize: 0x220 }
  - { offset: 0x10E1, size: 0x8, addend: 0x0, symName: __RINvNtNtCs807mVM355fU_3syn3gen9visit_mut13visit_lit_mutNtNvNtCs9kQvaEtA2Tf_20pin_project_internal7project16replace_item_use14UseTreeVisitorEBX_, symObjAddr: 0x10E0, symBinAddr: 0x1D38, symSize: 0x220 }
  - { offset: 0x11F5, size: 0x8, addend: 0x0, symName: __RINvNtNtCs807mVM355fU_3syn3gen9visit_mut13visit_pat_mutNtNtCs9kQvaEtA2Tf_20pin_project_internal5utils15ReplaceReceiverEBV_, symObjAddr: 0x1300, symBinAddr: 0x1F58, symSize: 0x354 }
  - { offset: 0x13F7, size: 0x8, addend: 0x0, symName: __RINvNtNtCs807mVM355fU_3syn3gen9visit_mut13visit_pat_mutNtNvNtCs9kQvaEtA2Tf_20pin_project_internal5utils23determine_lifetime_name16CollectLifetimesEBX_, symObjAddr: 0x1654, symBinAddr: 0x22AC, symSize: 0x354 }
  - { offset: 0x15F9, size: 0x8, addend: 0x0, symName: __RINvNtNtCs807mVM355fU_3syn3gen9visit_mut13visit_pat_mutNtNvNtCs9kQvaEtA2Tf_20pin_project_internal7project15replace_item_fn9FnVisitorEBX_, symObjAddr: 0x19A8, symBinAddr: 0x2600, symSize: 0x354 }
  - { offset: 0x17FB, size: 0x8, addend: 0x0, symName: __RINvNtNtCs807mVM355fU_3syn3gen9visit_mut13visit_pat_mutNtNvNtCs9kQvaEtA2Tf_20pin_project_internal7project16replace_item_use14UseTreeVisitorEBX_, symObjAddr: 0x1CFC, symBinAddr: 0x2954, symSize: 0x354 }
  - { offset: 0x19FD, size: 0x8, addend: 0x0, symName: __RINvNtNtCs807mVM355fU_3syn3gen9visit_mut14visit_data_mutNtNtCs9kQvaEtA2Tf_20pin_project_internal5utils15ReplaceReceiverEBW_, symObjAddr: 0x2050, symBinAddr: 0x2CA8, symSize: 0xE8 }
  - { offset: 0x1A91, size: 0x8, addend: 0x0, symName: __RINvNtNtCs807mVM355fU_3syn3gen9visit_mut14visit_expr_mutNtNtCs9kQvaEtA2Tf_20pin_project_internal5utils15ReplaceReceiverEBW_, symObjAddr: 0x2138, symBinAddr: 0x2D90, symSize: 0x7DC }
  - { offset: 0x1F7D, size: 0x8, addend: 0x0, symName: __RINvNtNtCs807mVM355fU_3syn3gen9visit_mut14visit_expr_mutNtNvNtCs9kQvaEtA2Tf_20pin_project_internal5utils23determine_lifetime_name16CollectLifetimesEBY_, symObjAddr: 0x2914, symBinAddr: 0x356C, symSize: 0x7DC }
  - { offset: 0x2469, size: 0x8, addend: 0x0, symName: __RINvNtNtCs807mVM355fU_3syn3gen9visit_mut14visit_expr_mutNtNvNtCs9kQvaEtA2Tf_20pin_project_internal7project15replace_item_fn9FnVisitorEBY_, symObjAddr: 0x30F0, symBinAddr: 0x3D48, symSize: 0x7DC }
  - { offset: 0x2955, size: 0x8, addend: 0x0, symName: __RINvNtNtCs807mVM355fU_3syn3gen9visit_mut14visit_expr_mutNtNvNtCs9kQvaEtA2Tf_20pin_project_internal7project16replace_item_use14UseTreeVisitorEBY_, symObjAddr: 0x38CC, symBinAddr: 0x4524, symSize: 0x7DC }
  - { offset: 0x2E41, size: 0x8, addend: 0x0, symName: __RINvNtNtCs807mVM355fU_3syn3gen9visit_mut14visit_item_mutNtNvNtCs9kQvaEtA2Tf_20pin_project_internal5utils23determine_lifetime_name16CollectLifetimesEBY_, symObjAddr: 0x40A8, symBinAddr: 0x4D00, symSize: 0x380 }
  - { offset: 0x3069, size: 0x8, addend: 0x0, symName: __RINvNtNtCs807mVM355fU_3syn3gen9visit_mut14visit_item_mutNtNvNtCs9kQvaEtA2Tf_20pin_project_internal7project16replace_item_use14UseTreeVisitorEBY_, symObjAddr: 0x4428, symBinAddr: 0x5080, symSize: 0x380 }
  - { offset: 0x3291, size: 0x8, addend: 0x0, symName: __RINvNtNtCs807mVM355fU_3syn3gen9visit_mut14visit_path_mutNtNtCs9kQvaEtA2Tf_20pin_project_internal5utils15ReplaceReceiverEBW_, symObjAddr: 0x47A8, symBinAddr: 0x5400, symSize: 0x15C }
  - { offset: 0x335A, size: 0x8, addend: 0x0, symName: __RINvNtNtCs807mVM355fU_3syn3gen9visit_mut14visit_path_mutNtNvNtCs9kQvaEtA2Tf_20pin_project_internal5utils23determine_lifetime_name16CollectLifetimesEBY_, symObjAddr: 0x4904, symBinAddr: 0x555C, symSize: 0x15C }
  - { offset: 0x3423, size: 0x8, addend: 0x0, symName: __RINvNtNtCs807mVM355fU_3syn3gen9visit_mut14visit_path_mutNtNvNtCs9kQvaEtA2Tf_20pin_project_internal7project15replace_item_fn9FnVisitorEBY_, symObjAddr: 0x4A60, symBinAddr: 0x56B8, symSize: 0x15C }
  - { offset: 0x34EC, size: 0x8, addend: 0x0, symName: __RINvNtNtCs807mVM355fU_3syn3gen9visit_mut14visit_path_mutNtNvNtCs9kQvaEtA2Tf_20pin_project_internal7project16replace_item_use14UseTreeVisitorEBY_, symObjAddr: 0x4BBC, symBinAddr: 0x5814, symSize: 0x15C }
  - { offset: 0x35B5, size: 0x8, addend: 0x0, symName: __RINvNtNtCs807mVM355fU_3syn3gen9visit_mut14visit_span_mutNtNtCs9kQvaEtA2Tf_20pin_project_internal5utils15ReplaceReceiverEBW_, symObjAddr: 0x4D18, symBinAddr: 0x5970, symSize: 0x24 }
  - { offset: 0x35F7, size: 0x8, addend: 0x0, symName: __RINvNtNtCs807mVM355fU_3syn3gen9visit_mut14visit_span_mutNtNvNtCs9kQvaEtA2Tf_20pin_project_internal5utils23determine_lifetime_name16CollectLifetimesEBY_, symObjAddr: 0x4D3C, symBinAddr: 0x5994, symSize: 0x24 }
  - { offset: 0x3639, size: 0x8, addend: 0x0, symName: __RINvNtNtCs807mVM355fU_3syn3gen9visit_mut14visit_span_mutNtNvNtCs9kQvaEtA2Tf_20pin_project_internal7project15replace_item_fn9FnVisitorEBY_, symObjAddr: 0x4D60, symBinAddr: 0x59B8, symSize: 0x24 }
  - { offset: 0x367B, size: 0x8, addend: 0x0, symName: __RINvNtNtCs807mVM355fU_3syn3gen9visit_mut14visit_span_mutNtNvNtCs9kQvaEtA2Tf_20pin_project_internal7project16replace_item_use14UseTreeVisitorEBY_, symObjAddr: 0x4D84, symBinAddr: 0x59DC, symSize: 0x24 }
  - { offset: 0x36BD, size: 0x8, addend: 0x0, symName: __RINvNtNtCs807mVM355fU_3syn3gen9visit_mut14visit_stmt_mutNtNtCs9kQvaEtA2Tf_20pin_project_internal5utils15ReplaceReceiverEBW_, symObjAddr: 0x4DA8, symBinAddr: 0x5A00, symSize: 0x13C }
  - { offset: 0x377F, size: 0x8, addend: 0x0, symName: __RINvNtNtCs807mVM355fU_3syn3gen9visit_mut14visit_stmt_mutNtNvNtCs9kQvaEtA2Tf_20pin_project_internal5utils23determine_lifetime_name16CollectLifetimesEBY_, symObjAddr: 0x4EE4, symBinAddr: 0x5B3C, symSize: 0x13C }
  - { offset: 0x3841, size: 0x8, addend: 0x0, symName: __RINvNtNtCs807mVM355fU_3syn3gen9visit_mut14visit_stmt_mutNtNvNtCs9kQvaEtA2Tf_20pin_project_internal7project16replace_item_use14UseTreeVisitorEBY_, symObjAddr: 0x5020, symBinAddr: 0x5C78, symSize: 0x13C }
  - { offset: 0x3903, size: 0x8, addend: 0x0, symName: __RINvNtNtCs807mVM355fU_3syn3gen9visit_mut14visit_type_mutNtNtCs9kQvaEtA2Tf_20pin_project_internal5utils15ReplaceReceiverEBW_, symObjAddr: 0x515C, symBinAddr: 0x5DB4, symSize: 0x328 }
  - { offset: 0x3AED, size: 0x8, addend: 0x0, symName: __RINvNtNtCs807mVM355fU_3syn3gen9visit_mut14visit_type_mutNtNvNtCs9kQvaEtA2Tf_20pin_project_internal5utils23determine_lifetime_name16CollectLifetimesEBY_, symObjAddr: 0x5484, symBinAddr: 0x60DC, symSize: 0x328 }
  - { offset: 0x3CD7, size: 0x8, addend: 0x0, symName: __RINvNtNtCs807mVM355fU_3syn3gen9visit_mut14visit_type_mutNtNvNtCs9kQvaEtA2Tf_20pin_project_internal7project15replace_item_fn9FnVisitorEBY_, symObjAddr: 0x57AC, symBinAddr: 0x6404, symSize: 0x328 }
  - { offset: 0x3EC1, size: 0x8, addend: 0x0, symName: __RINvNtNtCs807mVM355fU_3syn3gen9visit_mut14visit_type_mutNtNvNtCs9kQvaEtA2Tf_20pin_project_internal7project16replace_item_use14UseTreeVisitorEBY_, symObjAddr: 0x5AD4, symBinAddr: 0x672C, symSize: 0x328 }
  - { offset: 0x40AB, size: 0x8, addend: 0x0, symName: __RINvNtNtCs807mVM355fU_3syn3gen9visit_mut15visit_block_mutNtNtCs9kQvaEtA2Tf_20pin_project_internal5utils15ReplaceReceiverEBX_, symObjAddr: 0x5DFC, symBinAddr: 0x6A54, symSize: 0xA0 }
  - { offset: 0x4129, size: 0x8, addend: 0x0, symName: __RINvNtNtCs807mVM355fU_3syn3gen9visit_mut15visit_block_mutNtNvNtCs9kQvaEtA2Tf_20pin_project_internal5utils23determine_lifetime_name16CollectLifetimesEBZ_, symObjAddr: 0x5E9C, symBinAddr: 0x6AF4, symSize: 0xA0 }
  - { offset: 0x41A7, size: 0x8, addend: 0x0, symName: __RINvNtNtCs807mVM355fU_3syn3gen9visit_mut15visit_block_mutNtNvNtCs9kQvaEtA2Tf_20pin_project_internal7project15replace_item_fn9FnVisitorEBZ_, symObjAddr: 0x5F3C, symBinAddr: 0x6B94, symSize: 0xA0 }
  - { offset: 0x4225, size: 0x8, addend: 0x0, symName: __RINvNtNtCs807mVM355fU_3syn3gen9visit_mut15visit_block_mutNtNvNtCs9kQvaEtA2Tf_20pin_project_internal7project16replace_item_use14UseTreeVisitorEBZ_, symObjAddr: 0x5FDC, symBinAddr: 0x6C34, symSize: 0xA0 }
  - { offset: 0x42A3, size: 0x8, addend: 0x0, symName: __RINvNtNtCs807mVM355fU_3syn3gen9visit_mut15visit_field_mutNtNtCs9kQvaEtA2Tf_20pin_project_internal5utils15ReplaceReceiverEBX_, symObjAddr: 0x607C, symBinAddr: 0x6CD4, symSize: 0x160 }
  - { offset: 0x435D, size: 0x8, addend: 0x0, symName: __RINvNtNtCs807mVM355fU_3syn3gen9visit_mut15visit_field_mutNtNvNtCs9kQvaEtA2Tf_20pin_project_internal5utils23determine_lifetime_name16CollectLifetimesEBZ_, symObjAddr: 0x61DC, symBinAddr: 0x6E34, symSize: 0x160 }
  - { offset: 0x4417, size: 0x8, addend: 0x0, symName: __RINvNtNtCs807mVM355fU_3syn3gen9visit_mut15visit_field_mutNtNvNtCs9kQvaEtA2Tf_20pin_project_internal7project16replace_item_use14UseTreeVisitorEBZ_, symObjAddr: 0x633C, symBinAddr: 0x6F94, symSize: 0x160 }
  - { offset: 0x44D1, size: 0x8, addend: 0x0, symName: __RINvNtNtCs807mVM355fU_3syn3gen9visit_mut15visit_ident_mutNtNtCs9kQvaEtA2Tf_20pin_project_internal5utils15ReplaceReceiverEBX_, symObjAddr: 0x649C, symBinAddr: 0x70F4, symSize: 0x68 }
  - { offset: 0x4531, size: 0x8, addend: 0x0, symName: __RINvNtNtCs807mVM355fU_3syn3gen9visit_mut15visit_ident_mutNtNvNtCs9kQvaEtA2Tf_20pin_project_internal5utils23determine_lifetime_name16CollectLifetimesEBZ_, symObjAddr: 0x6504, symBinAddr: 0x715C, symSize: 0x68 }
  - { offset: 0x4591, size: 0x8, addend: 0x0, symName: __RINvNtNtCs807mVM355fU_3syn3gen9visit_mut15visit_ident_mutNtNvNtCs9kQvaEtA2Tf_20pin_project_internal7project15replace_item_fn9FnVisitorEBZ_, symObjAddr: 0x656C, symBinAddr: 0x71C4, symSize: 0x68 }
  - { offset: 0x45F1, size: 0x8, addend: 0x0, symName: __RINvNtNtCs807mVM355fU_3syn3gen9visit_mut15visit_ident_mutNtNvNtCs9kQvaEtA2Tf_20pin_project_internal7project16replace_item_use14UseTreeVisitorEBZ_, symObjAddr: 0x65D4, symBinAddr: 0x722C, symSize: 0x68 }
  - { offset: 0x4651, size: 0x8, addend: 0x0, symName: __RINvNtNtCs807mVM355fU_3syn3gen9visit_mut15visit_index_mutNtNtCs9kQvaEtA2Tf_20pin_project_internal5utils15ReplaceReceiverEBX_, symObjAddr: 0x663C, symBinAddr: 0x7294, symSize: 0x3C }
  - { offset: 0x4693, size: 0x8, addend: 0x0, symName: __RINvNtNtCs807mVM355fU_3syn3gen9visit_mut15visit_index_mutNtNvNtCs9kQvaEtA2Tf_20pin_project_internal5utils23determine_lifetime_name16CollectLifetimesEBZ_, symObjAddr: 0x6678, symBinAddr: 0x72D0, symSize: 0x3C }
  - { offset: 0x46D5, size: 0x8, addend: 0x0, symName: __RINvNtNtCs807mVM355fU_3syn3gen9visit_mut15visit_index_mutNtNvNtCs9kQvaEtA2Tf_20pin_project_internal7project15replace_item_fn9FnVisitorEBZ_, symObjAddr: 0x66B4, symBinAddr: 0x730C, symSize: 0x3C }
  - { offset: 0x4717, size: 0x8, addend: 0x0, symName: __RINvNtNtCs807mVM355fU_3syn3gen9visit_mut15visit_index_mutNtNvNtCs9kQvaEtA2Tf_20pin_project_internal7project16replace_item_use14UseTreeVisitorEBZ_, symObjAddr: 0x66F0, symBinAddr: 0x7348, symSize: 0x3C }
  - { offset: 0x4759, size: 0x8, addend: 0x0, symName: __RINvNtNtCs807mVM355fU_3syn3gen9visit_mut15visit_label_mutNtNtCs9kQvaEtA2Tf_20pin_project_internal5utils15ReplaceReceiverEBX_, symObjAddr: 0x672C, symBinAddr: 0x7384, symSize: 0x50 }
  - { offset: 0x479B, size: 0x8, addend: 0x0, symName: __RINvNtNtCs807mVM355fU_3syn3gen9visit_mut15visit_label_mutNtNvNtCs9kQvaEtA2Tf_20pin_project_internal5utils23determine_lifetime_name16CollectLifetimesEBZ_, symObjAddr: 0x677C, symBinAddr: 0x73D4, symSize: 0x50 }
  - { offset: 0x47DD, size: 0x8, addend: 0x0, symName: __RINvNtNtCs807mVM355fU_3syn3gen9visit_mut15visit_label_mutNtNvNtCs9kQvaEtA2Tf_20pin_project_internal7project15replace_item_fn9FnVisitorEBZ_, symObjAddr: 0x67CC, symBinAddr: 0x7424, symSize: 0x50 }
  - { offset: 0x481F, size: 0x8, addend: 0x0, symName: __RINvNtNtCs807mVM355fU_3syn3gen9visit_mut15visit_label_mutNtNvNtCs9kQvaEtA2Tf_20pin_project_internal7project16replace_item_use14UseTreeVisitorEBZ_, symObjAddr: 0x681C, symBinAddr: 0x7474, symSize: 0x50 }
  - { offset: 0x4861, size: 0x8, addend: 0x0, symName: __RINvNtNtCs807mVM355fU_3syn3gen9visit_mut15visit_local_mutNtNtCs9kQvaEtA2Tf_20pin_project_internal5utils15ReplaceReceiverEBX_, symObjAddr: 0x686C, symBinAddr: 0x74C4, symSize: 0x178 }
  - { offset: 0x48F5, size: 0x8, addend: 0x0, symName: __RINvNtNtCs807mVM355fU_3syn3gen9visit_mut15visit_local_mutNtNvNtCs9kQvaEtA2Tf_20pin_project_internal5utils23determine_lifetime_name16CollectLifetimesEBZ_, symObjAddr: 0x69E4, symBinAddr: 0x763C, symSize: 0x178 }
  - { offset: 0x4989, size: 0x8, addend: 0x0, symName: __RINvNtNtCs807mVM355fU_3syn3gen9visit_mut15visit_local_mutNtNvNtCs9kQvaEtA2Tf_20pin_project_internal7project15replace_item_fn9FnVisitorEBZ_, symObjAddr: 0x6B5C, symBinAddr: 0x77B4, symSize: 0x178 }
  - { offset: 0x4A1D, size: 0x8, addend: 0x0, symName: __RINvNtNtCs807mVM355fU_3syn3gen9visit_mut15visit_local_mutNtNvNtCs9kQvaEtA2Tf_20pin_project_internal7project16replace_item_use14UseTreeVisitorEBZ_, symObjAddr: 0x6CD4, symBinAddr: 0x792C, symSize: 0x178 }
  - { offset: 0x4AB1, size: 0x8, addend: 0x0, symName: __RINvNtNtCs807mVM355fU_3syn3gen9visit_mut15visit_macro_mutNtNvNtCs9kQvaEtA2Tf_20pin_project_internal5utils23determine_lifetime_name16CollectLifetimesEBZ_, symObjAddr: 0x6E4C, symBinAddr: 0x7AA4, symSize: 0x60 }
  - { offset: 0x4AF3, size: 0x8, addend: 0x0, symName: __RINvNtNtCs807mVM355fU_3syn3gen9visit_mut15visit_macro_mutNtNvNtCs9kQvaEtA2Tf_20pin_project_internal7project15replace_item_fn9FnVisitorEBZ_, symObjAddr: 0x6EAC, symBinAddr: 0x7B04, symSize: 0x60 }
  - { offset: 0x4B35, size: 0x8, addend: 0x0, symName: __RINvNtNtCs807mVM355fU_3syn3gen9visit_mut15visit_macro_mutNtNvNtCs9kQvaEtA2Tf_20pin_project_internal7project16replace_item_use14UseTreeVisitorEBZ_, symObjAddr: 0x6F0C, symBinAddr: 0x7B64, symSize: 0x60 }
  - { offset: 0x4B77, size: 0x8, addend: 0x0, symName: __RINvNtNtCs807mVM355fU_3syn3gen9visit_mut15visit_qself_mutNtNtCs9kQvaEtA2Tf_20pin_project_internal5utils15ReplaceReceiverEBX_, symObjAddr: 0x6F6C, symBinAddr: 0x7BC4, symSize: 0x100 }
  - { offset: 0x4BCF, size: 0x8, addend: 0x0, symName: __RINvNtNtCs807mVM355fU_3syn3gen9visit_mut15visit_qself_mutNtNvNtCs9kQvaEtA2Tf_20pin_project_internal5utils23determine_lifetime_name16CollectLifetimesEBZ_, symObjAddr: 0x706C, symBinAddr: 0x7CC4, symSize: 0x100 }
  - { offset: 0x4C27, size: 0x8, addend: 0x0, symName: __RINvNtNtCs807mVM355fU_3syn3gen9visit_mut15visit_qself_mutNtNvNtCs9kQvaEtA2Tf_20pin_project_internal7project15replace_item_fn9FnVisitorEBZ_, symObjAddr: 0x716C, symBinAddr: 0x7DC4, symSize: 0x100 }
  - { offset: 0x4C7F, size: 0x8, addend: 0x0, symName: __RINvNtNtCs807mVM355fU_3syn3gen9visit_mut15visit_qself_mutNtNvNtCs9kQvaEtA2Tf_20pin_project_internal7project16replace_item_use14UseTreeVisitorEBZ_, symObjAddr: 0x726C, symBinAddr: 0x7EC4, symSize: 0x100 }
  - { offset: 0x4CD7, size: 0x8, addend: 0x0, symName: __RINvNtNtCs807mVM355fU_3syn3gen9visit_mut15visit_un_op_mutNtNtCs9kQvaEtA2Tf_20pin_project_internal5utils15ReplaceReceiverEBX_, symObjAddr: 0x736C, symBinAddr: 0x7FC4, symSize: 0xDC }
  - { offset: 0x4D6B, size: 0x8, addend: 0x0, symName: __RINvNtNtCs807mVM355fU_3syn3gen9visit_mut15visit_un_op_mutNtNvNtCs9kQvaEtA2Tf_20pin_project_internal5utils23determine_lifetime_name16CollectLifetimesEBZ_, symObjAddr: 0x7448, symBinAddr: 0x80A0, symSize: 0xDC }
  - { offset: 0x4DFF, size: 0x8, addend: 0x0, symName: __RINvNtNtCs807mVM355fU_3syn3gen9visit_mut15visit_un_op_mutNtNvNtCs9kQvaEtA2Tf_20pin_project_internal7project15replace_item_fn9FnVisitorEBZ_, symObjAddr: 0x7524, symBinAddr: 0x817C, symSize: 0xDC }
  - { offset: 0x4E93, size: 0x8, addend: 0x0, symName: __RINvNtNtCs807mVM355fU_3syn3gen9visit_mut15visit_un_op_mutNtNvNtCs9kQvaEtA2Tf_20pin_project_internal7project16replace_item_use14UseTreeVisitorEBZ_, symObjAddr: 0x7600, symBinAddr: 0x8258, symSize: 0xDC }
  - { offset: 0x4F27, size: 0x8, addend: 0x0, symName: __RINvNtNtCs807mVM355fU_3syn3gen9visit_mut16visit_bin_op_mutNtNtCs9kQvaEtA2Tf_20pin_project_internal5utils15ReplaceReceiverEBY_, symObjAddr: 0x76DC, symBinAddr: 0x8334, symSize: 0x598 }
  - { offset: 0x52BD, size: 0x8, addend: 0x0, symName: __RINvNtNtCs807mVM355fU_3syn3gen9visit_mut16visit_bin_op_mutNtNvNtCs9kQvaEtA2Tf_20pin_project_internal5utils23determine_lifetime_name16CollectLifetimesEB10_, symObjAddr: 0x7C74, symBinAddr: 0x88CC, symSize: 0x598 }
  - { offset: 0x5653, size: 0x8, addend: 0x0, symName: __RINvNtNtCs807mVM355fU_3syn3gen9visit_mut16visit_bin_op_mutNtNvNtCs9kQvaEtA2Tf_20pin_project_internal7project15replace_item_fn9FnVisitorEB10_, symObjAddr: 0x820C, symBinAddr: 0x8E64, symSize: 0x598 }
  - { offset: 0x59E9, size: 0x8, addend: 0x0, symName: __RINvNtNtCs807mVM355fU_3syn3gen9visit_mut16visit_bin_op_mutNtNvNtCs9kQvaEtA2Tf_20pin_project_internal7project16replace_item_use14UseTreeVisitorEB10_, symObjAddr: 0x87A4, symBinAddr: 0x93FC, symSize: 0x598 }
  - { offset: 0x5D7F, size: 0x8, addend: 0x0, symName: __RINvNtNtCs807mVM355fU_3syn3gen9visit_mut16visit_fields_mutNtNtCs9kQvaEtA2Tf_20pin_project_internal5utils15ReplaceReceiverEBY_, symObjAddr: 0x8D3C, symBinAddr: 0x9994, symSize: 0xC4 }
  - { offset: 0x5DFD, size: 0x8, addend: 0x0, symName: __RINvNtNtCs807mVM355fU_3syn3gen9visit_mut16visit_fields_mutNtNvNtCs9kQvaEtA2Tf_20pin_project_internal5utils23determine_lifetime_name16CollectLifetimesEB10_, symObjAddr: 0x8E00, symBinAddr: 0x9A58, symSize: 0xC4 }
  - { offset: 0x5E7B, size: 0x8, addend: 0x0, symName: __RINvNtNtCs807mVM355fU_3syn3gen9visit_mut16visit_fields_mutNtNvNtCs9kQvaEtA2Tf_20pin_project_internal7project16replace_item_use14UseTreeVisitorEB10_, symObjAddr: 0x8EC4, symBinAddr: 0x9B1C, symSize: 0xC4 }
  - { offset: 0x5EF9, size: 0x8, addend: 0x0, symName: __RINvNtNtCs807mVM355fU_3syn3gen9visit_mut16visit_fn_arg_mutNtNtCs9kQvaEtA2Tf_20pin_project_internal5utils15ReplaceReceiverEBY_, symObjAddr: 0x8F88, symBinAddr: 0x9BE0, symSize: 0xA0 }
  - { offset: 0x5F6F, size: 0x8, addend: 0x0, symName: __RINvNtNtCs807mVM355fU_3syn3gen9visit_mut16visit_fn_arg_mutNtNvNtCs9kQvaEtA2Tf_20pin_project_internal5utils23determine_lifetime_name16CollectLifetimesEB10_, symObjAddr: 0x9028, symBinAddr: 0x9C80, symSize: 0xA0 }
  - { offset: 0x5FE5, size: 0x8, addend: 0x0, symName: __RINvNtNtCs807mVM355fU_3syn3gen9visit_mut16visit_fn_arg_mutNtNvNtCs9kQvaEtA2Tf_20pin_project_internal7project16replace_item_use14UseTreeVisitorEB10_, symObjAddr: 0x90C8, symBinAddr: 0x9D20, symSize: 0xA0 }
  - { offset: 0x605B, size: 0x8, addend: 0x0, symName: __RINvNtNtCs807mVM355fU_3syn3gen9visit_mut16visit_member_mutNtNtCs9kQvaEtA2Tf_20pin_project_internal5utils15ReplaceReceiverEBY_, symObjAddr: 0x9168, symBinAddr: 0x9DC0, symSize: 0x98 }
  - { offset: 0x60D1, size: 0x8, addend: 0x0, symName: __RINvNtNtCs807mVM355fU_3syn3gen9visit_mut16visit_member_mutNtNvNtCs9kQvaEtA2Tf_20pin_project_internal5utils23determine_lifetime_name16CollectLifetimesEB10_, symObjAddr: 0x9200, symBinAddr: 0x9E58, symSize: 0x98 }
  - { offset: 0x6147, size: 0x8, addend: 0x0, symName: __RINvNtNtCs807mVM355fU_3syn3gen9visit_mut16visit_member_mutNtNvNtCs9kQvaEtA2Tf_20pin_project_internal7project15replace_item_fn9FnVisitorEB10_, symObjAddr: 0x9298, symBinAddr: 0x9EF0, symSize: 0x98 }
  - { offset: 0x61BD, size: 0x8, addend: 0x0, symName: __RINvNtNtCs807mVM355fU_3syn3gen9visit_mut16visit_member_mutNtNvNtCs9kQvaEtA2Tf_20pin_project_internal7project16replace_item_use14UseTreeVisitorEB10_, symObjAddr: 0x9330, symBinAddr: 0x9F88, symSize: 0x98 }
  - { offset: 0x6233, size: 0x8, addend: 0x0, symName: __RINvNtNtCs807mVM355fU_3syn3gen9visit_mut16visit_pat_or_mutNtNtCs9kQvaEtA2Tf_20pin_project_internal5utils15ReplaceReceiverEBY_, symObjAddr: 0x93C8, symBinAddr: 0xA020, symSize: 0x1CC }
  - { offset: 0x633A, size: 0x8, addend: 0x0, symName: __RINvNtNtCs807mVM355fU_3syn3gen9visit_mut16visit_pat_or_mutNtNvNtCs9kQvaEtA2Tf_20pin_project_internal5utils23determine_lifetime_name16CollectLifetimesEB10_, symObjAddr: 0x9594, symBinAddr: 0xA1EC, symSize: 0x1CC }
  - { offset: 0x6441, size: 0x8, addend: 0x0, symName: __RINvNtNtCs807mVM355fU_3syn3gen9visit_mut16visit_pat_or_mutNtNvNtCs9kQvaEtA2Tf_20pin_project_internal7project15replace_item_fn9FnVisitorEB10_, symObjAddr: 0x9760, symBinAddr: 0xA3B8, symSize: 0x1CC }
  - { offset: 0x6548, size: 0x8, addend: 0x0, symName: __RINvNtNtCs807mVM355fU_3syn3gen9visit_mut16visit_pat_or_mutNtNvNtCs9kQvaEtA2Tf_20pin_project_internal7project16replace_item_use14UseTreeVisitorEB10_, symObjAddr: 0x992C, symBinAddr: 0xA584, symSize: 0x1CC }
  - { offset: 0x664F, size: 0x8, addend: 0x0, symName: __RINvNtNtCs807mVM355fU_3syn3gen9visit_mut17visit_binding_mutNtNtCs9kQvaEtA2Tf_20pin_project_internal5utils15ReplaceReceiverEBZ_, symObjAddr: 0x9AF8, symBinAddr: 0xA750, symSize: 0x60 }
  - { offset: 0x6691, size: 0x8, addend: 0x0, symName: __RINvNtNtCs807mVM355fU_3syn3gen9visit_mut17visit_binding_mutNtNvNtCs9kQvaEtA2Tf_20pin_project_internal5utils23determine_lifetime_name16CollectLifetimesEB11_, symObjAddr: 0x9B58, symBinAddr: 0xA7B0, symSize: 0x60 }
  - { offset: 0x66D3, size: 0x8, addend: 0x0, symName: __RINvNtNtCs807mVM355fU_3syn3gen9visit_mut17visit_binding_mutNtNvNtCs9kQvaEtA2Tf_20pin_project_internal7project15replace_item_fn9FnVisitorEB11_, symObjAddr: 0x9BB8, symBinAddr: 0xA810, symSize: 0x60 }
  - { offset: 0x6715, size: 0x8, addend: 0x0, symName: __RINvNtNtCs807mVM355fU_3syn3gen9visit_mut17visit_binding_mutNtNvNtCs9kQvaEtA2Tf_20pin_project_internal7project16replace_item_use14UseTreeVisitorEB11_, symObjAddr: 0x9C18, symBinAddr: 0xA870, symSize: 0x60 }
  - { offset: 0x6757, size: 0x8, addend: 0x0, symName: __RINvNtNtCs807mVM355fU_3syn3gen9visit_mut17visit_expr_if_mutNtNtCs9kQvaEtA2Tf_20pin_project_internal5utils15ReplaceReceiverEBZ_, symObjAddr: 0x9C78, symBinAddr: 0xA8D0, symSize: 0x1C4 }
  - { offset: 0x67EB, size: 0x8, addend: 0x0, symName: __RINvNtNtCs807mVM355fU_3syn3gen9visit_mut17visit_expr_if_mutNtNvNtCs9kQvaEtA2Tf_20pin_project_internal5utils23determine_lifetime_name16CollectLifetimesEB11_, symObjAddr: 0x9E3C, symBinAddr: 0xAA94, symSize: 0x1C4 }
  - { offset: 0x687F, size: 0x8, addend: 0x0, symName: __RINvNtNtCs807mVM355fU_3syn3gen9visit_mut17visit_expr_if_mutNtNvNtCs9kQvaEtA2Tf_20pin_project_internal7project15replace_item_fn9FnVisitorEB11_, symObjAddr: 0xA000, symBinAddr: 0xAC58, symSize: 0x1C4 }
  - { offset: 0x6913, size: 0x8, addend: 0x0, symName: __RINvNtNtCs807mVM355fU_3syn3gen9visit_mut17visit_expr_if_mutNtNvNtCs9kQvaEtA2Tf_20pin_project_internal7project16replace_item_use14UseTreeVisitorEB11_, symObjAddr: 0xA1C4, symBinAddr: 0xAE1C, symSize: 0x1C4 }
  - { offset: 0x69A7, size: 0x8, addend: 0x0, symName: __RINvNtNtCs807mVM355fU_3syn3gen9visit_mut17visit_item_fn_mutNtNvNtCs9kQvaEtA2Tf_20pin_project_internal5utils23determine_lifetime_name16CollectLifetimesEB11_, symObjAddr: 0xA388, symBinAddr: 0xAFE0, symSize: 0x110 }
  - { offset: 0x6A25, size: 0x8, addend: 0x0, symName: __RINvNtNtCs807mVM355fU_3syn3gen9visit_mut17visit_item_fn_mutNtNvNtCs9kQvaEtA2Tf_20pin_project_internal7project16replace_item_use14UseTreeVisitorEB11_, symObjAddr: 0xA498, symBinAddr: 0xB0F0, symSize: 0x110 }
  - { offset: 0x6AA3, size: 0x8, addend: 0x0, symName: __RINvNtNtCs807mVM355fU_3syn3gen9visit_mut17visit_lit_int_mutNtNtCs9kQvaEtA2Tf_20pin_project_internal5utils15ReplaceReceiverEBZ_, symObjAddr: 0xA5A8, symBinAddr: 0xB200, symSize: 0x24 }
  - { offset: 0x6AE5, size: 0x8, addend: 0x0, symName: __RINvNtNtCs807mVM355fU_3syn3gen9visit_mut17visit_lit_int_mutNtNvNtCs9kQvaEtA2Tf_20pin_project_internal5utils23determine_lifetime_name16CollectLifetimesEB11_, symObjAddr: 0xA5CC, symBinAddr: 0xB224, symSize: 0x24 }
  - { offset: 0x6B27, size: 0x8, addend: 0x0, symName: __RINvNtNtCs807mVM355fU_3syn3gen9visit_mut17visit_lit_int_mutNtNvNtCs9kQvaEtA2Tf_20pin_project_internal7project15replace_item_fn9FnVisitorEB11_, symObjAddr: 0xA5F0, symBinAddr: 0xB248, symSize: 0x24 }
  - { offset: 0x6B69, size: 0x8, addend: 0x0, symName: __RINvNtNtCs807mVM355fU_3syn3gen9visit_mut17visit_lit_int_mutNtNvNtCs9kQvaEtA2Tf_20pin_project_internal7project16replace_item_use14UseTreeVisitorEB11_, symObjAddr: 0xA614, symBinAddr: 0xB26C, symSize: 0x24 }
  - { offset: 0x6BAB, size: 0x8, addend: 0x0, symName: __RINvNtNtCs807mVM355fU_3syn3gen9visit_mut17visit_lit_str_mutNtNtCs9kQvaEtA2Tf_20pin_project_internal5utils15ReplaceReceiverEBZ_, symObjAddr: 0xA638, symBinAddr: 0xB290, symSize: 0x24 }
  - { offset: 0x6BED, size: 0x8, addend: 0x0, symName: __RINvNtNtCs807mVM355fU_3syn3gen9visit_mut17visit_lit_str_mutNtNvNtCs9kQvaEtA2Tf_20pin_project_internal5utils23determine_lifetime_name16CollectLifetimesEB11_, symObjAddr: 0xA65C, symBinAddr: 0xB2B4, symSize: 0x24 }
  - { offset: 0x6C2F, size: 0x8, addend: 0x0, symName: __RINvNtNtCs807mVM355fU_3syn3gen9visit_mut17visit_lit_str_mutNtNvNtCs9kQvaEtA2Tf_20pin_project_internal7project15replace_item_fn9FnVisitorEB11_, symObjAddr: 0xA680, symBinAddr: 0xB2D8, symSize: 0x24 }
  - { offset: 0x6C71, size: 0x8, addend: 0x0, symName: __RINvNtNtCs807mVM355fU_3syn3gen9visit_mut17visit_lit_str_mutNtNvNtCs9kQvaEtA2Tf_20pin_project_internal7project16replace_item_use14UseTreeVisitorEB11_, symObjAddr: 0xA6A4, symBinAddr: 0xB2FC, symSize: 0x24 }
  - { offset: 0x6CB3, size: 0x8, addend: 0x0, symName: __RINvNtNtCs807mVM355fU_3syn3gen9visit_mut17visit_pat_box_mutNtNtCs9kQvaEtA2Tf_20pin_project_internal5utils15ReplaceReceiverEBZ_, symObjAddr: 0xA6C8, symBinAddr: 0xB320, symSize: 0x108 }
  - { offset: 0x6D31, size: 0x8, addend: 0x0, symName: __RINvNtNtCs807mVM355fU_3syn3gen9visit_mut17visit_pat_box_mutNtNvNtCs9kQvaEtA2Tf_20pin_project_internal5utils23determine_lifetime_name16CollectLifetimesEB11_, symObjAddr: 0xA7D0, symBinAddr: 0xB428, symSize: 0x108 }
  - { offset: 0x6DAF, size: 0x8, addend: 0x0, symName: __RINvNtNtCs807mVM355fU_3syn3gen9visit_mut17visit_pat_box_mutNtNvNtCs9kQvaEtA2Tf_20pin_project_internal7project15replace_item_fn9FnVisitorEB11_, symObjAddr: 0xA8D8, symBinAddr: 0xB530, symSize: 0x108 }
  - { offset: 0x6E2D, size: 0x8, addend: 0x0, symName: __RINvNtNtCs807mVM355fU_3syn3gen9visit_mut17visit_pat_box_mutNtNvNtCs9kQvaEtA2Tf_20pin_project_internal7project16replace_item_use14UseTreeVisitorEB11_, symObjAddr: 0xA9E0, symBinAddr: 0xB638, symSize: 0x108 }
  - { offset: 0x6EAB, size: 0x8, addend: 0x0, symName: __RINvNtNtCs807mVM355fU_3syn3gen9visit_mut17visit_pat_lit_mutNtNtCs9kQvaEtA2Tf_20pin_project_internal5utils15ReplaceReceiverEBZ_, symObjAddr: 0xAAE8, symBinAddr: 0xB740, symSize: 0xF8 }
  - { offset: 0x6F29, size: 0x8, addend: 0x0, symName: __RINvNtNtCs807mVM355fU_3syn3gen9visit_mut17visit_pat_lit_mutNtNvNtCs9kQvaEtA2Tf_20pin_project_internal5utils23determine_lifetime_name16CollectLifetimesEB11_, symObjAddr: 0xABE0, symBinAddr: 0xB838, symSize: 0xF8 }
  - { offset: 0x6FA7, size: 0x8, addend: 0x0, symName: __RINvNtNtCs807mVM355fU_3syn3gen9visit_mut17visit_pat_lit_mutNtNvNtCs9kQvaEtA2Tf_20pin_project_internal7project15replace_item_fn9FnVisitorEB11_, symObjAddr: 0xACD8, symBinAddr: 0xB930, symSize: 0xF8 }
  - { offset: 0x7025, size: 0x8, addend: 0x0, symName: __RINvNtNtCs807mVM355fU_3syn3gen9visit_mut17visit_pat_lit_mutNtNvNtCs9kQvaEtA2Tf_20pin_project_internal7project16replace_item_use14UseTreeVisitorEB11_, symObjAddr: 0xADD0, symBinAddr: 0xBA28, symSize: 0xF8 }
  - { offset: 0x70A3, size: 0x8, addend: 0x0, symName: __RINvNtNtCs807mVM355fU_3syn3gen9visit_mut17visit_variant_mutNtNtCs9kQvaEtA2Tf_20pin_project_internal5utils15ReplaceReceiverEBZ_, symObjAddr: 0xAEC8, symBinAddr: 0xBB20, symSize: 0x11C }
  - { offset: 0x713F, size: 0x8, addend: 0x0, symName: __RINvNtNtCs807mVM355fU_3syn3gen9visit_mut17visit_variant_mutNtNvNtCs9kQvaEtA2Tf_20pin_project_internal5utils23determine_lifetime_name16CollectLifetimesEB11_, symObjAddr: 0xAFE4, symBinAddr: 0xBC3C, symSize: 0x11C }
  - { offset: 0x71DB, size: 0x8, addend: 0x0, symName: __RINvNtNtCs807mVM355fU_3syn3gen9visit_mut17visit_variant_mutNtNvNtCs9kQvaEtA2Tf_20pin_project_internal7project16replace_item_use14UseTreeVisitorEB11_, symObjAddr: 0xB100, symBinAddr: 0xBD58, symSize: 0x11C }
  - { offset: 0x7277, size: 0x8, addend: 0x0, symName: __RINvNtNtCs807mVM355fU_3syn3gen9visit_mut18visit_expr_box_mutNtNtCs9kQvaEtA2Tf_20pin_project_internal5utils15ReplaceReceiverEB10_, symObjAddr: 0xB21C, symBinAddr: 0xBE74, symSize: 0x108 }
  - { offset: 0x72F5, size: 0x8, addend: 0x0, symName: __RINvNtNtCs807mVM355fU_3syn3gen9visit_mut18visit_expr_box_mutNtNvNtCs9kQvaEtA2Tf_20pin_project_internal5utils23determine_lifetime_name16CollectLifetimesEB12_, symObjAddr: 0xB324, symBinAddr: 0xBF7C, symSize: 0x108 }
  - { offset: 0x7373, size: 0x8, addend: 0x0, symName: __RINvNtNtCs807mVM355fU_3syn3gen9visit_mut18visit_expr_box_mutNtNvNtCs9kQvaEtA2Tf_20pin_project_internal7project15replace_item_fn9FnVisitorEB12_, symObjAddr: 0xB42C, symBinAddr: 0xC084, symSize: 0x108 }
  - { offset: 0x73F1, size: 0x8, addend: 0x0, symName: __RINvNtNtCs807mVM355fU_3syn3gen9visit_mut18visit_expr_box_mutNtNvNtCs9kQvaEtA2Tf_20pin_project_internal7project16replace_item_use14UseTreeVisitorEB12_, symObjAddr: 0xB534, symBinAddr: 0xC18C, symSize: 0x108 }
  - { offset: 0x746F, size: 0x8, addend: 0x0, symName: __RINvNtNtCs807mVM355fU_3syn3gen9visit_mut18visit_expr_let_mutNtNtCs9kQvaEtA2Tf_20pin_project_internal5utils15ReplaceReceiverEB10_, symObjAddr: 0xB63C, symBinAddr: 0xC294, symSize: 0x128 }
  - { offset: 0x74ED, size: 0x8, addend: 0x0, symName: __RINvNtNtCs807mVM355fU_3syn3gen9visit_mut18visit_expr_let_mutNtNvNtCs9kQvaEtA2Tf_20pin_project_internal5utils23determine_lifetime_name16CollectLifetimesEB12_, symObjAddr: 0xB764, symBinAddr: 0xC3BC, symSize: 0x128 }
  - { offset: 0x756B, size: 0x8, addend: 0x0, symName: __RINvNtNtCs807mVM355fU_3syn3gen9visit_mut18visit_expr_let_mutNtNvNtCs9kQvaEtA2Tf_20pin_project_internal7project15replace_item_fn9FnVisitorEB12_, symObjAddr: 0xB88C, symBinAddr: 0xC4E4, symSize: 0x128 }
  - { offset: 0x75E9, size: 0x8, addend: 0x0, symName: __RINvNtNtCs807mVM355fU_3syn3gen9visit_mut18visit_expr_let_mutNtNvNtCs9kQvaEtA2Tf_20pin_project_internal7project16replace_item_use14UseTreeVisitorEB12_, symObjAddr: 0xB9B4, symBinAddr: 0xC60C, symSize: 0x128 }
  - { offset: 0x7667, size: 0x8, addend: 0x0, symName: __RINvNtNtCs807mVM355fU_3syn3gen9visit_mut18visit_expr_lit_mutNtNtCs9kQvaEtA2Tf_20pin_project_internal5utils15ReplaceReceiverEB10_, symObjAddr: 0xBADC, symBinAddr: 0xC734, symSize: 0xA8 }
  - { offset: 0x76E5, size: 0x8, addend: 0x0, symName: __RINvNtNtCs807mVM355fU_3syn3gen9visit_mut18visit_expr_lit_mutNtNvNtCs9kQvaEtA2Tf_20pin_project_internal5utils23determine_lifetime_name16CollectLifetimesEB12_, symObjAddr: 0xBB84, symBinAddr: 0xC7DC, symSize: 0xA8 }
  - { offset: 0x7763, size: 0x8, addend: 0x0, symName: __RINvNtNtCs807mVM355fU_3syn3gen9visit_mut18visit_expr_lit_mutNtNvNtCs9kQvaEtA2Tf_20pin_project_internal7project15replace_item_fn9FnVisitorEB12_, symObjAddr: 0xBC2C, symBinAddr: 0xC884, symSize: 0xA8 }
  - { offset: 0x77E1, size: 0x8, addend: 0x0, symName: __RINvNtNtCs807mVM355fU_3syn3gen9visit_mut18visit_expr_lit_mutNtNvNtCs9kQvaEtA2Tf_20pin_project_internal7project16replace_item_use14UseTreeVisitorEB12_, symObjAddr: 0xBCD4, symBinAddr: 0xC92C, symSize: 0xA8 }
  - { offset: 0x785F, size: 0x8, addend: 0x0, symName: __RINvNtNtCs807mVM355fU_3syn3gen9visit_mut18visit_expr_try_mutNtNtCs9kQvaEtA2Tf_20pin_project_internal5utils15ReplaceReceiverEB10_, symObjAddr: 0xBD7C, symBinAddr: 0xC9D4, symSize: 0x108 }
  - { offset: 0x78DD, size: 0x8, addend: 0x0, symName: __RINvNtNtCs807mVM355fU_3syn3gen9visit_mut18visit_expr_try_mutNtNvNtCs9kQvaEtA2Tf_20pin_project_internal5utils23determine_lifetime_name16CollectLifetimesEB12_, symObjAddr: 0xBE84, symBinAddr: 0xCADC, symSize: 0x108 }
  - { offset: 0x795B, size: 0x8, addend: 0x0, symName: __RINvNtNtCs807mVM355fU_3syn3gen9visit_mut18visit_expr_try_mutNtNvNtCs9kQvaEtA2Tf_20pin_project_internal7project15replace_item_fn9FnVisitorEB12_, symObjAddr: 0xBF8C, symBinAddr: 0xCBE4, symSize: 0x108 }
  - { offset: 0x79D9, size: 0x8, addend: 0x0, symName: __RINvNtNtCs807mVM355fU_3syn3gen9visit_mut18visit_expr_try_mutNtNvNtCs9kQvaEtA2Tf_20pin_project_internal7project16replace_item_use14UseTreeVisitorEB12_, symObjAddr: 0xC094, symBinAddr: 0xCCEC, symSize: 0x108 }
  - { offset: 0x7A57, size: 0x8, addend: 0x0, symName: __RINvNtNtCs807mVM355fU_3syn3gen9visit_mut18visit_generics_mutNtNtCs9kQvaEtA2Tf_20pin_project_internal5utils15ReplaceReceiverEB10_, symObjAddr: 0xC19C, symBinAddr: 0xCDF4, symSize: 0x1FC }
  - { offset: 0x7B5D, size: 0x8, addend: 0x0, symName: __RINvNtNtCs807mVM355fU_3syn3gen9visit_mut18visit_generics_mutNtNvNtCs9kQvaEtA2Tf_20pin_project_internal5utils23determine_lifetime_name16CollectLifetimesEB12_, symObjAddr: 0xC398, symBinAddr: 0xCFF0, symSize: 0x1FC }
  - { offset: 0x7C63, size: 0x8, addend: 0x0, symName: __RINvNtNtCs807mVM355fU_3syn3gen9visit_mut18visit_generics_mutNtNvNtCs9kQvaEtA2Tf_20pin_project_internal7project16replace_item_use14UseTreeVisitorEB12_, symObjAddr: 0xC594, symBinAddr: 0xD1EC, symSize: 0x1FC }
  - { offset: 0x7D69, size: 0x8, addend: 0x0, symName: __RINvNtNtCs807mVM355fU_3syn3gen9visit_mut18visit_item_mod_mutNtNvNtCs9kQvaEtA2Tf_20pin_project_internal5utils23determine_lifetime_name16CollectLifetimesEB12_, symObjAddr: 0xC790, symBinAddr: 0xD3E8, symSize: 0x1CC }
  - { offset: 0x7E4F, size: 0x8, addend: 0x0, symName: __RINvNtNtCs807mVM355fU_3syn3gen9visit_mut18visit_item_mod_mutNtNvNtCs9kQvaEtA2Tf_20pin_project_internal7project16replace_item_use14UseTreeVisitorEB12_, symObjAddr: 0xC95C, symBinAddr: 0xD5B4, symSize: 0x1CC }
  - { offset: 0x7F35, size: 0x8, addend: 0x0, symName: __RINvNtNtCs807mVM355fU_3syn3gen9visit_mut18visit_item_use_mutNtNvNtCs9kQvaEtA2Tf_20pin_project_internal5utils23determine_lifetime_name16CollectLifetimesEB12_, symObjAddr: 0xCB28, symBinAddr: 0xD780, symSize: 0x128 }
  - { offset: 0x7FD1, size: 0x8, addend: 0x0, symName: __RINvNtNtCs807mVM355fU_3syn3gen9visit_mut18visit_item_use_mutNtNvNtCs9kQvaEtA2Tf_20pin_project_internal7project16replace_item_use14UseTreeVisitorEB12_, symObjAddr: 0xCC50, symBinAddr: 0xD8A8, symSize: 0x128 }
  - { offset: 0x806D, size: 0x8, addend: 0x0, symName: __RINvNtNtCs807mVM355fU_3syn3gen9visit_mut18visit_lifetime_mutNtNtCs9kQvaEtA2Tf_20pin_project_internal5utils15ReplaceReceiverEB10_, symObjAddr: 0xCD78, symBinAddr: 0xD9D0, symSize: 0x50 }
  - { offset: 0x80AF, size: 0x8, addend: 0x0, symName: __RINvNtNtCs807mVM355fU_3syn3gen9visit_mut18visit_lifetime_mutNtNvNtCs9kQvaEtA2Tf_20pin_project_internal5utils23determine_lifetime_name16CollectLifetimesEB12_, symObjAddr: 0xCDC8, symBinAddr: 0xDA20, symSize: 0x50 }
  - { offset: 0x80F1, size: 0x8, addend: 0x0, symName: __RINvNtNtCs807mVM355fU_3syn3gen9visit_mut18visit_lifetime_mutNtNvNtCs9kQvaEtA2Tf_20pin_project_internal7project15replace_item_fn9FnVisitorEB12_, symObjAddr: 0xCE18, symBinAddr: 0xDA70, symSize: 0x50 }
  - { offset: 0x8133, size: 0x8, addend: 0x0, symName: __RINvNtNtCs807mVM355fU_3syn3gen9visit_mut18visit_lifetime_mutNtNvNtCs9kQvaEtA2Tf_20pin_project_internal7project16replace_item_use14UseTreeVisitorEB12_, symObjAddr: 0xCE68, symBinAddr: 0xDAC0, symSize: 0x50 }
  - { offset: 0x8175, size: 0x8, addend: 0x0, symName: __RINvNtNtCs807mVM355fU_3syn3gen9visit_mut18visit_lit_bool_mutNtNtCs9kQvaEtA2Tf_20pin_project_internal5utils15ReplaceReceiverEB10_, symObjAddr: 0xCEB8, symBinAddr: 0xDB10, symSize: 0x3C }
  - { offset: 0x81B7, size: 0x8, addend: 0x0, symName: __RINvNtNtCs807mVM355fU_3syn3gen9visit_mut18visit_lit_bool_mutNtNvNtCs9kQvaEtA2Tf_20pin_project_internal5utils23determine_lifetime_name16CollectLifetimesEB12_, symObjAddr: 0xCEF4, symBinAddr: 0xDB4C, symSize: 0x3C }
  - { offset: 0x81F9, size: 0x8, addend: 0x0, symName: __RINvNtNtCs807mVM355fU_3syn3gen9visit_mut18visit_lit_bool_mutNtNvNtCs9kQvaEtA2Tf_20pin_project_internal7project15replace_item_fn9FnVisitorEB12_, symObjAddr: 0xCF30, symBinAddr: 0xDB88, symSize: 0x3C }
  - { offset: 0x823B, size: 0x8, addend: 0x0, symName: __RINvNtNtCs807mVM355fU_3syn3gen9visit_mut18visit_lit_bool_mutNtNvNtCs9kQvaEtA2Tf_20pin_project_internal7project16replace_item_use14UseTreeVisitorEB12_, symObjAddr: 0xCF6C, symBinAddr: 0xDBC4, symSize: 0x3C }
  - { offset: 0x827D, size: 0x8, addend: 0x0, symName: __RINvNtNtCs807mVM355fU_3syn3gen9visit_mut18visit_lit_byte_mutNtNtCs9kQvaEtA2Tf_20pin_project_internal5utils15ReplaceReceiverEB10_, symObjAddr: 0xCFA8, symBinAddr: 0xDC00, symSize: 0x24 }
  - { offset: 0x82BF, size: 0x8, addend: 0x0, symName: __RINvNtNtCs807mVM355fU_3syn3gen9visit_mut18visit_lit_byte_mutNtNvNtCs9kQvaEtA2Tf_20pin_project_internal5utils23determine_lifetime_name16CollectLifetimesEB12_, symObjAddr: 0xCFCC, symBinAddr: 0xDC24, symSize: 0x24 }
  - { offset: 0x8301, size: 0x8, addend: 0x0, symName: __RINvNtNtCs807mVM355fU_3syn3gen9visit_mut18visit_lit_byte_mutNtNvNtCs9kQvaEtA2Tf_20pin_project_internal7project15replace_item_fn9FnVisitorEB12_, symObjAddr: 0xCFF0, symBinAddr: 0xDC48, symSize: 0x24 }
  - { offset: 0x8343, size: 0x8, addend: 0x0, symName: __RINvNtNtCs807mVM355fU_3syn3gen9visit_mut18visit_lit_byte_mutNtNvNtCs9kQvaEtA2Tf_20pin_project_internal7project16replace_item_use14UseTreeVisitorEB12_, symObjAddr: 0xD014, symBinAddr: 0xDC6C, symSize: 0x24 }
  - { offset: 0x8385, size: 0x8, addend: 0x0, symName: __RINvNtNtCs807mVM355fU_3syn3gen9visit_mut18visit_lit_char_mutNtNtCs9kQvaEtA2Tf_20pin_project_internal5utils15ReplaceReceiverEB10_, symObjAddr: 0xD038, symBinAddr: 0xDC90, symSize: 0x24 }
  - { offset: 0x83C7, size: 0x8, addend: 0x0, symName: __RINvNtNtCs807mVM355fU_3syn3gen9visit_mut18visit_lit_char_mutNtNvNtCs9kQvaEtA2Tf_20pin_project_internal5utils23determine_lifetime_name16CollectLifetimesEB12_, symObjAddr: 0xD05C, symBinAddr: 0xDCB4, symSize: 0x24 }
  - { offset: 0x8409, size: 0x8, addend: 0x0, symName: __RINvNtNtCs807mVM355fU_3syn3gen9visit_mut18visit_lit_char_mutNtNvNtCs9kQvaEtA2Tf_20pin_project_internal7project15replace_item_fn9FnVisitorEB12_, symObjAddr: 0xD080, symBinAddr: 0xDCD8, symSize: 0x24 }
  - { offset: 0x844B, size: 0x8, addend: 0x0, symName: __RINvNtNtCs807mVM355fU_3syn3gen9visit_mut18visit_lit_char_mutNtNvNtCs9kQvaEtA2Tf_20pin_project_internal7project16replace_item_use14UseTreeVisitorEB12_, symObjAddr: 0xD0A4, symBinAddr: 0xDCFC, symSize: 0x24 }
  - { offset: 0x848D, size: 0x8, addend: 0x0, symName: __RINvNtNtCs807mVM355fU_3syn3gen9visit_mut18visit_pat_path_mutNtNtCs9kQvaEtA2Tf_20pin_project_internal5utils15ReplaceReceiverEB10_, symObjAddr: 0xD0C8, symBinAddr: 0xDD20, symSize: 0xFC }
  - { offset: 0x8529, size: 0x8, addend: 0x0, symName: __RINvNtNtCs807mVM355fU_3syn3gen9visit_mut18visit_pat_path_mutNtNvNtCs9kQvaEtA2Tf_20pin_project_internal5utils23determine_lifetime_name16CollectLifetimesEB12_, symObjAddr: 0xD1C4, symBinAddr: 0xDE1C, symSize: 0xFC }
  - { offset: 0x85C5, size: 0x8, addend: 0x0, symName: __RINvNtNtCs807mVM355fU_3syn3gen9visit_mut18visit_pat_path_mutNtNvNtCs9kQvaEtA2Tf_20pin_project_internal7project15replace_item_fn9FnVisitorEB12_, symObjAddr: 0xD2C0, symBinAddr: 0xDF18, symSize: 0xFC }
  - { offset: 0x8661, size: 0x8, addend: 0x0, symName: __RINvNtNtCs807mVM355fU_3syn3gen9visit_mut18visit_pat_path_mutNtNvNtCs9kQvaEtA2Tf_20pin_project_internal7project16replace_item_use14UseTreeVisitorEB12_, symObjAddr: 0xD3BC, symBinAddr: 0xE014, symSize: 0xFC }
  - { offset: 0x86FD, size: 0x8, addend: 0x0, symName: __RINvNtNtCs807mVM355fU_3syn3gen9visit_mut18visit_pat_rest_mutNtNtCs9kQvaEtA2Tf_20pin_project_internal5utils15ReplaceReceiverEB10_, symObjAddr: 0xD4B8, symBinAddr: 0xE110, symSize: 0xA8 }
  - { offset: 0x877B, size: 0x8, addend: 0x0, symName: __RINvNtNtCs807mVM355fU_3syn3gen9visit_mut18visit_pat_rest_mutNtNvNtCs9kQvaEtA2Tf_20pin_project_internal5utils23determine_lifetime_name16CollectLifetimesEB12_, symObjAddr: 0xD560, symBinAddr: 0xE1B8, symSize: 0xA8 }
  - { offset: 0x87F9, size: 0x8, addend: 0x0, symName: __RINvNtNtCs807mVM355fU_3syn3gen9visit_mut18visit_pat_rest_mutNtNvNtCs9kQvaEtA2Tf_20pin_project_internal7project15replace_item_fn9FnVisitorEB12_, symObjAddr: 0xD608, symBinAddr: 0xE260, symSize: 0xA8 }
  - { offset: 0x8877, size: 0x8, addend: 0x0, symName: __RINvNtNtCs807mVM355fU_3syn3gen9visit_mut18visit_pat_rest_mutNtNvNtCs9kQvaEtA2Tf_20pin_project_internal7project16replace_item_use14UseTreeVisitorEB12_, symObjAddr: 0xD6B0, symBinAddr: 0xE308, symSize: 0xA8 }
  - { offset: 0x88F5, size: 0x8, addend: 0x0, symName: __RINvNtNtCs807mVM355fU_3syn3gen9visit_mut18visit_pat_type_mutNtNtCs9kQvaEtA2Tf_20pin_project_internal5utils15ReplaceReceiverEB10_, symObjAddr: 0xD758, symBinAddr: 0xE3B0, symSize: 0x164 }
  - { offset: 0x8973, size: 0x8, addend: 0x0, symName: __RINvNtNtCs807mVM355fU_3syn3gen9visit_mut18visit_pat_type_mutNtNvNtCs9kQvaEtA2Tf_20pin_project_internal5utils23determine_lifetime_name16CollectLifetimesEB12_, symObjAddr: 0xD8BC, symBinAddr: 0xE514, symSize: 0x164 }
  - { offset: 0x89F1, size: 0x8, addend: 0x0, symName: __RINvNtNtCs807mVM355fU_3syn3gen9visit_mut18visit_pat_type_mutNtNvNtCs9kQvaEtA2Tf_20pin_project_internal7project15replace_item_fn9FnVisitorEB12_, symObjAddr: 0xDA20, symBinAddr: 0xE678, symSize: 0x164 }
  - { offset: 0x8A6F, size: 0x8, addend: 0x0, symName: __RINvNtNtCs807mVM355fU_3syn3gen9visit_mut18visit_pat_type_mutNtNvNtCs9kQvaEtA2Tf_20pin_project_internal7project16replace_item_use14UseTreeVisitorEB12_, symObjAddr: 0xDB84, symBinAddr: 0xE7DC, symSize: 0x164 }
  - { offset: 0x8AED, size: 0x8, addend: 0x0, symName: __RINvNtNtCs807mVM355fU_3syn3gen9visit_mut18visit_pat_wild_mutNtNtCs9kQvaEtA2Tf_20pin_project_internal5utils15ReplaceReceiverEB10_, symObjAddr: 0xDCE8, symBinAddr: 0xE940, symSize: 0xA8 }
  - { offset: 0x8B6B, size: 0x8, addend: 0x0, symName: __RINvNtNtCs807mVM355fU_3syn3gen9visit_mut18visit_pat_wild_mutNtNvNtCs9kQvaEtA2Tf_20pin_project_internal5utils23determine_lifetime_name16CollectLifetimesEB12_, symObjAddr: 0xDD90, symBinAddr: 0xE9E8, symSize: 0xA8 }
  - { offset: 0x8BE9, size: 0x8, addend: 0x0, symName: __RINvNtNtCs807mVM355fU_3syn3gen9visit_mut18visit_pat_wild_mutNtNvNtCs9kQvaEtA2Tf_20pin_project_internal7project15replace_item_fn9FnVisitorEB12_, symObjAddr: 0xDE38, symBinAddr: 0xEA90, symSize: 0xA8 }
  - { offset: 0x8C67, size: 0x8, addend: 0x0, symName: __RINvNtNtCs807mVM355fU_3syn3gen9visit_mut18visit_pat_wild_mutNtNvNtCs9kQvaEtA2Tf_20pin_project_internal7project16replace_item_use14UseTreeVisitorEB12_, symObjAddr: 0xDEE0, symBinAddr: 0xEB38, symSize: 0xA8 }
  - { offset: 0x8CE5, size: 0x8, addend: 0x0, symName: __RINvNtNtCs807mVM355fU_3syn3gen9visit_mut18visit_receiver_mutNtNtCs9kQvaEtA2Tf_20pin_project_internal5utils15ReplaceReceiverEB10_, symObjAddr: 0xDF88, symBinAddr: 0xEBE0, symSize: 0x198 }
  - { offset: 0x8DAD, size: 0x8, addend: 0x0, symName: __RINvNtNtCs807mVM355fU_3syn3gen9visit_mut18visit_receiver_mutNtNvNtCs9kQvaEtA2Tf_20pin_project_internal5utils23determine_lifetime_name16CollectLifetimesEB12_, symObjAddr: 0xE120, symBinAddr: 0xED78, symSize: 0x198 }
  - { offset: 0x8E75, size: 0x8, addend: 0x0, symName: __RINvNtNtCs807mVM355fU_3syn3gen9visit_mut18visit_receiver_mutNtNvNtCs9kQvaEtA2Tf_20pin_project_internal7project16replace_item_use14UseTreeVisitorEB12_, symObjAddr: 0xE2B8, symBinAddr: 0xEF10, symSize: 0x198 }
  - { offset: 0x8F3D, size: 0x8, addend: 0x0, symName: __RINvNtNtCs807mVM355fU_3syn3gen9visit_mut18visit_type_ptr_mutNtNtCs9kQvaEtA2Tf_20pin_project_internal5utils15ReplaceReceiverEB10_, symObjAddr: 0xE450, symBinAddr: 0xF0A8, symSize: 0x13C }
  - { offset: 0x8FBB, size: 0x8, addend: 0x0, symName: __RINvNtNtCs807mVM355fU_3syn3gen9visit_mut18visit_type_ptr_mutNtNvNtCs9kQvaEtA2Tf_20pin_project_internal5utils23determine_lifetime_name16CollectLifetimesEB12_, symObjAddr: 0xE58C, symBinAddr: 0xF1E4, symSize: 0x13C }
  - { offset: 0x9039, size: 0x8, addend: 0x0, symName: __RINvNtNtCs807mVM355fU_3syn3gen9visit_mut18visit_type_ptr_mutNtNvNtCs9kQvaEtA2Tf_20pin_project_internal7project15replace_item_fn9FnVisitorEB12_, symObjAddr: 0xE6C8, symBinAddr: 0xF320, symSize: 0x13C }
  - { offset: 0x90B7, size: 0x8, addend: 0x0, symName: __RINvNtNtCs807mVM355fU_3syn3gen9visit_mut18visit_type_ptr_mutNtNvNtCs9kQvaEtA2Tf_20pin_project_internal7project16replace_item_use14UseTreeVisitorEB12_, symObjAddr: 0xE804, symBinAddr: 0xF45C, symSize: 0x13C }
  - { offset: 0x9135, size: 0x8, addend: 0x0, symName: __RINvNtNtCs807mVM355fU_3syn3gen9visit_mut18visit_use_glob_mutNtNvNtCs9kQvaEtA2Tf_20pin_project_internal5utils23determine_lifetime_name16CollectLifetimesEB12_, symObjAddr: 0xE940, symBinAddr: 0xF598, symSize: 0x3C }
  - { offset: 0x9177, size: 0x8, addend: 0x0, symName: __RINvNtNtCs807mVM355fU_3syn3gen9visit_mut18visit_use_glob_mutNtNvNtCs9kQvaEtA2Tf_20pin_project_internal7project16replace_item_use14UseTreeVisitorEB12_, symObjAddr: 0xE97C, symBinAddr: 0xF5D4, symSize: 0x3C }
  - { offset: 0x91B9, size: 0x8, addend: 0x0, symName: __RINvNtNtCs807mVM355fU_3syn3gen9visit_mut18visit_use_name_mutNtNvNtCs9kQvaEtA2Tf_20pin_project_internal5utils23determine_lifetime_name16CollectLifetimesEB12_, symObjAddr: 0xE9B8, symBinAddr: 0xF610, symSize: 0x3C }
  - { offset: 0x91FB, size: 0x8, addend: 0x0, symName: __RINvNtNtCs807mVM355fU_3syn3gen9visit_mut18visit_use_name_mutNtNvNtCs9kQvaEtA2Tf_20pin_project_internal7project16replace_item_use14UseTreeVisitorEB12_, symObjAddr: 0xE9F4, symBinAddr: 0xF64C, symSize: 0x3C }
  - { offset: 0x923D, size: 0x8, addend: 0x0, symName: __RINvNtNtCs807mVM355fU_3syn3gen9visit_mut18visit_use_path_mutNtNvNtCs9kQvaEtA2Tf_20pin_project_internal5utils23determine_lifetime_name16CollectLifetimesEB12_, symObjAddr: 0xEA30, symBinAddr: 0xF688, symSize: 0xB0 }
  - { offset: 0x927F, size: 0x8, addend: 0x0, symName: __RINvNtNtCs807mVM355fU_3syn3gen9visit_mut18visit_use_path_mutNtNvNtCs9kQvaEtA2Tf_20pin_project_internal7project16replace_item_use14UseTreeVisitorEB12_, symObjAddr: 0xEAE0, symBinAddr: 0xF738, symSize: 0xB0 }
  - { offset: 0x92C1, size: 0x8, addend: 0x0, symName: __RINvNtNtCs807mVM355fU_3syn3gen9visit_mut18visit_use_tree_mutNtNvNtCs9kQvaEtA2Tf_20pin_project_internal5utils23determine_lifetime_name16CollectLifetimesEB12_, symObjAddr: 0xEB90, symBinAddr: 0xF7E8, symSize: 0x168 }
  - { offset: 0x9391, size: 0x8, addend: 0x0, symName: __RINvNtNtCs807mVM355fU_3syn3gen9visit_mut18visit_use_tree_mutNtNvNtCs9kQvaEtA2Tf_20pin_project_internal7project16replace_item_use14UseTreeVisitorEB12_, symObjAddr: 0xECF8, symBinAddr: 0xF950, symSize: 0x168 }
  - { offset: 0x9461, size: 0x8, addend: 0x0, symName: __RINvNtNtCs807mVM355fU_3syn3gen9visit_mut18visit_variadic_mutNtNtCs9kQvaEtA2Tf_20pin_project_internal5utils15ReplaceReceiverEB10_, symObjAddr: 0xEE60, symBinAddr: 0xFAB8, symSize: 0xA8 }
  - { offset: 0x94DF, size: 0x8, addend: 0x0, symName: __RINvNtNtCs807mVM355fU_3syn3gen9visit_mut18visit_variadic_mutNtNvNtCs9kQvaEtA2Tf_20pin_project_internal5utils23determine_lifetime_name16CollectLifetimesEB12_, symObjAddr: 0xEF08, symBinAddr: 0xFB60, symSize: 0xA8 }
  - { offset: 0x955D, size: 0x8, addend: 0x0, symName: __RINvNtNtCs807mVM355fU_3syn3gen9visit_mut18visit_variadic_mutNtNvNtCs9kQvaEtA2Tf_20pin_project_internal7project15replace_item_fn9FnVisitorEB12_, symObjAddr: 0xEFB0, symBinAddr: 0xFC08, symSize: 0xA8 }
  - { offset: 0x95DB, size: 0x8, addend: 0x0, symName: __RINvNtNtCs807mVM355fU_3syn3gen9visit_mut18visit_variadic_mutNtNvNtCs9kQvaEtA2Tf_20pin_project_internal7project16replace_item_use14UseTreeVisitorEB12_, symObjAddr: 0xF058, symBinAddr: 0xFCB0, symSize: 0xA8 }
  - { offset: 0x9659, size: 0x8, addend: 0x0, symName: __RINvNtNtCs807mVM355fU_3syn3gen9visit_mut19visit_attribute_mutNtNtCs9kQvaEtA2Tf_20pin_project_internal5utils15ReplaceReceiverEB11_, symObjAddr: 0xF100, symBinAddr: 0xFD58, symSize: 0x70 }
  - { offset: 0x969B, size: 0x8, addend: 0x0, symName: __RINvNtNtCs807mVM355fU_3syn3gen9visit_mut19visit_attribute_mutNtNvNtCs9kQvaEtA2Tf_20pin_project_internal5utils23determine_lifetime_name16CollectLifetimesEB13_, symObjAddr: 0xF170, symBinAddr: 0xFDC8, symSize: 0x70 }
  - { offset: 0x96DD, size: 0x8, addend: 0x0, symName: __RINvNtNtCs807mVM355fU_3syn3gen9visit_mut19visit_attribute_mutNtNvNtCs9kQvaEtA2Tf_20pin_project_internal7project15replace_item_fn9FnVisitorEB13_, symObjAddr: 0xF1E0, symBinAddr: 0xFE38, symSize: 0x70 }
  - { offset: 0x971F, size: 0x8, addend: 0x0, symName: __RINvNtNtCs807mVM355fU_3syn3gen9visit_mut19visit_attribute_mutNtNvNtCs9kQvaEtA2Tf_20pin_project_internal7project16replace_item_use14UseTreeVisitorEB13_, symObjAddr: 0xF250, symBinAddr: 0xFEA8, symSize: 0x70 }
  - { offset: 0x9761, size: 0x8, addend: 0x0, symName: __RINvNtNtCs807mVM355fU_3syn3gen9visit_mut19visit_data_enum_mutNtNtCs9kQvaEtA2Tf_20pin_project_internal5utils15ReplaceReceiverEB11_, symObjAddr: 0xF2C0, symBinAddr: 0xFF18, symSize: 0x12C }
  - { offset: 0x980C, size: 0x8, addend: 0x0, symName: __RINvNtNtCs807mVM355fU_3syn3gen9visit_mut19visit_expr_call_mutNtNtCs9kQvaEtA2Tf_20pin_project_internal5utils15ReplaceReceiverEB11_, symObjAddr: 0xF3EC, symBinAddr: 0x10044, symSize: 0x1E4 }
  - { offset: 0x98F3, size: 0x8, addend: 0x0, symName: __RINvNtNtCs807mVM355fU_3syn3gen9visit_mut19visit_expr_call_mutNtNvNtCs9kQvaEtA2Tf_20pin_project_internal5utils23determine_lifetime_name16CollectLifetimesEB13_, symObjAddr: 0xF5D0, symBinAddr: 0x10228, symSize: 0x1E4 }
  - { offset: 0x99DA, size: 0x8, addend: 0x0, symName: __RINvNtNtCs807mVM355fU_3syn3gen9visit_mut19visit_expr_call_mutNtNvNtCs9kQvaEtA2Tf_20pin_project_internal7project15replace_item_fn9FnVisitorEB13_, symObjAddr: 0xF7B4, symBinAddr: 0x1040C, symSize: 0x1E4 }
  - { offset: 0x9AC1, size: 0x8, addend: 0x0, symName: __RINvNtNtCs807mVM355fU_3syn3gen9visit_mut19visit_expr_call_mutNtNvNtCs9kQvaEtA2Tf_20pin_project_internal7project16replace_item_use14UseTreeVisitorEB13_, symObjAddr: 0xF998, symBinAddr: 0x105F0, symSize: 0x1E4 }
  - { offset: 0x9BA8, size: 0x8, addend: 0x0, symName: __RINvNtNtCs807mVM355fU_3syn3gen9visit_mut19visit_expr_cast_mutNtNtCs9kQvaEtA2Tf_20pin_project_internal5utils15ReplaceReceiverEB11_, symObjAddr: 0xFB7C, symBinAddr: 0x107D4, symSize: 0x164 }
  - { offset: 0x9C26, size: 0x8, addend: 0x0, symName: __RINvNtNtCs807mVM355fU_3syn3gen9visit_mut19visit_expr_cast_mutNtNvNtCs9kQvaEtA2Tf_20pin_project_internal5utils23determine_lifetime_name16CollectLifetimesEB13_, symObjAddr: 0xFCE0, symBinAddr: 0x10938, symSize: 0x164 }
  - { offset: 0x9CA4, size: 0x8, addend: 0x0, symName: __RINvNtNtCs807mVM355fU_3syn3gen9visit_mut19visit_expr_cast_mutNtNvNtCs9kQvaEtA2Tf_20pin_project_internal7project15replace_item_fn9FnVisitorEB13_, symObjAddr: 0xFE44, symBinAddr: 0x10A9C, symSize: 0x164 }
  - { offset: 0x9D22, size: 0x8, addend: 0x0, symName: __RINvNtNtCs807mVM355fU_3syn3gen9visit_mut19visit_expr_cast_mutNtNvNtCs9kQvaEtA2Tf_20pin_project_internal7project16replace_item_use14UseTreeVisitorEB13_, symObjAddr: 0xFFA8, symBinAddr: 0x10C00, symSize: 0x164 }
  - { offset: 0x9DA0, size: 0x8, addend: 0x0, symName: __RINvNtNtCs807mVM355fU_3syn3gen9visit_mut19visit_expr_loop_mutNtNtCs9kQvaEtA2Tf_20pin_project_internal5utils15ReplaceReceiverEB11_, symObjAddr: 0x1010C, symBinAddr: 0x10D64, symSize: 0x10C }
  - { offset: 0x9E3C, size: 0x8, addend: 0x0, symName: __RINvNtNtCs807mVM355fU_3syn3gen9visit_mut19visit_expr_loop_mutNtNvNtCs9kQvaEtA2Tf_20pin_project_internal5utils23determine_lifetime_name16CollectLifetimesEB13_, symObjAddr: 0x10218, symBinAddr: 0x10E70, symSize: 0x10C }
  - { offset: 0x9ED8, size: 0x8, addend: 0x0, symName: __RINvNtNtCs807mVM355fU_3syn3gen9visit_mut19visit_expr_loop_mutNtNvNtCs9kQvaEtA2Tf_20pin_project_internal7project15replace_item_fn9FnVisitorEB13_, symObjAddr: 0x10324, symBinAddr: 0x10F7C, symSize: 0x10C }
  - { offset: 0x9F74, size: 0x8, addend: 0x0, symName: __RINvNtNtCs807mVM355fU_3syn3gen9visit_mut19visit_expr_loop_mutNtNvNtCs9kQvaEtA2Tf_20pin_project_internal7project16replace_item_use14UseTreeVisitorEB13_, symObjAddr: 0x10430, symBinAddr: 0x11088, symSize: 0x10C }
  - { offset: 0xA010, size: 0x8, addend: 0x0, symName: __RINvNtNtCs807mVM355fU_3syn3gen9visit_mut19visit_expr_path_mutNtNtCs9kQvaEtA2Tf_20pin_project_internal5utils15ReplaceReceiverEB11_, symObjAddr: 0x1053C, symBinAddr: 0x11194, symSize: 0xFC }
  - { offset: 0xA0AC, size: 0x8, addend: 0x0, symName: __RINvNtNtCs807mVM355fU_3syn3gen9visit_mut19visit_expr_path_mutNtNvNtCs9kQvaEtA2Tf_20pin_project_internal5utils23determine_lifetime_name16CollectLifetimesEB13_, symObjAddr: 0x10638, symBinAddr: 0x11290, symSize: 0xFC }
  - { offset: 0xA148, size: 0x8, addend: 0x0, symName: __RINvNtNtCs807mVM355fU_3syn3gen9visit_mut19visit_expr_path_mutNtNvNtCs9kQvaEtA2Tf_20pin_project_internal7project15replace_item_fn9FnVisitorEB13_, symObjAddr: 0x10734, symBinAddr: 0x1138C, symSize: 0xFC }
  - { offset: 0xA1E4, size: 0x8, addend: 0x0, symName: __RINvNtNtCs807mVM355fU_3syn3gen9visit_mut19visit_expr_path_mutNtNvNtCs9kQvaEtA2Tf_20pin_project_internal7project16replace_item_use14UseTreeVisitorEB13_, symObjAddr: 0x10830, symBinAddr: 0x11488, symSize: 0xFC }
  - { offset: 0xA280, size: 0x8, addend: 0x0, symName: __RINvNtNtCs807mVM355fU_3syn3gen9visit_mut19visit_expr_type_mutNtNtCs9kQvaEtA2Tf_20pin_project_internal5utils15ReplaceReceiverEB11_, symObjAddr: 0x1092C, symBinAddr: 0x11584, symSize: 0x164 }
  - { offset: 0xA2FE, size: 0x8, addend: 0x0, symName: __RINvNtNtCs807mVM355fU_3syn3gen9visit_mut19visit_expr_type_mutNtNvNtCs9kQvaEtA2Tf_20pin_project_internal5utils23determine_lifetime_name16CollectLifetimesEB13_, symObjAddr: 0x10A90, symBinAddr: 0x116E8, symSize: 0x164 }
  - { offset: 0xA37C, size: 0x8, addend: 0x0, symName: __RINvNtNtCs807mVM355fU_3syn3gen9visit_mut19visit_expr_type_mutNtNvNtCs9kQvaEtA2Tf_20pin_project_internal7project15replace_item_fn9FnVisitorEB13_, symObjAddr: 0x10BF4, symBinAddr: 0x1184C, symSize: 0x164 }
  - { offset: 0xA3FA, size: 0x8, addend: 0x0, symName: __RINvNtNtCs807mVM355fU_3syn3gen9visit_mut19visit_expr_type_mutNtNvNtCs9kQvaEtA2Tf_20pin_project_internal7project16replace_item_use14UseTreeVisitorEB13_, symObjAddr: 0x10D58, symBinAddr: 0x119B0, symSize: 0x164 }
  - { offset: 0xA478, size: 0x8, addend: 0x0, symName: __RINvNtNtCs807mVM355fU_3syn3gen9visit_mut19visit_field_pat_mutNtNtCs9kQvaEtA2Tf_20pin_project_internal5utils15ReplaceReceiverEB11_, symObjAddr: 0x10EBC, symBinAddr: 0x11B14, symSize: 0x154 }
  - { offset: 0xA514, size: 0x8, addend: 0x0, symName: __RINvNtNtCs807mVM355fU_3syn3gen9visit_mut19visit_field_pat_mutNtNvNtCs9kQvaEtA2Tf_20pin_project_internal5utils23determine_lifetime_name16CollectLifetimesEB13_, symObjAddr: 0x11010, symBinAddr: 0x11C68, symSize: 0x154 }
  - { offset: 0xA5B0, size: 0x8, addend: 0x0, symName: __RINvNtNtCs807mVM355fU_3syn3gen9visit_mut19visit_field_pat_mutNtNvNtCs9kQvaEtA2Tf_20pin_project_internal7project15replace_item_fn9FnVisitorEB13_, symObjAddr: 0x11164, symBinAddr: 0x11DBC, symSize: 0x154 }
  - { offset: 0xA64C, size: 0x8, addend: 0x0, symName: __RINvNtNtCs807mVM355fU_3syn3gen9visit_mut19visit_field_pat_mutNtNvNtCs9kQvaEtA2Tf_20pin_project_internal7project16replace_item_use14UseTreeVisitorEB13_, symObjAddr: 0x112B8, symBinAddr: 0x11F10, symSize: 0x154 }
  - { offset: 0xA6E8, size: 0x8, addend: 0x0, symName: __RINvNtNtCs807mVM355fU_3syn3gen9visit_mut19visit_impl_item_mutNtNvNtCs9kQvaEtA2Tf_20pin_project_internal5utils23determine_lifetime_name16CollectLifetimesEB13_, symObjAddr: 0x1140C, symBinAddr: 0x12064, symSize: 0x160 }
  - { offset: 0xA7A2, size: 0x8, addend: 0x0, symName: __RINvNtNtCs807mVM355fU_3syn3gen9visit_mut19visit_impl_item_mutNtNvNtCs9kQvaEtA2Tf_20pin_project_internal7project16replace_item_use14UseTreeVisitorEB13_, symObjAddr: 0x1156C, symBinAddr: 0x121C4, symSize: 0x160 }
  - { offset: 0xA85C, size: 0x8, addend: 0x0, symName: __RINvNtNtCs807mVM355fU_3syn3gen9visit_mut19visit_item_enum_mutNtNvNtCs9kQvaEtA2Tf_20pin_project_internal5utils23determine_lifetime_name16CollectLifetimesEB13_, symObjAddr: 0x116CC, symBinAddr: 0x12324, symSize: 0x1C4 }
  - { offset: 0xA943, size: 0x8, addend: 0x0, symName: __RINvNtNtCs807mVM355fU_3syn3gen9visit_mut19visit_item_enum_mutNtNvNtCs9kQvaEtA2Tf_20pin_project_internal7project16replace_item_use14UseTreeVisitorEB13_, symObjAddr: 0x11890, symBinAddr: 0x124E8, symSize: 0x1C4 }
  - { offset: 0xAA2A, size: 0x8, addend: 0x0, symName: __RINvNtNtCs807mVM355fU_3syn3gen9visit_mut19visit_item_impl_mutNtNvNtCs9kQvaEtA2Tf_20pin_project_internal5utils23determine_lifetime_name16CollectLifetimesEB13_, symObjAddr: 0x11A54, symBinAddr: 0x126AC, symSize: 0x2D0 }
  - { offset: 0xAB44, size: 0x8, addend: 0x0, symName: __RINvNtNtCs807mVM355fU_3syn3gen9visit_mut19visit_item_impl_mutNtNvNtCs9kQvaEtA2Tf_20pin_project_internal7project16replace_item_use14UseTreeVisitorEB13_, symObjAddr: 0x11D24, symBinAddr: 0x1297C, symSize: 0x2D0 }
  - { offset: 0xAC5E, size: 0x8, addend: 0x0, symName: __RINvNtNtCs807mVM355fU_3syn3gen9visit_mut19visit_item_type_mutNtNvNtCs9kQvaEtA2Tf_20pin_project_internal5utils23determine_lifetime_name16CollectLifetimesEB13_, symObjAddr: 0x11FF4, symBinAddr: 0x12C4C, symSize: 0x158 }
  - { offset: 0xACDC, size: 0x8, addend: 0x0, symName: __RINvNtNtCs807mVM355fU_3syn3gen9visit_mut19visit_item_type_mutNtNvNtCs9kQvaEtA2Tf_20pin_project_internal7project16replace_item_use14UseTreeVisitorEB13_, symObjAddr: 0x1214C, symBinAddr: 0x12DA4, symSize: 0x158 }
  - { offset: 0xAD5A, size: 0x8, addend: 0x0, symName: __RINvNtNtCs807mVM355fU_3syn3gen9visit_mut19visit_lit_float_mutNtNtCs9kQvaEtA2Tf_20pin_project_internal5utils15ReplaceReceiverEB11_, symObjAddr: 0x122A4, symBinAddr: 0x12EFC, symSize: 0x24 }
  - { offset: 0xAD9C, size: 0x8, addend: 0x0, symName: __RINvNtNtCs807mVM355fU_3syn3gen9visit_mut19visit_lit_float_mutNtNvNtCs9kQvaEtA2Tf_20pin_project_internal5utils23determine_lifetime_name16CollectLifetimesEB13_, symObjAddr: 0x122C8, symBinAddr: 0x12F20, symSize: 0x24 }
  - { offset: 0xADDE, size: 0x8, addend: 0x0, symName: __RINvNtNtCs807mVM355fU_3syn3gen9visit_mut19visit_lit_float_mutNtNvNtCs9kQvaEtA2Tf_20pin_project_internal7project15replace_item_fn9FnVisitorEB13_, symObjAddr: 0x122EC, symBinAddr: 0x12F44, symSize: 0x24 }
  - { offset: 0xAE20, size: 0x8, addend: 0x0, symName: __RINvNtNtCs807mVM355fU_3syn3gen9visit_mut19visit_lit_float_mutNtNvNtCs9kQvaEtA2Tf_20pin_project_internal7project16replace_item_use14UseTreeVisitorEB13_, symObjAddr: 0x12310, symBinAddr: 0x12F68, symSize: 0x24 }
  - { offset: 0xAE62, size: 0x8, addend: 0x0, symName: __RINvNtNtCs807mVM355fU_3syn3gen9visit_mut19visit_pat_ident_mutNtNtCs9kQvaEtA2Tf_20pin_project_internal5utils15ReplaceReceiverEB11_, symObjAddr: 0x12334, symBinAddr: 0x12F8C, symSize: 0x1F0 }
  - { offset: 0xAF32, size: 0x8, addend: 0x0, symName: __RINvNtNtCs807mVM355fU_3syn3gen9visit_mut19visit_pat_ident_mutNtNvNtCs9kQvaEtA2Tf_20pin_project_internal5utils23determine_lifetime_name16CollectLifetimesEB13_, symObjAddr: 0x12524, symBinAddr: 0x1317C, symSize: 0x1F0 }
  - { offset: 0xB002, size: 0x8, addend: 0x0, symName: __RINvNtNtCs807mVM355fU_3syn3gen9visit_mut19visit_pat_ident_mutNtNvNtCs9kQvaEtA2Tf_20pin_project_internal7project15replace_item_fn9FnVisitorEB13_, symObjAddr: 0x12714, symBinAddr: 0x1336C, symSize: 0x1F0 }
  - { offset: 0xB0D2, size: 0x8, addend: 0x0, symName: __RINvNtNtCs807mVM355fU_3syn3gen9visit_mut19visit_pat_ident_mutNtNvNtCs9kQvaEtA2Tf_20pin_project_internal7project16replace_item_use14UseTreeVisitorEB13_, symObjAddr: 0x12904, symBinAddr: 0x1355C, symSize: 0x1F0 }
  - { offset: 0xB1A2, size: 0x8, addend: 0x0, symName: __RINvNtNtCs807mVM355fU_3syn3gen9visit_mut19visit_pat_macro_mutNtNtCs9kQvaEtA2Tf_20pin_project_internal5utils15ReplaceReceiverEB11_, symObjAddr: 0x12AF4, symBinAddr: 0x1374C, symSize: 0xA8 }
  - { offset: 0xB220, size: 0x8, addend: 0x0, symName: __RINvNtNtCs807mVM355fU_3syn3gen9visit_mut19visit_pat_macro_mutNtNvNtCs9kQvaEtA2Tf_20pin_project_internal5utils23determine_lifetime_name16CollectLifetimesEB13_, symObjAddr: 0x12B9C, symBinAddr: 0x137F4, symSize: 0xA8 }
  - { offset: 0xB29E, size: 0x8, addend: 0x0, symName: __RINvNtNtCs807mVM355fU_3syn3gen9visit_mut19visit_pat_macro_mutNtNvNtCs9kQvaEtA2Tf_20pin_project_internal7project15replace_item_fn9FnVisitorEB13_, symObjAddr: 0x12C44, symBinAddr: 0x1389C, symSize: 0xA8 }
  - { offset: 0xB31C, size: 0x8, addend: 0x0, symName: __RINvNtNtCs807mVM355fU_3syn3gen9visit_mut19visit_pat_macro_mutNtNvNtCs9kQvaEtA2Tf_20pin_project_internal7project16replace_item_use14UseTreeVisitorEB13_, symObjAddr: 0x12CEC, symBinAddr: 0x13944, symSize: 0xA8 }
  - { offset: 0xB39A, size: 0x8, addend: 0x0, symName: __RINvNtNtCs807mVM355fU_3syn3gen9visit_mut19visit_pat_range_mutNtNtCs9kQvaEtA2Tf_20pin_project_internal5utils15ReplaceReceiverEB11_, symObjAddr: 0x12D94, symBinAddr: 0x139EC, symSize: 0x164 }
  - { offset: 0xB418, size: 0x8, addend: 0x0, symName: __RINvNtNtCs807mVM355fU_3syn3gen9visit_mut19visit_pat_range_mutNtNvNtCs9kQvaEtA2Tf_20pin_project_internal5utils23determine_lifetime_name16CollectLifetimesEB13_, symObjAddr: 0x12EF8, symBinAddr: 0x13B50, symSize: 0x164 }
  - { offset: 0xB496, size: 0x8, addend: 0x0, symName: __RINvNtNtCs807mVM355fU_3syn3gen9visit_mut19visit_pat_range_mutNtNvNtCs9kQvaEtA2Tf_20pin_project_internal7project15replace_item_fn9FnVisitorEB13_, symObjAddr: 0x1305C, symBinAddr: 0x13CB4, symSize: 0x164 }
  - { offset: 0xB514, size: 0x8, addend: 0x0, symName: __RINvNtNtCs807mVM355fU_3syn3gen9visit_mut19visit_pat_range_mutNtNvNtCs9kQvaEtA2Tf_20pin_project_internal7project16replace_item_use14UseTreeVisitorEB13_, symObjAddr: 0x131C0, symBinAddr: 0x13E18, symSize: 0x164 }
  - { offset: 0xB592, size: 0x8, addend: 0x0, symName: __RINvNtNtCs807mVM355fU_3syn3gen9visit_mut19visit_pat_slice_mutNtNtCs9kQvaEtA2Tf_20pin_project_internal5utils15ReplaceReceiverEB11_, symObjAddr: 0x13324, symBinAddr: 0x13F7C, symSize: 0x184 }
  - { offset: 0xB679, size: 0x8, addend: 0x0, symName: __RINvNtNtCs807mVM355fU_3syn3gen9visit_mut19visit_pat_slice_mutNtNvNtCs9kQvaEtA2Tf_20pin_project_internal5utils23determine_lifetime_name16CollectLifetimesEB13_, symObjAddr: 0x134A8, symBinAddr: 0x14100, symSize: 0x184 }
  - { offset: 0xB760, size: 0x8, addend: 0x0, symName: __RINvNtNtCs807mVM355fU_3syn3gen9visit_mut19visit_pat_slice_mutNtNvNtCs9kQvaEtA2Tf_20pin_project_internal7project15replace_item_fn9FnVisitorEB13_, symObjAddr: 0x1362C, symBinAddr: 0x14284, symSize: 0x184 }
  - { offset: 0xB847, size: 0x8, addend: 0x0, symName: __RINvNtNtCs807mVM355fU_3syn3gen9visit_mut19visit_pat_slice_mutNtNvNtCs9kQvaEtA2Tf_20pin_project_internal7project16replace_item_use14UseTreeVisitorEB13_, symObjAddr: 0x137B0, symBinAddr: 0x14408, symSize: 0x184 }
  - { offset: 0xB92E, size: 0x8, addend: 0x0, symName: __RINvNtNtCs807mVM355fU_3syn3gen9visit_mut19visit_pat_tuple_mutNtNtCs9kQvaEtA2Tf_20pin_project_internal5utils15ReplaceReceiverEB11_, symObjAddr: 0x13934, symBinAddr: 0x1458C, symSize: 0x184 }
  - { offset: 0xBA15, size: 0x8, addend: 0x0, symName: __RINvNtNtCs807mVM355fU_3syn3gen9visit_mut19visit_pat_tuple_mutNtNvNtCs9kQvaEtA2Tf_20pin_project_internal5utils23determine_lifetime_name16CollectLifetimesEB13_, symObjAddr: 0x13AB8, symBinAddr: 0x14710, symSize: 0x184 }
  - { offset: 0xBAFC, size: 0x8, addend: 0x0, symName: __RINvNtNtCs807mVM355fU_3syn3gen9visit_mut19visit_pat_tuple_mutNtNvNtCs9kQvaEtA2Tf_20pin_project_internal7project15replace_item_fn9FnVisitorEB13_, symObjAddr: 0x13C3C, symBinAddr: 0x14894, symSize: 0x184 }
  - { offset: 0xBBE3, size: 0x8, addend: 0x0, symName: __RINvNtNtCs807mVM355fU_3syn3gen9visit_mut19visit_pat_tuple_mutNtNvNtCs9kQvaEtA2Tf_20pin_project_internal7project16replace_item_use14UseTreeVisitorEB13_, symObjAddr: 0x13DC0, symBinAddr: 0x14A18, symSize: 0x184 }
  - { offset: 0xBCCA, size: 0x8, addend: 0x0, symName: __RINvNtNtCs807mVM355fU_3syn3gen9visit_mut19visit_signature_mutNtNtCs9kQvaEtA2Tf_20pin_project_internal5utils15ReplaceReceiverEB11_, symObjAddr: 0x13F44, symBinAddr: 0x14B9C, symSize: 0x2E8 }
  - { offset: 0xBE10, size: 0x8, addend: 0x0, symName: __RINvNtNtCs807mVM355fU_3syn3gen9visit_mut19visit_signature_mutNtNvNtCs9kQvaEtA2Tf_20pin_project_internal5utils23determine_lifetime_name16CollectLifetimesEB13_, symObjAddr: 0x1422C, symBinAddr: 0x14E84, symSize: 0x2E8 }
  - { offset: 0xBF56, size: 0x8, addend: 0x0, symName: __RINvNtNtCs807mVM355fU_3syn3gen9visit_mut19visit_signature_mutNtNvNtCs9kQvaEtA2Tf_20pin_project_internal7project16replace_item_use14UseTreeVisitorEB13_, symObjAddr: 0x14514, symBinAddr: 0x1516C, symSize: 0x2E8 }
  - { offset: 0xC09C, size: 0x8, addend: 0x0, symName: __RINvNtNtCs807mVM355fU_3syn3gen9visit_mut19visit_type_path_mutNtNtCs9kQvaEtA2Tf_20pin_project_internal5utils15ReplaceReceiverEB11_, symObjAddr: 0x147FC, symBinAddr: 0x15454, symSize: 0x90 }
  - { offset: 0xC0FC, size: 0x8, addend: 0x0, symName: __RINvNtNtCs807mVM355fU_3syn3gen9visit_mut19visit_type_path_mutNtNvNtCs9kQvaEtA2Tf_20pin_project_internal5utils23determine_lifetime_name16CollectLifetimesEB13_, symObjAddr: 0x1488C, symBinAddr: 0x154E4, symSize: 0x90 }
  - { offset: 0xC15C, size: 0x8, addend: 0x0, symName: __RINvNtNtCs807mVM355fU_3syn3gen9visit_mut19visit_type_path_mutNtNvNtCs9kQvaEtA2Tf_20pin_project_internal7project15replace_item_fn9FnVisitorEB13_, symObjAddr: 0x1491C, symBinAddr: 0x15574, symSize: 0x90 }
  - { offset: 0xC1BC, size: 0x8, addend: 0x0, symName: __RINvNtNtCs807mVM355fU_3syn3gen9visit_mut19visit_type_path_mutNtNvNtCs9kQvaEtA2Tf_20pin_project_internal7project16replace_item_use14UseTreeVisitorEB13_, symObjAddr: 0x149AC, symBinAddr: 0x15604, symSize: 0x90 }
  - { offset: 0xC21C, size: 0x8, addend: 0x0, symName: __RINvNtNtCs807mVM355fU_3syn3gen9visit_mut19visit_use_group_mutNtNvNtCs9kQvaEtA2Tf_20pin_project_internal5utils23determine_lifetime_name16CollectLifetimesEB13_, symObjAddr: 0x14A3C, symBinAddr: 0x15694, symSize: 0x11C }
  - { offset: 0xC2C7, size: 0x8, addend: 0x0, symName: __RINvNtNtCs807mVM355fU_3syn3gen9visit_mut19visit_use_group_mutNtNvNtCs9kQvaEtA2Tf_20pin_project_internal7project16replace_item_use14UseTreeVisitorEB13_, symObjAddr: 0x14B58, symBinAddr: 0x157B0, symSize: 0x11C }
  - { offset: 0xC372, size: 0x8, addend: 0x0, symName: __RINvNtNtCs807mVM355fU_3syn3gen9visit_mut19visit_vis_crate_mutNtNtCs9kQvaEtA2Tf_20pin_project_internal5utils15ReplaceReceiverEB11_, symObjAddr: 0x14C74, symBinAddr: 0x158CC, symSize: 0x3C }
  - { offset: 0xC3B4, size: 0x8, addend: 0x0, symName: __RINvNtNtCs807mVM355fU_3syn3gen9visit_mut19visit_vis_crate_mutNtNvNtCs9kQvaEtA2Tf_20pin_project_internal5utils23determine_lifetime_name16CollectLifetimesEB13_, symObjAddr: 0x14CB0, symBinAddr: 0x15908, symSize: 0x3C }
  - { offset: 0xC3F6, size: 0x8, addend: 0x0, symName: __RINvNtNtCs807mVM355fU_3syn3gen9visit_mut19visit_vis_crate_mutNtNvNtCs9kQvaEtA2Tf_20pin_project_internal7project16replace_item_use14UseTreeVisitorEB13_, symObjAddr: 0x14CEC, symBinAddr: 0x15944, symSize: 0x3C }
  - { offset: 0xC438, size: 0x8, addend: 0x0, symName: __RINvNtNtCs807mVM355fU_3syn3gen9visit_mut20visit_attr_style_mutNtNtCs9kQvaEtA2Tf_20pin_project_internal5utils15ReplaceReceiverEB12_, symObjAddr: 0x14D28, symBinAddr: 0x15980, symSize: 0x84 }
  - { offset: 0xC490, size: 0x8, addend: 0x0, symName: __RINvNtNtCs807mVM355fU_3syn3gen9visit_mut20visit_attr_style_mutNtNvNtCs9kQvaEtA2Tf_20pin_project_internal5utils23determine_lifetime_name16CollectLifetimesEB14_, symObjAddr: 0x14DAC, symBinAddr: 0x15A04, symSize: 0x84 }
  - { offset: 0xC4E8, size: 0x8, addend: 0x0, symName: __RINvNtNtCs807mVM355fU_3syn3gen9visit_mut20visit_attr_style_mutNtNvNtCs9kQvaEtA2Tf_20pin_project_internal7project15replace_item_fn9FnVisitorEB14_, symObjAddr: 0x14E30, symBinAddr: 0x15A88, symSize: 0x84 }
  - { offset: 0xC540, size: 0x8, addend: 0x0, symName: __RINvNtNtCs807mVM355fU_3syn3gen9visit_mut20visit_attr_style_mutNtNvNtCs9kQvaEtA2Tf_20pin_project_internal7project16replace_item_use14UseTreeVisitorEB14_, symObjAddr: 0x14EB4, symBinAddr: 0x15B0C, symSize: 0x84 }
  - { offset: 0xC598, size: 0x8, addend: 0x0, symName: __RINvNtNtCs807mVM355fU_3syn3gen9visit_mut20visit_constraint_mutNtNtCs9kQvaEtA2Tf_20pin_project_internal5utils15ReplaceReceiverEB12_, symObjAddr: 0x14F38, symBinAddr: 0x15B90, symSize: 0x12C }
  - { offset: 0xC643, size: 0x8, addend: 0x0, symName: __RINvNtNtCs807mVM355fU_3syn3gen9visit_mut20visit_constraint_mutNtNvNtCs9kQvaEtA2Tf_20pin_project_internal5utils23determine_lifetime_name16CollectLifetimesEB14_, symObjAddr: 0x15064, symBinAddr: 0x15CBC, symSize: 0x12C }
  - { offset: 0xC6EE, size: 0x8, addend: 0x0, symName: __RINvNtNtCs807mVM355fU_3syn3gen9visit_mut20visit_constraint_mutNtNvNtCs9kQvaEtA2Tf_20pin_project_internal7project15replace_item_fn9FnVisitorEB14_, symObjAddr: 0x15190, symBinAddr: 0x15DE8, symSize: 0x12C }
  - { offset: 0xC799, size: 0x8, addend: 0x0, symName: __RINvNtNtCs807mVM355fU_3syn3gen9visit_mut20visit_constraint_mutNtNvNtCs9kQvaEtA2Tf_20pin_project_internal7project16replace_item_use14UseTreeVisitorEB14_, symObjAddr: 0x152BC, symBinAddr: 0x15F14, symSize: 0x12C }
  - { offset: 0xC844, size: 0x8, addend: 0x0, symName: __RINvNtNtCs807mVM355fU_3syn3gen9visit_mut20visit_data_union_mutNtNtCs9kQvaEtA2Tf_20pin_project_internal5utils15ReplaceReceiverEB12_, symObjAddr: 0x153E8, symBinAddr: 0x16040, symSize: 0x50 }
  - { offset: 0xC886, size: 0x8, addend: 0x0, symName: __RINvNtNtCs807mVM355fU_3syn3gen9visit_mut20visit_expr_array_mutNtNtCs9kQvaEtA2Tf_20pin_project_internal5utils15ReplaceReceiverEB12_, symObjAddr: 0x15438, symBinAddr: 0x16090, symSize: 0x184 }
  - { offset: 0xC96D, size: 0x8, addend: 0x0, symName: __RINvNtNtCs807mVM355fU_3syn3gen9visit_mut20visit_expr_array_mutNtNvNtCs9kQvaEtA2Tf_20pin_project_internal5utils23determine_lifetime_name16CollectLifetimesEB14_, symObjAddr: 0x155BC, symBinAddr: 0x16214, symSize: 0x184 }
  - { offset: 0xCA54, size: 0x8, addend: 0x0, symName: __RINvNtNtCs807mVM355fU_3syn3gen9visit_mut20visit_expr_array_mutNtNvNtCs9kQvaEtA2Tf_20pin_project_internal7project15replace_item_fn9FnVisitorEB14_, symObjAddr: 0x15740, symBinAddr: 0x16398, symSize: 0x184 }
  - { offset: 0xCB3B, size: 0x8, addend: 0x0, symName: __RINvNtNtCs807mVM355fU_3syn3gen9visit_mut20visit_expr_array_mutNtNvNtCs9kQvaEtA2Tf_20pin_project_internal7project16replace_item_use14UseTreeVisitorEB14_, symObjAddr: 0x158C4, symBinAddr: 0x1651C, symSize: 0x184 }
  - { offset: 0xCC22, size: 0x8, addend: 0x0, symName: __RINvNtNtCs807mVM355fU_3syn3gen9visit_mut20visit_expr_async_mutNtNtCs9kQvaEtA2Tf_20pin_project_internal5utils15ReplaceReceiverEB12_, symObjAddr: 0x15A48, symBinAddr: 0x166A0, symSize: 0x108 }
  - { offset: 0xCCBE, size: 0x8, addend: 0x0, symName: __RINvNtNtCs807mVM355fU_3syn3gen9visit_mut20visit_expr_async_mutNtNvNtCs9kQvaEtA2Tf_20pin_project_internal5utils23determine_lifetime_name16CollectLifetimesEB14_, symObjAddr: 0x15B50, symBinAddr: 0x167A8, symSize: 0x108 }
  - { offset: 0xCD5A, size: 0x8, addend: 0x0, symName: __RINvNtNtCs807mVM355fU_3syn3gen9visit_mut20visit_expr_async_mutNtNvNtCs9kQvaEtA2Tf_20pin_project_internal7project15replace_item_fn9FnVisitorEB14_, symObjAddr: 0x15C58, symBinAddr: 0x168B0, symSize: 0x108 }
  - { offset: 0xCDF6, size: 0x8, addend: 0x0, symName: __RINvNtNtCs807mVM355fU_3syn3gen9visit_mut20visit_expr_async_mutNtNvNtCs9kQvaEtA2Tf_20pin_project_internal7project16replace_item_use14UseTreeVisitorEB14_, symObjAddr: 0x15D60, symBinAddr: 0x169B8, symSize: 0x108 }
  - { offset: 0xCE92, size: 0x8, addend: 0x0, symName: __RINvNtNtCs807mVM355fU_3syn3gen9visit_mut20visit_expr_await_mutNtNtCs9kQvaEtA2Tf_20pin_project_internal5utils15ReplaceReceiverEB12_, symObjAddr: 0x15E68, symBinAddr: 0x16AC0, symSize: 0x118 }
  - { offset: 0xCF10, size: 0x8, addend: 0x0, symName: __RINvNtNtCs807mVM355fU_3syn3gen9visit_mut20visit_expr_await_mutNtNvNtCs9kQvaEtA2Tf_20pin_project_internal5utils23determine_lifetime_name16CollectLifetimesEB14_, symObjAddr: 0x15F80, symBinAddr: 0x16BD8, symSize: 0x118 }
  - { offset: 0xCF8E, size: 0x8, addend: 0x0, symName: __RINvNtNtCs807mVM355fU_3syn3gen9visit_mut20visit_expr_await_mutNtNvNtCs9kQvaEtA2Tf_20pin_project_internal7project15replace_item_fn9FnVisitorEB14_, symObjAddr: 0x16098, symBinAddr: 0x16CF0, symSize: 0x118 }
  - { offset: 0xD00C, size: 0x8, addend: 0x0, symName: __RINvNtNtCs807mVM355fU_3syn3gen9visit_mut20visit_expr_await_mutNtNvNtCs9kQvaEtA2Tf_20pin_project_internal7project16replace_item_use14UseTreeVisitorEB14_, symObjAddr: 0x161B0, symBinAddr: 0x16E08, symSize: 0x118 }
  - { offset: 0xD08A, size: 0x8, addend: 0x0, symName: __RINvNtNtCs807mVM355fU_3syn3gen9visit_mut20visit_expr_block_mutNtNtCs9kQvaEtA2Tf_20pin_project_internal5utils15ReplaceReceiverEB12_, symObjAddr: 0x162C8, symBinAddr: 0x16F20, symSize: 0xFC }
  - { offset: 0xD126, size: 0x8, addend: 0x0, symName: __RINvNtNtCs807mVM355fU_3syn3gen9visit_mut20visit_expr_block_mutNtNvNtCs9kQvaEtA2Tf_20pin_project_internal5utils23determine_lifetime_name16CollectLifetimesEB14_, symObjAddr: 0x163C4, symBinAddr: 0x1701C, symSize: 0xFC }
  - { offset: 0xD1C2, size: 0x8, addend: 0x0, symName: __RINvNtNtCs807mVM355fU_3syn3gen9visit_mut20visit_expr_block_mutNtNvNtCs9kQvaEtA2Tf_20pin_project_internal7project15replace_item_fn9FnVisitorEB14_, symObjAddr: 0x164C0, symBinAddr: 0x17118, symSize: 0xFC }
  - { offset: 0xD25E, size: 0x8, addend: 0x0, symName: __RINvNtNtCs807mVM355fU_3syn3gen9visit_mut20visit_expr_block_mutNtNvNtCs9kQvaEtA2Tf_20pin_project_internal7project16replace_item_use14UseTreeVisitorEB14_, symObjAddr: 0x165BC, symBinAddr: 0x17214, symSize: 0xFC }
  - { offset: 0xD2FA, size: 0x8, addend: 0x0, symName: __RINvNtNtCs807mVM355fU_3syn3gen9visit_mut20visit_expr_break_mutNtNtCs9kQvaEtA2Tf_20pin_project_internal5utils15ReplaceReceiverEB12_, symObjAddr: 0x166B8, symBinAddr: 0x17310, symSize: 0x19C }
  - { offset: 0xD3AC, size: 0x8, addend: 0x0, symName: __RINvNtNtCs807mVM355fU_3syn3gen9visit_mut20visit_expr_break_mutNtNvNtCs9kQvaEtA2Tf_20pin_project_internal5utils23determine_lifetime_name16CollectLifetimesEB14_, symObjAddr: 0x16854, symBinAddr: 0x174AC, symSize: 0x19C }
  - { offset: 0xD45E, size: 0x8, addend: 0x0, symName: __RINvNtNtCs807mVM355fU_3syn3gen9visit_mut20visit_expr_break_mutNtNvNtCs9kQvaEtA2Tf_20pin_project_internal7project15replace_item_fn9FnVisitorEB14_, symObjAddr: 0x169F0, symBinAddr: 0x17648, symSize: 0x19C }
  - { offset: 0xD510, size: 0x8, addend: 0x0, symName: __RINvNtNtCs807mVM355fU_3syn3gen9visit_mut20visit_expr_break_mutNtNvNtCs9kQvaEtA2Tf_20pin_project_internal7project16replace_item_use14UseTreeVisitorEB14_, symObjAddr: 0x16B8C, symBinAddr: 0x177E4, symSize: 0x19C }
  - { offset: 0xD5C2, size: 0x8, addend: 0x0, symName: __RINvNtNtCs807mVM355fU_3syn3gen9visit_mut20visit_expr_field_mutNtNtCs9kQvaEtA2Tf_20pin_project_internal5utils15ReplaceReceiverEB12_, symObjAddr: 0x16D28, symBinAddr: 0x17980, symSize: 0x118 }
  - { offset: 0xD640, size: 0x8, addend: 0x0, symName: __RINvNtNtCs807mVM355fU_3syn3gen9visit_mut20visit_expr_field_mutNtNvNtCs9kQvaEtA2Tf_20pin_project_internal5utils23determine_lifetime_name16CollectLifetimesEB14_, symObjAddr: 0x16E40, symBinAddr: 0x17A98, symSize: 0x118 }
  - { offset: 0xD6BE, size: 0x8, addend: 0x0, symName: __RINvNtNtCs807mVM355fU_3syn3gen9visit_mut20visit_expr_field_mutNtNvNtCs9kQvaEtA2Tf_20pin_project_internal7project15replace_item_fn9FnVisitorEB14_, symObjAddr: 0x16F58, symBinAddr: 0x17BB0, symSize: 0x118 }
  - { offset: 0xD73C, size: 0x8, addend: 0x0, symName: __RINvNtNtCs807mVM355fU_3syn3gen9visit_mut20visit_expr_field_mutNtNvNtCs9kQvaEtA2Tf_20pin_project_internal7project16replace_item_use14UseTreeVisitorEB14_, symObjAddr: 0x17070, symBinAddr: 0x17CC8, symSize: 0x118 }
  - { offset: 0xD7BA, size: 0x8, addend: 0x0, symName: __RINvNtNtCs807mVM355fU_3syn3gen9visit_mut20visit_expr_group_mutNtNtCs9kQvaEtA2Tf_20pin_project_internal5utils15ReplaceReceiverEB12_, symObjAddr: 0x17188, symBinAddr: 0x17DE0, symSize: 0x108 }
  - { offset: 0xD838, size: 0x8, addend: 0x0, symName: __RINvNtNtCs807mVM355fU_3syn3gen9visit_mut20visit_expr_group_mutNtNvNtCs9kQvaEtA2Tf_20pin_project_internal5utils23determine_lifetime_name16CollectLifetimesEB14_, symObjAddr: 0x17290, symBinAddr: 0x17EE8, symSize: 0x108 }
  - { offset: 0xD8B6, size: 0x8, addend: 0x0, symName: __RINvNtNtCs807mVM355fU_3syn3gen9visit_mut20visit_expr_group_mutNtNvNtCs9kQvaEtA2Tf_20pin_project_internal7project15replace_item_fn9FnVisitorEB14_, symObjAddr: 0x17398, symBinAddr: 0x17FF0, symSize: 0x108 }
  - { offset: 0xD934, size: 0x8, addend: 0x0, symName: __RINvNtNtCs807mVM355fU_3syn3gen9visit_mut20visit_expr_group_mutNtNvNtCs9kQvaEtA2Tf_20pin_project_internal7project16replace_item_use14UseTreeVisitorEB14_, symObjAddr: 0x174A0, symBinAddr: 0x180F8, symSize: 0x108 }
  - { offset: 0xD9B2, size: 0x8, addend: 0x0, symName: __RINvNtNtCs807mVM355fU_3syn3gen9visit_mut20visit_expr_index_mutNtNtCs9kQvaEtA2Tf_20pin_project_internal5utils15ReplaceReceiverEB12_, symObjAddr: 0x175A8, symBinAddr: 0x18200, symSize: 0x164 }
  - { offset: 0xDA30, size: 0x8, addend: 0x0, symName: __RINvNtNtCs807mVM355fU_3syn3gen9visit_mut20visit_expr_index_mutNtNvNtCs9kQvaEtA2Tf_20pin_project_internal5utils23determine_lifetime_name16CollectLifetimesEB14_, symObjAddr: 0x1770C, symBinAddr: 0x18364, symSize: 0x164 }
  - { offset: 0xDAAE, size: 0x8, addend: 0x0, symName: __RINvNtNtCs807mVM355fU_3syn3gen9visit_mut20visit_expr_index_mutNtNvNtCs9kQvaEtA2Tf_20pin_project_internal7project15replace_item_fn9FnVisitorEB14_, symObjAddr: 0x17870, symBinAddr: 0x184C8, symSize: 0x164 }
  - { offset: 0xDB2C, size: 0x8, addend: 0x0, symName: __RINvNtNtCs807mVM355fU_3syn3gen9visit_mut20visit_expr_index_mutNtNvNtCs9kQvaEtA2Tf_20pin_project_internal7project16replace_item_use14UseTreeVisitorEB14_, symObjAddr: 0x179D4, symBinAddr: 0x1862C, symSize: 0x164 }
  - { offset: 0xDBAA, size: 0x8, addend: 0x0, symName: __RINvNtNtCs807mVM355fU_3syn3gen9visit_mut20visit_expr_macro_mutNtNtCs9kQvaEtA2Tf_20pin_project_internal5utils15ReplaceReceiverEB12_, symObjAddr: 0x17B38, symBinAddr: 0x18790, symSize: 0xA8 }
  - { offset: 0xDC28, size: 0x8, addend: 0x0, symName: __RINvNtNtCs807mVM355fU_3syn3gen9visit_mut20visit_expr_macro_mutNtNvNtCs9kQvaEtA2Tf_20pin_project_internal5utils23determine_lifetime_name16CollectLifetimesEB14_, symObjAddr: 0x17BE0, symBinAddr: 0x18838, symSize: 0xA8 }
  - { offset: 0xDCA6, size: 0x8, addend: 0x0, symName: __RINvNtNtCs807mVM355fU_3syn3gen9visit_mut20visit_expr_macro_mutNtNvNtCs9kQvaEtA2Tf_20pin_project_internal7project15replace_item_fn9FnVisitorEB14_, symObjAddr: 0x17C88, symBinAddr: 0x188E0, symSize: 0xA8 }
  - { offset: 0xDD24, size: 0x8, addend: 0x0, symName: __RINvNtNtCs807mVM355fU_3syn3gen9visit_mut20visit_expr_macro_mutNtNvNtCs9kQvaEtA2Tf_20pin_project_internal7project16replace_item_use14UseTreeVisitorEB14_, symObjAddr: 0x17D30, symBinAddr: 0x18988, symSize: 0xA8 }
  - { offset: 0xDDA2, size: 0x8, addend: 0x0, symName: __RINvNtNtCs807mVM355fU_3syn3gen9visit_mut20visit_expr_match_mutNtNtCs9kQvaEtA2Tf_20pin_project_internal5utils15ReplaceReceiverEB12_, symObjAddr: 0x17DD8, symBinAddr: 0x18A30, symSize: 0x178 }
  - { offset: 0xDE54, size: 0x8, addend: 0x0, symName: __RINvNtNtCs807mVM355fU_3syn3gen9visit_mut20visit_expr_match_mutNtNvNtCs9kQvaEtA2Tf_20pin_project_internal5utils23determine_lifetime_name16CollectLifetimesEB14_, symObjAddr: 0x17F50, symBinAddr: 0x18BA8, symSize: 0x178 }
  - { offset: 0xDF06, size: 0x8, addend: 0x0, symName: __RINvNtNtCs807mVM355fU_3syn3gen9visit_mut20visit_expr_match_mutNtNvNtCs9kQvaEtA2Tf_20pin_project_internal7project15replace_item_fn9FnVisitorEB14_, symObjAddr: 0x180C8, symBinAddr: 0x18D20, symSize: 0x178 }
  - { offset: 0xDFB8, size: 0x8, addend: 0x0, symName: __RINvNtNtCs807mVM355fU_3syn3gen9visit_mut20visit_expr_match_mutNtNvNtCs9kQvaEtA2Tf_20pin_project_internal7project16replace_item_use14UseTreeVisitorEB14_, symObjAddr: 0x18240, symBinAddr: 0x18E98, symSize: 0x178 }
  - { offset: 0xE06A, size: 0x8, addend: 0x0, symName: __RINvNtNtCs807mVM355fU_3syn3gen9visit_mut20visit_expr_paren_mutNtNtCs9kQvaEtA2Tf_20pin_project_internal5utils15ReplaceReceiverEB12_, symObjAddr: 0x183B8, symBinAddr: 0x19010, symSize: 0x108 }
  - { offset: 0xE0E8, size: 0x8, addend: 0x0, symName: __RINvNtNtCs807mVM355fU_3syn3gen9visit_mut20visit_expr_paren_mutNtNvNtCs9kQvaEtA2Tf_20pin_project_internal5utils23determine_lifetime_name16CollectLifetimesEB14_, symObjAddr: 0x184C0, symBinAddr: 0x19118, symSize: 0x108 }
  - { offset: 0xE166, size: 0x8, addend: 0x0, symName: __RINvNtNtCs807mVM355fU_3syn3gen9visit_mut20visit_expr_paren_mutNtNvNtCs9kQvaEtA2Tf_20pin_project_internal7project15replace_item_fn9FnVisitorEB14_, symObjAddr: 0x185C8, symBinAddr: 0x19220, symSize: 0x108 }
  - { offset: 0xE1E4, size: 0x8, addend: 0x0, symName: __RINvNtNtCs807mVM355fU_3syn3gen9visit_mut20visit_expr_paren_mutNtNvNtCs9kQvaEtA2Tf_20pin_project_internal7project16replace_item_use14UseTreeVisitorEB14_, symObjAddr: 0x186D0, symBinAddr: 0x19328, symSize: 0x108 }
  - { offset: 0xE262, size: 0x8, addend: 0x0, symName: __RINvNtNtCs807mVM355fU_3syn3gen9visit_mut20visit_expr_range_mutNtNtCs9kQvaEtA2Tf_20pin_project_internal5utils15ReplaceReceiverEB12_, symObjAddr: 0x187D8, symBinAddr: 0x19430, symSize: 0x1EC }
  - { offset: 0xE30C, size: 0x8, addend: 0x0, symName: __RINvNtNtCs807mVM355fU_3syn3gen9visit_mut20visit_expr_range_mutNtNvNtCs9kQvaEtA2Tf_20pin_project_internal5utils23determine_lifetime_name16CollectLifetimesEB14_, symObjAddr: 0x189C4, symBinAddr: 0x1961C, symSize: 0x1EC }
  - { offset: 0xE3B6, size: 0x8, addend: 0x0, symName: __RINvNtNtCs807mVM355fU_3syn3gen9visit_mut20visit_expr_range_mutNtNvNtCs9kQvaEtA2Tf_20pin_project_internal7project15replace_item_fn9FnVisitorEB14_, symObjAddr: 0x18BB0, symBinAddr: 0x19808, symSize: 0x1EC }
  - { offset: 0xE460, size: 0x8, addend: 0x0, symName: __RINvNtNtCs807mVM355fU_3syn3gen9visit_mut20visit_expr_range_mutNtNvNtCs9kQvaEtA2Tf_20pin_project_internal7project16replace_item_use14UseTreeVisitorEB14_, symObjAddr: 0x18D9C, symBinAddr: 0x199F4, symSize: 0x1EC }
  - { offset: 0xE50A, size: 0x8, addend: 0x0, symName: __RINvNtNtCs807mVM355fU_3syn3gen9visit_mut20visit_expr_tuple_mutNtNtCs9kQvaEtA2Tf_20pin_project_internal5utils15ReplaceReceiverEB12_, symObjAddr: 0x18F88, symBinAddr: 0x19BE0, symSize: 0x184 }
  - { offset: 0xE5F1, size: 0x8, addend: 0x0, symName: __RINvNtNtCs807mVM355fU_3syn3gen9visit_mut20visit_expr_tuple_mutNtNvNtCs9kQvaEtA2Tf_20pin_project_internal5utils23determine_lifetime_name16CollectLifetimesEB14_, symObjAddr: 0x1910C, symBinAddr: 0x19D64, symSize: 0x184 }
  - { offset: 0xE6D8, size: 0x8, addend: 0x0, symName: __RINvNtNtCs807mVM355fU_3syn3gen9visit_mut20visit_expr_tuple_mutNtNvNtCs9kQvaEtA2Tf_20pin_project_internal7project15replace_item_fn9FnVisitorEB14_, symObjAddr: 0x19290, symBinAddr: 0x19EE8, symSize: 0x184 }
  - { offset: 0xE7BF, size: 0x8, addend: 0x0, symName: __RINvNtNtCs807mVM355fU_3syn3gen9visit_mut20visit_expr_tuple_mutNtNvNtCs9kQvaEtA2Tf_20pin_project_internal7project16replace_item_use14UseTreeVisitorEB14_, symObjAddr: 0x19414, symBinAddr: 0x1A06C, symSize: 0x184 }
  - { offset: 0xE8A6, size: 0x8, addend: 0x0, symName: __RINvNtNtCs807mVM355fU_3syn3gen9visit_mut20visit_expr_unary_mutNtNtCs9kQvaEtA2Tf_20pin_project_internal5utils15ReplaceReceiverEB12_, symObjAddr: 0x19598, symBinAddr: 0x1A1F0, symSize: 0x108 }
  - { offset: 0xE924, size: 0x8, addend: 0x0, symName: __RINvNtNtCs807mVM355fU_3syn3gen9visit_mut20visit_expr_unary_mutNtNvNtCs9kQvaEtA2Tf_20pin_project_internal5utils23determine_lifetime_name16CollectLifetimesEB14_, symObjAddr: 0x196A0, symBinAddr: 0x1A2F8, symSize: 0x108 }
  - { offset: 0xE9A2, size: 0x8, addend: 0x0, symName: __RINvNtNtCs807mVM355fU_3syn3gen9visit_mut20visit_expr_unary_mutNtNvNtCs9kQvaEtA2Tf_20pin_project_internal7project15replace_item_fn9FnVisitorEB14_, symObjAddr: 0x197A8, symBinAddr: 0x1A400, symSize: 0x108 }
  - { offset: 0xEA20, size: 0x8, addend: 0x0, symName: __RINvNtNtCs807mVM355fU_3syn3gen9visit_mut20visit_expr_unary_mutNtNvNtCs9kQvaEtA2Tf_20pin_project_internal7project16replace_item_use14UseTreeVisitorEB14_, symObjAddr: 0x198B0, symBinAddr: 0x1A508, symSize: 0x108 }
  - { offset: 0xEA9E, size: 0x8, addend: 0x0, symName: __RINvNtNtCs807mVM355fU_3syn3gen9visit_mut20visit_expr_while_mutNtNtCs9kQvaEtA2Tf_20pin_project_internal5utils15ReplaceReceiverEB12_, symObjAddr: 0x199B8, symBinAddr: 0x1A610, symSize: 0x168 }
  - { offset: 0xEB3A, size: 0x8, addend: 0x0, symName: __RINvNtNtCs807mVM355fU_3syn3gen9visit_mut20visit_expr_while_mutNtNvNtCs9kQvaEtA2Tf_20pin_project_internal5utils23determine_lifetime_name16CollectLifetimesEB14_, symObjAddr: 0x19B20, symBinAddr: 0x1A778, symSize: 0x168 }
  - { offset: 0xEBD6, size: 0x8, addend: 0x0, symName: __RINvNtNtCs807mVM355fU_3syn3gen9visit_mut20visit_expr_while_mutNtNvNtCs9kQvaEtA2Tf_20pin_project_internal7project15replace_item_fn9FnVisitorEB14_, symObjAddr: 0x19C88, symBinAddr: 0x1A8E0, symSize: 0x168 }
  - { offset: 0xEC72, size: 0x8, addend: 0x0, symName: __RINvNtNtCs807mVM355fU_3syn3gen9visit_mut20visit_expr_while_mutNtNvNtCs9kQvaEtA2Tf_20pin_project_internal7project16replace_item_use14UseTreeVisitorEB14_, symObjAddr: 0x19DF0, symBinAddr: 0x1AA48, symSize: 0x168 }
  - { offset: 0xED0E, size: 0x8, addend: 0x0, symName: __RINvNtNtCs807mVM355fU_3syn3gen9visit_mut20visit_expr_yield_mutNtNtCs9kQvaEtA2Tf_20pin_project_internal5utils15ReplaceReceiverEB12_, symObjAddr: 0x19F58, symBinAddr: 0x1ABB0, symSize: 0x14C }
  - { offset: 0xEDA2, size: 0x8, addend: 0x0, symName: __RINvNtNtCs807mVM355fU_3syn3gen9visit_mut20visit_expr_yield_mutNtNvNtCs9kQvaEtA2Tf_20pin_project_internal5utils23determine_lifetime_name16CollectLifetimesEB14_, symObjAddr: 0x1A0A4, symBinAddr: 0x1ACFC, symSize: 0x14C }
  - { offset: 0xEE36, size: 0x8, addend: 0x0, symName: __RINvNtNtCs807mVM355fU_3syn3gen9visit_mut20visit_expr_yield_mutNtNvNtCs9kQvaEtA2Tf_20pin_project_internal7project15replace_item_fn9FnVisitorEB14_, symObjAddr: 0x1A1F0, symBinAddr: 0x1AE48, symSize: 0x14C }
  - { offset: 0xEECA, size: 0x8, addend: 0x0, symName: __RINvNtNtCs807mVM355fU_3syn3gen9visit_mut20visit_expr_yield_mutNtNvNtCs9kQvaEtA2Tf_20pin_project_internal7project16replace_item_use14UseTreeVisitorEB14_, symObjAddr: 0x1A33C, symBinAddr: 0x1AF94, symSize: 0x14C }
  - { offset: 0xEF5E, size: 0x8, addend: 0x0, symName: __RINvNtNtCs807mVM355fU_3syn3gen9visit_mut20visit_item_const_mutNtNvNtCs9kQvaEtA2Tf_20pin_project_internal5utils23determine_lifetime_name16CollectLifetimesEB14_, symObjAddr: 0x1A488, symBinAddr: 0x1B0E0, symSize: 0x1B4 }
  - { offset: 0xEFDC, size: 0x8, addend: 0x0, symName: __RINvNtNtCs807mVM355fU_3syn3gen9visit_mut20visit_item_const_mutNtNvNtCs9kQvaEtA2Tf_20pin_project_internal7project16replace_item_use14UseTreeVisitorEB14_, symObjAddr: 0x1A63C, symBinAddr: 0x1B294, symSize: 0x1B4 }
  - { offset: 0xF05A, size: 0x8, addend: 0x0, symName: __RINvNtNtCs807mVM355fU_3syn3gen9visit_mut20visit_item_macro_mutNtNvNtCs9kQvaEtA2Tf_20pin_project_internal5utils23determine_lifetime_name16CollectLifetimesEB14_, symObjAddr: 0x1A7F0, symBinAddr: 0x1B448, symSize: 0x148 }
  - { offset: 0xF114, size: 0x8, addend: 0x0, symName: __RINvNtNtCs807mVM355fU_3syn3gen9visit_mut20visit_item_macro_mutNtNvNtCs9kQvaEtA2Tf_20pin_project_internal7project16replace_item_use14UseTreeVisitorEB14_, symObjAddr: 0x1A938, symBinAddr: 0x1B590, symSize: 0x148 }
  - { offset: 0xF1CE, size: 0x8, addend: 0x0, symName: __RINvNtNtCs807mVM355fU_3syn3gen9visit_mut20visit_item_trait_mutNtNvNtCs9kQvaEtA2Tf_20pin_project_internal5utils23determine_lifetime_name16CollectLifetimesEB14_, symObjAddr: 0x1AA80, symBinAddr: 0x1B6D8, symSize: 0x314 }
  - { offset: 0xF351, size: 0x8, addend: 0x0, symName: __RINvNtNtCs807mVM355fU_3syn3gen9visit_mut20visit_item_trait_mutNtNvNtCs9kQvaEtA2Tf_20pin_project_internal7project16replace_item_use14UseTreeVisitorEB14_, symObjAddr: 0x1AD94, symBinAddr: 0x1B9EC, symSize: 0x314 }
  - { offset: 0xF4D4, size: 0x8, addend: 0x0, symName: __RINvNtNtCs807mVM355fU_3syn3gen9visit_mut20visit_item_union_mutNtNvNtCs9kQvaEtA2Tf_20pin_project_internal5utils23determine_lifetime_name16CollectLifetimesEB14_, symObjAddr: 0x1B0A8, symBinAddr: 0x1BD00, symSize: 0xE8 }
  - { offset: 0xF552, size: 0x8, addend: 0x0, symName: __RINvNtNtCs807mVM355fU_3syn3gen9visit_mut20visit_item_union_mutNtNvNtCs9kQvaEtA2Tf_20pin_project_internal7project16replace_item_use14UseTreeVisitorEB14_, symObjAddr: 0x1B190, symBinAddr: 0x1BDE8, symSize: 0xE8 }
  - { offset: 0xF5D0, size: 0x8, addend: 0x0, symName: __RINvNtNtCs807mVM355fU_3syn3gen9visit_mut20visit_pat_struct_mutNtNtCs9kQvaEtA2Tf_20pin_project_internal5utils15ReplaceReceiverEB12_, symObjAddr: 0x1B278, symBinAddr: 0x1BED0, symSize: 0x1EC }
  - { offset: 0xF6D7, size: 0x8, addend: 0x0, symName: __RINvNtNtCs807mVM355fU_3syn3gen9visit_mut20visit_pat_struct_mutNtNvNtCs9kQvaEtA2Tf_20pin_project_internal5utils23determine_lifetime_name16CollectLifetimesEB14_, symObjAddr: 0x1B464, symBinAddr: 0x1C0BC, symSize: 0x1EC }
  - { offset: 0xF7DE, size: 0x8, addend: 0x0, symName: __RINvNtNtCs807mVM355fU_3syn3gen9visit_mut20visit_pat_struct_mutNtNvNtCs9kQvaEtA2Tf_20pin_project_internal7project15replace_item_fn9FnVisitorEB14_, symObjAddr: 0x1B650, symBinAddr: 0x1C2A8, symSize: 0x1EC }
  - { offset: 0xF8E5, size: 0x8, addend: 0x0, symName: __RINvNtNtCs807mVM355fU_3syn3gen9visit_mut20visit_pat_struct_mutNtNvNtCs9kQvaEtA2Tf_20pin_project_internal7project16replace_item_use14UseTreeVisitorEB14_, symObjAddr: 0x1B83C, symBinAddr: 0x1C494, symSize: 0x1EC }
  - { offset: 0xF9EC, size: 0x8, addend: 0x0, symName: __RINvNtNtCs807mVM355fU_3syn3gen9visit_mut20visit_trait_item_mutNtNvNtCs9kQvaEtA2Tf_20pin_project_internal5utils23determine_lifetime_name16CollectLifetimesEB14_, symObjAddr: 0x1BA28, symBinAddr: 0x1C680, symSize: 0x160 }
  - { offset: 0xFAA6, size: 0x8, addend: 0x0, symName: __RINvNtNtCs807mVM355fU_3syn3gen9visit_mut20visit_trait_item_mutNtNvNtCs9kQvaEtA2Tf_20pin_project_internal7project16replace_item_use14UseTreeVisitorEB14_, symObjAddr: 0x1BB88, symBinAddr: 0x1C7E0, symSize: 0x160 }
  - { offset: 0xFB60, size: 0x8, addend: 0x0, symName: __RINvNtNtCs807mVM355fU_3syn3gen9visit_mut20visit_type_array_mutNtNtCs9kQvaEtA2Tf_20pin_project_internal5utils15ReplaceReceiverEB12_, symObjAddr: 0x1BCE8, symBinAddr: 0x1C940, symSize: 0xC0 }
  - { offset: 0xFBA2, size: 0x8, addend: 0x0, symName: __RINvNtNtCs807mVM355fU_3syn3gen9visit_mut20visit_type_array_mutNtNvNtCs9kQvaEtA2Tf_20pin_project_internal5utils23determine_lifetime_name16CollectLifetimesEB14_, symObjAddr: 0x1BDA8, symBinAddr: 0x1CA00, symSize: 0xC0 }
  - { offset: 0xFBE4, size: 0x8, addend: 0x0, symName: __RINvNtNtCs807mVM355fU_3syn3gen9visit_mut20visit_type_array_mutNtNvNtCs9kQvaEtA2Tf_20pin_project_internal7project15replace_item_fn9FnVisitorEB14_, symObjAddr: 0x1BE68, symBinAddr: 0x1CAC0, symSize: 0xC0 }
  - { offset: 0xFC26, size: 0x8, addend: 0x0, symName: __RINvNtNtCs807mVM355fU_3syn3gen9visit_mut20visit_type_array_mutNtNvNtCs9kQvaEtA2Tf_20pin_project_internal7project16replace_item_use14UseTreeVisitorEB14_, symObjAddr: 0x1BF28, symBinAddr: 0x1CB80, symSize: 0xC0 }
  - { offset: 0xFC68, size: 0x8, addend: 0x0, symName: __RINvNtNtCs807mVM355fU_3syn3gen9visit_mut20visit_type_group_mutNtNtCs9kQvaEtA2Tf_20pin_project_internal5utils15ReplaceReceiverEB12_, symObjAddr: 0x1BFE8, symBinAddr: 0x1CC40, symSize: 0xA4 }
  - { offset: 0xFCAA, size: 0x8, addend: 0x0, symName: __RINvNtNtCs807mVM355fU_3syn3gen9visit_mut20visit_type_group_mutNtNvNtCs9kQvaEtA2Tf_20pin_project_internal5utils23determine_lifetime_name16CollectLifetimesEB14_, symObjAddr: 0x1C08C, symBinAddr: 0x1CCE4, symSize: 0xA4 }
  - { offset: 0xFCEC, size: 0x8, addend: 0x0, symName: __RINvNtNtCs807mVM355fU_3syn3gen9visit_mut20visit_type_group_mutNtNvNtCs9kQvaEtA2Tf_20pin_project_internal7project15replace_item_fn9FnVisitorEB14_, symObjAddr: 0x1C130, symBinAddr: 0x1CD88, symSize: 0xA4 }
  - { offset: 0xFD2E, size: 0x8, addend: 0x0, symName: __RINvNtNtCs807mVM355fU_3syn3gen9visit_mut20visit_type_group_mutNtNvNtCs9kQvaEtA2Tf_20pin_project_internal7project16replace_item_use14UseTreeVisitorEB14_, symObjAddr: 0x1C1D4, symBinAddr: 0x1CE2C, symSize: 0xA4 }
  - { offset: 0xFD70, size: 0x8, addend: 0x0, symName: __RINvNtNtCs807mVM355fU_3syn3gen9visit_mut20visit_type_infer_mutNtNtCs9kQvaEtA2Tf_20pin_project_internal5utils15ReplaceReceiverEB12_, symObjAddr: 0x1C278, symBinAddr: 0x1CED0, symSize: 0x3C }
  - { offset: 0xFDB2, size: 0x8, addend: 0x0, symName: __RINvNtNtCs807mVM355fU_3syn3gen9visit_mut20visit_type_infer_mutNtNvNtCs9kQvaEtA2Tf_20pin_project_internal5utils23determine_lifetime_name16CollectLifetimesEB14_, symObjAddr: 0x1C2B4, symBinAddr: 0x1CF0C, symSize: 0x3C }
  - { offset: 0xFDF4, size: 0x8, addend: 0x0, symName: __RINvNtNtCs807mVM355fU_3syn3gen9visit_mut20visit_type_infer_mutNtNvNtCs9kQvaEtA2Tf_20pin_project_internal7project15replace_item_fn9FnVisitorEB14_, symObjAddr: 0x1C2F0, symBinAddr: 0x1CF48, symSize: 0x3C }
  - { offset: 0xFE36, size: 0x8, addend: 0x0, symName: __RINvNtNtCs807mVM355fU_3syn3gen9visit_mut20visit_type_infer_mutNtNvNtCs9kQvaEtA2Tf_20pin_project_internal7project16replace_item_use14UseTreeVisitorEB14_, symObjAddr: 0x1C32C, symBinAddr: 0x1CF84, symSize: 0x3C }
  - { offset: 0xFE78, size: 0x8, addend: 0x0, symName: __RINvNtNtCs807mVM355fU_3syn3gen9visit_mut20visit_type_macro_mutNtNtCs9kQvaEtA2Tf_20pin_project_internal5utils15ReplaceReceiverEB12_, symObjAddr: 0x1C368, symBinAddr: 0x1CFC0, symSize: 0x3C }
  - { offset: 0xFEBA, size: 0x8, addend: 0x0, symName: __RINvNtNtCs807mVM355fU_3syn3gen9visit_mut20visit_type_macro_mutNtNvNtCs9kQvaEtA2Tf_20pin_project_internal5utils23determine_lifetime_name16CollectLifetimesEB14_, symObjAddr: 0x1C3A4, symBinAddr: 0x1CFFC, symSize: 0x3C }
  - { offset: 0xFEFC, size: 0x8, addend: 0x0, symName: __RINvNtNtCs807mVM355fU_3syn3gen9visit_mut20visit_type_macro_mutNtNvNtCs9kQvaEtA2Tf_20pin_project_internal7project15replace_item_fn9FnVisitorEB14_, symObjAddr: 0x1C3E0, symBinAddr: 0x1D038, symSize: 0x3C }
  - { offset: 0xFF3E, size: 0x8, addend: 0x0, symName: __RINvNtNtCs807mVM355fU_3syn3gen9visit_mut20visit_type_macro_mutNtNvNtCs9kQvaEtA2Tf_20pin_project_internal7project16replace_item_use14UseTreeVisitorEB14_, symObjAddr: 0x1C41C, symBinAddr: 0x1D074, symSize: 0x3C }
  - { offset: 0xFF80, size: 0x8, addend: 0x0, symName: __RINvNtNtCs807mVM355fU_3syn3gen9visit_mut20visit_type_never_mutNtNtCs9kQvaEtA2Tf_20pin_project_internal5utils15ReplaceReceiverEB12_, symObjAddr: 0x1C458, symBinAddr: 0x1D0B0, symSize: 0x3C }
  - { offset: 0xFFC2, size: 0x8, addend: 0x0, symName: __RINvNtNtCs807mVM355fU_3syn3gen9visit_mut20visit_type_never_mutNtNvNtCs9kQvaEtA2Tf_20pin_project_internal5utils23determine_lifetime_name16CollectLifetimesEB14_, symObjAddr: 0x1C494, symBinAddr: 0x1D0EC, symSize: 0x3C }
  - { offset: 0x10004, size: 0x8, addend: 0x0, symName: __RINvNtNtCs807mVM355fU_3syn3gen9visit_mut20visit_type_never_mutNtNvNtCs9kQvaEtA2Tf_20pin_project_internal7project15replace_item_fn9FnVisitorEB14_, symObjAddr: 0x1C4D0, symBinAddr: 0x1D128, symSize: 0x3C }
  - { offset: 0x10046, size: 0x8, addend: 0x0, symName: __RINvNtNtCs807mVM355fU_3syn3gen9visit_mut20visit_type_never_mutNtNvNtCs9kQvaEtA2Tf_20pin_project_internal7project16replace_item_use14UseTreeVisitorEB14_, symObjAddr: 0x1C50C, symBinAddr: 0x1D164, symSize: 0x3C }
  - { offset: 0x10088, size: 0x8, addend: 0x0, symName: __RINvNtNtCs807mVM355fU_3syn3gen9visit_mut20visit_type_param_mutNtNtCs9kQvaEtA2Tf_20pin_project_internal5utils15ReplaceReceiverEB12_, symObjAddr: 0x1C548, symBinAddr: 0x1D1A0, symSize: 0x290 }
  - { offset: 0x101CD, size: 0x8, addend: 0x0, symName: __RINvNtNtCs807mVM355fU_3syn3gen9visit_mut20visit_type_param_mutNtNvNtCs9kQvaEtA2Tf_20pin_project_internal5utils23determine_lifetime_name16CollectLifetimesEB14_, symObjAddr: 0x1C7D8, symBinAddr: 0x1D430, symSize: 0x290 }
  - { offset: 0x10312, size: 0x8, addend: 0x0, symName: __RINvNtNtCs807mVM355fU_3syn3gen9visit_mut20visit_type_param_mutNtNvNtCs9kQvaEtA2Tf_20pin_project_internal7project16replace_item_use14UseTreeVisitorEB14_, symObjAddr: 0x1CA68, symBinAddr: 0x1D6C0, symSize: 0x290 }
  - { offset: 0x10457, size: 0x8, addend: 0x0, symName: __RINvNtNtCs807mVM355fU_3syn3gen9visit_mut20visit_type_paren_mutNtNtCs9kQvaEtA2Tf_20pin_project_internal5utils15ReplaceReceiverEB12_, symObjAddr: 0x1CCF8, symBinAddr: 0x1D950, symSize: 0xA4 }
  - { offset: 0x10499, size: 0x8, addend: 0x0, symName: __RINvNtNtCs807mVM355fU_3syn3gen9visit_mut20visit_type_paren_mutNtNvNtCs9kQvaEtA2Tf_20pin_project_internal5utils23determine_lifetime_name16CollectLifetimesEB14_, symObjAddr: 0x1CD9C, symBinAddr: 0x1D9F4, symSize: 0xA4 }
  - { offset: 0x104DB, size: 0x8, addend: 0x0, symName: __RINvNtNtCs807mVM355fU_3syn3gen9visit_mut20visit_type_paren_mutNtNvNtCs9kQvaEtA2Tf_20pin_project_internal7project15replace_item_fn9FnVisitorEB14_, symObjAddr: 0x1CE40, symBinAddr: 0x1DA98, symSize: 0xA4 }
  - { offset: 0x1051D, size: 0x8, addend: 0x0, symName: __RINvNtNtCs807mVM355fU_3syn3gen9visit_mut20visit_type_paren_mutNtNvNtCs9kQvaEtA2Tf_20pin_project_internal7project16replace_item_use14UseTreeVisitorEB14_, symObjAddr: 0x1CEE4, symBinAddr: 0x1DB3C, symSize: 0xA4 }
  - { offset: 0x1055F, size: 0x8, addend: 0x0, symName: __RINvNtNtCs807mVM355fU_3syn3gen9visit_mut20visit_type_slice_mutNtNtCs9kQvaEtA2Tf_20pin_project_internal5utils15ReplaceReceiverEB12_, symObjAddr: 0x1CF88, symBinAddr: 0x1DBE0, symSize: 0xA4 }
  - { offset: 0x105A1, size: 0x8, addend: 0x0, symName: __RINvNtNtCs807mVM355fU_3syn3gen9visit_mut20visit_type_slice_mutNtNvNtCs9kQvaEtA2Tf_20pin_project_internal5utils23determine_lifetime_name16CollectLifetimesEB14_, symObjAddr: 0x1D02C, symBinAddr: 0x1DC84, symSize: 0xA4 }
  - { offset: 0x105E3, size: 0x8, addend: 0x0, symName: __RINvNtNtCs807mVM355fU_3syn3gen9visit_mut20visit_type_slice_mutNtNvNtCs9kQvaEtA2Tf_20pin_project_internal7project15replace_item_fn9FnVisitorEB14_, symObjAddr: 0x1D0D0, symBinAddr: 0x1DD28, symSize: 0xA4 }
  - { offset: 0x10625, size: 0x8, addend: 0x0, symName: __RINvNtNtCs807mVM355fU_3syn3gen9visit_mut20visit_type_slice_mutNtNvNtCs9kQvaEtA2Tf_20pin_project_internal7project16replace_item_use14UseTreeVisitorEB14_, symObjAddr: 0x1D174, symBinAddr: 0x1DDCC, symSize: 0xA4 }
  - { offset: 0x10667, size: 0x8, addend: 0x0, symName: __RINvNtNtCs807mVM355fU_3syn3gen9visit_mut20visit_type_tuple_mutNtNtCs9kQvaEtA2Tf_20pin_project_internal5utils15ReplaceReceiverEB12_, symObjAddr: 0x1D218, symBinAddr: 0x1DE70, symSize: 0x11C }
  - { offset: 0x10712, size: 0x8, addend: 0x0, symName: __RINvNtNtCs807mVM355fU_3syn3gen9visit_mut20visit_type_tuple_mutNtNvNtCs9kQvaEtA2Tf_20pin_project_internal5utils23determine_lifetime_name16CollectLifetimesEB14_, symObjAddr: 0x1D334, symBinAddr: 0x1DF8C, symSize: 0x11C }
  - { offset: 0x107BD, size: 0x8, addend: 0x0, symName: __RINvNtNtCs807mVM355fU_3syn3gen9visit_mut20visit_type_tuple_mutNtNvNtCs9kQvaEtA2Tf_20pin_project_internal7project15replace_item_fn9FnVisitorEB14_, symObjAddr: 0x1D450, symBinAddr: 0x1E0A8, symSize: 0x11C }
  - { offset: 0x10868, size: 0x8, addend: 0x0, symName: __RINvNtNtCs807mVM355fU_3syn3gen9visit_mut20visit_type_tuple_mutNtNvNtCs9kQvaEtA2Tf_20pin_project_internal7project16replace_item_use14UseTreeVisitorEB14_, symObjAddr: 0x1D56C, symBinAddr: 0x1E1C4, symSize: 0x11C }
  - { offset: 0x10913, size: 0x8, addend: 0x0, symName: __RINvNtNtCs807mVM355fU_3syn3gen9visit_mut20visit_use_rename_mutNtNvNtCs9kQvaEtA2Tf_20pin_project_internal5utils23determine_lifetime_name16CollectLifetimesEB14_, symObjAddr: 0x1D688, symBinAddr: 0x1E2E0, symSize: 0x60 }
  - { offset: 0x10955, size: 0x8, addend: 0x0, symName: __RINvNtNtCs807mVM355fU_3syn3gen9visit_mut20visit_use_rename_mutNtNvNtCs9kQvaEtA2Tf_20pin_project_internal7project16replace_item_use14UseTreeVisitorEB14_, symObjAddr: 0x1D6E8, symBinAddr: 0x1E340, symSize: 0x60 }
  - { offset: 0x10997, size: 0x8, addend: 0x0, symName: __RINvNtNtCs807mVM355fU_3syn3gen9visit_mut20visit_vis_public_mutNtNtCs9kQvaEtA2Tf_20pin_project_internal5utils15ReplaceReceiverEB12_, symObjAddr: 0x1D748, symBinAddr: 0x1E3A0, symSize: 0x3C }
  - { offset: 0x109D9, size: 0x8, addend: 0x0, symName: __RINvNtNtCs807mVM355fU_3syn3gen9visit_mut20visit_vis_public_mutNtNvNtCs9kQvaEtA2Tf_20pin_project_internal5utils23determine_lifetime_name16CollectLifetimesEB14_, symObjAddr: 0x1D784, symBinAddr: 0x1E3DC, symSize: 0x3C }
  - { offset: 0x10A1B, size: 0x8, addend: 0x0, symName: __RINvNtNtCs807mVM355fU_3syn3gen9visit_mut20visit_vis_public_mutNtNvNtCs9kQvaEtA2Tf_20pin_project_internal7project16replace_item_use14UseTreeVisitorEB14_, symObjAddr: 0x1D7C0, symBinAddr: 0x1E418, symSize: 0x3C }
  - { offset: 0x10A5D, size: 0x8, addend: 0x0, symName: __RINvNtNtCs807mVM355fU_3syn3gen9visit_mut20visit_visibility_mutNtNtCs9kQvaEtA2Tf_20pin_project_internal5utils15ReplaceReceiverEB12_, symObjAddr: 0x1D7FC, symBinAddr: 0x1E454, symSize: 0x114 }
  - { offset: 0x10AF9, size: 0x8, addend: 0x0, symName: __RINvNtNtCs807mVM355fU_3syn3gen9visit_mut20visit_visibility_mutNtNvNtCs9kQvaEtA2Tf_20pin_project_internal5utils23determine_lifetime_name16CollectLifetimesEB14_, symObjAddr: 0x1D910, symBinAddr: 0x1E568, symSize: 0x114 }
  - { offset: 0x10B95, size: 0x8, addend: 0x0, symName: __RINvNtNtCs807mVM355fU_3syn3gen9visit_mut20visit_visibility_mutNtNvNtCs9kQvaEtA2Tf_20pin_project_internal7project16replace_item_use14UseTreeVisitorEB14_, symObjAddr: 0x1DA24, symBinAddr: 0x1E67C, symSize: 0x114 }
  - { offset: 0x10C31, size: 0x8, addend: 0x0, symName: __RINvNtNtCs807mVM355fU_3syn3gen9visit_mut21visit_bare_fn_arg_mutNtNtCs9kQvaEtA2Tf_20pin_project_internal5utils15ReplaceReceiverEB13_, symObjAddr: 0x1DB38, symBinAddr: 0x1E790, symSize: 0x10C }
  - { offset: 0x10CCD, size: 0x8, addend: 0x0, symName: __RINvNtNtCs807mVM355fU_3syn3gen9visit_mut21visit_bare_fn_arg_mutNtNvNtCs9kQvaEtA2Tf_20pin_project_internal5utils23determine_lifetime_name16CollectLifetimesEB15_, symObjAddr: 0x1DC44, symBinAddr: 0x1E89C, symSize: 0x10C }
  - { offset: 0x10D69, size: 0x8, addend: 0x0, symName: __RINvNtNtCs807mVM355fU_3syn3gen9visit_mut21visit_bare_fn_arg_mutNtNvNtCs9kQvaEtA2Tf_20pin_project_internal7project15replace_item_fn9FnVisitorEB15_, symObjAddr: 0x1DD50, symBinAddr: 0x1E9A8, symSize: 0x10C }
  - { offset: 0x10E05, size: 0x8, addend: 0x0, symName: __RINvNtNtCs807mVM355fU_3syn3gen9visit_mut21visit_bare_fn_arg_mutNtNvNtCs9kQvaEtA2Tf_20pin_project_internal7project16replace_item_use14UseTreeVisitorEB15_, symObjAddr: 0x1DE5C, symBinAddr: 0x1EAB4, symSize: 0x10C }
  - { offset: 0x10EA1, size: 0x8, addend: 0x0, symName: __RINvNtNtCs807mVM355fU_3syn3gen9visit_mut21visit_const_param_mutNtNtCs9kQvaEtA2Tf_20pin_project_internal5utils15ReplaceReceiverEB13_, symObjAddr: 0x1DF68, symBinAddr: 0x1EBC0, symSize: 0x188 }
  - { offset: 0x10F5B, size: 0x8, addend: 0x0, symName: __RINvNtNtCs807mVM355fU_3syn3gen9visit_mut21visit_const_param_mutNtNvNtCs9kQvaEtA2Tf_20pin_project_internal5utils23determine_lifetime_name16CollectLifetimesEB15_, symObjAddr: 0x1E0F0, symBinAddr: 0x1ED48, symSize: 0x188 }
  - { offset: 0x11015, size: 0x8, addend: 0x0, symName: __RINvNtNtCs807mVM355fU_3syn3gen9visit_mut21visit_const_param_mutNtNvNtCs9kQvaEtA2Tf_20pin_project_internal7project16replace_item_use14UseTreeVisitorEB15_, symObjAddr: 0x1E278, symBinAddr: 0x1EED0, symSize: 0x188 }
  - { offset: 0x110CF, size: 0x8, addend: 0x0, symName: __RINvNtNtCs807mVM355fU_3syn3gen9visit_mut21visit_data_struct_mutNtNtCs9kQvaEtA2Tf_20pin_project_internal5utils15ReplaceReceiverEB13_, symObjAddr: 0x1E400, symBinAddr: 0x1F058, symSize: 0xA0 }
  - { offset: 0x1112F, size: 0x8, addend: 0x0, symName: __RINvNtNtCs807mVM355fU_3syn3gen9visit_mut21visit_expr_assign_mutNtNtCs9kQvaEtA2Tf_20pin_project_internal5utils15ReplaceReceiverEB13_, symObjAddr: 0x1E4A0, symBinAddr: 0x1F0F8, symSize: 0x164 }
  - { offset: 0x111AD, size: 0x8, addend: 0x0, symName: __RINvNtNtCs807mVM355fU_3syn3gen9visit_mut21visit_expr_assign_mutNtNvNtCs9kQvaEtA2Tf_20pin_project_internal5utils23determine_lifetime_name16CollectLifetimesEB15_, symObjAddr: 0x1E604, symBinAddr: 0x1F25C, symSize: 0x164 }
  - { offset: 0x1122B, size: 0x8, addend: 0x0, symName: __RINvNtNtCs807mVM355fU_3syn3gen9visit_mut21visit_expr_assign_mutNtNvNtCs9kQvaEtA2Tf_20pin_project_internal7project15replace_item_fn9FnVisitorEB15_, symObjAddr: 0x1E768, symBinAddr: 0x1F3C0, symSize: 0x164 }
  - { offset: 0x112A9, size: 0x8, addend: 0x0, symName: __RINvNtNtCs807mVM355fU_3syn3gen9visit_mut21visit_expr_assign_mutNtNvNtCs9kQvaEtA2Tf_20pin_project_internal7project16replace_item_use14UseTreeVisitorEB15_, symObjAddr: 0x1E8CC, symBinAddr: 0x1F524, symSize: 0x164 }
  - { offset: 0x11327, size: 0x8, addend: 0x0, symName: __RINvNtNtCs807mVM355fU_3syn3gen9visit_mut21visit_expr_binary_mutNtNtCs9kQvaEtA2Tf_20pin_project_internal5utils15ReplaceReceiverEB13_, symObjAddr: 0x1EA30, symBinAddr: 0x1F688, symSize: 0x164 }
  - { offset: 0x113A5, size: 0x8, addend: 0x0, symName: __RINvNtNtCs807mVM355fU_3syn3gen9visit_mut21visit_expr_binary_mutNtNvNtCs9kQvaEtA2Tf_20pin_project_internal5utils23determine_lifetime_name16CollectLifetimesEB15_, symObjAddr: 0x1EB94, symBinAddr: 0x1F7EC, symSize: 0x164 }
  - { offset: 0x11423, size: 0x8, addend: 0x0, symName: __RINvNtNtCs807mVM355fU_3syn3gen9visit_mut21visit_expr_binary_mutNtNvNtCs9kQvaEtA2Tf_20pin_project_internal7project15replace_item_fn9FnVisitorEB15_, symObjAddr: 0x1ECF8, symBinAddr: 0x1F950, symSize: 0x164 }
  - { offset: 0x114A1, size: 0x8, addend: 0x0, symName: __RINvNtNtCs807mVM355fU_3syn3gen9visit_mut21visit_expr_binary_mutNtNvNtCs9kQvaEtA2Tf_20pin_project_internal7project16replace_item_use14UseTreeVisitorEB15_, symObjAddr: 0x1EE5C, symBinAddr: 0x1FAB4, symSize: 0x164 }
  - { offset: 0x1151F, size: 0x8, addend: 0x0, symName: __RINvNtNtCs807mVM355fU_3syn3gen9visit_mut21visit_expr_repeat_mutNtNtCs9kQvaEtA2Tf_20pin_project_internal5utils15ReplaceReceiverEB13_, symObjAddr: 0x1EFC0, symBinAddr: 0x1FC18, symSize: 0x174 }
  - { offset: 0x1159D, size: 0x8, addend: 0x0, symName: __RINvNtNtCs807mVM355fU_3syn3gen9visit_mut21visit_expr_repeat_mutNtNvNtCs9kQvaEtA2Tf_20pin_project_internal5utils23determine_lifetime_name16CollectLifetimesEB15_, symObjAddr: 0x1F134, symBinAddr: 0x1FD8C, symSize: 0x174 }
  - { offset: 0x1161B, size: 0x8, addend: 0x0, symName: __RINvNtNtCs807mVM355fU_3syn3gen9visit_mut21visit_expr_repeat_mutNtNvNtCs9kQvaEtA2Tf_20pin_project_internal7project15replace_item_fn9FnVisitorEB15_, symObjAddr: 0x1F2A8, symBinAddr: 0x1FF00, symSize: 0x174 }
  - { offset: 0x11699, size: 0x8, addend: 0x0, symName: __RINvNtNtCs807mVM355fU_3syn3gen9visit_mut21visit_expr_repeat_mutNtNvNtCs9kQvaEtA2Tf_20pin_project_internal7project16replace_item_use14UseTreeVisitorEB15_, symObjAddr: 0x1F41C, symBinAddr: 0x20074, symSize: 0x174 }
  - { offset: 0x11717, size: 0x8, addend: 0x0, symName: __RINvNtNtCs807mVM355fU_3syn3gen9visit_mut21visit_expr_return_mutNtNtCs9kQvaEtA2Tf_20pin_project_internal5utils15ReplaceReceiverEB13_, symObjAddr: 0x1F590, symBinAddr: 0x201E8, symSize: 0x14C }
  - { offset: 0x117AB, size: 0x8, addend: 0x0, symName: __RINvNtNtCs807mVM355fU_3syn3gen9visit_mut21visit_expr_return_mutNtNvNtCs9kQvaEtA2Tf_20pin_project_internal5utils23determine_lifetime_name16CollectLifetimesEB15_, symObjAddr: 0x1F6DC, symBinAddr: 0x20334, symSize: 0x14C }
  - { offset: 0x1183F, size: 0x8, addend: 0x0, symName: __RINvNtNtCs807mVM355fU_3syn3gen9visit_mut21visit_expr_return_mutNtNvNtCs9kQvaEtA2Tf_20pin_project_internal7project15replace_item_fn9FnVisitorEB15_, symObjAddr: 0x1F828, symBinAddr: 0x20480, symSize: 0x14C }
  - { offset: 0x118D3, size: 0x8, addend: 0x0, symName: __RINvNtNtCs807mVM355fU_3syn3gen9visit_mut21visit_expr_return_mutNtNvNtCs9kQvaEtA2Tf_20pin_project_internal7project16replace_item_use14UseTreeVisitorEB15_, symObjAddr: 0x1F974, symBinAddr: 0x205CC, symSize: 0x14C }
  - { offset: 0x11967, size: 0x8, addend: 0x0, symName: __RINvNtNtCs807mVM355fU_3syn3gen9visit_mut21visit_expr_struct_mutNtNtCs9kQvaEtA2Tf_20pin_project_internal5utils15ReplaceReceiverEB13_, symObjAddr: 0x1FAC0, symBinAddr: 0x20718, symSize: 0x28C }
  - { offset: 0x11A85, size: 0x8, addend: 0x0, symName: __RINvNtNtCs807mVM355fU_3syn3gen9visit_mut21visit_expr_struct_mutNtNvNtCs9kQvaEtA2Tf_20pin_project_internal5utils23determine_lifetime_name16CollectLifetimesEB15_, symObjAddr: 0x1FD4C, symBinAddr: 0x209A4, symSize: 0x28C }
  - { offset: 0x11BA3, size: 0x8, addend: 0x0, symName: __RINvNtNtCs807mVM355fU_3syn3gen9visit_mut21visit_expr_struct_mutNtNvNtCs9kQvaEtA2Tf_20pin_project_internal7project15replace_item_fn9FnVisitorEB15_, symObjAddr: 0x1FFD8, symBinAddr: 0x20C30, symSize: 0x28C }
  - { offset: 0x11CC1, size: 0x8, addend: 0x0, symName: __RINvNtNtCs807mVM355fU_3syn3gen9visit_mut21visit_expr_struct_mutNtNvNtCs9kQvaEtA2Tf_20pin_project_internal7project16replace_item_use14UseTreeVisitorEB15_, symObjAddr: 0x20264, symBinAddr: 0x20EBC, symSize: 0x28C }
  - { offset: 0x11DDF, size: 0x8, addend: 0x0, symName: __RINvNtNtCs807mVM355fU_3syn3gen9visit_mut21visit_expr_unsafe_mutNtNtCs9kQvaEtA2Tf_20pin_project_internal5utils15ReplaceReceiverEB13_, symObjAddr: 0x204F0, symBinAddr: 0x21148, symSize: 0xB8 }
  - { offset: 0x11E5D, size: 0x8, addend: 0x0, symName: __RINvNtNtCs807mVM355fU_3syn3gen9visit_mut21visit_expr_unsafe_mutNtNvNtCs9kQvaEtA2Tf_20pin_project_internal5utils23determine_lifetime_name16CollectLifetimesEB15_, symObjAddr: 0x205A8, symBinAddr: 0x21200, symSize: 0xB8 }
  - { offset: 0x11EDB, size: 0x8, addend: 0x0, symName: __RINvNtNtCs807mVM355fU_3syn3gen9visit_mut21visit_expr_unsafe_mutNtNvNtCs9kQvaEtA2Tf_20pin_project_internal7project15replace_item_fn9FnVisitorEB15_, symObjAddr: 0x20660, symBinAddr: 0x212B8, symSize: 0xB8 }
  - { offset: 0x11F59, size: 0x8, addend: 0x0, symName: __RINvNtNtCs807mVM355fU_3syn3gen9visit_mut21visit_expr_unsafe_mutNtNvNtCs9kQvaEtA2Tf_20pin_project_internal7project16replace_item_use14UseTreeVisitorEB15_, symObjAddr: 0x20718, symBinAddr: 0x21370, symSize: 0xB8 }
  - { offset: 0x11FD7, size: 0x8, addend: 0x0, symName: __RINvNtNtCs807mVM355fU_3syn3gen9visit_mut21visit_field_value_mutNtNtCs9kQvaEtA2Tf_20pin_project_internal5utils15ReplaceReceiverEB13_, symObjAddr: 0x207D0, symBinAddr: 0x21428, symSize: 0x110 }
  - { offset: 0x12073, size: 0x8, addend: 0x0, symName: __RINvNtNtCs807mVM355fU_3syn3gen9visit_mut21visit_field_value_mutNtNvNtCs9kQvaEtA2Tf_20pin_project_internal5utils23determine_lifetime_name16CollectLifetimesEB15_, symObjAddr: 0x208E0, symBinAddr: 0x21538, symSize: 0x110 }
  - { offset: 0x1210F, size: 0x8, addend: 0x0, symName: __RINvNtNtCs807mVM355fU_3syn3gen9visit_mut21visit_field_value_mutNtNvNtCs9kQvaEtA2Tf_20pin_project_internal7project15replace_item_fn9FnVisitorEB15_, symObjAddr: 0x209F0, symBinAddr: 0x21648, symSize: 0x110 }
  - { offset: 0x121AB, size: 0x8, addend: 0x0, symName: __RINvNtNtCs807mVM355fU_3syn3gen9visit_mut21visit_field_value_mutNtNvNtCs9kQvaEtA2Tf_20pin_project_internal7project16replace_item_use14UseTreeVisitorEB15_, symObjAddr: 0x20B00, symBinAddr: 0x21758, symSize: 0x110 }
  - { offset: 0x12247, size: 0x8, addend: 0x0, symName: __RINvNtNtCs807mVM355fU_3syn3gen9visit_mut21visit_item_macro2_mutNtNvNtCs9kQvaEtA2Tf_20pin_project_internal5utils23determine_lifetime_name16CollectLifetimesEB15_, symObjAddr: 0x20C10, symBinAddr: 0x21868, symSize: 0xC8 }
  - { offset: 0x122C5, size: 0x8, addend: 0x0, symName: __RINvNtNtCs807mVM355fU_3syn3gen9visit_mut21visit_item_macro2_mutNtNvNtCs9kQvaEtA2Tf_20pin_project_internal7project16replace_item_use14UseTreeVisitorEB15_, symObjAddr: 0x20CD8, symBinAddr: 0x21930, symSize: 0xC8 }
  - { offset: 0x12343, size: 0x8, addend: 0x0, symName: __RINvNtNtCs807mVM355fU_3syn3gen9visit_mut21visit_item_static_mutNtNvNtCs9kQvaEtA2Tf_20pin_project_internal5utils23determine_lifetime_name16CollectLifetimesEB15_, symObjAddr: 0x20DA0, symBinAddr: 0x219F8, symSize: 0x200 }
  - { offset: 0x123DF, size: 0x8, addend: 0x0, symName: __RINvNtNtCs807mVM355fU_3syn3gen9visit_mut21visit_item_static_mutNtNvNtCs9kQvaEtA2Tf_20pin_project_internal7project16replace_item_use14UseTreeVisitorEB15_, symObjAddr: 0x20FA0, symBinAddr: 0x21BF8, symSize: 0x200 }
  - { offset: 0x1247B, size: 0x8, addend: 0x0, symName: __RINvNtNtCs807mVM355fU_3syn3gen9visit_mut21visit_item_struct_mutNtNvNtCs9kQvaEtA2Tf_20pin_project_internal5utils23determine_lifetime_name16CollectLifetimesEB15_, symObjAddr: 0x211A0, symBinAddr: 0x21DF8, symSize: 0x130 }
  - { offset: 0x12517, size: 0x8, addend: 0x0, symName: __RINvNtNtCs807mVM355fU_3syn3gen9visit_mut21visit_item_struct_mutNtNvNtCs9kQvaEtA2Tf_20pin_project_internal7project16replace_item_use14UseTreeVisitorEB15_, symObjAddr: 0x212D0, symBinAddr: 0x21F28, symSize: 0x130 }
  - { offset: 0x125B3, size: 0x8, addend: 0x0, symName: __RINvNtNtCs807mVM355fU_3syn3gen9visit_mut21visit_return_type_mutNtNtCs9kQvaEtA2Tf_20pin_project_internal5utils15ReplaceReceiverEB13_, symObjAddr: 0x21400, symBinAddr: 0x22058, symSize: 0xE4 }
  - { offset: 0x1261B, size: 0x8, addend: 0x0, symName: __RINvNtNtCs807mVM355fU_3syn3gen9visit_mut21visit_return_type_mutNtNvNtCs9kQvaEtA2Tf_20pin_project_internal5utils23determine_lifetime_name16CollectLifetimesEB15_, symObjAddr: 0x214E4, symBinAddr: 0x2213C, symSize: 0xE4 }
  - { offset: 0x12683, size: 0x8, addend: 0x0, symName: __RINvNtNtCs807mVM355fU_3syn3gen9visit_mut21visit_return_type_mutNtNvNtCs9kQvaEtA2Tf_20pin_project_internal7project15replace_item_fn9FnVisitorEB15_, symObjAddr: 0x215C8, symBinAddr: 0x22220, symSize: 0xE4 }
  - { offset: 0x126EB, size: 0x8, addend: 0x0, symName: __RINvNtNtCs807mVM355fU_3syn3gen9visit_mut21visit_return_type_mutNtNvNtCs9kQvaEtA2Tf_20pin_project_internal7project16replace_item_use14UseTreeVisitorEB15_, symObjAddr: 0x216AC, symBinAddr: 0x22304, symSize: 0xE4 }
  - { offset: 0x12753, size: 0x8, addend: 0x0, symName: __RINvNtNtCs807mVM355fU_3syn3gen9visit_mut21visit_trait_bound_mutNtNtCs9kQvaEtA2Tf_20pin_project_internal5utils15ReplaceReceiverEB13_, symObjAddr: 0x21790, symBinAddr: 0x223E8, symSize: 0xF4 }
  - { offset: 0x127D1, size: 0x8, addend: 0x0, symName: __RINvNtNtCs807mVM355fU_3syn3gen9visit_mut21visit_trait_bound_mutNtNvNtCs9kQvaEtA2Tf_20pin_project_internal5utils23determine_lifetime_name16CollectLifetimesEB15_, symObjAddr: 0x21884, symBinAddr: 0x224DC, symSize: 0xF4 }
  - { offset: 0x1284F, size: 0x8, addend: 0x0, symName: __RINvNtNtCs807mVM355fU_3syn3gen9visit_mut21visit_trait_bound_mutNtNvNtCs9kQvaEtA2Tf_20pin_project_internal7project15replace_item_fn9FnVisitorEB15_, symObjAddr: 0x21978, symBinAddr: 0x225D0, symSize: 0xF4 }
  - { offset: 0x128CD, size: 0x8, addend: 0x0, symName: __RINvNtNtCs807mVM355fU_3syn3gen9visit_mut21visit_trait_bound_mutNtNvNtCs9kQvaEtA2Tf_20pin_project_internal7project16replace_item_use14UseTreeVisitorEB15_, symObjAddr: 0x21A6C, symBinAddr: 0x226C4, symSize: 0xF4 }
  - { offset: 0x1294B, size: 0x8, addend: 0x0, symName: __RINvNtNtCs807mVM355fU_3syn3gen9visit_mut22visit_expr_closure_mutNtNtCs9kQvaEtA2Tf_20pin_project_internal5utils15ReplaceReceiverEB14_, symObjAddr: 0x21B60, symBinAddr: 0x227B8, symSize: 0x2F0 }
  - { offset: 0x12A90, size: 0x8, addend: 0x0, symName: __RINvNtNtCs807mVM355fU_3syn3gen9visit_mut22visit_expr_closure_mutNtNvNtCs9kQvaEtA2Tf_20pin_project_internal5utils23determine_lifetime_name16CollectLifetimesEB16_, symObjAddr: 0x21E50, symBinAddr: 0x22AA8, symSize: 0x2F0 }
  - { offset: 0x12BD5, size: 0x8, addend: 0x0, symName: __RINvNtNtCs807mVM355fU_3syn3gen9visit_mut22visit_expr_closure_mutNtNvNtCs9kQvaEtA2Tf_20pin_project_internal7project15replace_item_fn9FnVisitorEB16_, symObjAddr: 0x22140, symBinAddr: 0x22D98, symSize: 0x2F0 }
  - { offset: 0x12D1A, size: 0x8, addend: 0x0, symName: __RINvNtNtCs807mVM355fU_3syn3gen9visit_mut22visit_expr_closure_mutNtNvNtCs9kQvaEtA2Tf_20pin_project_internal7project16replace_item_use14UseTreeVisitorEB16_, symObjAddr: 0x22430, symBinAddr: 0x23088, symSize: 0x2F0 }
  - { offset: 0x12E5F, size: 0x8, addend: 0x0, symName: __RINvNtNtCs807mVM355fU_3syn3gen9visit_mut22visit_fields_named_mutNtNtCs9kQvaEtA2Tf_20pin_project_internal5utils15ReplaceReceiverEB14_, symObjAddr: 0x22720, symBinAddr: 0x23378, symSize: 0x11C }
  - { offset: 0x12F0A, size: 0x8, addend: 0x0, symName: __RINvNtNtCs807mVM355fU_3syn3gen9visit_mut22visit_fields_named_mutNtNvNtCs9kQvaEtA2Tf_20pin_project_internal5utils23determine_lifetime_name16CollectLifetimesEB16_, symObjAddr: 0x2283C, symBinAddr: 0x23494, symSize: 0x11C }
  - { offset: 0x12FB5, size: 0x8, addend: 0x0, symName: __RINvNtNtCs807mVM355fU_3syn3gen9visit_mut22visit_fields_named_mutNtNvNtCs9kQvaEtA2Tf_20pin_project_internal7project16replace_item_use14UseTreeVisitorEB16_, symObjAddr: 0x22958, symBinAddr: 0x235B0, symSize: 0x11C }
  - { offset: 0x13060, size: 0x8, addend: 0x0, symName: __RINvNtNtCs807mVM355fU_3syn3gen9visit_mut22visit_foreign_item_mutNtNvNtCs9kQvaEtA2Tf_20pin_project_internal5utils23determine_lifetime_name16CollectLifetimesEB16_, symObjAddr: 0x22A74, symBinAddr: 0x236CC, symSize: 0x15C }
  - { offset: 0x1311A, size: 0x8, addend: 0x0, symName: __RINvNtNtCs807mVM355fU_3syn3gen9visit_mut22visit_foreign_item_mutNtNvNtCs9kQvaEtA2Tf_20pin_project_internal7project16replace_item_use14UseTreeVisitorEB16_, symObjAddr: 0x22BD0, symBinAddr: 0x23828, symSize: 0x15C }
  - { offset: 0x131D4, size: 0x8, addend: 0x0, symName: __RINvNtNtCs807mVM355fU_3syn3gen9visit_mut22visit_lifetime_def_mutNtNtCs9kQvaEtA2Tf_20pin_project_internal5utils15ReplaceReceiverEB14_, symObjAddr: 0x22D2C, symBinAddr: 0x23984, symSize: 0x1DC }
  - { offset: 0x132DB, size: 0x8, addend: 0x0, symName: __RINvNtNtCs807mVM355fU_3syn3gen9visit_mut22visit_lifetime_def_mutNtNvNtCs9kQvaEtA2Tf_20pin_project_internal7project15replace_item_fn9FnVisitorEB16_, symObjAddr: 0x22F08, symBinAddr: 0x23B60, symSize: 0x1DC }
  - { offset: 0x133E2, size: 0x8, addend: 0x0, symName: __RINvNtNtCs807mVM355fU_3syn3gen9visit_mut22visit_lifetime_def_mutNtNvNtCs9kQvaEtA2Tf_20pin_project_internal7project16replace_item_use14UseTreeVisitorEB16_, symObjAddr: 0x230E4, symBinAddr: 0x23D3C, symSize: 0x1DC }
  - { offset: 0x134E9, size: 0x8, addend: 0x0, symName: __RINvNtNtCs807mVM355fU_3syn3gen9visit_mut22visit_lit_byte_str_mutNtNtCs9kQvaEtA2Tf_20pin_project_internal5utils15ReplaceReceiverEB14_, symObjAddr: 0x232C0, symBinAddr: 0x23F18, symSize: 0x24 }
  - { offset: 0x1352B, size: 0x8, addend: 0x0, symName: __RINvNtNtCs807mVM355fU_3syn3gen9visit_mut22visit_lit_byte_str_mutNtNvNtCs9kQvaEtA2Tf_20pin_project_internal5utils23determine_lifetime_name16CollectLifetimesEB16_, symObjAddr: 0x232E4, symBinAddr: 0x23F3C, symSize: 0x24 }
  - { offset: 0x1356D, size: 0x8, addend: 0x0, symName: __RINvNtNtCs807mVM355fU_3syn3gen9visit_mut22visit_lit_byte_str_mutNtNvNtCs9kQvaEtA2Tf_20pin_project_internal7project15replace_item_fn9FnVisitorEB16_, symObjAddr: 0x23308, symBinAddr: 0x23F60, symSize: 0x24 }
  - { offset: 0x135AF, size: 0x8, addend: 0x0, symName: __RINvNtNtCs807mVM355fU_3syn3gen9visit_mut22visit_lit_byte_str_mutNtNvNtCs9kQvaEtA2Tf_20pin_project_internal7project16replace_item_use14UseTreeVisitorEB16_, symObjAddr: 0x2332C, symBinAddr: 0x23F84, symSize: 0x24 }
  - { offset: 0x135F1, size: 0x8, addend: 0x0, symName: __RINvNtNtCs807mVM355fU_3syn3gen9visit_mut22visit_path_segment_mutNtNtCs9kQvaEtA2Tf_20pin_project_internal5utils15ReplaceReceiverEB14_, symObjAddr: 0x23350, symBinAddr: 0x23FA8, symSize: 0x50 }
  - { offset: 0x13633, size: 0x8, addend: 0x0, symName: __RINvNtNtCs807mVM355fU_3syn3gen9visit_mut22visit_path_segment_mutNtNvNtCs9kQvaEtA2Tf_20pin_project_internal5utils23determine_lifetime_name16CollectLifetimesEB16_, symObjAddr: 0x233A0, symBinAddr: 0x23FF8, symSize: 0x50 }
  - { offset: 0x13675, size: 0x8, addend: 0x0, symName: __RINvNtNtCs807mVM355fU_3syn3gen9visit_mut22visit_path_segment_mutNtNvNtCs9kQvaEtA2Tf_20pin_project_internal7project15replace_item_fn9FnVisitorEB16_, symObjAddr: 0x233F0, symBinAddr: 0x24048, symSize: 0x50 }
  - { offset: 0x136B7, size: 0x8, addend: 0x0, symName: __RINvNtNtCs807mVM355fU_3syn3gen9visit_mut22visit_path_segment_mutNtNvNtCs9kQvaEtA2Tf_20pin_project_internal7project16replace_item_use14UseTreeVisitorEB16_, symObjAddr: 0x23440, symBinAddr: 0x24098, symSize: 0x50 }
  - { offset: 0x136F9, size: 0x8, addend: 0x0, symName: __RINvNtNtCs807mVM355fU_3syn3gen9visit_mut22visit_predicate_eq_mutNtNtCs9kQvaEtA2Tf_20pin_project_internal5utils15ReplaceReceiverEB14_, symObjAddr: 0x23490, symBinAddr: 0x240E8, symSize: 0x60 }
  - { offset: 0x1373B, size: 0x8, addend: 0x0, symName: __RINvNtNtCs807mVM355fU_3syn3gen9visit_mut22visit_predicate_eq_mutNtNvNtCs9kQvaEtA2Tf_20pin_project_internal5utils23determine_lifetime_name16CollectLifetimesEB16_, symObjAddr: 0x234F0, symBinAddr: 0x24148, symSize: 0x60 }
  - { offset: 0x1377D, size: 0x8, addend: 0x0, symName: __RINvNtNtCs807mVM355fU_3syn3gen9visit_mut22visit_predicate_eq_mutNtNvNtCs9kQvaEtA2Tf_20pin_project_internal7project16replace_item_use14UseTreeVisitorEB16_, symObjAddr: 0x23550, symBinAddr: 0x241A8, symSize: 0x60 }
  - { offset: 0x137BF, size: 0x8, addend: 0x0, symName: __RINvNtNtCs807mVM355fU_3syn3gen9visit_mut22visit_range_limits_mutNtNtCs9kQvaEtA2Tf_20pin_project_internal5utils15ReplaceReceiverEB14_, symObjAddr: 0x235B0, symBinAddr: 0x24208, symSize: 0x9C }
  - { offset: 0x13835, size: 0x8, addend: 0x0, symName: __RINvNtNtCs807mVM355fU_3syn3gen9visit_mut22visit_range_limits_mutNtNvNtCs9kQvaEtA2Tf_20pin_project_internal5utils23determine_lifetime_name16CollectLifetimesEB16_, symObjAddr: 0x2364C, symBinAddr: 0x242A4, symSize: 0x9C }
  - { offset: 0x138AB, size: 0x8, addend: 0x0, symName: __RINvNtNtCs807mVM355fU_3syn3gen9visit_mut22visit_range_limits_mutNtNvNtCs9kQvaEtA2Tf_20pin_project_internal7project15replace_item_fn9FnVisitorEB16_, symObjAddr: 0x236E8, symBinAddr: 0x24340, symSize: 0x9C }
  - { offset: 0x13921, size: 0x8, addend: 0x0, symName: __RINvNtNtCs807mVM355fU_3syn3gen9visit_mut22visit_range_limits_mutNtNvNtCs9kQvaEtA2Tf_20pin_project_internal7project16replace_item_use14UseTreeVisitorEB16_, symObjAddr: 0x23784, symBinAddr: 0x243DC, symSize: 0x9C }
  - { offset: 0x13997, size: 0x8, addend: 0x0, symName: __RINvNtNtCs807mVM355fU_3syn3gen9visit_mut22visit_type_bare_fn_mutNtNtCs9kQvaEtA2Tf_20pin_project_internal5utils15ReplaceReceiverEB14_, symObjAddr: 0x23820, symBinAddr: 0x24478, symSize: 0x280 }
  - { offset: 0x13ABE, size: 0x8, addend: 0x0, symName: __RINvNtNtCs807mVM355fU_3syn3gen9visit_mut22visit_type_bare_fn_mutNtNvNtCs9kQvaEtA2Tf_20pin_project_internal5utils23determine_lifetime_name16CollectLifetimesEB16_, symObjAddr: 0x23AA0, symBinAddr: 0x246F8, symSize: 0x280 }
  - { offset: 0x13BE5, size: 0x8, addend: 0x0, symName: __RINvNtNtCs807mVM355fU_3syn3gen9visit_mut22visit_type_bare_fn_mutNtNvNtCs9kQvaEtA2Tf_20pin_project_internal7project15replace_item_fn9FnVisitorEB16_, symObjAddr: 0x23D20, symBinAddr: 0x24978, symSize: 0x280 }
  - { offset: 0x13D0C, size: 0x8, addend: 0x0, symName: __RINvNtNtCs807mVM355fU_3syn3gen9visit_mut22visit_type_bare_fn_mutNtNvNtCs9kQvaEtA2Tf_20pin_project_internal7project16replace_item_use14UseTreeVisitorEB16_, symObjAddr: 0x23FA0, symBinAddr: 0x24BF8, symSize: 0x280 }
  - { offset: 0x13E33, size: 0x8, addend: 0x0, symName: __RINvNtNtCs807mVM355fU_3syn3gen9visit_mut22visit_where_clause_mutNtNtCs9kQvaEtA2Tf_20pin_project_internal5utils15ReplaceReceiverEB14_, symObjAddr: 0x24220, symBinAddr: 0x24E78, symSize: 0x11C }
  - { offset: 0x13EDE, size: 0x8, addend: 0x0, symName: __RINvNtNtCs807mVM355fU_3syn3gen9visit_mut22visit_where_clause_mutNtNvNtCs9kQvaEtA2Tf_20pin_project_internal5utils23determine_lifetime_name16CollectLifetimesEB16_, symObjAddr: 0x2433C, symBinAddr: 0x24F94, symSize: 0x11C }
  - { offset: 0x13F89, size: 0x8, addend: 0x0, symName: __RINvNtNtCs807mVM355fU_3syn3gen9visit_mut22visit_where_clause_mutNtNvNtCs9kQvaEtA2Tf_20pin_project_internal7project16replace_item_use14UseTreeVisitorEB16_, symObjAddr: 0x24458, symBinAddr: 0x250B0, symSize: 0x11C }
  - { offset: 0x14034, size: 0x8, addend: 0x0, symName: __RINvNtNtCs807mVM355fU_3syn3gen9visit_mut23visit_expr_continue_mutNtNtCs9kQvaEtA2Tf_20pin_project_internal5utils15ReplaceReceiverEB15_, symObjAddr: 0x24574, symBinAddr: 0x251CC, symSize: 0xFC }
  - { offset: 0x140D0, size: 0x8, addend: 0x0, symName: __RINvNtNtCs807mVM355fU_3syn3gen9visit_mut23visit_expr_continue_mutNtNvNtCs9kQvaEtA2Tf_20pin_project_internal5utils23determine_lifetime_name16CollectLifetimesEB17_, symObjAddr: 0x24670, symBinAddr: 0x252C8, symSize: 0xFC }
  - { offset: 0x1416C, size: 0x8, addend: 0x0, symName: __RINvNtNtCs807mVM355fU_3syn3gen9visit_mut23visit_expr_continue_mutNtNvNtCs9kQvaEtA2Tf_20pin_project_internal7project15replace_item_fn9FnVisitorEB17_, symObjAddr: 0x2476C, symBinAddr: 0x253C4, symSize: 0xFC }
  - { offset: 0x14208, size: 0x8, addend: 0x0, symName: __RINvNtNtCs807mVM355fU_3syn3gen9visit_mut23visit_expr_continue_mutNtNvNtCs9kQvaEtA2Tf_20pin_project_internal7project16replace_item_use14UseTreeVisitorEB17_, symObjAddr: 0x24868, symBinAddr: 0x254C0, symSize: 0xFC }
  - { offset: 0x142A4, size: 0x8, addend: 0x0, symName: __RINvNtNtCs807mVM355fU_3syn3gen9visit_mut23visit_expr_for_loop_mutNtNtCs9kQvaEtA2Tf_20pin_project_internal5utils15ReplaceReceiverEB15_, symObjAddr: 0x24964, symBinAddr: 0x255BC, symSize: 0x188 }
  - { offset: 0x14340, size: 0x8, addend: 0x0, symName: __RINvNtNtCs807mVM355fU_3syn3gen9visit_mut23visit_expr_for_loop_mutNtNvNtCs9kQvaEtA2Tf_20pin_project_internal5utils23determine_lifetime_name16CollectLifetimesEB17_, symObjAddr: 0x24AEC, symBinAddr: 0x25744, symSize: 0x188 }
  - { offset: 0x143DC, size: 0x8, addend: 0x0, symName: __RINvNtNtCs807mVM355fU_3syn3gen9visit_mut23visit_expr_for_loop_mutNtNvNtCs9kQvaEtA2Tf_20pin_project_internal7project15replace_item_fn9FnVisitorEB17_, symObjAddr: 0x24C74, symBinAddr: 0x258CC, symSize: 0x188 }
  - { offset: 0x14478, size: 0x8, addend: 0x0, symName: __RINvNtNtCs807mVM355fU_3syn3gen9visit_mut23visit_expr_for_loop_mutNtNvNtCs9kQvaEtA2Tf_20pin_project_internal7project16replace_item_use14UseTreeVisitorEB17_, symObjAddr: 0x24DFC, symBinAddr: 0x25A54, symSize: 0x188 }
  - { offset: 0x14514, size: 0x8, addend: 0x0, symName: __RINvNtNtCs807mVM355fU_3syn3gen9visit_mut23visit_generic_param_mutNtNtCs9kQvaEtA2Tf_20pin_project_internal5utils15ReplaceReceiverEB15_, symObjAddr: 0x24F84, symBinAddr: 0x25BDC, symSize: 0xEC }
  - { offset: 0x145A8, size: 0x8, addend: 0x0, symName: __RINvNtNtCs807mVM355fU_3syn3gen9visit_mut23visit_generic_param_mutNtNvNtCs9kQvaEtA2Tf_20pin_project_internal5utils23determine_lifetime_name16CollectLifetimesEB17_, symObjAddr: 0x25070, symBinAddr: 0x25CC8, symSize: 0xEC }
  - { offset: 0x1463C, size: 0x8, addend: 0x0, symName: __RINvNtNtCs807mVM355fU_3syn3gen9visit_mut23visit_generic_param_mutNtNvNtCs9kQvaEtA2Tf_20pin_project_internal7project16replace_item_use14UseTreeVisitorEB17_, symObjAddr: 0x2515C, symBinAddr: 0x25DB4, symSize: 0xEC }
  - { offset: 0x146D0, size: 0x8, addend: 0x0, symName: __RINvNtNtCs807mVM355fU_3syn3gen9visit_mut23visit_pat_reference_mutNtNtCs9kQvaEtA2Tf_20pin_project_internal5utils15ReplaceReceiverEB15_, symObjAddr: 0x25248, symBinAddr: 0x25EA0, symSize: 0x154 }
  - { offset: 0x1476C, size: 0x8, addend: 0x0, symName: __RINvNtNtCs807mVM355fU_3syn3gen9visit_mut23visit_pat_reference_mutNtNvNtCs9kQvaEtA2Tf_20pin_project_internal5utils23determine_lifetime_name16CollectLifetimesEB17_, symObjAddr: 0x2539C, symBinAddr: 0x25FF4, symSize: 0x154 }
  - { offset: 0x14808, size: 0x8, addend: 0x0, symName: __RINvNtNtCs807mVM355fU_3syn3gen9visit_mut23visit_pat_reference_mutNtNvNtCs9kQvaEtA2Tf_20pin_project_internal7project15replace_item_fn9FnVisitorEB17_, symObjAddr: 0x254F0, symBinAddr: 0x26148, symSize: 0x154 }
  - { offset: 0x148A4, size: 0x8, addend: 0x0, symName: __RINvNtNtCs807mVM355fU_3syn3gen9visit_mut23visit_pat_reference_mutNtNvNtCs9kQvaEtA2Tf_20pin_project_internal7project16replace_item_use14UseTreeVisitorEB17_, symObjAddr: 0x25644, symBinAddr: 0x2629C, symSize: 0x154 }
  - { offset: 0x14940, size: 0x8, addend: 0x0, symName: __RINvNtNtCs807mVM355fU_3syn3gen9visit_mut24visit_expr_assign_op_mutNtNtCs9kQvaEtA2Tf_20pin_project_internal5utils15ReplaceReceiverEB16_, symObjAddr: 0x25798, symBinAddr: 0x263F0, symSize: 0x164 }
  - { offset: 0x149BE, size: 0x8, addend: 0x0, symName: __RINvNtNtCs807mVM355fU_3syn3gen9visit_mut24visit_expr_assign_op_mutNtNvNtCs9kQvaEtA2Tf_20pin_project_internal5utils23determine_lifetime_name16CollectLifetimesEB18_, symObjAddr: 0x258FC, symBinAddr: 0x26554, symSize: 0x164 }
  - { offset: 0x14A3C, size: 0x8, addend: 0x0, symName: __RINvNtNtCs807mVM355fU_3syn3gen9visit_mut24visit_expr_assign_op_mutNtNvNtCs9kQvaEtA2Tf_20pin_project_internal7project15replace_item_fn9FnVisitorEB18_, symObjAddr: 0x25A60, symBinAddr: 0x266B8, symSize: 0x164 }
  - { offset: 0x14ABA, size: 0x8, addend: 0x0, symName: __RINvNtNtCs807mVM355fU_3syn3gen9visit_mut24visit_expr_assign_op_mutNtNvNtCs9kQvaEtA2Tf_20pin_project_internal7project16replace_item_use14UseTreeVisitorEB18_, symObjAddr: 0x25BC4, symBinAddr: 0x2681C, symSize: 0x164 }
  - { offset: 0x14B38, size: 0x8, addend: 0x0, symName: __RINvNtNtCs807mVM355fU_3syn3gen9visit_mut24visit_expr_reference_mutNtNtCs9kQvaEtA2Tf_20pin_project_internal5utils15ReplaceReceiverEB16_, symObjAddr: 0x25D28, symBinAddr: 0x26980, symSize: 0x154 }
  - { offset: 0x14BD4, size: 0x8, addend: 0x0, symName: __RINvNtNtCs807mVM355fU_3syn3gen9visit_mut24visit_expr_reference_mutNtNvNtCs9kQvaEtA2Tf_20pin_project_internal5utils23determine_lifetime_name16CollectLifetimesEB18_, symObjAddr: 0x25E7C, symBinAddr: 0x26AD4, symSize: 0x154 }
  - { offset: 0x14C70, size: 0x8, addend: 0x0, symName: __RINvNtNtCs807mVM355fU_3syn3gen9visit_mut24visit_expr_reference_mutNtNvNtCs9kQvaEtA2Tf_20pin_project_internal7project15replace_item_fn9FnVisitorEB18_, symObjAddr: 0x25FD0, symBinAddr: 0x26C28, symSize: 0x154 }
  - { offset: 0x14D0C, size: 0x8, addend: 0x0, symName: __RINvNtNtCs807mVM355fU_3syn3gen9visit_mut24visit_expr_reference_mutNtNvNtCs9kQvaEtA2Tf_20pin_project_internal7project16replace_item_use14UseTreeVisitorEB18_, symObjAddr: 0x26124, symBinAddr: 0x26D7C, symSize: 0x154 }
  - { offset: 0x14DA8, size: 0x8, addend: 0x0, symName: __RINvNtNtCs807mVM355fU_3syn3gen9visit_mut24visit_expr_try_block_mutNtNtCs9kQvaEtA2Tf_20pin_project_internal5utils15ReplaceReceiverEB16_, symObjAddr: 0x26278, symBinAddr: 0x26ED0, symSize: 0xB8 }
  - { offset: 0x14E26, size: 0x8, addend: 0x0, symName: __RINvNtNtCs807mVM355fU_3syn3gen9visit_mut24visit_expr_try_block_mutNtNvNtCs9kQvaEtA2Tf_20pin_project_internal5utils23determine_lifetime_name16CollectLifetimesEB18_, symObjAddr: 0x26330, symBinAddr: 0x26F88, symSize: 0xB8 }
  - { offset: 0x14EA4, size: 0x8, addend: 0x0, symName: __RINvNtNtCs807mVM355fU_3syn3gen9visit_mut24visit_expr_try_block_mutNtNvNtCs9kQvaEtA2Tf_20pin_project_internal7project15replace_item_fn9FnVisitorEB18_, symObjAddr: 0x263E8, symBinAddr: 0x27040, symSize: 0xB8 }
  - { offset: 0x14F22, size: 0x8, addend: 0x0, symName: __RINvNtNtCs807mVM355fU_3syn3gen9visit_mut24visit_expr_try_block_mutNtNvNtCs9kQvaEtA2Tf_20pin_project_internal7project16replace_item_use14UseTreeVisitorEB18_, symObjAddr: 0x264A0, symBinAddr: 0x270F8, symSize: 0xB8 }
  - { offset: 0x14FA0, size: 0x8, addend: 0x0, symName: __RINvNtNtCs807mVM355fU_3syn3gen9visit_mut24visit_fields_unnamed_mutNtNtCs9kQvaEtA2Tf_20pin_project_internal5utils15ReplaceReceiverEB16_, symObjAddr: 0x26558, symBinAddr: 0x271B0, symSize: 0x11C }
  - { offset: 0x1504B, size: 0x8, addend: 0x0, symName: __RINvNtNtCs807mVM355fU_3syn3gen9visit_mut24visit_fields_unnamed_mutNtNvNtCs9kQvaEtA2Tf_20pin_project_internal5utils23determine_lifetime_name16CollectLifetimesEB18_, symObjAddr: 0x26674, symBinAddr: 0x272CC, symSize: 0x11C }
  - { offset: 0x150F6, size: 0x8, addend: 0x0, symName: __RINvNtNtCs807mVM355fU_3syn3gen9visit_mut24visit_fields_unnamed_mutNtNvNtCs9kQvaEtA2Tf_20pin_project_internal7project16replace_item_use14UseTreeVisitorEB18_, symObjAddr: 0x26790, symBinAddr: 0x273E8, symSize: 0x11C }
  - { offset: 0x151A1, size: 0x8, addend: 0x0, symName: __RINvNtNtCs807mVM355fU_3syn3gen9visit_mut24visit_impl_item_type_mutNtNvNtCs9kQvaEtA2Tf_20pin_project_internal5utils23determine_lifetime_name16CollectLifetimesEB18_, symObjAddr: 0x268AC, symBinAddr: 0x27504, symSize: 0x160 }
  - { offset: 0x1523D, size: 0x8, addend: 0x0, symName: __RINvNtNtCs807mVM355fU_3syn3gen9visit_mut24visit_impl_item_type_mutNtNvNtCs9kQvaEtA2Tf_20pin_project_internal7project16replace_item_use14UseTreeVisitorEB18_, symObjAddr: 0x26A0C, symBinAddr: 0x27664, symSize: 0x160 }
  - { offset: 0x152D9, size: 0x8, addend: 0x0, symName: __RINvNtNtCs807mVM355fU_3syn3gen9visit_mut24visit_path_arguments_mutNtNtCs9kQvaEtA2Tf_20pin_project_internal5utils15ReplaceReceiverEB16_, symObjAddr: 0x26B6C, symBinAddr: 0x277C4, symSize: 0xC4 }
  - { offset: 0x1534F, size: 0x8, addend: 0x0, symName: __RINvNtNtCs807mVM355fU_3syn3gen9visit_mut24visit_path_arguments_mutNtNvNtCs9kQvaEtA2Tf_20pin_project_internal5utils23determine_lifetime_name16CollectLifetimesEB18_, symObjAddr: 0x26C30, symBinAddr: 0x27888, symSize: 0xC4 }
  - { offset: 0x153C5, size: 0x8, addend: 0x0, symName: __RINvNtNtCs807mVM355fU_3syn3gen9visit_mut24visit_path_arguments_mutNtNvNtCs9kQvaEtA2Tf_20pin_project_internal7project15replace_item_fn9FnVisitorEB18_, symObjAddr: 0x26CF4, symBinAddr: 0x2794C, symSize: 0xC4 }
  - { offset: 0x1543B, size: 0x8, addend: 0x0, symName: __RINvNtNtCs807mVM355fU_3syn3gen9visit_mut24visit_path_arguments_mutNtNvNtCs9kQvaEtA2Tf_20pin_project_internal7project16replace_item_use14UseTreeVisitorEB18_, symObjAddr: 0x26DB8, symBinAddr: 0x27A10, symSize: 0xC4 }
  - { offset: 0x154B1, size: 0x8, addend: 0x0, symName: __RINvNtNtCs807mVM355fU_3syn3gen9visit_mut24visit_predicate_type_mutNtNtCs9kQvaEtA2Tf_20pin_project_internal5utils15ReplaceReceiverEB16_, symObjAddr: 0x26E7C, symBinAddr: 0x27AD4, symSize: 0x180 }
  - { offset: 0x1557A, size: 0x8, addend: 0x0, symName: __RINvNtNtCs807mVM355fU_3syn3gen9visit_mut24visit_predicate_type_mutNtNvNtCs9kQvaEtA2Tf_20pin_project_internal5utils23determine_lifetime_name16CollectLifetimesEB18_, symObjAddr: 0x26FFC, symBinAddr: 0x27C54, symSize: 0x180 }
  - { offset: 0x15643, size: 0x8, addend: 0x0, symName: __RINvNtNtCs807mVM355fU_3syn3gen9visit_mut24visit_predicate_type_mutNtNvNtCs9kQvaEtA2Tf_20pin_project_internal7project16replace_item_use14UseTreeVisitorEB18_, symObjAddr: 0x2717C, symBinAddr: 0x27DD4, symSize: 0x180 }
  - { offset: 0x1570C, size: 0x8, addend: 0x0, symName: __RINvNtNtCs807mVM355fU_3syn3gen9visit_mut24visit_type_reference_mutNtNtCs9kQvaEtA2Tf_20pin_project_internal5utils15ReplaceReceiverEB16_, symObjAddr: 0x272FC, symBinAddr: 0x27F54, symSize: 0x13C }
  - { offset: 0x1578A, size: 0x8, addend: 0x0, symName: __RINvNtNtCs807mVM355fU_3syn3gen9visit_mut24visit_type_reference_mutNtNvNtCs9kQvaEtA2Tf_20pin_project_internal5utils23determine_lifetime_name16CollectLifetimesEB18_, symObjAddr: 0x27438, symBinAddr: 0x28090, symSize: 0x13C }
  - { offset: 0x15808, size: 0x8, addend: 0x0, symName: __RINvNtNtCs807mVM355fU_3syn3gen9visit_mut24visit_type_reference_mutNtNvNtCs9kQvaEtA2Tf_20pin_project_internal7project15replace_item_fn9FnVisitorEB18_, symObjAddr: 0x27574, symBinAddr: 0x281CC, symSize: 0x13C }
  - { offset: 0x15886, size: 0x8, addend: 0x0, symName: __RINvNtNtCs807mVM355fU_3syn3gen9visit_mut24visit_type_reference_mutNtNvNtCs9kQvaEtA2Tf_20pin_project_internal7project16replace_item_use14UseTreeVisitorEB18_, symObjAddr: 0x276B0, symBinAddr: 0x28308, symSize: 0x13C }
  - { offset: 0x15904, size: 0x8, addend: 0x0, symName: __RINvNtNtCs807mVM355fU_3syn3gen9visit_mut24visit_vis_restricted_mutNtNtCs9kQvaEtA2Tf_20pin_project_internal5utils15ReplaceReceiverEB16_, symObjAddr: 0x277EC, symBinAddr: 0x28444, symSize: 0x100 }
  - { offset: 0x15964, size: 0x8, addend: 0x0, symName: __RINvNtNtCs807mVM355fU_3syn3gen9visit_mut24visit_vis_restricted_mutNtNvNtCs9kQvaEtA2Tf_20pin_project_internal5utils23determine_lifetime_name16CollectLifetimesEB18_, symObjAddr: 0x278EC, symBinAddr: 0x28544, symSize: 0x100 }
  - { offset: 0x159C4, size: 0x8, addend: 0x0, symName: __RINvNtNtCs807mVM355fU_3syn3gen9visit_mut24visit_vis_restricted_mutNtNvNtCs9kQvaEtA2Tf_20pin_project_internal7project16replace_item_use14UseTreeVisitorEB18_, symObjAddr: 0x279EC, symBinAddr: 0x28644, symSize: 0x100 }
  - { offset: 0x15A24, size: 0x8, addend: 0x0, symName: __RINvNtNtCs807mVM355fU_3syn3gen9visit_mut25visit_bound_lifetimes_mutNtNtCs9kQvaEtA2Tf_20pin_project_internal5utils15ReplaceReceiverEB17_, symObjAddr: 0x27AEC, symBinAddr: 0x28744, symSize: 0x13C }
  - { offset: 0x15ACF, size: 0x8, addend: 0x0, symName: __RINvNtNtCs807mVM355fU_3syn3gen9visit_mut25visit_bound_lifetimes_mutNtNvNtCs9kQvaEtA2Tf_20pin_project_internal5utils23determine_lifetime_name16CollectLifetimesEB19_, symObjAddr: 0x27C28, symBinAddr: 0x28880, symSize: 0x13C }
  - { offset: 0x15B7A, size: 0x8, addend: 0x0, symName: __RINvNtNtCs807mVM355fU_3syn3gen9visit_mut25visit_bound_lifetimes_mutNtNvNtCs9kQvaEtA2Tf_20pin_project_internal7project15replace_item_fn9FnVisitorEB19_, symObjAddr: 0x27D64, symBinAddr: 0x289BC, symSize: 0x13C }
  - { offset: 0x15C25, size: 0x8, addend: 0x0, symName: __RINvNtNtCs807mVM355fU_3syn3gen9visit_mut25visit_bound_lifetimes_mutNtNvNtCs9kQvaEtA2Tf_20pin_project_internal7project16replace_item_use14UseTreeVisitorEB19_, symObjAddr: 0x27EA0, symBinAddr: 0x28AF8, symSize: 0x13C }
  - { offset: 0x15CD0, size: 0x8, addend: 0x0, symName: __RINvNtNtCs807mVM355fU_3syn3gen9visit_mut25visit_foreign_item_fn_mutNtNvNtCs9kQvaEtA2Tf_20pin_project_internal5utils23determine_lifetime_name16CollectLifetimesEB19_, symObjAddr: 0x27FDC, symBinAddr: 0x28C34, symSize: 0xC0 }
  - { offset: 0x15D4E, size: 0x8, addend: 0x0, symName: __RINvNtNtCs807mVM355fU_3syn3gen9visit_mut25visit_foreign_item_fn_mutNtNvNtCs9kQvaEtA2Tf_20pin_project_internal7project16replace_item_use14UseTreeVisitorEB19_, symObjAddr: 0x2809C, symBinAddr: 0x28CF4, symSize: 0xC0 }
  - { offset: 0x15DCC, size: 0x8, addend: 0x0, symName: __RINvNtNtCs807mVM355fU_3syn3gen9visit_mut25visit_impl_item_const_mutNtNvNtCs9kQvaEtA2Tf_20pin_project_internal5utils23determine_lifetime_name16CollectLifetimesEB19_, symObjAddr: 0x2815C, symBinAddr: 0x28DB4, symSize: 0x170 }
  - { offset: 0x15E68, size: 0x8, addend: 0x0, symName: __RINvNtNtCs807mVM355fU_3syn3gen9visit_mut25visit_impl_item_const_mutNtNvNtCs9kQvaEtA2Tf_20pin_project_internal7project16replace_item_use14UseTreeVisitorEB19_, symObjAddr: 0x282CC, symBinAddr: 0x28F24, symSize: 0x170 }
  - { offset: 0x15F04, size: 0x8, addend: 0x0, symName: __RINvNtNtCs807mVM355fU_3syn3gen9visit_mut25visit_impl_item_macro_mutNtNvNtCs9kQvaEtA2Tf_20pin_project_internal5utils23determine_lifetime_name16CollectLifetimesEB19_, symObjAddr: 0x2843C, symBinAddr: 0x29094, symSize: 0xF8 }
  - { offset: 0x15FA0, size: 0x8, addend: 0x0, symName: __RINvNtNtCs807mVM355fU_3syn3gen9visit_mut25visit_impl_item_macro_mutNtNvNtCs9kQvaEtA2Tf_20pin_project_internal7project16replace_item_use14UseTreeVisitorEB19_, symObjAddr: 0x28534, symBinAddr: 0x2918C, symSize: 0xF8 }
  - { offset: 0x1603C, size: 0x8, addend: 0x0, symName: __RINvNtNtCs807mVM355fU_3syn3gen9visit_mut25visit_macro_delimiter_mutNtNvNtCs9kQvaEtA2Tf_20pin_project_internal5utils23determine_lifetime_name16CollectLifetimesEB19_, symObjAddr: 0x2862C, symBinAddr: 0x29284, symSize: 0xDC }
  - { offset: 0x160D0, size: 0x8, addend: 0x0, symName: __RINvNtNtCs807mVM355fU_3syn3gen9visit_mut25visit_macro_delimiter_mutNtNvNtCs9kQvaEtA2Tf_20pin_project_internal7project15replace_item_fn9FnVisitorEB19_, symObjAddr: 0x28708, symBinAddr: 0x29360, symSize: 0xDC }
  - { offset: 0x16164, size: 0x8, addend: 0x0, symName: __RINvNtNtCs807mVM355fU_3syn3gen9visit_mut25visit_macro_delimiter_mutNtNvNtCs9kQvaEtA2Tf_20pin_project_internal7project16replace_item_use14UseTreeVisitorEB19_, symObjAddr: 0x287E4, symBinAddr: 0x2943C, symSize: 0xDC }
  - { offset: 0x161F8, size: 0x8, addend: 0x0, symName: __RINvNtNtCs807mVM355fU_3syn3gen9visit_mut25visit_trait_item_type_mutNtNvNtCs9kQvaEtA2Tf_20pin_project_internal5utils23determine_lifetime_name16CollectLifetimesEB19_, symObjAddr: 0x288C0, symBinAddr: 0x29518, symSize: 0x27C }
  - { offset: 0x1631E, size: 0x8, addend: 0x0, symName: __RINvNtNtCs807mVM355fU_3syn3gen9visit_mut25visit_trait_item_type_mutNtNvNtCs9kQvaEtA2Tf_20pin_project_internal7project16replace_item_use14UseTreeVisitorEB19_, symObjAddr: 0x28B3C, symBinAddr: 0x29794, symSize: 0x27C }
  - { offset: 0x16444, size: 0x8, addend: 0x0, symName: __RINvNtNtCs807mVM355fU_3syn3gen9visit_mut25visit_type_impl_trait_mutNtNtCs9kQvaEtA2Tf_20pin_project_internal5utils15ReplaceReceiverEB17_, symObjAddr: 0x28DB8, symBinAddr: 0x29A10, symSize: 0x11C }
  - { offset: 0x164EF, size: 0x8, addend: 0x0, symName: __RINvNtNtCs807mVM355fU_3syn3gen9visit_mut25visit_type_impl_trait_mutNtNvNtCs9kQvaEtA2Tf_20pin_project_internal5utils23determine_lifetime_name16CollectLifetimesEB19_, symObjAddr: 0x28ED4, symBinAddr: 0x29B2C, symSize: 0x11C }
  - { offset: 0x1659A, size: 0x8, addend: 0x0, symName: __RINvNtNtCs807mVM355fU_3syn3gen9visit_mut25visit_type_impl_trait_mutNtNvNtCs9kQvaEtA2Tf_20pin_project_internal7project15replace_item_fn9FnVisitorEB19_, symObjAddr: 0x28FF0, symBinAddr: 0x29C48, symSize: 0x11C }
  - { offset: 0x16645, size: 0x8, addend: 0x0, symName: __RINvNtNtCs807mVM355fU_3syn3gen9visit_mut25visit_type_impl_trait_mutNtNvNtCs9kQvaEtA2Tf_20pin_project_internal7project16replace_item_use14UseTreeVisitorEB19_, symObjAddr: 0x2910C, symBinAddr: 0x29D64, symSize: 0x11C }
  - { offset: 0x166F0, size: 0x8, addend: 0x0, symName: __RINvNtNtCs807mVM355fU_3syn3gen9visit_mut25visit_where_predicate_mutNtNtCs9kQvaEtA2Tf_20pin_project_internal5utils15ReplaceReceiverEB17_, symObjAddr: 0x29228, symBinAddr: 0x29E80, symSize: 0xF0 }
  - { offset: 0x16784, size: 0x8, addend: 0x0, symName: __RINvNtNtCs807mVM355fU_3syn3gen9visit_mut25visit_where_predicate_mutNtNvNtCs9kQvaEtA2Tf_20pin_project_internal5utils23determine_lifetime_name16CollectLifetimesEB19_, symObjAddr: 0x29318, symBinAddr: 0x29F70, symSize: 0xF0 }
  - { offset: 0x16818, size: 0x8, addend: 0x0, symName: __RINvNtNtCs807mVM355fU_3syn3gen9visit_mut25visit_where_predicate_mutNtNvNtCs9kQvaEtA2Tf_20pin_project_internal7project16replace_item_use14UseTreeVisitorEB19_, symObjAddr: 0x29408, symBinAddr: 0x2A060, symSize: 0xF0 }
  - { offset: 0x168AC, size: 0x8, addend: 0x0, symName: __RINvNtNtCs807mVM355fU_3syn3gen9visit_mut26visit_expr_method_call_mutNtNtCs9kQvaEtA2Tf_20pin_project_internal5utils15ReplaceReceiverEB18_, symObjAddr: 0x294F8, symBinAddr: 0x2A150, symSize: 0x260 }
  - { offset: 0x169AB, size: 0x8, addend: 0x0, symName: __RINvNtNtCs807mVM355fU_3syn3gen9visit_mut26visit_expr_method_call_mutNtNvNtCs9kQvaEtA2Tf_20pin_project_internal5utils23determine_lifetime_name16CollectLifetimesEB1a_, symObjAddr: 0x29758, symBinAddr: 0x2A3B0, symSize: 0x260 }
  - { offset: 0x16AAA, size: 0x8, addend: 0x0, symName: __RINvNtNtCs807mVM355fU_3syn3gen9visit_mut26visit_expr_method_call_mutNtNvNtCs9kQvaEtA2Tf_20pin_project_internal7project15replace_item_fn9FnVisitorEB1a_, symObjAddr: 0x299B8, symBinAddr: 0x2A610, symSize: 0x260 }
  - { offset: 0x16BA9, size: 0x8, addend: 0x0, symName: __RINvNtNtCs807mVM355fU_3syn3gen9visit_mut26visit_expr_method_call_mutNtNvNtCs9kQvaEtA2Tf_20pin_project_internal7project16replace_item_use14UseTreeVisitorEB1a_, symObjAddr: 0x29C18, symBinAddr: 0x2A870, symSize: 0x260 }
  - { offset: 0x16CA8, size: 0x8, addend: 0x0, symName: __RINvNtNtCs807mVM355fU_3syn3gen9visit_mut26visit_generic_argument_mutNtNtCs9kQvaEtA2Tf_20pin_project_internal5utils15ReplaceReceiverEB18_, symObjAddr: 0x29E78, symBinAddr: 0x2AAD0, symSize: 0x170 }
  - { offset: 0x16D78, size: 0x8, addend: 0x0, symName: __RINvNtNtCs807mVM355fU_3syn3gen9visit_mut26visit_generic_argument_mutNtNvNtCs9kQvaEtA2Tf_20pin_project_internal5utils23determine_lifetime_name16CollectLifetimesEB1a_, symObjAddr: 0x29FE8, symBinAddr: 0x2AC40, symSize: 0x170 }
  - { offset: 0x16E48, size: 0x8, addend: 0x0, symName: __RINvNtNtCs807mVM355fU_3syn3gen9visit_mut26visit_generic_argument_mutNtNvNtCs9kQvaEtA2Tf_20pin_project_internal7project15replace_item_fn9FnVisitorEB1a_, symObjAddr: 0x2A158, symBinAddr: 0x2ADB0, symSize: 0x170 }
  - { offset: 0x16F18, size: 0x8, addend: 0x0, symName: __RINvNtNtCs807mVM355fU_3syn3gen9visit_mut26visit_generic_argument_mutNtNvNtCs9kQvaEtA2Tf_20pin_project_internal7project16replace_item_use14UseTreeVisitorEB1a_, symObjAddr: 0x2A2C8, symBinAddr: 0x2AF20, symSize: 0x170 }
  - { offset: 0x16FE8, size: 0x8, addend: 0x0, symName: __RINvNtNtCs807mVM355fU_3syn3gen9visit_mut26visit_impl_item_method_mutNtNvNtCs9kQvaEtA2Tf_20pin_project_internal5utils23determine_lifetime_name16CollectLifetimesEB1a_, symObjAddr: 0x2A438, symBinAddr: 0x2B090, symSize: 0x118 }
  - { offset: 0x17084, size: 0x8, addend: 0x0, symName: __RINvNtNtCs807mVM355fU_3syn3gen9visit_mut26visit_impl_item_method_mutNtNvNtCs9kQvaEtA2Tf_20pin_project_internal7project16replace_item_use14UseTreeVisitorEB1a_, symObjAddr: 0x2A550, symBinAddr: 0x2B1A8, symSize: 0x118 }
  - { offset: 0x17120, size: 0x8, addend: 0x0, symName: __RINvNtNtCs807mVM355fU_3syn3gen9visit_mut26visit_item_foreign_mod_mutNtNvNtCs9kQvaEtA2Tf_20pin_project_internal5utils23determine_lifetime_name16CollectLifetimesEB1a_, symObjAddr: 0x2A668, symBinAddr: 0x2B2C0, symSize: 0x118 }
  - { offset: 0x171DA, size: 0x8, addend: 0x0, symName: __RINvNtNtCs807mVM355fU_3syn3gen9visit_mut26visit_item_foreign_mod_mutNtNvNtCs9kQvaEtA2Tf_20pin_project_internal7project16replace_item_use14UseTreeVisitorEB1a_, symObjAddr: 0x2A780, symBinAddr: 0x2B3D8, symSize: 0x118 }
  - { offset: 0x17294, size: 0x8, addend: 0x0, symName: __RINvNtNtCs807mVM355fU_3syn3gen9visit_mut26visit_item_trait_alias_mutNtNvNtCs9kQvaEtA2Tf_20pin_project_internal5utils23determine_lifetime_name16CollectLifetimesEB1a_, symObjAddr: 0x2A898, symBinAddr: 0x2B4F0, symSize: 0x1D4 }
  - { offset: 0x1737B, size: 0x8, addend: 0x0, symName: __RINvNtNtCs807mVM355fU_3syn3gen9visit_mut26visit_item_trait_alias_mutNtNvNtCs9kQvaEtA2Tf_20pin_project_internal7project16replace_item_use14UseTreeVisitorEB1a_, symObjAddr: 0x2AA6C, symBinAddr: 0x2B6C4, symSize: 0x1D4 }
  - { offset: 0x17462, size: 0x8, addend: 0x0, symName: __RINvNtNtCs807mVM355fU_3syn3gen9visit_mut26visit_method_turbofish_mutNtNtCs9kQvaEtA2Tf_20pin_project_internal5utils15ReplaceReceiverEB18_, symObjAddr: 0x2AC40, symBinAddr: 0x2B898, symSize: 0x13C }
  - { offset: 0x1750D, size: 0x8, addend: 0x0, symName: __RINvNtNtCs807mVM355fU_3syn3gen9visit_mut26visit_method_turbofish_mutNtNvNtCs9kQvaEtA2Tf_20pin_project_internal5utils23determine_lifetime_name16CollectLifetimesEB1a_, symObjAddr: 0x2AD7C, symBinAddr: 0x2B9D4, symSize: 0x13C }
  - { offset: 0x175B8, size: 0x8, addend: 0x0, symName: __RINvNtNtCs807mVM355fU_3syn3gen9visit_mut26visit_method_turbofish_mutNtNvNtCs9kQvaEtA2Tf_20pin_project_internal7project15replace_item_fn9FnVisitorEB1a_, symObjAddr: 0x2AEB8, symBinAddr: 0x2BB10, symSize: 0x13C }
  - { offset: 0x17663, size: 0x8, addend: 0x0, symName: __RINvNtNtCs807mVM355fU_3syn3gen9visit_mut26visit_method_turbofish_mutNtNvNtCs9kQvaEtA2Tf_20pin_project_internal7project16replace_item_use14UseTreeVisitorEB1a_, symObjAddr: 0x2AFF4, symBinAddr: 0x2BC4C, symSize: 0x13C }
  - { offset: 0x1770E, size: 0x8, addend: 0x0, symName: __RINvNtNtCs807mVM355fU_3syn3gen9visit_mut26visit_pat_tuple_struct_mutNtNtCs9kQvaEtA2Tf_20pin_project_internal5utils15ReplaceReceiverEB18_, symObjAddr: 0x2B130, symBinAddr: 0x2BD88, symSize: 0xB8 }
  - { offset: 0x1778C, size: 0x8, addend: 0x0, symName: __RINvNtNtCs807mVM355fU_3syn3gen9visit_mut26visit_pat_tuple_struct_mutNtNvNtCs9kQvaEtA2Tf_20pin_project_internal5utils23determine_lifetime_name16CollectLifetimesEB1a_, symObjAddr: 0x2B1E8, symBinAddr: 0x2BE40, symSize: 0xB8 }
  - { offset: 0x1780A, size: 0x8, addend: 0x0, symName: __RINvNtNtCs807mVM355fU_3syn3gen9visit_mut26visit_pat_tuple_struct_mutNtNvNtCs9kQvaEtA2Tf_20pin_project_internal7project15replace_item_fn9FnVisitorEB1a_, symObjAddr: 0x2B2A0, symBinAddr: 0x2BEF8, symSize: 0xB8 }
  - { offset: 0x17888, size: 0x8, addend: 0x0, symName: __RINvNtNtCs807mVM355fU_3syn3gen9visit_mut26visit_pat_tuple_struct_mutNtNvNtCs9kQvaEtA2Tf_20pin_project_internal7project16replace_item_use14UseTreeVisitorEB1a_, symObjAddr: 0x2B358, symBinAddr: 0x2BFB0, symSize: 0xB8 }
  - { offset: 0x17906, size: 0x8, addend: 0x0, symName: __RINvNtNtCs807mVM355fU_3syn3gen9visit_mut26visit_trait_item_const_mutNtNvNtCs9kQvaEtA2Tf_20pin_project_internal5utils23determine_lifetime_name16CollectLifetimesEB1a_, symObjAddr: 0x2B410, symBinAddr: 0x2C068, symSize: 0x154 }
  - { offset: 0x179A2, size: 0x8, addend: 0x0, symName: __RINvNtNtCs807mVM355fU_3syn3gen9visit_mut26visit_trait_item_const_mutNtNvNtCs9kQvaEtA2Tf_20pin_project_internal7project16replace_item_use14UseTreeVisitorEB1a_, symObjAddr: 0x2B564, symBinAddr: 0x2C1BC, symSize: 0x154 }
  - { offset: 0x17A3E, size: 0x8, addend: 0x0, symName: __RINvNtNtCs807mVM355fU_3syn3gen9visit_mut26visit_trait_item_macro_mutNtNvNtCs9kQvaEtA2Tf_20pin_project_internal5utils23determine_lifetime_name16CollectLifetimesEB1a_, symObjAddr: 0x2B6B8, symBinAddr: 0x2C310, symSize: 0xF8 }
  - { offset: 0x17ADA, size: 0x8, addend: 0x0, symName: __RINvNtNtCs807mVM355fU_3syn3gen9visit_mut26visit_trait_item_macro_mutNtNvNtCs9kQvaEtA2Tf_20pin_project_internal7project16replace_item_use14UseTreeVisitorEB1a_, symObjAddr: 0x2B7B0, symBinAddr: 0x2C408, symSize: 0xF8 }
  - { offset: 0x17B76, size: 0x8, addend: 0x0, symName: __RINvNtNtCs807mVM355fU_3syn3gen9visit_mut26visit_type_param_bound_mutNtNtCs9kQvaEtA2Tf_20pin_project_internal5utils15ReplaceReceiverEB18_, symObjAddr: 0x2B8A8, symBinAddr: 0x2C500, symSize: 0xA0 }
  - { offset: 0x17BEC, size: 0x8, addend: 0x0, symName: __RINvNtNtCs807mVM355fU_3syn3gen9visit_mut26visit_type_param_bound_mutNtNvNtCs9kQvaEtA2Tf_20pin_project_internal5utils23determine_lifetime_name16CollectLifetimesEB1a_, symObjAddr: 0x2B948, symBinAddr: 0x2C5A0, symSize: 0xA0 }
  - { offset: 0x17C62, size: 0x8, addend: 0x0, symName: __RINvNtNtCs807mVM355fU_3syn3gen9visit_mut26visit_type_param_bound_mutNtNvNtCs9kQvaEtA2Tf_20pin_project_internal7project15replace_item_fn9FnVisitorEB1a_, symObjAddr: 0x2B9E8, symBinAddr: 0x2C640, symSize: 0xA0 }
  - { offset: 0x17CD8, size: 0x8, addend: 0x0, symName: __RINvNtNtCs807mVM355fU_3syn3gen9visit_mut26visit_type_param_bound_mutNtNvNtCs9kQvaEtA2Tf_20pin_project_internal7project16replace_item_use14UseTreeVisitorEB1a_, symObjAddr: 0x2BA88, symBinAddr: 0x2C6E0, symSize: 0xA0 }
  - { offset: 0x17D4E, size: 0x8, addend: 0x0, symName: __RINvNtNtCs807mVM355fU_3syn3gen9visit_mut27visit_foreign_item_type_mutNtNvNtCs9kQvaEtA2Tf_20pin_project_internal5utils23determine_lifetime_name16CollectLifetimesEB1b_, symObjAddr: 0x2BB28, symBinAddr: 0x2C780, symSize: 0xD8 }
  - { offset: 0x17DCC, size: 0x8, addend: 0x0, symName: __RINvNtNtCs807mVM355fU_3syn3gen9visit_mut27visit_foreign_item_type_mutNtNvNtCs9kQvaEtA2Tf_20pin_project_internal7project16replace_item_use14UseTreeVisitorEB1b_, symObjAddr: 0x2BC00, symBinAddr: 0x2C858, symSize: 0xD8 }
  - { offset: 0x17E4A, size: 0x8, addend: 0x0, symName: __RINvNtNtCs807mVM355fU_3syn3gen9visit_mut27visit_item_extern_crate_mutNtNvNtCs9kQvaEtA2Tf_20pin_project_internal5utils23determine_lifetime_name16CollectLifetimesEB1b_, symObjAddr: 0x2BCD8, symBinAddr: 0x2C930, symSize: 0x14C }
  - { offset: 0x17EE6, size: 0x8, addend: 0x0, symName: __RINvNtNtCs807mVM355fU_3syn3gen9visit_mut27visit_item_extern_crate_mutNtNvNtCs9kQvaEtA2Tf_20pin_project_internal7project16replace_item_use14UseTreeVisitorEB1b_, symObjAddr: 0x2BE24, symBinAddr: 0x2CA7C, symSize: 0x14C }
  - { offset: 0x17F82, size: 0x8, addend: 0x0, symName: __RINvNtNtCs807mVM355fU_3syn3gen9visit_mut27visit_trait_item_method_mutNtNvNtCs9kQvaEtA2Tf_20pin_project_internal5utils23determine_lifetime_name16CollectLifetimesEB1b_, symObjAddr: 0x2BF70, symBinAddr: 0x2CBC8, symSize: 0x14C }
  - { offset: 0x1803C, size: 0x8, addend: 0x0, symName: __RINvNtNtCs807mVM355fU_3syn3gen9visit_mut27visit_trait_item_method_mutNtNvNtCs9kQvaEtA2Tf_20pin_project_internal7project16replace_item_use14UseTreeVisitorEB1b_, symObjAddr: 0x2C0BC, symBinAddr: 0x2CD14, symSize: 0x14C }
  - { offset: 0x180F6, size: 0x8, addend: 0x0, symName: __RINvNtNtCs807mVM355fU_3syn3gen9visit_mut27visit_type_trait_object_mutNtNtCs9kQvaEtA2Tf_20pin_project_internal5utils15ReplaceReceiverEB19_, symObjAddr: 0x2C208, symBinAddr: 0x2CE60, symSize: 0x15C }
  - { offset: 0x181BF, size: 0x8, addend: 0x0, symName: __RINvNtNtCs807mVM355fU_3syn3gen9visit_mut27visit_type_trait_object_mutNtNvNtCs9kQvaEtA2Tf_20pin_project_internal5utils23determine_lifetime_name16CollectLifetimesEB1b_, symObjAddr: 0x2C364, symBinAddr: 0x2CFBC, symSize: 0x15C }
  - { offset: 0x18288, size: 0x8, addend: 0x0, symName: __RINvNtNtCs807mVM355fU_3syn3gen9visit_mut27visit_type_trait_object_mutNtNvNtCs9kQvaEtA2Tf_20pin_project_internal7project15replace_item_fn9FnVisitorEB1b_, symObjAddr: 0x2C4C0, symBinAddr: 0x2D118, symSize: 0x15C }
  - { offset: 0x18351, size: 0x8, addend: 0x0, symName: __RINvNtNtCs807mVM355fU_3syn3gen9visit_mut27visit_type_trait_object_mutNtNvNtCs9kQvaEtA2Tf_20pin_project_internal7project16replace_item_use14UseTreeVisitorEB1b_, symObjAddr: 0x2C61C, symBinAddr: 0x2D274, symSize: 0x15C }
  - { offset: 0x1841A, size: 0x8, addend: 0x0, symName: __RINvNtNtCs807mVM355fU_3syn3gen9visit_mut28visit_foreign_item_macro_mutNtNvNtCs9kQvaEtA2Tf_20pin_project_internal5utils23determine_lifetime_name16CollectLifetimesEB1c_, symObjAddr: 0x2C778, symBinAddr: 0x2D3D0, symSize: 0xF8 }
  - { offset: 0x184B6, size: 0x8, addend: 0x0, symName: __RINvNtNtCs807mVM355fU_3syn3gen9visit_mut28visit_foreign_item_macro_mutNtNvNtCs9kQvaEtA2Tf_20pin_project_internal7project16replace_item_use14UseTreeVisitorEB1c_, symObjAddr: 0x2C870, symBinAddr: 0x2D4C8, symSize: 0xF8 }
  - { offset: 0x18552, size: 0x8, addend: 0x0, symName: __RINvNtNtCs807mVM355fU_3syn3gen9visit_mut28visit_predicate_lifetime_mutNtNtCs9kQvaEtA2Tf_20pin_project_internal5utils15ReplaceReceiverEB1a_, symObjAddr: 0x2C968, symBinAddr: 0x2D5C0, symSize: 0x12C }
  - { offset: 0x185FD, size: 0x8, addend: 0x0, symName: __RINvNtNtCs807mVM355fU_3syn3gen9visit_mut28visit_predicate_lifetime_mutNtNvNtCs9kQvaEtA2Tf_20pin_project_internal5utils23determine_lifetime_name16CollectLifetimesEB1c_, symObjAddr: 0x2CA94, symBinAddr: 0x2D6EC, symSize: 0x12C }
  - { offset: 0x186A8, size: 0x8, addend: 0x0, symName: __RINvNtNtCs807mVM355fU_3syn3gen9visit_mut28visit_predicate_lifetime_mutNtNvNtCs9kQvaEtA2Tf_20pin_project_internal7project16replace_item_use14UseTreeVisitorEB1c_, symObjAddr: 0x2CBC0, symBinAddr: 0x2D818, symSize: 0x12C }
  - { offset: 0x18753, size: 0x8, addend: 0x0, symName: __RINvNtNtCs807mVM355fU_3syn3gen9visit_mut29visit_foreign_item_static_mutNtNvNtCs9kQvaEtA2Tf_20pin_project_internal5utils23determine_lifetime_name16CollectLifetimesEB1d_, symObjAddr: 0x2CCEC, symBinAddr: 0x2D944, symSize: 0x194 }
  - { offset: 0x187EF, size: 0x8, addend: 0x0, symName: __RINvNtNtCs807mVM355fU_3syn3gen9visit_mut29visit_foreign_item_static_mutNtNvNtCs9kQvaEtA2Tf_20pin_project_internal7project16replace_item_use14UseTreeVisitorEB1d_, symObjAddr: 0x2CE80, symBinAddr: 0x2DAD8, symSize: 0x194 }
  - { offset: 0x1888B, size: 0x8, addend: 0x0, symName: __RINvNtNtCs807mVM355fU_3syn3gen9visit_mut30visit_trait_bound_modifier_mutNtNtCs9kQvaEtA2Tf_20pin_project_internal5utils15ReplaceReceiverEB1c_, symObjAddr: 0x2D014, symBinAddr: 0x2DC6C, symSize: 0x84 }
  - { offset: 0x188E3, size: 0x8, addend: 0x0, symName: __RINvNtNtCs807mVM355fU_3syn3gen9visit_mut30visit_trait_bound_modifier_mutNtNvNtCs9kQvaEtA2Tf_20pin_project_internal5utils23determine_lifetime_name16CollectLifetimesEB1e_, symObjAddr: 0x2D098, symBinAddr: 0x2DCF0, symSize: 0x84 }
  - { offset: 0x1893B, size: 0x8, addend: 0x0, symName: __RINvNtNtCs807mVM355fU_3syn3gen9visit_mut30visit_trait_bound_modifier_mutNtNvNtCs9kQvaEtA2Tf_20pin_project_internal7project15replace_item_fn9FnVisitorEB1e_, symObjAddr: 0x2D11C, symBinAddr: 0x2DD74, symSize: 0x84 }
  - { offset: 0x18993, size: 0x8, addend: 0x0, symName: __RINvNtNtCs807mVM355fU_3syn3gen9visit_mut30visit_trait_bound_modifier_mutNtNvNtCs9kQvaEtA2Tf_20pin_project_internal7project16replace_item_use14UseTreeVisitorEB1e_, symObjAddr: 0x2D1A0, symBinAddr: 0x2DDF8, symSize: 0x84 }
  - { offset: 0x189EB, size: 0x8, addend: 0x0, symName: __RINvNtNtCs807mVM355fU_3syn3gen9visit_mut33visit_generic_method_argument_mutNtNtCs9kQvaEtA2Tf_20pin_project_internal5utils15ReplaceReceiverEB1f_, symObjAddr: 0x2D224, symBinAddr: 0x2DE7C, symSize: 0xA4 }
  - { offset: 0x18A61, size: 0x8, addend: 0x0, symName: __RINvNtNtCs807mVM355fU_3syn3gen9visit_mut33visit_generic_method_argument_mutNtNvNtCs9kQvaEtA2Tf_20pin_project_internal5utils23determine_lifetime_name16CollectLifetimesEB1h_, symObjAddr: 0x2D2C8, symBinAddr: 0x2DF20, symSize: 0xA4 }
  - { offset: 0x18AD7, size: 0x8, addend: 0x0, symName: __RINvNtNtCs807mVM355fU_3syn3gen9visit_mut33visit_generic_method_argument_mutNtNvNtCs9kQvaEtA2Tf_20pin_project_internal7project15replace_item_fn9FnVisitorEB1h_, symObjAddr: 0x2D36C, symBinAddr: 0x2DFC4, symSize: 0xA4 }
  - { offset: 0x18B4D, size: 0x8, addend: 0x0, symName: __RINvNtNtCs807mVM355fU_3syn3gen9visit_mut33visit_generic_method_argument_mutNtNvNtCs9kQvaEtA2Tf_20pin_project_internal7project16replace_item_use14UseTreeVisitorEB1h_, symObjAddr: 0x2D410, symBinAddr: 0x2E068, symSize: 0xA4 }
  - { offset: 0x18BC3, size: 0x8, addend: 0x0, symName: __RINvNtNtCs807mVM355fU_3syn3gen9visit_mut41visit_parenthesized_generic_arguments_mutNtNtCs9kQvaEtA2Tf_20pin_project_internal5utils15ReplaceReceiverEB1n_, symObjAddr: 0x2D4B4, symBinAddr: 0x2E10C, symSize: 0x12C }
  - { offset: 0x18C6E, size: 0x8, addend: 0x0, symName: __RINvNtNtCs807mVM355fU_3syn3gen9visit_mut41visit_parenthesized_generic_arguments_mutNtNvNtCs9kQvaEtA2Tf_20pin_project_internal5utils23determine_lifetime_name16CollectLifetimesEB1p_, symObjAddr: 0x2D5E0, symBinAddr: 0x2E238, symSize: 0x12C }
  - { offset: 0x18D19, size: 0x8, addend: 0x0, symName: __RINvNtNtCs807mVM355fU_3syn3gen9visit_mut41visit_parenthesized_generic_arguments_mutNtNvNtCs9kQvaEtA2Tf_20pin_project_internal7project15replace_item_fn9FnVisitorEB1p_, symObjAddr: 0x2D70C, symBinAddr: 0x2E364, symSize: 0x12C }
  - { offset: 0x18DC4, size: 0x8, addend: 0x0, symName: __RINvNtNtCs807mVM355fU_3syn3gen9visit_mut41visit_parenthesized_generic_arguments_mutNtNvNtCs9kQvaEtA2Tf_20pin_project_internal7project16replace_item_use14UseTreeVisitorEB1p_, symObjAddr: 0x2D838, symBinAddr: 0x2E490, symSize: 0x12C }
  - { offset: 0x18E6F, size: 0x8, addend: 0x0, symName: __RINvNtNtCs807mVM355fU_3syn3gen9visit_mut43visit_angle_bracketed_generic_arguments_mutNtNtCs9kQvaEtA2Tf_20pin_project_internal5utils15ReplaceReceiverEB1p_, symObjAddr: 0x2D964, symBinAddr: 0x2E5BC, symSize: 0x17C }
  - { offset: 0x18F38, size: 0x8, addend: 0x0, symName: __RINvNtNtCs807mVM355fU_3syn3gen9visit_mut43visit_angle_bracketed_generic_arguments_mutNtNvNtCs9kQvaEtA2Tf_20pin_project_internal5utils23determine_lifetime_name16CollectLifetimesEB1r_, symObjAddr: 0x2DAE0, symBinAddr: 0x2E738, symSize: 0x17C }
  - { offset: 0x19001, size: 0x8, addend: 0x0, symName: __RINvNtNtCs807mVM355fU_3syn3gen9visit_mut43visit_angle_bracketed_generic_arguments_mutNtNvNtCs9kQvaEtA2Tf_20pin_project_internal7project15replace_item_fn9FnVisitorEB1r_, symObjAddr: 0x2DC5C, symBinAddr: 0x2E8B4, symSize: 0x17C }
  - { offset: 0x190CA, size: 0x8, addend: 0x0, symName: __RINvNtNtCs807mVM355fU_3syn3gen9visit_mut43visit_angle_bracketed_generic_arguments_mutNtNvNtCs9kQvaEtA2Tf_20pin_project_internal7project16replace_item_use14UseTreeVisitorEB1r_, symObjAddr: 0x2DDD8, symBinAddr: 0x2EA30, symSize: 0x17C }
  - { offset: 0x24646, size: 0x8, addend: 0x0, symName: __RNvXs1_NtNtNtCsaNl6UpbT7bw_4core3ops8function5implsQNCNvMs1_NtNtCs9kQvaEtA2Tf_20pin_project_internal11pin_project6deriveNtBW_7Context17ensure_not_packed0INtB7_5FnMutTRNtNtCs807mVM355fU_3syn4attr9AttributeEE8call_mutB10_, symObjAddr: 0x0, symBinAddr: 0x2EBAC, symSize: 0x30 }
  - { offset: 0x2B70F, size: 0x8, addend: 0x0, symName: __RNvXs1_NtNtNtCsaNl6UpbT7bw_4core3ops8function5implsQNCNvMs1_NtNtCs9kQvaEtA2Tf_20pin_project_internal11pin_project6deriveNtBW_7Context17ensure_not_packed0INtB7_5FnMutTRNtNtCs807mVM355fU_3syn4attr9AttributeEE8call_mutB10_, symObjAddr: 0x0, symBinAddr: 0x2EBAC, symSize: 0x30 }
  - { offset: 0x2B75E, size: 0x8, addend: 0x0, symName: __RNvXs1_NtNtNtCsaNl6UpbT7bw_4core3ops8function5implsQNCNvMs_NtNtCs9kQvaEtA2Tf_20pin_project_internal11pin_project6deriveNtBV_4Args3get0INtB7_5FnMutTRRNtNtCs807mVM355fU_3syn4attr9AttributeEE8call_mutBZ_, symObjAddr: 0x30, symBinAddr: 0x2EBDC, symSize: 0x30 }
  - { offset: 0x2E27A, size: 0x8, addend: 0x0, symName: __RNvNtNtCs9kQvaEtA2Tf_20pin_project_internal11pin_project6derive12parse_derive, symObjAddr: 0x60, symBinAddr: 0x2EC0C, symSize: 0xE24 }
  - { offset: 0x2E5D1, size: 0x8, addend: 0x0, symName: __RNvNtNtCs9kQvaEtA2Tf_20pin_project_internal11pin_project6derive15validate_struct, symObjAddr: 0xE84, symBinAddr: 0x2FA30, symSize: 0x110 }
  - { offset: 0x2E620, size: 0x8, addend: 0x0, symName: __RNvNtNtCs9kQvaEtA2Tf_20pin_project_internal11pin_project6derive13validate_enum, symObjAddr: 0xF94, symBinAddr: 0x2FB40, symSize: 0x1D8 }
  - { offset: 0x2E69A, size: 0x8, addend: 0x0, symName: __RNCNvNtNtCs9kQvaEtA2Tf_20pin_project_internal11pin_project6derive13validate_enum0B7_, symObjAddr: 0x116C, symBinAddr: 0x2FD18, symSize: 0x198 }
  - { offset: 0x2E7E4, size: 0x8, addend: 0x0, symName: __RNvXNvMs_NtNtCs9kQvaEtA2Tf_20pin_project_internal11pin_project6deriveNtB7_4Args3getNtB2_5InputNtNtCs807mVM355fU_3syn5parse5Parse5parse, symObjAddr: 0x1A6C, symBinAddr: 0x30618, symSize: 0x68 }
  - { offset: 0x2E815, size: 0x8, addend: 0x0, symName: __RNCNvXNvMs_NtNtCs9kQvaEtA2Tf_20pin_project_internal11pin_project6deriveNtB9_4Args3getNtB4_5InputNtNtCs807mVM355fU_3syn5parse5Parse5parse0Bd_, symObjAddr: 0x1AD4, symBinAddr: 0x30680, symSize: 0x320 }
  - { offset: 0x2E91A, size: 0x8, addend: 0x0, symName: __RNCNvMs_NtNtCs9kQvaEtA2Tf_20pin_project_internal11pin_project6deriveNtB6_4Args3get0Ba_, symObjAddr: 0x1DF4, symBinAddr: 0x309A0, symSize: 0x4C }
  - { offset: 0x2EA2A, size: 0x8, addend: 0x0, symName: __RNvXs0_NtNtCs9kQvaEtA2Tf_20pin_project_internal11pin_project6deriveNtB5_4ArgsNtNtCs807mVM355fU_3syn5parse5Parse5parse, symObjAddr: 0x1E40, symBinAddr: 0x309EC, symSize: 0x1890 }
  - { offset: 0x2EEF3, size: 0x8, addend: 0x0, symName: __RNvNvXs0_NtNtCs9kQvaEtA2Tf_20pin_project_internal11pin_project6deriveNtB7_4ArgsNtNtCs807mVM355fU_3syn5parse5Parse5parse11parse_value, symObjAddr: 0x36D0, symBinAddr: 0x3227C, symSize: 0x590 }
  - { offset: 0x2F0F6, size: 0x8, addend: 0x0, symName: __RNvXs0_NtNvXs0_NtNtCs9kQvaEtA2Tf_20pin_project_internal11pin_project6deriveNtBd_4ArgsNtNtCs807mVM355fU_3syn5parse5Parse5parse2kwNtB5_5UnpinB1l_5parse, symObjAddr: 0xE26C, symBinAddr: 0x3CE18, symSize: 0x34 }
  - { offset: 0x2F127, size: 0x8, addend: 0x0, symName: __RNCNvXs0_NtNvXs0_NtNtCs9kQvaEtA2Tf_20pin_project_internal11pin_project6deriveNtBf_4ArgsNtNtCs807mVM355fU_3syn5parse5Parse5parse2kwNtB7_5UnpinB1n_5parse0Bj_, symObjAddr: 0xE2A0, symBinAddr: 0x3CE4C, symSize: 0x1F0 }
  - { offset: 0x2F191, size: 0x8, addend: 0x0, symName: __RNvXs1_NtNvXs0_NtNtCs9kQvaEtA2Tf_20pin_project_internal11pin_project6deriveNtBd_4ArgsNtNtCs807mVM355fU_3syn5parse5Parse5parse2kwNtB5_5UnpinNtNtCs4EAaWzSXu1l_5quote9to_tokens8ToTokens9to_tokens, symObjAddr: 0xE490, symBinAddr: 0x3D03C, symSize: 0x6C }
  - { offset: 0x2F451, size: 0x8, addend: 0x0, symName: __RNCNvMs1_NtNtCs9kQvaEtA2Tf_20pin_project_internal11pin_project6deriveNtB7_7Context3new0Bb_, symObjAddr: 0x4448, symBinAddr: 0x32FF4, symSize: 0x44 }
  - { offset: 0x2F481, size: 0x8, addend: 0x0, symName: __RNCNvMs1_NtNtCs9kQvaEtA2Tf_20pin_project_internal11pin_project6deriveNtB7_7Context3news_0Bb_, symObjAddr: 0x448C, symBinAddr: 0x33038, symSize: 0x40 }
  - { offset: 0x2F4B1, size: 0x8, addend: 0x0, symName: __RNCNvMs1_NtNtCs9kQvaEtA2Tf_20pin_project_internal11pin_project6deriveNtB7_7Context3news0_0Bb_, symObjAddr: 0x44CC, symBinAddr: 0x33078, symSize: 0x44 }
  - { offset: 0x2F4E7, size: 0x8, addend: 0x0, symName: __RNCNvMs1_NtNtCs9kQvaEtA2Tf_20pin_project_internal11pin_project6deriveNtB7_7Context12visit_fields0Bb_, symObjAddr: 0x920C, symBinAddr: 0x37DB8, symSize: 0x118 }
  - { offset: 0x2F56A, size: 0x8, addend: 0x0, symName: __RNvNvMs1_NtNtCs9kQvaEtA2Tf_20pin_project_internal11pin_project6deriveNtB7_7Context12visit_fields8surround, symObjAddr: 0x9324, symBinAddr: 0x37ED0, symSize: 0x48 }
  - { offset: 0x2F5AE, size: 0x8, addend: 0x0, symName: __RNCNvMs1_NtNtCs9kQvaEtA2Tf_20pin_project_internal11pin_project6deriveNtB7_7Context15make_unpin_impl0Bb_, symObjAddr: 0xB290, symBinAddr: 0x39E3C, symSize: 0x1CC }
  - { offset: 0x2F68E, size: 0x8, addend: 0x0, symName: __RNCNvMs1_NtNtCs9kQvaEtA2Tf_20pin_project_internal11pin_project6deriveNtB7_7Context15make_unpin_impls_0Bb_, symObjAddr: 0xB45C, symBinAddr: 0x3A008, symSize: 0x1F8 }
  - { offset: 0x2F76E, size: 0x8, addend: 0x0, symName: __RNCNvMs1_NtNtCs9kQvaEtA2Tf_20pin_project_internal11pin_project6deriveNtB7_7Context15make_unpin_impls0_0Bb_, symObjAddr: 0xB654, symBinAddr: 0x3A200, symSize: 0x28 }
  - { offset: 0x2F7A7, size: 0x8, addend: 0x0, symName: __RNCNvMs1_NtNtCs9kQvaEtA2Tf_20pin_project_internal11pin_project6deriveNtB7_7Context15make_unpin_impls1_0Bb_, symObjAddr: 0xE658, symBinAddr: 0x3D204, symSize: 0x4C }
  - { offset: 0x2F800, size: 0x8, addend: 0x0, symName: __RNCNvMs1_NtNtCs9kQvaEtA2Tf_20pin_project_internal11pin_project6deriveNtB7_7Context14make_proj_impl0Bb_, symObjAddr: 0xD0EC, symBinAddr: 0x3BC98, symSize: 0x4A8 }
  - { offset: 0x2F95E, size: 0x8, addend: 0x0, symName: __RNCNvMs1_NtNtCs9kQvaEtA2Tf_20pin_project_internal11pin_project6deriveNtB7_7Context17ensure_not_packed0Bb_, symObjAddr: 0xE214, symBinAddr: 0x3CDC0, symSize: 0x58 }
  - { offset: 0x2FA47, size: 0x8, addend: 0x0, symName: __RNvXs2_NtNtCs9kQvaEtA2Tf_20pin_project_internal11pin_project6deriveNtB5_15ProjectedFieldsNtNtCsaNl6UpbT7bw_4core7default7Default7defaultB9_, symObjAddr: 0xE4FC, symBinAddr: 0x3D0A8, symSize: 0x15C }
  - { offset: 0x2FABF, size: 0x8, addend: 0x0, symName: __RNvMNtNtCs9kQvaEtA2Tf_20pin_project_internal11pin_project6deriveNtB2_11ProjReplace4span, symObjAddr: 0x1304, symBinAddr: 0x2FEB0, symSize: 0xBC }
  - { offset: 0x2FB0B, size: 0x8, addend: 0x0, symName: __RNvMNtNtCs9kQvaEtA2Tf_20pin_project_internal11pin_project6deriveNtB2_11ProjReplace5ident, symObjAddr: 0x13C0, symBinAddr: 0x2FF6C, symSize: 0x70 }
  - { offset: 0x3011B, size: 0x8, addend: 0x0, symName: __RNvMs_NtNtCs9kQvaEtA2Tf_20pin_project_internal11pin_project6deriveNtB4_4Args3get, symObjAddr: 0x1430, symBinAddr: 0x2FFDC, symSize: 0x63C }
  - { offset: 0x302E7, size: 0x8, addend: 0x0, symName: __RNvMs1_NtNtCs9kQvaEtA2Tf_20pin_project_internal11pin_project6deriveNtB5_7Context3new, symObjAddr: 0x3C60, symBinAddr: 0x3280C, symSize: 0x7E8 }
  - { offset: 0x304B6, size: 0x8, addend: 0x0, symName: __RNvMs1_NtNtCs9kQvaEtA2Tf_20pin_project_internal11pin_project6deriveNtB5_7Context10proj_attrs, symObjAddr: 0x4510, symBinAddr: 0x330BC, symSize: 0xDA8 }
  - { offset: 0x30817, size: 0x8, addend: 0x0, symName: __RNvMs1_NtNtCs9kQvaEtA2Tf_20pin_project_internal11pin_project6deriveNtB5_7Context12parse_struct, symObjAddr: 0x52B8, symBinAddr: 0x33E64, symSize: 0x1130 }
  - { offset: 0x30C11, size: 0x8, addend: 0x0, symName: __RNvMs1_NtNtCs9kQvaEtA2Tf_20pin_project_internal11pin_project6deriveNtB5_7Context10parse_enum, symObjAddr: 0x63E8, symBinAddr: 0x34F94, symSize: 0xCE8 }
  - { offset: 0x30F86, size: 0x8, addend: 0x0, symName: __RNvMs1_NtNtCs9kQvaEtA2Tf_20pin_project_internal11pin_project6deriveNtB5_7Context14visit_variants, symObjAddr: 0x70D0, symBinAddr: 0x35C7C, symSize: 0xBFC }
  - { offset: 0x31279, size: 0x8, addend: 0x0, symName: __RNvMs1_NtNtCs9kQvaEtA2Tf_20pin_project_internal11pin_project6deriveNtB5_7Context12visit_fields, symObjAddr: 0x7CCC, symBinAddr: 0x36878, symSize: 0x1540 }
  - { offset: 0x316C8, size: 0x8, addend: 0x0, symName: __RNvMs1_NtNtCs9kQvaEtA2Tf_20pin_project_internal11pin_project6deriveNtB5_7Context13proj_own_body, symObjAddr: 0x936C, symBinAddr: 0x37F18, symSize: 0x77C }
  - { offset: 0x318CB, size: 0x8, addend: 0x0, symName: __RNvMs1_NtNtCs9kQvaEtA2Tf_20pin_project_internal11pin_project6deriveNtB5_7Context15make_unpin_impl, symObjAddr: 0x9AE8, symBinAddr: 0x38694, symSize: 0x17A8 }
  - { offset: 0x31EF2, size: 0x8, addend: 0x0, symName: __RNvMs1_NtNtCs9kQvaEtA2Tf_20pin_project_internal11pin_project6deriveNtB5_7Context14make_drop_impl, symObjAddr: 0xB67C, symBinAddr: 0x3A228, symSize: 0x10B8 }
  - { offset: 0x32228, size: 0x8, addend: 0x0, symName: __RNvMs1_NtNtCs9kQvaEtA2Tf_20pin_project_internal11pin_project6deriveNtB5_7Context14make_proj_impl, symObjAddr: 0xC734, symBinAddr: 0x3B2E0, symSize: 0x9B8 }
  - { offset: 0x324AC, size: 0x8, addend: 0x0, symName: __RNvMs1_NtNtCs9kQvaEtA2Tf_20pin_project_internal11pin_project6deriveNtB5_7Context17ensure_not_packed, symObjAddr: 0xD594, symBinAddr: 0x3C140, symSize: 0xC80 }
  - { offset: 0x32D15, size: 0x8, addend: 0x0, symName: __RINvXs2V_NtNtCsaNl6UpbT7bw_4core5slice4iterINtB7_4IterNtNtCs807mVM355fU_3syn4attr9AttributeENtNtNtNtBb_4iter6traits8iterator8Iterator4findQNCNvMs_NtNtCs9kQvaEtA2Tf_20pin_project_internal11pin_project6deriveNtB2k_4Args3get0EB2o_, symObjAddr: 0x0, symBinAddr: 0x3D250, symSize: 0xB0 }
  - { offset: 0x33709, size: 0x8, addend: 0x0, symName: __RINvXs2V_NtNtCsaNl6UpbT7bw_4core5slice4iterINtB7_4IterNtNtCs807mVM355fU_3syn4attr9AttributeENtNtNtNtBb_4iter6traits8iterator8Iterator4findQNCNvMs_NtNtCs9kQvaEtA2Tf_20pin_project_internal11pin_project6deriveNtB2k_4Args3get0EB2o_, symObjAddr: 0x0, symBinAddr: 0x3D250, symSize: 0xB0 }
  - { offset: 0x3376E, size: 0x8, addend: 0x0, symName: __RINvXs2V_NtNtCsaNl6UpbT7bw_4core5slice4iterINtB7_4IterNtNtCs807mVM355fU_3syn4attr9AttributeENtNtNtNtBb_4iter6traits8iterator8Iterator8find_mapNtBS_4MetaQNCNvMs1_NtNtCs9kQvaEtA2Tf_20pin_project_internal11pin_project6deriveNtB2z_7Context17ensure_not_packed0EB2D_, symObjAddr: 0xB0, symBinAddr: 0x3D300, symSize: 0xF8 }
  - { offset: 0x337F3, size: 0x8, addend: 0x0, symName: __RINvXs2V_NtNtCsaNl6UpbT7bw_4core5slice4iterINtB7_4IterNtNtCs807mVM355fU_3syn4attr9AttributeENtNtNtNtBb_4iter6traits8iterator8Iterator8positionNCNvXs_NtCs9kQvaEtA2Tf_20pin_project_internal5utilsSBQ_NtB2n_8SliceExt4find0EB2p_, symObjAddr: 0x1A8, symBinAddr: 0x3D3F8, symSize: 0x188 }
  - { offset: 0x338B1, size: 0x8, addend: 0x0, symName: __RINvXs2V_NtNtCsaNl6UpbT7bw_4core5slice4iterINtB7_4IterNtNtCsiTraAjBDcu4_5alloc6string6StringENtNtNtNtBb_4iter6traits8iterator8Iterator3anyNCNvNtCs9kQvaEtA2Tf_20pin_project_internal5utils23determine_lifetime_name0EB2i_, symObjAddr: 0x330, symBinAddr: 0x3D580, symSize: 0xB0 }
  - { offset: 0x33916, size: 0x8, addend: 0x0, symName: __RNvXs2V_NtNtCsaNl6UpbT7bw_4core5slice4iterINtB6_4IterNtCshnvkK9b4wzu_11proc_macro211TokenStreamENtNtNtNtBa_4iter6traits8iterator8Iterator4nextCs9kQvaEtA2Tf_20pin_project_internal, symObjAddr: 0x10D0, symBinAddr: 0x3E320, symSize: 0xB0 }
  - { offset: 0x33A50, size: 0x8, addend: 0x0, symName: __RNvXs2V_NtNtCsaNl6UpbT7bw_4core5slice4iterINtB6_4IterNtNtCs807mVM355fU_3syn2ty4TypeENtNtNtNtBa_4iter6traits8iterator8Iterator4nextCs9kQvaEtA2Tf_20pin_project_internal, symObjAddr: 0x1180, symBinAddr: 0x3E3D0, symSize: 0xB0 }
  - { offset: 0x33B8A, size: 0x8, addend: 0x0, symName: __RNvXs2V_NtNtCsaNl6UpbT7bw_4core5slice4iterINtB6_4IterNtNtCs9kQvaEtA2Tf_20pin_project_internal5utils8ProjKindENtNtNtNtBa_4iter6traits8iterator8Iterator4nextBT_, symObjAddr: 0x1230, symBinAddr: 0x3E480, symSize: 0xB0 }
  - { offset: 0x33CC4, size: 0x8, addend: 0x0, symName: __RNvXs2V_NtNtCsaNl6UpbT7bw_4core5slice4iterINtB6_4IterNtNtCsiTraAjBDcu4_5alloc6string6StringENtNtNtNtBa_4iter6traits8iterator8Iterator4nextCs9kQvaEtA2Tf_20pin_project_internal, symObjAddr: 0x12E0, symBinAddr: 0x3E530, symSize: 0xB0 }
  - { offset: 0x33E04, size: 0x8, addend: 0x0, symName: __RINvXs33_NtNtCsaNl6UpbT7bw_4core5slice4iterINtB7_7IterMutNtNtCs807mVM355fU_3syn4expr3ArmENtNtNtNtBb_4iter6traits8iterator8Iterator8for_eachNCNvMNtCs9kQvaEtA2Tf_20pin_project_internal7projectNtB2i_7Context18replace_expr_match0EB2k_, symObjAddr: 0x3E0, symBinAddr: 0x3D630, symSize: 0x84 }
  - { offset: 0x33E65, size: 0x8, addend: 0x0, symName: __RINvXs33_NtNtCsaNl6UpbT7bw_4core5slice4iterINtB7_7IterMutNtNtCs807mVM355fU_3syn4item8ImplItemENtNtNtNtBb_4iter6traits8iterator8Iterator4folduNCINvNtNtB1A_8adapters10filter_map15filter_map_foldQBT_QNtBV_14ImplItemMethoduNCNvNtCs9kQvaEtA2Tf_20pin_project_internal7project17replace_item_impl0NCINvNvB1u_8for_each4callB38_NCB3x_s_0E0E0EB3B_, symObjAddr: 0x464, symBinAddr: 0x3D6B4, symSize: 0x194 }
  - { offset: 0x33FB9, size: 0x8, addend: 0x0, symName: __RNvXs33_NtNtCsaNl6UpbT7bw_4core5slice4iterINtB6_7IterMutNtNtCs807mVM355fU_3syn4attr9AttributeENtNtNtNtBa_4iter6traits8iterator8Iterator4nextCs9kQvaEtA2Tf_20pin_project_internal, symObjAddr: 0x18B8, symBinAddr: 0x3EB08, symSize: 0xB0 }
  - { offset: 0x340DE, size: 0x8, addend: 0x0, symName: __RNvXs33_NtNtCsaNl6UpbT7bw_4core5slice4iterINtB6_7IterMutNtNtCs807mVM355fU_3syn4expr3ArmENtNtNtNtBa_4iter6traits8iterator8Iterator4nextCs9kQvaEtA2Tf_20pin_project_internal, symObjAddr: 0x1968, symBinAddr: 0x3EBB8, symSize: 0xB0 }
  - { offset: 0x34203, size: 0x8, addend: 0x0, symName: __RNvXs33_NtNtCsaNl6UpbT7bw_4core5slice4iterINtB6_7IterMutNtNtCs807mVM355fU_3syn4item11ForeignItemENtNtNtNtBa_4iter6traits8iterator8Iterator4nextCs9kQvaEtA2Tf_20pin_project_internal, symObjAddr: 0x1A18, symBinAddr: 0x3EC68, symSize: 0xB0 }
  - { offset: 0x34328, size: 0x8, addend: 0x0, symName: __RNvXs33_NtNtCsaNl6UpbT7bw_4core5slice4iterINtB6_7IterMutNtNtCs807mVM355fU_3syn4item4ItemENtNtNtNtBa_4iter6traits8iterator8Iterator4nextCs9kQvaEtA2Tf_20pin_project_internal, symObjAddr: 0x1AC8, symBinAddr: 0x3ED18, symSize: 0xB0 }
  - { offset: 0x3444D, size: 0x8, addend: 0x0, symName: __RNvXs33_NtNtCsaNl6UpbT7bw_4core5slice4iterINtB6_7IterMutNtNtCs807mVM355fU_3syn4item8ImplItemENtNtNtNtBa_4iter6traits8iterator8Iterator4nextCs9kQvaEtA2Tf_20pin_project_internal, symObjAddr: 0x1B78, symBinAddr: 0x3EDC8, symSize: 0xB0 }
  - { offset: 0x34572, size: 0x8, addend: 0x0, symName: __RNvXs33_NtNtCsaNl6UpbT7bw_4core5slice4iterINtB6_7IterMutNtNtCs807mVM355fU_3syn4item9TraitItemENtNtNtNtBa_4iter6traits8iterator8Iterator4nextCs9kQvaEtA2Tf_20pin_project_internal, symObjAddr: 0x1C28, symBinAddr: 0x3EE78, symSize: 0xB0 }
  - { offset: 0x34697, size: 0x8, addend: 0x0, symName: __RNvXs33_NtNtCsaNl6UpbT7bw_4core5slice4iterINtB6_7IterMutNtNtCs807mVM355fU_3syn4stmt4StmtENtNtNtNtBa_4iter6traits8iterator8Iterator4nextCs9kQvaEtA2Tf_20pin_project_internal, symObjAddr: 0x1CD8, symBinAddr: 0x3EF28, symSize: 0xB0 }
  - { offset: 0x347BC, size: 0x8, addend: 0x0, symName: __RNvXs33_NtNtCsaNl6UpbT7bw_4core5slice4iterINtB6_7IterMutTNtNtCs807mVM355fU_3syn2ty4TypeNtNtBX_5token5CommaEENtNtNtNtBa_4iter6traits8iterator8Iterator4nextCs9kQvaEtA2Tf_20pin_project_internal, symObjAddr: 0x1D88, symBinAddr: 0x3EFD8, symSize: 0xB0 }
  - { offset: 0x348E1, size: 0x8, addend: 0x0, symName: __RNvXs33_NtNtCsaNl6UpbT7bw_4core5slice4iterINtB6_7IterMutTNtNtCs807mVM355fU_3syn2ty9BareFnArgNtNtBX_5token5CommaEENtNtNtNtBa_4iter6traits8iterator8Iterator4nextCs9kQvaEtA2Tf_20pin_project_internal, symObjAddr: 0x1E38, symBinAddr: 0x3F088, symSize: 0xB0 }
  - { offset: 0x34A06, size: 0x8, addend: 0x0, symName: __RNvXs33_NtNtCsaNl6UpbT7bw_4core5slice4iterINtB6_7IterMutTNtNtCs807mVM355fU_3syn3pat3PatNtNtBX_5token2OrEENtNtNtNtBa_4iter6traits8iterator8Iterator4nextCs9kQvaEtA2Tf_20pin_project_internal, symObjAddr: 0x1EE8, symBinAddr: 0x3F138, symSize: 0xB0 }
  - { offset: 0x34B2B, size: 0x8, addend: 0x0, symName: __RNvXs33_NtNtCsaNl6UpbT7bw_4core5slice4iterINtB6_7IterMutTNtNtCs807mVM355fU_3syn3pat3PatNtNtBX_5token5CommaEENtNtNtNtBa_4iter6traits8iterator8Iterator4nextCs9kQvaEtA2Tf_20pin_project_internal, symObjAddr: 0x1F98, symBinAddr: 0x3F1E8, symSize: 0xB0 }
  - { offset: 0x34C50, size: 0x8, addend: 0x0, symName: __RNvXs33_NtNtCsaNl6UpbT7bw_4core5slice4iterINtB6_7IterMutTNtNtCs807mVM355fU_3syn3pat8FieldPatNtNtBX_5token5CommaEENtNtNtNtBa_4iter6traits8iterator8Iterator4nextCs9kQvaEtA2Tf_20pin_project_internal, symObjAddr: 0x2048, symBinAddr: 0x3F298, symSize: 0xB0 }
  - { offset: 0x34D75, size: 0x8, addend: 0x0, symName: __RNvXs33_NtNtCsaNl6UpbT7bw_4core5slice4iterINtB6_7IterMutTNtNtCs807mVM355fU_3syn4data7VariantNtNtBX_5token5CommaEENtNtNtNtBa_4iter6traits8iterator8Iterator4nextCs9kQvaEtA2Tf_20pin_project_internal, symObjAddr: 0x20F8, symBinAddr: 0x3F348, symSize: 0xB0 }
  - { offset: 0x34E9A, size: 0x8, addend: 0x0, symName: __RNvXs33_NtNtCsaNl6UpbT7bw_4core5slice4iterINtB6_7IterMutTNtNtCs807mVM355fU_3syn4expr10FieldValueNtNtBX_5token5CommaEENtNtNtNtBa_4iter6traits8iterator8Iterator4nextCs9kQvaEtA2Tf_20pin_project_internal, symObjAddr: 0x21A8, symBinAddr: 0x3F3F8, symSize: 0xB0 }
  - { offset: 0x34FBF, size: 0x8, addend: 0x0, symName: __RNvXs33_NtNtCsaNl6UpbT7bw_4core5slice4iterINtB6_7IterMutTNtNtCs807mVM355fU_3syn4expr21GenericMethodArgumentNtNtBX_5token5CommaEENtNtNtNtBa_4iter6traits8iterator8Iterator4nextCs9kQvaEtA2Tf_20pin_project_internal, symObjAddr: 0x2258, symBinAddr: 0x3F4A8, symSize: 0xB0 }
  - { offset: 0x350E4, size: 0x8, addend: 0x0, symName: __RNvXs33_NtNtCsaNl6UpbT7bw_4core5slice4iterINtB6_7IterMutTNtNtCs807mVM355fU_3syn4expr4ExprNtNtBX_5token5CommaEENtNtNtNtBa_4iter6traits8iterator8Iterator4nextCs9kQvaEtA2Tf_20pin_project_internal, symObjAddr: 0x2308, symBinAddr: 0x3F558, symSize: 0xB0 }
  - { offset: 0x35209, size: 0x8, addend: 0x0, symName: __RNvXs33_NtNtCsaNl6UpbT7bw_4core5slice4iterINtB6_7IterMutTNtNtCs807mVM355fU_3syn4item7UseTreeNtNtBX_5token5CommaEENtNtNtNtBa_4iter6traits8iterator8Iterator4nextCs9kQvaEtA2Tf_20pin_project_internal, symObjAddr: 0x23B8, symBinAddr: 0x3F608, symSize: 0xB0 }
  - { offset: 0x3532E, size: 0x8, addend: 0x0, symName: __RNvXs33_NtNtCsaNl6UpbT7bw_4core5slice4iterINtB6_7IterMutTNtNtCs807mVM355fU_3syn4path15GenericArgumentNtNtBX_5token5CommaEENtNtNtNtBa_4iter6traits8iterator8Iterator4nextCs9kQvaEtA2Tf_20pin_project_internal, symObjAddr: 0x2468, symBinAddr: 0x3F6B8, symSize: 0xB0 }
  - { offset: 0x35453, size: 0x8, addend: 0x0, symName: __RNvXs33_NtNtCsaNl6UpbT7bw_4core5slice4iterINtB6_7IterMutTNtNtCs807mVM355fU_3syn8generics11LifetimeDefNtNtBX_5token5CommaEENtNtNtNtBa_4iter6traits8iterator8Iterator4nextCs9kQvaEtA2Tf_20pin_project_internal, symObjAddr: 0x2518, symBinAddr: 0x3F768, symSize: 0xB0 }
  - { offset: 0x35578, size: 0x8, addend: 0x0, symName: __RNvXs33_NtNtCsaNl6UpbT7bw_4core5slice4iterINtB6_7IterMutTNtNtCs807mVM355fU_3syn8generics14TypeParamBoundNtNtBX_5token3AddEENtNtNtNtBa_4iter6traits8iterator8Iterator4nextCs9kQvaEtA2Tf_20pin_project_internal, symObjAddr: 0x25C8, symBinAddr: 0x3F818, symSize: 0xB0 }
  - { offset: 0x3569D, size: 0x8, addend: 0x0, symName: __RNvXs33_NtNtCsaNl6UpbT7bw_4core5slice4iterINtB6_7IterMutTNtNtCs807mVM355fU_3syn8generics14WherePredicateNtNtBX_5token5CommaEENtNtNtNtBa_4iter6traits8iterator8Iterator4nextCs9kQvaEtA2Tf_20pin_project_internal, symObjAddr: 0x2678, symBinAddr: 0x3F8C8, symSize: 0xB0 }
  - { offset: 0x357C2, size: 0x8, addend: 0x0, symName: __RNvXs33_NtNtCsaNl6UpbT7bw_4core5slice4iterINtB6_7IterMutTNtNtCs807mVM355fU_3syn8lifetime8LifetimeNtNtBX_5token3AddEENtNtNtNtBa_4iter6traits8iterator8Iterator4nextCs9kQvaEtA2Tf_20pin_project_internal, symObjAddr: 0x2728, symBinAddr: 0x3F978, symSize: 0xB0 }
  - { offset: 0x360A7, size: 0x8, addend: 0x0, symName: __RNvXs2W_NtNtCsaNl6UpbT7bw_4core5slice4iterINtB6_4IterNtCshnvkK9b4wzu_11proc_macro25IdentENtNtNtNtBa_4iter6traits12double_ended19DoubleEndedIterator9next_backCs9kQvaEtA2Tf_20pin_project_internal, symObjAddr: 0x1390, symBinAddr: 0x3E5E0, symSize: 0x108 }
  - { offset: 0x36203, size: 0x8, addend: 0x0, symName: __RNvXs2W_NtNtCsaNl6UpbT7bw_4core5slice4iterINtB6_4IterTNtNtCs807mVM355fU_3syn3pat3PatNtNtBU_5token2OrEENtNtNtNtBa_4iter6traits12double_ended19DoubleEndedIterator9next_backCs9kQvaEtA2Tf_20pin_project_internal, symObjAddr: 0x1498, symBinAddr: 0x3E6E8, symSize: 0x108 }
  - { offset: 0x3635F, size: 0x8, addend: 0x0, symName: __RNvXs2W_NtNtCsaNl6UpbT7bw_4core5slice4iterINtB6_4IterTNtNtCs807mVM355fU_3syn4attr10NestedMetaNtNtBU_5token5CommaEENtNtNtNtBa_4iter6traits12double_ended19DoubleEndedIterator9next_backCs9kQvaEtA2Tf_20pin_project_internal, symObjAddr: 0x15A0, symBinAddr: 0x3E7F0, symSize: 0x108 }
  - { offset: 0x364BB, size: 0x8, addend: 0x0, symName: __RNvXs2W_NtNtCsaNl6UpbT7bw_4core5slice4iterINtB6_4IterTNtNtCs807mVM355fU_3syn4data7VariantNtNtBU_5token5CommaEENtNtNtNtBa_4iter6traits12double_ended19DoubleEndedIterator9next_backCs9kQvaEtA2Tf_20pin_project_internal, symObjAddr: 0x16A8, symBinAddr: 0x3E8F8, symSize: 0x108 }
  - { offset: 0x36617, size: 0x8, addend: 0x0, symName: __RNvXs2W_NtNtCsaNl6UpbT7bw_4core5slice4iterINtB6_4IterTNtNtCs807mVM355fU_3syn4path15GenericArgumentNtNtBU_5token5CommaEENtNtNtNtBa_4iter6traits12double_ended19DoubleEndedIterator9next_backCs9kQvaEtA2Tf_20pin_project_internal, symObjAddr: 0x17B0, symBinAddr: 0x3EA00, symSize: 0x108 }
  - { offset: 0x36955, size: 0x8, addend: 0x0, symName: __RNvXs34_NtNtCsaNl6UpbT7bw_4core5slice4iterINtB6_7IterMutTNtNtCs807mVM355fU_3syn3pat3PatNtNtBX_5token2OrEENtNtNtNtBa_4iter6traits12double_ended19DoubleEndedIterator9next_backCs9kQvaEtA2Tf_20pin_project_internal, symObjAddr: 0x27D8, symBinAddr: 0x3FA28, symSize: 0x108 }
  - { offset: 0x36AB7, size: 0x8, addend: 0x0, symName: __RNvXs5_NtNtCsaNl6UpbT7bw_4core5slice4iterINtB5_4IterTNtNtCs807mVM355fU_3syn3pat3PatNtNtBT_5token2OrEENtNtB9_5clone5Clone5cloneCs9kQvaEtA2Tf_20pin_project_internal, symObjAddr: 0x28E0, symBinAddr: 0x3FB30, symSize: 0x20 }
  - { offset: 0x36AEC, size: 0x8, addend: 0x0, symName: __RNvXs5_NtNtCsaNl6UpbT7bw_4core5slice4iterINtB5_4IterTNtNtCs807mVM355fU_3syn4attr10NestedMetaNtNtBT_5token5CommaEENtNtB9_5clone5Clone5cloneCs9kQvaEtA2Tf_20pin_project_internal, symObjAddr: 0x2900, symBinAddr: 0x3FB50, symSize: 0x20 }
  - { offset: 0x36B21, size: 0x8, addend: 0x0, symName: __RNvXs5_NtNtCsaNl6UpbT7bw_4core5slice4iterINtB5_4IterTNtNtCs807mVM355fU_3syn4data7VariantNtNtBT_5token5CommaEENtNtB9_5clone5Clone5cloneCs9kQvaEtA2Tf_20pin_project_internal, symObjAddr: 0x2920, symBinAddr: 0x3FB70, symSize: 0x20 }
  - { offset: 0x36B56, size: 0x8, addend: 0x0, symName: __RNvXs5_NtNtCsaNl6UpbT7bw_4core5slice4iterINtB5_4IterTNtNtCs807mVM355fU_3syn4path15GenericArgumentNtNtBT_5token5CommaEENtNtB9_5clone5Clone5cloneCs9kQvaEtA2Tf_20pin_project_internal, symObjAddr: 0x2940, symBinAddr: 0x3FB90, symSize: 0x20 }
  - { offset: 0x3C4B9, size: 0x8, addend: 0x0, symName: __RINvYINtNtNtCsaNl6UpbT7bw_4core5slice4iter4IterNtNtCs807mVM355fU_3syn4attr9AttributeENtNtNtNtBa_4iter6traits8iterator8Iterator10filter_mapNtBL_4MetaNCNvMs1_NtNtCs9kQvaEtA2Tf_20pin_project_internal11pin_project6deriveNtB2u_7Context17ensure_not_packed0EB2y_, symObjAddr: 0x5F8, symBinAddr: 0x3D848, symSize: 0x1C }
  - { offset: 0x3C511, size: 0x8, addend: 0x0, symName: __RINvYINtNtNtCsaNl6UpbT7bw_4core5slice4iter4IterNtNtCs807mVM355fU_3syn4attr9AttributeENtNtNtNtBa_4iter6traits8iterator8Iterator6filterNCNvMs_NtNtCs9kQvaEtA2Tf_20pin_project_internal11pin_project6deriveNtB2e_4Args3get0EB2i_, symObjAddr: 0x614, symBinAddr: 0x3D864, symSize: 0x1C }
  - { offset: 0x3C560, size: 0x8, addend: 0x0, symName: __RINvYINtNtNtCsaNl6UpbT7bw_4core5slice4iter4IterNtNtCs807mVM355fU_3syn4attr9AttributeENtNtNtNtBa_4iter6traits8iterator8Iterator8try_foldTjINtNtBa_6option6OptionjEENCNvXs_NtCs9kQvaEtA2Tf_20pin_project_internal5utilsSBJ_NtB2H_8SliceExt14position_exact0INtNtBa_6result6ResultB29_NtNtBN_5error5ErrorEEB2J_, symObjAddr: 0x630, symBinAddr: 0x3D880, symSize: 0x1CC }
  - { offset: 0x3C61D, size: 0x8, addend: 0x0, symName: __RINvYINtNtNtCsaNl6UpbT7bw_4core5slice4iter4IterNtNtCs807mVM355fU_3syn4item8ImplItemENtNtNtNtBa_4iter6traits8iterator8Iterator8try_folduNCINvNvXs_NtNtB1q_8adapters9enumerateINtB2j_9EnumeratepEB1k_8try_fold9enumerateRBJ_uINtNtBa_6result6ResultuNtNtBN_5error5ErrorENCINvNvB1k_12try_for_each4callTjB3q_EB3v_NCNvNtCs9kQvaEtA2Tf_20pin_project_internal11pinned_drop5parse0E0E0B3v_EB4X_, symObjAddr: 0x7FC, symBinAddr: 0x3DA4C, symSize: 0x140 }
  - { offset: 0x3C6D8, size: 0x8, addend: 0x0, symName: __RINvYINtNtNtCsaNl6UpbT7bw_4core5slice4iter7IterMutNtNtCs807mVM355fU_3syn4item8ImplItemENtNtNtNtBa_4iter6traits8iterator8Iterator10filter_mapQNtBO_14ImplItemMethodNCNvNtCs9kQvaEtA2Tf_20pin_project_internal7project17replace_item_impl0EB2G_, symObjAddr: 0x93C, symBinAddr: 0x3DB8C, symSize: 0x1C }
  - { offset: 0x3C730, size: 0x8, addend: 0x0, symName: __RNvYINtNtNtCsaNl6UpbT7bw_4core5slice4iter4IterNtCshnvkK9b4wzu_11proc_macro25IdentENtNtNtNtB9_4iter6traits8iterator8Iterator3revCs9kQvaEtA2Tf_20pin_project_internal, symObjAddr: 0x2960, symBinAddr: 0x3FBB0, symSize: 0x1C }
  - { offset: 0x3C767, size: 0x8, addend: 0x0, symName: __RNvYINtNtNtCsaNl6UpbT7bw_4core5slice4iter4IterNtNtCs807mVM355fU_3syn2ty4TypeENtNtNtNtB9_4iter6traits8iterator8Iterator9enumerateCs9kQvaEtA2Tf_20pin_project_internal, symObjAddr: 0x297C, symBinAddr: 0x3FBCC, symSize: 0x28 }
  - { offset: 0x3C7B3, size: 0x8, addend: 0x0, symName: __RNvYINtNtNtCsaNl6UpbT7bw_4core5slice4iter4IterNtNtCs807mVM355fU_3syn4item8ImplItemENtNtNtNtB9_4iter6traits8iterator8Iterator9enumerateCs9kQvaEtA2Tf_20pin_project_internal, symObjAddr: 0x29A4, symBinAddr: 0x3FBF4, symSize: 0x28 }
  - { offset: 0x42DDE, size: 0x8, addend: 0x0, symName: __RNvMs4_NtNtCsaNl6UpbT7bw_4core5slice4iterINtB5_4IterNtCshnvkK9b4wzu_11proc_macro211TokenStreamE3newCs9kQvaEtA2Tf_20pin_project_internal, symObjAddr: 0x958, symBinAddr: 0x3DBA8, symSize: 0x50 }
  - { offset: 0x42FA8, size: 0x8, addend: 0x0, symName: __RNvMs4_NtNtCsaNl6UpbT7bw_4core5slice4iterINtB5_4IterNtCshnvkK9b4wzu_11proc_macro25IdentE3newCs9kQvaEtA2Tf_20pin_project_internal, symObjAddr: 0x9A8, symBinAddr: 0x3DBF8, symSize: 0x58 }
  - { offset: 0x43172, size: 0x8, addend: 0x0, symName: __RNvMs4_NtNtCsaNl6UpbT7bw_4core5slice4iterINtB5_4IterNtNtCs807mVM355fU_3syn2ty4TypeE3newCs9kQvaEtA2Tf_20pin_project_internal, symObjAddr: 0xA00, symBinAddr: 0x3DC50, symSize: 0x58 }
  - { offset: 0x43322, size: 0x8, addend: 0x0, symName: __RNvMs4_NtNtCsaNl6UpbT7bw_4core5slice4iterINtB5_4IterNtNtCs807mVM355fU_3syn4item8ImplItemE3newCs9kQvaEtA2Tf_20pin_project_internal, symObjAddr: 0xA58, symBinAddr: 0x3DCA8, symSize: 0x58 }
  - { offset: 0x434EC, size: 0x8, addend: 0x0, symName: __RNvMs4_NtNtCsaNl6UpbT7bw_4core5slice4iterINtB5_4IterNtNtCsiTraAjBDcu4_5alloc6string6StringE3newCs9kQvaEtA2Tf_20pin_project_internal, symObjAddr: 0xAB0, symBinAddr: 0x3DD00, symSize: 0x58 }
  - { offset: 0x436B6, size: 0x8, addend: 0x0, symName: __RNvMsa_NtNtCsaNl6UpbT7bw_4core5slice4iterINtB5_7IterMutNtNtCs807mVM355fU_3syn4expr3ArmE3newCs9kQvaEtA2Tf_20pin_project_internal, symObjAddr: 0xB08, symBinAddr: 0x3DD58, symSize: 0x58 }
  - { offset: 0x4383F, size: 0x8, addend: 0x0, symName: __RNvMsa_NtNtCsaNl6UpbT7bw_4core5slice4iterINtB5_7IterMutNtNtCs807mVM355fU_3syn4item8ImplItemE3newCs9kQvaEtA2Tf_20pin_project_internal, symObjAddr: 0xB60, symBinAddr: 0x3DDB0, symSize: 0x58 }
  - { offset: 0x43A09, size: 0x8, addend: 0x0, symName: __RNvMsa_NtNtCsaNl6UpbT7bw_4core5slice4iterINtB5_7IterMutTNtNtCs807mVM355fU_3syn2ty4TypeNtNtBW_5token5CommaEE3newCs9kQvaEtA2Tf_20pin_project_internal, symObjAddr: 0xBB8, symBinAddr: 0x3DE08, symSize: 0x58 }
  - { offset: 0x43BD3, size: 0x8, addend: 0x0, symName: __RNvMsa_NtNtCsaNl6UpbT7bw_4core5slice4iterINtB5_7IterMutTNtNtCs807mVM355fU_3syn2ty9BareFnArgNtNtBW_5token5CommaEE3newCs9kQvaEtA2Tf_20pin_project_internal, symObjAddr: 0xC10, symBinAddr: 0x3DE60, symSize: 0x58 }
  - { offset: 0x43D9D, size: 0x8, addend: 0x0, symName: __RNvMsa_NtNtCsaNl6UpbT7bw_4core5slice4iterINtB5_7IterMutTNtNtCs807mVM355fU_3syn3pat3PatNtNtBW_5token2OrEE3newCs9kQvaEtA2Tf_20pin_project_internal, symObjAddr: 0xC68, symBinAddr: 0x3DEB8, symSize: 0x58 }
  - { offset: 0x43F67, size: 0x8, addend: 0x0, symName: __RNvMsa_NtNtCsaNl6UpbT7bw_4core5slice4iterINtB5_7IterMutTNtNtCs807mVM355fU_3syn3pat3PatNtNtBW_5token5CommaEE3newCs9kQvaEtA2Tf_20pin_project_internal, symObjAddr: 0xCC0, symBinAddr: 0x3DF10, symSize: 0x58 }
  - { offset: 0x44131, size: 0x8, addend: 0x0, symName: __RNvMsa_NtNtCsaNl6UpbT7bw_4core5slice4iterINtB5_7IterMutTNtNtCs807mVM355fU_3syn3pat8FieldPatNtNtBW_5token5CommaEE3newCs9kQvaEtA2Tf_20pin_project_internal, symObjAddr: 0xD18, symBinAddr: 0x3DF68, symSize: 0x58 }
  - { offset: 0x442FB, size: 0x8, addend: 0x0, symName: __RNvMsa_NtNtCsaNl6UpbT7bw_4core5slice4iterINtB5_7IterMutTNtNtCs807mVM355fU_3syn4data7VariantNtNtBW_5token5CommaEE3newCs9kQvaEtA2Tf_20pin_project_internal, symObjAddr: 0xD70, symBinAddr: 0x3DFC0, symSize: 0x58 }
  - { offset: 0x444C5, size: 0x8, addend: 0x0, symName: __RNvMsa_NtNtCsaNl6UpbT7bw_4core5slice4iterINtB5_7IterMutTNtNtCs807mVM355fU_3syn4expr10FieldValueNtNtBW_5token5CommaEE3newCs9kQvaEtA2Tf_20pin_project_internal, symObjAddr: 0xDC8, symBinAddr: 0x3E018, symSize: 0x58 }
  - { offset: 0x4468F, size: 0x8, addend: 0x0, symName: __RNvMsa_NtNtCsaNl6UpbT7bw_4core5slice4iterINtB5_7IterMutTNtNtCs807mVM355fU_3syn4expr21GenericMethodArgumentNtNtBW_5token5CommaEE3newCs9kQvaEtA2Tf_20pin_project_internal, symObjAddr: 0xE20, symBinAddr: 0x3E070, symSize: 0x58 }
  - { offset: 0x44859, size: 0x8, addend: 0x0, symName: __RNvMsa_NtNtCsaNl6UpbT7bw_4core5slice4iterINtB5_7IterMutTNtNtCs807mVM355fU_3syn4expr4ExprNtNtBW_5token5CommaEE3newCs9kQvaEtA2Tf_20pin_project_internal, symObjAddr: 0xE78, symBinAddr: 0x3E0C8, symSize: 0x50 }
  - { offset: 0x44A23, size: 0x8, addend: 0x0, symName: __RNvMsa_NtNtCsaNl6UpbT7bw_4core5slice4iterINtB5_7IterMutTNtNtCs807mVM355fU_3syn4item7UseTreeNtNtBW_5token5CommaEE3newCs9kQvaEtA2Tf_20pin_project_internal, symObjAddr: 0xEC8, symBinAddr: 0x3E118, symSize: 0x50 }
  - { offset: 0x44BED, size: 0x8, addend: 0x0, symName: __RNvMsa_NtNtCsaNl6UpbT7bw_4core5slice4iterINtB5_7IterMutTNtNtCs807mVM355fU_3syn4path15GenericArgumentNtNtBW_5token5CommaEE3newCs9kQvaEtA2Tf_20pin_project_internal, symObjAddr: 0xF18, symBinAddr: 0x3E168, symSize: 0x58 }
  - { offset: 0x44DB7, size: 0x8, addend: 0x0, symName: __RNvMsa_NtNtCsaNl6UpbT7bw_4core5slice4iterINtB5_7IterMutTNtNtCs807mVM355fU_3syn8generics11LifetimeDefNtNtBW_5token5CommaEE3newCs9kQvaEtA2Tf_20pin_project_internal, symObjAddr: 0xF70, symBinAddr: 0x3E1C0, symSize: 0x58 }
  - { offset: 0x44F81, size: 0x8, addend: 0x0, symName: __RNvMsa_NtNtCsaNl6UpbT7bw_4core5slice4iterINtB5_7IterMutTNtNtCs807mVM355fU_3syn8generics14TypeParamBoundNtNtBW_5token3AddEE3newCs9kQvaEtA2Tf_20pin_project_internal, symObjAddr: 0xFC8, symBinAddr: 0x3E218, symSize: 0x58 }
  - { offset: 0x4514B, size: 0x8, addend: 0x0, symName: __RNvMsa_NtNtCsaNl6UpbT7bw_4core5slice4iterINtB5_7IterMutTNtNtCs807mVM355fU_3syn8generics14WherePredicateNtNtBW_5token5CommaEE3newCs9kQvaEtA2Tf_20pin_project_internal, symObjAddr: 0x1020, symBinAddr: 0x3E270, symSize: 0x58 }
  - { offset: 0x45315, size: 0x8, addend: 0x0, symName: __RNvMsa_NtNtCsaNl6UpbT7bw_4core5slice4iterINtB5_7IterMutTNtNtCs807mVM355fU_3syn8lifetime8LifetimeNtNtBW_5token3AddEE3newCs9kQvaEtA2Tf_20pin_project_internal, symObjAddr: 0x1078, symBinAddr: 0x3E2C8, symSize: 0x58 }
  - { offset: 0x4697F, size: 0x8, addend: 0x0, symName: __RINvXs2_NtCs807mVM355fU_3syn10punctuatedINtB6_10PunctuatedNtNtB8_4path11PathSegmentNtNtB8_5token6Colon2EINtNtNtNtCsaNl6UpbT7bw_4core4iter6traits7collect12FromIteratorINtB6_4PairBU_B1j_EE9from_iterINtNtNtB1L_8adapters4skip4SkipINtB6_9IntoPairsBU_B1j_EEECs9kQvaEtA2Tf_20pin_project_internal, symObjAddr: 0x0, symBinAddr: 0x3FC1C, symSize: 0xD8 }
  - { offset: 0x47409, size: 0x8, addend: 0x0, symName: __RINvXs2_NtCs807mVM355fU_3syn10punctuatedINtB6_10PunctuatedNtNtB8_4path11PathSegmentNtNtB8_5token6Colon2EINtNtNtNtCsaNl6UpbT7bw_4core4iter6traits7collect12FromIteratorINtB6_4PairBU_B1j_EE9from_iterINtNtNtB1L_8adapters4skip4SkipINtB6_9IntoPairsBU_B1j_EEECs9kQvaEtA2Tf_20pin_project_internal, symObjAddr: 0x0, symBinAddr: 0x3FC1C, symSize: 0xD8 }
  - { offset: 0x4746F, size: 0x8, addend: 0x0, symName: __RINvXs3_NtCs807mVM355fU_3syn10punctuatedINtB6_10PunctuatedNtNtB8_4path11PathSegmentNtNtB8_5token6Colon2EINtNtNtNtCsaNl6UpbT7bw_4core4iter6traits7collect6ExtendINtB6_4PairBU_B1j_EE6extendINtNtNtB1L_8adapters4skip4SkipINtB6_9IntoPairsBU_B1j_EEECs9kQvaEtA2Tf_20pin_project_internal, symObjAddr: 0xD8, symBinAddr: 0x3FCF4, symSize: 0x440 }
  - { offset: 0x47577, size: 0x8, addend: 0x0, symName: __RNCNCNvXsC_NtCs807mVM355fU_3syn10punctuatedINtB9_14PrivateIterMutNtNtBb_3pat3PatNtNtBb_5token2OrENtNtNtNtCsaNl6UpbT7bw_4core4iter6traits12double_ended19DoubleEndedIterator9next_back00Cs9kQvaEtA2Tf_20pin_project_internal, symObjAddr: 0x115C, symBinAddr: 0x40D78, symSize: 0x24 }
  - { offset: 0x475CA, size: 0x8, addend: 0x0, symName: __RNCNvXsC_NtCs807mVM355fU_3syn10punctuatedINtB7_14PrivateIterMutNtNtB9_3pat3PatNtNtB9_5token2OrENtNtNtNtCsaNl6UpbT7bw_4core4iter6traits12double_ended19DoubleEndedIterator9next_back0Cs9kQvaEtA2Tf_20pin_project_internal, symObjAddr: 0x1270, symBinAddr: 0x40E8C, symSize: 0x3C }
  - { offset: 0x4760D, size: 0x8, addend: 0x0, symName: __RNvXsC_NtCs807mVM355fU_3syn10punctuatedINtB5_14PrivateIterMutNtNtB7_3pat3PatNtNtB7_5token2OrENtNtNtNtCsaNl6UpbT7bw_4core4iter6traits12double_ended19DoubleEndedIterator9next_backCs9kQvaEtA2Tf_20pin_project_internal, symObjAddr: 0x470C, symBinAddr: 0x44328, symSize: 0x48 }
  - { offset: 0x4765D, size: 0x8, addend: 0x0, symName: __RNCNCNvXst_NtCs807mVM355fU_3syn10punctuatedINtB9_11PrivateIterNtNtBb_3pat3PatNtNtBb_5token2OrENtNtNtNtCsaNl6UpbT7bw_4core4iter6traits12double_ended19DoubleEndedIterator9next_back00Cs9kQvaEtA2Tf_20pin_project_internal, symObjAddr: 0x1180, symBinAddr: 0x40D9C, symSize: 0x24 }
  - { offset: 0x476A8, size: 0x8, addend: 0x0, symName: __RNCNCNvXst_NtCs807mVM355fU_3syn10punctuatedINtB9_11PrivateIterNtNtBb_4attr10NestedMetaNtNtBb_5token5CommaENtNtNtNtCsaNl6UpbT7bw_4core4iter6traits12double_ended19DoubleEndedIterator9next_back00Cs9kQvaEtA2Tf_20pin_project_internal, symObjAddr: 0x11A4, symBinAddr: 0x40DC0, symSize: 0x24 }
  - { offset: 0x476F3, size: 0x8, addend: 0x0, symName: __RNCNCNvXst_NtCs807mVM355fU_3syn10punctuatedINtB9_11PrivateIterNtNtBb_4data7VariantNtNtBb_5token5CommaENtNtNtNtCsaNl6UpbT7bw_4core4iter6traits12double_ended19DoubleEndedIterator9next_back00Cs9kQvaEtA2Tf_20pin_project_internal, symObjAddr: 0x11C8, symBinAddr: 0x40DE4, symSize: 0x24 }
  - { offset: 0x4773E, size: 0x8, addend: 0x0, symName: __RNCNCNvXst_NtCs807mVM355fU_3syn10punctuatedINtB9_11PrivateIterNtNtBb_4path15GenericArgumentNtNtBb_5token5CommaENtNtNtNtCsaNl6UpbT7bw_4core4iter6traits12double_ended19DoubleEndedIterator9next_back00Cs9kQvaEtA2Tf_20pin_project_internal, symObjAddr: 0x11EC, symBinAddr: 0x40E08, symSize: 0x24 }
  - { offset: 0x477A6, size: 0x8, addend: 0x0, symName: __RNCNvXst_NtCs807mVM355fU_3syn10punctuatedINtB7_11PrivateIterNtNtB9_3pat3PatNtNtB9_5token2OrENtNtNtNtCsaNl6UpbT7bw_4core4iter6traits12double_ended19DoubleEndedIterator9next_back0Cs9kQvaEtA2Tf_20pin_project_internal, symObjAddr: 0x1DBC, symBinAddr: 0x419D8, symSize: 0x3C }
  - { offset: 0x477E8, size: 0x8, addend: 0x0, symName: __RNCNvXst_NtCs807mVM355fU_3syn10punctuatedINtB7_11PrivateIterNtNtB9_4attr10NestedMetaNtNtB9_5token5CommaENtNtNtNtCsaNl6UpbT7bw_4core4iter6traits12double_ended19DoubleEndedIterator9next_back0Cs9kQvaEtA2Tf_20pin_project_internal, symObjAddr: 0x1DF8, symBinAddr: 0x41A14, symSize: 0x3C }
  - { offset: 0x4782A, size: 0x8, addend: 0x0, symName: __RNCNvXst_NtCs807mVM355fU_3syn10punctuatedINtB7_11PrivateIterNtNtB9_4data7VariantNtNtB9_5token5CommaENtNtNtNtCsaNl6UpbT7bw_4core4iter6traits12double_ended19DoubleEndedIterator9next_back0Cs9kQvaEtA2Tf_20pin_project_internal, symObjAddr: 0x1E34, symBinAddr: 0x41A50, symSize: 0x3C }
  - { offset: 0x4786C, size: 0x8, addend: 0x0, symName: __RNCNvXst_NtCs807mVM355fU_3syn10punctuatedINtB7_11PrivateIterNtNtB9_4path15GenericArgumentNtNtB9_5token5CommaENtNtNtNtCsaNl6UpbT7bw_4core4iter6traits12double_ended19DoubleEndedIterator9next_back0Cs9kQvaEtA2Tf_20pin_project_internal, symObjAddr: 0x1E70, symBinAddr: 0x41A8C, symSize: 0x3C }
  - { offset: 0x478AF, size: 0x8, addend: 0x0, symName: __RNvXst_NtCs807mVM355fU_3syn10punctuatedINtB5_11PrivateIterNtNtB7_3pat3PatNtNtB7_5token2OrENtNtNtNtCsaNl6UpbT7bw_4core4iter6traits12double_ended19DoubleEndedIterator9next_backCs9kQvaEtA2Tf_20pin_project_internal, symObjAddr: 0x58EC, symBinAddr: 0x45508, symSize: 0x48 }
  - { offset: 0x478EF, size: 0x8, addend: 0x0, symName: __RNvXst_NtCs807mVM355fU_3syn10punctuatedINtB5_11PrivateIterNtNtB7_4attr10NestedMetaNtNtB7_5token5CommaENtNtNtNtCsaNl6UpbT7bw_4core4iter6traits12double_ended19DoubleEndedIterator9next_backCs9kQvaEtA2Tf_20pin_project_internal, symObjAddr: 0x5934, symBinAddr: 0x45550, symSize: 0x48 }
  - { offset: 0x4792F, size: 0x8, addend: 0x0, symName: __RNvXst_NtCs807mVM355fU_3syn10punctuatedINtB5_11PrivateIterNtNtB7_4data7VariantNtNtB7_5token5CommaENtNtNtNtCsaNl6UpbT7bw_4core4iter6traits12double_ended19DoubleEndedIterator9next_backCs9kQvaEtA2Tf_20pin_project_internal, symObjAddr: 0x597C, symBinAddr: 0x45598, symSize: 0x48 }
  - { offset: 0x4796F, size: 0x8, addend: 0x0, symName: __RNvXst_NtCs807mVM355fU_3syn10punctuatedINtB5_11PrivateIterNtNtB7_4path15GenericArgumentNtNtB7_5token5CommaENtNtNtNtCsaNl6UpbT7bw_4core4iter6traits12double_ended19DoubleEndedIterator9next_backCs9kQvaEtA2Tf_20pin_project_internal, symObjAddr: 0x59C4, symBinAddr: 0x455E0, symSize: 0x48 }
  - { offset: 0x479BA, size: 0x8, addend: 0x0, symName: __RNCNvXsB_NtCs807mVM355fU_3syn10punctuatedINtB7_14PrivateIterMutNtNtB9_3pat3PatNtNtB9_5token2OrENtNtNtNtCsaNl6UpbT7bw_4core4iter6traits8iterator8Iterator4next0Cs9kQvaEtA2Tf_20pin_project_internal, symObjAddr: 0x1210, symBinAddr: 0x40E2C, symSize: 0x24 }
  - { offset: 0x47A05, size: 0x8, addend: 0x0, symName: __RNCNvXsB_NtCs807mVM355fU_3syn10punctuatedINtB7_14PrivateIterMutNtNtB9_3pat3PatNtNtB9_5token2OrENtNtNtNtCsaNl6UpbT7bw_4core4iter6traits8iterator8Iterator4nexts_0Cs9kQvaEtA2Tf_20pin_project_internal, symObjAddr: 0x1234, symBinAddr: 0x40E50, symSize: 0x3C }
  - { offset: 0x47A4F, size: 0x8, addend: 0x0, symName: __RNvXsB_NtCs807mVM355fU_3syn10punctuatedINtB5_14PrivateIterMutNtNtB7_3pat3PatNtNtB7_5token2OrENtNtNtNtCsaNl6UpbT7bw_4core4iter6traits8iterator8Iterator4nextCs9kQvaEtA2Tf_20pin_project_internal, symObjAddr: 0x46C4, symBinAddr: 0x442E0, symSize: 0x48 }
  - { offset: 0x47A9A, size: 0x8, addend: 0x0, symName: __RNCNvXsc_NtCs807mVM355fU_3syn10punctuatedINtB7_8PairsMutNtNtB9_2ty4TypeNtNtB9_5token5CommaENtNtNtNtCsaNl6UpbT7bw_4core4iter6traits8iterator8Iterator4next0Cs9kQvaEtA2Tf_20pin_project_internal, symObjAddr: 0x12AC, symBinAddr: 0x40EC8, symSize: 0x40 }
  - { offset: 0x47B0F, size: 0x8, addend: 0x0, symName: __RNCNvXsc_NtCs807mVM355fU_3syn10punctuatedINtB7_8PairsMutNtNtB9_2ty4TypeNtNtB9_5token5CommaENtNtNtNtCsaNl6UpbT7bw_4core4iter6traits8iterator8Iterator4nexts_0Cs9kQvaEtA2Tf_20pin_project_internal, symObjAddr: 0x12EC, symBinAddr: 0x40F08, symSize: 0x48 }
  - { offset: 0x47B51, size: 0x8, addend: 0x0, symName: __RNCNvXsc_NtCs807mVM355fU_3syn10punctuatedINtB7_8PairsMutNtNtB9_2ty9BareFnArgNtNtB9_5token5CommaENtNtNtNtCsaNl6UpbT7bw_4core4iter6traits8iterator8Iterator4next0Cs9kQvaEtA2Tf_20pin_project_internal, symObjAddr: 0x1334, symBinAddr: 0x40F50, symSize: 0x40 }
  - { offset: 0x47BC6, size: 0x8, addend: 0x0, symName: __RNCNvXsc_NtCs807mVM355fU_3syn10punctuatedINtB7_8PairsMutNtNtB9_2ty9BareFnArgNtNtB9_5token5CommaENtNtNtNtCsaNl6UpbT7bw_4core4iter6traits8iterator8Iterator4nexts_0Cs9kQvaEtA2Tf_20pin_project_internal, symObjAddr: 0x1374, symBinAddr: 0x40F90, symSize: 0x48 }
  - { offset: 0x47C08, size: 0x8, addend: 0x0, symName: __RNCNvXsc_NtCs807mVM355fU_3syn10punctuatedINtB7_8PairsMutNtNtB9_3pat3PatNtNtB9_5token2OrENtNtNtNtCsaNl6UpbT7bw_4core4iter6traits8iterator8Iterator4next0Cs9kQvaEtA2Tf_20pin_project_internal, symObjAddr: 0x13BC, symBinAddr: 0x40FD8, symSize: 0x40 }
  - { offset: 0x47C7D, size: 0x8, addend: 0x0, symName: __RNCNvXsc_NtCs807mVM355fU_3syn10punctuatedINtB7_8PairsMutNtNtB9_3pat3PatNtNtB9_5token2OrENtNtNtNtCsaNl6UpbT7bw_4core4iter6traits8iterator8Iterator4nexts_0Cs9kQvaEtA2Tf_20pin_project_internal, symObjAddr: 0x13FC, symBinAddr: 0x41018, symSize: 0x48 }
  - { offset: 0x47CBF, size: 0x8, addend: 0x0, symName: __RNCNvXsc_NtCs807mVM355fU_3syn10punctuatedINtB7_8PairsMutNtNtB9_3pat3PatNtNtB9_5token5CommaENtNtNtNtCsaNl6UpbT7bw_4core4iter6traits8iterator8Iterator4next0Cs9kQvaEtA2Tf_20pin_project_internal, symObjAddr: 0x1444, symBinAddr: 0x41060, symSize: 0x40 }
  - { offset: 0x47D34, size: 0x8, addend: 0x0, symName: __RNCNvXsc_NtCs807mVM355fU_3syn10punctuatedINtB7_8PairsMutNtNtB9_3pat3PatNtNtB9_5token5CommaENtNtNtNtCsaNl6UpbT7bw_4core4iter6traits8iterator8Iterator4nexts_0Cs9kQvaEtA2Tf_20pin_project_internal, symObjAddr: 0x1484, symBinAddr: 0x410A0, symSize: 0x48 }
  - { offset: 0x47D76, size: 0x8, addend: 0x0, symName: __RNCNvXsc_NtCs807mVM355fU_3syn10punctuatedINtB7_8PairsMutNtNtB9_3pat8FieldPatNtNtB9_5token5CommaENtNtNtNtCsaNl6UpbT7bw_4core4iter6traits8iterator8Iterator4next0Cs9kQvaEtA2Tf_20pin_project_internal, symObjAddr: 0x14CC, symBinAddr: 0x410E8, symSize: 0x40 }
  - { offset: 0x47DEB, size: 0x8, addend: 0x0, symName: __RNCNvXsc_NtCs807mVM355fU_3syn10punctuatedINtB7_8PairsMutNtNtB9_3pat8FieldPatNtNtB9_5token5CommaENtNtNtNtCsaNl6UpbT7bw_4core4iter6traits8iterator8Iterator4nexts_0Cs9kQvaEtA2Tf_20pin_project_internal, symObjAddr: 0x150C, symBinAddr: 0x41128, symSize: 0x48 }
  - { offset: 0x47E2D, size: 0x8, addend: 0x0, symName: __RNCNvXsc_NtCs807mVM355fU_3syn10punctuatedINtB7_8PairsMutNtNtB9_4data5FieldNtNtB9_5token5CommaENtNtNtNtCsaNl6UpbT7bw_4core4iter6traits8iterator8Iterator4next0Cs9kQvaEtA2Tf_20pin_project_internal, symObjAddr: 0x1554, symBinAddr: 0x41170, symSize: 0x40 }
  - { offset: 0x47EA2, size: 0x8, addend: 0x0, symName: __RNCNvXsc_NtCs807mVM355fU_3syn10punctuatedINtB7_8PairsMutNtNtB9_4data5FieldNtNtB9_5token5CommaENtNtNtNtCsaNl6UpbT7bw_4core4iter6traits8iterator8Iterator4nexts_0Cs9kQvaEtA2Tf_20pin_project_internal, symObjAddr: 0x1594, symBinAddr: 0x411B0, symSize: 0x48 }
  - { offset: 0x47EE4, size: 0x8, addend: 0x0, symName: __RNCNvXsc_NtCs807mVM355fU_3syn10punctuatedINtB7_8PairsMutNtNtB9_4data7VariantNtNtB9_5token5CommaENtNtNtNtCsaNl6UpbT7bw_4core4iter6traits8iterator8Iterator4next0Cs9kQvaEtA2Tf_20pin_project_internal, symObjAddr: 0x15DC, symBinAddr: 0x411F8, symSize: 0x40 }
  - { offset: 0x47F59, size: 0x8, addend: 0x0, symName: __RNCNvXsc_NtCs807mVM355fU_3syn10punctuatedINtB7_8PairsMutNtNtB9_4data7VariantNtNtB9_5token5CommaENtNtNtNtCsaNl6UpbT7bw_4core4iter6traits8iterator8Iterator4nexts_0Cs9kQvaEtA2Tf_20pin_project_internal, symObjAddr: 0x161C, symBinAddr: 0x41238, symSize: 0x48 }
  - { offset: 0x47F9B, size: 0x8, addend: 0x0, symName: __RNCNvXsc_NtCs807mVM355fU_3syn10punctuatedINtB7_8PairsMutNtNtB9_4expr10FieldValueNtNtB9_5token5CommaENtNtNtNtCsaNl6UpbT7bw_4core4iter6traits8iterator8Iterator4next0Cs9kQvaEtA2Tf_20pin_project_internal, symObjAddr: 0x1664, symBinAddr: 0x41280, symSize: 0x40 }
  - { offset: 0x48010, size: 0x8, addend: 0x0, symName: __RNCNvXsc_NtCs807mVM355fU_3syn10punctuatedINtB7_8PairsMutNtNtB9_4expr10FieldValueNtNtB9_5token5CommaENtNtNtNtCsaNl6UpbT7bw_4core4iter6traits8iterator8Iterator4nexts_0Cs9kQvaEtA2Tf_20pin_project_internal, symObjAddr: 0x16A4, symBinAddr: 0x412C0, symSize: 0x48 }
  - { offset: 0x48052, size: 0x8, addend: 0x0, symName: __RNCNvXsc_NtCs807mVM355fU_3syn10punctuatedINtB7_8PairsMutNtNtB9_4expr21GenericMethodArgumentNtNtB9_5token5CommaENtNtNtNtCsaNl6UpbT7bw_4core4iter6traits8iterator8Iterator4next0Cs9kQvaEtA2Tf_20pin_project_internal, symObjAddr: 0x16EC, symBinAddr: 0x41308, symSize: 0x40 }
  - { offset: 0x480C7, size: 0x8, addend: 0x0, symName: __RNCNvXsc_NtCs807mVM355fU_3syn10punctuatedINtB7_8PairsMutNtNtB9_4expr21GenericMethodArgumentNtNtB9_5token5CommaENtNtNtNtCsaNl6UpbT7bw_4core4iter6traits8iterator8Iterator4nexts_0Cs9kQvaEtA2Tf_20pin_project_internal, symObjAddr: 0x172C, symBinAddr: 0x41348, symSize: 0x48 }
  - { offset: 0x48109, size: 0x8, addend: 0x0, symName: __RNCNvXsc_NtCs807mVM355fU_3syn10punctuatedINtB7_8PairsMutNtNtB9_4expr4ExprNtNtB9_5token5CommaENtNtNtNtCsaNl6UpbT7bw_4core4iter6traits8iterator8Iterator4next0Cs9kQvaEtA2Tf_20pin_project_internal, symObjAddr: 0x1774, symBinAddr: 0x41390, symSize: 0x40 }
  - { offset: 0x4817E, size: 0x8, addend: 0x0, symName: __RNCNvXsc_NtCs807mVM355fU_3syn10punctuatedINtB7_8PairsMutNtNtB9_4expr4ExprNtNtB9_5token5CommaENtNtNtNtCsaNl6UpbT7bw_4core4iter6traits8iterator8Iterator4nexts_0Cs9kQvaEtA2Tf_20pin_project_internal, symObjAddr: 0x17B4, symBinAddr: 0x413D0, symSize: 0x48 }
  - { offset: 0x481C0, size: 0x8, addend: 0x0, symName: __RNCNvXsc_NtCs807mVM355fU_3syn10punctuatedINtB7_8PairsMutNtNtB9_4item5FnArgNtNtB9_5token5CommaENtNtNtNtCsaNl6UpbT7bw_4core4iter6traits8iterator8Iterator4next0Cs9kQvaEtA2Tf_20pin_project_internal, symObjAddr: 0x17FC, symBinAddr: 0x41418, symSize: 0x40 }
  - { offset: 0x48235, size: 0x8, addend: 0x0, symName: __RNCNvXsc_NtCs807mVM355fU_3syn10punctuatedINtB7_8PairsMutNtNtB9_4item5FnArgNtNtB9_5token5CommaENtNtNtNtCsaNl6UpbT7bw_4core4iter6traits8iterator8Iterator4nexts_0Cs9kQvaEtA2Tf_20pin_project_internal, symObjAddr: 0x183C, symBinAddr: 0x41458, symSize: 0x48 }
  - { offset: 0x48277, size: 0x8, addend: 0x0, symName: __RNCNvXsc_NtCs807mVM355fU_3syn10punctuatedINtB7_8PairsMutNtNtB9_4item7UseTreeNtNtB9_5token5CommaENtNtNtNtCsaNl6UpbT7bw_4core4iter6traits8iterator8Iterator4next0Cs9kQvaEtA2Tf_20pin_project_internal, symObjAddr: 0x1884, symBinAddr: 0x414A0, symSize: 0x40 }
  - { offset: 0x482EC, size: 0x8, addend: 0x0, symName: __RNCNvXsc_NtCs807mVM355fU_3syn10punctuatedINtB7_8PairsMutNtNtB9_4item7UseTreeNtNtB9_5token5CommaENtNtNtNtCsaNl6UpbT7bw_4core4iter6traits8iterator8Iterator4nexts_0Cs9kQvaEtA2Tf_20pin_project_internal, symObjAddr: 0x18C4, symBinAddr: 0x414E0, symSize: 0x48 }
  - { offset: 0x4832E, size: 0x8, addend: 0x0, symName: __RNCNvXsc_NtCs807mVM355fU_3syn10punctuatedINtB7_8PairsMutNtNtB9_4path15GenericArgumentNtNtB9_5token5CommaENtNtNtNtCsaNl6UpbT7bw_4core4iter6traits8iterator8Iterator4next0Cs9kQvaEtA2Tf_20pin_project_internal, symObjAddr: 0x190C, symBinAddr: 0x41528, symSize: 0x40 }
  - { offset: 0x483A3, size: 0x8, addend: 0x0, symName: __RNCNvXsc_NtCs807mVM355fU_3syn10punctuatedINtB7_8PairsMutNtNtB9_4path15GenericArgumentNtNtB9_5token5CommaENtNtNtNtCsaNl6UpbT7bw_4core4iter6traits8iterator8Iterator4nexts_0Cs9kQvaEtA2Tf_20pin_project_internal, symObjAddr: 0x194C, symBinAddr: 0x41568, symSize: 0x48 }
  - { offset: 0x483E5, size: 0x8, addend: 0x0, symName: __RNCNvXsc_NtCs807mVM355fU_3syn10punctuatedINtB7_8PairsMutNtNtB9_8generics11LifetimeDefNtNtB9_5token5CommaENtNtNtNtCsaNl6UpbT7bw_4core4iter6traits8iterator8Iterator4next0Cs9kQvaEtA2Tf_20pin_project_internal, symObjAddr: 0x1994, symBinAddr: 0x415B0, symSize: 0x40 }
  - { offset: 0x4845A, size: 0x8, addend: 0x0, symName: __RNCNvXsc_NtCs807mVM355fU_3syn10punctuatedINtB7_8PairsMutNtNtB9_8generics11LifetimeDefNtNtB9_5token5CommaENtNtNtNtCsaNl6UpbT7bw_4core4iter6traits8iterator8Iterator4nexts_0Cs9kQvaEtA2Tf_20pin_project_internal, symObjAddr: 0x19D4, symBinAddr: 0x415F0, symSize: 0x48 }
  - { offset: 0x4849C, size: 0x8, addend: 0x0, symName: __RNCNvXsc_NtCs807mVM355fU_3syn10punctuatedINtB7_8PairsMutNtNtB9_8generics12GenericParamNtNtB9_5token5CommaENtNtNtNtCsaNl6UpbT7bw_4core4iter6traits8iterator8Iterator4next0Cs9kQvaEtA2Tf_20pin_project_internal, symObjAddr: 0x1A1C, symBinAddr: 0x41638, symSize: 0x40 }
  - { offset: 0x48511, size: 0x8, addend: 0x0, symName: __RNCNvXsc_NtCs807mVM355fU_3syn10punctuatedINtB7_8PairsMutNtNtB9_8generics12GenericParamNtNtB9_5token5CommaENtNtNtNtCsaNl6UpbT7bw_4core4iter6traits8iterator8Iterator4nexts_0Cs9kQvaEtA2Tf_20pin_project_internal, symObjAddr: 0x1A5C, symBinAddr: 0x41678, symSize: 0x48 }
  - { offset: 0x48553, size: 0x8, addend: 0x0, symName: __RNCNvXsc_NtCs807mVM355fU_3syn10punctuatedINtB7_8PairsMutNtNtB9_8generics14TypeParamBoundNtNtB9_5token3AddENtNtNtNtCsaNl6UpbT7bw_4core4iter6traits8iterator8Iterator4next0Cs9kQvaEtA2Tf_20pin_project_internal, symObjAddr: 0x1AA4, symBinAddr: 0x416C0, symSize: 0x40 }
  - { offset: 0x485C8, size: 0x8, addend: 0x0, symName: __RNCNvXsc_NtCs807mVM355fU_3syn10punctuatedINtB7_8PairsMutNtNtB9_8generics14TypeParamBoundNtNtB9_5token3AddENtNtNtNtCsaNl6UpbT7bw_4core4iter6traits8iterator8Iterator4nexts_0Cs9kQvaEtA2Tf_20pin_project_internal, symObjAddr: 0x1AE4, symBinAddr: 0x41700, symSize: 0x48 }
  - { offset: 0x4860A, size: 0x8, addend: 0x0, symName: __RNCNvXsc_NtCs807mVM355fU_3syn10punctuatedINtB7_8PairsMutNtNtB9_8generics14WherePredicateNtNtB9_5token5CommaENtNtNtNtCsaNl6UpbT7bw_4core4iter6traits8iterator8Iterator4next0Cs9kQvaEtA2Tf_20pin_project_internal, symObjAddr: 0x1B2C, symBinAddr: 0x41748, symSize: 0x40 }
  - { offset: 0x4867F, size: 0x8, addend: 0x0, symName: __RNCNvXsc_NtCs807mVM355fU_3syn10punctuatedINtB7_8PairsMutNtNtB9_8generics14WherePredicateNtNtB9_5token5CommaENtNtNtNtCsaNl6UpbT7bw_4core4iter6traits8iterator8Iterator4nexts_0Cs9kQvaEtA2Tf_20pin_project_internal, symObjAddr: 0x1B6C, symBinAddr: 0x41788, symSize: 0x48 }
  - { offset: 0x486C1, size: 0x8, addend: 0x0, symName: __RNCNvXsc_NtCs807mVM355fU_3syn10punctuatedINtB7_8PairsMutNtNtB9_8lifetime8LifetimeNtNtB9_5token3AddENtNtNtNtCsaNl6UpbT7bw_4core4iter6traits8iterator8Iterator4next0Cs9kQvaEtA2Tf_20pin_project_internal, symObjAddr: 0x1BB4, symBinAddr: 0x417D0, symSize: 0x40 }
  - { offset: 0x48736, size: 0x8, addend: 0x0, symName: __RNCNvXsc_NtCs807mVM355fU_3syn10punctuatedINtB7_8PairsMutNtNtB9_8lifetime8LifetimeNtNtB9_5token3AddENtNtNtNtCsaNl6UpbT7bw_4core4iter6traits8iterator8Iterator4nexts_0Cs9kQvaEtA2Tf_20pin_project_internal, symObjAddr: 0x1BF4, symBinAddr: 0x41810, symSize: 0x48 }
  - { offset: 0x487F7, size: 0x8, addend: 0x0, symName: __RNvXsc_NtCs807mVM355fU_3syn10punctuatedINtB5_8PairsMutNtNtB7_2ty4TypeNtNtB7_5token5CommaENtNtNtNtCsaNl6UpbT7bw_4core4iter6traits8iterator8Iterator4nextCs9kQvaEtA2Tf_20pin_project_internal, symObjAddr: 0x4FEC, symBinAddr: 0x44C08, symSize: 0x5C }
  - { offset: 0x48837, size: 0x8, addend: 0x0, symName: __RNvXsc_NtCs807mVM355fU_3syn10punctuatedINtB5_8PairsMutNtNtB7_2ty9BareFnArgNtNtB7_5token5CommaENtNtNtNtCsaNl6UpbT7bw_4core4iter6traits8iterator8Iterator4nextCs9kQvaEtA2Tf_20pin_project_internal, symObjAddr: 0x5048, symBinAddr: 0x44C64, symSize: 0x5C }
  - { offset: 0x48877, size: 0x8, addend: 0x0, symName: __RNvXsc_NtCs807mVM355fU_3syn10punctuatedINtB5_8PairsMutNtNtB7_3pat3PatNtNtB7_5token2OrENtNtNtNtCsaNl6UpbT7bw_4core4iter6traits8iterator8Iterator4nextCs9kQvaEtA2Tf_20pin_project_internal, symObjAddr: 0x50A4, symBinAddr: 0x44CC0, symSize: 0x5C }
  - { offset: 0x488B7, size: 0x8, addend: 0x0, symName: __RNvXsc_NtCs807mVM355fU_3syn10punctuatedINtB5_8PairsMutNtNtB7_3pat3PatNtNtB7_5token5CommaENtNtNtNtCsaNl6UpbT7bw_4core4iter6traits8iterator8Iterator4nextCs9kQvaEtA2Tf_20pin_project_internal, symObjAddr: 0x5100, symBinAddr: 0x44D1C, symSize: 0x5C }
  - { offset: 0x488F7, size: 0x8, addend: 0x0, symName: __RNvXsc_NtCs807mVM355fU_3syn10punctuatedINtB5_8PairsMutNtNtB7_3pat8FieldPatNtNtB7_5token5CommaENtNtNtNtCsaNl6UpbT7bw_4core4iter6traits8iterator8Iterator4nextCs9kQvaEtA2Tf_20pin_project_internal, symObjAddr: 0x515C, symBinAddr: 0x44D78, symSize: 0x5C }
  - { offset: 0x48937, size: 0x8, addend: 0x0, symName: __RNvXsc_NtCs807mVM355fU_3syn10punctuatedINtB5_8PairsMutNtNtB7_4data5FieldNtNtB7_5token5CommaENtNtNtNtCsaNl6UpbT7bw_4core4iter6traits8iterator8Iterator4nextCs9kQvaEtA2Tf_20pin_project_internal, symObjAddr: 0x51B8, symBinAddr: 0x44DD4, symSize: 0x5C }
  - { offset: 0x48977, size: 0x8, addend: 0x0, symName: __RNvXsc_NtCs807mVM355fU_3syn10punctuatedINtB5_8PairsMutNtNtB7_4data7VariantNtNtB7_5token5CommaENtNtNtNtCsaNl6UpbT7bw_4core4iter6traits8iterator8Iterator4nextCs9kQvaEtA2Tf_20pin_project_internal, symObjAddr: 0x5214, symBinAddr: 0x44E30, symSize: 0x5C }
  - { offset: 0x489B7, size: 0x8, addend: 0x0, symName: __RNvXsc_NtCs807mVM355fU_3syn10punctuatedINtB5_8PairsMutNtNtB7_4expr10FieldValueNtNtB7_5token5CommaENtNtNtNtCsaNl6UpbT7bw_4core4iter6traits8iterator8Iterator4nextCs9kQvaEtA2Tf_20pin_project_internal, symObjAddr: 0x5270, symBinAddr: 0x44E8C, symSize: 0x5C }
  - { offset: 0x489F7, size: 0x8, addend: 0x0, symName: __RNvXsc_NtCs807mVM355fU_3syn10punctuatedINtB5_8PairsMutNtNtB7_4expr21GenericMethodArgumentNtNtB7_5token5CommaENtNtNtNtCsaNl6UpbT7bw_4core4iter6traits8iterator8Iterator4nextCs9kQvaEtA2Tf_20pin_project_internal, symObjAddr: 0x52CC, symBinAddr: 0x44EE8, symSize: 0x5C }
  - { offset: 0x48A37, size: 0x8, addend: 0x0, symName: __RNvXsc_NtCs807mVM355fU_3syn10punctuatedINtB5_8PairsMutNtNtB7_4expr4ExprNtNtB7_5token5CommaENtNtNtNtCsaNl6UpbT7bw_4core4iter6traits8iterator8Iterator4nextCs9kQvaEtA2Tf_20pin_project_internal, symObjAddr: 0x5328, symBinAddr: 0x44F44, symSize: 0x5C }
  - { offset: 0x48A77, size: 0x8, addend: 0x0, symName: __RNvXsc_NtCs807mVM355fU_3syn10punctuatedINtB5_8PairsMutNtNtB7_4item5FnArgNtNtB7_5token5CommaENtNtNtNtCsaNl6UpbT7bw_4core4iter6traits8iterator8Iterator4nextCs9kQvaEtA2Tf_20pin_project_internal, symObjAddr: 0x5384, symBinAddr: 0x44FA0, symSize: 0x5C }
  - { offset: 0x48AB7, size: 0x8, addend: 0x0, symName: __RNvXsc_NtCs807mVM355fU_3syn10punctuatedINtB5_8PairsMutNtNtB7_4item7UseTreeNtNtB7_5token5CommaENtNtNtNtCsaNl6UpbT7bw_4core4iter6traits8iterator8Iterator4nextCs9kQvaEtA2Tf_20pin_project_internal, symObjAddr: 0x53E0, symBinAddr: 0x44FFC, symSize: 0x5C }
  - { offset: 0x48AF7, size: 0x8, addend: 0x0, symName: __RNvXsc_NtCs807mVM355fU_3syn10punctuatedINtB5_8PairsMutNtNtB7_4path15GenericArgumentNtNtB7_5token5CommaENtNtNtNtCsaNl6UpbT7bw_4core4iter6traits8iterator8Iterator4nextCs9kQvaEtA2Tf_20pin_project_internal, symObjAddr: 0x543C, symBinAddr: 0x45058, symSize: 0x5C }
  - { offset: 0x48B37, size: 0x8, addend: 0x0, symName: __RNvXsc_NtCs807mVM355fU_3syn10punctuatedINtB5_8PairsMutNtNtB7_8generics11LifetimeDefNtNtB7_5token5CommaENtNtNtNtCsaNl6UpbT7bw_4core4iter6traits8iterator8Iterator4nextCs9kQvaEtA2Tf_20pin_project_internal, symObjAddr: 0x5498, symBinAddr: 0x450B4, symSize: 0x5C }
  - { offset: 0x48B77, size: 0x8, addend: 0x0, symName: __RNvXsc_NtCs807mVM355fU_3syn10punctuatedINtB5_8PairsMutNtNtB7_8generics12GenericParamNtNtB7_5token5CommaENtNtNtNtCsaNl6UpbT7bw_4core4iter6traits8iterator8Iterator4nextCs9kQvaEtA2Tf_20pin_project_internal, symObjAddr: 0x54F4, symBinAddr: 0x45110, symSize: 0x5C }
  - { offset: 0x48BB7, size: 0x8, addend: 0x0, symName: __RNvXsc_NtCs807mVM355fU_3syn10punctuatedINtB5_8PairsMutNtNtB7_8generics14TypeParamBoundNtNtB7_5token3AddENtNtNtNtCsaNl6UpbT7bw_4core4iter6traits8iterator8Iterator4nextCs9kQvaEtA2Tf_20pin_project_internal, symObjAddr: 0x5550, symBinAddr: 0x4516C, symSize: 0x5C }
  - { offset: 0x48BF7, size: 0x8, addend: 0x0, symName: __RNvXsc_NtCs807mVM355fU_3syn10punctuatedINtB5_8PairsMutNtNtB7_8generics14WherePredicateNtNtB7_5token5CommaENtNtNtNtCsaNl6UpbT7bw_4core4iter6traits8iterator8Iterator4nextCs9kQvaEtA2Tf_20pin_project_internal, symObjAddr: 0x55AC, symBinAddr: 0x451C8, symSize: 0x5C }
  - { offset: 0x48C37, size: 0x8, addend: 0x0, symName: __RNvXsc_NtCs807mVM355fU_3syn10punctuatedINtB5_8PairsMutNtNtB7_8lifetime8LifetimeNtNtB7_5token3AddENtNtNtNtCsaNl6UpbT7bw_4core4iter6traits8iterator8Iterator4nextCs9kQvaEtA2Tf_20pin_project_internal, symObjAddr: 0x5608, symBinAddr: 0x45224, symSize: 0x5C }
  - { offset: 0x48C82, size: 0x8, addend: 0x0, symName: __RNCNvXss_NtCs807mVM355fU_3syn10punctuatedINtB7_11PrivateIterNtNtB9_3pat3PatNtNtB9_5token2OrENtNtNtNtCsaNl6UpbT7bw_4core4iter6traits8iterator8Iterator4next0Cs9kQvaEtA2Tf_20pin_project_internal, symObjAddr: 0x1C3C, symBinAddr: 0x41858, symSize: 0x24 }
  - { offset: 0x48CCD, size: 0x8, addend: 0x0, symName: __RNCNvXss_NtCs807mVM355fU_3syn10punctuatedINtB7_11PrivateIterNtNtB9_3pat3PatNtNtB9_5token2OrENtNtNtNtCsaNl6UpbT7bw_4core4iter6traits8iterator8Iterator4nexts_0Cs9kQvaEtA2Tf_20pin_project_internal, symObjAddr: 0x1C60, symBinAddr: 0x4187C, symSize: 0x3C }
  - { offset: 0x48D0F, size: 0x8, addend: 0x0, symName: __RNCNvXss_NtCs807mVM355fU_3syn10punctuatedINtB7_11PrivateIterNtNtB9_4attr10NestedMetaNtNtB9_5token5CommaENtNtNtNtCsaNl6UpbT7bw_4core4iter6traits8iterator8Iterator4next0Cs9kQvaEtA2Tf_20pin_project_internal, symObjAddr: 0x1C9C, symBinAddr: 0x418B8, symSize: 0x24 }
  - { offset: 0x48D5A, size: 0x8, addend: 0x0, symName: __RNCNvXss_NtCs807mVM355fU_3syn10punctuatedINtB7_11PrivateIterNtNtB9_4attr10NestedMetaNtNtB9_5token5CommaENtNtNtNtCsaNl6UpbT7bw_4core4iter6traits8iterator8Iterator4nexts_0Cs9kQvaEtA2Tf_20pin_project_internal, symObjAddr: 0x1CC0, symBinAddr: 0x418DC, symSize: 0x3C }
  - { offset: 0x48D9C, size: 0x8, addend: 0x0, symName: __RNCNvXss_NtCs807mVM355fU_3syn10punctuatedINtB7_11PrivateIterNtNtB9_4data7VariantNtNtB9_5token5CommaENtNtNtNtCsaNl6UpbT7bw_4core4iter6traits8iterator8Iterator4next0Cs9kQvaEtA2Tf_20pin_project_internal, symObjAddr: 0x1CFC, symBinAddr: 0x41918, symSize: 0x24 }
  - { offset: 0x48DE7, size: 0x8, addend: 0x0, symName: __RNCNvXss_NtCs807mVM355fU_3syn10punctuatedINtB7_11PrivateIterNtNtB9_4data7VariantNtNtB9_5token5CommaENtNtNtNtCsaNl6UpbT7bw_4core4iter6traits8iterator8Iterator4nexts_0Cs9kQvaEtA2Tf_20pin_project_internal, symObjAddr: 0x1D20, symBinAddr: 0x4193C, symSize: 0x3C }
  - { offset: 0x48E29, size: 0x8, addend: 0x0, symName: __RNCNvXss_NtCs807mVM355fU_3syn10punctuatedINtB7_11PrivateIterNtNtB9_4path15GenericArgumentNtNtB9_5token5CommaENtNtNtNtCsaNl6UpbT7bw_4core4iter6traits8iterator8Iterator4next0Cs9kQvaEtA2Tf_20pin_project_internal, symObjAddr: 0x1D5C, symBinAddr: 0x41978, symSize: 0x24 }
  - { offset: 0x48E74, size: 0x8, addend: 0x0, symName: __RNCNvXss_NtCs807mVM355fU_3syn10punctuatedINtB7_11PrivateIterNtNtB9_4path15GenericArgumentNtNtB9_5token5CommaENtNtNtNtCsaNl6UpbT7bw_4core4iter6traits8iterator8Iterator4nexts_0Cs9kQvaEtA2Tf_20pin_project_internal, symObjAddr: 0x1D80, symBinAddr: 0x4199C, symSize: 0x3C }
  - { offset: 0x48ED3, size: 0x8, addend: 0x0, symName: __RNvXss_NtCs807mVM355fU_3syn10punctuatedINtB5_11PrivateIterNtNtB7_3pat3PatNtNtB7_5token2OrENtNtNtNtCsaNl6UpbT7bw_4core4iter6traits8iterator8Iterator4nextCs9kQvaEtA2Tf_20pin_project_internal, symObjAddr: 0x57CC, symBinAddr: 0x453E8, symSize: 0x48 }
  - { offset: 0x48F13, size: 0x8, addend: 0x0, symName: __RNvXss_NtCs807mVM355fU_3syn10punctuatedINtB5_11PrivateIterNtNtB7_4attr10NestedMetaNtNtB7_5token5CommaENtNtNtNtCsaNl6UpbT7bw_4core4iter6traits8iterator8Iterator4nextCs9kQvaEtA2Tf_20pin_project_internal, symObjAddr: 0x5814, symBinAddr: 0x45430, symSize: 0x48 }
  - { offset: 0x48F53, size: 0x8, addend: 0x0, symName: __RNvXss_NtCs807mVM355fU_3syn10punctuatedINtB5_11PrivateIterNtNtB7_4data7VariantNtNtB7_5token5CommaENtNtNtNtCsaNl6UpbT7bw_4core4iter6traits8iterator8Iterator4nextCs9kQvaEtA2Tf_20pin_project_internal, symObjAddr: 0x585C, symBinAddr: 0x45478, symSize: 0x48 }
  - { offset: 0x48F93, size: 0x8, addend: 0x0, symName: __RNvXss_NtCs807mVM355fU_3syn10punctuatedINtB5_11PrivateIterNtNtB7_4path15GenericArgumentNtNtB7_5token5CommaENtNtNtNtCsaNl6UpbT7bw_4core4iter6traits8iterator8Iterator4nextCs9kQvaEtA2Tf_20pin_project_internal, symObjAddr: 0x58A4, symBinAddr: 0x454C0, symSize: 0x48 }
  - { offset: 0x48FDE, size: 0x8, addend: 0x0, symName: __RNcNtINtNtCs807mVM355fU_3syn10punctuated4PairQNtNtB8_2ty4TypeQNtNtB8_5token5CommaE3End0Cs9kQvaEtA2Tf_20pin_project_internal, symObjAddr: 0x1EAC, symBinAddr: 0x41AC8, symSize: 0x1C }
  - { offset: 0x4901A, size: 0x8, addend: 0x0, symName: __RNcNtINtNtCs807mVM355fU_3syn10punctuated4PairQNtNtB8_2ty9BareFnArgQNtNtB8_5token5CommaE3End0Cs9kQvaEtA2Tf_20pin_project_internal, symObjAddr: 0x1EC8, symBinAddr: 0x41AE4, symSize: 0x1C }
  - { offset: 0x49056, size: 0x8, addend: 0x0, symName: __RNcNtINtNtCs807mVM355fU_3syn10punctuated4PairQNtNtB8_3pat3PatQNtNtB8_5token2OrE3End0Cs9kQvaEtA2Tf_20pin_project_internal, symObjAddr: 0x1EE4, symBinAddr: 0x41B00, symSize: 0x1C }
  - { offset: 0x49092, size: 0x8, addend: 0x0, symName: __RNcNtINtNtCs807mVM355fU_3syn10punctuated4PairQNtNtB8_3pat3PatQNtNtB8_5token5CommaE3End0Cs9kQvaEtA2Tf_20pin_project_internal, symObjAddr: 0x1F00, symBinAddr: 0x41B1C, symSize: 0x1C }
  - { offset: 0x490CE, size: 0x8, addend: 0x0, symName: __RNcNtINtNtCs807mVM355fU_3syn10punctuated4PairQNtNtB8_3pat8FieldPatQNtNtB8_5token5CommaE3End0Cs9kQvaEtA2Tf_20pin_project_internal, symObjAddr: 0x1F1C, symBinAddr: 0x41B38, symSize: 0x1C }
  - { offset: 0x4910A, size: 0x8, addend: 0x0, symName: __RNcNtINtNtCs807mVM355fU_3syn10punctuated4PairQNtNtB8_4data5FieldQNtNtB8_5token5CommaE3End0Cs9kQvaEtA2Tf_20pin_project_internal, symObjAddr: 0x1F38, symBinAddr: 0x41B54, symSize: 0x1C }
  - { offset: 0x49146, size: 0x8, addend: 0x0, symName: __RNcNtINtNtCs807mVM355fU_3syn10punctuated4PairQNtNtB8_4data7VariantQNtNtB8_5token5CommaE3End0Cs9kQvaEtA2Tf_20pin_project_internal, symObjAddr: 0x1F54, symBinAddr: 0x41B70, symSize: 0x1C }
  - { offset: 0x49182, size: 0x8, addend: 0x0, symName: __RNcNtINtNtCs807mVM355fU_3syn10punctuated4PairQNtNtB8_4expr10FieldValueQNtNtB8_5token5CommaE3End0Cs9kQvaEtA2Tf_20pin_project_internal, symObjAddr: 0x1F70, symBinAddr: 0x41B8C, symSize: 0x1C }
  - { offset: 0x491BE, size: 0x8, addend: 0x0, symName: __RNcNtINtNtCs807mVM355fU_3syn10punctuated4PairQNtNtB8_4expr21GenericMethodArgumentQNtNtB8_5token5CommaE3End0Cs9kQvaEtA2Tf_20pin_project_internal, symObjAddr: 0x1F8C, symBinAddr: 0x41BA8, symSize: 0x1C }
  - { offset: 0x491FA, size: 0x8, addend: 0x0, symName: __RNcNtINtNtCs807mVM355fU_3syn10punctuated4PairQNtNtB8_4expr4ExprQNtNtB8_5token5CommaE3End0Cs9kQvaEtA2Tf_20pin_project_internal, symObjAddr: 0x1FA8, symBinAddr: 0x41BC4, symSize: 0x1C }
  - { offset: 0x49236, size: 0x8, addend: 0x0, symName: __RNcNtINtNtCs807mVM355fU_3syn10punctuated4PairQNtNtB8_4item5FnArgQNtNtB8_5token5CommaE3End0Cs9kQvaEtA2Tf_20pin_project_internal, symObjAddr: 0x1FC4, symBinAddr: 0x41BE0, symSize: 0x1C }
  - { offset: 0x49272, size: 0x8, addend: 0x0, symName: __RNcNtINtNtCs807mVM355fU_3syn10punctuated4PairQNtNtB8_4item7UseTreeQNtNtB8_5token5CommaE3End0Cs9kQvaEtA2Tf_20pin_project_internal, symObjAddr: 0x1FE0, symBinAddr: 0x41BFC, symSize: 0x1C }
  - { offset: 0x492AE, size: 0x8, addend: 0x0, symName: __RNcNtINtNtCs807mVM355fU_3syn10punctuated4PairQNtNtB8_4path15GenericArgumentQNtNtB8_5token5CommaE3End0Cs9kQvaEtA2Tf_20pin_project_internal, symObjAddr: 0x1FFC, symBinAddr: 0x41C18, symSize: 0x1C }
  - { offset: 0x492EA, size: 0x8, addend: 0x0, symName: __RNcNtINtNtCs807mVM355fU_3syn10punctuated4PairQNtNtB8_8generics11LifetimeDefQNtNtB8_5token5CommaE3End0Cs9kQvaEtA2Tf_20pin_project_internal, symObjAddr: 0x2018, symBinAddr: 0x41C34, symSize: 0x1C }
  - { offset: 0x49326, size: 0x8, addend: 0x0, symName: __RNcNtINtNtCs807mVM355fU_3syn10punctuated4PairQNtNtB8_8generics12GenericParamQNtNtB8_5token5CommaE3End0Cs9kQvaEtA2Tf_20pin_project_internal, symObjAddr: 0x2034, symBinAddr: 0x41C50, symSize: 0x1C }
  - { offset: 0x49362, size: 0x8, addend: 0x0, symName: __RNcNtINtNtCs807mVM355fU_3syn10punctuated4PairQNtNtB8_8generics14TypeParamBoundQNtNtB8_5token3AddE3End0Cs9kQvaEtA2Tf_20pin_project_internal, symObjAddr: 0x2050, symBinAddr: 0x41C6C, symSize: 0x1C }
  - { offset: 0x4939E, size: 0x8, addend: 0x0, symName: __RNcNtINtNtCs807mVM355fU_3syn10punctuated4PairQNtNtB8_8generics14WherePredicateQNtNtB8_5token5CommaE3End0Cs9kQvaEtA2Tf_20pin_project_internal, symObjAddr: 0x206C, symBinAddr: 0x41C88, symSize: 0x1C }
  - { offset: 0x493DA, size: 0x8, addend: 0x0, symName: __RNcNtINtNtCs807mVM355fU_3syn10punctuated4PairQNtNtB8_8lifetime8LifetimeQNtNtB8_5token3AddE3End0Cs9kQvaEtA2Tf_20pin_project_internal, symObjAddr: 0x2088, symBinAddr: 0x41CA4, symSize: 0x1C }
  - { offset: 0x4A4E4, size: 0x8, addend: 0x0, symName: __RNvXNtNtCs807mVM355fU_3syn10punctuated8printingINtB4_10PunctuatedNtNtB6_4item5FnArgNtNtB6_5token5CommaENtNtCs4EAaWzSXu1l_5quote9to_tokens8ToTokens9to_tokensCs9kQvaEtA2Tf_20pin_project_internal, symObjAddr: 0x43F4, symBinAddr: 0x44010, symSize: 0x50 }
  - { offset: 0x4A535, size: 0x8, addend: 0x0, symName: __RNvXs_NtNtCs807mVM355fU_3syn10punctuated8printingINtB6_4PairRNtNtB8_4item5FnArgRNtNtB8_5token5CommaENtNtCs4EAaWzSXu1l_5quote9to_tokens8ToTokens9to_tokensCs9kQvaEtA2Tf_20pin_project_internal, symObjAddr: 0x4BF0, symBinAddr: 0x4480C, symSize: 0xB4 }
  - { offset: 0x4A5CB, size: 0x8, addend: 0x0, symName: __RNvXs5_NtCs807mVM355fU_3syn10punctuatedRINtB5_10PunctuatedNtNtB7_4data5FieldNtNtB7_5token5CommaENtNtNtNtCsaNl6UpbT7bw_4core4iter6traits7collect12IntoIterator9into_iterCs9kQvaEtA2Tf_20pin_project_internal, symObjAddr: 0x4628, symBinAddr: 0x44244, symSize: 0x34 }
  - { offset: 0x4A60B, size: 0x8, addend: 0x0, symName: __RNvXs5_NtCs807mVM355fU_3syn10punctuatedRINtB5_10PunctuatedNtNtB7_4data7VariantNtNtB7_5token5CommaENtNtNtNtCsaNl6UpbT7bw_4core4iter6traits7collect12IntoIterator9into_iterCs9kQvaEtA2Tf_20pin_project_internal, symObjAddr: 0x465C, symBinAddr: 0x44278, symSize: 0x34 }
  - { offset: 0x4A651, size: 0x8, addend: 0x0, symName: __RNvXs6_NtCs807mVM355fU_3syn10punctuatedQINtB5_10PunctuatedNtNtB7_4path11PathSegmentNtNtB7_5token6Colon2ENtNtNtNtCsaNl6UpbT7bw_4core4iter6traits7collect12IntoIterator9into_iterCs9kQvaEtA2Tf_20pin_project_internal, symObjAddr: 0x4690, symBinAddr: 0x442AC, symSize: 0x34 }
  - { offset: 0x4A697, size: 0x8, addend: 0x0, symName: __RNvXsD_NtCs807mVM355fU_3syn10punctuatedINtB5_14PrivateIterMutNtNtB7_3pat3PatNtNtB7_5token2OrENtNtNtNtCsaNl6UpbT7bw_4core4iter6traits10exact_size17ExactSizeIterator3lenCs9kQvaEtA2Tf_20pin_project_internal, symObjAddr: 0x4754, symBinAddr: 0x44370, symSize: 0x94 }
  - { offset: 0x4A711, size: 0x8, addend: 0x0, symName: __RNvXsH_NtCs807mVM355fU_3syn10punctuatedINtB5_10PunctuatedNtNtB7_4item5FnArgNtNtB7_5token5CommaEINtNtNtCsaNl6UpbT7bw_4core3ops5index5IndexjE5indexCs9kQvaEtA2Tf_20pin_project_internal, symObjAddr: 0x47E8, symBinAddr: 0x44404, symSize: 0x158 }
  - { offset: 0x4A77C, size: 0x8, addend: 0x0, symName: __RNvXsI_NtCs807mVM355fU_3syn10punctuatedINtB5_10PunctuatedNtNtB7_4item5FnArgNtNtB7_5token5CommaEINtNtNtCsaNl6UpbT7bw_4core3ops5index8IndexMutjE9index_mutCs9kQvaEtA2Tf_20pin_project_internal, symObjAddr: 0x4940, symBinAddr: 0x4455C, symSize: 0x158 }
  - { offset: 0x4A7E1, size: 0x8, addend: 0x0, symName: __RNvXsI_NtCs807mVM355fU_3syn10punctuatedINtB5_10PunctuatedNtNtB7_4path11PathSegmentNtNtB7_5token6Colon2EINtNtNtCsaNl6UpbT7bw_4core3ops5index8IndexMutjE9index_mutCs9kQvaEtA2Tf_20pin_project_internal, symObjAddr: 0x4A98, symBinAddr: 0x446B4, symSize: 0x158 }
  - { offset: 0x4A84C, size: 0x8, addend: 0x0, symName: __RNvXsp_NtCs807mVM355fU_3syn10punctuatedINtB5_4IterNtNtB7_3pat3PatENtNtNtNtCsaNl6UpbT7bw_4core4iter6traits8iterator8Iterator4nextCs9kQvaEtA2Tf_20pin_project_internal, symObjAddr: 0x5664, symBinAddr: 0x45280, symSize: 0x48 }
  - { offset: 0x4A883, size: 0x8, addend: 0x0, symName: __RNvXsp_NtCs807mVM355fU_3syn10punctuatedINtB5_4IterNtNtB7_4attr10NestedMetaENtNtNtNtCsaNl6UpbT7bw_4core4iter6traits8iterator8Iterator4nextCs9kQvaEtA2Tf_20pin_project_internal, symObjAddr: 0x56AC, symBinAddr: 0x452C8, symSize: 0x48 }
  - { offset: 0x4A8BA, size: 0x8, addend: 0x0, symName: __RNvXsp_NtCs807mVM355fU_3syn10punctuatedINtB5_4IterNtNtB7_4data5FieldENtNtNtNtCsaNl6UpbT7bw_4core4iter6traits8iterator8Iterator4nextCs9kQvaEtA2Tf_20pin_project_internal, symObjAddr: 0x56F4, symBinAddr: 0x45310, symSize: 0x48 }
  - { offset: 0x4A8F1, size: 0x8, addend: 0x0, symName: __RNvXsp_NtCs807mVM355fU_3syn10punctuatedINtB5_4IterNtNtB7_4data7VariantENtNtNtNtCsaNl6UpbT7bw_4core4iter6traits8iterator8Iterator4nextCs9kQvaEtA2Tf_20pin_project_internal, symObjAddr: 0x573C, symBinAddr: 0x45358, symSize: 0x48 }
  - { offset: 0x4A928, size: 0x8, addend: 0x0, symName: __RNvXsp_NtCs807mVM355fU_3syn10punctuatedINtB5_4IterNtNtB7_4path15GenericArgumentENtNtNtNtCsaNl6UpbT7bw_4core4iter6traits8iterator8Iterator4nextCs9kQvaEtA2Tf_20pin_project_internal, symObjAddr: 0x5784, symBinAddr: 0x453A0, symSize: 0x48 }
  - { offset: 0x4A965, size: 0x8, addend: 0x0, symName: __RNvXsu_NtCs807mVM355fU_3syn10punctuatedINtB5_11PrivateIterNtNtB7_3pat3PatNtNtB7_5token2OrENtNtNtNtCsaNl6UpbT7bw_4core4iter6traits10exact_size17ExactSizeIterator3lenCs9kQvaEtA2Tf_20pin_project_internal, symObjAddr: 0x5A0C, symBinAddr: 0x45628, symSize: 0x94 }
  - { offset: 0x4A9D9, size: 0x8, addend: 0x0, symName: __RNvXsu_NtCs807mVM355fU_3syn10punctuatedINtB5_11PrivateIterNtNtB7_4attr10NestedMetaNtNtB7_5token5CommaENtNtNtNtCsaNl6UpbT7bw_4core4iter6traits10exact_size17ExactSizeIterator3lenCs9kQvaEtA2Tf_20pin_project_internal, symObjAddr: 0x5AA0, symBinAddr: 0x456BC, symSize: 0x94 }
  - { offset: 0x4AA4D, size: 0x8, addend: 0x0, symName: __RNvXsu_NtCs807mVM355fU_3syn10punctuatedINtB5_11PrivateIterNtNtB7_4data7VariantNtNtB7_5token5CommaENtNtNtNtCsaNl6UpbT7bw_4core4iter6traits10exact_size17ExactSizeIterator3lenCs9kQvaEtA2Tf_20pin_project_internal, symObjAddr: 0x5B34, symBinAddr: 0x45750, symSize: 0x94 }
  - { offset: 0x4AAC1, size: 0x8, addend: 0x0, symName: __RNvXsu_NtCs807mVM355fU_3syn10punctuatedINtB5_11PrivateIterNtNtB7_4path15GenericArgumentNtNtB7_5token5CommaENtNtNtNtCsaNl6UpbT7bw_4core4iter6traits10exact_size17ExactSizeIterator3lenCs9kQvaEtA2Tf_20pin_project_internal, symObjAddr: 0x5BC8, symBinAddr: 0x457E4, symSize: 0x94 }
  - { offset: 0x4AB3B, size: 0x8, addend: 0x0, symName: __RNvXsv_NtCs807mVM355fU_3syn10punctuatedINtB5_11PrivateIterNtNtB7_3pat3PatNtNtB7_5token2OrENtNtCsaNl6UpbT7bw_4core5clone5Clone5cloneCs9kQvaEtA2Tf_20pin_project_internal, symObjAddr: 0x5C5C, symBinAddr: 0x45878, symSize: 0x68 }
  - { offset: 0x4AB7B, size: 0x8, addend: 0x0, symName: __RNvXsv_NtCs807mVM355fU_3syn10punctuatedINtB5_11PrivateIterNtNtB7_4attr10NestedMetaNtNtB7_5token5CommaENtNtCsaNl6UpbT7bw_4core5clone5Clone5cloneCs9kQvaEtA2Tf_20pin_project_internal, symObjAddr: 0x5CC4, symBinAddr: 0x458E0, symSize: 0x68 }
  - { offset: 0x4ABBB, size: 0x8, addend: 0x0, symName: __RNvXsv_NtCs807mVM355fU_3syn10punctuatedINtB5_11PrivateIterNtNtB7_4data7VariantNtNtB7_5token5CommaENtNtCsaNl6UpbT7bw_4core5clone5Clone5cloneCs9kQvaEtA2Tf_20pin_project_internal, symObjAddr: 0x5D2C, symBinAddr: 0x45948, symSize: 0x68 }
  - { offset: 0x4ABFB, size: 0x8, addend: 0x0, symName: __RNvXsv_NtCs807mVM355fU_3syn10punctuatedINtB5_11PrivateIterNtNtB7_4path15GenericArgumentNtNtB7_5token5CommaENtNtCsaNl6UpbT7bw_4core5clone5Clone5cloneCs9kQvaEtA2Tf_20pin_project_internal, symObjAddr: 0x5D94, symBinAddr: 0x459B0, symSize: 0x68 }
  - { offset: 0x4AC41, size: 0x8, addend: 0x0, symName: __RNvXsw_NtCs807mVM355fU_3syn10punctuatedINtB5_11PrivateIterNtNtB7_3pat3PatNtNtB7_5token2OrEINtB5_9IterTraitBU_E9clone_boxCs9kQvaEtA2Tf_20pin_project_internal, symObjAddr: 0x5DFC, symBinAddr: 0x45A18, symSize: 0x94 }
  - { offset: 0x4AC9F, size: 0x8, addend: 0x0, symName: __RNvXsw_NtCs807mVM355fU_3syn10punctuatedINtB5_11PrivateIterNtNtB7_4attr10NestedMetaNtNtB7_5token5CommaEINtB5_9IterTraitBU_E9clone_boxCs9kQvaEtA2Tf_20pin_project_internal, symObjAddr: 0x5E90, symBinAddr: 0x45AAC, symSize: 0x94 }
  - { offset: 0x4ACFD, size: 0x8, addend: 0x0, symName: __RNvXsw_NtCs807mVM355fU_3syn10punctuatedINtB5_11PrivateIterNtNtB7_4data7VariantNtNtB7_5token5CommaEINtB5_9IterTraitBU_E9clone_boxCs9kQvaEtA2Tf_20pin_project_internal, symObjAddr: 0x5F24, symBinAddr: 0x45B40, symSize: 0x94 }
  - { offset: 0x4AD5B, size: 0x8, addend: 0x0, symName: __RNvXsw_NtCs807mVM355fU_3syn10punctuatedINtB5_11PrivateIterNtNtB7_4path15GenericArgumentNtNtB7_5token5CommaEINtB5_9IterTraitBU_E9clone_boxCs9kQvaEtA2Tf_20pin_project_internal, symObjAddr: 0x5FB8, symBinAddr: 0x45BD4, symSize: 0x94 }
  - { offset: 0x4ADBF, size: 0x8, addend: 0x0, symName: __RNvXsy_NtCs807mVM355fU_3syn10punctuatedINtB5_7IterMutNtNtB7_3pat3PatENtNtNtNtCsaNl6UpbT7bw_4core4iter6traits8iterator8Iterator4nextCs9kQvaEtA2Tf_20pin_project_internal, symObjAddr: 0x604C, symBinAddr: 0x45C68, symSize: 0x48 }
  - { offset: 0x4ADF6, size: 0x8, addend: 0x0, symName: __RNvXsy_NtCs807mVM355fU_3syn10punctuatedINtB5_7IterMutNtNtB7_4path11PathSegmentENtNtNtNtCsaNl6UpbT7bw_4core4iter6traits8iterator8Iterator4nextCs9kQvaEtA2Tf_20pin_project_internal, symObjAddr: 0x6094, symBinAddr: 0x45CB0, symSize: 0x48 }
  - { offset: 0x558AB, size: 0x8, addend: 0x0, symName: __RINvYINtNtCs807mVM355fU_3syn10punctuated11PrivateIterNtNtB8_3pat3PatNtNtB8_5token2OrENtNtNtNtCsaNl6UpbT7bw_4core4iter6traits8iterator8Iterator8try_foldINtNtNtB1t_3num7nonzero7NonZerojENCNvXs_NvB1l_10advance_byB3_NtB33_13SpecAdvanceBy15spec_advance_by0INtNtB1t_6option6OptionB2p_EECs9kQvaEtA2Tf_20pin_project_internal, symObjAddr: 0x518, symBinAddr: 0x40134, symSize: 0x154 }
  - { offset: 0x5595F, size: 0x8, addend: 0x0, symName: __RINvYINtNtCs807mVM355fU_3syn10punctuated11PrivateIterNtNtB8_4attr10NestedMetaNtNtB8_5token5CommaENtNtNtNtCsaNl6UpbT7bw_4core4iter6traits8iterator8Iterator8try_foldINtNtNtB1F_3num7nonzero7NonZerojENCNvXs_NvB1x_10advance_byB3_NtB3f_13SpecAdvanceBy15spec_advance_by0INtNtB1F_6option6OptionB2B_EECs9kQvaEtA2Tf_20pin_project_internal, symObjAddr: 0x66C, symBinAddr: 0x40288, symSize: 0x154 }
  - { offset: 0x55A13, size: 0x8, addend: 0x0, symName: __RINvYINtNtCs807mVM355fU_3syn10punctuated11PrivateIterNtNtB8_4data7VariantNtNtB8_5token5CommaENtNtNtNtCsaNl6UpbT7bw_4core4iter6traits8iterator8Iterator8try_foldINtNtNtB1B_3num7nonzero7NonZerojENCNvXs_NvB1t_10advance_byB3_NtB3b_13SpecAdvanceBy15spec_advance_by0INtNtB1B_6option6OptionB2x_EECs9kQvaEtA2Tf_20pin_project_internal, symObjAddr: 0x7C0, symBinAddr: 0x403DC, symSize: 0x154 }
  - { offset: 0x55AC7, size: 0x8, addend: 0x0, symName: __RINvYINtNtCs807mVM355fU_3syn10punctuated11PrivateIterNtNtB8_4path15GenericArgumentNtNtB8_5token5CommaENtNtNtNtCsaNl6UpbT7bw_4core4iter6traits8iterator8Iterator8try_foldINtNtNtB1K_3num7nonzero7NonZerojENCNvXs_NvB1C_10advance_byB3_NtB3k_13SpecAdvanceBy15spec_advance_by0INtNtB1K_6option6OptionB2G_EECs9kQvaEtA2Tf_20pin_project_internal, symObjAddr: 0x914, symBinAddr: 0x40530, symSize: 0x154 }
  - { offset: 0x55B7B, size: 0x8, addend: 0x0, symName: __RINvYINtNtCs807mVM355fU_3syn10punctuated14PrivateIterMutNtNtB8_3pat3PatNtNtB8_5token2OrENtNtNtNtCsaNl6UpbT7bw_4core4iter6traits8iterator8Iterator8try_foldINtNtNtB1w_3num7nonzero7NonZerojENCNvXs_NvB1o_10advance_byB3_NtB36_13SpecAdvanceBy15spec_advance_by0INtNtB1w_6option6OptionB2s_EECs9kQvaEtA2Tf_20pin_project_internal, symObjAddr: 0xA68, symBinAddr: 0x40684, symSize: 0x154 }
  - { offset: 0x55C2F, size: 0x8, addend: 0x0, symName: __RINvYINtNtCs807mVM355fU_3syn10punctuated4IterNtNtB8_3pat3PatENtNtNtNtCsaNl6UpbT7bw_4core4iter6traits8iterator8Iterator3anyNCNvNtCs9kQvaEtA2Tf_20pin_project_internal7project14is_replaceable0EB22_, symObjAddr: 0xBBC, symBinAddr: 0x407D8, symSize: 0x44 }
  - { offset: 0x55C7E, size: 0x8, addend: 0x0, symName: __RINvYINtNtCs807mVM355fU_3syn10punctuated4IterNtNtB8_3pat3PatENtNtNtNtCsaNl6UpbT7bw_4core4iter6traits8iterator8Iterator8try_folduNCINvNvBX_3any5checkRBH_NCNvNtCs9kQvaEtA2Tf_20pin_project_internal7project14is_replaceable0E0INtNtNtB15_3ops12control_flow11ControlFlowuEEB2w_, symObjAddr: 0xC00, symBinAddr: 0x4081C, symSize: 0x12C }
  - { offset: 0x55D30, size: 0x8, addend: 0x0, symName: __RINvYINtNtCs807mVM355fU_3syn10punctuated4IterNtNtB8_4data7VariantENtNtNtNtCsaNl6UpbT7bw_4core4iter6traits8iterator8Iterator8try_foldbNCNvNtNtCs9kQvaEtA2Tf_20pin_project_internal11pin_project6derive13validate_enum0INtNtB1a_6result6ResultbNtNtB8_5error5ErrorEEB2f_, symObjAddr: 0xD2C, symBinAddr: 0x40948, symSize: 0x16C }
  - { offset: 0x55DEB, size: 0x8, addend: 0x0, symName: __RINvYINtNtCs807mVM355fU_3syn10punctuated7IterMutNtNtB8_3pat3PatENtNtNtNtCsaNl6UpbT7bw_4core4iter6traits8iterator8Iterator4folduNCINvNvB10_8for_each4callQBK_NCNvMNtCs9kQvaEtA2Tf_20pin_project_internal7projectNtB2z_7Context11replace_pat0E0EB2B_, symObjAddr: 0xE98, symBinAddr: 0x40AB4, symSize: 0xD0 }
  - { offset: 0x55E7A, size: 0x8, addend: 0x0, symName: __RINvYINtNtCs807mVM355fU_3syn10punctuated7IterMutNtNtB8_3pat3PatENtNtNtNtCsaNl6UpbT7bw_4core4iter6traits8iterator8Iterator8for_eachNCNvMNtCs9kQvaEtA2Tf_20pin_project_internal7projectNtB29_7Context11replace_pat0EB2b_, symObjAddr: 0xF68, symBinAddr: 0x40B84, symSize: 0x3C }
  - { offset: 0x55EC5, size: 0x8, addend: 0x0, symName: __RINvYINtNtCs807mVM355fU_3syn10punctuated9IntoPairsNtNtB8_4path11PathSegmentNtNtB8_5token6Colon2ENtNtNtNtCsaNl6UpbT7bw_4core4iter6traits8iterator8Iterator8try_foldINtNtNtB1E_3num7nonzero7NonZerojENCNvXs_NvB1w_10advance_byB3_NtB3e_13SpecAdvanceBy15spec_advance_by0INtNtB1E_6option6OptionB2A_EECs9kQvaEtA2Tf_20pin_project_internal, symObjAddr: 0xFA4, symBinAddr: 0x40BC0, symSize: 0x1B8 }
  - { offset: 0x55F84, size: 0x8, addend: 0x0, symName: __RNvXs_NvNtNtNtNtCsaNl6UpbT7bw_4core4iter6traits8iterator8Iterator10advance_byINtNtCs807mVM355fU_3syn10punctuated11PrivateIterNtNtB1i_3pat3PatNtNtB1i_5token2OrENtB4_13SpecAdvanceBy15spec_advance_byCs9kQvaEtA2Tf_20pin_project_internal, symObjAddr: 0x4CA4, symBinAddr: 0x448C0, symSize: 0x8C }
  - { offset: 0x56032, size: 0x8, addend: 0x0, symName: __RNvXs_NvNtNtNtNtCsaNl6UpbT7bw_4core4iter6traits8iterator8Iterator10advance_byINtNtCs807mVM355fU_3syn10punctuated11PrivateIterNtNtB1i_4attr10NestedMetaNtNtB1i_5token5CommaENtB4_13SpecAdvanceBy15spec_advance_byCs9kQvaEtA2Tf_20pin_project_internal, symObjAddr: 0x4D30, symBinAddr: 0x4494C, symSize: 0x8C }
  - { offset: 0x560E0, size: 0x8, addend: 0x0, symName: __RNvXs_NvNtNtNtNtCsaNl6UpbT7bw_4core4iter6traits8iterator8Iterator10advance_byINtNtCs807mVM355fU_3syn10punctuated11PrivateIterNtNtB1i_4data7VariantNtNtB1i_5token5CommaENtB4_13SpecAdvanceBy15spec_advance_byCs9kQvaEtA2Tf_20pin_project_internal, symObjAddr: 0x4DBC, symBinAddr: 0x449D8, symSize: 0x8C }
  - { offset: 0x5618E, size: 0x8, addend: 0x0, symName: __RNvXs_NvNtNtNtNtCsaNl6UpbT7bw_4core4iter6traits8iterator8Iterator10advance_byINtNtCs807mVM355fU_3syn10punctuated11PrivateIterNtNtB1i_4path15GenericArgumentNtNtB1i_5token5CommaENtB4_13SpecAdvanceBy15spec_advance_byCs9kQvaEtA2Tf_20pin_project_internal, symObjAddr: 0x4E48, symBinAddr: 0x44A64, symSize: 0x8C }
  - { offset: 0x5623C, size: 0x8, addend: 0x0, symName: __RNvXs_NvNtNtNtNtCsaNl6UpbT7bw_4core4iter6traits8iterator8Iterator10advance_byINtNtCs807mVM355fU_3syn10punctuated14PrivateIterMutNtNtB1i_3pat3PatNtNtB1i_5token2OrENtB4_13SpecAdvanceBy15spec_advance_byCs9kQvaEtA2Tf_20pin_project_internal, symObjAddr: 0x4ED4, symBinAddr: 0x44AF0, symSize: 0x8C }
  - { offset: 0x562EA, size: 0x8, addend: 0x0, symName: __RNvXs_NvNtNtNtNtCsaNl6UpbT7bw_4core4iter6traits8iterator8Iterator10advance_byINtNtCs807mVM355fU_3syn10punctuated9IntoPairsNtNtB1i_4path11PathSegmentNtNtB1i_5token6Colon2ENtB4_13SpecAdvanceBy15spec_advance_byCs9kQvaEtA2Tf_20pin_project_internal, symObjAddr: 0x4F60, symBinAddr: 0x44B7C, symSize: 0x8C }
  - { offset: 0x563CA, size: 0x8, addend: 0x0, symName: __RNvYINtNtCs807mVM355fU_3syn10punctuated11PrivateIterNtNtB7_3pat3PatNtNtB7_5token2OrENtNtNtNtCsaNl6UpbT7bw_4core4iter6traits8iterator8Iterator10advance_byCs9kQvaEtA2Tf_20pin_project_internal, symObjAddr: 0x62C8, symBinAddr: 0x45EE4, symSize: 0x28 }
  - { offset: 0x56410, size: 0x8, addend: 0x0, symName: __RNvYINtNtCs807mVM355fU_3syn10punctuated11PrivateIterNtNtB7_3pat3PatNtNtB7_5token2OrENtNtNtNtCsaNl6UpbT7bw_4core4iter6traits8iterator8Iterator3nthCs9kQvaEtA2Tf_20pin_project_internal, symObjAddr: 0x62F0, symBinAddr: 0x45F0C, symSize: 0x7C }
  - { offset: 0x564DC, size: 0x8, addend: 0x0, symName: __RNvYINtNtCs807mVM355fU_3syn10punctuated11PrivateIterNtNtB7_3pat3PatNtNtB7_5token2OrENtNtNtNtCsaNl6UpbT7bw_4core4iter6traits8iterator8Iterator9size_hintCs9kQvaEtA2Tf_20pin_project_internal, symObjAddr: 0x636C, symBinAddr: 0x45F88, symSize: 0x34 }
  - { offset: 0x56511, size: 0x8, addend: 0x0, symName: __RNvYINtNtCs807mVM355fU_3syn10punctuated11PrivateIterNtNtB7_4attr10NestedMetaNtNtB7_5token5CommaENtNtNtNtCsaNl6UpbT7bw_4core4iter6traits8iterator8Iterator10advance_byCs9kQvaEtA2Tf_20pin_project_internal, symObjAddr: 0x658C, symBinAddr: 0x461A8, symSize: 0x28 }
  - { offset: 0x56557, size: 0x8, addend: 0x0, symName: __RNvYINtNtCs807mVM355fU_3syn10punctuated11PrivateIterNtNtB7_4attr10NestedMetaNtNtB7_5token5CommaENtNtNtNtCsaNl6UpbT7bw_4core4iter6traits8iterator8Iterator3nthCs9kQvaEtA2Tf_20pin_project_internal, symObjAddr: 0x65B4, symBinAddr: 0x461D0, symSize: 0x7C }
  - { offset: 0x56623, size: 0x8, addend: 0x0, symName: __RNvYINtNtCs807mVM355fU_3syn10punctuated11PrivateIterNtNtB7_4attr10NestedMetaNtNtB7_5token5CommaENtNtNtNtCsaNl6UpbT7bw_4core4iter6traits8iterator8Iterator9size_hintCs9kQvaEtA2Tf_20pin_project_internal, symObjAddr: 0x6630, symBinAddr: 0x4624C, symSize: 0x34 }
  - { offset: 0x56658, size: 0x8, addend: 0x0, symName: __RNvYINtNtCs807mVM355fU_3syn10punctuated11PrivateIterNtNtB7_4data7VariantNtNtB7_5token5CommaENtNtNtNtCsaNl6UpbT7bw_4core4iter6traits8iterator8Iterator10advance_byCs9kQvaEtA2Tf_20pin_project_internal, symObjAddr: 0x6850, symBinAddr: 0x4646C, symSize: 0x28 }
  - { offset: 0x5669E, size: 0x8, addend: 0x0, symName: __RNvYINtNtCs807mVM355fU_3syn10punctuated11PrivateIterNtNtB7_4data7VariantNtNtB7_5token5CommaENtNtNtNtCsaNl6UpbT7bw_4core4iter6traits8iterator8Iterator3nthCs9kQvaEtA2Tf_20pin_project_internal, symObjAddr: 0x6878, symBinAddr: 0x46494, symSize: 0x7C }
  - { offset: 0x5676A, size: 0x8, addend: 0x0, symName: __RNvYINtNtCs807mVM355fU_3syn10punctuated11PrivateIterNtNtB7_4data7VariantNtNtB7_5token5CommaENtNtNtNtCsaNl6UpbT7bw_4core4iter6traits8iterator8Iterator9size_hintCs9kQvaEtA2Tf_20pin_project_internal, symObjAddr: 0x68F4, symBinAddr: 0x46510, symSize: 0x34 }
  - { offset: 0x5679F, size: 0x8, addend: 0x0, symName: __RNvYINtNtCs807mVM355fU_3syn10punctuated11PrivateIterNtNtB7_4path15GenericArgumentNtNtB7_5token5CommaENtNtNtNtCsaNl6UpbT7bw_4core4iter6traits8iterator8Iterator10advance_byCs9kQvaEtA2Tf_20pin_project_internal, symObjAddr: 0x6B14, symBinAddr: 0x46730, symSize: 0x28 }
  - { offset: 0x567E5, size: 0x8, addend: 0x0, symName: __RNvYINtNtCs807mVM355fU_3syn10punctuated11PrivateIterNtNtB7_4path15GenericArgumentNtNtB7_5token5CommaENtNtNtNtCsaNl6UpbT7bw_4core4iter6traits8iterator8Iterator3nthCs9kQvaEtA2Tf_20pin_project_internal, symObjAddr: 0x6B3C, symBinAddr: 0x46758, symSize: 0x7C }
  - { offset: 0x568B1, size: 0x8, addend: 0x0, symName: __RNvYINtNtCs807mVM355fU_3syn10punctuated11PrivateIterNtNtB7_4path15GenericArgumentNtNtB7_5token5CommaENtNtNtNtCsaNl6UpbT7bw_4core4iter6traits8iterator8Iterator9size_hintCs9kQvaEtA2Tf_20pin_project_internal, symObjAddr: 0x6BB8, symBinAddr: 0x467D4, symSize: 0x34 }
  - { offset: 0x568E6, size: 0x8, addend: 0x0, symName: __RNvYINtNtCs807mVM355fU_3syn10punctuated14PrivateIterMutNtNtB7_3pat3PatNtNtB7_5token2OrENtNtNtNtCsaNl6UpbT7bw_4core4iter6traits8iterator8Iterator10advance_byCs9kQvaEtA2Tf_20pin_project_internal, symObjAddr: 0x6DD8, symBinAddr: 0x469F4, symSize: 0x28 }
  - { offset: 0x5692C, size: 0x8, addend: 0x0, symName: __RNvYINtNtCs807mVM355fU_3syn10punctuated14PrivateIterMutNtNtB7_3pat3PatNtNtB7_5token2OrENtNtNtNtCsaNl6UpbT7bw_4core4iter6traits8iterator8Iterator3nthCs9kQvaEtA2Tf_20pin_project_internal, symObjAddr: 0x6E00, symBinAddr: 0x46A1C, symSize: 0x7C }
  - { offset: 0x569F8, size: 0x8, addend: 0x0, symName: __RNvYINtNtCs807mVM355fU_3syn10punctuated14PrivateIterMutNtNtB7_3pat3PatNtNtB7_5token2OrENtNtNtNtCsaNl6UpbT7bw_4core4iter6traits8iterator8Iterator9size_hintCs9kQvaEtA2Tf_20pin_project_internal, symObjAddr: 0x6E7C, symBinAddr: 0x46A98, symSize: 0x34 }
  - { offset: 0x56A2D, size: 0x8, addend: 0x0, symName: __RNvYINtNtCs807mVM355fU_3syn10punctuated4IterNtNtB7_4data5FieldENtNtNtNtCsaNl6UpbT7bw_4core4iter6traits8iterator8Iterator9enumerateCs9kQvaEtA2Tf_20pin_project_internal, symObjAddr: 0x6EB0, symBinAddr: 0x46ACC, symSize: 0x28 }
  - { offset: 0x56A79, size: 0x8, addend: 0x0, symName: __RNvYINtNtCs807mVM355fU_3syn10punctuated9IntoPairsNtNtB7_4path11PathSegmentNtNtB7_5token6Colon2ENtNtNtNtCsaNl6UpbT7bw_4core4iter6traits8iterator8Iterator10advance_byCs9kQvaEtA2Tf_20pin_project_internal, symObjAddr: 0x6ED8, symBinAddr: 0x46AF4, symSize: 0x28 }
  - { offset: 0x56ABF, size: 0x8, addend: 0x0, symName: __RNvYINtNtCs807mVM355fU_3syn10punctuated9IntoPairsNtNtB7_4path11PathSegmentNtNtB7_5token6Colon2ENtNtNtNtCsaNl6UpbT7bw_4core4iter6traits8iterator8Iterator3nthCs9kQvaEtA2Tf_20pin_project_internal, symObjAddr: 0x6F00, symBinAddr: 0x46B1C, symSize: 0x84 }
  - { offset: 0x56B8B, size: 0x8, addend: 0x0, symName: __RNvYINtNtCs807mVM355fU_3syn10punctuated9IntoPairsNtNtB7_4path11PathSegmentNtNtB7_5token6Colon2ENtNtNtNtCsaNl6UpbT7bw_4core4iter6traits8iterator8Iterator4skipCs9kQvaEtA2Tf_20pin_project_internal, symObjAddr: 0x6F84, symBinAddr: 0x46BA0, symSize: 0x50 }
  - { offset: 0x56C31, size: 0x8, addend: 0x0, symName: __RNvXNtNtNtCsaNl6UpbT7bw_4core4iter6traits7collectINtNtCs807mVM355fU_3syn10punctuated4IterNtNtBQ_4attr10NestedMetaENtB2_12IntoIterator9into_iterCs9kQvaEtA2Tf_20pin_project_internal, symObjAddr: 0x4444, symBinAddr: 0x44060, symSize: 0x1C }
  - { offset: 0x56C68, size: 0x8, addend: 0x0, symName: __RNvXNtNtNtCsaNl6UpbT7bw_4core4iter6traits7collectINtNtCs807mVM355fU_3syn10punctuated8PairsMutNtNtBQ_2ty4TypeNtNtBQ_5token5CommaENtB2_12IntoIterator9into_iterCs9kQvaEtA2Tf_20pin_project_internal, symObjAddr: 0x4460, symBinAddr: 0x4407C, symSize: 0x18 }
  - { offset: 0x56C9F, size: 0x8, addend: 0x0, symName: __RNvXNtNtNtCsaNl6UpbT7bw_4core4iter6traits7collectINtNtCs807mVM355fU_3syn10punctuated8PairsMutNtNtBQ_2ty9BareFnArgNtNtBQ_5token5CommaENtB2_12IntoIterator9into_iterCs9kQvaEtA2Tf_20pin_project_internal, symObjAddr: 0x4478, symBinAddr: 0x44094, symSize: 0x18 }
  - { offset: 0x56CD6, size: 0x8, addend: 0x0, symName: __RNvXNtNtNtCsaNl6UpbT7bw_4core4iter6traits7collectINtNtCs807mVM355fU_3syn10punctuated8PairsMutNtNtBQ_3pat3PatNtNtBQ_5token2OrENtB2_12IntoIterator9into_iterCs9kQvaEtA2Tf_20pin_project_internal, symObjAddr: 0x4490, symBinAddr: 0x440AC, symSize: 0x18 }
  - { offset: 0x56D0D, size: 0x8, addend: 0x0, symName: __RNvXNtNtNtCsaNl6UpbT7bw_4core4iter6traits7collectINtNtCs807mVM355fU_3syn10punctuated8PairsMutNtNtBQ_3pat3PatNtNtBQ_5token5CommaENtB2_12IntoIterator9into_iterCs9kQvaEtA2Tf_20pin_project_internal, symObjAddr: 0x44A8, symBinAddr: 0x440C4, symSize: 0x18 }
  - { offset: 0x56D44, size: 0x8, addend: 0x0, symName: __RNvXNtNtNtCsaNl6UpbT7bw_4core4iter6traits7collectINtNtCs807mVM355fU_3syn10punctuated8PairsMutNtNtBQ_3pat8FieldPatNtNtBQ_5token5CommaENtB2_12IntoIterator9into_iterCs9kQvaEtA2Tf_20pin_project_internal, symObjAddr: 0x44C0, symBinAddr: 0x440DC, symSize: 0x18 }
  - { offset: 0x56D7B, size: 0x8, addend: 0x0, symName: __RNvXNtNtNtCsaNl6UpbT7bw_4core4iter6traits7collectINtNtCs807mVM355fU_3syn10punctuated8PairsMutNtNtBQ_4data5FieldNtNtBQ_5token5CommaENtB2_12IntoIterator9into_iterCs9kQvaEtA2Tf_20pin_project_internal, symObjAddr: 0x44D8, symBinAddr: 0x440F4, symSize: 0x18 }
  - { offset: 0x56DB2, size: 0x8, addend: 0x0, symName: __RNvXNtNtNtCsaNl6UpbT7bw_4core4iter6traits7collectINtNtCs807mVM355fU_3syn10punctuated8PairsMutNtNtBQ_4data7VariantNtNtBQ_5token5CommaENtB2_12IntoIterator9into_iterCs9kQvaEtA2Tf_20pin_project_internal, symObjAddr: 0x44F0, symBinAddr: 0x4410C, symSize: 0x18 }
  - { offset: 0x56DE9, size: 0x8, addend: 0x0, symName: __RNvXNtNtNtCsaNl6UpbT7bw_4core4iter6traits7collectINtNtCs807mVM355fU_3syn10punctuated8PairsMutNtNtBQ_4expr10FieldValueNtNtBQ_5token5CommaENtB2_12IntoIterator9into_iterCs9kQvaEtA2Tf_20pin_project_internal, symObjAddr: 0x4508, symBinAddr: 0x44124, symSize: 0x18 }
  - { offset: 0x56E20, size: 0x8, addend: 0x0, symName: __RNvXNtNtNtCsaNl6UpbT7bw_4core4iter6traits7collectINtNtCs807mVM355fU_3syn10punctuated8PairsMutNtNtBQ_4expr21GenericMethodArgumentNtNtBQ_5token5CommaENtB2_12IntoIterator9into_iterCs9kQvaEtA2Tf_20pin_project_internal, symObjAddr: 0x4520, symBinAddr: 0x4413C, symSize: 0x18 }
  - { offset: 0x56E57, size: 0x8, addend: 0x0, symName: __RNvXNtNtNtCsaNl6UpbT7bw_4core4iter6traits7collectINtNtCs807mVM355fU_3syn10punctuated8PairsMutNtNtBQ_4expr4ExprNtNtBQ_5token5CommaENtB2_12IntoIterator9into_iterCs9kQvaEtA2Tf_20pin_project_internal, symObjAddr: 0x4538, symBinAddr: 0x44154, symSize: 0x18 }
  - { offset: 0x56E8E, size: 0x8, addend: 0x0, symName: __RNvXNtNtNtCsaNl6UpbT7bw_4core4iter6traits7collectINtNtCs807mVM355fU_3syn10punctuated8PairsMutNtNtBQ_4item5FnArgNtNtBQ_5token5CommaENtB2_12IntoIterator9into_iterCs9kQvaEtA2Tf_20pin_project_internal, symObjAddr: 0x4550, symBinAddr: 0x4416C, symSize: 0x18 }
  - { offset: 0x56EC5, size: 0x8, addend: 0x0, symName: __RNvXNtNtNtCsaNl6UpbT7bw_4core4iter6traits7collectINtNtCs807mVM355fU_3syn10punctuated8PairsMutNtNtBQ_4item7UseTreeNtNtBQ_5token5CommaENtB2_12IntoIterator9into_iterCs9kQvaEtA2Tf_20pin_project_internal, symObjAddr: 0x4568, symBinAddr: 0x44184, symSize: 0x18 }
  - { offset: 0x56EFC, size: 0x8, addend: 0x0, symName: __RNvXNtNtNtCsaNl6UpbT7bw_4core4iter6traits7collectINtNtCs807mVM355fU_3syn10punctuated8PairsMutNtNtBQ_4path11PathSegmentNtNtBQ_5token6Colon2ENtB2_12IntoIterator9into_iterCs9kQvaEtA2Tf_20pin_project_internal, symObjAddr: 0x4580, symBinAddr: 0x4419C, symSize: 0x18 }
  - { offset: 0x56F33, size: 0x8, addend: 0x0, symName: __RNvXNtNtNtCsaNl6UpbT7bw_4core4iter6traits7collectINtNtCs807mVM355fU_3syn10punctuated8PairsMutNtNtBQ_4path15GenericArgumentNtNtBQ_5token5CommaENtB2_12IntoIterator9into_iterCs9kQvaEtA2Tf_20pin_project_internal, symObjAddr: 0x4598, symBinAddr: 0x441B4, symSize: 0x18 }
  - { offset: 0x56F6A, size: 0x8, addend: 0x0, symName: __RNvXNtNtNtCsaNl6UpbT7bw_4core4iter6traits7collectINtNtCs807mVM355fU_3syn10punctuated8PairsMutNtNtBQ_8generics11LifetimeDefNtNtBQ_5token5CommaENtB2_12IntoIterator9into_iterCs9kQvaEtA2Tf_20pin_project_internal, symObjAddr: 0x45B0, symBinAddr: 0x441CC, symSize: 0x18 }
  - { offset: 0x56FA1, size: 0x8, addend: 0x0, symName: __RNvXNtNtNtCsaNl6UpbT7bw_4core4iter6traits7collectINtNtCs807mVM355fU_3syn10punctuated8PairsMutNtNtBQ_8generics12GenericParamNtNtBQ_5token5CommaENtB2_12IntoIterator9into_iterCs9kQvaEtA2Tf_20pin_project_internal, symObjAddr: 0x45C8, symBinAddr: 0x441E4, symSize: 0x18 }
  - { offset: 0x56FD8, size: 0x8, addend: 0x0, symName: __RNvXNtNtNtCsaNl6UpbT7bw_4core4iter6traits7collectINtNtCs807mVM355fU_3syn10punctuated8PairsMutNtNtBQ_8generics14TypeParamBoundNtNtBQ_5token3AddENtB2_12IntoIterator9into_iterCs9kQvaEtA2Tf_20pin_project_internal, symObjAddr: 0x45E0, symBinAddr: 0x441FC, symSize: 0x18 }
  - { offset: 0x5700F, size: 0x8, addend: 0x0, symName: __RNvXNtNtNtCsaNl6UpbT7bw_4core4iter6traits7collectINtNtCs807mVM355fU_3syn10punctuated8PairsMutNtNtBQ_8generics14WherePredicateNtNtBQ_5token5CommaENtB2_12IntoIterator9into_iterCs9kQvaEtA2Tf_20pin_project_internal, symObjAddr: 0x45F8, symBinAddr: 0x44214, symSize: 0x18 }
  - { offset: 0x57046, size: 0x8, addend: 0x0, symName: __RNvXNtNtNtCsaNl6UpbT7bw_4core4iter6traits7collectINtNtCs807mVM355fU_3syn10punctuated8PairsMutNtNtBQ_8lifetime8LifetimeNtNtBQ_5token3AddENtB2_12IntoIterator9into_iterCs9kQvaEtA2Tf_20pin_project_internal, symObjAddr: 0x4610, symBinAddr: 0x4422C, symSize: 0x18 }
  - { offset: 0x57089, size: 0x8, addend: 0x0, symName: __RNvYINtNtCs807mVM355fU_3syn10punctuated11PrivateIterNtNtB7_3pat3PatNtNtB7_5token2OrENtNtNtNtCsaNl6UpbT7bw_4core4iter6traits10exact_size17ExactSizeIterator8is_emptyCs9kQvaEtA2Tf_20pin_project_internal, symObjAddr: 0x60DC, symBinAddr: 0x45CF8, symSize: 0x2C }
  - { offset: 0x570BE, size: 0x8, addend: 0x0, symName: __RNvYINtNtCs807mVM355fU_3syn10punctuated11PrivateIterNtNtB7_4attr10NestedMetaNtNtB7_5token5CommaENtNtNtNtCsaNl6UpbT7bw_4core4iter6traits10exact_size17ExactSizeIterator8is_emptyCs9kQvaEtA2Tf_20pin_project_internal, symObjAddr: 0x63A0, symBinAddr: 0x45FBC, symSize: 0x2C }
  - { offset: 0x570F3, size: 0x8, addend: 0x0, symName: __RNvYINtNtCs807mVM355fU_3syn10punctuated11PrivateIterNtNtB7_4data7VariantNtNtB7_5token5CommaENtNtNtNtCsaNl6UpbT7bw_4core4iter6traits10exact_size17ExactSizeIterator8is_emptyCs9kQvaEtA2Tf_20pin_project_internal, symObjAddr: 0x6664, symBinAddr: 0x46280, symSize: 0x2C }
  - { offset: 0x57128, size: 0x8, addend: 0x0, symName: __RNvYINtNtCs807mVM355fU_3syn10punctuated11PrivateIterNtNtB7_4path15GenericArgumentNtNtB7_5token5CommaENtNtNtNtCsaNl6UpbT7bw_4core4iter6traits10exact_size17ExactSizeIterator8is_emptyCs9kQvaEtA2Tf_20pin_project_internal, symObjAddr: 0x6928, symBinAddr: 0x46544, symSize: 0x2C }
  - { offset: 0x5715D, size: 0x8, addend: 0x0, symName: __RNvYINtNtCs807mVM355fU_3syn10punctuated14PrivateIterMutNtNtB7_3pat3PatNtNtB7_5token2OrENtNtNtNtCsaNl6UpbT7bw_4core4iter6traits10exact_size17ExactSizeIterator8is_emptyCs9kQvaEtA2Tf_20pin_project_internal, symObjAddr: 0x6BEC, symBinAddr: 0x46808, symSize: 0x2C }
  - { offset: 0x5719E, size: 0x8, addend: 0x0, symName: __RNvYINtNtCs807mVM355fU_3syn10punctuated11PrivateIterNtNtB7_3pat3PatNtNtB7_5token2OrENtNtNtNtCsaNl6UpbT7bw_4core4iter6traits12double_ended19DoubleEndedIterator15advance_back_byCs9kQvaEtA2Tf_20pin_project_internal, symObjAddr: 0x6108, symBinAddr: 0x45D24, symSize: 0x158 }
  - { offset: 0x57318, size: 0x8, addend: 0x0, symName: __RNvYINtNtCs807mVM355fU_3syn10punctuated11PrivateIterNtNtB7_3pat3PatNtNtB7_5token2OrENtNtNtNtCsaNl6UpbT7bw_4core4iter6traits12double_ended19DoubleEndedIterator8nth_backCs9kQvaEtA2Tf_20pin_project_internal, symObjAddr: 0x6260, symBinAddr: 0x45E7C, symSize: 0x68 }
  - { offset: 0x57396, size: 0x8, addend: 0x0, symName: __RNvYINtNtCs807mVM355fU_3syn10punctuated11PrivateIterNtNtB7_4attr10NestedMetaNtNtB7_5token5CommaENtNtNtNtCsaNl6UpbT7bw_4core4iter6traits12double_ended19DoubleEndedIterator15advance_back_byCs9kQvaEtA2Tf_20pin_project_internal, symObjAddr: 0x63CC, symBinAddr: 0x45FE8, symSize: 0x158 }
  - { offset: 0x57510, size: 0x8, addend: 0x0, symName: __RNvYINtNtCs807mVM355fU_3syn10punctuated11PrivateIterNtNtB7_4attr10NestedMetaNtNtB7_5token5CommaENtNtNtNtCsaNl6UpbT7bw_4core4iter6traits12double_ended19DoubleEndedIterator8nth_backCs9kQvaEtA2Tf_20pin_project_internal, symObjAddr: 0x6524, symBinAddr: 0x46140, symSize: 0x68 }
  - { offset: 0x5758E, size: 0x8, addend: 0x0, symName: __RNvYINtNtCs807mVM355fU_3syn10punctuated11PrivateIterNtNtB7_4data7VariantNtNtB7_5token5CommaENtNtNtNtCsaNl6UpbT7bw_4core4iter6traits12double_ended19DoubleEndedIterator15advance_back_byCs9kQvaEtA2Tf_20pin_project_internal, symObjAddr: 0x6690, symBinAddr: 0x462AC, symSize: 0x158 }
  - { offset: 0x57708, size: 0x8, addend: 0x0, symName: __RNvYINtNtCs807mVM355fU_3syn10punctuated11PrivateIterNtNtB7_4data7VariantNtNtB7_5token5CommaENtNtNtNtCsaNl6UpbT7bw_4core4iter6traits12double_ended19DoubleEndedIterator8nth_backCs9kQvaEtA2Tf_20pin_project_internal, symObjAddr: 0x67E8, symBinAddr: 0x46404, symSize: 0x68 }
  - { offset: 0x57786, size: 0x8, addend: 0x0, symName: __RNvYINtNtCs807mVM355fU_3syn10punctuated11PrivateIterNtNtB7_4path15GenericArgumentNtNtB7_5token5CommaENtNtNtNtCsaNl6UpbT7bw_4core4iter6traits12double_ended19DoubleEndedIterator15advance_back_byCs9kQvaEtA2Tf_20pin_project_internal, symObjAddr: 0x6954, symBinAddr: 0x46570, symSize: 0x158 }
  - { offset: 0x57900, size: 0x8, addend: 0x0, symName: __RNvYINtNtCs807mVM355fU_3syn10punctuated11PrivateIterNtNtB7_4path15GenericArgumentNtNtB7_5token5CommaENtNtNtNtCsaNl6UpbT7bw_4core4iter6traits12double_ended19DoubleEndedIterator8nth_backCs9kQvaEtA2Tf_20pin_project_internal, symObjAddr: 0x6AAC, symBinAddr: 0x466C8, symSize: 0x68 }
  - { offset: 0x5797E, size: 0x8, addend: 0x0, symName: __RNvYINtNtCs807mVM355fU_3syn10punctuated14PrivateIterMutNtNtB7_3pat3PatNtNtB7_5token2OrENtNtNtNtCsaNl6UpbT7bw_4core4iter6traits12double_ended19DoubleEndedIterator15advance_back_byCs9kQvaEtA2Tf_20pin_project_internal, symObjAddr: 0x6C18, symBinAddr: 0x46834, symSize: 0x158 }
  - { offset: 0x57AF8, size: 0x8, addend: 0x0, symName: __RNvYINtNtCs807mVM355fU_3syn10punctuated14PrivateIterMutNtNtB7_3pat3PatNtNtB7_5token2OrENtNtNtNtCsaNl6UpbT7bw_4core4iter6traits12double_ended19DoubleEndedIterator8nth_backCs9kQvaEtA2Tf_20pin_project_internal, symObjAddr: 0x6D70, symBinAddr: 0x4698C, symSize: 0x68 }
  - { offset: 0x58C4B, size: 0x8, addend: 0x0, symName: __RNvMNtCs807mVM355fU_3syn10punctuatedINtB2_10PunctuatedNtNtB4_2ty4TypeNtNtB4_5token5CommaE8is_emptyCs9kQvaEtA2Tf_20pin_project_internal, symObjAddr: 0x20A4, symBinAddr: 0x41CC0, symSize: 0x74 }
  - { offset: 0x58CC0, size: 0x8, addend: 0x0, symName: __RNvMNtCs807mVM355fU_3syn10punctuatedINtB2_10PunctuatedNtNtB4_2ty4TypeNtNtB4_5token5CommaE9pairs_mutCs9kQvaEtA2Tf_20pin_project_internal, symObjAddr: 0x2118, symBinAddr: 0x41D34, symSize: 0x74 }
  - { offset: 0x58D35, size: 0x8, addend: 0x0, symName: __RNvMNtCs807mVM355fU_3syn10punctuatedINtB2_10PunctuatedNtNtB4_2ty9BareFnArgNtNtB4_5token5CommaE9pairs_mutCs9kQvaEtA2Tf_20pin_project_internal, symObjAddr: 0x218C, symBinAddr: 0x41DA8, symSize: 0x74 }
  - { offset: 0x58DCB, size: 0x8, addend: 0x0, symName: __RNvMNtCs807mVM355fU_3syn10punctuatedINtB2_10PunctuatedNtNtB4_3pat3PatNtNtB4_5token2OrE4iterCs9kQvaEtA2Tf_20pin_project_internal, symObjAddr: 0x2200, symBinAddr: 0x41E1C, symSize: 0xC8 }
  - { offset: 0x58E7E, size: 0x8, addend: 0x0, symName: __RNvMNtCs807mVM355fU_3syn10punctuatedINtB2_10PunctuatedNtNtB4_3pat3PatNtNtB4_5token2OrE8iter_mutCs9kQvaEtA2Tf_20pin_project_internal, symObjAddr: 0x22C8, symBinAddr: 0x41EE4, symSize: 0xC8 }
  - { offset: 0x58ECF, size: 0x8, addend: 0x0, symName: __RNvMNtCs807mVM355fU_3syn10punctuatedINtB2_10PunctuatedNtNtB4_3pat3PatNtNtB4_5token2OrE9pairs_mutCs9kQvaEtA2Tf_20pin_project_internal, symObjAddr: 0x2390, symBinAddr: 0x41FAC, symSize: 0x74 }
  - { offset: 0x58F37, size: 0x8, addend: 0x0, symName: __RNvMNtCs807mVM355fU_3syn10punctuatedINtB2_10PunctuatedNtNtB4_3pat3PatNtNtB4_5token5CommaE9pairs_mutCs9kQvaEtA2Tf_20pin_project_internal, symObjAddr: 0x2404, symBinAddr: 0x42020, symSize: 0x74 }
  - { offset: 0x58FAC, size: 0x8, addend: 0x0, symName: __RNvMNtCs807mVM355fU_3syn10punctuatedINtB2_10PunctuatedNtNtB4_3pat8FieldPatNtNtB4_5token5CommaE9pairs_mutCs9kQvaEtA2Tf_20pin_project_internal, symObjAddr: 0x2478, symBinAddr: 0x42094, symSize: 0x74 }
  - { offset: 0x59028, size: 0x8, addend: 0x0, symName: __RNvMNtCs807mVM355fU_3syn10punctuatedINtB2_10PunctuatedNtNtB4_4attr10NestedMetaNtNtB4_5token5CommaE4iterCs9kQvaEtA2Tf_20pin_project_internal, symObjAddr: 0x24EC, symBinAddr: 0x42108, symSize: 0xC8 }
  - { offset: 0x590BA, size: 0x8, addend: 0x0, symName: __RNvMNtCs807mVM355fU_3syn10punctuatedINtB2_10PunctuatedNtNtB4_4data5FieldNtNtB4_5token5CommaE9pairs_mutCs9kQvaEtA2Tf_20pin_project_internal, symObjAddr: 0x25B4, symBinAddr: 0x421D0, symSize: 0x74 }
  - { offset: 0x59136, size: 0x8, addend: 0x0, symName: __RNvMNtCs807mVM355fU_3syn10punctuatedINtB2_10PunctuatedNtNtB4_4data7VariantNtNtB4_5token5CommaE4iterCs9kQvaEtA2Tf_20pin_project_internal, symObjAddr: 0x2628, symBinAddr: 0x42244, symSize: 0xC8 }
  - { offset: 0x59187, size: 0x8, addend: 0x0, symName: __RNvMNtCs807mVM355fU_3syn10punctuatedINtB2_10PunctuatedNtNtB4_4data7VariantNtNtB4_5token5CommaE8is_emptyCs9kQvaEtA2Tf_20pin_project_internal, symObjAddr: 0x26F0, symBinAddr: 0x4230C, symSize: 0x74 }
  - { offset: 0x591EF, size: 0x8, addend: 0x0, symName: __RNvMNtCs807mVM355fU_3syn10punctuatedINtB2_10PunctuatedNtNtB4_4data7VariantNtNtB4_5token5CommaE9pairs_mutCs9kQvaEtA2Tf_20pin_project_internal, symObjAddr: 0x2764, symBinAddr: 0x42380, symSize: 0x74 }
  - { offset: 0x59264, size: 0x8, addend: 0x0, symName: __RNvMNtCs807mVM355fU_3syn10punctuatedINtB2_10PunctuatedNtNtB4_4expr10FieldValueNtNtB4_5token5CommaE9pairs_mutCs9kQvaEtA2Tf_20pin_project_internal, symObjAddr: 0x27D8, symBinAddr: 0x423F4, symSize: 0x74 }
  - { offset: 0x592D9, size: 0x8, addend: 0x0, symName: __RNvMNtCs807mVM355fU_3syn10punctuatedINtB2_10PunctuatedNtNtB4_4expr21GenericMethodArgumentNtNtB4_5token5CommaE9pairs_mutCs9kQvaEtA2Tf_20pin_project_internal, symObjAddr: 0x284C, symBinAddr: 0x42468, symSize: 0x74 }
  - { offset: 0x5934E, size: 0x8, addend: 0x0, symName: __RNvMNtCs807mVM355fU_3syn10punctuatedINtB2_10PunctuatedNtNtB4_4expr4ExprNtNtB4_5token5CommaE9pairs_mutCs9kQvaEtA2Tf_20pin_project_internal, symObjAddr: 0x28C0, symBinAddr: 0x424DC, symSize: 0x74 }
  - { offset: 0x5938F, size: 0x8, addend: 0x0, symName: __RNvMNtCs807mVM355fU_3syn10punctuatedINtB2_10PunctuatedNtNtB4_4item5FnArgNtNtB4_5token5CommaE3lenCs9kQvaEtA2Tf_20pin_project_internal, symObjAddr: 0x2934, symBinAddr: 0x42550, symSize: 0xA0 }
  - { offset: 0x59404, size: 0x8, addend: 0x0, symName: __RNvMNtCs807mVM355fU_3syn10punctuatedINtB2_10PunctuatedNtNtB4_4item5FnArgNtNtB4_5token5CommaE9pairs_mutCs9kQvaEtA2Tf_20pin_project_internal, symObjAddr: 0x29D4, symBinAddr: 0x425F0, symSize: 0x74 }
  - { offset: 0x59479, size: 0x8, addend: 0x0, symName: __RNvMNtCs807mVM355fU_3syn10punctuatedINtB2_10PunctuatedNtNtB4_4item7UseTreeNtNtB4_5token5CommaE9pairs_mutCs9kQvaEtA2Tf_20pin_project_internal, symObjAddr: 0x2A48, symBinAddr: 0x42664, symSize: 0x74 }
  - { offset: 0x594BA, size: 0x8, addend: 0x0, symName: __RNvMNtCs807mVM355fU_3syn10punctuatedINtB2_10PunctuatedNtNtB4_4path15GenericArgumentNtNtB4_5token5CommaE3lenCs9kQvaEtA2Tf_20pin_project_internal, symObjAddr: 0x2ABC, symBinAddr: 0x426D8, symSize: 0xA0 }
  - { offset: 0x59529, size: 0x8, addend: 0x0, symName: __RNvMNtCs807mVM355fU_3syn10punctuatedINtB2_10PunctuatedNtNtB4_4path15GenericArgumentNtNtB4_5token5CommaE4iterCs9kQvaEtA2Tf_20pin_project_internal, symObjAddr: 0x2B5C, symBinAddr: 0x42778, symSize: 0xC8 }
  - { offset: 0x59587, size: 0x8, addend: 0x0, symName: __RNvMNtCs807mVM355fU_3syn10punctuatedINtB2_10PunctuatedNtNtB4_4path15GenericArgumentNtNtB4_5token5CommaE4pushCs9kQvaEtA2Tf_20pin_project_internal, symObjAddr: 0x2C24, symBinAddr: 0x42840, symSize: 0x124 }
  - { offset: 0x595CA, size: 0x8, addend: 0x0, symName: __RNvMNtCs807mVM355fU_3syn10punctuatedINtB2_10PunctuatedNtNtB4_4path15GenericArgumentNtNtB4_5token5CommaE5firstCs9kQvaEtA2Tf_20pin_project_internal, symObjAddr: 0x2D48, symBinAddr: 0x42964, symSize: 0x84 }
  - { offset: 0x595FE, size: 0x8, addend: 0x0, symName: __RNvMNtCs807mVM355fU_3syn10punctuatedINtB2_10PunctuatedNtNtB4_4path15GenericArgumentNtNtB4_5token5CommaE6insertCs9kQvaEtA2Tf_20pin_project_internal, symObjAddr: 0x2DCC, symBinAddr: 0x429E8, symSize: 0x1D8 }
  - { offset: 0x59676, size: 0x8, addend: 0x0, symName: __RNvMNtCs807mVM355fU_3syn10punctuatedINtB2_10PunctuatedNtNtB4_4path15GenericArgumentNtNtB4_5token5CommaE9pairs_mutCs9kQvaEtA2Tf_20pin_project_internal, symObjAddr: 0x2FA4, symBinAddr: 0x42BC0, symSize: 0x74 }
  - { offset: 0x596EB, size: 0x8, addend: 0x0, symName: __RNvMNtCs807mVM355fU_3syn10punctuatedINtB2_10PunctuatedNtNtB4_8generics11LifetimeDefNtNtB4_5token5CommaE9pairs_mutCs9kQvaEtA2Tf_20pin_project_internal, symObjAddr: 0x3018, symBinAddr: 0x42C34, symSize: 0x74 }
  - { offset: 0x5972C, size: 0x8, addend: 0x0, symName: __RNvMNtCs807mVM355fU_3syn10punctuatedINtB2_10PunctuatedNtNtB4_8generics12GenericParamNtNtB4_5token5CommaE3lenCs9kQvaEtA2Tf_20pin_project_internal, symObjAddr: 0x308C, symBinAddr: 0x42CA8, symSize: 0xA0 }
  - { offset: 0x5976D, size: 0x8, addend: 0x0, symName: __RNvMNtCs807mVM355fU_3syn10punctuatedINtB2_10PunctuatedNtNtB4_8generics12GenericParamNtNtB4_5token5CommaE4pushCs9kQvaEtA2Tf_20pin_project_internal, symObjAddr: 0x312C, symBinAddr: 0x42D48, symSize: 0x124 }
  - { offset: 0x597B0, size: 0x8, addend: 0x0, symName: __RNvMNtCs807mVM355fU_3syn10punctuatedINtB2_10PunctuatedNtNtB4_8generics12GenericParamNtNtB4_5token5CommaE6insertCs9kQvaEtA2Tf_20pin_project_internal, symObjAddr: 0x3250, symBinAddr: 0x42E6C, symSize: 0x1DC }
  - { offset: 0x59835, size: 0x8, addend: 0x0, symName: __RNvMNtCs807mVM355fU_3syn10punctuatedINtB2_10PunctuatedNtNtB4_8generics12GenericParamNtNtB4_5token5CommaE9pairs_mutCs9kQvaEtA2Tf_20pin_project_internal, symObjAddr: 0x342C, symBinAddr: 0x43048, symSize: 0x74 }
  - { offset: 0x59876, size: 0x8, addend: 0x0, symName: __RNvMNtCs807mVM355fU_3syn10punctuatedINtB2_10PunctuatedNtNtB4_8generics14TypeParamBoundNtNtB4_5token3AddE4pushCs9kQvaEtA2Tf_20pin_project_internal, symObjAddr: 0x34A0, symBinAddr: 0x430BC, symSize: 0x11C }
  - { offset: 0x598ED, size: 0x8, addend: 0x0, symName: __RNvMNtCs807mVM355fU_3syn10punctuatedINtB2_10PunctuatedNtNtB4_8generics14TypeParamBoundNtNtB4_5token3AddE9pairs_mutCs9kQvaEtA2Tf_20pin_project_internal, symObjAddr: 0x35BC, symBinAddr: 0x431D8, symSize: 0x74 }
  - { offset: 0x5992E, size: 0x8, addend: 0x0, symName: __RNvMNtCs807mVM355fU_3syn10punctuatedINtB2_10PunctuatedNtNtB4_8generics14WherePredicateNtNtB4_5token5CommaE4pushCs9kQvaEtA2Tf_20pin_project_internal, symObjAddr: 0x3630, symBinAddr: 0x4324C, symSize: 0x124 }
  - { offset: 0x599A5, size: 0x8, addend: 0x0, symName: __RNvMNtCs807mVM355fU_3syn10punctuatedINtB2_10PunctuatedNtNtB4_8generics14WherePredicateNtNtB4_5token5CommaE9pairs_mutCs9kQvaEtA2Tf_20pin_project_internal, symObjAddr: 0x3754, symBinAddr: 0x43370, symSize: 0x74 }
  - { offset: 0x59A1A, size: 0x8, addend: 0x0, symName: __RNvMNtCs807mVM355fU_3syn10punctuatedINtB2_10PunctuatedNtNtB4_8lifetime8LifetimeNtNtB4_5token3AddE9pairs_mutCs9kQvaEtA2Tf_20pin_project_internal, symObjAddr: 0x37C8, symBinAddr: 0x433E4, symSize: 0x74 }
  - { offset: 0x59A79, size: 0x8, addend: 0x0, symName: __RNvMsF_NtCs807mVM355fU_3syn10punctuatedINtB5_4PairQNtNtB7_2ty4TypeQNtNtB7_5token5CommaE10into_tupleCs9kQvaEtA2Tf_20pin_project_internal, symObjAddr: 0x383C, symBinAddr: 0x43458, symSize: 0x9C }
  - { offset: 0x59B11, size: 0x8, addend: 0x0, symName: __RNvMsF_NtCs807mVM355fU_3syn10punctuatedINtB5_4PairQNtNtB7_2ty9BareFnArgQNtNtB7_5token5CommaE10into_tupleCs9kQvaEtA2Tf_20pin_project_internal, symObjAddr: 0x38D8, symBinAddr: 0x434F4, symSize: 0x9C }
  - { offset: 0x59BB6, size: 0x8, addend: 0x0, symName: __RNvMsF_NtCs807mVM355fU_3syn10punctuatedINtB5_4PairQNtNtB7_3pat3PatQNtNtB7_5token2OrE10into_tupleCs9kQvaEtA2Tf_20pin_project_internal, symObjAddr: 0x3974, symBinAddr: 0x43590, symSize: 0x9C }
  - { offset: 0x59C4E, size: 0x8, addend: 0x0, symName: __RNvMsF_NtCs807mVM355fU_3syn10punctuatedINtB5_4PairQNtNtB7_3pat3PatQNtNtB7_5token5CommaE10into_tupleCs9kQvaEtA2Tf_20pin_project_internal, symObjAddr: 0x3A10, symBinAddr: 0x4362C, symSize: 0x9C }
  - { offset: 0x59CE6, size: 0x8, addend: 0x0, symName: __RNvMsF_NtCs807mVM355fU_3syn10punctuatedINtB5_4PairQNtNtB7_3pat8FieldPatQNtNtB7_5token5CommaE10into_tupleCs9kQvaEtA2Tf_20pin_project_internal, symObjAddr: 0x3AAC, symBinAddr: 0x436C8, symSize: 0x9C }
  - { offset: 0x59D7E, size: 0x8, addend: 0x0, symName: __RNvMsF_NtCs807mVM355fU_3syn10punctuatedINtB5_4PairQNtNtB7_4data5FieldQNtNtB7_5token5CommaE10into_tupleCs9kQvaEtA2Tf_20pin_project_internal, symObjAddr: 0x3B48, symBinAddr: 0x43764, symSize: 0x9C }
  - { offset: 0x59E16, size: 0x8, addend: 0x0, symName: __RNvMsF_NtCs807mVM355fU_3syn10punctuatedINtB5_4PairQNtNtB7_4data7VariantQNtNtB7_5token5CommaE10into_tupleCs9kQvaEtA2Tf_20pin_project_internal, symObjAddr: 0x3BE4, symBinAddr: 0x43800, symSize: 0x9C }
  - { offset: 0x59EAE, size: 0x8, addend: 0x0, symName: __RNvMsF_NtCs807mVM355fU_3syn10punctuatedINtB5_4PairQNtNtB7_4expr10FieldValueQNtNtB7_5token5CommaE10into_tupleCs9kQvaEtA2Tf_20pin_project_internal, symObjAddr: 0x3C80, symBinAddr: 0x4389C, symSize: 0x9C }
  - { offset: 0x59F46, size: 0x8, addend: 0x0, symName: __RNvMsF_NtCs807mVM355fU_3syn10punctuatedINtB5_4PairQNtNtB7_4expr21GenericMethodArgumentQNtNtB7_5token5CommaE10into_tupleCs9kQvaEtA2Tf_20pin_project_internal, symObjAddr: 0x3D1C, symBinAddr: 0x43938, symSize: 0x9C }
  - { offset: 0x59FDE, size: 0x8, addend: 0x0, symName: __RNvMsF_NtCs807mVM355fU_3syn10punctuatedINtB5_4PairQNtNtB7_4expr4ExprQNtNtB7_5token5CommaE10into_tupleCs9kQvaEtA2Tf_20pin_project_internal, symObjAddr: 0x3DB8, symBinAddr: 0x439D4, symSize: 0x9C }
  - { offset: 0x5A076, size: 0x8, addend: 0x0, symName: __RNvMsF_NtCs807mVM355fU_3syn10punctuatedINtB5_4PairQNtNtB7_4item5FnArgQNtNtB7_5token5CommaE10into_tupleCs9kQvaEtA2Tf_20pin_project_internal, symObjAddr: 0x3E54, symBinAddr: 0x43A70, symSize: 0x9C }
  - { offset: 0x5A10E, size: 0x8, addend: 0x0, symName: __RNvMsF_NtCs807mVM355fU_3syn10punctuatedINtB5_4PairQNtNtB7_4item7UseTreeQNtNtB7_5token5CommaE10into_tupleCs9kQvaEtA2Tf_20pin_project_internal, symObjAddr: 0x3EF0, symBinAddr: 0x43B0C, symSize: 0x9C }
  - { offset: 0x5A1A6, size: 0x8, addend: 0x0, symName: __RNvMsF_NtCs807mVM355fU_3syn10punctuatedINtB5_4PairQNtNtB7_4path15GenericArgumentQNtNtB7_5token5CommaE10into_tupleCs9kQvaEtA2Tf_20pin_project_internal, symObjAddr: 0x3F8C, symBinAddr: 0x43BA8, symSize: 0x9C }
  - { offset: 0x5A23E, size: 0x8, addend: 0x0, symName: __RNvMsF_NtCs807mVM355fU_3syn10punctuatedINtB5_4PairQNtNtB7_8generics11LifetimeDefQNtNtB7_5token5CommaE10into_tupleCs9kQvaEtA2Tf_20pin_project_internal, symObjAddr: 0x4028, symBinAddr: 0x43C44, symSize: 0x9C }
  - { offset: 0x5A2D6, size: 0x8, addend: 0x0, symName: __RNvMsF_NtCs807mVM355fU_3syn10punctuatedINtB5_4PairQNtNtB7_8generics12GenericParamQNtNtB7_5token5CommaE10into_tupleCs9kQvaEtA2Tf_20pin_project_internal, symObjAddr: 0x40C4, symBinAddr: 0x43CE0, symSize: 0x9C }
  - { offset: 0x5A37B, size: 0x8, addend: 0x0, symName: __RNvMsF_NtCs807mVM355fU_3syn10punctuatedINtB5_4PairQNtNtB7_8generics14TypeParamBoundQNtNtB7_5token3AddE10into_tupleCs9kQvaEtA2Tf_20pin_project_internal, symObjAddr: 0x4160, symBinAddr: 0x43D7C, symSize: 0x9C }
  - { offset: 0x5A413, size: 0x8, addend: 0x0, symName: __RNvMsF_NtCs807mVM355fU_3syn10punctuatedINtB5_4PairQNtNtB7_8generics14WherePredicateQNtNtB7_5token5CommaE10into_tupleCs9kQvaEtA2Tf_20pin_project_internal, symObjAddr: 0x41FC, symBinAddr: 0x43E18, symSize: 0x9C }
  - { offset: 0x5A4AB, size: 0x8, addend: 0x0, symName: __RNvMsF_NtCs807mVM355fU_3syn10punctuatedINtB5_4PairQNtNtB7_8lifetime8LifetimeQNtNtB7_5token3AddE10into_tupleCs9kQvaEtA2Tf_20pin_project_internal, symObjAddr: 0x4298, symBinAddr: 0x43EB4, symSize: 0x9C }
  - { offset: 0x5A534, size: 0x8, addend: 0x0, symName: __RNvXNtCs4EAaWzSXu1l_5quote9to_tokensRINtNtCs807mVM355fU_3syn10punctuated10PunctuatedNtNtBE_4data7VariantNtNtBE_5token5CommaENtB2_8ToTokens9to_tokensCs9kQvaEtA2Tf_20pin_project_internal, symObjAddr: 0x4334, symBinAddr: 0x43F50, symSize: 0x40 }
  - { offset: 0x5A573, size: 0x8, addend: 0x0, symName: __RNvXNtCs4EAaWzSXu1l_5quote9to_tokensRINtNtCs807mVM355fU_3syn10punctuated10PunctuatedNtNtBE_4item5FnArgNtNtBE_5token5CommaENtB2_8ToTokens9to_tokensCs9kQvaEtA2Tf_20pin_project_internal, symObjAddr: 0x4374, symBinAddr: 0x43F90, symSize: 0x40 }
  - { offset: 0x5A5B2, size: 0x8, addend: 0x0, symName: __RNvXNtCs4EAaWzSXu1l_5quote9to_tokensRRINtNtCs807mVM355fU_3syn10punctuated10PunctuatedNtNtBF_4data7VariantNtNtBF_5token5CommaENtB2_8ToTokens9to_tokensCs9kQvaEtA2Tf_20pin_project_internal, symObjAddr: 0x43B4, symBinAddr: 0x43FD0, symSize: 0x40 }
  - { offset: 0x5A5F7, size: 0x8, addend: 0x0, symName: __RNvYRINtNtCs807mVM355fU_3syn10punctuated10PunctuatedNtNtB8_4item5FnArgNtNtB8_5token5CommaENtNtCs4EAaWzSXu1l_5quote9to_tokens8ToTokens15to_token_streamCs9kQvaEtA2Tf_20pin_project_internal, symObjAddr: 0x6FD4, symBinAddr: 0x46BF0, symSize: 0x8C }
  - { offset: 0x5A641, size: 0x8, addend: 0x0, symName: __RNvYRINtNtCs807mVM355fU_3syn10punctuated10PunctuatedNtNtB8_4item5FnArgNtNtB8_5token5CommaENtNtCs4EAaWzSXu1l_5quote9to_tokens8ToTokens17into_token_streamCs9kQvaEtA2Tf_20pin_project_internal, symObjAddr: 0x7060, symBinAddr: 0x46C7C, symSize: 0x54 }
  - { offset: 0x5A676, size: 0x8, addend: 0x0, symName: __RNvYRRINtNtCs807mVM355fU_3syn10punctuated10PunctuatedNtNtB9_4data7VariantNtNtB9_5token5CommaENtNtCs4EAaWzSXu1l_5quote9to_tokens8ToTokens15to_token_streamCs9kQvaEtA2Tf_20pin_project_internal, symObjAddr: 0x70B4, symBinAddr: 0x46CD0, symSize: 0x8C }
  - { offset: 0x5A6C0, size: 0x8, addend: 0x0, symName: __RNvYRRINtNtCs807mVM355fU_3syn10punctuated10PunctuatedNtNtB9_4data7VariantNtNtB9_5token5CommaENtNtCs4EAaWzSXu1l_5quote9to_tokens8ToTokens17into_token_streamCs9kQvaEtA2Tf_20pin_project_internal, symObjAddr: 0x7140, symBinAddr: 0x46D5C, symSize: 0x54 }
  - { offset: 0x5B182, size: 0x8, addend: 0x0, symName: __RINvNtNtCs7yrEGia95Wz_10proc_macro6bridge6client10run_clientNtB2_11TokenStreamINtNtCsaNl6UpbT7bw_4core6option6OptionBW_ENCNCINvMs6_B2_INtB2_6ClientNtB6_11TokenStreamB2l_E7expand1NvCs9kQvaEtA2Tf_20pin_project_internal29___pin_project_internal_deriveE00EB2S_, symObjAddr: 0x0, symBinAddr: 0x46DB0, symSize: 0x21C }
  - { offset: 0x5B4FD, size: 0x8, addend: 0x0, symName: __RNCINvNtNtCs7yrEGia95Wz_10proc_macro6bridge6client10run_clientNtB4_11TokenStreamINtNtCsaNl6UpbT7bw_4core6option6OptionBY_ENCNCINvMs6_B4_INtB4_6ClientNtB8_11TokenStreamB2n_E7expand1NvCs9kQvaEtA2Tf_20pin_project_internal29___pin_project_internal_deriveE00E0B2U_, symObjAddr: 0x16C8, symBinAddr: 0x48478, symSize: 0x324 }
  - { offset: 0x5B722, size: 0x8, addend: 0x0, symName: __RNCINvNtNtCs7yrEGia95Wz_10proc_macro6bridge6client10run_clientTNtB4_11TokenStreamBZ_EINtNtCsaNl6UpbT7bw_4core6option6OptionBZ_ENCNCINvMs7_B4_INtB4_6ClientTNtB8_11TokenStreamB2t_EB2t_E7expand2NvCs9kQvaEtA2Tf_20pin_project_internal11pin_projectE00E0B35_, symObjAddr: 0x19EC, symBinAddr: 0x4879C, symSize: 0x344 }
  - { offset: 0x5B947, size: 0x8, addend: 0x0, symName: __RNCINvNtNtCs7yrEGia95Wz_10proc_macro6bridge6client10run_clientTNtB4_11TokenStreamBZ_EINtNtCsaNl6UpbT7bw_4core6option6OptionBZ_ENCNCINvMs7_B4_INtB4_6ClientTNtB8_11TokenStreamB2t_EB2t_E7expand2NvCs9kQvaEtA2Tf_20pin_project_internal11pinned_dropE00E0B35_, symObjAddr: 0x1D30, symBinAddr: 0x48AE0, symSize: 0x344 }
  - { offset: 0x5BB6C, size: 0x8, addend: 0x0, symName: __RNCINvNtNtCs7yrEGia95Wz_10proc_macro6bridge6client10run_clientTNtB4_11TokenStreamBZ_EINtNtCsaNl6UpbT7bw_4core6option6OptionBZ_ENCNCINvMs7_B4_INtB4_6ClientTNtB8_11TokenStreamB2t_EB2t_E7expand2NvCs9kQvaEtA2Tf_20pin_project_internal11project_refE00E0B35_, symObjAddr: 0x2074, symBinAddr: 0x48E24, symSize: 0x344 }
  - { offset: 0x5BD91, size: 0x8, addend: 0x0, symName: __RNCINvNtNtCs7yrEGia95Wz_10proc_macro6bridge6client10run_clientTNtB4_11TokenStreamBZ_EINtNtCsaNl6UpbT7bw_4core6option6OptionBZ_ENCNCINvMs7_B4_INtB4_6ClientTNtB8_11TokenStreamB2t_EB2t_E7expand2NvCs9kQvaEtA2Tf_20pin_project_internal15project_replaceE00E0B35_, symObjAddr: 0x23B8, symBinAddr: 0x49168, symSize: 0x344 }
  - { offset: 0x5BFB6, size: 0x8, addend: 0x0, symName: __RNCINvNtNtCs7yrEGia95Wz_10proc_macro6bridge6client10run_clientTNtB4_11TokenStreamBZ_EINtNtCsaNl6UpbT7bw_4core6option6OptionBZ_ENCNCINvMs7_B4_INtB4_6ClientTNtB8_11TokenStreamB2t_EB2t_E7expand2NvCs9kQvaEtA2Tf_20pin_project_internal7projectE00E0B35_, symObjAddr: 0x26FC, symBinAddr: 0x494AC, symSize: 0x344 }
  - { offset: 0x5C1E0, size: 0x8, addend: 0x0, symName: __RNCNCINvNtNtCs7yrEGia95Wz_10proc_macro6bridge6client10run_clientNtB6_11TokenStreamINtNtCsaNl6UpbT7bw_4core6option6OptionB10_ENCNCINvMs6_B6_INtB6_6ClientNtBa_11TokenStreamB2q_E7expand1NvCs9kQvaEtA2Tf_20pin_project_internal29___pin_project_internal_deriveE00E00B2X_, symObjAddr: 0x2BC4, symBinAddr: 0x49974, symSize: 0x28 }
  - { offset: 0x5C23A, size: 0x8, addend: 0x0, symName: __RNCNCINvNtNtCs7yrEGia95Wz_10proc_macro6bridge6client10run_clientTNtB6_11TokenStreamB11_EINtNtCsaNl6UpbT7bw_4core6option6OptionB11_ENCNCINvMs7_B6_INtB6_6ClientTNtBa_11TokenStreamB2x_EB2x_E7expand2NvCs9kQvaEtA2Tf_20pin_project_internal11pin_projectE00E00B39_, symObjAddr: 0x2BEC, symBinAddr: 0x4999C, symSize: 0x24 }
  - { offset: 0x5C296, size: 0x8, addend: 0x0, symName: __RNCNCINvNtNtCs7yrEGia95Wz_10proc_macro6bridge6client10run_clientTNtB6_11TokenStreamB11_EINtNtCsaNl6UpbT7bw_4core6option6OptionB11_ENCNCINvMs7_B6_INtB6_6ClientTNtBa_11TokenStreamB2x_EB2x_E7expand2NvCs9kQvaEtA2Tf_20pin_project_internal11pinned_dropE00E00B39_, symObjAddr: 0x2C10, symBinAddr: 0x499C0, symSize: 0x24 }
  - { offset: 0x5C2F2, size: 0x8, addend: 0x0, symName: __RNCNCINvNtNtCs7yrEGia95Wz_10proc_macro6bridge6client10run_clientTNtB6_11TokenStreamB11_EINtNtCsaNl6UpbT7bw_4core6option6OptionB11_ENCNCINvMs7_B6_INtB6_6ClientTNtBa_11TokenStreamB2x_EB2x_E7expand2NvCs9kQvaEtA2Tf_20pin_project_internal11project_refE00E00B39_, symObjAddr: 0x2C34, symBinAddr: 0x499E4, symSize: 0x24 }
  - { offset: 0x5C34E, size: 0x8, addend: 0x0, symName: __RNCNCINvNtNtCs7yrEGia95Wz_10proc_macro6bridge6client10run_clientTNtB6_11TokenStreamB11_EINtNtCsaNl6UpbT7bw_4core6option6OptionB11_ENCNCINvMs7_B6_INtB6_6ClientTNtBa_11TokenStreamB2x_EB2x_E7expand2NvCs9kQvaEtA2Tf_20pin_project_internal15project_replaceE00E00B39_, symObjAddr: 0x2C58, symBinAddr: 0x49A08, symSize: 0x24 }
  - { offset: 0x5C3AA, size: 0x8, addend: 0x0, symName: __RNCNCINvNtNtCs7yrEGia95Wz_10proc_macro6bridge6client10run_clientTNtB6_11TokenStreamB11_EINtNtCsaNl6UpbT7bw_4core6option6OptionB11_ENCNCINvMs7_B6_INtB6_6ClientTNtBa_11TokenStreamB2x_EB2x_E7expand2NvCs9kQvaEtA2Tf_20pin_project_internal7projectE00E00B39_, symObjAddr: 0x2C7C, symBinAddr: 0x49A2C, symSize: 0x24 }
  - { offset: 0x5C42A, size: 0x8, addend: 0x0, symName: __RNCNCINvMs6_NtNtCs7yrEGia95Wz_10proc_macro6bridge6clientINtBa_6ClientNtBe_11TokenStreamB15_E7expand1NvCs9kQvaEtA2Tf_20pin_project_internal29___pin_project_internal_deriveE00B1C_, symObjAddr: 0x2A40, symBinAddr: 0x497F0, symSize: 0x30 }
  - { offset: 0x5C473, size: 0x8, addend: 0x0, symName: __RNCINvMs6_NtNtCs7yrEGia95Wz_10proc_macro6bridge6clientINtB8_6ClientNtBc_11TokenStreamB13_E7expand1NvCs9kQvaEtA2Tf_20pin_project_internal29___pin_project_internal_deriveE0B1A_, symObjAddr: 0x15A8, symBinAddr: 0x48358, symSize: 0x30 }
  - { offset: 0x5C4DF, size: 0x8, addend: 0x0, symName: __RINvNtNtCs7yrEGia95Wz_10proc_macro6bridge6client10run_clientNtB2_11TokenStreamINtNtCsaNl6UpbT7bw_4core6option6OptionBW_ENCNCINvMs6_B2_INtB2_6ClientNtB6_11TokenStreamB2l_E7expand1NvCs9kQvaEtA2Tf_20pin_project_internal29___pin_project_internal_deriveE00EB2S_, symObjAddr: 0x0, symBinAddr: 0x46DB0, symSize: 0x21C }
  - { offset: 0x5C722, size: 0x8, addend: 0x0, symName: __RNCNCINvMs7_NtNtCs7yrEGia95Wz_10proc_macro6bridge6clientINtBa_6ClientTNtBe_11TokenStreamB16_EB16_E7expand2NvCs9kQvaEtA2Tf_20pin_project_internal11pin_projectE00B1I_, symObjAddr: 0x2A70, symBinAddr: 0x49820, symSize: 0x44 }
  - { offset: 0x5C794, size: 0x8, addend: 0x0, symName: __RNCNCINvMs7_NtNtCs7yrEGia95Wz_10proc_macro6bridge6clientINtBa_6ClientTNtBe_11TokenStreamB16_EB16_E7expand2NvCs9kQvaEtA2Tf_20pin_project_internal11pinned_dropE00B1I_, symObjAddr: 0x2AB4, symBinAddr: 0x49864, symSize: 0x44 }
  - { offset: 0x5C806, size: 0x8, addend: 0x0, symName: __RNCNCINvMs7_NtNtCs7yrEGia95Wz_10proc_macro6bridge6clientINtBa_6ClientTNtBe_11TokenStreamB16_EB16_E7expand2NvCs9kQvaEtA2Tf_20pin_project_internal11project_refE00B1I_, symObjAddr: 0x2AF8, symBinAddr: 0x498A8, symSize: 0x44 }
  - { offset: 0x5C878, size: 0x8, addend: 0x0, symName: __RNCNCINvMs7_NtNtCs7yrEGia95Wz_10proc_macro6bridge6clientINtBa_6ClientTNtBe_11TokenStreamB16_EB16_E7expand2NvCs9kQvaEtA2Tf_20pin_project_internal15project_replaceE00B1I_, symObjAddr: 0x2B3C, symBinAddr: 0x498EC, symSize: 0x44 }
  - { offset: 0x5C8EA, size: 0x8, addend: 0x0, symName: __RNCNCINvMs7_NtNtCs7yrEGia95Wz_10proc_macro6bridge6clientINtBa_6ClientTNtBe_11TokenStreamB16_EB16_E7expand2NvCs9kQvaEtA2Tf_20pin_project_internal7projectE00B1I_, symObjAddr: 0x2B80, symBinAddr: 0x49930, symSize: 0x44 }
  - { offset: 0x5C95D, size: 0x8, addend: 0x0, symName: __RNCINvMs7_NtNtCs7yrEGia95Wz_10proc_macro6bridge6clientINtB8_6ClientTNtBc_11TokenStreamB14_EB14_E7expand2NvCs9kQvaEtA2Tf_20pin_project_internal11pin_projectE0B1G_, symObjAddr: 0x15D8, symBinAddr: 0x48388, symSize: 0x30 }
  - { offset: 0x5C9A6, size: 0x8, addend: 0x0, symName: __RNCINvMs7_NtNtCs7yrEGia95Wz_10proc_macro6bridge6clientINtB8_6ClientTNtBc_11TokenStreamB14_EB14_E7expand2NvCs9kQvaEtA2Tf_20pin_project_internal11pinned_dropE0B1G_, symObjAddr: 0x1608, symBinAddr: 0x483B8, symSize: 0x30 }
  - { offset: 0x5C9EF, size: 0x8, addend: 0x0, symName: __RNCINvMs7_NtNtCs7yrEGia95Wz_10proc_macro6bridge6clientINtB8_6ClientTNtBc_11TokenStreamB14_EB14_E7expand2NvCs9kQvaEtA2Tf_20pin_project_internal11project_refE0B1G_, symObjAddr: 0x1638, symBinAddr: 0x483E8, symSize: 0x30 }
  - { offset: 0x5CA38, size: 0x8, addend: 0x0, symName: __RNCINvMs7_NtNtCs7yrEGia95Wz_10proc_macro6bridge6clientINtB8_6ClientTNtBc_11TokenStreamB14_EB14_E7expand2NvCs9kQvaEtA2Tf_20pin_project_internal15project_replaceE0B1G_, symObjAddr: 0x1668, symBinAddr: 0x48418, symSize: 0x30 }
  - { offset: 0x5CA81, size: 0x8, addend: 0x0, symName: __RNCINvMs7_NtNtCs7yrEGia95Wz_10proc_macro6bridge6clientINtB8_6ClientTNtBc_11TokenStreamB14_EB14_E7expand2NvCs9kQvaEtA2Tf_20pin_project_internal7projectE0B1G_, symObjAddr: 0x1698, symBinAddr: 0x48448, symSize: 0x30 }
  - { offset: 0x5CACC, size: 0x8, addend: 0x0, symName: __RINvNtNtCs7yrEGia95Wz_10proc_macro6bridge6client10run_clientTNtB2_11TokenStreamBX_EINtNtCsaNl6UpbT7bw_4core6option6OptionBX_ENCNCINvMs7_B2_INtB2_6ClientTNtB6_11TokenStreamB2r_EB2r_E7expand2NvCs9kQvaEtA2Tf_20pin_project_internal11pin_projectE00EB33_, symObjAddr: 0x21C, symBinAddr: 0x46FCC, symSize: 0x21C }
  - { offset: 0x5CCA1, size: 0x8, addend: 0x0, symName: __RINvNtNtCs7yrEGia95Wz_10proc_macro6bridge6client10run_clientTNtB2_11TokenStreamBX_EINtNtCsaNl6UpbT7bw_4core6option6OptionBX_ENCNCINvMs7_B2_INtB2_6ClientTNtB6_11TokenStreamB2r_EB2r_E7expand2NvCs9kQvaEtA2Tf_20pin_project_internal11pinned_dropE00EB33_, symObjAddr: 0x438, symBinAddr: 0x471E8, symSize: 0x21C }
  - { offset: 0x5CE76, size: 0x8, addend: 0x0, symName: __RINvNtNtCs7yrEGia95Wz_10proc_macro6bridge6client10run_clientTNtB2_11TokenStreamBX_EINtNtCsaNl6UpbT7bw_4core6option6OptionBX_ENCNCINvMs7_B2_INtB2_6ClientTNtB6_11TokenStreamB2r_EB2r_E7expand2NvCs9kQvaEtA2Tf_20pin_project_internal11project_refE00EB33_, symObjAddr: 0x654, symBinAddr: 0x47404, symSize: 0x21C }
  - { offset: 0x5D04B, size: 0x8, addend: 0x0, symName: __RINvNtNtCs7yrEGia95Wz_10proc_macro6bridge6client10run_clientTNtB2_11TokenStreamBX_EINtNtCsaNl6UpbT7bw_4core6option6OptionBX_ENCNCINvMs7_B2_INtB2_6ClientTNtB6_11TokenStreamB2r_EB2r_E7expand2NvCs9kQvaEtA2Tf_20pin_project_internal15project_replaceE00EB33_, symObjAddr: 0x870, symBinAddr: 0x47620, symSize: 0x21C }
  - { offset: 0x5D220, size: 0x8, addend: 0x0, symName: __RINvNtNtCs7yrEGia95Wz_10proc_macro6bridge6client10run_clientTNtB2_11TokenStreamBX_EINtNtCsaNl6UpbT7bw_4core6option6OptionBX_ENCNCINvMs7_B2_INtB2_6ClientTNtB6_11TokenStreamB2r_EB2r_E7expand2NvCs9kQvaEtA2Tf_20pin_project_internal7projectE00EB33_, symObjAddr: 0xA8C, symBinAddr: 0x4783C, symSize: 0x21C }
  - { offset: 0x5D448, size: 0x8, addend: 0x0, symName: __RNvXsf_NtNtCs7yrEGia95Wz_10proc_macro6bridge6clientNtB5_11TokenStreamINtNtB7_3rpc6EncodeuE6encodeCs9kQvaEtA2Tf_20pin_project_internal, symObjAddr: 0x364C, symBinAddr: 0x4A3FC, symSize: 0x50 }
  - { offset: 0x5D559, size: 0x8, addend: 0x0, symName: __RNvXsi_NtNtCs7yrEGia95Wz_10proc_macro6bridge6clientNtB5_11TokenStreamINtNtB7_3rpc9DecodeMutuE6decodeCs9kQvaEtA2Tf_20pin_project_internal, symObjAddr: 0x369C, symBinAddr: 0x4A44C, symSize: 0x2C }
  - { offset: 0x5D5A2, size: 0x8, addend: 0x0, symName: __RNvXsk_NtNtCs7yrEGia95Wz_10proc_macro6bridge6clientNtB5_4SpanINtNtB7_3rpc9DecodeMutuE6decodeCs9kQvaEtA2Tf_20pin_project_internal, symObjAddr: 0x36C8, symBinAddr: 0x4A478, symSize: 0x2C }
  - { offset: 0x5D8A8, size: 0x8, addend: 0x0, symName: __RNvXs7_NtNtCs7yrEGia95Wz_10proc_macro6bridge3rpcINtNtNtCsaNl6UpbT7bw_4core3num7nonzero7NonZeromEINtB5_9DecodeMutuE6decodeCs9kQvaEtA2Tf_20pin_project_internal, symObjAddr: 0x33E8, symBinAddr: 0x4A198, symSize: 0x5C }
  - { offset: 0x5D923, size: 0x8, addend: 0x0, symName: __RNvXs9_NtNtCs7yrEGia95Wz_10proc_macro6bridge3rpcTNtNtB7_6client11TokenStreamBL_EINtB5_9DecodeMutuE6decodeCs9kQvaEtA2Tf_20pin_project_internal, symObjAddr: 0x3444, symBinAddr: 0x4A1F4, symSize: 0x80 }
  - { offset: 0x5E2E1, size: 0x8, addend: 0x0, symName: __RNvNtCs9kQvaEtA2Tf_20pin_project_internal11pinned_drop9attribute, symObjAddr: 0x3F08, symBinAddr: 0x4ACB8, symSize: 0x634 }
  - { offset: 0x5E3D3, size: 0x8, addend: 0x0, symName: __RNCNvNtCs9kQvaEtA2Tf_20pin_project_internal11pinned_drop9attribute0B5_, symObjAddr: 0x453C, symBinAddr: 0x4B2EC, symSize: 0x34 }
  - { offset: 0x5E40C, size: 0x8, addend: 0x0, symName: __RNvNtCs9kQvaEtA2Tf_20pin_project_internal11pinned_drop12parse_method, symObjAddr: 0x4570, symBinAddr: 0x4B320, symSize: 0x6D8 }
  - { offset: 0x5E517, size: 0x8, addend: 0x0, symName: __RNvNvNtCs9kQvaEtA2Tf_20pin_project_internal11pinned_drop12parse_method11get_ty_path, symObjAddr: 0x4C48, symBinAddr: 0x4B9F8, symSize: 0xB4 }
  - { offset: 0x5E558, size: 0x8, addend: 0x0, symName: __RNCNvNtCs9kQvaEtA2Tf_20pin_project_internal11pinned_drop12parse_method0B5_, symObjAddr: 0x4CFC, symBinAddr: 0x4BAAC, symSize: 0x44 }
  - { offset: 0x5E596, size: 0x8, addend: 0x0, symName: __RNvNtCs9kQvaEtA2Tf_20pin_project_internal11pinned_drop5parse, symObjAddr: 0x4D40, symBinAddr: 0x4BAF0, symSize: 0x4FC }
  - { offset: 0x5E645, size: 0x8, addend: 0x0, symName: __RNCNvNtCs9kQvaEtA2Tf_20pin_project_internal11pinned_drop5parse0B5_, symObjAddr: 0x523C, symBinAddr: 0x4BFEC, symSize: 0x2F8 }
  - { offset: 0x5E783, size: 0x8, addend: 0x0, symName: __RNCNvNtCs9kQvaEtA2Tf_20pin_project_internal11pinned_drop5parses_0B5_, symObjAddr: 0x5534, symBinAddr: 0x4C2E4, symSize: 0x38 }
  - { offset: 0x5E7B7, size: 0x8, addend: 0x0, symName: __RNCNvNtCs9kQvaEtA2Tf_20pin_project_internal11pinned_drop5parses0_0B5_, symObjAddr: 0x5EBC, symBinAddr: 0x4CC6C, symSize: 0x4C }
  - { offset: 0x5E7FD, size: 0x8, addend: 0x0, symName: __RNvNtCs9kQvaEtA2Tf_20pin_project_internal11pinned_drop11expand_item, symObjAddr: 0x556C, symBinAddr: 0x4C31C, symSize: 0x950 }
  - { offset: 0x614B6, size: 0x8, addend: 0x0, symName: __RNvNvMsd_NtNtCsaNl6UpbT7bw_4core3num7nonzeroINtB7_7NonZeropE13new_unchecked18precondition_checkCs9kQvaEtA2Tf_20pin_project_internal, symObjAddr: 0x3070, symBinAddr: 0x49E20, symSize: 0x84 }
  - { offset: 0x61BF9, size: 0x8, addend: 0x0, symName: __RNvMNtCsaNl6UpbT7bw_4core5sliceSNtNtCs807mVM355fU_3syn4item8ImplItem4iterCs9kQvaEtA2Tf_20pin_project_internal, symObjAddr: 0x2CA0, symBinAddr: 0x49A50, symSize: 0x28 }
  - { offset: 0x61C30, size: 0x8, addend: 0x0, symName: __RNvMNtCsaNl6UpbT7bw_4core5sliceSNtNtCs807mVM355fU_3syn4item8ImplItem8iter_mutCs9kQvaEtA2Tf_20pin_project_internal, symObjAddr: 0x2CC8, symBinAddr: 0x49A78, symSize: 0x28 }
  - { offset: 0x61C67, size: 0x8, addend: 0x0, symName: __RNvMNtCsaNl6UpbT7bw_4core5sliceSNtNtCsiTraAjBDcu4_5alloc6string6String4iterCs9kQvaEtA2Tf_20pin_project_internal, symObjAddr: 0x2CF0, symBinAddr: 0x49AA0, symSize: 0x28 }
  - { offset: 0x61C9E, size: 0x8, addend: 0x0, symName: __RNvMNtCsaNl6UpbT7bw_4core5sliceSTNtNtCs807mVM355fU_3syn4item7UseTreeNtNtBz_5token5CommaE8iter_mutCs9kQvaEtA2Tf_20pin_project_internal, symObjAddr: 0x2D18, symBinAddr: 0x49AC8, symSize: 0x28 }
  - { offset: 0x61D23, size: 0x8, addend: 0x0, symName: __RNvMNtCsaNl6UpbT7bw_4core5sliceSh15copy_from_sliceCs9kQvaEtA2Tf_20pin_project_internal, symObjAddr: 0x2D40, symBinAddr: 0x49AF0, symSize: 0xAC }
  - { offset: 0x6235B, size: 0x8, addend: 0x0, symName: __RNvNvMNtNtCsaNl6UpbT7bw_4core5alloc6layoutNtB4_6Layout25from_size_align_unchecked18precondition_checkCs9kQvaEtA2Tf_20pin_project_internal, symObjAddr: 0x2FB4, symBinAddr: 0x49D64, symSize: 0xBC }
  - { offset: 0x626D0, size: 0x8, addend: 0x0, symName: __RINvNvNtCsht3nMU9UgFu_3std9panicking12catch_unwind7do_callINtNtNtCsaNl6UpbT7bw_4core5panic11unwind_safe16AssertUnwindSafeNCINvNtNtCs7yrEGia95Wz_10proc_macro6bridge6client10run_clientNtB20_11TokenStreamINtNtB11_6option6OptionB2U_ENCNCINvMs6_B20_INtB20_6ClientNtB24_11TokenStreamB48_E7expand1NvCs9kQvaEtA2Tf_20pin_project_internal29___pin_project_internal_deriveE00E0EuEB4G_, symObjAddr: 0x1128, symBinAddr: 0x47ED8, symSize: 0x50 }
  - { offset: 0x62798, size: 0x8, addend: 0x0, symName: __RINvNvNtCsht3nMU9UgFu_3std9panicking12catch_unwind7do_callINtNtNtCsaNl6UpbT7bw_4core5panic11unwind_safe16AssertUnwindSafeNCINvNtNtCs7yrEGia95Wz_10proc_macro6bridge6client10run_clientTNtB20_11TokenStreamB2V_EINtNtB11_6option6OptionB2V_ENCNCINvMs7_B20_INtB20_6ClientTNtB24_11TokenStreamB4f_EB4f_E7expand2NvCs9kQvaEtA2Tf_20pin_project_internal11pin_projectE00E0EuEB4S_, symObjAddr: 0x1178, symBinAddr: 0x47F28, symSize: 0x50 }
  - { offset: 0x62860, size: 0x8, addend: 0x0, symName: __RINvNvNtCsht3nMU9UgFu_3std9panicking12catch_unwind7do_callINtNtNtCsaNl6UpbT7bw_4core5panic11unwind_safe16AssertUnwindSafeNCINvNtNtCs7yrEGia95Wz_10proc_macro6bridge6client10run_clientTNtB20_11TokenStreamB2V_EINtNtB11_6option6OptionB2V_ENCNCINvMs7_B20_INtB20_6ClientTNtB24_11TokenStreamB4f_EB4f_E7expand2NvCs9kQvaEtA2Tf_20pin_project_internal11pinned_dropE00E0EuEB4S_, symObjAddr: 0x11C8, symBinAddr: 0x47F78, symSize: 0x50 }
  - { offset: 0x62928, size: 0x8, addend: 0x0, symName: __RINvNvNtCsht3nMU9UgFu_3std9panicking12catch_unwind7do_callINtNtNtCsaNl6UpbT7bw_4core5panic11unwind_safe16AssertUnwindSafeNCINvNtNtCs7yrEGia95Wz_10proc_macro6bridge6client10run_clientTNtB20_11TokenStreamB2V_EINtNtB11_6option6OptionB2V_ENCNCINvMs7_B20_INtB20_6ClientTNtB24_11TokenStreamB4f_EB4f_E7expand2NvCs9kQvaEtA2Tf_20pin_project_internal11project_refE00E0EuEB4S_, symObjAddr: 0x1218, symBinAddr: 0x47FC8, symSize: 0x50 }
  - { offset: 0x629F0, size: 0x8, addend: 0x0, symName: __RINvNvNtCsht3nMU9UgFu_3std9panicking12catch_unwind7do_callINtNtNtCsaNl6UpbT7bw_4core5panic11unwind_safe16AssertUnwindSafeNCINvNtNtCs7yrEGia95Wz_10proc_macro6bridge6client10run_clientTNtB20_11TokenStreamB2V_EINtNtB11_6option6OptionB2V_ENCNCINvMs7_B20_INtB20_6ClientTNtB24_11TokenStreamB4f_EB4f_E7expand2NvCs9kQvaEtA2Tf_20pin_project_internal15project_replaceE00E0EuEB4S_, symObjAddr: 0x1268, symBinAddr: 0x48018, symSize: 0x50 }
  - { offset: 0x62AB8, size: 0x8, addend: 0x0, symName: __RINvNvNtCsht3nMU9UgFu_3std9panicking12catch_unwind7do_callINtNtNtCsaNl6UpbT7bw_4core5panic11unwind_safe16AssertUnwindSafeNCINvNtNtCs7yrEGia95Wz_10proc_macro6bridge6client10run_clientTNtB20_11TokenStreamB2V_EINtNtB11_6option6OptionB2V_ENCNCINvMs7_B20_INtB20_6ClientTNtB24_11TokenStreamB4f_EB4f_E7expand2NvCs9kQvaEtA2Tf_20pin_project_internal7projectE00E0EuEB4S_, symObjAddr: 0x12B8, symBinAddr: 0x48068, symSize: 0x50 }
  - { offset: 0x62B80, size: 0x8, addend: 0x0, symName: __RINvNvNtCsht3nMU9UgFu_3std9panicking12catch_unwind8do_catchINtNtNtCsaNl6UpbT7bw_4core5panic11unwind_safe16AssertUnwindSafeNCINvNtNtCs7yrEGia95Wz_10proc_macro6bridge6client10run_clientNtB21_11TokenStreamINtNtB12_6option6OptionB2V_ENCNCINvMs6_B21_INtB21_6ClientNtB25_11TokenStreamB49_E7expand1NvCs9kQvaEtA2Tf_20pin_project_internal29___pin_project_internal_deriveE00E0EuEB4H_, symObjAddr: 0x1308, symBinAddr: 0x480B8, symSize: 0x70 }
  - { offset: 0x62C15, size: 0x8, addend: 0x0, symName: __RINvNvNtCsht3nMU9UgFu_3std9panicking12catch_unwind8do_catchINtNtNtCsaNl6UpbT7bw_4core5panic11unwind_safe16AssertUnwindSafeNCINvNtNtCs7yrEGia95Wz_10proc_macro6bridge6client10run_clientTNtB21_11TokenStreamB2W_EINtNtB12_6option6OptionB2W_ENCNCINvMs7_B21_INtB21_6ClientTNtB25_11TokenStreamB4g_EB4g_E7expand2NvCs9kQvaEtA2Tf_20pin_project_internal11pin_projectE00E0EuEB4T_, symObjAddr: 0x1378, symBinAddr: 0x48128, symSize: 0x70 }
  - { offset: 0x62CAA, size: 0x8, addend: 0x0, symName: __RINvNvNtCsht3nMU9UgFu_3std9panicking12catch_unwind8do_catchINtNtNtCsaNl6UpbT7bw_4core5panic11unwind_safe16AssertUnwindSafeNCINvNtNtCs7yrEGia95Wz_10proc_macro6bridge6client10run_clientTNtB21_11TokenStreamB2W_EINtNtB12_6option6OptionB2W_ENCNCINvMs7_B21_INtB21_6ClientTNtB25_11TokenStreamB4g_EB4g_E7expand2NvCs9kQvaEtA2Tf_20pin_project_internal11pinned_dropE00E0EuEB4T_, symObjAddr: 0x13E8, symBinAddr: 0x48198, symSize: 0x70 }
  - { offset: 0x62D3F, size: 0x8, addend: 0x0, symName: __RINvNvNtCsht3nMU9UgFu_3std9panicking12catch_unwind8do_catchINtNtNtCsaNl6UpbT7bw_4core5panic11unwind_safe16AssertUnwindSafeNCINvNtNtCs7yrEGia95Wz_10proc_macro6bridge6client10run_clientTNtB21_11TokenStreamB2W_EINtNtB12_6option6OptionB2W_ENCNCINvMs7_B21_INtB21_6ClientTNtB25_11TokenStreamB4g_EB4g_E7expand2NvCs9kQvaEtA2Tf_20pin_project_internal11project_refE00E0EuEB4T_, symObjAddr: 0x1458, symBinAddr: 0x48208, symSize: 0x70 }
  - { offset: 0x62DD4, size: 0x8, addend: 0x0, symName: __RINvNvNtCsht3nMU9UgFu_3std9panicking12catch_unwind8do_catchINtNtNtCsaNl6UpbT7bw_4core5panic11unwind_safe16AssertUnwindSafeNCINvNtNtCs7yrEGia95Wz_10proc_macro6bridge6client10run_clientTNtB21_11TokenStreamB2W_EINtNtB12_6option6OptionB2W_ENCNCINvMs7_B21_INtB21_6ClientTNtB25_11TokenStreamB4g_EB4g_E7expand2NvCs9kQvaEtA2Tf_20pin_project_internal15project_replaceE00E0EuEB4T_, symObjAddr: 0x14C8, symBinAddr: 0x48278, symSize: 0x70 }
  - { offset: 0x62E69, size: 0x8, addend: 0x0, symName: __RINvNvNtCsht3nMU9UgFu_3std9panicking12catch_unwind8do_catchINtNtNtCsaNl6UpbT7bw_4core5panic11unwind_safe16AssertUnwindSafeNCINvNtNtCs7yrEGia95Wz_10proc_macro6bridge6client10run_clientTNtB21_11TokenStreamB2W_EINtNtB12_6option6OptionB2W_ENCNCINvMs7_B21_INtB21_6ClientTNtB25_11TokenStreamB4g_EB4g_E7expand2NvCs9kQvaEtA2Tf_20pin_project_internal7projectE00E0EuEB4T_, symObjAddr: 0x1538, symBinAddr: 0x482E8, symSize: 0x70 }
  - { offset: 0x632F8, size: 0x8, addend: 0x0, symName: __RNvXsH_NtCsiTraAjBDcu4_5alloc6stringNtB5_6StringINtNtCsaNl6UpbT7bw_4core7convert4FromReE4fromCs9kQvaEtA2Tf_20pin_project_internal, symObjAddr: 0x34C4, symBinAddr: 0x4A274, symSize: 0x50 }
  - { offset: 0x633E5, size: 0x8, addend: 0x0, symName: __RNvXsV_NtCsiTraAjBDcu4_5alloc6stringNtB5_6StringNtNtCsaNl6UpbT7bw_4core3fmt5Write10write_charCs9kQvaEtA2Tf_20pin_project_internal, symObjAddr: 0x3514, symBinAddr: 0x4A2C4, symSize: 0x38 }
  - { offset: 0x63422, size: 0x8, addend: 0x0, symName: __RNvXsV_NtCsiTraAjBDcu4_5alloc6stringNtB5_6StringNtNtCsaNl6UpbT7bw_4core3fmt5Write9write_strCs9kQvaEtA2Tf_20pin_project_internal, symObjAddr: 0x354C, symBinAddr: 0x4A2FC, symSize: 0x40 }
  - { offset: 0x63465, size: 0x8, addend: 0x0, symName: __RNvXss_NtCsiTraAjBDcu4_5alloc6stringNtB5_6StringNtNtNtCsaNl6UpbT7bw_4core3ops5deref5Deref5derefCs9kQvaEtA2Tf_20pin_project_internal, symObjAddr: 0x36F4, symBinAddr: 0x4A4A4, symSize: 0x24 }
  - { offset: 0x64AED, size: 0x8, addend: 0x0, symName: __RINvNtNtNtCs807mVM355fU_3syn3gen6helper9visit_mut13tokens_helperNtNtCs9kQvaEtA2Tf_20pin_project_internal5utils15ReplaceReceiverANtCshnvkK9b4wzu_11proc_macro24Spanj1_EB14_, symObjAddr: 0xCA8, symBinAddr: 0x47A58, symSize: 0x48 }
  - { offset: 0x64B35, size: 0x8, addend: 0x0, symName: __RINvNtNtNtCs807mVM355fU_3syn3gen6helper9visit_mut13tokens_helperNtNtCs9kQvaEtA2Tf_20pin_project_internal5utils15ReplaceReceiverANtCshnvkK9b4wzu_11proc_macro24Spanj2_EB14_, symObjAddr: 0xCF0, symBinAddr: 0x47AA0, symSize: 0x48 }
  - { offset: 0x64B7D, size: 0x8, addend: 0x0, symName: __RINvNtNtNtCs807mVM355fU_3syn3gen6helper9visit_mut13tokens_helperNtNtCs9kQvaEtA2Tf_20pin_project_internal5utils15ReplaceReceiverANtCshnvkK9b4wzu_11proc_macro24Spanj3_EB14_, symObjAddr: 0xD38, symBinAddr: 0x47AE8, symSize: 0x48 }
  - { offset: 0x64BC5, size: 0x8, addend: 0x0, symName: __RINvNtNtNtCs807mVM355fU_3syn3gen6helper9visit_mut13tokens_helperNtNtCs9kQvaEtA2Tf_20pin_project_internal5utils15ReplaceReceiverNtCshnvkK9b4wzu_11proc_macro24SpanEB14_, symObjAddr: 0xD80, symBinAddr: 0x47B30, symSize: 0x48 }
  - { offset: 0x64C0D, size: 0x8, addend: 0x0, symName: __RINvNtNtNtCs807mVM355fU_3syn3gen6helper9visit_mut13tokens_helperNtNvNtCs9kQvaEtA2Tf_20pin_project_internal5utils23determine_lifetime_name16CollectLifetimesANtCshnvkK9b4wzu_11proc_macro24Spanj1_EB16_, symObjAddr: 0xDC8, symBinAddr: 0x47B78, symSize: 0x48 }
  - { offset: 0x64C55, size: 0x8, addend: 0x0, symName: __RINvNtNtNtCs807mVM355fU_3syn3gen6helper9visit_mut13tokens_helperNtNvNtCs9kQvaEtA2Tf_20pin_project_internal5utils23determine_lifetime_name16CollectLifetimesANtCshnvkK9b4wzu_11proc_macro24Spanj2_EB16_, symObjAddr: 0xE10, symBinAddr: 0x47BC0, symSize: 0x48 }
  - { offset: 0x64C9D, size: 0x8, addend: 0x0, symName: __RINvNtNtNtCs807mVM355fU_3syn3gen6helper9visit_mut13tokens_helperNtNvNtCs9kQvaEtA2Tf_20pin_project_internal5utils23determine_lifetime_name16CollectLifetimesANtCshnvkK9b4wzu_11proc_macro24Spanj3_EB16_, symObjAddr: 0xE58, symBinAddr: 0x47C08, symSize: 0x48 }
  - { offset: 0x64CE5, size: 0x8, addend: 0x0, symName: __RINvNtNtNtCs807mVM355fU_3syn3gen6helper9visit_mut13tokens_helperNtNvNtCs9kQvaEtA2Tf_20pin_project_internal5utils23determine_lifetime_name16CollectLifetimesNtCshnvkK9b4wzu_11proc_macro24SpanEB16_, symObjAddr: 0xEA0, symBinAddr: 0x47C50, symSize: 0x48 }
  - { offset: 0x64D2D, size: 0x8, addend: 0x0, symName: __RINvNtNtNtCs807mVM355fU_3syn3gen6helper9visit_mut13tokens_helperNtNvNtCs9kQvaEtA2Tf_20pin_project_internal7project15replace_item_fn9FnVisitorANtCshnvkK9b4wzu_11proc_macro24Spanj1_EB16_, symObjAddr: 0xEE8, symBinAddr: 0x47C98, symSize: 0x48 }
  - { offset: 0x64D75, size: 0x8, addend: 0x0, symName: __RINvNtNtNtCs807mVM355fU_3syn3gen6helper9visit_mut13tokens_helperNtNvNtCs9kQvaEtA2Tf_20pin_project_internal7project15replace_item_fn9FnVisitorANtCshnvkK9b4wzu_11proc_macro24Spanj2_EB16_, symObjAddr: 0xF30, symBinAddr: 0x47CE0, symSize: 0x48 }
  - { offset: 0x64DBD, size: 0x8, addend: 0x0, symName: __RINvNtNtNtCs807mVM355fU_3syn3gen6helper9visit_mut13tokens_helperNtNvNtCs9kQvaEtA2Tf_20pin_project_internal7project15replace_item_fn9FnVisitorANtCshnvkK9b4wzu_11proc_macro24Spanj3_EB16_, symObjAddr: 0xF78, symBinAddr: 0x47D28, symSize: 0x48 }
  - { offset: 0x64E05, size: 0x8, addend: 0x0, symName: __RINvNtNtNtCs807mVM355fU_3syn3gen6helper9visit_mut13tokens_helperNtNvNtCs9kQvaEtA2Tf_20pin_project_internal7project15replace_item_fn9FnVisitorNtCshnvkK9b4wzu_11proc_macro24SpanEB16_, symObjAddr: 0xFC0, symBinAddr: 0x47D70, symSize: 0x48 }
  - { offset: 0x64E4D, size: 0x8, addend: 0x0, symName: __RINvNtNtNtCs807mVM355fU_3syn3gen6helper9visit_mut13tokens_helperNtNvNtCs9kQvaEtA2Tf_20pin_project_internal7project16replace_item_use14UseTreeVisitorANtCshnvkK9b4wzu_11proc_macro24Spanj1_EB16_, symObjAddr: 0x1008, symBinAddr: 0x47DB8, symSize: 0x48 }
  - { offset: 0x64E95, size: 0x8, addend: 0x0, symName: __RINvNtNtNtCs807mVM355fU_3syn3gen6helper9visit_mut13tokens_helperNtNvNtCs9kQvaEtA2Tf_20pin_project_internal7project16replace_item_use14UseTreeVisitorANtCshnvkK9b4wzu_11proc_macro24Spanj2_EB16_, symObjAddr: 0x1050, symBinAddr: 0x47E00, symSize: 0x48 }
  - { offset: 0x64EDD, size: 0x8, addend: 0x0, symName: __RINvNtNtNtCs807mVM355fU_3syn3gen6helper9visit_mut13tokens_helperNtNvNtCs9kQvaEtA2Tf_20pin_project_internal7project16replace_item_use14UseTreeVisitorANtCshnvkK9b4wzu_11proc_macro24Spanj3_EB16_, symObjAddr: 0x1098, symBinAddr: 0x47E48, symSize: 0x48 }
  - { offset: 0x64F25, size: 0x8, addend: 0x0, symName: __RINvNtNtNtCs807mVM355fU_3syn3gen6helper9visit_mut13tokens_helperNtNvNtCs9kQvaEtA2Tf_20pin_project_internal7project16replace_item_use14UseTreeVisitorNtCshnvkK9b4wzu_11proc_macro24SpanEB16_, symObjAddr: 0x10E0, symBinAddr: 0x47E90, symSize: 0x48 }
  - { offset: 0x64F7A, size: 0x8, addend: 0x0, symName: __RNvXNtCs807mVM355fU_3syn17parse_macro_inputNtNtB4_4item8ItemImplNtB2_15ParseMacroInput5parseCs9kQvaEtA2Tf_20pin_project_internal, symObjAddr: 0x33B4, symBinAddr: 0x4A164, symSize: 0x34 }
  - { offset: 0x6A385, size: 0x8, addend: 0x0, symName: __RNvMNtCsiTraAjBDcu4_5alloc6stringNtB2_6String4pushCs9kQvaEtA2Tf_20pin_project_internal, symObjAddr: 0x2DEC, symBinAddr: 0x49B9C, symSize: 0xF8 }
  - { offset: 0x6A612, size: 0x8, addend: 0x0, symName: __RNvMNtCsiTraAjBDcu4_5alloc6stringNtB2_6String6as_strCs9kQvaEtA2Tf_20pin_project_internal, symObjAddr: 0x2EE4, symBinAddr: 0x49C94, symSize: 0x78 }
  - { offset: 0x6A7FB, size: 0x8, addend: 0x0, symName: __RNvMNtCsiTraAjBDcu4_5alloc6stringNtB2_6String8push_strCs9kQvaEtA2Tf_20pin_project_internal, symObjAddr: 0x2F5C, symBinAddr: 0x49D0C, symSize: 0x58 }
  - { offset: 0x6AAAA, size: 0x8, addend: 0x0, symName: __RNvXNtCs4EAaWzSXu1l_5quote9to_tokensRNtNtCs807mVM355fU_3syn4item12ImplItemTypeNtB2_8ToTokens9to_tokensCs9kQvaEtA2Tf_20pin_project_internal, symObjAddr: 0x30F4, symBinAddr: 0x49EA4, symSize: 0x40 }
  - { offset: 0x6AAE9, size: 0x8, addend: 0x0, symName: __RNvXNtCs4EAaWzSXu1l_5quote9to_tokensRNtNtCs807mVM355fU_3syn4item13ImplItemConstNtB2_8ToTokens9to_tokensCs9kQvaEtA2Tf_20pin_project_internal, symObjAddr: 0x3134, symBinAddr: 0x49EE4, symSize: 0x40 }
  - { offset: 0x6AB28, size: 0x8, addend: 0x0, symName: __RNvXNtCs4EAaWzSXu1l_5quote9to_tokensRNtNtCs807mVM355fU_3syn4item14ImplItemMethodNtB2_8ToTokens9to_tokensCs9kQvaEtA2Tf_20pin_project_internal, symObjAddr: 0x3174, symBinAddr: 0x49F24, symSize: 0x40 }
  - { offset: 0x6AB67, size: 0x8, addend: 0x0, symName: __RNvXNtCs4EAaWzSXu1l_5quote9to_tokensRNtNtCs807mVM355fU_3syn4item5FnArgNtB2_8ToTokens9to_tokensCs9kQvaEtA2Tf_20pin_project_internal, symObjAddr: 0x31B4, symBinAddr: 0x49F64, symSize: 0x40 }
  - { offset: 0x6ABA6, size: 0x8, addend: 0x0, symName: __RNvXNtCs4EAaWzSXu1l_5quote9to_tokensRNtNtCs807mVM355fU_3syn6derive11DeriveInputNtB2_8ToTokens9to_tokensCs9kQvaEtA2Tf_20pin_project_internal, symObjAddr: 0x31F4, symBinAddr: 0x49FA4, symSize: 0x40 }
  - { offset: 0x6ABE5, size: 0x8, addend: 0x0, symName: __RNvXNtCs4EAaWzSXu1l_5quote9to_tokensRQNtNtCs807mVM355fU_3syn4item7UseGlobNtB2_8ToTokens9to_tokensCs9kQvaEtA2Tf_20pin_project_internal, symObjAddr: 0x3234, symBinAddr: 0x49FE4, symSize: 0x40 }
  - { offset: 0x6AC24, size: 0x8, addend: 0x0, symName: __RNvXNtCs4EAaWzSXu1l_5quote9to_tokensRQNtNtCs807mVM355fU_3syn4item8ItemImplNtB2_8ToTokens9to_tokensCs9kQvaEtA2Tf_20pin_project_internal, symObjAddr: 0x3274, symBinAddr: 0x4A024, symSize: 0x40 }
  - { offset: 0x6AC63, size: 0x8, addend: 0x0, symName: __RNvXNtCs4EAaWzSXu1l_5quote9to_tokensRQNtNtCs807mVM355fU_3syn4item9UseRenameNtB2_8ToTokens9to_tokensCs9kQvaEtA2Tf_20pin_project_internal, symObjAddr: 0x32B4, symBinAddr: 0x4A064, symSize: 0x40 }
  - { offset: 0x6ACA2, size: 0x8, addend: 0x0, symName: __RNvXNtCs4EAaWzSXu1l_5quote9to_tokensRRNtNtCs807mVM355fU_3syn4item12ImplItemTypeNtB2_8ToTokens9to_tokensCs9kQvaEtA2Tf_20pin_project_internal, symObjAddr: 0x32F4, symBinAddr: 0x4A0A4, symSize: 0x40 }
  - { offset: 0x6ACE1, size: 0x8, addend: 0x0, symName: __RNvXNtCs4EAaWzSXu1l_5quote9to_tokensRRNtNtCs807mVM355fU_3syn4item13ImplItemConstNtB2_8ToTokens9to_tokensCs9kQvaEtA2Tf_20pin_project_internal, symObjAddr: 0x3334, symBinAddr: 0x4A0E4, symSize: 0x40 }
  - { offset: 0x6AD20, size: 0x8, addend: 0x0, symName: __RNvXNtCs4EAaWzSXu1l_5quote9to_tokensRRNtNtCs807mVM355fU_3syn4item14ImplItemMethodNtB2_8ToTokens9to_tokensCs9kQvaEtA2Tf_20pin_project_internal, symObjAddr: 0x3374, symBinAddr: 0x4A124, symSize: 0x40 }
  - { offset: 0x6AD65, size: 0x8, addend: 0x0, symName: __RNvXs_NtCs4EAaWzSXu1l_5quote9to_tokensQNtNtCs807mVM355fU_3syn4item7UseGlobNtB4_8ToTokens9to_tokensCs9kQvaEtA2Tf_20pin_project_internal, symObjAddr: 0x358C, symBinAddr: 0x4A33C, symSize: 0x40 }
  - { offset: 0x6ADA4, size: 0x8, addend: 0x0, symName: __RNvXs_NtCs4EAaWzSXu1l_5quote9to_tokensQNtNtCs807mVM355fU_3syn4item8ItemImplNtB4_8ToTokens9to_tokensCs9kQvaEtA2Tf_20pin_project_internal, symObjAddr: 0x35CC, symBinAddr: 0x4A37C, symSize: 0x40 }
  - { offset: 0x6ADE3, size: 0x8, addend: 0x0, symName: __RNvXs_NtCs4EAaWzSXu1l_5quote9to_tokensQNtNtCs807mVM355fU_3syn4item9UseRenameNtB4_8ToTokens9to_tokensCs9kQvaEtA2Tf_20pin_project_internal, symObjAddr: 0x360C, symBinAddr: 0x4A3BC, symSize: 0x40 }
  - { offset: 0x6AE28, size: 0x8, addend: 0x0, symName: __RNvYNtNtCs807mVM355fU_3syn4item8ItemImplNtNtCs4EAaWzSXu1l_5quote9to_tokens8ToTokens15to_token_streamCs9kQvaEtA2Tf_20pin_project_internal, symObjAddr: 0x3718, symBinAddr: 0x4A4C8, symSize: 0x8C }
  - { offset: 0x6AE72, size: 0x8, addend: 0x0, symName: __RNvYNtNtCs807mVM355fU_3syn4item8ItemImplNtNtCs4EAaWzSXu1l_5quote9to_tokens8ToTokens17into_token_streamCs9kQvaEtA2Tf_20pin_project_internal, symObjAddr: 0x37A4, symBinAddr: 0x4A554, symSize: 0x64 }
  - { offset: 0x6AEA8, size: 0x8, addend: 0x0, symName: __RNvYRNtNtCs807mVM355fU_3syn4item5FnArgNtNtCs4EAaWzSXu1l_5quote9to_tokens8ToTokens15to_token_streamCs9kQvaEtA2Tf_20pin_project_internal, symObjAddr: 0x3808, symBinAddr: 0x4A5B8, symSize: 0x8C }
  - { offset: 0x6AEF2, size: 0x8, addend: 0x0, symName: __RNvYRNtNtCs807mVM355fU_3syn4item5FnArgNtNtCs4EAaWzSXu1l_5quote9to_tokens8ToTokens17into_token_streamCs9kQvaEtA2Tf_20pin_project_internal, symObjAddr: 0x3894, symBinAddr: 0x4A644, symSize: 0x54 }
  - { offset: 0x6AF27, size: 0x8, addend: 0x0, symName: __RNvYRNtNtCs807mVM355fU_3syn6derive11DeriveInputNtNtCs4EAaWzSXu1l_5quote9to_tokens8ToTokens15to_token_streamCs9kQvaEtA2Tf_20pin_project_internal, symObjAddr: 0x38E8, symBinAddr: 0x4A698, symSize: 0x8C }
  - { offset: 0x6AF71, size: 0x8, addend: 0x0, symName: __RNvYRNtNtCs807mVM355fU_3syn6derive11DeriveInputNtNtCs4EAaWzSXu1l_5quote9to_tokens8ToTokens17into_token_streamCs9kQvaEtA2Tf_20pin_project_internal, symObjAddr: 0x3974, symBinAddr: 0x4A724, symSize: 0x54 }
  - { offset: 0x6AFA6, size: 0x8, addend: 0x0, symName: __RNvYRQNtNtCs807mVM355fU_3syn4item7UseGlobNtNtCs4EAaWzSXu1l_5quote9to_tokens8ToTokens15to_token_streamCs9kQvaEtA2Tf_20pin_project_internal, symObjAddr: 0x39C8, symBinAddr: 0x4A778, symSize: 0x8C }
  - { offset: 0x6AFF0, size: 0x8, addend: 0x0, symName: __RNvYRQNtNtCs807mVM355fU_3syn4item7UseGlobNtNtCs4EAaWzSXu1l_5quote9to_tokens8ToTokens17into_token_streamCs9kQvaEtA2Tf_20pin_project_internal, symObjAddr: 0x3A54, symBinAddr: 0x4A804, symSize: 0x54 }
  - { offset: 0x6B025, size: 0x8, addend: 0x0, symName: __RNvYRQNtNtCs807mVM355fU_3syn4item8ItemImplNtNtCs4EAaWzSXu1l_5quote9to_tokens8ToTokens15to_token_streamCs9kQvaEtA2Tf_20pin_project_internal, symObjAddr: 0x3AA8, symBinAddr: 0x4A858, symSize: 0x8C }
  - { offset: 0x6B06F, size: 0x8, addend: 0x0, symName: __RNvYRQNtNtCs807mVM355fU_3syn4item8ItemImplNtNtCs4EAaWzSXu1l_5quote9to_tokens8ToTokens17into_token_streamCs9kQvaEtA2Tf_20pin_project_internal, symObjAddr: 0x3B34, symBinAddr: 0x4A8E4, symSize: 0x54 }
  - { offset: 0x6B0A4, size: 0x8, addend: 0x0, symName: __RNvYRQNtNtCs807mVM355fU_3syn4item9UseRenameNtNtCs4EAaWzSXu1l_5quote9to_tokens8ToTokens15to_token_streamCs9kQvaEtA2Tf_20pin_project_internal, symObjAddr: 0x3B88, symBinAddr: 0x4A938, symSize: 0x8C }
  - { offset: 0x6B0EE, size: 0x8, addend: 0x0, symName: __RNvYRQNtNtCs807mVM355fU_3syn4item9UseRenameNtNtCs4EAaWzSXu1l_5quote9to_tokens8ToTokens17into_token_streamCs9kQvaEtA2Tf_20pin_project_internal, symObjAddr: 0x3C14, symBinAddr: 0x4A9C4, symSize: 0x54 }
  - { offset: 0x6B123, size: 0x8, addend: 0x0, symName: __RNvYRRNtNtCs807mVM355fU_3syn4item12ImplItemTypeNtNtCs4EAaWzSXu1l_5quote9to_tokens8ToTokens15to_token_streamCs9kQvaEtA2Tf_20pin_project_internal, symObjAddr: 0x3C68, symBinAddr: 0x4AA18, symSize: 0x8C }
  - { offset: 0x6B16D, size: 0x8, addend: 0x0, symName: __RNvYRRNtNtCs807mVM355fU_3syn4item12ImplItemTypeNtNtCs4EAaWzSXu1l_5quote9to_tokens8ToTokens17into_token_streamCs9kQvaEtA2Tf_20pin_project_internal, symObjAddr: 0x3CF4, symBinAddr: 0x4AAA4, symSize: 0x54 }
  - { offset: 0x6B1A2, size: 0x8, addend: 0x0, symName: __RNvYRRNtNtCs807mVM355fU_3syn4item13ImplItemConstNtNtCs4EAaWzSXu1l_5quote9to_tokens8ToTokens15to_token_streamCs9kQvaEtA2Tf_20pin_project_internal, symObjAddr: 0x3D48, symBinAddr: 0x4AAF8, symSize: 0x8C }
  - { offset: 0x6B1EC, size: 0x8, addend: 0x0, symName: __RNvYRRNtNtCs807mVM355fU_3syn4item13ImplItemConstNtNtCs4EAaWzSXu1l_5quote9to_tokens8ToTokens17into_token_streamCs9kQvaEtA2Tf_20pin_project_internal, symObjAddr: 0x3DD4, symBinAddr: 0x4AB84, symSize: 0x54 }
  - { offset: 0x6B221, size: 0x8, addend: 0x0, symName: __RNvYRRNtNtCs807mVM355fU_3syn4item14ImplItemMethodNtNtCs4EAaWzSXu1l_5quote9to_tokens8ToTokens15to_token_streamCs9kQvaEtA2Tf_20pin_project_internal, symObjAddr: 0x3E28, symBinAddr: 0x4ABD8, symSize: 0x8C }
  - { offset: 0x6B26B, size: 0x8, addend: 0x0, symName: __RNvYRRNtNtCs807mVM355fU_3syn4item14ImplItemMethodNtNtCs4EAaWzSXu1l_5quote9to_tokens8ToTokens17into_token_streamCs9kQvaEtA2Tf_20pin_project_internal, symObjAddr: 0x3EB4, symBinAddr: 0x4AC64, symSize: 0x54 }
  - { offset: 0x6BCEA, size: 0x8, addend: 0x0, symName: __RINvMNtCsaNl6UpbT7bw_4core6optionINtB3_6OptionINtNtCs807mVM355fU_3syn10punctuated4PairQNtNtBN_2ty4TypeQNtNtBN_5token5CommaEE7or_elseNCNvXsc_BL_INtBL_8PairsMutB1n_B1D_ENtNtNtNtB5_4iter6traits8iterator8Iterator4nexts_0ECs9kQvaEtA2Tf_20pin_project_internal, symObjAddr: 0x0, symBinAddr: 0x4CD0C, symSize: 0xB4 }
  - { offset: 0x6C0B7, size: 0x8, addend: 0x0, symName: __RNvXsR_NtCs7yrEGia95Wz_10proc_macro6bridgeINtNtCsaNl6UpbT7bw_4core6option6OptionNtNtB5_6client11TokenStreamEINtNtB5_3rpc6EncodeuE6encodeCs9kQvaEtA2Tf_20pin_project_internal, symObjAddr: 0x3FD0, symBinAddr: 0x50CDC, symSize: 0xCC }
  - { offset: 0x6C15D, size: 0x8, addend: 0x0, symName: __RNvXsR_NtCs7yrEGia95Wz_10proc_macro6bridgeINtNtCsaNl6UpbT7bw_4core6option6OptionReEINtNtB5_3rpc6EncodeuE6encodeCs9kQvaEtA2Tf_20pin_project_internal, symObjAddr: 0x409C, symBinAddr: 0x50DA8, symSize: 0xD8 }
  - { offset: 0x72457, size: 0x8, addend: 0x0, symName: __RNvXs6_NtCsaNl6UpbT7bw_4core6optionINtB5_6OptionQNtNtCs807mVM355fU_3syn2ty4TypeENtNtNtNtB7_4iter6traits7collect12IntoIterator9into_iterCs9kQvaEtA2Tf_20pin_project_internal, symObjAddr: 0x3C3C, symBinAddr: 0x50948, symSize: 0x14 }
  - { offset: 0x7248E, size: 0x8, addend: 0x0, symName: __RNvXs6_NtCsaNl6UpbT7bw_4core6optionINtB5_6OptionQNtNtCs807mVM355fU_3syn2ty9BareFnArgENtNtNtNtB7_4iter6traits7collect12IntoIterator9into_iterCs9kQvaEtA2Tf_20pin_project_internal, symObjAddr: 0x3C50, symBinAddr: 0x5095C, symSize: 0x14 }
  - { offset: 0x724C5, size: 0x8, addend: 0x0, symName: __RNvXs6_NtCsaNl6UpbT7bw_4core6optionINtB5_6OptionQNtNtCs807mVM355fU_3syn3pat3PatENtNtNtNtB7_4iter6traits7collect12IntoIterator9into_iterCs9kQvaEtA2Tf_20pin_project_internal, symObjAddr: 0x3C64, symBinAddr: 0x50970, symSize: 0x14 }
  - { offset: 0x724FC, size: 0x8, addend: 0x0, symName: __RNvXs6_NtCsaNl6UpbT7bw_4core6optionINtB5_6OptionQNtNtCs807mVM355fU_3syn3pat8FieldPatENtNtNtNtB7_4iter6traits7collect12IntoIterator9into_iterCs9kQvaEtA2Tf_20pin_project_internal, symObjAddr: 0x3C78, symBinAddr: 0x50984, symSize: 0x14 }
  - { offset: 0x72533, size: 0x8, addend: 0x0, symName: __RNvXs6_NtCsaNl6UpbT7bw_4core6optionINtB5_6OptionQNtNtCs807mVM355fU_3syn4data7VariantENtNtNtNtB7_4iter6traits7collect12IntoIterator9into_iterCs9kQvaEtA2Tf_20pin_project_internal, symObjAddr: 0x3C8C, symBinAddr: 0x50998, symSize: 0x14 }
  - { offset: 0x7256A, size: 0x8, addend: 0x0, symName: __RNvXs6_NtCsaNl6UpbT7bw_4core6optionINtB5_6OptionQNtNtCs807mVM355fU_3syn4expr10FieldValueENtNtNtNtB7_4iter6traits7collect12IntoIterator9into_iterCs9kQvaEtA2Tf_20pin_project_internal, symObjAddr: 0x3CA0, symBinAddr: 0x509AC, symSize: 0x14 }
  - { offset: 0x725A1, size: 0x8, addend: 0x0, symName: __RNvXs6_NtCsaNl6UpbT7bw_4core6optionINtB5_6OptionQNtNtCs807mVM355fU_3syn4expr21GenericMethodArgumentENtNtNtNtB7_4iter6traits7collect12IntoIterator9into_iterCs9kQvaEtA2Tf_20pin_project_internal, symObjAddr: 0x3CB4, symBinAddr: 0x509C0, symSize: 0x14 }
  - { offset: 0x725D8, size: 0x8, addend: 0x0, symName: __RNvXs6_NtCsaNl6UpbT7bw_4core6optionINtB5_6OptionQNtNtCs807mVM355fU_3syn4expr4ExprENtNtNtNtB7_4iter6traits7collect12IntoIterator9into_iterCs9kQvaEtA2Tf_20pin_project_internal, symObjAddr: 0x3CC8, symBinAddr: 0x509D4, symSize: 0x14 }
  - { offset: 0x7260F, size: 0x8, addend: 0x0, symName: __RNvXs6_NtCsaNl6UpbT7bw_4core6optionINtB5_6OptionQNtNtCs807mVM355fU_3syn4item7UseTreeENtNtNtNtB7_4iter6traits7collect12IntoIterator9into_iterCs9kQvaEtA2Tf_20pin_project_internal, symObjAddr: 0x3CDC, symBinAddr: 0x509E8, symSize: 0x14 }
  - { offset: 0x72646, size: 0x8, addend: 0x0, symName: __RNvXs6_NtCsaNl6UpbT7bw_4core6optionINtB5_6OptionQNtNtCs807mVM355fU_3syn4path15GenericArgumentENtNtNtNtB7_4iter6traits7collect12IntoIterator9into_iterCs9kQvaEtA2Tf_20pin_project_internal, symObjAddr: 0x3CF0, symBinAddr: 0x509FC, symSize: 0x14 }
  - { offset: 0x7267D, size: 0x8, addend: 0x0, symName: __RNvXs6_NtCsaNl6UpbT7bw_4core6optionINtB5_6OptionQNtNtCs807mVM355fU_3syn8generics11LifetimeDefENtNtNtNtB7_4iter6traits7collect12IntoIterator9into_iterCs9kQvaEtA2Tf_20pin_project_internal, symObjAddr: 0x3D04, symBinAddr: 0x50A10, symSize: 0x14 }
  - { offset: 0x726B4, size: 0x8, addend: 0x0, symName: __RNvXs6_NtCsaNl6UpbT7bw_4core6optionINtB5_6OptionQNtNtCs807mVM355fU_3syn8generics14TypeParamBoundENtNtNtNtB7_4iter6traits7collect12IntoIterator9into_iterCs9kQvaEtA2Tf_20pin_project_internal, symObjAddr: 0x3D18, symBinAddr: 0x50A24, symSize: 0x14 }
  - { offset: 0x726EB, size: 0x8, addend: 0x0, symName: __RNvXs6_NtCsaNl6UpbT7bw_4core6optionINtB5_6OptionQNtNtCs807mVM355fU_3syn8generics14WherePredicateENtNtNtNtB7_4iter6traits7collect12IntoIterator9into_iterCs9kQvaEtA2Tf_20pin_project_internal, symObjAddr: 0x3D2C, symBinAddr: 0x50A38, symSize: 0x14 }
  - { offset: 0x72722, size: 0x8, addend: 0x0, symName: __RNvXs6_NtCsaNl6UpbT7bw_4core6optionINtB5_6OptionQNtNtCs807mVM355fU_3syn8lifetime8LifetimeENtNtNtNtB7_4iter6traits7collect12IntoIterator9into_iterCs9kQvaEtA2Tf_20pin_project_internal, symObjAddr: 0x3D40, symBinAddr: 0x50A4C, symSize: 0x14 }
  - { offset: 0x7275F, size: 0x8, addend: 0x0, symName: __RNvXsC_NtCsaNl6UpbT7bw_4core6optionINtB5_6OptionNtCshnvkK9b4wzu_11proc_macro25IdentENtNtNtB7_3ops9try_trait3Try6branchCs9kQvaEtA2Tf_20pin_project_internal, symObjAddr: 0x3D54, symBinAddr: 0x50A60, symSize: 0x64 }
  - { offset: 0x727B5, size: 0x8, addend: 0x0, symName: __RNvXsC_NtCsaNl6UpbT7bw_4core6optionINtB5_6OptionNtNtCs807mVM355fU_3syn5parse11ParseBufferENtNtNtB7_3ops9try_trait3Try6branchCs9kQvaEtA2Tf_20pin_project_internal, symObjAddr: 0x3DB8, symBinAddr: 0x50AC4, symSize: 0x60 }
  - { offset: 0x72811, size: 0x8, addend: 0x0, symName: __RNvXsD_NtCsaNl6UpbT7bw_4core6optionINtB5_6OptionNtCshnvkK9b4wzu_11proc_macro211TokenStreamEINtNtNtB7_3ops9try_trait12FromResidualIBy_NtNtB7_7convert10InfallibleEE13from_residualCs9kQvaEtA2Tf_20pin_project_internal, symObjAddr: 0x3E18, symBinAddr: 0x50B24, symSize: 0x18 }
  - { offset: 0x729CA, size: 0x8, addend: 0x0, symName: __RNvXsP_NtCsaNl6UpbT7bw_4core6optionINtB5_8IntoIterRNtNtCs807mVM355fU_3syn3pat3PatENtNtB7_5clone5Clone5cloneCs9kQvaEtA2Tf_20pin_project_internal, symObjAddr: 0x3E30, symBinAddr: 0x50B3C, symSize: 0x68 }
  - { offset: 0x72A71, size: 0x8, addend: 0x0, symName: __RNvXsP_NtCsaNl6UpbT7bw_4core6optionINtB5_8IntoIterRNtNtCs807mVM355fU_3syn4attr10NestedMetaENtNtB7_5clone5Clone5cloneCs9kQvaEtA2Tf_20pin_project_internal, symObjAddr: 0x3E98, symBinAddr: 0x50BA4, symSize: 0x68 }
  - { offset: 0x72B18, size: 0x8, addend: 0x0, symName: __RNvXsP_NtCsaNl6UpbT7bw_4core6optionINtB5_8IntoIterRNtNtCs807mVM355fU_3syn4data7VariantENtNtB7_5clone5Clone5cloneCs9kQvaEtA2Tf_20pin_project_internal, symObjAddr: 0x3F00, symBinAddr: 0x50C0C, symSize: 0x68 }
  - { offset: 0x72BBF, size: 0x8, addend: 0x0, symName: __RNvXsP_NtCsaNl6UpbT7bw_4core6optionINtB5_8IntoIterRNtNtCs807mVM355fU_3syn4path15GenericArgumentENtNtB7_5clone5Clone5cloneCs9kQvaEtA2Tf_20pin_project_internal, symObjAddr: 0x3F68, symBinAddr: 0x50C74, symSize: 0x68 }
  - { offset: 0x72C6C, size: 0x8, addend: 0x0, symName: __RNvXsd_NtCsaNl6UpbT7bw_4core6optionINtB5_6OptionNtCshnvkK9b4wzu_11proc_macro25IdentENtNtB7_3cmp9PartialEq2eqCs9kQvaEtA2Tf_20pin_project_internal, symObjAddr: 0x4174, symBinAddr: 0x50E80, symSize: 0xAC }
  - { offset: 0x73078, size: 0x8, addend: 0x0, symName: __RNvXsw_NtCsaNl6UpbT7bw_4core6optionINtB5_8IntoIterQNtNtCs807mVM355fU_3syn2ty4TypeENtNtNtNtB7_4iter6traits8iterator8Iterator4nextCs9kQvaEtA2Tf_20pin_project_internal, symObjAddr: 0x4220, symBinAddr: 0x50F2C, symSize: 0x28 }
  - { offset: 0x730F0, size: 0x8, addend: 0x0, symName: __RNvXsw_NtCsaNl6UpbT7bw_4core6optionINtB5_8IntoIterQNtNtCs807mVM355fU_3syn2ty9BareFnArgENtNtNtNtB7_4iter6traits8iterator8Iterator4nextCs9kQvaEtA2Tf_20pin_project_internal, symObjAddr: 0x4248, symBinAddr: 0x50F54, symSize: 0x28 }
  - { offset: 0x73168, size: 0x8, addend: 0x0, symName: __RNvXsw_NtCsaNl6UpbT7bw_4core6optionINtB5_8IntoIterQNtNtCs807mVM355fU_3syn3pat3PatENtNtNtNtB7_4iter6traits8iterator8Iterator4nextCs9kQvaEtA2Tf_20pin_project_internal, symObjAddr: 0x4270, symBinAddr: 0x50F7C, symSize: 0x28 }
  - { offset: 0x731E0, size: 0x8, addend: 0x0, symName: __RNvXsw_NtCsaNl6UpbT7bw_4core6optionINtB5_8IntoIterQNtNtCs807mVM355fU_3syn3pat3PatENtNtNtNtB7_4iter6traits8iterator8Iterator9size_hintCs9kQvaEtA2Tf_20pin_project_internal, symObjAddr: 0x4298, symBinAddr: 0x50FA4, symSize: 0x44 }
  - { offset: 0x73258, size: 0x8, addend: 0x0, symName: __RNvXsw_NtCsaNl6UpbT7bw_4core6optionINtB5_8IntoIterQNtNtCs807mVM355fU_3syn3pat8FieldPatENtNtNtNtB7_4iter6traits8iterator8Iterator4nextCs9kQvaEtA2Tf_20pin_project_internal, symObjAddr: 0x42DC, symBinAddr: 0x50FE8, symSize: 0x28 }
  - { offset: 0x732D0, size: 0x8, addend: 0x0, symName: __RNvXsw_NtCsaNl6UpbT7bw_4core6optionINtB5_8IntoIterQNtNtCs807mVM355fU_3syn4data7VariantENtNtNtNtB7_4iter6traits8iterator8Iterator4nextCs9kQvaEtA2Tf_20pin_project_internal, symObjAddr: 0x4304, symBinAddr: 0x51010, symSize: 0x28 }
  - { offset: 0x73348, size: 0x8, addend: 0x0, symName: __RNvXsw_NtCsaNl6UpbT7bw_4core6optionINtB5_8IntoIterQNtNtCs807mVM355fU_3syn4expr10FieldValueENtNtNtNtB7_4iter6traits8iterator8Iterator4nextCs9kQvaEtA2Tf_20pin_project_internal, symObjAddr: 0x432C, symBinAddr: 0x51038, symSize: 0x28 }
  - { offset: 0x733C0, size: 0x8, addend: 0x0, symName: __RNvXsw_NtCsaNl6UpbT7bw_4core6optionINtB5_8IntoIterQNtNtCs807mVM355fU_3syn4expr21GenericMethodArgumentENtNtNtNtB7_4iter6traits8iterator8Iterator4nextCs9kQvaEtA2Tf_20pin_project_internal, symObjAddr: 0x4354, symBinAddr: 0x51060, symSize: 0x28 }
  - { offset: 0x73438, size: 0x8, addend: 0x0, symName: __RNvXsw_NtCsaNl6UpbT7bw_4core6optionINtB5_8IntoIterQNtNtCs807mVM355fU_3syn4expr4ExprENtNtNtNtB7_4iter6traits8iterator8Iterator4nextCs9kQvaEtA2Tf_20pin_project_internal, symObjAddr: 0x437C, symBinAddr: 0x51088, symSize: 0x28 }
  - { offset: 0x734B0, size: 0x8, addend: 0x0, symName: __RNvXsw_NtCsaNl6UpbT7bw_4core6optionINtB5_8IntoIterQNtNtCs807mVM355fU_3syn4item7UseTreeENtNtNtNtB7_4iter6traits8iterator8Iterator4nextCs9kQvaEtA2Tf_20pin_project_internal, symObjAddr: 0x43A4, symBinAddr: 0x510B0, symSize: 0x28 }
  - { offset: 0x73528, size: 0x8, addend: 0x0, symName: __RNvXsw_NtCsaNl6UpbT7bw_4core6optionINtB5_8IntoIterQNtNtCs807mVM355fU_3syn4path15GenericArgumentENtNtNtNtB7_4iter6traits8iterator8Iterator4nextCs9kQvaEtA2Tf_20pin_project_internal, symObjAddr: 0x43CC, symBinAddr: 0x510D8, symSize: 0x28 }
  - { offset: 0x735A0, size: 0x8, addend: 0x0, symName: __RNvXsw_NtCsaNl6UpbT7bw_4core6optionINtB5_8IntoIterQNtNtCs807mVM355fU_3syn8generics11LifetimeDefENtNtNtNtB7_4iter6traits8iterator8Iterator4nextCs9kQvaEtA2Tf_20pin_project_internal, symObjAddr: 0x43F4, symBinAddr: 0x51100, symSize: 0x28 }
  - { offset: 0x73618, size: 0x8, addend: 0x0, symName: __RNvXsw_NtCsaNl6UpbT7bw_4core6optionINtB5_8IntoIterQNtNtCs807mVM355fU_3syn8generics14TypeParamBoundENtNtNtNtB7_4iter6traits8iterator8Iterator4nextCs9kQvaEtA2Tf_20pin_project_internal, symObjAddr: 0x441C, symBinAddr: 0x51128, symSize: 0x28 }
  - { offset: 0x73690, size: 0x8, addend: 0x0, symName: __RNvXsw_NtCsaNl6UpbT7bw_4core6optionINtB5_8IntoIterQNtNtCs807mVM355fU_3syn8generics14WherePredicateENtNtNtNtB7_4iter6traits8iterator8Iterator4nextCs9kQvaEtA2Tf_20pin_project_internal, symObjAddr: 0x4444, symBinAddr: 0x51150, symSize: 0x28 }
  - { offset: 0x73708, size: 0x8, addend: 0x0, symName: __RNvXsw_NtCsaNl6UpbT7bw_4core6optionINtB5_8IntoIterQNtNtCs807mVM355fU_3syn8lifetime8LifetimeENtNtNtNtB7_4iter6traits8iterator8Iterator4nextCs9kQvaEtA2Tf_20pin_project_internal, symObjAddr: 0x446C, symBinAddr: 0x51178, symSize: 0x28 }
  - { offset: 0x73780, size: 0x8, addend: 0x0, symName: __RNvXsw_NtCsaNl6UpbT7bw_4core6optionINtB5_8IntoIterRNtNtCs807mVM355fU_3syn3pat3PatENtNtNtNtB7_4iter6traits8iterator8Iterator9size_hintCs9kQvaEtA2Tf_20pin_project_internal, symObjAddr: 0x4494, symBinAddr: 0x511A0, symSize: 0x44 }
  - { offset: 0x737F8, size: 0x8, addend: 0x0, symName: __RNvXsw_NtCsaNl6UpbT7bw_4core6optionINtB5_8IntoIterRNtNtCs807mVM355fU_3syn4attr10NestedMetaENtNtNtNtB7_4iter6traits8iterator8Iterator9size_hintCs9kQvaEtA2Tf_20pin_project_internal, symObjAddr: 0x44D8, symBinAddr: 0x511E4, symSize: 0x44 }
  - { offset: 0x73870, size: 0x8, addend: 0x0, symName: __RNvXsw_NtCsaNl6UpbT7bw_4core6optionINtB5_8IntoIterRNtNtCs807mVM355fU_3syn4data7VariantENtNtNtNtB7_4iter6traits8iterator8Iterator9size_hintCs9kQvaEtA2Tf_20pin_project_internal, symObjAddr: 0x451C, symBinAddr: 0x51228, symSize: 0x44 }
  - { offset: 0x738E8, size: 0x8, addend: 0x0, symName: __RNvXsw_NtCsaNl6UpbT7bw_4core6optionINtB5_8IntoIterRNtNtCs807mVM355fU_3syn4path15GenericArgumentENtNtNtNtB7_4iter6traits8iterator8Iterator9size_hintCs9kQvaEtA2Tf_20pin_project_internal, symObjAddr: 0x4560, symBinAddr: 0x5126C, symSize: 0x44 }
  - { offset: 0x74DDC, size: 0x8, addend: 0x0, symName: __RNvYINtNtCsaNl6UpbT7bw_4core6option8IntoIterQNtNtCs807mVM355fU_3syn3pat3PatENtNtNtNtB7_4iter6traits10exact_size17ExactSizeIterator3lenCs9kQvaEtA2Tf_20pin_project_internal, symObjAddr: 0x45A4, symBinAddr: 0x512B0, symSize: 0xC4 }
  - { offset: 0x74ED7, size: 0x8, addend: 0x0, symName: __RNvYINtNtCsaNl6UpbT7bw_4core6option8IntoIterRNtNtCs807mVM355fU_3syn3pat3PatENtNtNtNtB7_4iter6traits10exact_size17ExactSizeIterator3lenCs9kQvaEtA2Tf_20pin_project_internal, symObjAddr: 0x4668, symBinAddr: 0x51374, symSize: 0xC4 }
  - { offset: 0x74FD2, size: 0x8, addend: 0x0, symName: __RNvYINtNtCsaNl6UpbT7bw_4core6option8IntoIterRNtNtCs807mVM355fU_3syn4attr10NestedMetaENtNtNtNtB7_4iter6traits10exact_size17ExactSizeIterator3lenCs9kQvaEtA2Tf_20pin_project_internal, symObjAddr: 0x472C, symBinAddr: 0x51438, symSize: 0xC4 }
  - { offset: 0x750CD, size: 0x8, addend: 0x0, symName: __RNvYINtNtCsaNl6UpbT7bw_4core6option8IntoIterRNtNtCs807mVM355fU_3syn4data7VariantENtNtNtNtB7_4iter6traits10exact_size17ExactSizeIterator3lenCs9kQvaEtA2Tf_20pin_project_internal, symObjAddr: 0x47F0, symBinAddr: 0x514FC, symSize: 0xC4 }
  - { offset: 0x751C8, size: 0x8, addend: 0x0, symName: __RNvYINtNtCsaNl6UpbT7bw_4core6option8IntoIterRNtNtCs807mVM355fU_3syn4path15GenericArgumentENtNtNtNtB7_4iter6traits10exact_size17ExactSizeIterator3lenCs9kQvaEtA2Tf_20pin_project_internal, symObjAddr: 0x48B4, symBinAddr: 0x515C0, symSize: 0xC4 }
  - { offset: 0x7C839, size: 0x8, addend: 0x0, symName: __RINvMNtCsaNl6UpbT7bw_4core6optionINtB3_6OptionINtNtCs807mVM355fU_3syn10punctuated4PairQNtNtBN_2ty4TypeQNtNtBN_5token5CommaEE7or_elseNCNvXsc_BL_INtBL_8PairsMutB1n_B1D_ENtNtNtNtB5_4iter6traits8iterator8Iterator4nexts_0ECs9kQvaEtA2Tf_20pin_project_internal, symObjAddr: 0x0, symBinAddr: 0x4CD0C, symSize: 0xB4 }
  - { offset: 0x7C8EA, size: 0x8, addend: 0x0, symName: __RINvMNtCsaNl6UpbT7bw_4core6optionINtB3_6OptionINtNtCs807mVM355fU_3syn10punctuated4PairQNtNtBN_2ty9BareFnArgQNtNtBN_5token5CommaEE7or_elseNCNvXsc_BL_INtBL_8PairsMutB1n_B1I_ENtNtNtNtB5_4iter6traits8iterator8Iterator4nexts_0ECs9kQvaEtA2Tf_20pin_project_internal, symObjAddr: 0xB4, symBinAddr: 0x4CDC0, symSize: 0xB4 }
  - { offset: 0x7C9A8, size: 0x8, addend: 0x0, symName: __RINvMNtCsaNl6UpbT7bw_4core6optionINtB3_6OptionINtNtCs807mVM355fU_3syn10punctuated4PairQNtNtBN_3pat3PatQNtNtBN_5token2OrEE7or_elseNCNvXsc_BL_INtBL_8PairsMutB1n_B1D_ENtNtNtNtB5_4iter6traits8iterator8Iterator4nexts_0ECs9kQvaEtA2Tf_20pin_project_internal, symObjAddr: 0x168, symBinAddr: 0x4CE74, symSize: 0xB4 }
  - { offset: 0x7CA4C, size: 0x8, addend: 0x0, symName: __RINvMNtCsaNl6UpbT7bw_4core6optionINtB3_6OptionINtNtCs807mVM355fU_3syn10punctuated4PairQNtNtBN_3pat3PatQNtNtBN_5token5CommaEE7or_elseNCNvXsc_BL_INtBL_8PairsMutB1n_B1D_ENtNtNtNtB5_4iter6traits8iterator8Iterator4nexts_0ECs9kQvaEtA2Tf_20pin_project_internal, symObjAddr: 0x21C, symBinAddr: 0x4CF28, symSize: 0xB4 }
  - { offset: 0x7CAFD, size: 0x8, addend: 0x0, symName: __RINvMNtCsaNl6UpbT7bw_4core6optionINtB3_6OptionINtNtCs807mVM355fU_3syn10punctuated4PairQNtNtBN_3pat8FieldPatQNtNtBN_5token5CommaEE7or_elseNCNvXsc_BL_INtBL_8PairsMutB1n_B1I_ENtNtNtNtB5_4iter6traits8iterator8Iterator4nexts_0ECs9kQvaEtA2Tf_20pin_project_internal, symObjAddr: 0x2D0, symBinAddr: 0x4CFDC, symSize: 0xB4 }
  - { offset: 0x7CBAE, size: 0x8, addend: 0x0, symName: __RINvMNtCsaNl6UpbT7bw_4core6optionINtB3_6OptionINtNtCs807mVM355fU_3syn10punctuated4PairQNtNtBN_4data5FieldQNtNtBN_5token5CommaEE7or_elseNCNvXsc_BL_INtBL_8PairsMutB1n_B1G_ENtNtNtNtB5_4iter6traits8iterator8Iterator4nexts_0ECs9kQvaEtA2Tf_20pin_project_internal, symObjAddr: 0x384, symBinAddr: 0x4D090, symSize: 0xB4 }
  - { offset: 0x7CC5F, size: 0x8, addend: 0x0, symName: __RINvMNtCsaNl6UpbT7bw_4core6optionINtB3_6OptionINtNtCs807mVM355fU_3syn10punctuated4PairQNtNtBN_4data7VariantQNtNtBN_5token5CommaEE7or_elseNCNvXsc_BL_INtBL_8PairsMutB1n_B1I_ENtNtNtNtB5_4iter6traits8iterator8Iterator4nexts_0ECs9kQvaEtA2Tf_20pin_project_internal, symObjAddr: 0x438, symBinAddr: 0x4D144, symSize: 0xB4 }
  - { offset: 0x7CD10, size: 0x8, addend: 0x0, symName: __RINvMNtCsaNl6UpbT7bw_4core6optionINtB3_6OptionINtNtCs807mVM355fU_3syn10punctuated4PairQNtNtBN_4expr10FieldValueQNtNtBN_5token5CommaEE7or_elseNCNvXsc_BL_INtBL_8PairsMutB1n_B1M_ENtNtNtNtB5_4iter6traits8iterator8Iterator4nexts_0ECs9kQvaEtA2Tf_20pin_project_internal, symObjAddr: 0x4EC, symBinAddr: 0x4D1F8, symSize: 0xB4 }
  - { offset: 0x7CDC1, size: 0x8, addend: 0x0, symName: __RINvMNtCsaNl6UpbT7bw_4core6optionINtB3_6OptionINtNtCs807mVM355fU_3syn10punctuated4PairQNtNtBN_4expr21GenericMethodArgumentQNtNtBN_5token5CommaEE7or_elseNCNvXsc_BL_INtBL_8PairsMutB1n_B1X_ENtNtNtNtB5_4iter6traits8iterator8Iterator4nexts_0ECs9kQvaEtA2Tf_20pin_project_internal, symObjAddr: 0x5A0, symBinAddr: 0x4D2AC, symSize: 0xB4 }
  - { offset: 0x7CE72, size: 0x8, addend: 0x0, symName: __RINvMNtCsaNl6UpbT7bw_4core6optionINtB3_6OptionINtNtCs807mVM355fU_3syn10punctuated4PairQNtNtBN_4expr4ExprQNtNtBN_5token5CommaEE7or_elseNCNvXsc_BL_INtBL_8PairsMutB1n_B1F_ENtNtNtNtB5_4iter6traits8iterator8Iterator4nexts_0ECs9kQvaEtA2Tf_20pin_project_internal, symObjAddr: 0x654, symBinAddr: 0x4D360, symSize: 0xB4 }
  - { offset: 0x7CF23, size: 0x8, addend: 0x0, symName: __RINvMNtCsaNl6UpbT7bw_4core6optionINtB3_6OptionINtNtCs807mVM355fU_3syn10punctuated4PairQNtNtBN_4item5FnArgQNtNtBN_5token5CommaEE7or_elseNCNvXsc_BL_INtBL_8PairsMutB1n_B1G_ENtNtNtNtB5_4iter6traits8iterator8Iterator4nexts_0ECs9kQvaEtA2Tf_20pin_project_internal, symObjAddr: 0x708, symBinAddr: 0x4D414, symSize: 0xB4 }
  - { offset: 0x7CFD4, size: 0x8, addend: 0x0, symName: __RINvMNtCsaNl6UpbT7bw_4core6optionINtB3_6OptionINtNtCs807mVM355fU_3syn10punctuated4PairQNtNtBN_4item7UseTreeQNtNtBN_5token5CommaEE7or_elseNCNvXsc_BL_INtBL_8PairsMutB1n_B1I_ENtNtNtNtB5_4iter6traits8iterator8Iterator4nexts_0ECs9kQvaEtA2Tf_20pin_project_internal, symObjAddr: 0x7BC, symBinAddr: 0x4D4C8, symSize: 0xB4 }
  - { offset: 0x7D085, size: 0x8, addend: 0x0, symName: __RINvMNtCsaNl6UpbT7bw_4core6optionINtB3_6OptionINtNtCs807mVM355fU_3syn10punctuated4PairQNtNtBN_4path15GenericArgumentQNtNtBN_5token5CommaEE7or_elseNCNvXsc_BL_INtBL_8PairsMutB1n_B1R_ENtNtNtNtB5_4iter6traits8iterator8Iterator4nexts_0ECs9kQvaEtA2Tf_20pin_project_internal, symObjAddr: 0x870, symBinAddr: 0x4D57C, symSize: 0xB4 }
  - { offset: 0x7D136, size: 0x8, addend: 0x0, symName: __RINvMNtCsaNl6UpbT7bw_4core6optionINtB3_6OptionINtNtCs807mVM355fU_3syn10punctuated4PairQNtNtBN_8generics11LifetimeDefQNtNtBN_5token5CommaEE7or_elseNCNvXsc_BL_INtBL_8PairsMutB1n_B1R_ENtNtNtNtB5_4iter6traits8iterator8Iterator4nexts_0ECs9kQvaEtA2Tf_20pin_project_internal, symObjAddr: 0x924, symBinAddr: 0x4D630, symSize: 0xB4 }
  - { offset: 0x7D1E7, size: 0x8, addend: 0x0, symName: __RINvMNtCsaNl6UpbT7bw_4core6optionINtB3_6OptionINtNtCs807mVM355fU_3syn10punctuated4PairQNtNtBN_8generics12GenericParamQNtNtBN_5token5CommaEE7or_elseNCNvXsc_BL_INtBL_8PairsMutB1n_B1S_ENtNtNtNtB5_4iter6traits8iterator8Iterator4nexts_0ECs9kQvaEtA2Tf_20pin_project_internal, symObjAddr: 0x9D8, symBinAddr: 0x4D6E4, symSize: 0xB4 }
  - { offset: 0x7D2A5, size: 0x8, addend: 0x0, symName: __RINvMNtCsaNl6UpbT7bw_4core6optionINtB3_6OptionINtNtCs807mVM355fU_3syn10punctuated4PairQNtNtBN_8generics14TypeParamBoundQNtNtBN_5token3AddEE7or_elseNCNvXsc_BL_INtBL_8PairsMutB1n_B1U_ENtNtNtNtB5_4iter6traits8iterator8Iterator4nexts_0ECs9kQvaEtA2Tf_20pin_project_internal, symObjAddr: 0xA8C, symBinAddr: 0x4D798, symSize: 0xB4 }
  - { offset: 0x7D356, size: 0x8, addend: 0x0, symName: __RINvMNtCsaNl6UpbT7bw_4core6optionINtB3_6OptionINtNtCs807mVM355fU_3syn10punctuated4PairQNtNtBN_8generics14WherePredicateQNtNtBN_5token5CommaEE7or_elseNCNvXsc_BL_INtBL_8PairsMutB1n_B1U_ENtNtNtNtB5_4iter6traits8iterator8Iterator4nexts_0ECs9kQvaEtA2Tf_20pin_project_internal, symObjAddr: 0xB40, symBinAddr: 0x4D84C, symSize: 0xB4 }
  - { offset: 0x7D407, size: 0x8, addend: 0x0, symName: __RINvMNtCsaNl6UpbT7bw_4core6optionINtB3_6OptionINtNtCs807mVM355fU_3syn10punctuated4PairQNtNtBN_8lifetime8LifetimeQNtNtBN_5token3AddEE7or_elseNCNvXsc_BL_INtBL_8PairsMutB1n_B1N_ENtNtNtNtB5_4iter6traits8iterator8Iterator4nexts_0ECs9kQvaEtA2Tf_20pin_project_internal, symObjAddr: 0xBF4, symBinAddr: 0x4D900, symSize: 0xB4 }
  - { offset: 0x7D4D2, size: 0x8, addend: 0x0, symName: __RINvMNtCsaNl6UpbT7bw_4core6optionINtB3_6OptionNtCshnvkK9b4wzu_11proc_macro24SpanE3mapNtBK_11TokenStreamNCNvMs1_NtNtCs9kQvaEtA2Tf_20pin_project_internal11pin_project6deriveNtB1L_7Context14make_proj_impl0EB1P_, symObjAddr: 0xCA8, symBinAddr: 0x4D9B4, symSize: 0x98 }
  - { offset: 0x7D576, size: 0x8, addend: 0x0, symName: __RINvMNtCsaNl6UpbT7bw_4core6optionINtB3_6OptionNtCshnvkK9b4wzu_11proc_macro25IdentE14unwrap_or_elseNCNvMs1_NtNtCs9kQvaEtA2Tf_20pin_project_internal11pin_project6deriveNtB1G_7Context12visit_fields0EB1K_, symObjAddr: 0xD40, symBinAddr: 0x4DA4C, symSize: 0x78 }
  - { offset: 0x7D5D9, size: 0x8, addend: 0x0, symName: __RINvMNtCsaNl6UpbT7bw_4core6optionINtB3_6OptionNtCshnvkK9b4wzu_11proc_macro25IdentE14unwrap_or_elseNCNvMs1_NtNtCs9kQvaEtA2Tf_20pin_project_internal11pin_project6deriveNtB1G_7Context3new0EB1K_, symObjAddr: 0xDB8, symBinAddr: 0x4DAC4, symSize: 0x78 }
  - { offset: 0x7D63C, size: 0x8, addend: 0x0, symName: __RINvMNtCsaNl6UpbT7bw_4core6optionINtB3_6OptionNtCshnvkK9b4wzu_11proc_macro25IdentE14unwrap_or_elseNCNvMs1_NtNtCs9kQvaEtA2Tf_20pin_project_internal11pin_project6deriveNtB1G_7Context3news0_0EB1K_, symObjAddr: 0xE30, symBinAddr: 0x4DB3C, symSize: 0x78 }
  - { offset: 0x7D69F, size: 0x8, addend: 0x0, symName: __RINvMNtCsaNl6UpbT7bw_4core6optionINtB3_6OptionNtCshnvkK9b4wzu_11proc_macro25IdentE14unwrap_or_elseNCNvMs1_NtNtCs9kQvaEtA2Tf_20pin_project_internal11pin_project6deriveNtB1G_7Context3news_0EB1K_, symObjAddr: 0xEA8, symBinAddr: 0x4DBB4, symSize: 0x78 }
  - { offset: 0x7D784, size: 0x8, addend: 0x0, symName: __RINvMNtCsaNl6UpbT7bw_4core6optionINtB3_6OptionNtNtCs807mVM355fU_3syn5token2GtE18get_or_insert_withNvYBI_NtNtB5_7default7Default7defaultECs9kQvaEtA2Tf_20pin_project_internal, symObjAddr: 0xF20, symBinAddr: 0x4DC2C, symSize: 0x110 }
  - { offset: 0x7D8A1, size: 0x8, addend: 0x0, symName: __RINvMNtCsaNl6UpbT7bw_4core6optionINtB3_6OptionNtNtCs807mVM355fU_3syn5token2LtE18get_or_insert_withNvYBI_NtNtB5_7default7Default7defaultECs9kQvaEtA2Tf_20pin_project_internal, symObjAddr: 0x1030, symBinAddr: 0x4DD3C, symSize: 0x110 }
  - { offset: 0x7D961, size: 0x8, addend: 0x0, symName: __RINvMNtCsaNl6UpbT7bw_4core6optionINtB3_6OptionQINtNtCsiTraAjBDcu4_5alloc5boxed3BoxNtNtCs807mVM355fU_3syn2ty4TypeEE3mapQB1i_NvYBJ_INtNtB5_7convert5AsMutB1i_E6as_mutECs9kQvaEtA2Tf_20pin_project_internal, symObjAddr: 0x1140, symBinAddr: 0x4DE4C, symSize: 0x50 }
  - { offset: 0x7D9F1, size: 0x8, addend: 0x0, symName: __RINvMNtCsaNl6UpbT7bw_4core6optionINtB3_6OptionQINtNtCsiTraAjBDcu4_5alloc5boxed3BoxNtNtCs807mVM355fU_3syn2ty9BareFnArgEE3mapQB1i_NvYBJ_INtNtB5_7convert5AsMutB1i_E6as_mutECs9kQvaEtA2Tf_20pin_project_internal, symObjAddr: 0x1190, symBinAddr: 0x4DE9C, symSize: 0x50 }
  - { offset: 0x7DA81, size: 0x8, addend: 0x0, symName: __RINvMNtCsaNl6UpbT7bw_4core6optionINtB3_6OptionQINtNtCsiTraAjBDcu4_5alloc5boxed3BoxNtNtCs807mVM355fU_3syn3pat3PatEE3mapQB1i_NvYBJ_INtNtB5_7convert5AsMutB1i_E6as_mutECs9kQvaEtA2Tf_20pin_project_internal, symObjAddr: 0x11E0, symBinAddr: 0x4DEEC, symSize: 0x50 }
  - { offset: 0x7DB11, size: 0x8, addend: 0x0, symName: __RINvMNtCsaNl6UpbT7bw_4core6optionINtB3_6OptionQINtNtCsiTraAjBDcu4_5alloc5boxed3BoxNtNtCs807mVM355fU_3syn3pat8FieldPatEE3mapQB1i_NvYBJ_INtNtB5_7convert5AsMutB1i_E6as_mutECs9kQvaEtA2Tf_20pin_project_internal, symObjAddr: 0x1230, symBinAddr: 0x4DF3C, symSize: 0x50 }
  - { offset: 0x7DBA1, size: 0x8, addend: 0x0, symName: __RINvMNtCsaNl6UpbT7bw_4core6optionINtB3_6OptionQINtNtCsiTraAjBDcu4_5alloc5boxed3BoxNtNtCs807mVM355fU_3syn4data7VariantEE3mapQB1i_NvYBJ_INtNtB5_7convert5AsMutB1i_E6as_mutECs9kQvaEtA2Tf_20pin_project_internal, symObjAddr: 0x1280, symBinAddr: 0x4DF8C, symSize: 0x50 }
  - { offset: 0x7DC31, size: 0x8, addend: 0x0, symName: __RINvMNtCsaNl6UpbT7bw_4core6optionINtB3_6OptionQINtNtCsiTraAjBDcu4_5alloc5boxed3BoxNtNtCs807mVM355fU_3syn4expr10FieldValueEE3mapQB1i_NvYBJ_INtNtB5_7convert5AsMutB1i_E6as_mutECs9kQvaEtA2Tf_20pin_project_internal, symObjAddr: 0x12D0, symBinAddr: 0x4DFDC, symSize: 0x50 }
  - { offset: 0x7DCC1, size: 0x8, addend: 0x0, symName: __RINvMNtCsaNl6UpbT7bw_4core6optionINtB3_6OptionQINtNtCsiTraAjBDcu4_5alloc5boxed3BoxNtNtCs807mVM355fU_3syn4expr21GenericMethodArgumentEE3mapQB1i_NvYBJ_INtNtB5_7convert5AsMutB1i_E6as_mutECs9kQvaEtA2Tf_20pin_project_internal, symObjAddr: 0x1320, symBinAddr: 0x4E02C, symSize: 0x50 }
  - { offset: 0x7DD51, size: 0x8, addend: 0x0, symName: __RINvMNtCsaNl6UpbT7bw_4core6optionINtB3_6OptionQINtNtCsiTraAjBDcu4_5alloc5boxed3BoxNtNtCs807mVM355fU_3syn4expr4ExprEE3mapQB1i_NvYBJ_INtNtB5_7convert5AsMutB1i_E6as_mutECs9kQvaEtA2Tf_20pin_project_internal, symObjAddr: 0x1370, symBinAddr: 0x4E07C, symSize: 0x50 }
  - { offset: 0x7DDE1, size: 0x8, addend: 0x0, symName: __RINvMNtCsaNl6UpbT7bw_4core6optionINtB3_6OptionQINtNtCsiTraAjBDcu4_5alloc5boxed3BoxNtNtCs807mVM355fU_3syn4item7UseTreeEE3mapQB1i_NvYBJ_INtNtB5_7convert5AsMutB1i_E6as_mutECs9kQvaEtA2Tf_20pin_project_internal, symObjAddr: 0x13C0, symBinAddr: 0x4E0CC, symSize: 0x50 }
  - { offset: 0x7DE71, size: 0x8, addend: 0x0, symName: __RINvMNtCsaNl6UpbT7bw_4core6optionINtB3_6OptionQINtNtCsiTraAjBDcu4_5alloc5boxed3BoxNtNtCs807mVM355fU_3syn4path15GenericArgumentEE3mapQB1i_NvYBJ_INtNtB5_7convert5AsMutB1i_E6as_mutECs9kQvaEtA2Tf_20pin_project_internal, symObjAddr: 0x1410, symBinAddr: 0x4E11C, symSize: 0x50 }
  - { offset: 0x7DF01, size: 0x8, addend: 0x0, symName: __RINvMNtCsaNl6UpbT7bw_4core6optionINtB3_6OptionQINtNtCsiTraAjBDcu4_5alloc5boxed3BoxNtNtCs807mVM355fU_3syn8generics11LifetimeDefEE3mapQB1i_NvYBJ_INtNtB5_7convert5AsMutB1i_E6as_mutECs9kQvaEtA2Tf_20pin_project_internal, symObjAddr: 0x1460, symBinAddr: 0x4E16C, symSize: 0x50 }
  - { offset: 0x7DF91, size: 0x8, addend: 0x0, symName: __RINvMNtCsaNl6UpbT7bw_4core6optionINtB3_6OptionQINtNtCsiTraAjBDcu4_5alloc5boxed3BoxNtNtCs807mVM355fU_3syn8generics14TypeParamBoundEE3mapQB1i_NvYBJ_INtNtB5_7convert5AsMutB1i_E6as_mutECs9kQvaEtA2Tf_20pin_project_internal, symObjAddr: 0x14B0, symBinAddr: 0x4E1BC, symSize: 0x50 }
  - { offset: 0x7E021, size: 0x8, addend: 0x0, symName: __RINvMNtCsaNl6UpbT7bw_4core6optionINtB3_6OptionQINtNtCsiTraAjBDcu4_5alloc5boxed3BoxNtNtCs807mVM355fU_3syn8generics14WherePredicateEE3mapQB1i_NvYBJ_INtNtB5_7convert5AsMutB1i_E6as_mutECs9kQvaEtA2Tf_20pin_project_internal, symObjAddr: 0x1500, symBinAddr: 0x4E20C, symSize: 0x50 }
  - { offset: 0x7E0B1, size: 0x8, addend: 0x0, symName: __RINvMNtCsaNl6UpbT7bw_4core6optionINtB3_6OptionQINtNtCsiTraAjBDcu4_5alloc5boxed3BoxNtNtCs807mVM355fU_3syn8lifetime8LifetimeEE3mapQB1i_NvYBJ_INtNtB5_7convert5AsMutB1i_E6as_mutECs9kQvaEtA2Tf_20pin_project_internal, symObjAddr: 0x1550, symBinAddr: 0x4E25C, symSize: 0x50 }
  - { offset: 0x7E134, size: 0x8, addend: 0x0, symName: __RINvMNtCsaNl6UpbT7bw_4core6optionINtB3_6OptionQNtNtCs807mVM355fU_3syn2ty4TypeE3mapINtNtBN_10punctuated4PairBI_QNtNtBN_5token5CommaENcNtB1i_3End0ECs9kQvaEtA2Tf_20pin_project_internal, symObjAddr: 0x15A0, symBinAddr: 0x4E2AC, symSize: 0x68 }
  - { offset: 0x7E1B7, size: 0x8, addend: 0x0, symName: __RINvMNtCsaNl6UpbT7bw_4core6optionINtB3_6OptionQNtNtCs807mVM355fU_3syn2ty9BareFnArgE3mapINtNtBN_10punctuated4PairBI_QNtNtBN_5token5CommaENcNtB1n_3End0ECs9kQvaEtA2Tf_20pin_project_internal, symObjAddr: 0x1608, symBinAddr: 0x4E314, symSize: 0x68 }
  - { offset: 0x7E23A, size: 0x8, addend: 0x0, symName: __RINvMNtCsaNl6UpbT7bw_4core6optionINtB3_6OptionQNtNtCs807mVM355fU_3syn3pat3PatE3mapINtNtBN_10punctuated4PairBI_QNtNtBN_5token2OrENcNtB1i_3End0ECs9kQvaEtA2Tf_20pin_project_internal, symObjAddr: 0x1670, symBinAddr: 0x4E37C, symSize: 0x68 }
  - { offset: 0x7E2BD, size: 0x8, addend: 0x0, symName: __RINvMNtCsaNl6UpbT7bw_4core6optionINtB3_6OptionQNtNtCs807mVM355fU_3syn3pat3PatE3mapINtNtBN_10punctuated4PairBI_QNtNtBN_5token5CommaENcNtB1i_3End0ECs9kQvaEtA2Tf_20pin_project_internal, symObjAddr: 0x16D8, symBinAddr: 0x4E3E4, symSize: 0x68 }
  - { offset: 0x7E342, size: 0x8, addend: 0x0, symName: __RINvMNtCsaNl6UpbT7bw_4core6optionINtB3_6OptionQNtNtCs807mVM355fU_3syn3pat3PatE7or_elseNCNvXsB_NtBN_10punctuatedINtB1u_14PrivateIterMutBJ_NtNtBN_5token2OrENtNtNtNtB5_4iter6traits8iterator8Iterator4nexts_0ECs9kQvaEtA2Tf_20pin_project_internal, symObjAddr: 0x1740, symBinAddr: 0x4E44C, symSize: 0xA8 }
  - { offset: 0x7E3A4, size: 0x8, addend: 0x0, symName: __RINvMNtCsaNl6UpbT7bw_4core6optionINtB3_6OptionQNtNtCs807mVM355fU_3syn3pat3PatE7or_elseNCNvXsC_NtBN_10punctuatedINtB1u_14PrivateIterMutBJ_NtNtBN_5token2OrENtNtNtNtB5_4iter6traits12double_ended19DoubleEndedIterator9next_back0ECs9kQvaEtA2Tf_20pin_project_internal, symObjAddr: 0x17E8, symBinAddr: 0x4E4F4, symSize: 0xA8 }
  - { offset: 0x7E41E, size: 0x8, addend: 0x0, symName: __RINvMNtCsaNl6UpbT7bw_4core6optionINtB3_6OptionQNtNtCs807mVM355fU_3syn3pat8FieldPatE3mapINtNtBN_10punctuated4PairBI_QNtNtBN_5token5CommaENcNtB1n_3End0ECs9kQvaEtA2Tf_20pin_project_internal, symObjAddr: 0x1890, symBinAddr: 0x4E59C, symSize: 0x68 }
  - { offset: 0x7E4A1, size: 0x8, addend: 0x0, symName: __RINvMNtCsaNl6UpbT7bw_4core6optionINtB3_6OptionQNtNtCs807mVM355fU_3syn4data5FieldE3mapINtNtBN_10punctuated4PairBI_QNtNtBN_5token5CommaENcNtB1l_3End0ECs9kQvaEtA2Tf_20pin_project_internal, symObjAddr: 0x18F8, symBinAddr: 0x4E604, symSize: 0x68 }
  - { offset: 0x7E524, size: 0x8, addend: 0x0, symName: __RINvMNtCsaNl6UpbT7bw_4core6optionINtB3_6OptionQNtNtCs807mVM355fU_3syn4data7VariantE3mapINtNtBN_10punctuated4PairBI_QNtNtBN_5token5CommaENcNtB1n_3End0ECs9kQvaEtA2Tf_20pin_project_internal, symObjAddr: 0x1960, symBinAddr: 0x4E66C, symSize: 0x68 }
  - { offset: 0x7E5A7, size: 0x8, addend: 0x0, symName: __RINvMNtCsaNl6UpbT7bw_4core6optionINtB3_6OptionQNtNtCs807mVM355fU_3syn4expr10FieldValueE3mapINtNtBN_10punctuated4PairBI_QNtNtBN_5token5CommaENcNtB1r_3End0ECs9kQvaEtA2Tf_20pin_project_internal, symObjAddr: 0x19C8, symBinAddr: 0x4E6D4, symSize: 0x68 }
  - { offset: 0x7E62A, size: 0x8, addend: 0x0, symName: __RINvMNtCsaNl6UpbT7bw_4core6optionINtB3_6OptionQNtNtCs807mVM355fU_3syn4expr21GenericMethodArgumentE3mapINtNtBN_10punctuated4PairBI_QNtNtBN_5token5CommaENcNtB1C_3End0ECs9kQvaEtA2Tf_20pin_project_internal, symObjAddr: 0x1A30, symBinAddr: 0x4E73C, symSize: 0x68 }
  - { offset: 0x7E6AD, size: 0x8, addend: 0x0, symName: __RINvMNtCsaNl6UpbT7bw_4core6optionINtB3_6OptionQNtNtCs807mVM355fU_3syn4expr4ExprE3mapINtNtBN_10punctuated4PairBI_QNtNtBN_5token5CommaENcNtB1k_3End0ECs9kQvaEtA2Tf_20pin_project_internal, symObjAddr: 0x1A98, symBinAddr: 0x4E7A4, symSize: 0x68 }
  - { offset: 0x7E730, size: 0x8, addend: 0x0, symName: __RINvMNtCsaNl6UpbT7bw_4core6optionINtB3_6OptionQNtNtCs807mVM355fU_3syn4item5FnArgE3mapINtNtBN_10punctuated4PairBI_QNtNtBN_5token5CommaENcNtB1l_3End0ECs9kQvaEtA2Tf_20pin_project_internal, symObjAddr: 0x1B00, symBinAddr: 0x4E80C, symSize: 0x68 }
  - { offset: 0x7E7B3, size: 0x8, addend: 0x0, symName: __RINvMNtCsaNl6UpbT7bw_4core6optionINtB3_6OptionQNtNtCs807mVM355fU_3syn4item7UseTreeE3mapINtNtBN_10punctuated4PairBI_QNtNtBN_5token5CommaENcNtB1n_3End0ECs9kQvaEtA2Tf_20pin_project_internal, symObjAddr: 0x1B68, symBinAddr: 0x4E874, symSize: 0x68 }
  - { offset: 0x7E836, size: 0x8, addend: 0x0, symName: __RINvMNtCsaNl6UpbT7bw_4core6optionINtB3_6OptionQNtNtCs807mVM355fU_3syn4path15GenericArgumentE3mapINtNtBN_10punctuated4PairBI_QNtNtBN_5token5CommaENcNtB1w_3End0ECs9kQvaEtA2Tf_20pin_project_internal, symObjAddr: 0x1BD0, symBinAddr: 0x4E8DC, symSize: 0x68 }
  - { offset: 0x7E8B9, size: 0x8, addend: 0x0, symName: __RINvMNtCsaNl6UpbT7bw_4core6optionINtB3_6OptionQNtNtCs807mVM355fU_3syn8generics11LifetimeDefE3mapINtNtBN_10punctuated4PairBI_QNtNtBN_5token5CommaENcNtB1w_3End0ECs9kQvaEtA2Tf_20pin_project_internal, symObjAddr: 0x1C38, symBinAddr: 0x4E944, symSize: 0x68 }
  - { offset: 0x7E93C, size: 0x8, addend: 0x0, symName: __RINvMNtCsaNl6UpbT7bw_4core6optionINtB3_6OptionQNtNtCs807mVM355fU_3syn8generics12GenericParamE3mapINtNtBN_10punctuated4PairBI_QNtNtBN_5token5CommaENcNtB1x_3End0ECs9kQvaEtA2Tf_20pin_project_internal, symObjAddr: 0x1CA0, symBinAddr: 0x4E9AC, symSize: 0x68 }
  - { offset: 0x7E9BF, size: 0x8, addend: 0x0, symName: __RINvMNtCsaNl6UpbT7bw_4core6optionINtB3_6OptionQNtNtCs807mVM355fU_3syn8generics14TypeParamBoundE3mapINtNtBN_10punctuated4PairBI_QNtNtBN_5token3AddENcNtB1z_3End0ECs9kQvaEtA2Tf_20pin_project_internal, symObjAddr: 0x1D08, symBinAddr: 0x4EA14, symSize: 0x68 }
  - { offset: 0x7EA42, size: 0x8, addend: 0x0, symName: __RINvMNtCsaNl6UpbT7bw_4core6optionINtB3_6OptionQNtNtCs807mVM355fU_3syn8generics14WherePredicateE3mapINtNtBN_10punctuated4PairBI_QNtNtBN_5token5CommaENcNtB1z_3End0ECs9kQvaEtA2Tf_20pin_project_internal, symObjAddr: 0x1D70, symBinAddr: 0x4EA7C, symSize: 0x68 }
  - { offset: 0x7EAC5, size: 0x8, addend: 0x0, symName: __RINvMNtCsaNl6UpbT7bw_4core6optionINtB3_6OptionQNtNtCs807mVM355fU_3syn8lifetime8LifetimeE3mapINtNtBN_10punctuated4PairBI_QNtNtBN_5token3AddENcNtB1s_3End0ECs9kQvaEtA2Tf_20pin_project_internal, symObjAddr: 0x1DD8, symBinAddr: 0x4EAE4, symSize: 0x68 }
  - { offset: 0x7EB30, size: 0x8, addend: 0x0, symName: __RINvMNtCsaNl6UpbT7bw_4core6optionINtB3_6OptionQTNtNtCs807mVM355fU_3syn2ty4TypeNtNtBO_5token5CommaEE3mapINtNtBO_10punctuated4PairQBK_QB1e_ENCNvXsc_B1G_INtB1G_8PairsMutBK_B1e_ENtNtNtNtB5_4iter6traits8iterator8Iterator4next0ECs9kQvaEtA2Tf_20pin_project_internal, symObjAddr: 0x1E40, symBinAddr: 0x4EB4C, symSize: 0x68 }
  - { offset: 0x7EB9B, size: 0x8, addend: 0x0, symName: __RINvMNtCsaNl6UpbT7bw_4core6optionINtB3_6OptionQTNtNtCs807mVM355fU_3syn2ty9BareFnArgNtNtBO_5token5CommaEE3mapINtNtBO_10punctuated4PairQBK_QB1j_ENCNvXsc_B1L_INtB1L_8PairsMutBK_B1j_ENtNtNtNtB5_4iter6traits8iterator8Iterator4next0ECs9kQvaEtA2Tf_20pin_project_internal, symObjAddr: 0x1EA8, symBinAddr: 0x4EBB4, symSize: 0x68 }
  - { offset: 0x7EC06, size: 0x8, addend: 0x0, symName: __RINvMNtCsaNl6UpbT7bw_4core6optionINtB3_6OptionQTNtNtCs807mVM355fU_3syn3pat3PatNtNtBO_5token2OrEE3mapINtNtBO_10punctuated4PairQBK_QB1e_ENCNvXsc_B1D_INtB1D_8PairsMutBK_B1e_ENtNtNtNtB5_4iter6traits8iterator8Iterator4next0ECs9kQvaEtA2Tf_20pin_project_internal, symObjAddr: 0x1F10, symBinAddr: 0x4EC1C, symSize: 0x68 }
  - { offset: 0x7EC71, size: 0x8, addend: 0x0, symName: __RINvMNtCsaNl6UpbT7bw_4core6optionINtB3_6OptionQTNtNtCs807mVM355fU_3syn3pat3PatNtNtBO_5token2OrEE3mapQBK_NCNCNvXsC_NtBO_10punctuatedINtB1O_14PrivateIterMutBK_B1e_ENtNtNtNtB5_4iter6traits12double_ended19DoubleEndedIterator9next_back00ECs9kQvaEtA2Tf_20pin_project_internal, symObjAddr: 0x1F78, symBinAddr: 0x4EC84, symSize: 0x50 }
  - { offset: 0x7ECDC, size: 0x8, addend: 0x0, symName: __RINvMNtCsaNl6UpbT7bw_4core6optionINtB3_6OptionQTNtNtCs807mVM355fU_3syn3pat3PatNtNtBO_5token2OrEE3mapQBK_NCNvXsB_NtBO_10punctuatedINtB1M_14PrivateIterMutBK_B1e_ENtNtNtNtB5_4iter6traits8iterator8Iterator4next0ECs9kQvaEtA2Tf_20pin_project_internal, symObjAddr: 0x1FC8, symBinAddr: 0x4ECD4, symSize: 0x50 }
  - { offset: 0x7ED47, size: 0x8, addend: 0x0, symName: __RINvMNtCsaNl6UpbT7bw_4core6optionINtB3_6OptionQTNtNtCs807mVM355fU_3syn3pat3PatNtNtBO_5token5CommaEE3mapINtNtBO_10punctuated4PairQBK_QB1e_ENCNvXsc_B1G_INtB1G_8PairsMutBK_B1e_ENtNtNtNtB5_4iter6traits8iterator8Iterator4next0ECs9kQvaEtA2Tf_20pin_project_internal, symObjAddr: 0x2018, symBinAddr: 0x4ED24, symSize: 0x68 }
  - { offset: 0x7EDB2, size: 0x8, addend: 0x0, symName: __RINvMNtCsaNl6UpbT7bw_4core6optionINtB3_6OptionQTNtNtCs807mVM355fU_3syn3pat8FieldPatNtNtBO_5token5CommaEE3mapINtNtBO_10punctuated4PairQBK_QB1j_ENCNvXsc_B1L_INtB1L_8PairsMutBK_B1j_ENtNtNtNtB5_4iter6traits8iterator8Iterator4next0ECs9kQvaEtA2Tf_20pin_project_internal, symObjAddr: 0x2080, symBinAddr: 0x4ED8C, symSize: 0x68 }
  - { offset: 0x7EE1D, size: 0x8, addend: 0x0, symName: __RINvMNtCsaNl6UpbT7bw_4core6optionINtB3_6OptionQTNtNtCs807mVM355fU_3syn4data5FieldNtNtBO_5token5CommaEE3mapINtNtBO_10punctuated4PairQBK_QB1h_ENCNvXsc_B1J_INtB1J_8PairsMutBK_B1h_ENtNtNtNtB5_4iter6traits8iterator8Iterator4next0ECs9kQvaEtA2Tf_20pin_project_internal, symObjAddr: 0x20E8, symBinAddr: 0x4EDF4, symSize: 0x68 }
  - { offset: 0x7EE88, size: 0x8, addend: 0x0, symName: __RINvMNtCsaNl6UpbT7bw_4core6optionINtB3_6OptionQTNtNtCs807mVM355fU_3syn4data7VariantNtNtBO_5token5CommaEE3mapINtNtBO_10punctuated4PairQBK_QB1j_ENCNvXsc_B1L_INtB1L_8PairsMutBK_B1j_ENtNtNtNtB5_4iter6traits8iterator8Iterator4next0ECs9kQvaEtA2Tf_20pin_project_internal, symObjAddr: 0x2150, symBinAddr: 0x4EE5C, symSize: 0x68 }
  - { offset: 0x7EEF3, size: 0x8, addend: 0x0, symName: __RINvMNtCsaNl6UpbT7bw_4core6optionINtB3_6OptionQTNtNtCs807mVM355fU_3syn4expr10FieldValueNtNtBO_5token5CommaEE3mapINtNtBO_10punctuated4PairQBK_QB1n_ENCNvXsc_B1P_INtB1P_8PairsMutBK_B1n_ENtNtNtNtB5_4iter6traits8iterator8Iterator4next0ECs9kQvaEtA2Tf_20pin_project_internal, symObjAddr: 0x21B8, symBinAddr: 0x4EEC4, symSize: 0x68 }
  - { offset: 0x7EF5E, size: 0x8, addend: 0x0, symName: __RINvMNtCsaNl6UpbT7bw_4core6optionINtB3_6OptionQTNtNtCs807mVM355fU_3syn4expr21GenericMethodArgumentNtNtBO_5token5CommaEE3mapINtNtBO_10punctuated4PairQBK_QB1y_ENCNvXsc_B20_INtB20_8PairsMutBK_B1y_ENtNtNtNtB5_4iter6traits8iterator8Iterator4next0ECs9kQvaEtA2Tf_20pin_project_internal, symObjAddr: 0x2220, symBinAddr: 0x4EF2C, symSize: 0x68 }
  - { offset: 0x7EFC9, size: 0x8, addend: 0x0, symName: __RINvMNtCsaNl6UpbT7bw_4core6optionINtB3_6OptionQTNtNtCs807mVM355fU_3syn4expr4ExprNtNtBO_5token5CommaEE3mapINtNtBO_10punctuated4PairQBK_QB1g_ENCNvXsc_B1I_INtB1I_8PairsMutBK_B1g_ENtNtNtNtB5_4iter6traits8iterator8Iterator4next0ECs9kQvaEtA2Tf_20pin_project_internal, symObjAddr: 0x2288, symBinAddr: 0x4EF94, symSize: 0x68 }
  - { offset: 0x7F034, size: 0x8, addend: 0x0, symName: __RINvMNtCsaNl6UpbT7bw_4core6optionINtB3_6OptionQTNtNtCs807mVM355fU_3syn4item5FnArgNtNtBO_5token5CommaEE3mapINtNtBO_10punctuated4PairQBK_QB1h_ENCNvXsc_B1J_INtB1J_8PairsMutBK_B1h_ENtNtNtNtB5_4iter6traits8iterator8Iterator4next0ECs9kQvaEtA2Tf_20pin_project_internal, symObjAddr: 0x22F0, symBinAddr: 0x4EFFC, symSize: 0x68 }
  - { offset: 0x7F09F, size: 0x8, addend: 0x0, symName: __RINvMNtCsaNl6UpbT7bw_4core6optionINtB3_6OptionQTNtNtCs807mVM355fU_3syn4item7UseTreeNtNtBO_5token5CommaEE3mapINtNtBO_10punctuated4PairQBK_QB1j_ENCNvXsc_B1L_INtB1L_8PairsMutBK_B1j_ENtNtNtNtB5_4iter6traits8iterator8Iterator4next0ECs9kQvaEtA2Tf_20pin_project_internal, symObjAddr: 0x2358, symBinAddr: 0x4F064, symSize: 0x68 }
  - { offset: 0x7F10A, size: 0x8, addend: 0x0, symName: __RINvMNtCsaNl6UpbT7bw_4core6optionINtB3_6OptionQTNtNtCs807mVM355fU_3syn4path15GenericArgumentNtNtBO_5token5CommaEE3mapINtNtBO_10punctuated4PairQBK_QB1s_ENCNvXsc_B1U_INtB1U_8PairsMutBK_B1s_ENtNtNtNtB5_4iter6traits8iterator8Iterator4next0ECs9kQvaEtA2Tf_20pin_project_internal, symObjAddr: 0x23C0, symBinAddr: 0x4F0CC, symSize: 0x68 }
  - { offset: 0x7F182, size: 0x8, addend: 0x0, symName: __RINvMNtCsaNl6UpbT7bw_4core6optionINtB3_6OptionQTNtNtCs807mVM355fU_3syn5token2EqINtNtCsiTraAjBDcu4_5alloc5boxed3BoxNtNtBO_4expr4ExprEEE3mapQB1O_NCNvMNtCs9kQvaEtA2Tf_20pin_project_internal7projectNtB2m_7Context13replace_local0EB2o_, symObjAddr: 0x2428, symBinAddr: 0x4F134, symSize: 0x50 }
  - { offset: 0x7F1ED, size: 0x8, addend: 0x0, symName: __RINvMNtCsaNl6UpbT7bw_4core6optionINtB3_6OptionQTNtNtCs807mVM355fU_3syn8generics11LifetimeDefNtNtBO_5token5CommaEE3mapINtNtBO_10punctuated4PairQBK_QB1s_ENCNvXsc_B1U_INtB1U_8PairsMutBK_B1s_ENtNtNtNtB5_4iter6traits8iterator8Iterator4next0ECs9kQvaEtA2Tf_20pin_project_internal, symObjAddr: 0x2478, symBinAddr: 0x4F184, symSize: 0x68 }
  - { offset: 0x7F258, size: 0x8, addend: 0x0, symName: __RINvMNtCsaNl6UpbT7bw_4core6optionINtB3_6OptionQTNtNtCs807mVM355fU_3syn8generics12GenericParamNtNtBO_5token5CommaEE3mapINtNtBO_10punctuated4PairQBK_QB1t_ENCNvXsc_B1V_INtB1V_8PairsMutBK_B1t_ENtNtNtNtB5_4iter6traits8iterator8Iterator4next0ECs9kQvaEtA2Tf_20pin_project_internal, symObjAddr: 0x24E0, symBinAddr: 0x4F1EC, symSize: 0x68 }
  - { offset: 0x7F2C3, size: 0x8, addend: 0x0, symName: __RINvMNtCsaNl6UpbT7bw_4core6optionINtB3_6OptionQTNtNtCs807mVM355fU_3syn8generics14TypeParamBoundNtNtBO_5token3AddEE3mapINtNtBO_10punctuated4PairQBK_QB1v_ENCNvXsc_B1V_INtB1V_8PairsMutBK_B1v_ENtNtNtNtB5_4iter6traits8iterator8Iterator4next0ECs9kQvaEtA2Tf_20pin_project_internal, symObjAddr: 0x2548, symBinAddr: 0x4F254, symSize: 0x68 }
  - { offset: 0x7F32E, size: 0x8, addend: 0x0, symName: __RINvMNtCsaNl6UpbT7bw_4core6optionINtB3_6OptionQTNtNtCs807mVM355fU_3syn8generics14WherePredicateNtNtBO_5token5CommaEE3mapINtNtBO_10punctuated4PairQBK_QB1v_ENCNvXsc_B1X_INtB1X_8PairsMutBK_B1v_ENtNtNtNtB5_4iter6traits8iterator8Iterator4next0ECs9kQvaEtA2Tf_20pin_project_internal, symObjAddr: 0x25B0, symBinAddr: 0x4F2BC, symSize: 0x68 }
  - { offset: 0x7F399, size: 0x8, addend: 0x0, symName: __RINvMNtCsaNl6UpbT7bw_4core6optionINtB3_6OptionQTNtNtCs807mVM355fU_3syn8lifetime8LifetimeNtNtBO_5token3AddEE3mapINtNtBO_10punctuated4PairQBK_QB1o_ENCNvXsc_B1O_INtB1O_8PairsMutBK_B1o_ENtNtNtNtB5_4iter6traits8iterator8Iterator4next0ECs9kQvaEtA2Tf_20pin_project_internal, symObjAddr: 0x2618, symBinAddr: 0x4F324, symSize: 0x68 }
  - { offset: 0x7F438, size: 0x8, addend: 0x0, symName: __RINvMNtCsaNl6UpbT7bw_4core6optionINtB3_6OptionRNtNtCs807mVM355fU_3syn3pat3PatE7or_elseNCNvXss_NtBN_10punctuatedINtB1u_11PrivateIterBJ_NtNtBN_5token2OrENtNtNtNtB5_4iter6traits8iterator8Iterator4nexts_0ECs9kQvaEtA2Tf_20pin_project_internal, symObjAddr: 0x2680, symBinAddr: 0x4F38C, symSize: 0xA8 }
  - { offset: 0x7F49A, size: 0x8, addend: 0x0, symName: __RINvMNtCsaNl6UpbT7bw_4core6optionINtB3_6OptionRNtNtCs807mVM355fU_3syn3pat3PatE7or_elseNCNvXst_NtBN_10punctuatedINtB1u_11PrivateIterBJ_NtNtBN_5token2OrENtNtNtNtB5_4iter6traits12double_ended19DoubleEndedIterator9next_back0ECs9kQvaEtA2Tf_20pin_project_internal, symObjAddr: 0x2728, symBinAddr: 0x4F434, symSize: 0xA8 }
  - { offset: 0x7F568, size: 0x8, addend: 0x0, symName: __RINvMNtCsaNl6UpbT7bw_4core6optionINtB3_6OptionRNtNtCs807mVM355fU_3syn4attr10NestedMetaE7or_elseNCNvXss_NtBN_10punctuatedINtB1D_11PrivateIterBJ_NtNtBN_5token5CommaENtNtNtNtB5_4iter6traits8iterator8Iterator4nexts_0ECs9kQvaEtA2Tf_20pin_project_internal, symObjAddr: 0x27D0, symBinAddr: 0x4F4DC, symSize: 0xA8 }
  - { offset: 0x7F5CA, size: 0x8, addend: 0x0, symName: __RINvMNtCsaNl6UpbT7bw_4core6optionINtB3_6OptionRNtNtCs807mVM355fU_3syn4attr10NestedMetaE7or_elseNCNvXst_NtBN_10punctuatedINtB1D_11PrivateIterBJ_NtNtBN_5token5CommaENtNtNtNtB5_4iter6traits12double_ended19DoubleEndedIterator9next_back0ECs9kQvaEtA2Tf_20pin_project_internal, symObjAddr: 0x2878, symBinAddr: 0x4F584, symSize: 0xA8 }
  - { offset: 0x7F660, size: 0x8, addend: 0x0, symName: __RINvMNtCsaNl6UpbT7bw_4core6optionINtB3_6OptionRNtNtCs807mVM355fU_3syn4data7VariantE7or_elseNCNvXss_NtBN_10punctuatedINtB1z_11PrivateIterBJ_NtNtBN_5token5CommaENtNtNtNtB5_4iter6traits8iterator8Iterator4nexts_0ECs9kQvaEtA2Tf_20pin_project_internal, symObjAddr: 0x2920, symBinAddr: 0x4F62C, symSize: 0xA8 }
  - { offset: 0x7F6C2, size: 0x8, addend: 0x0, symName: __RINvMNtCsaNl6UpbT7bw_4core6optionINtB3_6OptionRNtNtCs807mVM355fU_3syn4data7VariantE7or_elseNCNvXst_NtBN_10punctuatedINtB1z_11PrivateIterBJ_NtNtBN_5token5CommaENtNtNtNtB5_4iter6traits12double_ended19DoubleEndedIterator9next_back0ECs9kQvaEtA2Tf_20pin_project_internal, symObjAddr: 0x29C8, symBinAddr: 0x4F6D4, symSize: 0xA8 }
  - { offset: 0x7F758, size: 0x8, addend: 0x0, symName: __RINvMNtCsaNl6UpbT7bw_4core6optionINtB3_6OptionRNtNtCs807mVM355fU_3syn4path15GenericArgumentE7or_elseNCNvXss_NtBN_10punctuatedINtB1I_11PrivateIterBJ_NtNtBN_5token5CommaENtNtNtNtB5_4iter6traits8iterator8Iterator4nexts_0ECs9kQvaEtA2Tf_20pin_project_internal, symObjAddr: 0x2A70, symBinAddr: 0x4F77C, symSize: 0xA8 }
  - { offset: 0x7F7BA, size: 0x8, addend: 0x0, symName: __RINvMNtCsaNl6UpbT7bw_4core6optionINtB3_6OptionRNtNtCs807mVM355fU_3syn4path15GenericArgumentE7or_elseNCNvXst_NtBN_10punctuatedINtB1I_11PrivateIterBJ_NtNtBN_5token5CommaENtNtNtNtB5_4iter6traits12double_ended19DoubleEndedIterator9next_back0ECs9kQvaEtA2Tf_20pin_project_internal, symObjAddr: 0x2B18, symBinAddr: 0x4F824, symSize: 0xA8 }
  - { offset: 0x7F829, size: 0x8, addend: 0x0, symName: __RINvMNtCsaNl6UpbT7bw_4core6optionINtB3_6OptionRNtNtCs807mVM355fU_3syn4path4PathE6map_orbNCNvNtCs9kQvaEtA2Tf_20pin_project_internal11pinned_drop12parse_method0EB1u_, symObjAddr: 0x2BC0, symBinAddr: 0x4F8CC, symSize: 0xAC }
  - { offset: 0x7F89B, size: 0x8, addend: 0x0, symName: __RINvMNtCsaNl6UpbT7bw_4core6optionINtB3_6OptionRTNtNtCs807mVM355fU_3syn3pat3PatNtNtBO_5token2OrEE3mapRBK_NCNCNvXst_NtBO_10punctuatedINtB1O_11PrivateIterBK_B1e_ENtNtNtNtB5_4iter6traits12double_ended19DoubleEndedIterator9next_back00ECs9kQvaEtA2Tf_20pin_project_internal, symObjAddr: 0x2C6C, symBinAddr: 0x4F978, symSize: 0x50 }
  - { offset: 0x7F906, size: 0x8, addend: 0x0, symName: __RINvMNtCsaNl6UpbT7bw_4core6optionINtB3_6OptionRTNtNtCs807mVM355fU_3syn3pat3PatNtNtBO_5token2OrEE3mapRBK_NCNvXss_NtBO_10punctuatedINtB1M_11PrivateIterBK_B1e_ENtNtNtNtB5_4iter6traits8iterator8Iterator4next0ECs9kQvaEtA2Tf_20pin_project_internal, symObjAddr: 0x2CBC, symBinAddr: 0x4F9C8, symSize: 0x50 }
  - { offset: 0x7F971, size: 0x8, addend: 0x0, symName: __RINvMNtCsaNl6UpbT7bw_4core6optionINtB3_6OptionRTNtNtCs807mVM355fU_3syn4attr10NestedMetaNtNtBO_5token5CommaEE3mapRBK_NCNCNvXst_NtBO_10punctuatedINtB20_11PrivateIterBK_B1n_ENtNtNtNtB5_4iter6traits12double_ended19DoubleEndedIterator9next_back00ECs9kQvaEtA2Tf_20pin_project_internal, symObjAddr: 0x2D0C, symBinAddr: 0x4FA18, symSize: 0x50 }
  - { offset: 0x7F9DC, size: 0x8, addend: 0x0, symName: __RINvMNtCsaNl6UpbT7bw_4core6optionINtB3_6OptionRTNtNtCs807mVM355fU_3syn4attr10NestedMetaNtNtBO_5token5CommaEE3mapRBK_NCNvXss_NtBO_10punctuatedINtB1Y_11PrivateIterBK_B1n_ENtNtNtNtB5_4iter6traits8iterator8Iterator4next0ECs9kQvaEtA2Tf_20pin_project_internal, symObjAddr: 0x2D5C, symBinAddr: 0x4FA68, symSize: 0x50 }
  - { offset: 0x7FA47, size: 0x8, addend: 0x0, symName: __RINvMNtCsaNl6UpbT7bw_4core6optionINtB3_6OptionRTNtNtCs807mVM355fU_3syn4data7VariantNtNtBO_5token5CommaEE3mapRBK_NCNCNvXst_NtBO_10punctuatedINtB1W_11PrivateIterBK_B1j_ENtNtNtNtB5_4iter6traits12double_ended19DoubleEndedIterator9next_back00ECs9kQvaEtA2Tf_20pin_project_internal, symObjAddr: 0x2DAC, symBinAddr: 0x4FAB8, symSize: 0x50 }
  - { offset: 0x7FAB2, size: 0x8, addend: 0x0, symName: __RINvMNtCsaNl6UpbT7bw_4core6optionINtB3_6OptionRTNtNtCs807mVM355fU_3syn4data7VariantNtNtBO_5token5CommaEE3mapRBK_NCNvXss_NtBO_10punctuatedINtB1U_11PrivateIterBK_B1j_ENtNtNtNtB5_4iter6traits8iterator8Iterator4next0ECs9kQvaEtA2Tf_20pin_project_internal, symObjAddr: 0x2DFC, symBinAddr: 0x4FB08, symSize: 0x50 }
  - { offset: 0x7FB1D, size: 0x8, addend: 0x0, symName: __RINvMNtCsaNl6UpbT7bw_4core6optionINtB3_6OptionRTNtNtCs807mVM355fU_3syn4path15GenericArgumentNtNtBO_5token5CommaEE3mapRBK_NCNCNvXst_NtBO_10punctuatedINtB25_11PrivateIterBK_B1s_ENtNtNtNtB5_4iter6traits12double_ended19DoubleEndedIterator9next_back00ECs9kQvaEtA2Tf_20pin_project_internal, symObjAddr: 0x2E4C, symBinAddr: 0x4FB58, symSize: 0x50 }
  - { offset: 0x7FB88, size: 0x8, addend: 0x0, symName: __RINvMNtCsaNl6UpbT7bw_4core6optionINtB3_6OptionRTNtNtCs807mVM355fU_3syn4path15GenericArgumentNtNtBO_5token5CommaEE3mapRBK_NCNvXss_NtBO_10punctuatedINtB23_11PrivateIterBK_B1s_ENtNtNtNtB5_4iter6traits8iterator8Iterator4next0ECs9kQvaEtA2Tf_20pin_project_internal, symObjAddr: 0x2E9C, symBinAddr: 0x4FBA8, symSize: 0x50 }
  - { offset: 0x7FC81, size: 0x8, addend: 0x0, symName: __RINvMNtCsaNl6UpbT7bw_4core6optionINtB3_6OptionTNtCshnvkK9b4wzu_11proc_macro25IdentjEE18get_or_insert_withNCNvMNtCs9kQvaEtA2Tf_20pin_project_internal7projectNtB1K_7Context6update0EB1M_, symObjAddr: 0x2EEC, symBinAddr: 0x4FBF8, symSize: 0x14C }
  - { offset: 0x7FD37, size: 0x8, addend: 0x0, symName: __RINvMNtCsaNl6UpbT7bw_4core6optionINtB3_6OptionjE3mapNtNtCs807mVM355fU_3syn4attr9AttributeNCNCNvXs0_NtCs9kQvaEtA2Tf_20pin_project_internal5utilsINtNtCsiTraAjBDcu4_5alloc3vec3VecBO_ENtB1z_6VecExt11find_remove00EB1B_, symObjAddr: 0x3038, symBinAddr: 0x4FD44, symSize: 0x78 }
  - { offset: 0x7FDE3, size: 0x8, addend: 0x0, symName: __RINvMNtCsaNl6UpbT7bw_4core6optionINtB3_6OptionjE8and_thenRNtNtCs807mVM355fU_3syn4attr9AttributeNCNvXs_NtCs9kQvaEtA2Tf_20pin_project_internal5utilsSBU_NtB1C_8SliceExt4finds_0EB1E_, symObjAddr: 0x30B0, symBinAddr: 0x4FDBC, symSize: 0x58 }
  - { offset: 0x7FE5B, size: 0x8, addend: 0x0, symName: __RNvMNtCsaNl6UpbT7bw_4core6optionINtB2_6OptionINtNtCsiTraAjBDcu4_5alloc5boxed3BoxNtNtCs807mVM355fU_3syn2ty4TypeEE6as_mutCs9kQvaEtA2Tf_20pin_project_internal, symObjAddr: 0x3108, symBinAddr: 0x4FE14, symSize: 0x4C }
  - { offset: 0x7FEB2, size: 0x8, addend: 0x0, symName: __RNvMNtCsaNl6UpbT7bw_4core6optionINtB2_6OptionINtNtCsiTraAjBDcu4_5alloc5boxed3BoxNtNtCs807mVM355fU_3syn2ty9BareFnArgEE6as_mutCs9kQvaEtA2Tf_20pin_project_internal, symObjAddr: 0x3154, symBinAddr: 0x4FE60, symSize: 0x4C }
  - { offset: 0x7FF09, size: 0x8, addend: 0x0, symName: __RNvMNtCsaNl6UpbT7bw_4core6optionINtB2_6OptionINtNtCsiTraAjBDcu4_5alloc5boxed3BoxNtNtCs807mVM355fU_3syn3pat3PatEE6as_mutCs9kQvaEtA2Tf_20pin_project_internal, symObjAddr: 0x31A0, symBinAddr: 0x4FEAC, symSize: 0x4C }
  - { offset: 0x7FF60, size: 0x8, addend: 0x0, symName: __RNvMNtCsaNl6UpbT7bw_4core6optionINtB2_6OptionINtNtCsiTraAjBDcu4_5alloc5boxed3BoxNtNtCs807mVM355fU_3syn3pat8FieldPatEE6as_mutCs9kQvaEtA2Tf_20pin_project_internal, symObjAddr: 0x31EC, symBinAddr: 0x4FEF8, symSize: 0x4C }
  - { offset: 0x7FFB7, size: 0x8, addend: 0x0, symName: __RNvMNtCsaNl6UpbT7bw_4core6optionINtB2_6OptionINtNtCsiTraAjBDcu4_5alloc5boxed3BoxNtNtCs807mVM355fU_3syn4data7VariantEE6as_mutCs9kQvaEtA2Tf_20pin_project_internal, symObjAddr: 0x3238, symBinAddr: 0x4FF44, symSize: 0x4C }
  - { offset: 0x8000E, size: 0x8, addend: 0x0, symName: __RNvMNtCsaNl6UpbT7bw_4core6optionINtB2_6OptionINtNtCsiTraAjBDcu4_5alloc5boxed3BoxNtNtCs807mVM355fU_3syn4expr10FieldValueEE6as_mutCs9kQvaEtA2Tf_20pin_project_internal, symObjAddr: 0x3284, symBinAddr: 0x4FF90, symSize: 0x4C }
  - { offset: 0x80065, size: 0x8, addend: 0x0, symName: __RNvMNtCsaNl6UpbT7bw_4core6optionINtB2_6OptionINtNtCsiTraAjBDcu4_5alloc5boxed3BoxNtNtCs807mVM355fU_3syn4expr21GenericMethodArgumentEE6as_mutCs9kQvaEtA2Tf_20pin_project_internal, symObjAddr: 0x32D0, symBinAddr: 0x4FFDC, symSize: 0x4C }
  - { offset: 0x800BC, size: 0x8, addend: 0x0, symName: __RNvMNtCsaNl6UpbT7bw_4core6optionINtB2_6OptionINtNtCsiTraAjBDcu4_5alloc5boxed3BoxNtNtCs807mVM355fU_3syn4expr4ExprEE6as_mutCs9kQvaEtA2Tf_20pin_project_internal, symObjAddr: 0x331C, symBinAddr: 0x50028, symSize: 0x4C }
  - { offset: 0x80113, size: 0x8, addend: 0x0, symName: __RNvMNtCsaNl6UpbT7bw_4core6optionINtB2_6OptionINtNtCsiTraAjBDcu4_5alloc5boxed3BoxNtNtCs807mVM355fU_3syn4item7UseTreeEE6as_mutCs9kQvaEtA2Tf_20pin_project_internal, symObjAddr: 0x3368, symBinAddr: 0x50074, symSize: 0x4C }
  - { offset: 0x8016A, size: 0x8, addend: 0x0, symName: __RNvMNtCsaNl6UpbT7bw_4core6optionINtB2_6OptionINtNtCsiTraAjBDcu4_5alloc5boxed3BoxNtNtCs807mVM355fU_3syn4path15GenericArgumentEE6as_mutCs9kQvaEtA2Tf_20pin_project_internal, symObjAddr: 0x33B4, symBinAddr: 0x500C0, symSize: 0x4C }
  - { offset: 0x801C1, size: 0x8, addend: 0x0, symName: __RNvMNtCsaNl6UpbT7bw_4core6optionINtB2_6OptionINtNtCsiTraAjBDcu4_5alloc5boxed3BoxNtNtCs807mVM355fU_3syn8generics11LifetimeDefEE6as_mutCs9kQvaEtA2Tf_20pin_project_internal, symObjAddr: 0x3400, symBinAddr: 0x5010C, symSize: 0x4C }
  - { offset: 0x80218, size: 0x8, addend: 0x0, symName: __RNvMNtCsaNl6UpbT7bw_4core6optionINtB2_6OptionINtNtCsiTraAjBDcu4_5alloc5boxed3BoxNtNtCs807mVM355fU_3syn8generics14TypeParamBoundEE6as_mutCs9kQvaEtA2Tf_20pin_project_internal, symObjAddr: 0x344C, symBinAddr: 0x50158, symSize: 0x4C }
  - { offset: 0x8026F, size: 0x8, addend: 0x0, symName: __RNvMNtCsaNl6UpbT7bw_4core6optionINtB2_6OptionINtNtCsiTraAjBDcu4_5alloc5boxed3BoxNtNtCs807mVM355fU_3syn8generics14WherePredicateEE6as_mutCs9kQvaEtA2Tf_20pin_project_internal, symObjAddr: 0x3498, symBinAddr: 0x501A4, symSize: 0x4C }
  - { offset: 0x802C6, size: 0x8, addend: 0x0, symName: __RNvMNtCsaNl6UpbT7bw_4core6optionINtB2_6OptionINtNtCsiTraAjBDcu4_5alloc5boxed3BoxNtNtCs807mVM355fU_3syn8lifetime8LifetimeEE6as_mutCs9kQvaEtA2Tf_20pin_project_internal, symObjAddr: 0x34E4, symBinAddr: 0x501F0, symSize: 0x4C }
  - { offset: 0x80310, size: 0x8, addend: 0x0, symName: __RNvMNtCsaNl6UpbT7bw_4core6optionINtB2_6OptionNtCshnvkK9b4wzu_11proc_macro24SpanE2orCs9kQvaEtA2Tf_20pin_project_internal, symObjAddr: 0x3530, symBinAddr: 0x5023C, symSize: 0x84 }
  - { offset: 0x80376, size: 0x8, addend: 0x0, symName: __RNvMNtCsaNl6UpbT7bw_4core6optionINtB2_6OptionNtCshnvkK9b4wzu_11proc_macro24SpanE7is_someCs9kQvaEtA2Tf_20pin_project_internal, symObjAddr: 0x35B4, symBinAddr: 0x502C0, symSize: 0x20 }
  - { offset: 0x803AF, size: 0x8, addend: 0x0, symName: __RNvMNtCsaNl6UpbT7bw_4core6optionINtB2_6OptionNtCshnvkK9b4wzu_11proc_macro24SpanE7replaceCs9kQvaEtA2Tf_20pin_project_internal, symObjAddr: 0x35D4, symBinAddr: 0x502E0, symSize: 0x40 }
  - { offset: 0x80415, size: 0x8, addend: 0x0, symName: __RNvMNtCsaNl6UpbT7bw_4core6optionINtB2_6OptionNtCshnvkK9b4wzu_11proc_macro25IdentE6as_refCs9kQvaEtA2Tf_20pin_project_internal, symObjAddr: 0x3614, symBinAddr: 0x50320, symSize: 0x4C }
  - { offset: 0x8046C, size: 0x8, addend: 0x0, symName: __RNvMNtCsaNl6UpbT7bw_4core6optionINtB2_6OptionNtNtCs807mVM355fU_3syn5token6UnsafeE7is_someCs9kQvaEtA2Tf_20pin_project_internal, symObjAddr: 0x3660, symBinAddr: 0x5036C, symSize: 0x20 }
  - { offset: 0x804A5, size: 0x8, addend: 0x0, symName: __RNvMNtCsaNl6UpbT7bw_4core6optionINtB2_6OptionNtNtCs807mVM355fU_3syn8generics11WhereClauseE4takeCs9kQvaEtA2Tf_20pin_project_internal, symObjAddr: 0x3680, symBinAddr: 0x5038C, symSize: 0x60 }
  - { offset: 0x804FC, size: 0x8, addend: 0x0, symName: __RNvMNtCsaNl6UpbT7bw_4core6optionINtB2_6OptionNtNtCs9kQvaEtA2Tf_20pin_project_internal5utils8ProjKindE7replaceBL_, symObjAddr: 0x36E0, symBinAddr: 0x503EC, symSize: 0x2C }
  - { offset: 0x80562, size: 0x8, addend: 0x0, symName: __RNvMNtCsaNl6UpbT7bw_4core6optionINtB2_6OptionRNtCshnvkK9b4wzu_11proc_macro25IdentE7is_someCs9kQvaEtA2Tf_20pin_project_internal, symObjAddr: 0x370C, symBinAddr: 0x50418, symSize: 0x28 }
  - { offset: 0x805B7, size: 0x8, addend: 0x0, symName: __RNvMNtCsaNl6UpbT7bw_4core6optionINtB2_6OptionTNtCshnvkK9b4wzu_11proc_macro25IdentjEE7is_noneCs9kQvaEtA2Tf_20pin_project_internal, symObjAddr: 0x3734, symBinAddr: 0x50440, symSize: 0x28 }
  - { offset: 0x8060E, size: 0x8, addend: 0x0, symName: __RNvMNtCsaNl6UpbT7bw_4core6optionINtB2_6OptionTNtNtCs807mVM355fU_3syn5token2EqINtNtCsiTraAjBDcu4_5alloc5boxed3BoxNtNtBM_4expr4ExprEEE6as_mutCs9kQvaEtA2Tf_20pin_project_internal, symObjAddr: 0x375C, symBinAddr: 0x50468, symSize: 0x4C }
  - { offset: 0x80665, size: 0x8, addend: 0x0, symName: __RNvMNtCsaNl6UpbT7bw_4core6optionINtB2_6OptionjE7is_someCs9kQvaEtA2Tf_20pin_project_internal, symObjAddr: 0x37A8, symBinAddr: 0x504B4, symSize: 0x20 }
  - { offset: 0x8069E, size: 0x8, addend: 0x0, symName: __RNvMNtCsaNl6UpbT7bw_4core6optionINtB2_6OptionjE7replaceCs9kQvaEtA2Tf_20pin_project_internal, symObjAddr: 0x37C8, symBinAddr: 0x504D4, symSize: 0x40 }
  - { offset: 0x806F7, size: 0x8, addend: 0x0, symName: __RNvMs0_NtCsaNl6UpbT7bw_4core6optionINtB5_6OptionRNtCshnvkK9b4wzu_11proc_macro25IdentE6clonedCs9kQvaEtA2Tf_20pin_project_internal, symObjAddr: 0x3808, symBinAddr: 0x50514, symSize: 0x6C }
  - { offset: 0x80750, size: 0x8, addend: 0x0, symName: __RNvXNtCs4EAaWzSXu1l_5quote9to_tokensRINtNtCsaNl6UpbT7bw_4core6option6OptionNtCshnvkK9b4wzu_11proc_macro25IdentENtB2_8ToTokens9to_tokensCs9kQvaEtA2Tf_20pin_project_internal, symObjAddr: 0x3874, symBinAddr: 0x50580, symSize: 0x40 }
  - { offset: 0x8078F, size: 0x8, addend: 0x0, symName: __RNvXNtCs4EAaWzSXu1l_5quote9to_tokensRINtNtCsaNl6UpbT7bw_4core6option6OptionNtNtCs807mVM355fU_3syn5token5ColonENtB2_8ToTokens9to_tokensCs9kQvaEtA2Tf_20pin_project_internal, symObjAddr: 0x38B4, symBinAddr: 0x505C0, symSize: 0x40 }
  - { offset: 0x807CE, size: 0x8, addend: 0x0, symName: __RNvXNtCs4EAaWzSXu1l_5quote9to_tokensRINtNtCsaNl6UpbT7bw_4core6option6OptionNtNtCs807mVM355fU_3syn5token6UnsafeENtB2_8ToTokens9to_tokensCs9kQvaEtA2Tf_20pin_project_internal, symObjAddr: 0x38F4, symBinAddr: 0x50600, symSize: 0x40 }
  - { offset: 0x80813, size: 0x8, addend: 0x0, symName: __RNvXs3_NtCs4EAaWzSXu1l_5quote9to_tokensINtNtCsaNl6UpbT7bw_4core6option6OptionNtCshnvkK9b4wzu_11proc_macro211TokenStreamENtB5_8ToTokens9to_tokensCs9kQvaEtA2Tf_20pin_project_internal, symObjAddr: 0x3934, symBinAddr: 0x50640, symSize: 0x84 }
  - { offset: 0x8086F, size: 0x8, addend: 0x0, symName: __RNvXs3_NtCs4EAaWzSXu1l_5quote9to_tokensINtNtCsaNl6UpbT7bw_4core6option6OptionNtCshnvkK9b4wzu_11proc_macro25GroupENtB5_8ToTokens9to_tokensCs9kQvaEtA2Tf_20pin_project_internal, symObjAddr: 0x39B8, symBinAddr: 0x506C4, symSize: 0x80 }
  - { offset: 0x808CB, size: 0x8, addend: 0x0, symName: __RNvXs3_NtCs4EAaWzSXu1l_5quote9to_tokensINtNtCsaNl6UpbT7bw_4core6option6OptionNtNtCs807mVM355fU_3syn5token5ColonENtB5_8ToTokens9to_tokensCs9kQvaEtA2Tf_20pin_project_internal, symObjAddr: 0x3A38, symBinAddr: 0x50744, symSize: 0x84 }
  - { offset: 0x80927, size: 0x8, addend: 0x0, symName: __RNvXs3_NtCs4EAaWzSXu1l_5quote9to_tokensINtNtCsaNl6UpbT7bw_4core6option6OptionRNtCshnvkK9b4wzu_11proc_macro211TokenStreamENtB5_8ToTokens9to_tokensCs9kQvaEtA2Tf_20pin_project_internal, symObjAddr: 0x3ABC, symBinAddr: 0x507C8, symSize: 0x80 }
  - { offset: 0x80983, size: 0x8, addend: 0x0, symName: __RNvXs3_NtCs4EAaWzSXu1l_5quote9to_tokensINtNtCsaNl6UpbT7bw_4core6option6OptionRNtCshnvkK9b4wzu_11proc_macro25IdentENtB5_8ToTokens9to_tokensCs9kQvaEtA2Tf_20pin_project_internal, symObjAddr: 0x3B3C, symBinAddr: 0x50848, symSize: 0x80 }
  - { offset: 0x809DF, size: 0x8, addend: 0x0, symName: __RNvXs3_NtCs4EAaWzSXu1l_5quote9to_tokensINtNtCsaNl6UpbT7bw_4core6option6OptionRNtNtCs807mVM355fU_3syn8generics11WhereClauseENtB5_8ToTokens9to_tokensCs9kQvaEtA2Tf_20pin_project_internal, symObjAddr: 0x3BBC, symBinAddr: 0x508C8, symSize: 0x80 }
  - { offset: 0x80A41, size: 0x8, addend: 0x0, symName: __RNvYRINtNtCsaNl6UpbT7bw_4core6option6OptionNtCshnvkK9b4wzu_11proc_macro25IdentENtNtCs4EAaWzSXu1l_5quote9to_tokens8ToTokens15to_token_streamCs9kQvaEtA2Tf_20pin_project_internal, symObjAddr: 0x4978, symBinAddr: 0x51684, symSize: 0x8C }
  - { offset: 0x80A8B, size: 0x8, addend: 0x0, symName: __RNvYRINtNtCsaNl6UpbT7bw_4core6option6OptionNtCshnvkK9b4wzu_11proc_macro25IdentENtNtCs4EAaWzSXu1l_5quote9to_tokens8ToTokens17into_token_streamCs9kQvaEtA2Tf_20pin_project_internal, symObjAddr: 0x4A04, symBinAddr: 0x51710, symSize: 0x54 }
  - { offset: 0x80AC0, size: 0x8, addend: 0x0, symName: __RNvYRINtNtCsaNl6UpbT7bw_4core6option6OptionNtNtCs807mVM355fU_3syn5token6UnsafeENtNtCs4EAaWzSXu1l_5quote9to_tokens8ToTokens15to_token_streamCs9kQvaEtA2Tf_20pin_project_internal, symObjAddr: 0x4A58, symBinAddr: 0x51764, symSize: 0x8C }
  - { offset: 0x80B0A, size: 0x8, addend: 0x0, symName: __RNvYRINtNtCsaNl6UpbT7bw_4core6option6OptionNtNtCs807mVM355fU_3syn5token6UnsafeENtNtCs4EAaWzSXu1l_5quote9to_tokens8ToTokens17into_token_streamCs9kQvaEtA2Tf_20pin_project_internal, symObjAddr: 0x4AE4, symBinAddr: 0x517F0, symSize: 0x54 }
  - { offset: 0x81051, size: 0x8, addend: 0x0, symName: __RINvMs2_NtNtCsht3nMU9UgFu_3std6thread5localINtB6_8LocalKeyINtNtCsaNl6UpbT7bw_4core4cell4CellPuEE4withNCNvMs3_B6_BF_7replace0B1s_ECs9kQvaEtA2Tf_20pin_project_internal, symObjAddr: 0x0, symBinAddr: 0x51844, symSize: 0x54 }
  - { offset: 0x81073, size: 0x8, addend: 0x0, symName: ___rustc_proc_macro_decls_6cbeb5108d709e1b__, symObjAddr: 0x70A8, symBinAddr: 0x2897D8, symSize: 0x0 }
  - { offset: 0x810F8, size: 0x8, addend: 0x0, symName: __RNvCs9kQvaEtA2Tf_20pin_project_internal11pin_project, symObjAddr: 0x5758, symBinAddr: 0x56F9C, symSize: 0xF8 }
  - { offset: 0x81135, size: 0x8, addend: 0x0, symName: __RNvCs9kQvaEtA2Tf_20pin_project_internal11pinned_drop, symObjAddr: 0x5850, symBinAddr: 0x57094, symSize: 0x20C }
  - { offset: 0x811BE, size: 0x8, addend: 0x0, symName: __RNvCs9kQvaEtA2Tf_20pin_project_internal7project, symObjAddr: 0x5A5C, symBinAddr: 0x572A0, symSize: 0x210 }
  - { offset: 0x81247, size: 0x8, addend: 0x0, symName: __RNvCs9kQvaEtA2Tf_20pin_project_internal11project_ref, symObjAddr: 0x5C6C, symBinAddr: 0x574B0, symSize: 0x214 }
  - { offset: 0x812D0, size: 0x8, addend: 0x0, symName: __RNvCs9kQvaEtA2Tf_20pin_project_internal15project_replace, symObjAddr: 0x5E80, symBinAddr: 0x576C4, symSize: 0x214 }
  - { offset: 0x81359, size: 0x8, addend: 0x0, symName: __RNvCs9kQvaEtA2Tf_20pin_project_internal29___pin_project_internal_derive, symObjAddr: 0x6094, symBinAddr: 0x578D8, symSize: 0x60 }
  - { offset: 0x819AB, size: 0x8, addend: 0x0, symName: __RNvXs5_NtNtCs7yrEGia95Wz_10proc_macro6bridge6bufferNtB5_6BufferNtNtNtCsaNl6UpbT7bw_4core3ops4drop4Drop4dropCs9kQvaEtA2Tf_20pin_project_internal, symObjAddr: 0x335C, symBinAddr: 0x54BA0, symSize: 0x8C }
  - { offset: 0x81B04, size: 0x8, addend: 0x0, symName: __RINvNvNtNtCs7yrEGia95Wz_10proc_macro6bridge14selfless_reify31reify_to_extern_c_fn_hrt_bridge7wrapperNtNtB6_6buffer6BufferNCINvMs6_NtB6_6clientINtB24_6ClientNtB8_11TokenStreamB2u_E7expand1NvCs9kQvaEtA2Tf_20pin_project_internal29___pin_project_internal_deriveE0EB31_, symObjAddr: 0xD78, symBinAddr: 0x525BC, symSize: 0x5C }
  - { offset: 0x81B60, size: 0x8, addend: 0x0, symName: __RINvNvNtNtCs7yrEGia95Wz_10proc_macro6bridge14selfless_reify31reify_to_extern_c_fn_hrt_bridge7wrapperNtNtB6_6buffer6BufferNCINvMs7_NtB6_6clientINtB24_6ClientTNtB8_11TokenStreamB2v_EB2v_E7expand2NvCs9kQvaEtA2Tf_20pin_project_internal11pin_projectE0EB37_, symObjAddr: 0xDD4, symBinAddr: 0x52618, symSize: 0x5C }
  - { offset: 0x81BBC, size: 0x8, addend: 0x0, symName: __RINvNvNtNtCs7yrEGia95Wz_10proc_macro6bridge14selfless_reify31reify_to_extern_c_fn_hrt_bridge7wrapperNtNtB6_6buffer6BufferNCINvMs7_NtB6_6clientINtB24_6ClientTNtB8_11TokenStreamB2v_EB2v_E7expand2NvCs9kQvaEtA2Tf_20pin_project_internal11pinned_dropE0EB37_, symObjAddr: 0xE30, symBinAddr: 0x52674, symSize: 0x5C }
  - { offset: 0x81C18, size: 0x8, addend: 0x0, symName: __RINvNvNtNtCs7yrEGia95Wz_10proc_macro6bridge14selfless_reify31reify_to_extern_c_fn_hrt_bridge7wrapperNtNtB6_6buffer6BufferNCINvMs7_NtB6_6clientINtB24_6ClientTNtB8_11TokenStreamB2v_EB2v_E7expand2NvCs9kQvaEtA2Tf_20pin_project_internal11project_refE0EB37_, symObjAddr: 0xE8C, symBinAddr: 0x526D0, symSize: 0x5C }
  - { offset: 0x81C74, size: 0x8, addend: 0x0, symName: __RINvNvNtNtCs7yrEGia95Wz_10proc_macro6bridge14selfless_reify31reify_to_extern_c_fn_hrt_bridge7wrapperNtNtB6_6buffer6BufferNCINvMs7_NtB6_6clientINtB24_6ClientTNtB8_11TokenStreamB2v_EB2v_E7expand2NvCs9kQvaEtA2Tf_20pin_project_internal15project_replaceE0EB37_, symObjAddr: 0xEE8, symBinAddr: 0x5272C, symSize: 0x5C }
  - { offset: 0x81CD0, size: 0x8, addend: 0x0, symName: __RINvNvNtNtCs7yrEGia95Wz_10proc_macro6bridge14selfless_reify31reify_to_extern_c_fn_hrt_bridge7wrapperNtNtB6_6buffer6BufferNCINvMs7_NtB6_6clientINtB24_6ClientTNtB8_11TokenStreamB2v_EB2v_E7expand2NvCs9kQvaEtA2Tf_20pin_project_internal7projectE0EB37_, symObjAddr: 0xF44, symBinAddr: 0x52788, symSize: 0x5C }
  - { offset: 0x820BF, size: 0x8, addend: 0x0, symName: __RNvXs1J_NtCs7yrEGia95Wz_10proc_macro6bridgeINtB6_11ExpnGlobalsNtNtB6_6client4SpanEINtNtB6_3rpc9DecodeMutuE6decodeCs9kQvaEtA2Tf_20pin_project_internal, symObjAddr: 0x3260, symBinAddr: 0x54AA4, symSize: 0xB0 }
  - { offset: 0x82116, size: 0x8, addend: 0x0, symName: __RNvXs9_NtNtCs7yrEGia95Wz_10proc_macro6bridge3rpcTINtB7_11ExpnGlobalsNtNtB7_6client4SpanENtB16_11TokenStreamEINtB5_9DecodeMutuE6decodeCs9kQvaEtA2Tf_20pin_project_internal, symObjAddr: 0x33E8, symBinAddr: 0x54C2C, symSize: 0x84 }
  - { offset: 0x8216B, size: 0x8, addend: 0x0, symName: __RNvXs9_NtNtCs7yrEGia95Wz_10proc_macro6bridge3rpcTINtB7_11ExpnGlobalsNtNtB7_6client4SpanETNtB16_11TokenStreamB1p_EEINtB5_9DecodeMutuE6decodeCs9kQvaEtA2Tf_20pin_project_internal, symObjAddr: 0x346C, symBinAddr: 0x54CB0, symSize: 0x90 }
  - { offset: 0x850F3, size: 0x8, addend: 0x0, symName: __RNvNvMNtNtCsaNl6UpbT7bw_4core3ptr9const_ptrPp20offset_from_unsigned18precondition_checkCs9kQvaEtA2Tf_20pin_project_internal, symObjAddr: 0x2554, symBinAddr: 0x53D98, symSize: 0xAC }
  - { offset: 0x85801, size: 0x8, addend: 0x0, symName: __RNvNvNtCsaNl6UpbT7bw_4core3ptr19copy_nonoverlapping18precondition_checkCs9kQvaEtA2Tf_20pin_project_internal, symObjAddr: 0x2600, symBinAddr: 0x53E44, symSize: 0x36C }
  - { offset: 0x85AB4, size: 0x8, addend: 0x0, symName: __RNvNvNtCsaNl6UpbT7bw_4core3ptr4copy18precondition_checkCs9kQvaEtA2Tf_20pin_project_internal, symObjAddr: 0x296C, symBinAddr: 0x541B0, symSize: 0x240 }
  - { offset: 0x864A2, size: 0x8, addend: 0x0, symName: __RNvXs1_NtCsaNl6UpbT7bw_4core7convertNtNtCs807mVM355fU_3syn2ty8TypePathINtB5_4IntoNtBA_4TypeE4intoCs9kQvaEtA2Tf_20pin_project_internal, symObjAddr: 0x3310, symBinAddr: 0x54B54, symSize: 0x14 }
  - { offset: 0x868F7, size: 0x8, addend: 0x0, symName: __RNvMNtCsaNl6UpbT7bw_4core5sliceSNtNtCs807mVM355fU_3syn2ty4Type4iterCs9kQvaEtA2Tf_20pin_project_internal, symObjAddr: 0x1A94, symBinAddr: 0x532D8, symSize: 0x28 }
  - { offset: 0x8692E, size: 0x8, addend: 0x0, symName: __RNvMNtCsaNl6UpbT7bw_4core5sliceSTNtNtCs807mVM355fU_3syn2ty4TypeNtNtBz_5token5CommaE8iter_mutCs9kQvaEtA2Tf_20pin_project_internal, symObjAddr: 0x1ABC, symBinAddr: 0x53300, symSize: 0x28 }
  - { offset: 0x86965, size: 0x8, addend: 0x0, symName: __RNvMNtCsaNl6UpbT7bw_4core5sliceSTNtNtCs807mVM355fU_3syn2ty9BareFnArgNtNtBz_5token5CommaE8iter_mutCs9kQvaEtA2Tf_20pin_project_internal, symObjAddr: 0x1AE4, symBinAddr: 0x53328, symSize: 0x28 }
  - { offset: 0x869CE, size: 0x8, addend: 0x0, symName: __RNvXs0_NtNtCsaNl6UpbT7bw_4core5slice5indexjINtB5_10SliceIndexSNtNtCs807mVM355fU_3syn4attr9AttributeE3getCs9kQvaEtA2Tf_20pin_project_internal, symObjAddr: 0x2E74, symBinAddr: 0x546B8, symSize: 0x54 }
  - { offset: 0x86A11, size: 0x8, addend: 0x0, symName: __RNvXs0_NtNtCsaNl6UpbT7bw_4core5slice5indexjINtB5_10SliceIndexSNtNtCs807mVM355fU_3syn4item8ImplItemE9index_mutCs9kQvaEtA2Tf_20pin_project_internal, symObjAddr: 0x2EC8, symBinAddr: 0x5470C, symSize: 0x64 }
  - { offset: 0x86A57, size: 0x8, addend: 0x0, symName: __RNvXs0_NtNtCsaNl6UpbT7bw_4core5slice5indexjINtB5_10SliceIndexSTNtNtCs807mVM355fU_3syn4item5FnArgNtNtB13_5token5CommaEE5indexCs9kQvaEtA2Tf_20pin_project_internal, symObjAddr: 0x2F2C, symBinAddr: 0x54770, symSize: 0x64 }
  - { offset: 0x86A9D, size: 0x8, addend: 0x0, symName: __RNvXs0_NtNtCsaNl6UpbT7bw_4core5slice5indexjINtB5_10SliceIndexSTNtNtCs807mVM355fU_3syn4item5FnArgNtNtB13_5token5CommaEE9index_mutCs9kQvaEtA2Tf_20pin_project_internal, symObjAddr: 0x2F90, symBinAddr: 0x547D4, symSize: 0x64 }
  - { offset: 0x86AE3, size: 0x8, addend: 0x0, symName: __RNvXs0_NtNtCsaNl6UpbT7bw_4core5slice5indexjINtB5_10SliceIndexSTNtNtCs807mVM355fU_3syn4path11PathSegmentNtNtB13_5token6Colon2EE9index_mutCs9kQvaEtA2Tf_20pin_project_internal, symObjAddr: 0x2FF4, symBinAddr: 0x54838, symSize: 0x64 }
  - { offset: 0x86F69, size: 0x8, addend: 0x0, symName: __RINvNtCsaNl6UpbT7bw_4core9panicking13panic_displayNtNtCs807mVM355fU_3syn5error5ErrorECs9kQvaEtA2Tf_20pin_project_internal, symObjAddr: 0xA8C, symBinAddr: 0x522D0, symSize: 0x88 }
  - { offset: 0x86FEF, size: 0x8, addend: 0x0, symName: __RINvNtCsaNl6UpbT7bw_4core9panicking19unreachable_displayReECs9kQvaEtA2Tf_20pin_project_internal, symObjAddr: 0xB14, symBinAddr: 0x52358, symSize: 0x88 }
  - { offset: 0x870B3, size: 0x8, addend: 0x0, symName: __RNvXsn_NtNtCsaNl6UpbT7bw_4core5panic11unwind_safeINtB5_16AssertUnwindSafeNCINvNtNtCs7yrEGia95Wz_10proc_macro6bridge6client10run_clientNtB1e_11TokenStreamINtNtB9_6option6OptionB28_ENCNCINvMs6_B1e_INtB1e_6ClientNtB1i_11TokenStreamB3l_E7expand1NvCs9kQvaEtA2Tf_20pin_project_internal29___pin_project_internal_deriveE00E0EINtNtNtB9_3ops8function6FnOnceuE9call_onceB3T_, symObjAddr: 0x518C, symBinAddr: 0x569D0, symSize: 0x38 }
  - { offset: 0x8710B, size: 0x8, addend: 0x0, symName: __RNvXsn_NtNtCsaNl6UpbT7bw_4core5panic11unwind_safeINtB5_16AssertUnwindSafeNCINvNtNtCs7yrEGia95Wz_10proc_macro6bridge6client10run_clientTNtB1e_11TokenStreamB29_EINtNtB9_6option6OptionB29_ENCNCINvMs7_B1e_INtB1e_6ClientTNtB1i_11TokenStreamB3s_EB3s_E7expand2NvCs9kQvaEtA2Tf_20pin_project_internal11pin_projectE00E0EINtNtNtB9_3ops8function6FnOnceuE9call_onceB45_, symObjAddr: 0x51C4, symBinAddr: 0x56A08, symSize: 0x38 }
  - { offset: 0x87163, size: 0x8, addend: 0x0, symName: __RNvXsn_NtNtCsaNl6UpbT7bw_4core5panic11unwind_safeINtB5_16AssertUnwindSafeNCINvNtNtCs7yrEGia95Wz_10proc_macro6bridge6client10run_clientTNtB1e_11TokenStreamB29_EINtNtB9_6option6OptionB29_ENCNCINvMs7_B1e_INtB1e_6ClientTNtB1i_11TokenStreamB3s_EB3s_E7expand2NvCs9kQvaEtA2Tf_20pin_project_internal11pinned_dropE00E0EINtNtNtB9_3ops8function6FnOnceuE9call_onceB45_, symObjAddr: 0x51FC, symBinAddr: 0x56A40, symSize: 0x38 }
  - { offset: 0x871BB, size: 0x8, addend: 0x0, symName: __RNvXsn_NtNtCsaNl6UpbT7bw_4core5panic11unwind_safeINtB5_16AssertUnwindSafeNCINvNtNtCs7yrEGia95Wz_10proc_macro6bridge6client10run_clientTNtB1e_11TokenStreamB29_EINtNtB9_6option6OptionB29_ENCNCINvMs7_B1e_INtB1e_6ClientTNtB1i_11TokenStreamB3s_EB3s_E7expand2NvCs9kQvaEtA2Tf_20pin_project_internal11project_refE00E0EINtNtNtB9_3ops8function6FnOnceuE9call_onceB45_, symObjAddr: 0x5234, symBinAddr: 0x56A78, symSize: 0x38 }
  - { offset: 0x87213, size: 0x8, addend: 0x0, symName: __RNvXsn_NtNtCsaNl6UpbT7bw_4core5panic11unwind_safeINtB5_16AssertUnwindSafeNCINvNtNtCs7yrEGia95Wz_10proc_macro6bridge6client10run_clientTNtB1e_11TokenStreamB29_EINtNtB9_6option6OptionB29_ENCNCINvMs7_B1e_INtB1e_6ClientTNtB1i_11TokenStreamB3s_EB3s_E7expand2NvCs9kQvaEtA2Tf_20pin_project_internal15project_replaceE00E0EINtNtNtB9_3ops8function6FnOnceuE9call_onceB45_, symObjAddr: 0x526C, symBinAddr: 0x56AB0, symSize: 0x38 }
  - { offset: 0x8726B, size: 0x8, addend: 0x0, symName: __RNvXsn_NtNtCsaNl6UpbT7bw_4core5panic11unwind_safeINtB5_16AssertUnwindSafeNCINvNtNtCs7yrEGia95Wz_10proc_macro6bridge6client10run_clientTNtB1e_11TokenStreamB29_EINtNtB9_6option6OptionB29_ENCNCINvMs7_B1e_INtB1e_6ClientTNtB1i_11TokenStreamB3s_EB3s_E7expand2NvCs9kQvaEtA2Tf_20pin_project_internal7projectE00E0EINtNtNtB9_3ops8function6FnOnceuE9call_onceB45_, symObjAddr: 0x52A4, symBinAddr: 0x56AE8, symSize: 0x38 }
  - { offset: 0x873A0, size: 0x8, addend: 0x0, symName: __RINvXs0_NtNtNtCsaNl6UpbT7bw_4core4iter8adapters3mapINtB6_3MapIBO_NtNtCshnvkK9b4wzu_11proc_macro212token_stream8IntoIterNCNvNtCs9kQvaEtA2Tf_20pin_project_internal5utils13respan_tokens0ENvNtB15_3imp19into_compiler_tokenENtNtNtBa_6traits8iterator8Iterator4folduNCINvNvB3u_8for_each4callNtCs7yrEGia95Wz_10proc_macro9TokenTreeNCINvXsg_B4z_NtB4z_11TokenStreamINtNtB3y_7collect12FromIteratorB4x_E9from_iterBN_E0E0EB1Z_, symObjAddr: 0xFA0, symBinAddr: 0x527E4, symSize: 0x4C }
  - { offset: 0x87412, size: 0x8, addend: 0x0, symName: __RINvXs0_NtNtNtCsaNl6UpbT7bw_4core4iter8adapters3mapINtB6_3MapNtNtCshnvkK9b4wzu_11proc_macro212token_stream8IntoIterNCNvNtCs9kQvaEtA2Tf_20pin_project_internal5utils13respan_tokens0ENtNtNtBa_6traits8iterator8Iterator4folduNCINvB6_8map_foldNtB11_9TokenTreeNtCs7yrEGia95Wz_10proc_macro9TokenTreeuNvNtB11_3imp19into_compiler_tokenNCINvNvB2S_8for_each4callB43_NCINvXsg_B45_NtB45_11TokenStreamINtNtB2W_7collect12FromIteratorB43_E9from_iterIBO_BN_B4G_EE0E0E0EB1V_, symObjAddr: 0xFEC, symBinAddr: 0x52830, symSize: 0x58 }
  - { offset: 0x87484, size: 0x8, addend: 0x0, symName: __RINvXs0_NtNtNtCsaNl6UpbT7bw_4core4iter8adapters3mapINtB6_3MapNtNtCshnvkK9b4wzu_11proc_macro212token_stream8IntoIterNCNvNtCs9kQvaEtA2Tf_20pin_project_internal5utils13respan_tokens0ENtNtNtBa_6traits8iterator8Iterator4folduNCINvNvB2S_8for_each4callNtB11_9TokenTreeNCINvXsa_NtB11_8fallbackNtB4k_11TokenStreamINtNtB2W_7collect6ExtendB3V_E6extendBN_E0E0EB1V_, symObjAddr: 0x1044, symBinAddr: 0x52888, symSize: 0x58 }
  - { offset: 0x874F6, size: 0x8, addend: 0x0, symName: __RNvXs0_NtNtNtCsaNl6UpbT7bw_4core4iter8adapters3mapINtB5_3MapIBN_NtNtCshnvkK9b4wzu_11proc_macro212token_stream8IntoIterNCNvNtCs9kQvaEtA2Tf_20pin_project_internal5utils13respan_tokens0ENvNtB14_3imp19into_compiler_tokenENtNtNtB9_6traits8iterator8Iterator9size_hintB1Y_, symObjAddr: 0x3058, symBinAddr: 0x5489C, symSize: 0x24 }
  - { offset: 0x8753D, size: 0x8, addend: 0x0, symName: __RNvXs0_NtNtNtCsaNl6UpbT7bw_4core4iter8adapters3mapINtB5_3MapINtNtB7_9enumerate9EnumerateINtNtNtBb_5slice4iter4IterNtNtCs807mVM355fU_3syn2ty4TypeEENCNvMs1_NtNtCs9kQvaEtA2Tf_20pin_project_internal11pin_project6deriveNtB2s_7Context15make_unpin_impl0ENtNtNtB9_6traits8iterator8Iterator4nextB2w_, symObjAddr: 0x307C, symBinAddr: 0x548C0, symSize: 0xA4 }
  - { offset: 0x875D5, size: 0x8, addend: 0x0, symName: __RNvXs0_NtNtNtCsaNl6UpbT7bw_4core4iter8adapters3mapINtB5_3MapINtNtB7_9enumerate9EnumerateNtNtCs807mVM355fU_3syn8generics9LifetimesENCNvMs1_NtNtCs9kQvaEtA2Tf_20pin_project_internal11pin_project6deriveNtB2c_7Context15make_unpin_impls_0ENtNtNtB9_6traits8iterator8Iterator4nextB2g_, symObjAddr: 0x3120, symBinAddr: 0x54964, symSize: 0xA4 }
  - { offset: 0x8766D, size: 0x8, addend: 0x0, symName: __RNvXs0_NtNtNtCsaNl6UpbT7bw_4core4iter8adapters3mapINtB5_3MapNtNtCs807mVM355fU_3syn8generics10TypeParamsNCNvMs1_NtNtCs9kQvaEtA2Tf_20pin_project_internal11pin_project6deriveNtB1L_7Context15make_unpin_impls0_0ENtNtNtB9_6traits8iterator8Iterator4nextB1P_, symObjAddr: 0x31C4, symBinAddr: 0x54A08, symSize: 0x78 }
  - { offset: 0x87705, size: 0x8, addend: 0x0, symName: __RNvXs0_NtNtNtCsaNl6UpbT7bw_4core4iter8adapters3mapINtB5_3MapNtNtCshnvkK9b4wzu_11proc_macro212token_stream8IntoIterNCNvNtCs9kQvaEtA2Tf_20pin_project_internal5utils13respan_tokens0ENtNtNtB9_6traits8iterator8Iterator9size_hintB1U_, symObjAddr: 0x323C, symBinAddr: 0x54A80, symSize: 0x24 }
  - { offset: 0x877E4, size: 0x8, addend: 0x0, symName: __RNCINvNtNtNtCsaNl6UpbT7bw_4core4iter8adapters3map8map_foldNtCshnvkK9b4wzu_11proc_macro29TokenTreeBU_uNCNvNtCs9kQvaEtA2Tf_20pin_project_internal5utils13respan_tokens0NCIB2_BU_NtCs7yrEGia95Wz_10proc_macro9TokenTreeuNvNtBW_3imp19into_compiler_tokenNCINvNvNtNtNtB8_6traits8iterator8Iterator8for_each4callB2M_NCINvXsg_B2O_NtB2O_11TokenStreamINtNtB46_7collect12FromIteratorB2M_E9from_iterINtB4_3MapIB69_NtNtBW_12token_stream8IntoIterB1B_EB3p_EE0E0E0E0B1H_, symObjAddr: 0x1594, symBinAddr: 0x52DD8, symSize: 0x9C }
  - { offset: 0x8786A, size: 0x8, addend: 0x0, symName: __RNCINvNtNtNtCsaNl6UpbT7bw_4core4iter8adapters3map8map_foldNtCshnvkK9b4wzu_11proc_macro29TokenTreeBU_uNCNvNtCs9kQvaEtA2Tf_20pin_project_internal5utils13respan_tokens0NCINvNvNtNtNtB8_6traits8iterator8Iterator8for_each4callBU_NCINvXsa_NtBW_8fallbackNtB3I_11TokenStreamINtNtB2O_7collect6ExtendBU_E6extendINtB4_3MapNtNtBW_12token_stream8IntoIterB1B_EE0E0E0B1H_, symObjAddr: 0x1630, symBinAddr: 0x52E74, symSize: 0x9C }
  - { offset: 0x878F0, size: 0x8, addend: 0x0, symName: __RNCINvNtNtNtCsaNl6UpbT7bw_4core4iter8adapters3map8map_foldNtCshnvkK9b4wzu_11proc_macro29TokenTreeNtCs7yrEGia95Wz_10proc_macro9TokenTreeuNvNtBW_3imp19into_compiler_tokenNCINvNvNtNtNtB8_6traits8iterator8Iterator8for_each4callB1x_NCINvXsg_B1z_NtB1z_11TokenStreamINtNtB2R_7collect12FromIteratorB1x_E9from_iterINtB4_3MapIB4U_NtNtBW_12token_stream8IntoIterNCNvNtCs9kQvaEtA2Tf_20pin_project_internal5utils13respan_tokens0EB2a_EE0E0E0B5I_, symObjAddr: 0x16CC, symBinAddr: 0x52F10, symSize: 0x9C }
  - { offset: 0x87A39, size: 0x8, addend: 0x0, symName: __RNvXs_NtNtNtCsaNl6UpbT7bw_4core4iter8adapters3revINtB4_3RevINtNtNtBa_5slice4iter4IterNtCshnvkK9b4wzu_11proc_macro25IdentEENtNtNtB8_6traits8iterator8Iterator4nextCs9kQvaEtA2Tf_20pin_project_internal, symObjAddr: 0x3628, symBinAddr: 0x54E6C, symSize: 0x24 }
  - { offset: 0x87AF8, size: 0x8, addend: 0x0, symName: __RINvYINtNtNtNtCsaNl6UpbT7bw_4core4iter8adapters3map3MapIB4_NtNtCshnvkK9b4wzu_11proc_macro212token_stream8IntoIterNCNvNtCs9kQvaEtA2Tf_20pin_project_internal5utils13respan_tokens0ENvNtBZ_3imp19into_compiler_tokenENtNtNtBa_6traits8iterator8Iterator7collectNtCs7yrEGia95Wz_10proc_macro11TokenStreamEB1T_, symObjAddr: 0x136C, symBinAddr: 0x52BB0, symSize: 0x6C }
  - { offset: 0x87B8E, size: 0x8, addend: 0x0, symName: __RINvYINtNtNtNtCsaNl6UpbT7bw_4core4iter8adapters3map3MapIB4_NtNtCshnvkK9b4wzu_11proc_macro212token_stream8IntoIterNCNvNtCs9kQvaEtA2Tf_20pin_project_internal5utils13respan_tokens0ENvNtBZ_3imp19into_compiler_tokenENtNtNtBa_6traits8iterator8Iterator8for_eachNCINvXsg_Cs7yrEGia95Wz_10proc_macroNtB4d_11TokenStreamINtNtB3r_7collect12FromIteratorNtB4d_9TokenTreeE9from_iterB3_E0EB1T_, symObjAddr: 0x13D8, symBinAddr: 0x52C1C, symSize: 0x24 }
  - { offset: 0x87BDA, size: 0x8, addend: 0x0, symName: __RINvYINtNtNtNtCsaNl6UpbT7bw_4core4iter8adapters3map3MapNtNtCshnvkK9b4wzu_11proc_macro212token_stream8IntoIterNCNvNtCs9kQvaEtA2Tf_20pin_project_internal5utils13respan_tokens0ENtNtNtBa_6traits8iterator8Iterator3mapNtCs7yrEGia95Wz_10proc_macro9TokenTreeNvNtBV_3imp19into_compiler_tokenEB1P_, symObjAddr: 0x13FC, symBinAddr: 0x52C40, symSize: 0x30 }
  - { offset: 0x87C48, size: 0x8, addend: 0x0, symName: __RINvYINtNtNtNtCsaNl6UpbT7bw_4core4iter8adapters3map3MapNtNtCshnvkK9b4wzu_11proc_macro212token_stream8IntoIterNCNvNtCs9kQvaEtA2Tf_20pin_project_internal5utils13respan_tokens0ENtNtNtBa_6traits8iterator8Iterator7collectNtBV_11TokenStreamEB1P_, symObjAddr: 0x142C, symBinAddr: 0x52C70, symSize: 0x6C }
  - { offset: 0x87CDE, size: 0x8, addend: 0x0, symName: __RINvYINtNtNtNtCsaNl6UpbT7bw_4core4iter8adapters3map3MapNtNtCshnvkK9b4wzu_11proc_macro212token_stream8IntoIterNCNvNtCs9kQvaEtA2Tf_20pin_project_internal5utils13respan_tokens0ENtNtNtBa_6traits8iterator8Iterator7collectNtNtBV_3imp11TokenStreamEB1P_, symObjAddr: 0x1498, symBinAddr: 0x52CDC, symSize: 0x6C }
  - { offset: 0x87D74, size: 0x8, addend: 0x0, symName: __RINvYINtNtNtNtCsaNl6UpbT7bw_4core4iter8adapters3map3MapNtNtCshnvkK9b4wzu_11proc_macro212token_stream8IntoIterNCNvNtCs9kQvaEtA2Tf_20pin_project_internal5utils13respan_tokens0ENtNtNtBa_6traits8iterator8Iterator7collectNtNtBV_8fallback11TokenStreamEB1P_, symObjAddr: 0x1504, symBinAddr: 0x52D48, symSize: 0x6C }
  - { offset: 0x87E0A, size: 0x8, addend: 0x0, symName: __RINvYINtNtNtNtCsaNl6UpbT7bw_4core4iter8adapters3map3MapNtNtCshnvkK9b4wzu_11proc_macro212token_stream8IntoIterNCNvNtCs9kQvaEtA2Tf_20pin_project_internal5utils13respan_tokens0ENtNtNtBa_6traits8iterator8Iterator8for_eachNCINvXsa_NtBV_8fallbackNtB3C_11TokenStreamINtNtB2Q_7collect6ExtendNtBV_9TokenTreeE6extendB3_E0EB1P_, symObjAddr: 0x1570, symBinAddr: 0x52DB4, symSize: 0x24 }
  - { offset: 0x87E60, size: 0x8, addend: 0x0, symName: __RNCINvNvNtNtNtNtCsaNl6UpbT7bw_4core4iter6traits8iterator8Iterator12try_for_each4callTjRNtNtCs807mVM355fU_3syn4item8ImplItemEINtNtBe_6result6ResultuNtNtB1r_5error5ErrorENCNvNtCs9kQvaEtA2Tf_20pin_project_internal11pinned_drop5parse0E0B2M_, symObjAddr: 0x1768, symBinAddr: 0x52FAC, symSize: 0x30 }
  - { offset: 0x87ED1, size: 0x8, addend: 0x0, symName: __RNCINvNvNtNtNtNtCsaNl6UpbT7bw_4core4iter6traits8iterator8Iterator3any5checkNtCshnvkK9b4wzu_11proc_macro29TokenTreeNCNvNtCs9kQvaEtA2Tf_20pin_project_internal5utils11contains_fn0E0B1U_, symObjAddr: 0x1798, symBinAddr: 0x52FDC, symSize: 0x60 }
  - { offset: 0x87F2E, size: 0x8, addend: 0x0, symName: __RNCINvNvNtNtNtNtCsaNl6UpbT7bw_4core4iter6traits8iterator8Iterator3any5checkRNtNtCs807mVM355fU_3syn3pat3PatNCNvNtCs9kQvaEtA2Tf_20pin_project_internal7project14is_replaceable0E0B1M_, symObjAddr: 0x17F8, symBinAddr: 0x5303C, symSize: 0x50 }
  - { offset: 0x87F96, size: 0x8, addend: 0x0, symName: __RNCINvNvNtNtNtNtCsaNl6UpbT7bw_4core4iter6traits8iterator8Iterator8for_each4callNtCs7yrEGia95Wz_10proc_macro9TokenTreeNCINvXsg_B1h_NtB1h_11TokenStreamINtNtBa_7collect12FromIteratorB1f_E9from_iterINtNtNtBc_8adapters3map3MapIB37_NtNtCshnvkK9b4wzu_11proc_macro212token_stream8IntoIterNCNvNtCs9kQvaEtA2Tf_20pin_project_internal5utils13respan_tokens0ENvNtB3G_3imp19into_compiler_tokenEE0E0B4A_, symObjAddr: 0x1848, symBinAddr: 0x5308C, symSize: 0x3C }
  - { offset: 0x87FEF, size: 0x8, addend: 0x0, symName: __RNCINvNvNtNtNtNtCsaNl6UpbT7bw_4core4iter6traits8iterator8Iterator8for_each4callNtCshnvkK9b4wzu_11proc_macro29TokenTreeNCINvXsa_NtB1h_8fallbackNtB21_11TokenStreamINtNtBa_7collect6ExtendB1f_E6extendINtNtNtBc_8adapters3map3MapNtNtB1h_12token_stream8IntoIterNCNvNtCs9kQvaEtA2Tf_20pin_project_internal5utils13respan_tokens0EE0E0B4a_, symObjAddr: 0x1884, symBinAddr: 0x530C8, symSize: 0x3C }
  - { offset: 0x88048, size: 0x8, addend: 0x0, symName: __RNCINvNvNtNtNtNtCsaNl6UpbT7bw_4core4iter6traits8iterator8Iterator8for_each4callNtCshnvkK9b4wzu_11proc_macro29TokenTreeNCINvXsa_NtB1h_8fallbackNtB21_11TokenStreamINtNtBa_7collect6ExtendB1f_E6extendNtB1h_11TokenStreamE0E0Cs9kQvaEtA2Tf_20pin_project_internal, symObjAddr: 0x18C0, symBinAddr: 0x53104, symSize: 0x3C }
  - { offset: 0x880A1, size: 0x8, addend: 0x0, symName: __RNCINvNvNtNtNtNtCsaNl6UpbT7bw_4core4iter6traits8iterator8Iterator8for_each4callQNtNtCs807mVM355fU_3syn3pat3PatNCNvMNtCs9kQvaEtA2Tf_20pin_project_internal7projectNtB1P_7Context11replace_pat0E0B1R_, symObjAddr: 0x18FC, symBinAddr: 0x53140, symSize: 0x2C }
  - { offset: 0x880F9, size: 0x8, addend: 0x0, symName: __RNCINvNvNtNtNtNtCsaNl6UpbT7bw_4core4iter6traits8iterator8Iterator8for_each4callQNtNtCs807mVM355fU_3syn4item14ImplItemMethodNCNvNtCs9kQvaEtA2Tf_20pin_project_internal7project17replace_item_impls_0E0B23_, symObjAddr: 0x1928, symBinAddr: 0x5316C, symSize: 0x2C }
  - { offset: 0x88188, size: 0x8, addend: 0x0, symName: __RNCNvXs_NvNtNtNtNtCsaNl6UpbT7bw_4core4iter6traits8iterator8Iterator10advance_byINtNtCs807mVM355fU_3syn10punctuated11PrivateIterNtNtB1k_3pat3PatNtNtB1k_5token2OrENtB6_13SpecAdvanceBy15spec_advance_by0Cs9kQvaEtA2Tf_20pin_project_internal, symObjAddr: 0x19B8, symBinAddr: 0x531FC, symSize: 0x20 }
  - { offset: 0x881D5, size: 0x8, addend: 0x0, symName: __RNCNvXs_NvNtNtNtNtCsaNl6UpbT7bw_4core4iter6traits8iterator8Iterator10advance_byINtNtCs807mVM355fU_3syn10punctuated11PrivateIterNtNtB1k_4attr10NestedMetaNtNtB1k_5token5CommaENtB6_13SpecAdvanceBy15spec_advance_by0Cs9kQvaEtA2Tf_20pin_project_internal, symObjAddr: 0x19D8, symBinAddr: 0x5321C, symSize: 0x20 }
  - { offset: 0x88222, size: 0x8, addend: 0x0, symName: __RNCNvXs_NvNtNtNtNtCsaNl6UpbT7bw_4core4iter6traits8iterator8Iterator10advance_byINtNtCs807mVM355fU_3syn10punctuated11PrivateIterNtNtB1k_4data7VariantNtNtB1k_5token5CommaENtB6_13SpecAdvanceBy15spec_advance_by0Cs9kQvaEtA2Tf_20pin_project_internal, symObjAddr: 0x19F8, symBinAddr: 0x5323C, symSize: 0x20 }
  - { offset: 0x8826F, size: 0x8, addend: 0x0, symName: __RNCNvXs_NvNtNtNtNtCsaNl6UpbT7bw_4core4iter6traits8iterator8Iterator10advance_byINtNtCs807mVM355fU_3syn10punctuated11PrivateIterNtNtB1k_4path15GenericArgumentNtNtB1k_5token5CommaENtB6_13SpecAdvanceBy15spec_advance_by0Cs9kQvaEtA2Tf_20pin_project_internal, symObjAddr: 0x1A18, symBinAddr: 0x5325C, symSize: 0x20 }
  - { offset: 0x882BC, size: 0x8, addend: 0x0, symName: __RNCNvXs_NvNtNtNtNtCsaNl6UpbT7bw_4core4iter6traits8iterator8Iterator10advance_byINtNtCs807mVM355fU_3syn10punctuated14PrivateIterMutNtNtB1k_3pat3PatNtNtB1k_5token2OrENtB6_13SpecAdvanceBy15spec_advance_by0Cs9kQvaEtA2Tf_20pin_project_internal, symObjAddr: 0x1A38, symBinAddr: 0x5327C, symSize: 0x20 }
  - { offset: 0x88309, size: 0x8, addend: 0x0, symName: __RNCNvXs_NvNtNtNtNtCsaNl6UpbT7bw_4core4iter6traits8iterator8Iterator10advance_byINtNtCs807mVM355fU_3syn10punctuated9IntoPairsNtNtB1k_4path11PathSegmentNtNtB1k_5token6Colon2ENtB6_13SpecAdvanceBy15spec_advance_by0Cs9kQvaEtA2Tf_20pin_project_internal, symObjAddr: 0x1A58, symBinAddr: 0x5329C, symSize: 0x3C }
  - { offset: 0x88390, size: 0x8, addend: 0x0, symName: __RNvXNtNtNtCsaNl6UpbT7bw_4core4iter6traits7collectINtNtNtB6_8adapters3map3MapIBM_NtNtCshnvkK9b4wzu_11proc_macro212token_stream8IntoIterNCNvNtCs9kQvaEtA2Tf_20pin_project_internal5utils13respan_tokens0ENvNtB1k_3imp19into_compiler_tokenENtB2_12IntoIterator9into_iterB2e_, symObjAddr: 0x2E14, symBinAddr: 0x54658, symSize: 0x30 }
  - { offset: 0x883C8, size: 0x8, addend: 0x0, symName: __RNvXNtNtNtCsaNl6UpbT7bw_4core4iter6traits7collectINtNtNtB6_8adapters3map3MapNtNtCshnvkK9b4wzu_11proc_macro212token_stream8IntoIterNCNvNtCs9kQvaEtA2Tf_20pin_project_internal5utils13respan_tokens0ENtB2_12IntoIterator9into_iterB2a_, symObjAddr: 0x2E44, symBinAddr: 0x54688, symSize: 0x30 }
  - { offset: 0x88521, size: 0x8, addend: 0x0, symName: __RNvNvNtCsaNl6UpbT7bw_4core9ub_checks23maybe_is_nonoverlapping7runtimeCs9kQvaEtA2Tf_20pin_project_internal, symObjAddr: 0x2BAC, symBinAddr: 0x543F0, symSize: 0xD8 }
  - { offset: 0x888CD, size: 0x8, addend: 0x0, symName: __RINvXs5_NtCshnvkK9b4wzu_11proc_macro23impNtB6_11TokenStreamINtNtNtNtCsaNl6UpbT7bw_4core4iter6traits7collect12FromIteratorNtB8_9TokenTreeE9from_iterINtNtNtB12_8adapters3map3MapNtNtB8_12token_stream8IntoIterNCNvNtCs9kQvaEtA2Tf_20pin_project_internal5utils13respan_tokens0EEB3n_, symObjAddr: 0x109C, symBinAddr: 0x528E0, symSize: 0x16C }
  - { offset: 0x88909, size: 0x8, addend: 0x0, symName: __RINvXs7_NtCshnvkK9b4wzu_11proc_macro23impNtB6_11TokenStreamINtNtNtNtCsaNl6UpbT7bw_4core4iter6traits7collect6ExtendNtB8_9TokenTreeE6extendNtB8_11TokenStreamECs9kQvaEtA2Tf_20pin_project_internal, symObjAddr: 0x1208, symBinAddr: 0x52A4C, symSize: 0x164 }
  - { offset: 0x88B9D, size: 0x8, addend: 0x0, symName: __RNvXsA_NtCshnvkK9b4wzu_11proc_macro23impNtB5_19DeferredTokenStreamNtNtCsaNl6UpbT7bw_4core5clone5Clone5cloneCs9kQvaEtA2Tf_20pin_project_internal, symObjAddr: 0x34FC, symBinAddr: 0x54D40, symSize: 0x90 }
  - { offset: 0x88BCF, size: 0x8, addend: 0x0, symName: __RNvXsF_NtCshnvkK9b4wzu_11proc_macro23impNtB5_5IdentNtNtCsaNl6UpbT7bw_4core5clone5Clone5cloneCs9kQvaEtA2Tf_20pin_project_internal, symObjAddr: 0x358C, symBinAddr: 0x54DD0, symSize: 0x9C }
  - { offset: 0x88C3F, size: 0x8, addend: 0x0, symName: __RNvXsz_NtCshnvkK9b4wzu_11proc_macro23impNtB5_11TokenStreamNtNtCsaNl6UpbT7bw_4core5clone5Clone5cloneCs9kQvaEtA2Tf_20pin_project_internal, symObjAddr: 0x52DC, symBinAddr: 0x56B20, symSize: 0x98 }
  - { offset: 0x89129, size: 0x8, addend: 0x0, symName: __RNCNvXs1_NtNtNtCsht3nMU9UgFu_3std2io5error14repr_bitpackedNtB7_4ReprNtNtNtCsaNl6UpbT7bw_4core3ops4drop4Drop4drop0Cs9kQvaEtA2Tf_20pin_project_internal, symObjAddr: 0x197C, symBinAddr: 0x531C0, symSize: 0x3C }
  - { offset: 0x891DE, size: 0x8, addend: 0x0, symName: __RNvXs1_NtNtNtCsht3nMU9UgFu_3std2io5error14repr_bitpackedNtB5_4ReprNtNtNtCsaNl6UpbT7bw_4core3ops4drop4Drop4dropCs9kQvaEtA2Tf_20pin_project_internal, symObjAddr: 0x3324, symBinAddr: 0x54B68, symSize: 0x38 }
  - { offset: 0x89207, size: 0x8, addend: 0x0, symName: __RINvNtNtNtCsht3nMU9UgFu_3std2io5error14repr_bitpacked11decode_reprINtNtCsiTraAjBDcu4_5alloc5boxed3BoxNtB4_6CustomENCNvXs1_B2_NtB2_4ReprNtNtNtCsaNl6UpbT7bw_4core3ops4drop4Drop4drop0ECs9kQvaEtA2Tf_20pin_project_internal, symObjAddr: 0xB9C, symBinAddr: 0x523E0, symSize: 0x1DC }
  - { offset: 0x89463, size: 0x8, addend: 0x0, symName: __RNvNtNtNtCsht3nMU9UgFu_3std2io5error14repr_bitpacked14kind_from_primCs9kQvaEtA2Tf_20pin_project_internal, symObjAddr: 0x1DFC, symBinAddr: 0x53640, symSize: 0x758 }
  - { offset: 0x89E06, size: 0x8, addend: 0x0, symName: __RNCNvMs3_NtNtCsht3nMU9UgFu_3std6thread5localINtB7_8LocalKeyINtNtCsaNl6UpbT7bw_4core4cell4CellPuEE7replace0Cs9kQvaEtA2Tf_20pin_project_internal, symObjAddr: 0x1954, symBinAddr: 0x53198, symSize: 0x28 }
  - { offset: 0x89EEE, size: 0x8, addend: 0x0, symName: __RINvMs2_NtNtCsht3nMU9UgFu_3std6thread5localINtB6_8LocalKeyINtNtCsaNl6UpbT7bw_4core4cell4CellPuEE4withNCNvMs3_B6_BF_7replace0B1s_ECs9kQvaEtA2Tf_20pin_project_internal, symObjAddr: 0x0, symBinAddr: 0x51844, symSize: 0x54 }
  - { offset: 0x89FA7, size: 0x8, addend: 0x0, symName: __RINvMs2_NtNtCsht3nMU9UgFu_3std6thread5localINtB6_8LocalKeyINtNtCsaNl6UpbT7bw_4core4cell4CellPuEE8try_withNCNvMs3_B6_BF_7replace0B1s_ECs9kQvaEtA2Tf_20pin_project_internal, symObjAddr: 0x54, symBinAddr: 0x51898, symSize: 0xE4 }
  - { offset: 0x8A147, size: 0x8, addend: 0x0, symName: __RINvMs3_NtNtCs7yrEGia95Wz_10proc_macro6bridge6bufferNtB6_6Buffer17extend_from_arrayKj4_ECs9kQvaEtA2Tf_20pin_project_internal, symObjAddr: 0x138, symBinAddr: 0x5197C, symSize: 0x16C }
  - { offset: 0x8A2CF, size: 0x8, addend: 0x0, symName: __RINvMs3_NtNtCs7yrEGia95Wz_10proc_macro6bridge6bufferNtB6_6Buffer17extend_from_arrayKj8_ECs9kQvaEtA2Tf_20pin_project_internal, symObjAddr: 0x2A4, symBinAddr: 0x51AE8, symSize: 0x16C }
  - { offset: 0x8A435, size: 0x8, addend: 0x0, symName: __RINvNtCs807mVM355fU_3syn11parse_quote5parseINtNtCsiTraAjBDcu4_5alloc3vec3VecNtNtB4_4stmt4StmtEECs9kQvaEtA2Tf_20pin_project_internal, symObjAddr: 0x410, symBinAddr: 0x51C54, symSize: 0xC0 }
  - { offset: 0x8A495, size: 0x8, addend: 0x0, symName: __RINvNtCs807mVM355fU_3syn11parse_quote5parseNtNtB4_2ty4TypeECs9kQvaEtA2Tf_20pin_project_internal, symObjAddr: 0x4D0, symBinAddr: 0x51D14, symSize: 0xD8 }
  - { offset: 0x8A4F5, size: 0x8, addend: 0x0, symName: __RINvNtCs807mVM355fU_3syn11parse_quote5parseNtNtB4_2ty8TypePathECs9kQvaEtA2Tf_20pin_project_internal, symObjAddr: 0x5A8, symBinAddr: 0x51DEC, symSize: 0xCC }
  - { offset: 0x8A555, size: 0x8, addend: 0x0, symName: __RINvNtCs807mVM355fU_3syn11parse_quote5parseNtNtB4_4path15GenericArgumentECs9kQvaEtA2Tf_20pin_project_internal, symObjAddr: 0x674, symBinAddr: 0x51EB8, symSize: 0xD8 }
  - { offset: 0x8A5B5, size: 0x8, addend: 0x0, symName: __RINvNtCs807mVM355fU_3syn11parse_quote5parseNtNtB4_4path30AngleBracketedGenericArgumentsECs9kQvaEtA2Tf_20pin_project_internal, symObjAddr: 0x74C, symBinAddr: 0x51F90, symSize: 0xCC }
  - { offset: 0x8A615, size: 0x8, addend: 0x0, symName: __RINvNtCs807mVM355fU_3syn11parse_quote5parseNtNtB4_4stmt4StmtECs9kQvaEtA2Tf_20pin_project_internal, symObjAddr: 0x818, symBinAddr: 0x5205C, symSize: 0xD0 }
  - { offset: 0x8A675, size: 0x8, addend: 0x0, symName: __RINvNtCs807mVM355fU_3syn11parse_quote5parseNtNtB4_8generics14WherePredicateECs9kQvaEtA2Tf_20pin_project_internal, symObjAddr: 0x8E8, symBinAddr: 0x5212C, symSize: 0xD8 }
  - { offset: 0x8A6D5, size: 0x8, addend: 0x0, symName: __RINvNtCs807mVM355fU_3syn11parse_quote5parseNtNtB4_8generics8GenericsECs9kQvaEtA2Tf_20pin_project_internal, symObjAddr: 0x9C0, symBinAddr: 0x52204, symSize: 0xCC }
  - { offset: 0x8A73A, size: 0x8, addend: 0x0, symName: __RNvXNtCs807mVM355fU_3syn11parse_quoteNtNtB4_2ty4TypeNtB2_10ParseQuote5parseCs9kQvaEtA2Tf_20pin_project_internal, symObjAddr: 0x2D44, symBinAddr: 0x54588, symSize: 0x34 }
  - { offset: 0x8A76F, size: 0x8, addend: 0x0, symName: __RNvXNtCs807mVM355fU_3syn11parse_quoteNtNtB4_2ty8TypePathNtB2_10ParseQuote5parseCs9kQvaEtA2Tf_20pin_project_internal, symObjAddr: 0x2D78, symBinAddr: 0x545BC, symSize: 0x34 }
  - { offset: 0x8A7A4, size: 0x8, addend: 0x0, symName: __RNvXNtCs807mVM355fU_3syn11parse_quoteNtNtB4_4stmt4StmtNtB2_10ParseQuote5parseCs9kQvaEtA2Tf_20pin_project_internal, symObjAddr: 0x2DAC, symBinAddr: 0x545F0, symSize: 0x34 }
  - { offset: 0x8A85D, size: 0x8, addend: 0x0, symName: __RNvXNtCs807mVM355fU_3syn17parse_macro_inputNtNtB4_4stmt4StmtNtB2_15ParseMacroInput5parseCs9kQvaEtA2Tf_20pin_project_internal, symObjAddr: 0x2DE0, symBinAddr: 0x54624, symSize: 0x34 }
  - { offset: 0x8F808, size: 0x8, addend: 0x0, symName: __RNvXsf_NtCs807mVM355fU_3syn5parseNvYINtNtCsiTraAjBDcu4_5alloc3vec3VecNtNtB7_4stmt4StmtENtNtB7_11parse_quote10ParseQuote5parseNtB5_6Parser6parse2Cs9kQvaEtA2Tf_20pin_project_internal, symObjAddr: 0x364C, symBinAddr: 0x54E90, symSize: 0x33C }
  - { offset: 0x8F907, size: 0x8, addend: 0x0, symName: __RNvXsf_NtCs807mVM355fU_3syn5parseNvYNtNtB7_2ty4TypeNtNtB7_11parse_quote10ParseQuote5parseNtB5_6Parser6parse2Cs9kQvaEtA2Tf_20pin_project_internal, symObjAddr: 0x3988, symBinAddr: 0x551CC, symSize: 0x378 }
  - { offset: 0x8FA07, size: 0x8, addend: 0x0, symName: __RNvXsf_NtCs807mVM355fU_3syn5parseNvYNtNtB7_2ty8TypePathNtNtB7_11parse_quote10ParseQuote5parseNtB5_6Parser6parse2Cs9kQvaEtA2Tf_20pin_project_internal, symObjAddr: 0x3D00, symBinAddr: 0x55544, symSize: 0x358 }
  - { offset: 0x8FB07, size: 0x8, addend: 0x0, symName: __RNvXsf_NtCs807mVM355fU_3syn5parseNvYNtNtB7_4path15GenericArgumentNtNtB7_11parse_quote10ParseQuote5parseNtB5_6Parser6parse2Cs9kQvaEtA2Tf_20pin_project_internal, symObjAddr: 0x4058, symBinAddr: 0x5589C, symSize: 0x378 }
  - { offset: 0x8FC07, size: 0x8, addend: 0x0, symName: __RNvXsf_NtCs807mVM355fU_3syn5parseNvYNtNtB7_4path30AngleBracketedGenericArgumentsNtNtB7_11parse_quote10ParseQuote5parseNtB5_6Parser6parse2Cs9kQvaEtA2Tf_20pin_project_internal, symObjAddr: 0x43D0, symBinAddr: 0x55C14, symSize: 0x36C }
  - { offset: 0x8FD07, size: 0x8, addend: 0x0, symName: __RNvXsf_NtCs807mVM355fU_3syn5parseNvYNtNtB7_4stmt4StmtNtNtB7_11parse_quote10ParseQuote5parseNtB5_6Parser6parse2Cs9kQvaEtA2Tf_20pin_project_internal, symObjAddr: 0x473C, symBinAddr: 0x55F80, symSize: 0x36C }
  - { offset: 0x8FE07, size: 0x8, addend: 0x0, symName: __RNvXsf_NtCs807mVM355fU_3syn5parseNvYNtNtB7_8generics14WherePredicateNtNtB7_11parse_quote10ParseQuote5parseNtB5_6Parser6parse2Cs9kQvaEtA2Tf_20pin_project_internal, symObjAddr: 0x4AA8, symBinAddr: 0x562EC, symSize: 0x378 }
  - { offset: 0x8FF07, size: 0x8, addend: 0x0, symName: __RNvXsf_NtCs807mVM355fU_3syn5parseNvYNtNtB7_8generics8GenericsNtNtB7_11parse_quote10ParseQuote5parseNtB5_6Parser6parse2Cs9kQvaEtA2Tf_20pin_project_internal, symObjAddr: 0x4E20, symBinAddr: 0x56664, symSize: 0x36C }
  - { offset: 0x91652, size: 0x8, addend: 0x0, symName: __RNvMs3_NtNtCs7yrEGia95Wz_10proc_macro6bridge6bufferNtB5_6Buffer17extend_from_sliceCs9kQvaEtA2Tf_20pin_project_internal, symObjAddr: 0x1B0C, symBinAddr: 0x53350, symSize: 0x164 }
  - { offset: 0x917D0, size: 0x8, addend: 0x0, symName: __RNvMs3_NtNtCs7yrEGia95Wz_10proc_macro6bridge6bufferNtB5_6Buffer4pushCs9kQvaEtA2Tf_20pin_project_internal, symObjAddr: 0x1C70, symBinAddr: 0x534B4, symSize: 0x134 }
  - { offset: 0x91897, size: 0x8, addend: 0x0, symName: __RNvMs_NtNtCsaNl6UpbT7bw_4core3fmt2rtNtB6_9Arguments16new_v1_formattedCs9kQvaEtA2Tf_20pin_project_internal, symObjAddr: 0x1DA4, symBinAddr: 0x535E8, symSize: 0x58 }
  - { offset: 0x91950, size: 0x8, addend: 0x0, symName: __RNvXNtCs4EAaWzSXu1l_5quote9to_tokensRNtNtCs807mVM355fU_3syn2ty8TypePathNtB2_8ToTokens9to_tokensCs9kQvaEtA2Tf_20pin_project_internal, symObjAddr: 0x2C84, symBinAddr: 0x544C8, symSize: 0x40 }
  - { offset: 0x9198F, size: 0x8, addend: 0x0, symName: __RNvXNtCs4EAaWzSXu1l_5quote9to_tokensRNtNtCs807mVM355fU_3syn5token4BangNtB2_8ToTokens9to_tokensCs9kQvaEtA2Tf_20pin_project_internal, symObjAddr: 0x2CC4, symBinAddr: 0x54508, symSize: 0x40 }
  - { offset: 0x919CE, size: 0x8, addend: 0x0, symName: __RNvXNtCs4EAaWzSXu1l_5quote9to_tokensRRNtNtCs807mVM355fU_3syn2ty4TypeNtB2_8ToTokens9to_tokensCs9kQvaEtA2Tf_20pin_project_internal, symObjAddr: 0x2D04, symBinAddr: 0x54548, symSize: 0x40 }
  - { offset: 0x91A13, size: 0x8, addend: 0x0, symName: __RNvYNtNtCs807mVM355fU_3syn2ty8TypePathNtNtCs4EAaWzSXu1l_5quote9to_tokens8ToTokens15to_token_streamCs9kQvaEtA2Tf_20pin_project_internal, symObjAddr: 0x541C, symBinAddr: 0x56C60, symSize: 0x8C }
  - { offset: 0x91A5D, size: 0x8, addend: 0x0, symName: __RNvYNtNtCs807mVM355fU_3syn4stmt4StmtNtNtCs4EAaWzSXu1l_5quote9to_tokens8ToTokens15to_token_streamCs9kQvaEtA2Tf_20pin_project_internal, symObjAddr: 0x54A8, symBinAddr: 0x56CEC, symSize: 0x8C }
  - { offset: 0x91AA7, size: 0x8, addend: 0x0, symName: __RNvYNtNtCs807mVM355fU_3syn4stmt4StmtNtNtCs4EAaWzSXu1l_5quote9to_tokens8ToTokens17into_token_streamCs9kQvaEtA2Tf_20pin_project_internal, symObjAddr: 0x5534, symBinAddr: 0x56D78, symSize: 0x64 }
  - { offset: 0x91ADD, size: 0x8, addend: 0x0, symName: __RNvYRNtNtCs807mVM355fU_3syn5token4BangNtNtCs4EAaWzSXu1l_5quote9to_tokens8ToTokens15to_token_streamCs9kQvaEtA2Tf_20pin_project_internal, symObjAddr: 0x5598, symBinAddr: 0x56DDC, symSize: 0x8C }
  - { offset: 0x91B27, size: 0x8, addend: 0x0, symName: __RNvYRNtNtCs807mVM355fU_3syn5token4BangNtNtCs4EAaWzSXu1l_5quote9to_tokens8ToTokens17into_token_streamCs9kQvaEtA2Tf_20pin_project_internal, symObjAddr: 0x5624, symBinAddr: 0x56E68, symSize: 0x54 }
  - { offset: 0x91B5C, size: 0x8, addend: 0x0, symName: __RNvYRRNtNtCs807mVM355fU_3syn2ty4TypeNtNtCs4EAaWzSXu1l_5quote9to_tokens8ToTokens15to_token_streamCs9kQvaEtA2Tf_20pin_project_internal, symObjAddr: 0x5678, symBinAddr: 0x56EBC, symSize: 0x8C }
  - { offset: 0x91BA6, size: 0x8, addend: 0x0, symName: __RNvYRRNtNtCs807mVM355fU_3syn2ty4TypeNtNtCs4EAaWzSXu1l_5quote9to_tokens8ToTokens17into_token_streamCs9kQvaEtA2Tf_20pin_project_internal, symObjAddr: 0x5704, symBinAddr: 0x56F48, symSize: 0x54 }
  - { offset: 0x91BEC, size: 0x8, addend: 0x0, symName: __RNvYINtNtNtNtCsaNl6UpbT7bw_4core4iter8adapters3map3MapINtNtB7_9enumerate9EnumerateINtNtNtBb_5slice4iter4IterNtNtCs807mVM355fU_3syn2ty4TypeEENCNvMs1_NtNtCs9kQvaEtA2Tf_20pin_project_internal11pin_project6deriveNtB2m_7Context15make_unpin_impl0ENtNtNtCs4EAaWzSXu1l_5quote9___private3ext14RepIteratorExt15quote_into_iterB2q_, symObjAddr: 0x5374, symBinAddr: 0x56BB8, symSize: 0x28 }
  - { offset: 0x91C21, size: 0x8, addend: 0x0, symName: __RNvYINtNtNtNtCsaNl6UpbT7bw_4core4iter8adapters3map3MapINtNtB7_9enumerate9EnumerateNtNtCs807mVM355fU_3syn8generics9LifetimesENCNvMs1_NtNtCs9kQvaEtA2Tf_20pin_project_internal11pin_project6deriveNtB26_7Context15make_unpin_impls_0ENtNtNtCs4EAaWzSXu1l_5quote9___private3ext14RepIteratorExt15quote_into_iterB2a_, symObjAddr: 0x539C, symBinAddr: 0x56BE0, symSize: 0x28 }
  - { offset: 0x91C56, size: 0x8, addend: 0x0, symName: __RNvYINtNtNtNtCsaNl6UpbT7bw_4core4iter8adapters3map3MapNtNtCs807mVM355fU_3syn8generics10TypeParamsNCNvMs1_NtNtCs9kQvaEtA2Tf_20pin_project_internal11pin_project6deriveNtB1F_7Context15make_unpin_impls0_0ENtNtNtCs4EAaWzSXu1l_5quote9___private3ext14RepIteratorExt15quote_into_iterB1J_, symObjAddr: 0x53C4, symBinAddr: 0x56C08, symSize: 0x2C }
  - { offset: 0x91C8B, size: 0x8, addend: 0x0, symName: __RNvYINtNtNtNtCsaNl6UpbT7bw_4core4iter8adapters3rev3RevINtNtNtBb_5slice4iter4IterNtCshnvkK9b4wzu_11proc_macro25IdentEENtNtNtCs4EAaWzSXu1l_5quote9___private3ext14RepIteratorExt15quote_into_iterCs9kQvaEtA2Tf_20pin_project_internal, symObjAddr: 0x53F0, symBinAddr: 0x56C34, symSize: 0x2C }
  - { offset: 0x92B6C, size: 0x8, addend: 0x0, symName: __RINvMNtCs807mVM355fU_3syn5errorNtB3_5Error11new_spannedRINtNtB5_10punctuated10PunctuatedNtNtB5_4item5FnArgNtNtB5_5token5CommaEReECs9kQvaEtA2Tf_20pin_project_internal, symObjAddr: 0x0, symBinAddr: 0x57938, symSize: 0xC4 }
  - { offset: 0x962D7, size: 0x8, addend: 0x0, symName: __RINvMNtCsaNl6UpbT7bw_4core5sliceSNtNtCs807mVM355fU_3syn4attr9Attribute3getjECs9kQvaEtA2Tf_20pin_project_internal, symObjAddr: 0x186C, symBinAddr: 0x591A4, symSize: 0x44 }
  - { offset: 0x96326, size: 0x8, addend: 0x0, symName: __RNvMNtCsaNl6UpbT7bw_4core5sliceSNtCshnvkK9b4wzu_11proc_macro211TokenStream4iterCs9kQvaEtA2Tf_20pin_project_internal, symObjAddr: 0x2F14, symBinAddr: 0x5A84C, symSize: 0x28 }
  - { offset: 0x9635D, size: 0x8, addend: 0x0, symName: __RNvMNtCsaNl6UpbT7bw_4core5sliceSNtCshnvkK9b4wzu_11proc_macro25Ident4iterCs9kQvaEtA2Tf_20pin_project_internal, symObjAddr: 0x2F3C, symBinAddr: 0x5A874, symSize: 0x28 }
  - { offset: 0x96394, size: 0x8, addend: 0x0, symName: __RNvMNtCsaNl6UpbT7bw_4core5sliceSTNtNtCs807mVM355fU_3syn3pat3PatNtNtBz_5token2OrE8iter_mutCs9kQvaEtA2Tf_20pin_project_internal, symObjAddr: 0x2F64, symBinAddr: 0x5A89C, symSize: 0x28 }
  - { offset: 0x963CB, size: 0x8, addend: 0x0, symName: __RNvMNtCsaNl6UpbT7bw_4core5sliceSTNtNtCs807mVM355fU_3syn3pat3PatNtNtBz_5token5CommaE8iter_mutCs9kQvaEtA2Tf_20pin_project_internal, symObjAddr: 0x2F8C, symBinAddr: 0x5A8C4, symSize: 0x28 }
  - { offset: 0x96402, size: 0x8, addend: 0x0, symName: __RNvMNtCsaNl6UpbT7bw_4core5sliceSTNtNtCs807mVM355fU_3syn3pat8FieldPatNtNtBz_5token5CommaE8iter_mutCs9kQvaEtA2Tf_20pin_project_internal, symObjAddr: 0x2FB4, symBinAddr: 0x5A8EC, symSize: 0x28 }
  - { offset: 0x96439, size: 0x8, addend: 0x0, symName: __RNvMNtCsaNl6UpbT7bw_4core5sliceSTNtNtCs807mVM355fU_3syn4data7VariantNtNtBz_5token5CommaE8iter_mutCs9kQvaEtA2Tf_20pin_project_internal, symObjAddr: 0x2FDC, symBinAddr: 0x5A914, symSize: 0x28 }
  - { offset: 0x96470, size: 0x8, addend: 0x0, symName: __RNvMNtCsaNl6UpbT7bw_4core5sliceSTNtNtCs807mVM355fU_3syn4path15GenericArgumentNtNtBz_5token5CommaE8iter_mutCs9kQvaEtA2Tf_20pin_project_internal, symObjAddr: 0x3004, symBinAddr: 0x5A93C, symSize: 0x28 }
  - { offset: 0x964A7, size: 0x8, addend: 0x0, symName: __RNvMNtCsaNl6UpbT7bw_4core5sliceSTNtNtCs807mVM355fU_3syn8generics11LifetimeDefNtNtBz_5token5CommaE8iter_mutCs9kQvaEtA2Tf_20pin_project_internal, symObjAddr: 0x302C, symBinAddr: 0x5A964, symSize: 0x28 }
  - { offset: 0x964DE, size: 0x8, addend: 0x0, symName: __RNvMNtCsaNl6UpbT7bw_4core5sliceSTNtNtCs807mVM355fU_3syn8generics14TypeParamBoundNtNtBz_5token3AddE8iter_mutCs9kQvaEtA2Tf_20pin_project_internal, symObjAddr: 0x3054, symBinAddr: 0x5A98C, symSize: 0x28 }
  - { offset: 0x96515, size: 0x8, addend: 0x0, symName: __RNvMNtCsaNl6UpbT7bw_4core5sliceSTNtNtCs807mVM355fU_3syn8generics14WherePredicateNtNtBz_5token5CommaE8iter_mutCs9kQvaEtA2Tf_20pin_project_internal, symObjAddr: 0x307C, symBinAddr: 0x5A9B4, symSize: 0x28 }
  - { offset: 0x968F3, size: 0x8, addend: 0x0, symName: __RNvNvNtNtCsaNl6UpbT7bw_4core5slice3raw14from_raw_parts18precondition_checkCs9kQvaEtA2Tf_20pin_project_internal, symObjAddr: 0x3A0C, symBinAddr: 0x5B344, symSize: 0x1DC }
  - { offset: 0x96A77, size: 0x8, addend: 0x0, symName: __RNvNvNtNtCsaNl6UpbT7bw_4core5slice3raw18from_raw_parts_mut18precondition_checkCs9kQvaEtA2Tf_20pin_project_internal, symObjAddr: 0x3BE8, symBinAddr: 0x5B520, symSize: 0x1DC }
  - { offset: 0x97736, size: 0x8, addend: 0x0, symName: __RNvXsq_NtCsaNl6UpbT7bw_4core6resultINtB5_6ResultNtNtCs807mVM355fU_3syn4item8ItemImplNtNtBO_5error5ErrorEINtNtNtB7_3ops9try_trait12FromResidualIBy_NtNtB7_7convert10InfallibleB1k_EE13from_residualCs9kQvaEtA2Tf_20pin_project_internal, symObjAddr: 0x5CA8, symBinAddr: 0x5D5E0, symSize: 0x48 }
  - { offset: 0x977BB, size: 0x8, addend: 0x0, symName: __RNvXsq_NtCsaNl6UpbT7bw_4core6resultINtB5_6ResultNtNtNtCs9kQvaEtA2Tf_20pin_project_internal11pin_project6derive15ProjectedFieldsNtNtCs807mVM355fU_3syn5error5ErrorEINtNtNtB7_3ops9try_trait12FromResidualIBy_NtNtB7_7convert10InfallibleB21_EE13from_residualBQ_, symObjAddr: 0x5CF0, symBinAddr: 0x5D628, symSize: 0x48 }
  - { offset: 0x97840, size: 0x8, addend: 0x0, symName: __RNvXsq_NtCsaNl6UpbT7bw_4core6resultINtB5_6ResultNtNtNtCs9kQvaEtA2Tf_20pin_project_internal11pin_project6derive17ProjectedVariantsNtNtCs807mVM355fU_3syn5error5ErrorEINtNtNtB7_3ops9try_trait12FromResidualIBy_NtNtB7_7convert10InfallibleB23_EE13from_residualBQ_, symObjAddr: 0x5D38, symBinAddr: 0x5D670, symSize: 0x48 }
  - { offset: 0x978C5, size: 0x8, addend: 0x0, symName: __RNvXsq_NtCsaNl6UpbT7bw_4core6resultINtB5_6ResultNtNtNtCs9kQvaEtA2Tf_20pin_project_internal11pin_project6derive4ArgsNtNtCs807mVM355fU_3syn5error5ErrorEINtNtNtB7_3ops9try_trait12FromResidualIBy_NtNtB7_7convert10InfallibleB1P_EE13from_residualBQ_, symObjAddr: 0x5D80, symBinAddr: 0x5D6B8, symSize: 0x48 }
  - { offset: 0x9794A, size: 0x8, addend: 0x0, symName: __RNvXsq_NtCsaNl6UpbT7bw_4core6resultINtB5_6ResultNtNtNtCs9kQvaEtA2Tf_20pin_project_internal11pin_project6derive7ContextNtNtCs807mVM355fU_3syn5error5ErrorEINtNtNtB7_3ops9try_trait12FromResidualIBy_NtNtB7_7convert10InfallibleB1S_EE13from_residualBQ_, symObjAddr: 0x5DC8, symBinAddr: 0x5D700, symSize: 0x48 }
  - { offset: 0x979CF, size: 0x8, addend: 0x0, symName: __RNvXsq_NtCsaNl6UpbT7bw_4core6resultINtB5_6ResultNtNtNtCs9kQvaEtA2Tf_20pin_project_internal11pin_project9attribute5InputNtNtCs807mVM355fU_3syn5error5ErrorEINtNtNtB7_3ops9try_trait12FromResidualIBy_NtNtB7_7convert10InfallibleB1T_EE13from_residualBQ_, symObjAddr: 0x5E10, symBinAddr: 0x5D748, symSize: 0x48 }
  - { offset: 0x97A54, size: 0x8, addend: 0x0, symName: __RNvXsq_NtCsaNl6UpbT7bw_4core6resultINtB5_6ResultNtNtNvXs0_NtNtCs9kQvaEtA2Tf_20pin_project_internal11pin_project6deriveNtBU_4ArgsNtNtCs807mVM355fU_3syn5parse5Parse5parse2kw5UnpinNtNtB26_5error5ErrorEINtNtNtB7_3ops9try_trait12FromResidualIBy_NtNtB7_7convert10InfallibleB2P_EE13from_residualBY_, symObjAddr: 0x5E58, symBinAddr: 0x5D790, symSize: 0x40 }
  - { offset: 0x97AD9, size: 0x8, addend: 0x0, symName: __RNvXsq_NtCsaNl6UpbT7bw_4core6resultINtB5_6ResultNtNvMs_NtNtCs9kQvaEtA2Tf_20pin_project_internal11pin_project6deriveNtBR_4Args3get5InputNtNtCs807mVM355fU_3syn5error5ErrorEINtNtNtB7_3ops9try_trait12FromResidualIBy_NtNtB7_7convert10InfallibleB29_EE13from_residualBV_, symObjAddr: 0x5E98, symBinAddr: 0x5D7D0, symSize: 0x4C }
  - { offset: 0x97B5E, size: 0x8, addend: 0x0, symName: __RNvXsq_NtCsaNl6UpbT7bw_4core6resultINtB5_6ResultTNtCshnvkK9b4wzu_11proc_macro211TokenStreamBL_ENtNtCs807mVM355fU_3syn5error5ErrorEINtNtNtB7_3ops9try_trait12FromResidualIBy_NtNtB7_7convert10InfallibleB1v_EE13from_residualCs9kQvaEtA2Tf_20pin_project_internal, symObjAddr: 0x5EE4, symBinAddr: 0x5D81C, symSize: 0x48 }
  - { offset: 0x97BE3, size: 0x8, addend: 0x0, symName: __RNvXsq_NtCsaNl6UpbT7bw_4core6resultINtB5_6ResultTNtCshnvkK9b4wzu_11proc_macro25IdentNtBN_11TokenStreamENtNtCs807mVM355fU_3syn5error5ErrorEINtNtNtB7_3ops9try_trait12FromResidualIBy_NtNtB7_7convert10InfallibleB1D_EE13from_residualCs9kQvaEtA2Tf_20pin_project_internal, symObjAddr: 0x5F2C, symBinAddr: 0x5D864, symSize: 0x48 }
  - { offset: 0x97C68, size: 0x8, addend: 0x0, symName: __RNvXsq_NtCsaNl6UpbT7bw_4core6resultINtB5_6ResultTjINtNtB7_6option6OptionjEENtNtCs807mVM355fU_3syn5error5ErrorEINtNtNtB7_3ops9try_trait12FromResidualIBy_NtNtB7_7convert10InfallibleB1b_EE13from_residualCs9kQvaEtA2Tf_20pin_project_internal, symObjAddr: 0x5F74, symBinAddr: 0x5D8AC, symSize: 0x48 }
  - { offset: 0x97E33, size: 0x8, addend: 0x0, symName: __RNvXsp_NtCsaNl6UpbT7bw_4core6resultINtB5_6ResultINtNtB7_6option6OptionNtNtCs807mVM355fU_3syn4attr9AttributeENtNtB1a_5error5ErrorENtNtNtB7_3ops9try_trait3Try6branchCs9kQvaEtA2Tf_20pin_project_internal, symObjAddr: 0x5254, symBinAddr: 0x5CB8C, symSize: 0xB0 }
  - { offset: 0x97EB0, size: 0x8, addend: 0x0, symName: __RNvXsp_NtCsaNl6UpbT7bw_4core6resultINtB5_6ResultINtNtB7_6option6OptionjENtNtCs807mVM355fU_3syn5error5ErrorENtNtNtB7_3ops9try_trait3Try6branchCs9kQvaEtA2Tf_20pin_project_internal, symObjAddr: 0x5304, symBinAddr: 0x5CC3C, symSize: 0x94 }
  - { offset: 0x97F2E, size: 0x8, addend: 0x0, symName: __RNvXsp_NtCsaNl6UpbT7bw_4core6resultINtB5_6ResultNtNtCs807mVM355fU_3syn4item8ItemImplNtNtBO_5error5ErrorENtNtNtB7_3ops9try_trait3Try6branchCs9kQvaEtA2Tf_20pin_project_internal, symObjAddr: 0x5398, symBinAddr: 0x5CCD0, symSize: 0xC4 }
  - { offset: 0x97FAC, size: 0x8, addend: 0x0, symName: __RNvXsp_NtCsaNl6UpbT7bw_4core6resultINtB5_6ResultNtNtCs807mVM355fU_3syn6derive11DeriveInputNtNtBO_5error5ErrorENtNtNtB7_3ops9try_trait3Try6branchCs9kQvaEtA2Tf_20pin_project_internal, symObjAddr: 0x545C, symBinAddr: 0x5CD94, symSize: 0xB4 }
  - { offset: 0x9802A, size: 0x8, addend: 0x0, symName: __RNvXsp_NtCsaNl6UpbT7bw_4core6resultINtB5_6ResultNtNtNtCs9kQvaEtA2Tf_20pin_project_internal11pin_project6derive15ProjectedFieldsNtNtCs807mVM355fU_3syn5error5ErrorENtNtNtB7_3ops9try_trait3Try6branchBQ_, symObjAddr: 0x5510, symBinAddr: 0x5CE48, symSize: 0xB8 }
  - { offset: 0x980A8, size: 0x8, addend: 0x0, symName: __RNvXsp_NtCsaNl6UpbT7bw_4core6resultINtB5_6ResultNtNtNtCs9kQvaEtA2Tf_20pin_project_internal11pin_project6derive17ProjectedVariantsNtNtCs807mVM355fU_3syn5error5ErrorENtNtNtB7_3ops9try_trait3Try6branchBQ_, symObjAddr: 0x55C8, symBinAddr: 0x5CF00, symSize: 0xB8 }
  - { offset: 0x98126, size: 0x8, addend: 0x0, symName: __RNvXsp_NtCsaNl6UpbT7bw_4core6resultINtB5_6ResultNtNtNtCs9kQvaEtA2Tf_20pin_project_internal11pin_project6derive4ArgsNtNtCs807mVM355fU_3syn5error5ErrorENtNtNtB7_3ops9try_trait3Try6branchBQ_, symObjAddr: 0x5680, symBinAddr: 0x5CFB8, symSize: 0xAC }
  - { offset: 0x981A3, size: 0x8, addend: 0x0, symName: __RNvXsp_NtCsaNl6UpbT7bw_4core6resultINtB5_6ResultNtNtNtCs9kQvaEtA2Tf_20pin_project_internal11pin_project6derive7ContextNtNtCs807mVM355fU_3syn5error5ErrorENtNtNtB7_3ops9try_trait3Try6branchBQ_, symObjAddr: 0x572C, symBinAddr: 0x5D064, symSize: 0xC4 }
  - { offset: 0x98221, size: 0x8, addend: 0x0, symName: __RNvXsp_NtCsaNl6UpbT7bw_4core6resultINtB5_6ResultNtNtNtCs9kQvaEtA2Tf_20pin_project_internal11pin_project9attribute5InputNtNtCs807mVM355fU_3syn5error5ErrorENtNtNtB7_3ops9try_trait3Try6branchBQ_, symObjAddr: 0x57F0, symBinAddr: 0x5D128, symSize: 0xB0 }
  - { offset: 0x9829E, size: 0x8, addend: 0x0, symName: __RNvXsp_NtCsaNl6UpbT7bw_4core6resultINtB5_6ResultNtNtNvXs0_NtNtCs9kQvaEtA2Tf_20pin_project_internal11pin_project6deriveNtBU_4ArgsNtNtCs807mVM355fU_3syn5parse5Parse5parse2kw5UnpinNtNtB26_5error5ErrorENtNtNtB7_3ops9try_trait3Try6branchBY_, symObjAddr: 0x58A0, symBinAddr: 0x5D1D8, symSize: 0x88 }
  - { offset: 0x9831C, size: 0x8, addend: 0x0, symName: __RNvXsp_NtCsaNl6UpbT7bw_4core6resultINtB5_6ResultNtNvMs_NtNtCs9kQvaEtA2Tf_20pin_project_internal11pin_project6deriveNtBR_4Args3get5InputNtNtCs807mVM355fU_3syn5error5ErrorENtNtNtB7_3ops9try_trait3Try6branchBV_, symObjAddr: 0x5928, symBinAddr: 0x5D260, symSize: 0xA8 }
  - { offset: 0x98399, size: 0x8, addend: 0x0, symName: __RNvXsp_NtCsaNl6UpbT7bw_4core6resultINtB5_6ResultTNtCshnvkK9b4wzu_11proc_macro211TokenStreamBL_ENtNtCs807mVM355fU_3syn5error5ErrorENtNtNtB7_3ops9try_trait3Try6branchCs9kQvaEtA2Tf_20pin_project_internal, symObjAddr: 0x59D0, symBinAddr: 0x5D308, symSize: 0xB0 }
  - { offset: 0x98416, size: 0x8, addend: 0x0, symName: __RNvXsp_NtCsaNl6UpbT7bw_4core6resultINtB5_6ResultTNtCshnvkK9b4wzu_11proc_macro25IdentNtBN_11TokenStreamENtNtCs807mVM355fU_3syn5error5ErrorENtNtNtB7_3ops9try_trait3Try6branchCs9kQvaEtA2Tf_20pin_project_internal, symObjAddr: 0x5A80, symBinAddr: 0x5D3B8, symSize: 0xB0 }
  - { offset: 0x98493, size: 0x8, addend: 0x0, symName: __RNvXsp_NtCsaNl6UpbT7bw_4core6resultINtB5_6ResultTNtNtNvXs0_NtNtCs9kQvaEtA2Tf_20pin_project_internal11pin_project6deriveNtBV_4ArgsNtNtCs807mVM355fU_3syn5parse5Parse5parse2kw5UnpinNtNtB27_6buffer6CursorENtNtB27_5error5ErrorENtNtNtB7_3ops9try_trait3Try6branchBZ_, symObjAddr: 0x5B30, symBinAddr: 0x5D468, symSize: 0x94 }
  - { offset: 0x98510, size: 0x8, addend: 0x0, symName: __RNvXsp_NtCsaNl6UpbT7bw_4core6resultINtB5_6ResultTjINtNtB7_6option6OptionjEENtNtCs807mVM355fU_3syn5error5ErrorENtNtNtB7_3ops9try_trait3Try11from_outputCs9kQvaEtA2Tf_20pin_project_internal, symObjAddr: 0x5BC4, symBinAddr: 0x5D4FC, symSize: 0x18 }
  - { offset: 0x98550, size: 0x8, addend: 0x0, symName: __RNvXsp_NtCsaNl6UpbT7bw_4core6resultINtB5_6ResultTjINtNtB7_6option6OptionjEENtNtCs807mVM355fU_3syn5error5ErrorENtNtNtB7_3ops9try_trait3Try6branchCs9kQvaEtA2Tf_20pin_project_internal, symObjAddr: 0x5BDC, symBinAddr: 0x5D514, symSize: 0x94 }
  - { offset: 0x985CD, size: 0x8, addend: 0x0, symName: __RNvXsp_NtCsaNl6UpbT7bw_4core6resultINtB5_6ResultbNtNtCs807mVM355fU_3syn5error5ErrorENtNtNtB7_3ops9try_trait3Try11from_outputCs9kQvaEtA2Tf_20pin_project_internal, symObjAddr: 0x5C70, symBinAddr: 0x5D5A8, symSize: 0x20 }
  - { offset: 0x9860D, size: 0x8, addend: 0x0, symName: __RNvXsp_NtCsaNl6UpbT7bw_4core6resultINtB5_6ResultuNtNtCs807mVM355fU_3syn5error5ErrorENtNtNtB7_3ops9try_trait3Try11from_outputCs9kQvaEtA2Tf_20pin_project_internal, symObjAddr: 0x5C90, symBinAddr: 0x5D5C8, symSize: 0x18 }
  - { offset: 0x99180, size: 0x8, addend: 0x0, symName: __RINvNtCsaNl6UpbT7bw_4core3mem7replaceINtNtCs807mVM355fU_3syn10punctuated10PunctuatedNtNtBE_4path11PathSegmentNtNtBE_5token6Colon2EECs9kQvaEtA2Tf_20pin_project_internal, symObjAddr: 0x2010, symBinAddr: 0x59948, symSize: 0x34 }
  - { offset: 0x991C6, size: 0x8, addend: 0x0, symName: __RINvNtCsaNl6UpbT7bw_4core3mem7replaceNtNtCs807mVM355fU_3syn4path4PathECs9kQvaEtA2Tf_20pin_project_internal, symObjAddr: 0x2044, symBinAddr: 0x5997C, symSize: 0x5C }
  - { offset: 0x99444, size: 0x8, addend: 0x0, symName: __RINvXs_NtNtNtCsaNl6UpbT7bw_4core4iter8adapters9enumerateINtB5_9EnumerateINtNtNtBb_5slice4iter4IterNtNtCs807mVM355fU_3syn4item8ImplItemEENtNtNtB9_6traits8iterator8Iterator8try_folduNCINvNvB2a_12try_for_each4callTjRB1y_EINtNtBb_6result6ResultuNtNtB1C_5error5ErrorENCNvNtCs9kQvaEtA2Tf_20pin_project_internal11pinned_drop5parse0E0B3u_EB4i_, symObjAddr: 0x2738, symBinAddr: 0x5A070, symSize: 0x30 }
  - { offset: 0x994BA, size: 0x8, addend: 0x0, symName: __RNCINvNvXs_NtNtNtCsaNl6UpbT7bw_4core4iter8adapters9enumerateINtB9_9EnumeratepENtNtNtBd_6traits8iterator8Iterator8try_fold9enumerateRNtNtCs807mVM355fU_3syn4item8ImplItemuINtNtBf_6result6ResultuNtNtB2a_5error5ErrorENCINvNvB1e_12try_for_each4callTjB25_EB2H_NCNvNtCs9kQvaEtA2Tf_20pin_project_internal11pinned_drop5parse0E0E0B4a_, symObjAddr: 0x2D0C, symBinAddr: 0x5A644, symSize: 0xC8 }
  - { offset: 0x99551, size: 0x8, addend: 0x0, symName: __RNvXs_NtNtNtCsaNl6UpbT7bw_4core4iter8adapters9enumerateINtB4_9EnumerateINtNtCs807mVM355fU_3syn10punctuated4IterNtNtB1c_4data5FieldEENtNtNtB8_6traits8iterator8Iterator4nextCs9kQvaEtA2Tf_20pin_project_internal, symObjAddr: 0x4C38, symBinAddr: 0x5C570, symSize: 0xE0 }
  - { offset: 0x99633, size: 0x8, addend: 0x0, symName: __RNvXs_NtNtNtCsaNl6UpbT7bw_4core4iter8adapters9enumerateINtB4_9EnumerateINtNtNtBa_5slice4iter4IterNtNtCs807mVM355fU_3syn2ty4TypeEENtNtNtB8_6traits8iterator8Iterator4nextCs9kQvaEtA2Tf_20pin_project_internal, symObjAddr: 0x4D18, symBinAddr: 0x5C650, symSize: 0xE0 }
  - { offset: 0x99715, size: 0x8, addend: 0x0, symName: __RNvXs_NtNtNtCsaNl6UpbT7bw_4core4iter8adapters9enumerateINtB4_9EnumerateNtNtCs807mVM355fU_3syn8generics9LifetimesENtNtNtB8_6traits8iterator8Iterator4nextCs9kQvaEtA2Tf_20pin_project_internal, symObjAddr: 0x4DF8, symBinAddr: 0x5C730, symSize: 0xE0 }
  - { offset: 0x99A85, size: 0x8, addend: 0x0, symName: __RINvYINtNtNtNtCsaNl6UpbT7bw_4core4iter8adapters9enumerate9EnumerateINtNtNtBc_5slice4iter4IterNtNtCs807mVM355fU_3syn2ty4TypeEENtNtNtBa_6traits8iterator8Iterator3mapNtCshnvkK9b4wzu_11proc_macro211TokenStreamNCNvMs1_NtNtCs9kQvaEtA2Tf_20pin_project_internal11pin_project6deriveNtB3p_7Context15make_unpin_impl0EB3t_, symObjAddr: 0x2768, symBinAddr: 0x5A0A0, symSize: 0x20 }
  - { offset: 0x99AF2, size: 0x8, addend: 0x0, symName: __RINvYINtNtNtNtCsaNl6UpbT7bw_4core4iter8adapters9enumerate9EnumerateINtNtNtBc_5slice4iter4IterNtNtCs807mVM355fU_3syn4item8ImplItemEENtNtNtBa_6traits8iterator8Iterator12try_for_eachNCNvNtCs9kQvaEtA2Tf_20pin_project_internal11pinned_drop5parse0INtNtBc_6result6ResultuNtNtB1x_5error5ErrorEEB2X_, symObjAddr: 0x2788, symBinAddr: 0x5A0C0, symSize: 0x24 }
  - { offset: 0x99B4A, size: 0x8, addend: 0x0, symName: __RINvYINtNtNtNtCsaNl6UpbT7bw_4core4iter8adapters9enumerate9EnumerateNtNtCs807mVM355fU_3syn8generics9LifetimesENtNtNtBa_6traits8iterator8Iterator3mapNtCshnvkK9b4wzu_11proc_macro211TokenStreamNCNvMs1_NtNtCs9kQvaEtA2Tf_20pin_project_internal11pin_project6deriveNtB39_7Context15make_unpin_impls_0EB3d_, symObjAddr: 0x27AC, symBinAddr: 0x5A0E4, symSize: 0x20 }
  - { offset: 0x99BB7, size: 0x8, addend: 0x0, symName: __RINvYNtNtCs807mVM355fU_3syn8generics10TypeParamsNtNtNtNtCsaNl6UpbT7bw_4core4iter6traits8iterator8Iterator3mapRNtCshnvkK9b4wzu_11proc_macro25IdentNCNvMs1_NtNtCs9kQvaEtA2Tf_20pin_project_internal11pin_project6deriveNtB2r_7Context15make_unpin_impls0_0EB2v_, symObjAddr: 0x27CC, symBinAddr: 0x5A104, symSize: 0x1C }
  - { offset: 0x99C0F, size: 0x8, addend: 0x0, symName: __RINvYNtNtCshnvkK9b4wzu_11proc_macro212token_stream8IntoIterNtNtNtNtCsaNl6UpbT7bw_4core4iter6traits8iterator8Iterator3anyNCNvNtCs9kQvaEtA2Tf_20pin_project_internal5utils11contains_fn0EB20_, symObjAddr: 0x27E8, symBinAddr: 0x5A120, symSize: 0x3C }
  - { offset: 0x99C5E, size: 0x8, addend: 0x0, symName: __RINvYNtNtCshnvkK9b4wzu_11proc_macro212token_stream8IntoIterNtNtNtNtCsaNl6UpbT7bw_4core4iter6traits8iterator8Iterator3mapNtB7_9TokenTreeNCNvNtCs9kQvaEtA2Tf_20pin_project_internal5utils13respan_tokens0EB2f_, symObjAddr: 0x2824, symBinAddr: 0x5A15C, symSize: 0x50 }
  - { offset: 0x99CCC, size: 0x8, addend: 0x0, symName: __RINvYNtNtCshnvkK9b4wzu_11proc_macro212token_stream8IntoIterNtNtNtNtCsaNl6UpbT7bw_4core4iter6traits8iterator8Iterator4folduNCINvNtNtB11_8adapters3map8map_foldNtB7_9TokenTreeB2v_uNCNvNtCs9kQvaEtA2Tf_20pin_project_internal5utils13respan_tokens0NCIB1Z_B2v_NtCs7yrEGia95Wz_10proc_macro9TokenTreeuNvNtB7_3imp19into_compiler_tokenNCINvNvBV_8for_each4callB42_NCINvXsg_B44_NtB44_11TokenStreamINtNtBZ_7collect12FromIteratorB42_E9from_iterINtB21_3MapIB6T_B3_B2P_EB4F_EE0E0E0E0EB2V_, symObjAddr: 0x2874, symBinAddr: 0x5A1AC, symSize: 0x10C }
  - { offset: 0x99D5D, size: 0x8, addend: 0x0, symName: __RINvYNtNtCshnvkK9b4wzu_11proc_macro212token_stream8IntoIterNtNtNtNtCsaNl6UpbT7bw_4core4iter6traits8iterator8Iterator4folduNCINvNtNtB11_8adapters3map8map_foldNtB7_9TokenTreeB2v_uNCNvNtCs9kQvaEtA2Tf_20pin_project_internal5utils13respan_tokens0NCINvNvBV_8for_each4callB2v_NCINvXsa_NtB7_8fallbackNtB4s_11TokenStreamINtNtBZ_7collect6ExtendB2v_E6extendINtB21_3MapB3_B2P_EE0E0E0EB2V_, symObjAddr: 0x2980, symBinAddr: 0x5A2B8, symSize: 0x10C }
  - { offset: 0x99DEE, size: 0x8, addend: 0x0, symName: __RINvYNtNtCshnvkK9b4wzu_11proc_macro212token_stream8IntoIterNtNtNtNtCsaNl6UpbT7bw_4core4iter6traits8iterator8Iterator4folduNCINvNvBV_8for_each4callNtB7_9TokenTreeNCINvXsa_NtB7_8fallbackNtB2I_11TokenStreamINtNtBZ_7collect6ExtendB2k_E6extendNtB7_11TokenStreamE0E0ECs9kQvaEtA2Tf_20pin_project_internal, symObjAddr: 0x2A8C, symBinAddr: 0x5A3C4, symSize: 0x108 }
  - { offset: 0x99E7F, size: 0x8, addend: 0x0, symName: __RINvYNtNtCshnvkK9b4wzu_11proc_macro212token_stream8IntoIterNtNtNtNtCsaNl6UpbT7bw_4core4iter6traits8iterator8Iterator8for_eachNCINvXsa_NtB7_8fallbackNtB28_11TokenStreamINtNtBZ_7collect6ExtendNtB7_9TokenTreeE6extendNtB7_11TokenStreamE0ECs9kQvaEtA2Tf_20pin_project_internal, symObjAddr: 0x2B94, symBinAddr: 0x5A4CC, symSize: 0x24 }
  - { offset: 0x99ECB, size: 0x8, addend: 0x0, symName: __RINvYNtNtCshnvkK9b4wzu_11proc_macro212token_stream8IntoIterNtNtNtNtCsaNl6UpbT7bw_4core4iter6traits8iterator8Iterator8try_folduNCINvNvBV_3any5checkNtB7_9TokenTreeNCNvNtCs9kQvaEtA2Tf_20pin_project_internal5utils11contains_fn0E0INtNtNtB13_3ops12control_flow11ControlFlowuEEB2F_, symObjAddr: 0x2BB8, symBinAddr: 0x5A4F0, symSize: 0x154 }
  - { offset: 0x99F7E, size: 0x8, addend: 0x0, symName: __RNvYNtNtCs807mVM355fU_3syn8generics9LifetimesNtNtNtNtCsaNl6UpbT7bw_4core4iter6traits8iterator8Iterator9enumerateCs9kQvaEtA2Tf_20pin_project_internal, symObjAddr: 0x60F8, symBinAddr: 0x5DA30, symSize: 0x28 }
  - { offset: 0x9A059, size: 0x8, addend: 0x0, symName: __RNvXNtNtNtCsaNl6UpbT7bw_4core4iter6traits7collectINtNtNtB6_8adapters9enumerate9EnumerateINtNtCs807mVM355fU_3syn10punctuated4IterNtNtB1t_4data5FieldEENtB2_12IntoIterator9into_iterCs9kQvaEtA2Tf_20pin_project_internal, symObjAddr: 0x4378, symBinAddr: 0x5BCB0, symSize: 0x18 }
  - { offset: 0x9A13B, size: 0x8, addend: 0x0, symName: __RNvXs1_NtCsaNl6UpbT7bw_4core7convertNtCshnvkK9b4wzu_11proc_macro211TokenStreamINtB5_4IntoNtCs7yrEGia95Wz_10proc_macro11TokenStreamE4intoCs9kQvaEtA2Tf_20pin_project_internal, symObjAddr: 0x4580, symBinAddr: 0x5BEB8, symSize: 0x14 }
  - { offset: 0x9A17C, size: 0x8, addend: 0x0, symName: __RNvXs1_NtCsaNl6UpbT7bw_4core7convertNtNtCs807mVM355fU_3syn8generics11LifetimeDefINtB5_4IntoNtBA_12GenericParamE4intoCs9kQvaEtA2Tf_20pin_project_internal, symObjAddr: 0x4594, symBinAddr: 0x5BECC, symSize: 0x14 }
  - { offset: 0x9AF07, size: 0x8, addend: 0x0, symName: __RNvXs1b_NtCsaNl6UpbT7bw_4core3fmtRNtCshnvkK9b4wzu_11proc_macro211TokenStreamNtB6_7Display3fmtCs9kQvaEtA2Tf_20pin_project_internal, symObjAddr: 0x4678, symBinAddr: 0x5BFB0, symSize: 0x30 }
  - { offset: 0x9AF59, size: 0x8, addend: 0x0, symName: __RNvNvNtCsaNl6UpbT7bw_4core4hint16assert_unchecked18precondition_checkCs9kQvaEtA2Tf_20pin_project_internal, symObjAddr: 0x38E4, symBinAddr: 0x5B21C, symSize: 0xA4 }
  - { offset: 0x9AFB9, size: 0x8, addend: 0x0, symName: __RNvNvNtCsaNl6UpbT7bw_4core4hint21unreachable_unchecked18precondition_checkCs9kQvaEtA2Tf_20pin_project_internal, symObjAddr: 0x3988, symBinAddr: 0x5B2C0, symSize: 0x84 }
  - { offset: 0x9B168, size: 0x8, addend: 0x0, symName: __RNvXsg_NtNtCsaNl6UpbT7bw_4core3cmp5implsQNtCshnvkK9b4wzu_11proc_macro25IdentINtB7_9PartialEqReE2eqCs9kQvaEtA2Tf_20pin_project_internal, symObjAddr: 0x4FE8, symBinAddr: 0x5C920, symSize: 0x3C }
  - { offset: 0x9B1BE, size: 0x8, addend: 0x0, symName: __RNvYNtCshnvkK9b4wzu_11proc_macro25IdentINtNtCsaNl6UpbT7bw_4core3cmp9PartialEqReE2neCs9kQvaEtA2Tf_20pin_project_internal, symObjAddr: 0x60C8, symBinAddr: 0x5DA00, symSize: 0x30 }
  - { offset: 0x9B6CF, size: 0x8, addend: 0x0, symName: __RNvXNtNtCs7yrEGia95Wz_10proc_macro6bridge3rpcuINtB2_6EncodeuE6encodeCs9kQvaEtA2Tf_20pin_project_internal, symObjAddr: 0x4364, symBinAddr: 0x5BC9C, symSize: 0x14 }
  - { offset: 0x9B7A8, size: 0x8, addend: 0x0, symName: __RNvXsa_NtNtCs7yrEGia95Wz_10proc_macro6bridge3rpcRShINtB5_6EncodeuE6encodeCs9kQvaEtA2Tf_20pin_project_internal, symObjAddr: 0x4ED8, symBinAddr: 0x5C810, symSize: 0xD8 }
  - { offset: 0x9B8AA, size: 0x8, addend: 0x0, symName: __RNvXsc_NtNtCs7yrEGia95Wz_10proc_macro6bridge3rpcReINtB5_6EncodeuE6encodeCs9kQvaEtA2Tf_20pin_project_internal, symObjAddr: 0x4FB0, symBinAddr: 0x5C8E8, symSize: 0x38 }
  - { offset: 0x9B992, size: 0x8, addend: 0x0, symName: __RNvXsl_NtNtCs7yrEGia95Wz_10proc_macro6bridge3rpcNtB5_12PanicMessageINtB5_6EncodeuE6encodeCs9kQvaEtA2Tf_20pin_project_internal, symObjAddr: 0x5024, symBinAddr: 0x5C95C, symSize: 0x128 }
  - { offset: 0x9BB58, size: 0x8, addend: 0x0, symName: __RNvXso_NtNtCs7yrEGia95Wz_10proc_macro6bridge3rpcmINtB5_9DecodeMutuE6decodeCs9kQvaEtA2Tf_20pin_project_internal, symObjAddr: 0x514C, symBinAddr: 0x5CA84, symSize: 0x108 }
  - { offset: 0x9BD1E, size: 0x8, addend: 0x0, symName: __RNvXsV_NtCs7yrEGia95Wz_10proc_macro6bridgeINtNtCsaNl6UpbT7bw_4core6result6ResultINtNtBJ_6option6OptionNtNtB5_6client11TokenStreamEuEINtNtB5_3rpc6EncodeuE6encodeCs9kQvaEtA2Tf_20pin_project_internal, symObjAddr: 0x4888, symBinAddr: 0x5C1C0, symSize: 0x110 }
  - { offset: 0x9BDE2, size: 0x8, addend: 0x0, symName: __RNvXsV_NtCs7yrEGia95Wz_10proc_macro6bridgeINtNtCsaNl6UpbT7bw_4core6result6ResultuNtNtB5_3rpc12PanicMessageEINtB1j_6EncodeuE6encodeCs9kQvaEtA2Tf_20pin_project_internal, symObjAddr: 0x4998, symBinAddr: 0x5C2D0, symSize: 0x12C }
  - { offset: 0x9C555, size: 0x8, addend: 0x0, symName: __RINvXs4_CshnvkK9b4wzu_11proc_macro2NtB6_11TokenStreamINtNtNtNtCsaNl6UpbT7bw_4core4iter6traits7collect6ExtendNtB6_9TokenTreeE6extendBx_ECs9kQvaEtA2Tf_20pin_project_internal, symObjAddr: 0x2590, symBinAddr: 0x59EC8, symSize: 0x34 }
  - { offset: 0x9C59E, size: 0x8, addend: 0x0, symName: __RINvXs6_CshnvkK9b4wzu_11proc_macro2NtB6_11TokenStreamINtNtNtNtCsaNl6UpbT7bw_4core4iter6traits7collect12FromIteratorNtB6_9TokenTreeE9from_iterINtNtNtBW_8adapters3map3MapNtNtB6_12token_stream8IntoIterNCNvNtCs9kQvaEtA2Tf_20pin_project_internal5utils13respan_tokens0EEB3g_, symObjAddr: 0x25C4, symBinAddr: 0x59EFC, symSize: 0x54 }
  - { offset: 0x9C603, size: 0x8, addend: 0x0, symName: __RNvXsG_CshnvkK9b4wzu_11proc_macro2NtB5_11TokenStreamNtNtCsaNl6UpbT7bw_4core5clone5Clone5cloneCs9kQvaEtA2Tf_20pin_project_internal, symObjAddr: 0x4810, symBinAddr: 0x5C148, symSize: 0x78 }
  - { offset: 0x9C635, size: 0x8, addend: 0x0, symName: __RNvXsX_CshnvkK9b4wzu_11proc_macro2NtB5_7SpacingNtNtCsaNl6UpbT7bw_4core3cmp9PartialEq2eqCs9kQvaEtA2Tf_20pin_project_internal, symObjAddr: 0x4AC4, symBinAddr: 0x5C3FC, symSize: 0x3C }
  - { offset: 0x9C6B4, size: 0x8, addend: 0x0, symName: __RNvXsY_CshnvkK9b4wzu_11proc_macro2NtB5_5IdentNtNtCsaNl6UpbT7bw_4core5clone5Clone5cloneCs9kQvaEtA2Tf_20pin_project_internal, symObjAddr: 0x4B00, symBinAddr: 0x5C438, symSize: 0x78 }
  - { offset: 0x9C74A, size: 0x8, addend: 0x0, symName: __RNvXs_NtCs9kQvaEtA2Tf_20pin_project_internal5utilsSNtNtCs807mVM355fU_3syn4attr9AttributeNtB4_8SliceExt14position_exact, symObjAddr: 0x6A0C, symBinAddr: 0x5E344, symSize: 0x94 }
  - { offset: 0x9C784, size: 0x8, addend: 0x0, symName: __RNvXs_NtCs9kQvaEtA2Tf_20pin_project_internal5utilsSNtNtCs807mVM355fU_3syn4attr9AttributeNtB4_8SliceExt4find, symObjAddr: 0x6AA0, symBinAddr: 0x5E3D8, symSize: 0x78 }
  - { offset: 0xA233E, size: 0x8, addend: 0x0, symName: __RINvXNtNtNtCs807mVM355fU_3syn3gen6helper9visit_mutNtCshnvkK9b4wzu_11proc_macro24SpanNtB3_5Spans9visit_mutNtNtCs9kQvaEtA2Tf_20pin_project_internal5utils15ReplaceReceiverEB1J_, symObjAddr: 0x2170, symBinAddr: 0x59AA8, symSize: 0x48 }
  - { offset: 0xA237D, size: 0x8, addend: 0x0, symName: __RINvXNtNtNtCs807mVM355fU_3syn3gen6helper9visit_mutNtCshnvkK9b4wzu_11proc_macro24SpanNtB3_5Spans9visit_mutNtNvNtCs9kQvaEtA2Tf_20pin_project_internal5utils23determine_lifetime_name16CollectLifetimesEB1L_, symObjAddr: 0x21B8, symBinAddr: 0x59AF0, symSize: 0x48 }
  - { offset: 0xA23BC, size: 0x8, addend: 0x0, symName: __RINvXNtNtNtCs807mVM355fU_3syn3gen6helper9visit_mutNtCshnvkK9b4wzu_11proc_macro24SpanNtB3_5Spans9visit_mutNtNvNtCs9kQvaEtA2Tf_20pin_project_internal7project15replace_item_fn9FnVisitorEB1L_, symObjAddr: 0x2200, symBinAddr: 0x59B38, symSize: 0x48 }
  - { offset: 0xA23FB, size: 0x8, addend: 0x0, symName: __RINvXNtNtNtCs807mVM355fU_3syn3gen6helper9visit_mutNtCshnvkK9b4wzu_11proc_macro24SpanNtB3_5Spans9visit_mutNtNvNtCs9kQvaEtA2Tf_20pin_project_internal7project16replace_item_use14UseTreeVisitorEB1L_, symObjAddr: 0x2248, symBinAddr: 0x59B80, symSize: 0x48 }
  - { offset: 0xA2440, size: 0x8, addend: 0x0, symName: __RINvXs0_NtNtNtCs807mVM355fU_3syn3gen6helper9visit_mutANtCshnvkK9b4wzu_11proc_macro24Spanj2_NtB6_5Spans9visit_mutNtNtCs9kQvaEtA2Tf_20pin_project_internal5utils15ReplaceReceiverEB1Q_, symObjAddr: 0x2290, symBinAddr: 0x59BC8, symSize: 0x58 }
  - { offset: 0xA247F, size: 0x8, addend: 0x0, symName: __RINvXs0_NtNtNtCs807mVM355fU_3syn3gen6helper9visit_mutANtCshnvkK9b4wzu_11proc_macro24Spanj2_NtB6_5Spans9visit_mutNtNvNtCs9kQvaEtA2Tf_20pin_project_internal5utils23determine_lifetime_name16CollectLifetimesEB1S_, symObjAddr: 0x22E8, symBinAddr: 0x59C20, symSize: 0x58 }
  - { offset: 0xA24BE, size: 0x8, addend: 0x0, symName: __RINvXs0_NtNtNtCs807mVM355fU_3syn3gen6helper9visit_mutANtCshnvkK9b4wzu_11proc_macro24Spanj2_NtB6_5Spans9visit_mutNtNvNtCs9kQvaEtA2Tf_20pin_project_internal7project15replace_item_fn9FnVisitorEB1S_, symObjAddr: 0x2340, symBinAddr: 0x59C78, symSize: 0x58 }
  - { offset: 0xA24FD, size: 0x8, addend: 0x0, symName: __RINvXs0_NtNtNtCs807mVM355fU_3syn3gen6helper9visit_mutANtCshnvkK9b4wzu_11proc_macro24Spanj2_NtB6_5Spans9visit_mutNtNvNtCs9kQvaEtA2Tf_20pin_project_internal7project16replace_item_use14UseTreeVisitorEB1S_, symObjAddr: 0x2398, symBinAddr: 0x59CD0, symSize: 0x58 }
  - { offset: 0xA2542, size: 0x8, addend: 0x0, symName: __RINvXs1_NtNtNtCs807mVM355fU_3syn3gen6helper9visit_mutANtCshnvkK9b4wzu_11proc_macro24Spanj3_NtB6_5Spans9visit_mutNtNtCs9kQvaEtA2Tf_20pin_project_internal5utils15ReplaceReceiverEB1Q_, symObjAddr: 0x23F0, symBinAddr: 0x59D28, symSize: 0x68 }
  - { offset: 0xA2581, size: 0x8, addend: 0x0, symName: __RINvXs1_NtNtNtCs807mVM355fU_3syn3gen6helper9visit_mutANtCshnvkK9b4wzu_11proc_macro24Spanj3_NtB6_5Spans9visit_mutNtNvNtCs9kQvaEtA2Tf_20pin_project_internal5utils23determine_lifetime_name16CollectLifetimesEB1S_, symObjAddr: 0x2458, symBinAddr: 0x59D90, symSize: 0x68 }
  - { offset: 0xA25C0, size: 0x8, addend: 0x0, symName: __RINvXs1_NtNtNtCs807mVM355fU_3syn3gen6helper9visit_mutANtCshnvkK9b4wzu_11proc_macro24Spanj3_NtB6_5Spans9visit_mutNtNvNtCs9kQvaEtA2Tf_20pin_project_internal7project15replace_item_fn9FnVisitorEB1S_, symObjAddr: 0x24C0, symBinAddr: 0x59DF8, symSize: 0x68 }
  - { offset: 0xA25FF, size: 0x8, addend: 0x0, symName: __RINvXs1_NtNtNtCs807mVM355fU_3syn3gen6helper9visit_mutANtCshnvkK9b4wzu_11proc_macro24Spanj3_NtB6_5Spans9visit_mutNtNvNtCs9kQvaEtA2Tf_20pin_project_internal7project16replace_item_use14UseTreeVisitorEB1S_, symObjAddr: 0x2528, symBinAddr: 0x59E60, symSize: 0x68 }
  - { offset: 0xA2644, size: 0x8, addend: 0x0, symName: __RINvXs_NtNtNtCs807mVM355fU_3syn3gen6helper9visit_mutANtCshnvkK9b4wzu_11proc_macro24Spanj1_NtB5_5Spans9visit_mutNtNtCs9kQvaEtA2Tf_20pin_project_internal5utils15ReplaceReceiverEB1P_, symObjAddr: 0x2618, symBinAddr: 0x59F50, symSize: 0x48 }
  - { offset: 0xA2683, size: 0x8, addend: 0x0, symName: __RINvXs_NtNtNtCs807mVM355fU_3syn3gen6helper9visit_mutANtCshnvkK9b4wzu_11proc_macro24Spanj1_NtB5_5Spans9visit_mutNtNvNtCs9kQvaEtA2Tf_20pin_project_internal5utils23determine_lifetime_name16CollectLifetimesEB1R_, symObjAddr: 0x2660, symBinAddr: 0x59F98, symSize: 0x48 }
  - { offset: 0xA26C2, size: 0x8, addend: 0x0, symName: __RINvXs_NtNtNtCs807mVM355fU_3syn3gen6helper9visit_mutANtCshnvkK9b4wzu_11proc_macro24Spanj1_NtB5_5Spans9visit_mutNtNvNtCs9kQvaEtA2Tf_20pin_project_internal7project15replace_item_fn9FnVisitorEB1R_, symObjAddr: 0x26A8, symBinAddr: 0x59FE0, symSize: 0x48 }
  - { offset: 0xA2701, size: 0x8, addend: 0x0, symName: __RINvXs_NtNtNtCs807mVM355fU_3syn3gen6helper9visit_mutANtCshnvkK9b4wzu_11proc_macro24Spanj1_NtB5_5Spans9visit_mutNtNvNtCs9kQvaEtA2Tf_20pin_project_internal7project16replace_item_use14UseTreeVisitorEB1R_, symObjAddr: 0x26F0, symBinAddr: 0x5A028, symSize: 0x48 }
  - { offset: 0xA2898, size: 0x8, addend: 0x0, symName: __RNvXs0_NtCs807mVM355fU_3syn5dropsINtB5_6NoDropDINtNtB7_10punctuated12IterMutTraitNtNtB7_3pat3PatEp4ItemQB1h_EL_ENtNtNtCsaNl6UpbT7bw_4core3ops5deref8DerefMut9deref_mutCs9kQvaEtA2Tf_20pin_project_internal, symObjAddr: 0x4418, symBinAddr: 0x5BD50, symSize: 0x3C }
  - { offset: 0xA28CD, size: 0x8, addend: 0x0, symName: __RNvXs0_NtCs807mVM355fU_3syn5dropsINtB5_6NoDropDINtNtB7_10punctuated9IterTraitNtNtB7_3pat3PatEp4ItemRB1d_EL_ENtNtNtCsaNl6UpbT7bw_4core3ops5deref8DerefMut9deref_mutCs9kQvaEtA2Tf_20pin_project_internal, symObjAddr: 0x4454, symBinAddr: 0x5BD8C, symSize: 0x3C }
  - { offset: 0xA2902, size: 0x8, addend: 0x0, symName: __RNvXs0_NtCs807mVM355fU_3syn5dropsINtB5_6NoDropDINtNtB7_10punctuated9IterTraitNtNtB7_4attr10NestedMetaEp4ItemRB1d_EL_ENtNtNtCsaNl6UpbT7bw_4core3ops5deref8DerefMut9deref_mutCs9kQvaEtA2Tf_20pin_project_internal, symObjAddr: 0x4490, symBinAddr: 0x5BDC8, symSize: 0x3C }
  - { offset: 0xA2937, size: 0x8, addend: 0x0, symName: __RNvXs0_NtCs807mVM355fU_3syn5dropsINtB5_6NoDropDINtNtB7_10punctuated9IterTraitNtNtB7_4data5FieldEp4ItemRB1d_EL_ENtNtNtCsaNl6UpbT7bw_4core3ops5deref8DerefMut9deref_mutCs9kQvaEtA2Tf_20pin_project_internal, symObjAddr: 0x44CC, symBinAddr: 0x5BE04, symSize: 0x3C }
  - { offset: 0xA296C, size: 0x8, addend: 0x0, symName: __RNvXs0_NtCs807mVM355fU_3syn5dropsINtB5_6NoDropDINtNtB7_10punctuated9IterTraitNtNtB7_4data7VariantEp4ItemRB1d_EL_ENtNtNtCsaNl6UpbT7bw_4core3ops5deref8DerefMut9deref_mutCs9kQvaEtA2Tf_20pin_project_internal, symObjAddr: 0x4508, symBinAddr: 0x5BE40, symSize: 0x3C }
  - { offset: 0xA29A1, size: 0x8, addend: 0x0, symName: __RNvXs0_NtCs807mVM355fU_3syn5dropsINtB5_6NoDropDINtNtB7_10punctuated9IterTraitNtNtB7_4path15GenericArgumentEp4ItemRB1d_EL_ENtNtNtCsaNl6UpbT7bw_4core3ops5deref8DerefMut9deref_mutCs9kQvaEtA2Tf_20pin_project_internal, symObjAddr: 0x4544, symBinAddr: 0x5BE7C, symSize: 0x3C }
  - { offset: 0xA2C4A, size: 0x8, addend: 0x0, symName: __RNvXNtCs807mVM355fU_3syn11parse_quoteNtNtB4_4path15GenericArgumentNtB2_10ParseQuote5parseCs9kQvaEtA2Tf_20pin_project_internal, symObjAddr: 0x422C, symBinAddr: 0x5BB64, symSize: 0x34 }
  - { offset: 0xA2C7F, size: 0x8, addend: 0x0, symName: __RNvXNtCs807mVM355fU_3syn11parse_quoteNtNtB4_4path30AngleBracketedGenericArgumentsNtB2_10ParseQuote5parseCs9kQvaEtA2Tf_20pin_project_internal, symObjAddr: 0x4260, symBinAddr: 0x5BB98, symSize: 0x34 }
  - { offset: 0xA2CB4, size: 0x8, addend: 0x0, symName: __RNvXNtCs807mVM355fU_3syn11parse_quoteNtNtB4_8generics14WherePredicateNtB2_10ParseQuote5parseCs9kQvaEtA2Tf_20pin_project_internal, symObjAddr: 0x4294, symBinAddr: 0x5BBCC, symSize: 0x34 }
  - { offset: 0xA2CE9, size: 0x8, addend: 0x0, symName: __RNvXNtCs807mVM355fU_3syn11parse_quoteNtNtB4_8generics8GenericsNtB2_10ParseQuote5parseCs9kQvaEtA2Tf_20pin_project_internal, symObjAddr: 0x42C8, symBinAddr: 0x5BC00, symSize: 0x34 }
  - { offset: 0xA2D2A, size: 0x8, addend: 0x0, symName: __RNvXNtCs807mVM355fU_3syn7spannedNtCshnvkK9b4wzu_11proc_macro211TokenStreamNtB2_7Spanned4spanCs9kQvaEtA2Tf_20pin_project_internal, symObjAddr: 0x42FC, symBinAddr: 0x5BC34, symSize: 0x34 }
  - { offset: 0xA2D5F, size: 0x8, addend: 0x0, symName: __RNvXNtCs807mVM355fU_3syn7spannedQNtNtB4_4path4PathNtB2_7Spanned4spanCs9kQvaEtA2Tf_20pin_project_internal, symObjAddr: 0x4330, symBinAddr: 0x5BC68, symSize: 0x34 }
  - { offset: 0xA377B, size: 0x8, addend: 0x0, symName: __RNvXs_NtCsiTraAjBDcu4_5alloc5allocNtB4_6GlobalNtNtCsaNl6UpbT7bw_4core5alloc9Allocator10deallocateCs9kQvaEtA2Tf_20pin_project_internal, symObjAddr: 0x4BB8, symBinAddr: 0x5C4F0, symSize: 0x80 }
  - { offset: 0xA3843, size: 0x8, addend: 0x0, symName: __RNvNtCsiTraAjBDcu4_5alloc5alloc15exchange_mallocCs9kQvaEtA2Tf_20pin_project_internal, symObjAddr: 0x3838, symBinAddr: 0x5B170, symSize: 0xAC }
  - { offset: 0xA4171, size: 0x8, addend: 0x0, symName: __RNvXs1_NtCsiTraAjBDcu4_5alloc7raw_vecINtB5_6RawVecNtCshnvkK9b4wzu_11proc_macro211TokenStreamENtNtNtCsaNl6UpbT7bw_4core3ops4drop4Drop4dropCs9kQvaEtA2Tf_20pin_project_internal, symObjAddr: 0x45A8, symBinAddr: 0x5BEE0, symSize: 0x34 }
  - { offset: 0xA41AD, size: 0x8, addend: 0x0, symName: __RNvXs1_NtCsiTraAjBDcu4_5alloc7raw_vecINtB5_6RawVecNtCshnvkK9b4wzu_11proc_macro25IdentENtNtNtCsaNl6UpbT7bw_4core3ops4drop4Drop4dropCs9kQvaEtA2Tf_20pin_project_internal, symObjAddr: 0x45DC, symBinAddr: 0x5BF14, symSize: 0x34 }
  - { offset: 0xA41E9, size: 0x8, addend: 0x0, symName: __RNvXs1_NtCsiTraAjBDcu4_5alloc7raw_vecINtB5_6RawVecNtNtB7_6string6StringENtNtNtCsaNl6UpbT7bw_4core3ops4drop4Drop4dropCs9kQvaEtA2Tf_20pin_project_internal, symObjAddr: 0x4610, symBinAddr: 0x5BF48, symSize: 0x34 }
  - { offset: 0xA4225, size: 0x8, addend: 0x0, symName: __RNvXs1_NtCsiTraAjBDcu4_5alloc7raw_vecINtB5_6RawVecNtNtCs807mVM355fU_3syn2ty4TypeENtNtNtCsaNl6UpbT7bw_4core3ops4drop4Drop4dropCs9kQvaEtA2Tf_20pin_project_internal, symObjAddr: 0x4644, symBinAddr: 0x5BF7C, symSize: 0x34 }
  - { offset: 0xA4343, size: 0x8, addend: 0x0, symName: __RNvNtCsiTraAjBDcu4_5alloc3fmt6formatCs9kQvaEtA2Tf_20pin_project_internal, symObjAddr: 0x3764, symBinAddr: 0x5B09C, symSize: 0xD4 }
  - { offset: 0xA490A, size: 0x8, addend: 0x0, symName: __RINvMNtCs807mVM355fU_3syn5errorNtB3_5Error11new_spannedRINtNtB5_10punctuated10PunctuatedNtNtB5_4item5FnArgNtNtB5_5token5CommaEReECs9kQvaEtA2Tf_20pin_project_internal, symObjAddr: 0x0, symBinAddr: 0x57938, symSize: 0xC4 }
  - { offset: 0xA4959, size: 0x8, addend: 0x0, symName: __RINvMNtCs807mVM355fU_3syn5errorNtB3_5Error11new_spannedRINtNtCsaNl6UpbT7bw_4core6option6OptionNtCshnvkK9b4wzu_11proc_macro25IdentENtNtCsiTraAjBDcu4_5alloc6string6StringECs9kQvaEtA2Tf_20pin_project_internal, symObjAddr: 0xC4, symBinAddr: 0x579FC, symSize: 0xD4 }
  - { offset: 0xA49A9, size: 0x8, addend: 0x0, symName: __RINvMNtCs807mVM355fU_3syn5errorNtB3_5Error11new_spannedRINtNtCsaNl6UpbT7bw_4core6option6OptionNtNtB5_5token6UnsafeEReECs9kQvaEtA2Tf_20pin_project_internal, symObjAddr: 0x198, symBinAddr: 0x57AD0, symSize: 0xC4 }
  - { offset: 0xA49F8, size: 0x8, addend: 0x0, symName: __RINvMNtCs807mVM355fU_3syn5errorNtB3_5Error11new_spannedRINtNtCsiTraAjBDcu4_5alloc5boxed3BoxNtNtB5_2ty4TypeEReECs9kQvaEtA2Tf_20pin_project_internal, symObjAddr: 0x25C, symBinAddr: 0x57B94, symSize: 0xC4 }
  - { offset: 0xA4A47, size: 0x8, addend: 0x0, symName: __RINvMNtCs807mVM355fU_3syn5errorNtB3_5Error11new_spannedRNtCshnvkK9b4wzu_11proc_macro211TokenStreamNtNtCsiTraAjBDcu4_5alloc6string6StringECs9kQvaEtA2Tf_20pin_project_internal, symObjAddr: 0x320, symBinAddr: 0x57C58, symSize: 0xD4 }
  - { offset: 0xA4A8A, size: 0x8, addend: 0x0, symName: __RINvMNtCs807mVM355fU_3syn5errorNtB3_5Error11new_spannedRNtCshnvkK9b4wzu_11proc_macro211TokenStreamReECs9kQvaEtA2Tf_20pin_project_internal, symObjAddr: 0x3F4, symBinAddr: 0x57D2C, symSize: 0xC4 }
  - { offset: 0xA4AD9, size: 0x8, addend: 0x0, symName: __RINvMNtCs807mVM355fU_3syn5errorNtB3_5Error11new_spannedRNtCshnvkK9b4wzu_11proc_macro25IdentNtNtCsiTraAjBDcu4_5alloc6string6StringECs9kQvaEtA2Tf_20pin_project_internal, symObjAddr: 0x4B8, symBinAddr: 0x57DF0, symSize: 0xD4 }
  - { offset: 0xA4B1C, size: 0x8, addend: 0x0, symName: __RINvMNtCs807mVM355fU_3syn5errorNtB3_5Error11new_spannedRNtCshnvkK9b4wzu_11proc_macro25IdentReECs9kQvaEtA2Tf_20pin_project_internal, symObjAddr: 0x58C, symBinAddr: 0x57EC4, symSize: 0xC4 }
  - { offset: 0xA4B6B, size: 0x8, addend: 0x0, symName: __RINvMNtCs807mVM355fU_3syn5errorNtB3_5Error11new_spannedRNtNtB5_3pat3PatReECs9kQvaEtA2Tf_20pin_project_internal, symObjAddr: 0x650, symBinAddr: 0x57F88, symSize: 0xC4 }
  - { offset: 0xA4BBA, size: 0x8, addend: 0x0, symName: __RINvMNtCs807mVM355fU_3syn5errorNtB3_5Error11new_spannedRNtNtB5_4attr9AttributeNtNtCsiTraAjBDcu4_5alloc6string6StringECs9kQvaEtA2Tf_20pin_project_internal, symObjAddr: 0x714, symBinAddr: 0x5804C, symSize: 0xD4 }
  - { offset: 0xA4C0A, size: 0x8, addend: 0x0, symName: __RINvMNtCs807mVM355fU_3syn5errorNtB3_5Error11new_spannedRNtNtB5_4item5FnArgReECs9kQvaEtA2Tf_20pin_project_internal, symObjAddr: 0x7E8, symBinAddr: 0x58120, symSize: 0xC4 }
  - { offset: 0xA4C59, size: 0x8, addend: 0x0, symName: __RINvMNtCs807mVM355fU_3syn5errorNtB3_5Error11new_spannedRNtNtB5_5token4BangReECs9kQvaEtA2Tf_20pin_project_internal, symObjAddr: 0x8AC, symBinAddr: 0x581E4, symSize: 0xC4 }
  - { offset: 0xA4CA8, size: 0x8, addend: 0x0, symName: __RINvMNtCs807mVM355fU_3syn5errorNtB3_5Error11new_spannedRNtNtB5_6derive11DeriveInputReECs9kQvaEtA2Tf_20pin_project_internal, symObjAddr: 0x970, symBinAddr: 0x582A8, symSize: 0xC4 }
  - { offset: 0xA4D04, size: 0x8, addend: 0x0, symName: __RINvMNtCs807mVM355fU_3syn5errorNtB3_5Error11new_spannedRQNtNtB5_4item7UseGlobNtNtCsiTraAjBDcu4_5alloc6string6StringECs9kQvaEtA2Tf_20pin_project_internal, symObjAddr: 0xA34, symBinAddr: 0x5836C, symSize: 0xD4 }
  - { offset: 0xA4D61, size: 0x8, addend: 0x0, symName: __RINvMNtCs807mVM355fU_3syn5errorNtB3_5Error11new_spannedRQNtNtB5_4item8ItemImplReECs9kQvaEtA2Tf_20pin_project_internal, symObjAddr: 0xB08, symBinAddr: 0x58440, symSize: 0xC4 }
  - { offset: 0xA4DBD, size: 0x8, addend: 0x0, symName: __RINvMNtCs807mVM355fU_3syn5errorNtB3_5Error11new_spannedRQNtNtB5_4item9UseRenameNtNtCsiTraAjBDcu4_5alloc6string6StringECs9kQvaEtA2Tf_20pin_project_internal, symObjAddr: 0xBCC, symBinAddr: 0x58504, symSize: 0xD4 }
  - { offset: 0xA4E1A, size: 0x8, addend: 0x0, symName: __RINvMNtCs807mVM355fU_3syn5errorNtB3_5Error11new_spannedRQNtNtB5_4path4PathReECs9kQvaEtA2Tf_20pin_project_internal, symObjAddr: 0xCA0, symBinAddr: 0x585D8, symSize: 0xC4 }
  - { offset: 0xA4E76, size: 0x8, addend: 0x0, symName: __RINvMNtCs807mVM355fU_3syn5errorNtB3_5Error11new_spannedRRINtNtB5_10punctuated10PunctuatedNtNtB5_4data7VariantNtNtB5_5token5CommaEReECs9kQvaEtA2Tf_20pin_project_internal, symObjAddr: 0xD64, symBinAddr: 0x5869C, symSize: 0xC4 }
  - { offset: 0xA4EC5, size: 0x8, addend: 0x0, symName: __RINvMNtCs807mVM355fU_3syn5errorNtB3_5Error11new_spannedRRINtNtCsiTraAjBDcu4_5alloc5boxed3BoxNtNtB5_2ty4TypeEReECs9kQvaEtA2Tf_20pin_project_internal, symObjAddr: 0xE28, symBinAddr: 0x58760, symSize: 0xC4 }
  - { offset: 0xA4F14, size: 0x8, addend: 0x0, symName: __RINvMNtCs807mVM355fU_3syn5errorNtB3_5Error11new_spannedRRNtCshnvkK9b4wzu_11proc_macro211TokenStreamNtNtCsiTraAjBDcu4_5alloc6string6StringECs9kQvaEtA2Tf_20pin_project_internal, symObjAddr: 0xEEC, symBinAddr: 0x58824, symSize: 0xD4 }
  - { offset: 0xA4F64, size: 0x8, addend: 0x0, symName: __RINvMNtCs807mVM355fU_3syn5errorNtB3_5Error11new_spannedRRNtCshnvkK9b4wzu_11proc_macro25IdentNtNtCsiTraAjBDcu4_5alloc6string6StringECs9kQvaEtA2Tf_20pin_project_internal, symObjAddr: 0xFC0, symBinAddr: 0x588F8, symSize: 0xD4 }
  - { offset: 0xA4FA7, size: 0x8, addend: 0x0, symName: __RINvMNtCs807mVM355fU_3syn5errorNtB3_5Error11new_spannedRRNtCshnvkK9b4wzu_11proc_macro25IdentReECs9kQvaEtA2Tf_20pin_project_internal, symObjAddr: 0x1094, symBinAddr: 0x589CC, symSize: 0xC4 }
  - { offset: 0xA5003, size: 0x8, addend: 0x0, symName: __RINvMNtCs807mVM355fU_3syn5errorNtB3_5Error11new_spannedRRNtNtB5_2ty4TypeReECs9kQvaEtA2Tf_20pin_project_internal, symObjAddr: 0x1158, symBinAddr: 0x58A90, symSize: 0xC4 }
  - { offset: 0xA508A, size: 0x8, addend: 0x0, symName: __RINvMNtCs807mVM355fU_3syn5errorNtB3_5Error11new_spannedRRNtNtB5_4attr10NestedMetaReECs9kQvaEtA2Tf_20pin_project_internal, symObjAddr: 0x121C, symBinAddr: 0x58B54, symSize: 0xC4 }
  - { offset: 0xA50D9, size: 0x8, addend: 0x0, symName: __RINvMNtCs807mVM355fU_3syn5errorNtB3_5Error11new_spannedRRNtNtB5_4attr9AttributeNtNtCsiTraAjBDcu4_5alloc6string6StringECs9kQvaEtA2Tf_20pin_project_internal, symObjAddr: 0x12E0, symBinAddr: 0x58C18, symSize: 0xD4 }
  - { offset: 0xA511C, size: 0x8, addend: 0x0, symName: __RINvMNtCs807mVM355fU_3syn5errorNtB3_5Error11new_spannedRRNtNtB5_4attr9AttributeReECs9kQvaEtA2Tf_20pin_project_internal, symObjAddr: 0x13B4, symBinAddr: 0x58CEC, symSize: 0xC4 }
  - { offset: 0xA5178, size: 0x8, addend: 0x0, symName: __RINvMNtCs807mVM355fU_3syn5errorNtB3_5Error11new_spannedRRNtNtB5_4data6FieldsReECs9kQvaEtA2Tf_20pin_project_internal, symObjAddr: 0x1478, symBinAddr: 0x58DB0, symSize: 0xC4 }
  - { offset: 0xA51D4, size: 0x8, addend: 0x0, symName: __RINvMNtCs807mVM355fU_3syn5errorNtB3_5Error11new_spannedRRNtNtB5_4expr4ExprReECs9kQvaEtA2Tf_20pin_project_internal, symObjAddr: 0x153C, symBinAddr: 0x58E74, symSize: 0xC4 }
  - { offset: 0xA5230, size: 0x8, addend: 0x0, symName: __RINvMNtCs807mVM355fU_3syn5errorNtB3_5Error11new_spannedRRNtNtB5_4item12ImplItemTypeNtNtCsiTraAjBDcu4_5alloc6string6StringECs9kQvaEtA2Tf_20pin_project_internal, symObjAddr: 0x1600, symBinAddr: 0x58F38, symSize: 0xD4 }
  - { offset: 0xA528D, size: 0x8, addend: 0x0, symName: __RINvMNtCs807mVM355fU_3syn5errorNtB3_5Error11new_spannedRRNtNtB5_4item13ImplItemConstNtNtCsiTraAjBDcu4_5alloc6string6StringECs9kQvaEtA2Tf_20pin_project_internal, symObjAddr: 0x16D4, symBinAddr: 0x5900C, symSize: 0xD4 }
  - { offset: 0xA52EA, size: 0x8, addend: 0x0, symName: __RINvMNtCs807mVM355fU_3syn5errorNtB3_5Error11new_spannedRRNtNtB5_4item14ImplItemMethodReECs9kQvaEtA2Tf_20pin_project_internal, symObjAddr: 0x17A8, symBinAddr: 0x590E0, symSize: 0xC4 }
  - { offset: 0xA5346, size: 0x8, addend: 0x0, symName: __RINvMNtCsaNl6UpbT7bw_4core6resultINtB3_6ResultINtNtB5_6option6OptionjENtNtCs807mVM355fU_3syn5error5ErrorE3mapIBJ_NtNtB1a_4attr9AttributeENCNvXs0_NtCs9kQvaEtA2Tf_20pin_project_internal5utilsINtNtCsiTraAjBDcu4_5alloc3vec3VecB1N_ENtB2j_6VecExt11find_remove0EB2l_, symObjAddr: 0x18B0, symBinAddr: 0x591E8, symSize: 0xB0 }
  - { offset: 0xA5404, size: 0x8, addend: 0x0, symName: __RINvMNtCsaNl6UpbT7bw_4core6resultINtB3_6ResultNtCshnvkK9b4wzu_11proc_macro211TokenStreamNtNtCs807mVM355fU_3syn5error5ErrorE14unwrap_or_elseNCNvNtCs9kQvaEtA2Tf_20pin_project_internal11pin_project6derive0EB2j_, symObjAddr: 0x1960, symBinAddr: 0x59298, symSize: 0x9C }
  - { offset: 0xA548E, size: 0x8, addend: 0x0, symName: __RINvMNtCsaNl6UpbT7bw_4core6resultINtB3_6ResultNtCshnvkK9b4wzu_11proc_macro211TokenStreamNtNtCs807mVM355fU_3syn5error5ErrorE14unwrap_or_elseNCNvNtCs9kQvaEtA2Tf_20pin_project_internal11pin_project9attribute0EB2j_, symObjAddr: 0x19FC, symBinAddr: 0x59334, symSize: 0x9C }
  - { offset: 0xA5518, size: 0x8, addend: 0x0, symName: __RINvMNtCsaNl6UpbT7bw_4core6resultINtB3_6ResultNtCshnvkK9b4wzu_11proc_macro211TokenStreamNtNtCs807mVM355fU_3syn5error5ErrorE14unwrap_or_elseNCNvNtCs9kQvaEtA2Tf_20pin_project_internal7project9attributes_0EB2j_, symObjAddr: 0x1A98, symBinAddr: 0x593D0, symSize: 0x9C }
  - { offset: 0xA55A2, size: 0x8, addend: 0x0, symName: __RINvMNtCsaNl6UpbT7bw_4core6resultINtB3_6ResultNtNtCs807mVM355fU_3syn4data10VisibilityNtNtBM_5error5ErrorE14unwrap_or_elseNCNvNtCs9kQvaEtA2Tf_20pin_project_internal5utils20determine_visibility0EB21_, symObjAddr: 0x1B34, symBinAddr: 0x5946C, symSize: 0x8C }
  - { offset: 0xA562C, size: 0x8, addend: 0x0, symName: __RINvMNtCsaNl6UpbT7bw_4core6resultINtB3_6ResultNtNtCs807mVM355fU_3syn4path4PathNtNtBM_5error5ErrorE14unwrap_or_elseNCNvNtCs9kQvaEtA2Tf_20pin_project_internal11pinned_drop5parses0_0EB1U_, symObjAddr: 0x1BC0, symBinAddr: 0x594F8, symSize: 0xA0 }
  - { offset: 0xA56B6, size: 0x8, addend: 0x0, symName: __RINvMNtCsaNl6UpbT7bw_4core6resultINtB3_6ResultNtNtCs807mVM355fU_3syn8generics14WherePredicateNtNtBM_5error5ErrorE14unwrap_or_elseNCNvMs1_NtNtCs9kQvaEtA2Tf_20pin_project_internal11pin_project6deriveNtB2b_7Context15make_unpin_impls1_0EB2f_, symObjAddr: 0x1C60, symBinAddr: 0x59598, symSize: 0xB8 }
  - { offset: 0xA575F, size: 0x8, addend: 0x0, symName: __RINvMNtCsaNl6UpbT7bw_4core6resultINtB3_6ResultTjINtNtB5_6option6OptionjEENtNtCs807mVM355fU_3syn5error5ErrorE3mapBK_NCNvXs_NtCs9kQvaEtA2Tf_20pin_project_internal5utilsSNtNtB1d_4attr9AttributeNtB1W_8SliceExt14position_exacts_0EB1Y_, symObjAddr: 0x1D18, symBinAddr: 0x59650, symSize: 0x9C }
  - { offset: 0xA57FF, size: 0x8, addend: 0x0, symName: __RINvMNtCsaNl6UpbT7bw_4core6resultINtB3_6ResultuNtNtCs807mVM355fU_3syn5error5ErrorE3mapuNCNvNtCs9kQvaEtA2Tf_20pin_project_internal11pinned_drop5parses_0EB1t_, symObjAddr: 0x1DB4, symBinAddr: 0x596EC, symSize: 0x84 }
  - { offset: 0xA589F, size: 0x8, addend: 0x0, symName: __RINvMNtCsaNl6UpbT7bw_4core6resultINtB3_6ResultuNtNtCs807mVM355fU_3syn5error5ErrorE8and_thenNtCshnvkK9b4wzu_11proc_macro211TokenStreamNCNvNtCs9kQvaEtA2Tf_20pin_project_internal7project9attribute0EB2d_, symObjAddr: 0x1E38, symBinAddr: 0x59770, symSize: 0xA8 }
  - { offset: 0xA5933, size: 0x8, addend: 0x0, symName: __RINvMNtCsaNl6UpbT7bw_4core6resultINtB3_6ResultuNtNtCs807mVM355fU_3syn5error5ErrorE8and_thenuNCNvNtCs9kQvaEtA2Tf_20pin_project_internal11pinned_drop9attribute0EB1y_, symObjAddr: 0x1EE0, symBinAddr: 0x59818, symSize: 0x7C }
  - { offset: 0xA59D3, size: 0x8, addend: 0x0, symName: __RINvMs6_NtNtCs807mVM355fU_3syn4path7parsingNtB8_4Path8is_identeECs9kQvaEtA2Tf_20pin_project_internal, symObjAddr: 0x1F5C, symBinAddr: 0x59894, symSize: 0x94 }
  - { offset: 0xA5A36, size: 0x8, addend: 0x0, symName: __RINvNtCs4EAaWzSXu1l_5quote9___private8get_spanNtCshnvkK9b4wzu_11proc_macro24SpanECs9kQvaEtA2Tf_20pin_project_internal, symObjAddr: 0x1FF0, symBinAddr: 0x59928, symSize: 0x20 }
  - { offset: 0xA5B5F, size: 0x8, addend: 0x0, symName: __RNvXs5_NtCs4EAaWzSXu1l_5quote9___privateINtB5_9RepInterpNtCshnvkK9b4wzu_11proc_macro211TokenStreamENtNtB7_9to_tokens8ToTokens9to_tokensCs9kQvaEtA2Tf_20pin_project_internal, symObjAddr: 0x46A8, symBinAddr: 0x5BFE0, symSize: 0x3C }
  - { offset: 0xA5B9E, size: 0x8, addend: 0x0, symName: __RNvXs5_NtCs4EAaWzSXu1l_5quote9___privateINtB5_9RepInterpRNtCshnvkK9b4wzu_11proc_macro211TokenStreamENtNtB7_9to_tokens8ToTokens9to_tokensCs9kQvaEtA2Tf_20pin_project_internal, symObjAddr: 0x46E4, symBinAddr: 0x5C01C, symSize: 0x3C }
  - { offset: 0xA5BDD, size: 0x8, addend: 0x0, symName: __RNvXs5_NtCs4EAaWzSXu1l_5quote9___privateINtB5_9RepInterpRNtCshnvkK9b4wzu_11proc_macro25IdentENtNtB7_9to_tokens8ToTokens9to_tokensCs9kQvaEtA2Tf_20pin_project_internal, symObjAddr: 0x4720, symBinAddr: 0x5C058, symSize: 0x3C }
  - { offset: 0xA5C1C, size: 0x8, addend: 0x0, symName: __RNvXs5_NtCs4EAaWzSXu1l_5quote9___privateINtB5_9RepInterpRNtNtCs807mVM355fU_3syn4attr9AttributeENtNtB7_9to_tokens8ToTokens9to_tokensCs9kQvaEtA2Tf_20pin_project_internal, symObjAddr: 0x475C, symBinAddr: 0x5C094, symSize: 0x3C }
  - { offset: 0xA5C61, size: 0x8, addend: 0x0, symName: __RNvXs7_NtCs4EAaWzSXu1l_5quote9___privateINtB5_20IdentFragmentAdapterRRNtCshnvkK9b4wzu_11proc_macro25IdentENtNtCsaNl6UpbT7bw_4core3fmt7Display3fmtCs9kQvaEtA2Tf_20pin_project_internal, symObjAddr: 0x4798, symBinAddr: 0x5C0D0, symSize: 0x3C }
  - { offset: 0xA5CA7, size: 0x8, addend: 0x0, symName: __RNvXs7_NtCs4EAaWzSXu1l_5quote9___privateINtB5_20IdentFragmentAdapterRjENtNtCsaNl6UpbT7bw_4core3fmt7Display3fmtCs9kQvaEtA2Tf_20pin_project_internal, symObjAddr: 0x47D4, symBinAddr: 0x5C10C, symSize: 0x3C }
  - { offset: 0xA5CF3, size: 0x8, addend: 0x0, symName: __RNvYINtNtCs4EAaWzSXu1l_5quote9___private11HasIteratorKb1_EINtB5_16CheckHasIteratorKBQ_E5checkCs9kQvaEtA2Tf_20pin_project_internal, symObjAddr: 0x5FBC, symBinAddr: 0x5D8F4, symSize: 0x1C }
  - { offset: 0xA5DB0, size: 0x8, addend: 0x0, symName: __RINvXNtCs4EAaWzSXu1l_5quote3extNtCshnvkK9b4wzu_11proc_macro211TokenStreamNtB3_14TokenStreamExt10append_allINtNtCs807mVM355fU_3syn10punctuated5PairsNtNtB1L_4item5FnArgNtNtB1L_5token5CommaEECs9kQvaEtA2Tf_20pin_project_internal, symObjAddr: 0x20A0, symBinAddr: 0x599D8, symSize: 0xD0 }
  - { offset: 0xA5E2E, size: 0x8, addend: 0x0, symName: __RNvXNtCs4EAaWzSXu1l_5quote14ident_fragmentRNtCshnvkK9b4wzu_11proc_macro25IdentNtB2_13IdentFragment3fmtCs9kQvaEtA2Tf_20pin_project_internal, symObjAddr: 0x3DC4, symBinAddr: 0x5B6FC, symSize: 0x40 }
  - { offset: 0xA5E71, size: 0x8, addend: 0x0, symName: __RNvXNtCs4EAaWzSXu1l_5quote14ident_fragmentRNtCshnvkK9b4wzu_11proc_macro25IdentNtB2_13IdentFragment4spanCs9kQvaEtA2Tf_20pin_project_internal, symObjAddr: 0x3E04, symBinAddr: 0x5B73C, symSize: 0x38 }
  - { offset: 0xA5EA6, size: 0x8, addend: 0x0, symName: __RNvXNtCs4EAaWzSXu1l_5quote14ident_fragmentRRNtCshnvkK9b4wzu_11proc_macro25IdentNtB2_13IdentFragment3fmtCs9kQvaEtA2Tf_20pin_project_internal, symObjAddr: 0x3E3C, symBinAddr: 0x5B774, symSize: 0x40 }
  - { offset: 0xA5EE9, size: 0x8, addend: 0x0, symName: __RNvXNtCs4EAaWzSXu1l_5quote14ident_fragmentRRNtCshnvkK9b4wzu_11proc_macro25IdentNtB2_13IdentFragment4spanCs9kQvaEtA2Tf_20pin_project_internal, symObjAddr: 0x3E7C, symBinAddr: 0x5B7B4, symSize: 0x38 }
  - { offset: 0xA5F1E, size: 0x8, addend: 0x0, symName: __RNvXNtCs4EAaWzSXu1l_5quote14ident_fragmentRjNtB2_13IdentFragment3fmtCs9kQvaEtA2Tf_20pin_project_internal, symObjAddr: 0x3EB4, symBinAddr: 0x5B7EC, symSize: 0x40 }
  - { offset: 0xA5F61, size: 0x8, addend: 0x0, symName: __RNvXNtCs4EAaWzSXu1l_5quote14ident_fragmentRjNtB2_13IdentFragment4spanCs9kQvaEtA2Tf_20pin_project_internal, symObjAddr: 0x3EF4, symBinAddr: 0x5B82C, symSize: 0x38 }
  - { offset: 0xA5F9C, size: 0x8, addend: 0x0, symName: __RNvYjNtNtCs4EAaWzSXu1l_5quote14ident_fragment13IdentFragment4spanCs9kQvaEtA2Tf_20pin_project_internal, symObjAddr: 0x69E0, symBinAddr: 0x5E318, symSize: 0x2C }
  - { offset: 0xA5FDD, size: 0x8, addend: 0x0, symName: __RNvXNtCs4EAaWzSXu1l_5quote9to_tokensRNtCshnvkK9b4wzu_11proc_macro211TokenStreamNtB2_8ToTokens9to_tokensCs9kQvaEtA2Tf_20pin_project_internal, symObjAddr: 0x3F2C, symBinAddr: 0x5B864, symSize: 0x40 }
  - { offset: 0xA601C, size: 0x8, addend: 0x0, symName: __RNvXNtCs4EAaWzSXu1l_5quote9to_tokensRNtCshnvkK9b4wzu_11proc_macro25IdentNtB2_8ToTokens9to_tokensCs9kQvaEtA2Tf_20pin_project_internal, symObjAddr: 0x3F6C, symBinAddr: 0x5B8A4, symSize: 0x40 }
  - { offset: 0xA605B, size: 0x8, addend: 0x0, symName: __RNvXNtCs4EAaWzSXu1l_5quote9to_tokensRNtNtCs807mVM355fU_3syn4data10VisibilityNtB2_8ToTokens9to_tokensCs9kQvaEtA2Tf_20pin_project_internal, symObjAddr: 0x3FAC, symBinAddr: 0x5B8E4, symSize: 0x40 }
  - { offset: 0xA609A, size: 0x8, addend: 0x0, symName: __RNvXNtCs4EAaWzSXu1l_5quote9to_tokensRNtNtCs807mVM355fU_3syn4data6FieldsNtB2_8ToTokens9to_tokensCs9kQvaEtA2Tf_20pin_project_internal, symObjAddr: 0x3FEC, symBinAddr: 0x5B924, symSize: 0x40 }
  - { offset: 0xA60D9, size: 0x8, addend: 0x0, symName: __RNvXNtCs4EAaWzSXu1l_5quote9to_tokensRNtNtCs807mVM355fU_3syn8generics11WhereClauseNtB2_8ToTokens9to_tokensCs9kQvaEtA2Tf_20pin_project_internal, symObjAddr: 0x402C, symBinAddr: 0x5B964, symSize: 0x40 }
  - { offset: 0xA6118, size: 0x8, addend: 0x0, symName: __RNvXNtCs4EAaWzSXu1l_5quote9to_tokensRNtNtCs807mVM355fU_3syn8generics8GenericsNtB2_8ToTokens9to_tokensCs9kQvaEtA2Tf_20pin_project_internal, symObjAddr: 0x406C, symBinAddr: 0x5B9A4, symSize: 0x40 }
  - { offset: 0xA6157, size: 0x8, addend: 0x0, symName: __RNvXNtCs4EAaWzSXu1l_5quote9to_tokensRQNtNtCs807mVM355fU_3syn4path4PathNtB2_8ToTokens9to_tokensCs9kQvaEtA2Tf_20pin_project_internal, symObjAddr: 0x40AC, symBinAddr: 0x5B9E4, symSize: 0x40 }
  - { offset: 0xA6196, size: 0x8, addend: 0x0, symName: __RNvXNtCs4EAaWzSXu1l_5quote9to_tokensRRNtCshnvkK9b4wzu_11proc_macro211TokenStreamNtB2_8ToTokens9to_tokensCs9kQvaEtA2Tf_20pin_project_internal, symObjAddr: 0x40EC, symBinAddr: 0x5BA24, symSize: 0x40 }
  - { offset: 0xA61D5, size: 0x8, addend: 0x0, symName: __RNvXNtCs4EAaWzSXu1l_5quote9to_tokensRRNtCshnvkK9b4wzu_11proc_macro25IdentNtB2_8ToTokens9to_tokensCs9kQvaEtA2Tf_20pin_project_internal, symObjAddr: 0x412C, symBinAddr: 0x5BA64, symSize: 0x40 }
  - { offset: 0xA6214, size: 0x8, addend: 0x0, symName: __RNvXNtCs4EAaWzSXu1l_5quote9to_tokensRRNtNtCs807mVM355fU_3syn4attr10NestedMetaNtB2_8ToTokens9to_tokensCs9kQvaEtA2Tf_20pin_project_internal, symObjAddr: 0x416C, symBinAddr: 0x5BAA4, symSize: 0x40 }
  - { offset: 0xA6253, size: 0x8, addend: 0x0, symName: __RNvXNtCs4EAaWzSXu1l_5quote9to_tokensRRNtNtCs807mVM355fU_3syn4attr9AttributeNtB2_8ToTokens9to_tokensCs9kQvaEtA2Tf_20pin_project_internal, symObjAddr: 0x41AC, symBinAddr: 0x5BAE4, symSize: 0x40 }
  - { offset: 0xA6292, size: 0x8, addend: 0x0, symName: __RNvXNtCs4EAaWzSXu1l_5quote9to_tokensRRNtNtCs807mVM355fU_3syn4data6FieldsNtB2_8ToTokens9to_tokensCs9kQvaEtA2Tf_20pin_project_internal, symObjAddr: 0x41EC, symBinAddr: 0x5BB24, symSize: 0x40 }
  - { offset: 0xA62D7, size: 0x8, addend: 0x0, symName: __RNvXs_NtCs4EAaWzSXu1l_5quote9to_tokensQNtNtCs807mVM355fU_3syn4path4PathNtB4_8ToTokens9to_tokensCs9kQvaEtA2Tf_20pin_project_internal, symObjAddr: 0x4B78, symBinAddr: 0x5C4B0, symSize: 0x40 }
  - { offset: 0xA631C, size: 0x8, addend: 0x0, symName: __RNvYNtCshnvkK9b4wzu_11proc_macro25GroupNtNtCs4EAaWzSXu1l_5quote9to_tokens8ToTokens15to_token_streamCs9kQvaEtA2Tf_20pin_project_internal, symObjAddr: 0x5FD8, symBinAddr: 0x5D910, symSize: 0x8C }
  - { offset: 0xA6366, size: 0x8, addend: 0x0, symName: __RNvYNtCshnvkK9b4wzu_11proc_macro25GroupNtNtCs4EAaWzSXu1l_5quote9to_tokens8ToTokens17into_token_streamCs9kQvaEtA2Tf_20pin_project_internal, symObjAddr: 0x6064, symBinAddr: 0x5D99C, symSize: 0x64 }
  - { offset: 0xA639C, size: 0x8, addend: 0x0, symName: __RNvYRNtCshnvkK9b4wzu_11proc_macro211TokenStreamNtNtCs4EAaWzSXu1l_5quote9to_tokens8ToTokens15to_token_streamCs9kQvaEtA2Tf_20pin_project_internal, symObjAddr: 0x6120, symBinAddr: 0x5DA58, symSize: 0x8C }
  - { offset: 0xA63E6, size: 0x8, addend: 0x0, symName: __RNvYRNtCshnvkK9b4wzu_11proc_macro211TokenStreamNtNtCs4EAaWzSXu1l_5quote9to_tokens8ToTokens17into_token_streamCs9kQvaEtA2Tf_20pin_project_internal, symObjAddr: 0x61AC, symBinAddr: 0x5DAE4, symSize: 0x54 }
  - { offset: 0xA641B, size: 0x8, addend: 0x0, symName: __RNvYRNtCshnvkK9b4wzu_11proc_macro25IdentNtNtCs4EAaWzSXu1l_5quote9to_tokens8ToTokens15to_token_streamCs9kQvaEtA2Tf_20pin_project_internal, symObjAddr: 0x6200, symBinAddr: 0x5DB38, symSize: 0x8C }
  - { offset: 0xA6465, size: 0x8, addend: 0x0, symName: __RNvYRNtCshnvkK9b4wzu_11proc_macro25IdentNtNtCs4EAaWzSXu1l_5quote9to_tokens8ToTokens17into_token_streamCs9kQvaEtA2Tf_20pin_project_internal, symObjAddr: 0x628C, symBinAddr: 0x5DBC4, symSize: 0x54 }
  - { offset: 0xA649A, size: 0x8, addend: 0x0, symName: __RNvYRNtNtCs807mVM355fU_3syn3pat3PatNtNtCs4EAaWzSXu1l_5quote9to_tokens8ToTokens15to_token_streamCs9kQvaEtA2Tf_20pin_project_internal, symObjAddr: 0x62E0, symBinAddr: 0x5DC18, symSize: 0x8C }
  - { offset: 0xA64E4, size: 0x8, addend: 0x0, symName: __RNvYRNtNtCs807mVM355fU_3syn3pat3PatNtNtCs4EAaWzSXu1l_5quote9to_tokens8ToTokens17into_token_streamCs9kQvaEtA2Tf_20pin_project_internal, symObjAddr: 0x636C, symBinAddr: 0x5DCA4, symSize: 0x54 }
  - { offset: 0xA6519, size: 0x8, addend: 0x0, symName: __RNvYRNtNtCs807mVM355fU_3syn4attr9AttributeNtNtCs4EAaWzSXu1l_5quote9to_tokens8ToTokens15to_token_streamCs9kQvaEtA2Tf_20pin_project_internal, symObjAddr: 0x63C0, symBinAddr: 0x5DCF8, symSize: 0x8C }
  - { offset: 0xA6563, size: 0x8, addend: 0x0, symName: __RNvYRNtNtCs807mVM355fU_3syn4attr9AttributeNtNtCs4EAaWzSXu1l_5quote9to_tokens8ToTokens17into_token_streamCs9kQvaEtA2Tf_20pin_project_internal, symObjAddr: 0x644C, symBinAddr: 0x5DD84, symSize: 0x54 }
  - { offset: 0xA6598, size: 0x8, addend: 0x0, symName: __RNvYRQNtNtCs807mVM355fU_3syn4path4PathNtNtCs4EAaWzSXu1l_5quote9to_tokens8ToTokens15to_token_streamCs9kQvaEtA2Tf_20pin_project_internal, symObjAddr: 0x64A0, symBinAddr: 0x5DDD8, symSize: 0x8C }
  - { offset: 0xA65E2, size: 0x8, addend: 0x0, symName: __RNvYRQNtNtCs807mVM355fU_3syn4path4PathNtNtCs4EAaWzSXu1l_5quote9to_tokens8ToTokens17into_token_streamCs9kQvaEtA2Tf_20pin_project_internal, symObjAddr: 0x652C, symBinAddr: 0x5DE64, symSize: 0x54 }
  - { offset: 0xA6617, size: 0x8, addend: 0x0, symName: __RNvYRRNtCshnvkK9b4wzu_11proc_macro211TokenStreamNtNtCs4EAaWzSXu1l_5quote9to_tokens8ToTokens15to_token_streamCs9kQvaEtA2Tf_20pin_project_internal, symObjAddr: 0x6580, symBinAddr: 0x5DEB8, symSize: 0x8C }
  - { offset: 0xA6661, size: 0x8, addend: 0x0, symName: __RNvYRRNtCshnvkK9b4wzu_11proc_macro211TokenStreamNtNtCs4EAaWzSXu1l_5quote9to_tokens8ToTokens17into_token_streamCs9kQvaEtA2Tf_20pin_project_internal, symObjAddr: 0x660C, symBinAddr: 0x5DF44, symSize: 0x54 }
  - { offset: 0xA6696, size: 0x8, addend: 0x0, symName: __RNvYRRNtCshnvkK9b4wzu_11proc_macro25IdentNtNtCs4EAaWzSXu1l_5quote9to_tokens8ToTokens15to_token_streamCs9kQvaEtA2Tf_20pin_project_internal, symObjAddr: 0x6660, symBinAddr: 0x5DF98, symSize: 0x8C }
  - { offset: 0xA66E0, size: 0x8, addend: 0x0, symName: __RNvYRRNtCshnvkK9b4wzu_11proc_macro25IdentNtNtCs4EAaWzSXu1l_5quote9to_tokens8ToTokens17into_token_streamCs9kQvaEtA2Tf_20pin_project_internal, symObjAddr: 0x66EC, symBinAddr: 0x5E024, symSize: 0x54 }
  - { offset: 0xA6715, size: 0x8, addend: 0x0, symName: __RNvYRRNtNtCs807mVM355fU_3syn4attr10NestedMetaNtNtCs4EAaWzSXu1l_5quote9to_tokens8ToTokens15to_token_streamCs9kQvaEtA2Tf_20pin_project_internal, symObjAddr: 0x6740, symBinAddr: 0x5E078, symSize: 0x8C }
  - { offset: 0xA675F, size: 0x8, addend: 0x0, symName: __RNvYRRNtNtCs807mVM355fU_3syn4attr10NestedMetaNtNtCs4EAaWzSXu1l_5quote9to_tokens8ToTokens17into_token_streamCs9kQvaEtA2Tf_20pin_project_internal, symObjAddr: 0x67CC, symBinAddr: 0x5E104, symSize: 0x54 }
  - { offset: 0xA6794, size: 0x8, addend: 0x0, symName: __RNvYRRNtNtCs807mVM355fU_3syn4attr9AttributeNtNtCs4EAaWzSXu1l_5quote9to_tokens8ToTokens15to_token_streamCs9kQvaEtA2Tf_20pin_project_internal, symObjAddr: 0x6820, symBinAddr: 0x5E158, symSize: 0x8C }
  - { offset: 0xA67DE, size: 0x8, addend: 0x0, symName: __RNvYRRNtNtCs807mVM355fU_3syn4attr9AttributeNtNtCs4EAaWzSXu1l_5quote9to_tokens8ToTokens17into_token_streamCs9kQvaEtA2Tf_20pin_project_internal, symObjAddr: 0x68AC, symBinAddr: 0x5E1E4, symSize: 0x54 }
  - { offset: 0xA6813, size: 0x8, addend: 0x0, symName: __RNvYRRNtNtCs807mVM355fU_3syn4data6FieldsNtNtCs4EAaWzSXu1l_5quote9to_tokens8ToTokens15to_token_streamCs9kQvaEtA2Tf_20pin_project_internal, symObjAddr: 0x6900, symBinAddr: 0x5E238, symSize: 0x8C }
  - { offset: 0xA685D, size: 0x8, addend: 0x0, symName: __RNvYRRNtNtCs807mVM355fU_3syn4data6FieldsNtNtCs4EAaWzSXu1l_5quote9to_tokens8ToTokens17into_token_streamCs9kQvaEtA2Tf_20pin_project_internal, symObjAddr: 0x698C, symBinAddr: 0x5E2C4, symSize: 0x54 }
  - { offset: 0xA689E, size: 0x8, addend: 0x0, symName: __RNvXs0_NtCs4EAaWzSXu1l_5quote7spannedNtCshnvkK9b4wzu_11proc_macro211TokenStreamNtB5_7Spanned6___spanCs9kQvaEtA2Tf_20pin_project_internal, symObjAddr: 0x4390, symBinAddr: 0x5BCC8, symSize: 0x44 }
  - { offset: 0xA68D3, size: 0x8, addend: 0x0, symName: __RNvXs0_NtCs4EAaWzSXu1l_5quote7spannedQNtNtCs807mVM355fU_3syn4path4PathNtB5_7Spanned6___spanCs9kQvaEtA2Tf_20pin_project_internal, symObjAddr: 0x43D4, symBinAddr: 0x5BD0C, symSize: 0x44 }
  - { offset: 0xA6A07, size: 0x8, addend: 0x0, symName: __RNvMNtCs807mVM355fU_3syn5dropsINtB2_6NoDropINtNtB4_10punctuated11PrivateIterNtNtB4_3pat3PatNtNtB4_5token2OrEE3newCs9kQvaEtA2Tf_20pin_project_internal, symObjAddr: 0x2DD4, symBinAddr: 0x5A70C, symSize: 0x40 }
  - { offset: 0xA6A84, size: 0x8, addend: 0x0, symName: __RNvMNtCs807mVM355fU_3syn5dropsINtB2_6NoDropINtNtB4_10punctuated11PrivateIterNtNtB4_4attr10NestedMetaNtNtB4_5token5CommaEE3newCs9kQvaEtA2Tf_20pin_project_internal, symObjAddr: 0x2E14, symBinAddr: 0x5A74C, symSize: 0x40 }
  - { offset: 0xA6B0E, size: 0x8, addend: 0x0, symName: __RNvMNtCs807mVM355fU_3syn5dropsINtB2_6NoDropINtNtB4_10punctuated11PrivateIterNtNtB4_4data7VariantNtNtB4_5token5CommaEE3newCs9kQvaEtA2Tf_20pin_project_internal, symObjAddr: 0x2E54, symBinAddr: 0x5A78C, symSize: 0x40 }
  - { offset: 0xA6B98, size: 0x8, addend: 0x0, symName: __RNvMNtCs807mVM355fU_3syn5dropsINtB2_6NoDropINtNtB4_10punctuated11PrivateIterNtNtB4_4path15GenericArgumentNtNtB4_5token5CommaEE3newCs9kQvaEtA2Tf_20pin_project_internal, symObjAddr: 0x2E94, symBinAddr: 0x5A7CC, symSize: 0x40 }
  - { offset: 0xA6C22, size: 0x8, addend: 0x0, symName: __RNvMNtCs807mVM355fU_3syn5dropsINtB2_6NoDropINtNtB4_10punctuated14PrivateIterMutNtNtB4_3pat3PatNtNtB4_5token2OrEE3newCs9kQvaEtA2Tf_20pin_project_internal, symObjAddr: 0x2ED4, symBinAddr: 0x5A80C, symSize: 0x40 }
  - { offset: 0xA6C6A, size: 0x8, addend: 0x0, symName: __RNvMNtCsaNl6UpbT7bw_4core6resultINtB2_6ResultNtCshnvkK9b4wzu_11proc_macro211TokenStreamNtNtCs807mVM355fU_3syn5error5ErrorE2okCs9kQvaEtA2Tf_20pin_project_internal, symObjAddr: 0x30A4, symBinAddr: 0x5A9DC, symSize: 0xA4 }
  - { offset: 0xA6CBE, size: 0x8, addend: 0x0, symName: __RNvMNtCsaNl6UpbT7bw_4core6resultINtB2_6ResultNtCshnvkK9b4wzu_11proc_macro25IdentNtNtCs807mVM355fU_3syn5error5ErrorE2okCs9kQvaEtA2Tf_20pin_project_internal, symObjAddr: 0x3148, symBinAddr: 0x5AA80, symSize: 0x84 }
  - { offset: 0xA6D12, size: 0x8, addend: 0x0, symName: __RNvMNtCsaNl6UpbT7bw_4core6resultINtB2_6ResultNtNtCs807mVM355fU_3syn4attr4MetaNtNtBL_5error5ErrorE2okCs9kQvaEtA2Tf_20pin_project_internal, symObjAddr: 0x31CC, symBinAddr: 0x5AB04, symSize: 0xA8 }
  - { offset: 0xA6D94, size: 0x8, addend: 0x0, symName: __RNvMNtCsaNl6UpbT7bw_4core6resultINtB2_6ResultNtNtCs807mVM355fU_3syn5parse11ParseBufferNtNtBL_5error5ErrorE2okCs9kQvaEtA2Tf_20pin_project_internal, symObjAddr: 0x3274, symBinAddr: 0x5ABAC, symSize: 0x88 }
  - { offset: 0xA6E1A, size: 0x8, addend: 0x0, symName: __RNvMNtCsaNl6UpbT7bw_4core6resultINtB2_6ResultuNtNtCs807mVM355fU_3syn5error5ErrorE6is_errCs9kQvaEtA2Tf_20pin_project_internal, symObjAddr: 0x32FC, symBinAddr: 0x5AC34, symSize: 0x2C }
  - { offset: 0xA6FFA, size: 0x8, addend: 0x0, symName: __RNvMNtCsiTraAjBDcu4_5alloc5allocNtB2_6Global10alloc_implCs9kQvaEtA2Tf_20pin_project_internal, symObjAddr: 0x3328, symBinAddr: 0x5AC60, symSize: 0x204 }
  - { offset: 0xA7380, size: 0x8, addend: 0x0, symName: __RNvMNtNtCs4EAaWzSXu1l_5quote9___private8get_spanINtB2_7GetSpanNtCshnvkK9b4wzu_11proc_macro24SpanE11___into_spanCs9kQvaEtA2Tf_20pin_project_internal, symObjAddr: 0x352C, symBinAddr: 0x5AE64, symSize: 0x20 }
  - { offset: 0xA73F4, size: 0x8, addend: 0x0, symName: __RNvMs0_NtCsiTraAjBDcu4_5alloc7raw_vecINtB5_6RawVecNtCshnvkK9b4wzu_11proc_macro211TokenStreamE8grow_oneCs9kQvaEtA2Tf_20pin_project_internal, symObjAddr: 0x354C, symBinAddr: 0x5AE84, symSize: 0x90 }
  - { offset: 0xA74A2, size: 0x8, addend: 0x0, symName: __RNvMs0_NtCsiTraAjBDcu4_5alloc7raw_vecINtB5_6RawVecNtCshnvkK9b4wzu_11proc_macro25IdentE8grow_oneCs9kQvaEtA2Tf_20pin_project_internal, symObjAddr: 0x35DC, symBinAddr: 0x5AF14, symSize: 0x90 }
  - { offset: 0xA7550, size: 0x8, addend: 0x0, symName: __RNvMs0_NtCsiTraAjBDcu4_5alloc7raw_vecINtB5_6RawVecNtNtCs807mVM355fU_3syn2ty4TypeE8grow_oneCs9kQvaEtA2Tf_20pin_project_internal, symObjAddr: 0x366C, symBinAddr: 0x5AFA4, symSize: 0x90 }
  - { offset: 0xA75C6, size: 0x8, addend: 0x0, symName: __RNvMs6_NtCs4EAaWzSXu1l_5quote9___privateINtB5_20IdentFragmentAdapterRRNtCshnvkK9b4wzu_11proc_macro25IdentE4spanCs9kQvaEtA2Tf_20pin_project_internal, symObjAddr: 0x36FC, symBinAddr: 0x5B034, symSize: 0x34 }
  - { offset: 0xA760C, size: 0x8, addend: 0x0, symName: __RNvMs6_NtCs4EAaWzSXu1l_5quote9___privateINtB5_20IdentFragmentAdapterRjE4spanCs9kQvaEtA2Tf_20pin_project_internal, symObjAddr: 0x3730, symBinAddr: 0x5B068, symSize: 0x34 }
  - { offset: 0xA829A, size: 0x8, addend: 0x0, symName: __RINvCs807mVM355fU_3syn6parse2NtNtB2_2ty8TypePathECs9kQvaEtA2Tf_20pin_project_internal, symObjAddr: 0x0, symBinAddr: 0x5E450, symSize: 0x24 }
  - { offset: 0xA82F6, size: 0x8, addend: 0x0, symName: __RNvXsw_NtCsiTraAjBDcu4_5alloc6stringNtNtCs807mVM355fU_3syn8lifetime8LifetimeNtB5_8ToString9to_stringCs9kQvaEtA2Tf_20pin_project_internal, symObjAddr: 0x5BD0, symBinAddr: 0x63FD4, symSize: 0x24 }
  - { offset: 0xA8333, size: 0x8, addend: 0x0, symName: __RNvXsx_NtCsiTraAjBDcu4_5alloc6stringNtNtCs807mVM355fU_3syn8lifetime8LifetimeNtB5_12SpecToString14spec_to_stringCs9kQvaEtA2Tf_20pin_project_internal, symObjAddr: 0x5BF4, symBinAddr: 0x63FF8, symSize: 0xF4 }
  - { offset: 0xA955F, size: 0x8, addend: 0x0, symName: __RNvXs6_NtCsiTraAjBDcu4_5alloc5boxedINtB5_3BoxDNtNtCsaNl6UpbT7bw_4core5error5ErrorNtNtBM_6marker4SyncNtB1j_4SendEL_ENtNtNtBM_3ops4drop4Drop4dropCs9kQvaEtA2Tf_20pin_project_internal, symObjAddr: 0x2D6C, symBinAddr: 0x61170, symSize: 0xCC }
  - { offset: 0xA9696, size: 0x8, addend: 0x0, symName: __RNvXs6_NtCsiTraAjBDcu4_5alloc5boxedINtB5_3BoxINtNtCs807mVM355fU_3syn5drops6NoDropDINtNtBM_10punctuated12IterMutTraitNtNtBM_3pat3PatEp4ItemQB1Q_EL_EENtNtNtCsaNl6UpbT7bw_4core3ops4drop4Drop4dropCs9kQvaEtA2Tf_20pin_project_internal, symObjAddr: 0x2E38, symBinAddr: 0x6123C, symSize: 0x120 }
  - { offset: 0xA97CD, size: 0x8, addend: 0x0, symName: __RNvXs6_NtCsiTraAjBDcu4_5alloc5boxedINtB5_3BoxINtNtCs807mVM355fU_3syn5drops6NoDropDINtNtBM_10punctuated9IterTraitNtNtBM_3pat3PatEp4ItemRB1M_EL_EENtNtNtCsaNl6UpbT7bw_4core3ops4drop4Drop4dropCs9kQvaEtA2Tf_20pin_project_internal, symObjAddr: 0x2F58, symBinAddr: 0x6135C, symSize: 0x120 }
  - { offset: 0xA9904, size: 0x8, addend: 0x0, symName: __RNvXs6_NtCsiTraAjBDcu4_5alloc5boxedINtB5_3BoxINtNtCs807mVM355fU_3syn5drops6NoDropDINtNtBM_10punctuated9IterTraitNtNtBM_4attr10NestedMetaEp4ItemRB1M_EL_EENtNtNtCsaNl6UpbT7bw_4core3ops4drop4Drop4dropCs9kQvaEtA2Tf_20pin_project_internal, symObjAddr: 0x3078, symBinAddr: 0x6147C, symSize: 0x120 }
  - { offset: 0xA9A3B, size: 0x8, addend: 0x0, symName: __RNvXs6_NtCsiTraAjBDcu4_5alloc5boxedINtB5_3BoxINtNtCs807mVM355fU_3syn5drops6NoDropDINtNtBM_10punctuated9IterTraitNtNtBM_4data5FieldEp4ItemRB1M_EL_EENtNtNtCsaNl6UpbT7bw_4core3ops4drop4Drop4dropCs9kQvaEtA2Tf_20pin_project_internal, symObjAddr: 0x3198, symBinAddr: 0x6159C, symSize: 0x120 }
  - { offset: 0xA9B72, size: 0x8, addend: 0x0, symName: __RNvXs6_NtCsiTraAjBDcu4_5alloc5boxedINtB5_3BoxINtNtCs807mVM355fU_3syn5drops6NoDropDINtNtBM_10punctuated9IterTraitNtNtBM_4data7VariantEp4ItemRB1M_EL_EENtNtNtCsaNl6UpbT7bw_4core3ops4drop4Drop4dropCs9kQvaEtA2Tf_20pin_project_internal, symObjAddr: 0x32B8, symBinAddr: 0x616BC, symSize: 0x120 }
  - { offset: 0xA9CA9, size: 0x8, addend: 0x0, symName: __RNvXs6_NtCsiTraAjBDcu4_5alloc5boxedINtB5_3BoxINtNtCs807mVM355fU_3syn5drops6NoDropDINtNtBM_10punctuated9IterTraitNtNtBM_4path15GenericArgumentEp4ItemRB1M_EL_EENtNtNtCsaNl6UpbT7bw_4core3ops4drop4Drop4dropCs9kQvaEtA2Tf_20pin_project_internal, symObjAddr: 0x33D8, symBinAddr: 0x617DC, symSize: 0x120 }
  - { offset: 0xA9DE0, size: 0x8, addend: 0x0, symName: __RNvXs6_NtCsiTraAjBDcu4_5alloc5boxedINtB5_3BoxINtNtCs807mVM355fU_3syn5drops6NoDropDINtNtBM_10punctuated9IterTraitNtNtBM_8generics12GenericParamEp4ItemRB1M_EL_EENtNtNtCsaNl6UpbT7bw_4core3ops4drop4Drop4dropCs9kQvaEtA2Tf_20pin_project_internal, symObjAddr: 0x34F8, symBinAddr: 0x618FC, symSize: 0x120 }
  - { offset: 0xA9F17, size: 0x8, addend: 0x0, symName: __RNvXs6_NtCsiTraAjBDcu4_5alloc5boxedINtB5_3BoxNtNtNtCsht3nMU9UgFu_3std2io5error6CustomENtNtNtCsaNl6UpbT7bw_4core3ops4drop4Drop4dropCs9kQvaEtA2Tf_20pin_project_internal, symObjAddr: 0x3618, symBinAddr: 0x61A1C, symSize: 0xB8 }
  - { offset: 0xAA054, size: 0x8, addend: 0x0, symName: __RNvXsC_NtCsiTraAjBDcu4_5alloc5boxedINtB5_3BoxNtNtCs807mVM355fU_3syn2ty4TypeEINtNtCsaNl6UpbT7bw_4core7convert5AsMutBH_E6as_mutCs9kQvaEtA2Tf_20pin_project_internal, symObjAddr: 0x3764, symBinAddr: 0x61B68, symSize: 0x18 }
  - { offset: 0xAA094, size: 0x8, addend: 0x0, symName: __RNvXsC_NtCsiTraAjBDcu4_5alloc5boxedINtB5_3BoxNtNtCs807mVM355fU_3syn2ty9BareFnArgEINtNtCsaNl6UpbT7bw_4core7convert5AsMutBH_E6as_mutCs9kQvaEtA2Tf_20pin_project_internal, symObjAddr: 0x377C, symBinAddr: 0x61B80, symSize: 0x18 }
  - { offset: 0xAA0D4, size: 0x8, addend: 0x0, symName: __RNvXsC_NtCsiTraAjBDcu4_5alloc5boxedINtB5_3BoxNtNtCs807mVM355fU_3syn3pat3PatEINtNtCsaNl6UpbT7bw_4core7convert5AsMutBH_E6as_mutCs9kQvaEtA2Tf_20pin_project_internal, symObjAddr: 0x3794, symBinAddr: 0x61B98, symSize: 0x18 }
  - { offset: 0xAA114, size: 0x8, addend: 0x0, symName: __RNvXsC_NtCsiTraAjBDcu4_5alloc5boxedINtB5_3BoxNtNtCs807mVM355fU_3syn3pat8FieldPatEINtNtCsaNl6UpbT7bw_4core7convert5AsMutBH_E6as_mutCs9kQvaEtA2Tf_20pin_project_internal, symObjAddr: 0x37AC, symBinAddr: 0x61BB0, symSize: 0x18 }
  - { offset: 0xAA154, size: 0x8, addend: 0x0, symName: __RNvXsC_NtCsiTraAjBDcu4_5alloc5boxedINtB5_3BoxNtNtCs807mVM355fU_3syn4data7VariantEINtNtCsaNl6UpbT7bw_4core7convert5AsMutBH_E6as_mutCs9kQvaEtA2Tf_20pin_project_internal, symObjAddr: 0x37C4, symBinAddr: 0x61BC8, symSize: 0x18 }
  - { offset: 0xAA194, size: 0x8, addend: 0x0, symName: __RNvXsC_NtCsiTraAjBDcu4_5alloc5boxedINtB5_3BoxNtNtCs807mVM355fU_3syn4expr10FieldValueEINtNtCsaNl6UpbT7bw_4core7convert5AsMutBH_E6as_mutCs9kQvaEtA2Tf_20pin_project_internal, symObjAddr: 0x37DC, symBinAddr: 0x61BE0, symSize: 0x18 }
  - { offset: 0xAA1D4, size: 0x8, addend: 0x0, symName: __RNvXsC_NtCsiTraAjBDcu4_5alloc5boxedINtB5_3BoxNtNtCs807mVM355fU_3syn4expr21GenericMethodArgumentEINtNtCsaNl6UpbT7bw_4core7convert5AsMutBH_E6as_mutCs9kQvaEtA2Tf_20pin_project_internal, symObjAddr: 0x37F4, symBinAddr: 0x61BF8, symSize: 0x18 }
  - { offset: 0xAA214, size: 0x8, addend: 0x0, symName: __RNvXsC_NtCsiTraAjBDcu4_5alloc5boxedINtB5_3BoxNtNtCs807mVM355fU_3syn4expr4ExprEINtNtCsaNl6UpbT7bw_4core7convert5AsMutBH_E6as_mutCs9kQvaEtA2Tf_20pin_project_internal, symObjAddr: 0x380C, symBinAddr: 0x61C10, symSize: 0x18 }
  - { offset: 0xAA254, size: 0x8, addend: 0x0, symName: __RNvXsC_NtCsiTraAjBDcu4_5alloc5boxedINtB5_3BoxNtNtCs807mVM355fU_3syn4item7UseTreeEINtNtCsaNl6UpbT7bw_4core7convert5AsMutBH_E6as_mutCs9kQvaEtA2Tf_20pin_project_internal, symObjAddr: 0x3824, symBinAddr: 0x61C28, symSize: 0x18 }
  - { offset: 0xAA294, size: 0x8, addend: 0x0, symName: __RNvXsC_NtCsiTraAjBDcu4_5alloc5boxedINtB5_3BoxNtNtCs807mVM355fU_3syn4path15GenericArgumentEINtNtCsaNl6UpbT7bw_4core7convert5AsMutBH_E6as_mutCs9kQvaEtA2Tf_20pin_project_internal, symObjAddr: 0x383C, symBinAddr: 0x61C40, symSize: 0x18 }
  - { offset: 0xAA2D4, size: 0x8, addend: 0x0, symName: __RNvXsC_NtCsiTraAjBDcu4_5alloc5boxedINtB5_3BoxNtNtCs807mVM355fU_3syn8generics11LifetimeDefEINtNtCsaNl6UpbT7bw_4core7convert5AsMutBH_E6as_mutCs9kQvaEtA2Tf_20pin_project_internal, symObjAddr: 0x3854, symBinAddr: 0x61C58, symSize: 0x18 }
  - { offset: 0xAA314, size: 0x8, addend: 0x0, symName: __RNvXsC_NtCsiTraAjBDcu4_5alloc5boxedINtB5_3BoxNtNtCs807mVM355fU_3syn8generics14TypeParamBoundEINtNtCsaNl6UpbT7bw_4core7convert5AsMutBH_E6as_mutCs9kQvaEtA2Tf_20pin_project_internal, symObjAddr: 0x386C, symBinAddr: 0x61C70, symSize: 0x18 }
  - { offset: 0xAA354, size: 0x8, addend: 0x0, symName: __RNvXsC_NtCsiTraAjBDcu4_5alloc5boxedINtB5_3BoxNtNtCs807mVM355fU_3syn8generics14WherePredicateEINtNtCsaNl6UpbT7bw_4core7convert5AsMutBH_E6as_mutCs9kQvaEtA2Tf_20pin_project_internal, symObjAddr: 0x3884, symBinAddr: 0x61C88, symSize: 0x18 }
  - { offset: 0xAA394, size: 0x8, addend: 0x0, symName: __RNvXsC_NtCsiTraAjBDcu4_5alloc5boxedINtB5_3BoxNtNtCs807mVM355fU_3syn8lifetime8LifetimeEINtNtCsaNl6UpbT7bw_4core7convert5AsMutBH_E6as_mutCs9kQvaEtA2Tf_20pin_project_internal, symObjAddr: 0x389C, symBinAddr: 0x61CA0, symSize: 0x18 }
  - { offset: 0xAA97B, size: 0x8, addend: 0x0, symName: __RNvNvMs1_NtNtCsaNl6UpbT7bw_4core3ptr8non_nullINtB7_7NonNullpE13new_unchecked18precondition_checkCs9kQvaEtA2Tf_20pin_project_internal, symObjAddr: 0x29AC, symBinAddr: 0x60DB0, symSize: 0xA4 }
  - { offset: 0xAB008, size: 0x8, addend: 0x0, symName: __RINvNtCsaNl6UpbT7bw_4core3ptr13drop_in_placeINtNtB4_4cell10UnsafeCellNtNtNtCs7yrEGia95Wz_10proc_macro6bridge6client6BridgeEECs9kQvaEtA2Tf_20pin_project_internal, symObjAddr: 0x438, symBinAddr: 0x5E840, symSize: 0x24 }
  - { offset: 0xAB037, size: 0x8, addend: 0x0, symName: __RINvNtCsaNl6UpbT7bw_4core3ptr13drop_in_placeINtNtB4_4cell7RefCellNtNtNtCs7yrEGia95Wz_10proc_macro6bridge6client6BridgeEECs9kQvaEtA2Tf_20pin_project_internal, symObjAddr: 0x45C, symBinAddr: 0x5E864, symSize: 0x24 }
  - { offset: 0xAB066, size: 0x8, addend: 0x0, symName: __RINvNtCsaNl6UpbT7bw_4core3ptr13drop_in_placeINtNtB4_6option6OptionNtCshnvkK9b4wzu_11proc_macro25GroupEECs9kQvaEtA2Tf_20pin_project_internal, symObjAddr: 0x480, symBinAddr: 0x5E888, symSize: 0x44 }
  - { offset: 0xAB095, size: 0x8, addend: 0x0, symName: __RINvNtCsaNl6UpbT7bw_4core3ptr13drop_in_placeINtNtB4_6option6OptionNtNtCs807mVM355fU_3syn4attr4MetaEECs9kQvaEtA2Tf_20pin_project_internal, symObjAddr: 0x4C4, symBinAddr: 0x5E8CC, symSize: 0x48 }
  - { offset: 0xAB0C4, size: 0x8, addend: 0x0, symName: __RINvNtCsaNl6UpbT7bw_4core3ptr13drop_in_placeINtNtB4_6option6OptionTNtCshnvkK9b4wzu_11proc_macro25IdentjEEECs9kQvaEtA2Tf_20pin_project_internal, symObjAddr: 0x50C, symBinAddr: 0x5E914, symSize: 0x44 }
  - { offset: 0xAB0F3, size: 0x8, addend: 0x0, symName: __RINvNtCsaNl6UpbT7bw_4core3ptr13drop_in_placeINtNtB4_6result6ResultNtCshnvkK9b4wzu_11proc_macro211TokenStreamNtNtCs807mVM355fU_3syn5error5ErrorEECs9kQvaEtA2Tf_20pin_project_internal, symObjAddr: 0x550, symBinAddr: 0x5E958, symSize: 0x5C }
  - { offset: 0xAB122, size: 0x8, addend: 0x0, symName: __RINvNtCsaNl6UpbT7bw_4core3ptr13drop_in_placeINtNtB4_6result6ResultNtCshnvkK9b4wzu_11proc_macro25IdentNtNtCs807mVM355fU_3syn5error5ErrorEECs9kQvaEtA2Tf_20pin_project_internal, symObjAddr: 0x5AC, symBinAddr: 0x5E9B4, symSize: 0x50 }
  - { offset: 0xAB151, size: 0x8, addend: 0x0, symName: __RINvNtCsaNl6UpbT7bw_4core3ptr13drop_in_placeINtNtB4_6result6ResultNtNtCs807mVM355fU_3syn4attr4MetaNtNtB16_5error5ErrorEECs9kQvaEtA2Tf_20pin_project_internal, symObjAddr: 0x5FC, symBinAddr: 0x5EA04, symSize: 0x5C }
  - { offset: 0xAB180, size: 0x8, addend: 0x0, symName: __RINvNtCsaNl6UpbT7bw_4core3ptr13drop_in_placeINtNtB4_6result6ResultNtNtCs807mVM355fU_3syn5parse11ParseBufferNtNtB16_5error5ErrorEECs9kQvaEtA2Tf_20pin_project_internal, symObjAddr: 0x658, symBinAddr: 0x5EA60, symSize: 0x50 }
  - { offset: 0xAB1AF, size: 0x8, addend: 0x0, symName: __RINvNtCsaNl6UpbT7bw_4core3ptr13drop_in_placeINtNtB4_6result6ResultuNtNtCs807mVM355fU_3syn5error5ErrorEECs9kQvaEtA2Tf_20pin_project_internal, symObjAddr: 0x6A8, symBinAddr: 0x5EAB0, symSize: 0x48 }
  - { offset: 0xAB1DE, size: 0x8, addend: 0x0, symName: __RINvNtCsaNl6UpbT7bw_4core3ptr13drop_in_placeINtNtCs4EAaWzSXu1l_5quote9___private9RepInterpNtCshnvkK9b4wzu_11proc_macro211TokenStreamEECs9kQvaEtA2Tf_20pin_project_internal, symObjAddr: 0x6F0, symBinAddr: 0x5EAF8, symSize: 0x24 }
  - { offset: 0xAB20D, size: 0x8, addend: 0x0, symName: __RINvNtCsaNl6UpbT7bw_4core3ptr13drop_in_placeINtNtCs807mVM355fU_3syn10punctuated4IterNtNtBL_3pat3PatEECs9kQvaEtA2Tf_20pin_project_internal, symObjAddr: 0x714, symBinAddr: 0x5EB1C, symSize: 0x24 }
  - { offset: 0xAB23C, size: 0x8, addend: 0x0, symName: __RINvNtCsaNl6UpbT7bw_4core3ptr13drop_in_placeINtNtCs807mVM355fU_3syn10punctuated4IterNtNtBL_4attr10NestedMetaEECs9kQvaEtA2Tf_20pin_project_internal, symObjAddr: 0x738, symBinAddr: 0x5EB40, symSize: 0x24 }
  - { offset: 0xAB26B, size: 0x8, addend: 0x0, symName: __RINvNtCsaNl6UpbT7bw_4core3ptr13drop_in_placeINtNtCs807mVM355fU_3syn10punctuated4IterNtNtBL_4data5FieldEECs9kQvaEtA2Tf_20pin_project_internal, symObjAddr: 0x75C, symBinAddr: 0x5EB64, symSize: 0x24 }
  - { offset: 0xAB29A, size: 0x8, addend: 0x0, symName: __RINvNtCsaNl6UpbT7bw_4core3ptr13drop_in_placeINtNtCs807mVM355fU_3syn10punctuated4IterNtNtBL_4data7VariantEECs9kQvaEtA2Tf_20pin_project_internal, symObjAddr: 0x780, symBinAddr: 0x5EB88, symSize: 0x24 }
  - { offset: 0xAB2C9, size: 0x8, addend: 0x0, symName: __RINvNtCsaNl6UpbT7bw_4core3ptr13drop_in_placeINtNtCs807mVM355fU_3syn10punctuated4IterNtNtBL_4path15GenericArgumentEECs9kQvaEtA2Tf_20pin_project_internal, symObjAddr: 0x7A4, symBinAddr: 0x5EBAC, symSize: 0x24 }
  - { offset: 0xAB2F8, size: 0x8, addend: 0x0, symName: __RINvNtCsaNl6UpbT7bw_4core3ptr13drop_in_placeINtNtCs807mVM355fU_3syn10punctuated4IterNtNtBL_8generics12GenericParamEECs9kQvaEtA2Tf_20pin_project_internal, symObjAddr: 0x7C8, symBinAddr: 0x5EBD0, symSize: 0x24 }
  - { offset: 0xAB327, size: 0x8, addend: 0x0, symName: __RINvNtCsaNl6UpbT7bw_4core3ptr13drop_in_placeINtNtCs807mVM355fU_3syn10punctuated7IterMutNtNtBL_3pat3PatEECs9kQvaEtA2Tf_20pin_project_internal, symObjAddr: 0x7EC, symBinAddr: 0x5EBF4, symSize: 0x24 }
  - { offset: 0xAB356, size: 0x8, addend: 0x0, symName: __RINvNtCsaNl6UpbT7bw_4core3ptr13drop_in_placeINtNtCsiTraAjBDcu4_5alloc3vec3VecNtCshnvkK9b4wzu_11proc_macro211TokenStreamEECs9kQvaEtA2Tf_20pin_project_internal, symObjAddr: 0x810, symBinAddr: 0x5EC18, symSize: 0x5C }
  - { offset: 0xAB385, size: 0x8, addend: 0x0, symName: __RINvNtCsaNl6UpbT7bw_4core3ptr13drop_in_placeINtNtCsiTraAjBDcu4_5alloc3vec3VecNtCshnvkK9b4wzu_11proc_macro25IdentEECs9kQvaEtA2Tf_20pin_project_internal, symObjAddr: 0x86C, symBinAddr: 0x5EC74, symSize: 0x5C }
  - { offset: 0xAB3B4, size: 0x8, addend: 0x0, symName: __RINvNtCsaNl6UpbT7bw_4core3ptr13drop_in_placeINtNtCsiTraAjBDcu4_5alloc3vec3VecNtNtBL_6string6StringEECs9kQvaEtA2Tf_20pin_project_internal, symObjAddr: 0x8C8, symBinAddr: 0x5ECD0, symSize: 0x5C }
  - { offset: 0xAB3E3, size: 0x8, addend: 0x0, symName: __RINvNtCsaNl6UpbT7bw_4core3ptr13drop_in_placeINtNtCsiTraAjBDcu4_5alloc3vec3VecNtNtCs807mVM355fU_3syn2ty4TypeEECs9kQvaEtA2Tf_20pin_project_internal, symObjAddr: 0x924, symBinAddr: 0x5ED2C, symSize: 0x5C }
  - { offset: 0xAB412, size: 0x8, addend: 0x0, symName: __RINvNtCsaNl6UpbT7bw_4core3ptr13drop_in_placeINtNtCsiTraAjBDcu4_5alloc5boxed3BoxDNtNtB4_5error5ErrorNtNtB4_6marker4SyncNtB1B_4SendEL_EECs9kQvaEtA2Tf_20pin_project_internal, symObjAddr: 0x980, symBinAddr: 0x5ED88, symSize: 0x80 }
  - { offset: 0xAB441, size: 0x8, addend: 0x0, symName: __RINvNtCsaNl6UpbT7bw_4core3ptr13drop_in_placeINtNtCsiTraAjBDcu4_5alloc5boxed3BoxINtNtCs807mVM355fU_3syn5drops6NoDropDINtNtB1k_10punctuated12IterMutTraitNtNtB1k_3pat3PatEp4ItemQB2p_EL_EEECs9kQvaEtA2Tf_20pin_project_internal, symObjAddr: 0xA00, symBinAddr: 0x5EE08, symSize: 0x2C }
  - { offset: 0xAB470, size: 0x8, addend: 0x0, symName: __RINvNtCsaNl6UpbT7bw_4core3ptr13drop_in_placeINtNtCsiTraAjBDcu4_5alloc5boxed3BoxINtNtCs807mVM355fU_3syn5drops6NoDropDINtNtB1k_10punctuated9IterTraitNtNtB1k_3pat3PatEp4ItemRB2l_EL_EEECs9kQvaEtA2Tf_20pin_project_internal, symObjAddr: 0xA2C, symBinAddr: 0x5EE34, symSize: 0x2C }
  - { offset: 0xAB49F, size: 0x8, addend: 0x0, symName: __RINvNtCsaNl6UpbT7bw_4core3ptr13drop_in_placeINtNtCsiTraAjBDcu4_5alloc5boxed3BoxINtNtCs807mVM355fU_3syn5drops6NoDropDINtNtB1k_10punctuated9IterTraitNtNtB1k_4attr10NestedMetaEp4ItemRB2l_EL_EEECs9kQvaEtA2Tf_20pin_project_internal, symObjAddr: 0xA58, symBinAddr: 0x5EE60, symSize: 0x2C }
  - { offset: 0xAB4CE, size: 0x8, addend: 0x0, symName: __RINvNtCsaNl6UpbT7bw_4core3ptr13drop_in_placeINtNtCsiTraAjBDcu4_5alloc5boxed3BoxINtNtCs807mVM355fU_3syn5drops6NoDropDINtNtB1k_10punctuated9IterTraitNtNtB1k_4data5FieldEp4ItemRB2l_EL_EEECs9kQvaEtA2Tf_20pin_project_internal, symObjAddr: 0xA84, symBinAddr: 0x5EE8C, symSize: 0x2C }
  - { offset: 0xAB4FD, size: 0x8, addend: 0x0, symName: __RINvNtCsaNl6UpbT7bw_4core3ptr13drop_in_placeINtNtCsiTraAjBDcu4_5alloc5boxed3BoxINtNtCs807mVM355fU_3syn5drops6NoDropDINtNtB1k_10punctuated9IterTraitNtNtB1k_4data7VariantEp4ItemRB2l_EL_EEECs9kQvaEtA2Tf_20pin_project_internal, symObjAddr: 0xAB0, symBinAddr: 0x5EEB8, symSize: 0x2C }
  - { offset: 0xAB52C, size: 0x8, addend: 0x0, symName: __RINvNtCsaNl6UpbT7bw_4core3ptr13drop_in_placeINtNtCsiTraAjBDcu4_5alloc5boxed3BoxINtNtCs807mVM355fU_3syn5drops6NoDropDINtNtB1k_10punctuated9IterTraitNtNtB1k_4path15GenericArgumentEp4ItemRB2l_EL_EEECs9kQvaEtA2Tf_20pin_project_internal, symObjAddr: 0xADC, symBinAddr: 0x5EEE4, symSize: 0x2C }
  - { offset: 0xAB55B, size: 0x8, addend: 0x0, symName: __RINvNtCsaNl6UpbT7bw_4core3ptr13drop_in_placeINtNtCsiTraAjBDcu4_5alloc5boxed3BoxINtNtCs807mVM355fU_3syn5drops6NoDropDINtNtB1k_10punctuated9IterTraitNtNtB1k_8generics12GenericParamEp4ItemRB2l_EL_EEECs9kQvaEtA2Tf_20pin_project_internal, symObjAddr: 0xB08, symBinAddr: 0x5EF10, symSize: 0x2C }
  - { offset: 0xAB58A, size: 0x8, addend: 0x0, symName: __RINvNtCsaNl6UpbT7bw_4core3ptr13drop_in_placeINtNtCsiTraAjBDcu4_5alloc5boxed3BoxNtNtNtCsht3nMU9UgFu_3std2io5error6CustomEECs9kQvaEtA2Tf_20pin_project_internal, symObjAddr: 0xB34, symBinAddr: 0x5EF3C, symSize: 0x60 }
  - { offset: 0xAB5B9, size: 0x8, addend: 0x0, symName: __RINvNtCsaNl6UpbT7bw_4core3ptr13drop_in_placeINtNtCsiTraAjBDcu4_5alloc7raw_vec6RawVecNtCshnvkK9b4wzu_11proc_macro211TokenStreamEECs9kQvaEtA2Tf_20pin_project_internal, symObjAddr: 0xB94, symBinAddr: 0x5EF9C, symSize: 0x24 }
  - { offset: 0xAB5E8, size: 0x8, addend: 0x0, symName: __RINvNtCsaNl6UpbT7bw_4core3ptr13drop_in_placeINtNtCsiTraAjBDcu4_5alloc7raw_vec6RawVecNtCshnvkK9b4wzu_11proc_macro25IdentEECs9kQvaEtA2Tf_20pin_project_internal, symObjAddr: 0xBB8, symBinAddr: 0x5EFC0, symSize: 0x24 }
  - { offset: 0xAB617, size: 0x8, addend: 0x0, symName: __RINvNtCsaNl6UpbT7bw_4core3ptr13drop_in_placeINtNtCsiTraAjBDcu4_5alloc7raw_vec6RawVecNtNtBL_6string6StringEECs9kQvaEtA2Tf_20pin_project_internal, symObjAddr: 0xBDC, symBinAddr: 0x5EFE4, symSize: 0x24 }
  - { offset: 0xAB646, size: 0x8, addend: 0x0, symName: __RINvNtCsaNl6UpbT7bw_4core3ptr13drop_in_placeINtNtCsiTraAjBDcu4_5alloc7raw_vec6RawVecNtNtCs807mVM355fU_3syn2ty4TypeEECs9kQvaEtA2Tf_20pin_project_internal, symObjAddr: 0xC00, symBinAddr: 0x5F008, symSize: 0x24 }
  - { offset: 0xAB675, size: 0x8, addend: 0x0, symName: __RINvNtCsaNl6UpbT7bw_4core3ptr13drop_in_placeINtNtNtCsht3nMU9UgFu_3std2io5error9ErrorDataINtNtCsiTraAjBDcu4_5alloc5boxed3BoxNtBJ_6CustomEEECs9kQvaEtA2Tf_20pin_project_internal, symObjAddr: 0xC24, symBinAddr: 0x5F02C, symSize: 0x48 }
  - { offset: 0xAB6A4, size: 0x8, addend: 0x0, symName: __RINvNtCsaNl6UpbT7bw_4core3ptr13drop_in_placeINtNtNtNtB4_4iter8adapters3map3MapIBH_NtNtCshnvkK9b4wzu_11proc_macro212token_stream8IntoIterNCNvNtCs9kQvaEtA2Tf_20pin_project_internal5utils13respan_tokens0ENvNtB1m_3imp19into_compiler_tokenEEB2g_, symObjAddr: 0xC6C, symBinAddr: 0x5F074, symSize: 0x24 }
  - { offset: 0xAB6D3, size: 0x8, addend: 0x0, symName: __RINvNtCsaNl6UpbT7bw_4core3ptr13drop_in_placeINtNtNtNtB4_4iter8adapters3map3MapINtNtBL_9enumerate9EnumerateNtNtCs807mVM355fU_3syn8generics9LifetimesENCNvMs1_NtNtCs9kQvaEtA2Tf_20pin_project_internal11pin_project6deriveNtB2u_7Context15make_unpin_impls_0EEB2y_, symObjAddr: 0xC90, symBinAddr: 0x5F098, symSize: 0x24 }
  - { offset: 0xAB702, size: 0x8, addend: 0x0, symName: __RINvNtCsaNl6UpbT7bw_4core3ptr13drop_in_placeINtNtNtNtB4_4iter8adapters3map3MapNtNtCs807mVM355fU_3syn8generics10TypeParamsNCNvMs1_NtNtCs9kQvaEtA2Tf_20pin_project_internal11pin_project6deriveNtB23_7Context15make_unpin_impls0_0EEB27_, symObjAddr: 0xCB4, symBinAddr: 0x5F0BC, symSize: 0x24 }
  - { offset: 0xAB731, size: 0x8, addend: 0x0, symName: __RINvNtCsaNl6UpbT7bw_4core3ptr13drop_in_placeINtNtNtNtB4_4iter8adapters3map3MapNtNtCshnvkK9b4wzu_11proc_macro212token_stream8IntoIterNCNvNtCs9kQvaEtA2Tf_20pin_project_internal5utils13respan_tokens0EEB2c_, symObjAddr: 0xCD8, symBinAddr: 0x5F0E0, symSize: 0x24 }
  - { offset: 0xAB760, size: 0x8, addend: 0x0, symName: __RINvNtCsaNl6UpbT7bw_4core3ptr13drop_in_placeINtNtNtNtB4_4iter8adapters4skip4SkipINtNtCs807mVM355fU_3syn10punctuated9IntoPairsNtNtB1l_4path11PathSegmentNtNtB1l_5token6Colon2EEECs9kQvaEtA2Tf_20pin_project_internal, symObjAddr: 0xCFC, symBinAddr: 0x5F104, symSize: 0x24 }
  - { offset: 0xAB78F, size: 0x8, addend: 0x0, symName: __RINvNtCsaNl6UpbT7bw_4core3ptr13drop_in_placeINtNtNtNtB4_4iter8adapters9enumerate9EnumerateINtNtCs807mVM355fU_3syn10punctuated4IterNtNtB1v_4data5FieldEEECs9kQvaEtA2Tf_20pin_project_internal, symObjAddr: 0xD20, symBinAddr: 0x5F128, symSize: 0x24 }
  - { offset: 0xAB7BE, size: 0x8, addend: 0x0, symName: __RINvNtCsaNl6UpbT7bw_4core3ptr13drop_in_placeINtNtNtNtB4_4iter8adapters9enumerate9EnumerateNtNtCs807mVM355fU_3syn8generics9LifetimesEECs9kQvaEtA2Tf_20pin_project_internal, symObjAddr: 0xD44, symBinAddr: 0x5F14C, symSize: 0x24 }
  - { offset: 0xAB7ED, size: 0x8, addend: 0x0, symName: __RINvNtCsaNl6UpbT7bw_4core3ptr13drop_in_placeNCNCINvNtNtCs7yrEGia95Wz_10proc_macro6bridge6client10run_clientNtBN_11TokenStreamINtNtB4_6option6OptionB1H_ENCNCINvMs6_BN_INtBN_6ClientNtBR_11TokenStreamB2R_E7expand1NvCs9kQvaEtA2Tf_20pin_project_internal29___pin_project_internal_deriveE00E00EB3o_, symObjAddr: 0xD68, symBinAddr: 0x5F170, symSize: 0x24 }
  - { offset: 0xAB81C, size: 0x8, addend: 0x0, symName: __RINvNtCsaNl6UpbT7bw_4core3ptr13drop_in_placeNCNCINvNtNtCs7yrEGia95Wz_10proc_macro6bridge6client10run_clientTNtBN_11TokenStreamB1I_EINtNtB4_6option6OptionB1I_ENCNCINvMs7_BN_INtBN_6ClientTNtBR_11TokenStreamB2Y_EB2Y_E7expand2NvCs9kQvaEtA2Tf_20pin_project_internal11pin_projectE00E00EB3A_, symObjAddr: 0xD8C, symBinAddr: 0x5F194, symSize: 0x24 }
  - { offset: 0xAB84B, size: 0x8, addend: 0x0, symName: __RINvNtCsaNl6UpbT7bw_4core3ptr13drop_in_placeNCNCINvNtNtCs7yrEGia95Wz_10proc_macro6bridge6client10run_clientTNtBN_11TokenStreamB1I_EINtNtB4_6option6OptionB1I_ENCNCINvMs7_BN_INtBN_6ClientTNtBR_11TokenStreamB2Y_EB2Y_E7expand2NvCs9kQvaEtA2Tf_20pin_project_internal11pinned_dropE00E00EB3A_, symObjAddr: 0xDB0, symBinAddr: 0x5F1B8, symSize: 0x24 }
  - { offset: 0xAB87A, size: 0x8, addend: 0x0, symName: __RINvNtCsaNl6UpbT7bw_4core3ptr13drop_in_placeNCNCINvNtNtCs7yrEGia95Wz_10proc_macro6bridge6client10run_clientTNtBN_11TokenStreamB1I_EINtNtB4_6option6OptionB1I_ENCNCINvMs7_BN_INtBN_6ClientTNtBR_11TokenStreamB2Y_EB2Y_E7expand2NvCs9kQvaEtA2Tf_20pin_project_internal11project_refE00E00EB3A_, symObjAddr: 0xDD4, symBinAddr: 0x5F1DC, symSize: 0x24 }
  - { offset: 0xAB8A9, size: 0x8, addend: 0x0, symName: __RINvNtCsaNl6UpbT7bw_4core3ptr13drop_in_placeNCNCINvNtNtCs7yrEGia95Wz_10proc_macro6bridge6client10run_clientTNtBN_11TokenStreamB1I_EINtNtB4_6option6OptionB1I_ENCNCINvMs7_BN_INtBN_6ClientTNtBR_11TokenStreamB2Y_EB2Y_E7expand2NvCs9kQvaEtA2Tf_20pin_project_internal15project_replaceE00E00EB3A_, symObjAddr: 0xDF8, symBinAddr: 0x5F200, symSize: 0x24 }
  - { offset: 0xAB8D8, size: 0x8, addend: 0x0, symName: __RINvNtCsaNl6UpbT7bw_4core3ptr13drop_in_placeNCNCINvNtNtCs7yrEGia95Wz_10proc_macro6bridge6client10run_clientTNtBN_11TokenStreamB1I_EINtNtB4_6option6OptionB1I_ENCNCINvMs7_BN_INtBN_6ClientTNtBR_11TokenStreamB2Y_EB2Y_E7expand2NvCs9kQvaEtA2Tf_20pin_project_internal7projectE00E00EB3A_, symObjAddr: 0xE1C, symBinAddr: 0x5F224, symSize: 0x24 }
  - { offset: 0xAB907, size: 0x8, addend: 0x0, symName: __RINvNtCsaNl6UpbT7bw_4core3ptr13drop_in_placeNCNvNtCs9kQvaEtA2Tf_20pin_project_internal7project9attribute0EBM_, symObjAddr: 0xE40, symBinAddr: 0x5F248, symSize: 0x24 }
  - { offset: 0xAB936, size: 0x8, addend: 0x0, symName: __RINvNtCsaNl6UpbT7bw_4core3ptr13drop_in_placeNtNtCs807mVM355fU_3syn6derive10DataStructECs9kQvaEtA2Tf_20pin_project_internal, symObjAddr: 0xE64, symBinAddr: 0x5F26C, symSize: 0x24 }
  - { offset: 0xAB965, size: 0x8, addend: 0x0, symName: __RINvNtCsaNl6UpbT7bw_4core3ptr13drop_in_placeNtNtCs807mVM355fU_3syn6derive11DeriveInputECs9kQvaEtA2Tf_20pin_project_internal, symObjAddr: 0xE88, symBinAddr: 0x5F290, symSize: 0xEC }
  - { offset: 0xAB994, size: 0x8, addend: 0x0, symName: __RINvNtCsaNl6UpbT7bw_4core3ptr13drop_in_placeNtNtCs807mVM355fU_3syn6derive4DataECs9kQvaEtA2Tf_20pin_project_internal, symObjAddr: 0xF74, symBinAddr: 0x5F37C, symSize: 0x80 }
  - { offset: 0xAB9C3, size: 0x8, addend: 0x0, symName: __RINvNtCsaNl6UpbT7bw_4core3ptr13drop_in_placeNtNtCs807mVM355fU_3syn6derive8DataEnumECs9kQvaEtA2Tf_20pin_project_internal, symObjAddr: 0xFF4, symBinAddr: 0x5F3FC, symSize: 0x24 }
  - { offset: 0xAB9F2, size: 0x8, addend: 0x0, symName: __RINvNtCsaNl6UpbT7bw_4core3ptr13drop_in_placeNtNtCs807mVM355fU_3syn6derive9DataUnionECs9kQvaEtA2Tf_20pin_project_internal, symObjAddr: 0x1018, symBinAddr: 0x5F420, symSize: 0x24 }
  - { offset: 0xABA21, size: 0x8, addend: 0x0, symName: __RINvNtCsaNl6UpbT7bw_4core3ptr13drop_in_placeNtNtCs807mVM355fU_3syn8generics10TypeParamsECs9kQvaEtA2Tf_20pin_project_internal, symObjAddr: 0x103C, symBinAddr: 0x5F444, symSize: 0x24 }
  - { offset: 0xABA50, size: 0x8, addend: 0x0, symName: __RINvNtCsaNl6UpbT7bw_4core3ptr13drop_in_placeNtNtCs807mVM355fU_3syn8generics9LifetimesECs9kQvaEtA2Tf_20pin_project_internal, symObjAddr: 0x1060, symBinAddr: 0x5F468, symSize: 0x24 }
  - { offset: 0xABA7F, size: 0x8, addend: 0x0, symName: __RINvNtCsaNl6UpbT7bw_4core3ptr13drop_in_placeNtNtCs9kQvaEtA2Tf_20pin_project_internal7project7ContextEBK_, symObjAddr: 0x1084, symBinAddr: 0x5F48C, symSize: 0x24 }
  - { offset: 0xABAAE, size: 0x8, addend: 0x0, symName: __RINvNtCsaNl6UpbT7bw_4core3ptr13drop_in_placeNtNtNtCs7yrEGia95Wz_10proc_macro6bridge3rpc12PanicMessageECs9kQvaEtA2Tf_20pin_project_internal, symObjAddr: 0x10A8, symBinAddr: 0x5F4B0, symSize: 0x50 }
  - { offset: 0xABADD, size: 0x8, addend: 0x0, symName: __RINvNtCsaNl6UpbT7bw_4core3ptr13drop_in_placeNtNtNtCs7yrEGia95Wz_10proc_macro6bridge6buffer6BufferECs9kQvaEtA2Tf_20pin_project_internal, symObjAddr: 0x10F8, symBinAddr: 0x5F500, symSize: 0x24 }
