---
triple:          'arm64-apple-darwin'
binary-path:     '/Users/tyler/fall25/cse380/final_project/final_project_sqlite/target/debug/deps/libzerofrom_derive-684d9db8108f346a.dylib'
relocations:
  - { offset: 0x1E, size: 0x8, addend: 0x0, symName: __RINvNtNtCsiTraAjBDcu4_5alloc3vec16in_place_collect18from_iter_in_placeINtNtNtNtCsaNl6UpbT7bw_4core4iter8adapters3map3MapINtNtB4_9into_iter8IntoIterNtNtCsc29TF2YcYso_3syn4attr9AttributeENCINvNtNtB2p_3gen4fold8fold_vecB2l_NtNvCsiSITA57RZ13_15zerofrom_derive16replace_lifetime15ReplaceLifetimeNvYB3w_NtB32_4Fold14fold_attributeE0EB2l_EB3A_, symObjAddr: 0x0, symBinAddr: 0xC58, symSize: 0x264 }
  - { offset: 0x7133, size: 0x8, addend: 0x0, symName: __RINvNtNtCsiTraAjBDcu4_5alloc3vec16in_place_collect18from_iter_in_placeINtNtNtNtCsaNl6UpbT7bw_4core4iter8adapters3map3MapINtNtB4_9into_iter8IntoIterNtNtCsc29TF2YcYso_3syn4attr9AttributeENCINvNtNtB2p_3gen4fold8fold_vecB2l_NtNvCsiSITA57RZ13_15zerofrom_derive16replace_lifetime15ReplaceLifetimeNvYB3w_NtB32_4Fold14fold_attributeE0EB2l_EB3A_, symObjAddr: 0x0, symBinAddr: 0xC58, symSize: 0x264 }
  - { offset: 0x75C1, size: 0x8, addend: 0x0, symName: __RINvNtNtCsiTraAjBDcu4_5alloc3vec16in_place_collect18from_iter_in_placeINtNtNtNtCsaNl6UpbT7bw_4core4iter8adapters3map3MapINtNtB4_9into_iter8IntoIterNtNtCsc29TF2YcYso_3syn4attr9AttributeENCINvNtNtB2p_3gen4fold8fold_vecB2l_NtNvCsiSITA57RZ13_15zerofrom_derive25replace_lifetime_and_type20ReplaceLifetimeAndTyNvYB3w_NtB32_4Fold14fold_attributeE0EB2l_EB3A_, symObjAddr: 0x264, symBinAddr: 0xEBC, symSize: 0x264 }
  - { offset: 0x7A4F, size: 0x8, addend: 0x0, symName: __RINvNtNtCsiTraAjBDcu4_5alloc3vec16in_place_collect18from_iter_in_placeINtNtNtNtCsaNl6UpbT7bw_4core4iter8adapters3map3MapINtNtB4_9into_iter8IntoIterNtNtCsc29TF2YcYso_3syn4expr3ArmENCINvNtNtB2p_3gen4fold8fold_vecB2l_NtNvCsiSITA57RZ13_15zerofrom_derive16replace_lifetime15ReplaceLifetimeNvYB3q_NtB2W_4Fold8fold_armE0EB2l_EB3u_, symObjAddr: 0x4C8, symBinAddr: 0x1120, symSize: 0x268 }
  - { offset: 0x7EDD, size: 0x8, addend: 0x0, symName: __RINvNtNtCsiTraAjBDcu4_5alloc3vec16in_place_collect18from_iter_in_placeINtNtNtNtCsaNl6UpbT7bw_4core4iter8adapters3map3MapINtNtB4_9into_iter8IntoIterNtNtCsc29TF2YcYso_3syn4expr3ArmENCINvNtNtB2p_3gen4fold8fold_vecB2l_NtNvCsiSITA57RZ13_15zerofrom_derive25replace_lifetime_and_type20ReplaceLifetimeAndTyNvYB3q_NtB2W_4Fold8fold_armE0EB2l_EB3u_, symObjAddr: 0x730, symBinAddr: 0x1388, symSize: 0x268 }
  - { offset: 0x836B, size: 0x8, addend: 0x0, symName: __RINvNtNtCsiTraAjBDcu4_5alloc3vec16in_place_collect18from_iter_in_placeINtNtNtNtCsaNl6UpbT7bw_4core4iter8adapters3map3MapINtNtB4_9into_iter8IntoIterNtNtCsc29TF2YcYso_3syn4item11ForeignItemENCINvNtNtB2p_3gen4fold8fold_vecB2l_NtNvCsiSITA57RZ13_15zerofrom_derive16replace_lifetime15ReplaceLifetimeNvYB3z_NtB35_4Fold17fold_foreign_itemE0EB2l_EB3D_, symObjAddr: 0x998, symBinAddr: 0x15F0, symSize: 0x268 }
  - { offset: 0x87F9, size: 0x8, addend: 0x0, symName: __RINvNtNtCsiTraAjBDcu4_5alloc3vec16in_place_collect18from_iter_in_placeINtNtNtNtCsaNl6UpbT7bw_4core4iter8adapters3map3MapINtNtB4_9into_iter8IntoIterNtNtCsc29TF2YcYso_3syn4item11ForeignItemENCINvNtNtB2p_3gen4fold8fold_vecB2l_NtNvCsiSITA57RZ13_15zerofrom_derive25replace_lifetime_and_type20ReplaceLifetimeAndTyNvYB3z_NtB35_4Fold17fold_foreign_itemE0EB2l_EB3D_, symObjAddr: 0xC00, symBinAddr: 0x1858, symSize: 0x268 }
  - { offset: 0x8C87, size: 0x8, addend: 0x0, symName: __RINvNtNtCsiTraAjBDcu4_5alloc3vec16in_place_collect18from_iter_in_placeINtNtNtNtCsaNl6UpbT7bw_4core4iter8adapters3map3MapINtNtB4_9into_iter8IntoIterNtNtCsc29TF2YcYso_3syn4item4ItemENCINvNtNtB2p_3gen4fold8fold_vecB2l_NtNvCsiSITA57RZ13_15zerofrom_derive16replace_lifetime15ReplaceLifetimeNvYB3r_NtB2X_4Fold9fold_itemE0EB2l_EB3v_, symObjAddr: 0xE68, symBinAddr: 0x1AC0, symSize: 0x268 }
  - { offset: 0x9115, size: 0x8, addend: 0x0, symName: __RINvNtNtCsiTraAjBDcu4_5alloc3vec16in_place_collect18from_iter_in_placeINtNtNtNtCsaNl6UpbT7bw_4core4iter8adapters3map3MapINtNtB4_9into_iter8IntoIterNtNtCsc29TF2YcYso_3syn4item4ItemENCINvNtNtB2p_3gen4fold8fold_vecB2l_NtNvCsiSITA57RZ13_15zerofrom_derive25replace_lifetime_and_type20ReplaceLifetimeAndTyNvYB3r_NtB2X_4Fold9fold_itemE0EB2l_EB3v_, symObjAddr: 0x10D0, symBinAddr: 0x1D28, symSize: 0x268 }
  - { offset: 0x95A3, size: 0x8, addend: 0x0, symName: __RINvNtNtCsiTraAjBDcu4_5alloc3vec16in_place_collect18from_iter_in_placeINtNtNtNtCsaNl6UpbT7bw_4core4iter8adapters3map3MapINtNtB4_9into_iter8IntoIterNtNtCsc29TF2YcYso_3syn4item8ImplItemENCINvNtNtB2p_3gen4fold8fold_vecB2l_NtNvCsiSITA57RZ13_15zerofrom_derive16replace_lifetime15ReplaceLifetimeNvYB3v_NtB31_4Fold14fold_impl_itemE0EB2l_EB3z_, symObjAddr: 0x1338, symBinAddr: 0x1F90, symSize: 0x268 }
  - { offset: 0x9A31, size: 0x8, addend: 0x0, symName: __RINvNtNtCsiTraAjBDcu4_5alloc3vec16in_place_collect18from_iter_in_placeINtNtNtNtCsaNl6UpbT7bw_4core4iter8adapters3map3MapINtNtB4_9into_iter8IntoIterNtNtCsc29TF2YcYso_3syn4item8ImplItemENCINvNtNtB2p_3gen4fold8fold_vecB2l_NtNvCsiSITA57RZ13_15zerofrom_derive25replace_lifetime_and_type20ReplaceLifetimeAndTyNvYB3v_NtB31_4Fold14fold_impl_itemE0EB2l_EB3z_, symObjAddr: 0x15A0, symBinAddr: 0x21F8, symSize: 0x268 }
  - { offset: 0x9EBF, size: 0x8, addend: 0x0, symName: __RINvNtNtCsiTraAjBDcu4_5alloc3vec16in_place_collect18from_iter_in_placeINtNtNtNtCsaNl6UpbT7bw_4core4iter8adapters3map3MapINtNtB4_9into_iter8IntoIterNtNtCsc29TF2YcYso_3syn4item9TraitItemENCINvNtNtB2p_3gen4fold8fold_vecB2l_NtNvCsiSITA57RZ13_15zerofrom_derive16replace_lifetime15ReplaceLifetimeNvYB3w_NtB32_4Fold15fold_trait_itemE0EB2l_EB3A_, symObjAddr: 0x1808, symBinAddr: 0x2460, symSize: 0x268 }
  - { offset: 0xA34D, size: 0x8, addend: 0x0, symName: __RINvNtNtCsiTraAjBDcu4_5alloc3vec16in_place_collect18from_iter_in_placeINtNtNtNtCsaNl6UpbT7bw_4core4iter8adapters3map3MapINtNtB4_9into_iter8IntoIterNtNtCsc29TF2YcYso_3syn4item9TraitItemENCINvNtNtB2p_3gen4fold8fold_vecB2l_NtNvCsiSITA57RZ13_15zerofrom_derive25replace_lifetime_and_type20ReplaceLifetimeAndTyNvYB3w_NtB32_4Fold15fold_trait_itemE0EB2l_EB3A_, symObjAddr: 0x1A70, symBinAddr: 0x26C8, symSize: 0x268 }
  - { offset: 0xA7DB, size: 0x8, addend: 0x0, symName: __RINvNtNtCsiTraAjBDcu4_5alloc3vec16in_place_collect18from_iter_in_placeINtNtNtNtCsaNl6UpbT7bw_4core4iter8adapters3map3MapINtNtB4_9into_iter8IntoIterNtNtCsc29TF2YcYso_3syn4stmt4StmtENCINvNtNtB2p_3gen4fold8fold_vecB2l_NtNvCsiSITA57RZ13_15zerofrom_derive16replace_lifetime15ReplaceLifetimeNvYB3r_NtB2X_4Fold9fold_stmtE0EB2l_EB3v_, symObjAddr: 0x1CD8, symBinAddr: 0x2930, symSize: 0x268 }
  - { offset: 0xAC69, size: 0x8, addend: 0x0, symName: __RINvNtNtCsiTraAjBDcu4_5alloc3vec16in_place_collect18from_iter_in_placeINtNtNtNtCsaNl6UpbT7bw_4core4iter8adapters3map3MapINtNtB4_9into_iter8IntoIterNtNtCsc29TF2YcYso_3syn4stmt4StmtENCINvNtNtB2p_3gen4fold8fold_vecB2l_NtNvCsiSITA57RZ13_15zerofrom_derive25replace_lifetime_and_type20ReplaceLifetimeAndTyNvYB3r_NtB2X_4Fold9fold_stmtE0EB2l_EB3v_, symObjAddr: 0x1F40, symBinAddr: 0x2B98, symSize: 0x268 }
  - { offset: 0xB0F7, size: 0x8, addend: 0x0, symName: __RINvNtNtCsiTraAjBDcu4_5alloc3vec16in_place_collect18from_iter_in_placeINtNtNtNtCsaNl6UpbT7bw_4core4iter8adapters3map3MapINtNtB4_9into_iter8IntoIterTNtNtCsc29TF2YcYso_3syn2ty4TypeNtNtB2q_5token5CommaEENCINvNtB2q_10punctuated4foldB2m_B2Q_NtNvCsiSITA57RZ13_15zerofrom_derive16replace_lifetime15ReplaceLifetimeNvYB3M_NtNtNtB2q_3gen4fold4Fold9fold_typeE0EB2l_EB3Q_, symObjAddr: 0x21A8, symBinAddr: 0x2E00, symSize: 0x268 }
  - { offset: 0xB585, size: 0x8, addend: 0x0, symName: __RINvNtNtCsiTraAjBDcu4_5alloc3vec16in_place_collect18from_iter_in_placeINtNtNtNtCsaNl6UpbT7bw_4core4iter8adapters3map3MapINtNtB4_9into_iter8IntoIterTNtNtCsc29TF2YcYso_3syn2ty4TypeNtNtB2q_5token5CommaEENCINvNtB2q_10punctuated4foldB2m_B2Q_NtNvCsiSITA57RZ13_15zerofrom_derive25replace_lifetime_and_type20ReplaceLifetimeAndTyNvYB3M_NtNtNtB2q_3gen4fold4Fold9fold_typeE0EB2l_EB3Q_, symObjAddr: 0x2410, symBinAddr: 0x3068, symSize: 0x268 }
  - { offset: 0xBA13, size: 0x8, addend: 0x0, symName: __RINvNtNtCsiTraAjBDcu4_5alloc3vec16in_place_collect18from_iter_in_placeINtNtNtNtCsaNl6UpbT7bw_4core4iter8adapters3map3MapINtNtB4_9into_iter8IntoIterTNtNtCsc29TF2YcYso_3syn2ty9BareFnArgNtNtB2q_5token5CommaEENCINvNtB2q_10punctuated4foldB2m_B2V_NtNvCsiSITA57RZ13_15zerofrom_derive16replace_lifetime15ReplaceLifetimeNvYB3R_NtNtNtB2q_3gen4fold4Fold16fold_bare_fn_argE0EB2l_EB3V_, symObjAddr: 0x2678, symBinAddr: 0x32D0, symSize: 0x268 }
  - { offset: 0xBEA1, size: 0x8, addend: 0x0, symName: __RINvNtNtCsiTraAjBDcu4_5alloc3vec16in_place_collect18from_iter_in_placeINtNtNtNtCsaNl6UpbT7bw_4core4iter8adapters3map3MapINtNtB4_9into_iter8IntoIterTNtNtCsc29TF2YcYso_3syn2ty9BareFnArgNtNtB2q_5token5CommaEENCINvNtB2q_10punctuated4foldB2m_B2V_NtNvCsiSITA57RZ13_15zerofrom_derive25replace_lifetime_and_type20ReplaceLifetimeAndTyNvYB3R_NtNtNtB2q_3gen4fold4Fold16fold_bare_fn_argE0EB2l_EB3V_, symObjAddr: 0x28E0, symBinAddr: 0x3538, symSize: 0x268 }
  - { offset: 0xC32F, size: 0x8, addend: 0x0, symName: __RINvNtNtCsiTraAjBDcu4_5alloc3vec16in_place_collect18from_iter_in_placeINtNtNtNtCsaNl6UpbT7bw_4core4iter8adapters3map3MapINtNtB4_9into_iter8IntoIterTNtNtCsc29TF2YcYso_3syn3pat3PatNtNtB2q_5token2OrEENCINvNtB2q_10punctuated4foldB2m_B2Q_NtNvCsiSITA57RZ13_15zerofrom_derive16replace_lifetime15ReplaceLifetimeNvYB3J_NtNtNtB2q_3gen4fold4Fold8fold_patE0EB2l_EB3N_, symObjAddr: 0x2B48, symBinAddr: 0x37A0, symSize: 0x268 }
  - { offset: 0xC7BD, size: 0x8, addend: 0x0, symName: __RINvNtNtCsiTraAjBDcu4_5alloc3vec16in_place_collect18from_iter_in_placeINtNtNtNtCsaNl6UpbT7bw_4core4iter8adapters3map3MapINtNtB4_9into_iter8IntoIterTNtNtCsc29TF2YcYso_3syn3pat3PatNtNtB2q_5token2OrEENCINvNtB2q_10punctuated4foldB2m_B2Q_NtNvCsiSITA57RZ13_15zerofrom_derive25replace_lifetime_and_type20ReplaceLifetimeAndTyNvYB3J_NtNtNtB2q_3gen4fold4Fold8fold_patE0EB2l_EB3N_, symObjAddr: 0x2DB0, symBinAddr: 0x3A08, symSize: 0x268 }
  - { offset: 0xCC4B, size: 0x8, addend: 0x0, symName: __RINvNtNtCsiTraAjBDcu4_5alloc3vec16in_place_collect18from_iter_in_placeINtNtNtNtCsaNl6UpbT7bw_4core4iter8adapters3map3MapINtNtB4_9into_iter8IntoIterTNtNtCsc29TF2YcYso_3syn3pat3PatNtNtB2q_5token5CommaEENCINvNtB2q_10punctuated4foldB2m_B2Q_NtNvCsiSITA57RZ13_15zerofrom_derive16replace_lifetime15ReplaceLifetimeNvYB3M_NtNtNtB2q_3gen4fold4Fold8fold_patE0EB2l_EB3Q_, symObjAddr: 0x3018, symBinAddr: 0x3C70, symSize: 0x268 }
  - { offset: 0xD0D9, size: 0x8, addend: 0x0, symName: __RINvNtNtCsiTraAjBDcu4_5alloc3vec16in_place_collect18from_iter_in_placeINtNtNtNtCsaNl6UpbT7bw_4core4iter8adapters3map3MapINtNtB4_9into_iter8IntoIterTNtNtCsc29TF2YcYso_3syn3pat3PatNtNtB2q_5token5CommaEENCINvNtB2q_10punctuated4foldB2m_B2Q_NtNvCsiSITA57RZ13_15zerofrom_derive25replace_lifetime_and_type20ReplaceLifetimeAndTyNvYB3M_NtNtNtB2q_3gen4fold4Fold8fold_patE0EB2l_EB3Q_, symObjAddr: 0x3280, symBinAddr: 0x3ED8, symSize: 0x268 }
  - { offset: 0xD567, size: 0x8, addend: 0x0, symName: __RINvNtNtCsiTraAjBDcu4_5alloc3vec16in_place_collect18from_iter_in_placeINtNtNtNtCsaNl6UpbT7bw_4core4iter8adapters3map3MapINtNtB4_9into_iter8IntoIterTNtNtCsc29TF2YcYso_3syn3pat8FieldPatNtNtB2q_5token5CommaEENCINvNtB2q_10punctuated4foldB2m_B2V_NtNvCsiSITA57RZ13_15zerofrom_derive16replace_lifetime15ReplaceLifetimeNvYB3R_NtNtNtB2q_3gen4fold4Fold14fold_field_patE0EB2l_EB3V_, symObjAddr: 0x34E8, symBinAddr: 0x4140, symSize: 0x268 }
  - { offset: 0xD9F5, size: 0x8, addend: 0x0, symName: __RINvNtNtCsiTraAjBDcu4_5alloc3vec16in_place_collect18from_iter_in_placeINtNtNtNtCsaNl6UpbT7bw_4core4iter8adapters3map3MapINtNtB4_9into_iter8IntoIterTNtNtCsc29TF2YcYso_3syn3pat8FieldPatNtNtB2q_5token5CommaEENCINvNtB2q_10punctuated4foldB2m_B2V_NtNvCsiSITA57RZ13_15zerofrom_derive25replace_lifetime_and_type20ReplaceLifetimeAndTyNvYB3R_NtNtNtB2q_3gen4fold4Fold14fold_field_patE0EB2l_EB3V_, symObjAddr: 0x3750, symBinAddr: 0x43A8, symSize: 0x268 }
  - { offset: 0xDE83, size: 0x8, addend: 0x0, symName: __RINvNtNtCsiTraAjBDcu4_5alloc3vec16in_place_collect18from_iter_in_placeINtNtNtNtCsaNl6UpbT7bw_4core4iter8adapters3map3MapINtNtB4_9into_iter8IntoIterTNtNtCsc29TF2YcYso_3syn4data5FieldNtNtB2q_5token5CommaEENCINvNtB2q_10punctuated4foldB2m_B2T_NtNvCsiSITA57RZ13_15zerofrom_derive16replace_lifetime15ReplaceLifetimeNvYB3P_NtNtNtB2q_3gen4fold4Fold10fold_fieldE0EB2l_EB3T_, symObjAddr: 0x39B8, symBinAddr: 0x4610, symSize: 0x268 }
  - { offset: 0xE311, size: 0x8, addend: 0x0, symName: __RINvNtNtCsiTraAjBDcu4_5alloc3vec16in_place_collect18from_iter_in_placeINtNtNtNtCsaNl6UpbT7bw_4core4iter8adapters3map3MapINtNtB4_9into_iter8IntoIterTNtNtCsc29TF2YcYso_3syn4data5FieldNtNtB2q_5token5CommaEENCINvNtB2q_10punctuated4foldB2m_B2T_NtNvCsiSITA57RZ13_15zerofrom_derive25replace_lifetime_and_type20ReplaceLifetimeAndTyNvYB3P_NtNtNtB2q_3gen4fold4Fold10fold_fieldE0EB2l_EB3T_, symObjAddr: 0x3C20, symBinAddr: 0x4878, symSize: 0x268 }
  - { offset: 0xE79F, size: 0x8, addend: 0x0, symName: __RINvNtNtCsiTraAjBDcu4_5alloc3vec16in_place_collect18from_iter_in_placeINtNtNtNtCsaNl6UpbT7bw_4core4iter8adapters3map3MapINtNtB4_9into_iter8IntoIterTNtNtCsc29TF2YcYso_3syn4data7VariantNtNtB2q_5token5CommaEENCINvNtB2q_10punctuated4foldB2m_B2V_NtNvCsiSITA57RZ13_15zerofrom_derive16replace_lifetime15ReplaceLifetimeNvYB3R_NtNtNtB2q_3gen4fold4Fold12fold_variantE0EB2l_EB3V_, symObjAddr: 0x3E88, symBinAddr: 0x4AE0, symSize: 0x268 }
  - { offset: 0xEC2D, size: 0x8, addend: 0x0, symName: __RINvNtNtCsiTraAjBDcu4_5alloc3vec16in_place_collect18from_iter_in_placeINtNtNtNtCsaNl6UpbT7bw_4core4iter8adapters3map3MapINtNtB4_9into_iter8IntoIterTNtNtCsc29TF2YcYso_3syn4data7VariantNtNtB2q_5token5CommaEENCINvNtB2q_10punctuated4foldB2m_B2V_NtNvCsiSITA57RZ13_15zerofrom_derive25replace_lifetime_and_type20ReplaceLifetimeAndTyNvYB3R_NtNtNtB2q_3gen4fold4Fold12fold_variantE0EB2l_EB3V_, symObjAddr: 0x40F0, symBinAddr: 0x4D48, symSize: 0x268 }
  - { offset: 0xF0BB, size: 0x8, addend: 0x0, symName: __RINvNtNtCsiTraAjBDcu4_5alloc3vec16in_place_collect18from_iter_in_placeINtNtNtNtCsaNl6UpbT7bw_4core4iter8adapters3map3MapINtNtB4_9into_iter8IntoIterTNtNtCsc29TF2YcYso_3syn4expr10FieldValueNtNtB2q_5token5CommaEENCINvNtB2q_10punctuated4foldB2m_B2Z_NtNvCsiSITA57RZ13_15zerofrom_derive16replace_lifetime15ReplaceLifetimeNvYB3V_NtNtNtB2q_3gen4fold4Fold16fold_field_valueE0EB2l_EB3Z_, symObjAddr: 0x4358, symBinAddr: 0x4FB0, symSize: 0x268 }
  - { offset: 0xF549, size: 0x8, addend: 0x0, symName: __RINvNtNtCsiTraAjBDcu4_5alloc3vec16in_place_collect18from_iter_in_placeINtNtNtNtCsaNl6UpbT7bw_4core4iter8adapters3map3MapINtNtB4_9into_iter8IntoIterTNtNtCsc29TF2YcYso_3syn4expr10FieldValueNtNtB2q_5token5CommaEENCINvNtB2q_10punctuated4foldB2m_B2Z_NtNvCsiSITA57RZ13_15zerofrom_derive25replace_lifetime_and_type20ReplaceLifetimeAndTyNvYB3V_NtNtNtB2q_3gen4fold4Fold16fold_field_valueE0EB2l_EB3Z_, symObjAddr: 0x45C0, symBinAddr: 0x5218, symSize: 0x268 }
  - { offset: 0xF9D7, size: 0x8, addend: 0x0, symName: __RINvNtNtCsiTraAjBDcu4_5alloc3vec16in_place_collect18from_iter_in_placeINtNtNtNtCsaNl6UpbT7bw_4core4iter8adapters3map3MapINtNtB4_9into_iter8IntoIterTNtNtCsc29TF2YcYso_3syn4expr4ExprNtNtB2q_5token5CommaEENCINvNtB2q_10punctuated4foldB2m_B2S_NtNvCsiSITA57RZ13_15zerofrom_derive16replace_lifetime15ReplaceLifetimeNvYB3O_NtNtNtB2q_3gen4fold4Fold9fold_exprE0EB2l_EB3S_, symObjAddr: 0x4828, symBinAddr: 0x5480, symSize: 0x268 }
  - { offset: 0xFE65, size: 0x8, addend: 0x0, symName: __RINvNtNtCsiTraAjBDcu4_5alloc3vec16in_place_collect18from_iter_in_placeINtNtNtNtCsaNl6UpbT7bw_4core4iter8adapters3map3MapINtNtB4_9into_iter8IntoIterTNtNtCsc29TF2YcYso_3syn4expr4ExprNtNtB2q_5token5CommaEENCINvNtB2q_10punctuated4foldB2m_B2S_NtNvCsiSITA57RZ13_15zerofrom_derive25replace_lifetime_and_type20ReplaceLifetimeAndTyNvYB3O_NtNtNtB2q_3gen4fold4Fold9fold_exprE0EB2l_EB3S_, symObjAddr: 0x4A90, symBinAddr: 0x56E8, symSize: 0x268 }
  - { offset: 0x102F3, size: 0x8, addend: 0x0, symName: __RINvNtNtCsiTraAjBDcu4_5alloc3vec16in_place_collect18from_iter_in_placeINtNtNtNtCsaNl6UpbT7bw_4core4iter8adapters3map3MapINtNtB4_9into_iter8IntoIterTNtNtCsc29TF2YcYso_3syn4item5FnArgNtNtB2q_5token5CommaEENCINvNtB2q_10punctuated4foldB2m_B2T_NtNvCsiSITA57RZ13_15zerofrom_derive16replace_lifetime15ReplaceLifetimeNvYB3P_NtNtNtB2q_3gen4fold4Fold11fold_fn_argE0EB2l_EB3T_, symObjAddr: 0x4CF8, symBinAddr: 0x5950, symSize: 0x268 }
  - { offset: 0x10781, size: 0x8, addend: 0x0, symName: __RINvNtNtCsiTraAjBDcu4_5alloc3vec16in_place_collect18from_iter_in_placeINtNtNtNtCsaNl6UpbT7bw_4core4iter8adapters3map3MapINtNtB4_9into_iter8IntoIterTNtNtCsc29TF2YcYso_3syn4item5FnArgNtNtB2q_5token5CommaEENCINvNtB2q_10punctuated4foldB2m_B2T_NtNvCsiSITA57RZ13_15zerofrom_derive25replace_lifetime_and_type20ReplaceLifetimeAndTyNvYB3P_NtNtNtB2q_3gen4fold4Fold11fold_fn_argE0EB2l_EB3T_, symObjAddr: 0x4F60, symBinAddr: 0x5BB8, symSize: 0x268 }
  - { offset: 0x10C0F, size: 0x8, addend: 0x0, symName: __RINvNtNtCsiTraAjBDcu4_5alloc3vec16in_place_collect18from_iter_in_placeINtNtNtNtCsaNl6UpbT7bw_4core4iter8adapters3map3MapINtNtB4_9into_iter8IntoIterTNtNtCsc29TF2YcYso_3syn4item7UseTreeNtNtB2q_5token5CommaEENCINvNtB2q_10punctuated4foldB2m_B2V_NtNvCsiSITA57RZ13_15zerofrom_derive16replace_lifetime15ReplaceLifetimeNvYB3R_NtNtNtB2q_3gen4fold4Fold13fold_use_treeE0EB2l_EB3V_, symObjAddr: 0x51C8, symBinAddr: 0x5E20, symSize: 0x268 }
  - { offset: 0x1109D, size: 0x8, addend: 0x0, symName: __RINvNtNtCsiTraAjBDcu4_5alloc3vec16in_place_collect18from_iter_in_placeINtNtNtNtCsaNl6UpbT7bw_4core4iter8adapters3map3MapINtNtB4_9into_iter8IntoIterTNtNtCsc29TF2YcYso_3syn4item7UseTreeNtNtB2q_5token5CommaEENCINvNtB2q_10punctuated4foldB2m_B2V_NtNvCsiSITA57RZ13_15zerofrom_derive25replace_lifetime_and_type20ReplaceLifetimeAndTyNvYB3R_NtNtNtB2q_3gen4fold4Fold13fold_use_treeE0EB2l_EB3V_, symObjAddr: 0x5430, symBinAddr: 0x6088, symSize: 0x268 }
  - { offset: 0x1152B, size: 0x8, addend: 0x0, symName: __RINvNtNtCsiTraAjBDcu4_5alloc3vec16in_place_collect18from_iter_in_placeINtNtNtNtCsaNl6UpbT7bw_4core4iter8adapters3map3MapINtNtB4_9into_iter8IntoIterTNtNtCsc29TF2YcYso_3syn4path11PathSegmentNtNtB2q_5token7PathSepEENCINvNtB2q_10punctuated4foldB2m_B30_NtNvCsiSITA57RZ13_15zerofrom_derive16replace_lifetime15ReplaceLifetimeNvYB3Y_NtNtNtB2q_3gen4fold4Fold17fold_path_segmentE0EB2l_EB42_, symObjAddr: 0x5698, symBinAddr: 0x62F0, symSize: 0x268 }
  - { offset: 0x119B9, size: 0x8, addend: 0x0, symName: __RINvNtNtCsiTraAjBDcu4_5alloc3vec16in_place_collect18from_iter_in_placeINtNtNtNtCsaNl6UpbT7bw_4core4iter8adapters3map3MapINtNtB4_9into_iter8IntoIterTNtNtCsc29TF2YcYso_3syn4path11PathSegmentNtNtB2q_5token7PathSepEENCINvNtB2q_10punctuated4foldB2m_B30_NtNvCsiSITA57RZ13_15zerofrom_derive25replace_lifetime_and_type20ReplaceLifetimeAndTyNvYB3Y_NtNtNtB2q_3gen4fold4Fold17fold_path_segmentE0EB2l_EB42_, symObjAddr: 0x5900, symBinAddr: 0x6558, symSize: 0x268 }
  - { offset: 0x11E47, size: 0x8, addend: 0x0, symName: __RINvNtNtCsiTraAjBDcu4_5alloc3vec16in_place_collect18from_iter_in_placeINtNtNtNtCsaNl6UpbT7bw_4core4iter8adapters3map3MapINtNtB4_9into_iter8IntoIterTNtNtCsc29TF2YcYso_3syn4path15GenericArgumentNtNtB2q_5token5CommaEENCINvNtB2q_10punctuated4foldB2m_B34_NtNvCsiSITA57RZ13_15zerofrom_derive16replace_lifetime15ReplaceLifetimeNvYB40_NtNtNtB2q_3gen4fold4Fold21fold_generic_argumentE0EB2l_EB44_, symObjAddr: 0x5B68, symBinAddr: 0x67C0, symSize: 0x268 }
  - { offset: 0x122D5, size: 0x8, addend: 0x0, symName: __RINvNtNtCsiTraAjBDcu4_5alloc3vec16in_place_collect18from_iter_in_placeINtNtNtNtCsaNl6UpbT7bw_4core4iter8adapters3map3MapINtNtB4_9into_iter8IntoIterTNtNtCsc29TF2YcYso_3syn4path15GenericArgumentNtNtB2q_5token5CommaEENCINvNtB2q_10punctuated4foldB2m_B34_NtNvCsiSITA57RZ13_15zerofrom_derive25replace_lifetime_and_type20ReplaceLifetimeAndTyNvYB40_NtNtNtB2q_3gen4fold4Fold21fold_generic_argumentE0EB2l_EB44_, symObjAddr: 0x5DD0, symBinAddr: 0x6A28, symSize: 0x268 }
  - { offset: 0x12763, size: 0x8, addend: 0x0, symName: __RINvNtNtCsiTraAjBDcu4_5alloc3vec16in_place_collect18from_iter_in_placeINtNtNtNtCsaNl6UpbT7bw_4core4iter8adapters3map3MapINtNtB4_9into_iter8IntoIterTNtNtCsc29TF2YcYso_3syn8generics12GenericParamNtNtB2q_5token5CommaEENCINvNtB2q_10punctuated4foldB2m_B35_NtNvCsiSITA57RZ13_15zerofrom_derive16replace_lifetime15ReplaceLifetimeNvYB41_NtNtNtB2q_3gen4fold4Fold18fold_generic_paramE0EB2l_EB45_, symObjAddr: 0x6038, symBinAddr: 0x6C90, symSize: 0x268 }
  - { offset: 0x12BF1, size: 0x8, addend: 0x0, symName: __RINvNtNtCsiTraAjBDcu4_5alloc3vec16in_place_collect18from_iter_in_placeINtNtNtNtCsaNl6UpbT7bw_4core4iter8adapters3map3MapINtNtB4_9into_iter8IntoIterTNtNtCsc29TF2YcYso_3syn8generics12GenericParamNtNtB2q_5token5CommaEENCINvNtB2q_10punctuated4foldB2m_B35_NtNvCsiSITA57RZ13_15zerofrom_derive25replace_lifetime_and_type20ReplaceLifetimeAndTyNvYB41_NtNtNtB2q_3gen4fold4Fold18fold_generic_paramE0EB2l_EB45_, symObjAddr: 0x62A0, symBinAddr: 0x6EF8, symSize: 0x268 }
  - { offset: 0x1307F, size: 0x8, addend: 0x0, symName: __RINvNtNtCsiTraAjBDcu4_5alloc3vec16in_place_collect18from_iter_in_placeINtNtNtNtCsaNl6UpbT7bw_4core4iter8adapters3map3MapINtNtB4_9into_iter8IntoIterTNtNtCsc29TF2YcYso_3syn8generics13CapturedParamNtNtB2q_5token5CommaEENCINvNtB2q_10punctuated4foldB2m_B36_NtNvCsiSITA57RZ13_15zerofrom_derive16replace_lifetime15ReplaceLifetimeNvYB42_NtNtNtB2q_3gen4fold4Fold19fold_captured_paramE0EB2l_EB46_, symObjAddr: 0x6508, symBinAddr: 0x7160, symSize: 0x268 }
  - { offset: 0x1350D, size: 0x8, addend: 0x0, symName: __RINvNtNtCsiTraAjBDcu4_5alloc3vec16in_place_collect18from_iter_in_placeINtNtNtNtCsaNl6UpbT7bw_4core4iter8adapters3map3MapINtNtB4_9into_iter8IntoIterTNtNtCsc29TF2YcYso_3syn8generics13CapturedParamNtNtB2q_5token5CommaEENCINvNtB2q_10punctuated4foldB2m_B36_NtNvCsiSITA57RZ13_15zerofrom_derive25replace_lifetime_and_type20ReplaceLifetimeAndTyNvYB42_NtNtNtB2q_3gen4fold4Fold19fold_captured_paramE0EB2l_EB46_, symObjAddr: 0x6770, symBinAddr: 0x73C8, symSize: 0x268 }
  - { offset: 0x1399B, size: 0x8, addend: 0x0, symName: __RINvNtNtCsiTraAjBDcu4_5alloc3vec16in_place_collect18from_iter_in_placeINtNtNtNtCsaNl6UpbT7bw_4core4iter8adapters3map3MapINtNtB4_9into_iter8IntoIterTNtNtCsc29TF2YcYso_3syn8generics14TypeParamBoundNtNtB2q_5token4PlusEENCINvNtB2q_10punctuated4foldB2m_B37_NtNvCsiSITA57RZ13_15zerofrom_derive16replace_lifetime15ReplaceLifetimeNvYB42_NtNtNtB2q_3gen4fold4Fold21fold_type_param_boundE0EB2l_EB46_, symObjAddr: 0x69D8, symBinAddr: 0x7630, symSize: 0x264 }
  - { offset: 0x13E29, size: 0x8, addend: 0x0, symName: __RINvNtNtCsiTraAjBDcu4_5alloc3vec16in_place_collect18from_iter_in_placeINtNtNtNtCsaNl6UpbT7bw_4core4iter8adapters3map3MapINtNtB4_9into_iter8IntoIterTNtNtCsc29TF2YcYso_3syn8generics14TypeParamBoundNtNtB2q_5token4PlusEENCINvNtB2q_10punctuated4foldB2m_B37_NtNvCsiSITA57RZ13_15zerofrom_derive25replace_lifetime_and_type20ReplaceLifetimeAndTyNvYB42_NtNtNtB2q_3gen4fold4Fold21fold_type_param_boundE0EB2l_EB46_, symObjAddr: 0x6C3C, symBinAddr: 0x7894, symSize: 0x264 }
  - { offset: 0x142B7, size: 0x8, addend: 0x0, symName: __RINvNtNtCsiTraAjBDcu4_5alloc3vec16in_place_collect18from_iter_in_placeINtNtNtNtCsaNl6UpbT7bw_4core4iter8adapters3map3MapINtNtB4_9into_iter8IntoIterTNtNtCsc29TF2YcYso_3syn8generics14WherePredicateNtNtB2q_5token5CommaEENCINvNtB2q_10punctuated4foldB2m_B37_NtNvCsiSITA57RZ13_15zerofrom_derive16replace_lifetime15ReplaceLifetimeNvYB43_NtNtNtB2q_3gen4fold4Fold20fold_where_predicateE0EB2l_EB47_, symObjAddr: 0x6EA0, symBinAddr: 0x7AF8, symSize: 0x268 }
  - { offset: 0x14745, size: 0x8, addend: 0x0, symName: __RINvNtNtCsiTraAjBDcu4_5alloc3vec16in_place_collect18from_iter_in_placeINtNtNtNtCsaNl6UpbT7bw_4core4iter8adapters3map3MapINtNtB4_9into_iter8IntoIterTNtNtCsc29TF2YcYso_3syn8generics14WherePredicateNtNtB2q_5token5CommaEENCINvNtB2q_10punctuated4foldB2m_B37_NtNvCsiSITA57RZ13_15zerofrom_derive25replace_lifetime_and_type20ReplaceLifetimeAndTyNvYB43_NtNtNtB2q_3gen4fold4Fold20fold_where_predicateE0EB2l_EB47_, symObjAddr: 0x7108, symBinAddr: 0x7D60, symSize: 0x268 }
  - { offset: 0x14BD3, size: 0x8, addend: 0x0, symName: __RINvNtNtCsiTraAjBDcu4_5alloc3vec16in_place_collect18from_iter_in_placeINtNtNtNtCsaNl6UpbT7bw_4core4iter8adapters3map3MapINtNtB4_9into_iter8IntoIterTNtNtCsc29TF2YcYso_3syn8lifetime8LifetimeNtNtB2q_5token4PlusEENCINvNtB2q_10punctuated4foldB2m_B30_NtNvCsiSITA57RZ13_15zerofrom_derive16replace_lifetime15ReplaceLifetimeNvYB3V_NtNtNtB2q_3gen4fold4Fold13fold_lifetimeE0EB2l_EB3Z_, symObjAddr: 0x7370, symBinAddr: 0x7FC8, symSize: 0x268 }
  - { offset: 0x15061, size: 0x8, addend: 0x0, symName: __RINvNtNtCsiTraAjBDcu4_5alloc3vec16in_place_collect18from_iter_in_placeINtNtNtNtCsaNl6UpbT7bw_4core4iter8adapters3map3MapINtNtB4_9into_iter8IntoIterTNtNtCsc29TF2YcYso_3syn8lifetime8LifetimeNtNtB2q_5token4PlusEENCINvNtB2q_10punctuated4foldB2m_B30_NtNvCsiSITA57RZ13_15zerofrom_derive25replace_lifetime_and_type20ReplaceLifetimeAndTyNvYB3V_NtNtNtB2q_3gen4fold4Fold13fold_lifetimeE0EB2l_EB3Z_, symObjAddr: 0x75D8, symBinAddr: 0x8230, symSize: 0x268 }
  - { offset: 0x154BB, size: 0x8, addend: 0x0, symName: __RNCINvNtNtCsiTraAjBDcu4_5alloc3vec16in_place_collect24write_in_place_with_dropNtNtCsc29TF2YcYso_3syn4attr9AttributeE0CsiSITA57RZ13_15zerofrom_derive, symObjAddr: 0x7840, symBinAddr: 0x8498, symSize: 0x60 }
  - { offset: 0x1553D, size: 0x8, addend: 0x0, symName: __RNCINvNtNtCsiTraAjBDcu4_5alloc3vec16in_place_collect24write_in_place_with_dropNtNtCsc29TF2YcYso_3syn4expr3ArmE0CsiSITA57RZ13_15zerofrom_derive, symObjAddr: 0x78A0, symBinAddr: 0x84F8, symSize: 0x60 }
  - { offset: 0x155BF, size: 0x8, addend: 0x0, symName: __RNCINvNtNtCsiTraAjBDcu4_5alloc3vec16in_place_collect24write_in_place_with_dropNtNtCsc29TF2YcYso_3syn4item11ForeignItemE0CsiSITA57RZ13_15zerofrom_derive, symObjAddr: 0x7900, symBinAddr: 0x8558, symSize: 0x60 }
  - { offset: 0x15641, size: 0x8, addend: 0x0, symName: __RNCINvNtNtCsiTraAjBDcu4_5alloc3vec16in_place_collect24write_in_place_with_dropNtNtCsc29TF2YcYso_3syn4item4ItemE0CsiSITA57RZ13_15zerofrom_derive, symObjAddr: 0x7960, symBinAddr: 0x85B8, symSize: 0x60 }
  - { offset: 0x156C3, size: 0x8, addend: 0x0, symName: __RNCINvNtNtCsiTraAjBDcu4_5alloc3vec16in_place_collect24write_in_place_with_dropNtNtCsc29TF2YcYso_3syn4item8ImplItemE0CsiSITA57RZ13_15zerofrom_derive, symObjAddr: 0x79C0, symBinAddr: 0x8618, symSize: 0x60 }
  - { offset: 0x15745, size: 0x8, addend: 0x0, symName: __RNCINvNtNtCsiTraAjBDcu4_5alloc3vec16in_place_collect24write_in_place_with_dropNtNtCsc29TF2YcYso_3syn4item9TraitItemE0CsiSITA57RZ13_15zerofrom_derive, symObjAddr: 0x7A20, symBinAddr: 0x8678, symSize: 0x60 }
  - { offset: 0x157C7, size: 0x8, addend: 0x0, symName: __RNCINvNtNtCsiTraAjBDcu4_5alloc3vec16in_place_collect24write_in_place_with_dropNtNtCsc29TF2YcYso_3syn4stmt4StmtE0CsiSITA57RZ13_15zerofrom_derive, symObjAddr: 0x7A80, symBinAddr: 0x86D8, symSize: 0x60 }
  - { offset: 0x15849, size: 0x8, addend: 0x0, symName: __RNCINvNtNtCsiTraAjBDcu4_5alloc3vec16in_place_collect24write_in_place_with_dropTNtNtCsc29TF2YcYso_3syn2ty4TypeNtNtB1j_5token5CommaEE0CsiSITA57RZ13_15zerofrom_derive, symObjAddr: 0x7AE0, symBinAddr: 0x8738, symSize: 0x60 }
  - { offset: 0x158CB, size: 0x8, addend: 0x0, symName: __RNCINvNtNtCsiTraAjBDcu4_5alloc3vec16in_place_collect24write_in_place_with_dropTNtNtCsc29TF2YcYso_3syn2ty9BareFnArgNtNtB1j_5token5CommaEE0CsiSITA57RZ13_15zerofrom_derive, symObjAddr: 0x7B40, symBinAddr: 0x8798, symSize: 0x60 }
  - { offset: 0x1594D, size: 0x8, addend: 0x0, symName: __RNCINvNtNtCsiTraAjBDcu4_5alloc3vec16in_place_collect24write_in_place_with_dropTNtNtCsc29TF2YcYso_3syn3pat3PatNtNtB1j_5token2OrEE0CsiSITA57RZ13_15zerofrom_derive, symObjAddr: 0x7BA0, symBinAddr: 0x87F8, symSize: 0x60 }
  - { offset: 0x159CF, size: 0x8, addend: 0x0, symName: __RNCINvNtNtCsiTraAjBDcu4_5alloc3vec16in_place_collect24write_in_place_with_dropTNtNtCsc29TF2YcYso_3syn3pat3PatNtNtB1j_5token5CommaEE0CsiSITA57RZ13_15zerofrom_derive, symObjAddr: 0x7C00, symBinAddr: 0x8858, symSize: 0x60 }
  - { offset: 0x15A51, size: 0x8, addend: 0x0, symName: __RNCINvNtNtCsiTraAjBDcu4_5alloc3vec16in_place_collect24write_in_place_with_dropTNtNtCsc29TF2YcYso_3syn3pat8FieldPatNtNtB1j_5token5CommaEE0CsiSITA57RZ13_15zerofrom_derive, symObjAddr: 0x7C60, symBinAddr: 0x88B8, symSize: 0x60 }
  - { offset: 0x15AD3, size: 0x8, addend: 0x0, symName: __RNCINvNtNtCsiTraAjBDcu4_5alloc3vec16in_place_collect24write_in_place_with_dropTNtNtCsc29TF2YcYso_3syn4data5FieldNtNtB1j_5token5CommaEE0CsiSITA57RZ13_15zerofrom_derive, symObjAddr: 0x7CC0, symBinAddr: 0x8918, symSize: 0x60 }
  - { offset: 0x15B55, size: 0x8, addend: 0x0, symName: __RNCINvNtNtCsiTraAjBDcu4_5alloc3vec16in_place_collect24write_in_place_with_dropTNtNtCsc29TF2YcYso_3syn4data7VariantNtNtB1j_5token5CommaEE0CsiSITA57RZ13_15zerofrom_derive, symObjAddr: 0x7D20, symBinAddr: 0x8978, symSize: 0x60 }
  - { offset: 0x15BD7, size: 0x8, addend: 0x0, symName: __RNCINvNtNtCsiTraAjBDcu4_5alloc3vec16in_place_collect24write_in_place_with_dropTNtNtCsc29TF2YcYso_3syn4expr10FieldValueNtNtB1j_5token5CommaEE0CsiSITA57RZ13_15zerofrom_derive, symObjAddr: 0x7D80, symBinAddr: 0x89D8, symSize: 0x60 }
  - { offset: 0x15C59, size: 0x8, addend: 0x0, symName: __RNCINvNtNtCsiTraAjBDcu4_5alloc3vec16in_place_collect24write_in_place_with_dropTNtNtCsc29TF2YcYso_3syn4expr4ExprNtNtB1j_5token5CommaEE0CsiSITA57RZ13_15zerofrom_derive, symObjAddr: 0x7DE0, symBinAddr: 0x8A38, symSize: 0x60 }
  - { offset: 0x15CDB, size: 0x8, addend: 0x0, symName: __RNCINvNtNtCsiTraAjBDcu4_5alloc3vec16in_place_collect24write_in_place_with_dropTNtNtCsc29TF2YcYso_3syn4item5FnArgNtNtB1j_5token5CommaEE0CsiSITA57RZ13_15zerofrom_derive, symObjAddr: 0x7E40, symBinAddr: 0x8A98, symSize: 0x60 }
  - { offset: 0x15D5D, size: 0x8, addend: 0x0, symName: __RNCINvNtNtCsiTraAjBDcu4_5alloc3vec16in_place_collect24write_in_place_with_dropTNtNtCsc29TF2YcYso_3syn4item7UseTreeNtNtB1j_5token5CommaEE0CsiSITA57RZ13_15zerofrom_derive, symObjAddr: 0x7EA0, symBinAddr: 0x8AF8, symSize: 0x60 }
  - { offset: 0x15DDF, size: 0x8, addend: 0x0, symName: __RNCINvNtNtCsiTraAjBDcu4_5alloc3vec16in_place_collect24write_in_place_with_dropTNtNtCsc29TF2YcYso_3syn4path11PathSegmentNtNtB1j_5token7PathSepEE0CsiSITA57RZ13_15zerofrom_derive, symObjAddr: 0x7F00, symBinAddr: 0x8B58, symSize: 0x60 }
  - { offset: 0x15E61, size: 0x8, addend: 0x0, symName: __RNCINvNtNtCsiTraAjBDcu4_5alloc3vec16in_place_collect24write_in_place_with_dropTNtNtCsc29TF2YcYso_3syn4path15GenericArgumentNtNtB1j_5token5CommaEE0CsiSITA57RZ13_15zerofrom_derive, symObjAddr: 0x7F60, symBinAddr: 0x8BB8, symSize: 0x60 }
  - { offset: 0x15EE3, size: 0x8, addend: 0x0, symName: __RNCINvNtNtCsiTraAjBDcu4_5alloc3vec16in_place_collect24write_in_place_with_dropTNtNtCsc29TF2YcYso_3syn8generics12GenericParamNtNtB1j_5token5CommaEE0CsiSITA57RZ13_15zerofrom_derive, symObjAddr: 0x7FC0, symBinAddr: 0x8C18, symSize: 0x60 }
  - { offset: 0x15F65, size: 0x8, addend: 0x0, symName: __RNCINvNtNtCsiTraAjBDcu4_5alloc3vec16in_place_collect24write_in_place_with_dropTNtNtCsc29TF2YcYso_3syn8generics13CapturedParamNtNtB1j_5token5CommaEE0CsiSITA57RZ13_15zerofrom_derive, symObjAddr: 0x8020, symBinAddr: 0x8C78, symSize: 0x60 }
  - { offset: 0x15FE7, size: 0x8, addend: 0x0, symName: __RNCINvNtNtCsiTraAjBDcu4_5alloc3vec16in_place_collect24write_in_place_with_dropTNtNtCsc29TF2YcYso_3syn8generics14TypeParamBoundNtNtB1j_5token4PlusEE0CsiSITA57RZ13_15zerofrom_derive, symObjAddr: 0x8080, symBinAddr: 0x8CD8, symSize: 0x60 }
  - { offset: 0x16069, size: 0x8, addend: 0x0, symName: __RNCINvNtNtCsiTraAjBDcu4_5alloc3vec16in_place_collect24write_in_place_with_dropTNtNtCsc29TF2YcYso_3syn8generics14WherePredicateNtNtB1j_5token5CommaEE0CsiSITA57RZ13_15zerofrom_derive, symObjAddr: 0x80E0, symBinAddr: 0x8D38, symSize: 0x60 }
  - { offset: 0x160EB, size: 0x8, addend: 0x0, symName: __RNCINvNtNtCsiTraAjBDcu4_5alloc3vec16in_place_collect24write_in_place_with_dropTNtNtCsc29TF2YcYso_3syn8lifetime8LifetimeNtNtB1j_5token4PlusEE0CsiSITA57RZ13_15zerofrom_derive, symObjAddr: 0x8140, symBinAddr: 0x8D98, symSize: 0x60 }
  - { offset: 0x237AF, size: 0x8, addend: 0x0, symName: __RINvXs3_NtNtCsiTraAjBDcu4_5alloc3vec9into_iterINtB6_8IntoIterNtNtCsc29TF2YcYso_3syn4attr9AttributeENtNtNtNtCsaNl6UpbT7bw_4core4iter6traits8iterator8Iterator8try_foldINtNtB8_13in_place_drop11InPlaceDropBX_ENCINvNtNtB1F_8adapters3map12map_try_foldBX_BX_B2D_INtNtB1H_6result6ResultB2D_zENCINvNtNtB11_3gen4fold8fold_vecBX_NtNvCsiSITA57RZ13_15zerofrom_derive16replace_lifetime15ReplaceLifetimeNvYB56_NtB4D_4Fold14fold_attributeE0NCINvNtB8_16in_place_collect24write_in_place_with_dropBX_E0E0B45_EB5a_, symObjAddr: 0x0, symBinAddr: 0x8DF8, symSize: 0x1F0 }
  - { offset: 0x2DF90, size: 0x8, addend: 0x0, symName: __RINvYINtNtNtCsiTraAjBDcu4_5alloc3vec9into_iter8IntoIterNtNtCsc29TF2YcYso_3syn4attr9AttributeENtNtNtNtCsaNl6UpbT7bw_4core4iter6traits8iterator8Iterator3mapBR_NCINvNtNtBV_3gen4fold8fold_vecBR_NtNvCsiSITA57RZ13_15zerofrom_derive16replace_lifetime15ReplaceLifetimeNvYB32_NtB2A_4Fold14fold_attributeE0EB36_, symObjAddr: 0x6230, symBinAddr: 0xF028, symSize: 0x34 }
  - { offset: 0x2DFFD, size: 0x8, addend: 0x0, symName: __RINvYINtNtNtCsiTraAjBDcu4_5alloc3vec9into_iter8IntoIterNtNtCsc29TF2YcYso_3syn4attr9AttributeENtNtNtNtCsaNl6UpbT7bw_4core4iter6traits8iterator8Iterator3mapBR_NCINvNtNtBV_3gen4fold8fold_vecBR_NtNvCsiSITA57RZ13_15zerofrom_derive25replace_lifetime_and_type20ReplaceLifetimeAndTyNvYB32_NtB2A_4Fold14fold_attributeE0EB36_, symObjAddr: 0x6264, symBinAddr: 0xF05C, symSize: 0x34 }
  - { offset: 0x2E06A, size: 0x8, addend: 0x0, symName: __RINvYINtNtNtCsiTraAjBDcu4_5alloc3vec9into_iter8IntoIterNtNtCsc29TF2YcYso_3syn4expr3ArmENtNtNtNtCsaNl6UpbT7bw_4core4iter6traits8iterator8Iterator3mapBR_NCINvNtNtBV_3gen4fold8fold_vecBR_NtNvCsiSITA57RZ13_15zerofrom_derive16replace_lifetime15ReplaceLifetimeNvYB2W_NtB2u_4Fold8fold_armE0EB30_, symObjAddr: 0x6298, symBinAddr: 0xF090, symSize: 0x34 }
  - { offset: 0x2E0D7, size: 0x8, addend: 0x0, symName: __RINvYINtNtNtCsiTraAjBDcu4_5alloc3vec9into_iter8IntoIterNtNtCsc29TF2YcYso_3syn4expr3ArmENtNtNtNtCsaNl6UpbT7bw_4core4iter6traits8iterator8Iterator3mapBR_NCINvNtNtBV_3gen4fold8fold_vecBR_NtNvCsiSITA57RZ13_15zerofrom_derive25replace_lifetime_and_type20ReplaceLifetimeAndTyNvYB2W_NtB2u_4Fold8fold_armE0EB30_, symObjAddr: 0x62CC, symBinAddr: 0xF0C4, symSize: 0x34 }
  - { offset: 0x2E144, size: 0x8, addend: 0x0, symName: __RINvYINtNtNtCsiTraAjBDcu4_5alloc3vec9into_iter8IntoIterNtNtCsc29TF2YcYso_3syn4item11ForeignItemENtNtNtNtCsaNl6UpbT7bw_4core4iter6traits8iterator8Iterator3mapBR_NCINvNtNtBV_3gen4fold8fold_vecBR_NtNvCsiSITA57RZ13_15zerofrom_derive16replace_lifetime15ReplaceLifetimeNvYB35_NtB2D_4Fold17fold_foreign_itemE0EB39_, symObjAddr: 0x6300, symBinAddr: 0xF0F8, symSize: 0x34 }
  - { offset: 0x2E1B1, size: 0x8, addend: 0x0, symName: __RINvYINtNtNtCsiTraAjBDcu4_5alloc3vec9into_iter8IntoIterNtNtCsc29TF2YcYso_3syn4item11ForeignItemENtNtNtNtCsaNl6UpbT7bw_4core4iter6traits8iterator8Iterator3mapBR_NCINvNtNtBV_3gen4fold8fold_vecBR_NtNvCsiSITA57RZ13_15zerofrom_derive25replace_lifetime_and_type20ReplaceLifetimeAndTyNvYB35_NtB2D_4Fold17fold_foreign_itemE0EB39_, symObjAddr: 0x6334, symBinAddr: 0xF12C, symSize: 0x34 }
  - { offset: 0x2E21E, size: 0x8, addend: 0x0, symName: __RINvYINtNtNtCsiTraAjBDcu4_5alloc3vec9into_iter8IntoIterNtNtCsc29TF2YcYso_3syn4item4ItemENtNtNtNtCsaNl6UpbT7bw_4core4iter6traits8iterator8Iterator3mapBR_NCINvNtNtBV_3gen4fold8fold_vecBR_NtNvCsiSITA57RZ13_15zerofrom_derive16replace_lifetime15ReplaceLifetimeNvYB2X_NtB2v_4Fold9fold_itemE0EB31_, symObjAddr: 0x6368, symBinAddr: 0xF160, symSize: 0x34 }
  - { offset: 0x2E28B, size: 0x8, addend: 0x0, symName: __RINvYINtNtNtCsiTraAjBDcu4_5alloc3vec9into_iter8IntoIterNtNtCsc29TF2YcYso_3syn4item4ItemENtNtNtNtCsaNl6UpbT7bw_4core4iter6traits8iterator8Iterator3mapBR_NCINvNtNtBV_3gen4fold8fold_vecBR_NtNvCsiSITA57RZ13_15zerofrom_derive25replace_lifetime_and_type20ReplaceLifetimeAndTyNvYB2X_NtB2v_4Fold9fold_itemE0EB31_, symObjAddr: 0x639C, symBinAddr: 0xF194, symSize: 0x34 }
  - { offset: 0x2E2F8, size: 0x8, addend: 0x0, symName: __RINvYINtNtNtCsiTraAjBDcu4_5alloc3vec9into_iter8IntoIterNtNtCsc29TF2YcYso_3syn4item8ImplItemENtNtNtNtCsaNl6UpbT7bw_4core4iter6traits8iterator8Iterator3mapBR_NCINvNtNtBV_3gen4fold8fold_vecBR_NtNvCsiSITA57RZ13_15zerofrom_derive16replace_lifetime15ReplaceLifetimeNvYB31_NtB2z_4Fold14fold_impl_itemE0EB35_, symObjAddr: 0x63D0, symBinAddr: 0xF1C8, symSize: 0x34 }
  - { offset: 0x2E365, size: 0x8, addend: 0x0, symName: __RINvYINtNtNtCsiTraAjBDcu4_5alloc3vec9into_iter8IntoIterNtNtCsc29TF2YcYso_3syn4item8ImplItemENtNtNtNtCsaNl6UpbT7bw_4core4iter6traits8iterator8Iterator3mapBR_NCINvNtNtBV_3gen4fold8fold_vecBR_NtNvCsiSITA57RZ13_15zerofrom_derive25replace_lifetime_and_type20ReplaceLifetimeAndTyNvYB31_NtB2z_4Fold14fold_impl_itemE0EB35_, symObjAddr: 0x6404, symBinAddr: 0xF1FC, symSize: 0x34 }
  - { offset: 0x2E3D2, size: 0x8, addend: 0x0, symName: __RINvYINtNtNtCsiTraAjBDcu4_5alloc3vec9into_iter8IntoIterNtNtCsc29TF2YcYso_3syn4item9TraitItemENtNtNtNtCsaNl6UpbT7bw_4core4iter6traits8iterator8Iterator3mapBR_NCINvNtNtBV_3gen4fold8fold_vecBR_NtNvCsiSITA57RZ13_15zerofrom_derive16replace_lifetime15ReplaceLifetimeNvYB32_NtB2A_4Fold15fold_trait_itemE0EB36_, symObjAddr: 0x6438, symBinAddr: 0xF230, symSize: 0x34 }
  - { offset: 0x2E43F, size: 0x8, addend: 0x0, symName: __RINvYINtNtNtCsiTraAjBDcu4_5alloc3vec9into_iter8IntoIterNtNtCsc29TF2YcYso_3syn4item9TraitItemENtNtNtNtCsaNl6UpbT7bw_4core4iter6traits8iterator8Iterator3mapBR_NCINvNtNtBV_3gen4fold8fold_vecBR_NtNvCsiSITA57RZ13_15zerofrom_derive25replace_lifetime_and_type20ReplaceLifetimeAndTyNvYB32_NtB2A_4Fold15fold_trait_itemE0EB36_, symObjAddr: 0x646C, symBinAddr: 0xF264, symSize: 0x34 }
  - { offset: 0x2E4AC, size: 0x8, addend: 0x0, symName: __RINvYINtNtNtCsiTraAjBDcu4_5alloc3vec9into_iter8IntoIterNtNtCsc29TF2YcYso_3syn4stmt4StmtENtNtNtNtCsaNl6UpbT7bw_4core4iter6traits8iterator8Iterator3mapBR_NCINvNtNtBV_3gen4fold8fold_vecBR_NtNvCsiSITA57RZ13_15zerofrom_derive16replace_lifetime15ReplaceLifetimeNvYB2X_NtB2v_4Fold9fold_stmtE0EB31_, symObjAddr: 0x64A0, symBinAddr: 0xF298, symSize: 0x34 }
  - { offset: 0x2E519, size: 0x8, addend: 0x0, symName: __RINvYINtNtNtCsiTraAjBDcu4_5alloc3vec9into_iter8IntoIterNtNtCsc29TF2YcYso_3syn4stmt4StmtENtNtNtNtCsaNl6UpbT7bw_4core4iter6traits8iterator8Iterator3mapBR_NCINvNtNtBV_3gen4fold8fold_vecBR_NtNvCsiSITA57RZ13_15zerofrom_derive25replace_lifetime_and_type20ReplaceLifetimeAndTyNvYB2X_NtB2v_4Fold9fold_stmtE0EB31_, symObjAddr: 0x64D4, symBinAddr: 0xF2CC, symSize: 0x34 }
  - { offset: 0x2E586, size: 0x8, addend: 0x0, symName: __RINvYINtNtNtCsiTraAjBDcu4_5alloc3vec9into_iter8IntoIterTNtCshnvkK9b4wzu_11proc_macro25IdentNtNtCsc29TF2YcYso_3syn5token5CommaEENtNtNtNtCsaNl6UpbT7bw_4core4iter6traits8iterator8Iterator3mapBS_NCNvXs8_NtB1v_10punctuatedINtB3b_10PunctuatedBS_B1r_ENtNtB25_7collect12IntoIterator9into_iter0ECsiSITA57RZ13_15zerofrom_derive, symObjAddr: 0x6508, symBinAddr: 0xF300, symSize: 0x1C }
  - { offset: 0x2E5F3, size: 0x8, addend: 0x0, symName: __RINvYINtNtNtCsiTraAjBDcu4_5alloc3vec9into_iter8IntoIterTNtNtCsc29TF2YcYso_3syn2ty4TypeNtNtBW_5token5CommaEENtNtNtNtCsaNl6UpbT7bw_4core4iter6traits8iterator8Iterator3mapBR_NCINvNtBW_10punctuated4foldBS_B1m_NtNvCsiSITA57RZ13_15zerofrom_derive16replace_lifetime15ReplaceLifetimeNvYB3h_NtNtNtBW_3gen4fold4Fold9fold_typeE0EB3l_, symObjAddr: 0x6524, symBinAddr: 0xF31C, symSize: 0x34 }
  - { offset: 0x2E660, size: 0x8, addend: 0x0, symName: __RINvYINtNtNtCsiTraAjBDcu4_5alloc3vec9into_iter8IntoIterTNtNtCsc29TF2YcYso_3syn2ty4TypeNtNtBW_5token5CommaEENtNtNtNtCsaNl6UpbT7bw_4core4iter6traits8iterator8Iterator3mapBR_NCINvNtBW_10punctuated4foldBS_B1m_NtNvCsiSITA57RZ13_15zerofrom_derive25replace_lifetime_and_type20ReplaceLifetimeAndTyNvYB3h_NtNtNtBW_3gen4fold4Fold9fold_typeE0EB3l_, symObjAddr: 0x6558, symBinAddr: 0xF350, symSize: 0x34 }
  - { offset: 0x2E6CD, size: 0x8, addend: 0x0, symName: __RINvYINtNtNtCsiTraAjBDcu4_5alloc3vec9into_iter8IntoIterTNtNtCsc29TF2YcYso_3syn2ty9BareFnArgNtNtBW_5token5CommaEENtNtNtNtCsaNl6UpbT7bw_4core4iter6traits8iterator8Iterator3mapBR_NCINvNtBW_10punctuated4foldBS_B1r_NtNvCsiSITA57RZ13_15zerofrom_derive16replace_lifetime15ReplaceLifetimeNvYB3m_NtNtNtBW_3gen4fold4Fold16fold_bare_fn_argE0EB3q_, symObjAddr: 0x658C, symBinAddr: 0xF384, symSize: 0x34 }
  - { offset: 0x2E73A, size: 0x8, addend: 0x0, symName: __RINvYINtNtNtCsiTraAjBDcu4_5alloc3vec9into_iter8IntoIterTNtNtCsc29TF2YcYso_3syn2ty9BareFnArgNtNtBW_5token5CommaEENtNtNtNtCsaNl6UpbT7bw_4core4iter6traits8iterator8Iterator3mapBR_NCINvNtBW_10punctuated4foldBS_B1r_NtNvCsiSITA57RZ13_15zerofrom_derive25replace_lifetime_and_type20ReplaceLifetimeAndTyNvYB3m_NtNtNtBW_3gen4fold4Fold16fold_bare_fn_argE0EB3q_, symObjAddr: 0x65C0, symBinAddr: 0xF3B8, symSize: 0x34 }
  - { offset: 0x2E7A7, size: 0x8, addend: 0x0, symName: __RINvYINtNtNtCsiTraAjBDcu4_5alloc3vec9into_iter8IntoIterTNtNtCsc29TF2YcYso_3syn3pat3PatNtNtBW_5token2OrEENtNtNtNtCsaNl6UpbT7bw_4core4iter6traits8iterator8Iterator3mapBR_NCINvNtBW_10punctuated4foldBS_B1m_NtNvCsiSITA57RZ13_15zerofrom_derive16replace_lifetime15ReplaceLifetimeNvYB3e_NtNtNtBW_3gen4fold4Fold8fold_patE0EB3i_, symObjAddr: 0x65F4, symBinAddr: 0xF3EC, symSize: 0x34 }
  - { offset: 0x2E814, size: 0x8, addend: 0x0, symName: __RINvYINtNtNtCsiTraAjBDcu4_5alloc3vec9into_iter8IntoIterTNtNtCsc29TF2YcYso_3syn3pat3PatNtNtBW_5token2OrEENtNtNtNtCsaNl6UpbT7bw_4core4iter6traits8iterator8Iterator3mapBR_NCINvNtBW_10punctuated4foldBS_B1m_NtNvCsiSITA57RZ13_15zerofrom_derive25replace_lifetime_and_type20ReplaceLifetimeAndTyNvYB3e_NtNtNtBW_3gen4fold4Fold8fold_patE0EB3i_, symObjAddr: 0x6628, symBinAddr: 0xF420, symSize: 0x34 }
  - { offset: 0x2E881, size: 0x8, addend: 0x0, symName: __RINvYINtNtNtCsiTraAjBDcu4_5alloc3vec9into_iter8IntoIterTNtNtCsc29TF2YcYso_3syn3pat3PatNtNtBW_5token5CommaEENtNtNtNtCsaNl6UpbT7bw_4core4iter6traits8iterator8Iterator3mapBR_NCINvNtBW_10punctuated4foldBS_B1m_NtNvCsiSITA57RZ13_15zerofrom_derive16replace_lifetime15ReplaceLifetimeNvYB3h_NtNtNtBW_3gen4fold4Fold8fold_patE0EB3l_, symObjAddr: 0x665C, symBinAddr: 0xF454, symSize: 0x34 }
  - { offset: 0x2E8EE, size: 0x8, addend: 0x0, symName: __RINvYINtNtNtCsiTraAjBDcu4_5alloc3vec9into_iter8IntoIterTNtNtCsc29TF2YcYso_3syn3pat3PatNtNtBW_5token5CommaEENtNtNtNtCsaNl6UpbT7bw_4core4iter6traits8iterator8Iterator3mapBR_NCINvNtBW_10punctuated4foldBS_B1m_NtNvCsiSITA57RZ13_15zerofrom_derive25replace_lifetime_and_type20ReplaceLifetimeAndTyNvYB3h_NtNtNtBW_3gen4fold4Fold8fold_patE0EB3l_, symObjAddr: 0x6690, symBinAddr: 0xF488, symSize: 0x34 }
  - { offset: 0x2E95B, size: 0x8, addend: 0x0, symName: __RINvYINtNtNtCsiTraAjBDcu4_5alloc3vec9into_iter8IntoIterTNtNtCsc29TF2YcYso_3syn3pat8FieldPatNtNtBW_5token5CommaEENtNtNtNtCsaNl6UpbT7bw_4core4iter6traits8iterator8Iterator3mapBR_NCINvNtBW_10punctuated4foldBS_B1r_NtNvCsiSITA57RZ13_15zerofrom_derive16replace_lifetime15ReplaceLifetimeNvYB3m_NtNtNtBW_3gen4fold4Fold14fold_field_patE0EB3q_, symObjAddr: 0x66C4, symBinAddr: 0xF4BC, symSize: 0x34 }
  - { offset: 0x2E9C8, size: 0x8, addend: 0x0, symName: __RINvYINtNtNtCsiTraAjBDcu4_5alloc3vec9into_iter8IntoIterTNtNtCsc29TF2YcYso_3syn3pat8FieldPatNtNtBW_5token5CommaEENtNtNtNtCsaNl6UpbT7bw_4core4iter6traits8iterator8Iterator3mapBR_NCINvNtBW_10punctuated4foldBS_B1r_NtNvCsiSITA57RZ13_15zerofrom_derive25replace_lifetime_and_type20ReplaceLifetimeAndTyNvYB3m_NtNtNtBW_3gen4fold4Fold14fold_field_patE0EB3q_, symObjAddr: 0x66F8, symBinAddr: 0xF4F0, symSize: 0x34 }
  - { offset: 0x2EA35, size: 0x8, addend: 0x0, symName: __RINvYINtNtNtCsiTraAjBDcu4_5alloc3vec9into_iter8IntoIterTNtNtCsc29TF2YcYso_3syn4data5FieldNtNtBW_5token5CommaEENtNtNtNtCsaNl6UpbT7bw_4core4iter6traits8iterator8Iterator3mapBR_NCINvNtBW_10punctuated4foldBS_B1p_NtNvCsiSITA57RZ13_15zerofrom_derive16replace_lifetime15ReplaceLifetimeNvYB3k_NtNtNtBW_3gen4fold4Fold10fold_fieldE0EB3o_, symObjAddr: 0x672C, symBinAddr: 0xF524, symSize: 0x34 }
  - { offset: 0x2EAA2, size: 0x8, addend: 0x0, symName: __RINvYINtNtNtCsiTraAjBDcu4_5alloc3vec9into_iter8IntoIterTNtNtCsc29TF2YcYso_3syn4data5FieldNtNtBW_5token5CommaEENtNtNtNtCsaNl6UpbT7bw_4core4iter6traits8iterator8Iterator3mapBR_NCINvNtBW_10punctuated4foldBS_B1p_NtNvCsiSITA57RZ13_15zerofrom_derive25replace_lifetime_and_type20ReplaceLifetimeAndTyNvYB3k_NtNtNtBW_3gen4fold4Fold10fold_fieldE0EB3o_, symObjAddr: 0x6760, symBinAddr: 0xF558, symSize: 0x34 }
  - { offset: 0x2EB0F, size: 0x8, addend: 0x0, symName: __RINvYINtNtNtCsiTraAjBDcu4_5alloc3vec9into_iter8IntoIterTNtNtCsc29TF2YcYso_3syn4data7VariantNtNtBW_5token5CommaEENtNtNtNtCsaNl6UpbT7bw_4core4iter6traits8iterator8Iterator3mapBR_NCINvNtBW_10punctuated4foldBS_B1r_NtNvCsiSITA57RZ13_15zerofrom_derive16replace_lifetime15ReplaceLifetimeNvYB3m_NtNtNtBW_3gen4fold4Fold12fold_variantE0EB3q_, symObjAddr: 0x6794, symBinAddr: 0xF58C, symSize: 0x34 }
  - { offset: 0x2EB7C, size: 0x8, addend: 0x0, symName: __RINvYINtNtNtCsiTraAjBDcu4_5alloc3vec9into_iter8IntoIterTNtNtCsc29TF2YcYso_3syn4data7VariantNtNtBW_5token5CommaEENtNtNtNtCsaNl6UpbT7bw_4core4iter6traits8iterator8Iterator3mapBR_NCINvNtBW_10punctuated4foldBS_B1r_NtNvCsiSITA57RZ13_15zerofrom_derive25replace_lifetime_and_type20ReplaceLifetimeAndTyNvYB3m_NtNtNtBW_3gen4fold4Fold12fold_variantE0EB3q_, symObjAddr: 0x67C8, symBinAddr: 0xF5C0, symSize: 0x34 }
  - { offset: 0x2EBE9, size: 0x8, addend: 0x0, symName: __RINvYINtNtNtCsiTraAjBDcu4_5alloc3vec9into_iter8IntoIterTNtNtCsc29TF2YcYso_3syn4expr10FieldValueNtNtBW_5token5CommaEENtNtNtNtCsaNl6UpbT7bw_4core4iter6traits8iterator8Iterator3mapBR_NCINvNtBW_10punctuated4foldBS_B1v_NtNvCsiSITA57RZ13_15zerofrom_derive16replace_lifetime15ReplaceLifetimeNvYB3q_NtNtNtBW_3gen4fold4Fold16fold_field_valueE0EB3u_, symObjAddr: 0x67FC, symBinAddr: 0xF5F4, symSize: 0x34 }
  - { offset: 0x2EC56, size: 0x8, addend: 0x0, symName: __RINvYINtNtNtCsiTraAjBDcu4_5alloc3vec9into_iter8IntoIterTNtNtCsc29TF2YcYso_3syn4expr10FieldValueNtNtBW_5token5CommaEENtNtNtNtCsaNl6UpbT7bw_4core4iter6traits8iterator8Iterator3mapBR_NCINvNtBW_10punctuated4foldBS_B1v_NtNvCsiSITA57RZ13_15zerofrom_derive25replace_lifetime_and_type20ReplaceLifetimeAndTyNvYB3q_NtNtNtBW_3gen4fold4Fold16fold_field_valueE0EB3u_, symObjAddr: 0x6830, symBinAddr: 0xF628, symSize: 0x34 }
  - { offset: 0x2ECC3, size: 0x8, addend: 0x0, symName: __RINvYINtNtNtCsiTraAjBDcu4_5alloc3vec9into_iter8IntoIterTNtNtCsc29TF2YcYso_3syn4expr4ExprNtNtBW_5token5CommaEENtNtNtNtCsaNl6UpbT7bw_4core4iter6traits8iterator8Iterator3mapBR_NCINvNtBW_10punctuated4foldBS_B1o_NtNvCsiSITA57RZ13_15zerofrom_derive16replace_lifetime15ReplaceLifetimeNvYB3j_NtNtNtBW_3gen4fold4Fold9fold_exprE0EB3n_, symObjAddr: 0x6864, symBinAddr: 0xF65C, symSize: 0x34 }
  - { offset: 0x2ED30, size: 0x8, addend: 0x0, symName: __RINvYINtNtNtCsiTraAjBDcu4_5alloc3vec9into_iter8IntoIterTNtNtCsc29TF2YcYso_3syn4expr4ExprNtNtBW_5token5CommaEENtNtNtNtCsaNl6UpbT7bw_4core4iter6traits8iterator8Iterator3mapBR_NCINvNtBW_10punctuated4foldBS_B1o_NtNvCsiSITA57RZ13_15zerofrom_derive25replace_lifetime_and_type20ReplaceLifetimeAndTyNvYB3j_NtNtNtBW_3gen4fold4Fold9fold_exprE0EB3n_, symObjAddr: 0x6898, symBinAddr: 0xF690, symSize: 0x34 }
  - { offset: 0x2ED9D, size: 0x8, addend: 0x0, symName: __RINvYINtNtNtCsiTraAjBDcu4_5alloc3vec9into_iter8IntoIterTNtNtCsc29TF2YcYso_3syn4item5FnArgNtNtBW_5token5CommaEENtNtNtNtCsaNl6UpbT7bw_4core4iter6traits8iterator8Iterator3mapBR_NCINvNtBW_10punctuated4foldBS_B1p_NtNvCsiSITA57RZ13_15zerofrom_derive16replace_lifetime15ReplaceLifetimeNvYB3k_NtNtNtBW_3gen4fold4Fold11fold_fn_argE0EB3o_, symObjAddr: 0x68CC, symBinAddr: 0xF6C4, symSize: 0x34 }
  - { offset: 0x2EE0A, size: 0x8, addend: 0x0, symName: __RINvYINtNtNtCsiTraAjBDcu4_5alloc3vec9into_iter8IntoIterTNtNtCsc29TF2YcYso_3syn4item5FnArgNtNtBW_5token5CommaEENtNtNtNtCsaNl6UpbT7bw_4core4iter6traits8iterator8Iterator3mapBR_NCINvNtBW_10punctuated4foldBS_B1p_NtNvCsiSITA57RZ13_15zerofrom_derive25replace_lifetime_and_type20ReplaceLifetimeAndTyNvYB3k_NtNtNtBW_3gen4fold4Fold11fold_fn_argE0EB3o_, symObjAddr: 0x6900, symBinAddr: 0xF6F8, symSize: 0x34 }
  - { offset: 0x2EE77, size: 0x8, addend: 0x0, symName: __RINvYINtNtNtCsiTraAjBDcu4_5alloc3vec9into_iter8IntoIterTNtNtCsc29TF2YcYso_3syn4item7UseTreeNtNtBW_5token5CommaEENtNtNtNtCsaNl6UpbT7bw_4core4iter6traits8iterator8Iterator3mapBR_NCINvNtBW_10punctuated4foldBS_B1r_NtNvCsiSITA57RZ13_15zerofrom_derive16replace_lifetime15ReplaceLifetimeNvYB3m_NtNtNtBW_3gen4fold4Fold13fold_use_treeE0EB3q_, symObjAddr: 0x6934, symBinAddr: 0xF72C, symSize: 0x34 }
  - { offset: 0x2EEE4, size: 0x8, addend: 0x0, symName: __RINvYINtNtNtCsiTraAjBDcu4_5alloc3vec9into_iter8IntoIterTNtNtCsc29TF2YcYso_3syn4item7UseTreeNtNtBW_5token5CommaEENtNtNtNtCsaNl6UpbT7bw_4core4iter6traits8iterator8Iterator3mapBR_NCINvNtBW_10punctuated4foldBS_B1r_NtNvCsiSITA57RZ13_15zerofrom_derive25replace_lifetime_and_type20ReplaceLifetimeAndTyNvYB3m_NtNtNtBW_3gen4fold4Fold13fold_use_treeE0EB3q_, symObjAddr: 0x6968, symBinAddr: 0xF760, symSize: 0x34 }
  - { offset: 0x2EF51, size: 0x8, addend: 0x0, symName: __RINvYINtNtNtCsiTraAjBDcu4_5alloc3vec9into_iter8IntoIterTNtNtCsc29TF2YcYso_3syn4path11PathSegmentNtNtBW_5token7PathSepEENtNtNtNtCsaNl6UpbT7bw_4core4iter6traits8iterator8Iterator3mapBR_NCINvNtBW_10punctuated4foldBS_B1w_NtNvCsiSITA57RZ13_15zerofrom_derive16replace_lifetime15ReplaceLifetimeNvYB3t_NtNtNtBW_3gen4fold4Fold17fold_path_segmentE0EB3x_, symObjAddr: 0x699C, symBinAddr: 0xF794, symSize: 0x34 }
  - { offset: 0x2EFBE, size: 0x8, addend: 0x0, symName: __RINvYINtNtNtCsiTraAjBDcu4_5alloc3vec9into_iter8IntoIterTNtNtCsc29TF2YcYso_3syn4path11PathSegmentNtNtBW_5token7PathSepEENtNtNtNtCsaNl6UpbT7bw_4core4iter6traits8iterator8Iterator3mapBR_NCINvNtBW_10punctuated4foldBS_B1w_NtNvCsiSITA57RZ13_15zerofrom_derive25replace_lifetime_and_type20ReplaceLifetimeAndTyNvYB3t_NtNtNtBW_3gen4fold4Fold17fold_path_segmentE0EB3x_, symObjAddr: 0x69D0, symBinAddr: 0xF7C8, symSize: 0x34 }
  - { offset: 0x2F02B, size: 0x8, addend: 0x0, symName: __RINvYINtNtNtCsiTraAjBDcu4_5alloc3vec9into_iter8IntoIterTNtNtCsc29TF2YcYso_3syn4path15GenericArgumentNtNtBW_5token5CommaEENtNtNtNtCsaNl6UpbT7bw_4core4iter6traits8iterator8Iterator3mapBR_NCINvNtBW_10punctuated4foldBS_B1A_NtNvCsiSITA57RZ13_15zerofrom_derive16replace_lifetime15ReplaceLifetimeNvYB3v_NtNtNtBW_3gen4fold4Fold21fold_generic_argumentE0EB3z_, symObjAddr: 0x6A04, symBinAddr: 0xF7FC, symSize: 0x34 }
  - { offset: 0x2F098, size: 0x8, addend: 0x0, symName: __RINvYINtNtNtCsiTraAjBDcu4_5alloc3vec9into_iter8IntoIterTNtNtCsc29TF2YcYso_3syn4path15GenericArgumentNtNtBW_5token5CommaEENtNtNtNtCsaNl6UpbT7bw_4core4iter6traits8iterator8Iterator3mapBR_NCINvNtBW_10punctuated4foldBS_B1A_NtNvCsiSITA57RZ13_15zerofrom_derive25replace_lifetime_and_type20ReplaceLifetimeAndTyNvYB3v_NtNtNtBW_3gen4fold4Fold21fold_generic_argumentE0EB3z_, symObjAddr: 0x6A38, symBinAddr: 0xF830, symSize: 0x34 }
  - { offset: 0x2F105, size: 0x8, addend: 0x0, symName: __RINvYINtNtNtCsiTraAjBDcu4_5alloc3vec9into_iter8IntoIterTNtNtCsc29TF2YcYso_3syn8generics12GenericParamNtNtBW_5token5CommaEENtNtNtNtCsaNl6UpbT7bw_4core4iter6traits8iterator8Iterator3mapBR_NCINvNtBW_10punctuated4foldBS_B1B_NtNvCsiSITA57RZ13_15zerofrom_derive16replace_lifetime15ReplaceLifetimeNvYB3w_NtNtNtBW_3gen4fold4Fold18fold_generic_paramE0EB3A_, symObjAddr: 0x6A6C, symBinAddr: 0xF864, symSize: 0x34 }
  - { offset: 0x2F172, size: 0x8, addend: 0x0, symName: __RINvYINtNtNtCsiTraAjBDcu4_5alloc3vec9into_iter8IntoIterTNtNtCsc29TF2YcYso_3syn8generics12GenericParamNtNtBW_5token5CommaEENtNtNtNtCsaNl6UpbT7bw_4core4iter6traits8iterator8Iterator3mapBR_NCINvNtBW_10punctuated4foldBS_B1B_NtNvCsiSITA57RZ13_15zerofrom_derive25replace_lifetime_and_type20ReplaceLifetimeAndTyNvYB3w_NtNtNtBW_3gen4fold4Fold18fold_generic_paramE0EB3A_, symObjAddr: 0x6AA0, symBinAddr: 0xF898, symSize: 0x34 }
  - { offset: 0x2F1DF, size: 0x8, addend: 0x0, symName: __RINvYINtNtNtCsiTraAjBDcu4_5alloc3vec9into_iter8IntoIterTNtNtCsc29TF2YcYso_3syn8generics13CapturedParamNtNtBW_5token5CommaEENtNtNtNtCsaNl6UpbT7bw_4core4iter6traits8iterator8Iterator3mapBR_NCINvNtBW_10punctuated4foldBS_B1C_NtNvCsiSITA57RZ13_15zerofrom_derive16replace_lifetime15ReplaceLifetimeNvYB3x_NtNtNtBW_3gen4fold4Fold19fold_captured_paramE0EB3B_, symObjAddr: 0x6AD4, symBinAddr: 0xF8CC, symSize: 0x34 }
  - { offset: 0x2F24C, size: 0x8, addend: 0x0, symName: __RINvYINtNtNtCsiTraAjBDcu4_5alloc3vec9into_iter8IntoIterTNtNtCsc29TF2YcYso_3syn8generics13CapturedParamNtNtBW_5token5CommaEENtNtNtNtCsaNl6UpbT7bw_4core4iter6traits8iterator8Iterator3mapBR_NCINvNtBW_10punctuated4foldBS_B1C_NtNvCsiSITA57RZ13_15zerofrom_derive25replace_lifetime_and_type20ReplaceLifetimeAndTyNvYB3x_NtNtNtBW_3gen4fold4Fold19fold_captured_paramE0EB3B_, symObjAddr: 0x6B08, symBinAddr: 0xF900, symSize: 0x34 }
  - { offset: 0x2F2B9, size: 0x8, addend: 0x0, symName: __RINvYINtNtNtCsiTraAjBDcu4_5alloc3vec9into_iter8IntoIterTNtNtCsc29TF2YcYso_3syn8generics14TypeParamBoundNtNtBW_5token4PlusEENtNtNtNtCsaNl6UpbT7bw_4core4iter6traits8iterator8Iterator3mapBR_NCINvNtBW_10punctuated4foldBS_B1D_NtNvCsiSITA57RZ13_15zerofrom_derive16replace_lifetime15ReplaceLifetimeNvYB3x_NtNtNtBW_3gen4fold4Fold21fold_type_param_boundE0EB3B_, symObjAddr: 0x6B3C, symBinAddr: 0xF934, symSize: 0x34 }
  - { offset: 0x2F326, size: 0x8, addend: 0x0, symName: __RINvYINtNtNtCsiTraAjBDcu4_5alloc3vec9into_iter8IntoIterTNtNtCsc29TF2YcYso_3syn8generics14TypeParamBoundNtNtBW_5token4PlusEENtNtNtNtCsaNl6UpbT7bw_4core4iter6traits8iterator8Iterator3mapBR_NCINvNtBW_10punctuated4foldBS_B1D_NtNvCsiSITA57RZ13_15zerofrom_derive25replace_lifetime_and_type20ReplaceLifetimeAndTyNvYB3x_NtNtNtBW_3gen4fold4Fold21fold_type_param_boundE0EB3B_, symObjAddr: 0x6B70, symBinAddr: 0xF968, symSize: 0x34 }
  - { offset: 0x2F393, size: 0x8, addend: 0x0, symName: __RINvYINtNtNtCsiTraAjBDcu4_5alloc3vec9into_iter8IntoIterTNtNtCsc29TF2YcYso_3syn8generics14WherePredicateNtNtBW_5token5CommaEENtNtNtNtCsaNl6UpbT7bw_4core4iter6traits8iterator8Iterator3mapBR_NCINvNtBW_10punctuated4foldBS_B1D_NtNvCsiSITA57RZ13_15zerofrom_derive16replace_lifetime15ReplaceLifetimeNvYB3y_NtNtNtBW_3gen4fold4Fold20fold_where_predicateE0EB3C_, symObjAddr: 0x6BA4, symBinAddr: 0xF99C, symSize: 0x34 }
  - { offset: 0x2F400, size: 0x8, addend: 0x0, symName: __RINvYINtNtNtCsiTraAjBDcu4_5alloc3vec9into_iter8IntoIterTNtNtCsc29TF2YcYso_3syn8generics14WherePredicateNtNtBW_5token5CommaEENtNtNtNtCsaNl6UpbT7bw_4core4iter6traits8iterator8Iterator3mapBR_NCINvNtBW_10punctuated4foldBS_B1D_NtNvCsiSITA57RZ13_15zerofrom_derive25replace_lifetime_and_type20ReplaceLifetimeAndTyNvYB3y_NtNtNtBW_3gen4fold4Fold20fold_where_predicateE0EB3C_, symObjAddr: 0x6BD8, symBinAddr: 0xF9D0, symSize: 0x34 }
  - { offset: 0x2F46D, size: 0x8, addend: 0x0, symName: __RINvYINtNtNtCsiTraAjBDcu4_5alloc3vec9into_iter8IntoIterTNtNtCsc29TF2YcYso_3syn8lifetime8LifetimeNtNtBW_5token4PlusEENtNtNtNtCsaNl6UpbT7bw_4core4iter6traits8iterator8Iterator3mapBR_NCINvNtBW_10punctuated4foldBS_B1w_NtNvCsiSITA57RZ13_15zerofrom_derive16replace_lifetime15ReplaceLifetimeNvYB3q_NtNtNtBW_3gen4fold4Fold13fold_lifetimeE0EB3u_, symObjAddr: 0x6C0C, symBinAddr: 0xFA04, symSize: 0x34 }
  - { offset: 0x2F4DA, size: 0x8, addend: 0x0, symName: __RINvYINtNtNtCsiTraAjBDcu4_5alloc3vec9into_iter8IntoIterTNtNtCsc29TF2YcYso_3syn8lifetime8LifetimeNtNtBW_5token4PlusEENtNtNtNtCsaNl6UpbT7bw_4core4iter6traits8iterator8Iterator3mapBR_NCINvNtBW_10punctuated4foldBS_B1w_NtNvCsiSITA57RZ13_15zerofrom_derive25replace_lifetime_and_type20ReplaceLifetimeAndTyNvYB3q_NtNtNtBW_3gen4fold4Fold13fold_lifetimeE0EB3u_, symObjAddr: 0x6C40, symBinAddr: 0xFA38, symSize: 0x34 }
  - { offset: 0x2FC68, size: 0x8, addend: 0x0, symName: __RNvYINtNtNtCsiTraAjBDcu4_5alloc3vec9into_iter8IntoIterNtCshnvkK9b4wzu_11proc_macro25IdentENtNtNtNtCsaNl6UpbT7bw_4core4iter6traits10exact_size17ExactSizeIterator3lenCsiSITA57RZ13_15zerofrom_derive, symObjAddr: 0xA478, symBinAddr: 0x13270, symSize: 0xC4 }
  - { offset: 0x2FD63, size: 0x8, addend: 0x0, symName: __RNvYINtNtNtCsiTraAjBDcu4_5alloc3vec9into_iter8IntoIterNtNtCsc29TF2YcYso_3syn4expr3ArmENtNtNtNtCsaNl6UpbT7bw_4core4iter6traits10exact_size17ExactSizeIterator3lenCsiSITA57RZ13_15zerofrom_derive, symObjAddr: 0xA53C, symBinAddr: 0x13334, symSize: 0xC4 }
  - { offset: 0x2FE5E, size: 0x8, addend: 0x0, symName: __RNvYINtNtNtCsiTraAjBDcu4_5alloc3vec9into_iter8IntoIterNtNtCsc29TF2YcYso_3syn4item11ForeignItemENtNtNtNtCsaNl6UpbT7bw_4core4iter6traits10exact_size17ExactSizeIterator3lenCsiSITA57RZ13_15zerofrom_derive, symObjAddr: 0xA600, symBinAddr: 0x133F8, symSize: 0xC4 }
  - { offset: 0x2FF59, size: 0x8, addend: 0x0, symName: __RNvYINtNtNtCsiTraAjBDcu4_5alloc3vec9into_iter8IntoIterNtNtCsc29TF2YcYso_3syn4item4ItemENtNtNtNtCsaNl6UpbT7bw_4core4iter6traits10exact_size17ExactSizeIterator3lenCsiSITA57RZ13_15zerofrom_derive, symObjAddr: 0xA6C4, symBinAddr: 0x134BC, symSize: 0xC4 }
  - { offset: 0x30054, size: 0x8, addend: 0x0, symName: __RNvYINtNtNtCsiTraAjBDcu4_5alloc3vec9into_iter8IntoIterNtNtCsc29TF2YcYso_3syn4item8ImplItemENtNtNtNtCsaNl6UpbT7bw_4core4iter6traits10exact_size17ExactSizeIterator3lenCsiSITA57RZ13_15zerofrom_derive, symObjAddr: 0xA788, symBinAddr: 0x13580, symSize: 0xC4 }
  - { offset: 0x3014F, size: 0x8, addend: 0x0, symName: __RNvYINtNtNtCsiTraAjBDcu4_5alloc3vec9into_iter8IntoIterNtNtCsc29TF2YcYso_3syn4item9TraitItemENtNtNtNtCsaNl6UpbT7bw_4core4iter6traits10exact_size17ExactSizeIterator3lenCsiSITA57RZ13_15zerofrom_derive, symObjAddr: 0xA84C, symBinAddr: 0x13644, symSize: 0xC4 }
  - { offset: 0x3024A, size: 0x8, addend: 0x0, symName: __RNvYINtNtNtCsiTraAjBDcu4_5alloc3vec9into_iter8IntoIterNtNtCsc29TF2YcYso_3syn4stmt4StmtENtNtNtNtCsaNl6UpbT7bw_4core4iter6traits10exact_size17ExactSizeIterator3lenCsiSITA57RZ13_15zerofrom_derive, symObjAddr: 0xA910, symBinAddr: 0x13708, symSize: 0xC4 }
  - { offset: 0x30345, size: 0x8, addend: 0x0, symName: __RNvYINtNtNtCsiTraAjBDcu4_5alloc3vec9into_iter8IntoIterTNtCshnvkK9b4wzu_11proc_macro25IdentNtNtCsc29TF2YcYso_3syn5token5CommaEENtNtNtNtCsaNl6UpbT7bw_4core4iter6traits10exact_size17ExactSizeIterator3lenCsiSITA57RZ13_15zerofrom_derive, symObjAddr: 0xA9D4, symBinAddr: 0x137CC, symSize: 0xC4 }
  - { offset: 0x30440, size: 0x8, addend: 0x0, symName: __RNvYINtNtNtCsiTraAjBDcu4_5alloc3vec9into_iter8IntoIterTNtNtCsc29TF2YcYso_3syn2ty4TypeNtNtBV_5token5CommaEENtNtNtNtCsaNl6UpbT7bw_4core4iter6traits10exact_size17ExactSizeIterator3lenCsiSITA57RZ13_15zerofrom_derive, symObjAddr: 0xAA98, symBinAddr: 0x13890, symSize: 0xC4 }
  - { offset: 0x3053B, size: 0x8, addend: 0x0, symName: __RNvYINtNtNtCsiTraAjBDcu4_5alloc3vec9into_iter8IntoIterTNtNtCsc29TF2YcYso_3syn2ty9BareFnArgNtNtBV_5token5CommaEENtNtNtNtCsaNl6UpbT7bw_4core4iter6traits10exact_size17ExactSizeIterator3lenCsiSITA57RZ13_15zerofrom_derive, symObjAddr: 0xAB5C, symBinAddr: 0x13954, symSize: 0xC4 }
  - { offset: 0x30636, size: 0x8, addend: 0x0, symName: __RNvYINtNtNtCsiTraAjBDcu4_5alloc3vec9into_iter8IntoIterTNtNtCsc29TF2YcYso_3syn3pat3PatNtNtBV_5token2OrEENtNtNtNtCsaNl6UpbT7bw_4core4iter6traits10exact_size17ExactSizeIterator3lenCsiSITA57RZ13_15zerofrom_derive, symObjAddr: 0xAC20, symBinAddr: 0x13A18, symSize: 0xC4 }
  - { offset: 0x30731, size: 0x8, addend: 0x0, symName: __RNvYINtNtNtCsiTraAjBDcu4_5alloc3vec9into_iter8IntoIterTNtNtCsc29TF2YcYso_3syn3pat3PatNtNtBV_5token5CommaEENtNtNtNtCsaNl6UpbT7bw_4core4iter6traits10exact_size17ExactSizeIterator3lenCsiSITA57RZ13_15zerofrom_derive, symObjAddr: 0xACE4, symBinAddr: 0x13ADC, symSize: 0xC4 }
  - { offset: 0x3082C, size: 0x8, addend: 0x0, symName: __RNvYINtNtNtCsiTraAjBDcu4_5alloc3vec9into_iter8IntoIterTNtNtCsc29TF2YcYso_3syn3pat8FieldPatNtNtBV_5token5CommaEENtNtNtNtCsaNl6UpbT7bw_4core4iter6traits10exact_size17ExactSizeIterator3lenCsiSITA57RZ13_15zerofrom_derive, symObjAddr: 0xADA8, symBinAddr: 0x13BA0, symSize: 0xC4 }
  - { offset: 0x30927, size: 0x8, addend: 0x0, symName: __RNvYINtNtNtCsiTraAjBDcu4_5alloc3vec9into_iter8IntoIterTNtNtCsc29TF2YcYso_3syn4data7VariantNtNtBV_5token5CommaEENtNtNtNtCsaNl6UpbT7bw_4core4iter6traits10exact_size17ExactSizeIterator3lenCsiSITA57RZ13_15zerofrom_derive, symObjAddr: 0xAE6C, symBinAddr: 0x13C64, symSize: 0xC4 }
  - { offset: 0x30A22, size: 0x8, addend: 0x0, symName: __RNvYINtNtNtCsiTraAjBDcu4_5alloc3vec9into_iter8IntoIterTNtNtCsc29TF2YcYso_3syn4expr10FieldValueNtNtBV_5token5CommaEENtNtNtNtCsaNl6UpbT7bw_4core4iter6traits10exact_size17ExactSizeIterator3lenCsiSITA57RZ13_15zerofrom_derive, symObjAddr: 0xAF30, symBinAddr: 0x13D28, symSize: 0xC4 }
  - { offset: 0x30B1D, size: 0x8, addend: 0x0, symName: __RNvYINtNtNtCsiTraAjBDcu4_5alloc3vec9into_iter8IntoIterTNtNtCsc29TF2YcYso_3syn4expr4ExprNtNtBV_5token5CommaEENtNtNtNtCsaNl6UpbT7bw_4core4iter6traits10exact_size17ExactSizeIterator3lenCsiSITA57RZ13_15zerofrom_derive, symObjAddr: 0xAFF4, symBinAddr: 0x13DEC, symSize: 0xC4 }
  - { offset: 0x30C18, size: 0x8, addend: 0x0, symName: __RNvYINtNtNtCsiTraAjBDcu4_5alloc3vec9into_iter8IntoIterTNtNtCsc29TF2YcYso_3syn4item5FnArgNtNtBV_5token5CommaEENtNtNtNtCsaNl6UpbT7bw_4core4iter6traits10exact_size17ExactSizeIterator3lenCsiSITA57RZ13_15zerofrom_derive, symObjAddr: 0xB0B8, symBinAddr: 0x13EB0, symSize: 0xC4 }
  - { offset: 0x30D13, size: 0x8, addend: 0x0, symName: __RNvYINtNtNtCsiTraAjBDcu4_5alloc3vec9into_iter8IntoIterTNtNtCsc29TF2YcYso_3syn4item7UseTreeNtNtBV_5token5CommaEENtNtNtNtCsaNl6UpbT7bw_4core4iter6traits10exact_size17ExactSizeIterator3lenCsiSITA57RZ13_15zerofrom_derive, symObjAddr: 0xB17C, symBinAddr: 0x13F74, symSize: 0xC4 }
  - { offset: 0x30E0E, size: 0x8, addend: 0x0, symName: __RNvYINtNtNtCsiTraAjBDcu4_5alloc3vec9into_iter8IntoIterTNtNtCsc29TF2YcYso_3syn4path15GenericArgumentNtNtBV_5token5CommaEENtNtNtNtCsaNl6UpbT7bw_4core4iter6traits10exact_size17ExactSizeIterator3lenCsiSITA57RZ13_15zerofrom_derive, symObjAddr: 0xB240, symBinAddr: 0x14038, symSize: 0xC4 }
  - { offset: 0x30F09, size: 0x8, addend: 0x0, symName: __RNvYINtNtNtCsiTraAjBDcu4_5alloc3vec9into_iter8IntoIterTNtNtCsc29TF2YcYso_3syn8generics12GenericParamNtNtBV_5token5CommaEENtNtNtNtCsaNl6UpbT7bw_4core4iter6traits10exact_size17ExactSizeIterator3lenCsiSITA57RZ13_15zerofrom_derive, symObjAddr: 0xB304, symBinAddr: 0x140FC, symSize: 0xC4 }
  - { offset: 0x31004, size: 0x8, addend: 0x0, symName: __RNvYINtNtNtCsiTraAjBDcu4_5alloc3vec9into_iter8IntoIterTNtNtCsc29TF2YcYso_3syn8generics13CapturedParamNtNtBV_5token5CommaEENtNtNtNtCsaNl6UpbT7bw_4core4iter6traits10exact_size17ExactSizeIterator3lenCsiSITA57RZ13_15zerofrom_derive, symObjAddr: 0xB3C8, symBinAddr: 0x141C0, symSize: 0xC4 }
  - { offset: 0x310FF, size: 0x8, addend: 0x0, symName: __RNvYINtNtNtCsiTraAjBDcu4_5alloc3vec9into_iter8IntoIterTNtNtCsc29TF2YcYso_3syn8generics14WherePredicateNtNtBV_5token5CommaEENtNtNtNtCsaNl6UpbT7bw_4core4iter6traits10exact_size17ExactSizeIterator3lenCsiSITA57RZ13_15zerofrom_derive, symObjAddr: 0xB48C, symBinAddr: 0x14284, symSize: 0xC4 }
  - { offset: 0x311FA, size: 0x8, addend: 0x0, symName: __RNvYINtNtNtCsiTraAjBDcu4_5alloc3vec9into_iter8IntoIterTNtNtCsc29TF2YcYso_3syn8lifetime8LifetimeNtNtBV_5token4PlusEENtNtNtNtCsaNl6UpbT7bw_4core4iter6traits10exact_size17ExactSizeIterator3lenCsiSITA57RZ13_15zerofrom_derive, symObjAddr: 0xB550, symBinAddr: 0x14348, symSize: 0xC4 }
  - { offset: 0x37760, size: 0x8, addend: 0x0, symName: __RINvXs3_NtNtCsiTraAjBDcu4_5alloc3vec9into_iterINtB6_8IntoIterNtNtCsc29TF2YcYso_3syn4attr9AttributeENtNtNtNtCsaNl6UpbT7bw_4core4iter6traits8iterator8Iterator8try_foldINtNtB8_13in_place_drop11InPlaceDropBX_ENCINvNtNtB1F_8adapters3map12map_try_foldBX_BX_B2D_INtNtB1H_6result6ResultB2D_zENCINvNtNtB11_3gen4fold8fold_vecBX_NtNvCsiSITA57RZ13_15zerofrom_derive16replace_lifetime15ReplaceLifetimeNvYB56_NtB4D_4Fold14fold_attributeE0NCINvNtB8_16in_place_collect24write_in_place_with_dropBX_E0E0B45_EB5a_, symObjAddr: 0x0, symBinAddr: 0x8DF8, symSize: 0x1F0 }
  - { offset: 0x37942, size: 0x8, addend: 0x0, symName: __RINvXs3_NtNtCsiTraAjBDcu4_5alloc3vec9into_iterINtB6_8IntoIterNtNtCsc29TF2YcYso_3syn4attr9AttributeENtNtNtNtCsaNl6UpbT7bw_4core4iter6traits8iterator8Iterator8try_foldINtNtB8_13in_place_drop11InPlaceDropBX_ENCINvNtNtB1F_8adapters3map12map_try_foldBX_BX_B2D_INtNtB1H_6result6ResultB2D_zENCINvNtNtB11_3gen4fold8fold_vecBX_NtNvCsiSITA57RZ13_15zerofrom_derive25replace_lifetime_and_type20ReplaceLifetimeAndTyNvYB56_NtB4D_4Fold14fold_attributeE0NCINvNtB8_16in_place_collect24write_in_place_with_dropBX_E0E0B45_EB5a_, symObjAddr: 0x1F0, symBinAddr: 0x8FE8, symSize: 0x1F0 }
  - { offset: 0x37B24, size: 0x8, addend: 0x0, symName: __RINvXs3_NtNtCsiTraAjBDcu4_5alloc3vec9into_iterINtB6_8IntoIterNtNtCsc29TF2YcYso_3syn4expr3ArmENtNtNtNtCsaNl6UpbT7bw_4core4iter6traits8iterator8Iterator8try_foldINtNtB8_13in_place_drop11InPlaceDropBX_ENCINvNtNtB1z_8adapters3map12map_try_foldBX_BX_B2x_INtNtB1B_6result6ResultB2x_zENCINvNtNtB11_3gen4fold8fold_vecBX_NtNvCsiSITA57RZ13_15zerofrom_derive16replace_lifetime15ReplaceLifetimeNvYB50_NtB4x_4Fold8fold_armE0NCINvNtB8_16in_place_collect24write_in_place_with_dropBX_E0E0B3Z_EB54_, symObjAddr: 0x3E0, symBinAddr: 0x91D8, symSize: 0x1F0 }
  - { offset: 0x37D06, size: 0x8, addend: 0x0, symName: __RINvXs3_NtNtCsiTraAjBDcu4_5alloc3vec9into_iterINtB6_8IntoIterNtNtCsc29TF2YcYso_3syn4expr3ArmENtNtNtNtCsaNl6UpbT7bw_4core4iter6traits8iterator8Iterator8try_foldINtNtB8_13in_place_drop11InPlaceDropBX_ENCINvNtNtB1z_8adapters3map12map_try_foldBX_BX_B2x_INtNtB1B_6result6ResultB2x_zENCINvNtNtB11_3gen4fold8fold_vecBX_NtNvCsiSITA57RZ13_15zerofrom_derive25replace_lifetime_and_type20ReplaceLifetimeAndTyNvYB50_NtB4x_4Fold8fold_armE0NCINvNtB8_16in_place_collect24write_in_place_with_dropBX_E0E0B3Z_EB54_, symObjAddr: 0x5D0, symBinAddr: 0x93C8, symSize: 0x1F0 }
  - { offset: 0x37EE8, size: 0x8, addend: 0x0, symName: __RINvXs3_NtNtCsiTraAjBDcu4_5alloc3vec9into_iterINtB6_8IntoIterNtNtCsc29TF2YcYso_3syn4item11ForeignItemENtNtNtNtCsaNl6UpbT7bw_4core4iter6traits8iterator8Iterator8try_foldINtNtB8_13in_place_drop11InPlaceDropBX_ENCINvNtNtB1I_8adapters3map12map_try_foldBX_BX_B2G_INtNtB1K_6result6ResultB2G_zENCINvNtNtB11_3gen4fold8fold_vecBX_NtNvCsiSITA57RZ13_15zerofrom_derive16replace_lifetime15ReplaceLifetimeNvYB59_NtB4G_4Fold17fold_foreign_itemE0NCINvNtB8_16in_place_collect24write_in_place_with_dropBX_E0E0B48_EB5d_, symObjAddr: 0x7C0, symBinAddr: 0x95B8, symSize: 0x1F0 }
  - { offset: 0x380CA, size: 0x8, addend: 0x0, symName: __RINvXs3_NtNtCsiTraAjBDcu4_5alloc3vec9into_iterINtB6_8IntoIterNtNtCsc29TF2YcYso_3syn4item11ForeignItemENtNtNtNtCsaNl6UpbT7bw_4core4iter6traits8iterator8Iterator8try_foldINtNtB8_13in_place_drop11InPlaceDropBX_ENCINvNtNtB1I_8adapters3map12map_try_foldBX_BX_B2G_INtNtB1K_6result6ResultB2G_zENCINvNtNtB11_3gen4fold8fold_vecBX_NtNvCsiSITA57RZ13_15zerofrom_derive25replace_lifetime_and_type20ReplaceLifetimeAndTyNvYB59_NtB4G_4Fold17fold_foreign_itemE0NCINvNtB8_16in_place_collect24write_in_place_with_dropBX_E0E0B48_EB5d_, symObjAddr: 0x9B0, symBinAddr: 0x97A8, symSize: 0x1F0 }
  - { offset: 0x382AC, size: 0x8, addend: 0x0, symName: __RINvXs3_NtNtCsiTraAjBDcu4_5alloc3vec9into_iterINtB6_8IntoIterNtNtCsc29TF2YcYso_3syn4item4ItemENtNtNtNtCsaNl6UpbT7bw_4core4iter6traits8iterator8Iterator8try_foldINtNtB8_13in_place_drop11InPlaceDropBX_ENCINvNtNtB1A_8adapters3map12map_try_foldBX_BX_B2y_INtNtB1C_6result6ResultB2y_zENCINvNtNtB11_3gen4fold8fold_vecBX_NtNvCsiSITA57RZ13_15zerofrom_derive16replace_lifetime15ReplaceLifetimeNvYB51_NtB4y_4Fold9fold_itemE0NCINvNtB8_16in_place_collect24write_in_place_with_dropBX_E0E0B40_EB55_, symObjAddr: 0xBA0, symBinAddr: 0x9998, symSize: 0x1F0 }
  - { offset: 0x3848E, size: 0x8, addend: 0x0, symName: __RINvXs3_NtNtCsiTraAjBDcu4_5alloc3vec9into_iterINtB6_8IntoIterNtNtCsc29TF2YcYso_3syn4item4ItemENtNtNtNtCsaNl6UpbT7bw_4core4iter6traits8iterator8Iterator8try_foldINtNtB8_13in_place_drop11InPlaceDropBX_ENCINvNtNtB1A_8adapters3map12map_try_foldBX_BX_B2y_INtNtB1C_6result6ResultB2y_zENCINvNtNtB11_3gen4fold8fold_vecBX_NtNvCsiSITA57RZ13_15zerofrom_derive25replace_lifetime_and_type20ReplaceLifetimeAndTyNvYB51_NtB4y_4Fold9fold_itemE0NCINvNtB8_16in_place_collect24write_in_place_with_dropBX_E0E0B40_EB55_, symObjAddr: 0xD90, symBinAddr: 0x9B88, symSize: 0x1F0 }
  - { offset: 0x38670, size: 0x8, addend: 0x0, symName: __RINvXs3_NtNtCsiTraAjBDcu4_5alloc3vec9into_iterINtB6_8IntoIterNtNtCsc29TF2YcYso_3syn4item8ImplItemENtNtNtNtCsaNl6UpbT7bw_4core4iter6traits8iterator8Iterator8try_foldINtNtB8_13in_place_drop11InPlaceDropBX_ENCINvNtNtB1E_8adapters3map12map_try_foldBX_BX_B2C_INtNtB1G_6result6ResultB2C_zENCINvNtNtB11_3gen4fold8fold_vecBX_NtNvCsiSITA57RZ13_15zerofrom_derive16replace_lifetime15ReplaceLifetimeNvYB55_NtB4C_4Fold14fold_impl_itemE0NCINvNtB8_16in_place_collect24write_in_place_with_dropBX_E0E0B44_EB59_, symObjAddr: 0xF80, symBinAddr: 0x9D78, symSize: 0x1F4 }
  - { offset: 0x38852, size: 0x8, addend: 0x0, symName: __RINvXs3_NtNtCsiTraAjBDcu4_5alloc3vec9into_iterINtB6_8IntoIterNtNtCsc29TF2YcYso_3syn4item8ImplItemENtNtNtNtCsaNl6UpbT7bw_4core4iter6traits8iterator8Iterator8try_foldINtNtB8_13in_place_drop11InPlaceDropBX_ENCINvNtNtB1E_8adapters3map12map_try_foldBX_BX_B2C_INtNtB1G_6result6ResultB2C_zENCINvNtNtB11_3gen4fold8fold_vecBX_NtNvCsiSITA57RZ13_15zerofrom_derive25replace_lifetime_and_type20ReplaceLifetimeAndTyNvYB55_NtB4C_4Fold14fold_impl_itemE0NCINvNtB8_16in_place_collect24write_in_place_with_dropBX_E0E0B44_EB59_, symObjAddr: 0x1174, symBinAddr: 0x9F6C, symSize: 0x1F4 }
  - { offset: 0x38A34, size: 0x8, addend: 0x0, symName: __RINvXs3_NtNtCsiTraAjBDcu4_5alloc3vec9into_iterINtB6_8IntoIterNtNtCsc29TF2YcYso_3syn4item9TraitItemENtNtNtNtCsaNl6UpbT7bw_4core4iter6traits8iterator8Iterator8try_foldINtNtB8_13in_place_drop11InPlaceDropBX_ENCINvNtNtB1F_8adapters3map12map_try_foldBX_BX_B2D_INtNtB1H_6result6ResultB2D_zENCINvNtNtB11_3gen4fold8fold_vecBX_NtNvCsiSITA57RZ13_15zerofrom_derive16replace_lifetime15ReplaceLifetimeNvYB56_NtB4D_4Fold15fold_trait_itemE0NCINvNtB8_16in_place_collect24write_in_place_with_dropBX_E0E0B45_EB5a_, symObjAddr: 0x1368, symBinAddr: 0xA160, symSize: 0x1F4 }
  - { offset: 0x38C16, size: 0x8, addend: 0x0, symName: __RINvXs3_NtNtCsiTraAjBDcu4_5alloc3vec9into_iterINtB6_8IntoIterNtNtCsc29TF2YcYso_3syn4item9TraitItemENtNtNtNtCsaNl6UpbT7bw_4core4iter6traits8iterator8Iterator8try_foldINtNtB8_13in_place_drop11InPlaceDropBX_ENCINvNtNtB1F_8adapters3map12map_try_foldBX_BX_B2D_INtNtB1H_6result6ResultB2D_zENCINvNtNtB11_3gen4fold8fold_vecBX_NtNvCsiSITA57RZ13_15zerofrom_derive25replace_lifetime_and_type20ReplaceLifetimeAndTyNvYB56_NtB4D_4Fold15fold_trait_itemE0NCINvNtB8_16in_place_collect24write_in_place_with_dropBX_E0E0B45_EB5a_, symObjAddr: 0x155C, symBinAddr: 0xA354, symSize: 0x1F4 }
  - { offset: 0x38DF8, size: 0x8, addend: 0x0, symName: __RINvXs3_NtNtCsiTraAjBDcu4_5alloc3vec9into_iterINtB6_8IntoIterNtNtCsc29TF2YcYso_3syn4stmt4StmtENtNtNtNtCsaNl6UpbT7bw_4core4iter6traits8iterator8Iterator8try_foldINtNtB8_13in_place_drop11InPlaceDropBX_ENCINvNtNtB1A_8adapters3map12map_try_foldBX_BX_B2y_INtNtB1C_6result6ResultB2y_zENCINvNtNtB11_3gen4fold8fold_vecBX_NtNvCsiSITA57RZ13_15zerofrom_derive16replace_lifetime15ReplaceLifetimeNvYB51_NtB4y_4Fold9fold_stmtE0NCINvNtB8_16in_place_collect24write_in_place_with_dropBX_E0E0B40_EB55_, symObjAddr: 0x1750, symBinAddr: 0xA548, symSize: 0x1F0 }
  - { offset: 0x38FDA, size: 0x8, addend: 0x0, symName: __RINvXs3_NtNtCsiTraAjBDcu4_5alloc3vec9into_iterINtB6_8IntoIterNtNtCsc29TF2YcYso_3syn4stmt4StmtENtNtNtNtCsaNl6UpbT7bw_4core4iter6traits8iterator8Iterator8try_foldINtNtB8_13in_place_drop11InPlaceDropBX_ENCINvNtNtB1A_8adapters3map12map_try_foldBX_BX_B2y_INtNtB1C_6result6ResultB2y_zENCINvNtNtB11_3gen4fold8fold_vecBX_NtNvCsiSITA57RZ13_15zerofrom_derive25replace_lifetime_and_type20ReplaceLifetimeAndTyNvYB51_NtB4y_4Fold9fold_stmtE0NCINvNtB8_16in_place_collect24write_in_place_with_dropBX_E0E0B40_EB55_, symObjAddr: 0x1940, symBinAddr: 0xA738, symSize: 0x1F0 }
  - { offset: 0x391BC, size: 0x8, addend: 0x0, symName: __RINvXs3_NtNtCsiTraAjBDcu4_5alloc3vec9into_iterINtB6_8IntoIterTNtCshnvkK9b4wzu_11proc_macro25IdentNtNtCsc29TF2YcYso_3syn5token5CommaEENtNtNtNtCsaNl6UpbT7bw_4core4iter6traits8iterator8Iterator4folduNCINvNtNtB2d_8adapters3map8map_foldBX_BY_uNCNvXs8_NtB1B_10punctuatedINtB3W_10PunctuatedBY_B1x_ENtNtB2b_7collect12IntoIterator9into_iter0NCINvNvB27_8for_each4callBY_NCINvMsi_B8_INtB8_3VecBY_E14extend_trustedINtB3d_3MapBI_B3O_EE0E0E0ECsiSITA57RZ13_15zerofrom_derive, symObjAddr: 0x1B30, symBinAddr: 0xA928, symSize: 0x138 }
  - { offset: 0x3938A, size: 0x8, addend: 0x0, symName: __RINvXs3_NtNtCsiTraAjBDcu4_5alloc3vec9into_iterINtB6_8IntoIterTNtNtCsc29TF2YcYso_3syn2ty4TypeNtNtB12_5token5CommaEENtNtNtNtCsaNl6UpbT7bw_4core4iter6traits8iterator8Iterator8try_foldINtNtB8_13in_place_drop11InPlaceDropBX_ENCINvNtNtB1U_8adapters3map12map_try_foldBX_BX_B2S_INtNtB1W_6result6ResultB2S_zENCINvNtB12_10punctuated4foldBY_B1s_NtNvCsiSITA57RZ13_15zerofrom_derive16replace_lifetime15ReplaceLifetimeNvYB5m_NtNtNtB12_3gen4fold4Fold9fold_typeE0NCINvNtB8_16in_place_collect24write_in_place_with_dropBX_E0E0B4k_EB5q_, symObjAddr: 0x1C68, symBinAddr: 0xAA60, symSize: 0x1F0 }
  - { offset: 0x3956C, size: 0x8, addend: 0x0, symName: __RINvXs3_NtNtCsiTraAjBDcu4_5alloc3vec9into_iterINtB6_8IntoIterTNtNtCsc29TF2YcYso_3syn2ty4TypeNtNtB12_5token5CommaEENtNtNtNtCsaNl6UpbT7bw_4core4iter6traits8iterator8Iterator8try_foldINtNtB8_13in_place_drop11InPlaceDropBX_ENCINvNtNtB1U_8adapters3map12map_try_foldBX_BX_B2S_INtNtB1W_6result6ResultB2S_zENCINvNtB12_10punctuated4foldBY_B1s_NtNvCsiSITA57RZ13_15zerofrom_derive25replace_lifetime_and_type20ReplaceLifetimeAndTyNvYB5m_NtNtNtB12_3gen4fold4Fold9fold_typeE0NCINvNtB8_16in_place_collect24write_in_place_with_dropBX_E0E0B4k_EB5q_, symObjAddr: 0x1E58, symBinAddr: 0xAC50, symSize: 0x1F0 }
  - { offset: 0x3974E, size: 0x8, addend: 0x0, symName: __RINvXs3_NtNtCsiTraAjBDcu4_5alloc3vec9into_iterINtB6_8IntoIterTNtNtCsc29TF2YcYso_3syn2ty9BareFnArgNtNtB12_5token5CommaEENtNtNtNtCsaNl6UpbT7bw_4core4iter6traits8iterator8Iterator8try_foldINtNtB8_13in_place_drop11InPlaceDropBX_ENCINvNtNtB1Z_8adapters3map12map_try_foldBX_BX_B2X_INtNtB21_6result6ResultB2X_zENCINvNtB12_10punctuated4foldBY_B1x_NtNvCsiSITA57RZ13_15zerofrom_derive16replace_lifetime15ReplaceLifetimeNvYB5r_NtNtNtB12_3gen4fold4Fold16fold_bare_fn_argE0NCINvNtB8_16in_place_collect24write_in_place_with_dropBX_E0E0B4p_EB5v_, symObjAddr: 0x2048, symBinAddr: 0xAE40, symSize: 0x1F0 }
  - { offset: 0x39930, size: 0x8, addend: 0x0, symName: __RINvXs3_NtNtCsiTraAjBDcu4_5alloc3vec9into_iterINtB6_8IntoIterTNtNtCsc29TF2YcYso_3syn2ty9BareFnArgNtNtB12_5token5CommaEENtNtNtNtCsaNl6UpbT7bw_4core4iter6traits8iterator8Iterator8try_foldINtNtB8_13in_place_drop11InPlaceDropBX_ENCINvNtNtB1Z_8adapters3map12map_try_foldBX_BX_B2X_INtNtB21_6result6ResultB2X_zENCINvNtB12_10punctuated4foldBY_B1x_NtNvCsiSITA57RZ13_15zerofrom_derive25replace_lifetime_and_type20ReplaceLifetimeAndTyNvYB5r_NtNtNtB12_3gen4fold4Fold16fold_bare_fn_argE0NCINvNtB8_16in_place_collect24write_in_place_with_dropBX_E0E0B4p_EB5v_, symObjAddr: 0x2238, symBinAddr: 0xB030, symSize: 0x1F0 }
  - { offset: 0x39B12, size: 0x8, addend: 0x0, symName: __RINvXs3_NtNtCsiTraAjBDcu4_5alloc3vec9into_iterINtB6_8IntoIterTNtNtCsc29TF2YcYso_3syn3pat3PatNtNtB12_5token2OrEENtNtNtNtCsaNl6UpbT7bw_4core4iter6traits8iterator8Iterator8try_foldINtNtB8_13in_place_drop11InPlaceDropBX_ENCINvNtNtB1R_8adapters3map12map_try_foldBX_BX_B2P_INtNtB1T_6result6ResultB2P_zENCINvNtB12_10punctuated4foldBY_B1s_NtNvCsiSITA57RZ13_15zerofrom_derive16replace_lifetime15ReplaceLifetimeNvYB5j_NtNtNtB12_3gen4fold4Fold8fold_patE0NCINvNtB8_16in_place_collect24write_in_place_with_dropBX_E0E0B4h_EB5n_, symObjAddr: 0x2428, symBinAddr: 0xB220, symSize: 0x1F0 }
  - { offset: 0x39CF4, size: 0x8, addend: 0x0, symName: __RINvXs3_NtNtCsiTraAjBDcu4_5alloc3vec9into_iterINtB6_8IntoIterTNtNtCsc29TF2YcYso_3syn3pat3PatNtNtB12_5token2OrEENtNtNtNtCsaNl6UpbT7bw_4core4iter6traits8iterator8Iterator8try_foldINtNtB8_13in_place_drop11InPlaceDropBX_ENCINvNtNtB1R_8adapters3map12map_try_foldBX_BX_B2P_INtNtB1T_6result6ResultB2P_zENCINvNtB12_10punctuated4foldBY_B1s_NtNvCsiSITA57RZ13_15zerofrom_derive25replace_lifetime_and_type20ReplaceLifetimeAndTyNvYB5j_NtNtNtB12_3gen4fold4Fold8fold_patE0NCINvNtB8_16in_place_collect24write_in_place_with_dropBX_E0E0B4h_EB5n_, symObjAddr: 0x2618, symBinAddr: 0xB410, symSize: 0x1F0 }
  - { offset: 0x39ED6, size: 0x8, addend: 0x0, symName: __RINvXs3_NtNtCsiTraAjBDcu4_5alloc3vec9into_iterINtB6_8IntoIterTNtNtCsc29TF2YcYso_3syn3pat3PatNtNtB12_5token5CommaEENtNtNtNtCsaNl6UpbT7bw_4core4iter6traits8iterator8Iterator8try_foldINtNtB8_13in_place_drop11InPlaceDropBX_ENCINvNtNtB1U_8adapters3map12map_try_foldBX_BX_B2S_INtNtB1W_6result6ResultB2S_zENCINvNtB12_10punctuated4foldBY_B1s_NtNvCsiSITA57RZ13_15zerofrom_derive16replace_lifetime15ReplaceLifetimeNvYB5m_NtNtNtB12_3gen4fold4Fold8fold_patE0NCINvNtB8_16in_place_collect24write_in_place_with_dropBX_E0E0B4k_EB5q_, symObjAddr: 0x2808, symBinAddr: 0xB600, symSize: 0x1F0 }
  - { offset: 0x3A0B8, size: 0x8, addend: 0x0, symName: __RINvXs3_NtNtCsiTraAjBDcu4_5alloc3vec9into_iterINtB6_8IntoIterTNtNtCsc29TF2YcYso_3syn3pat3PatNtNtB12_5token5CommaEENtNtNtNtCsaNl6UpbT7bw_4core4iter6traits8iterator8Iterator8try_foldINtNtB8_13in_place_drop11InPlaceDropBX_ENCINvNtNtB1U_8adapters3map12map_try_foldBX_BX_B2S_INtNtB1W_6result6ResultB2S_zENCINvNtB12_10punctuated4foldBY_B1s_NtNvCsiSITA57RZ13_15zerofrom_derive25replace_lifetime_and_type20ReplaceLifetimeAndTyNvYB5m_NtNtNtB12_3gen4fold4Fold8fold_patE0NCINvNtB8_16in_place_collect24write_in_place_with_dropBX_E0E0B4k_EB5q_, symObjAddr: 0x29F8, symBinAddr: 0xB7F0, symSize: 0x1F0 }
  - { offset: 0x3A29A, size: 0x8, addend: 0x0, symName: __RINvXs3_NtNtCsiTraAjBDcu4_5alloc3vec9into_iterINtB6_8IntoIterTNtNtCsc29TF2YcYso_3syn3pat8FieldPatNtNtB12_5token5CommaEENtNtNtNtCsaNl6UpbT7bw_4core4iter6traits8iterator8Iterator8try_foldINtNtB8_13in_place_drop11InPlaceDropBX_ENCINvNtNtB1Z_8adapters3map12map_try_foldBX_BX_B2X_INtNtB21_6result6ResultB2X_zENCINvNtB12_10punctuated4foldBY_B1x_NtNvCsiSITA57RZ13_15zerofrom_derive16replace_lifetime15ReplaceLifetimeNvYB5r_NtNtNtB12_3gen4fold4Fold14fold_field_patE0NCINvNtB8_16in_place_collect24write_in_place_with_dropBX_E0E0B4p_EB5v_, symObjAddr: 0x2BE8, symBinAddr: 0xB9E0, symSize: 0x1F0 }
  - { offset: 0x3A47C, size: 0x8, addend: 0x0, symName: __RINvXs3_NtNtCsiTraAjBDcu4_5alloc3vec9into_iterINtB6_8IntoIterTNtNtCsc29TF2YcYso_3syn3pat8FieldPatNtNtB12_5token5CommaEENtNtNtNtCsaNl6UpbT7bw_4core4iter6traits8iterator8Iterator8try_foldINtNtB8_13in_place_drop11InPlaceDropBX_ENCINvNtNtB1Z_8adapters3map12map_try_foldBX_BX_B2X_INtNtB21_6result6ResultB2X_zENCINvNtB12_10punctuated4foldBY_B1x_NtNvCsiSITA57RZ13_15zerofrom_derive25replace_lifetime_and_type20ReplaceLifetimeAndTyNvYB5r_NtNtNtB12_3gen4fold4Fold14fold_field_patE0NCINvNtB8_16in_place_collect24write_in_place_with_dropBX_E0E0B4p_EB5v_, symObjAddr: 0x2DD8, symBinAddr: 0xBBD0, symSize: 0x1F0 }
  - { offset: 0x3A65E, size: 0x8, addend: 0x0, symName: __RINvXs3_NtNtCsiTraAjBDcu4_5alloc3vec9into_iterINtB6_8IntoIterTNtNtCsc29TF2YcYso_3syn4data5FieldNtNtB12_5token5CommaEENtNtNtNtCsaNl6UpbT7bw_4core4iter6traits8iterator8Iterator8try_foldINtNtB8_13in_place_drop11InPlaceDropBX_ENCINvNtNtB1X_8adapters3map12map_try_foldBX_BX_B2V_INtNtB1Z_6result6ResultB2V_zENCINvNtB12_10punctuated4foldBY_B1v_NtNvCsiSITA57RZ13_15zerofrom_derive16replace_lifetime15ReplaceLifetimeNvYB5p_NtNtNtB12_3gen4fold4Fold10fold_fieldE0NCINvNtB8_16in_place_collect24write_in_place_with_dropBX_E0E0B4n_EB5t_, symObjAddr: 0x2FC8, symBinAddr: 0xBDC0, symSize: 0x1F0 }
  - { offset: 0x3A840, size: 0x8, addend: 0x0, symName: __RINvXs3_NtNtCsiTraAjBDcu4_5alloc3vec9into_iterINtB6_8IntoIterTNtNtCsc29TF2YcYso_3syn4data5FieldNtNtB12_5token5CommaEENtNtNtNtCsaNl6UpbT7bw_4core4iter6traits8iterator8Iterator8try_foldINtNtB8_13in_place_drop11InPlaceDropBX_ENCINvNtNtB1X_8adapters3map12map_try_foldBX_BX_B2V_INtNtB1Z_6result6ResultB2V_zENCINvNtB12_10punctuated4foldBY_B1v_NtNvCsiSITA57RZ13_15zerofrom_derive25replace_lifetime_and_type20ReplaceLifetimeAndTyNvYB5p_NtNtNtB12_3gen4fold4Fold10fold_fieldE0NCINvNtB8_16in_place_collect24write_in_place_with_dropBX_E0E0B4n_EB5t_, symObjAddr: 0x31B8, symBinAddr: 0xBFB0, symSize: 0x1F0 }
  - { offset: 0x3AA22, size: 0x8, addend: 0x0, symName: __RINvXs3_NtNtCsiTraAjBDcu4_5alloc3vec9into_iterINtB6_8IntoIterTNtNtCsc29TF2YcYso_3syn4data7VariantNtNtB12_5token5CommaEENtNtNtNtCsaNl6UpbT7bw_4core4iter6traits8iterator8Iterator8try_foldINtNtB8_13in_place_drop11InPlaceDropBX_ENCINvNtNtB1Z_8adapters3map12map_try_foldBX_BX_B2X_INtNtB21_6result6ResultB2X_zENCINvNtB12_10punctuated4foldBY_B1x_NtNvCsiSITA57RZ13_15zerofrom_derive16replace_lifetime15ReplaceLifetimeNvYB5r_NtNtNtB12_3gen4fold4Fold12fold_variantE0NCINvNtB8_16in_place_collect24write_in_place_with_dropBX_E0E0B4p_EB5v_, symObjAddr: 0x33A8, symBinAddr: 0xC1A0, symSize: 0x1F0 }
  - { offset: 0x3AC04, size: 0x8, addend: 0x0, symName: __RINvXs3_NtNtCsiTraAjBDcu4_5alloc3vec9into_iterINtB6_8IntoIterTNtNtCsc29TF2YcYso_3syn4data7VariantNtNtB12_5token5CommaEENtNtNtNtCsaNl6UpbT7bw_4core4iter6traits8iterator8Iterator8try_foldINtNtB8_13in_place_drop11InPlaceDropBX_ENCINvNtNtB1Z_8adapters3map12map_try_foldBX_BX_B2X_INtNtB21_6result6ResultB2X_zENCINvNtB12_10punctuated4foldBY_B1x_NtNvCsiSITA57RZ13_15zerofrom_derive25replace_lifetime_and_type20ReplaceLifetimeAndTyNvYB5r_NtNtNtB12_3gen4fold4Fold12fold_variantE0NCINvNtB8_16in_place_collect24write_in_place_with_dropBX_E0E0B4p_EB5v_, symObjAddr: 0x3598, symBinAddr: 0xC390, symSize: 0x1F0 }
  - { offset: 0x3ADE6, size: 0x8, addend: 0x0, symName: __RINvXs3_NtNtCsiTraAjBDcu4_5alloc3vec9into_iterINtB6_8IntoIterTNtNtCsc29TF2YcYso_3syn4expr10FieldValueNtNtB12_5token5CommaEENtNtNtNtCsaNl6UpbT7bw_4core4iter6traits8iterator8Iterator8try_foldINtNtB8_13in_place_drop11InPlaceDropBX_ENCINvNtNtB23_8adapters3map12map_try_foldBX_BX_B31_INtNtB25_6result6ResultB31_zENCINvNtB12_10punctuated4foldBY_B1B_NtNvCsiSITA57RZ13_15zerofrom_derive16replace_lifetime15ReplaceLifetimeNvYB5v_NtNtNtB12_3gen4fold4Fold16fold_field_valueE0NCINvNtB8_16in_place_collect24write_in_place_with_dropBX_E0E0B4t_EB5z_, symObjAddr: 0x3788, symBinAddr: 0xC580, symSize: 0x1F0 }
  - { offset: 0x3AFC8, size: 0x8, addend: 0x0, symName: __RINvXs3_NtNtCsiTraAjBDcu4_5alloc3vec9into_iterINtB6_8IntoIterTNtNtCsc29TF2YcYso_3syn4expr10FieldValueNtNtB12_5token5CommaEENtNtNtNtCsaNl6UpbT7bw_4core4iter6traits8iterator8Iterator8try_foldINtNtB8_13in_place_drop11InPlaceDropBX_ENCINvNtNtB23_8adapters3map12map_try_foldBX_BX_B31_INtNtB25_6result6ResultB31_zENCINvNtB12_10punctuated4foldBY_B1B_NtNvCsiSITA57RZ13_15zerofrom_derive25replace_lifetime_and_type20ReplaceLifetimeAndTyNvYB5v_NtNtNtB12_3gen4fold4Fold16fold_field_valueE0NCINvNtB8_16in_place_collect24write_in_place_with_dropBX_E0E0B4t_EB5z_, symObjAddr: 0x3978, symBinAddr: 0xC770, symSize: 0x1F0 }
  - { offset: 0x3B1AA, size: 0x8, addend: 0x0, symName: __RINvXs3_NtNtCsiTraAjBDcu4_5alloc3vec9into_iterINtB6_8IntoIterTNtNtCsc29TF2YcYso_3syn4expr4ExprNtNtB12_5token5CommaEENtNtNtNtCsaNl6UpbT7bw_4core4iter6traits8iterator8Iterator8try_foldINtNtB8_13in_place_drop11InPlaceDropBX_ENCINvNtNtB1W_8adapters3map12map_try_foldBX_BX_B2U_INtNtB1Y_6result6ResultB2U_zENCINvNtB12_10punctuated4foldBY_B1u_NtNvCsiSITA57RZ13_15zerofrom_derive16replace_lifetime15ReplaceLifetimeNvYB5o_NtNtNtB12_3gen4fold4Fold9fold_exprE0NCINvNtB8_16in_place_collect24write_in_place_with_dropBX_E0E0B4m_EB5s_, symObjAddr: 0x3B68, symBinAddr: 0xC960, symSize: 0x1F0 }
  - { offset: 0x3B38C, size: 0x8, addend: 0x0, symName: __RINvXs3_NtNtCsiTraAjBDcu4_5alloc3vec9into_iterINtB6_8IntoIterTNtNtCsc29TF2YcYso_3syn4expr4ExprNtNtB12_5token5CommaEENtNtNtNtCsaNl6UpbT7bw_4core4iter6traits8iterator8Iterator8try_foldINtNtB8_13in_place_drop11InPlaceDropBX_ENCINvNtNtB1W_8adapters3map12map_try_foldBX_BX_B2U_INtNtB1Y_6result6ResultB2U_zENCINvNtB12_10punctuated4foldBY_B1u_NtNvCsiSITA57RZ13_15zerofrom_derive25replace_lifetime_and_type20ReplaceLifetimeAndTyNvYB5o_NtNtNtB12_3gen4fold4Fold9fold_exprE0NCINvNtB8_16in_place_collect24write_in_place_with_dropBX_E0E0B4m_EB5s_, symObjAddr: 0x3D58, symBinAddr: 0xCB50, symSize: 0x1F0 }
  - { offset: 0x3B56E, size: 0x8, addend: 0x0, symName: __RINvXs3_NtNtCsiTraAjBDcu4_5alloc3vec9into_iterINtB6_8IntoIterTNtNtCsc29TF2YcYso_3syn4item5FnArgNtNtB12_5token5CommaEENtNtNtNtCsaNl6UpbT7bw_4core4iter6traits8iterator8Iterator8try_foldINtNtB8_13in_place_drop11InPlaceDropBX_ENCINvNtNtB1X_8adapters3map12map_try_foldBX_BX_B2V_INtNtB1Z_6result6ResultB2V_zENCINvNtB12_10punctuated4foldBY_B1v_NtNvCsiSITA57RZ13_15zerofrom_derive16replace_lifetime15ReplaceLifetimeNvYB5p_NtNtNtB12_3gen4fold4Fold11fold_fn_argE0NCINvNtB8_16in_place_collect24write_in_place_with_dropBX_E0E0B4n_EB5t_, symObjAddr: 0x3F48, symBinAddr: 0xCD40, symSize: 0x1F0 }
  - { offset: 0x3B750, size: 0x8, addend: 0x0, symName: __RINvXs3_NtNtCsiTraAjBDcu4_5alloc3vec9into_iterINtB6_8IntoIterTNtNtCsc29TF2YcYso_3syn4item5FnArgNtNtB12_5token5CommaEENtNtNtNtCsaNl6UpbT7bw_4core4iter6traits8iterator8Iterator8try_foldINtNtB8_13in_place_drop11InPlaceDropBX_ENCINvNtNtB1X_8adapters3map12map_try_foldBX_BX_B2V_INtNtB1Z_6result6ResultB2V_zENCINvNtB12_10punctuated4foldBY_B1v_NtNvCsiSITA57RZ13_15zerofrom_derive25replace_lifetime_and_type20ReplaceLifetimeAndTyNvYB5p_NtNtNtB12_3gen4fold4Fold11fold_fn_argE0NCINvNtB8_16in_place_collect24write_in_place_with_dropBX_E0E0B4n_EB5t_, symObjAddr: 0x4138, symBinAddr: 0xCF30, symSize: 0x1F0 }
  - { offset: 0x3B932, size: 0x8, addend: 0x0, symName: __RINvXs3_NtNtCsiTraAjBDcu4_5alloc3vec9into_iterINtB6_8IntoIterTNtNtCsc29TF2YcYso_3syn4item7UseTreeNtNtB12_5token5CommaEENtNtNtNtCsaNl6UpbT7bw_4core4iter6traits8iterator8Iterator8try_foldINtNtB8_13in_place_drop11InPlaceDropBX_ENCINvNtNtB1Z_8adapters3map12map_try_foldBX_BX_B2X_INtNtB21_6result6ResultB2X_zENCINvNtB12_10punctuated4foldBY_B1x_NtNvCsiSITA57RZ13_15zerofrom_derive16replace_lifetime15ReplaceLifetimeNvYB5r_NtNtNtB12_3gen4fold4Fold13fold_use_treeE0NCINvNtB8_16in_place_collect24write_in_place_with_dropBX_E0E0B4p_EB5v_, symObjAddr: 0x4328, symBinAddr: 0xD120, symSize: 0x1F0 }
  - { offset: 0x3BB14, size: 0x8, addend: 0x0, symName: __RINvXs3_NtNtCsiTraAjBDcu4_5alloc3vec9into_iterINtB6_8IntoIterTNtNtCsc29TF2YcYso_3syn4item7UseTreeNtNtB12_5token5CommaEENtNtNtNtCsaNl6UpbT7bw_4core4iter6traits8iterator8Iterator8try_foldINtNtB8_13in_place_drop11InPlaceDropBX_ENCINvNtNtB1Z_8adapters3map12map_try_foldBX_BX_B2X_INtNtB21_6result6ResultB2X_zENCINvNtB12_10punctuated4foldBY_B1x_NtNvCsiSITA57RZ13_15zerofrom_derive25replace_lifetime_and_type20ReplaceLifetimeAndTyNvYB5r_NtNtNtB12_3gen4fold4Fold13fold_use_treeE0NCINvNtB8_16in_place_collect24write_in_place_with_dropBX_E0E0B4p_EB5v_, symObjAddr: 0x4518, symBinAddr: 0xD310, symSize: 0x1F0 }
  - { offset: 0x3BCF6, size: 0x8, addend: 0x0, symName: __RINvXs3_NtNtCsiTraAjBDcu4_5alloc3vec9into_iterINtB6_8IntoIterTNtNtCsc29TF2YcYso_3syn4path11PathSegmentNtNtB12_5token7PathSepEENtNtNtNtCsaNl6UpbT7bw_4core4iter6traits8iterator8Iterator8try_foldINtNtB8_13in_place_drop11InPlaceDropBX_ENCINvNtNtB26_8adapters3map12map_try_foldBX_BX_B34_INtNtB28_6result6ResultB34_zENCINvNtB12_10punctuated4foldBY_B1C_NtNvCsiSITA57RZ13_15zerofrom_derive16replace_lifetime15ReplaceLifetimeNvYB5y_NtNtNtB12_3gen4fold4Fold17fold_path_segmentE0NCINvNtB8_16in_place_collect24write_in_place_with_dropBX_E0E0B4w_EB5C_, symObjAddr: 0x4708, symBinAddr: 0xD500, symSize: 0x1F0 }
  - { offset: 0x3BED8, size: 0x8, addend: 0x0, symName: __RINvXs3_NtNtCsiTraAjBDcu4_5alloc3vec9into_iterINtB6_8IntoIterTNtNtCsc29TF2YcYso_3syn4path11PathSegmentNtNtB12_5token7PathSepEENtNtNtNtCsaNl6UpbT7bw_4core4iter6traits8iterator8Iterator8try_foldINtNtB8_13in_place_drop11InPlaceDropBX_ENCINvNtNtB26_8adapters3map12map_try_foldBX_BX_B34_INtNtB28_6result6ResultB34_zENCINvNtB12_10punctuated4foldBY_B1C_NtNvCsiSITA57RZ13_15zerofrom_derive25replace_lifetime_and_type20ReplaceLifetimeAndTyNvYB5y_NtNtNtB12_3gen4fold4Fold17fold_path_segmentE0NCINvNtB8_16in_place_collect24write_in_place_with_dropBX_E0E0B4w_EB5C_, symObjAddr: 0x48F8, symBinAddr: 0xD6F0, symSize: 0x1F0 }
  - { offset: 0x3C0BA, size: 0x8, addend: 0x0, symName: __RINvXs3_NtNtCsiTraAjBDcu4_5alloc3vec9into_iterINtB6_8IntoIterTNtNtCsc29TF2YcYso_3syn4path15GenericArgumentNtNtB12_5token5CommaEENtNtNtNtCsaNl6UpbT7bw_4core4iter6traits8iterator8Iterator8try_foldINtNtB8_13in_place_drop11InPlaceDropBX_ENCINvNtNtB28_8adapters3map12map_try_foldBX_BX_B36_INtNtB2a_6result6ResultB36_zENCINvNtB12_10punctuated4foldBY_B1G_NtNvCsiSITA57RZ13_15zerofrom_derive16replace_lifetime15ReplaceLifetimeNvYB5A_NtNtNtB12_3gen4fold4Fold21fold_generic_argumentE0NCINvNtB8_16in_place_collect24write_in_place_with_dropBX_E0E0B4y_EB5E_, symObjAddr: 0x4AE8, symBinAddr: 0xD8E0, symSize: 0x1F0 }
  - { offset: 0x3C29C, size: 0x8, addend: 0x0, symName: __RINvXs3_NtNtCsiTraAjBDcu4_5alloc3vec9into_iterINtB6_8IntoIterTNtNtCsc29TF2YcYso_3syn4path15GenericArgumentNtNtB12_5token5CommaEENtNtNtNtCsaNl6UpbT7bw_4core4iter6traits8iterator8Iterator8try_foldINtNtB8_13in_place_drop11InPlaceDropBX_ENCINvNtNtB28_8adapters3map12map_try_foldBX_BX_B36_INtNtB2a_6result6ResultB36_zENCINvNtB12_10punctuated4foldBY_B1G_NtNvCsiSITA57RZ13_15zerofrom_derive25replace_lifetime_and_type20ReplaceLifetimeAndTyNvYB5A_NtNtNtB12_3gen4fold4Fold21fold_generic_argumentE0NCINvNtB8_16in_place_collect24write_in_place_with_dropBX_E0E0B4y_EB5E_, symObjAddr: 0x4CD8, symBinAddr: 0xDAD0, symSize: 0x1F0 }
  - { offset: 0x3C47E, size: 0x8, addend: 0x0, symName: __RINvXs3_NtNtCsiTraAjBDcu4_5alloc3vec9into_iterINtB6_8IntoIterTNtNtCsc29TF2YcYso_3syn8generics12GenericParamNtNtB12_5token5CommaEENtNtNtNtCsaNl6UpbT7bw_4core4iter6traits8iterator8Iterator8try_foldINtNtB8_13in_place_drop11InPlaceDropBX_ENCINvNtNtB29_8adapters3map12map_try_foldBX_BX_B37_INtNtB2b_6result6ResultB37_zENCINvNtB12_10punctuated4foldBY_B1H_NtNvCsiSITA57RZ13_15zerofrom_derive16replace_lifetime15ReplaceLifetimeNvYB5B_NtNtNtB12_3gen4fold4Fold18fold_generic_paramE0NCINvNtB8_16in_place_collect24write_in_place_with_dropBX_E0E0B4z_EB5F_, symObjAddr: 0x4EC8, symBinAddr: 0xDCC0, symSize: 0x1F4 }
  - { offset: 0x3C660, size: 0x8, addend: 0x0, symName: __RINvXs3_NtNtCsiTraAjBDcu4_5alloc3vec9into_iterINtB6_8IntoIterTNtNtCsc29TF2YcYso_3syn8generics12GenericParamNtNtB12_5token5CommaEENtNtNtNtCsaNl6UpbT7bw_4core4iter6traits8iterator8Iterator8try_foldINtNtB8_13in_place_drop11InPlaceDropBX_ENCINvNtNtB29_8adapters3map12map_try_foldBX_BX_B37_INtNtB2b_6result6ResultB37_zENCINvNtB12_10punctuated4foldBY_B1H_NtNvCsiSITA57RZ13_15zerofrom_derive25replace_lifetime_and_type20ReplaceLifetimeAndTyNvYB5B_NtNtNtB12_3gen4fold4Fold18fold_generic_paramE0NCINvNtB8_16in_place_collect24write_in_place_with_dropBX_E0E0B4z_EB5F_, symObjAddr: 0x50BC, symBinAddr: 0xDEB4, symSize: 0x1F4 }
  - { offset: 0x3C842, size: 0x8, addend: 0x0, symName: __RINvXs3_NtNtCsiTraAjBDcu4_5alloc3vec9into_iterINtB6_8IntoIterTNtNtCsc29TF2YcYso_3syn8generics13CapturedParamNtNtB12_5token5CommaEENtNtNtNtCsaNl6UpbT7bw_4core4iter6traits8iterator8Iterator8try_foldINtNtB8_13in_place_drop11InPlaceDropBX_ENCINvNtNtB2a_8adapters3map12map_try_foldBX_BX_B38_INtNtB2c_6result6ResultB38_zENCINvNtB12_10punctuated4foldBY_B1I_NtNvCsiSITA57RZ13_15zerofrom_derive16replace_lifetime15ReplaceLifetimeNvYB5C_NtNtNtB12_3gen4fold4Fold19fold_captured_paramE0NCINvNtB8_16in_place_collect24write_in_place_with_dropBX_E0E0B4A_EB5G_, symObjAddr: 0x52B0, symBinAddr: 0xE0A8, symSize: 0x1F0 }
  - { offset: 0x3CA24, size: 0x8, addend: 0x0, symName: __RINvXs3_NtNtCsiTraAjBDcu4_5alloc3vec9into_iterINtB6_8IntoIterTNtNtCsc29TF2YcYso_3syn8generics13CapturedParamNtNtB12_5token5CommaEENtNtNtNtCsaNl6UpbT7bw_4core4iter6traits8iterator8Iterator8try_foldINtNtB8_13in_place_drop11InPlaceDropBX_ENCINvNtNtB2a_8adapters3map12map_try_foldBX_BX_B38_INtNtB2c_6result6ResultB38_zENCINvNtB12_10punctuated4foldBY_B1I_NtNvCsiSITA57RZ13_15zerofrom_derive25replace_lifetime_and_type20ReplaceLifetimeAndTyNvYB5C_NtNtNtB12_3gen4fold4Fold19fold_captured_paramE0NCINvNtB8_16in_place_collect24write_in_place_with_dropBX_E0E0B4A_EB5G_, symObjAddr: 0x54A0, symBinAddr: 0xE298, symSize: 0x1F0 }
  - { offset: 0x3CC06, size: 0x8, addend: 0x0, symName: __RINvXs3_NtNtCsiTraAjBDcu4_5alloc3vec9into_iterINtB6_8IntoIterTNtNtCsc29TF2YcYso_3syn8generics14TypeParamBoundNtNtB12_5token4PlusEENtNtNtNtCsaNl6UpbT7bw_4core4iter6traits8iterator8Iterator8try_foldINtNtB8_13in_place_drop11InPlaceDropBX_ENCINvNtNtB2a_8adapters3map12map_try_foldBX_BX_B38_INtNtB2c_6result6ResultB38_zENCINvNtB12_10punctuated4foldBY_B1J_NtNvCsiSITA57RZ13_15zerofrom_derive16replace_lifetime15ReplaceLifetimeNvYB5C_NtNtNtB12_3gen4fold4Fold21fold_type_param_boundE0NCINvNtB8_16in_place_collect24write_in_place_with_dropBX_E0E0B4A_EB5G_, symObjAddr: 0x5690, symBinAddr: 0xE488, symSize: 0x1F0 }
  - { offset: 0x3CDE8, size: 0x8, addend: 0x0, symName: __RINvXs3_NtNtCsiTraAjBDcu4_5alloc3vec9into_iterINtB6_8IntoIterTNtNtCsc29TF2YcYso_3syn8generics14TypeParamBoundNtNtB12_5token4PlusEENtNtNtNtCsaNl6UpbT7bw_4core4iter6traits8iterator8Iterator8try_foldINtNtB8_13in_place_drop11InPlaceDropBX_ENCINvNtNtB2a_8adapters3map12map_try_foldBX_BX_B38_INtNtB2c_6result6ResultB38_zENCINvNtB12_10punctuated4foldBY_B1J_NtNvCsiSITA57RZ13_15zerofrom_derive25replace_lifetime_and_type20ReplaceLifetimeAndTyNvYB5C_NtNtNtB12_3gen4fold4Fold21fold_type_param_boundE0NCINvNtB8_16in_place_collect24write_in_place_with_dropBX_E0E0B4A_EB5G_, symObjAddr: 0x5880, symBinAddr: 0xE678, symSize: 0x1F0 }
  - { offset: 0x3CFCA, size: 0x8, addend: 0x0, symName: __RINvXs3_NtNtCsiTraAjBDcu4_5alloc3vec9into_iterINtB6_8IntoIterTNtNtCsc29TF2YcYso_3syn8generics14WherePredicateNtNtB12_5token5CommaEENtNtNtNtCsaNl6UpbT7bw_4core4iter6traits8iterator8Iterator8try_foldINtNtB8_13in_place_drop11InPlaceDropBX_ENCINvNtNtB2b_8adapters3map12map_try_foldBX_BX_B39_INtNtB2d_6result6ResultB39_zENCINvNtB12_10punctuated4foldBY_B1J_NtNvCsiSITA57RZ13_15zerofrom_derive16replace_lifetime15ReplaceLifetimeNvYB5D_NtNtNtB12_3gen4fold4Fold20fold_where_predicateE0NCINvNtB8_16in_place_collect24write_in_place_with_dropBX_E0E0B4B_EB5H_, symObjAddr: 0x5A70, symBinAddr: 0xE868, symSize: 0x1F0 }
  - { offset: 0x3D1AC, size: 0x8, addend: 0x0, symName: __RINvXs3_NtNtCsiTraAjBDcu4_5alloc3vec9into_iterINtB6_8IntoIterTNtNtCsc29TF2YcYso_3syn8generics14WherePredicateNtNtB12_5token5CommaEENtNtNtNtCsaNl6UpbT7bw_4core4iter6traits8iterator8Iterator8try_foldINtNtB8_13in_place_drop11InPlaceDropBX_ENCINvNtNtB2b_8adapters3map12map_try_foldBX_BX_B39_INtNtB2d_6result6ResultB39_zENCINvNtB12_10punctuated4foldBY_B1J_NtNvCsiSITA57RZ13_15zerofrom_derive25replace_lifetime_and_type20ReplaceLifetimeAndTyNvYB5D_NtNtNtB12_3gen4fold4Fold20fold_where_predicateE0NCINvNtB8_16in_place_collect24write_in_place_with_dropBX_E0E0B4B_EB5H_, symObjAddr: 0x5C60, symBinAddr: 0xEA58, symSize: 0x1F0 }
  - { offset: 0x3D38E, size: 0x8, addend: 0x0, symName: __RINvXs3_NtNtCsiTraAjBDcu4_5alloc3vec9into_iterINtB6_8IntoIterTNtNtCsc29TF2YcYso_3syn8lifetime8LifetimeNtNtB12_5token4PlusEENtNtNtNtCsaNl6UpbT7bw_4core4iter6traits8iterator8Iterator8try_foldINtNtB8_13in_place_drop11InPlaceDropBX_ENCINvNtNtB23_8adapters3map12map_try_foldBX_BX_B31_INtNtB25_6result6ResultB31_zENCINvNtB12_10punctuated4foldBY_B1C_NtNvCsiSITA57RZ13_15zerofrom_derive16replace_lifetime15ReplaceLifetimeNvYB5v_NtNtNtB12_3gen4fold4Fold13fold_lifetimeE0NCINvNtB8_16in_place_collect24write_in_place_with_dropBX_E0E0B4t_EB5z_, symObjAddr: 0x5E50, symBinAddr: 0xEC48, symSize: 0x1F0 }
  - { offset: 0x3D570, size: 0x8, addend: 0x0, symName: __RINvXs3_NtNtCsiTraAjBDcu4_5alloc3vec9into_iterINtB6_8IntoIterTNtNtCsc29TF2YcYso_3syn8lifetime8LifetimeNtNtB12_5token4PlusEENtNtNtNtCsaNl6UpbT7bw_4core4iter6traits8iterator8Iterator8try_foldINtNtB8_13in_place_drop11InPlaceDropBX_ENCINvNtNtB23_8adapters3map12map_try_foldBX_BX_B31_INtNtB25_6result6ResultB31_zENCINvNtB12_10punctuated4foldBY_B1C_NtNvCsiSITA57RZ13_15zerofrom_derive25replace_lifetime_and_type20ReplaceLifetimeAndTyNvYB5v_NtNtNtB12_3gen4fold4Fold13fold_lifetimeE0NCINvNtB8_16in_place_collect24write_in_place_with_dropBX_E0E0B4t_EB5z_, symObjAddr: 0x6040, symBinAddr: 0xEE38, symSize: 0x1F0 }
  - { offset: 0x3D752, size: 0x8, addend: 0x0, symName: __RNvXs3_NtNtCsiTraAjBDcu4_5alloc3vec9into_iterINtB5_8IntoIterNtCshnvkK9b4wzu_11proc_macro25IdentENtNtNtNtCsaNl6UpbT7bw_4core4iter6traits8iterator8Iterator4nextCsiSITA57RZ13_15zerofrom_derive, symObjAddr: 0x8864, symBinAddr: 0x1165C, symSize: 0xD0 }
  - { offset: 0x3D8CD, size: 0x8, addend: 0x0, symName: __RNvXs3_NtNtCsiTraAjBDcu4_5alloc3vec9into_iterINtB5_8IntoIterNtCshnvkK9b4wzu_11proc_macro25IdentENtNtNtNtCsaNl6UpbT7bw_4core4iter6traits8iterator8Iterator9size_hintCsiSITA57RZ13_15zerofrom_derive, symObjAddr: 0x8934, symBinAddr: 0x1172C, symSize: 0x6C }
  - { offset: 0x3D928, size: 0x8, addend: 0x0, symName: __RNvXs3_NtNtCsiTraAjBDcu4_5alloc3vec9into_iterINtB5_8IntoIterNtNtCsc29TF2YcYso_3syn4expr3ArmENtNtNtNtCsaNl6UpbT7bw_4core4iter6traits8iterator8Iterator9size_hintCsiSITA57RZ13_15zerofrom_derive, symObjAddr: 0x89A0, symBinAddr: 0x11798, symSize: 0x6C }
  - { offset: 0x3D983, size: 0x8, addend: 0x0, symName: __RNvXs3_NtNtCsiTraAjBDcu4_5alloc3vec9into_iterINtB5_8IntoIterNtNtCsc29TF2YcYso_3syn4item11ForeignItemENtNtNtNtCsaNl6UpbT7bw_4core4iter6traits8iterator8Iterator9size_hintCsiSITA57RZ13_15zerofrom_derive, symObjAddr: 0x8A0C, symBinAddr: 0x11804, symSize: 0x6C }
  - { offset: 0x3D9DE, size: 0x8, addend: 0x0, symName: __RNvXs3_NtNtCsiTraAjBDcu4_5alloc3vec9into_iterINtB5_8IntoIterNtNtCsc29TF2YcYso_3syn4item4ItemENtNtNtNtCsaNl6UpbT7bw_4core4iter6traits8iterator8Iterator9size_hintCsiSITA57RZ13_15zerofrom_derive, symObjAddr: 0x8A78, symBinAddr: 0x11870, symSize: 0x6C }
  - { offset: 0x3DA39, size: 0x8, addend: 0x0, symName: __RNvXs3_NtNtCsiTraAjBDcu4_5alloc3vec9into_iterINtB5_8IntoIterNtNtCsc29TF2YcYso_3syn4item8ImplItemENtNtNtNtCsaNl6UpbT7bw_4core4iter6traits8iterator8Iterator9size_hintCsiSITA57RZ13_15zerofrom_derive, symObjAddr: 0x8AE4, symBinAddr: 0x118DC, symSize: 0x6C }
  - { offset: 0x3DA94, size: 0x8, addend: 0x0, symName: __RNvXs3_NtNtCsiTraAjBDcu4_5alloc3vec9into_iterINtB5_8IntoIterNtNtCsc29TF2YcYso_3syn4item9TraitItemENtNtNtNtCsaNl6UpbT7bw_4core4iter6traits8iterator8Iterator9size_hintCsiSITA57RZ13_15zerofrom_derive, symObjAddr: 0x8B50, symBinAddr: 0x11948, symSize: 0x6C }
  - { offset: 0x3DAEF, size: 0x8, addend: 0x0, symName: __RNvXs3_NtNtCsiTraAjBDcu4_5alloc3vec9into_iterINtB5_8IntoIterNtNtCsc29TF2YcYso_3syn4stmt4StmtENtNtNtNtCsaNl6UpbT7bw_4core4iter6traits8iterator8Iterator9size_hintCsiSITA57RZ13_15zerofrom_derive, symObjAddr: 0x8BBC, symBinAddr: 0x119B4, symSize: 0x6C }
  - { offset: 0x3DB4A, size: 0x8, addend: 0x0, symName: __RNvXs3_NtNtCsiTraAjBDcu4_5alloc3vec9into_iterINtB5_8IntoIterTNtCshnvkK9b4wzu_11proc_macro25IdentNtNtCsc29TF2YcYso_3syn5token5CommaEENtNtNtNtCsaNl6UpbT7bw_4core4iter6traits8iterator8Iterator9size_hintCsiSITA57RZ13_15zerofrom_derive, symObjAddr: 0x8C28, symBinAddr: 0x11A20, symSize: 0x6C }
  - { offset: 0x3DBA5, size: 0x8, addend: 0x0, symName: __RNvXs3_NtNtCsiTraAjBDcu4_5alloc3vec9into_iterINtB5_8IntoIterTNtNtCsc29TF2YcYso_3syn2ty4TypeNtNtB11_5token5CommaEENtNtNtNtCsaNl6UpbT7bw_4core4iter6traits8iterator8Iterator9size_hintCsiSITA57RZ13_15zerofrom_derive, symObjAddr: 0x8C94, symBinAddr: 0x11A8C, symSize: 0x6C }
  - { offset: 0x3DC00, size: 0x8, addend: 0x0, symName: __RNvXs3_NtNtCsiTraAjBDcu4_5alloc3vec9into_iterINtB5_8IntoIterTNtNtCsc29TF2YcYso_3syn2ty9BareFnArgNtNtB11_5token5CommaEENtNtNtNtCsaNl6UpbT7bw_4core4iter6traits8iterator8Iterator9size_hintCsiSITA57RZ13_15zerofrom_derive, symObjAddr: 0x8D00, symBinAddr: 0x11AF8, symSize: 0x6C }
  - { offset: 0x3DC5B, size: 0x8, addend: 0x0, symName: __RNvXs3_NtNtCsiTraAjBDcu4_5alloc3vec9into_iterINtB5_8IntoIterTNtNtCsc29TF2YcYso_3syn3pat3PatNtNtB11_5token2OrEENtNtNtNtCsaNl6UpbT7bw_4core4iter6traits8iterator8Iterator9size_hintCsiSITA57RZ13_15zerofrom_derive, symObjAddr: 0x8D6C, symBinAddr: 0x11B64, symSize: 0x6C }
  - { offset: 0x3DCB6, size: 0x8, addend: 0x0, symName: __RNvXs3_NtNtCsiTraAjBDcu4_5alloc3vec9into_iterINtB5_8IntoIterTNtNtCsc29TF2YcYso_3syn3pat3PatNtNtB11_5token5CommaEENtNtNtNtCsaNl6UpbT7bw_4core4iter6traits8iterator8Iterator9size_hintCsiSITA57RZ13_15zerofrom_derive, symObjAddr: 0x8DD8, symBinAddr: 0x11BD0, symSize: 0x6C }
  - { offset: 0x3DD11, size: 0x8, addend: 0x0, symName: __RNvXs3_NtNtCsiTraAjBDcu4_5alloc3vec9into_iterINtB5_8IntoIterTNtNtCsc29TF2YcYso_3syn3pat8FieldPatNtNtB11_5token5CommaEENtNtNtNtCsaNl6UpbT7bw_4core4iter6traits8iterator8Iterator9size_hintCsiSITA57RZ13_15zerofrom_derive, symObjAddr: 0x8E44, symBinAddr: 0x11C3C, symSize: 0x6C }
  - { offset: 0x3DD6C, size: 0x8, addend: 0x0, symName: __RNvXs3_NtNtCsiTraAjBDcu4_5alloc3vec9into_iterINtB5_8IntoIterTNtNtCsc29TF2YcYso_3syn4data7VariantNtNtB11_5token5CommaEENtNtNtNtCsaNl6UpbT7bw_4core4iter6traits8iterator8Iterator9size_hintCsiSITA57RZ13_15zerofrom_derive, symObjAddr: 0x8EB0, symBinAddr: 0x11CA8, symSize: 0x6C }
  - { offset: 0x3DDC7, size: 0x8, addend: 0x0, symName: __RNvXs3_NtNtCsiTraAjBDcu4_5alloc3vec9into_iterINtB5_8IntoIterTNtNtCsc29TF2YcYso_3syn4expr10FieldValueNtNtB11_5token5CommaEENtNtNtNtCsaNl6UpbT7bw_4core4iter6traits8iterator8Iterator9size_hintCsiSITA57RZ13_15zerofrom_derive, symObjAddr: 0x8F1C, symBinAddr: 0x11D14, symSize: 0x6C }
  - { offset: 0x3DE22, size: 0x8, addend: 0x0, symName: __RNvXs3_NtNtCsiTraAjBDcu4_5alloc3vec9into_iterINtB5_8IntoIterTNtNtCsc29TF2YcYso_3syn4expr4ExprNtNtB11_5token5CommaEENtNtNtNtCsaNl6UpbT7bw_4core4iter6traits8iterator8Iterator9size_hintCsiSITA57RZ13_15zerofrom_derive, symObjAddr: 0x8F88, symBinAddr: 0x11D80, symSize: 0x6C }
  - { offset: 0x3DE7D, size: 0x8, addend: 0x0, symName: __RNvXs3_NtNtCsiTraAjBDcu4_5alloc3vec9into_iterINtB5_8IntoIterTNtNtCsc29TF2YcYso_3syn4item5FnArgNtNtB11_5token5CommaEENtNtNtNtCsaNl6UpbT7bw_4core4iter6traits8iterator8Iterator9size_hintCsiSITA57RZ13_15zerofrom_derive, symObjAddr: 0x8FF4, symBinAddr: 0x11DEC, symSize: 0x6C }
  - { offset: 0x3DED8, size: 0x8, addend: 0x0, symName: __RNvXs3_NtNtCsiTraAjBDcu4_5alloc3vec9into_iterINtB5_8IntoIterTNtNtCsc29TF2YcYso_3syn4item7UseTreeNtNtB11_5token5CommaEENtNtNtNtCsaNl6UpbT7bw_4core4iter6traits8iterator8Iterator9size_hintCsiSITA57RZ13_15zerofrom_derive, symObjAddr: 0x9060, symBinAddr: 0x11E58, symSize: 0x6C }
  - { offset: 0x3DF33, size: 0x8, addend: 0x0, symName: __RNvXs3_NtNtCsiTraAjBDcu4_5alloc3vec9into_iterINtB5_8IntoIterTNtNtCsc29TF2YcYso_3syn4path15GenericArgumentNtNtB11_5token5CommaEENtNtNtNtCsaNl6UpbT7bw_4core4iter6traits8iterator8Iterator9size_hintCsiSITA57RZ13_15zerofrom_derive, symObjAddr: 0x90CC, symBinAddr: 0x11EC4, symSize: 0x6C }
  - { offset: 0x3DF8E, size: 0x8, addend: 0x0, symName: __RNvXs3_NtNtCsiTraAjBDcu4_5alloc3vec9into_iterINtB5_8IntoIterTNtNtCsc29TF2YcYso_3syn8generics12GenericParamNtNtB11_5token5CommaEENtNtNtNtCsaNl6UpbT7bw_4core4iter6traits8iterator8Iterator9size_hintCsiSITA57RZ13_15zerofrom_derive, symObjAddr: 0x9138, symBinAddr: 0x11F30, symSize: 0x6C }
  - { offset: 0x3DFE9, size: 0x8, addend: 0x0, symName: __RNvXs3_NtNtCsiTraAjBDcu4_5alloc3vec9into_iterINtB5_8IntoIterTNtNtCsc29TF2YcYso_3syn8generics13CapturedParamNtNtB11_5token5CommaEENtNtNtNtCsaNl6UpbT7bw_4core4iter6traits8iterator8Iterator9size_hintCsiSITA57RZ13_15zerofrom_derive, symObjAddr: 0x91A4, symBinAddr: 0x11F9C, symSize: 0x6C }
  - { offset: 0x3E044, size: 0x8, addend: 0x0, symName: __RNvXs3_NtNtCsiTraAjBDcu4_5alloc3vec9into_iterINtB5_8IntoIterTNtNtCsc29TF2YcYso_3syn8generics14WherePredicateNtNtB11_5token5CommaEENtNtNtNtCsaNl6UpbT7bw_4core4iter6traits8iterator8Iterator9size_hintCsiSITA57RZ13_15zerofrom_derive, symObjAddr: 0x9210, symBinAddr: 0x12008, symSize: 0x6C }
  - { offset: 0x3E09F, size: 0x8, addend: 0x0, symName: __RNvXs3_NtNtCsiTraAjBDcu4_5alloc3vec9into_iterINtB5_8IntoIterTNtNtCsc29TF2YcYso_3syn8lifetime8LifetimeNtNtB11_5token4PlusEENtNtNtNtCsaNl6UpbT7bw_4core4iter6traits8iterator8Iterator9size_hintCsiSITA57RZ13_15zerofrom_derive, symObjAddr: 0x927C, symBinAddr: 0x12074, symSize: 0x6C }
  - { offset: 0x3F279, size: 0x8, addend: 0x0, symName: __RNvXNvXsd_NtNtCsiTraAjBDcu4_5alloc3vec9into_iterINtB8_8IntoIterppENtNtNtCsaNl6UpbT7bw_4core3ops4drop4Drop4dropINtB2_9DropGuardNtCshnvkK9b4wzu_11proc_macro25IdentNtNtBc_5alloc6GlobalEB12_4dropCsiSITA57RZ13_15zerofrom_derive, symObjAddr: 0x7D40, symBinAddr: 0x10B38, symSize: 0x7C }
  - { offset: 0x3F386, size: 0x8, addend: 0x0, symName: __RNvXNvXsd_NtNtCsiTraAjBDcu4_5alloc3vec9into_iterINtB8_8IntoIterppENtNtNtCsaNl6UpbT7bw_4core3ops4drop4Drop4dropINtB2_9DropGuardNtNtCsc29TF2YcYso_3syn4expr3ArmNtNtBc_5alloc6GlobalEB12_4dropCsiSITA57RZ13_15zerofrom_derive, symObjAddr: 0x7DBC, symBinAddr: 0x10BB4, symSize: 0x7C }
  - { offset: 0x3F493, size: 0x8, addend: 0x0, symName: __RNvXNvXsd_NtNtCsiTraAjBDcu4_5alloc3vec9into_iterINtB8_8IntoIterppENtNtNtCsaNl6UpbT7bw_4core3ops4drop4Drop4dropINtB2_9DropGuardNtNtCsc29TF2YcYso_3syn4item11ForeignItemNtNtBc_5alloc6GlobalEB12_4dropCsiSITA57RZ13_15zerofrom_derive, symObjAddr: 0x7E38, symBinAddr: 0x10C30, symSize: 0x7C }
  - { offset: 0x3F5A0, size: 0x8, addend: 0x0, symName: __RNvXNvXsd_NtNtCsiTraAjBDcu4_5alloc3vec9into_iterINtB8_8IntoIterppENtNtNtCsaNl6UpbT7bw_4core3ops4drop4Drop4dropINtB2_9DropGuardNtNtCsc29TF2YcYso_3syn4item4ItemNtNtBc_5alloc6GlobalEB12_4dropCsiSITA57RZ13_15zerofrom_derive, symObjAddr: 0x7EB4, symBinAddr: 0x10CAC, symSize: 0x7C }
  - { offset: 0x3F6AD, size: 0x8, addend: 0x0, symName: __RNvXNvXsd_NtNtCsiTraAjBDcu4_5alloc3vec9into_iterINtB8_8IntoIterppENtNtNtCsaNl6UpbT7bw_4core3ops4drop4Drop4dropINtB2_9DropGuardNtNtCsc29TF2YcYso_3syn4item8ImplItemNtNtBc_5alloc6GlobalEB12_4dropCsiSITA57RZ13_15zerofrom_derive, symObjAddr: 0x7F30, symBinAddr: 0x10D28, symSize: 0x7C }
  - { offset: 0x3F7BA, size: 0x8, addend: 0x0, symName: __RNvXNvXsd_NtNtCsiTraAjBDcu4_5alloc3vec9into_iterINtB8_8IntoIterppENtNtNtCsaNl6UpbT7bw_4core3ops4drop4Drop4dropINtB2_9DropGuardNtNtCsc29TF2YcYso_3syn4item9TraitItemNtNtBc_5alloc6GlobalEB12_4dropCsiSITA57RZ13_15zerofrom_derive, symObjAddr: 0x7FAC, symBinAddr: 0x10DA4, symSize: 0x7C }
  - { offset: 0x3F8C7, size: 0x8, addend: 0x0, symName: __RNvXNvXsd_NtNtCsiTraAjBDcu4_5alloc3vec9into_iterINtB8_8IntoIterppENtNtNtCsaNl6UpbT7bw_4core3ops4drop4Drop4dropINtB2_9DropGuardNtNtCsc29TF2YcYso_3syn4stmt4StmtNtNtBc_5alloc6GlobalEB12_4dropCsiSITA57RZ13_15zerofrom_derive, symObjAddr: 0x8028, symBinAddr: 0x10E20, symSize: 0x7C }
  - { offset: 0x3F9D4, size: 0x8, addend: 0x0, symName: __RNvXNvXsd_NtNtCsiTraAjBDcu4_5alloc3vec9into_iterINtB8_8IntoIterppENtNtNtCsaNl6UpbT7bw_4core3ops4drop4Drop4dropINtB2_9DropGuardTNtCshnvkK9b4wzu_11proc_macro25IdentNtNtCsc29TF2YcYso_3syn5token5CommaENtNtBc_5alloc6GlobalEB12_4dropCsiSITA57RZ13_15zerofrom_derive, symObjAddr: 0x80A4, symBinAddr: 0x10E9C, symSize: 0x7C }
  - { offset: 0x3FAE1, size: 0x8, addend: 0x0, symName: __RNvXNvXsd_NtNtCsiTraAjBDcu4_5alloc3vec9into_iterINtB8_8IntoIterppENtNtNtCsaNl6UpbT7bw_4core3ops4drop4Drop4dropINtB2_9DropGuardTNtNtCsc29TF2YcYso_3syn2ty4TypeNtNtB25_5token5CommaENtNtBc_5alloc6GlobalEB12_4dropCsiSITA57RZ13_15zerofrom_derive, symObjAddr: 0x8120, symBinAddr: 0x10F18, symSize: 0x7C }
  - { offset: 0x3FBEE, size: 0x8, addend: 0x0, symName: __RNvXNvXsd_NtNtCsiTraAjBDcu4_5alloc3vec9into_iterINtB8_8IntoIterppENtNtNtCsaNl6UpbT7bw_4core3ops4drop4Drop4dropINtB2_9DropGuardTNtNtCsc29TF2YcYso_3syn2ty9BareFnArgNtNtB25_5token5CommaENtNtBc_5alloc6GlobalEB12_4dropCsiSITA57RZ13_15zerofrom_derive, symObjAddr: 0x819C, symBinAddr: 0x10F94, symSize: 0x7C }
  - { offset: 0x3FCFB, size: 0x8, addend: 0x0, symName: __RNvXNvXsd_NtNtCsiTraAjBDcu4_5alloc3vec9into_iterINtB8_8IntoIterppENtNtNtCsaNl6UpbT7bw_4core3ops4drop4Drop4dropINtB2_9DropGuardTNtNtCsc29TF2YcYso_3syn3pat3PatNtNtB25_5token2OrENtNtBc_5alloc6GlobalEB12_4dropCsiSITA57RZ13_15zerofrom_derive, symObjAddr: 0x8218, symBinAddr: 0x11010, symSize: 0x7C }
  - { offset: 0x3FE08, size: 0x8, addend: 0x0, symName: __RNvXNvXsd_NtNtCsiTraAjBDcu4_5alloc3vec9into_iterINtB8_8IntoIterppENtNtNtCsaNl6UpbT7bw_4core3ops4drop4Drop4dropINtB2_9DropGuardTNtNtCsc29TF2YcYso_3syn3pat3PatNtNtB25_5token5CommaENtNtBc_5alloc6GlobalEB12_4dropCsiSITA57RZ13_15zerofrom_derive, symObjAddr: 0x8294, symBinAddr: 0x1108C, symSize: 0x7C }
  - { offset: 0x3FF15, size: 0x8, addend: 0x0, symName: __RNvXNvXsd_NtNtCsiTraAjBDcu4_5alloc3vec9into_iterINtB8_8IntoIterppENtNtNtCsaNl6UpbT7bw_4core3ops4drop4Drop4dropINtB2_9DropGuardTNtNtCsc29TF2YcYso_3syn3pat8FieldPatNtNtB25_5token5CommaENtNtBc_5alloc6GlobalEB12_4dropCsiSITA57RZ13_15zerofrom_derive, symObjAddr: 0x8310, symBinAddr: 0x11108, symSize: 0x7C }
  - { offset: 0x40022, size: 0x8, addend: 0x0, symName: __RNvXNvXsd_NtNtCsiTraAjBDcu4_5alloc3vec9into_iterINtB8_8IntoIterppENtNtNtCsaNl6UpbT7bw_4core3ops4drop4Drop4dropINtB2_9DropGuardTNtNtCsc29TF2YcYso_3syn4data7VariantNtNtB25_5token5CommaENtNtBc_5alloc6GlobalEB12_4dropCsiSITA57RZ13_15zerofrom_derive, symObjAddr: 0x838C, symBinAddr: 0x11184, symSize: 0x7C }
  - { offset: 0x4012F, size: 0x8, addend: 0x0, symName: __RNvXNvXsd_NtNtCsiTraAjBDcu4_5alloc3vec9into_iterINtB8_8IntoIterppENtNtNtCsaNl6UpbT7bw_4core3ops4drop4Drop4dropINtB2_9DropGuardTNtNtCsc29TF2YcYso_3syn4expr10FieldValueNtNtB25_5token5CommaENtNtBc_5alloc6GlobalEB12_4dropCsiSITA57RZ13_15zerofrom_derive, symObjAddr: 0x8408, symBinAddr: 0x11200, symSize: 0x7C }
  - { offset: 0x4023C, size: 0x8, addend: 0x0, symName: __RNvXNvXsd_NtNtCsiTraAjBDcu4_5alloc3vec9into_iterINtB8_8IntoIterppENtNtNtCsaNl6UpbT7bw_4core3ops4drop4Drop4dropINtB2_9DropGuardTNtNtCsc29TF2YcYso_3syn4expr4ExprNtNtB25_5token5CommaENtNtBc_5alloc6GlobalEB12_4dropCsiSITA57RZ13_15zerofrom_derive, symObjAddr: 0x8484, symBinAddr: 0x1127C, symSize: 0x7C }
  - { offset: 0x40349, size: 0x8, addend: 0x0, symName: __RNvXNvXsd_NtNtCsiTraAjBDcu4_5alloc3vec9into_iterINtB8_8IntoIterppENtNtNtCsaNl6UpbT7bw_4core3ops4drop4Drop4dropINtB2_9DropGuardTNtNtCsc29TF2YcYso_3syn4item5FnArgNtNtB25_5token5CommaENtNtBc_5alloc6GlobalEB12_4dropCsiSITA57RZ13_15zerofrom_derive, symObjAddr: 0x8500, symBinAddr: 0x112F8, symSize: 0x7C }
  - { offset: 0x40456, size: 0x8, addend: 0x0, symName: __RNvXNvXsd_NtNtCsiTraAjBDcu4_5alloc3vec9into_iterINtB8_8IntoIterppENtNtNtCsaNl6UpbT7bw_4core3ops4drop4Drop4dropINtB2_9DropGuardTNtNtCsc29TF2YcYso_3syn4item7UseTreeNtNtB25_5token5CommaENtNtBc_5alloc6GlobalEB12_4dropCsiSITA57RZ13_15zerofrom_derive, symObjAddr: 0x857C, symBinAddr: 0x11374, symSize: 0x7C }
  - { offset: 0x40563, size: 0x8, addend: 0x0, symName: __RNvXNvXsd_NtNtCsiTraAjBDcu4_5alloc3vec9into_iterINtB8_8IntoIterppENtNtNtCsaNl6UpbT7bw_4core3ops4drop4Drop4dropINtB2_9DropGuardTNtNtCsc29TF2YcYso_3syn4path15GenericArgumentNtNtB25_5token5CommaENtNtBc_5alloc6GlobalEB12_4dropCsiSITA57RZ13_15zerofrom_derive, symObjAddr: 0x85F8, symBinAddr: 0x113F0, symSize: 0x7C }
  - { offset: 0x40670, size: 0x8, addend: 0x0, symName: __RNvXNvXsd_NtNtCsiTraAjBDcu4_5alloc3vec9into_iterINtB8_8IntoIterppENtNtNtCsaNl6UpbT7bw_4core3ops4drop4Drop4dropINtB2_9DropGuardTNtNtCsc29TF2YcYso_3syn8generics12GenericParamNtNtB25_5token5CommaENtNtBc_5alloc6GlobalEB12_4dropCsiSITA57RZ13_15zerofrom_derive, symObjAddr: 0x8674, symBinAddr: 0x1146C, symSize: 0x7C }
  - { offset: 0x4077D, size: 0x8, addend: 0x0, symName: __RNvXNvXsd_NtNtCsiTraAjBDcu4_5alloc3vec9into_iterINtB8_8IntoIterppENtNtNtCsaNl6UpbT7bw_4core3ops4drop4Drop4dropINtB2_9DropGuardTNtNtCsc29TF2YcYso_3syn8generics13CapturedParamNtNtB25_5token5CommaENtNtBc_5alloc6GlobalEB12_4dropCsiSITA57RZ13_15zerofrom_derive, symObjAddr: 0x86F0, symBinAddr: 0x114E8, symSize: 0x7C }
  - { offset: 0x4088A, size: 0x8, addend: 0x0, symName: __RNvXNvXsd_NtNtCsiTraAjBDcu4_5alloc3vec9into_iterINtB8_8IntoIterppENtNtNtCsaNl6UpbT7bw_4core3ops4drop4Drop4dropINtB2_9DropGuardTNtNtCsc29TF2YcYso_3syn8generics14WherePredicateNtNtB25_5token5CommaENtNtBc_5alloc6GlobalEB12_4dropCsiSITA57RZ13_15zerofrom_derive, symObjAddr: 0x876C, symBinAddr: 0x11564, symSize: 0x7C }
  - { offset: 0x40997, size: 0x8, addend: 0x0, symName: __RNvXNvXsd_NtNtCsiTraAjBDcu4_5alloc3vec9into_iterINtB8_8IntoIterppENtNtNtCsaNl6UpbT7bw_4core3ops4drop4Drop4dropINtB2_9DropGuardTNtNtCsc29TF2YcYso_3syn8lifetime8LifetimeNtNtB25_5token4PlusENtNtBc_5alloc6GlobalEB12_4dropCsiSITA57RZ13_15zerofrom_derive, symObjAddr: 0x87E8, symBinAddr: 0x115E0, symSize: 0x7C }
  - { offset: 0x40E27, size: 0x8, addend: 0x0, symName: __RNvXsd_NtNtCsiTraAjBDcu4_5alloc3vec9into_iterINtB5_8IntoIterNtCshnvkK9b4wzu_11proc_macro25IdentENtNtNtCsaNl6UpbT7bw_4core3ops4drop4Drop4dropCsiSITA57RZ13_15zerofrom_derive, symObjAddr: 0x92E8, symBinAddr: 0x120E0, symSize: 0x98 }
  - { offset: 0x40EC1, size: 0x8, addend: 0x0, symName: __RNvXsd_NtNtCsiTraAjBDcu4_5alloc3vec9into_iterINtB5_8IntoIterNtNtCsc29TF2YcYso_3syn4expr3ArmENtNtNtCsaNl6UpbT7bw_4core3ops4drop4Drop4dropCsiSITA57RZ13_15zerofrom_derive, symObjAddr: 0x9380, symBinAddr: 0x12178, symSize: 0x98 }
  - { offset: 0x40F5B, size: 0x8, addend: 0x0, symName: __RNvXsd_NtNtCsiTraAjBDcu4_5alloc3vec9into_iterINtB5_8IntoIterNtNtCsc29TF2YcYso_3syn4item11ForeignItemENtNtNtCsaNl6UpbT7bw_4core3ops4drop4Drop4dropCsiSITA57RZ13_15zerofrom_derive, symObjAddr: 0x9418, symBinAddr: 0x12210, symSize: 0x98 }
  - { offset: 0x40FF5, size: 0x8, addend: 0x0, symName: __RNvXsd_NtNtCsiTraAjBDcu4_5alloc3vec9into_iterINtB5_8IntoIterNtNtCsc29TF2YcYso_3syn4item4ItemENtNtNtCsaNl6UpbT7bw_4core3ops4drop4Drop4dropCsiSITA57RZ13_15zerofrom_derive, symObjAddr: 0x94B0, symBinAddr: 0x122A8, symSize: 0x98 }
  - { offset: 0x4108F, size: 0x8, addend: 0x0, symName: __RNvXsd_NtNtCsiTraAjBDcu4_5alloc3vec9into_iterINtB5_8IntoIterNtNtCsc29TF2YcYso_3syn4item8ImplItemENtNtNtCsaNl6UpbT7bw_4core3ops4drop4Drop4dropCsiSITA57RZ13_15zerofrom_derive, symObjAddr: 0x9548, symBinAddr: 0x12340, symSize: 0x98 }
  - { offset: 0x41129, size: 0x8, addend: 0x0, symName: __RNvXsd_NtNtCsiTraAjBDcu4_5alloc3vec9into_iterINtB5_8IntoIterNtNtCsc29TF2YcYso_3syn4item9TraitItemENtNtNtCsaNl6UpbT7bw_4core3ops4drop4Drop4dropCsiSITA57RZ13_15zerofrom_derive, symObjAddr: 0x95E0, symBinAddr: 0x123D8, symSize: 0x98 }
  - { offset: 0x411C3, size: 0x8, addend: 0x0, symName: __RNvXsd_NtNtCsiTraAjBDcu4_5alloc3vec9into_iterINtB5_8IntoIterNtNtCsc29TF2YcYso_3syn4stmt4StmtENtNtNtCsaNl6UpbT7bw_4core3ops4drop4Drop4dropCsiSITA57RZ13_15zerofrom_derive, symObjAddr: 0x9678, symBinAddr: 0x12470, symSize: 0x98 }
  - { offset: 0x4125D, size: 0x8, addend: 0x0, symName: __RNvXsd_NtNtCsiTraAjBDcu4_5alloc3vec9into_iterINtB5_8IntoIterTNtCshnvkK9b4wzu_11proc_macro25IdentNtNtCsc29TF2YcYso_3syn5token5CommaEENtNtNtCsaNl6UpbT7bw_4core3ops4drop4Drop4dropCsiSITA57RZ13_15zerofrom_derive, symObjAddr: 0x9710, symBinAddr: 0x12508, symSize: 0x98 }
  - { offset: 0x412F7, size: 0x8, addend: 0x0, symName: __RNvXsd_NtNtCsiTraAjBDcu4_5alloc3vec9into_iterINtB5_8IntoIterTNtNtCsc29TF2YcYso_3syn2ty4TypeNtNtB11_5token5CommaEENtNtNtCsaNl6UpbT7bw_4core3ops4drop4Drop4dropCsiSITA57RZ13_15zerofrom_derive, symObjAddr: 0x97A8, symBinAddr: 0x125A0, symSize: 0x98 }
  - { offset: 0x41391, size: 0x8, addend: 0x0, symName: __RNvXsd_NtNtCsiTraAjBDcu4_5alloc3vec9into_iterINtB5_8IntoIterTNtNtCsc29TF2YcYso_3syn2ty9BareFnArgNtNtB11_5token5CommaEENtNtNtCsaNl6UpbT7bw_4core3ops4drop4Drop4dropCsiSITA57RZ13_15zerofrom_derive, symObjAddr: 0x9840, symBinAddr: 0x12638, symSize: 0x98 }
  - { offset: 0x4142B, size: 0x8, addend: 0x0, symName: __RNvXsd_NtNtCsiTraAjBDcu4_5alloc3vec9into_iterINtB5_8IntoIterTNtNtCsc29TF2YcYso_3syn3pat3PatNtNtB11_5token2OrEENtNtNtCsaNl6UpbT7bw_4core3ops4drop4Drop4dropCsiSITA57RZ13_15zerofrom_derive, symObjAddr: 0x98D8, symBinAddr: 0x126D0, symSize: 0x98 }
  - { offset: 0x414C5, size: 0x8, addend: 0x0, symName: __RNvXsd_NtNtCsiTraAjBDcu4_5alloc3vec9into_iterINtB5_8IntoIterTNtNtCsc29TF2YcYso_3syn3pat3PatNtNtB11_5token5CommaEENtNtNtCsaNl6UpbT7bw_4core3ops4drop4Drop4dropCsiSITA57RZ13_15zerofrom_derive, symObjAddr: 0x9970, symBinAddr: 0x12768, symSize: 0x98 }
  - { offset: 0x4155F, size: 0x8, addend: 0x0, symName: __RNvXsd_NtNtCsiTraAjBDcu4_5alloc3vec9into_iterINtB5_8IntoIterTNtNtCsc29TF2YcYso_3syn3pat8FieldPatNtNtB11_5token5CommaEENtNtNtCsaNl6UpbT7bw_4core3ops4drop4Drop4dropCsiSITA57RZ13_15zerofrom_derive, symObjAddr: 0x9A08, symBinAddr: 0x12800, symSize: 0x98 }
  - { offset: 0x415F9, size: 0x8, addend: 0x0, symName: __RNvXsd_NtNtCsiTraAjBDcu4_5alloc3vec9into_iterINtB5_8IntoIterTNtNtCsc29TF2YcYso_3syn4data7VariantNtNtB11_5token5CommaEENtNtNtCsaNl6UpbT7bw_4core3ops4drop4Drop4dropCsiSITA57RZ13_15zerofrom_derive, symObjAddr: 0x9AA0, symBinAddr: 0x12898, symSize: 0x98 }
  - { offset: 0x41693, size: 0x8, addend: 0x0, symName: __RNvXsd_NtNtCsiTraAjBDcu4_5alloc3vec9into_iterINtB5_8IntoIterTNtNtCsc29TF2YcYso_3syn4expr10FieldValueNtNtB11_5token5CommaEENtNtNtCsaNl6UpbT7bw_4core3ops4drop4Drop4dropCsiSITA57RZ13_15zerofrom_derive, symObjAddr: 0x9B38, symBinAddr: 0x12930, symSize: 0x98 }
  - { offset: 0x4172D, size: 0x8, addend: 0x0, symName: __RNvXsd_NtNtCsiTraAjBDcu4_5alloc3vec9into_iterINtB5_8IntoIterTNtNtCsc29TF2YcYso_3syn4expr4ExprNtNtB11_5token5CommaEENtNtNtCsaNl6UpbT7bw_4core3ops4drop4Drop4dropCsiSITA57RZ13_15zerofrom_derive, symObjAddr: 0x9BD0, symBinAddr: 0x129C8, symSize: 0x98 }
  - { offset: 0x417C7, size: 0x8, addend: 0x0, symName: __RNvXsd_NtNtCsiTraAjBDcu4_5alloc3vec9into_iterINtB5_8IntoIterTNtNtCsc29TF2YcYso_3syn4item5FnArgNtNtB11_5token5CommaEENtNtNtCsaNl6UpbT7bw_4core3ops4drop4Drop4dropCsiSITA57RZ13_15zerofrom_derive, symObjAddr: 0x9C68, symBinAddr: 0x12A60, symSize: 0x98 }
  - { offset: 0x41861, size: 0x8, addend: 0x0, symName: __RNvXsd_NtNtCsiTraAjBDcu4_5alloc3vec9into_iterINtB5_8IntoIterTNtNtCsc29TF2YcYso_3syn4item7UseTreeNtNtB11_5token5CommaEENtNtNtCsaNl6UpbT7bw_4core3ops4drop4Drop4dropCsiSITA57RZ13_15zerofrom_derive, symObjAddr: 0x9D00, symBinAddr: 0x12AF8, symSize: 0x98 }
  - { offset: 0x418FB, size: 0x8, addend: 0x0, symName: __RNvXsd_NtNtCsiTraAjBDcu4_5alloc3vec9into_iterINtB5_8IntoIterTNtNtCsc29TF2YcYso_3syn4path15GenericArgumentNtNtB11_5token5CommaEENtNtNtCsaNl6UpbT7bw_4core3ops4drop4Drop4dropCsiSITA57RZ13_15zerofrom_derive, symObjAddr: 0x9D98, symBinAddr: 0x12B90, symSize: 0x98 }
  - { offset: 0x41995, size: 0x8, addend: 0x0, symName: __RNvXsd_NtNtCsiTraAjBDcu4_5alloc3vec9into_iterINtB5_8IntoIterTNtNtCsc29TF2YcYso_3syn8generics12GenericParamNtNtB11_5token5CommaEENtNtNtCsaNl6UpbT7bw_4core3ops4drop4Drop4dropCsiSITA57RZ13_15zerofrom_derive, symObjAddr: 0x9E30, symBinAddr: 0x12C28, symSize: 0x98 }
  - { offset: 0x41A2F, size: 0x8, addend: 0x0, symName: __RNvXsd_NtNtCsiTraAjBDcu4_5alloc3vec9into_iterINtB5_8IntoIterTNtNtCsc29TF2YcYso_3syn8generics13CapturedParamNtNtB11_5token5CommaEENtNtNtCsaNl6UpbT7bw_4core3ops4drop4Drop4dropCsiSITA57RZ13_15zerofrom_derive, symObjAddr: 0x9EC8, symBinAddr: 0x12CC0, symSize: 0x98 }
  - { offset: 0x41AC9, size: 0x8, addend: 0x0, symName: __RNvXsd_NtNtCsiTraAjBDcu4_5alloc3vec9into_iterINtB5_8IntoIterTNtNtCsc29TF2YcYso_3syn8generics14WherePredicateNtNtB11_5token5CommaEENtNtNtCsaNl6UpbT7bw_4core3ops4drop4Drop4dropCsiSITA57RZ13_15zerofrom_derive, symObjAddr: 0x9F60, symBinAddr: 0x12D58, symSize: 0x98 }
  - { offset: 0x41B63, size: 0x8, addend: 0x0, symName: __RNvXsd_NtNtCsiTraAjBDcu4_5alloc3vec9into_iterINtB5_8IntoIterTNtNtCsc29TF2YcYso_3syn8lifetime8LifetimeNtNtB11_5token4PlusEENtNtNtCsaNl6UpbT7bw_4core3ops4drop4Drop4dropCsiSITA57RZ13_15zerofrom_derive, symObjAddr: 0x9FF8, symBinAddr: 0x12DF0, symSize: 0x98 }
  - { offset: 0x41C8D, size: 0x8, addend: 0x0, symName: __RNvXsf_NtNtCsiTraAjBDcu4_5alloc3vec9into_iterINtB5_8IntoIterNtNtCsc29TF2YcYso_3syn4attr9AttributeENtNtNtCsaNl6UpbT7bw_4core4iter8adapters10SourceIter8as_innerCsiSITA57RZ13_15zerofrom_derive, symObjAddr: 0xA090, symBinAddr: 0x12E88, symSize: 0x14 }
  - { offset: 0x41CCD, size: 0x8, addend: 0x0, symName: __RNvXsf_NtNtCsiTraAjBDcu4_5alloc3vec9into_iterINtB5_8IntoIterNtNtCsc29TF2YcYso_3syn4expr3ArmENtNtNtCsaNl6UpbT7bw_4core4iter8adapters10SourceIter8as_innerCsiSITA57RZ13_15zerofrom_derive, symObjAddr: 0xA0A4, symBinAddr: 0x12E9C, symSize: 0x14 }
  - { offset: 0x41D0D, size: 0x8, addend: 0x0, symName: __RNvXsf_NtNtCsiTraAjBDcu4_5alloc3vec9into_iterINtB5_8IntoIterNtNtCsc29TF2YcYso_3syn4item11ForeignItemENtNtNtCsaNl6UpbT7bw_4core4iter8adapters10SourceIter8as_innerCsiSITA57RZ13_15zerofrom_derive, symObjAddr: 0xA0B8, symBinAddr: 0x12EB0, symSize: 0x14 }
  - { offset: 0x41D4D, size: 0x8, addend: 0x0, symName: __RNvXsf_NtNtCsiTraAjBDcu4_5alloc3vec9into_iterINtB5_8IntoIterNtNtCsc29TF2YcYso_3syn4item4ItemENtNtNtCsaNl6UpbT7bw_4core4iter8adapters10SourceIter8as_innerCsiSITA57RZ13_15zerofrom_derive, symObjAddr: 0xA0CC, symBinAddr: 0x12EC4, symSize: 0x14 }
  - { offset: 0x41D8D, size: 0x8, addend: 0x0, symName: __RNvXsf_NtNtCsiTraAjBDcu4_5alloc3vec9into_iterINtB5_8IntoIterNtNtCsc29TF2YcYso_3syn4item8ImplItemENtNtNtCsaNl6UpbT7bw_4core4iter8adapters10SourceIter8as_innerCsiSITA57RZ13_15zerofrom_derive, symObjAddr: 0xA0E0, symBinAddr: 0x12ED8, symSize: 0x14 }
  - { offset: 0x41DCD, size: 0x8, addend: 0x0, symName: __RNvXsf_NtNtCsiTraAjBDcu4_5alloc3vec9into_iterINtB5_8IntoIterNtNtCsc29TF2YcYso_3syn4item9TraitItemENtNtNtCsaNl6UpbT7bw_4core4iter8adapters10SourceIter8as_innerCsiSITA57RZ13_15zerofrom_derive, symObjAddr: 0xA0F4, symBinAddr: 0x12EEC, symSize: 0x14 }
  - { offset: 0x41E0D, size: 0x8, addend: 0x0, symName: __RNvXsf_NtNtCsiTraAjBDcu4_5alloc3vec9into_iterINtB5_8IntoIterNtNtCsc29TF2YcYso_3syn4stmt4StmtENtNtNtCsaNl6UpbT7bw_4core4iter8adapters10SourceIter8as_innerCsiSITA57RZ13_15zerofrom_derive, symObjAddr: 0xA108, symBinAddr: 0x12F00, symSize: 0x14 }
  - { offset: 0x41E4D, size: 0x8, addend: 0x0, symName: __RNvXsf_NtNtCsiTraAjBDcu4_5alloc3vec9into_iterINtB5_8IntoIterTNtNtCsc29TF2YcYso_3syn2ty4TypeNtNtB11_5token5CommaEENtNtNtCsaNl6UpbT7bw_4core4iter8adapters10SourceIter8as_innerCsiSITA57RZ13_15zerofrom_derive, symObjAddr: 0xA11C, symBinAddr: 0x12F14, symSize: 0x14 }
  - { offset: 0x41E8D, size: 0x8, addend: 0x0, symName: __RNvXsf_NtNtCsiTraAjBDcu4_5alloc3vec9into_iterINtB5_8IntoIterTNtNtCsc29TF2YcYso_3syn2ty9BareFnArgNtNtB11_5token5CommaEENtNtNtCsaNl6UpbT7bw_4core4iter8adapters10SourceIter8as_innerCsiSITA57RZ13_15zerofrom_derive, symObjAddr: 0xA130, symBinAddr: 0x12F28, symSize: 0x14 }
  - { offset: 0x41ECD, size: 0x8, addend: 0x0, symName: __RNvXsf_NtNtCsiTraAjBDcu4_5alloc3vec9into_iterINtB5_8IntoIterTNtNtCsc29TF2YcYso_3syn3pat3PatNtNtB11_5token2OrEENtNtNtCsaNl6UpbT7bw_4core4iter8adapters10SourceIter8as_innerCsiSITA57RZ13_15zerofrom_derive, symObjAddr: 0xA144, symBinAddr: 0x12F3C, symSize: 0x14 }
  - { offset: 0x41F0D, size: 0x8, addend: 0x0, symName: __RNvXsf_NtNtCsiTraAjBDcu4_5alloc3vec9into_iterINtB5_8IntoIterTNtNtCsc29TF2YcYso_3syn3pat3PatNtNtB11_5token5CommaEENtNtNtCsaNl6UpbT7bw_4core4iter8adapters10SourceIter8as_innerCsiSITA57RZ13_15zerofrom_derive, symObjAddr: 0xA158, symBinAddr: 0x12F50, symSize: 0x14 }
  - { offset: 0x41F4D, size: 0x8, addend: 0x0, symName: __RNvXsf_NtNtCsiTraAjBDcu4_5alloc3vec9into_iterINtB5_8IntoIterTNtNtCsc29TF2YcYso_3syn3pat8FieldPatNtNtB11_5token5CommaEENtNtNtCsaNl6UpbT7bw_4core4iter8adapters10SourceIter8as_innerCsiSITA57RZ13_15zerofrom_derive, symObjAddr: 0xA16C, symBinAddr: 0x12F64, symSize: 0x14 }
  - { offset: 0x41F8D, size: 0x8, addend: 0x0, symName: __RNvXsf_NtNtCsiTraAjBDcu4_5alloc3vec9into_iterINtB5_8IntoIterTNtNtCsc29TF2YcYso_3syn4data5FieldNtNtB11_5token5CommaEENtNtNtCsaNl6UpbT7bw_4core4iter8adapters10SourceIter8as_innerCsiSITA57RZ13_15zerofrom_derive, symObjAddr: 0xA180, symBinAddr: 0x12F78, symSize: 0x14 }
  - { offset: 0x41FCD, size: 0x8, addend: 0x0, symName: __RNvXsf_NtNtCsiTraAjBDcu4_5alloc3vec9into_iterINtB5_8IntoIterTNtNtCsc29TF2YcYso_3syn4data7VariantNtNtB11_5token5CommaEENtNtNtCsaNl6UpbT7bw_4core4iter8adapters10SourceIter8as_innerCsiSITA57RZ13_15zerofrom_derive, symObjAddr: 0xA194, symBinAddr: 0x12F8C, symSize: 0x14 }
  - { offset: 0x4200D, size: 0x8, addend: 0x0, symName: __RNvXsf_NtNtCsiTraAjBDcu4_5alloc3vec9into_iterINtB5_8IntoIterTNtNtCsc29TF2YcYso_3syn4expr10FieldValueNtNtB11_5token5CommaEENtNtNtCsaNl6UpbT7bw_4core4iter8adapters10SourceIter8as_innerCsiSITA57RZ13_15zerofrom_derive, symObjAddr: 0xA1A8, symBinAddr: 0x12FA0, symSize: 0x14 }
  - { offset: 0x4204D, size: 0x8, addend: 0x0, symName: __RNvXsf_NtNtCsiTraAjBDcu4_5alloc3vec9into_iterINtB5_8IntoIterTNtNtCsc29TF2YcYso_3syn4expr4ExprNtNtB11_5token5CommaEENtNtNtCsaNl6UpbT7bw_4core4iter8adapters10SourceIter8as_innerCsiSITA57RZ13_15zerofrom_derive, symObjAddr: 0xA1BC, symBinAddr: 0x12FB4, symSize: 0x14 }
  - { offset: 0x4208D, size: 0x8, addend: 0x0, symName: __RNvXsf_NtNtCsiTraAjBDcu4_5alloc3vec9into_iterINtB5_8IntoIterTNtNtCsc29TF2YcYso_3syn4item5FnArgNtNtB11_5token5CommaEENtNtNtCsaNl6UpbT7bw_4core4iter8adapters10SourceIter8as_innerCsiSITA57RZ13_15zerofrom_derive, symObjAddr: 0xA1D0, symBinAddr: 0x12FC8, symSize: 0x14 }
  - { offset: 0x420CD, size: 0x8, addend: 0x0, symName: __RNvXsf_NtNtCsiTraAjBDcu4_5alloc3vec9into_iterINtB5_8IntoIterTNtNtCsc29TF2YcYso_3syn4item7UseTreeNtNtB11_5token5CommaEENtNtNtCsaNl6UpbT7bw_4core4iter8adapters10SourceIter8as_innerCsiSITA57RZ13_15zerofrom_derive, symObjAddr: 0xA1E4, symBinAddr: 0x12FDC, symSize: 0x14 }
  - { offset: 0x4210D, size: 0x8, addend: 0x0, symName: __RNvXsf_NtNtCsiTraAjBDcu4_5alloc3vec9into_iterINtB5_8IntoIterTNtNtCsc29TF2YcYso_3syn4path11PathSegmentNtNtB11_5token7PathSepEENtNtNtCsaNl6UpbT7bw_4core4iter8adapters10SourceIter8as_innerCsiSITA57RZ13_15zerofrom_derive, symObjAddr: 0xA1F8, symBinAddr: 0x12FF0, symSize: 0x14 }
  - { offset: 0x4214D, size: 0x8, addend: 0x0, symName: __RNvXsf_NtNtCsiTraAjBDcu4_5alloc3vec9into_iterINtB5_8IntoIterTNtNtCsc29TF2YcYso_3syn4path15GenericArgumentNtNtB11_5token5CommaEENtNtNtCsaNl6UpbT7bw_4core4iter8adapters10SourceIter8as_innerCsiSITA57RZ13_15zerofrom_derive, symObjAddr: 0xA20C, symBinAddr: 0x13004, symSize: 0x14 }
  - { offset: 0x4218D, size: 0x8, addend: 0x0, symName: __RNvXsf_NtNtCsiTraAjBDcu4_5alloc3vec9into_iterINtB5_8IntoIterTNtNtCsc29TF2YcYso_3syn8generics12GenericParamNtNtB11_5token5CommaEENtNtNtCsaNl6UpbT7bw_4core4iter8adapters10SourceIter8as_innerCsiSITA57RZ13_15zerofrom_derive, symObjAddr: 0xA220, symBinAddr: 0x13018, symSize: 0x14 }
  - { offset: 0x421CD, size: 0x8, addend: 0x0, symName: __RNvXsf_NtNtCsiTraAjBDcu4_5alloc3vec9into_iterINtB5_8IntoIterTNtNtCsc29TF2YcYso_3syn8generics13CapturedParamNtNtB11_5token5CommaEENtNtNtCsaNl6UpbT7bw_4core4iter8adapters10SourceIter8as_innerCsiSITA57RZ13_15zerofrom_derive, symObjAddr: 0xA234, symBinAddr: 0x1302C, symSize: 0x14 }
  - { offset: 0x4220D, size: 0x8, addend: 0x0, symName: __RNvXsf_NtNtCsiTraAjBDcu4_5alloc3vec9into_iterINtB5_8IntoIterTNtNtCsc29TF2YcYso_3syn8generics14TypeParamBoundNtNtB11_5token4PlusEENtNtNtCsaNl6UpbT7bw_4core4iter8adapters10SourceIter8as_innerCsiSITA57RZ13_15zerofrom_derive, symObjAddr: 0xA248, symBinAddr: 0x13040, symSize: 0x14 }
  - { offset: 0x4224D, size: 0x8, addend: 0x0, symName: __RNvXsf_NtNtCsiTraAjBDcu4_5alloc3vec9into_iterINtB5_8IntoIterTNtNtCsc29TF2YcYso_3syn8generics14WherePredicateNtNtB11_5token5CommaEENtNtNtCsaNl6UpbT7bw_4core4iter8adapters10SourceIter8as_innerCsiSITA57RZ13_15zerofrom_derive, symObjAddr: 0xA25C, symBinAddr: 0x13054, symSize: 0x14 }
  - { offset: 0x4228D, size: 0x8, addend: 0x0, symName: __RNvXsf_NtNtCsiTraAjBDcu4_5alloc3vec9into_iterINtB5_8IntoIterTNtNtCsc29TF2YcYso_3syn8lifetime8LifetimeNtNtB11_5token4PlusEENtNtNtCsaNl6UpbT7bw_4core4iter8adapters10SourceIter8as_innerCsiSITA57RZ13_15zerofrom_derive, symObjAddr: 0xA270, symBinAddr: 0x13068, symSize: 0x14 }
  - { offset: 0x422D3, size: 0x8, addend: 0x0, symName: __RNvXsg_NtNtCsiTraAjBDcu4_5alloc3vec9into_iterINtB5_8IntoIterNtNtCsc29TF2YcYso_3syn4attr9AttributeENtNtB7_16in_place_collect13AsVecIntoIter12as_into_iterCsiSITA57RZ13_15zerofrom_derive, symObjAddr: 0xA284, symBinAddr: 0x1307C, symSize: 0x14 }
  - { offset: 0x4230A, size: 0x8, addend: 0x0, symName: __RNvXsg_NtNtCsiTraAjBDcu4_5alloc3vec9into_iterINtB5_8IntoIterNtNtCsc29TF2YcYso_3syn4expr3ArmENtNtB7_16in_place_collect13AsVecIntoIter12as_into_iterCsiSITA57RZ13_15zerofrom_derive, symObjAddr: 0xA298, symBinAddr: 0x13090, symSize: 0x14 }
  - { offset: 0x42341, size: 0x8, addend: 0x0, symName: __RNvXsg_NtNtCsiTraAjBDcu4_5alloc3vec9into_iterINtB5_8IntoIterNtNtCsc29TF2YcYso_3syn4item11ForeignItemENtNtB7_16in_place_collect13AsVecIntoIter12as_into_iterCsiSITA57RZ13_15zerofrom_derive, symObjAddr: 0xA2AC, symBinAddr: 0x130A4, symSize: 0x14 }
  - { offset: 0x42378, size: 0x8, addend: 0x0, symName: __RNvXsg_NtNtCsiTraAjBDcu4_5alloc3vec9into_iterINtB5_8IntoIterNtNtCsc29TF2YcYso_3syn4item4ItemENtNtB7_16in_place_collect13AsVecIntoIter12as_into_iterCsiSITA57RZ13_15zerofrom_derive, symObjAddr: 0xA2C0, symBinAddr: 0x130B8, symSize: 0x14 }
  - { offset: 0x423AF, size: 0x8, addend: 0x0, symName: __RNvXsg_NtNtCsiTraAjBDcu4_5alloc3vec9into_iterINtB5_8IntoIterNtNtCsc29TF2YcYso_3syn4item8ImplItemENtNtB7_16in_place_collect13AsVecIntoIter12as_into_iterCsiSITA57RZ13_15zerofrom_derive, symObjAddr: 0xA2D4, symBinAddr: 0x130CC, symSize: 0x14 }
  - { offset: 0x423E6, size: 0x8, addend: 0x0, symName: __RNvXsg_NtNtCsiTraAjBDcu4_5alloc3vec9into_iterINtB5_8IntoIterNtNtCsc29TF2YcYso_3syn4item9TraitItemENtNtB7_16in_place_collect13AsVecIntoIter12as_into_iterCsiSITA57RZ13_15zerofrom_derive, symObjAddr: 0xA2E8, symBinAddr: 0x130E0, symSize: 0x14 }
  - { offset: 0x4241D, size: 0x8, addend: 0x0, symName: __RNvXsg_NtNtCsiTraAjBDcu4_5alloc3vec9into_iterINtB5_8IntoIterNtNtCsc29TF2YcYso_3syn4stmt4StmtENtNtB7_16in_place_collect13AsVecIntoIter12as_into_iterCsiSITA57RZ13_15zerofrom_derive, symObjAddr: 0xA2FC, symBinAddr: 0x130F4, symSize: 0x14 }
  - { offset: 0x42454, size: 0x8, addend: 0x0, symName: __RNvXsg_NtNtCsiTraAjBDcu4_5alloc3vec9into_iterINtB5_8IntoIterTNtNtCsc29TF2YcYso_3syn2ty4TypeNtNtB11_5token5CommaEENtNtB7_16in_place_collect13AsVecIntoIter12as_into_iterCsiSITA57RZ13_15zerofrom_derive, symObjAddr: 0xA310, symBinAddr: 0x13108, symSize: 0x14 }
  - { offset: 0x4248B, size: 0x8, addend: 0x0, symName: __RNvXsg_NtNtCsiTraAjBDcu4_5alloc3vec9into_iterINtB5_8IntoIterTNtNtCsc29TF2YcYso_3syn2ty9BareFnArgNtNtB11_5token5CommaEENtNtB7_16in_place_collect13AsVecIntoIter12as_into_iterCsiSITA57RZ13_15zerofrom_derive, symObjAddr: 0xA324, symBinAddr: 0x1311C, symSize: 0x14 }
  - { offset: 0x424C2, size: 0x8, addend: 0x0, symName: __RNvXsg_NtNtCsiTraAjBDcu4_5alloc3vec9into_iterINtB5_8IntoIterTNtNtCsc29TF2YcYso_3syn3pat3PatNtNtB11_5token2OrEENtNtB7_16in_place_collect13AsVecIntoIter12as_into_iterCsiSITA57RZ13_15zerofrom_derive, symObjAddr: 0xA338, symBinAddr: 0x13130, symSize: 0x14 }
  - { offset: 0x424F9, size: 0x8, addend: 0x0, symName: __RNvXsg_NtNtCsiTraAjBDcu4_5alloc3vec9into_iterINtB5_8IntoIterTNtNtCsc29TF2YcYso_3syn3pat3PatNtNtB11_5token5CommaEENtNtB7_16in_place_collect13AsVecIntoIter12as_into_iterCsiSITA57RZ13_15zerofrom_derive, symObjAddr: 0xA34C, symBinAddr: 0x13144, symSize: 0x14 }
  - { offset: 0x42530, size: 0x8, addend: 0x0, symName: __RNvXsg_NtNtCsiTraAjBDcu4_5alloc3vec9into_iterINtB5_8IntoIterTNtNtCsc29TF2YcYso_3syn3pat8FieldPatNtNtB11_5token5CommaEENtNtB7_16in_place_collect13AsVecIntoIter12as_into_iterCsiSITA57RZ13_15zerofrom_derive, symObjAddr: 0xA360, symBinAddr: 0x13158, symSize: 0x14 }
  - { offset: 0x42567, size: 0x8, addend: 0x0, symName: __RNvXsg_NtNtCsiTraAjBDcu4_5alloc3vec9into_iterINtB5_8IntoIterTNtNtCsc29TF2YcYso_3syn4data5FieldNtNtB11_5token5CommaEENtNtB7_16in_place_collect13AsVecIntoIter12as_into_iterCsiSITA57RZ13_15zerofrom_derive, symObjAddr: 0xA374, symBinAddr: 0x1316C, symSize: 0x14 }
  - { offset: 0x4259E, size: 0x8, addend: 0x0, symName: __RNvXsg_NtNtCsiTraAjBDcu4_5alloc3vec9into_iterINtB5_8IntoIterTNtNtCsc29TF2YcYso_3syn4data7VariantNtNtB11_5token5CommaEENtNtB7_16in_place_collect13AsVecIntoIter12as_into_iterCsiSITA57RZ13_15zerofrom_derive, symObjAddr: 0xA388, symBinAddr: 0x13180, symSize: 0x14 }
  - { offset: 0x425D5, size: 0x8, addend: 0x0, symName: __RNvXsg_NtNtCsiTraAjBDcu4_5alloc3vec9into_iterINtB5_8IntoIterTNtNtCsc29TF2YcYso_3syn4expr10FieldValueNtNtB11_5token5CommaEENtNtB7_16in_place_collect13AsVecIntoIter12as_into_iterCsiSITA57RZ13_15zerofrom_derive, symObjAddr: 0xA39C, symBinAddr: 0x13194, symSize: 0x14 }
  - { offset: 0x4260C, size: 0x8, addend: 0x0, symName: __RNvXsg_NtNtCsiTraAjBDcu4_5alloc3vec9into_iterINtB5_8IntoIterTNtNtCsc29TF2YcYso_3syn4expr4ExprNtNtB11_5token5CommaEENtNtB7_16in_place_collect13AsVecIntoIter12as_into_iterCsiSITA57RZ13_15zerofrom_derive, symObjAddr: 0xA3B0, symBinAddr: 0x131A8, symSize: 0x14 }
  - { offset: 0x42643, size: 0x8, addend: 0x0, symName: __RNvXsg_NtNtCsiTraAjBDcu4_5alloc3vec9into_iterINtB5_8IntoIterTNtNtCsc29TF2YcYso_3syn4item5FnArgNtNtB11_5token5CommaEENtNtB7_16in_place_collect13AsVecIntoIter12as_into_iterCsiSITA57RZ13_15zerofrom_derive, symObjAddr: 0xA3C4, symBinAddr: 0x131BC, symSize: 0x14 }
  - { offset: 0x4267A, size: 0x8, addend: 0x0, symName: __RNvXsg_NtNtCsiTraAjBDcu4_5alloc3vec9into_iterINtB5_8IntoIterTNtNtCsc29TF2YcYso_3syn4item7UseTreeNtNtB11_5token5CommaEENtNtB7_16in_place_collect13AsVecIntoIter12as_into_iterCsiSITA57RZ13_15zerofrom_derive, symObjAddr: 0xA3D8, symBinAddr: 0x131D0, symSize: 0x14 }
  - { offset: 0x426B1, size: 0x8, addend: 0x0, symName: __RNvXsg_NtNtCsiTraAjBDcu4_5alloc3vec9into_iterINtB5_8IntoIterTNtNtCsc29TF2YcYso_3syn4path11PathSegmentNtNtB11_5token7PathSepEENtNtB7_16in_place_collect13AsVecIntoIter12as_into_iterCsiSITA57RZ13_15zerofrom_derive, symObjAddr: 0xA3EC, symBinAddr: 0x131E4, symSize: 0x14 }
  - { offset: 0x426E8, size: 0x8, addend: 0x0, symName: __RNvXsg_NtNtCsiTraAjBDcu4_5alloc3vec9into_iterINtB5_8IntoIterTNtNtCsc29TF2YcYso_3syn4path15GenericArgumentNtNtB11_5token5CommaEENtNtB7_16in_place_collect13AsVecIntoIter12as_into_iterCsiSITA57RZ13_15zerofrom_derive, symObjAddr: 0xA400, symBinAddr: 0x131F8, symSize: 0x14 }
  - { offset: 0x4271F, size: 0x8, addend: 0x0, symName: __RNvXsg_NtNtCsiTraAjBDcu4_5alloc3vec9into_iterINtB5_8IntoIterTNtNtCsc29TF2YcYso_3syn8generics12GenericParamNtNtB11_5token5CommaEENtNtB7_16in_place_collect13AsVecIntoIter12as_into_iterCsiSITA57RZ13_15zerofrom_derive, symObjAddr: 0xA414, symBinAddr: 0x1320C, symSize: 0x14 }
  - { offset: 0x42756, size: 0x8, addend: 0x0, symName: __RNvXsg_NtNtCsiTraAjBDcu4_5alloc3vec9into_iterINtB5_8IntoIterTNtNtCsc29TF2YcYso_3syn8generics13CapturedParamNtNtB11_5token5CommaEENtNtB7_16in_place_collect13AsVecIntoIter12as_into_iterCsiSITA57RZ13_15zerofrom_derive, symObjAddr: 0xA428, symBinAddr: 0x13220, symSize: 0x14 }
  - { offset: 0x4278D, size: 0x8, addend: 0x0, symName: __RNvXsg_NtNtCsiTraAjBDcu4_5alloc3vec9into_iterINtB5_8IntoIterTNtNtCsc29TF2YcYso_3syn8generics14TypeParamBoundNtNtB11_5token4PlusEENtNtB7_16in_place_collect13AsVecIntoIter12as_into_iterCsiSITA57RZ13_15zerofrom_derive, symObjAddr: 0xA43C, symBinAddr: 0x13234, symSize: 0x14 }
  - { offset: 0x427C4, size: 0x8, addend: 0x0, symName: __RNvXsg_NtNtCsiTraAjBDcu4_5alloc3vec9into_iterINtB5_8IntoIterTNtNtCsc29TF2YcYso_3syn8generics14WherePredicateNtNtB11_5token5CommaEENtNtB7_16in_place_collect13AsVecIntoIter12as_into_iterCsiSITA57RZ13_15zerofrom_derive, symObjAddr: 0xA450, symBinAddr: 0x13248, symSize: 0x14 }
  - { offset: 0x427FB, size: 0x8, addend: 0x0, symName: __RNvXsg_NtNtCsiTraAjBDcu4_5alloc3vec9into_iterINtB5_8IntoIterTNtNtCsc29TF2YcYso_3syn8lifetime8LifetimeNtNtB11_5token4PlusEENtNtB7_16in_place_collect13AsVecIntoIter12as_into_iterCsiSITA57RZ13_15zerofrom_derive, symObjAddr: 0xA464, symBinAddr: 0x1325C, symSize: 0x14 }
  - { offset: 0x476FB, size: 0x8, addend: 0x0, symName: __RNvMs_NtNtCsiTraAjBDcu4_5alloc3vec9into_iterINtB4_8IntoIterNtNtCsc29TF2YcYso_3syn4attr9AttributeE32forget_allocation_drop_remainingCsiSITA57RZ13_15zerofrom_derive, symObjAddr: 0x6C74, symBinAddr: 0xFA6C, symSize: 0xAC }
  - { offset: 0x4792E, size: 0x8, addend: 0x0, symName: __RNvMs_NtNtCsiTraAjBDcu4_5alloc3vec9into_iterINtB4_8IntoIterNtNtCsc29TF2YcYso_3syn4expr3ArmE32forget_allocation_drop_remainingCsiSITA57RZ13_15zerofrom_derive, symObjAddr: 0x6D20, symBinAddr: 0xFB18, symSize: 0xAC }
  - { offset: 0x47B61, size: 0x8, addend: 0x0, symName: __RNvMs_NtNtCsiTraAjBDcu4_5alloc3vec9into_iterINtB4_8IntoIterNtNtCsc29TF2YcYso_3syn4item11ForeignItemE32forget_allocation_drop_remainingCsiSITA57RZ13_15zerofrom_derive, symObjAddr: 0x6DCC, symBinAddr: 0xFBC4, symSize: 0xAC }
  - { offset: 0x47D94, size: 0x8, addend: 0x0, symName: __RNvMs_NtNtCsiTraAjBDcu4_5alloc3vec9into_iterINtB4_8IntoIterNtNtCsc29TF2YcYso_3syn4item4ItemE32forget_allocation_drop_remainingCsiSITA57RZ13_15zerofrom_derive, symObjAddr: 0x6E78, symBinAddr: 0xFC70, symSize: 0xAC }
  - { offset: 0x47FC7, size: 0x8, addend: 0x0, symName: __RNvMs_NtNtCsiTraAjBDcu4_5alloc3vec9into_iterINtB4_8IntoIterNtNtCsc29TF2YcYso_3syn4item8ImplItemE32forget_allocation_drop_remainingCsiSITA57RZ13_15zerofrom_derive, symObjAddr: 0x6F24, symBinAddr: 0xFD1C, symSize: 0xAC }
  - { offset: 0x481FA, size: 0x8, addend: 0x0, symName: __RNvMs_NtNtCsiTraAjBDcu4_5alloc3vec9into_iterINtB4_8IntoIterNtNtCsc29TF2YcYso_3syn4item9TraitItemE32forget_allocation_drop_remainingCsiSITA57RZ13_15zerofrom_derive, symObjAddr: 0x6FD0, symBinAddr: 0xFDC8, symSize: 0xAC }
  - { offset: 0x4842D, size: 0x8, addend: 0x0, symName: __RNvMs_NtNtCsiTraAjBDcu4_5alloc3vec9into_iterINtB4_8IntoIterNtNtCsc29TF2YcYso_3syn4stmt4StmtE32forget_allocation_drop_remainingCsiSITA57RZ13_15zerofrom_derive, symObjAddr: 0x707C, symBinAddr: 0xFE74, symSize: 0xAC }
  - { offset: 0x48660, size: 0x8, addend: 0x0, symName: __RNvMs_NtNtCsiTraAjBDcu4_5alloc3vec9into_iterINtB4_8IntoIterTNtNtCsc29TF2YcYso_3syn2ty4TypeNtNtB10_5token5CommaEE32forget_allocation_drop_remainingCsiSITA57RZ13_15zerofrom_derive, symObjAddr: 0x7128, symBinAddr: 0xFF20, symSize: 0xAC }
  - { offset: 0x48893, size: 0x8, addend: 0x0, symName: __RNvMs_NtNtCsiTraAjBDcu4_5alloc3vec9into_iterINtB4_8IntoIterTNtNtCsc29TF2YcYso_3syn2ty9BareFnArgNtNtB10_5token5CommaEE32forget_allocation_drop_remainingCsiSITA57RZ13_15zerofrom_derive, symObjAddr: 0x71D4, symBinAddr: 0xFFCC, symSize: 0xAC }
  - { offset: 0x48AC6, size: 0x8, addend: 0x0, symName: __RNvMs_NtNtCsiTraAjBDcu4_5alloc3vec9into_iterINtB4_8IntoIterTNtNtCsc29TF2YcYso_3syn3pat3PatNtNtB10_5token2OrEE32forget_allocation_drop_remainingCsiSITA57RZ13_15zerofrom_derive, symObjAddr: 0x7280, symBinAddr: 0x10078, symSize: 0xAC }
  - { offset: 0x48CF9, size: 0x8, addend: 0x0, symName: __RNvMs_NtNtCsiTraAjBDcu4_5alloc3vec9into_iterINtB4_8IntoIterTNtNtCsc29TF2YcYso_3syn3pat3PatNtNtB10_5token5CommaEE32forget_allocation_drop_remainingCsiSITA57RZ13_15zerofrom_derive, symObjAddr: 0x732C, symBinAddr: 0x10124, symSize: 0xAC }
  - { offset: 0x48F2C, size: 0x8, addend: 0x0, symName: __RNvMs_NtNtCsiTraAjBDcu4_5alloc3vec9into_iterINtB4_8IntoIterTNtNtCsc29TF2YcYso_3syn3pat8FieldPatNtNtB10_5token5CommaEE32forget_allocation_drop_remainingCsiSITA57RZ13_15zerofrom_derive, symObjAddr: 0x73D8, symBinAddr: 0x101D0, symSize: 0xAC }
  - { offset: 0x4915F, size: 0x8, addend: 0x0, symName: __RNvMs_NtNtCsiTraAjBDcu4_5alloc3vec9into_iterINtB4_8IntoIterTNtNtCsc29TF2YcYso_3syn4data5FieldNtNtB10_5token5CommaEE32forget_allocation_drop_remainingCsiSITA57RZ13_15zerofrom_derive, symObjAddr: 0x7484, symBinAddr: 0x1027C, symSize: 0xAC }
  - { offset: 0x49392, size: 0x8, addend: 0x0, symName: __RNvMs_NtNtCsiTraAjBDcu4_5alloc3vec9into_iterINtB4_8IntoIterTNtNtCsc29TF2YcYso_3syn4data7VariantNtNtB10_5token5CommaEE32forget_allocation_drop_remainingCsiSITA57RZ13_15zerofrom_derive, symObjAddr: 0x7530, symBinAddr: 0x10328, symSize: 0xAC }
  - { offset: 0x495C5, size: 0x8, addend: 0x0, symName: __RNvMs_NtNtCsiTraAjBDcu4_5alloc3vec9into_iterINtB4_8IntoIterTNtNtCsc29TF2YcYso_3syn4expr10FieldValueNtNtB10_5token5CommaEE32forget_allocation_drop_remainingCsiSITA57RZ13_15zerofrom_derive, symObjAddr: 0x75DC, symBinAddr: 0x103D4, symSize: 0xAC }
  - { offset: 0x497F8, size: 0x8, addend: 0x0, symName: __RNvMs_NtNtCsiTraAjBDcu4_5alloc3vec9into_iterINtB4_8IntoIterTNtNtCsc29TF2YcYso_3syn4expr4ExprNtNtB10_5token5CommaEE32forget_allocation_drop_remainingCsiSITA57RZ13_15zerofrom_derive, symObjAddr: 0x7688, symBinAddr: 0x10480, symSize: 0xAC }
  - { offset: 0x49A2B, size: 0x8, addend: 0x0, symName: __RNvMs_NtNtCsiTraAjBDcu4_5alloc3vec9into_iterINtB4_8IntoIterTNtNtCsc29TF2YcYso_3syn4item5FnArgNtNtB10_5token5CommaEE32forget_allocation_drop_remainingCsiSITA57RZ13_15zerofrom_derive, symObjAddr: 0x7734, symBinAddr: 0x1052C, symSize: 0xAC }
  - { offset: 0x49C5E, size: 0x8, addend: 0x0, symName: __RNvMs_NtNtCsiTraAjBDcu4_5alloc3vec9into_iterINtB4_8IntoIterTNtNtCsc29TF2YcYso_3syn4item7UseTreeNtNtB10_5token5CommaEE32forget_allocation_drop_remainingCsiSITA57RZ13_15zerofrom_derive, symObjAddr: 0x77E0, symBinAddr: 0x105D8, symSize: 0xAC }
  - { offset: 0x49E91, size: 0x8, addend: 0x0, symName: __RNvMs_NtNtCsiTraAjBDcu4_5alloc3vec9into_iterINtB4_8IntoIterTNtNtCsc29TF2YcYso_3syn4path11PathSegmentNtNtB10_5token7PathSepEE32forget_allocation_drop_remainingCsiSITA57RZ13_15zerofrom_derive, symObjAddr: 0x788C, symBinAddr: 0x10684, symSize: 0xAC }
  - { offset: 0x4A0C4, size: 0x8, addend: 0x0, symName: __RNvMs_NtNtCsiTraAjBDcu4_5alloc3vec9into_iterINtB4_8IntoIterTNtNtCsc29TF2YcYso_3syn4path15GenericArgumentNtNtB10_5token5CommaEE32forget_allocation_drop_remainingCsiSITA57RZ13_15zerofrom_derive, symObjAddr: 0x7938, symBinAddr: 0x10730, symSize: 0xAC }
  - { offset: 0x4A2F7, size: 0x8, addend: 0x0, symName: __RNvMs_NtNtCsiTraAjBDcu4_5alloc3vec9into_iterINtB4_8IntoIterTNtNtCsc29TF2YcYso_3syn8generics12GenericParamNtNtB10_5token5CommaEE32forget_allocation_drop_remainingCsiSITA57RZ13_15zerofrom_derive, symObjAddr: 0x79E4, symBinAddr: 0x107DC, symSize: 0xAC }
  - { offset: 0x4A52A, size: 0x8, addend: 0x0, symName: __RNvMs_NtNtCsiTraAjBDcu4_5alloc3vec9into_iterINtB4_8IntoIterTNtNtCsc29TF2YcYso_3syn8generics13CapturedParamNtNtB10_5token5CommaEE32forget_allocation_drop_remainingCsiSITA57RZ13_15zerofrom_derive, symObjAddr: 0x7A90, symBinAddr: 0x10888, symSize: 0xAC }
  - { offset: 0x4A75D, size: 0x8, addend: 0x0, symName: __RNvMs_NtNtCsiTraAjBDcu4_5alloc3vec9into_iterINtB4_8IntoIterTNtNtCsc29TF2YcYso_3syn8generics14TypeParamBoundNtNtB10_5token4PlusEE32forget_allocation_drop_remainingCsiSITA57RZ13_15zerofrom_derive, symObjAddr: 0x7B3C, symBinAddr: 0x10934, symSize: 0xAC }
  - { offset: 0x4A990, size: 0x8, addend: 0x0, symName: __RNvMs_NtNtCsiTraAjBDcu4_5alloc3vec9into_iterINtB4_8IntoIterTNtNtCsc29TF2YcYso_3syn8generics14WherePredicateNtNtB10_5token5CommaEE32forget_allocation_drop_remainingCsiSITA57RZ13_15zerofrom_derive, symObjAddr: 0x7BE8, symBinAddr: 0x109E0, symSize: 0xAC }
  - { offset: 0x4ABC3, size: 0x8, addend: 0x0, symName: __RNvMs_NtNtCsiTraAjBDcu4_5alloc3vec9into_iterINtB4_8IntoIterTNtNtCsc29TF2YcYso_3syn8lifetime8LifetimeNtNtB10_5token4PlusEE32forget_allocation_drop_remainingCsiSITA57RZ13_15zerofrom_derive, symObjAddr: 0x7C94, symBinAddr: 0x10A8C, symSize: 0xAC }
  - { offset: 0x4C633, size: 0x8, addend: 0x0, symName: __RINvNtNtCsc29TF2YcYso_3syn3gen4fold10fold_blockNtNvCsiSITA57RZ13_15zerofrom_derive16replace_lifetime15ReplaceLifetimeEBN_, symObjAddr: 0x0, symBinAddr: 0x1440C, symSize: 0x90 }
  - { offset: 0x4CF8A, size: 0x8, addend: 0x0, symName: __RINvNtNtCsc29TF2YcYso_3syn3gen4fold10fold_blockNtNvCsiSITA57RZ13_15zerofrom_derive16replace_lifetime15ReplaceLifetimeEBN_, symObjAddr: 0x0, symBinAddr: 0x1440C, symSize: 0x90 }
  - { offset: 0x4CFD1, size: 0x8, addend: 0x0, symName: __RINvNtNtCsc29TF2YcYso_3syn3gen4fold10fold_blockNtNvCsiSITA57RZ13_15zerofrom_derive25replace_lifetime_and_type20ReplaceLifetimeAndTyEBN_, symObjAddr: 0x90, symBinAddr: 0x1449C, symSize: 0x90 }
  - { offset: 0x4D018, size: 0x8, addend: 0x0, symName: __RINvNtNtCsc29TF2YcYso_3syn3gen4fold10fold_fieldNtNvCsiSITA57RZ13_15zerofrom_derive16replace_lifetime15ReplaceLifetimeEBN_, symObjAddr: 0x120, symBinAddr: 0x1452C, symSize: 0x22C }
  - { offset: 0x4D05F, size: 0x8, addend: 0x0, symName: __RINvNtNtCsc29TF2YcYso_3syn3gen4fold10fold_fieldNtNvCsiSITA57RZ13_15zerofrom_derive25replace_lifetime_and_type20ReplaceLifetimeAndTyEBN_, symObjAddr: 0x34C, symBinAddr: 0x14758, symSize: 0x22C }
  - { offset: 0x4D0A6, size: 0x8, addend: 0x0, symName: __RINvNtNtCsc29TF2YcYso_3syn3gen4fold10fold_identNtNvCsiSITA57RZ13_15zerofrom_derive16replace_lifetime15ReplaceLifetimeEBN_, symObjAddr: 0x578, symBinAddr: 0x14984, symSize: 0xB8 }
  - { offset: 0x4D121, size: 0x8, addend: 0x0, symName: __RINvNtNtCsc29TF2YcYso_3syn3gen4fold10fold_identNtNvCsiSITA57RZ13_15zerofrom_derive25replace_lifetime_and_type20ReplaceLifetimeAndTyEBN_, symObjAddr: 0x630, symBinAddr: 0x14A3C, symSize: 0xB8 }
  - { offset: 0x4D19C, size: 0x8, addend: 0x0, symName: __RINvNtNtCsc29TF2YcYso_3syn3gen4fold10fold_indexNtNvCsiSITA57RZ13_15zerofrom_derive16replace_lifetime15ReplaceLifetimeEBN_, symObjAddr: 0x6E8, symBinAddr: 0x14AF4, symSize: 0x50 }
  - { offset: 0x4D1E2, size: 0x8, addend: 0x0, symName: __RINvNtNtCsc29TF2YcYso_3syn3gen4fold10fold_indexNtNvCsiSITA57RZ13_15zerofrom_derive25replace_lifetime_and_type20ReplaceLifetimeAndTyEBN_, symObjAddr: 0x738, symBinAddr: 0x14B44, symSize: 0x50 }
  - { offset: 0x4D228, size: 0x8, addend: 0x0, symName: __RINvNtNtCsc29TF2YcYso_3syn3gen4fold10fold_labelNtNvCsiSITA57RZ13_15zerofrom_derive16replace_lifetime15ReplaceLifetimeEBN_, symObjAddr: 0x788, symBinAddr: 0x14B94, symSize: 0x80 }
  - { offset: 0x4D26F, size: 0x8, addend: 0x0, symName: __RINvNtNtCsc29TF2YcYso_3syn3gen4fold10fold_labelNtNvCsiSITA57RZ13_15zerofrom_derive25replace_lifetime_and_type20ReplaceLifetimeAndTyEBN_, symObjAddr: 0x808, symBinAddr: 0x14C14, symSize: 0x80 }
  - { offset: 0x4D2B6, size: 0x8, addend: 0x0, symName: __RINvNtNtCsc29TF2YcYso_3syn3gen4fold10fold_localNtNvCsiSITA57RZ13_15zerofrom_derive16replace_lifetime15ReplaceLifetimeEBN_, symObjAddr: 0x888, symBinAddr: 0x14C94, symSize: 0x1D8 }
  - { offset: 0x4D2FD, size: 0x8, addend: 0x0, symName: __RINvNtNtCsc29TF2YcYso_3syn3gen4fold10fold_localNtNvCsiSITA57RZ13_15zerofrom_derive25replace_lifetime_and_type20ReplaceLifetimeAndTyEBN_, symObjAddr: 0xA60, symBinAddr: 0x14E6C, symSize: 0x1D8 }
  - { offset: 0x4D344, size: 0x8, addend: 0x0, symName: __RINvNtNtCsc29TF2YcYso_3syn3gen4fold10fold_macroNtNvCsiSITA57RZ13_15zerofrom_derive16replace_lifetime15ReplaceLifetimeEBN_, symObjAddr: 0xC38, symBinAddr: 0x15044, symSize: 0x164 }
  - { offset: 0x4D38B, size: 0x8, addend: 0x0, symName: __RINvNtNtCsc29TF2YcYso_3syn3gen4fold10fold_macroNtNvCsiSITA57RZ13_15zerofrom_derive25replace_lifetime_and_type20ReplaceLifetimeAndTyEBN_, symObjAddr: 0xD9C, symBinAddr: 0x151A8, symSize: 0x164 }
  - { offset: 0x4D3D2, size: 0x8, addend: 0x0, symName: __RINvNtNtCsc29TF2YcYso_3syn3gen4fold10fold_qselfNtNvCsiSITA57RZ13_15zerofrom_derive16replace_lifetime15ReplaceLifetimeEBN_, symObjAddr: 0xF00, symBinAddr: 0x1530C, symSize: 0x1CC }
  - { offset: 0x4D438, size: 0x8, addend: 0x0, symName: __RINvNtNtCsc29TF2YcYso_3syn3gen4fold10fold_qselfNtNvCsiSITA57RZ13_15zerofrom_derive25replace_lifetime_and_type20ReplaceLifetimeAndTyEBN_, symObjAddr: 0x10CC, symBinAddr: 0x154D8, symSize: 0x1CC }
  - { offset: 0x4D49E, size: 0x8, addend: 0x0, symName: __RINvNtNtCsc29TF2YcYso_3syn3gen4fold10fold_un_opNtNvCsiSITA57RZ13_15zerofrom_derive16replace_lifetime15ReplaceLifetimeEBN_, symObjAddr: 0x1298, symBinAddr: 0x156A4, symSize: 0xCC }
  - { offset: 0x4D53E, size: 0x8, addend: 0x0, symName: __RINvNtNtCsc29TF2YcYso_3syn3gen4fold10fold_un_opNtNvCsiSITA57RZ13_15zerofrom_derive25replace_lifetime_and_type20ReplaceLifetimeAndTyEBN_, symObjAddr: 0x1364, symBinAddr: 0x15770, symSize: 0xCC }
  - { offset: 0x4D5DE, size: 0x8, addend: 0x0, symName: __RINvNtNtCsc29TF2YcYso_3syn3gen4fold11fold_bin_opNtNvCsiSITA57RZ13_15zerofrom_derive16replace_lifetime15ReplaceLifetimeEBO_, symObjAddr: 0x1430, symBinAddr: 0x1583C, symSize: 0x6B0 }
  - { offset: 0x4D984, size: 0x8, addend: 0x0, symName: __RINvNtNtCsc29TF2YcYso_3syn3gen4fold11fold_bin_opNtNvCsiSITA57RZ13_15zerofrom_derive25replace_lifetime_and_type20ReplaceLifetimeAndTyEBO_, symObjAddr: 0x1AE0, symBinAddr: 0x15EEC, symSize: 0x6B0 }
  - { offset: 0x4DD2A, size: 0x8, addend: 0x0, symName: __RINvNtNtCsc29TF2YcYso_3syn3gen4fold11fold_fieldsNtNvCsiSITA57RZ13_15zerofrom_derive16replace_lifetime15ReplaceLifetimeEBO_, symObjAddr: 0x2190, symBinAddr: 0x1659C, symSize: 0x14C }
  - { offset: 0x4DDAF, size: 0x8, addend: 0x0, symName: __RINvNtNtCsc29TF2YcYso_3syn3gen4fold11fold_fieldsNtNvCsiSITA57RZ13_15zerofrom_derive25replace_lifetime_and_type20ReplaceLifetimeAndTyEBO_, symObjAddr: 0x22DC, symBinAddr: 0x166E8, symSize: 0x14C }
  - { offset: 0x4DE34, size: 0x8, addend: 0x0, symName: __RINvNtNtCsc29TF2YcYso_3syn3gen4fold11fold_fn_argNtNvCsiSITA57RZ13_15zerofrom_derive16replace_lifetime15ReplaceLifetimeEBO_, symObjAddr: 0x2428, symBinAddr: 0x16834, symSize: 0x10C }
  - { offset: 0x4DEB1, size: 0x8, addend: 0x0, symName: __RINvNtNtCsc29TF2YcYso_3syn3gen4fold11fold_fn_argNtNvCsiSITA57RZ13_15zerofrom_derive25replace_lifetime_and_type20ReplaceLifetimeAndTyEBO_, symObjAddr: 0x2534, symBinAddr: 0x16940, symSize: 0x10C }
  - { offset: 0x4DF2E, size: 0x8, addend: 0x0, symName: __RINvNtNtCsc29TF2YcYso_3syn3gen4fold11fold_memberNtNvCsiSITA57RZ13_15zerofrom_derive16replace_lifetime15ReplaceLifetimeEBO_, symObjAddr: 0x2640, symBinAddr: 0x16A4C, symSize: 0xD4 }
  - { offset: 0x4DFA9, size: 0x8, addend: 0x0, symName: __RINvNtNtCsc29TF2YcYso_3syn3gen4fold11fold_memberNtNvCsiSITA57RZ13_15zerofrom_derive25replace_lifetime_and_type20ReplaceLifetimeAndTyEBO_, symObjAddr: 0x2714, symBinAddr: 0x16B20, symSize: 0xD4 }
  - { offset: 0x4E024, size: 0x8, addend: 0x0, symName: __RINvNtNtCsc29TF2YcYso_3syn3gen4fold11fold_pat_orNtNvCsiSITA57RZ13_15zerofrom_derive16replace_lifetime15ReplaceLifetimeEBO_, symObjAddr: 0x27E8, symBinAddr: 0x16BF4, symSize: 0x120 }
  - { offset: 0x4E06B, size: 0x8, addend: 0x0, symName: __RINvNtNtCsc29TF2YcYso_3syn3gen4fold11fold_pat_orNtNvCsiSITA57RZ13_15zerofrom_derive25replace_lifetime_and_type20ReplaceLifetimeAndTyEBO_, symObjAddr: 0x2908, symBinAddr: 0x16D14, symSize: 0x120 }
  - { offset: 0x4E0B2, size: 0x8, addend: 0x0, symName: __RINvNtNtCsc29TF2YcYso_3syn3gen4fold12fold_expr_ifNtNvCsiSITA57RZ13_15zerofrom_derive16replace_lifetime15ReplaceLifetimeEBP_, symObjAddr: 0x2A28, symBinAddr: 0x16E34, symSize: 0x318 }
  - { offset: 0x4E118, size: 0x8, addend: 0x0, symName: __RINvNtNtCsc29TF2YcYso_3syn3gen4fold12fold_expr_ifNtNvCsiSITA57RZ13_15zerofrom_derive25replace_lifetime_and_type20ReplaceLifetimeAndTyEBP_, symObjAddr: 0x2D40, symBinAddr: 0x1714C, symSize: 0x318 }
  - { offset: 0x4E17E, size: 0x8, addend: 0x0, symName: __RINvNtNtCsc29TF2YcYso_3syn3gen4fold12fold_item_fnNtNvCsiSITA57RZ13_15zerofrom_derive16replace_lifetime15ReplaceLifetimeEBP_, symObjAddr: 0x3058, symBinAddr: 0x17464, symSize: 0x304 }
  - { offset: 0x4E1E4, size: 0x8, addend: 0x0, symName: __RINvNtNtCsc29TF2YcYso_3syn3gen4fold12fold_item_fnNtNvCsiSITA57RZ13_15zerofrom_derive25replace_lifetime_and_type20ReplaceLifetimeAndTyEBP_, symObjAddr: 0x335C, symBinAddr: 0x17768, symSize: 0x304 }
  - { offset: 0x4E24A, size: 0x8, addend: 0x0, symName: __RINvNtNtCsc29TF2YcYso_3syn3gen4fold12fold_lit_intNtNvCsiSITA57RZ13_15zerofrom_derive16replace_lifetime15ReplaceLifetimeEBP_, symObjAddr: 0x3660, symBinAddr: 0x17A6C, symSize: 0xDC }
  - { offset: 0x4E2C4, size: 0x8, addend: 0x0, symName: __RINvNtNtCsc29TF2YcYso_3syn3gen4fold12fold_lit_intNtNvCsiSITA57RZ13_15zerofrom_derive25replace_lifetime_and_type20ReplaceLifetimeAndTyEBP_, symObjAddr: 0x373C, symBinAddr: 0x17B48, symSize: 0xDC }
  - { offset: 0x4E33E, size: 0x8, addend: 0x0, symName: __RINvNtNtCsc29TF2YcYso_3syn3gen4fold12fold_lit_strNtNvCsiSITA57RZ13_15zerofrom_derive16replace_lifetime15ReplaceLifetimeEBP_, symObjAddr: 0x3818, symBinAddr: 0x17C24, symSize: 0xDC }
  - { offset: 0x4E3B8, size: 0x8, addend: 0x0, symName: __RINvNtNtCsc29TF2YcYso_3syn3gen4fold12fold_lit_strNtNvCsiSITA57RZ13_15zerofrom_derive25replace_lifetime_and_type20ReplaceLifetimeAndTyEBP_, symObjAddr: 0x38F4, symBinAddr: 0x17D00, symSize: 0xDC }
  - { offset: 0x4E432, size: 0x8, addend: 0x0, symName: __RINvNtNtCsc29TF2YcYso_3syn3gen4fold12fold_variantNtNvCsiSITA57RZ13_15zerofrom_derive16replace_lifetime15ReplaceLifetimeEBP_, symObjAddr: 0x39D0, symBinAddr: 0x17DDC, symSize: 0x228 }
  - { offset: 0x4E479, size: 0x8, addend: 0x0, symName: __RINvNtNtCsc29TF2YcYso_3syn3gen4fold12fold_variantNtNvCsiSITA57RZ13_15zerofrom_derive25replace_lifetime_and_type20ReplaceLifetimeAndTyEBP_, symObjAddr: 0x3BF8, symBinAddr: 0x18004, symSize: 0x228 }
  - { offset: 0x4E4C0, size: 0x8, addend: 0x0, symName: __RINvNtNtCsc29TF2YcYso_3syn3gen4fold13fold_expr_letNtNvCsiSITA57RZ13_15zerofrom_derive16replace_lifetime15ReplaceLifetimeEBQ_, symObjAddr: 0x3E20, symBinAddr: 0x1822C, symSize: 0x3B8 }
  - { offset: 0x4E546, size: 0x8, addend: 0x0, symName: __RINvNtNtCsc29TF2YcYso_3syn3gen4fold13fold_expr_letNtNvCsiSITA57RZ13_15zerofrom_derive25replace_lifetime_and_type20ReplaceLifetimeAndTyEBQ_, symObjAddr: 0x41D8, symBinAddr: 0x185E4, symSize: 0x3B8 }
  - { offset: 0x4E5CC, size: 0x8, addend: 0x0, symName: __RINvNtNtCsc29TF2YcYso_3syn3gen4fold13fold_expr_litNtNvCsiSITA57RZ13_15zerofrom_derive16replace_lifetime15ReplaceLifetimeEBQ_, symObjAddr: 0x4590, symBinAddr: 0x1899C, symSize: 0x110 }
  - { offset: 0x4E613, size: 0x8, addend: 0x0, symName: __RINvNtNtCsc29TF2YcYso_3syn3gen4fold13fold_expr_litNtNvCsiSITA57RZ13_15zerofrom_derive25replace_lifetime_and_type20ReplaceLifetimeAndTyEBQ_, symObjAddr: 0x46A0, symBinAddr: 0x18AAC, symSize: 0x110 }
  - { offset: 0x4E65A, size: 0x8, addend: 0x0, symName: __RINvNtNtCsc29TF2YcYso_3syn3gen4fold13fold_expr_tryNtNvCsiSITA57RZ13_15zerofrom_derive16replace_lifetime15ReplaceLifetimeEBQ_, symObjAddr: 0x47B0, symBinAddr: 0x18BBC, symSize: 0x210 }
  - { offset: 0x4E6C0, size: 0x8, addend: 0x0, symName: __RINvNtNtCsc29TF2YcYso_3syn3gen4fold13fold_expr_tryNtNvCsiSITA57RZ13_15zerofrom_derive25replace_lifetime_and_type20ReplaceLifetimeAndTyEBQ_, symObjAddr: 0x49C0, symBinAddr: 0x18DCC, symSize: 0x210 }
  - { offset: 0x4E726, size: 0x8, addend: 0x0, symName: __RINvNtNtCsc29TF2YcYso_3syn3gen4fold13fold_genericsNtNvCsiSITA57RZ13_15zerofrom_derive16replace_lifetime15ReplaceLifetimeEBQ_, symObjAddr: 0x4BD0, symBinAddr: 0x18FDC, symSize: 0x148 }
  - { offset: 0x4E76D, size: 0x8, addend: 0x0, symName: __RINvNtNtCsc29TF2YcYso_3syn3gen4fold13fold_genericsNtNvCsiSITA57RZ13_15zerofrom_derive25replace_lifetime_and_type20ReplaceLifetimeAndTyEBQ_, symObjAddr: 0x4D18, symBinAddr: 0x19124, symSize: 0x148 }
  - { offset: 0x4E7B4, size: 0x8, addend: 0x0, symName: __RINvNtNtCsc29TF2YcYso_3syn3gen4fold13fold_item_modNtNvCsiSITA57RZ13_15zerofrom_derive16replace_lifetime15ReplaceLifetimeEBQ_, symObjAddr: 0x4E60, symBinAddr: 0x1926C, symSize: 0x264 }
  - { offset: 0x4E7FB, size: 0x8, addend: 0x0, symName: __RINvNtNtCsc29TF2YcYso_3syn3gen4fold13fold_item_modNtNvCsiSITA57RZ13_15zerofrom_derive25replace_lifetime_and_type20ReplaceLifetimeAndTyEBQ_, symObjAddr: 0x50C4, symBinAddr: 0x194D0, symSize: 0x264 }
  - { offset: 0x4E842, size: 0x8, addend: 0x0, symName: __RINvNtNtCsc29TF2YcYso_3syn3gen4fold13fold_item_useNtNvCsiSITA57RZ13_15zerofrom_derive16replace_lifetime15ReplaceLifetimeEBQ_, symObjAddr: 0x5328, symBinAddr: 0x19734, symSize: 0x1E8 }
  - { offset: 0x4E889, size: 0x8, addend: 0x0, symName: __RINvNtNtCsc29TF2YcYso_3syn3gen4fold13fold_item_useNtNvCsiSITA57RZ13_15zerofrom_derive25replace_lifetime_and_type20ReplaceLifetimeAndTyEBQ_, symObjAddr: 0x5510, symBinAddr: 0x1991C, symSize: 0x1E8 }
  - { offset: 0x4E8D0, size: 0x8, addend: 0x0, symName: __RINvNtNtCsc29TF2YcYso_3syn3gen4fold13fold_lit_boolNtNvCsiSITA57RZ13_15zerofrom_derive16replace_lifetime15ReplaceLifetimeEBQ_, symObjAddr: 0x56F8, symBinAddr: 0x19B04, symSize: 0x44 }
  - { offset: 0x4E916, size: 0x8, addend: 0x0, symName: __RINvNtNtCsc29TF2YcYso_3syn3gen4fold13fold_lit_boolNtNvCsiSITA57RZ13_15zerofrom_derive25replace_lifetime_and_type20ReplaceLifetimeAndTyEBQ_, symObjAddr: 0x573C, symBinAddr: 0x19B48, symSize: 0x44 }
  - { offset: 0x4E95C, size: 0x8, addend: 0x0, symName: __RINvNtNtCsc29TF2YcYso_3syn3gen4fold13fold_lit_byteNtNvCsiSITA57RZ13_15zerofrom_derive16replace_lifetime15ReplaceLifetimeEBQ_, symObjAddr: 0x5780, symBinAddr: 0x19B8C, symSize: 0xDC }
  - { offset: 0x4E9D6, size: 0x8, addend: 0x0, symName: __RINvNtNtCsc29TF2YcYso_3syn3gen4fold13fold_lit_byteNtNvCsiSITA57RZ13_15zerofrom_derive25replace_lifetime_and_type20ReplaceLifetimeAndTyEBQ_, symObjAddr: 0x585C, symBinAddr: 0x19C68, symSize: 0xDC }
  - { offset: 0x4EA50, size: 0x8, addend: 0x0, symName: __RINvNtNtCsc29TF2YcYso_3syn3gen4fold13fold_lit_charNtNvCsiSITA57RZ13_15zerofrom_derive16replace_lifetime15ReplaceLifetimeEBQ_, symObjAddr: 0x5938, symBinAddr: 0x19D44, symSize: 0xDC }
  - { offset: 0x4EACA, size: 0x8, addend: 0x0, symName: __RINvNtNtCsc29TF2YcYso_3syn3gen4fold13fold_lit_charNtNvCsiSITA57RZ13_15zerofrom_derive25replace_lifetime_and_type20ReplaceLifetimeAndTyEBQ_, symObjAddr: 0x5A14, symBinAddr: 0x19E20, symSize: 0xDC }
  - { offset: 0x4EB44, size: 0x8, addend: 0x0, symName: __RINvNtNtCsc29TF2YcYso_3syn3gen4fold13fold_lit_cstrNtNvCsiSITA57RZ13_15zerofrom_derive16replace_lifetime15ReplaceLifetimeEBQ_, symObjAddr: 0x5AF0, symBinAddr: 0x19EFC, symSize: 0xDC }
  - { offset: 0x4EBBE, size: 0x8, addend: 0x0, symName: __RINvNtNtCsc29TF2YcYso_3syn3gen4fold13fold_lit_cstrNtNvCsiSITA57RZ13_15zerofrom_derive25replace_lifetime_and_type20ReplaceLifetimeAndTyEBQ_, symObjAddr: 0x5BCC, symBinAddr: 0x19FD8, symSize: 0xDC }
  - { offset: 0x4EC38, size: 0x8, addend: 0x0, symName: __RINvNtNtCsc29TF2YcYso_3syn3gen4fold13fold_pat_restNtNvCsiSITA57RZ13_15zerofrom_derive16replace_lifetime15ReplaceLifetimeEBQ_, symObjAddr: 0x5CA8, symBinAddr: 0x1A0B4, symSize: 0x80 }
  - { offset: 0x4EC7F, size: 0x8, addend: 0x0, symName: __RINvNtNtCsc29TF2YcYso_3syn3gen4fold13fold_pat_restNtNvCsiSITA57RZ13_15zerofrom_derive25replace_lifetime_and_type20ReplaceLifetimeAndTyEBQ_, symObjAddr: 0x5D28, symBinAddr: 0x1A134, symSize: 0x80 }
  - { offset: 0x4ECC6, size: 0x8, addend: 0x0, symName: __RINvNtNtCsc29TF2YcYso_3syn3gen4fold13fold_pat_typeNtNvCsiSITA57RZ13_15zerofrom_derive16replace_lifetime15ReplaceLifetimeEBQ_, symObjAddr: 0x5DA8, symBinAddr: 0x1A1B4, symSize: 0x3AC }
  - { offset: 0x4ED4C, size: 0x8, addend: 0x0, symName: __RINvNtNtCsc29TF2YcYso_3syn3gen4fold13fold_pat_typeNtNvCsiSITA57RZ13_15zerofrom_derive25replace_lifetime_and_type20ReplaceLifetimeAndTyEBQ_, symObjAddr: 0x6154, symBinAddr: 0x1A560, symSize: 0x3AC }
  - { offset: 0x4EDD2, size: 0x8, addend: 0x0, symName: __RINvNtNtCsc29TF2YcYso_3syn3gen4fold13fold_pat_wildNtNvCsiSITA57RZ13_15zerofrom_derive16replace_lifetime15ReplaceLifetimeEBQ_, symObjAddr: 0x6500, symBinAddr: 0x1A90C, symSize: 0x80 }
  - { offset: 0x4EE19, size: 0x8, addend: 0x0, symName: __RINvNtNtCsc29TF2YcYso_3syn3gen4fold13fold_pat_wildNtNvCsiSITA57RZ13_15zerofrom_derive25replace_lifetime_and_type20ReplaceLifetimeAndTyEBQ_, symObjAddr: 0x6580, symBinAddr: 0x1A98C, symSize: 0x80 }
  - { offset: 0x4EE60, size: 0x8, addend: 0x0, symName: __RINvNtNtCsc29TF2YcYso_3syn3gen4fold13fold_receiverNtNvCsiSITA57RZ13_15zerofrom_derive16replace_lifetime15ReplaceLifetimeEBQ_, symObjAddr: 0x6600, symBinAddr: 0x1AA0C, symSize: 0x2CC }
  - { offset: 0x4EEC6, size: 0x8, addend: 0x0, symName: __RINvNtNtCsc29TF2YcYso_3syn3gen4fold13fold_receiverNtNvCsiSITA57RZ13_15zerofrom_derive25replace_lifetime_and_type20ReplaceLifetimeAndTyEBQ_, symObjAddr: 0x68CC, symBinAddr: 0x1ACD8, symSize: 0x2CC }
  - { offset: 0x4EF2C, size: 0x8, addend: 0x0, symName: __RINvNtNtCsc29TF2YcYso_3syn3gen4fold13fold_type_ptrNtNvCsiSITA57RZ13_15zerofrom_derive16replace_lifetime15ReplaceLifetimeEBQ_, symObjAddr: 0x6B98, symBinAddr: 0x1AFA4, symSize: 0x1E4 }
  - { offset: 0x4EF92, size: 0x8, addend: 0x0, symName: __RINvNtNtCsc29TF2YcYso_3syn3gen4fold13fold_type_ptrNtNvCsiSITA57RZ13_15zerofrom_derive25replace_lifetime_and_type20ReplaceLifetimeAndTyEBQ_, symObjAddr: 0x6D7C, symBinAddr: 0x1B188, symSize: 0x1E4 }
  - { offset: 0x4EFF8, size: 0x8, addend: 0x0, symName: __RINvNtNtCsc29TF2YcYso_3syn3gen4fold13fold_use_globNtNvCsiSITA57RZ13_15zerofrom_derive16replace_lifetime15ReplaceLifetimeEBQ_, symObjAddr: 0x6F60, symBinAddr: 0x1B36C, symSize: 0x40 }
  - { offset: 0x4F03E, size: 0x8, addend: 0x0, symName: __RINvNtNtCsc29TF2YcYso_3syn3gen4fold13fold_use_globNtNvCsiSITA57RZ13_15zerofrom_derive25replace_lifetime_and_type20ReplaceLifetimeAndTyEBQ_, symObjAddr: 0x6FA0, symBinAddr: 0x1B3AC, symSize: 0x40 }
  - { offset: 0x4F084, size: 0x8, addend: 0x0, symName: __RINvNtNtCsc29TF2YcYso_3syn3gen4fold13fold_use_nameNtNvCsiSITA57RZ13_15zerofrom_derive16replace_lifetime15ReplaceLifetimeEBQ_, symObjAddr: 0x6FE0, symBinAddr: 0x1B3EC, symSize: 0x68 }
  - { offset: 0x4F0CB, size: 0x8, addend: 0x0, symName: __RINvNtNtCsc29TF2YcYso_3syn3gen4fold13fold_use_nameNtNvCsiSITA57RZ13_15zerofrom_derive25replace_lifetime_and_type20ReplaceLifetimeAndTyEBQ_, symObjAddr: 0x7048, symBinAddr: 0x1B454, symSize: 0x68 }
  - { offset: 0x4F112, size: 0x8, addend: 0x0, symName: __RINvNtNtCsc29TF2YcYso_3syn3gen4fold13fold_use_pathNtNvCsiSITA57RZ13_15zerofrom_derive16replace_lifetime15ReplaceLifetimeEBQ_, symObjAddr: 0x70B0, symBinAddr: 0x1B4BC, symSize: 0x210 }
  - { offset: 0x4F178, size: 0x8, addend: 0x0, symName: __RINvNtNtCsc29TF2YcYso_3syn3gen4fold13fold_use_pathNtNvCsiSITA57RZ13_15zerofrom_derive25replace_lifetime_and_type20ReplaceLifetimeAndTyEBQ_, symObjAddr: 0x72C0, symBinAddr: 0x1B6CC, symSize: 0x210 }
  - { offset: 0x4F1DE, size: 0x8, addend: 0x0, symName: __RINvNtNtCsc29TF2YcYso_3syn3gen4fold13fold_use_treeNtNvCsiSITA57RZ13_15zerofrom_derive16replace_lifetime15ReplaceLifetimeEBQ_, symObjAddr: 0x74D0, symBinAddr: 0x1B8DC, symSize: 0x260 }
  - { offset: 0x4F2B8, size: 0x8, addend: 0x0, symName: __RINvNtNtCsc29TF2YcYso_3syn3gen4fold13fold_use_treeNtNvCsiSITA57RZ13_15zerofrom_derive25replace_lifetime_and_type20ReplaceLifetimeAndTyEBQ_, symObjAddr: 0x7730, symBinAddr: 0x1BB3C, symSize: 0x260 }
  - { offset: 0x4F392, size: 0x8, addend: 0x0, symName: __RINvNtNtCsc29TF2YcYso_3syn3gen4fold13fold_variadicNtNvCsiSITA57RZ13_15zerofrom_derive16replace_lifetime15ReplaceLifetimeEBQ_, symObjAddr: 0x7990, symBinAddr: 0x1BD9C, symSize: 0x134 }
  - { offset: 0x4F3D9, size: 0x8, addend: 0x0, symName: __RINvNtNtCsc29TF2YcYso_3syn3gen4fold13fold_variadicNtNvCsiSITA57RZ13_15zerofrom_derive25replace_lifetime_and_type20ReplaceLifetimeAndTyEBQ_, symObjAddr: 0x7AC4, symBinAddr: 0x1BED0, symSize: 0x134 }
  - { offset: 0x4F420, size: 0x8, addend: 0x0, symName: __RINvNtNtCsc29TF2YcYso_3syn3gen4fold14fold_attributeNtNvCsiSITA57RZ13_15zerofrom_derive16replace_lifetime15ReplaceLifetimeEBR_, symObjAddr: 0x7BF8, symBinAddr: 0x1C004, symSize: 0x14C }
  - { offset: 0x4F467, size: 0x8, addend: 0x0, symName: __RINvNtNtCsc29TF2YcYso_3syn3gen4fold14fold_attributeNtNvCsiSITA57RZ13_15zerofrom_derive25replace_lifetime_and_type20ReplaceLifetimeAndTyEBR_, symObjAddr: 0x7D44, symBinAddr: 0x1C150, symSize: 0x14C }
  - { offset: 0x4F4AE, size: 0x8, addend: 0x0, symName: __RINvNtNtCsc29TF2YcYso_3syn3gen4fold14fold_expr_callNtNvCsiSITA57RZ13_15zerofrom_derive16replace_lifetime15ReplaceLifetimeEBR_, symObjAddr: 0x7E90, symBinAddr: 0x1C29C, symSize: 0x2B4 }
  - { offset: 0x4F514, size: 0x8, addend: 0x0, symName: __RINvNtNtCsc29TF2YcYso_3syn3gen4fold14fold_expr_callNtNvCsiSITA57RZ13_15zerofrom_derive25replace_lifetime_and_type20ReplaceLifetimeAndTyEBR_, symObjAddr: 0x8144, symBinAddr: 0x1C550, symSize: 0x2B4 }
  - { offset: 0x4F57A, size: 0x8, addend: 0x0, symName: __RINvNtNtCsc29TF2YcYso_3syn3gen4fold14fold_expr_castNtNvCsiSITA57RZ13_15zerofrom_derive16replace_lifetime15ReplaceLifetimeEBR_, symObjAddr: 0x83F8, symBinAddr: 0x1C804, symSize: 0x3AC }
  - { offset: 0x4F600, size: 0x8, addend: 0x0, symName: __RINvNtNtCsc29TF2YcYso_3syn3gen4fold14fold_expr_castNtNvCsiSITA57RZ13_15zerofrom_derive25replace_lifetime_and_type20ReplaceLifetimeAndTyEBR_, symObjAddr: 0x87A4, symBinAddr: 0x1CBB0, symSize: 0x3AC }
  - { offset: 0x4F686, size: 0x8, addend: 0x0, symName: __RINvNtNtCsc29TF2YcYso_3syn3gen4fold14fold_expr_loopNtNvCsiSITA57RZ13_15zerofrom_derive16replace_lifetime15ReplaceLifetimeEBR_, symObjAddr: 0x8B50, symBinAddr: 0x1CF5C, symSize: 0x1C0 }
  - { offset: 0x4F6CD, size: 0x8, addend: 0x0, symName: __RINvNtNtCsc29TF2YcYso_3syn3gen4fold14fold_expr_loopNtNvCsiSITA57RZ13_15zerofrom_derive25replace_lifetime_and_type20ReplaceLifetimeAndTyEBR_, symObjAddr: 0x8D10, symBinAddr: 0x1D11C, symSize: 0x1C0 }
  - { offset: 0x4F714, size: 0x8, addend: 0x0, symName: __RINvNtNtCsc29TF2YcYso_3syn3gen4fold14fold_expr_pathNtNvCsiSITA57RZ13_15zerofrom_derive16replace_lifetime15ReplaceLifetimeEBR_, symObjAddr: 0x8ED0, symBinAddr: 0x1D2DC, symSize: 0x1A0 }
  - { offset: 0x4F75B, size: 0x8, addend: 0x0, symName: __RINvNtNtCsc29TF2YcYso_3syn3gen4fold14fold_expr_pathNtNvCsiSITA57RZ13_15zerofrom_derive25replace_lifetime_and_type20ReplaceLifetimeAndTyEBR_, symObjAddr: 0x9070, symBinAddr: 0x1D47C, symSize: 0x1A0 }
  - { offset: 0x4F7A2, size: 0x8, addend: 0x0, symName: __RINvNtNtCsc29TF2YcYso_3syn3gen4fold14fold_field_patNtNvCsiSITA57RZ13_15zerofrom_derive16replace_lifetime15ReplaceLifetimeEBR_, symObjAddr: 0x9210, symBinAddr: 0x1D61C, symSize: 0x28C }
  - { offset: 0x4F808, size: 0x8, addend: 0x0, symName: __RINvNtNtCsc29TF2YcYso_3syn3gen4fold14fold_field_patNtNvCsiSITA57RZ13_15zerofrom_derive25replace_lifetime_and_type20ReplaceLifetimeAndTyEBR_, symObjAddr: 0x949C, symBinAddr: 0x1D8A8, symSize: 0x28C }
  - { offset: 0x4F86E, size: 0x8, addend: 0x0, symName: __RINvNtNtCsc29TF2YcYso_3syn3gen4fold14fold_impl_itemNtNvCsiSITA57RZ13_15zerofrom_derive16replace_lifetime15ReplaceLifetimeEBR_, symObjAddr: 0x9728, symBinAddr: 0x1DB34, symSize: 0x284 }
  - { offset: 0x4F948, size: 0x8, addend: 0x0, symName: __RINvNtNtCsc29TF2YcYso_3syn3gen4fold14fold_impl_itemNtNvCsiSITA57RZ13_15zerofrom_derive25replace_lifetime_and_type20ReplaceLifetimeAndTyEBR_, symObjAddr: 0x99AC, symBinAddr: 0x1DDB8, symSize: 0x284 }
  - { offset: 0x4FA22, size: 0x8, addend: 0x0, symName: __RINvNtNtCsc29TF2YcYso_3syn3gen4fold14fold_item_enumNtNvCsiSITA57RZ13_15zerofrom_derive16replace_lifetime15ReplaceLifetimeEBR_, symObjAddr: 0x9C30, symBinAddr: 0x1E03C, symSize: 0x2E0 }
  - { offset: 0x4FA69, size: 0x8, addend: 0x0, symName: __RINvNtNtCsc29TF2YcYso_3syn3gen4fold14fold_item_enumNtNvCsiSITA57RZ13_15zerofrom_derive25replace_lifetime_and_type20ReplaceLifetimeAndTyEBR_, symObjAddr: 0x9F10, symBinAddr: 0x1E31C, symSize: 0x2E0 }
  - { offset: 0x4FAB0, size: 0x8, addend: 0x0, symName: __RINvNtNtCsc29TF2YcYso_3syn3gen4fold14fold_item_implNtNvCsiSITA57RZ13_15zerofrom_derive16replace_lifetime15ReplaceLifetimeEBR_, symObjAddr: 0xA1F0, symBinAddr: 0x1E5FC, symSize: 0x410 }
  - { offset: 0x4FB16, size: 0x8, addend: 0x0, symName: __RINvNtNtCsc29TF2YcYso_3syn3gen4fold14fold_item_implNtNvCsiSITA57RZ13_15zerofrom_derive25replace_lifetime_and_type20ReplaceLifetimeAndTyEBR_, symObjAddr: 0xA600, symBinAddr: 0x1EA0C, symSize: 0x410 }
  - { offset: 0x4FB7C, size: 0x8, addend: 0x0, symName: __RINvNtNtCsc29TF2YcYso_3syn3gen4fold14fold_item_typeNtNvCsiSITA57RZ13_15zerofrom_derive16replace_lifetime15ReplaceLifetimeEBR_, symObjAddr: 0xAA10, symBinAddr: 0x1EE1C, symSize: 0x3B8 }
  - { offset: 0x4FBE2, size: 0x8, addend: 0x0, symName: __RINvNtNtCsc29TF2YcYso_3syn3gen4fold14fold_item_typeNtNvCsiSITA57RZ13_15zerofrom_derive25replace_lifetime_and_type20ReplaceLifetimeAndTyEBR_, symObjAddr: 0xADC8, symBinAddr: 0x1F1D4, symSize: 0x3B8 }
  - { offset: 0x4FC48, size: 0x8, addend: 0x0, symName: __RINvNtNtCsc29TF2YcYso_3syn3gen4fold14fold_lit_floatNtNvCsiSITA57RZ13_15zerofrom_derive16replace_lifetime15ReplaceLifetimeEBR_, symObjAddr: 0xB180, symBinAddr: 0x1F58C, symSize: 0xDC }
  - { offset: 0x4FCC2, size: 0x8, addend: 0x0, symName: __RINvNtNtCsc29TF2YcYso_3syn3gen4fold14fold_lit_floatNtNvCsiSITA57RZ13_15zerofrom_derive25replace_lifetime_and_type20ReplaceLifetimeAndTyEBR_, symObjAddr: 0xB25C, symBinAddr: 0x1F668, symSize: 0xDC }
  - { offset: 0x4FD3C, size: 0x8, addend: 0x0, symName: __RINvNtNtCsc29TF2YcYso_3syn3gen4fold14fold_meta_listNtNvCsiSITA57RZ13_15zerofrom_derive16replace_lifetime15ReplaceLifetimeEBR_, symObjAddr: 0xB338, symBinAddr: 0x1F744, symSize: 0x144 }
  - { offset: 0x4FD83, size: 0x8, addend: 0x0, symName: __RINvNtNtCsc29TF2YcYso_3syn3gen4fold14fold_meta_listNtNvCsiSITA57RZ13_15zerofrom_derive25replace_lifetime_and_type20ReplaceLifetimeAndTyEBR_, symObjAddr: 0xB47C, symBinAddr: 0x1F888, symSize: 0x144 }
  - { offset: 0x4FDCA, size: 0x8, addend: 0x0, symName: __RINvNtNtCsc29TF2YcYso_3syn3gen4fold14fold_pat_identNtNvCsiSITA57RZ13_15zerofrom_derive16replace_lifetime15ReplaceLifetimeEBR_, symObjAddr: 0xB5C0, symBinAddr: 0x1F9CC, symSize: 0x1BC }
  - { offset: 0x4FE11, size: 0x8, addend: 0x0, symName: __RINvNtNtCsc29TF2YcYso_3syn3gen4fold14fold_pat_identNtNvCsiSITA57RZ13_15zerofrom_derive25replace_lifetime_and_type20ReplaceLifetimeAndTyEBR_, symObjAddr: 0xB77C, symBinAddr: 0x1FB88, symSize: 0x1BC }
  - { offset: 0x4FE58, size: 0x8, addend: 0x0, symName: __RINvNtNtCsc29TF2YcYso_3syn3gen4fold14fold_pat_parenNtNvCsiSITA57RZ13_15zerofrom_derive16replace_lifetime15ReplaceLifetimeEBR_, symObjAddr: 0xB938, symBinAddr: 0x1FD44, symSize: 0x220 }
  - { offset: 0x4FEBE, size: 0x8, addend: 0x0, symName: __RINvNtNtCsc29TF2YcYso_3syn3gen4fold14fold_pat_parenNtNvCsiSITA57RZ13_15zerofrom_derive25replace_lifetime_and_type20ReplaceLifetimeAndTyEBR_, symObjAddr: 0xBB58, symBinAddr: 0x1FF64, symSize: 0x220 }
  - { offset: 0x4FF24, size: 0x8, addend: 0x0, symName: __RINvNtNtCsc29TF2YcYso_3syn3gen4fold14fold_pat_sliceNtNvCsiSITA57RZ13_15zerofrom_derive16replace_lifetime15ReplaceLifetimeEBR_, symObjAddr: 0xBD78, symBinAddr: 0x20184, symSize: 0x130 }
  - { offset: 0x4FF6B, size: 0x8, addend: 0x0, symName: __RINvNtNtCsc29TF2YcYso_3syn3gen4fold14fold_pat_sliceNtNvCsiSITA57RZ13_15zerofrom_derive25replace_lifetime_and_type20ReplaceLifetimeAndTyEBR_, symObjAddr: 0xBEA8, symBinAddr: 0x202B4, symSize: 0x130 }
  - { offset: 0x4FFB2, size: 0x8, addend: 0x0, symName: __RINvNtNtCsc29TF2YcYso_3syn3gen4fold14fold_pat_tupleNtNvCsiSITA57RZ13_15zerofrom_derive16replace_lifetime15ReplaceLifetimeEBR_, symObjAddr: 0xBFD8, symBinAddr: 0x203E4, symSize: 0x130 }
  - { offset: 0x4FFF9, size: 0x8, addend: 0x0, symName: __RINvNtNtCsc29TF2YcYso_3syn3gen4fold14fold_pat_tupleNtNvCsiSITA57RZ13_15zerofrom_derive25replace_lifetime_and_type20ReplaceLifetimeAndTyEBR_, symObjAddr: 0xC108, symBinAddr: 0x20514, symSize: 0x130 }
  - { offset: 0x50040, size: 0x8, addend: 0x0, symName: __RINvNtNtCsc29TF2YcYso_3syn3gen4fold14fold_signatureNtNvCsiSITA57RZ13_15zerofrom_derive16replace_lifetime15ReplaceLifetimeEBR_, symObjAddr: 0xC238, symBinAddr: 0x20644, symSize: 0x3CC }
  - { offset: 0x50087, size: 0x8, addend: 0x0, symName: __RINvNtNtCsc29TF2YcYso_3syn3gen4fold14fold_signatureNtNvCsiSITA57RZ13_15zerofrom_derive25replace_lifetime_and_type20ReplaceLifetimeAndTyEBR_, symObjAddr: 0xC604, symBinAddr: 0x20A10, symSize: 0x3CC }
  - { offset: 0x500CE, size: 0x8, addend: 0x0, symName: __RINvNtNtCsc29TF2YcYso_3syn3gen4fold14fold_type_pathNtNvCsiSITA57RZ13_15zerofrom_derive16replace_lifetime15ReplaceLifetimeEBR_, symObjAddr: 0xC9D0, symBinAddr: 0x20DDC, symSize: 0x114 }
  - { offset: 0x50115, size: 0x8, addend: 0x0, symName: __RINvNtNtCsc29TF2YcYso_3syn3gen4fold14fold_type_pathNtNvCsiSITA57RZ13_15zerofrom_derive25replace_lifetime_and_type20ReplaceLifetimeAndTyEBR_, symObjAddr: 0xCAE4, symBinAddr: 0x20EF0, symSize: 0x114 }
  - { offset: 0x5015C, size: 0x8, addend: 0x0, symName: __RINvNtNtCsc29TF2YcYso_3syn3gen4fold14fold_use_groupNtNvCsiSITA57RZ13_15zerofrom_derive16replace_lifetime15ReplaceLifetimeEBR_, symObjAddr: 0xCBF8, symBinAddr: 0x21004, symSize: 0x90 }
  - { offset: 0x501A3, size: 0x8, addend: 0x0, symName: __RINvNtNtCsc29TF2YcYso_3syn3gen4fold14fold_use_groupNtNvCsiSITA57RZ13_15zerofrom_derive25replace_lifetime_and_type20ReplaceLifetimeAndTyEBR_, symObjAddr: 0xCC88, symBinAddr: 0x21094, symSize: 0x90 }
  - { offset: 0x501EA, size: 0x8, addend: 0x0, symName: __RINvNtNtCsc29TF2YcYso_3syn3gen4fold15fold_assoc_typeNtNvCsiSITA57RZ13_15zerofrom_derive16replace_lifetime15ReplaceLifetimeEBS_, symObjAddr: 0xCD18, symBinAddr: 0x21124, symSize: 0x1BC }
  - { offset: 0x50231, size: 0x8, addend: 0x0, symName: __RINvNtNtCsc29TF2YcYso_3syn3gen4fold15fold_assoc_typeNtNvCsiSITA57RZ13_15zerofrom_derive25replace_lifetime_and_type20ReplaceLifetimeAndTyEBS_, symObjAddr: 0xCED4, symBinAddr: 0x212E0, symSize: 0x1BC }
  - { offset: 0x50278, size: 0x8, addend: 0x0, symName: __RINvNtNtCsc29TF2YcYso_3syn3gen4fold15fold_attr_styleNtNvCsiSITA57RZ13_15zerofrom_derive16replace_lifetime15ReplaceLifetimeEBS_, symObjAddr: 0xD090, symBinAddr: 0x2149C, symSize: 0x7C }
  - { offset: 0x502DC, size: 0x8, addend: 0x0, symName: __RINvNtNtCsc29TF2YcYso_3syn3gen4fold15fold_attr_styleNtNvCsiSITA57RZ13_15zerofrom_derive25replace_lifetime_and_type20ReplaceLifetimeAndTyEBS_, symObjAddr: 0xD10C, symBinAddr: 0x21518, symSize: 0x7C }
  - { offset: 0x50340, size: 0x8, addend: 0x0, symName: __RINvNtNtCsc29TF2YcYso_3syn3gen4fold15fold_constraintNtNvCsiSITA57RZ13_15zerofrom_derive16replace_lifetime15ReplaceLifetimeEBS_, symObjAddr: 0xD188, symBinAddr: 0x21594, symSize: 0x1C0 }
  - { offset: 0x50387, size: 0x8, addend: 0x0, symName: __RINvNtNtCsc29TF2YcYso_3syn3gen4fold15fold_constraintNtNvCsiSITA57RZ13_15zerofrom_derive25replace_lifetime_and_type20ReplaceLifetimeAndTyEBS_, symObjAddr: 0xD348, symBinAddr: 0x21754, symSize: 0x1C0 }
  - { offset: 0x503CE, size: 0x8, addend: 0x0, symName: __RINvNtNtCsc29TF2YcYso_3syn3gen4fold15fold_expr_arrayNtNvCsiSITA57RZ13_15zerofrom_derive16replace_lifetime15ReplaceLifetimeEBS_, symObjAddr: 0xD508, symBinAddr: 0x21914, symSize: 0x130 }
  - { offset: 0x50415, size: 0x8, addend: 0x0, symName: __RINvNtNtCsc29TF2YcYso_3syn3gen4fold15fold_expr_arrayNtNvCsiSITA57RZ13_15zerofrom_derive25replace_lifetime_and_type20ReplaceLifetimeAndTyEBS_, symObjAddr: 0xD638, symBinAddr: 0x21A44, symSize: 0x130 }
  - { offset: 0x5045C, size: 0x8, addend: 0x0, symName: __RINvNtNtCsc29TF2YcYso_3syn3gen4fold15fold_expr_asyncNtNvCsiSITA57RZ13_15zerofrom_derive16replace_lifetime15ReplaceLifetimeEBS_, symObjAddr: 0xD768, symBinAddr: 0x21B74, symSize: 0x14C }
  - { offset: 0x504A3, size: 0x8, addend: 0x0, symName: __RINvNtNtCsc29TF2YcYso_3syn3gen4fold15fold_expr_asyncNtNvCsiSITA57RZ13_15zerofrom_derive25replace_lifetime_and_type20ReplaceLifetimeAndTyEBS_, symObjAddr: 0xD8B4, symBinAddr: 0x21CC0, symSize: 0x14C }
  - { offset: 0x504EA, size: 0x8, addend: 0x0, symName: __RINvNtNtCsc29TF2YcYso_3syn3gen4fold15fold_expr_awaitNtNvCsiSITA57RZ13_15zerofrom_derive16replace_lifetime15ReplaceLifetimeEBS_, symObjAddr: 0xDA00, symBinAddr: 0x21E0C, symSize: 0x218 }
  - { offset: 0x50550, size: 0x8, addend: 0x0, symName: __RINvNtNtCsc29TF2YcYso_3syn3gen4fold15fold_expr_awaitNtNvCsiSITA57RZ13_15zerofrom_derive25replace_lifetime_and_type20ReplaceLifetimeAndTyEBS_, symObjAddr: 0xDC18, symBinAddr: 0x22024, symSize: 0x218 }
  - { offset: 0x505B6, size: 0x8, addend: 0x0, symName: __RINvNtNtCsc29TF2YcYso_3syn3gen4fold15fold_expr_blockNtNvCsiSITA57RZ13_15zerofrom_derive16replace_lifetime15ReplaceLifetimeEBS_, symObjAddr: 0xDE30, symBinAddr: 0x2223C, symSize: 0x1B0 }
  - { offset: 0x505FD, size: 0x8, addend: 0x0, symName: __RINvNtNtCsc29TF2YcYso_3syn3gen4fold15fold_expr_blockNtNvCsiSITA57RZ13_15zerofrom_derive25replace_lifetime_and_type20ReplaceLifetimeAndTyEBS_, symObjAddr: 0xDFE0, symBinAddr: 0x223EC, symSize: 0x1B0 }
  - { offset: 0x50644, size: 0x8, addend: 0x0, symName: __RINvNtNtCsc29TF2YcYso_3syn3gen4fold15fold_expr_breakNtNvCsiSITA57RZ13_15zerofrom_derive16replace_lifetime15ReplaceLifetimeEBS_, symObjAddr: 0xE190, symBinAddr: 0x2259C, symSize: 0x184 }
  - { offset: 0x5068B, size: 0x8, addend: 0x0, symName: __RINvNtNtCsc29TF2YcYso_3syn3gen4fold15fold_expr_breakNtNvCsiSITA57RZ13_15zerofrom_derive25replace_lifetime_and_type20ReplaceLifetimeAndTyEBS_, symObjAddr: 0xE314, symBinAddr: 0x22720, symSize: 0x184 }
  - { offset: 0x506D2, size: 0x8, addend: 0x0, symName: __RINvNtNtCsc29TF2YcYso_3syn3gen4fold15fold_expr_constNtNvCsiSITA57RZ13_15zerofrom_derive16replace_lifetime15ReplaceLifetimeEBS_, symObjAddr: 0xE498, symBinAddr: 0x228A4, symSize: 0x12C }
  - { offset: 0x50719, size: 0x8, addend: 0x0, symName: __RINvNtNtCsc29TF2YcYso_3syn3gen4fold15fold_expr_constNtNvCsiSITA57RZ13_15zerofrom_derive25replace_lifetime_and_type20ReplaceLifetimeAndTyEBS_, symObjAddr: 0xE5C4, symBinAddr: 0x229D0, symSize: 0x12C }
  - { offset: 0x50760, size: 0x8, addend: 0x0, symName: __RINvNtNtCsc29TF2YcYso_3syn3gen4fold15fold_expr_fieldNtNvCsiSITA57RZ13_15zerofrom_derive16replace_lifetime15ReplaceLifetimeEBS_, symObjAddr: 0xE6F0, symBinAddr: 0x22AFC, symSize: 0x294 }
  - { offset: 0x507C6, size: 0x8, addend: 0x0, symName: __RINvNtNtCsc29TF2YcYso_3syn3gen4fold15fold_expr_fieldNtNvCsiSITA57RZ13_15zerofrom_derive25replace_lifetime_and_type20ReplaceLifetimeAndTyEBS_, symObjAddr: 0xE984, symBinAddr: 0x22D90, symSize: 0x294 }
  - { offset: 0x5082C, size: 0x8, addend: 0x0, symName: __RINvNtNtCsc29TF2YcYso_3syn3gen4fold15fold_expr_groupNtNvCsiSITA57RZ13_15zerofrom_derive16replace_lifetime15ReplaceLifetimeEBS_, symObjAddr: 0xEC18, symBinAddr: 0x23024, symSize: 0x210 }
  - { offset: 0x50892, size: 0x8, addend: 0x0, symName: __RINvNtNtCsc29TF2YcYso_3syn3gen4fold15fold_expr_groupNtNvCsiSITA57RZ13_15zerofrom_derive25replace_lifetime_and_type20ReplaceLifetimeAndTyEBS_, symObjAddr: 0xEE28, symBinAddr: 0x23234, symSize: 0x210 }
  - { offset: 0x508F8, size: 0x8, addend: 0x0, symName: __RINvNtNtCsc29TF2YcYso_3syn3gen4fold15fold_expr_indexNtNvCsiSITA57RZ13_15zerofrom_derive16replace_lifetime15ReplaceLifetimeEBS_, symObjAddr: 0xF038, symBinAddr: 0x23444, symSize: 0x3B8 }
  - { offset: 0x5097E, size: 0x8, addend: 0x0, symName: __RINvNtNtCsc29TF2YcYso_3syn3gen4fold15fold_expr_indexNtNvCsiSITA57RZ13_15zerofrom_derive25replace_lifetime_and_type20ReplaceLifetimeAndTyEBS_, symObjAddr: 0xF3F0, symBinAddr: 0x237FC, symSize: 0x3B8 }
  - { offset: 0x50A04, size: 0x8, addend: 0x0, symName: __RINvNtNtCsc29TF2YcYso_3syn3gen4fold15fold_expr_inferNtNvCsiSITA57RZ13_15zerofrom_derive16replace_lifetime15ReplaceLifetimeEBS_, symObjAddr: 0xF7A8, symBinAddr: 0x23BB4, symSize: 0x80 }
  - { offset: 0x50A4B, size: 0x8, addend: 0x0, symName: __RINvNtNtCsc29TF2YcYso_3syn3gen4fold15fold_expr_inferNtNvCsiSITA57RZ13_15zerofrom_derive25replace_lifetime_and_type20ReplaceLifetimeAndTyEBS_, symObjAddr: 0xF828, symBinAddr: 0x23C34, symSize: 0x80 }
  - { offset: 0x50A92, size: 0x8, addend: 0x0, symName: __RINvNtNtCsc29TF2YcYso_3syn3gen4fold15fold_expr_macroNtNvCsiSITA57RZ13_15zerofrom_derive16replace_lifetime15ReplaceLifetimeEBS_, symObjAddr: 0xF8A8, symBinAddr: 0x23CB4, symSize: 0x124 }
  - { offset: 0x50AD9, size: 0x8, addend: 0x0, symName: __RINvNtNtCsc29TF2YcYso_3syn3gen4fold15fold_expr_macroNtNvCsiSITA57RZ13_15zerofrom_derive25replace_lifetime_and_type20ReplaceLifetimeAndTyEBS_, symObjAddr: 0xF9CC, symBinAddr: 0x23DD8, symSize: 0x124 }
  - { offset: 0x50B20, size: 0x8, addend: 0x0, symName: __RINvNtNtCsc29TF2YcYso_3syn3gen4fold15fold_expr_matchNtNvCsiSITA57RZ13_15zerofrom_derive16replace_lifetime15ReplaceLifetimeEBS_, symObjAddr: 0xFAF0, symBinAddr: 0x23EFC, symSize: 0x2B4 }
  - { offset: 0x50B86, size: 0x8, addend: 0x0, symName: __RINvNtNtCsc29TF2YcYso_3syn3gen4fold15fold_expr_matchNtNvCsiSITA57RZ13_15zerofrom_derive25replace_lifetime_and_type20ReplaceLifetimeAndTyEBS_, symObjAddr: 0xFDA4, symBinAddr: 0x241B0, symSize: 0x2B4 }
  - { offset: 0x50BEC, size: 0x8, addend: 0x0, symName: __RINvNtNtCsc29TF2YcYso_3syn3gen4fold15fold_expr_parenNtNvCsiSITA57RZ13_15zerofrom_derive16replace_lifetime15ReplaceLifetimeEBS_, symObjAddr: 0x10058, symBinAddr: 0x24464, symSize: 0x220 }
  - { offset: 0x50C52, size: 0x8, addend: 0x0, symName: __RINvNtNtCsc29TF2YcYso_3syn3gen4fold15fold_expr_parenNtNvCsiSITA57RZ13_15zerofrom_derive25replace_lifetime_and_type20ReplaceLifetimeAndTyEBS_, symObjAddr: 0x10278, symBinAddr: 0x24684, symSize: 0x220 }
  - { offset: 0x50CB8, size: 0x8, addend: 0x0, symName: __RINvNtNtCsc29TF2YcYso_3syn3gen4fold15fold_expr_rangeNtNvCsiSITA57RZ13_15zerofrom_derive16replace_lifetime15ReplaceLifetimeEBS_, symObjAddr: 0x10498, symBinAddr: 0x248A4, symSize: 0x18C }
  - { offset: 0x50CFF, size: 0x8, addend: 0x0, symName: __RINvNtNtCsc29TF2YcYso_3syn3gen4fold15fold_expr_rangeNtNvCsiSITA57RZ13_15zerofrom_derive25replace_lifetime_and_type20ReplaceLifetimeAndTyEBS_, symObjAddr: 0x10624, symBinAddr: 0x24A30, symSize: 0x18C }
  - { offset: 0x50D46, size: 0x8, addend: 0x0, symName: __RINvNtNtCsc29TF2YcYso_3syn3gen4fold15fold_expr_tupleNtNvCsiSITA57RZ13_15zerofrom_derive16replace_lifetime15ReplaceLifetimeEBS_, symObjAddr: 0x107B0, symBinAddr: 0x24BBC, symSize: 0x130 }
  - { offset: 0x50D8D, size: 0x8, addend: 0x0, symName: __RINvNtNtCsc29TF2YcYso_3syn3gen4fold15fold_expr_tupleNtNvCsiSITA57RZ13_15zerofrom_derive25replace_lifetime_and_type20ReplaceLifetimeAndTyEBS_, symObjAddr: 0x108E0, symBinAddr: 0x24CEC, symSize: 0x130 }
  - { offset: 0x50DD4, size: 0x8, addend: 0x0, symName: __RINvNtNtCsc29TF2YcYso_3syn3gen4fold15fold_expr_unaryNtNvCsiSITA57RZ13_15zerofrom_derive16replace_lifetime15ReplaceLifetimeEBS_, symObjAddr: 0x10A10, symBinAddr: 0x24E1C, symSize: 0x240 }
  - { offset: 0x50E3B, size: 0x8, addend: 0x0, symName: __RINvNtNtCsc29TF2YcYso_3syn3gen4fold15fold_expr_unaryNtNvCsiSITA57RZ13_15zerofrom_derive25replace_lifetime_and_type20ReplaceLifetimeAndTyEBS_, symObjAddr: 0x10C50, symBinAddr: 0x2505C, symSize: 0x240 }
  - { offset: 0x50EA2, size: 0x8, addend: 0x0, symName: __RINvNtNtCsc29TF2YcYso_3syn3gen4fold15fold_expr_whileNtNvCsiSITA57RZ13_15zerofrom_derive16replace_lifetime15ReplaceLifetimeEBS_, symObjAddr: 0x10E90, symBinAddr: 0x2529C, symSize: 0x32C }
  - { offset: 0x50F08, size: 0x8, addend: 0x0, symName: __RINvNtNtCsc29TF2YcYso_3syn3gen4fold15fold_expr_whileNtNvCsiSITA57RZ13_15zerofrom_derive25replace_lifetime_and_type20ReplaceLifetimeAndTyEBS_, symObjAddr: 0x111BC, symBinAddr: 0x255C8, symSize: 0x32C }
  - { offset: 0x50F6E, size: 0x8, addend: 0x0, symName: __RINvNtNtCsc29TF2YcYso_3syn3gen4fold15fold_expr_yieldNtNvCsiSITA57RZ13_15zerofrom_derive16replace_lifetime15ReplaceLifetimeEBS_, symObjAddr: 0x114E8, symBinAddr: 0x258F4, symSize: 0x108 }
  - { offset: 0x50FB5, size: 0x8, addend: 0x0, symName: __RINvNtNtCsc29TF2YcYso_3syn3gen4fold15fold_expr_yieldNtNvCsiSITA57RZ13_15zerofrom_derive25replace_lifetime_and_type20ReplaceLifetimeAndTyEBS_, symObjAddr: 0x115F0, symBinAddr: 0x259FC, symSize: 0x108 }
  - { offset: 0x50FFC, size: 0x8, addend: 0x0, symName: __RINvNtNtCsc29TF2YcYso_3syn3gen4fold15fold_item_constNtNvCsiSITA57RZ13_15zerofrom_derive16replace_lifetime15ReplaceLifetimeEBS_, symObjAddr: 0x116F8, symBinAddr: 0x25B04, symSize: 0x568 }
  - { offset: 0x51082, size: 0x8, addend: 0x0, symName: __RINvNtNtCsc29TF2YcYso_3syn3gen4fold15fold_item_constNtNvCsiSITA57RZ13_15zerofrom_derive25replace_lifetime_and_type20ReplaceLifetimeAndTyEBS_, symObjAddr: 0x11C60, symBinAddr: 0x2606C, symSize: 0x568 }
  - { offset: 0x51108, size: 0x8, addend: 0x0, symName: __RINvNtNtCsc29TF2YcYso_3syn3gen4fold15fold_item_macroNtNvCsiSITA57RZ13_15zerofrom_derive16replace_lifetime15ReplaceLifetimeEBS_, symObjAddr: 0x121C8, symBinAddr: 0x265D4, symSize: 0x1B8 }
  - { offset: 0x5114F, size: 0x8, addend: 0x0, symName: __RINvNtNtCsc29TF2YcYso_3syn3gen4fold15fold_item_macroNtNvCsiSITA57RZ13_15zerofrom_derive25replace_lifetime_and_type20ReplaceLifetimeAndTyEBS_, symObjAddr: 0x12380, symBinAddr: 0x2678C, symSize: 0x1B8 }
  - { offset: 0x51196, size: 0x8, addend: 0x0, symName: __RINvNtNtCsc29TF2YcYso_3syn3gen4fold15fold_item_traitNtNvCsiSITA57RZ13_15zerofrom_derive16replace_lifetime15ReplaceLifetimeEBS_, symObjAddr: 0x12538, symBinAddr: 0x26944, symSize: 0x3C0 }
  - { offset: 0x511DD, size: 0x8, addend: 0x0, symName: __RINvNtNtCsc29TF2YcYso_3syn3gen4fold15fold_item_traitNtNvCsiSITA57RZ13_15zerofrom_derive25replace_lifetime_and_type20ReplaceLifetimeAndTyEBS_, symObjAddr: 0x128F8, symBinAddr: 0x26D04, symSize: 0x3C0 }
  - { offset: 0x51224, size: 0x8, addend: 0x0, symName: __RINvNtNtCsc29TF2YcYso_3syn3gen4fold15fold_item_unionNtNvCsiSITA57RZ13_15zerofrom_derive16replace_lifetime15ReplaceLifetimeEBS_, symObjAddr: 0x12CB8, symBinAddr: 0x270C4, symSize: 0x2B8 }
  - { offset: 0x5126B, size: 0x8, addend: 0x0, symName: __RINvNtNtCsc29TF2YcYso_3syn3gen4fold15fold_item_unionNtNvCsiSITA57RZ13_15zerofrom_derive25replace_lifetime_and_type20ReplaceLifetimeAndTyEBS_, symObjAddr: 0x12F70, symBinAddr: 0x2737C, symSize: 0x2B8 }
  - { offset: 0x512B2, size: 0x8, addend: 0x0, symName: __RINvNtNtCsc29TF2YcYso_3syn3gen4fold15fold_local_initNtNvCsiSITA57RZ13_15zerofrom_derive16replace_lifetime15ReplaceLifetimeEBS_, symObjAddr: 0x13228, symBinAddr: 0x27634, symSize: 0x220 }
  - { offset: 0x51318, size: 0x8, addend: 0x0, symName: __RINvNtNtCsc29TF2YcYso_3syn3gen4fold15fold_local_initNtNvCsiSITA57RZ13_15zerofrom_derive25replace_lifetime_and_type20ReplaceLifetimeAndTyEBS_, symObjAddr: 0x13448, symBinAddr: 0x27854, symSize: 0x220 }
  - { offset: 0x5137E, size: 0x8, addend: 0x0, symName: __RINvNtNtCsc29TF2YcYso_3syn3gen4fold15fold_pat_structNtNvCsiSITA57RZ13_15zerofrom_derive16replace_lifetime15ReplaceLifetimeEBS_, symObjAddr: 0x13668, symBinAddr: 0x27A74, symSize: 0x2D0 }
  - { offset: 0x513C5, size: 0x8, addend: 0x0, symName: __RINvNtNtCsc29TF2YcYso_3syn3gen4fold15fold_pat_structNtNvCsiSITA57RZ13_15zerofrom_derive25replace_lifetime_and_type20ReplaceLifetimeAndTyEBS_, symObjAddr: 0x13938, symBinAddr: 0x27D44, symSize: 0x2D0 }
  - { offset: 0x5140C, size: 0x8, addend: 0x0, symName: __RINvNtNtCsc29TF2YcYso_3syn3gen4fold15fold_stmt_macroNtNvCsiSITA57RZ13_15zerofrom_derive16replace_lifetime15ReplaceLifetimeEBS_, symObjAddr: 0x13C08, symBinAddr: 0x28014, symSize: 0x13C }
  - { offset: 0x51453, size: 0x8, addend: 0x0, symName: __RINvNtNtCsc29TF2YcYso_3syn3gen4fold15fold_stmt_macroNtNvCsiSITA57RZ13_15zerofrom_derive25replace_lifetime_and_type20ReplaceLifetimeAndTyEBS_, symObjAddr: 0x13D44, symBinAddr: 0x28150, symSize: 0x13C }
  - { offset: 0x5149A, size: 0x8, addend: 0x0, symName: __RINvNtNtCsc29TF2YcYso_3syn3gen4fold15fold_trait_itemNtNvCsiSITA57RZ13_15zerofrom_derive16replace_lifetime15ReplaceLifetimeEBS_, symObjAddr: 0x13E80, symBinAddr: 0x2828C, symSize: 0x284 }
  - { offset: 0x51574, size: 0x8, addend: 0x0, symName: __RINvNtNtCsc29TF2YcYso_3syn3gen4fold15fold_trait_itemNtNvCsiSITA57RZ13_15zerofrom_derive25replace_lifetime_and_type20ReplaceLifetimeAndTyEBS_, symObjAddr: 0x14104, symBinAddr: 0x28510, symSize: 0x284 }
  - { offset: 0x5164E, size: 0x8, addend: 0x0, symName: __RINvNtNtCsc29TF2YcYso_3syn3gen4fold15fold_type_arrayNtNvCsiSITA57RZ13_15zerofrom_derive16replace_lifetime15ReplaceLifetimeEBS_, symObjAddr: 0x14388, symBinAddr: 0x28794, symSize: 0x22C }
  - { offset: 0x516B4, size: 0x8, addend: 0x0, symName: __RINvNtNtCsc29TF2YcYso_3syn3gen4fold15fold_type_arrayNtNvCsiSITA57RZ13_15zerofrom_derive25replace_lifetime_and_type20ReplaceLifetimeAndTyEBS_, symObjAddr: 0x145B4, symBinAddr: 0x289C0, symSize: 0x22C }
  - { offset: 0x5171A, size: 0x8, addend: 0x0, symName: __RINvNtNtCsc29TF2YcYso_3syn3gen4fold15fold_type_groupNtNvCsiSITA57RZ13_15zerofrom_derive16replace_lifetime15ReplaceLifetimeEBS_, symObjAddr: 0x147E0, symBinAddr: 0x28BEC, symSize: 0x170 }
  - { offset: 0x5177F, size: 0x8, addend: 0x0, symName: __RINvNtNtCsc29TF2YcYso_3syn3gen4fold15fold_type_groupNtNvCsiSITA57RZ13_15zerofrom_derive25replace_lifetime_and_type20ReplaceLifetimeAndTyEBS_, symObjAddr: 0x14950, symBinAddr: 0x28D5C, symSize: 0x170 }
  - { offset: 0x517E4, size: 0x8, addend: 0x0, symName: __RINvNtNtCsc29TF2YcYso_3syn3gen4fold15fold_type_inferNtNvCsiSITA57RZ13_15zerofrom_derive16replace_lifetime15ReplaceLifetimeEBS_, symObjAddr: 0x14AC0, symBinAddr: 0x28ECC, symSize: 0x40 }
  - { offset: 0x5182A, size: 0x8, addend: 0x0, symName: __RINvNtNtCsc29TF2YcYso_3syn3gen4fold15fold_type_inferNtNvCsiSITA57RZ13_15zerofrom_derive25replace_lifetime_and_type20ReplaceLifetimeAndTyEBS_, symObjAddr: 0x14B00, symBinAddr: 0x28F0C, symSize: 0x40 }
  - { offset: 0x51870, size: 0x8, addend: 0x0, symName: __RINvNtNtCsc29TF2YcYso_3syn3gen4fold15fold_type_macroNtNvCsiSITA57RZ13_15zerofrom_derive16replace_lifetime15ReplaceLifetimeEBS_, symObjAddr: 0x14B40, symBinAddr: 0x28F4C, symSize: 0x78 }
  - { offset: 0x518B7, size: 0x8, addend: 0x0, symName: __RINvNtNtCsc29TF2YcYso_3syn3gen4fold15fold_type_macroNtNvCsiSITA57RZ13_15zerofrom_derive25replace_lifetime_and_type20ReplaceLifetimeAndTyEBS_, symObjAddr: 0x14BB8, symBinAddr: 0x28FC4, symSize: 0x78 }
  - { offset: 0x518FE, size: 0x8, addend: 0x0, symName: __RINvNtNtCsc29TF2YcYso_3syn3gen4fold15fold_type_neverNtNvCsiSITA57RZ13_15zerofrom_derive16replace_lifetime15ReplaceLifetimeEBS_, symObjAddr: 0x14C30, symBinAddr: 0x2903C, symSize: 0x40 }
  - { offset: 0x51944, size: 0x8, addend: 0x0, symName: __RINvNtNtCsc29TF2YcYso_3syn3gen4fold15fold_type_neverNtNvCsiSITA57RZ13_15zerofrom_derive25replace_lifetime_and_type20ReplaceLifetimeAndTyEBS_, symObjAddr: 0x14C70, symBinAddr: 0x2907C, symSize: 0x40 }
  - { offset: 0x5198A, size: 0x8, addend: 0x0, symName: __RINvNtNtCsc29TF2YcYso_3syn3gen4fold15fold_type_paramNtNvCsiSITA57RZ13_15zerofrom_derive16replace_lifetime15ReplaceLifetimeEBS_, symObjAddr: 0x14CB0, symBinAddr: 0x290BC, symSize: 0x24C }
  - { offset: 0x519D1, size: 0x8, addend: 0x0, symName: __RINvNtNtCsc29TF2YcYso_3syn3gen4fold15fold_type_paramNtNvCsiSITA57RZ13_15zerofrom_derive25replace_lifetime_and_type20ReplaceLifetimeAndTyEBS_, symObjAddr: 0x14EFC, symBinAddr: 0x29308, symSize: 0x24C }
  - { offset: 0x51A18, size: 0x8, addend: 0x0, symName: __RINvNtNtCsc29TF2YcYso_3syn3gen4fold15fold_type_parenNtNvCsiSITA57RZ13_15zerofrom_derive16replace_lifetime15ReplaceLifetimeEBS_, symObjAddr: 0x15148, symBinAddr: 0x29554, symSize: 0x18C }
  - { offset: 0x51A7E, size: 0x8, addend: 0x0, symName: __RINvNtNtCsc29TF2YcYso_3syn3gen4fold15fold_type_parenNtNvCsiSITA57RZ13_15zerofrom_derive25replace_lifetime_and_type20ReplaceLifetimeAndTyEBS_, symObjAddr: 0x152D4, symBinAddr: 0x296E0, symSize: 0x18C }
  - { offset: 0x51AE4, size: 0x8, addend: 0x0, symName: __RINvNtNtCsc29TF2YcYso_3syn3gen4fold15fold_type_sliceNtNvCsiSITA57RZ13_15zerofrom_derive16replace_lifetime15ReplaceLifetimeEBS_, symObjAddr: 0x15460, symBinAddr: 0x2986C, symSize: 0x18C }
  - { offset: 0x51B4A, size: 0x8, addend: 0x0, symName: __RINvNtNtCsc29TF2YcYso_3syn3gen4fold15fold_type_sliceNtNvCsiSITA57RZ13_15zerofrom_derive25replace_lifetime_and_type20ReplaceLifetimeAndTyEBS_, symObjAddr: 0x155EC, symBinAddr: 0x299F8, symSize: 0x18C }
  - { offset: 0x51BB0, size: 0x8, addend: 0x0, symName: __RINvNtNtCsc29TF2YcYso_3syn3gen4fold15fold_type_tupleNtNvCsiSITA57RZ13_15zerofrom_derive16replace_lifetime15ReplaceLifetimeEBS_, symObjAddr: 0x15778, symBinAddr: 0x29B84, symSize: 0x90 }
  - { offset: 0x51BF7, size: 0x8, addend: 0x0, symName: __RINvNtNtCsc29TF2YcYso_3syn3gen4fold15fold_type_tupleNtNvCsiSITA57RZ13_15zerofrom_derive25replace_lifetime_and_type20ReplaceLifetimeAndTyEBS_, symObjAddr: 0x15808, symBinAddr: 0x29C14, symSize: 0x90 }
  - { offset: 0x51C3E, size: 0x8, addend: 0x0, symName: __RINvNtNtCsc29TF2YcYso_3syn3gen4fold15fold_use_renameNtNvCsiSITA57RZ13_15zerofrom_derive16replace_lifetime15ReplaceLifetimeEBS_, symObjAddr: 0x15898, symBinAddr: 0x29CA4, symSize: 0x120 }
  - { offset: 0x51C85, size: 0x8, addend: 0x0, symName: __RINvNtNtCsc29TF2YcYso_3syn3gen4fold15fold_use_renameNtNvCsiSITA57RZ13_15zerofrom_derive25replace_lifetime_and_type20ReplaceLifetimeAndTyEBS_, symObjAddr: 0x159B8, symBinAddr: 0x29DC4, symSize: 0x120 }
  - { offset: 0x51CCC, size: 0x8, addend: 0x0, symName: __RINvNtNtCsc29TF2YcYso_3syn3gen4fold15fold_visibilityNtNvCsiSITA57RZ13_15zerofrom_derive16replace_lifetime15ReplaceLifetimeEBS_, symObjAddr: 0x15AD8, symBinAddr: 0x29EE4, symSize: 0x100 }
  - { offset: 0x51D4F, size: 0x8, addend: 0x0, symName: __RINvNtNtCsc29TF2YcYso_3syn3gen4fold15fold_visibilityNtNvCsiSITA57RZ13_15zerofrom_derive25replace_lifetime_and_type20ReplaceLifetimeAndTyEBS_, symObjAddr: 0x15BD8, symBinAddr: 0x29FE4, symSize: 0x100 }
  - { offset: 0x51DD2, size: 0x8, addend: 0x0, symName: __RINvNtNtCsc29TF2YcYso_3syn3gen4fold16fold_assoc_constNtNvCsiSITA57RZ13_15zerofrom_derive16replace_lifetime15ReplaceLifetimeEBT_, symObjAddr: 0x15CD8, symBinAddr: 0x2A0E4, symSize: 0x1B4 }
  - { offset: 0x51E19, size: 0x8, addend: 0x0, symName: __RINvNtNtCsc29TF2YcYso_3syn3gen4fold16fold_assoc_constNtNvCsiSITA57RZ13_15zerofrom_derive25replace_lifetime_and_type20ReplaceLifetimeAndTyEBT_, symObjAddr: 0x15E8C, symBinAddr: 0x2A298, symSize: 0x1B4 }
  - { offset: 0x51E60, size: 0x8, addend: 0x0, symName: __RINvNtNtCsc29TF2YcYso_3syn3gen4fold16fold_bare_fn_argNtNvCsiSITA57RZ13_15zerofrom_derive16replace_lifetime15ReplaceLifetimeEBT_, symObjAddr: 0x16040, symBinAddr: 0x2A44C, symSize: 0x19C }
  - { offset: 0x51EA7, size: 0x8, addend: 0x0, symName: __RINvNtNtCsc29TF2YcYso_3syn3gen4fold16fold_bare_fn_argNtNvCsiSITA57RZ13_15zerofrom_derive25replace_lifetime_and_type20ReplaceLifetimeAndTyEBT_, symObjAddr: 0x161DC, symBinAddr: 0x2A5E8, symSize: 0x19C }
  - { offset: 0x51EEE, size: 0x8, addend: 0x0, symName: __RINvNtNtCsc29TF2YcYso_3syn3gen4fold16fold_const_paramNtNvCsiSITA57RZ13_15zerofrom_derive16replace_lifetime15ReplaceLifetimeEBT_, symObjAddr: 0x16378, symBinAddr: 0x2A784, symSize: 0x250 }
  - { offset: 0x51F35, size: 0x8, addend: 0x0, symName: __RINvNtNtCsc29TF2YcYso_3syn3gen4fold16fold_const_paramNtNvCsiSITA57RZ13_15zerofrom_derive25replace_lifetime_and_type20ReplaceLifetimeAndTyEBT_, symObjAddr: 0x165C8, symBinAddr: 0x2A9D4, symSize: 0x250 }
  - { offset: 0x51F7C, size: 0x8, addend: 0x0, symName: __RINvNtNtCsc29TF2YcYso_3syn3gen4fold16fold_expr_assignNtNvCsiSITA57RZ13_15zerofrom_derive16replace_lifetime15ReplaceLifetimeEBT_, symObjAddr: 0x16818, symBinAddr: 0x2AC24, symSize: 0x3A8 }
  - { offset: 0x52002, size: 0x8, addend: 0x0, symName: __RINvNtNtCsc29TF2YcYso_3syn3gen4fold16fold_expr_assignNtNvCsiSITA57RZ13_15zerofrom_derive25replace_lifetime_and_type20ReplaceLifetimeAndTyEBT_, symObjAddr: 0x16BC0, symBinAddr: 0x2AFCC, symSize: 0x3A8 }
  - { offset: 0x52088, size: 0x8, addend: 0x0, symName: __RINvNtNtCsc29TF2YcYso_3syn3gen4fold16fold_expr_binaryNtNvCsiSITA57RZ13_15zerofrom_derive16replace_lifetime15ReplaceLifetimeEBT_, symObjAddr: 0x16F68, symBinAddr: 0x2B374, symSize: 0x3D0 }
  - { offset: 0x5210E, size: 0x8, addend: 0x0, symName: __RINvNtNtCsc29TF2YcYso_3syn3gen4fold16fold_expr_binaryNtNvCsiSITA57RZ13_15zerofrom_derive25replace_lifetime_and_type20ReplaceLifetimeAndTyEBT_, symObjAddr: 0x17338, symBinAddr: 0x2B744, symSize: 0x3D0 }
  - { offset: 0x52194, size: 0x8, addend: 0x0, symName: __RINvNtNtCsc29TF2YcYso_3syn3gen4fold16fold_expr_repeatNtNvCsiSITA57RZ13_15zerofrom_derive16replace_lifetime15ReplaceLifetimeEBT_, symObjAddr: 0x17708, symBinAddr: 0x2BB14, symSize: 0x3C8 }
  - { offset: 0x5221A, size: 0x8, addend: 0x0, symName: __RINvNtNtCsc29TF2YcYso_3syn3gen4fold16fold_expr_repeatNtNvCsiSITA57RZ13_15zerofrom_derive25replace_lifetime_and_type20ReplaceLifetimeAndTyEBT_, symObjAddr: 0x17AD0, symBinAddr: 0x2BEDC, symSize: 0x3C8 }
  - { offset: 0x522A0, size: 0x8, addend: 0x0, symName: __RINvNtNtCsc29TF2YcYso_3syn3gen4fold16fold_expr_returnNtNvCsiSITA57RZ13_15zerofrom_derive16replace_lifetime15ReplaceLifetimeEBT_, symObjAddr: 0x17E98, symBinAddr: 0x2C2A4, symSize: 0x108 }
  - { offset: 0x522E7, size: 0x8, addend: 0x0, symName: __RINvNtNtCsc29TF2YcYso_3syn3gen4fold16fold_expr_returnNtNvCsiSITA57RZ13_15zerofrom_derive25replace_lifetime_and_type20ReplaceLifetimeAndTyEBT_, symObjAddr: 0x17FA0, symBinAddr: 0x2C3AC, symSize: 0x108 }
  - { offset: 0x5232E, size: 0x8, addend: 0x0, symName: __RINvNtNtCsc29TF2YcYso_3syn3gen4fold16fold_expr_structNtNvCsiSITA57RZ13_15zerofrom_derive16replace_lifetime15ReplaceLifetimeEBT_, symObjAddr: 0x180A8, symBinAddr: 0x2C4B4, symSize: 0x2D4 }
  - { offset: 0x52375, size: 0x8, addend: 0x0, symName: __RINvNtNtCsc29TF2YcYso_3syn3gen4fold16fold_expr_structNtNvCsiSITA57RZ13_15zerofrom_derive25replace_lifetime_and_type20ReplaceLifetimeAndTyEBT_, symObjAddr: 0x1837C, symBinAddr: 0x2C788, symSize: 0x2D4 }
  - { offset: 0x523BC, size: 0x8, addend: 0x0, symName: __RINvNtNtCsc29TF2YcYso_3syn3gen4fold16fold_expr_unsafeNtNvCsiSITA57RZ13_15zerofrom_derive16replace_lifetime15ReplaceLifetimeEBT_, symObjAddr: 0x18650, symBinAddr: 0x2CA5C, symSize: 0x12C }
  - { offset: 0x52403, size: 0x8, addend: 0x0, symName: __RINvNtNtCsc29TF2YcYso_3syn3gen4fold16fold_expr_unsafeNtNvCsiSITA57RZ13_15zerofrom_derive25replace_lifetime_and_type20ReplaceLifetimeAndTyEBT_, symObjAddr: 0x1877C, symBinAddr: 0x2CB88, symSize: 0x12C }
  - { offset: 0x5244A, size: 0x8, addend: 0x0, symName: __RINvNtNtCsc29TF2YcYso_3syn3gen4fold16fold_field_valueNtNvCsiSITA57RZ13_15zerofrom_derive16replace_lifetime15ReplaceLifetimeEBT_, symObjAddr: 0x188A8, symBinAddr: 0x2CCB4, symSize: 0x1A4 }
  - { offset: 0x52491, size: 0x8, addend: 0x0, symName: __RINvNtNtCsc29TF2YcYso_3syn3gen4fold16fold_field_valueNtNvCsiSITA57RZ13_15zerofrom_derive25replace_lifetime_and_type20ReplaceLifetimeAndTyEBT_, symObjAddr: 0x18A4C, symBinAddr: 0x2CE58, symSize: 0x1A4 }
  - { offset: 0x524D8, size: 0x8, addend: 0x0, symName: __RINvNtNtCsc29TF2YcYso_3syn3gen4fold16fold_item_staticNtNvCsiSITA57RZ13_15zerofrom_derive16replace_lifetime15ReplaceLifetimeEBT_, symObjAddr: 0x18BF0, symBinAddr: 0x2CFFC, symSize: 0x508 }
  - { offset: 0x5255E, size: 0x8, addend: 0x0, symName: __RINvNtNtCsc29TF2YcYso_3syn3gen4fold16fold_item_staticNtNvCsiSITA57RZ13_15zerofrom_derive25replace_lifetime_and_type20ReplaceLifetimeAndTyEBT_, symObjAddr: 0x190F8, symBinAddr: 0x2D504, symSize: 0x508 }
  - { offset: 0x525E4, size: 0x8, addend: 0x0, symName: __RINvNtNtCsc29TF2YcYso_3syn3gen4fold16fold_item_structNtNvCsiSITA57RZ13_15zerofrom_derive16replace_lifetime15ReplaceLifetimeEBT_, symObjAddr: 0x19600, symBinAddr: 0x2DA0C, symSize: 0x2C4 }
  - { offset: 0x5262B, size: 0x8, addend: 0x0, symName: __RINvNtNtCsc29TF2YcYso_3syn3gen4fold16fold_item_structNtNvCsiSITA57RZ13_15zerofrom_derive25replace_lifetime_and_type20ReplaceLifetimeAndTyEBT_, symObjAddr: 0x198C4, symBinAddr: 0x2DCD0, symSize: 0x2C4 }
  - { offset: 0x52672, size: 0x8, addend: 0x0, symName: __RINvNtNtCsc29TF2YcYso_3syn3gen4fold16fold_return_typeNtNvCsiSITA57RZ13_15zerofrom_derive16replace_lifetime15ReplaceLifetimeEBT_, symObjAddr: 0x19B88, symBinAddr: 0x2DF94, symSize: 0x1C0 }
  - { offset: 0x52700, size: 0x8, addend: 0x0, symName: __RINvNtNtCsc29TF2YcYso_3syn3gen4fold16fold_return_typeNtNvCsiSITA57RZ13_15zerofrom_derive25replace_lifetime_and_type20ReplaceLifetimeAndTyEBT_, symObjAddr: 0x19D48, symBinAddr: 0x2E154, symSize: 0x1C0 }
  - { offset: 0x5278E, size: 0x8, addend: 0x0, symName: __RINvNtNtCsc29TF2YcYso_3syn3gen4fold16fold_trait_boundNtNvCsiSITA57RZ13_15zerofrom_derive16replace_lifetime15ReplaceLifetimeEBT_, symObjAddr: 0x19F08, symBinAddr: 0x2E314, symSize: 0x19C }
  - { offset: 0x527D5, size: 0x8, addend: 0x0, symName: __RINvNtNtCsc29TF2YcYso_3syn3gen4fold16fold_trait_boundNtNvCsiSITA57RZ13_15zerofrom_derive25replace_lifetime_and_type20ReplaceLifetimeAndTyEBT_, symObjAddr: 0x1A0A4, symBinAddr: 0x2E4B0, symSize: 0x19C }
  - { offset: 0x5281C, size: 0x8, addend: 0x0, symName: __RINvNtNtCsc29TF2YcYso_3syn3gen4fold17fold_expr_closureNtNvCsiSITA57RZ13_15zerofrom_derive16replace_lifetime15ReplaceLifetimeEBU_, symObjAddr: 0x1A240, symBinAddr: 0x2E64C, symSize: 0x428 }
  - { offset: 0x52882, size: 0x8, addend: 0x0, symName: __RINvNtNtCsc29TF2YcYso_3syn3gen4fold17fold_expr_closureNtNvCsiSITA57RZ13_15zerofrom_derive25replace_lifetime_and_type20ReplaceLifetimeAndTyEBU_, symObjAddr: 0x1A668, symBinAddr: 0x2EA74, symSize: 0x428 }
  - { offset: 0x528E8, size: 0x8, addend: 0x0, symName: __RINvNtNtCsc29TF2YcYso_3syn3gen4fold17fold_fields_namedNtNvCsiSITA57RZ13_15zerofrom_derive16replace_lifetime15ReplaceLifetimeEBU_, symObjAddr: 0x1AA90, symBinAddr: 0x2EE9C, symSize: 0x90 }
  - { offset: 0x5292F, size: 0x8, addend: 0x0, symName: __RINvNtNtCsc29TF2YcYso_3syn3gen4fold17fold_fields_namedNtNvCsiSITA57RZ13_15zerofrom_derive25replace_lifetime_and_type20ReplaceLifetimeAndTyEBU_, symObjAddr: 0x1AB20, symBinAddr: 0x2EF2C, symSize: 0x90 }
  - { offset: 0x52976, size: 0x8, addend: 0x0, symName: __RINvNtNtCsc29TF2YcYso_3syn3gen4fold17fold_foreign_itemNtNvCsiSITA57RZ13_15zerofrom_derive16replace_lifetime15ReplaceLifetimeEBU_, symObjAddr: 0x1ABB0, symBinAddr: 0x2EFBC, symSize: 0x284 }
  - { offset: 0x52A50, size: 0x8, addend: 0x0, symName: __RINvNtNtCsc29TF2YcYso_3syn3gen4fold17fold_foreign_itemNtNvCsiSITA57RZ13_15zerofrom_derive25replace_lifetime_and_type20ReplaceLifetimeAndTyEBU_, symObjAddr: 0x1AE34, symBinAddr: 0x2F240, symSize: 0x284 }
  - { offset: 0x52B2A, size: 0x8, addend: 0x0, symName: __RINvNtNtCsc29TF2YcYso_3syn3gen4fold17fold_impl_item_fnNtNvCsiSITA57RZ13_15zerofrom_derive16replace_lifetime15ReplaceLifetimeEBU_, symObjAddr: 0x1B0B8, symBinAddr: 0x2F4C4, symSize: 0x248 }
  - { offset: 0x52B71, size: 0x8, addend: 0x0, symName: __RINvNtNtCsc29TF2YcYso_3syn3gen4fold17fold_impl_item_fnNtNvCsiSITA57RZ13_15zerofrom_derive25replace_lifetime_and_type20ReplaceLifetimeAndTyEBU_, symObjAddr: 0x1B300, symBinAddr: 0x2F70C, symSize: 0x248 }
  - { offset: 0x52BB8, size: 0x8, addend: 0x0, symName: __RINvNtNtCsc29TF2YcYso_3syn3gen4fold17fold_lit_byte_strNtNvCsiSITA57RZ13_15zerofrom_derive16replace_lifetime15ReplaceLifetimeEBU_, symObjAddr: 0x1B548, symBinAddr: 0x2F954, symSize: 0xDC }
  - { offset: 0x52C32, size: 0x8, addend: 0x0, symName: __RINvNtNtCsc29TF2YcYso_3syn3gen4fold17fold_lit_byte_strNtNvCsiSITA57RZ13_15zerofrom_derive25replace_lifetime_and_type20ReplaceLifetimeAndTyEBU_, symObjAddr: 0x1B624, symBinAddr: 0x2FA30, symSize: 0xDC }
  - { offset: 0x52CAC, size: 0x8, addend: 0x0, symName: __RINvNtNtCsc29TF2YcYso_3syn3gen4fold17fold_path_segmentNtNvCsiSITA57RZ13_15zerofrom_derive16replace_lifetime15ReplaceLifetimeEBU_, symObjAddr: 0x1B700, symBinAddr: 0x2FB0C, symSize: 0x118 }
  - { offset: 0x52CF3, size: 0x8, addend: 0x0, symName: __RINvNtNtCsc29TF2YcYso_3syn3gen4fold17fold_path_segmentNtNvCsiSITA57RZ13_15zerofrom_derive25replace_lifetime_and_type20ReplaceLifetimeAndTyEBU_, symObjAddr: 0x1B818, symBinAddr: 0x2FC24, symSize: 0x118 }
  - { offset: 0x52D3A, size: 0x8, addend: 0x0, symName: __RINvNtNtCsc29TF2YcYso_3syn3gen4fold17fold_range_limitsNtNvCsiSITA57RZ13_15zerofrom_derive16replace_lifetime15ReplaceLifetimeEBU_, symObjAddr: 0x1B930, symBinAddr: 0x2FD3C, symSize: 0xA4 }
  - { offset: 0x52DBD, size: 0x8, addend: 0x0, symName: __RINvNtNtCsc29TF2YcYso_3syn3gen4fold17fold_range_limitsNtNvCsiSITA57RZ13_15zerofrom_derive25replace_lifetime_and_type20ReplaceLifetimeAndTyEBU_, symObjAddr: 0x1B9D4, symBinAddr: 0x2FDE0, symSize: 0xA4 }
  - { offset: 0x52E40, size: 0x8, addend: 0x0, symName: __RINvNtNtCsc29TF2YcYso_3syn3gen4fold17fold_type_bare_fnNtNvCsiSITA57RZ13_15zerofrom_derive16replace_lifetime15ReplaceLifetimeEBU_, symObjAddr: 0x1BA78, symBinAddr: 0x2FE84, symSize: 0x2FC }
  - { offset: 0x52E87, size: 0x8, addend: 0x0, symName: __RINvNtNtCsc29TF2YcYso_3syn3gen4fold17fold_type_bare_fnNtNvCsiSITA57RZ13_15zerofrom_derive25replace_lifetime_and_type20ReplaceLifetimeAndTyEBU_, symObjAddr: 0x1BD74, symBinAddr: 0x30180, symSize: 0x2FC }
  - { offset: 0x52ECE, size: 0x8, addend: 0x0, symName: __RINvNtNtCsc29TF2YcYso_3syn3gen4fold17fold_where_clauseNtNvCsiSITA57RZ13_15zerofrom_derive16replace_lifetime15ReplaceLifetimeEBU_, symObjAddr: 0x1C070, symBinAddr: 0x3047C, symSize: 0x80 }
  - { offset: 0x52F15, size: 0x8, addend: 0x0, symName: __RINvNtNtCsc29TF2YcYso_3syn3gen4fold17fold_where_clauseNtNvCsiSITA57RZ13_15zerofrom_derive25replace_lifetime_and_type20ReplaceLifetimeAndTyEBU_, symObjAddr: 0x1C0F0, symBinAddr: 0x304FC, symSize: 0x80 }
  - { offset: 0x52F5C, size: 0x8, addend: 0x0, symName: __RINvNtNtCsc29TF2YcYso_3syn3gen4fold18fold_bare_variadicNtNvCsiSITA57RZ13_15zerofrom_derive16replace_lifetime15ReplaceLifetimeEBV_, symObjAddr: 0x1C170, symBinAddr: 0x3057C, symSize: 0x144 }
  - { offset: 0x52FA3, size: 0x8, addend: 0x0, symName: __RINvNtNtCsc29TF2YcYso_3syn3gen4fold18fold_bare_variadicNtNvCsiSITA57RZ13_15zerofrom_derive25replace_lifetime_and_type20ReplaceLifetimeAndTyEBV_, symObjAddr: 0x1C2B4, symBinAddr: 0x306C0, symSize: 0x144 }
  - { offset: 0x52FEA, size: 0x8, addend: 0x0, symName: __RINvNtNtCsc29TF2YcYso_3syn3gen4fold18fold_expr_continueNtNvCsiSITA57RZ13_15zerofrom_derive16replace_lifetime15ReplaceLifetimeEBV_, symObjAddr: 0x1C3F8, symBinAddr: 0x30804, symSize: 0x120 }
  - { offset: 0x53031, size: 0x8, addend: 0x0, symName: __RINvNtNtCsc29TF2YcYso_3syn3gen4fold18fold_expr_continueNtNvCsiSITA57RZ13_15zerofrom_derive25replace_lifetime_and_type20ReplaceLifetimeAndTyEBV_, symObjAddr: 0x1C518, symBinAddr: 0x30924, symSize: 0x120 }
  - { offset: 0x53078, size: 0x8, addend: 0x0, symName: __RINvNtNtCsc29TF2YcYso_3syn3gen4fold18fold_expr_for_loopNtNvCsiSITA57RZ13_15zerofrom_derive16replace_lifetime15ReplaceLifetimeEBV_, symObjAddr: 0x1C638, symBinAddr: 0x30A44, symSize: 0x4D4 }
  - { offset: 0x530FE, size: 0x8, addend: 0x0, symName: __RINvNtNtCsc29TF2YcYso_3syn3gen4fold18fold_expr_for_loopNtNvCsiSITA57RZ13_15zerofrom_derive25replace_lifetime_and_type20ReplaceLifetimeAndTyEBV_, symObjAddr: 0x1CB0C, symBinAddr: 0x30F18, symSize: 0x4D4 }
  - { offset: 0x53184, size: 0x8, addend: 0x0, symName: __RINvNtNtCsc29TF2YcYso_3syn3gen4fold18fold_expr_raw_addrNtNvCsiSITA57RZ13_15zerofrom_derive16replace_lifetime15ReplaceLifetimeEBV_, symObjAddr: 0x1CFE0, symBinAddr: 0x313EC, symSize: 0x250 }
  - { offset: 0x531EA, size: 0x8, addend: 0x0, symName: __RINvNtNtCsc29TF2YcYso_3syn3gen4fold18fold_expr_raw_addrNtNvCsiSITA57RZ13_15zerofrom_derive25replace_lifetime_and_type20ReplaceLifetimeAndTyEBV_, symObjAddr: 0x1D230, symBinAddr: 0x3163C, symSize: 0x250 }
  - { offset: 0x53250, size: 0x8, addend: 0x0, symName: __RINvNtNtCsc29TF2YcYso_3syn3gen4fold18fold_generic_paramNtNvCsiSITA57RZ13_15zerofrom_derive16replace_lifetime15ReplaceLifetimeEBV_, symObjAddr: 0x1D480, symBinAddr: 0x3188C, symSize: 0x194 }
  - { offset: 0x532EC, size: 0x8, addend: 0x0, symName: __RINvNtNtCsc29TF2YcYso_3syn3gen4fold18fold_generic_paramNtNvCsiSITA57RZ13_15zerofrom_derive25replace_lifetime_and_type20ReplaceLifetimeAndTyEBV_, symObjAddr: 0x1D614, symBinAddr: 0x31A20, symSize: 0x194 }
  - { offset: 0x53388, size: 0x8, addend: 0x0, symName: __RINvNtNtCsc29TF2YcYso_3syn3gen4fold18fold_pat_referenceNtNvCsiSITA57RZ13_15zerofrom_derive16replace_lifetime15ReplaceLifetimeEBV_, symObjAddr: 0x1D7A8, symBinAddr: 0x31BB4, symSize: 0x230 }
  - { offset: 0x533EE, size: 0x8, addend: 0x0, symName: __RINvNtNtCsc29TF2YcYso_3syn3gen4fold18fold_pat_referenceNtNvCsiSITA57RZ13_15zerofrom_derive25replace_lifetime_and_type20ReplaceLifetimeAndTyEBV_, symObjAddr: 0x1D9D8, symBinAddr: 0x31DE4, symSize: 0x230 }
  - { offset: 0x53454, size: 0x8, addend: 0x0, symName: __RINvNtNtCsc29TF2YcYso_3syn3gen4fold18fold_trait_item_fnNtNvCsiSITA57RZ13_15zerofrom_derive16replace_lifetime15ReplaceLifetimeEBV_, symObjAddr: 0x1DC08, symBinAddr: 0x32014, symSize: 0x1BC }
  - { offset: 0x5349B, size: 0x8, addend: 0x0, symName: __RINvNtNtCsc29TF2YcYso_3syn3gen4fold18fold_trait_item_fnNtNvCsiSITA57RZ13_15zerofrom_derive25replace_lifetime_and_type20ReplaceLifetimeAndTyEBV_, symObjAddr: 0x1DDC4, symBinAddr: 0x321D0, symSize: 0x1BC }
  - { offset: 0x534E2, size: 0x8, addend: 0x0, symName: __RINvNtNtCsc29TF2YcYso_3syn3gen4fold19fold_captured_paramNtNvCsiSITA57RZ13_15zerofrom_derive16replace_lifetime15ReplaceLifetimeEBW_, symObjAddr: 0x1DF80, symBinAddr: 0x3238C, symSize: 0xE0 }
  - { offset: 0x5355D, size: 0x8, addend: 0x0, symName: __RINvNtNtCsc29TF2YcYso_3syn3gen4fold19fold_captured_paramNtNvCsiSITA57RZ13_15zerofrom_derive25replace_lifetime_and_type20ReplaceLifetimeAndTyEBW_, symObjAddr: 0x1E060, symBinAddr: 0x3246C, symSize: 0xE0 }
  - { offset: 0x535D8, size: 0x8, addend: 0x0, symName: __RINvNtNtCsc29TF2YcYso_3syn3gen4fold19fold_expr_referenceNtNvCsiSITA57RZ13_15zerofrom_derive16replace_lifetime15ReplaceLifetimeEBW_, symObjAddr: 0x1E140, symBinAddr: 0x3254C, symSize: 0x230 }
  - { offset: 0x5363E, size: 0x8, addend: 0x0, symName: __RINvNtNtCsc29TF2YcYso_3syn3gen4fold19fold_expr_referenceNtNvCsiSITA57RZ13_15zerofrom_derive25replace_lifetime_and_type20ReplaceLifetimeAndTyEBW_, symObjAddr: 0x1E370, symBinAddr: 0x3277C, symSize: 0x230 }
  - { offset: 0x536A4, size: 0x8, addend: 0x0, symName: __RINvNtNtCsc29TF2YcYso_3syn3gen4fold19fold_expr_try_blockNtNvCsiSITA57RZ13_15zerofrom_derive16replace_lifetime15ReplaceLifetimeEBW_, symObjAddr: 0x1E5A0, symBinAddr: 0x329AC, symSize: 0x12C }
  - { offset: 0x536EB, size: 0x8, addend: 0x0, symName: __RINvNtNtCsc29TF2YcYso_3syn3gen4fold19fold_expr_try_blockNtNvCsiSITA57RZ13_15zerofrom_derive25replace_lifetime_and_type20ReplaceLifetimeAndTyEBW_, symObjAddr: 0x1E6CC, symBinAddr: 0x32AD8, symSize: 0x12C }
  - { offset: 0x53732, size: 0x8, addend: 0x0, symName: __RINvNtNtCsc29TF2YcYso_3syn3gen4fold19fold_fields_unnamedNtNvCsiSITA57RZ13_15zerofrom_derive16replace_lifetime15ReplaceLifetimeEBW_, symObjAddr: 0x1E7F8, symBinAddr: 0x32C04, symSize: 0x90 }
  - { offset: 0x53779, size: 0x8, addend: 0x0, symName: __RINvNtNtCsc29TF2YcYso_3syn3gen4fold19fold_fields_unnamedNtNvCsiSITA57RZ13_15zerofrom_derive25replace_lifetime_and_type20ReplaceLifetimeAndTyEBW_, symObjAddr: 0x1E888, symBinAddr: 0x32C94, symSize: 0x90 }
  - { offset: 0x537C0, size: 0x8, addend: 0x0, symName: __RINvNtNtCsc29TF2YcYso_3syn3gen4fold19fold_impl_item_typeNtNvCsiSITA57RZ13_15zerofrom_derive16replace_lifetime15ReplaceLifetimeEBW_, symObjAddr: 0x1E918, symBinAddr: 0x32D24, symSize: 0x304 }
  - { offset: 0x53807, size: 0x8, addend: 0x0, symName: __RINvNtNtCsc29TF2YcYso_3syn3gen4fold19fold_impl_item_typeNtNvCsiSITA57RZ13_15zerofrom_derive25replace_lifetime_and_type20ReplaceLifetimeAndTyEBW_, symObjAddr: 0x1EC1C, symBinAddr: 0x33028, symSize: 0x304 }
  - { offset: 0x5384E, size: 0x8, addend: 0x0, symName: __RINvNtNtCsc29TF2YcYso_3syn3gen4fold19fold_lifetime_paramNtNvCsiSITA57RZ13_15zerofrom_derive16replace_lifetime15ReplaceLifetimeEBW_, symObjAddr: 0x1EF20, symBinAddr: 0x3332C, symSize: 0x1B4 }
  - { offset: 0x53895, size: 0x8, addend: 0x0, symName: __RINvNtNtCsc29TF2YcYso_3syn3gen4fold19fold_lifetime_paramNtNvCsiSITA57RZ13_15zerofrom_derive25replace_lifetime_and_type20ReplaceLifetimeAndTyEBW_, symObjAddr: 0x1F0D4, symBinAddr: 0x334E0, symSize: 0x1B4 }
  - { offset: 0x538DC, size: 0x8, addend: 0x0, symName: __RINvNtNtCsc29TF2YcYso_3syn3gen4fold19fold_path_argumentsNtNvCsiSITA57RZ13_15zerofrom_derive16replace_lifetime15ReplaceLifetimeEBW_, symObjAddr: 0x1F288, symBinAddr: 0x33694, symSize: 0x14C }
  - { offset: 0x53959, size: 0x8, addend: 0x0, symName: __RINvNtNtCsc29TF2YcYso_3syn3gen4fold19fold_path_argumentsNtNvCsiSITA57RZ13_15zerofrom_derive25replace_lifetime_and_type20ReplaceLifetimeAndTyEBW_, symObjAddr: 0x1F3D4, symBinAddr: 0x337E0, symSize: 0x14C }
  - { offset: 0x539D6, size: 0x8, addend: 0x0, symName: __RINvNtNtCsc29TF2YcYso_3syn3gen4fold19fold_predicate_typeNtNvCsiSITA57RZ13_15zerofrom_derive16replace_lifetime15ReplaceLifetimeEBW_, symObjAddr: 0x1F520, symBinAddr: 0x3392C, symSize: 0x1C4 }
  - { offset: 0x53A1D, size: 0x8, addend: 0x0, symName: __RINvNtNtCsc29TF2YcYso_3syn3gen4fold19fold_predicate_typeNtNvCsiSITA57RZ13_15zerofrom_derive25replace_lifetime_and_type20ReplaceLifetimeAndTyEBW_, symObjAddr: 0x1F6E4, symBinAddr: 0x33AF0, symSize: 0x1C4 }
  - { offset: 0x53A64, size: 0x8, addend: 0x0, symName: __RINvNtNtCsc29TF2YcYso_3syn3gen4fold19fold_type_referenceNtNvCsiSITA57RZ13_15zerofrom_derive16replace_lifetime15ReplaceLifetimeEBW_, symObjAddr: 0x1F8A8, symBinAddr: 0x33CB4, symSize: 0x250 }
  - { offset: 0x53ACA, size: 0x8, addend: 0x0, symName: __RINvNtNtCsc29TF2YcYso_3syn3gen4fold19fold_type_referenceNtNvCsiSITA57RZ13_15zerofrom_derive25replace_lifetime_and_type20ReplaceLifetimeAndTyEBW_, symObjAddr: 0x1FAF8, symBinAddr: 0x33F04, symSize: 0x250 }
  - { offset: 0x53B30, size: 0x8, addend: 0x0, symName: __RINvNtNtCsc29TF2YcYso_3syn3gen4fold19fold_vis_restrictedNtNvCsiSITA57RZ13_15zerofrom_derive16replace_lifetime15ReplaceLifetimeEBW_, symObjAddr: 0x1FD48, symBinAddr: 0x34154, symSize: 0x1C4 }
  - { offset: 0x53B96, size: 0x8, addend: 0x0, symName: __RINvNtNtCsc29TF2YcYso_3syn3gen4fold19fold_vis_restrictedNtNvCsiSITA57RZ13_15zerofrom_derive25replace_lifetime_and_type20ReplaceLifetimeAndTyEBW_, symObjAddr: 0x1FF0C, symBinAddr: 0x34318, symSize: 0x1C4 }
  - { offset: 0x53BFC, size: 0x8, addend: 0x0, symName: __RINvNtNtCsc29TF2YcYso_3syn3gen4fold20fold_bound_lifetimesNtNvCsiSITA57RZ13_15zerofrom_derive16replace_lifetime15ReplaceLifetimeEBX_, symObjAddr: 0x200D0, symBinAddr: 0x344DC, symSize: 0xA8 }
  - { offset: 0x53C43, size: 0x8, addend: 0x0, symName: __RINvNtNtCsc29TF2YcYso_3syn3gen4fold20fold_bound_lifetimesNtNvCsiSITA57RZ13_15zerofrom_derive25replace_lifetime_and_type20ReplaceLifetimeAndTyEBX_, symObjAddr: 0x20178, symBinAddr: 0x34584, symSize: 0xA8 }
  - { offset: 0x53C8A, size: 0x8, addend: 0x0, symName: __RINvNtNtCsc29TF2YcYso_3syn3gen4fold20fold_foreign_item_fnNtNvCsiSITA57RZ13_15zerofrom_derive16replace_lifetime15ReplaceLifetimeEBX_, symObjAddr: 0x20220, symBinAddr: 0x3462C, symSize: 0x1B4 }
  - { offset: 0x53CD1, size: 0x8, addend: 0x0, symName: __RINvNtNtCsc29TF2YcYso_3syn3gen4fold20fold_foreign_item_fnNtNvCsiSITA57RZ13_15zerofrom_derive25replace_lifetime_and_type20ReplaceLifetimeAndTyEBX_, symObjAddr: 0x203D4, symBinAddr: 0x347E0, symSize: 0x1B4 }
  - { offset: 0x53D18, size: 0x8, addend: 0x0, symName: __RINvNtNtCsc29TF2YcYso_3syn3gen4fold20fold_impl_item_constNtNvCsiSITA57RZ13_15zerofrom_derive16replace_lifetime15ReplaceLifetimeEBX_, symObjAddr: 0x20588, symBinAddr: 0x34994, symSize: 0x3A4 }
  - { offset: 0x53D5F, size: 0x8, addend: 0x0, symName: __RINvNtNtCsc29TF2YcYso_3syn3gen4fold20fold_impl_item_constNtNvCsiSITA57RZ13_15zerofrom_derive25replace_lifetime_and_type20ReplaceLifetimeAndTyEBX_, symObjAddr: 0x2092C, symBinAddr: 0x34D38, symSize: 0x3A4 }
  - { offset: 0x53DA6, size: 0x8, addend: 0x0, symName: __RINvNtNtCsc29TF2YcYso_3syn3gen4fold20fold_impl_item_macroNtNvCsiSITA57RZ13_15zerofrom_derive16replace_lifetime15ReplaceLifetimeEBX_, symObjAddr: 0x20CD0, symBinAddr: 0x350DC, symSize: 0x13C }
  - { offset: 0x53DED, size: 0x8, addend: 0x0, symName: __RINvNtNtCsc29TF2YcYso_3syn3gen4fold20fold_impl_item_macroNtNvCsiSITA57RZ13_15zerofrom_derive25replace_lifetime_and_type20ReplaceLifetimeAndTyEBX_, symObjAddr: 0x20E0C, symBinAddr: 0x35218, symSize: 0x13C }
  - { offset: 0x53E34, size: 0x8, addend: 0x0, symName: __RINvNtNtCsc29TF2YcYso_3syn3gen4fold20fold_macro_delimiterNtNvCsiSITA57RZ13_15zerofrom_derive16replace_lifetime15ReplaceLifetimeEBX_, symObjAddr: 0x20F48, symBinAddr: 0x35354, symSize: 0x10C }
  - { offset: 0x53ED6, size: 0x8, addend: 0x0, symName: __RINvNtNtCsc29TF2YcYso_3syn3gen4fold20fold_macro_delimiterNtNvCsiSITA57RZ13_15zerofrom_derive25replace_lifetime_and_type20ReplaceLifetimeAndTyEBX_, symObjAddr: 0x21054, symBinAddr: 0x35460, symSize: 0x10C }
  - { offset: 0x53F78, size: 0x8, addend: 0x0, symName: __RINvNtNtCsc29TF2YcYso_3syn3gen4fold20fold_meta_name_valueNtNvCsiSITA57RZ13_15zerofrom_derive16replace_lifetime15ReplaceLifetimeEBX_, symObjAddr: 0x21160, symBinAddr: 0x3556C, symSize: 0x134 }
  - { offset: 0x53FBF, size: 0x8, addend: 0x0, symName: __RINvNtNtCsc29TF2YcYso_3syn3gen4fold20fold_meta_name_valueNtNvCsiSITA57RZ13_15zerofrom_derive25replace_lifetime_and_type20ReplaceLifetimeAndTyEBX_, symObjAddr: 0x21294, symBinAddr: 0x356A0, symSize: 0x134 }
  - { offset: 0x54006, size: 0x8, addend: 0x0, symName: __RINvNtNtCsc29TF2YcYso_3syn3gen4fold20fold_precise_captureNtNvCsiSITA57RZ13_15zerofrom_derive16replace_lifetime15ReplaceLifetimeEBX_, symObjAddr: 0x213C8, symBinAddr: 0x357D4, symSize: 0xA8 }
  - { offset: 0x5404D, size: 0x8, addend: 0x0, symName: __RINvNtNtCsc29TF2YcYso_3syn3gen4fold20fold_precise_captureNtNvCsiSITA57RZ13_15zerofrom_derive25replace_lifetime_and_type20ReplaceLifetimeAndTyEBX_, symObjAddr: 0x21470, symBinAddr: 0x3587C, symSize: 0xA8 }
  - { offset: 0x54094, size: 0x8, addend: 0x0, symName: __RINvNtNtCsc29TF2YcYso_3syn3gen4fold20fold_trait_item_typeNtNvCsiSITA57RZ13_15zerofrom_derive16replace_lifetime15ReplaceLifetimeEBX_, symObjAddr: 0x21518, symBinAddr: 0x35924, symSize: 0x2EC }
  - { offset: 0x540DB, size: 0x8, addend: 0x0, symName: __RINvNtNtCsc29TF2YcYso_3syn3gen4fold20fold_trait_item_typeNtNvCsiSITA57RZ13_15zerofrom_derive25replace_lifetime_and_type20ReplaceLifetimeAndTyEBX_, symObjAddr: 0x21804, symBinAddr: 0x35C10, symSize: 0x2EC }
  - { offset: 0x54122, size: 0x8, addend: 0x0, symName: __RINvNtNtCsc29TF2YcYso_3syn3gen4fold20fold_type_impl_traitNtNvCsiSITA57RZ13_15zerofrom_derive16replace_lifetime15ReplaceLifetimeEBX_, symObjAddr: 0x21AF0, symBinAddr: 0x35EFC, symSize: 0x80 }
  - { offset: 0x54169, size: 0x8, addend: 0x0, symName: __RINvNtNtCsc29TF2YcYso_3syn3gen4fold20fold_type_impl_traitNtNvCsiSITA57RZ13_15zerofrom_derive25replace_lifetime_and_type20ReplaceLifetimeAndTyEBX_, symObjAddr: 0x21B70, symBinAddr: 0x35F7C, symSize: 0x80 }
  - { offset: 0x541B0, size: 0x8, addend: 0x0, symName: __RINvNtNtCsc29TF2YcYso_3syn3gen4fold20fold_where_predicateNtNvCsiSITA57RZ13_15zerofrom_derive16replace_lifetime15ReplaceLifetimeEBX_, symObjAddr: 0x21BF0, symBinAddr: 0x35FFC, symSize: 0x104 }
  - { offset: 0x5422D, size: 0x8, addend: 0x0, symName: __RINvNtNtCsc29TF2YcYso_3syn3gen4fold20fold_where_predicateNtNvCsiSITA57RZ13_15zerofrom_derive25replace_lifetime_and_type20ReplaceLifetimeAndTyEBX_, symObjAddr: 0x21CF4, symBinAddr: 0x36100, symSize: 0x104 }
  - { offset: 0x542AA, size: 0x8, addend: 0x0, symName: __RINvNtNtCsc29TF2YcYso_3syn3gen4fold21fold_expr_method_callNtNvCsiSITA57RZ13_15zerofrom_derive16replace_lifetime15ReplaceLifetimeEBY_, symObjAddr: 0x21DF8, symBinAddr: 0x36204, symSize: 0x3D4 }
  - { offset: 0x54310, size: 0x8, addend: 0x0, symName: __RINvNtNtCsc29TF2YcYso_3syn3gen4fold21fold_expr_method_callNtNvCsiSITA57RZ13_15zerofrom_derive25replace_lifetime_and_type20ReplaceLifetimeAndTyEBY_, symObjAddr: 0x221CC, symBinAddr: 0x365D8, symSize: 0x3D4 }
  - { offset: 0x54376, size: 0x8, addend: 0x0, symName: __RINvNtNtCsc29TF2YcYso_3syn3gen4fold21fold_field_mutabilityNtNvCsiSITA57RZ13_15zerofrom_derive16replace_lifetime15ReplaceLifetimeEBY_, symObjAddr: 0x225A0, symBinAddr: 0x369AC, symSize: 0x20 }
  - { offset: 0x543C4, size: 0x8, addend: 0x0, symName: __RINvNtNtCsc29TF2YcYso_3syn3gen4fold21fold_field_mutabilityNtNvCsiSITA57RZ13_15zerofrom_derive25replace_lifetime_and_type20ReplaceLifetimeAndTyEBY_, symObjAddr: 0x225C0, symBinAddr: 0x369CC, symSize: 0x20 }
  - { offset: 0x54412, size: 0x8, addend: 0x0, symName: __RINvNtNtCsc29TF2YcYso_3syn3gen4fold21fold_generic_argumentNtNvCsiSITA57RZ13_15zerofrom_derive16replace_lifetime15ReplaceLifetimeEBY_, symObjAddr: 0x225E0, symBinAddr: 0x369EC, symSize: 0x2F4 }
  - { offset: 0x5450B, size: 0x8, addend: 0x0, symName: __RINvNtNtCsc29TF2YcYso_3syn3gen4fold21fold_generic_argumentNtNvCsiSITA57RZ13_15zerofrom_derive25replace_lifetime_and_type20ReplaceLifetimeAndTyEBY_, symObjAddr: 0x228D4, symBinAddr: 0x36CE0, symSize: 0x2F4 }
  - { offset: 0x54604, size: 0x8, addend: 0x0, symName: __RINvNtNtCsc29TF2YcYso_3syn3gen4fold21fold_item_foreign_modNtNvCsiSITA57RZ13_15zerofrom_derive16replace_lifetime15ReplaceLifetimeEBY_, symObjAddr: 0x22BE0, symBinAddr: 0x36FD4, symSize: 0x1D4 }
  - { offset: 0x5464B, size: 0x8, addend: 0x0, symName: __RINvNtNtCsc29TF2YcYso_3syn3gen4fold21fold_item_foreign_modNtNvCsiSITA57RZ13_15zerofrom_derive25replace_lifetime_and_type20ReplaceLifetimeAndTyEBY_, symObjAddr: 0x22DB4, symBinAddr: 0x371A8, symSize: 0x1D4 }
  - { offset: 0x54692, size: 0x8, addend: 0x0, symName: __RINvNtNtCsc29TF2YcYso_3syn3gen4fold21fold_item_trait_aliasNtNvCsiSITA57RZ13_15zerofrom_derive16replace_lifetime15ReplaceLifetimeEBY_, symObjAddr: 0x22F88, symBinAddr: 0x3737C, symSize: 0x2E4 }
  - { offset: 0x546D9, size: 0x8, addend: 0x0, symName: __RINvNtNtCsc29TF2YcYso_3syn3gen4fold21fold_item_trait_aliasNtNvCsiSITA57RZ13_15zerofrom_derive25replace_lifetime_and_type20ReplaceLifetimeAndTyEBY_, symObjAddr: 0x2326C, symBinAddr: 0x37660, symSize: 0x2E4 }
  - { offset: 0x54720, size: 0x8, addend: 0x0, symName: __RINvNtNtCsc29TF2YcYso_3syn3gen4fold21fold_pat_tuple_structNtNvCsiSITA57RZ13_15zerofrom_derive16replace_lifetime15ReplaceLifetimeEBY_, symObjAddr: 0x23550, symBinAddr: 0x37944, symSize: 0x250 }
  - { offset: 0x54767, size: 0x8, addend: 0x0, symName: __RINvNtNtCsc29TF2YcYso_3syn3gen4fold21fold_pat_tuple_structNtNvCsiSITA57RZ13_15zerofrom_derive25replace_lifetime_and_type20ReplaceLifetimeAndTyEBY_, symObjAddr: 0x237A0, symBinAddr: 0x37B94, symSize: 0x250 }
  - { offset: 0x547AE, size: 0x8, addend: 0x0, symName: __RINvNtNtCsc29TF2YcYso_3syn3gen4fold21fold_trait_item_constNtNvCsiSITA57RZ13_15zerofrom_derive16replace_lifetime15ReplaceLifetimeEBY_, symObjAddr: 0x239F0, symBinAddr: 0x37DE4, symSize: 0x2F8 }
  - { offset: 0x547F5, size: 0x8, addend: 0x0, symName: __RINvNtNtCsc29TF2YcYso_3syn3gen4fold21fold_trait_item_constNtNvCsiSITA57RZ13_15zerofrom_derive25replace_lifetime_and_type20ReplaceLifetimeAndTyEBY_, symObjAddr: 0x23CE8, symBinAddr: 0x380DC, symSize: 0x2F8 }
  - { offset: 0x5483C, size: 0x8, addend: 0x0, symName: __RINvNtNtCsc29TF2YcYso_3syn3gen4fold21fold_trait_item_macroNtNvCsiSITA57RZ13_15zerofrom_derive16replace_lifetime15ReplaceLifetimeEBY_, symObjAddr: 0x23FE0, symBinAddr: 0x383D4, symSize: 0x13C }
  - { offset: 0x54883, size: 0x8, addend: 0x0, symName: __RINvNtNtCsc29TF2YcYso_3syn3gen4fold21fold_trait_item_macroNtNvCsiSITA57RZ13_15zerofrom_derive25replace_lifetime_and_type20ReplaceLifetimeAndTyEBY_, symObjAddr: 0x2411C, symBinAddr: 0x38510, symSize: 0x13C }
  - { offset: 0x548CA, size: 0x8, addend: 0x0, symName: __RINvNtNtCsc29TF2YcYso_3syn3gen4fold21fold_type_param_boundNtNvCsiSITA57RZ13_15zerofrom_derive16replace_lifetime15ReplaceLifetimeEBY_, symObjAddr: 0x24258, symBinAddr: 0x3864C, symSize: 0x1F8 }
  - { offset: 0x54985, size: 0x8, addend: 0x0, symName: __RINvNtNtCsc29TF2YcYso_3syn3gen4fold21fold_type_param_boundNtNvCsiSITA57RZ13_15zerofrom_derive25replace_lifetime_and_type20ReplaceLifetimeAndTyEBY_, symObjAddr: 0x24450, symBinAddr: 0x38844, symSize: 0x1F8 }
  - { offset: 0x54A40, size: 0x8, addend: 0x0, symName: __RINvNtNtCsc29TF2YcYso_3syn3gen4fold22fold_foreign_item_typeNtNvCsiSITA57RZ13_15zerofrom_derive16replace_lifetime15ReplaceLifetimeEBZ_, symObjAddr: 0x24648, symBinAddr: 0x38A3C, symSize: 0x244 }
  - { offset: 0x54A87, size: 0x8, addend: 0x0, symName: __RINvNtNtCsc29TF2YcYso_3syn3gen4fold22fold_foreign_item_typeNtNvCsiSITA57RZ13_15zerofrom_derive25replace_lifetime_and_type20ReplaceLifetimeAndTyEBZ_, symObjAddr: 0x2488C, symBinAddr: 0x38C80, symSize: 0x244 }
  - { offset: 0x54ACE, size: 0x8, addend: 0x0, symName: __RINvNtNtCsc29TF2YcYso_3syn3gen4fold22fold_item_extern_crateNtNvCsiSITA57RZ13_15zerofrom_derive16replace_lifetime15ReplaceLifetimeEBZ_, symObjAddr: 0x24AD0, symBinAddr: 0x38EC4, symSize: 0x258 }
  - { offset: 0x54B15, size: 0x8, addend: 0x0, symName: __RINvNtNtCsc29TF2YcYso_3syn3gen4fold22fold_item_extern_crateNtNvCsiSITA57RZ13_15zerofrom_derive25replace_lifetime_and_type20ReplaceLifetimeAndTyEBZ_, symObjAddr: 0x24D28, symBinAddr: 0x3911C, symSize: 0x258 }
  - { offset: 0x54B5C, size: 0x8, addend: 0x0, symName: __RINvNtNtCsc29TF2YcYso_3syn3gen4fold22fold_static_mutabilityNtNvCsiSITA57RZ13_15zerofrom_derive16replace_lifetime15ReplaceLifetimeEBZ_, symObjAddr: 0x24F80, symBinAddr: 0x39374, symSize: 0x78 }
  - { offset: 0x54BC0, size: 0x8, addend: 0x0, symName: __RINvNtNtCsc29TF2YcYso_3syn3gen4fold22fold_static_mutabilityNtNvCsiSITA57RZ13_15zerofrom_derive25replace_lifetime_and_type20ReplaceLifetimeAndTyEBZ_, symObjAddr: 0x24FF8, symBinAddr: 0x393EC, symSize: 0x78 }
  - { offset: 0x54C24, size: 0x8, addend: 0x0, symName: __RINvNtNtCsc29TF2YcYso_3syn3gen4fold22fold_type_trait_objectNtNvCsiSITA57RZ13_15zerofrom_derive16replace_lifetime15ReplaceLifetimeEBZ_, symObjAddr: 0x25070, symBinAddr: 0x39464, symSize: 0x90 }
  - { offset: 0x54C6B, size: 0x8, addend: 0x0, symName: __RINvNtNtCsc29TF2YcYso_3syn3gen4fold22fold_type_trait_objectNtNvCsiSITA57RZ13_15zerofrom_derive25replace_lifetime_and_type20ReplaceLifetimeAndTyEBZ_, symObjAddr: 0x25100, symBinAddr: 0x394F4, symSize: 0x90 }
  - { offset: 0x54CB2, size: 0x8, addend: 0x0, symName: __RINvNtNtCsc29TF2YcYso_3syn3gen4fold23fold_foreign_item_macroNtNvCsiSITA57RZ13_15zerofrom_derive16replace_lifetime15ReplaceLifetimeEB10_, symObjAddr: 0x25190, symBinAddr: 0x39584, symSize: 0x13C }
  - { offset: 0x54CF9, size: 0x8, addend: 0x0, symName: __RINvNtNtCsc29TF2YcYso_3syn3gen4fold23fold_foreign_item_macroNtNvCsiSITA57RZ13_15zerofrom_derive25replace_lifetime_and_type20ReplaceLifetimeAndTyEB10_, symObjAddr: 0x252CC, symBinAddr: 0x396C0, symSize: 0x13C }
  - { offset: 0x54D40, size: 0x8, addend: 0x0, symName: __RINvNtNtCsc29TF2YcYso_3syn3gen4fold23fold_pointer_mutabilityNtNvCsiSITA57RZ13_15zerofrom_derive16replace_lifetime15ReplaceLifetimeEB10_, symObjAddr: 0x25408, symBinAddr: 0x397FC, symSize: 0x84 }
  - { offset: 0x54DC2, size: 0x8, addend: 0x0, symName: __RINvNtNtCsc29TF2YcYso_3syn3gen4fold23fold_pointer_mutabilityNtNvCsiSITA57RZ13_15zerofrom_derive25replace_lifetime_and_type20ReplaceLifetimeAndTyEB10_, symObjAddr: 0x2548C, symBinAddr: 0x39880, symSize: 0x84 }
  - { offset: 0x54E44, size: 0x8, addend: 0x0, symName: __RINvNtNtCsc29TF2YcYso_3syn3gen4fold23fold_predicate_lifetimeNtNvCsiSITA57RZ13_15zerofrom_derive16replace_lifetime15ReplaceLifetimeEB10_, symObjAddr: 0x25510, symBinAddr: 0x39904, symSize: 0x11C }
  - { offset: 0x54E8B, size: 0x8, addend: 0x0, symName: __RINvNtNtCsc29TF2YcYso_3syn3gen4fold23fold_predicate_lifetimeNtNvCsiSITA57RZ13_15zerofrom_derive25replace_lifetime_and_type20ReplaceLifetimeAndTyEB10_, symObjAddr: 0x2562C, symBinAddr: 0x39A20, symSize: 0x11C }
  - { offset: 0x54ED2, size: 0x8, addend: 0x0, symName: __RINvNtNtCsc29TF2YcYso_3syn3gen4fold24fold_foreign_item_staticNtNvCsiSITA57RZ13_15zerofrom_derive16replace_lifetime15ReplaceLifetimeEB11_, symObjAddr: 0x25748, symBinAddr: 0x39B3C, symSize: 0x358 }
  - { offset: 0x54F38, size: 0x8, addend: 0x0, symName: __RINvNtNtCsc29TF2YcYso_3syn3gen4fold24fold_foreign_item_staticNtNvCsiSITA57RZ13_15zerofrom_derive25replace_lifetime_and_type20ReplaceLifetimeAndTyEB11_, symObjAddr: 0x25AA0, symBinAddr: 0x39E94, symSize: 0x358 }
  - { offset: 0x54F9E, size: 0x8, addend: 0x0, symName: __RINvNtNtCsc29TF2YcYso_3syn3gen4fold25fold_trait_bound_modifierNtNvCsiSITA57RZ13_15zerofrom_derive16replace_lifetime15ReplaceLifetimeEB12_, symObjAddr: 0x25DF8, symBinAddr: 0x3A1EC, symSize: 0x7C }
  - { offset: 0x55002, size: 0x8, addend: 0x0, symName: __RINvNtNtCsc29TF2YcYso_3syn3gen4fold25fold_trait_bound_modifierNtNvCsiSITA57RZ13_15zerofrom_derive25replace_lifetime_and_type20ReplaceLifetimeAndTyEB12_, symObjAddr: 0x25E74, symBinAddr: 0x3A268, symSize: 0x7C }
  - { offset: 0x55066, size: 0x8, addend: 0x0, symName: __RINvNtNtCsc29TF2YcYso_3syn3gen4fold36fold_parenthesized_generic_argumentsNtNvCsiSITA57RZ13_15zerofrom_derive16replace_lifetime15ReplaceLifetimeEB1d_, symObjAddr: 0x25EF0, symBinAddr: 0x3A2E4, symSize: 0x124 }
  - { offset: 0x550AD, size: 0x8, addend: 0x0, symName: __RINvNtNtCsc29TF2YcYso_3syn3gen4fold36fold_parenthesized_generic_argumentsNtNvCsiSITA57RZ13_15zerofrom_derive25replace_lifetime_and_type20ReplaceLifetimeAndTyEB1d_, symObjAddr: 0x26014, symBinAddr: 0x3A408, symSize: 0x124 }
  - { offset: 0x550F4, size: 0x8, addend: 0x0, symName: __RINvNtNtCsc29TF2YcYso_3syn3gen4fold38fold_angle_bracketed_generic_argumentsNtNvCsiSITA57RZ13_15zerofrom_derive16replace_lifetime15ReplaceLifetimeEB1f_, symObjAddr: 0x26138, symBinAddr: 0x3A52C, symSize: 0xB8 }
  - { offset: 0x5513B, size: 0x8, addend: 0x0, symName: __RINvNtNtCsc29TF2YcYso_3syn3gen4fold38fold_angle_bracketed_generic_argumentsNtNvCsiSITA57RZ13_15zerofrom_derive25replace_lifetime_and_type20ReplaceLifetimeAndTyEB1f_, symObjAddr: 0x261F0, symBinAddr: 0x3A5E4, symSize: 0xB8 }
  - { offset: 0x55182, size: 0x8, addend: 0x0, symName: __RINvNtNtCsc29TF2YcYso_3syn3gen4fold8fold_abiNtNvCsiSITA57RZ13_15zerofrom_derive16replace_lifetime15ReplaceLifetimeEBK_, symObjAddr: 0x262A8, symBinAddr: 0x3A69C, symSize: 0x54 }
  - { offset: 0x551C8, size: 0x8, addend: 0x0, symName: __RINvNtNtCsc29TF2YcYso_3syn3gen4fold8fold_abiNtNvCsiSITA57RZ13_15zerofrom_derive25replace_lifetime_and_type20ReplaceLifetimeAndTyEBK_, symObjAddr: 0x262FC, symBinAddr: 0x3A6F0, symSize: 0x54 }
  - { offset: 0x5520E, size: 0x8, addend: 0x0, symName: __RINvNtNtCsc29TF2YcYso_3syn3gen4fold8fold_armNtNvCsiSITA57RZ13_15zerofrom_derive16replace_lifetime15ReplaceLifetimeEBK_, symObjAddr: 0x26350, symBinAddr: 0x3A744, symSize: 0x334 }
  - { offset: 0x55274, size: 0x8, addend: 0x0, symName: __RINvNtNtCsc29TF2YcYso_3syn3gen4fold8fold_armNtNvCsiSITA57RZ13_15zerofrom_derive25replace_lifetime_and_type20ReplaceLifetimeAndTyEBK_, symObjAddr: 0x26684, symBinAddr: 0x3AA78, symSize: 0x334 }
  - { offset: 0x552DA, size: 0x8, addend: 0x0, symName: __RINvNtNtCsc29TF2YcYso_3syn3gen4fold8fold_litNtNvCsiSITA57RZ13_15zerofrom_derive16replace_lifetime15ReplaceLifetimeEBK_, symObjAddr: 0x269B8, symBinAddr: 0x3ADAC, symSize: 0x318 }
  - { offset: 0x55428, size: 0x8, addend: 0x0, symName: __RINvNtNtCsc29TF2YcYso_3syn3gen4fold8fold_litNtNvCsiSITA57RZ13_15zerofrom_derive25replace_lifetime_and_type20ReplaceLifetimeAndTyEBK_, symObjAddr: 0x26CD0, symBinAddr: 0x3B0C4, symSize: 0x318 }
  - { offset: 0x55576, size: 0x8, addend: 0x0, symName: __RINvNtNtCsc29TF2YcYso_3syn3gen4fold8fold_patNtNvCsiSITA57RZ13_15zerofrom_derive16replace_lifetime15ReplaceLifetimeEBK_, symObjAddr: 0x26FE8, symBinAddr: 0x3B3DC, symSize: 0x780 }
  - { offset: 0x557C4, size: 0x8, addend: 0x0, symName: __RINvNtNtCsc29TF2YcYso_3syn3gen4fold8fold_patNtNvCsiSITA57RZ13_15zerofrom_derive25replace_lifetime_and_type20ReplaceLifetimeAndTyEBK_, symObjAddr: 0x27768, symBinAddr: 0x3BB5C, symSize: 0x780 }
  - { offset: 0x55A12, size: 0x8, addend: 0x0, symName: __RINvNtNtCsc29TF2YcYso_3syn3gen4fold8fold_vecNtNtB6_4attr9AttributeNtNvCsiSITA57RZ13_15zerofrom_derive16replace_lifetime15ReplaceLifetimeNvYB12_NtB2_4Fold14fold_attributeEB16_, symObjAddr: 0x27EE8, symBinAddr: 0x3C2DC, symSize: 0x80 }
  - { offset: 0x55A7A, size: 0x8, addend: 0x0, symName: __RINvNtNtCsc29TF2YcYso_3syn3gen4fold8fold_vecNtNtB6_4attr9AttributeNtNvCsiSITA57RZ13_15zerofrom_derive25replace_lifetime_and_type20ReplaceLifetimeAndTyNvYB12_NtB2_4Fold14fold_attributeEB16_, symObjAddr: 0x27F68, symBinAddr: 0x3C35C, symSize: 0x80 }
  - { offset: 0x55AE2, size: 0x8, addend: 0x0, symName: __RINvNtNtCsc29TF2YcYso_3syn3gen4fold8fold_vecNtNtB6_4expr3ArmNtNvCsiSITA57RZ13_15zerofrom_derive16replace_lifetime15ReplaceLifetimeNvYBW_NtB2_4Fold8fold_armEB10_, symObjAddr: 0x27FE8, symBinAddr: 0x3C3DC, symSize: 0x80 }
  - { offset: 0x55B4A, size: 0x8, addend: 0x0, symName: __RINvNtNtCsc29TF2YcYso_3syn3gen4fold8fold_vecNtNtB6_4expr3ArmNtNvCsiSITA57RZ13_15zerofrom_derive25replace_lifetime_and_type20ReplaceLifetimeAndTyNvYBW_NtB2_4Fold8fold_armEB10_, symObjAddr: 0x28068, symBinAddr: 0x3C45C, symSize: 0x80 }
  - { offset: 0x55BB2, size: 0x8, addend: 0x0, symName: __RINvNtNtCsc29TF2YcYso_3syn3gen4fold8fold_vecNtNtB6_4item11ForeignItemNtNvCsiSITA57RZ13_15zerofrom_derive16replace_lifetime15ReplaceLifetimeNvYB15_NtB2_4Fold17fold_foreign_itemEB19_, symObjAddr: 0x280E8, symBinAddr: 0x3C4DC, symSize: 0x80 }
  - { offset: 0x55C1A, size: 0x8, addend: 0x0, symName: __RINvNtNtCsc29TF2YcYso_3syn3gen4fold8fold_vecNtNtB6_4item11ForeignItemNtNvCsiSITA57RZ13_15zerofrom_derive25replace_lifetime_and_type20ReplaceLifetimeAndTyNvYB15_NtB2_4Fold17fold_foreign_itemEB19_, symObjAddr: 0x28168, symBinAddr: 0x3C55C, symSize: 0x80 }
  - { offset: 0x55C82, size: 0x8, addend: 0x0, symName: __RINvNtNtCsc29TF2YcYso_3syn3gen4fold8fold_vecNtNtB6_4item4ItemNtNvCsiSITA57RZ13_15zerofrom_derive16replace_lifetime15ReplaceLifetimeNvYBX_NtB2_4Fold9fold_itemEB11_, symObjAddr: 0x281E8, symBinAddr: 0x3C5DC, symSize: 0x80 }
  - { offset: 0x55CEA, size: 0x8, addend: 0x0, symName: __RINvNtNtCsc29TF2YcYso_3syn3gen4fold8fold_vecNtNtB6_4item4ItemNtNvCsiSITA57RZ13_15zerofrom_derive25replace_lifetime_and_type20ReplaceLifetimeAndTyNvYBX_NtB2_4Fold9fold_itemEB11_, symObjAddr: 0x28268, symBinAddr: 0x3C65C, symSize: 0x80 }
  - { offset: 0x55D52, size: 0x8, addend: 0x0, symName: __RINvNtNtCsc29TF2YcYso_3syn3gen4fold8fold_vecNtNtB6_4item8ImplItemNtNvCsiSITA57RZ13_15zerofrom_derive16replace_lifetime15ReplaceLifetimeNvYB11_NtB2_4Fold14fold_impl_itemEB15_, symObjAddr: 0x282E8, symBinAddr: 0x3C6DC, symSize: 0x80 }
  - { offset: 0x55DBA, size: 0x8, addend: 0x0, symName: __RINvNtNtCsc29TF2YcYso_3syn3gen4fold8fold_vecNtNtB6_4item8ImplItemNtNvCsiSITA57RZ13_15zerofrom_derive25replace_lifetime_and_type20ReplaceLifetimeAndTyNvYB11_NtB2_4Fold14fold_impl_itemEB15_, symObjAddr: 0x28368, symBinAddr: 0x3C75C, symSize: 0x80 }
  - { offset: 0x55E22, size: 0x8, addend: 0x0, symName: __RINvNtNtCsc29TF2YcYso_3syn3gen4fold8fold_vecNtNtB6_4item9TraitItemNtNvCsiSITA57RZ13_15zerofrom_derive16replace_lifetime15ReplaceLifetimeNvYB12_NtB2_4Fold15fold_trait_itemEB16_, symObjAddr: 0x283E8, symBinAddr: 0x3C7DC, symSize: 0x80 }
  - { offset: 0x55E8A, size: 0x8, addend: 0x0, symName: __RINvNtNtCsc29TF2YcYso_3syn3gen4fold8fold_vecNtNtB6_4item9TraitItemNtNvCsiSITA57RZ13_15zerofrom_derive25replace_lifetime_and_type20ReplaceLifetimeAndTyNvYB12_NtB2_4Fold15fold_trait_itemEB16_, symObjAddr: 0x28468, symBinAddr: 0x3C85C, symSize: 0x80 }
  - { offset: 0x55EF2, size: 0x8, addend: 0x0, symName: __RINvNtNtCsc29TF2YcYso_3syn3gen4fold8fold_vecNtNtB6_4stmt4StmtNtNvCsiSITA57RZ13_15zerofrom_derive16replace_lifetime15ReplaceLifetimeNvYBX_NtB2_4Fold9fold_stmtEB11_, symObjAddr: 0x284E8, symBinAddr: 0x3C8DC, symSize: 0x80 }
  - { offset: 0x55F5A, size: 0x8, addend: 0x0, symName: __RINvNtNtCsc29TF2YcYso_3syn3gen4fold8fold_vecNtNtB6_4stmt4StmtNtNvCsiSITA57RZ13_15zerofrom_derive25replace_lifetime_and_type20ReplaceLifetimeAndTyNvYBX_NtB2_4Fold9fold_stmtEB11_, symObjAddr: 0x28568, symBinAddr: 0x3C95C, symSize: 0x80 }
  - { offset: 0x55FC2, size: 0x8, addend: 0x0, symName: __RINvNtNtCsc29TF2YcYso_3syn3gen4fold9fold_exprNtNvCsiSITA57RZ13_15zerofrom_derive16replace_lifetime15ReplaceLifetimeEBL_, symObjAddr: 0x285E8, symBinAddr: 0x3C9DC, symSize: 0x11B4 }
  - { offset: 0x564D9, size: 0x8, addend: 0x0, symName: __RINvNtNtCsc29TF2YcYso_3syn3gen4fold9fold_exprNtNvCsiSITA57RZ13_15zerofrom_derive25replace_lifetime_and_type20ReplaceLifetimeAndTyEBL_, symObjAddr: 0x2979C, symBinAddr: 0x3DB90, symSize: 0x11B4 }
  - { offset: 0x569F0, size: 0x8, addend: 0x0, symName: __RINvNtNtCsc29TF2YcYso_3syn3gen4fold9fold_itemNtNvCsiSITA57RZ13_15zerofrom_derive16replace_lifetime15ReplaceLifetimeEBL_, symObjAddr: 0x2A950, symBinAddr: 0x3ED44, symSize: 0x744 }
  - { offset: 0x56C1F, size: 0x8, addend: 0x0, symName: __RINvNtNtCsc29TF2YcYso_3syn3gen4fold9fold_itemNtNvCsiSITA57RZ13_15zerofrom_derive25replace_lifetime_and_type20ReplaceLifetimeAndTyEBL_, symObjAddr: 0x2B094, symBinAddr: 0x3F488, symSize: 0x744 }
  - { offset: 0x56E4E, size: 0x8, addend: 0x0, symName: __RINvNtNtCsc29TF2YcYso_3syn3gen4fold9fold_metaNtNvCsiSITA57RZ13_15zerofrom_derive16replace_lifetime15ReplaceLifetimeEBL_, symObjAddr: 0x2B7D8, symBinAddr: 0x3FBCC, symSize: 0x190 }
  - { offset: 0x56EEA, size: 0x8, addend: 0x0, symName: __RINvNtNtCsc29TF2YcYso_3syn3gen4fold9fold_metaNtNvCsiSITA57RZ13_15zerofrom_derive25replace_lifetime_and_type20ReplaceLifetimeAndTyEBL_, symObjAddr: 0x2B968, symBinAddr: 0x3FD5C, symSize: 0x190 }
  - { offset: 0x56F86, size: 0x8, addend: 0x0, symName: __RINvNtNtCsc29TF2YcYso_3syn3gen4fold9fold_pathNtNvCsiSITA57RZ13_15zerofrom_derive16replace_lifetime15ReplaceLifetimeEBL_, symObjAddr: 0x2BAF8, symBinAddr: 0x3FEEC, symSize: 0x90 }
  - { offset: 0x56FCD, size: 0x8, addend: 0x0, symName: __RINvNtNtCsc29TF2YcYso_3syn3gen4fold9fold_pathNtNvCsiSITA57RZ13_15zerofrom_derive25replace_lifetime_and_type20ReplaceLifetimeAndTyEBL_, symObjAddr: 0x2BB88, symBinAddr: 0x3FF7C, symSize: 0x90 }
  - { offset: 0x57014, size: 0x8, addend: 0x0, symName: __RINvNtNtCsc29TF2YcYso_3syn3gen4fold9fold_stmtNtNvCsiSITA57RZ13_15zerofrom_derive16replace_lifetime15ReplaceLifetimeEBL_, symObjAddr: 0x2BC18, symBinAddr: 0x4000C, symSize: 0x220 }
  - { offset: 0x570E0, size: 0x8, addend: 0x0, symName: __RINvNtNtCsc29TF2YcYso_3syn3gen4fold9fold_stmtNtNvCsiSITA57RZ13_15zerofrom_derive25replace_lifetime_and_type20ReplaceLifetimeAndTyEBL_, symObjAddr: 0x2BE38, symBinAddr: 0x4022C, symSize: 0x220 }
  - { offset: 0x571AC, size: 0x8, addend: 0x0, symName: __RINvNtNtCsc29TF2YcYso_3syn3gen4fold9fold_typeNtNvCsiSITA57RZ13_15zerofrom_derive16replace_lifetime15ReplaceLifetimeEBL_, symObjAddr: 0x2C058, symBinAddr: 0x4044C, symSize: 0x61C }
  - { offset: 0x573BB, size: 0x8, addend: 0x0, symName: __RINvNtNtCsc29TF2YcYso_3syn3gen4fold9fold_typeNtNvCsiSITA57RZ13_15zerofrom_derive25replace_lifetime_and_type20ReplaceLifetimeAndTyEBL_, symObjAddr: 0x2C674, symBinAddr: 0x40A68, symSize: 0x61C }
  - { offset: 0x575CF, size: 0x8, addend: 0x0, symName: __RNCINvNtNtCsc29TF2YcYso_3syn3gen4fold10fold_fieldNtNvCsiSITA57RZ13_15zerofrom_derive16replace_lifetime15ReplaceLifetimeE0BP_, symObjAddr: 0x2CC90, symBinAddr: 0x41084, symSize: 0x34 }
  - { offset: 0x57618, size: 0x8, addend: 0x0, symName: __RNCINvNtNtCsc29TF2YcYso_3syn3gen4fold10fold_fieldNtNvCsiSITA57RZ13_15zerofrom_derive25replace_lifetime_and_type20ReplaceLifetimeAndTyE0BP_, symObjAddr: 0x2CCC4, symBinAddr: 0x410B8, symSize: 0x34 }
  - { offset: 0x57667, size: 0x8, addend: 0x0, symName: __RNCINvNtNtCsc29TF2YcYso_3syn3gen4fold10fold_localNtNvCsiSITA57RZ13_15zerofrom_derive16replace_lifetime15ReplaceLifetimeE0BP_, symObjAddr: 0x2CCF8, symBinAddr: 0x410EC, symSize: 0x34 }
  - { offset: 0x576B0, size: 0x8, addend: 0x0, symName: __RNCINvNtNtCsc29TF2YcYso_3syn3gen4fold10fold_localNtNvCsiSITA57RZ13_15zerofrom_derive25replace_lifetime_and_type20ReplaceLifetimeAndTyE0BP_, symObjAddr: 0x2CD2C, symBinAddr: 0x41120, symSize: 0x34 }
  - { offset: 0x576FF, size: 0x8, addend: 0x0, symName: __RNCINvNtNtCsc29TF2YcYso_3syn3gen4fold12fold_expr_ifNtNvCsiSITA57RZ13_15zerofrom_derive16replace_lifetime15ReplaceLifetimeE0BR_, symObjAddr: 0x2CD60, symBinAddr: 0x41154, symSize: 0x17C }
  - { offset: 0x57767, size: 0x8, addend: 0x0, symName: __RNCINvNtNtCsc29TF2YcYso_3syn3gen4fold12fold_expr_ifNtNvCsiSITA57RZ13_15zerofrom_derive25replace_lifetime_and_type20ReplaceLifetimeAndTyE0BR_, symObjAddr: 0x2CEDC, symBinAddr: 0x412D0, symSize: 0x17C }
  - { offset: 0x577D5, size: 0x8, addend: 0x0, symName: __RNCINvNtNtCsc29TF2YcYso_3syn3gen4fold12fold_variantNtNvCsiSITA57RZ13_15zerofrom_derive16replace_lifetime15ReplaceLifetimeE0BR_, symObjAddr: 0x2D058, symBinAddr: 0x4144C, symSize: 0x94 }
  - { offset: 0x5781E, size: 0x8, addend: 0x0, symName: __RNCINvNtNtCsc29TF2YcYso_3syn3gen4fold12fold_variantNtNvCsiSITA57RZ13_15zerofrom_derive25replace_lifetime_and_type20ReplaceLifetimeAndTyE0BR_, symObjAddr: 0x2D0EC, symBinAddr: 0x414E0, symSize: 0x94 }
  - { offset: 0x5786D, size: 0x8, addend: 0x0, symName: __RNCINvNtNtCsc29TF2YcYso_3syn3gen4fold13fold_genericsNtNvCsiSITA57RZ13_15zerofrom_derive16replace_lifetime15ReplaceLifetimeE0BS_, symObjAddr: 0x2D180, symBinAddr: 0x41574, symSize: 0x34 }
  - { offset: 0x578B6, size: 0x8, addend: 0x0, symName: __RNCINvNtNtCsc29TF2YcYso_3syn3gen4fold13fold_genericsNtNvCsiSITA57RZ13_15zerofrom_derive25replace_lifetime_and_type20ReplaceLifetimeAndTyE0BS_, symObjAddr: 0x2D1B4, symBinAddr: 0x415A8, symSize: 0x34 }
  - { offset: 0x57905, size: 0x8, addend: 0x0, symName: __RNCINvNtNtCsc29TF2YcYso_3syn3gen4fold13fold_item_modNtNvCsiSITA57RZ13_15zerofrom_derive16replace_lifetime15ReplaceLifetimeE0BS_, symObjAddr: 0x2D1E8, symBinAddr: 0x415DC, symSize: 0x84 }
  - { offset: 0x5794E, size: 0x8, addend: 0x0, symName: __RNCINvNtNtCsc29TF2YcYso_3syn3gen4fold13fold_item_modNtNvCsiSITA57RZ13_15zerofrom_derive25replace_lifetime_and_type20ReplaceLifetimeAndTyE0BS_, symObjAddr: 0x2D26C, symBinAddr: 0x41660, symSize: 0x84 }
  - { offset: 0x5799D, size: 0x8, addend: 0x0, symName: __RNCINvNtNtCsc29TF2YcYso_3syn3gen4fold13fold_receiverNtNvCsiSITA57RZ13_15zerofrom_derive16replace_lifetime15ReplaceLifetimeE0BS_, symObjAddr: 0x2D2F0, symBinAddr: 0x416E4, symSize: 0x74 }
  - { offset: 0x579E6, size: 0x8, addend: 0x0, symName: __RNCINvNtNtCsc29TF2YcYso_3syn3gen4fold13fold_receiverNtNvCsiSITA57RZ13_15zerofrom_derive25replace_lifetime_and_type20ReplaceLifetimeAndTyE0BS_, symObjAddr: 0x2D364, symBinAddr: 0x41758, symSize: 0x74 }
  - { offset: 0x57A34, size: 0x8, addend: 0x0, symName: __RNCNCINvNtNtCsc29TF2YcYso_3syn3gen4fold13fold_receiverNtNvCsiSITA57RZ13_15zerofrom_derive16replace_lifetime15ReplaceLifetimeE00BU_, symObjAddr: 0x30A90, symBinAddr: 0x44E34, symSize: 0x34 }
  - { offset: 0x57A7D, size: 0x8, addend: 0x0, symName: __RNCNCINvNtNtCsc29TF2YcYso_3syn3gen4fold13fold_receiverNtNvCsiSITA57RZ13_15zerofrom_derive25replace_lifetime_and_type20ReplaceLifetimeAndTyE00BU_, symObjAddr: 0x30AC4, symBinAddr: 0x44E68, symSize: 0x34 }
  - { offset: 0x57ACD, size: 0x8, addend: 0x0, symName: __RNCINvNtNtCsc29TF2YcYso_3syn3gen4fold13fold_variadicNtNvCsiSITA57RZ13_15zerofrom_derive16replace_lifetime15ReplaceLifetimeE0BS_, symObjAddr: 0x2D3D8, symBinAddr: 0x417CC, symSize: 0x180 }
  - { offset: 0x57B36, size: 0x8, addend: 0x0, symName: __RNCINvNtNtCsc29TF2YcYso_3syn3gen4fold13fold_variadicNtNvCsiSITA57RZ13_15zerofrom_derive25replace_lifetime_and_type20ReplaceLifetimeAndTyE0BS_, symObjAddr: 0x2D558, symBinAddr: 0x4194C, symSize: 0x180 }
  - { offset: 0x57BA5, size: 0x8, addend: 0x0, symName: __RNCINvNtNtCsc29TF2YcYso_3syn3gen4fold14fold_expr_loopNtNvCsiSITA57RZ13_15zerofrom_derive16replace_lifetime15ReplaceLifetimeE0BT_, symObjAddr: 0x2D6D8, symBinAddr: 0x41ACC, symSize: 0x34 }
  - { offset: 0x57BEE, size: 0x8, addend: 0x0, symName: __RNCINvNtNtCsc29TF2YcYso_3syn3gen4fold14fold_expr_loopNtNvCsiSITA57RZ13_15zerofrom_derive25replace_lifetime_and_type20ReplaceLifetimeAndTyE0BT_, symObjAddr: 0x2D70C, symBinAddr: 0x41B00, symSize: 0x34 }
  - { offset: 0x57C3D, size: 0x8, addend: 0x0, symName: __RNCINvNtNtCsc29TF2YcYso_3syn3gen4fold14fold_expr_pathNtNvCsiSITA57RZ13_15zerofrom_derive16replace_lifetime15ReplaceLifetimeE0BT_, symObjAddr: 0x2D740, symBinAddr: 0x41B34, symSize: 0x34 }
  - { offset: 0x57C86, size: 0x8, addend: 0x0, symName: __RNCINvNtNtCsc29TF2YcYso_3syn3gen4fold14fold_expr_pathNtNvCsiSITA57RZ13_15zerofrom_derive25replace_lifetime_and_type20ReplaceLifetimeAndTyE0BT_, symObjAddr: 0x2D774, symBinAddr: 0x41B68, symSize: 0x34 }
  - { offset: 0x57CD5, size: 0x8, addend: 0x0, symName: __RNCINvNtNtCsc29TF2YcYso_3syn3gen4fold14fold_item_implNtNvCsiSITA57RZ13_15zerofrom_derive16replace_lifetime15ReplaceLifetimeE0BT_, symObjAddr: 0x2D7A8, symBinAddr: 0x41B9C, symSize: 0xA0 }
  - { offset: 0x57D1F, size: 0x8, addend: 0x0, symName: __RNCINvNtNtCsc29TF2YcYso_3syn3gen4fold14fold_item_implNtNvCsiSITA57RZ13_15zerofrom_derive25replace_lifetime_and_type20ReplaceLifetimeAndTyE0BT_, symObjAddr: 0x2D848, symBinAddr: 0x41C3C, symSize: 0xA0 }
  - { offset: 0x57D6F, size: 0x8, addend: 0x0, symName: __RNCINvNtNtCsc29TF2YcYso_3syn3gen4fold14fold_pat_identNtNvCsiSITA57RZ13_15zerofrom_derive16replace_lifetime15ReplaceLifetimeE0BT_, symObjAddr: 0x2D8E8, symBinAddr: 0x41CDC, symSize: 0x188 }
  - { offset: 0x57DD8, size: 0x8, addend: 0x0, symName: __RNCINvNtNtCsc29TF2YcYso_3syn3gen4fold14fold_pat_identNtNvCsiSITA57RZ13_15zerofrom_derive25replace_lifetime_and_type20ReplaceLifetimeAndTyE0BT_, symObjAddr: 0x2DA70, symBinAddr: 0x41E64, symSize: 0x188 }
  - { offset: 0x57E47, size: 0x8, addend: 0x0, symName: __RNCINvNtNtCsc29TF2YcYso_3syn3gen4fold14fold_signatureNtNvCsiSITA57RZ13_15zerofrom_derive16replace_lifetime15ReplaceLifetimeE0BT_, symObjAddr: 0x2DBF8, symBinAddr: 0x41FEC, symSize: 0x40 }
  - { offset: 0x57E8F, size: 0x8, addend: 0x0, symName: __RNCINvNtNtCsc29TF2YcYso_3syn3gen4fold14fold_signatureNtNvCsiSITA57RZ13_15zerofrom_derive16replace_lifetime15ReplaceLifetimeEs_0BT_, symObjAddr: 0x2DC38, symBinAddr: 0x4202C, symSize: 0x34 }
  - { offset: 0x57ED8, size: 0x8, addend: 0x0, symName: __RNCINvNtNtCsc29TF2YcYso_3syn3gen4fold14fold_signatureNtNvCsiSITA57RZ13_15zerofrom_derive25replace_lifetime_and_type20ReplaceLifetimeAndTyE0BT_, symObjAddr: 0x2DC6C, symBinAddr: 0x42060, symSize: 0x40 }
  - { offset: 0x57F20, size: 0x8, addend: 0x0, symName: __RNCINvNtNtCsc29TF2YcYso_3syn3gen4fold14fold_signatureNtNvCsiSITA57RZ13_15zerofrom_derive25replace_lifetime_and_type20ReplaceLifetimeAndTyEs_0BT_, symObjAddr: 0x2DCAC, symBinAddr: 0x420A0, symSize: 0x34 }
  - { offset: 0x57F6F, size: 0x8, addend: 0x0, symName: __RNCINvNtNtCsc29TF2YcYso_3syn3gen4fold14fold_type_pathNtNvCsiSITA57RZ13_15zerofrom_derive16replace_lifetime15ReplaceLifetimeE0BT_, symObjAddr: 0x2DCE0, symBinAddr: 0x420D4, symSize: 0x34 }
  - { offset: 0x57FB8, size: 0x8, addend: 0x0, symName: __RNCINvNtNtCsc29TF2YcYso_3syn3gen4fold14fold_type_pathNtNvCsiSITA57RZ13_15zerofrom_derive25replace_lifetime_and_type20ReplaceLifetimeAndTyE0BT_, symObjAddr: 0x2DD14, symBinAddr: 0x42108, symSize: 0x34 }
  - { offset: 0x58007, size: 0x8, addend: 0x0, symName: __RNCINvNtNtCsc29TF2YcYso_3syn3gen4fold15fold_assoc_typeNtNvCsiSITA57RZ13_15zerofrom_derive16replace_lifetime15ReplaceLifetimeE0BU_, symObjAddr: 0x2DD48, symBinAddr: 0x4213C, symSize: 0x34 }
  - { offset: 0x58050, size: 0x8, addend: 0x0, symName: __RNCINvNtNtCsc29TF2YcYso_3syn3gen4fold15fold_assoc_typeNtNvCsiSITA57RZ13_15zerofrom_derive25replace_lifetime_and_type20ReplaceLifetimeAndTyE0BU_, symObjAddr: 0x2DD7C, symBinAddr: 0x42170, symSize: 0x34 }
  - { offset: 0x5809F, size: 0x8, addend: 0x0, symName: __RNCINvNtNtCsc29TF2YcYso_3syn3gen4fold15fold_constraintNtNvCsiSITA57RZ13_15zerofrom_derive16replace_lifetime15ReplaceLifetimeE0BU_, symObjAddr: 0x2DDB0, symBinAddr: 0x421A4, symSize: 0x34 }
  - { offset: 0x580E8, size: 0x8, addend: 0x0, symName: __RNCINvNtNtCsc29TF2YcYso_3syn3gen4fold15fold_constraintNtNvCsiSITA57RZ13_15zerofrom_derive25replace_lifetime_and_type20ReplaceLifetimeAndTyE0BU_, symObjAddr: 0x2DDE4, symBinAddr: 0x421D8, symSize: 0x34 }
  - { offset: 0x58137, size: 0x8, addend: 0x0, symName: __RNCINvNtNtCsc29TF2YcYso_3syn3gen4fold15fold_expr_blockNtNvCsiSITA57RZ13_15zerofrom_derive16replace_lifetime15ReplaceLifetimeE0BU_, symObjAddr: 0x2DE18, symBinAddr: 0x4220C, symSize: 0x34 }
  - { offset: 0x58180, size: 0x8, addend: 0x0, symName: __RNCINvNtNtCsc29TF2YcYso_3syn3gen4fold15fold_expr_blockNtNvCsiSITA57RZ13_15zerofrom_derive25replace_lifetime_and_type20ReplaceLifetimeAndTyE0BU_, symObjAddr: 0x2DE4C, symBinAddr: 0x42240, symSize: 0x34 }
  - { offset: 0x581CF, size: 0x8, addend: 0x0, symName: __RNCINvNtNtCsc29TF2YcYso_3syn3gen4fold15fold_expr_breakNtNvCsiSITA57RZ13_15zerofrom_derive16replace_lifetime15ReplaceLifetimeE0BU_, symObjAddr: 0x2DE80, symBinAddr: 0x42274, symSize: 0x34 }
  - { offset: 0x58218, size: 0x8, addend: 0x0, symName: __RNCINvNtNtCsc29TF2YcYso_3syn3gen4fold15fold_expr_breakNtNvCsiSITA57RZ13_15zerofrom_derive16replace_lifetime15ReplaceLifetimeEs_0BU_, symObjAddr: 0x2DEB4, symBinAddr: 0x422A8, symSize: 0x164 }
  - { offset: 0x5827F, size: 0x8, addend: 0x0, symName: __RNCINvNtNtCsc29TF2YcYso_3syn3gen4fold15fold_expr_breakNtNvCsiSITA57RZ13_15zerofrom_derive25replace_lifetime_and_type20ReplaceLifetimeAndTyE0BU_, symObjAddr: 0x2E018, symBinAddr: 0x4240C, symSize: 0x34 }
  - { offset: 0x582C8, size: 0x8, addend: 0x0, symName: __RNCINvNtNtCsc29TF2YcYso_3syn3gen4fold15fold_expr_breakNtNvCsiSITA57RZ13_15zerofrom_derive25replace_lifetime_and_type20ReplaceLifetimeAndTyEs_0BU_, symObjAddr: 0x2E04C, symBinAddr: 0x42440, symSize: 0x164 }
  - { offset: 0x58335, size: 0x8, addend: 0x0, symName: __RNCINvNtNtCsc29TF2YcYso_3syn3gen4fold15fold_expr_rangeNtNvCsiSITA57RZ13_15zerofrom_derive16replace_lifetime15ReplaceLifetimeE0BU_, symObjAddr: 0x2E1B0, symBinAddr: 0x425A4, symSize: 0x164 }
  - { offset: 0x5839C, size: 0x8, addend: 0x0, symName: __RNCINvNtNtCsc29TF2YcYso_3syn3gen4fold15fold_expr_rangeNtNvCsiSITA57RZ13_15zerofrom_derive16replace_lifetime15ReplaceLifetimeEs_0BU_, symObjAddr: 0x2E314, symBinAddr: 0x42708, symSize: 0x164 }
  - { offset: 0x58403, size: 0x8, addend: 0x0, symName: __RNCINvNtNtCsc29TF2YcYso_3syn3gen4fold15fold_expr_rangeNtNvCsiSITA57RZ13_15zerofrom_derive25replace_lifetime_and_type20ReplaceLifetimeAndTyE0BU_, symObjAddr: 0x2E478, symBinAddr: 0x4286C, symSize: 0x164 }
  - { offset: 0x5846A, size: 0x8, addend: 0x0, symName: __RNCINvNtNtCsc29TF2YcYso_3syn3gen4fold15fold_expr_rangeNtNvCsiSITA57RZ13_15zerofrom_derive25replace_lifetime_and_type20ReplaceLifetimeAndTyEs_0BU_, symObjAddr: 0x2E5DC, symBinAddr: 0x429D0, symSize: 0x164 }
  - { offset: 0x584D7, size: 0x8, addend: 0x0, symName: __RNCINvNtNtCsc29TF2YcYso_3syn3gen4fold15fold_expr_whileNtNvCsiSITA57RZ13_15zerofrom_derive16replace_lifetime15ReplaceLifetimeE0BU_, symObjAddr: 0x2E740, symBinAddr: 0x42B34, symSize: 0x34 }
  - { offset: 0x58520, size: 0x8, addend: 0x0, symName: __RNCINvNtNtCsc29TF2YcYso_3syn3gen4fold15fold_expr_whileNtNvCsiSITA57RZ13_15zerofrom_derive25replace_lifetime_and_type20ReplaceLifetimeAndTyE0BU_, symObjAddr: 0x2E774, symBinAddr: 0x42B68, symSize: 0x34 }
  - { offset: 0x5856F, size: 0x8, addend: 0x0, symName: __RNCINvNtNtCsc29TF2YcYso_3syn3gen4fold15fold_expr_yieldNtNvCsiSITA57RZ13_15zerofrom_derive16replace_lifetime15ReplaceLifetimeE0BU_, symObjAddr: 0x2E7A8, symBinAddr: 0x42B9C, symSize: 0x164 }
  - { offset: 0x585D6, size: 0x8, addend: 0x0, symName: __RNCINvNtNtCsc29TF2YcYso_3syn3gen4fold15fold_expr_yieldNtNvCsiSITA57RZ13_15zerofrom_derive25replace_lifetime_and_type20ReplaceLifetimeAndTyE0BU_, symObjAddr: 0x2E90C, symBinAddr: 0x42D00, symSize: 0x164 }
  - { offset: 0x58643, size: 0x8, addend: 0x0, symName: __RNCINvNtNtCsc29TF2YcYso_3syn3gen4fold15fold_item_macroNtNvCsiSITA57RZ13_15zerofrom_derive16replace_lifetime15ReplaceLifetimeE0BU_, symObjAddr: 0x2EA70, symBinAddr: 0x42E64, symSize: 0x34 }
  - { offset: 0x5868C, size: 0x8, addend: 0x0, symName: __RNCINvNtNtCsc29TF2YcYso_3syn3gen4fold15fold_item_macroNtNvCsiSITA57RZ13_15zerofrom_derive25replace_lifetime_and_type20ReplaceLifetimeAndTyE0BU_, symObjAddr: 0x2EAA4, symBinAddr: 0x42E98, symSize: 0x34 }
  - { offset: 0x586DB, size: 0x8, addend: 0x0, symName: __RNCINvNtNtCsc29TF2YcYso_3syn3gen4fold15fold_local_initNtNvCsiSITA57RZ13_15zerofrom_derive16replace_lifetime15ReplaceLifetimeE0BU_, symObjAddr: 0x2EB28, symBinAddr: 0x42ECC, symSize: 0x17C }
  - { offset: 0x58743, size: 0x8, addend: 0x0, symName: __RNCINvNtNtCsc29TF2YcYso_3syn3gen4fold15fold_local_initNtNvCsiSITA57RZ13_15zerofrom_derive25replace_lifetime_and_type20ReplaceLifetimeAndTyE0BU_, symObjAddr: 0x2ECA4, symBinAddr: 0x43048, symSize: 0x17C }
  - { offset: 0x587B1, size: 0x8, addend: 0x0, symName: __RNCINvNtNtCsc29TF2YcYso_3syn3gen4fold15fold_pat_structNtNvCsiSITA57RZ13_15zerofrom_derive16replace_lifetime15ReplaceLifetimeE0BU_, symObjAddr: 0x2EE20, symBinAddr: 0x431C4, symSize: 0x34 }
  - { offset: 0x587FA, size: 0x8, addend: 0x0, symName: __RNCINvNtNtCsc29TF2YcYso_3syn3gen4fold15fold_pat_structNtNvCsiSITA57RZ13_15zerofrom_derive16replace_lifetime15ReplaceLifetimeEs_0BU_, symObjAddr: 0x2EE54, symBinAddr: 0x431F8, symSize: 0x34 }
  - { offset: 0x58843, size: 0x8, addend: 0x0, symName: __RNCINvNtNtCsc29TF2YcYso_3syn3gen4fold15fold_pat_structNtNvCsiSITA57RZ13_15zerofrom_derive25replace_lifetime_and_type20ReplaceLifetimeAndTyE0BU_, symObjAddr: 0x2EE88, symBinAddr: 0x4322C, symSize: 0x34 }
  - { offset: 0x5888C, size: 0x8, addend: 0x0, symName: __RNCINvNtNtCsc29TF2YcYso_3syn3gen4fold15fold_pat_structNtNvCsiSITA57RZ13_15zerofrom_derive25replace_lifetime_and_type20ReplaceLifetimeAndTyEs_0BU_, symObjAddr: 0x2EEBC, symBinAddr: 0x43260, symSize: 0x34 }
  - { offset: 0x588DB, size: 0x8, addend: 0x0, symName: __RNCINvNtNtCsc29TF2YcYso_3syn3gen4fold15fold_type_paramNtNvCsiSITA57RZ13_15zerofrom_derive16replace_lifetime15ReplaceLifetimeE0BU_, symObjAddr: 0x2EEF0, symBinAddr: 0x43294, symSize: 0x34 }
  - { offset: 0x58924, size: 0x8, addend: 0x0, symName: __RNCINvNtNtCsc29TF2YcYso_3syn3gen4fold15fold_type_paramNtNvCsiSITA57RZ13_15zerofrom_derive25replace_lifetime_and_type20ReplaceLifetimeAndTyE0BU_, symObjAddr: 0x2EF24, symBinAddr: 0x432C8, symSize: 0x34 }
  - { offset: 0x58973, size: 0x8, addend: 0x0, symName: __RNCINvNtNtCsc29TF2YcYso_3syn3gen4fold16fold_assoc_constNtNvCsiSITA57RZ13_15zerofrom_derive16replace_lifetime15ReplaceLifetimeE0BV_, symObjAddr: 0x2EF58, symBinAddr: 0x432FC, symSize: 0x34 }
  - { offset: 0x589BC, size: 0x8, addend: 0x0, symName: __RNCINvNtNtCsc29TF2YcYso_3syn3gen4fold16fold_assoc_constNtNvCsiSITA57RZ13_15zerofrom_derive25replace_lifetime_and_type20ReplaceLifetimeAndTyE0BV_, symObjAddr: 0x2EF8C, symBinAddr: 0x43330, symSize: 0x34 }
  - { offset: 0x58A0B, size: 0x8, addend: 0x0, symName: __RNCINvNtNtCsc29TF2YcYso_3syn3gen4fold16fold_bare_fn_argNtNvCsiSITA57RZ13_15zerofrom_derive16replace_lifetime15ReplaceLifetimeE0BV_, symObjAddr: 0x2EFC0, symBinAddr: 0x43364, symSize: 0x80 }
  - { offset: 0x58A54, size: 0x8, addend: 0x0, symName: __RNCINvNtNtCsc29TF2YcYso_3syn3gen4fold16fold_bare_fn_argNtNvCsiSITA57RZ13_15zerofrom_derive25replace_lifetime_and_type20ReplaceLifetimeAndTyE0BV_, symObjAddr: 0x2F040, symBinAddr: 0x433E4, symSize: 0x80 }
  - { offset: 0x58AA3, size: 0x8, addend: 0x0, symName: __RNCINvNtNtCsc29TF2YcYso_3syn3gen4fold16fold_const_paramNtNvCsiSITA57RZ13_15zerofrom_derive16replace_lifetime15ReplaceLifetimeE0BV_, symObjAddr: 0x2F0C0, symBinAddr: 0x43464, symSize: 0x34 }
  - { offset: 0x58AEC, size: 0x8, addend: 0x0, symName: __RNCINvNtNtCsc29TF2YcYso_3syn3gen4fold16fold_const_paramNtNvCsiSITA57RZ13_15zerofrom_derive25replace_lifetime_and_type20ReplaceLifetimeAndTyE0BV_, symObjAddr: 0x2F0F4, symBinAddr: 0x43498, symSize: 0x34 }
  - { offset: 0x58B3B, size: 0x8, addend: 0x0, symName: __RNCINvNtNtCsc29TF2YcYso_3syn3gen4fold16fold_expr_returnNtNvCsiSITA57RZ13_15zerofrom_derive16replace_lifetime15ReplaceLifetimeE0BV_, symObjAddr: 0x2F128, symBinAddr: 0x434CC, symSize: 0x164 }
  - { offset: 0x58BA2, size: 0x8, addend: 0x0, symName: __RNCINvNtNtCsc29TF2YcYso_3syn3gen4fold16fold_expr_returnNtNvCsiSITA57RZ13_15zerofrom_derive25replace_lifetime_and_type20ReplaceLifetimeAndTyE0BV_, symObjAddr: 0x2F28C, symBinAddr: 0x43630, symSize: 0x164 }
  - { offset: 0x58C0F, size: 0x8, addend: 0x0, symName: __RNCINvNtNtCsc29TF2YcYso_3syn3gen4fold16fold_expr_structNtNvCsiSITA57RZ13_15zerofrom_derive16replace_lifetime15ReplaceLifetimeE0BV_, symObjAddr: 0x2F3F0, symBinAddr: 0x43794, symSize: 0x34 }
  - { offset: 0x58C58, size: 0x8, addend: 0x0, symName: __RNCINvNtNtCsc29TF2YcYso_3syn3gen4fold16fold_expr_structNtNvCsiSITA57RZ13_15zerofrom_derive16replace_lifetime15ReplaceLifetimeEs_0BV_, symObjAddr: 0x2F424, symBinAddr: 0x437C8, symSize: 0x164 }
  - { offset: 0x58CBF, size: 0x8, addend: 0x0, symName: __RNCINvNtNtCsc29TF2YcYso_3syn3gen4fold16fold_expr_structNtNvCsiSITA57RZ13_15zerofrom_derive25replace_lifetime_and_type20ReplaceLifetimeAndTyE0BV_, symObjAddr: 0x2F588, symBinAddr: 0x4392C, symSize: 0x34 }
  - { offset: 0x58D08, size: 0x8, addend: 0x0, symName: __RNCINvNtNtCsc29TF2YcYso_3syn3gen4fold16fold_expr_structNtNvCsiSITA57RZ13_15zerofrom_derive25replace_lifetime_and_type20ReplaceLifetimeAndTyEs_0BV_, symObjAddr: 0x2F5BC, symBinAddr: 0x43960, symSize: 0x164 }
  - { offset: 0x58D75, size: 0x8, addend: 0x0, symName: __RNCINvNtNtCsc29TF2YcYso_3syn3gen4fold16fold_trait_boundNtNvCsiSITA57RZ13_15zerofrom_derive16replace_lifetime15ReplaceLifetimeE0BV_, symObjAddr: 0x2F720, symBinAddr: 0x43AC4, symSize: 0x34 }
  - { offset: 0x58DBE, size: 0x8, addend: 0x0, symName: __RNCINvNtNtCsc29TF2YcYso_3syn3gen4fold16fold_trait_boundNtNvCsiSITA57RZ13_15zerofrom_derive25replace_lifetime_and_type20ReplaceLifetimeAndTyE0BV_, symObjAddr: 0x2F754, symBinAddr: 0x43AF8, symSize: 0x34 }
  - { offset: 0x58E0D, size: 0x8, addend: 0x0, symName: __RNCINvNtNtCsc29TF2YcYso_3syn3gen4fold17fold_expr_closureNtNvCsiSITA57RZ13_15zerofrom_derive16replace_lifetime15ReplaceLifetimeE0BW_, symObjAddr: 0x2F788, symBinAddr: 0x43B2C, symSize: 0x34 }
  - { offset: 0x58E56, size: 0x8, addend: 0x0, symName: __RNCINvNtNtCsc29TF2YcYso_3syn3gen4fold17fold_expr_closureNtNvCsiSITA57RZ13_15zerofrom_derive25replace_lifetime_and_type20ReplaceLifetimeAndTyE0BW_, symObjAddr: 0x2F7BC, symBinAddr: 0x43B60, symSize: 0x34 }
  - { offset: 0x58EA5, size: 0x8, addend: 0x0, symName: __RNCINvNtNtCsc29TF2YcYso_3syn3gen4fold17fold_type_bare_fnNtNvCsiSITA57RZ13_15zerofrom_derive16replace_lifetime15ReplaceLifetimeE0BW_, symObjAddr: 0x2F7F0, symBinAddr: 0x43B94, symSize: 0x34 }
  - { offset: 0x58EEE, size: 0x8, addend: 0x0, symName: __RNCINvNtNtCsc29TF2YcYso_3syn3gen4fold17fold_type_bare_fnNtNvCsiSITA57RZ13_15zerofrom_derive16replace_lifetime15ReplaceLifetimeEs0_0BW_, symObjAddr: 0x2F824, symBinAddr: 0x43BC8, symSize: 0x34 }
  - { offset: 0x58F37, size: 0x8, addend: 0x0, symName: __RNCINvNtNtCsc29TF2YcYso_3syn3gen4fold17fold_type_bare_fnNtNvCsiSITA57RZ13_15zerofrom_derive16replace_lifetime15ReplaceLifetimeEs_0BW_, symObjAddr: 0x2F858, symBinAddr: 0x43BFC, symSize: 0x40 }
  - { offset: 0x58F7F, size: 0x8, addend: 0x0, symName: __RNCINvNtNtCsc29TF2YcYso_3syn3gen4fold17fold_type_bare_fnNtNvCsiSITA57RZ13_15zerofrom_derive25replace_lifetime_and_type20ReplaceLifetimeAndTyE0BW_, symObjAddr: 0x2F898, symBinAddr: 0x43C3C, symSize: 0x34 }
  - { offset: 0x58FC8, size: 0x8, addend: 0x0, symName: __RNCINvNtNtCsc29TF2YcYso_3syn3gen4fold17fold_type_bare_fnNtNvCsiSITA57RZ13_15zerofrom_derive25replace_lifetime_and_type20ReplaceLifetimeAndTyEs0_0BW_, symObjAddr: 0x2F8CC, symBinAddr: 0x43C70, symSize: 0x34 }
  - { offset: 0x59011, size: 0x8, addend: 0x0, symName: __RNCINvNtNtCsc29TF2YcYso_3syn3gen4fold17fold_type_bare_fnNtNvCsiSITA57RZ13_15zerofrom_derive25replace_lifetime_and_type20ReplaceLifetimeAndTyEs_0BW_, symObjAddr: 0x2F900, symBinAddr: 0x43CA4, symSize: 0x40 }
  - { offset: 0x5905F, size: 0x8, addend: 0x0, symName: __RNCINvNtNtCsc29TF2YcYso_3syn3gen4fold18fold_bare_variadicNtNvCsiSITA57RZ13_15zerofrom_derive16replace_lifetime15ReplaceLifetimeE0BX_, symObjAddr: 0x2F940, symBinAddr: 0x43CE4, symSize: 0x80 }
  - { offset: 0x590A8, size: 0x8, addend: 0x0, symName: __RNCINvNtNtCsc29TF2YcYso_3syn3gen4fold18fold_bare_variadicNtNvCsiSITA57RZ13_15zerofrom_derive25replace_lifetime_and_type20ReplaceLifetimeAndTyE0BX_, symObjAddr: 0x2F9C0, symBinAddr: 0x43D64, symSize: 0x80 }
  - { offset: 0x590F7, size: 0x8, addend: 0x0, symName: __RNCINvNtNtCsc29TF2YcYso_3syn3gen4fold18fold_expr_continueNtNvCsiSITA57RZ13_15zerofrom_derive16replace_lifetime15ReplaceLifetimeE0BX_, symObjAddr: 0x2FA40, symBinAddr: 0x43DE4, symSize: 0x34 }
  - { offset: 0x59140, size: 0x8, addend: 0x0, symName: __RNCINvNtNtCsc29TF2YcYso_3syn3gen4fold18fold_expr_continueNtNvCsiSITA57RZ13_15zerofrom_derive25replace_lifetime_and_type20ReplaceLifetimeAndTyE0BX_, symObjAddr: 0x2FA74, symBinAddr: 0x43E18, symSize: 0x34 }
  - { offset: 0x5918F, size: 0x8, addend: 0x0, symName: __RNCINvNtNtCsc29TF2YcYso_3syn3gen4fold18fold_expr_for_loopNtNvCsiSITA57RZ13_15zerofrom_derive16replace_lifetime15ReplaceLifetimeE0BX_, symObjAddr: 0x2FAA8, symBinAddr: 0x43E4C, symSize: 0x34 }
  - { offset: 0x591D8, size: 0x8, addend: 0x0, symName: __RNCINvNtNtCsc29TF2YcYso_3syn3gen4fold18fold_expr_for_loopNtNvCsiSITA57RZ13_15zerofrom_derive25replace_lifetime_and_type20ReplaceLifetimeAndTyE0BX_, symObjAddr: 0x2FADC, symBinAddr: 0x43E80, symSize: 0x34 }
  - { offset: 0x59227, size: 0x8, addend: 0x0, symName: __RNCINvNtNtCsc29TF2YcYso_3syn3gen4fold18fold_trait_item_fnNtNvCsiSITA57RZ13_15zerofrom_derive16replace_lifetime15ReplaceLifetimeE0BX_, symObjAddr: 0x2FB10, symBinAddr: 0x43EB4, symSize: 0x34 }
  - { offset: 0x59270, size: 0x8, addend: 0x0, symName: __RNCINvNtNtCsc29TF2YcYso_3syn3gen4fold18fold_trait_item_fnNtNvCsiSITA57RZ13_15zerofrom_derive25replace_lifetime_and_type20ReplaceLifetimeAndTyE0BX_, symObjAddr: 0x2FB44, symBinAddr: 0x43EE8, symSize: 0x34 }
  - { offset: 0x592BF, size: 0x8, addend: 0x0, symName: __RNCINvNtNtCsc29TF2YcYso_3syn3gen4fold19fold_predicate_typeNtNvCsiSITA57RZ13_15zerofrom_derive16replace_lifetime15ReplaceLifetimeE0BY_, symObjAddr: 0x2FB78, symBinAddr: 0x43F1C, symSize: 0x34 }
  - { offset: 0x59308, size: 0x8, addend: 0x0, symName: __RNCINvNtNtCsc29TF2YcYso_3syn3gen4fold19fold_predicate_typeNtNvCsiSITA57RZ13_15zerofrom_derive25replace_lifetime_and_type20ReplaceLifetimeAndTyE0BY_, symObjAddr: 0x2FBAC, symBinAddr: 0x43F50, symSize: 0x34 }
  - { offset: 0x59357, size: 0x8, addend: 0x0, symName: __RNCINvNtNtCsc29TF2YcYso_3syn3gen4fold19fold_type_referenceNtNvCsiSITA57RZ13_15zerofrom_derive16replace_lifetime15ReplaceLifetimeE0BY_, symObjAddr: 0x2FBE0, symBinAddr: 0x43F84, symSize: 0x34 }
  - { offset: 0x593A0, size: 0x8, addend: 0x0, symName: __RNCINvNtNtCsc29TF2YcYso_3syn3gen4fold19fold_type_referenceNtNvCsiSITA57RZ13_15zerofrom_derive25replace_lifetime_and_type20ReplaceLifetimeAndTyE0BY_, symObjAddr: 0x2FC14, symBinAddr: 0x43FB8, symSize: 0x34 }
  - { offset: 0x593EF, size: 0x8, addend: 0x0, symName: __RNCINvNtNtCsc29TF2YcYso_3syn3gen4fold20fold_trait_item_typeNtNvCsiSITA57RZ13_15zerofrom_derive16replace_lifetime15ReplaceLifetimeE0BZ_, symObjAddr: 0x2FC48, symBinAddr: 0x43FEC, symSize: 0x94 }
  - { offset: 0x59438, size: 0x8, addend: 0x0, symName: __RNCINvNtNtCsc29TF2YcYso_3syn3gen4fold20fold_trait_item_typeNtNvCsiSITA57RZ13_15zerofrom_derive25replace_lifetime_and_type20ReplaceLifetimeAndTyE0BZ_, symObjAddr: 0x2FCDC, symBinAddr: 0x44080, symSize: 0x94 }
  - { offset: 0x59487, size: 0x8, addend: 0x0, symName: __RNCINvNtNtCsc29TF2YcYso_3syn3gen4fold21fold_expr_method_callNtNvCsiSITA57RZ13_15zerofrom_derive16replace_lifetime15ReplaceLifetimeE0B10_, symObjAddr: 0x2FD70, symBinAddr: 0x44114, symSize: 0x34 }
  - { offset: 0x594D0, size: 0x8, addend: 0x0, symName: __RNCINvNtNtCsc29TF2YcYso_3syn3gen4fold21fold_expr_method_callNtNvCsiSITA57RZ13_15zerofrom_derive25replace_lifetime_and_type20ReplaceLifetimeAndTyE0B10_, symObjAddr: 0x2FDA4, symBinAddr: 0x44148, symSize: 0x34 }
  - { offset: 0x5951F, size: 0x8, addend: 0x0, symName: __RNCINvNtNtCsc29TF2YcYso_3syn3gen4fold21fold_pat_tuple_structNtNvCsiSITA57RZ13_15zerofrom_derive16replace_lifetime15ReplaceLifetimeE0B10_, symObjAddr: 0x2FDD8, symBinAddr: 0x4417C, symSize: 0x34 }
  - { offset: 0x59568, size: 0x8, addend: 0x0, symName: __RNCINvNtNtCsc29TF2YcYso_3syn3gen4fold21fold_pat_tuple_structNtNvCsiSITA57RZ13_15zerofrom_derive25replace_lifetime_and_type20ReplaceLifetimeAndTyE0B10_, symObjAddr: 0x2FE0C, symBinAddr: 0x441B0, symSize: 0x34 }
  - { offset: 0x595B7, size: 0x8, addend: 0x0, symName: __RNCINvNtNtCsc29TF2YcYso_3syn3gen4fold21fold_trait_item_constNtNvCsiSITA57RZ13_15zerofrom_derive16replace_lifetime15ReplaceLifetimeE0B10_, symObjAddr: 0x2FE40, symBinAddr: 0x441E4, symSize: 0x94 }
  - { offset: 0x59600, size: 0x8, addend: 0x0, symName: __RNCINvNtNtCsc29TF2YcYso_3syn3gen4fold21fold_trait_item_constNtNvCsiSITA57RZ13_15zerofrom_derive25replace_lifetime_and_type20ReplaceLifetimeAndTyE0B10_, symObjAddr: 0x2FED4, symBinAddr: 0x44278, symSize: 0x94 }
  - { offset: 0x5964F, size: 0x8, addend: 0x0, symName: __RNCINvNtNtCsc29TF2YcYso_3syn3gen4fold22fold_item_extern_crateNtNvCsiSITA57RZ13_15zerofrom_derive16replace_lifetime15ReplaceLifetimeE0B11_, symObjAddr: 0x2FF68, symBinAddr: 0x4430C, symSize: 0x78 }
  - { offset: 0x59698, size: 0x8, addend: 0x0, symName: __RNCINvNtNtCsc29TF2YcYso_3syn3gen4fold22fold_item_extern_crateNtNvCsiSITA57RZ13_15zerofrom_derive25replace_lifetime_and_type20ReplaceLifetimeAndTyE0B11_, symObjAddr: 0x2FFE0, symBinAddr: 0x44384, symSize: 0x78 }
  - { offset: 0x596E7, size: 0x8, addend: 0x0, symName: __RNCINvNtNtCsc29TF2YcYso_3syn3gen4fold8fold_abiNtNvCsiSITA57RZ13_15zerofrom_derive16replace_lifetime15ReplaceLifetimeE0BM_, symObjAddr: 0x30058, symBinAddr: 0x443FC, symSize: 0x3C }
  - { offset: 0x5972F, size: 0x8, addend: 0x0, symName: __RNCINvNtNtCsc29TF2YcYso_3syn3gen4fold8fold_abiNtNvCsiSITA57RZ13_15zerofrom_derive25replace_lifetime_and_type20ReplaceLifetimeAndTyE0BM_, symObjAddr: 0x30094, symBinAddr: 0x44438, symSize: 0x3C }
  - { offset: 0x5977D, size: 0x8, addend: 0x0, symName: __RNCINvNtNtCsc29TF2YcYso_3syn3gen4fold8fold_armNtNvCsiSITA57RZ13_15zerofrom_derive16replace_lifetime15ReplaceLifetimeE0BM_, symObjAddr: 0x300D0, symBinAddr: 0x44474, symSize: 0x17C }
  - { offset: 0x597E5, size: 0x8, addend: 0x0, symName: __RNCINvNtNtCsc29TF2YcYso_3syn3gen4fold8fold_armNtNvCsiSITA57RZ13_15zerofrom_derive25replace_lifetime_and_type20ReplaceLifetimeAndTyE0BM_, symObjAddr: 0x3024C, symBinAddr: 0x445F0, symSize: 0x17C }
  - { offset: 0x59853, size: 0x8, addend: 0x0, symName: __RNCINvNtNtCsc29TF2YcYso_3syn3gen4fold8fold_vecNtNtB8_4attr9AttributeNtNvCsiSITA57RZ13_15zerofrom_derive16replace_lifetime15ReplaceLifetimeNvYB14_NtB4_4Fold14fold_attributeE0B18_, symObjAddr: 0x303C8, symBinAddr: 0x4476C, symSize: 0x7C }
  - { offset: 0x598C3, size: 0x8, addend: 0x0, symName: __RNCINvNtNtCsc29TF2YcYso_3syn3gen4fold8fold_vecNtNtB8_4attr9AttributeNtNvCsiSITA57RZ13_15zerofrom_derive25replace_lifetime_and_type20ReplaceLifetimeAndTyNvYB14_NtB4_4Fold14fold_attributeE0B18_, symObjAddr: 0x30444, symBinAddr: 0x447E8, symSize: 0x7C }
  - { offset: 0x59933, size: 0x8, addend: 0x0, symName: __RNCINvNtNtCsc29TF2YcYso_3syn3gen4fold8fold_vecNtNtB8_4expr3ArmNtNvCsiSITA57RZ13_15zerofrom_derive16replace_lifetime15ReplaceLifetimeNvYBY_NtB4_4Fold8fold_armE0B12_, symObjAddr: 0x304C0, symBinAddr: 0x44864, symSize: 0x7C }
  - { offset: 0x599A3, size: 0x8, addend: 0x0, symName: __RNCINvNtNtCsc29TF2YcYso_3syn3gen4fold8fold_vecNtNtB8_4expr3ArmNtNvCsiSITA57RZ13_15zerofrom_derive25replace_lifetime_and_type20ReplaceLifetimeAndTyNvYBY_NtB4_4Fold8fold_armE0B12_, symObjAddr: 0x3053C, symBinAddr: 0x448E0, symSize: 0x7C }
  - { offset: 0x59A13, size: 0x8, addend: 0x0, symName: __RNCINvNtNtCsc29TF2YcYso_3syn3gen4fold8fold_vecNtNtB8_4item11ForeignItemNtNvCsiSITA57RZ13_15zerofrom_derive16replace_lifetime15ReplaceLifetimeNvYB17_NtB4_4Fold17fold_foreign_itemE0B1b_, symObjAddr: 0x305B8, symBinAddr: 0x4495C, symSize: 0x7C }
  - { offset: 0x59A83, size: 0x8, addend: 0x0, symName: __RNCINvNtNtCsc29TF2YcYso_3syn3gen4fold8fold_vecNtNtB8_4item11ForeignItemNtNvCsiSITA57RZ13_15zerofrom_derive25replace_lifetime_and_type20ReplaceLifetimeAndTyNvYB17_NtB4_4Fold17fold_foreign_itemE0B1b_, symObjAddr: 0x30634, symBinAddr: 0x449D8, symSize: 0x7C }
  - { offset: 0x59AF3, size: 0x8, addend: 0x0, symName: __RNCINvNtNtCsc29TF2YcYso_3syn3gen4fold8fold_vecNtNtB8_4item4ItemNtNvCsiSITA57RZ13_15zerofrom_derive16replace_lifetime15ReplaceLifetimeNvYBZ_NtB4_4Fold9fold_itemE0B13_, symObjAddr: 0x306B0, symBinAddr: 0x44A54, symSize: 0x7C }
  - { offset: 0x59B63, size: 0x8, addend: 0x0, symName: __RNCINvNtNtCsc29TF2YcYso_3syn3gen4fold8fold_vecNtNtB8_4item4ItemNtNvCsiSITA57RZ13_15zerofrom_derive25replace_lifetime_and_type20ReplaceLifetimeAndTyNvYBZ_NtB4_4Fold9fold_itemE0B13_, symObjAddr: 0x3072C, symBinAddr: 0x44AD0, symSize: 0x7C }
  - { offset: 0x59BD3, size: 0x8, addend: 0x0, symName: __RNCINvNtNtCsc29TF2YcYso_3syn3gen4fold8fold_vecNtNtB8_4item8ImplItemNtNvCsiSITA57RZ13_15zerofrom_derive16replace_lifetime15ReplaceLifetimeNvYB13_NtB4_4Fold14fold_impl_itemE0B17_, symObjAddr: 0x307A8, symBinAddr: 0x44B4C, symSize: 0x7C }
  - { offset: 0x59C43, size: 0x8, addend: 0x0, symName: __RNCINvNtNtCsc29TF2YcYso_3syn3gen4fold8fold_vecNtNtB8_4item8ImplItemNtNvCsiSITA57RZ13_15zerofrom_derive25replace_lifetime_and_type20ReplaceLifetimeAndTyNvYB13_NtB4_4Fold14fold_impl_itemE0B17_, symObjAddr: 0x30824, symBinAddr: 0x44BC8, symSize: 0x7C }
  - { offset: 0x59CB3, size: 0x8, addend: 0x0, symName: __RNCINvNtNtCsc29TF2YcYso_3syn3gen4fold8fold_vecNtNtB8_4item9TraitItemNtNvCsiSITA57RZ13_15zerofrom_derive16replace_lifetime15ReplaceLifetimeNvYB14_NtB4_4Fold15fold_trait_itemE0B18_, symObjAddr: 0x308A0, symBinAddr: 0x44C44, symSize: 0x7C }
  - { offset: 0x59D23, size: 0x8, addend: 0x0, symName: __RNCINvNtNtCsc29TF2YcYso_3syn3gen4fold8fold_vecNtNtB8_4item9TraitItemNtNvCsiSITA57RZ13_15zerofrom_derive25replace_lifetime_and_type20ReplaceLifetimeAndTyNvYB14_NtB4_4Fold15fold_trait_itemE0B18_, symObjAddr: 0x3091C, symBinAddr: 0x44CC0, symSize: 0x7C }
  - { offset: 0x59D93, size: 0x8, addend: 0x0, symName: __RNCINvNtNtCsc29TF2YcYso_3syn3gen4fold8fold_vecNtNtB8_4stmt4StmtNtNvCsiSITA57RZ13_15zerofrom_derive16replace_lifetime15ReplaceLifetimeNvYBZ_NtB4_4Fold9fold_stmtE0B13_, symObjAddr: 0x30998, symBinAddr: 0x44D3C, symSize: 0x7C }
  - { offset: 0x59E03, size: 0x8, addend: 0x0, symName: __RNCINvNtNtCsc29TF2YcYso_3syn3gen4fold8fold_vecNtNtB8_4stmt4StmtNtNvCsiSITA57RZ13_15zerofrom_derive25replace_lifetime_and_type20ReplaceLifetimeAndTyNvYBZ_NtB4_4Fold9fold_stmtE0B13_, symObjAddr: 0x30A14, symBinAddr: 0x44DB8, symSize: 0x7C }
  - { offset: 0x61F49, size: 0x8, addend: 0x0, symName: __RINvXs0_NtNtNtCsaNl6UpbT7bw_4core4iter8adapters3mapINtB6_3MapINtNtCsc29TF2YcYso_3syn10punctuated8IntoIterNtCshnvkK9b4wzu_11proc_macro25IdentENCINvXs8_NtCsg4dki62PTrg_9hashbrown3setINtB2o_7HashSetB1F_NtNtNtCsht3nMU9UgFu_3std4hash6random11RandomStateEINtNtNtBa_6traits7collect6ExtendB1F_E6extendINtB10_10PunctuatedB1F_NtNtB12_5token5CommaEE0ENtNtB44_8iterator8Iterator4folduNCINvNvB5s_8for_each4callTB1F_uENCINvXs1i_NtB2q_3mapINtB6E_7HashMapB1F_uB3b_EIB40_B6n_E6extendBN_E0E0ECsiSITA57RZ13_15zerofrom_derive, symObjAddr: 0x0, symBinAddr: 0x44E9C, symSize: 0x3C }
  - { offset: 0x629A3, size: 0x8, addend: 0x0, symName: __RINvXs0_NtNtNtCsaNl6UpbT7bw_4core4iter8adapters3mapINtB6_3MapINtNtCsc29TF2YcYso_3syn10punctuated8IntoIterNtCshnvkK9b4wzu_11proc_macro25IdentENCINvXs8_NtCsg4dki62PTrg_9hashbrown3setINtB2o_7HashSetB1F_NtNtNtCsht3nMU9UgFu_3std4hash6random11RandomStateEINtNtNtBa_6traits7collect6ExtendB1F_E6extendINtB10_10PunctuatedB1F_NtNtB12_5token5CommaEE0ENtNtB44_8iterator8Iterator4folduNCINvNvB5s_8for_each4callTB1F_uENCINvXs1i_NtB2q_3mapINtB6E_7HashMapB1F_uB3b_EIB40_B6n_E6extendBN_E0E0ECsiSITA57RZ13_15zerofrom_derive, symObjAddr: 0x0, symBinAddr: 0x44E9C, symSize: 0x3C }
  - { offset: 0x62A15, size: 0x8, addend: 0x0, symName: __RINvXs0_NtNtNtCsaNl6UpbT7bw_4core4iter8adapters3mapINtB6_3MapINtNtNtBc_5slice4iter4IterNtCs3Xr6wkqZdQw_12synstructure11VariantInfoENCNvCsiSITA57RZ13_15zerofrom_derive14zf_derive_impls2_0ENtNtNtBa_6traits8iterator8Iterator8try_folduNCINvNvMsg_NtB8_7flattenINtB3S_13FlattenCompatppE13iter_try_fold7flattenIBY_NtB1p_11BindingInfoEuINtNtNtBc_3ops12control_flow11ControlFlowuENCINvNvXsi_B3S_B45_B2Z_8try_fold7flattenB4R_uB5g_NCINvNvB2Z_3any5checkRB4V_NCB27_s3_0E0E0E0B5g_EB29_, symObjAddr: 0x3C, symBinAddr: 0x44ED8, symSize: 0x54 }
  - { offset: 0x62AB8, size: 0x8, addend: 0x0, symName: __RINvXs0_NtNtNtCsaNl6UpbT7bw_4core4iter8adapters3mapINtB6_3MapINtNtNtBc_5slice4iter4IterNtCshnvkK9b4wzu_11proc_macro25IdentENCNvCsiSITA57RZ13_15zerofrom_derive14zf_derive_impls4_0ENtNtNtBa_6traits8iterator8Iterator4folduNCINvNvB2R_8for_each4callNtNtCsc29TF2YcYso_3syn8generics14WherePredicateNCINvMsi_NtCsiTraAjBDcu4_5alloc3vecINtB4O_3VecB3U_E14extend_trustedBN_E0E0EB21_, symObjAddr: 0x90, symBinAddr: 0x44F2C, symSize: 0x4C }
  - { offset: 0x62B51, size: 0x8, addend: 0x0, symName: __RINvXs0_NtNtNtCsaNl6UpbT7bw_4core4iter8adapters3mapINtB6_3MapINtNtNtBc_5slice4iter4IterNtNtCsc29TF2YcYso_3syn8generics9TypeParamENCNvCsiSITA57RZ13_15zerofrom_derive14zf_derive_impls_0ENtNtNtBa_6traits8iterator8Iterator4folduNCINvNvB2W_8for_each4callNtCshnvkK9b4wzu_11proc_macro25IdentNCINvMsi_NtCsiTraAjBDcu4_5alloc3vecINtB4H_3VecB3Z_E14extend_trustedBN_E0E0EB27_, symObjAddr: 0xDC, symBinAddr: 0x44F78, symSize: 0x44 }
  - { offset: 0x62BE9, size: 0x8, addend: 0x0, symName: __RINvXs0_NtNtNtCsaNl6UpbT7bw_4core4iter8adapters3mapINtB6_3MapINtNtNtBc_5slice4iter7IterMutNtNtCsc29TF2YcYso_3syn8generics9TypeParamENCNvCsiSITA57RZ13_15zerofrom_derive14zf_derive_impls0_0ENtNtNtBa_6traits8iterator8Iterator4folduNCINvNvB30_8for_each4callTNtCshnvkK9b4wzu_11proc_macro25IdentINtNtBc_6option6OptionB44_EENCINvXs1i_NtCsg4dki62PTrg_9hashbrown3mapINtB5f_7HashMapB44_B4D_NtNtNtCsht3nMU9UgFu_3std4hash6random11RandomStateEINtNtB34_7collect6ExtendB43_E6extendBN_E0E0EB2a_, symObjAddr: 0x120, symBinAddr: 0x44FBC, symSize: 0x3C }
  - { offset: 0x62C5B, size: 0x8, addend: 0x0, symName: __RINvXs0_NtNtNtCsaNl6UpbT7bw_4core4iter8adapters3mapINtB6_3MapINtNtNtCsiTraAjBDcu4_5alloc3vec9into_iter8IntoIterNtNtCsc29TF2YcYso_3syn4attr9AttributeENCINvNtNtB1P_3gen4fold8fold_vecB1L_NtNvCsiSITA57RZ13_15zerofrom_derive16replace_lifetime15ReplaceLifetimeNvYB2W_NtB2s_4Fold14fold_attributeE0ENtNtNtBa_6traits8iterator8Iterator8try_foldINtNtB12_13in_place_drop11InPlaceDropB1L_ENCINvNtB12_16in_place_collect24write_in_place_with_dropB1L_E0INtNtBc_6result6ResultB5m_zEEB30_, symObjAddr: 0x15C, symBinAddr: 0x44FF8, symSize: 0x4C }
  - { offset: 0x62CD9, size: 0x8, addend: 0x0, symName: __RINvXs0_NtNtNtCsaNl6UpbT7bw_4core4iter8adapters3mapINtB6_3MapINtNtNtCsiTraAjBDcu4_5alloc3vec9into_iter8IntoIterNtNtCsc29TF2YcYso_3syn4attr9AttributeENCINvNtNtB1P_3gen4fold8fold_vecB1L_NtNvCsiSITA57RZ13_15zerofrom_derive25replace_lifetime_and_type20ReplaceLifetimeAndTyNvYB2W_NtB2s_4Fold14fold_attributeE0ENtNtNtBa_6traits8iterator8Iterator8try_foldINtNtB12_13in_place_drop11InPlaceDropB1L_ENCINvNtB12_16in_place_collect24write_in_place_with_dropB1L_E0INtNtBc_6result6ResultB5A_zEEB30_, symObjAddr: 0x1A8, symBinAddr: 0x45044, symSize: 0x4C }
  - { offset: 0x62D57, size: 0x8, addend: 0x0, symName: __RINvXs0_NtNtNtCsaNl6UpbT7bw_4core4iter8adapters3mapINtB6_3MapINtNtNtCsiTraAjBDcu4_5alloc3vec9into_iter8IntoIterNtNtCsc29TF2YcYso_3syn4expr3ArmENCINvNtNtB1P_3gen4fold8fold_vecB1L_NtNvCsiSITA57RZ13_15zerofrom_derive16replace_lifetime15ReplaceLifetimeNvYB2Q_NtB2m_4Fold8fold_armE0ENtNtNtBa_6traits8iterator8Iterator8try_foldINtNtB12_13in_place_drop11InPlaceDropB1L_ENCINvNtB12_16in_place_collect24write_in_place_with_dropB1L_E0INtNtBc_6result6ResultB59_zEEB2U_, symObjAddr: 0x1F4, symBinAddr: 0x45090, symSize: 0x4C }
  - { offset: 0x62DD5, size: 0x8, addend: 0x0, symName: __RINvXs0_NtNtNtCsaNl6UpbT7bw_4core4iter8adapters3mapINtB6_3MapINtNtNtCsiTraAjBDcu4_5alloc3vec9into_iter8IntoIterNtNtCsc29TF2YcYso_3syn4expr3ArmENCINvNtNtB1P_3gen4fold8fold_vecB1L_NtNvCsiSITA57RZ13_15zerofrom_derive25replace_lifetime_and_type20ReplaceLifetimeAndTyNvYB2Q_NtB2m_4Fold8fold_armE0ENtNtNtBa_6traits8iterator8Iterator8try_foldINtNtB12_13in_place_drop11InPlaceDropB1L_ENCINvNtB12_16in_place_collect24write_in_place_with_dropB1L_E0INtNtBc_6result6ResultB5n_zEEB2U_, symObjAddr: 0x240, symBinAddr: 0x450DC, symSize: 0x4C }
  - { offset: 0x62E53, size: 0x8, addend: 0x0, symName: __RINvXs0_NtNtNtCsaNl6UpbT7bw_4core4iter8adapters3mapINtB6_3MapINtNtNtCsiTraAjBDcu4_5alloc3vec9into_iter8IntoIterNtNtCsc29TF2YcYso_3syn4item11ForeignItemENCINvNtNtB1P_3gen4fold8fold_vecB1L_NtNvCsiSITA57RZ13_15zerofrom_derive16replace_lifetime15ReplaceLifetimeNvYB2Z_NtB2v_4Fold17fold_foreign_itemE0ENtNtNtBa_6traits8iterator8Iterator8try_foldINtNtB12_13in_place_drop11InPlaceDropB1L_ENCINvNtB12_16in_place_collect24write_in_place_with_dropB1L_E0INtNtBc_6result6ResultB5s_zEEB33_, symObjAddr: 0x28C, symBinAddr: 0x45128, symSize: 0x4C }
  - { offset: 0x62ED1, size: 0x8, addend: 0x0, symName: __RINvXs0_NtNtNtCsaNl6UpbT7bw_4core4iter8adapters3mapINtB6_3MapINtNtNtCsiTraAjBDcu4_5alloc3vec9into_iter8IntoIterNtNtCsc29TF2YcYso_3syn4item11ForeignItemENCINvNtNtB1P_3gen4fold8fold_vecB1L_NtNvCsiSITA57RZ13_15zerofrom_derive25replace_lifetime_and_type20ReplaceLifetimeAndTyNvYB2Z_NtB2v_4Fold17fold_foreign_itemE0ENtNtNtBa_6traits8iterator8Iterator8try_foldINtNtB12_13in_place_drop11InPlaceDropB1L_ENCINvNtB12_16in_place_collect24write_in_place_with_dropB1L_E0INtNtBc_6result6ResultB5G_zEEB33_, symObjAddr: 0x2D8, symBinAddr: 0x45174, symSize: 0x4C }
  - { offset: 0x62F4F, size: 0x8, addend: 0x0, symName: __RINvXs0_NtNtNtCsaNl6UpbT7bw_4core4iter8adapters3mapINtB6_3MapINtNtNtCsiTraAjBDcu4_5alloc3vec9into_iter8IntoIterNtNtCsc29TF2YcYso_3syn4item4ItemENCINvNtNtB1P_3gen4fold8fold_vecB1L_NtNvCsiSITA57RZ13_15zerofrom_derive16replace_lifetime15ReplaceLifetimeNvYB2R_NtB2n_4Fold9fold_itemE0ENtNtNtBa_6traits8iterator8Iterator8try_foldINtNtB12_13in_place_drop11InPlaceDropB1L_ENCINvNtB12_16in_place_collect24write_in_place_with_dropB1L_E0INtNtBc_6result6ResultB5b_zEEB2V_, symObjAddr: 0x324, symBinAddr: 0x451C0, symSize: 0x4C }
  - { offset: 0x62FCD, size: 0x8, addend: 0x0, symName: __RINvXs0_NtNtNtCsaNl6UpbT7bw_4core4iter8adapters3mapINtB6_3MapINtNtNtCsiTraAjBDcu4_5alloc3vec9into_iter8IntoIterNtNtCsc29TF2YcYso_3syn4item4ItemENCINvNtNtB1P_3gen4fold8fold_vecB1L_NtNvCsiSITA57RZ13_15zerofrom_derive25replace_lifetime_and_type20ReplaceLifetimeAndTyNvYB2R_NtB2n_4Fold9fold_itemE0ENtNtNtBa_6traits8iterator8Iterator8try_foldINtNtB12_13in_place_drop11InPlaceDropB1L_ENCINvNtB12_16in_place_collect24write_in_place_with_dropB1L_E0INtNtBc_6result6ResultB5p_zEEB2V_, symObjAddr: 0x370, symBinAddr: 0x4520C, symSize: 0x4C }
  - { offset: 0x6304B, size: 0x8, addend: 0x0, symName: __RINvXs0_NtNtNtCsaNl6UpbT7bw_4core4iter8adapters3mapINtB6_3MapINtNtNtCsiTraAjBDcu4_5alloc3vec9into_iter8IntoIterNtNtCsc29TF2YcYso_3syn4item8ImplItemENCINvNtNtB1P_3gen4fold8fold_vecB1L_NtNvCsiSITA57RZ13_15zerofrom_derive16replace_lifetime15ReplaceLifetimeNvYB2V_NtB2r_4Fold14fold_impl_itemE0ENtNtNtBa_6traits8iterator8Iterator8try_foldINtNtB12_13in_place_drop11InPlaceDropB1L_ENCINvNtB12_16in_place_collect24write_in_place_with_dropB1L_E0INtNtBc_6result6ResultB5l_zEEB2Z_, symObjAddr: 0x3BC, symBinAddr: 0x45258, symSize: 0x4C }
  - { offset: 0x630C9, size: 0x8, addend: 0x0, symName: __RINvXs0_NtNtNtCsaNl6UpbT7bw_4core4iter8adapters3mapINtB6_3MapINtNtNtCsiTraAjBDcu4_5alloc3vec9into_iter8IntoIterNtNtCsc29TF2YcYso_3syn4item8ImplItemENCINvNtNtB1P_3gen4fold8fold_vecB1L_NtNvCsiSITA57RZ13_15zerofrom_derive25replace_lifetime_and_type20ReplaceLifetimeAndTyNvYB2V_NtB2r_4Fold14fold_impl_itemE0ENtNtNtBa_6traits8iterator8Iterator8try_foldINtNtB12_13in_place_drop11InPlaceDropB1L_ENCINvNtB12_16in_place_collect24write_in_place_with_dropB1L_E0INtNtBc_6result6ResultB5z_zEEB2Z_, symObjAddr: 0x408, symBinAddr: 0x452A4, symSize: 0x4C }
  - { offset: 0x63147, size: 0x8, addend: 0x0, symName: __RINvXs0_NtNtNtCsaNl6UpbT7bw_4core4iter8adapters3mapINtB6_3MapINtNtNtCsiTraAjBDcu4_5alloc3vec9into_iter8IntoIterNtNtCsc29TF2YcYso_3syn4item9TraitItemENCINvNtNtB1P_3gen4fold8fold_vecB1L_NtNvCsiSITA57RZ13_15zerofrom_derive16replace_lifetime15ReplaceLifetimeNvYB2W_NtB2s_4Fold15fold_trait_itemE0ENtNtNtBa_6traits8iterator8Iterator8try_foldINtNtB12_13in_place_drop11InPlaceDropB1L_ENCINvNtB12_16in_place_collect24write_in_place_with_dropB1L_E0INtNtBc_6result6ResultB5n_zEEB30_, symObjAddr: 0x454, symBinAddr: 0x452F0, symSize: 0x4C }
  - { offset: 0x631C5, size: 0x8, addend: 0x0, symName: __RINvXs0_NtNtNtCsaNl6UpbT7bw_4core4iter8adapters3mapINtB6_3MapINtNtNtCsiTraAjBDcu4_5alloc3vec9into_iter8IntoIterNtNtCsc29TF2YcYso_3syn4item9TraitItemENCINvNtNtB1P_3gen4fold8fold_vecB1L_NtNvCsiSITA57RZ13_15zerofrom_derive25replace_lifetime_and_type20ReplaceLifetimeAndTyNvYB2W_NtB2s_4Fold15fold_trait_itemE0ENtNtNtBa_6traits8iterator8Iterator8try_foldINtNtB12_13in_place_drop11InPlaceDropB1L_ENCINvNtB12_16in_place_collect24write_in_place_with_dropB1L_E0INtNtBc_6result6ResultB5B_zEEB30_, symObjAddr: 0x4A0, symBinAddr: 0x4533C, symSize: 0x4C }
  - { offset: 0x63243, size: 0x8, addend: 0x0, symName: __RINvXs0_NtNtNtCsaNl6UpbT7bw_4core4iter8adapters3mapINtB6_3MapINtNtNtCsiTraAjBDcu4_5alloc3vec9into_iter8IntoIterNtNtCsc29TF2YcYso_3syn4stmt4StmtENCINvNtNtB1P_3gen4fold8fold_vecB1L_NtNvCsiSITA57RZ13_15zerofrom_derive16replace_lifetime15ReplaceLifetimeNvYB2R_NtB2n_4Fold9fold_stmtE0ENtNtNtBa_6traits8iterator8Iterator8try_foldINtNtB12_13in_place_drop11InPlaceDropB1L_ENCINvNtB12_16in_place_collect24write_in_place_with_dropB1L_E0INtNtBc_6result6ResultB5b_zEEB2V_, symObjAddr: 0x4EC, symBinAddr: 0x45388, symSize: 0x4C }
  - { offset: 0x632C1, size: 0x8, addend: 0x0, symName: __RINvXs0_NtNtNtCsaNl6UpbT7bw_4core4iter8adapters3mapINtB6_3MapINtNtNtCsiTraAjBDcu4_5alloc3vec9into_iter8IntoIterNtNtCsc29TF2YcYso_3syn4stmt4StmtENCINvNtNtB1P_3gen4fold8fold_vecB1L_NtNvCsiSITA57RZ13_15zerofrom_derive25replace_lifetime_and_type20ReplaceLifetimeAndTyNvYB2R_NtB2n_4Fold9fold_stmtE0ENtNtNtBa_6traits8iterator8Iterator8try_foldINtNtB12_13in_place_drop11InPlaceDropB1L_ENCINvNtB12_16in_place_collect24write_in_place_with_dropB1L_E0INtNtBc_6result6ResultB5p_zEEB2V_, symObjAddr: 0x538, symBinAddr: 0x453D4, symSize: 0x4C }
  - { offset: 0x6333F, size: 0x8, addend: 0x0, symName: __RINvXs0_NtNtNtCsaNl6UpbT7bw_4core4iter8adapters3mapINtB6_3MapINtNtNtCsiTraAjBDcu4_5alloc3vec9into_iter8IntoIterTNtCshnvkK9b4wzu_11proc_macro25IdentNtNtCsc29TF2YcYso_3syn5token5CommaEENCNvXs8_NtB2p_10punctuatedINtB33_10PunctuatedB1M_B2l_ENtNtNtBa_6traits7collect12IntoIterator9into_iter0ENtNtB3R_8iterator8Iterator4folduNCINvNvB4B_8for_each4callB1M_NCINvMsi_B12_INtB12_3VecB1M_E14extend_trustedBN_E0E0ECsiSITA57RZ13_15zerofrom_derive, symObjAddr: 0x584, symBinAddr: 0x45420, symSize: 0x4C }
  - { offset: 0x633D8, size: 0x8, addend: 0x0, symName: __RINvXs0_NtNtNtCsaNl6UpbT7bw_4core4iter8adapters3mapINtB6_3MapINtNtNtCsiTraAjBDcu4_5alloc3vec9into_iter8IntoIterTNtNtCsc29TF2YcYso_3syn2ty4TypeNtNtB1Q_5token5CommaEENCINvNtB1Q_10punctuated4foldB1M_B2g_NtNvCsiSITA57RZ13_15zerofrom_derive16replace_lifetime15ReplaceLifetimeNvYB3c_NtNtNtB1Q_3gen4fold4Fold9fold_typeE0ENtNtNtBa_6traits8iterator8Iterator8try_foldINtNtB12_13in_place_drop11InPlaceDropB1L_ENCINvNtB12_16in_place_collect24write_in_place_with_dropB1L_E0INtNtBc_6result6ResultB5J_zEEB3g_, symObjAddr: 0x5D0, symBinAddr: 0x4546C, symSize: 0x4C }
  - { offset: 0x63456, size: 0x8, addend: 0x0, symName: __RINvXs0_NtNtNtCsaNl6UpbT7bw_4core4iter8adapters3mapINtB6_3MapINtNtNtCsiTraAjBDcu4_5alloc3vec9into_iter8IntoIterTNtNtCsc29TF2YcYso_3syn2ty4TypeNtNtB1Q_5token5CommaEENCINvNtB1Q_10punctuated4foldB1M_B2g_NtNvCsiSITA57RZ13_15zerofrom_derive25replace_lifetime_and_type20ReplaceLifetimeAndTyNvYB3c_NtNtNtB1Q_3gen4fold4Fold9fold_typeE0ENtNtNtBa_6traits8iterator8Iterator8try_foldINtNtB12_13in_place_drop11InPlaceDropB1L_ENCINvNtB12_16in_place_collect24write_in_place_with_dropB1L_E0INtNtBc_6result6ResultB5X_zEEB3g_, symObjAddr: 0x61C, symBinAddr: 0x454B8, symSize: 0x4C }
  - { offset: 0x634D4, size: 0x8, addend: 0x0, symName: __RINvXs0_NtNtNtCsaNl6UpbT7bw_4core4iter8adapters3mapINtB6_3MapINtNtNtCsiTraAjBDcu4_5alloc3vec9into_iter8IntoIterTNtNtCsc29TF2YcYso_3syn2ty9BareFnArgNtNtB1Q_5token5CommaEENCINvNtB1Q_10punctuated4foldB1M_B2l_NtNvCsiSITA57RZ13_15zerofrom_derive16replace_lifetime15ReplaceLifetimeNvYB3h_NtNtNtB1Q_3gen4fold4Fold16fold_bare_fn_argE0ENtNtNtBa_6traits8iterator8Iterator8try_foldINtNtB12_13in_place_drop11InPlaceDropB1L_ENCINvNtB12_16in_place_collect24write_in_place_with_dropB1L_E0INtNtBc_6result6ResultB5W_zEEB3l_, symObjAddr: 0x668, symBinAddr: 0x45504, symSize: 0x4C }
  - { offset: 0x63552, size: 0x8, addend: 0x0, symName: __RINvXs0_NtNtNtCsaNl6UpbT7bw_4core4iter8adapters3mapINtB6_3MapINtNtNtCsiTraAjBDcu4_5alloc3vec9into_iter8IntoIterTNtNtCsc29TF2YcYso_3syn2ty9BareFnArgNtNtB1Q_5token5CommaEENCINvNtB1Q_10punctuated4foldB1M_B2l_NtNvCsiSITA57RZ13_15zerofrom_derive25replace_lifetime_and_type20ReplaceLifetimeAndTyNvYB3h_NtNtNtB1Q_3gen4fold4Fold16fold_bare_fn_argE0ENtNtNtBa_6traits8iterator8Iterator8try_foldINtNtB12_13in_place_drop11InPlaceDropB1L_ENCINvNtB12_16in_place_collect24write_in_place_with_dropB1L_E0INtNtBc_6result6ResultB6a_zEEB3l_, symObjAddr: 0x6B4, symBinAddr: 0x45550, symSize: 0x4C }
  - { offset: 0x635D0, size: 0x8, addend: 0x0, symName: __RINvXs0_NtNtNtCsaNl6UpbT7bw_4core4iter8adapters3mapINtB6_3MapINtNtNtCsiTraAjBDcu4_5alloc3vec9into_iter8IntoIterTNtNtCsc29TF2YcYso_3syn3pat3PatNtNtB1Q_5token2OrEENCINvNtB1Q_10punctuated4foldB1M_B2g_NtNvCsiSITA57RZ13_15zerofrom_derive16replace_lifetime15ReplaceLifetimeNvYB39_NtNtNtB1Q_3gen4fold4Fold8fold_patE0ENtNtNtBa_6traits8iterator8Iterator8try_foldINtNtB12_13in_place_drop11InPlaceDropB1L_ENCINvNtB12_16in_place_collect24write_in_place_with_dropB1L_E0INtNtBc_6result6ResultB5F_zEEB3d_, symObjAddr: 0x700, symBinAddr: 0x4559C, symSize: 0x4C }
  - { offset: 0x6364E, size: 0x8, addend: 0x0, symName: __RINvXs0_NtNtNtCsaNl6UpbT7bw_4core4iter8adapters3mapINtB6_3MapINtNtNtCsiTraAjBDcu4_5alloc3vec9into_iter8IntoIterTNtNtCsc29TF2YcYso_3syn3pat3PatNtNtB1Q_5token2OrEENCINvNtB1Q_10punctuated4foldB1M_B2g_NtNvCsiSITA57RZ13_15zerofrom_derive25replace_lifetime_and_type20ReplaceLifetimeAndTyNvYB39_NtNtNtB1Q_3gen4fold4Fold8fold_patE0ENtNtNtBa_6traits8iterator8Iterator8try_foldINtNtB12_13in_place_drop11InPlaceDropB1L_ENCINvNtB12_16in_place_collect24write_in_place_with_dropB1L_E0INtNtBc_6result6ResultB5T_zEEB3d_, symObjAddr: 0x74C, symBinAddr: 0x455E8, symSize: 0x4C }
  - { offset: 0x636CC, size: 0x8, addend: 0x0, symName: __RINvXs0_NtNtNtCsaNl6UpbT7bw_4core4iter8adapters3mapINtB6_3MapINtNtNtCsiTraAjBDcu4_5alloc3vec9into_iter8IntoIterTNtNtCsc29TF2YcYso_3syn3pat3PatNtNtB1Q_5token5CommaEENCINvNtB1Q_10punctuated4foldB1M_B2g_NtNvCsiSITA57RZ13_15zerofrom_derive16replace_lifetime15ReplaceLifetimeNvYB3c_NtNtNtB1Q_3gen4fold4Fold8fold_patE0ENtNtNtBa_6traits8iterator8Iterator8try_foldINtNtB12_13in_place_drop11InPlaceDropB1L_ENCINvNtB12_16in_place_collect24write_in_place_with_dropB1L_E0INtNtBc_6result6ResultB5I_zEEB3g_, symObjAddr: 0x798, symBinAddr: 0x45634, symSize: 0x4C }
  - { offset: 0x6374A, size: 0x8, addend: 0x0, symName: __RINvXs0_NtNtNtCsaNl6UpbT7bw_4core4iter8adapters3mapINtB6_3MapINtNtNtCsiTraAjBDcu4_5alloc3vec9into_iter8IntoIterTNtNtCsc29TF2YcYso_3syn3pat3PatNtNtB1Q_5token5CommaEENCINvNtB1Q_10punctuated4foldB1M_B2g_NtNvCsiSITA57RZ13_15zerofrom_derive25replace_lifetime_and_type20ReplaceLifetimeAndTyNvYB3c_NtNtNtB1Q_3gen4fold4Fold8fold_patE0ENtNtNtBa_6traits8iterator8Iterator8try_foldINtNtB12_13in_place_drop11InPlaceDropB1L_ENCINvNtB12_16in_place_collect24write_in_place_with_dropB1L_E0INtNtBc_6result6ResultB5W_zEEB3g_, symObjAddr: 0x7E4, symBinAddr: 0x45680, symSize: 0x4C }
  - { offset: 0x637C8, size: 0x8, addend: 0x0, symName: __RINvXs0_NtNtNtCsaNl6UpbT7bw_4core4iter8adapters3mapINtB6_3MapINtNtNtCsiTraAjBDcu4_5alloc3vec9into_iter8IntoIterTNtNtCsc29TF2YcYso_3syn3pat8FieldPatNtNtB1Q_5token5CommaEENCINvNtB1Q_10punctuated4foldB1M_B2l_NtNvCsiSITA57RZ13_15zerofrom_derive16replace_lifetime15ReplaceLifetimeNvYB3h_NtNtNtB1Q_3gen4fold4Fold14fold_field_patE0ENtNtNtBa_6traits8iterator8Iterator8try_foldINtNtB12_13in_place_drop11InPlaceDropB1L_ENCINvNtB12_16in_place_collect24write_in_place_with_dropB1L_E0INtNtBc_6result6ResultB5U_zEEB3l_, symObjAddr: 0x830, symBinAddr: 0x456CC, symSize: 0x4C }
  - { offset: 0x63846, size: 0x8, addend: 0x0, symName: __RINvXs0_NtNtNtCsaNl6UpbT7bw_4core4iter8adapters3mapINtB6_3MapINtNtNtCsiTraAjBDcu4_5alloc3vec9into_iter8IntoIterTNtNtCsc29TF2YcYso_3syn3pat8FieldPatNtNtB1Q_5token5CommaEENCINvNtB1Q_10punctuated4foldB1M_B2l_NtNvCsiSITA57RZ13_15zerofrom_derive25replace_lifetime_and_type20ReplaceLifetimeAndTyNvYB3h_NtNtNtB1Q_3gen4fold4Fold14fold_field_patE0ENtNtNtBa_6traits8iterator8Iterator8try_foldINtNtB12_13in_place_drop11InPlaceDropB1L_ENCINvNtB12_16in_place_collect24write_in_place_with_dropB1L_E0INtNtBc_6result6ResultB68_zEEB3l_, symObjAddr: 0x87C, symBinAddr: 0x45718, symSize: 0x4C }
  - { offset: 0x638C4, size: 0x8, addend: 0x0, symName: __RINvXs0_NtNtNtCsaNl6UpbT7bw_4core4iter8adapters3mapINtB6_3MapINtNtNtCsiTraAjBDcu4_5alloc3vec9into_iter8IntoIterTNtNtCsc29TF2YcYso_3syn4data5FieldNtNtB1Q_5token5CommaEENCINvNtB1Q_10punctuated4foldB1M_B2j_NtNvCsiSITA57RZ13_15zerofrom_derive16replace_lifetime15ReplaceLifetimeNvYB3f_NtNtNtB1Q_3gen4fold4Fold10fold_fieldE0ENtNtNtBa_6traits8iterator8Iterator8try_foldINtNtB12_13in_place_drop11InPlaceDropB1L_ENCINvNtB12_16in_place_collect24write_in_place_with_dropB1L_E0INtNtBc_6result6ResultB5O_zEEB3j_, symObjAddr: 0x8C8, symBinAddr: 0x45764, symSize: 0x4C }
  - { offset: 0x63942, size: 0x8, addend: 0x0, symName: __RINvXs0_NtNtNtCsaNl6UpbT7bw_4core4iter8adapters3mapINtB6_3MapINtNtNtCsiTraAjBDcu4_5alloc3vec9into_iter8IntoIterTNtNtCsc29TF2YcYso_3syn4data5FieldNtNtB1Q_5token5CommaEENCINvNtB1Q_10punctuated4foldB1M_B2j_NtNvCsiSITA57RZ13_15zerofrom_derive25replace_lifetime_and_type20ReplaceLifetimeAndTyNvYB3f_NtNtNtB1Q_3gen4fold4Fold10fold_fieldE0ENtNtNtBa_6traits8iterator8Iterator8try_foldINtNtB12_13in_place_drop11InPlaceDropB1L_ENCINvNtB12_16in_place_collect24write_in_place_with_dropB1L_E0INtNtBc_6result6ResultB62_zEEB3j_, symObjAddr: 0x914, symBinAddr: 0x457B0, symSize: 0x4C }
  - { offset: 0x639C0, size: 0x8, addend: 0x0, symName: __RINvXs0_NtNtNtCsaNl6UpbT7bw_4core4iter8adapters3mapINtB6_3MapINtNtNtCsiTraAjBDcu4_5alloc3vec9into_iter8IntoIterTNtNtCsc29TF2YcYso_3syn4data7VariantNtNtB1Q_5token5CommaEENCINvNtB1Q_10punctuated4foldB1M_B2l_NtNvCsiSITA57RZ13_15zerofrom_derive16replace_lifetime15ReplaceLifetimeNvYB3h_NtNtNtB1Q_3gen4fold4Fold12fold_variantE0ENtNtNtBa_6traits8iterator8Iterator8try_foldINtNtB12_13in_place_drop11InPlaceDropB1L_ENCINvNtB12_16in_place_collect24write_in_place_with_dropB1L_E0INtNtBc_6result6ResultB5S_zEEB3l_, symObjAddr: 0x960, symBinAddr: 0x457FC, symSize: 0x4C }
  - { offset: 0x63A3E, size: 0x8, addend: 0x0, symName: __RINvXs0_NtNtNtCsaNl6UpbT7bw_4core4iter8adapters3mapINtB6_3MapINtNtNtCsiTraAjBDcu4_5alloc3vec9into_iter8IntoIterTNtNtCsc29TF2YcYso_3syn4data7VariantNtNtB1Q_5token5CommaEENCINvNtB1Q_10punctuated4foldB1M_B2l_NtNvCsiSITA57RZ13_15zerofrom_derive25replace_lifetime_and_type20ReplaceLifetimeAndTyNvYB3h_NtNtNtB1Q_3gen4fold4Fold12fold_variantE0ENtNtNtBa_6traits8iterator8Iterator8try_foldINtNtB12_13in_place_drop11InPlaceDropB1L_ENCINvNtB12_16in_place_collect24write_in_place_with_dropB1L_E0INtNtBc_6result6ResultB66_zEEB3l_, symObjAddr: 0x9AC, symBinAddr: 0x45848, symSize: 0x4C }
  - { offset: 0x63ABC, size: 0x8, addend: 0x0, symName: __RINvXs0_NtNtNtCsaNl6UpbT7bw_4core4iter8adapters3mapINtB6_3MapINtNtNtCsiTraAjBDcu4_5alloc3vec9into_iter8IntoIterTNtNtCsc29TF2YcYso_3syn4expr10FieldValueNtNtB1Q_5token5CommaEENCINvNtB1Q_10punctuated4foldB1M_B2p_NtNvCsiSITA57RZ13_15zerofrom_derive16replace_lifetime15ReplaceLifetimeNvYB3l_NtNtNtB1Q_3gen4fold4Fold16fold_field_valueE0ENtNtNtBa_6traits8iterator8Iterator8try_foldINtNtB12_13in_place_drop11InPlaceDropB1L_ENCINvNtB12_16in_place_collect24write_in_place_with_dropB1L_E0INtNtBc_6result6ResultB60_zEEB3p_, symObjAddr: 0x9F8, symBinAddr: 0x45894, symSize: 0x4C }
  - { offset: 0x63B3A, size: 0x8, addend: 0x0, symName: __RINvXs0_NtNtNtCsaNl6UpbT7bw_4core4iter8adapters3mapINtB6_3MapINtNtNtCsiTraAjBDcu4_5alloc3vec9into_iter8IntoIterTNtNtCsc29TF2YcYso_3syn4expr10FieldValueNtNtB1Q_5token5CommaEENCINvNtB1Q_10punctuated4foldB1M_B2p_NtNvCsiSITA57RZ13_15zerofrom_derive25replace_lifetime_and_type20ReplaceLifetimeAndTyNvYB3l_NtNtNtB1Q_3gen4fold4Fold16fold_field_valueE0ENtNtNtBa_6traits8iterator8Iterator8try_foldINtNtB12_13in_place_drop11InPlaceDropB1L_ENCINvNtB12_16in_place_collect24write_in_place_with_dropB1L_E0INtNtBc_6result6ResultB6e_zEEB3p_, symObjAddr: 0xA44, symBinAddr: 0x458E0, symSize: 0x4C }
  - { offset: 0x63BB8, size: 0x8, addend: 0x0, symName: __RINvXs0_NtNtNtCsaNl6UpbT7bw_4core4iter8adapters3mapINtB6_3MapINtNtNtCsiTraAjBDcu4_5alloc3vec9into_iter8IntoIterTNtNtCsc29TF2YcYso_3syn4expr4ExprNtNtB1Q_5token5CommaEENCINvNtB1Q_10punctuated4foldB1M_B2i_NtNvCsiSITA57RZ13_15zerofrom_derive16replace_lifetime15ReplaceLifetimeNvYB3e_NtNtNtB1Q_3gen4fold4Fold9fold_exprE0ENtNtNtBa_6traits8iterator8Iterator8try_foldINtNtB12_13in_place_drop11InPlaceDropB1L_ENCINvNtB12_16in_place_collect24write_in_place_with_dropB1L_E0INtNtBc_6result6ResultB5L_zEEB3i_, symObjAddr: 0xA90, symBinAddr: 0x4592C, symSize: 0x4C }
  - { offset: 0x63C36, size: 0x8, addend: 0x0, symName: __RINvXs0_NtNtNtCsaNl6UpbT7bw_4core4iter8adapters3mapINtB6_3MapINtNtNtCsiTraAjBDcu4_5alloc3vec9into_iter8IntoIterTNtNtCsc29TF2YcYso_3syn4expr4ExprNtNtB1Q_5token5CommaEENCINvNtB1Q_10punctuated4foldB1M_B2i_NtNvCsiSITA57RZ13_15zerofrom_derive25replace_lifetime_and_type20ReplaceLifetimeAndTyNvYB3e_NtNtNtB1Q_3gen4fold4Fold9fold_exprE0ENtNtNtBa_6traits8iterator8Iterator8try_foldINtNtB12_13in_place_drop11InPlaceDropB1L_ENCINvNtB12_16in_place_collect24write_in_place_with_dropB1L_E0INtNtBc_6result6ResultB5Z_zEEB3i_, symObjAddr: 0xADC, symBinAddr: 0x45978, symSize: 0x4C }
  - { offset: 0x63CB4, size: 0x8, addend: 0x0, symName: __RINvXs0_NtNtNtCsaNl6UpbT7bw_4core4iter8adapters3mapINtB6_3MapINtNtNtCsiTraAjBDcu4_5alloc3vec9into_iter8IntoIterTNtNtCsc29TF2YcYso_3syn4item5FnArgNtNtB1Q_5token5CommaEENCINvNtB1Q_10punctuated4foldB1M_B2j_NtNvCsiSITA57RZ13_15zerofrom_derive16replace_lifetime15ReplaceLifetimeNvYB3f_NtNtNtB1Q_3gen4fold4Fold11fold_fn_argE0ENtNtNtBa_6traits8iterator8Iterator8try_foldINtNtB12_13in_place_drop11InPlaceDropB1L_ENCINvNtB12_16in_place_collect24write_in_place_with_dropB1L_E0INtNtBc_6result6ResultB5P_zEEB3j_, symObjAddr: 0xB28, symBinAddr: 0x459C4, symSize: 0x4C }
  - { offset: 0x63D32, size: 0x8, addend: 0x0, symName: __RINvXs0_NtNtNtCsaNl6UpbT7bw_4core4iter8adapters3mapINtB6_3MapINtNtNtCsiTraAjBDcu4_5alloc3vec9into_iter8IntoIterTNtNtCsc29TF2YcYso_3syn4item5FnArgNtNtB1Q_5token5CommaEENCINvNtB1Q_10punctuated4foldB1M_B2j_NtNvCsiSITA57RZ13_15zerofrom_derive25replace_lifetime_and_type20ReplaceLifetimeAndTyNvYB3f_NtNtNtB1Q_3gen4fold4Fold11fold_fn_argE0ENtNtNtBa_6traits8iterator8Iterator8try_foldINtNtB12_13in_place_drop11InPlaceDropB1L_ENCINvNtB12_16in_place_collect24write_in_place_with_dropB1L_E0INtNtBc_6result6ResultB63_zEEB3j_, symObjAddr: 0xB74, symBinAddr: 0x45A10, symSize: 0x4C }
  - { offset: 0x63DB0, size: 0x8, addend: 0x0, symName: __RINvXs0_NtNtNtCsaNl6UpbT7bw_4core4iter8adapters3mapINtB6_3MapINtNtNtCsiTraAjBDcu4_5alloc3vec9into_iter8IntoIterTNtNtCsc29TF2YcYso_3syn4item7UseTreeNtNtB1Q_5token5CommaEENCINvNtB1Q_10punctuated4foldB1M_B2l_NtNvCsiSITA57RZ13_15zerofrom_derive16replace_lifetime15ReplaceLifetimeNvYB3h_NtNtNtB1Q_3gen4fold4Fold13fold_use_treeE0ENtNtNtBa_6traits8iterator8Iterator8try_foldINtNtB12_13in_place_drop11InPlaceDropB1L_ENCINvNtB12_16in_place_collect24write_in_place_with_dropB1L_E0INtNtBc_6result6ResultB5T_zEEB3l_, symObjAddr: 0xBC0, symBinAddr: 0x45A5C, symSize: 0x4C }
  - { offset: 0x63E2E, size: 0x8, addend: 0x0, symName: __RINvXs0_NtNtNtCsaNl6UpbT7bw_4core4iter8adapters3mapINtB6_3MapINtNtNtCsiTraAjBDcu4_5alloc3vec9into_iter8IntoIterTNtNtCsc29TF2YcYso_3syn4item7UseTreeNtNtB1Q_5token5CommaEENCINvNtB1Q_10punctuated4foldB1M_B2l_NtNvCsiSITA57RZ13_15zerofrom_derive25replace_lifetime_and_type20ReplaceLifetimeAndTyNvYB3h_NtNtNtB1Q_3gen4fold4Fold13fold_use_treeE0ENtNtNtBa_6traits8iterator8Iterator8try_foldINtNtB12_13in_place_drop11InPlaceDropB1L_ENCINvNtB12_16in_place_collect24write_in_place_with_dropB1L_E0INtNtBc_6result6ResultB67_zEEB3l_, symObjAddr: 0xC0C, symBinAddr: 0x45AA8, symSize: 0x4C }
  - { offset: 0x63EAC, size: 0x8, addend: 0x0, symName: __RINvXs0_NtNtNtCsaNl6UpbT7bw_4core4iter8adapters3mapINtB6_3MapINtNtNtCsiTraAjBDcu4_5alloc3vec9into_iter8IntoIterTNtNtCsc29TF2YcYso_3syn4path11PathSegmentNtNtB1Q_5token7PathSepEENCINvNtB1Q_10punctuated4foldB1M_B2q_NtNvCsiSITA57RZ13_15zerofrom_derive16replace_lifetime15ReplaceLifetimeNvYB3o_NtNtNtB1Q_3gen4fold4Fold17fold_path_segmentE0ENtNtNtBa_6traits8iterator8Iterator8try_foldINtNtB12_13in_place_drop11InPlaceDropB1L_ENCINvNtB12_16in_place_collect24write_in_place_with_dropB1L_E0INtNtBc_6result6ResultB64_zEEB3s_, symObjAddr: 0xC58, symBinAddr: 0x45AF4, symSize: 0x4C }
  - { offset: 0x63F2A, size: 0x8, addend: 0x0, symName: __RINvXs0_NtNtNtCsaNl6UpbT7bw_4core4iter8adapters3mapINtB6_3MapINtNtNtCsiTraAjBDcu4_5alloc3vec9into_iter8IntoIterTNtNtCsc29TF2YcYso_3syn4path11PathSegmentNtNtB1Q_5token7PathSepEENCINvNtB1Q_10punctuated4foldB1M_B2q_NtNvCsiSITA57RZ13_15zerofrom_derive25replace_lifetime_and_type20ReplaceLifetimeAndTyNvYB3o_NtNtNtB1Q_3gen4fold4Fold17fold_path_segmentE0ENtNtNtBa_6traits8iterator8Iterator8try_foldINtNtB12_13in_place_drop11InPlaceDropB1L_ENCINvNtB12_16in_place_collect24write_in_place_with_dropB1L_E0INtNtBc_6result6ResultB6i_zEEB3s_, symObjAddr: 0xCA4, symBinAddr: 0x45B40, symSize: 0x4C }
  - { offset: 0x63FA8, size: 0x8, addend: 0x0, symName: __RINvXs0_NtNtNtCsaNl6UpbT7bw_4core4iter8adapters3mapINtB6_3MapINtNtNtCsiTraAjBDcu4_5alloc3vec9into_iter8IntoIterTNtNtCsc29TF2YcYso_3syn4path15GenericArgumentNtNtB1Q_5token5CommaEENCINvNtB1Q_10punctuated4foldB1M_B2u_NtNvCsiSITA57RZ13_15zerofrom_derive16replace_lifetime15ReplaceLifetimeNvYB3q_NtNtNtB1Q_3gen4fold4Fold21fold_generic_argumentE0ENtNtNtBa_6traits8iterator8Iterator8try_foldINtNtB12_13in_place_drop11InPlaceDropB1L_ENCINvNtB12_16in_place_collect24write_in_place_with_dropB1L_E0INtNtBc_6result6ResultB6a_zEEB3u_, symObjAddr: 0xCF0, symBinAddr: 0x45B8C, symSize: 0x4C }
  - { offset: 0x64026, size: 0x8, addend: 0x0, symName: __RINvXs0_NtNtNtCsaNl6UpbT7bw_4core4iter8adapters3mapINtB6_3MapINtNtNtCsiTraAjBDcu4_5alloc3vec9into_iter8IntoIterTNtNtCsc29TF2YcYso_3syn4path15GenericArgumentNtNtB1Q_5token5CommaEENCINvNtB1Q_10punctuated4foldB1M_B2u_NtNvCsiSITA57RZ13_15zerofrom_derive25replace_lifetime_and_type20ReplaceLifetimeAndTyNvYB3q_NtNtNtB1Q_3gen4fold4Fold21fold_generic_argumentE0ENtNtNtBa_6traits8iterator8Iterator8try_foldINtNtB12_13in_place_drop11InPlaceDropB1L_ENCINvNtB12_16in_place_collect24write_in_place_with_dropB1L_E0INtNtBc_6result6ResultB6o_zEEB3u_, symObjAddr: 0xD3C, symBinAddr: 0x45BD8, symSize: 0x4C }
  - { offset: 0x640A4, size: 0x8, addend: 0x0, symName: __RINvXs0_NtNtNtCsaNl6UpbT7bw_4core4iter8adapters3mapINtB6_3MapINtNtNtCsiTraAjBDcu4_5alloc3vec9into_iter8IntoIterTNtNtCsc29TF2YcYso_3syn8generics12GenericParamNtNtB1Q_5token5CommaEENCINvNtB1Q_10punctuated4foldB1M_B2v_NtNvCsiSITA57RZ13_15zerofrom_derive16replace_lifetime15ReplaceLifetimeNvYB3r_NtNtNtB1Q_3gen4fold4Fold18fold_generic_paramE0ENtNtNtBa_6traits8iterator8Iterator8try_foldINtNtB12_13in_place_drop11InPlaceDropB1L_ENCINvNtB12_16in_place_collect24write_in_place_with_dropB1L_E0INtNtBc_6result6ResultB68_zEEB3v_, symObjAddr: 0xD88, symBinAddr: 0x45C24, symSize: 0x4C }
  - { offset: 0x64122, size: 0x8, addend: 0x0, symName: __RINvXs0_NtNtNtCsaNl6UpbT7bw_4core4iter8adapters3mapINtB6_3MapINtNtNtCsiTraAjBDcu4_5alloc3vec9into_iter8IntoIterTNtNtCsc29TF2YcYso_3syn8generics12GenericParamNtNtB1Q_5token5CommaEENCINvNtB1Q_10punctuated4foldB1M_B2v_NtNvCsiSITA57RZ13_15zerofrom_derive25replace_lifetime_and_type20ReplaceLifetimeAndTyNvYB3r_NtNtNtB1Q_3gen4fold4Fold18fold_generic_paramE0ENtNtNtBa_6traits8iterator8Iterator8try_foldINtNtB12_13in_place_drop11InPlaceDropB1L_ENCINvNtB12_16in_place_collect24write_in_place_with_dropB1L_E0INtNtBc_6result6ResultB6m_zEEB3v_, symObjAddr: 0xDD4, symBinAddr: 0x45C70, symSize: 0x4C }
  - { offset: 0x641A0, size: 0x8, addend: 0x0, symName: __RINvXs0_NtNtNtCsaNl6UpbT7bw_4core4iter8adapters3mapINtB6_3MapINtNtNtCsiTraAjBDcu4_5alloc3vec9into_iter8IntoIterTNtNtCsc29TF2YcYso_3syn8generics13CapturedParamNtNtB1Q_5token5CommaEENCINvNtB1Q_10punctuated4foldB1M_B2w_NtNvCsiSITA57RZ13_15zerofrom_derive16replace_lifetime15ReplaceLifetimeNvYB3s_NtNtNtB1Q_3gen4fold4Fold19fold_captured_paramE0ENtNtNtBa_6traits8iterator8Iterator8try_foldINtNtB12_13in_place_drop11InPlaceDropB1L_ENCINvNtB12_16in_place_collect24write_in_place_with_dropB1L_E0INtNtBc_6result6ResultB6a_zEEB3w_, symObjAddr: 0xE20, symBinAddr: 0x45CBC, symSize: 0x4C }
  - { offset: 0x6421E, size: 0x8, addend: 0x0, symName: __RINvXs0_NtNtNtCsaNl6UpbT7bw_4core4iter8adapters3mapINtB6_3MapINtNtNtCsiTraAjBDcu4_5alloc3vec9into_iter8IntoIterTNtNtCsc29TF2YcYso_3syn8generics13CapturedParamNtNtB1Q_5token5CommaEENCINvNtB1Q_10punctuated4foldB1M_B2w_NtNvCsiSITA57RZ13_15zerofrom_derive25replace_lifetime_and_type20ReplaceLifetimeAndTyNvYB3s_NtNtNtB1Q_3gen4fold4Fold19fold_captured_paramE0ENtNtNtBa_6traits8iterator8Iterator8try_foldINtNtB12_13in_place_drop11InPlaceDropB1L_ENCINvNtB12_16in_place_collect24write_in_place_with_dropB1L_E0INtNtBc_6result6ResultB6o_zEEB3w_, symObjAddr: 0xE6C, symBinAddr: 0x45D08, symSize: 0x4C }
  - { offset: 0x6429C, size: 0x8, addend: 0x0, symName: __RINvXs0_NtNtNtCsaNl6UpbT7bw_4core4iter8adapters3mapINtB6_3MapINtNtNtCsiTraAjBDcu4_5alloc3vec9into_iter8IntoIterTNtNtCsc29TF2YcYso_3syn8generics14TypeParamBoundNtNtB1Q_5token4PlusEENCINvNtB1Q_10punctuated4foldB1M_B2x_NtNvCsiSITA57RZ13_15zerofrom_derive16replace_lifetime15ReplaceLifetimeNvYB3s_NtNtNtB1Q_3gen4fold4Fold21fold_type_param_boundE0ENtNtNtBa_6traits8iterator8Iterator8try_foldINtNtB12_13in_place_drop11InPlaceDropB1L_ENCINvNtB12_16in_place_collect24write_in_place_with_dropB1L_E0INtNtBc_6result6ResultB6c_zEEB3w_, symObjAddr: 0xEB8, symBinAddr: 0x45D54, symSize: 0x4C }
  - { offset: 0x6431A, size: 0x8, addend: 0x0, symName: __RINvXs0_NtNtNtCsaNl6UpbT7bw_4core4iter8adapters3mapINtB6_3MapINtNtNtCsiTraAjBDcu4_5alloc3vec9into_iter8IntoIterTNtNtCsc29TF2YcYso_3syn8generics14TypeParamBoundNtNtB1Q_5token4PlusEENCINvNtB1Q_10punctuated4foldB1M_B2x_NtNvCsiSITA57RZ13_15zerofrom_derive25replace_lifetime_and_type20ReplaceLifetimeAndTyNvYB3s_NtNtNtB1Q_3gen4fold4Fold21fold_type_param_boundE0ENtNtNtBa_6traits8iterator8Iterator8try_foldINtNtB12_13in_place_drop11InPlaceDropB1L_ENCINvNtB12_16in_place_collect24write_in_place_with_dropB1L_E0INtNtBc_6result6ResultB6q_zEEB3w_, symObjAddr: 0xF04, symBinAddr: 0x45DA0, symSize: 0x4C }
  - { offset: 0x64398, size: 0x8, addend: 0x0, symName: __RINvXs0_NtNtNtCsaNl6UpbT7bw_4core4iter8adapters3mapINtB6_3MapINtNtNtCsiTraAjBDcu4_5alloc3vec9into_iter8IntoIterTNtNtCsc29TF2YcYso_3syn8generics14WherePredicateNtNtB1Q_5token5CommaEENCINvNtB1Q_10punctuated4foldB1M_B2x_NtNvCsiSITA57RZ13_15zerofrom_derive16replace_lifetime15ReplaceLifetimeNvYB3t_NtNtNtB1Q_3gen4fold4Fold20fold_where_predicateE0ENtNtNtBa_6traits8iterator8Iterator8try_foldINtNtB12_13in_place_drop11InPlaceDropB1L_ENCINvNtB12_16in_place_collect24write_in_place_with_dropB1L_E0INtNtBc_6result6ResultB6c_zEEB3x_, symObjAddr: 0xF50, symBinAddr: 0x45DEC, symSize: 0x4C }
  - { offset: 0x64416, size: 0x8, addend: 0x0, symName: __RINvXs0_NtNtNtCsaNl6UpbT7bw_4core4iter8adapters3mapINtB6_3MapINtNtNtCsiTraAjBDcu4_5alloc3vec9into_iter8IntoIterTNtNtCsc29TF2YcYso_3syn8generics14WherePredicateNtNtB1Q_5token5CommaEENCINvNtB1Q_10punctuated4foldB1M_B2x_NtNvCsiSITA57RZ13_15zerofrom_derive25replace_lifetime_and_type20ReplaceLifetimeAndTyNvYB3t_NtNtNtB1Q_3gen4fold4Fold20fold_where_predicateE0ENtNtNtBa_6traits8iterator8Iterator8try_foldINtNtB12_13in_place_drop11InPlaceDropB1L_ENCINvNtB12_16in_place_collect24write_in_place_with_dropB1L_E0INtNtBc_6result6ResultB6q_zEEB3x_, symObjAddr: 0xF9C, symBinAddr: 0x45E38, symSize: 0x4C }
  - { offset: 0x64494, size: 0x8, addend: 0x0, symName: __RINvXs0_NtNtNtCsaNl6UpbT7bw_4core4iter8adapters3mapINtB6_3MapINtNtNtCsiTraAjBDcu4_5alloc3vec9into_iter8IntoIterTNtNtCsc29TF2YcYso_3syn8lifetime8LifetimeNtNtB1Q_5token4PlusEENCINvNtB1Q_10punctuated4foldB1M_B2q_NtNvCsiSITA57RZ13_15zerofrom_derive16replace_lifetime15ReplaceLifetimeNvYB3l_NtNtNtB1Q_3gen4fold4Fold13fold_lifetimeE0ENtNtNtBa_6traits8iterator8Iterator8try_foldINtNtB12_13in_place_drop11InPlaceDropB1L_ENCINvNtB12_16in_place_collect24write_in_place_with_dropB1L_E0INtNtBc_6result6ResultB5X_zEEB3p_, symObjAddr: 0xFE8, symBinAddr: 0x45E84, symSize: 0x4C }
  - { offset: 0x64512, size: 0x8, addend: 0x0, symName: __RINvXs0_NtNtNtCsaNl6UpbT7bw_4core4iter8adapters3mapINtB6_3MapINtNtNtCsiTraAjBDcu4_5alloc3vec9into_iter8IntoIterTNtNtCsc29TF2YcYso_3syn8lifetime8LifetimeNtNtB1Q_5token4PlusEENCINvNtB1Q_10punctuated4foldB1M_B2q_NtNvCsiSITA57RZ13_15zerofrom_derive25replace_lifetime_and_type20ReplaceLifetimeAndTyNvYB3l_NtNtNtB1Q_3gen4fold4Fold13fold_lifetimeE0ENtNtNtBa_6traits8iterator8Iterator8try_foldINtNtB12_13in_place_drop11InPlaceDropB1L_ENCINvNtB12_16in_place_collect24write_in_place_with_dropB1L_E0INtNtBc_6result6ResultB6b_zEEB3p_, symObjAddr: 0x1034, symBinAddr: 0x45ED0, symSize: 0x4C }
  - { offset: 0x64590, size: 0x8, addend: 0x0, symName: __RNvXs0_NtNtNtCsaNl6UpbT7bw_4core4iter8adapters3mapINtB5_3MapINtNtCsc29TF2YcYso_3syn10punctuated8IntoIterNtCshnvkK9b4wzu_11proc_macro25IdentENCINvXs8_NtCsg4dki62PTrg_9hashbrown3setINtB2n_7HashSetB1E_NtNtNtCsht3nMU9UgFu_3std4hash6random11RandomStateEINtNtNtB9_6traits7collect6ExtendB1E_E6extendINtBZ_10PunctuatedB1E_NtNtB11_5token5CommaEE0ENtNtB43_8iterator8Iterator9size_hintCsiSITA57RZ13_15zerofrom_derive, symObjAddr: 0x96B0, symBinAddr: 0x4E54C, symSize: 0x24 }
  - { offset: 0x645D7, size: 0x8, addend: 0x0, symName: __RNvXs0_NtNtNtCsaNl6UpbT7bw_4core4iter8adapters3mapINtB5_3MapINtNtNtBb_5slice4iter4IterNtCshnvkK9b4wzu_11proc_macro25IdentENCNvCsiSITA57RZ13_15zerofrom_derive14zf_derive_impls4_0ENtNtNtB9_6traits8iterator8Iterator9size_hintB20_, symObjAddr: 0x96D4, symBinAddr: 0x4E570, symSize: 0x24 }
  - { offset: 0x6461E, size: 0x8, addend: 0x0, symName: __RNvXs0_NtNtNtCsaNl6UpbT7bw_4core4iter8adapters3mapINtB5_3MapINtNtNtBb_5slice4iter4IterNtNtCsc29TF2YcYso_3syn8generics9TypeParamENCNvCsiSITA57RZ13_15zerofrom_derive14zf_derive_impls_0ENtNtNtB9_6traits8iterator8Iterator9size_hintB26_, symObjAddr: 0x96F8, symBinAddr: 0x4E594, symSize: 0x24 }
  - { offset: 0x64665, size: 0x8, addend: 0x0, symName: __RNvXs0_NtNtNtCsaNl6UpbT7bw_4core4iter8adapters3mapINtB5_3MapINtNtNtBb_5slice4iter7IterMutNtNtCsc29TF2YcYso_3syn8generics9TypeParamENCNvCsiSITA57RZ13_15zerofrom_derive14zf_derive_impls0_0ENtNtNtB9_6traits8iterator8Iterator9size_hintB29_, symObjAddr: 0x971C, symBinAddr: 0x4E5B8, symSize: 0x24 }
  - { offset: 0x646AC, size: 0x8, addend: 0x0, symName: __RNvXs0_NtNtNtCsaNl6UpbT7bw_4core4iter8adapters3mapINtB5_3MapINtNtNtCsiTraAjBDcu4_5alloc3vec9into_iter8IntoIterTNtCshnvkK9b4wzu_11proc_macro25IdentNtNtCsc29TF2YcYso_3syn5token5CommaEENCNvXs8_NtB2o_10punctuatedINtB32_10PunctuatedB1L_B2k_ENtNtNtB9_6traits7collect12IntoIterator9into_iter0ENtNtB3Q_8iterator8Iterator9size_hintCsiSITA57RZ13_15zerofrom_derive, symObjAddr: 0x9740, symBinAddr: 0x4E5DC, symSize: 0x24 }
  - { offset: 0x646F3, size: 0x8, addend: 0x0, symName: __RNvXs0_NtNtNtCsaNl6UpbT7bw_4core4iter8adapters3mapINtB5_3MapNtNtCsc29TF2YcYso_3syn8generics10TypeParamsNCNvCsiSITA57RZ13_15zerofrom_derive14zf_derive_impl0ENtNtNtB9_6traits8iterator8Iterator4nextB1H_, symObjAddr: 0x9764, symBinAddr: 0x4E600, symSize: 0xA0 }
  - { offset: 0x6478B, size: 0x8, addend: 0x0, symName: __RNvXs0_NtNtNtCsaNl6UpbT7bw_4core4iter8adapters3mapINtB5_3MapNtNtCsc29TF2YcYso_3syn8generics10TypeParamsNCNvCsiSITA57RZ13_15zerofrom_derive14zf_derive_impl0ENtNtNtB9_6traits8iterator8Iterator9size_hintB1H_, symObjAddr: 0x9804, symBinAddr: 0x4E6A0, symSize: 0x24 }
  - { offset: 0x64853, size: 0x8, addend: 0x0, symName: __RNCINvNtNtNtCsaNl6UpbT7bw_4core4iter8adapters3map12map_try_foldNtNtCsc29TF2YcYso_3syn4attr9AttributeBZ_INtNtNtCsiTraAjBDcu4_5alloc3vec13in_place_drop11InPlaceDropBZ_EINtNtBa_6result6ResultB1D_zENCINvNtNtB13_3gen4fold8fold_vecBZ_NtNvCsiSITA57RZ13_15zerofrom_derive16replace_lifetime15ReplaceLifetimeNvYB3E_NtB3b_4Fold14fold_attributeE0NCINvNtB1I_16in_place_collect24write_in_place_with_dropBZ_E0E0B3I_, symObjAddr: 0x29A4, symBinAddr: 0x47840, symSize: 0x118 }
  - { offset: 0x648E6, size: 0x8, addend: 0x0, symName: __RNCINvNtNtNtCsaNl6UpbT7bw_4core4iter8adapters3map12map_try_foldNtNtCsc29TF2YcYso_3syn4attr9AttributeBZ_INtNtNtCsiTraAjBDcu4_5alloc3vec13in_place_drop11InPlaceDropBZ_EINtNtBa_6result6ResultB1D_zENCINvNtNtB13_3gen4fold8fold_vecBZ_NtNvCsiSITA57RZ13_15zerofrom_derive25replace_lifetime_and_type20ReplaceLifetimeAndTyNvYB3E_NtB3b_4Fold14fold_attributeE0NCINvNtB1I_16in_place_collect24write_in_place_with_dropBZ_E0E0B3I_, symObjAddr: 0x2ABC, symBinAddr: 0x47958, symSize: 0x118 }
  - { offset: 0x64979, size: 0x8, addend: 0x0, symName: __RNCINvNtNtNtCsaNl6UpbT7bw_4core4iter8adapters3map12map_try_foldNtNtCsc29TF2YcYso_3syn4expr3ArmBZ_INtNtNtCsiTraAjBDcu4_5alloc3vec13in_place_drop11InPlaceDropBZ_EINtNtBa_6result6ResultB1x_zENCINvNtNtB13_3gen4fold8fold_vecBZ_NtNvCsiSITA57RZ13_15zerofrom_derive16replace_lifetime15ReplaceLifetimeNvYB3y_NtB35_4Fold8fold_armE0NCINvNtB1C_16in_place_collect24write_in_place_with_dropBZ_E0E0B3C_, symObjAddr: 0x2BD4, symBinAddr: 0x47A70, symSize: 0x118 }
  - { offset: 0x64A0C, size: 0x8, addend: 0x0, symName: __RNCINvNtNtNtCsaNl6UpbT7bw_4core4iter8adapters3map12map_try_foldNtNtCsc29TF2YcYso_3syn4expr3ArmBZ_INtNtNtCsiTraAjBDcu4_5alloc3vec13in_place_drop11InPlaceDropBZ_EINtNtBa_6result6ResultB1x_zENCINvNtNtB13_3gen4fold8fold_vecBZ_NtNvCsiSITA57RZ13_15zerofrom_derive25replace_lifetime_and_type20ReplaceLifetimeAndTyNvYB3y_NtB35_4Fold8fold_armE0NCINvNtB1C_16in_place_collect24write_in_place_with_dropBZ_E0E0B3C_, symObjAddr: 0x2CEC, symBinAddr: 0x47B88, symSize: 0x118 }
  - { offset: 0x64A9F, size: 0x8, addend: 0x0, symName: __RNCINvNtNtNtCsaNl6UpbT7bw_4core4iter8adapters3map12map_try_foldNtNtCsc29TF2YcYso_3syn4item11ForeignItemBZ_INtNtNtCsiTraAjBDcu4_5alloc3vec13in_place_drop11InPlaceDropBZ_EINtNtBa_6result6ResultB1G_zENCINvNtNtB13_3gen4fold8fold_vecBZ_NtNvCsiSITA57RZ13_15zerofrom_derive16replace_lifetime15ReplaceLifetimeNvYB3H_NtB3e_4Fold17fold_foreign_itemE0NCINvNtB1L_16in_place_collect24write_in_place_with_dropBZ_E0E0B3L_, symObjAddr: 0x2E04, symBinAddr: 0x47CA0, symSize: 0x11C }
  - { offset: 0x64B32, size: 0x8, addend: 0x0, symName: __RNCINvNtNtNtCsaNl6UpbT7bw_4core4iter8adapters3map12map_try_foldNtNtCsc29TF2YcYso_3syn4item11ForeignItemBZ_INtNtNtCsiTraAjBDcu4_5alloc3vec13in_place_drop11InPlaceDropBZ_EINtNtBa_6result6ResultB1G_zENCINvNtNtB13_3gen4fold8fold_vecBZ_NtNvCsiSITA57RZ13_15zerofrom_derive25replace_lifetime_and_type20ReplaceLifetimeAndTyNvYB3H_NtB3e_4Fold17fold_foreign_itemE0NCINvNtB1L_16in_place_collect24write_in_place_with_dropBZ_E0E0B3L_, symObjAddr: 0x2F20, symBinAddr: 0x47DBC, symSize: 0x11C }
  - { offset: 0x64BC5, size: 0x8, addend: 0x0, symName: __RNCINvNtNtNtCsaNl6UpbT7bw_4core4iter8adapters3map12map_try_foldNtNtCsc29TF2YcYso_3syn4item4ItemBZ_INtNtNtCsiTraAjBDcu4_5alloc3vec13in_place_drop11InPlaceDropBZ_EINtNtBa_6result6ResultB1y_zENCINvNtNtB13_3gen4fold8fold_vecBZ_NtNvCsiSITA57RZ13_15zerofrom_derive16replace_lifetime15ReplaceLifetimeNvYB3z_NtB36_4Fold9fold_itemE0NCINvNtB1D_16in_place_collect24write_in_place_with_dropBZ_E0E0B3D_, symObjAddr: 0x303C, symBinAddr: 0x47ED8, symSize: 0x11C }
  - { offset: 0x64C58, size: 0x8, addend: 0x0, symName: __RNCINvNtNtNtCsaNl6UpbT7bw_4core4iter8adapters3map12map_try_foldNtNtCsc29TF2YcYso_3syn4item4ItemBZ_INtNtNtCsiTraAjBDcu4_5alloc3vec13in_place_drop11InPlaceDropBZ_EINtNtBa_6result6ResultB1y_zENCINvNtNtB13_3gen4fold8fold_vecBZ_NtNvCsiSITA57RZ13_15zerofrom_derive25replace_lifetime_and_type20ReplaceLifetimeAndTyNvYB3z_NtB36_4Fold9fold_itemE0NCINvNtB1D_16in_place_collect24write_in_place_with_dropBZ_E0E0B3D_, symObjAddr: 0x3158, symBinAddr: 0x47FF4, symSize: 0x11C }
  - { offset: 0x64CEB, size: 0x8, addend: 0x0, symName: __RNCINvNtNtNtCsaNl6UpbT7bw_4core4iter8adapters3map12map_try_foldNtNtCsc29TF2YcYso_3syn4item8ImplItemBZ_INtNtNtCsiTraAjBDcu4_5alloc3vec13in_place_drop11InPlaceDropBZ_EINtNtBa_6result6ResultB1C_zENCINvNtNtB13_3gen4fold8fold_vecBZ_NtNvCsiSITA57RZ13_15zerofrom_derive16replace_lifetime15ReplaceLifetimeNvYB3D_NtB3a_4Fold14fold_impl_itemE0NCINvNtB1H_16in_place_collect24write_in_place_with_dropBZ_E0E0B3H_, symObjAddr: 0x3274, symBinAddr: 0x48110, symSize: 0x11C }
  - { offset: 0x64D7E, size: 0x8, addend: 0x0, symName: __RNCINvNtNtNtCsaNl6UpbT7bw_4core4iter8adapters3map12map_try_foldNtNtCsc29TF2YcYso_3syn4item8ImplItemBZ_INtNtNtCsiTraAjBDcu4_5alloc3vec13in_place_drop11InPlaceDropBZ_EINtNtBa_6result6ResultB1C_zENCINvNtNtB13_3gen4fold8fold_vecBZ_NtNvCsiSITA57RZ13_15zerofrom_derive25replace_lifetime_and_type20ReplaceLifetimeAndTyNvYB3D_NtB3a_4Fold14fold_impl_itemE0NCINvNtB1H_16in_place_collect24write_in_place_with_dropBZ_E0E0B3H_, symObjAddr: 0x3390, symBinAddr: 0x4822C, symSize: 0x11C }
  - { offset: 0x64E11, size: 0x8, addend: 0x0, symName: __RNCINvNtNtNtCsaNl6UpbT7bw_4core4iter8adapters3map12map_try_foldNtNtCsc29TF2YcYso_3syn4item9TraitItemBZ_INtNtNtCsiTraAjBDcu4_5alloc3vec13in_place_drop11InPlaceDropBZ_EINtNtBa_6result6ResultB1D_zENCINvNtNtB13_3gen4fold8fold_vecBZ_NtNvCsiSITA57RZ13_15zerofrom_derive16replace_lifetime15ReplaceLifetimeNvYB3E_NtB3b_4Fold15fold_trait_itemE0NCINvNtB1I_16in_place_collect24write_in_place_with_dropBZ_E0E0B3I_, symObjAddr: 0x34AC, symBinAddr: 0x48348, symSize: 0x11C }
  - { offset: 0x64EA4, size: 0x8, addend: 0x0, symName: __RNCINvNtNtNtCsaNl6UpbT7bw_4core4iter8adapters3map12map_try_foldNtNtCsc29TF2YcYso_3syn4item9TraitItemBZ_INtNtNtCsiTraAjBDcu4_5alloc3vec13in_place_drop11InPlaceDropBZ_EINtNtBa_6result6ResultB1D_zENCINvNtNtB13_3gen4fold8fold_vecBZ_NtNvCsiSITA57RZ13_15zerofrom_derive25replace_lifetime_and_type20ReplaceLifetimeAndTyNvYB3E_NtB3b_4Fold15fold_trait_itemE0NCINvNtB1I_16in_place_collect24write_in_place_with_dropBZ_E0E0B3I_, symObjAddr: 0x35C8, symBinAddr: 0x48464, symSize: 0x11C }
  - { offset: 0x64F37, size: 0x8, addend: 0x0, symName: __RNCINvNtNtNtCsaNl6UpbT7bw_4core4iter8adapters3map12map_try_foldNtNtCsc29TF2YcYso_3syn4stmt4StmtBZ_INtNtNtCsiTraAjBDcu4_5alloc3vec13in_place_drop11InPlaceDropBZ_EINtNtBa_6result6ResultB1y_zENCINvNtNtB13_3gen4fold8fold_vecBZ_NtNvCsiSITA57RZ13_15zerofrom_derive16replace_lifetime15ReplaceLifetimeNvYB3z_NtB36_4Fold9fold_stmtE0NCINvNtB1D_16in_place_collect24write_in_place_with_dropBZ_E0E0B3D_, symObjAddr: 0x36E4, symBinAddr: 0x48580, symSize: 0x11C }
  - { offset: 0x64FCA, size: 0x8, addend: 0x0, symName: __RNCINvNtNtNtCsaNl6UpbT7bw_4core4iter8adapters3map12map_try_foldNtNtCsc29TF2YcYso_3syn4stmt4StmtBZ_INtNtNtCsiTraAjBDcu4_5alloc3vec13in_place_drop11InPlaceDropBZ_EINtNtBa_6result6ResultB1y_zENCINvNtNtB13_3gen4fold8fold_vecBZ_NtNvCsiSITA57RZ13_15zerofrom_derive25replace_lifetime_and_type20ReplaceLifetimeAndTyNvYB3z_NtB36_4Fold9fold_stmtE0NCINvNtB1D_16in_place_collect24write_in_place_with_dropBZ_E0E0B3D_, symObjAddr: 0x3800, symBinAddr: 0x4869C, symSize: 0x11C }
  - { offset: 0x6505D, size: 0x8, addend: 0x0, symName: __RNCINvNtNtNtCsaNl6UpbT7bw_4core4iter8adapters3map12map_try_foldRNtCs3Xr6wkqZdQw_12synstructure11VariantInfoINtNtNtBa_5slice4iter4IterNtB12_11BindingInfoEuINtNtNtBa_3ops12control_flow11ControlFlowuENCNvCsiSITA57RZ13_15zerofrom_derive14zf_derive_impls2_0NCINvNvMsg_NtB6_7flattenINtB4d_13FlattenCompatppE13iter_try_fold7flattenB1H_uB2s_NCINvNvXsi_B4d_B4q_NtNtNtB8_6traits8iterator8Iterator8try_fold7flattenB1H_uB2s_NCINvNvB5E_3any5checkRB27_NCB3b_s3_0E0E0E0E0B3d_, symObjAddr: 0x391C, symBinAddr: 0x487B8, symSize: 0x90 }
  - { offset: 0x650EF, size: 0x8, addend: 0x0, symName: __RNCINvNtNtNtCsaNl6UpbT7bw_4core4iter8adapters3map12map_try_foldTNtNtCsc29TF2YcYso_3syn2ty4TypeNtNtB14_5token5CommaEBZ_INtNtNtCsiTraAjBDcu4_5alloc3vec13in_place_drop11InPlaceDropBZ_EINtNtBa_6result6ResultB1S_zENCINvNtB14_10punctuated4foldB10_B1u_NtNvCsiSITA57RZ13_15zerofrom_derive16replace_lifetime15ReplaceLifetimeNvYB3V_NtNtNtB14_3gen4fold4Fold9fold_typeE0NCINvNtB1X_16in_place_collect24write_in_place_with_dropBZ_E0E0B3Z_, symObjAddr: 0x39AC, symBinAddr: 0x48848, symSize: 0x118 }
  - { offset: 0x65182, size: 0x8, addend: 0x0, symName: __RNCINvNtNtNtCsaNl6UpbT7bw_4core4iter8adapters3map12map_try_foldTNtNtCsc29TF2YcYso_3syn2ty4TypeNtNtB14_5token5CommaEBZ_INtNtNtCsiTraAjBDcu4_5alloc3vec13in_place_drop11InPlaceDropBZ_EINtNtBa_6result6ResultB1S_zENCINvNtB14_10punctuated4foldB10_B1u_NtNvCsiSITA57RZ13_15zerofrom_derive25replace_lifetime_and_type20ReplaceLifetimeAndTyNvYB3V_NtNtNtB14_3gen4fold4Fold9fold_typeE0NCINvNtB1X_16in_place_collect24write_in_place_with_dropBZ_E0E0B3Z_, symObjAddr: 0x3AC4, symBinAddr: 0x48960, symSize: 0x118 }
  - { offset: 0x65215, size: 0x8, addend: 0x0, symName: __RNCINvNtNtNtCsaNl6UpbT7bw_4core4iter8adapters3map12map_try_foldTNtNtCsc29TF2YcYso_3syn2ty9BareFnArgNtNtB14_5token5CommaEBZ_INtNtNtCsiTraAjBDcu4_5alloc3vec13in_place_drop11InPlaceDropBZ_EINtNtBa_6result6ResultB1X_zENCINvNtB14_10punctuated4foldB10_B1z_NtNvCsiSITA57RZ13_15zerofrom_derive16replace_lifetime15ReplaceLifetimeNvYB40_NtNtNtB14_3gen4fold4Fold16fold_bare_fn_argE0NCINvNtB22_16in_place_collect24write_in_place_with_dropBZ_E0E0B44_, symObjAddr: 0x3BDC, symBinAddr: 0x48A78, symSize: 0x118 }
  - { offset: 0x652A8, size: 0x8, addend: 0x0, symName: __RNCINvNtNtNtCsaNl6UpbT7bw_4core4iter8adapters3map12map_try_foldTNtNtCsc29TF2YcYso_3syn2ty9BareFnArgNtNtB14_5token5CommaEBZ_INtNtNtCsiTraAjBDcu4_5alloc3vec13in_place_drop11InPlaceDropBZ_EINtNtBa_6result6ResultB1X_zENCINvNtB14_10punctuated4foldB10_B1z_NtNvCsiSITA57RZ13_15zerofrom_derive25replace_lifetime_and_type20ReplaceLifetimeAndTyNvYB40_NtNtNtB14_3gen4fold4Fold16fold_bare_fn_argE0NCINvNtB22_16in_place_collect24write_in_place_with_dropBZ_E0E0B44_, symObjAddr: 0x3CF4, symBinAddr: 0x48B90, symSize: 0x118 }
  - { offset: 0x6533B, size: 0x8, addend: 0x0, symName: __RNCINvNtNtNtCsaNl6UpbT7bw_4core4iter8adapters3map12map_try_foldTNtNtCsc29TF2YcYso_3syn3pat3PatNtNtB14_5token2OrEBZ_INtNtNtCsiTraAjBDcu4_5alloc3vec13in_place_drop11InPlaceDropBZ_EINtNtBa_6result6ResultB1P_zENCINvNtB14_10punctuated4foldB10_B1u_NtNvCsiSITA57RZ13_15zerofrom_derive16replace_lifetime15ReplaceLifetimeNvYB3S_NtNtNtB14_3gen4fold4Fold8fold_patE0NCINvNtB1U_16in_place_collect24write_in_place_with_dropBZ_E0E0B3W_, symObjAddr: 0x3E0C, symBinAddr: 0x48CA8, symSize: 0x118 }
  - { offset: 0x653CE, size: 0x8, addend: 0x0, symName: __RNCINvNtNtNtCsaNl6UpbT7bw_4core4iter8adapters3map12map_try_foldTNtNtCsc29TF2YcYso_3syn3pat3PatNtNtB14_5token2OrEBZ_INtNtNtCsiTraAjBDcu4_5alloc3vec13in_place_drop11InPlaceDropBZ_EINtNtBa_6result6ResultB1P_zENCINvNtB14_10punctuated4foldB10_B1u_NtNvCsiSITA57RZ13_15zerofrom_derive25replace_lifetime_and_type20ReplaceLifetimeAndTyNvYB3S_NtNtNtB14_3gen4fold4Fold8fold_patE0NCINvNtB1U_16in_place_collect24write_in_place_with_dropBZ_E0E0B3W_, symObjAddr: 0x3F24, symBinAddr: 0x48DC0, symSize: 0x118 }
  - { offset: 0x65461, size: 0x8, addend: 0x0, symName: __RNCINvNtNtNtCsaNl6UpbT7bw_4core4iter8adapters3map12map_try_foldTNtNtCsc29TF2YcYso_3syn3pat3PatNtNtB14_5token5CommaEBZ_INtNtNtCsiTraAjBDcu4_5alloc3vec13in_place_drop11InPlaceDropBZ_EINtNtBa_6result6ResultB1S_zENCINvNtB14_10punctuated4foldB10_B1u_NtNvCsiSITA57RZ13_15zerofrom_derive16replace_lifetime15ReplaceLifetimeNvYB3V_NtNtNtB14_3gen4fold4Fold8fold_patE0NCINvNtB1X_16in_place_collect24write_in_place_with_dropBZ_E0E0B3Z_, symObjAddr: 0x403C, symBinAddr: 0x48ED8, symSize: 0x118 }
  - { offset: 0x654F4, size: 0x8, addend: 0x0, symName: __RNCINvNtNtNtCsaNl6UpbT7bw_4core4iter8adapters3map12map_try_foldTNtNtCsc29TF2YcYso_3syn3pat3PatNtNtB14_5token5CommaEBZ_INtNtNtCsiTraAjBDcu4_5alloc3vec13in_place_drop11InPlaceDropBZ_EINtNtBa_6result6ResultB1S_zENCINvNtB14_10punctuated4foldB10_B1u_NtNvCsiSITA57RZ13_15zerofrom_derive25replace_lifetime_and_type20ReplaceLifetimeAndTyNvYB3V_NtNtNtB14_3gen4fold4Fold8fold_patE0NCINvNtB1X_16in_place_collect24write_in_place_with_dropBZ_E0E0B3Z_, symObjAddr: 0x4154, symBinAddr: 0x48FF0, symSize: 0x118 }
  - { offset: 0x65587, size: 0x8, addend: 0x0, symName: __RNCINvNtNtNtCsaNl6UpbT7bw_4core4iter8adapters3map12map_try_foldTNtNtCsc29TF2YcYso_3syn3pat8FieldPatNtNtB14_5token5CommaEBZ_INtNtNtCsiTraAjBDcu4_5alloc3vec13in_place_drop11InPlaceDropBZ_EINtNtBa_6result6ResultB1X_zENCINvNtB14_10punctuated4foldB10_B1z_NtNvCsiSITA57RZ13_15zerofrom_derive16replace_lifetime15ReplaceLifetimeNvYB40_NtNtNtB14_3gen4fold4Fold14fold_field_patE0NCINvNtB22_16in_place_collect24write_in_place_with_dropBZ_E0E0B44_, symObjAddr: 0x426C, symBinAddr: 0x49108, symSize: 0x118 }
  - { offset: 0x6561A, size: 0x8, addend: 0x0, symName: __RNCINvNtNtNtCsaNl6UpbT7bw_4core4iter8adapters3map12map_try_foldTNtNtCsc29TF2YcYso_3syn3pat8FieldPatNtNtB14_5token5CommaEBZ_INtNtNtCsiTraAjBDcu4_5alloc3vec13in_place_drop11InPlaceDropBZ_EINtNtBa_6result6ResultB1X_zENCINvNtB14_10punctuated4foldB10_B1z_NtNvCsiSITA57RZ13_15zerofrom_derive25replace_lifetime_and_type20ReplaceLifetimeAndTyNvYB40_NtNtNtB14_3gen4fold4Fold14fold_field_patE0NCINvNtB22_16in_place_collect24write_in_place_with_dropBZ_E0E0B44_, symObjAddr: 0x4384, symBinAddr: 0x49220, symSize: 0x118 }
  - { offset: 0x656AD, size: 0x8, addend: 0x0, symName: __RNCINvNtNtNtCsaNl6UpbT7bw_4core4iter8adapters3map12map_try_foldTNtNtCsc29TF2YcYso_3syn4data5FieldNtNtB14_5token5CommaEBZ_INtNtNtCsiTraAjBDcu4_5alloc3vec13in_place_drop11InPlaceDropBZ_EINtNtBa_6result6ResultB1V_zENCINvNtB14_10punctuated4foldB10_B1x_NtNvCsiSITA57RZ13_15zerofrom_derive16replace_lifetime15ReplaceLifetimeNvYB3Y_NtNtNtB14_3gen4fold4Fold10fold_fieldE0NCINvNtB20_16in_place_collect24write_in_place_with_dropBZ_E0E0B42_, symObjAddr: 0x449C, symBinAddr: 0x49338, symSize: 0x11C }
  - { offset: 0x65740, size: 0x8, addend: 0x0, symName: __RNCINvNtNtNtCsaNl6UpbT7bw_4core4iter8adapters3map12map_try_foldTNtNtCsc29TF2YcYso_3syn4data5FieldNtNtB14_5token5CommaEBZ_INtNtNtCsiTraAjBDcu4_5alloc3vec13in_place_drop11InPlaceDropBZ_EINtNtBa_6result6ResultB1V_zENCINvNtB14_10punctuated4foldB10_B1x_NtNvCsiSITA57RZ13_15zerofrom_derive25replace_lifetime_and_type20ReplaceLifetimeAndTyNvYB3Y_NtNtNtB14_3gen4fold4Fold10fold_fieldE0NCINvNtB20_16in_place_collect24write_in_place_with_dropBZ_E0E0B42_, symObjAddr: 0x45B8, symBinAddr: 0x49454, symSize: 0x11C }
  - { offset: 0x657D3, size: 0x8, addend: 0x0, symName: __RNCINvNtNtNtCsaNl6UpbT7bw_4core4iter8adapters3map12map_try_foldTNtNtCsc29TF2YcYso_3syn4data7VariantNtNtB14_5token5CommaEBZ_INtNtNtCsiTraAjBDcu4_5alloc3vec13in_place_drop11InPlaceDropBZ_EINtNtBa_6result6ResultB1X_zENCINvNtB14_10punctuated4foldB10_B1z_NtNvCsiSITA57RZ13_15zerofrom_derive16replace_lifetime15ReplaceLifetimeNvYB40_NtNtNtB14_3gen4fold4Fold12fold_variantE0NCINvNtB22_16in_place_collect24write_in_place_with_dropBZ_E0E0B44_, symObjAddr: 0x46D4, symBinAddr: 0x49570, symSize: 0x118 }
  - { offset: 0x65866, size: 0x8, addend: 0x0, symName: __RNCINvNtNtNtCsaNl6UpbT7bw_4core4iter8adapters3map12map_try_foldTNtNtCsc29TF2YcYso_3syn4data7VariantNtNtB14_5token5CommaEBZ_INtNtNtCsiTraAjBDcu4_5alloc3vec13in_place_drop11InPlaceDropBZ_EINtNtBa_6result6ResultB1X_zENCINvNtB14_10punctuated4foldB10_B1z_NtNvCsiSITA57RZ13_15zerofrom_derive25replace_lifetime_and_type20ReplaceLifetimeAndTyNvYB40_NtNtNtB14_3gen4fold4Fold12fold_variantE0NCINvNtB22_16in_place_collect24write_in_place_with_dropBZ_E0E0B44_, symObjAddr: 0x47EC, symBinAddr: 0x49688, symSize: 0x118 }
  - { offset: 0x658F9, size: 0x8, addend: 0x0, symName: __RNCINvNtNtNtCsaNl6UpbT7bw_4core4iter8adapters3map12map_try_foldTNtNtCsc29TF2YcYso_3syn4expr10FieldValueNtNtB14_5token5CommaEBZ_INtNtNtCsiTraAjBDcu4_5alloc3vec13in_place_drop11InPlaceDropBZ_EINtNtBa_6result6ResultB21_zENCINvNtB14_10punctuated4foldB10_B1D_NtNvCsiSITA57RZ13_15zerofrom_derive16replace_lifetime15ReplaceLifetimeNvYB44_NtNtNtB14_3gen4fold4Fold16fold_field_valueE0NCINvNtB26_16in_place_collect24write_in_place_with_dropBZ_E0E0B48_, symObjAddr: 0x4904, symBinAddr: 0x497A0, symSize: 0x118 }
  - { offset: 0x6598C, size: 0x8, addend: 0x0, symName: __RNCINvNtNtNtCsaNl6UpbT7bw_4core4iter8adapters3map12map_try_foldTNtNtCsc29TF2YcYso_3syn4expr10FieldValueNtNtB14_5token5CommaEBZ_INtNtNtCsiTraAjBDcu4_5alloc3vec13in_place_drop11InPlaceDropBZ_EINtNtBa_6result6ResultB21_zENCINvNtB14_10punctuated4foldB10_B1D_NtNvCsiSITA57RZ13_15zerofrom_derive25replace_lifetime_and_type20ReplaceLifetimeAndTyNvYB44_NtNtNtB14_3gen4fold4Fold16fold_field_valueE0NCINvNtB26_16in_place_collect24write_in_place_with_dropBZ_E0E0B48_, symObjAddr: 0x4A1C, symBinAddr: 0x498B8, symSize: 0x118 }
  - { offset: 0x65A1F, size: 0x8, addend: 0x0, symName: __RNCINvNtNtNtCsaNl6UpbT7bw_4core4iter8adapters3map12map_try_foldTNtNtCsc29TF2YcYso_3syn4expr4ExprNtNtB14_5token5CommaEBZ_INtNtNtCsiTraAjBDcu4_5alloc3vec13in_place_drop11InPlaceDropBZ_EINtNtBa_6result6ResultB1U_zENCINvNtB14_10punctuated4foldB10_B1w_NtNvCsiSITA57RZ13_15zerofrom_derive16replace_lifetime15ReplaceLifetimeNvYB3X_NtNtNtB14_3gen4fold4Fold9fold_exprE0NCINvNtB1Z_16in_place_collect24write_in_place_with_dropBZ_E0E0B41_, symObjAddr: 0x4B34, symBinAddr: 0x499D0, symSize: 0x118 }
  - { offset: 0x65AB2, size: 0x8, addend: 0x0, symName: __RNCINvNtNtNtCsaNl6UpbT7bw_4core4iter8adapters3map12map_try_foldTNtNtCsc29TF2YcYso_3syn4expr4ExprNtNtB14_5token5CommaEBZ_INtNtNtCsiTraAjBDcu4_5alloc3vec13in_place_drop11InPlaceDropBZ_EINtNtBa_6result6ResultB1U_zENCINvNtB14_10punctuated4foldB10_B1w_NtNvCsiSITA57RZ13_15zerofrom_derive25replace_lifetime_and_type20ReplaceLifetimeAndTyNvYB3X_NtNtNtB14_3gen4fold4Fold9fold_exprE0NCINvNtB1Z_16in_place_collect24write_in_place_with_dropBZ_E0E0B41_, symObjAddr: 0x4C4C, symBinAddr: 0x49AE8, symSize: 0x118 }
  - { offset: 0x65B45, size: 0x8, addend: 0x0, symName: __RNCINvNtNtNtCsaNl6UpbT7bw_4core4iter8adapters3map12map_try_foldTNtNtCsc29TF2YcYso_3syn4item5FnArgNtNtB14_5token5CommaEBZ_INtNtNtCsiTraAjBDcu4_5alloc3vec13in_place_drop11InPlaceDropBZ_EINtNtBa_6result6ResultB1V_zENCINvNtB14_10punctuated4foldB10_B1x_NtNvCsiSITA57RZ13_15zerofrom_derive16replace_lifetime15ReplaceLifetimeNvYB3Y_NtNtNtB14_3gen4fold4Fold11fold_fn_argE0NCINvNtB20_16in_place_collect24write_in_place_with_dropBZ_E0E0B42_, symObjAddr: 0x4D64, symBinAddr: 0x49C00, symSize: 0x118 }
  - { offset: 0x65BD8, size: 0x8, addend: 0x0, symName: __RNCINvNtNtNtCsaNl6UpbT7bw_4core4iter8adapters3map12map_try_foldTNtNtCsc29TF2YcYso_3syn4item5FnArgNtNtB14_5token5CommaEBZ_INtNtNtCsiTraAjBDcu4_5alloc3vec13in_place_drop11InPlaceDropBZ_EINtNtBa_6result6ResultB1V_zENCINvNtB14_10punctuated4foldB10_B1x_NtNvCsiSITA57RZ13_15zerofrom_derive25replace_lifetime_and_type20ReplaceLifetimeAndTyNvYB3Y_NtNtNtB14_3gen4fold4Fold11fold_fn_argE0NCINvNtB20_16in_place_collect24write_in_place_with_dropBZ_E0E0B42_, symObjAddr: 0x4E7C, symBinAddr: 0x49D18, symSize: 0x118 }
  - { offset: 0x65C6B, size: 0x8, addend: 0x0, symName: __RNCINvNtNtNtCsaNl6UpbT7bw_4core4iter8adapters3map12map_try_foldTNtNtCsc29TF2YcYso_3syn4item7UseTreeNtNtB14_5token5CommaEBZ_INtNtNtCsiTraAjBDcu4_5alloc3vec13in_place_drop11InPlaceDropBZ_EINtNtBa_6result6ResultB1X_zENCINvNtB14_10punctuated4foldB10_B1z_NtNvCsiSITA57RZ13_15zerofrom_derive16replace_lifetime15ReplaceLifetimeNvYB40_NtNtNtB14_3gen4fold4Fold13fold_use_treeE0NCINvNtB22_16in_place_collect24write_in_place_with_dropBZ_E0E0B44_, symObjAddr: 0x4F94, symBinAddr: 0x49E30, symSize: 0x118 }
  - { offset: 0x65CFE, size: 0x8, addend: 0x0, symName: __RNCINvNtNtNtCsaNl6UpbT7bw_4core4iter8adapters3map12map_try_foldTNtNtCsc29TF2YcYso_3syn4item7UseTreeNtNtB14_5token5CommaEBZ_INtNtNtCsiTraAjBDcu4_5alloc3vec13in_place_drop11InPlaceDropBZ_EINtNtBa_6result6ResultB1X_zENCINvNtB14_10punctuated4foldB10_B1z_NtNvCsiSITA57RZ13_15zerofrom_derive25replace_lifetime_and_type20ReplaceLifetimeAndTyNvYB40_NtNtNtB14_3gen4fold4Fold13fold_use_treeE0NCINvNtB22_16in_place_collect24write_in_place_with_dropBZ_E0E0B44_, symObjAddr: 0x50AC, symBinAddr: 0x49F48, symSize: 0x118 }
  - { offset: 0x65D91, size: 0x8, addend: 0x0, symName: __RNCINvNtNtNtCsaNl6UpbT7bw_4core4iter8adapters3map12map_try_foldTNtNtCsc29TF2YcYso_3syn4path11PathSegmentNtNtB14_5token7PathSepEBZ_INtNtNtCsiTraAjBDcu4_5alloc3vec13in_place_drop11InPlaceDropBZ_EINtNtBa_6result6ResultB24_zENCINvNtB14_10punctuated4foldB10_B1E_NtNvCsiSITA57RZ13_15zerofrom_derive16replace_lifetime15ReplaceLifetimeNvYB47_NtNtNtB14_3gen4fold4Fold17fold_path_segmentE0NCINvNtB29_16in_place_collect24write_in_place_with_dropBZ_E0E0B4b_, symObjAddr: 0x51C4, symBinAddr: 0x4A060, symSize: 0x118 }
  - { offset: 0x65E24, size: 0x8, addend: 0x0, symName: __RNCINvNtNtNtCsaNl6UpbT7bw_4core4iter8adapters3map12map_try_foldTNtNtCsc29TF2YcYso_3syn4path11PathSegmentNtNtB14_5token7PathSepEBZ_INtNtNtCsiTraAjBDcu4_5alloc3vec13in_place_drop11InPlaceDropBZ_EINtNtBa_6result6ResultB24_zENCINvNtB14_10punctuated4foldB10_B1E_NtNvCsiSITA57RZ13_15zerofrom_derive25replace_lifetime_and_type20ReplaceLifetimeAndTyNvYB47_NtNtNtB14_3gen4fold4Fold17fold_path_segmentE0NCINvNtB29_16in_place_collect24write_in_place_with_dropBZ_E0E0B4b_, symObjAddr: 0x52DC, symBinAddr: 0x4A178, symSize: 0x118 }
  - { offset: 0x65EB7, size: 0x8, addend: 0x0, symName: __RNCINvNtNtNtCsaNl6UpbT7bw_4core4iter8adapters3map12map_try_foldTNtNtCsc29TF2YcYso_3syn4path15GenericArgumentNtNtB14_5token5CommaEBZ_INtNtNtCsiTraAjBDcu4_5alloc3vec13in_place_drop11InPlaceDropBZ_EINtNtBa_6result6ResultB26_zENCINvNtB14_10punctuated4foldB10_B1I_NtNvCsiSITA57RZ13_15zerofrom_derive16replace_lifetime15ReplaceLifetimeNvYB49_NtNtNtB14_3gen4fold4Fold21fold_generic_argumentE0NCINvNtB2b_16in_place_collect24write_in_place_with_dropBZ_E0E0B4d_, symObjAddr: 0x53F4, symBinAddr: 0x4A290, symSize: 0x11C }
  - { offset: 0x65F4A, size: 0x8, addend: 0x0, symName: __RNCINvNtNtNtCsaNl6UpbT7bw_4core4iter8adapters3map12map_try_foldTNtNtCsc29TF2YcYso_3syn4path15GenericArgumentNtNtB14_5token5CommaEBZ_INtNtNtCsiTraAjBDcu4_5alloc3vec13in_place_drop11InPlaceDropBZ_EINtNtBa_6result6ResultB26_zENCINvNtB14_10punctuated4foldB10_B1I_NtNvCsiSITA57RZ13_15zerofrom_derive25replace_lifetime_and_type20ReplaceLifetimeAndTyNvYB49_NtNtNtB14_3gen4fold4Fold21fold_generic_argumentE0NCINvNtB2b_16in_place_collect24write_in_place_with_dropBZ_E0E0B4d_, symObjAddr: 0x5510, symBinAddr: 0x4A3AC, symSize: 0x11C }
  - { offset: 0x65FDD, size: 0x8, addend: 0x0, symName: __RNCINvNtNtNtCsaNl6UpbT7bw_4core4iter8adapters3map12map_try_foldTNtNtCsc29TF2YcYso_3syn8generics12GenericParamNtNtB14_5token5CommaEBZ_INtNtNtCsiTraAjBDcu4_5alloc3vec13in_place_drop11InPlaceDropBZ_EINtNtBa_6result6ResultB27_zENCINvNtB14_10punctuated4foldB10_B1J_NtNvCsiSITA57RZ13_15zerofrom_derive16replace_lifetime15ReplaceLifetimeNvYB4a_NtNtNtB14_3gen4fold4Fold18fold_generic_paramE0NCINvNtB2c_16in_place_collect24write_in_place_with_dropBZ_E0E0B4e_, symObjAddr: 0x562C, symBinAddr: 0x4A4C8, symSize: 0x11C }
  - { offset: 0x66070, size: 0x8, addend: 0x0, symName: __RNCINvNtNtNtCsaNl6UpbT7bw_4core4iter8adapters3map12map_try_foldTNtNtCsc29TF2YcYso_3syn8generics12GenericParamNtNtB14_5token5CommaEBZ_INtNtNtCsiTraAjBDcu4_5alloc3vec13in_place_drop11InPlaceDropBZ_EINtNtBa_6result6ResultB27_zENCINvNtB14_10punctuated4foldB10_B1J_NtNvCsiSITA57RZ13_15zerofrom_derive25replace_lifetime_and_type20ReplaceLifetimeAndTyNvYB4a_NtNtNtB14_3gen4fold4Fold18fold_generic_paramE0NCINvNtB2c_16in_place_collect24write_in_place_with_dropBZ_E0E0B4e_, symObjAddr: 0x5748, symBinAddr: 0x4A5E4, symSize: 0x11C }
  - { offset: 0x66103, size: 0x8, addend: 0x0, symName: __RNCINvNtNtNtCsaNl6UpbT7bw_4core4iter8adapters3map12map_try_foldTNtNtCsc29TF2YcYso_3syn8generics13CapturedParamNtNtB14_5token5CommaEBZ_INtNtNtCsiTraAjBDcu4_5alloc3vec13in_place_drop11InPlaceDropBZ_EINtNtBa_6result6ResultB28_zENCINvNtB14_10punctuated4foldB10_B1K_NtNvCsiSITA57RZ13_15zerofrom_derive16replace_lifetime15ReplaceLifetimeNvYB4b_NtNtNtB14_3gen4fold4Fold19fold_captured_paramE0NCINvNtB2d_16in_place_collect24write_in_place_with_dropBZ_E0E0B4f_, symObjAddr: 0x5864, symBinAddr: 0x4A700, symSize: 0x118 }
  - { offset: 0x66196, size: 0x8, addend: 0x0, symName: __RNCINvNtNtNtCsaNl6UpbT7bw_4core4iter8adapters3map12map_try_foldTNtNtCsc29TF2YcYso_3syn8generics13CapturedParamNtNtB14_5token5CommaEBZ_INtNtNtCsiTraAjBDcu4_5alloc3vec13in_place_drop11InPlaceDropBZ_EINtNtBa_6result6ResultB28_zENCINvNtB14_10punctuated4foldB10_B1K_NtNvCsiSITA57RZ13_15zerofrom_derive25replace_lifetime_and_type20ReplaceLifetimeAndTyNvYB4b_NtNtNtB14_3gen4fold4Fold19fold_captured_paramE0NCINvNtB2d_16in_place_collect24write_in_place_with_dropBZ_E0E0B4f_, symObjAddr: 0x597C, symBinAddr: 0x4A818, symSize: 0x118 }
  - { offset: 0x66229, size: 0x8, addend: 0x0, symName: __RNCINvNtNtNtCsaNl6UpbT7bw_4core4iter8adapters3map12map_try_foldTNtNtCsc29TF2YcYso_3syn8generics14TypeParamBoundNtNtB14_5token4PlusEBZ_INtNtNtCsiTraAjBDcu4_5alloc3vec13in_place_drop11InPlaceDropBZ_EINtNtBa_6result6ResultB28_zENCINvNtB14_10punctuated4foldB10_B1L_NtNvCsiSITA57RZ13_15zerofrom_derive16replace_lifetime15ReplaceLifetimeNvYB4b_NtNtNtB14_3gen4fold4Fold21fold_type_param_boundE0NCINvNtB2d_16in_place_collect24write_in_place_with_dropBZ_E0E0B4f_, symObjAddr: 0x5A94, symBinAddr: 0x4A930, symSize: 0x118 }
  - { offset: 0x662BC, size: 0x8, addend: 0x0, symName: __RNCINvNtNtNtCsaNl6UpbT7bw_4core4iter8adapters3map12map_try_foldTNtNtCsc29TF2YcYso_3syn8generics14TypeParamBoundNtNtB14_5token4PlusEBZ_INtNtNtCsiTraAjBDcu4_5alloc3vec13in_place_drop11InPlaceDropBZ_EINtNtBa_6result6ResultB28_zENCINvNtB14_10punctuated4foldB10_B1L_NtNvCsiSITA57RZ13_15zerofrom_derive25replace_lifetime_and_type20ReplaceLifetimeAndTyNvYB4b_NtNtNtB14_3gen4fold4Fold21fold_type_param_boundE0NCINvNtB2d_16in_place_collect24write_in_place_with_dropBZ_E0E0B4f_, symObjAddr: 0x5BAC, symBinAddr: 0x4AA48, symSize: 0x118 }
  - { offset: 0x6634F, size: 0x8, addend: 0x0, symName: __RNCINvNtNtNtCsaNl6UpbT7bw_4core4iter8adapters3map12map_try_foldTNtNtCsc29TF2YcYso_3syn8generics14WherePredicateNtNtB14_5token5CommaEBZ_INtNtNtCsiTraAjBDcu4_5alloc3vec13in_place_drop11InPlaceDropBZ_EINtNtBa_6result6ResultB29_zENCINvNtB14_10punctuated4foldB10_B1L_NtNvCsiSITA57RZ13_15zerofrom_derive16replace_lifetime15ReplaceLifetimeNvYB4c_NtNtNtB14_3gen4fold4Fold20fold_where_predicateE0NCINvNtB2e_16in_place_collect24write_in_place_with_dropBZ_E0E0B4g_, symObjAddr: 0x5CC4, symBinAddr: 0x4AB60, symSize: 0x11C }
  - { offset: 0x663E2, size: 0x8, addend: 0x0, symName: __RNCINvNtNtNtCsaNl6UpbT7bw_4core4iter8adapters3map12map_try_foldTNtNtCsc29TF2YcYso_3syn8generics14WherePredicateNtNtB14_5token5CommaEBZ_INtNtNtCsiTraAjBDcu4_5alloc3vec13in_place_drop11InPlaceDropBZ_EINtNtBa_6result6ResultB29_zENCINvNtB14_10punctuated4foldB10_B1L_NtNvCsiSITA57RZ13_15zerofrom_derive25replace_lifetime_and_type20ReplaceLifetimeAndTyNvYB4c_NtNtNtB14_3gen4fold4Fold20fold_where_predicateE0NCINvNtB2e_16in_place_collect24write_in_place_with_dropBZ_E0E0B4g_, symObjAddr: 0x5DE0, symBinAddr: 0x4AC7C, symSize: 0x11C }
  - { offset: 0x66475, size: 0x8, addend: 0x0, symName: __RNCINvNtNtNtCsaNl6UpbT7bw_4core4iter8adapters3map12map_try_foldTNtNtCsc29TF2YcYso_3syn8lifetime8LifetimeNtNtB14_5token4PlusEBZ_INtNtNtCsiTraAjBDcu4_5alloc3vec13in_place_drop11InPlaceDropBZ_EINtNtBa_6result6ResultB21_zENCINvNtB14_10punctuated4foldB10_B1E_NtNvCsiSITA57RZ13_15zerofrom_derive16replace_lifetime15ReplaceLifetimeNvYB44_NtNtNtB14_3gen4fold4Fold13fold_lifetimeE0NCINvNtB26_16in_place_collect24write_in_place_with_dropBZ_E0E0B48_, symObjAddr: 0x5EFC, symBinAddr: 0x4AD98, symSize: 0x118 }
  - { offset: 0x66508, size: 0x8, addend: 0x0, symName: __RNCINvNtNtNtCsaNl6UpbT7bw_4core4iter8adapters3map12map_try_foldTNtNtCsc29TF2YcYso_3syn8lifetime8LifetimeNtNtB14_5token4PlusEBZ_INtNtNtCsiTraAjBDcu4_5alloc3vec13in_place_drop11InPlaceDropBZ_EINtNtBa_6result6ResultB21_zENCINvNtB14_10punctuated4foldB10_B1E_NtNvCsiSITA57RZ13_15zerofrom_derive25replace_lifetime_and_type20ReplaceLifetimeAndTyNvYB44_NtNtNtB14_3gen4fold4Fold13fold_lifetimeE0NCINvNtB26_16in_place_collect24write_in_place_with_dropBZ_E0E0B48_, symObjAddr: 0x6014, symBinAddr: 0x4AEB0, symSize: 0x118 }
  - { offset: 0x6664F, size: 0x8, addend: 0x0, symName: __RNCINvNtNtNtCsaNl6UpbT7bw_4core4iter8adapters3map8map_foldNtCshnvkK9b4wzu_11proc_macro25IdentTBU_uEuNCINvXs8_NtCsg4dki62PTrg_9hashbrown3setINtB1J_7HashSetBU_NtNtNtCsht3nMU9UgFu_3std4hash6random11RandomStateEINtNtNtB8_6traits7collect6ExtendBU_E6extendINtNtCsc29TF2YcYso_3syn10punctuated10PunctuatedBU_NtNtB45_5token5CommaEE0NCINvNvNtNtB3o_8iterator8Iterator8for_each4callB1t_NCINvXs1i_NtB1L_3mapINtB6a_7HashMapBU_uB2v_EIB3k_B1t_E6extendINtB4_3MapINtB43_8IntoIterBU_EB1A_EE0E0E0CsiSITA57RZ13_15zerofrom_derive, symObjAddr: 0x612C, symBinAddr: 0x4AFC8, symSize: 0x9C }
  - { offset: 0x666D5, size: 0x8, addend: 0x0, symName: __RNCINvNtNtNtCsaNl6UpbT7bw_4core4iter8adapters3map8map_foldQNtNtCsc29TF2YcYso_3syn8generics9TypeParamTNtCshnvkK9b4wzu_11proc_macro25IdentINtNtBa_6option6OptionB1B_EEuNCNvCsiSITA57RZ13_15zerofrom_derive14zf_derive_impls0_0NCINvNvNtNtNtB8_6traits8iterator8Iterator8for_each4callB1A_NCINvXs1i_NtCsg4dki62PTrg_9hashbrown3mapINtB4D_7HashMapB1B_B2a_NtNtNtCsht3nMU9UgFu_3std4hash6random11RandomStateEINtNtB3H_7collect6ExtendB1A_E6extendINtB4_3MapINtNtNtBa_5slice4iter7IterMutBV_EB2D_EE0E0E0B2H_, symObjAddr: 0x61C8, symBinAddr: 0x4B064, symSize: 0x94 }
  - { offset: 0x6675A, size: 0x8, addend: 0x0, symName: __RNCINvNtNtNtCsaNl6UpbT7bw_4core4iter8adapters3map8map_foldRNtCshnvkK9b4wzu_11proc_macro25IdentNtNtCsc29TF2YcYso_3syn8generics14WherePredicateuNCNvCsiSITA57RZ13_15zerofrom_derive14zf_derive_impls4_0NCINvNvNtNtNtB8_6traits8iterator8Iterator8for_each4callB1u_NCINvMsi_NtCsiTraAjBDcu4_5alloc3vecINtB4f_3VecB1u_E14extend_trustedINtB4_3MapINtNtNtBa_5slice4iter4IterBV_EB2g_EE0E0E0B2k_, symObjAddr: 0x625C, symBinAddr: 0x4B0F8, symSize: 0x9C }
  - { offset: 0x667DF, size: 0x8, addend: 0x0, symName: __RNCINvNtNtNtCsaNl6UpbT7bw_4core4iter8adapters3map8map_foldRNtNtCsc29TF2YcYso_3syn8generics9TypeParamNtCshnvkK9b4wzu_11proc_macro25IdentuNCNvCsiSITA57RZ13_15zerofrom_derive14zf_derive_impls_0NCINvNvNtNtNtB8_6traits8iterator8Iterator8for_each4callB1A_NCINvMsi_NtCsiTraAjBDcu4_5alloc3vecINtB48_3VecB1A_E14extend_trustedINtB4_3MapINtNtNtBa_5slice4iter4IterBV_EB2a_EE0E0E0B2e_, symObjAddr: 0x62F8, symBinAddr: 0x4B194, symSize: 0x8C }
  - { offset: 0x66864, size: 0x8, addend: 0x0, symName: __RNCINvNtNtNtCsaNl6UpbT7bw_4core4iter8adapters3map8map_foldTNtCshnvkK9b4wzu_11proc_macro25IdentNtNtCsc29TF2YcYso_3syn5token5CommaEBV_uNCNvXs8_NtB1y_10punctuatedINtB2f_10PunctuatedBV_B1u_ENtNtNtB8_6traits7collect12IntoIterator9into_iter0NCINvNvNtNtB32_8iterator8Iterator8for_each4callBV_NCINvMsi_NtCsiTraAjBDcu4_5alloc3vecINtB4I_3VecBV_E14extend_trustedINtB4_3MapINtNtB4I_9into_iter8IntoIterBU_EB27_EE0E0E0CsiSITA57RZ13_15zerofrom_derive, symObjAddr: 0x6384, symBinAddr: 0x4B220, symSize: 0x9C }
  - { offset: 0x66998, size: 0x8, addend: 0x0, symName: __RNvXs9_NtNtNtCsaNl6UpbT7bw_4core4iter8adapters3mapINtB5_3MapINtNtNtCsiTraAjBDcu4_5alloc3vec9into_iter8IntoIterNtNtCsc29TF2YcYso_3syn4attr9AttributeENCINvNtNtB1O_3gen4fold8fold_vecB1K_NtNvCsiSITA57RZ13_15zerofrom_derive16replace_lifetime15ReplaceLifetimeNvYB2V_NtB2r_4Fold14fold_attributeE0ENtB7_10SourceIter8as_innerB2Z_, symObjAddr: 0x9828, symBinAddr: 0x4E6C4, symSize: 0x24 }
  - { offset: 0x669D6, size: 0x8, addend: 0x0, symName: __RNvXs9_NtNtNtCsaNl6UpbT7bw_4core4iter8adapters3mapINtB5_3MapINtNtNtCsiTraAjBDcu4_5alloc3vec9into_iter8IntoIterNtNtCsc29TF2YcYso_3syn4attr9AttributeENCINvNtNtB1O_3gen4fold8fold_vecB1K_NtNvCsiSITA57RZ13_15zerofrom_derive25replace_lifetime_and_type20ReplaceLifetimeAndTyNvYB2V_NtB2r_4Fold14fold_attributeE0ENtB7_10SourceIter8as_innerB2Z_, symObjAddr: 0x984C, symBinAddr: 0x4E6E8, symSize: 0x24 }
  - { offset: 0x66A14, size: 0x8, addend: 0x0, symName: __RNvXs9_NtNtNtCsaNl6UpbT7bw_4core4iter8adapters3mapINtB5_3MapINtNtNtCsiTraAjBDcu4_5alloc3vec9into_iter8IntoIterNtNtCsc29TF2YcYso_3syn4expr3ArmENCINvNtNtB1O_3gen4fold8fold_vecB1K_NtNvCsiSITA57RZ13_15zerofrom_derive16replace_lifetime15ReplaceLifetimeNvYB2P_NtB2l_4Fold8fold_armE0ENtB7_10SourceIter8as_innerB2T_, symObjAddr: 0x9870, symBinAddr: 0x4E70C, symSize: 0x24 }
  - { offset: 0x66A52, size: 0x8, addend: 0x0, symName: __RNvXs9_NtNtNtCsaNl6UpbT7bw_4core4iter8adapters3mapINtB5_3MapINtNtNtCsiTraAjBDcu4_5alloc3vec9into_iter8IntoIterNtNtCsc29TF2YcYso_3syn4expr3ArmENCINvNtNtB1O_3gen4fold8fold_vecB1K_NtNvCsiSITA57RZ13_15zerofrom_derive25replace_lifetime_and_type20ReplaceLifetimeAndTyNvYB2P_NtB2l_4Fold8fold_armE0ENtB7_10SourceIter8as_innerB2T_, symObjAddr: 0x9894, symBinAddr: 0x4E730, symSize: 0x24 }
  - { offset: 0x66A90, size: 0x8, addend: 0x0, symName: __RNvXs9_NtNtNtCsaNl6UpbT7bw_4core4iter8adapters3mapINtB5_3MapINtNtNtCsiTraAjBDcu4_5alloc3vec9into_iter8IntoIterNtNtCsc29TF2YcYso_3syn4item11ForeignItemENCINvNtNtB1O_3gen4fold8fold_vecB1K_NtNvCsiSITA57RZ13_15zerofrom_derive16replace_lifetime15ReplaceLifetimeNvYB2Y_NtB2u_4Fold17fold_foreign_itemE0ENtB7_10SourceIter8as_innerB32_, symObjAddr: 0x98B8, symBinAddr: 0x4E754, symSize: 0x24 }
  - { offset: 0x66ACE, size: 0x8, addend: 0x0, symName: __RNvXs9_NtNtNtCsaNl6UpbT7bw_4core4iter8adapters3mapINtB5_3MapINtNtNtCsiTraAjBDcu4_5alloc3vec9into_iter8IntoIterNtNtCsc29TF2YcYso_3syn4item11ForeignItemENCINvNtNtB1O_3gen4fold8fold_vecB1K_NtNvCsiSITA57RZ13_15zerofrom_derive25replace_lifetime_and_type20ReplaceLifetimeAndTyNvYB2Y_NtB2u_4Fold17fold_foreign_itemE0ENtB7_10SourceIter8as_innerB32_, symObjAddr: 0x98DC, symBinAddr: 0x4E778, symSize: 0x24 }
  - { offset: 0x66B0C, size: 0x8, addend: 0x0, symName: __RNvXs9_NtNtNtCsaNl6UpbT7bw_4core4iter8adapters3mapINtB5_3MapINtNtNtCsiTraAjBDcu4_5alloc3vec9into_iter8IntoIterNtNtCsc29TF2YcYso_3syn4item4ItemENCINvNtNtB1O_3gen4fold8fold_vecB1K_NtNvCsiSITA57RZ13_15zerofrom_derive16replace_lifetime15ReplaceLifetimeNvYB2Q_NtB2m_4Fold9fold_itemE0ENtB7_10SourceIter8as_innerB2U_, symObjAddr: 0x9900, symBinAddr: 0x4E79C, symSize: 0x24 }
  - { offset: 0x66B4A, size: 0x8, addend: 0x0, symName: __RNvXs9_NtNtNtCsaNl6UpbT7bw_4core4iter8adapters3mapINtB5_3MapINtNtNtCsiTraAjBDcu4_5alloc3vec9into_iter8IntoIterNtNtCsc29TF2YcYso_3syn4item4ItemENCINvNtNtB1O_3gen4fold8fold_vecB1K_NtNvCsiSITA57RZ13_15zerofrom_derive25replace_lifetime_and_type20ReplaceLifetimeAndTyNvYB2Q_NtB2m_4Fold9fold_itemE0ENtB7_10SourceIter8as_innerB2U_, symObjAddr: 0x9924, symBinAddr: 0x4E7C0, symSize: 0x24 }
  - { offset: 0x66B88, size: 0x8, addend: 0x0, symName: __RNvXs9_NtNtNtCsaNl6UpbT7bw_4core4iter8adapters3mapINtB5_3MapINtNtNtCsiTraAjBDcu4_5alloc3vec9into_iter8IntoIterNtNtCsc29TF2YcYso_3syn4item8ImplItemENCINvNtNtB1O_3gen4fold8fold_vecB1K_NtNvCsiSITA57RZ13_15zerofrom_derive16replace_lifetime15ReplaceLifetimeNvYB2U_NtB2q_4Fold14fold_impl_itemE0ENtB7_10SourceIter8as_innerB2Y_, symObjAddr: 0x9948, symBinAddr: 0x4E7E4, symSize: 0x24 }
  - { offset: 0x66BC6, size: 0x8, addend: 0x0, symName: __RNvXs9_NtNtNtCsaNl6UpbT7bw_4core4iter8adapters3mapINtB5_3MapINtNtNtCsiTraAjBDcu4_5alloc3vec9into_iter8IntoIterNtNtCsc29TF2YcYso_3syn4item8ImplItemENCINvNtNtB1O_3gen4fold8fold_vecB1K_NtNvCsiSITA57RZ13_15zerofrom_derive25replace_lifetime_and_type20ReplaceLifetimeAndTyNvYB2U_NtB2q_4Fold14fold_impl_itemE0ENtB7_10SourceIter8as_innerB2Y_, symObjAddr: 0x996C, symBinAddr: 0x4E808, symSize: 0x24 }
  - { offset: 0x66C04, size: 0x8, addend: 0x0, symName: __RNvXs9_NtNtNtCsaNl6UpbT7bw_4core4iter8adapters3mapINtB5_3MapINtNtNtCsiTraAjBDcu4_5alloc3vec9into_iter8IntoIterNtNtCsc29TF2YcYso_3syn4item9TraitItemENCINvNtNtB1O_3gen4fold8fold_vecB1K_NtNvCsiSITA57RZ13_15zerofrom_derive16replace_lifetime15ReplaceLifetimeNvYB2V_NtB2r_4Fold15fold_trait_itemE0ENtB7_10SourceIter8as_innerB2Z_, symObjAddr: 0x9990, symBinAddr: 0x4E82C, symSize: 0x24 }
  - { offset: 0x66C42, size: 0x8, addend: 0x0, symName: __RNvXs9_NtNtNtCsaNl6UpbT7bw_4core4iter8adapters3mapINtB5_3MapINtNtNtCsiTraAjBDcu4_5alloc3vec9into_iter8IntoIterNtNtCsc29TF2YcYso_3syn4item9TraitItemENCINvNtNtB1O_3gen4fold8fold_vecB1K_NtNvCsiSITA57RZ13_15zerofrom_derive25replace_lifetime_and_type20ReplaceLifetimeAndTyNvYB2V_NtB2r_4Fold15fold_trait_itemE0ENtB7_10SourceIter8as_innerB2Z_, symObjAddr: 0x99B4, symBinAddr: 0x4E850, symSize: 0x24 }
  - { offset: 0x66C80, size: 0x8, addend: 0x0, symName: __RNvXs9_NtNtNtCsaNl6UpbT7bw_4core4iter8adapters3mapINtB5_3MapINtNtNtCsiTraAjBDcu4_5alloc3vec9into_iter8IntoIterNtNtCsc29TF2YcYso_3syn4stmt4StmtENCINvNtNtB1O_3gen4fold8fold_vecB1K_NtNvCsiSITA57RZ13_15zerofrom_derive16replace_lifetime15ReplaceLifetimeNvYB2Q_NtB2m_4Fold9fold_stmtE0ENtB7_10SourceIter8as_innerB2U_, symObjAddr: 0x99D8, symBinAddr: 0x4E874, symSize: 0x24 }
  - { offset: 0x66CBE, size: 0x8, addend: 0x0, symName: __RNvXs9_NtNtNtCsaNl6UpbT7bw_4core4iter8adapters3mapINtB5_3MapINtNtNtCsiTraAjBDcu4_5alloc3vec9into_iter8IntoIterNtNtCsc29TF2YcYso_3syn4stmt4StmtENCINvNtNtB1O_3gen4fold8fold_vecB1K_NtNvCsiSITA57RZ13_15zerofrom_derive25replace_lifetime_and_type20ReplaceLifetimeAndTyNvYB2Q_NtB2m_4Fold9fold_stmtE0ENtB7_10SourceIter8as_innerB2U_, symObjAddr: 0x99FC, symBinAddr: 0x4E898, symSize: 0x24 }
  - { offset: 0x66CFC, size: 0x8, addend: 0x0, symName: __RNvXs9_NtNtNtCsaNl6UpbT7bw_4core4iter8adapters3mapINtB5_3MapINtNtNtCsiTraAjBDcu4_5alloc3vec9into_iter8IntoIterTNtNtCsc29TF2YcYso_3syn2ty4TypeNtNtB1P_5token5CommaEENCINvNtB1P_10punctuated4foldB1L_B2f_NtNvCsiSITA57RZ13_15zerofrom_derive16replace_lifetime15ReplaceLifetimeNvYB3b_NtNtNtB1P_3gen4fold4Fold9fold_typeE0ENtB7_10SourceIter8as_innerB3f_, symObjAddr: 0x9A20, symBinAddr: 0x4E8BC, symSize: 0x24 }
  - { offset: 0x66D3A, size: 0x8, addend: 0x0, symName: __RNvXs9_NtNtNtCsaNl6UpbT7bw_4core4iter8adapters3mapINtB5_3MapINtNtNtCsiTraAjBDcu4_5alloc3vec9into_iter8IntoIterTNtNtCsc29TF2YcYso_3syn2ty4TypeNtNtB1P_5token5CommaEENCINvNtB1P_10punctuated4foldB1L_B2f_NtNvCsiSITA57RZ13_15zerofrom_derive25replace_lifetime_and_type20ReplaceLifetimeAndTyNvYB3b_NtNtNtB1P_3gen4fold4Fold9fold_typeE0ENtB7_10SourceIter8as_innerB3f_, symObjAddr: 0x9A44, symBinAddr: 0x4E8E0, symSize: 0x24 }
  - { offset: 0x66D78, size: 0x8, addend: 0x0, symName: __RNvXs9_NtNtNtCsaNl6UpbT7bw_4core4iter8adapters3mapINtB5_3MapINtNtNtCsiTraAjBDcu4_5alloc3vec9into_iter8IntoIterTNtNtCsc29TF2YcYso_3syn2ty9BareFnArgNtNtB1P_5token5CommaEENCINvNtB1P_10punctuated4foldB1L_B2k_NtNvCsiSITA57RZ13_15zerofrom_derive16replace_lifetime15ReplaceLifetimeNvYB3g_NtNtNtB1P_3gen4fold4Fold16fold_bare_fn_argE0ENtB7_10SourceIter8as_innerB3k_, symObjAddr: 0x9A68, symBinAddr: 0x4E904, symSize: 0x24 }
  - { offset: 0x66DB6, size: 0x8, addend: 0x0, symName: __RNvXs9_NtNtNtCsaNl6UpbT7bw_4core4iter8adapters3mapINtB5_3MapINtNtNtCsiTraAjBDcu4_5alloc3vec9into_iter8IntoIterTNtNtCsc29TF2YcYso_3syn2ty9BareFnArgNtNtB1P_5token5CommaEENCINvNtB1P_10punctuated4foldB1L_B2k_NtNvCsiSITA57RZ13_15zerofrom_derive25replace_lifetime_and_type20ReplaceLifetimeAndTyNvYB3g_NtNtNtB1P_3gen4fold4Fold16fold_bare_fn_argE0ENtB7_10SourceIter8as_innerB3k_, symObjAddr: 0x9A8C, symBinAddr: 0x4E928, symSize: 0x24 }
  - { offset: 0x66DF4, size: 0x8, addend: 0x0, symName: __RNvXs9_NtNtNtCsaNl6UpbT7bw_4core4iter8adapters3mapINtB5_3MapINtNtNtCsiTraAjBDcu4_5alloc3vec9into_iter8IntoIterTNtNtCsc29TF2YcYso_3syn3pat3PatNtNtB1P_5token2OrEENCINvNtB1P_10punctuated4foldB1L_B2f_NtNvCsiSITA57RZ13_15zerofrom_derive16replace_lifetime15ReplaceLifetimeNvYB38_NtNtNtB1P_3gen4fold4Fold8fold_patE0ENtB7_10SourceIter8as_innerB3c_, symObjAddr: 0x9AB0, symBinAddr: 0x4E94C, symSize: 0x24 }
  - { offset: 0x66E32, size: 0x8, addend: 0x0, symName: __RNvXs9_NtNtNtCsaNl6UpbT7bw_4core4iter8adapters3mapINtB5_3MapINtNtNtCsiTraAjBDcu4_5alloc3vec9into_iter8IntoIterTNtNtCsc29TF2YcYso_3syn3pat3PatNtNtB1P_5token2OrEENCINvNtB1P_10punctuated4foldB1L_B2f_NtNvCsiSITA57RZ13_15zerofrom_derive25replace_lifetime_and_type20ReplaceLifetimeAndTyNvYB38_NtNtNtB1P_3gen4fold4Fold8fold_patE0ENtB7_10SourceIter8as_innerB3c_, symObjAddr: 0x9AD4, symBinAddr: 0x4E970, symSize: 0x24 }
  - { offset: 0x66E70, size: 0x8, addend: 0x0, symName: __RNvXs9_NtNtNtCsaNl6UpbT7bw_4core4iter8adapters3mapINtB5_3MapINtNtNtCsiTraAjBDcu4_5alloc3vec9into_iter8IntoIterTNtNtCsc29TF2YcYso_3syn3pat3PatNtNtB1P_5token5CommaEENCINvNtB1P_10punctuated4foldB1L_B2f_NtNvCsiSITA57RZ13_15zerofrom_derive16replace_lifetime15ReplaceLifetimeNvYB3b_NtNtNtB1P_3gen4fold4Fold8fold_patE0ENtB7_10SourceIter8as_innerB3f_, symObjAddr: 0x9AF8, symBinAddr: 0x4E994, symSize: 0x24 }
  - { offset: 0x66EAE, size: 0x8, addend: 0x0, symName: __RNvXs9_NtNtNtCsaNl6UpbT7bw_4core4iter8adapters3mapINtB5_3MapINtNtNtCsiTraAjBDcu4_5alloc3vec9into_iter8IntoIterTNtNtCsc29TF2YcYso_3syn3pat3PatNtNtB1P_5token5CommaEENCINvNtB1P_10punctuated4foldB1L_B2f_NtNvCsiSITA57RZ13_15zerofrom_derive25replace_lifetime_and_type20ReplaceLifetimeAndTyNvYB3b_NtNtNtB1P_3gen4fold4Fold8fold_patE0ENtB7_10SourceIter8as_innerB3f_, symObjAddr: 0x9B1C, symBinAddr: 0x4E9B8, symSize: 0x24 }
  - { offset: 0x66EEC, size: 0x8, addend: 0x0, symName: __RNvXs9_NtNtNtCsaNl6UpbT7bw_4core4iter8adapters3mapINtB5_3MapINtNtNtCsiTraAjBDcu4_5alloc3vec9into_iter8IntoIterTNtNtCsc29TF2YcYso_3syn3pat8FieldPatNtNtB1P_5token5CommaEENCINvNtB1P_10punctuated4foldB1L_B2k_NtNvCsiSITA57RZ13_15zerofrom_derive16replace_lifetime15ReplaceLifetimeNvYB3g_NtNtNtB1P_3gen4fold4Fold14fold_field_patE0ENtB7_10SourceIter8as_innerB3k_, symObjAddr: 0x9B40, symBinAddr: 0x4E9DC, symSize: 0x24 }
  - { offset: 0x66F2A, size: 0x8, addend: 0x0, symName: __RNvXs9_NtNtNtCsaNl6UpbT7bw_4core4iter8adapters3mapINtB5_3MapINtNtNtCsiTraAjBDcu4_5alloc3vec9into_iter8IntoIterTNtNtCsc29TF2YcYso_3syn3pat8FieldPatNtNtB1P_5token5CommaEENCINvNtB1P_10punctuated4foldB1L_B2k_NtNvCsiSITA57RZ13_15zerofrom_derive25replace_lifetime_and_type20ReplaceLifetimeAndTyNvYB3g_NtNtNtB1P_3gen4fold4Fold14fold_field_patE0ENtB7_10SourceIter8as_innerB3k_, symObjAddr: 0x9B64, symBinAddr: 0x4EA00, symSize: 0x24 }
  - { offset: 0x66F68, size: 0x8, addend: 0x0, symName: __RNvXs9_NtNtNtCsaNl6UpbT7bw_4core4iter8adapters3mapINtB5_3MapINtNtNtCsiTraAjBDcu4_5alloc3vec9into_iter8IntoIterTNtNtCsc29TF2YcYso_3syn4data5FieldNtNtB1P_5token5CommaEENCINvNtB1P_10punctuated4foldB1L_B2i_NtNvCsiSITA57RZ13_15zerofrom_derive16replace_lifetime15ReplaceLifetimeNvYB3e_NtNtNtB1P_3gen4fold4Fold10fold_fieldE0ENtB7_10SourceIter8as_innerB3i_, symObjAddr: 0x9B88, symBinAddr: 0x4EA24, symSize: 0x24 }
  - { offset: 0x66FA6, size: 0x8, addend: 0x0, symName: __RNvXs9_NtNtNtCsaNl6UpbT7bw_4core4iter8adapters3mapINtB5_3MapINtNtNtCsiTraAjBDcu4_5alloc3vec9into_iter8IntoIterTNtNtCsc29TF2YcYso_3syn4data5FieldNtNtB1P_5token5CommaEENCINvNtB1P_10punctuated4foldB1L_B2i_NtNvCsiSITA57RZ13_15zerofrom_derive25replace_lifetime_and_type20ReplaceLifetimeAndTyNvYB3e_NtNtNtB1P_3gen4fold4Fold10fold_fieldE0ENtB7_10SourceIter8as_innerB3i_, symObjAddr: 0x9BAC, symBinAddr: 0x4EA48, symSize: 0x24 }
  - { offset: 0x66FE4, size: 0x8, addend: 0x0, symName: __RNvXs9_NtNtNtCsaNl6UpbT7bw_4core4iter8adapters3mapINtB5_3MapINtNtNtCsiTraAjBDcu4_5alloc3vec9into_iter8IntoIterTNtNtCsc29TF2YcYso_3syn4data7VariantNtNtB1P_5token5CommaEENCINvNtB1P_10punctuated4foldB1L_B2k_NtNvCsiSITA57RZ13_15zerofrom_derive16replace_lifetime15ReplaceLifetimeNvYB3g_NtNtNtB1P_3gen4fold4Fold12fold_variantE0ENtB7_10SourceIter8as_innerB3k_, symObjAddr: 0x9BD0, symBinAddr: 0x4EA6C, symSize: 0x24 }
  - { offset: 0x67022, size: 0x8, addend: 0x0, symName: __RNvXs9_NtNtNtCsaNl6UpbT7bw_4core4iter8adapters3mapINtB5_3MapINtNtNtCsiTraAjBDcu4_5alloc3vec9into_iter8IntoIterTNtNtCsc29TF2YcYso_3syn4data7VariantNtNtB1P_5token5CommaEENCINvNtB1P_10punctuated4foldB1L_B2k_NtNvCsiSITA57RZ13_15zerofrom_derive25replace_lifetime_and_type20ReplaceLifetimeAndTyNvYB3g_NtNtNtB1P_3gen4fold4Fold12fold_variantE0ENtB7_10SourceIter8as_innerB3k_, symObjAddr: 0x9BF4, symBinAddr: 0x4EA90, symSize: 0x24 }
  - { offset: 0x67060, size: 0x8, addend: 0x0, symName: __RNvXs9_NtNtNtCsaNl6UpbT7bw_4core4iter8adapters3mapINtB5_3MapINtNtNtCsiTraAjBDcu4_5alloc3vec9into_iter8IntoIterTNtNtCsc29TF2YcYso_3syn4expr10FieldValueNtNtB1P_5token5CommaEENCINvNtB1P_10punctuated4foldB1L_B2o_NtNvCsiSITA57RZ13_15zerofrom_derive16replace_lifetime15ReplaceLifetimeNvYB3k_NtNtNtB1P_3gen4fold4Fold16fold_field_valueE0ENtB7_10SourceIter8as_innerB3o_, symObjAddr: 0x9C18, symBinAddr: 0x4EAB4, symSize: 0x24 }
  - { offset: 0x6709E, size: 0x8, addend: 0x0, symName: __RNvXs9_NtNtNtCsaNl6UpbT7bw_4core4iter8adapters3mapINtB5_3MapINtNtNtCsiTraAjBDcu4_5alloc3vec9into_iter8IntoIterTNtNtCsc29TF2YcYso_3syn4expr10FieldValueNtNtB1P_5token5CommaEENCINvNtB1P_10punctuated4foldB1L_B2o_NtNvCsiSITA57RZ13_15zerofrom_derive25replace_lifetime_and_type20ReplaceLifetimeAndTyNvYB3k_NtNtNtB1P_3gen4fold4Fold16fold_field_valueE0ENtB7_10SourceIter8as_innerB3o_, symObjAddr: 0x9C3C, symBinAddr: 0x4EAD8, symSize: 0x24 }
  - { offset: 0x670DC, size: 0x8, addend: 0x0, symName: __RNvXs9_NtNtNtCsaNl6UpbT7bw_4core4iter8adapters3mapINtB5_3MapINtNtNtCsiTraAjBDcu4_5alloc3vec9into_iter8IntoIterTNtNtCsc29TF2YcYso_3syn4expr4ExprNtNtB1P_5token5CommaEENCINvNtB1P_10punctuated4foldB1L_B2h_NtNvCsiSITA57RZ13_15zerofrom_derive16replace_lifetime15ReplaceLifetimeNvYB3d_NtNtNtB1P_3gen4fold4Fold9fold_exprE0ENtB7_10SourceIter8as_innerB3h_, symObjAddr: 0x9C60, symBinAddr: 0x4EAFC, symSize: 0x24 }
  - { offset: 0x6711A, size: 0x8, addend: 0x0, symName: __RNvXs9_NtNtNtCsaNl6UpbT7bw_4core4iter8adapters3mapINtB5_3MapINtNtNtCsiTraAjBDcu4_5alloc3vec9into_iter8IntoIterTNtNtCsc29TF2YcYso_3syn4expr4ExprNtNtB1P_5token5CommaEENCINvNtB1P_10punctuated4foldB1L_B2h_NtNvCsiSITA57RZ13_15zerofrom_derive25replace_lifetime_and_type20ReplaceLifetimeAndTyNvYB3d_NtNtNtB1P_3gen4fold4Fold9fold_exprE0ENtB7_10SourceIter8as_innerB3h_, symObjAddr: 0x9C84, symBinAddr: 0x4EB20, symSize: 0x24 }
  - { offset: 0x67158, size: 0x8, addend: 0x0, symName: __RNvXs9_NtNtNtCsaNl6UpbT7bw_4core4iter8adapters3mapINtB5_3MapINtNtNtCsiTraAjBDcu4_5alloc3vec9into_iter8IntoIterTNtNtCsc29TF2YcYso_3syn4item5FnArgNtNtB1P_5token5CommaEENCINvNtB1P_10punctuated4foldB1L_B2i_NtNvCsiSITA57RZ13_15zerofrom_derive16replace_lifetime15ReplaceLifetimeNvYB3e_NtNtNtB1P_3gen4fold4Fold11fold_fn_argE0ENtB7_10SourceIter8as_innerB3i_, symObjAddr: 0x9CA8, symBinAddr: 0x4EB44, symSize: 0x24 }
  - { offset: 0x67196, size: 0x8, addend: 0x0, symName: __RNvXs9_NtNtNtCsaNl6UpbT7bw_4core4iter8adapters3mapINtB5_3MapINtNtNtCsiTraAjBDcu4_5alloc3vec9into_iter8IntoIterTNtNtCsc29TF2YcYso_3syn4item5FnArgNtNtB1P_5token5CommaEENCINvNtB1P_10punctuated4foldB1L_B2i_NtNvCsiSITA57RZ13_15zerofrom_derive25replace_lifetime_and_type20ReplaceLifetimeAndTyNvYB3e_NtNtNtB1P_3gen4fold4Fold11fold_fn_argE0ENtB7_10SourceIter8as_innerB3i_, symObjAddr: 0x9CCC, symBinAddr: 0x4EB68, symSize: 0x24 }
  - { offset: 0x671D4, size: 0x8, addend: 0x0, symName: __RNvXs9_NtNtNtCsaNl6UpbT7bw_4core4iter8adapters3mapINtB5_3MapINtNtNtCsiTraAjBDcu4_5alloc3vec9into_iter8IntoIterTNtNtCsc29TF2YcYso_3syn4item7UseTreeNtNtB1P_5token5CommaEENCINvNtB1P_10punctuated4foldB1L_B2k_NtNvCsiSITA57RZ13_15zerofrom_derive16replace_lifetime15ReplaceLifetimeNvYB3g_NtNtNtB1P_3gen4fold4Fold13fold_use_treeE0ENtB7_10SourceIter8as_innerB3k_, symObjAddr: 0x9CF0, symBinAddr: 0x4EB8C, symSize: 0x24 }
  - { offset: 0x67212, size: 0x8, addend: 0x0, symName: __RNvXs9_NtNtNtCsaNl6UpbT7bw_4core4iter8adapters3mapINtB5_3MapINtNtNtCsiTraAjBDcu4_5alloc3vec9into_iter8IntoIterTNtNtCsc29TF2YcYso_3syn4item7UseTreeNtNtB1P_5token5CommaEENCINvNtB1P_10punctuated4foldB1L_B2k_NtNvCsiSITA57RZ13_15zerofrom_derive25replace_lifetime_and_type20ReplaceLifetimeAndTyNvYB3g_NtNtNtB1P_3gen4fold4Fold13fold_use_treeE0ENtB7_10SourceIter8as_innerB3k_, symObjAddr: 0x9D14, symBinAddr: 0x4EBB0, symSize: 0x24 }
  - { offset: 0x67250, size: 0x8, addend: 0x0, symName: __RNvXs9_NtNtNtCsaNl6UpbT7bw_4core4iter8adapters3mapINtB5_3MapINtNtNtCsiTraAjBDcu4_5alloc3vec9into_iter8IntoIterTNtNtCsc29TF2YcYso_3syn4path11PathSegmentNtNtB1P_5token7PathSepEENCINvNtB1P_10punctuated4foldB1L_B2p_NtNvCsiSITA57RZ13_15zerofrom_derive16replace_lifetime15ReplaceLifetimeNvYB3n_NtNtNtB1P_3gen4fold4Fold17fold_path_segmentE0ENtB7_10SourceIter8as_innerB3r_, symObjAddr: 0x9D38, symBinAddr: 0x4EBD4, symSize: 0x24 }
  - { offset: 0x6728E, size: 0x8, addend: 0x0, symName: __RNvXs9_NtNtNtCsaNl6UpbT7bw_4core4iter8adapters3mapINtB5_3MapINtNtNtCsiTraAjBDcu4_5alloc3vec9into_iter8IntoIterTNtNtCsc29TF2YcYso_3syn4path11PathSegmentNtNtB1P_5token7PathSepEENCINvNtB1P_10punctuated4foldB1L_B2p_NtNvCsiSITA57RZ13_15zerofrom_derive25replace_lifetime_and_type20ReplaceLifetimeAndTyNvYB3n_NtNtNtB1P_3gen4fold4Fold17fold_path_segmentE0ENtB7_10SourceIter8as_innerB3r_, symObjAddr: 0x9D5C, symBinAddr: 0x4EBF8, symSize: 0x24 }
  - { offset: 0x672CC, size: 0x8, addend: 0x0, symName: __RNvXs9_NtNtNtCsaNl6UpbT7bw_4core4iter8adapters3mapINtB5_3MapINtNtNtCsiTraAjBDcu4_5alloc3vec9into_iter8IntoIterTNtNtCsc29TF2YcYso_3syn4path15GenericArgumentNtNtB1P_5token5CommaEENCINvNtB1P_10punctuated4foldB1L_B2t_NtNvCsiSITA57RZ13_15zerofrom_derive16replace_lifetime15ReplaceLifetimeNvYB3p_NtNtNtB1P_3gen4fold4Fold21fold_generic_argumentE0ENtB7_10SourceIter8as_innerB3t_, symObjAddr: 0x9D80, symBinAddr: 0x4EC1C, symSize: 0x24 }
  - { offset: 0x6730A, size: 0x8, addend: 0x0, symName: __RNvXs9_NtNtNtCsaNl6UpbT7bw_4core4iter8adapters3mapINtB5_3MapINtNtNtCsiTraAjBDcu4_5alloc3vec9into_iter8IntoIterTNtNtCsc29TF2YcYso_3syn4path15GenericArgumentNtNtB1P_5token5CommaEENCINvNtB1P_10punctuated4foldB1L_B2t_NtNvCsiSITA57RZ13_15zerofrom_derive25replace_lifetime_and_type20ReplaceLifetimeAndTyNvYB3p_NtNtNtB1P_3gen4fold4Fold21fold_generic_argumentE0ENtB7_10SourceIter8as_innerB3t_, symObjAddr: 0x9DA4, symBinAddr: 0x4EC40, symSize: 0x24 }
  - { offset: 0x67348, size: 0x8, addend: 0x0, symName: __RNvXs9_NtNtNtCsaNl6UpbT7bw_4core4iter8adapters3mapINtB5_3MapINtNtNtCsiTraAjBDcu4_5alloc3vec9into_iter8IntoIterTNtNtCsc29TF2YcYso_3syn8generics12GenericParamNtNtB1P_5token5CommaEENCINvNtB1P_10punctuated4foldB1L_B2u_NtNvCsiSITA57RZ13_15zerofrom_derive16replace_lifetime15ReplaceLifetimeNvYB3q_NtNtNtB1P_3gen4fold4Fold18fold_generic_paramE0ENtB7_10SourceIter8as_innerB3u_, symObjAddr: 0x9DC8, symBinAddr: 0x4EC64, symSize: 0x24 }
  - { offset: 0x67386, size: 0x8, addend: 0x0, symName: __RNvXs9_NtNtNtCsaNl6UpbT7bw_4core4iter8adapters3mapINtB5_3MapINtNtNtCsiTraAjBDcu4_5alloc3vec9into_iter8IntoIterTNtNtCsc29TF2YcYso_3syn8generics12GenericParamNtNtB1P_5token5CommaEENCINvNtB1P_10punctuated4foldB1L_B2u_NtNvCsiSITA57RZ13_15zerofrom_derive25replace_lifetime_and_type20ReplaceLifetimeAndTyNvYB3q_NtNtNtB1P_3gen4fold4Fold18fold_generic_paramE0ENtB7_10SourceIter8as_innerB3u_, symObjAddr: 0x9DEC, symBinAddr: 0x4EC88, symSize: 0x24 }
  - { offset: 0x673C4, size: 0x8, addend: 0x0, symName: __RNvXs9_NtNtNtCsaNl6UpbT7bw_4core4iter8adapters3mapINtB5_3MapINtNtNtCsiTraAjBDcu4_5alloc3vec9into_iter8IntoIterTNtNtCsc29TF2YcYso_3syn8generics13CapturedParamNtNtB1P_5token5CommaEENCINvNtB1P_10punctuated4foldB1L_B2v_NtNvCsiSITA57RZ13_15zerofrom_derive16replace_lifetime15ReplaceLifetimeNvYB3r_NtNtNtB1P_3gen4fold4Fold19fold_captured_paramE0ENtB7_10SourceIter8as_innerB3v_, symObjAddr: 0x9E10, symBinAddr: 0x4ECAC, symSize: 0x24 }
  - { offset: 0x67402, size: 0x8, addend: 0x0, symName: __RNvXs9_NtNtNtCsaNl6UpbT7bw_4core4iter8adapters3mapINtB5_3MapINtNtNtCsiTraAjBDcu4_5alloc3vec9into_iter8IntoIterTNtNtCsc29TF2YcYso_3syn8generics13CapturedParamNtNtB1P_5token5CommaEENCINvNtB1P_10punctuated4foldB1L_B2v_NtNvCsiSITA57RZ13_15zerofrom_derive25replace_lifetime_and_type20ReplaceLifetimeAndTyNvYB3r_NtNtNtB1P_3gen4fold4Fold19fold_captured_paramE0ENtB7_10SourceIter8as_innerB3v_, symObjAddr: 0x9E34, symBinAddr: 0x4ECD0, symSize: 0x24 }
  - { offset: 0x67440, size: 0x8, addend: 0x0, symName: __RNvXs9_NtNtNtCsaNl6UpbT7bw_4core4iter8adapters3mapINtB5_3MapINtNtNtCsiTraAjBDcu4_5alloc3vec9into_iter8IntoIterTNtNtCsc29TF2YcYso_3syn8generics14TypeParamBoundNtNtB1P_5token4PlusEENCINvNtB1P_10punctuated4foldB1L_B2w_NtNvCsiSITA57RZ13_15zerofrom_derive16replace_lifetime15ReplaceLifetimeNvYB3r_NtNtNtB1P_3gen4fold4Fold21fold_type_param_boundE0ENtB7_10SourceIter8as_innerB3v_, symObjAddr: 0x9E58, symBinAddr: 0x4ECF4, symSize: 0x24 }
  - { offset: 0x6747E, size: 0x8, addend: 0x0, symName: __RNvXs9_NtNtNtCsaNl6UpbT7bw_4core4iter8adapters3mapINtB5_3MapINtNtNtCsiTraAjBDcu4_5alloc3vec9into_iter8IntoIterTNtNtCsc29TF2YcYso_3syn8generics14TypeParamBoundNtNtB1P_5token4PlusEENCINvNtB1P_10punctuated4foldB1L_B2w_NtNvCsiSITA57RZ13_15zerofrom_derive25replace_lifetime_and_type20ReplaceLifetimeAndTyNvYB3r_NtNtNtB1P_3gen4fold4Fold21fold_type_param_boundE0ENtB7_10SourceIter8as_innerB3v_, symObjAddr: 0x9E7C, symBinAddr: 0x4ED18, symSize: 0x24 }
  - { offset: 0x674BC, size: 0x8, addend: 0x0, symName: __RNvXs9_NtNtNtCsaNl6UpbT7bw_4core4iter8adapters3mapINtB5_3MapINtNtNtCsiTraAjBDcu4_5alloc3vec9into_iter8IntoIterTNtNtCsc29TF2YcYso_3syn8generics14WherePredicateNtNtB1P_5token5CommaEENCINvNtB1P_10punctuated4foldB1L_B2w_NtNvCsiSITA57RZ13_15zerofrom_derive16replace_lifetime15ReplaceLifetimeNvYB3s_NtNtNtB1P_3gen4fold4Fold20fold_where_predicateE0ENtB7_10SourceIter8as_innerB3w_, symObjAddr: 0x9EA0, symBinAddr: 0x4ED3C, symSize: 0x24 }
  - { offset: 0x674FA, size: 0x8, addend: 0x0, symName: __RNvXs9_NtNtNtCsaNl6UpbT7bw_4core4iter8adapters3mapINtB5_3MapINtNtNtCsiTraAjBDcu4_5alloc3vec9into_iter8IntoIterTNtNtCsc29TF2YcYso_3syn8generics14WherePredicateNtNtB1P_5token5CommaEENCINvNtB1P_10punctuated4foldB1L_B2w_NtNvCsiSITA57RZ13_15zerofrom_derive25replace_lifetime_and_type20ReplaceLifetimeAndTyNvYB3s_NtNtNtB1P_3gen4fold4Fold20fold_where_predicateE0ENtB7_10SourceIter8as_innerB3w_, symObjAddr: 0x9EC4, symBinAddr: 0x4ED60, symSize: 0x24 }
  - { offset: 0x67538, size: 0x8, addend: 0x0, symName: __RNvXs9_NtNtNtCsaNl6UpbT7bw_4core4iter8adapters3mapINtB5_3MapINtNtNtCsiTraAjBDcu4_5alloc3vec9into_iter8IntoIterTNtNtCsc29TF2YcYso_3syn8lifetime8LifetimeNtNtB1P_5token4PlusEENCINvNtB1P_10punctuated4foldB1L_B2p_NtNvCsiSITA57RZ13_15zerofrom_derive16replace_lifetime15ReplaceLifetimeNvYB3k_NtNtNtB1P_3gen4fold4Fold13fold_lifetimeE0ENtB7_10SourceIter8as_innerB3o_, symObjAddr: 0x9EE8, symBinAddr: 0x4ED84, symSize: 0x24 }
  - { offset: 0x67576, size: 0x8, addend: 0x0, symName: __RNvXs9_NtNtNtCsaNl6UpbT7bw_4core4iter8adapters3mapINtB5_3MapINtNtNtCsiTraAjBDcu4_5alloc3vec9into_iter8IntoIterTNtNtCsc29TF2YcYso_3syn8lifetime8LifetimeNtNtB1P_5token4PlusEENCINvNtB1P_10punctuated4foldB1L_B2p_NtNvCsiSITA57RZ13_15zerofrom_derive25replace_lifetime_and_type20ReplaceLifetimeAndTyNvYB3k_NtNtNtB1P_3gen4fold4Fold13fold_lifetimeE0ENtB7_10SourceIter8as_innerB3o_, symObjAddr: 0x9F0C, symBinAddr: 0x4EDA8, symSize: 0x24 }
  - { offset: 0x68296, size: 0x8, addend: 0x0, symName: __RINvYINtNtNtNtCsaNl6UpbT7bw_4core4iter8adapters3map3MapINtNtCsc29TF2YcYso_3syn10punctuated8IntoIterNtCshnvkK9b4wzu_11proc_macro25IdentENCINvXs8_NtCsg4dki62PTrg_9hashbrown3setINtB2i_7HashSetB1z_NtNtNtCsht3nMU9UgFu_3std4hash6random11RandomStateEINtNtNtBa_6traits7collect6ExtendB1z_E6extendINtBU_10PunctuatedB1z_NtNtBW_5token5CommaEE0ENtNtB3Y_8iterator8Iterator8for_eachNCINvXs1i_NtB2k_3mapINtB63_7HashMapB1z_uB35_EIB3U_TB1z_uEE6extendB3_E0ECsiSITA57RZ13_15zerofrom_derive, symObjAddr: 0x1080, symBinAddr: 0x45F1C, symSize: 0x24 }
  - { offset: 0x682E2, size: 0x8, addend: 0x0, symName: __RINvYINtNtNtNtCsaNl6UpbT7bw_4core4iter8adapters3map3MapINtNtNtBc_5slice4iter4IterNtCshnvkK9b4wzu_11proc_macro25IdentENCNvCsiSITA57RZ13_15zerofrom_derive14zf_derive_impls4_0ENtNtNtBa_6traits8iterator8Iterator7collectINtNtCsiTraAjBDcu4_5alloc3vec3VecNtNtCsc29TF2YcYso_3syn8generics14WherePredicateEEB1V_, symObjAddr: 0x10A4, symBinAddr: 0x45F40, symSize: 0x68 }
  - { offset: 0x68378, size: 0x8, addend: 0x0, symName: __RINvYINtNtNtNtCsaNl6UpbT7bw_4core4iter8adapters3map3MapINtNtNtBc_5slice4iter4IterNtCshnvkK9b4wzu_11proc_macro25IdentENCNvCsiSITA57RZ13_15zerofrom_derive14zf_derive_impls4_0ENtNtNtBa_6traits8iterator8Iterator8for_eachNCINvMsi_NtCsiTraAjBDcu4_5alloc3vecINtB3B_3VecNtNtCsc29TF2YcYso_3syn8generics14WherePredicateE14extend_trustedB3_E0EB1V_, symObjAddr: 0x110C, symBinAddr: 0x45FA8, symSize: 0x34 }
  - { offset: 0x683E4, size: 0x8, addend: 0x0, symName: __RINvYINtNtNtNtCsaNl6UpbT7bw_4core4iter8adapters3map3MapINtNtNtBc_5slice4iter4IterNtNtCsc29TF2YcYso_3syn8generics9TypeParamENCNvCsiSITA57RZ13_15zerofrom_derive14zf_derive_impls_0ENtNtNtBa_6traits8iterator8Iterator7collectINtNtCsiTraAjBDcu4_5alloc3vec3VecNtCshnvkK9b4wzu_11proc_macro25IdentEEB21_, symObjAddr: 0x1140, symBinAddr: 0x45FDC, symSize: 0x60 }
  - { offset: 0x68479, size: 0x8, addend: 0x0, symName: __RINvYINtNtNtNtCsaNl6UpbT7bw_4core4iter8adapters3map3MapINtNtNtBc_5slice4iter4IterNtNtCsc29TF2YcYso_3syn8generics9TypeParamENCNvCsiSITA57RZ13_15zerofrom_derive14zf_derive_impls_0ENtNtNtBa_6traits8iterator8Iterator8for_eachNCINvMsi_NtCsiTraAjBDcu4_5alloc3vecINtB3G_3VecNtCshnvkK9b4wzu_11proc_macro25IdentE14extend_trustedB3_E0EB21_, symObjAddr: 0x11A0, symBinAddr: 0x4603C, symSize: 0x44 }
  - { offset: 0x684E4, size: 0x8, addend: 0x0, symName: __RINvYINtNtNtNtCsaNl6UpbT7bw_4core4iter8adapters3map3MapINtNtNtBc_5slice4iter7IterMutNtNtCsc29TF2YcYso_3syn8generics9TypeParamENCNvCsiSITA57RZ13_15zerofrom_derive14zf_derive_impls0_0ENtNtNtBa_6traits8iterator8Iterator7collectINtNtNtNtCsht3nMU9UgFu_3std11collections4hash3map7HashMapNtCshnvkK9b4wzu_11proc_macro25IdentINtNtBc_6option6OptionB4v_EEEB24_, symObjAddr: 0x11E4, symBinAddr: 0x46080, symSize: 0x60 }
  - { offset: 0x6857A, size: 0x8, addend: 0x0, symName: __RINvYINtNtNtNtCsaNl6UpbT7bw_4core4iter8adapters3map3MapINtNtNtBc_5slice4iter7IterMutNtNtCsc29TF2YcYso_3syn8generics9TypeParamENCNvCsiSITA57RZ13_15zerofrom_derive14zf_derive_impls0_0ENtNtNtBa_6traits8iterator8Iterator8for_eachNCINvXs1i_NtCsg4dki62PTrg_9hashbrown3mapINtB3L_7HashMapNtCshnvkK9b4wzu_11proc_macro25IdentINtNtBc_6option6OptionB4u_ENtNtNtCsht3nMU9UgFu_3std4hash6random11RandomStateEINtNtB2Y_7collect6ExtendTB4u_B53_EE6extendB3_E0EB24_, symObjAddr: 0x1244, symBinAddr: 0x460E0, symSize: 0x24 }
  - { offset: 0x685C6, size: 0x8, addend: 0x0, symName: __RINvYINtNtNtNtCsaNl6UpbT7bw_4core4iter8adapters3map3MapINtNtNtCsiTraAjBDcu4_5alloc3vec9into_iter8IntoIterNtNtCsc29TF2YcYso_3syn4attr9AttributeENCINvNtNtB1J_3gen4fold8fold_vecB1F_NtNvCsiSITA57RZ13_15zerofrom_derive16replace_lifetime15ReplaceLifetimeNvYB2Q_NtB2m_4Fold14fold_attributeE0ENtNtNtBa_6traits8iterator8Iterator7collectINtBW_3VecB1F_EEB2U_, symObjAddr: 0x1268, symBinAddr: 0x46104, symSize: 0x74 }
  - { offset: 0x6865C, size: 0x8, addend: 0x0, symName: __RINvYINtNtNtNtCsaNl6UpbT7bw_4core4iter8adapters3map3MapINtNtNtCsiTraAjBDcu4_5alloc3vec9into_iter8IntoIterNtNtCsc29TF2YcYso_3syn4attr9AttributeENCINvNtNtB1J_3gen4fold8fold_vecB1F_NtNvCsiSITA57RZ13_15zerofrom_derive25replace_lifetime_and_type20ReplaceLifetimeAndTyNvYB2Q_NtB2m_4Fold14fold_attributeE0ENtNtNtBa_6traits8iterator8Iterator7collectINtBW_3VecB1F_EEB2U_, symObjAddr: 0x12DC, symBinAddr: 0x46178, symSize: 0x74 }
  - { offset: 0x686F2, size: 0x8, addend: 0x0, symName: __RINvYINtNtNtNtCsaNl6UpbT7bw_4core4iter8adapters3map3MapINtNtNtCsiTraAjBDcu4_5alloc3vec9into_iter8IntoIterNtNtCsc29TF2YcYso_3syn4expr3ArmENCINvNtNtB1J_3gen4fold8fold_vecB1F_NtNvCsiSITA57RZ13_15zerofrom_derive16replace_lifetime15ReplaceLifetimeNvYB2K_NtB2g_4Fold8fold_armE0ENtNtNtBa_6traits8iterator8Iterator7collectINtBW_3VecB1F_EEB2O_, symObjAddr: 0x1350, symBinAddr: 0x461EC, symSize: 0x74 }
  - { offset: 0x68788, size: 0x8, addend: 0x0, symName: __RINvYINtNtNtNtCsaNl6UpbT7bw_4core4iter8adapters3map3MapINtNtNtCsiTraAjBDcu4_5alloc3vec9into_iter8IntoIterNtNtCsc29TF2YcYso_3syn4expr3ArmENCINvNtNtB1J_3gen4fold8fold_vecB1F_NtNvCsiSITA57RZ13_15zerofrom_derive25replace_lifetime_and_type20ReplaceLifetimeAndTyNvYB2K_NtB2g_4Fold8fold_armE0ENtNtNtBa_6traits8iterator8Iterator7collectINtBW_3VecB1F_EEB2O_, symObjAddr: 0x13C4, symBinAddr: 0x46260, symSize: 0x74 }
  - { offset: 0x6881E, size: 0x8, addend: 0x0, symName: __RINvYINtNtNtNtCsaNl6UpbT7bw_4core4iter8adapters3map3MapINtNtNtCsiTraAjBDcu4_5alloc3vec9into_iter8IntoIterNtNtCsc29TF2YcYso_3syn4item11ForeignItemENCINvNtNtB1J_3gen4fold8fold_vecB1F_NtNvCsiSITA57RZ13_15zerofrom_derive16replace_lifetime15ReplaceLifetimeNvYB2T_NtB2p_4Fold17fold_foreign_itemE0ENtNtNtBa_6traits8iterator8Iterator7collectINtBW_3VecB1F_EEB2X_, symObjAddr: 0x1438, symBinAddr: 0x462D4, symSize: 0x74 }
  - { offset: 0x688B4, size: 0x8, addend: 0x0, symName: __RINvYINtNtNtNtCsaNl6UpbT7bw_4core4iter8adapters3map3MapINtNtNtCsiTraAjBDcu4_5alloc3vec9into_iter8IntoIterNtNtCsc29TF2YcYso_3syn4item11ForeignItemENCINvNtNtB1J_3gen4fold8fold_vecB1F_NtNvCsiSITA57RZ13_15zerofrom_derive25replace_lifetime_and_type20ReplaceLifetimeAndTyNvYB2T_NtB2p_4Fold17fold_foreign_itemE0ENtNtNtBa_6traits8iterator8Iterator7collectINtBW_3VecB1F_EEB2X_, symObjAddr: 0x14AC, symBinAddr: 0x46348, symSize: 0x74 }
  - { offset: 0x6894A, size: 0x8, addend: 0x0, symName: __RINvYINtNtNtNtCsaNl6UpbT7bw_4core4iter8adapters3map3MapINtNtNtCsiTraAjBDcu4_5alloc3vec9into_iter8IntoIterNtNtCsc29TF2YcYso_3syn4item4ItemENCINvNtNtB1J_3gen4fold8fold_vecB1F_NtNvCsiSITA57RZ13_15zerofrom_derive16replace_lifetime15ReplaceLifetimeNvYB2L_NtB2h_4Fold9fold_itemE0ENtNtNtBa_6traits8iterator8Iterator7collectINtBW_3VecB1F_EEB2P_, symObjAddr: 0x1520, symBinAddr: 0x463BC, symSize: 0x74 }
  - { offset: 0x689E0, size: 0x8, addend: 0x0, symName: __RINvYINtNtNtNtCsaNl6UpbT7bw_4core4iter8adapters3map3MapINtNtNtCsiTraAjBDcu4_5alloc3vec9into_iter8IntoIterNtNtCsc29TF2YcYso_3syn4item4ItemENCINvNtNtB1J_3gen4fold8fold_vecB1F_NtNvCsiSITA57RZ13_15zerofrom_derive25replace_lifetime_and_type20ReplaceLifetimeAndTyNvYB2L_NtB2h_4Fold9fold_itemE0ENtNtNtBa_6traits8iterator8Iterator7collectINtBW_3VecB1F_EEB2P_, symObjAddr: 0x1594, symBinAddr: 0x46430, symSize: 0x74 }
  - { offset: 0x68A76, size: 0x8, addend: 0x0, symName: __RINvYINtNtNtNtCsaNl6UpbT7bw_4core4iter8adapters3map3MapINtNtNtCsiTraAjBDcu4_5alloc3vec9into_iter8IntoIterNtNtCsc29TF2YcYso_3syn4item8ImplItemENCINvNtNtB1J_3gen4fold8fold_vecB1F_NtNvCsiSITA57RZ13_15zerofrom_derive16replace_lifetime15ReplaceLifetimeNvYB2P_NtB2l_4Fold14fold_impl_itemE0ENtNtNtBa_6traits8iterator8Iterator7collectINtBW_3VecB1F_EEB2T_, symObjAddr: 0x1608, symBinAddr: 0x464A4, symSize: 0x74 }
  - { offset: 0x68B0C, size: 0x8, addend: 0x0, symName: __RINvYINtNtNtNtCsaNl6UpbT7bw_4core4iter8adapters3map3MapINtNtNtCsiTraAjBDcu4_5alloc3vec9into_iter8IntoIterNtNtCsc29TF2YcYso_3syn4item8ImplItemENCINvNtNtB1J_3gen4fold8fold_vecB1F_NtNvCsiSITA57RZ13_15zerofrom_derive25replace_lifetime_and_type20ReplaceLifetimeAndTyNvYB2P_NtB2l_4Fold14fold_impl_itemE0ENtNtNtBa_6traits8iterator8Iterator7collectINtBW_3VecB1F_EEB2T_, symObjAddr: 0x167C, symBinAddr: 0x46518, symSize: 0x74 }
  - { offset: 0x68BA2, size: 0x8, addend: 0x0, symName: __RINvYINtNtNtNtCsaNl6UpbT7bw_4core4iter8adapters3map3MapINtNtNtCsiTraAjBDcu4_5alloc3vec9into_iter8IntoIterNtNtCsc29TF2YcYso_3syn4item9TraitItemENCINvNtNtB1J_3gen4fold8fold_vecB1F_NtNvCsiSITA57RZ13_15zerofrom_derive16replace_lifetime15ReplaceLifetimeNvYB2Q_NtB2m_4Fold15fold_trait_itemE0ENtNtNtBa_6traits8iterator8Iterator7collectINtBW_3VecB1F_EEB2U_, symObjAddr: 0x16F0, symBinAddr: 0x4658C, symSize: 0x74 }
  - { offset: 0x68C38, size: 0x8, addend: 0x0, symName: __RINvYINtNtNtNtCsaNl6UpbT7bw_4core4iter8adapters3map3MapINtNtNtCsiTraAjBDcu4_5alloc3vec9into_iter8IntoIterNtNtCsc29TF2YcYso_3syn4item9TraitItemENCINvNtNtB1J_3gen4fold8fold_vecB1F_NtNvCsiSITA57RZ13_15zerofrom_derive25replace_lifetime_and_type20ReplaceLifetimeAndTyNvYB2Q_NtB2m_4Fold15fold_trait_itemE0ENtNtNtBa_6traits8iterator8Iterator7collectINtBW_3VecB1F_EEB2U_, symObjAddr: 0x1764, symBinAddr: 0x46600, symSize: 0x74 }
  - { offset: 0x68CCE, size: 0x8, addend: 0x0, symName: __RINvYINtNtNtNtCsaNl6UpbT7bw_4core4iter8adapters3map3MapINtNtNtCsiTraAjBDcu4_5alloc3vec9into_iter8IntoIterNtNtCsc29TF2YcYso_3syn4stmt4StmtENCINvNtNtB1J_3gen4fold8fold_vecB1F_NtNvCsiSITA57RZ13_15zerofrom_derive16replace_lifetime15ReplaceLifetimeNvYB2L_NtB2h_4Fold9fold_stmtE0ENtNtNtBa_6traits8iterator8Iterator7collectINtBW_3VecB1F_EEB2P_, symObjAddr: 0x17D8, symBinAddr: 0x46674, symSize: 0x74 }
  - { offset: 0x68D64, size: 0x8, addend: 0x0, symName: __RINvYINtNtNtNtCsaNl6UpbT7bw_4core4iter8adapters3map3MapINtNtNtCsiTraAjBDcu4_5alloc3vec9into_iter8IntoIterNtNtCsc29TF2YcYso_3syn4stmt4StmtENCINvNtNtB1J_3gen4fold8fold_vecB1F_NtNvCsiSITA57RZ13_15zerofrom_derive25replace_lifetime_and_type20ReplaceLifetimeAndTyNvYB2L_NtB2h_4Fold9fold_stmtE0ENtNtNtBa_6traits8iterator8Iterator7collectINtBW_3VecB1F_EEB2P_, symObjAddr: 0x184C, symBinAddr: 0x466E8, symSize: 0x74 }
  - { offset: 0x68DFA, size: 0x8, addend: 0x0, symName: __RINvYINtNtNtNtCsaNl6UpbT7bw_4core4iter8adapters3map3MapINtNtNtCsiTraAjBDcu4_5alloc3vec9into_iter8IntoIterTNtCshnvkK9b4wzu_11proc_macro25IdentNtNtCsc29TF2YcYso_3syn5token5CommaEENCNvXs8_NtB2j_10punctuatedINtB2X_10PunctuatedB1G_B2f_ENtNtNtBa_6traits7collect12IntoIterator9into_iter0ENtNtB3L_8iterator8Iterator8for_eachNCINvMsi_BW_INtBW_3VecB1G_E14extend_trustedB3_E0ECsiSITA57RZ13_15zerofrom_derive, symObjAddr: 0x18C0, symBinAddr: 0x4675C, symSize: 0x34 }
  - { offset: 0x68E66, size: 0x8, addend: 0x0, symName: __RINvYINtNtNtNtCsaNl6UpbT7bw_4core4iter8adapters3map3MapINtNtNtCsiTraAjBDcu4_5alloc3vec9into_iter8IntoIterTNtNtCsc29TF2YcYso_3syn2ty4TypeNtNtB1K_5token5CommaEENCINvNtB1K_10punctuated4foldB1G_B2a_NtNvCsiSITA57RZ13_15zerofrom_derive16replace_lifetime15ReplaceLifetimeNvYB36_NtNtNtB1K_3gen4fold4Fold9fold_typeE0ENtNtNtBa_6traits8iterator8Iterator7collectINtBW_3VecB1F_EEB3a_, symObjAddr: 0x18F4, symBinAddr: 0x46790, symSize: 0x74 }
  - { offset: 0x68EFC, size: 0x8, addend: 0x0, symName: __RINvYINtNtNtNtCsaNl6UpbT7bw_4core4iter8adapters3map3MapINtNtNtCsiTraAjBDcu4_5alloc3vec9into_iter8IntoIterTNtNtCsc29TF2YcYso_3syn2ty4TypeNtNtB1K_5token5CommaEENCINvNtB1K_10punctuated4foldB1G_B2a_NtNvCsiSITA57RZ13_15zerofrom_derive25replace_lifetime_and_type20ReplaceLifetimeAndTyNvYB36_NtNtNtB1K_3gen4fold4Fold9fold_typeE0ENtNtNtBa_6traits8iterator8Iterator7collectINtBW_3VecB1F_EEB3a_, symObjAddr: 0x1968, symBinAddr: 0x46804, symSize: 0x74 }
  - { offset: 0x68F92, size: 0x8, addend: 0x0, symName: __RINvYINtNtNtNtCsaNl6UpbT7bw_4core4iter8adapters3map3MapINtNtNtCsiTraAjBDcu4_5alloc3vec9into_iter8IntoIterTNtNtCsc29TF2YcYso_3syn2ty9BareFnArgNtNtB1K_5token5CommaEENCINvNtB1K_10punctuated4foldB1G_B2f_NtNvCsiSITA57RZ13_15zerofrom_derive16replace_lifetime15ReplaceLifetimeNvYB3b_NtNtNtB1K_3gen4fold4Fold16fold_bare_fn_argE0ENtNtNtBa_6traits8iterator8Iterator7collectINtBW_3VecB1F_EEB3f_, symObjAddr: 0x19DC, symBinAddr: 0x46878, symSize: 0x74 }
  - { offset: 0x69028, size: 0x8, addend: 0x0, symName: __RINvYINtNtNtNtCsaNl6UpbT7bw_4core4iter8adapters3map3MapINtNtNtCsiTraAjBDcu4_5alloc3vec9into_iter8IntoIterTNtNtCsc29TF2YcYso_3syn2ty9BareFnArgNtNtB1K_5token5CommaEENCINvNtB1K_10punctuated4foldB1G_B2f_NtNvCsiSITA57RZ13_15zerofrom_derive25replace_lifetime_and_type20ReplaceLifetimeAndTyNvYB3b_NtNtNtB1K_3gen4fold4Fold16fold_bare_fn_argE0ENtNtNtBa_6traits8iterator8Iterator7collectINtBW_3VecB1F_EEB3f_, symObjAddr: 0x1A50, symBinAddr: 0x468EC, symSize: 0x74 }
  - { offset: 0x690BE, size: 0x8, addend: 0x0, symName: __RINvYINtNtNtNtCsaNl6UpbT7bw_4core4iter8adapters3map3MapINtNtNtCsiTraAjBDcu4_5alloc3vec9into_iter8IntoIterTNtNtCsc29TF2YcYso_3syn3pat3PatNtNtB1K_5token2OrEENCINvNtB1K_10punctuated4foldB1G_B2a_NtNvCsiSITA57RZ13_15zerofrom_derive16replace_lifetime15ReplaceLifetimeNvYB33_NtNtNtB1K_3gen4fold4Fold8fold_patE0ENtNtNtBa_6traits8iterator8Iterator7collectINtBW_3VecB1F_EEB37_, symObjAddr: 0x1AC4, symBinAddr: 0x46960, symSize: 0x74 }
  - { offset: 0x69154, size: 0x8, addend: 0x0, symName: __RINvYINtNtNtNtCsaNl6UpbT7bw_4core4iter8adapters3map3MapINtNtNtCsiTraAjBDcu4_5alloc3vec9into_iter8IntoIterTNtNtCsc29TF2YcYso_3syn3pat3PatNtNtB1K_5token2OrEENCINvNtB1K_10punctuated4foldB1G_B2a_NtNvCsiSITA57RZ13_15zerofrom_derive25replace_lifetime_and_type20ReplaceLifetimeAndTyNvYB33_NtNtNtB1K_3gen4fold4Fold8fold_patE0ENtNtNtBa_6traits8iterator8Iterator7collectINtBW_3VecB1F_EEB37_, symObjAddr: 0x1B38, symBinAddr: 0x469D4, symSize: 0x74 }
  - { offset: 0x691EA, size: 0x8, addend: 0x0, symName: __RINvYINtNtNtNtCsaNl6UpbT7bw_4core4iter8adapters3map3MapINtNtNtCsiTraAjBDcu4_5alloc3vec9into_iter8IntoIterTNtNtCsc29TF2YcYso_3syn3pat3PatNtNtB1K_5token5CommaEENCINvNtB1K_10punctuated4foldB1G_B2a_NtNvCsiSITA57RZ13_15zerofrom_derive16replace_lifetime15ReplaceLifetimeNvYB36_NtNtNtB1K_3gen4fold4Fold8fold_patE0ENtNtNtBa_6traits8iterator8Iterator7collectINtBW_3VecB1F_EEB3a_, symObjAddr: 0x1BAC, symBinAddr: 0x46A48, symSize: 0x74 }
  - { offset: 0x69280, size: 0x8, addend: 0x0, symName: __RINvYINtNtNtNtCsaNl6UpbT7bw_4core4iter8adapters3map3MapINtNtNtCsiTraAjBDcu4_5alloc3vec9into_iter8IntoIterTNtNtCsc29TF2YcYso_3syn3pat3PatNtNtB1K_5token5CommaEENCINvNtB1K_10punctuated4foldB1G_B2a_NtNvCsiSITA57RZ13_15zerofrom_derive25replace_lifetime_and_type20ReplaceLifetimeAndTyNvYB36_NtNtNtB1K_3gen4fold4Fold8fold_patE0ENtNtNtBa_6traits8iterator8Iterator7collectINtBW_3VecB1F_EEB3a_, symObjAddr: 0x1C20, symBinAddr: 0x46ABC, symSize: 0x74 }
  - { offset: 0x69316, size: 0x8, addend: 0x0, symName: __RINvYINtNtNtNtCsaNl6UpbT7bw_4core4iter8adapters3map3MapINtNtNtCsiTraAjBDcu4_5alloc3vec9into_iter8IntoIterTNtNtCsc29TF2YcYso_3syn3pat8FieldPatNtNtB1K_5token5CommaEENCINvNtB1K_10punctuated4foldB1G_B2f_NtNvCsiSITA57RZ13_15zerofrom_derive16replace_lifetime15ReplaceLifetimeNvYB3b_NtNtNtB1K_3gen4fold4Fold14fold_field_patE0ENtNtNtBa_6traits8iterator8Iterator7collectINtBW_3VecB1F_EEB3f_, symObjAddr: 0x1C94, symBinAddr: 0x46B30, symSize: 0x74 }
  - { offset: 0x693AC, size: 0x8, addend: 0x0, symName: __RINvYINtNtNtNtCsaNl6UpbT7bw_4core4iter8adapters3map3MapINtNtNtCsiTraAjBDcu4_5alloc3vec9into_iter8IntoIterTNtNtCsc29TF2YcYso_3syn3pat8FieldPatNtNtB1K_5token5CommaEENCINvNtB1K_10punctuated4foldB1G_B2f_NtNvCsiSITA57RZ13_15zerofrom_derive25replace_lifetime_and_type20ReplaceLifetimeAndTyNvYB3b_NtNtNtB1K_3gen4fold4Fold14fold_field_patE0ENtNtNtBa_6traits8iterator8Iterator7collectINtBW_3VecB1F_EEB3f_, symObjAddr: 0x1D08, symBinAddr: 0x46BA4, symSize: 0x74 }
  - { offset: 0x69442, size: 0x8, addend: 0x0, symName: __RINvYINtNtNtNtCsaNl6UpbT7bw_4core4iter8adapters3map3MapINtNtNtCsiTraAjBDcu4_5alloc3vec9into_iter8IntoIterTNtNtCsc29TF2YcYso_3syn4data5FieldNtNtB1K_5token5CommaEENCINvNtB1K_10punctuated4foldB1G_B2d_NtNvCsiSITA57RZ13_15zerofrom_derive16replace_lifetime15ReplaceLifetimeNvYB39_NtNtNtB1K_3gen4fold4Fold10fold_fieldE0ENtNtNtBa_6traits8iterator8Iterator7collectINtBW_3VecB1F_EEB3d_, symObjAddr: 0x1D7C, symBinAddr: 0x46C18, symSize: 0x74 }
  - { offset: 0x694D8, size: 0x8, addend: 0x0, symName: __RINvYINtNtNtNtCsaNl6UpbT7bw_4core4iter8adapters3map3MapINtNtNtCsiTraAjBDcu4_5alloc3vec9into_iter8IntoIterTNtNtCsc29TF2YcYso_3syn4data5FieldNtNtB1K_5token5CommaEENCINvNtB1K_10punctuated4foldB1G_B2d_NtNvCsiSITA57RZ13_15zerofrom_derive25replace_lifetime_and_type20ReplaceLifetimeAndTyNvYB39_NtNtNtB1K_3gen4fold4Fold10fold_fieldE0ENtNtNtBa_6traits8iterator8Iterator7collectINtBW_3VecB1F_EEB3d_, symObjAddr: 0x1DF0, symBinAddr: 0x46C8C, symSize: 0x74 }
  - { offset: 0x6956E, size: 0x8, addend: 0x0, symName: __RINvYINtNtNtNtCsaNl6UpbT7bw_4core4iter8adapters3map3MapINtNtNtCsiTraAjBDcu4_5alloc3vec9into_iter8IntoIterTNtNtCsc29TF2YcYso_3syn4data7VariantNtNtB1K_5token5CommaEENCINvNtB1K_10punctuated4foldB1G_B2f_NtNvCsiSITA57RZ13_15zerofrom_derive16replace_lifetime15ReplaceLifetimeNvYB3b_NtNtNtB1K_3gen4fold4Fold12fold_variantE0ENtNtNtBa_6traits8iterator8Iterator7collectINtBW_3VecB1F_EEB3f_, symObjAddr: 0x1E64, symBinAddr: 0x46D00, symSize: 0x74 }
  - { offset: 0x69604, size: 0x8, addend: 0x0, symName: __RINvYINtNtNtNtCsaNl6UpbT7bw_4core4iter8adapters3map3MapINtNtNtCsiTraAjBDcu4_5alloc3vec9into_iter8IntoIterTNtNtCsc29TF2YcYso_3syn4data7VariantNtNtB1K_5token5CommaEENCINvNtB1K_10punctuated4foldB1G_B2f_NtNvCsiSITA57RZ13_15zerofrom_derive25replace_lifetime_and_type20ReplaceLifetimeAndTyNvYB3b_NtNtNtB1K_3gen4fold4Fold12fold_variantE0ENtNtNtBa_6traits8iterator8Iterator7collectINtBW_3VecB1F_EEB3f_, symObjAddr: 0x1ED8, symBinAddr: 0x46D74, symSize: 0x74 }
  - { offset: 0x6969A, size: 0x8, addend: 0x0, symName: __RINvYINtNtNtNtCsaNl6UpbT7bw_4core4iter8adapters3map3MapINtNtNtCsiTraAjBDcu4_5alloc3vec9into_iter8IntoIterTNtNtCsc29TF2YcYso_3syn4expr10FieldValueNtNtB1K_5token5CommaEENCINvNtB1K_10punctuated4foldB1G_B2j_NtNvCsiSITA57RZ13_15zerofrom_derive16replace_lifetime15ReplaceLifetimeNvYB3f_NtNtNtB1K_3gen4fold4Fold16fold_field_valueE0ENtNtNtBa_6traits8iterator8Iterator7collectINtBW_3VecB1F_EEB3j_, symObjAddr: 0x1F4C, symBinAddr: 0x46DE8, symSize: 0x74 }
  - { offset: 0x69730, size: 0x8, addend: 0x0, symName: __RINvYINtNtNtNtCsaNl6UpbT7bw_4core4iter8adapters3map3MapINtNtNtCsiTraAjBDcu4_5alloc3vec9into_iter8IntoIterTNtNtCsc29TF2YcYso_3syn4expr10FieldValueNtNtB1K_5token5CommaEENCINvNtB1K_10punctuated4foldB1G_B2j_NtNvCsiSITA57RZ13_15zerofrom_derive25replace_lifetime_and_type20ReplaceLifetimeAndTyNvYB3f_NtNtNtB1K_3gen4fold4Fold16fold_field_valueE0ENtNtNtBa_6traits8iterator8Iterator7collectINtBW_3VecB1F_EEB3j_, symObjAddr: 0x1FC0, symBinAddr: 0x46E5C, symSize: 0x74 }
  - { offset: 0x697C6, size: 0x8, addend: 0x0, symName: __RINvYINtNtNtNtCsaNl6UpbT7bw_4core4iter8adapters3map3MapINtNtNtCsiTraAjBDcu4_5alloc3vec9into_iter8IntoIterTNtNtCsc29TF2YcYso_3syn4expr4ExprNtNtB1K_5token5CommaEENCINvNtB1K_10punctuated4foldB1G_B2c_NtNvCsiSITA57RZ13_15zerofrom_derive16replace_lifetime15ReplaceLifetimeNvYB38_NtNtNtB1K_3gen4fold4Fold9fold_exprE0ENtNtNtBa_6traits8iterator8Iterator7collectINtBW_3VecB1F_EEB3c_, symObjAddr: 0x2034, symBinAddr: 0x46ED0, symSize: 0x74 }
  - { offset: 0x6985C, size: 0x8, addend: 0x0, symName: __RINvYINtNtNtNtCsaNl6UpbT7bw_4core4iter8adapters3map3MapINtNtNtCsiTraAjBDcu4_5alloc3vec9into_iter8IntoIterTNtNtCsc29TF2YcYso_3syn4expr4ExprNtNtB1K_5token5CommaEENCINvNtB1K_10punctuated4foldB1G_B2c_NtNvCsiSITA57RZ13_15zerofrom_derive25replace_lifetime_and_type20ReplaceLifetimeAndTyNvYB38_NtNtNtB1K_3gen4fold4Fold9fold_exprE0ENtNtNtBa_6traits8iterator8Iterator7collectINtBW_3VecB1F_EEB3c_, symObjAddr: 0x20A8, symBinAddr: 0x46F44, symSize: 0x74 }
  - { offset: 0x698F2, size: 0x8, addend: 0x0, symName: __RINvYINtNtNtNtCsaNl6UpbT7bw_4core4iter8adapters3map3MapINtNtNtCsiTraAjBDcu4_5alloc3vec9into_iter8IntoIterTNtNtCsc29TF2YcYso_3syn4item5FnArgNtNtB1K_5token5CommaEENCINvNtB1K_10punctuated4foldB1G_B2d_NtNvCsiSITA57RZ13_15zerofrom_derive16replace_lifetime15ReplaceLifetimeNvYB39_NtNtNtB1K_3gen4fold4Fold11fold_fn_argE0ENtNtNtBa_6traits8iterator8Iterator7collectINtBW_3VecB1F_EEB3d_, symObjAddr: 0x211C, symBinAddr: 0x46FB8, symSize: 0x74 }
  - { offset: 0x69988, size: 0x8, addend: 0x0, symName: __RINvYINtNtNtNtCsaNl6UpbT7bw_4core4iter8adapters3map3MapINtNtNtCsiTraAjBDcu4_5alloc3vec9into_iter8IntoIterTNtNtCsc29TF2YcYso_3syn4item5FnArgNtNtB1K_5token5CommaEENCINvNtB1K_10punctuated4foldB1G_B2d_NtNvCsiSITA57RZ13_15zerofrom_derive25replace_lifetime_and_type20ReplaceLifetimeAndTyNvYB39_NtNtNtB1K_3gen4fold4Fold11fold_fn_argE0ENtNtNtBa_6traits8iterator8Iterator7collectINtBW_3VecB1F_EEB3d_, symObjAddr: 0x2190, symBinAddr: 0x4702C, symSize: 0x74 }
  - { offset: 0x69A1E, size: 0x8, addend: 0x0, symName: __RINvYINtNtNtNtCsaNl6UpbT7bw_4core4iter8adapters3map3MapINtNtNtCsiTraAjBDcu4_5alloc3vec9into_iter8IntoIterTNtNtCsc29TF2YcYso_3syn4item7UseTreeNtNtB1K_5token5CommaEENCINvNtB1K_10punctuated4foldB1G_B2f_NtNvCsiSITA57RZ13_15zerofrom_derive16replace_lifetime15ReplaceLifetimeNvYB3b_NtNtNtB1K_3gen4fold4Fold13fold_use_treeE0ENtNtNtBa_6traits8iterator8Iterator7collectINtBW_3VecB1F_EEB3f_, symObjAddr: 0x2204, symBinAddr: 0x470A0, symSize: 0x74 }
  - { offset: 0x69AB4, size: 0x8, addend: 0x0, symName: __RINvYINtNtNtNtCsaNl6UpbT7bw_4core4iter8adapters3map3MapINtNtNtCsiTraAjBDcu4_5alloc3vec9into_iter8IntoIterTNtNtCsc29TF2YcYso_3syn4item7UseTreeNtNtB1K_5token5CommaEENCINvNtB1K_10punctuated4foldB1G_B2f_NtNvCsiSITA57RZ13_15zerofrom_derive25replace_lifetime_and_type20ReplaceLifetimeAndTyNvYB3b_NtNtNtB1K_3gen4fold4Fold13fold_use_treeE0ENtNtNtBa_6traits8iterator8Iterator7collectINtBW_3VecB1F_EEB3f_, symObjAddr: 0x2278, symBinAddr: 0x47114, symSize: 0x74 }
  - { offset: 0x69B4A, size: 0x8, addend: 0x0, symName: __RINvYINtNtNtNtCsaNl6UpbT7bw_4core4iter8adapters3map3MapINtNtNtCsiTraAjBDcu4_5alloc3vec9into_iter8IntoIterTNtNtCsc29TF2YcYso_3syn4path11PathSegmentNtNtB1K_5token7PathSepEENCINvNtB1K_10punctuated4foldB1G_B2k_NtNvCsiSITA57RZ13_15zerofrom_derive16replace_lifetime15ReplaceLifetimeNvYB3i_NtNtNtB1K_3gen4fold4Fold17fold_path_segmentE0ENtNtNtBa_6traits8iterator8Iterator7collectINtBW_3VecB1F_EEB3m_, symObjAddr: 0x22EC, symBinAddr: 0x47188, symSize: 0x74 }
  - { offset: 0x69BE0, size: 0x8, addend: 0x0, symName: __RINvYINtNtNtNtCsaNl6UpbT7bw_4core4iter8adapters3map3MapINtNtNtCsiTraAjBDcu4_5alloc3vec9into_iter8IntoIterTNtNtCsc29TF2YcYso_3syn4path11PathSegmentNtNtB1K_5token7PathSepEENCINvNtB1K_10punctuated4foldB1G_B2k_NtNvCsiSITA57RZ13_15zerofrom_derive25replace_lifetime_and_type20ReplaceLifetimeAndTyNvYB3i_NtNtNtB1K_3gen4fold4Fold17fold_path_segmentE0ENtNtNtBa_6traits8iterator8Iterator7collectINtBW_3VecB1F_EEB3m_, symObjAddr: 0x2360, symBinAddr: 0x471FC, symSize: 0x74 }
  - { offset: 0x69C76, size: 0x8, addend: 0x0, symName: __RINvYINtNtNtNtCsaNl6UpbT7bw_4core4iter8adapters3map3MapINtNtNtCsiTraAjBDcu4_5alloc3vec9into_iter8IntoIterTNtNtCsc29TF2YcYso_3syn4path15GenericArgumentNtNtB1K_5token5CommaEENCINvNtB1K_10punctuated4foldB1G_B2o_NtNvCsiSITA57RZ13_15zerofrom_derive16replace_lifetime15ReplaceLifetimeNvYB3k_NtNtNtB1K_3gen4fold4Fold21fold_generic_argumentE0ENtNtNtBa_6traits8iterator8Iterator7collectINtBW_3VecB1F_EEB3o_, symObjAddr: 0x23D4, symBinAddr: 0x47270, symSize: 0x74 }
  - { offset: 0x69D0C, size: 0x8, addend: 0x0, symName: __RINvYINtNtNtNtCsaNl6UpbT7bw_4core4iter8adapters3map3MapINtNtNtCsiTraAjBDcu4_5alloc3vec9into_iter8IntoIterTNtNtCsc29TF2YcYso_3syn4path15GenericArgumentNtNtB1K_5token5CommaEENCINvNtB1K_10punctuated4foldB1G_B2o_NtNvCsiSITA57RZ13_15zerofrom_derive25replace_lifetime_and_type20ReplaceLifetimeAndTyNvYB3k_NtNtNtB1K_3gen4fold4Fold21fold_generic_argumentE0ENtNtNtBa_6traits8iterator8Iterator7collectINtBW_3VecB1F_EEB3o_, symObjAddr: 0x2448, symBinAddr: 0x472E4, symSize: 0x74 }
  - { offset: 0x69DA2, size: 0x8, addend: 0x0, symName: __RINvYINtNtNtNtCsaNl6UpbT7bw_4core4iter8adapters3map3MapINtNtNtCsiTraAjBDcu4_5alloc3vec9into_iter8IntoIterTNtNtCsc29TF2YcYso_3syn8generics12GenericParamNtNtB1K_5token5CommaEENCINvNtB1K_10punctuated4foldB1G_B2p_NtNvCsiSITA57RZ13_15zerofrom_derive16replace_lifetime15ReplaceLifetimeNvYB3l_NtNtNtB1K_3gen4fold4Fold18fold_generic_paramE0ENtNtNtBa_6traits8iterator8Iterator7collectINtBW_3VecB1F_EEB3p_, symObjAddr: 0x24BC, symBinAddr: 0x47358, symSize: 0x74 }
  - { offset: 0x69E38, size: 0x8, addend: 0x0, symName: __RINvYINtNtNtNtCsaNl6UpbT7bw_4core4iter8adapters3map3MapINtNtNtCsiTraAjBDcu4_5alloc3vec9into_iter8IntoIterTNtNtCsc29TF2YcYso_3syn8generics12GenericParamNtNtB1K_5token5CommaEENCINvNtB1K_10punctuated4foldB1G_B2p_NtNvCsiSITA57RZ13_15zerofrom_derive25replace_lifetime_and_type20ReplaceLifetimeAndTyNvYB3l_NtNtNtB1K_3gen4fold4Fold18fold_generic_paramE0ENtNtNtBa_6traits8iterator8Iterator7collectINtBW_3VecB1F_EEB3p_, symObjAddr: 0x2530, symBinAddr: 0x473CC, symSize: 0x74 }
  - { offset: 0x69ECE, size: 0x8, addend: 0x0, symName: __RINvYINtNtNtNtCsaNl6UpbT7bw_4core4iter8adapters3map3MapINtNtNtCsiTraAjBDcu4_5alloc3vec9into_iter8IntoIterTNtNtCsc29TF2YcYso_3syn8generics13CapturedParamNtNtB1K_5token5CommaEENCINvNtB1K_10punctuated4foldB1G_B2q_NtNvCsiSITA57RZ13_15zerofrom_derive16replace_lifetime15ReplaceLifetimeNvYB3m_NtNtNtB1K_3gen4fold4Fold19fold_captured_paramE0ENtNtNtBa_6traits8iterator8Iterator7collectINtBW_3VecB1F_EEB3q_, symObjAddr: 0x25A4, symBinAddr: 0x47440, symSize: 0x74 }
  - { offset: 0x69F64, size: 0x8, addend: 0x0, symName: __RINvYINtNtNtNtCsaNl6UpbT7bw_4core4iter8adapters3map3MapINtNtNtCsiTraAjBDcu4_5alloc3vec9into_iter8IntoIterTNtNtCsc29TF2YcYso_3syn8generics13CapturedParamNtNtB1K_5token5CommaEENCINvNtB1K_10punctuated4foldB1G_B2q_NtNvCsiSITA57RZ13_15zerofrom_derive25replace_lifetime_and_type20ReplaceLifetimeAndTyNvYB3m_NtNtNtB1K_3gen4fold4Fold19fold_captured_paramE0ENtNtNtBa_6traits8iterator8Iterator7collectINtBW_3VecB1F_EEB3q_, symObjAddr: 0x2618, symBinAddr: 0x474B4, symSize: 0x74 }
  - { offset: 0x69FFA, size: 0x8, addend: 0x0, symName: __RINvYINtNtNtNtCsaNl6UpbT7bw_4core4iter8adapters3map3MapINtNtNtCsiTraAjBDcu4_5alloc3vec9into_iter8IntoIterTNtNtCsc29TF2YcYso_3syn8generics14TypeParamBoundNtNtB1K_5token4PlusEENCINvNtB1K_10punctuated4foldB1G_B2r_NtNvCsiSITA57RZ13_15zerofrom_derive16replace_lifetime15ReplaceLifetimeNvYB3m_NtNtNtB1K_3gen4fold4Fold21fold_type_param_boundE0ENtNtNtBa_6traits8iterator8Iterator7collectINtBW_3VecB1F_EEB3q_, symObjAddr: 0x268C, symBinAddr: 0x47528, symSize: 0x74 }
  - { offset: 0x6A090, size: 0x8, addend: 0x0, symName: __RINvYINtNtNtNtCsaNl6UpbT7bw_4core4iter8adapters3map3MapINtNtNtCsiTraAjBDcu4_5alloc3vec9into_iter8IntoIterTNtNtCsc29TF2YcYso_3syn8generics14TypeParamBoundNtNtB1K_5token4PlusEENCINvNtB1K_10punctuated4foldB1G_B2r_NtNvCsiSITA57RZ13_15zerofrom_derive25replace_lifetime_and_type20ReplaceLifetimeAndTyNvYB3m_NtNtNtB1K_3gen4fold4Fold21fold_type_param_boundE0ENtNtNtBa_6traits8iterator8Iterator7collectINtBW_3VecB1F_EEB3q_, symObjAddr: 0x2700, symBinAddr: 0x4759C, symSize: 0x74 }
  - { offset: 0x6A126, size: 0x8, addend: 0x0, symName: __RINvYINtNtNtNtCsaNl6UpbT7bw_4core4iter8adapters3map3MapINtNtNtCsiTraAjBDcu4_5alloc3vec9into_iter8IntoIterTNtNtCsc29TF2YcYso_3syn8generics14WherePredicateNtNtB1K_5token5CommaEENCINvNtB1K_10punctuated4foldB1G_B2r_NtNvCsiSITA57RZ13_15zerofrom_derive16replace_lifetime15ReplaceLifetimeNvYB3n_NtNtNtB1K_3gen4fold4Fold20fold_where_predicateE0ENtNtNtBa_6traits8iterator8Iterator7collectINtBW_3VecB1F_EEB3r_, symObjAddr: 0x2774, symBinAddr: 0x47610, symSize: 0x74 }
  - { offset: 0x6A1BC, size: 0x8, addend: 0x0, symName: __RINvYINtNtNtNtCsaNl6UpbT7bw_4core4iter8adapters3map3MapINtNtNtCsiTraAjBDcu4_5alloc3vec9into_iter8IntoIterTNtNtCsc29TF2YcYso_3syn8generics14WherePredicateNtNtB1K_5token5CommaEENCINvNtB1K_10punctuated4foldB1G_B2r_NtNvCsiSITA57RZ13_15zerofrom_derive25replace_lifetime_and_type20ReplaceLifetimeAndTyNvYB3n_NtNtNtB1K_3gen4fold4Fold20fold_where_predicateE0ENtNtNtBa_6traits8iterator8Iterator7collectINtBW_3VecB1F_EEB3r_, symObjAddr: 0x27E8, symBinAddr: 0x47684, symSize: 0x74 }
  - { offset: 0x6A252, size: 0x8, addend: 0x0, symName: __RINvYINtNtNtNtCsaNl6UpbT7bw_4core4iter8adapters3map3MapINtNtNtCsiTraAjBDcu4_5alloc3vec9into_iter8IntoIterTNtNtCsc29TF2YcYso_3syn8lifetime8LifetimeNtNtB1K_5token4PlusEENCINvNtB1K_10punctuated4foldB1G_B2k_NtNvCsiSITA57RZ13_15zerofrom_derive16replace_lifetime15ReplaceLifetimeNvYB3f_NtNtNtB1K_3gen4fold4Fold13fold_lifetimeE0ENtNtNtBa_6traits8iterator8Iterator7collectINtBW_3VecB1F_EEB3j_, symObjAddr: 0x285C, symBinAddr: 0x476F8, symSize: 0x74 }
  - { offset: 0x6A2E8, size: 0x8, addend: 0x0, symName: __RINvYINtNtNtNtCsaNl6UpbT7bw_4core4iter8adapters3map3MapINtNtNtCsiTraAjBDcu4_5alloc3vec9into_iter8IntoIterTNtNtCsc29TF2YcYso_3syn8lifetime8LifetimeNtNtB1K_5token4PlusEENCINvNtB1K_10punctuated4foldB1G_B2k_NtNvCsiSITA57RZ13_15zerofrom_derive25replace_lifetime_and_type20ReplaceLifetimeAndTyNvYB3f_NtNtNtB1K_3gen4fold4Fold13fold_lifetimeE0ENtNtNtBa_6traits8iterator8Iterator7collectINtBW_3VecB1F_EEB3j_, symObjAddr: 0x28D0, symBinAddr: 0x4776C, symSize: 0x74 }
  - { offset: 0x6A37E, size: 0x8, addend: 0x0, symName: __RINvYINtNtNtNtCsaNl6UpbT7bw_4core4iter8adapters3map3MapNtNtCsc29TF2YcYso_3syn8generics10TypeParamsNCNvCsiSITA57RZ13_15zerofrom_derive14zf_derive_impl0ENtNtNtBa_6traits8iterator8Iterator7collectINtNtCsiTraAjBDcu4_5alloc3vec3VecNtBT_9TypeParamEEB1C_, symObjAddr: 0x2944, symBinAddr: 0x477E0, symSize: 0x60 }
  - { offset: 0x6A41F, size: 0x8, addend: 0x0, symName: __RNvXNtNtNtCsaNl6UpbT7bw_4core4iter6traits7collectINtNtNtB6_8adapters3map3MapINtNtCsc29TF2YcYso_3syn10punctuated8IntoIterNtCshnvkK9b4wzu_11proc_macro25IdentENCINvXs8_NtCsg4dki62PTrg_9hashbrown3setINtB2D_7HashSetB1U_NtNtNtCsht3nMU9UgFu_3std4hash6random11RandomStateEINtB2_6ExtendB1U_E6extendINtB1f_10PunctuatedB1U_NtNtB1h_5token5CommaEE0ENtB2_12IntoIterator9into_iterCsiSITA57RZ13_15zerofrom_derive, symObjAddr: 0x6420, symBinAddr: 0x4B2BC, symSize: 0x14 }
  - { offset: 0x6A456, size: 0x8, addend: 0x0, symName: __RNvXNtNtNtCsaNl6UpbT7bw_4core4iter6traits7collectINtNtNtB6_8adapters3map3MapINtNtNtB8_5slice4iter4IterNtCshnvkK9b4wzu_11proc_macro25IdentENCNvCsiSITA57RZ13_15zerofrom_derive14zf_derive_impls4_0ENtB2_12IntoIterator9into_iterB2g_, symObjAddr: 0x6434, symBinAddr: 0x4B2D0, symSize: 0x18 }
  - { offset: 0x6A48D, size: 0x8, addend: 0x0, symName: __RNvXNtNtNtCsaNl6UpbT7bw_4core4iter6traits7collectINtNtNtB6_8adapters3map3MapINtNtNtB8_5slice4iter4IterNtNtCsc29TF2YcYso_3syn8generics9TypeParamENCNvCsiSITA57RZ13_15zerofrom_derive14zf_derive_impls_0ENtB2_12IntoIterator9into_iterB2m_, symObjAddr: 0x644C, symBinAddr: 0x4B2E8, symSize: 0x1C }
  - { offset: 0x6A4C4, size: 0x8, addend: 0x0, symName: __RNvXNtNtNtCsaNl6UpbT7bw_4core4iter6traits7collectINtNtNtB6_8adapters3map3MapINtNtNtB8_5slice4iter7IterMutNtNtCsc29TF2YcYso_3syn8generics9TypeParamENCNvCsiSITA57RZ13_15zerofrom_derive14zf_derive_impls0_0ENtB2_12IntoIterator9into_iterB2p_, symObjAddr: 0x6468, symBinAddr: 0x4B304, symSize: 0x18 }
  - { offset: 0x6A4FB, size: 0x8, addend: 0x0, symName: __RNvXNtNtNtCsaNl6UpbT7bw_4core4iter6traits7collectINtNtNtB6_8adapters3map3MapINtNtNtCsiTraAjBDcu4_5alloc3vec9into_iter8IntoIterNtNtCsc29TF2YcYso_3syn4attr9AttributeENCINvNtNtB24_3gen4fold8fold_vecB20_NtNvCsiSITA57RZ13_15zerofrom_derive16replace_lifetime15ReplaceLifetimeNvYB3b_NtB2H_4Fold14fold_attributeE0ENtB2_12IntoIterator9into_iterB3f_, symObjAddr: 0x6480, symBinAddr: 0x4B31C, symSize: 0x30 }
  - { offset: 0x6A533, size: 0x8, addend: 0x0, symName: __RNvXNtNtNtCsaNl6UpbT7bw_4core4iter6traits7collectINtNtNtB6_8adapters3map3MapINtNtNtCsiTraAjBDcu4_5alloc3vec9into_iter8IntoIterNtNtCsc29TF2YcYso_3syn4attr9AttributeENCINvNtNtB24_3gen4fold8fold_vecB20_NtNvCsiSITA57RZ13_15zerofrom_derive25replace_lifetime_and_type20ReplaceLifetimeAndTyNvYB3b_NtB2H_4Fold14fold_attributeE0ENtB2_12IntoIterator9into_iterB3f_, symObjAddr: 0x64B0, symBinAddr: 0x4B34C, symSize: 0x30 }
  - { offset: 0x6A56B, size: 0x8, addend: 0x0, symName: __RNvXNtNtNtCsaNl6UpbT7bw_4core4iter6traits7collectINtNtNtB6_8adapters3map3MapINtNtNtCsiTraAjBDcu4_5alloc3vec9into_iter8IntoIterNtNtCsc29TF2YcYso_3syn4expr3ArmENCINvNtNtB24_3gen4fold8fold_vecB20_NtNvCsiSITA57RZ13_15zerofrom_derive16replace_lifetime15ReplaceLifetimeNvYB35_NtB2B_4Fold8fold_armE0ENtB2_12IntoIterator9into_iterB39_, symObjAddr: 0x64E0, symBinAddr: 0x4B37C, symSize: 0x30 }
  - { offset: 0x6A5A3, size: 0x8, addend: 0x0, symName: __RNvXNtNtNtCsaNl6UpbT7bw_4core4iter6traits7collectINtNtNtB6_8adapters3map3MapINtNtNtCsiTraAjBDcu4_5alloc3vec9into_iter8IntoIterNtNtCsc29TF2YcYso_3syn4expr3ArmENCINvNtNtB24_3gen4fold8fold_vecB20_NtNvCsiSITA57RZ13_15zerofrom_derive25replace_lifetime_and_type20ReplaceLifetimeAndTyNvYB35_NtB2B_4Fold8fold_armE0ENtB2_12IntoIterator9into_iterB39_, symObjAddr: 0x6510, symBinAddr: 0x4B3AC, symSize: 0x30 }
  - { offset: 0x6A5DB, size: 0x8, addend: 0x0, symName: __RNvXNtNtNtCsaNl6UpbT7bw_4core4iter6traits7collectINtNtNtB6_8adapters3map3MapINtNtNtCsiTraAjBDcu4_5alloc3vec9into_iter8IntoIterNtNtCsc29TF2YcYso_3syn4item11ForeignItemENCINvNtNtB24_3gen4fold8fold_vecB20_NtNvCsiSITA57RZ13_15zerofrom_derive16replace_lifetime15ReplaceLifetimeNvYB3e_NtB2K_4Fold17fold_foreign_itemE0ENtB2_12IntoIterator9into_iterB3i_, symObjAddr: 0x6540, symBinAddr: 0x4B3DC, symSize: 0x30 }
  - { offset: 0x6A613, size: 0x8, addend: 0x0, symName: __RNvXNtNtNtCsaNl6UpbT7bw_4core4iter6traits7collectINtNtNtB6_8adapters3map3MapINtNtNtCsiTraAjBDcu4_5alloc3vec9into_iter8IntoIterNtNtCsc29TF2YcYso_3syn4item11ForeignItemENCINvNtNtB24_3gen4fold8fold_vecB20_NtNvCsiSITA57RZ13_15zerofrom_derive25replace_lifetime_and_type20ReplaceLifetimeAndTyNvYB3e_NtB2K_4Fold17fold_foreign_itemE0ENtB2_12IntoIterator9into_iterB3i_, symObjAddr: 0x6570, symBinAddr: 0x4B40C, symSize: 0x30 }
  - { offset: 0x6A64B, size: 0x8, addend: 0x0, symName: __RNvXNtNtNtCsaNl6UpbT7bw_4core4iter6traits7collectINtNtNtB6_8adapters3map3MapINtNtNtCsiTraAjBDcu4_5alloc3vec9into_iter8IntoIterNtNtCsc29TF2YcYso_3syn4item4ItemENCINvNtNtB24_3gen4fold8fold_vecB20_NtNvCsiSITA57RZ13_15zerofrom_derive16replace_lifetime15ReplaceLifetimeNvYB36_NtB2C_4Fold9fold_itemE0ENtB2_12IntoIterator9into_iterB3a_, symObjAddr: 0x65A0, symBinAddr: 0x4B43C, symSize: 0x30 }
  - { offset: 0x6A683, size: 0x8, addend: 0x0, symName: __RNvXNtNtNtCsaNl6UpbT7bw_4core4iter6traits7collectINtNtNtB6_8adapters3map3MapINtNtNtCsiTraAjBDcu4_5alloc3vec9into_iter8IntoIterNtNtCsc29TF2YcYso_3syn4item4ItemENCINvNtNtB24_3gen4fold8fold_vecB20_NtNvCsiSITA57RZ13_15zerofrom_derive25replace_lifetime_and_type20ReplaceLifetimeAndTyNvYB36_NtB2C_4Fold9fold_itemE0ENtB2_12IntoIterator9into_iterB3a_, symObjAddr: 0x65D0, symBinAddr: 0x4B46C, symSize: 0x30 }
  - { offset: 0x6A6BB, size: 0x8, addend: 0x0, symName: __RNvXNtNtNtCsaNl6UpbT7bw_4core4iter6traits7collectINtNtNtB6_8adapters3map3MapINtNtNtCsiTraAjBDcu4_5alloc3vec9into_iter8IntoIterNtNtCsc29TF2YcYso_3syn4item8ImplItemENCINvNtNtB24_3gen4fold8fold_vecB20_NtNvCsiSITA57RZ13_15zerofrom_derive16replace_lifetime15ReplaceLifetimeNvYB3a_NtB2G_4Fold14fold_impl_itemE0ENtB2_12IntoIterator9into_iterB3e_, symObjAddr: 0x6600, symBinAddr: 0x4B49C, symSize: 0x30 }
  - { offset: 0x6A6F3, size: 0x8, addend: 0x0, symName: __RNvXNtNtNtCsaNl6UpbT7bw_4core4iter6traits7collectINtNtNtB6_8adapters3map3MapINtNtNtCsiTraAjBDcu4_5alloc3vec9into_iter8IntoIterNtNtCsc29TF2YcYso_3syn4item8ImplItemENCINvNtNtB24_3gen4fold8fold_vecB20_NtNvCsiSITA57RZ13_15zerofrom_derive25replace_lifetime_and_type20ReplaceLifetimeAndTyNvYB3a_NtB2G_4Fold14fold_impl_itemE0ENtB2_12IntoIterator9into_iterB3e_, symObjAddr: 0x6630, symBinAddr: 0x4B4CC, symSize: 0x30 }
  - { offset: 0x6A72B, size: 0x8, addend: 0x0, symName: __RNvXNtNtNtCsaNl6UpbT7bw_4core4iter6traits7collectINtNtNtB6_8adapters3map3MapINtNtNtCsiTraAjBDcu4_5alloc3vec9into_iter8IntoIterNtNtCsc29TF2YcYso_3syn4item9TraitItemENCINvNtNtB24_3gen4fold8fold_vecB20_NtNvCsiSITA57RZ13_15zerofrom_derive16replace_lifetime15ReplaceLifetimeNvYB3b_NtB2H_4Fold15fold_trait_itemE0ENtB2_12IntoIterator9into_iterB3f_, symObjAddr: 0x6660, symBinAddr: 0x4B4FC, symSize: 0x30 }
  - { offset: 0x6A763, size: 0x8, addend: 0x0, symName: __RNvXNtNtNtCsaNl6UpbT7bw_4core4iter6traits7collectINtNtNtB6_8adapters3map3MapINtNtNtCsiTraAjBDcu4_5alloc3vec9into_iter8IntoIterNtNtCsc29TF2YcYso_3syn4item9TraitItemENCINvNtNtB24_3gen4fold8fold_vecB20_NtNvCsiSITA57RZ13_15zerofrom_derive25replace_lifetime_and_type20ReplaceLifetimeAndTyNvYB3b_NtB2H_4Fold15fold_trait_itemE0ENtB2_12IntoIterator9into_iterB3f_, symObjAddr: 0x6690, symBinAddr: 0x4B52C, symSize: 0x30 }
  - { offset: 0x6A79B, size: 0x8, addend: 0x0, symName: __RNvXNtNtNtCsaNl6UpbT7bw_4core4iter6traits7collectINtNtNtB6_8adapters3map3MapINtNtNtCsiTraAjBDcu4_5alloc3vec9into_iter8IntoIterNtNtCsc29TF2YcYso_3syn4stmt4StmtENCINvNtNtB24_3gen4fold8fold_vecB20_NtNvCsiSITA57RZ13_15zerofrom_derive16replace_lifetime15ReplaceLifetimeNvYB36_NtB2C_4Fold9fold_stmtE0ENtB2_12IntoIterator9into_iterB3a_, symObjAddr: 0x66C0, symBinAddr: 0x4B55C, symSize: 0x30 }
  - { offset: 0x6A7D3, size: 0x8, addend: 0x0, symName: __RNvXNtNtNtCsaNl6UpbT7bw_4core4iter6traits7collectINtNtNtB6_8adapters3map3MapINtNtNtCsiTraAjBDcu4_5alloc3vec9into_iter8IntoIterNtNtCsc29TF2YcYso_3syn4stmt4StmtENCINvNtNtB24_3gen4fold8fold_vecB20_NtNvCsiSITA57RZ13_15zerofrom_derive25replace_lifetime_and_type20ReplaceLifetimeAndTyNvYB36_NtB2C_4Fold9fold_stmtE0ENtB2_12IntoIterator9into_iterB3a_, symObjAddr: 0x66F0, symBinAddr: 0x4B58C, symSize: 0x30 }
  - { offset: 0x6A80B, size: 0x8, addend: 0x0, symName: __RNvXNtNtNtCsaNl6UpbT7bw_4core4iter6traits7collectINtNtNtB6_8adapters3map3MapINtNtNtCsiTraAjBDcu4_5alloc3vec9into_iter8IntoIterTNtCshnvkK9b4wzu_11proc_macro25IdentNtNtCsc29TF2YcYso_3syn5token5CommaEENCNvXs8_NtB2E_10punctuatedINtB3i_10PunctuatedB21_B2A_ENtB2_12IntoIterator9into_iter0EB42_9into_iterCsiSITA57RZ13_15zerofrom_derive, symObjAddr: 0x6720, symBinAddr: 0x4B5BC, symSize: 0x14 }
  - { offset: 0x6A842, size: 0x8, addend: 0x0, symName: __RNvXNtNtNtCsaNl6UpbT7bw_4core4iter6traits7collectINtNtNtB6_8adapters3map3MapINtNtNtCsiTraAjBDcu4_5alloc3vec9into_iter8IntoIterTNtNtCsc29TF2YcYso_3syn2ty4TypeNtNtB25_5token5CommaEENCINvNtB25_10punctuated4foldB21_B2v_NtNvCsiSITA57RZ13_15zerofrom_derive16replace_lifetime15ReplaceLifetimeNvYB3r_NtNtNtB25_3gen4fold4Fold9fold_typeE0ENtB2_12IntoIterator9into_iterB3v_, symObjAddr: 0x6734, symBinAddr: 0x4B5D0, symSize: 0x30 }
  - { offset: 0x6A87A, size: 0x8, addend: 0x0, symName: __RNvXNtNtNtCsaNl6UpbT7bw_4core4iter6traits7collectINtNtNtB6_8adapters3map3MapINtNtNtCsiTraAjBDcu4_5alloc3vec9into_iter8IntoIterTNtNtCsc29TF2YcYso_3syn2ty4TypeNtNtB25_5token5CommaEENCINvNtB25_10punctuated4foldB21_B2v_NtNvCsiSITA57RZ13_15zerofrom_derive25replace_lifetime_and_type20ReplaceLifetimeAndTyNvYB3r_NtNtNtB25_3gen4fold4Fold9fold_typeE0ENtB2_12IntoIterator9into_iterB3v_, symObjAddr: 0x6764, symBinAddr: 0x4B600, symSize: 0x30 }
  - { offset: 0x6A8B2, size: 0x8, addend: 0x0, symName: __RNvXNtNtNtCsaNl6UpbT7bw_4core4iter6traits7collectINtNtNtB6_8adapters3map3MapINtNtNtCsiTraAjBDcu4_5alloc3vec9into_iter8IntoIterTNtNtCsc29TF2YcYso_3syn2ty9BareFnArgNtNtB25_5token5CommaEENCINvNtB25_10punctuated4foldB21_B2A_NtNvCsiSITA57RZ13_15zerofrom_derive16replace_lifetime15ReplaceLifetimeNvYB3w_NtNtNtB25_3gen4fold4Fold16fold_bare_fn_argE0ENtB2_12IntoIterator9into_iterB3A_, symObjAddr: 0x6794, symBinAddr: 0x4B630, symSize: 0x30 }
  - { offset: 0x6A8EA, size: 0x8, addend: 0x0, symName: __RNvXNtNtNtCsaNl6UpbT7bw_4core4iter6traits7collectINtNtNtB6_8adapters3map3MapINtNtNtCsiTraAjBDcu4_5alloc3vec9into_iter8IntoIterTNtNtCsc29TF2YcYso_3syn2ty9BareFnArgNtNtB25_5token5CommaEENCINvNtB25_10punctuated4foldB21_B2A_NtNvCsiSITA57RZ13_15zerofrom_derive25replace_lifetime_and_type20ReplaceLifetimeAndTyNvYB3w_NtNtNtB25_3gen4fold4Fold16fold_bare_fn_argE0ENtB2_12IntoIterator9into_iterB3A_, symObjAddr: 0x67C4, symBinAddr: 0x4B660, symSize: 0x30 }
  - { offset: 0x6A922, size: 0x8, addend: 0x0, symName: __RNvXNtNtNtCsaNl6UpbT7bw_4core4iter6traits7collectINtNtNtB6_8adapters3map3MapINtNtNtCsiTraAjBDcu4_5alloc3vec9into_iter8IntoIterTNtNtCsc29TF2YcYso_3syn3pat3PatNtNtB25_5token2OrEENCINvNtB25_10punctuated4foldB21_B2v_NtNvCsiSITA57RZ13_15zerofrom_derive16replace_lifetime15ReplaceLifetimeNvYB3o_NtNtNtB25_3gen4fold4Fold8fold_patE0ENtB2_12IntoIterator9into_iterB3s_, symObjAddr: 0x67F4, symBinAddr: 0x4B690, symSize: 0x30 }
  - { offset: 0x6A95A, size: 0x8, addend: 0x0, symName: __RNvXNtNtNtCsaNl6UpbT7bw_4core4iter6traits7collectINtNtNtB6_8adapters3map3MapINtNtNtCsiTraAjBDcu4_5alloc3vec9into_iter8IntoIterTNtNtCsc29TF2YcYso_3syn3pat3PatNtNtB25_5token2OrEENCINvNtB25_10punctuated4foldB21_B2v_NtNvCsiSITA57RZ13_15zerofrom_derive25replace_lifetime_and_type20ReplaceLifetimeAndTyNvYB3o_NtNtNtB25_3gen4fold4Fold8fold_patE0ENtB2_12IntoIterator9into_iterB3s_, symObjAddr: 0x6824, symBinAddr: 0x4B6C0, symSize: 0x30 }
  - { offset: 0x6A992, size: 0x8, addend: 0x0, symName: __RNvXNtNtNtCsaNl6UpbT7bw_4core4iter6traits7collectINtNtNtB6_8adapters3map3MapINtNtNtCsiTraAjBDcu4_5alloc3vec9into_iter8IntoIterTNtNtCsc29TF2YcYso_3syn3pat3PatNtNtB25_5token5CommaEENCINvNtB25_10punctuated4foldB21_B2v_NtNvCsiSITA57RZ13_15zerofrom_derive16replace_lifetime15ReplaceLifetimeNvYB3r_NtNtNtB25_3gen4fold4Fold8fold_patE0ENtB2_12IntoIterator9into_iterB3v_, symObjAddr: 0x6854, symBinAddr: 0x4B6F0, symSize: 0x30 }
  - { offset: 0x6A9CA, size: 0x8, addend: 0x0, symName: __RNvXNtNtNtCsaNl6UpbT7bw_4core4iter6traits7collectINtNtNtB6_8adapters3map3MapINtNtNtCsiTraAjBDcu4_5alloc3vec9into_iter8IntoIterTNtNtCsc29TF2YcYso_3syn3pat3PatNtNtB25_5token5CommaEENCINvNtB25_10punctuated4foldB21_B2v_NtNvCsiSITA57RZ13_15zerofrom_derive25replace_lifetime_and_type20ReplaceLifetimeAndTyNvYB3r_NtNtNtB25_3gen4fold4Fold8fold_patE0ENtB2_12IntoIterator9into_iterB3v_, symObjAddr: 0x6884, symBinAddr: 0x4B720, symSize: 0x30 }
  - { offset: 0x6AA02, size: 0x8, addend: 0x0, symName: __RNvXNtNtNtCsaNl6UpbT7bw_4core4iter6traits7collectINtNtNtB6_8adapters3map3MapINtNtNtCsiTraAjBDcu4_5alloc3vec9into_iter8IntoIterTNtNtCsc29TF2YcYso_3syn3pat8FieldPatNtNtB25_5token5CommaEENCINvNtB25_10punctuated4foldB21_B2A_NtNvCsiSITA57RZ13_15zerofrom_derive16replace_lifetime15ReplaceLifetimeNvYB3w_NtNtNtB25_3gen4fold4Fold14fold_field_patE0ENtB2_12IntoIterator9into_iterB3A_, symObjAddr: 0x68B4, symBinAddr: 0x4B750, symSize: 0x30 }
  - { offset: 0x6AA3A, size: 0x8, addend: 0x0, symName: __RNvXNtNtNtCsaNl6UpbT7bw_4core4iter6traits7collectINtNtNtB6_8adapters3map3MapINtNtNtCsiTraAjBDcu4_5alloc3vec9into_iter8IntoIterTNtNtCsc29TF2YcYso_3syn3pat8FieldPatNtNtB25_5token5CommaEENCINvNtB25_10punctuated4foldB21_B2A_NtNvCsiSITA57RZ13_15zerofrom_derive25replace_lifetime_and_type20ReplaceLifetimeAndTyNvYB3w_NtNtNtB25_3gen4fold4Fold14fold_field_patE0ENtB2_12IntoIterator9into_iterB3A_, symObjAddr: 0x68E4, symBinAddr: 0x4B780, symSize: 0x30 }
  - { offset: 0x6AA72, size: 0x8, addend: 0x0, symName: __RNvXNtNtNtCsaNl6UpbT7bw_4core4iter6traits7collectINtNtNtB6_8adapters3map3MapINtNtNtCsiTraAjBDcu4_5alloc3vec9into_iter8IntoIterTNtNtCsc29TF2YcYso_3syn4data5FieldNtNtB25_5token5CommaEENCINvNtB25_10punctuated4foldB21_B2y_NtNvCsiSITA57RZ13_15zerofrom_derive16replace_lifetime15ReplaceLifetimeNvYB3u_NtNtNtB25_3gen4fold4Fold10fold_fieldE0ENtB2_12IntoIterator9into_iterB3y_, symObjAddr: 0x6914, symBinAddr: 0x4B7B0, symSize: 0x30 }
  - { offset: 0x6AAAA, size: 0x8, addend: 0x0, symName: __RNvXNtNtNtCsaNl6UpbT7bw_4core4iter6traits7collectINtNtNtB6_8adapters3map3MapINtNtNtCsiTraAjBDcu4_5alloc3vec9into_iter8IntoIterTNtNtCsc29TF2YcYso_3syn4data5FieldNtNtB25_5token5CommaEENCINvNtB25_10punctuated4foldB21_B2y_NtNvCsiSITA57RZ13_15zerofrom_derive25replace_lifetime_and_type20ReplaceLifetimeAndTyNvYB3u_NtNtNtB25_3gen4fold4Fold10fold_fieldE0ENtB2_12IntoIterator9into_iterB3y_, symObjAddr: 0x6944, symBinAddr: 0x4B7E0, symSize: 0x30 }
  - { offset: 0x6AAE2, size: 0x8, addend: 0x0, symName: __RNvXNtNtNtCsaNl6UpbT7bw_4core4iter6traits7collectINtNtNtB6_8adapters3map3MapINtNtNtCsiTraAjBDcu4_5alloc3vec9into_iter8IntoIterTNtNtCsc29TF2YcYso_3syn4data7VariantNtNtB25_5token5CommaEENCINvNtB25_10punctuated4foldB21_B2A_NtNvCsiSITA57RZ13_15zerofrom_derive16replace_lifetime15ReplaceLifetimeNvYB3w_NtNtNtB25_3gen4fold4Fold12fold_variantE0ENtB2_12IntoIterator9into_iterB3A_, symObjAddr: 0x6974, symBinAddr: 0x4B810, symSize: 0x30 }
  - { offset: 0x6AB1A, size: 0x8, addend: 0x0, symName: __RNvXNtNtNtCsaNl6UpbT7bw_4core4iter6traits7collectINtNtNtB6_8adapters3map3MapINtNtNtCsiTraAjBDcu4_5alloc3vec9into_iter8IntoIterTNtNtCsc29TF2YcYso_3syn4data7VariantNtNtB25_5token5CommaEENCINvNtB25_10punctuated4foldB21_B2A_NtNvCsiSITA57RZ13_15zerofrom_derive25replace_lifetime_and_type20ReplaceLifetimeAndTyNvYB3w_NtNtNtB25_3gen4fold4Fold12fold_variantE0ENtB2_12IntoIterator9into_iterB3A_, symObjAddr: 0x69A4, symBinAddr: 0x4B840, symSize: 0x30 }
  - { offset: 0x6AB52, size: 0x8, addend: 0x0, symName: __RNvXNtNtNtCsaNl6UpbT7bw_4core4iter6traits7collectINtNtNtB6_8adapters3map3MapINtNtNtCsiTraAjBDcu4_5alloc3vec9into_iter8IntoIterTNtNtCsc29TF2YcYso_3syn4expr10FieldValueNtNtB25_5token5CommaEENCINvNtB25_10punctuated4foldB21_B2E_NtNvCsiSITA57RZ13_15zerofrom_derive16replace_lifetime15ReplaceLifetimeNvYB3A_NtNtNtB25_3gen4fold4Fold16fold_field_valueE0ENtB2_12IntoIterator9into_iterB3E_, symObjAddr: 0x69D4, symBinAddr: 0x4B870, symSize: 0x30 }
  - { offset: 0x6AB8A, size: 0x8, addend: 0x0, symName: __RNvXNtNtNtCsaNl6UpbT7bw_4core4iter6traits7collectINtNtNtB6_8adapters3map3MapINtNtNtCsiTraAjBDcu4_5alloc3vec9into_iter8IntoIterTNtNtCsc29TF2YcYso_3syn4expr10FieldValueNtNtB25_5token5CommaEENCINvNtB25_10punctuated4foldB21_B2E_NtNvCsiSITA57RZ13_15zerofrom_derive25replace_lifetime_and_type20ReplaceLifetimeAndTyNvYB3A_NtNtNtB25_3gen4fold4Fold16fold_field_valueE0ENtB2_12IntoIterator9into_iterB3E_, symObjAddr: 0x6A04, symBinAddr: 0x4B8A0, symSize: 0x30 }
  - { offset: 0x6ABC2, size: 0x8, addend: 0x0, symName: __RNvXNtNtNtCsaNl6UpbT7bw_4core4iter6traits7collectINtNtNtB6_8adapters3map3MapINtNtNtCsiTraAjBDcu4_5alloc3vec9into_iter8IntoIterTNtNtCsc29TF2YcYso_3syn4expr4ExprNtNtB25_5token5CommaEENCINvNtB25_10punctuated4foldB21_B2x_NtNvCsiSITA57RZ13_15zerofrom_derive16replace_lifetime15ReplaceLifetimeNvYB3t_NtNtNtB25_3gen4fold4Fold9fold_exprE0ENtB2_12IntoIterator9into_iterB3x_, symObjAddr: 0x6A34, symBinAddr: 0x4B8D0, symSize: 0x30 }
  - { offset: 0x6ABFA, size: 0x8, addend: 0x0, symName: __RNvXNtNtNtCsaNl6UpbT7bw_4core4iter6traits7collectINtNtNtB6_8adapters3map3MapINtNtNtCsiTraAjBDcu4_5alloc3vec9into_iter8IntoIterTNtNtCsc29TF2YcYso_3syn4expr4ExprNtNtB25_5token5CommaEENCINvNtB25_10punctuated4foldB21_B2x_NtNvCsiSITA57RZ13_15zerofrom_derive25replace_lifetime_and_type20ReplaceLifetimeAndTyNvYB3t_NtNtNtB25_3gen4fold4Fold9fold_exprE0ENtB2_12IntoIterator9into_iterB3x_, symObjAddr: 0x6A64, symBinAddr: 0x4B900, symSize: 0x30 }
  - { offset: 0x6AC32, size: 0x8, addend: 0x0, symName: __RNvXNtNtNtCsaNl6UpbT7bw_4core4iter6traits7collectINtNtNtB6_8adapters3map3MapINtNtNtCsiTraAjBDcu4_5alloc3vec9into_iter8IntoIterTNtNtCsc29TF2YcYso_3syn4item5FnArgNtNtB25_5token5CommaEENCINvNtB25_10punctuated4foldB21_B2y_NtNvCsiSITA57RZ13_15zerofrom_derive16replace_lifetime15ReplaceLifetimeNvYB3u_NtNtNtB25_3gen4fold4Fold11fold_fn_argE0ENtB2_12IntoIterator9into_iterB3y_, symObjAddr: 0x6A94, symBinAddr: 0x4B930, symSize: 0x30 }
  - { offset: 0x6AC6A, size: 0x8, addend: 0x0, symName: __RNvXNtNtNtCsaNl6UpbT7bw_4core4iter6traits7collectINtNtNtB6_8adapters3map3MapINtNtNtCsiTraAjBDcu4_5alloc3vec9into_iter8IntoIterTNtNtCsc29TF2YcYso_3syn4item5FnArgNtNtB25_5token5CommaEENCINvNtB25_10punctuated4foldB21_B2y_NtNvCsiSITA57RZ13_15zerofrom_derive25replace_lifetime_and_type20ReplaceLifetimeAndTyNvYB3u_NtNtNtB25_3gen4fold4Fold11fold_fn_argE0ENtB2_12IntoIterator9into_iterB3y_, symObjAddr: 0x6AC4, symBinAddr: 0x4B960, symSize: 0x30 }
  - { offset: 0x6ACA2, size: 0x8, addend: 0x0, symName: __RNvXNtNtNtCsaNl6UpbT7bw_4core4iter6traits7collectINtNtNtB6_8adapters3map3MapINtNtNtCsiTraAjBDcu4_5alloc3vec9into_iter8IntoIterTNtNtCsc29TF2YcYso_3syn4item7UseTreeNtNtB25_5token5CommaEENCINvNtB25_10punctuated4foldB21_B2A_NtNvCsiSITA57RZ13_15zerofrom_derive16replace_lifetime15ReplaceLifetimeNvYB3w_NtNtNtB25_3gen4fold4Fold13fold_use_treeE0ENtB2_12IntoIterator9into_iterB3A_, symObjAddr: 0x6AF4, symBinAddr: 0x4B990, symSize: 0x30 }
  - { offset: 0x6ACDA, size: 0x8, addend: 0x0, symName: __RNvXNtNtNtCsaNl6UpbT7bw_4core4iter6traits7collectINtNtNtB6_8adapters3map3MapINtNtNtCsiTraAjBDcu4_5alloc3vec9into_iter8IntoIterTNtNtCsc29TF2YcYso_3syn4item7UseTreeNtNtB25_5token5CommaEENCINvNtB25_10punctuated4foldB21_B2A_NtNvCsiSITA57RZ13_15zerofrom_derive25replace_lifetime_and_type20ReplaceLifetimeAndTyNvYB3w_NtNtNtB25_3gen4fold4Fold13fold_use_treeE0ENtB2_12IntoIterator9into_iterB3A_, symObjAddr: 0x6B24, symBinAddr: 0x4B9C0, symSize: 0x30 }
  - { offset: 0x6AD12, size: 0x8, addend: 0x0, symName: __RNvXNtNtNtCsaNl6UpbT7bw_4core4iter6traits7collectINtNtNtB6_8adapters3map3MapINtNtNtCsiTraAjBDcu4_5alloc3vec9into_iter8IntoIterTNtNtCsc29TF2YcYso_3syn4path11PathSegmentNtNtB25_5token7PathSepEENCINvNtB25_10punctuated4foldB21_B2F_NtNvCsiSITA57RZ13_15zerofrom_derive16replace_lifetime15ReplaceLifetimeNvYB3D_NtNtNtB25_3gen4fold4Fold17fold_path_segmentE0ENtB2_12IntoIterator9into_iterB3H_, symObjAddr: 0x6B54, symBinAddr: 0x4B9F0, symSize: 0x30 }
  - { offset: 0x6AD4A, size: 0x8, addend: 0x0, symName: __RNvXNtNtNtCsaNl6UpbT7bw_4core4iter6traits7collectINtNtNtB6_8adapters3map3MapINtNtNtCsiTraAjBDcu4_5alloc3vec9into_iter8IntoIterTNtNtCsc29TF2YcYso_3syn4path11PathSegmentNtNtB25_5token7PathSepEENCINvNtB25_10punctuated4foldB21_B2F_NtNvCsiSITA57RZ13_15zerofrom_derive25replace_lifetime_and_type20ReplaceLifetimeAndTyNvYB3D_NtNtNtB25_3gen4fold4Fold17fold_path_segmentE0ENtB2_12IntoIterator9into_iterB3H_, symObjAddr: 0x6B84, symBinAddr: 0x4BA20, symSize: 0x30 }
  - { offset: 0x6AD82, size: 0x8, addend: 0x0, symName: __RNvXNtNtNtCsaNl6UpbT7bw_4core4iter6traits7collectINtNtNtB6_8adapters3map3MapINtNtNtCsiTraAjBDcu4_5alloc3vec9into_iter8IntoIterTNtNtCsc29TF2YcYso_3syn4path15GenericArgumentNtNtB25_5token5CommaEENCINvNtB25_10punctuated4foldB21_B2J_NtNvCsiSITA57RZ13_15zerofrom_derive16replace_lifetime15ReplaceLifetimeNvYB3F_NtNtNtB25_3gen4fold4Fold21fold_generic_argumentE0ENtB2_12IntoIterator9into_iterB3J_, symObjAddr: 0x6BB4, symBinAddr: 0x4BA50, symSize: 0x30 }
  - { offset: 0x6ADBA, size: 0x8, addend: 0x0, symName: __RNvXNtNtNtCsaNl6UpbT7bw_4core4iter6traits7collectINtNtNtB6_8adapters3map3MapINtNtNtCsiTraAjBDcu4_5alloc3vec9into_iter8IntoIterTNtNtCsc29TF2YcYso_3syn4path15GenericArgumentNtNtB25_5token5CommaEENCINvNtB25_10punctuated4foldB21_B2J_NtNvCsiSITA57RZ13_15zerofrom_derive25replace_lifetime_and_type20ReplaceLifetimeAndTyNvYB3F_NtNtNtB25_3gen4fold4Fold21fold_generic_argumentE0ENtB2_12IntoIterator9into_iterB3J_, symObjAddr: 0x6BE4, symBinAddr: 0x4BA80, symSize: 0x30 }
  - { offset: 0x6ADF2, size: 0x8, addend: 0x0, symName: __RNvXNtNtNtCsaNl6UpbT7bw_4core4iter6traits7collectINtNtNtB6_8adapters3map3MapINtNtNtCsiTraAjBDcu4_5alloc3vec9into_iter8IntoIterTNtNtCsc29TF2YcYso_3syn8generics12GenericParamNtNtB25_5token5CommaEENCINvNtB25_10punctuated4foldB21_B2K_NtNvCsiSITA57RZ13_15zerofrom_derive16replace_lifetime15ReplaceLifetimeNvYB3G_NtNtNtB25_3gen4fold4Fold18fold_generic_paramE0ENtB2_12IntoIterator9into_iterB3K_, symObjAddr: 0x6C14, symBinAddr: 0x4BAB0, symSize: 0x30 }
  - { offset: 0x6AE2A, size: 0x8, addend: 0x0, symName: __RNvXNtNtNtCsaNl6UpbT7bw_4core4iter6traits7collectINtNtNtB6_8adapters3map3MapINtNtNtCsiTraAjBDcu4_5alloc3vec9into_iter8IntoIterTNtNtCsc29TF2YcYso_3syn8generics12GenericParamNtNtB25_5token5CommaEENCINvNtB25_10punctuated4foldB21_B2K_NtNvCsiSITA57RZ13_15zerofrom_derive25replace_lifetime_and_type20ReplaceLifetimeAndTyNvYB3G_NtNtNtB25_3gen4fold4Fold18fold_generic_paramE0ENtB2_12IntoIterator9into_iterB3K_, symObjAddr: 0x6C44, symBinAddr: 0x4BAE0, symSize: 0x30 }
  - { offset: 0x6AE62, size: 0x8, addend: 0x0, symName: __RNvXNtNtNtCsaNl6UpbT7bw_4core4iter6traits7collectINtNtNtB6_8adapters3map3MapINtNtNtCsiTraAjBDcu4_5alloc3vec9into_iter8IntoIterTNtNtCsc29TF2YcYso_3syn8generics13CapturedParamNtNtB25_5token5CommaEENCINvNtB25_10punctuated4foldB21_B2L_NtNvCsiSITA57RZ13_15zerofrom_derive16replace_lifetime15ReplaceLifetimeNvYB3H_NtNtNtB25_3gen4fold4Fold19fold_captured_paramE0ENtB2_12IntoIterator9into_iterB3L_, symObjAddr: 0x6C74, symBinAddr: 0x4BB10, symSize: 0x30 }
  - { offset: 0x6AE9A, size: 0x8, addend: 0x0, symName: __RNvXNtNtNtCsaNl6UpbT7bw_4core4iter6traits7collectINtNtNtB6_8adapters3map3MapINtNtNtCsiTraAjBDcu4_5alloc3vec9into_iter8IntoIterTNtNtCsc29TF2YcYso_3syn8generics13CapturedParamNtNtB25_5token5CommaEENCINvNtB25_10punctuated4foldB21_B2L_NtNvCsiSITA57RZ13_15zerofrom_derive25replace_lifetime_and_type20ReplaceLifetimeAndTyNvYB3H_NtNtNtB25_3gen4fold4Fold19fold_captured_paramE0ENtB2_12IntoIterator9into_iterB3L_, symObjAddr: 0x6CA4, symBinAddr: 0x4BB40, symSize: 0x30 }
  - { offset: 0x6AED2, size: 0x8, addend: 0x0, symName: __RNvXNtNtNtCsaNl6UpbT7bw_4core4iter6traits7collectINtNtNtB6_8adapters3map3MapINtNtNtCsiTraAjBDcu4_5alloc3vec9into_iter8IntoIterTNtNtCsc29TF2YcYso_3syn8generics14TypeParamBoundNtNtB25_5token4PlusEENCINvNtB25_10punctuated4foldB21_B2M_NtNvCsiSITA57RZ13_15zerofrom_derive16replace_lifetime15ReplaceLifetimeNvYB3H_NtNtNtB25_3gen4fold4Fold21fold_type_param_boundE0ENtB2_12IntoIterator9into_iterB3L_, symObjAddr: 0x6CD4, symBinAddr: 0x4BB70, symSize: 0x30 }
  - { offset: 0x6AF0A, size: 0x8, addend: 0x0, symName: __RNvXNtNtNtCsaNl6UpbT7bw_4core4iter6traits7collectINtNtNtB6_8adapters3map3MapINtNtNtCsiTraAjBDcu4_5alloc3vec9into_iter8IntoIterTNtNtCsc29TF2YcYso_3syn8generics14TypeParamBoundNtNtB25_5token4PlusEENCINvNtB25_10punctuated4foldB21_B2M_NtNvCsiSITA57RZ13_15zerofrom_derive25replace_lifetime_and_type20ReplaceLifetimeAndTyNvYB3H_NtNtNtB25_3gen4fold4Fold21fold_type_param_boundE0ENtB2_12IntoIterator9into_iterB3L_, symObjAddr: 0x6D04, symBinAddr: 0x4BBA0, symSize: 0x30 }
  - { offset: 0x6AF42, size: 0x8, addend: 0x0, symName: __RNvXNtNtNtCsaNl6UpbT7bw_4core4iter6traits7collectINtNtNtB6_8adapters3map3MapINtNtNtCsiTraAjBDcu4_5alloc3vec9into_iter8IntoIterTNtNtCsc29TF2YcYso_3syn8generics14WherePredicateNtNtB25_5token5CommaEENCINvNtB25_10punctuated4foldB21_B2M_NtNvCsiSITA57RZ13_15zerofrom_derive16replace_lifetime15ReplaceLifetimeNvYB3I_NtNtNtB25_3gen4fold4Fold20fold_where_predicateE0ENtB2_12IntoIterator9into_iterB3M_, symObjAddr: 0x6D34, symBinAddr: 0x4BBD0, symSize: 0x30 }
  - { offset: 0x6AF7A, size: 0x8, addend: 0x0, symName: __RNvXNtNtNtCsaNl6UpbT7bw_4core4iter6traits7collectINtNtNtB6_8adapters3map3MapINtNtNtCsiTraAjBDcu4_5alloc3vec9into_iter8IntoIterTNtNtCsc29TF2YcYso_3syn8generics14WherePredicateNtNtB25_5token5CommaEENCINvNtB25_10punctuated4foldB21_B2M_NtNvCsiSITA57RZ13_15zerofrom_derive25replace_lifetime_and_type20ReplaceLifetimeAndTyNvYB3I_NtNtNtB25_3gen4fold4Fold20fold_where_predicateE0ENtB2_12IntoIterator9into_iterB3M_, symObjAddr: 0x6D64, symBinAddr: 0x4BC00, symSize: 0x30 }
  - { offset: 0x6AFB2, size: 0x8, addend: 0x0, symName: __RNvXNtNtNtCsaNl6UpbT7bw_4core4iter6traits7collectINtNtNtB6_8adapters3map3MapINtNtNtCsiTraAjBDcu4_5alloc3vec9into_iter8IntoIterTNtNtCsc29TF2YcYso_3syn8lifetime8LifetimeNtNtB25_5token4PlusEENCINvNtB25_10punctuated4foldB21_B2F_NtNvCsiSITA57RZ13_15zerofrom_derive16replace_lifetime15ReplaceLifetimeNvYB3A_NtNtNtB25_3gen4fold4Fold13fold_lifetimeE0ENtB2_12IntoIterator9into_iterB3E_, symObjAddr: 0x6D94, symBinAddr: 0x4BC30, symSize: 0x30 }
  - { offset: 0x6AFEA, size: 0x8, addend: 0x0, symName: __RNvXNtNtNtCsaNl6UpbT7bw_4core4iter6traits7collectINtNtNtB6_8adapters3map3MapINtNtNtCsiTraAjBDcu4_5alloc3vec9into_iter8IntoIterTNtNtCsc29TF2YcYso_3syn8lifetime8LifetimeNtNtB25_5token4PlusEENCINvNtB25_10punctuated4foldB21_B2F_NtNvCsiSITA57RZ13_15zerofrom_derive25replace_lifetime_and_type20ReplaceLifetimeAndTyNvYB3A_NtNtNtB25_3gen4fold4Fold13fold_lifetimeE0ENtB2_12IntoIterator9into_iterB3E_, symObjAddr: 0x6DC4, symBinAddr: 0x4BC60, symSize: 0x30 }
  - { offset: 0x6B022, size: 0x8, addend: 0x0, symName: __RNvXNtNtNtCsaNl6UpbT7bw_4core4iter6traits7collectINtNtNtB6_8adapters3map3MapNtNtCsc29TF2YcYso_3syn8generics10TypeParamsNCNvCsiSITA57RZ13_15zerofrom_derive14zf_derive_impl0ENtB2_12IntoIterator9into_iterB1X_, symObjAddr: 0x6DF4, symBinAddr: 0x4BC90, symSize: 0x1C }
  - { offset: 0x717CA, size: 0x8, addend: 0x0, symName: __RNvXs0_NtNtCsiTraAjBDcu4_5alloc3vec16in_place_collectINtNtNtNtCsaNl6UpbT7bw_4core4iter8adapters3map3MapINtNtB7_9into_iter8IntoIterNtNtCsc29TF2YcYso_3syn4attr9AttributeENCINvNtNtB28_3gen4fold8fold_vecB24_NtNvCsiSITA57RZ13_15zerofrom_derive16replace_lifetime15ReplaceLifetimeNvYB3f_NtB2L_4Fold14fold_attributeE0EINtB5_18SpecInPlaceCollectB24_BP_E16collect_in_placeB3j_, symObjAddr: 0x6E10, symBinAddr: 0x4BCAC, symSize: 0xD0 }
  - { offset: 0x71919, size: 0x8, addend: 0x0, symName: __RNvXs0_NtNtCsiTraAjBDcu4_5alloc3vec16in_place_collectINtNtNtNtCsaNl6UpbT7bw_4core4iter8adapters3map3MapINtNtB7_9into_iter8IntoIterNtNtCsc29TF2YcYso_3syn4attr9AttributeENCINvNtNtB28_3gen4fold8fold_vecB24_NtNvCsiSITA57RZ13_15zerofrom_derive25replace_lifetime_and_type20ReplaceLifetimeAndTyNvYB3f_NtB2L_4Fold14fold_attributeE0EINtB5_18SpecInPlaceCollectB24_BP_E16collect_in_placeB3j_, symObjAddr: 0x6EE0, symBinAddr: 0x4BD7C, symSize: 0xD0 }
  - { offset: 0x71A68, size: 0x8, addend: 0x0, symName: __RNvXs0_NtNtCsiTraAjBDcu4_5alloc3vec16in_place_collectINtNtNtNtCsaNl6UpbT7bw_4core4iter8adapters3map3MapINtNtB7_9into_iter8IntoIterNtNtCsc29TF2YcYso_3syn4expr3ArmENCINvNtNtB28_3gen4fold8fold_vecB24_NtNvCsiSITA57RZ13_15zerofrom_derive16replace_lifetime15ReplaceLifetimeNvYB39_NtB2F_4Fold8fold_armE0EINtB5_18SpecInPlaceCollectB24_BP_E16collect_in_placeB3d_, symObjAddr: 0x6FB0, symBinAddr: 0x4BE4C, symSize: 0xD0 }
  - { offset: 0x71BB7, size: 0x8, addend: 0x0, symName: __RNvXs0_NtNtCsiTraAjBDcu4_5alloc3vec16in_place_collectINtNtNtNtCsaNl6UpbT7bw_4core4iter8adapters3map3MapINtNtB7_9into_iter8IntoIterNtNtCsc29TF2YcYso_3syn4expr3ArmENCINvNtNtB28_3gen4fold8fold_vecB24_NtNvCsiSITA57RZ13_15zerofrom_derive25replace_lifetime_and_type20ReplaceLifetimeAndTyNvYB39_NtB2F_4Fold8fold_armE0EINtB5_18SpecInPlaceCollectB24_BP_E16collect_in_placeB3d_, symObjAddr: 0x7080, symBinAddr: 0x4BF1C, symSize: 0xD0 }
  - { offset: 0x71D06, size: 0x8, addend: 0x0, symName: __RNvXs0_NtNtCsiTraAjBDcu4_5alloc3vec16in_place_collectINtNtNtNtCsaNl6UpbT7bw_4core4iter8adapters3map3MapINtNtB7_9into_iter8IntoIterNtNtCsc29TF2YcYso_3syn4item11ForeignItemENCINvNtNtB28_3gen4fold8fold_vecB24_NtNvCsiSITA57RZ13_15zerofrom_derive16replace_lifetime15ReplaceLifetimeNvYB3i_NtB2O_4Fold17fold_foreign_itemE0EINtB5_18SpecInPlaceCollectB24_BP_E16collect_in_placeB3m_, symObjAddr: 0x7150, symBinAddr: 0x4BFEC, symSize: 0xD0 }
  - { offset: 0x71E55, size: 0x8, addend: 0x0, symName: __RNvXs0_NtNtCsiTraAjBDcu4_5alloc3vec16in_place_collectINtNtNtNtCsaNl6UpbT7bw_4core4iter8adapters3map3MapINtNtB7_9into_iter8IntoIterNtNtCsc29TF2YcYso_3syn4item11ForeignItemENCINvNtNtB28_3gen4fold8fold_vecB24_NtNvCsiSITA57RZ13_15zerofrom_derive25replace_lifetime_and_type20ReplaceLifetimeAndTyNvYB3i_NtB2O_4Fold17fold_foreign_itemE0EINtB5_18SpecInPlaceCollectB24_BP_E16collect_in_placeB3m_, symObjAddr: 0x7220, symBinAddr: 0x4C0BC, symSize: 0xD0 }
  - { offset: 0x71FA4, size: 0x8, addend: 0x0, symName: __RNvXs0_NtNtCsiTraAjBDcu4_5alloc3vec16in_place_collectINtNtNtNtCsaNl6UpbT7bw_4core4iter8adapters3map3MapINtNtB7_9into_iter8IntoIterNtNtCsc29TF2YcYso_3syn4item4ItemENCINvNtNtB28_3gen4fold8fold_vecB24_NtNvCsiSITA57RZ13_15zerofrom_derive16replace_lifetime15ReplaceLifetimeNvYB3a_NtB2G_4Fold9fold_itemE0EINtB5_18SpecInPlaceCollectB24_BP_E16collect_in_placeB3e_, symObjAddr: 0x72F0, symBinAddr: 0x4C18C, symSize: 0xD0 }
  - { offset: 0x720F3, size: 0x8, addend: 0x0, symName: __RNvXs0_NtNtCsiTraAjBDcu4_5alloc3vec16in_place_collectINtNtNtNtCsaNl6UpbT7bw_4core4iter8adapters3map3MapINtNtB7_9into_iter8IntoIterNtNtCsc29TF2YcYso_3syn4item4ItemENCINvNtNtB28_3gen4fold8fold_vecB24_NtNvCsiSITA57RZ13_15zerofrom_derive25replace_lifetime_and_type20ReplaceLifetimeAndTyNvYB3a_NtB2G_4Fold9fold_itemE0EINtB5_18SpecInPlaceCollectB24_BP_E16collect_in_placeB3e_, symObjAddr: 0x73C0, symBinAddr: 0x4C25C, symSize: 0xD0 }
  - { offset: 0x72242, size: 0x8, addend: 0x0, symName: __RNvXs0_NtNtCsiTraAjBDcu4_5alloc3vec16in_place_collectINtNtNtNtCsaNl6UpbT7bw_4core4iter8adapters3map3MapINtNtB7_9into_iter8IntoIterNtNtCsc29TF2YcYso_3syn4item8ImplItemENCINvNtNtB28_3gen4fold8fold_vecB24_NtNvCsiSITA57RZ13_15zerofrom_derive16replace_lifetime15ReplaceLifetimeNvYB3e_NtB2K_4Fold14fold_impl_itemE0EINtB5_18SpecInPlaceCollectB24_BP_E16collect_in_placeB3i_, symObjAddr: 0x7490, symBinAddr: 0x4C32C, symSize: 0xD0 }
  - { offset: 0x72391, size: 0x8, addend: 0x0, symName: __RNvXs0_NtNtCsiTraAjBDcu4_5alloc3vec16in_place_collectINtNtNtNtCsaNl6UpbT7bw_4core4iter8adapters3map3MapINtNtB7_9into_iter8IntoIterNtNtCsc29TF2YcYso_3syn4item8ImplItemENCINvNtNtB28_3gen4fold8fold_vecB24_NtNvCsiSITA57RZ13_15zerofrom_derive25replace_lifetime_and_type20ReplaceLifetimeAndTyNvYB3e_NtB2K_4Fold14fold_impl_itemE0EINtB5_18SpecInPlaceCollectB24_BP_E16collect_in_placeB3i_, symObjAddr: 0x7560, symBinAddr: 0x4C3FC, symSize: 0xD0 }
  - { offset: 0x724E0, size: 0x8, addend: 0x0, symName: __RNvXs0_NtNtCsiTraAjBDcu4_5alloc3vec16in_place_collectINtNtNtNtCsaNl6UpbT7bw_4core4iter8adapters3map3MapINtNtB7_9into_iter8IntoIterNtNtCsc29TF2YcYso_3syn4item9TraitItemENCINvNtNtB28_3gen4fold8fold_vecB24_NtNvCsiSITA57RZ13_15zerofrom_derive16replace_lifetime15ReplaceLifetimeNvYB3f_NtB2L_4Fold15fold_trait_itemE0EINtB5_18SpecInPlaceCollectB24_BP_E16collect_in_placeB3j_, symObjAddr: 0x7630, symBinAddr: 0x4C4CC, symSize: 0xD0 }
  - { offset: 0x7262F, size: 0x8, addend: 0x0, symName: __RNvXs0_NtNtCsiTraAjBDcu4_5alloc3vec16in_place_collectINtNtNtNtCsaNl6UpbT7bw_4core4iter8adapters3map3MapINtNtB7_9into_iter8IntoIterNtNtCsc29TF2YcYso_3syn4item9TraitItemENCINvNtNtB28_3gen4fold8fold_vecB24_NtNvCsiSITA57RZ13_15zerofrom_derive25replace_lifetime_and_type20ReplaceLifetimeAndTyNvYB3f_NtB2L_4Fold15fold_trait_itemE0EINtB5_18SpecInPlaceCollectB24_BP_E16collect_in_placeB3j_, symObjAddr: 0x7700, symBinAddr: 0x4C59C, symSize: 0xD0 }
  - { offset: 0x7277E, size: 0x8, addend: 0x0, symName: __RNvXs0_NtNtCsiTraAjBDcu4_5alloc3vec16in_place_collectINtNtNtNtCsaNl6UpbT7bw_4core4iter8adapters3map3MapINtNtB7_9into_iter8IntoIterNtNtCsc29TF2YcYso_3syn4stmt4StmtENCINvNtNtB28_3gen4fold8fold_vecB24_NtNvCsiSITA57RZ13_15zerofrom_derive16replace_lifetime15ReplaceLifetimeNvYB3a_NtB2G_4Fold9fold_stmtE0EINtB5_18SpecInPlaceCollectB24_BP_E16collect_in_placeB3e_, symObjAddr: 0x77D0, symBinAddr: 0x4C66C, symSize: 0xD0 }
  - { offset: 0x728CD, size: 0x8, addend: 0x0, symName: __RNvXs0_NtNtCsiTraAjBDcu4_5alloc3vec16in_place_collectINtNtNtNtCsaNl6UpbT7bw_4core4iter8adapters3map3MapINtNtB7_9into_iter8IntoIterNtNtCsc29TF2YcYso_3syn4stmt4StmtENCINvNtNtB28_3gen4fold8fold_vecB24_NtNvCsiSITA57RZ13_15zerofrom_derive25replace_lifetime_and_type20ReplaceLifetimeAndTyNvYB3a_NtB2G_4Fold9fold_stmtE0EINtB5_18SpecInPlaceCollectB24_BP_E16collect_in_placeB3e_, symObjAddr: 0x78A0, symBinAddr: 0x4C73C, symSize: 0xD0 }
  - { offset: 0x72A1C, size: 0x8, addend: 0x0, symName: __RNvXs0_NtNtCsiTraAjBDcu4_5alloc3vec16in_place_collectINtNtNtNtCsaNl6UpbT7bw_4core4iter8adapters3map3MapINtNtB7_9into_iter8IntoIterTNtNtCsc29TF2YcYso_3syn2ty4TypeNtNtB29_5token5CommaEENCINvNtB29_10punctuated4foldB25_B2z_NtNvCsiSITA57RZ13_15zerofrom_derive16replace_lifetime15ReplaceLifetimeNvYB3v_NtNtNtB29_3gen4fold4Fold9fold_typeE0EINtB5_18SpecInPlaceCollectB24_BP_E16collect_in_placeB3z_, symObjAddr: 0x7970, symBinAddr: 0x4C80C, symSize: 0xD0 }
  - { offset: 0x72B6B, size: 0x8, addend: 0x0, symName: __RNvXs0_NtNtCsiTraAjBDcu4_5alloc3vec16in_place_collectINtNtNtNtCsaNl6UpbT7bw_4core4iter8adapters3map3MapINtNtB7_9into_iter8IntoIterTNtNtCsc29TF2YcYso_3syn2ty4TypeNtNtB29_5token5CommaEENCINvNtB29_10punctuated4foldB25_B2z_NtNvCsiSITA57RZ13_15zerofrom_derive25replace_lifetime_and_type20ReplaceLifetimeAndTyNvYB3v_NtNtNtB29_3gen4fold4Fold9fold_typeE0EINtB5_18SpecInPlaceCollectB24_BP_E16collect_in_placeB3z_, symObjAddr: 0x7A40, symBinAddr: 0x4C8DC, symSize: 0xD0 }
  - { offset: 0x72CBA, size: 0x8, addend: 0x0, symName: __RNvXs0_NtNtCsiTraAjBDcu4_5alloc3vec16in_place_collectINtNtNtNtCsaNl6UpbT7bw_4core4iter8adapters3map3MapINtNtB7_9into_iter8IntoIterTNtNtCsc29TF2YcYso_3syn2ty9BareFnArgNtNtB29_5token5CommaEENCINvNtB29_10punctuated4foldB25_B2E_NtNvCsiSITA57RZ13_15zerofrom_derive16replace_lifetime15ReplaceLifetimeNvYB3A_NtNtNtB29_3gen4fold4Fold16fold_bare_fn_argE0EINtB5_18SpecInPlaceCollectB24_BP_E16collect_in_placeB3E_, symObjAddr: 0x7B10, symBinAddr: 0x4C9AC, symSize: 0xD0 }
  - { offset: 0x72E09, size: 0x8, addend: 0x0, symName: __RNvXs0_NtNtCsiTraAjBDcu4_5alloc3vec16in_place_collectINtNtNtNtCsaNl6UpbT7bw_4core4iter8adapters3map3MapINtNtB7_9into_iter8IntoIterTNtNtCsc29TF2YcYso_3syn2ty9BareFnArgNtNtB29_5token5CommaEENCINvNtB29_10punctuated4foldB25_B2E_NtNvCsiSITA57RZ13_15zerofrom_derive25replace_lifetime_and_type20ReplaceLifetimeAndTyNvYB3A_NtNtNtB29_3gen4fold4Fold16fold_bare_fn_argE0EINtB5_18SpecInPlaceCollectB24_BP_E16collect_in_placeB3E_, symObjAddr: 0x7BE0, symBinAddr: 0x4CA7C, symSize: 0xD0 }
  - { offset: 0x72F58, size: 0x8, addend: 0x0, symName: __RNvXs0_NtNtCsiTraAjBDcu4_5alloc3vec16in_place_collectINtNtNtNtCsaNl6UpbT7bw_4core4iter8adapters3map3MapINtNtB7_9into_iter8IntoIterTNtNtCsc29TF2YcYso_3syn3pat3PatNtNtB29_5token2OrEENCINvNtB29_10punctuated4foldB25_B2z_NtNvCsiSITA57RZ13_15zerofrom_derive16replace_lifetime15ReplaceLifetimeNvYB3s_NtNtNtB29_3gen4fold4Fold8fold_patE0EINtB5_18SpecInPlaceCollectB24_BP_E16collect_in_placeB3w_, symObjAddr: 0x7CB0, symBinAddr: 0x4CB4C, symSize: 0xD0 }
  - { offset: 0x730A7, size: 0x8, addend: 0x0, symName: __RNvXs0_NtNtCsiTraAjBDcu4_5alloc3vec16in_place_collectINtNtNtNtCsaNl6UpbT7bw_4core4iter8adapters3map3MapINtNtB7_9into_iter8IntoIterTNtNtCsc29TF2YcYso_3syn3pat3PatNtNtB29_5token2OrEENCINvNtB29_10punctuated4foldB25_B2z_NtNvCsiSITA57RZ13_15zerofrom_derive25replace_lifetime_and_type20ReplaceLifetimeAndTyNvYB3s_NtNtNtB29_3gen4fold4Fold8fold_patE0EINtB5_18SpecInPlaceCollectB24_BP_E16collect_in_placeB3w_, symObjAddr: 0x7D80, symBinAddr: 0x4CC1C, symSize: 0xD0 }
  - { offset: 0x731F6, size: 0x8, addend: 0x0, symName: __RNvXs0_NtNtCsiTraAjBDcu4_5alloc3vec16in_place_collectINtNtNtNtCsaNl6UpbT7bw_4core4iter8adapters3map3MapINtNtB7_9into_iter8IntoIterTNtNtCsc29TF2YcYso_3syn3pat3PatNtNtB29_5token5CommaEENCINvNtB29_10punctuated4foldB25_B2z_NtNvCsiSITA57RZ13_15zerofrom_derive16replace_lifetime15ReplaceLifetimeNvYB3v_NtNtNtB29_3gen4fold4Fold8fold_patE0EINtB5_18SpecInPlaceCollectB24_BP_E16collect_in_placeB3z_, symObjAddr: 0x7E50, symBinAddr: 0x4CCEC, symSize: 0xD0 }
  - { offset: 0x73345, size: 0x8, addend: 0x0, symName: __RNvXs0_NtNtCsiTraAjBDcu4_5alloc3vec16in_place_collectINtNtNtNtCsaNl6UpbT7bw_4core4iter8adapters3map3MapINtNtB7_9into_iter8IntoIterTNtNtCsc29TF2YcYso_3syn3pat3PatNtNtB29_5token5CommaEENCINvNtB29_10punctuated4foldB25_B2z_NtNvCsiSITA57RZ13_15zerofrom_derive25replace_lifetime_and_type20ReplaceLifetimeAndTyNvYB3v_NtNtNtB29_3gen4fold4Fold8fold_patE0EINtB5_18SpecInPlaceCollectB24_BP_E16collect_in_placeB3z_, symObjAddr: 0x7F20, symBinAddr: 0x4CDBC, symSize: 0xD0 }
  - { offset: 0x73494, size: 0x8, addend: 0x0, symName: __RNvXs0_NtNtCsiTraAjBDcu4_5alloc3vec16in_place_collectINtNtNtNtCsaNl6UpbT7bw_4core4iter8adapters3map3MapINtNtB7_9into_iter8IntoIterTNtNtCsc29TF2YcYso_3syn3pat8FieldPatNtNtB29_5token5CommaEENCINvNtB29_10punctuated4foldB25_B2E_NtNvCsiSITA57RZ13_15zerofrom_derive16replace_lifetime15ReplaceLifetimeNvYB3A_NtNtNtB29_3gen4fold4Fold14fold_field_patE0EINtB5_18SpecInPlaceCollectB24_BP_E16collect_in_placeB3E_, symObjAddr: 0x7FF0, symBinAddr: 0x4CE8C, symSize: 0xD0 }
  - { offset: 0x735E3, size: 0x8, addend: 0x0, symName: __RNvXs0_NtNtCsiTraAjBDcu4_5alloc3vec16in_place_collectINtNtNtNtCsaNl6UpbT7bw_4core4iter8adapters3map3MapINtNtB7_9into_iter8IntoIterTNtNtCsc29TF2YcYso_3syn3pat8FieldPatNtNtB29_5token5CommaEENCINvNtB29_10punctuated4foldB25_B2E_NtNvCsiSITA57RZ13_15zerofrom_derive25replace_lifetime_and_type20ReplaceLifetimeAndTyNvYB3A_NtNtNtB29_3gen4fold4Fold14fold_field_patE0EINtB5_18SpecInPlaceCollectB24_BP_E16collect_in_placeB3E_, symObjAddr: 0x80C0, symBinAddr: 0x4CF5C, symSize: 0xD0 }
  - { offset: 0x73732, size: 0x8, addend: 0x0, symName: __RNvXs0_NtNtCsiTraAjBDcu4_5alloc3vec16in_place_collectINtNtNtNtCsaNl6UpbT7bw_4core4iter8adapters3map3MapINtNtB7_9into_iter8IntoIterTNtNtCsc29TF2YcYso_3syn4data5FieldNtNtB29_5token5CommaEENCINvNtB29_10punctuated4foldB25_B2C_NtNvCsiSITA57RZ13_15zerofrom_derive16replace_lifetime15ReplaceLifetimeNvYB3y_NtNtNtB29_3gen4fold4Fold10fold_fieldE0EINtB5_18SpecInPlaceCollectB24_BP_E16collect_in_placeB3C_, symObjAddr: 0x8190, symBinAddr: 0x4D02C, symSize: 0xD0 }
  - { offset: 0x73881, size: 0x8, addend: 0x0, symName: __RNvXs0_NtNtCsiTraAjBDcu4_5alloc3vec16in_place_collectINtNtNtNtCsaNl6UpbT7bw_4core4iter8adapters3map3MapINtNtB7_9into_iter8IntoIterTNtNtCsc29TF2YcYso_3syn4data5FieldNtNtB29_5token5CommaEENCINvNtB29_10punctuated4foldB25_B2C_NtNvCsiSITA57RZ13_15zerofrom_derive25replace_lifetime_and_type20ReplaceLifetimeAndTyNvYB3y_NtNtNtB29_3gen4fold4Fold10fold_fieldE0EINtB5_18SpecInPlaceCollectB24_BP_E16collect_in_placeB3C_, symObjAddr: 0x8260, symBinAddr: 0x4D0FC, symSize: 0xD0 }
  - { offset: 0x739D0, size: 0x8, addend: 0x0, symName: __RNvXs0_NtNtCsiTraAjBDcu4_5alloc3vec16in_place_collectINtNtNtNtCsaNl6UpbT7bw_4core4iter8adapters3map3MapINtNtB7_9into_iter8IntoIterTNtNtCsc29TF2YcYso_3syn4data7VariantNtNtB29_5token5CommaEENCINvNtB29_10punctuated4foldB25_B2E_NtNvCsiSITA57RZ13_15zerofrom_derive16replace_lifetime15ReplaceLifetimeNvYB3A_NtNtNtB29_3gen4fold4Fold12fold_variantE0EINtB5_18SpecInPlaceCollectB24_BP_E16collect_in_placeB3E_, symObjAddr: 0x8330, symBinAddr: 0x4D1CC, symSize: 0xD0 }
  - { offset: 0x73B1F, size: 0x8, addend: 0x0, symName: __RNvXs0_NtNtCsiTraAjBDcu4_5alloc3vec16in_place_collectINtNtNtNtCsaNl6UpbT7bw_4core4iter8adapters3map3MapINtNtB7_9into_iter8IntoIterTNtNtCsc29TF2YcYso_3syn4data7VariantNtNtB29_5token5CommaEENCINvNtB29_10punctuated4foldB25_B2E_NtNvCsiSITA57RZ13_15zerofrom_derive25replace_lifetime_and_type20ReplaceLifetimeAndTyNvYB3A_NtNtNtB29_3gen4fold4Fold12fold_variantE0EINtB5_18SpecInPlaceCollectB24_BP_E16collect_in_placeB3E_, symObjAddr: 0x8400, symBinAddr: 0x4D29C, symSize: 0xD0 }
  - { offset: 0x73C6E, size: 0x8, addend: 0x0, symName: __RNvXs0_NtNtCsiTraAjBDcu4_5alloc3vec16in_place_collectINtNtNtNtCsaNl6UpbT7bw_4core4iter8adapters3map3MapINtNtB7_9into_iter8IntoIterTNtNtCsc29TF2YcYso_3syn4expr10FieldValueNtNtB29_5token5CommaEENCINvNtB29_10punctuated4foldB25_B2I_NtNvCsiSITA57RZ13_15zerofrom_derive16replace_lifetime15ReplaceLifetimeNvYB3E_NtNtNtB29_3gen4fold4Fold16fold_field_valueE0EINtB5_18SpecInPlaceCollectB24_BP_E16collect_in_placeB3I_, symObjAddr: 0x84D0, symBinAddr: 0x4D36C, symSize: 0xD0 }
  - { offset: 0x73DBD, size: 0x8, addend: 0x0, symName: __RNvXs0_NtNtCsiTraAjBDcu4_5alloc3vec16in_place_collectINtNtNtNtCsaNl6UpbT7bw_4core4iter8adapters3map3MapINtNtB7_9into_iter8IntoIterTNtNtCsc29TF2YcYso_3syn4expr10FieldValueNtNtB29_5token5CommaEENCINvNtB29_10punctuated4foldB25_B2I_NtNvCsiSITA57RZ13_15zerofrom_derive25replace_lifetime_and_type20ReplaceLifetimeAndTyNvYB3E_NtNtNtB29_3gen4fold4Fold16fold_field_valueE0EINtB5_18SpecInPlaceCollectB24_BP_E16collect_in_placeB3I_, symObjAddr: 0x85A0, symBinAddr: 0x4D43C, symSize: 0xD0 }
  - { offset: 0x73F0C, size: 0x8, addend: 0x0, symName: __RNvXs0_NtNtCsiTraAjBDcu4_5alloc3vec16in_place_collectINtNtNtNtCsaNl6UpbT7bw_4core4iter8adapters3map3MapINtNtB7_9into_iter8IntoIterTNtNtCsc29TF2YcYso_3syn4expr4ExprNtNtB29_5token5CommaEENCINvNtB29_10punctuated4foldB25_B2B_NtNvCsiSITA57RZ13_15zerofrom_derive16replace_lifetime15ReplaceLifetimeNvYB3x_NtNtNtB29_3gen4fold4Fold9fold_exprE0EINtB5_18SpecInPlaceCollectB24_BP_E16collect_in_placeB3B_, symObjAddr: 0x8670, symBinAddr: 0x4D50C, symSize: 0xD0 }
  - { offset: 0x7405B, size: 0x8, addend: 0x0, symName: __RNvXs0_NtNtCsiTraAjBDcu4_5alloc3vec16in_place_collectINtNtNtNtCsaNl6UpbT7bw_4core4iter8adapters3map3MapINtNtB7_9into_iter8IntoIterTNtNtCsc29TF2YcYso_3syn4expr4ExprNtNtB29_5token5CommaEENCINvNtB29_10punctuated4foldB25_B2B_NtNvCsiSITA57RZ13_15zerofrom_derive25replace_lifetime_and_type20ReplaceLifetimeAndTyNvYB3x_NtNtNtB29_3gen4fold4Fold9fold_exprE0EINtB5_18SpecInPlaceCollectB24_BP_E16collect_in_placeB3B_, symObjAddr: 0x8740, symBinAddr: 0x4D5DC, symSize: 0xD0 }
  - { offset: 0x741AA, size: 0x8, addend: 0x0, symName: __RNvXs0_NtNtCsiTraAjBDcu4_5alloc3vec16in_place_collectINtNtNtNtCsaNl6UpbT7bw_4core4iter8adapters3map3MapINtNtB7_9into_iter8IntoIterTNtNtCsc29TF2YcYso_3syn4item5FnArgNtNtB29_5token5CommaEENCINvNtB29_10punctuated4foldB25_B2C_NtNvCsiSITA57RZ13_15zerofrom_derive16replace_lifetime15ReplaceLifetimeNvYB3y_NtNtNtB29_3gen4fold4Fold11fold_fn_argE0EINtB5_18SpecInPlaceCollectB24_BP_E16collect_in_placeB3C_, symObjAddr: 0x8810, symBinAddr: 0x4D6AC, symSize: 0xD0 }
  - { offset: 0x742F9, size: 0x8, addend: 0x0, symName: __RNvXs0_NtNtCsiTraAjBDcu4_5alloc3vec16in_place_collectINtNtNtNtCsaNl6UpbT7bw_4core4iter8adapters3map3MapINtNtB7_9into_iter8IntoIterTNtNtCsc29TF2YcYso_3syn4item5FnArgNtNtB29_5token5CommaEENCINvNtB29_10punctuated4foldB25_B2C_NtNvCsiSITA57RZ13_15zerofrom_derive25replace_lifetime_and_type20ReplaceLifetimeAndTyNvYB3y_NtNtNtB29_3gen4fold4Fold11fold_fn_argE0EINtB5_18SpecInPlaceCollectB24_BP_E16collect_in_placeB3C_, symObjAddr: 0x88E0, symBinAddr: 0x4D77C, symSize: 0xD0 }
  - { offset: 0x74448, size: 0x8, addend: 0x0, symName: __RNvXs0_NtNtCsiTraAjBDcu4_5alloc3vec16in_place_collectINtNtNtNtCsaNl6UpbT7bw_4core4iter8adapters3map3MapINtNtB7_9into_iter8IntoIterTNtNtCsc29TF2YcYso_3syn4item7UseTreeNtNtB29_5token5CommaEENCINvNtB29_10punctuated4foldB25_B2E_NtNvCsiSITA57RZ13_15zerofrom_derive16replace_lifetime15ReplaceLifetimeNvYB3A_NtNtNtB29_3gen4fold4Fold13fold_use_treeE0EINtB5_18SpecInPlaceCollectB24_BP_E16collect_in_placeB3E_, symObjAddr: 0x89B0, symBinAddr: 0x4D84C, symSize: 0xD0 }
  - { offset: 0x74597, size: 0x8, addend: 0x0, symName: __RNvXs0_NtNtCsiTraAjBDcu4_5alloc3vec16in_place_collectINtNtNtNtCsaNl6UpbT7bw_4core4iter8adapters3map3MapINtNtB7_9into_iter8IntoIterTNtNtCsc29TF2YcYso_3syn4item7UseTreeNtNtB29_5token5CommaEENCINvNtB29_10punctuated4foldB25_B2E_NtNvCsiSITA57RZ13_15zerofrom_derive25replace_lifetime_and_type20ReplaceLifetimeAndTyNvYB3A_NtNtNtB29_3gen4fold4Fold13fold_use_treeE0EINtB5_18SpecInPlaceCollectB24_BP_E16collect_in_placeB3E_, symObjAddr: 0x8A80, symBinAddr: 0x4D91C, symSize: 0xD0 }
  - { offset: 0x746E6, size: 0x8, addend: 0x0, symName: __RNvXs0_NtNtCsiTraAjBDcu4_5alloc3vec16in_place_collectINtNtNtNtCsaNl6UpbT7bw_4core4iter8adapters3map3MapINtNtB7_9into_iter8IntoIterTNtNtCsc29TF2YcYso_3syn4path11PathSegmentNtNtB29_5token7PathSepEENCINvNtB29_10punctuated4foldB25_B2J_NtNvCsiSITA57RZ13_15zerofrom_derive16replace_lifetime15ReplaceLifetimeNvYB3H_NtNtNtB29_3gen4fold4Fold17fold_path_segmentE0EINtB5_18SpecInPlaceCollectB24_BP_E16collect_in_placeB3L_, symObjAddr: 0x8B50, symBinAddr: 0x4D9EC, symSize: 0xD0 }
  - { offset: 0x74835, size: 0x8, addend: 0x0, symName: __RNvXs0_NtNtCsiTraAjBDcu4_5alloc3vec16in_place_collectINtNtNtNtCsaNl6UpbT7bw_4core4iter8adapters3map3MapINtNtB7_9into_iter8IntoIterTNtNtCsc29TF2YcYso_3syn4path11PathSegmentNtNtB29_5token7PathSepEENCINvNtB29_10punctuated4foldB25_B2J_NtNvCsiSITA57RZ13_15zerofrom_derive25replace_lifetime_and_type20ReplaceLifetimeAndTyNvYB3H_NtNtNtB29_3gen4fold4Fold17fold_path_segmentE0EINtB5_18SpecInPlaceCollectB24_BP_E16collect_in_placeB3L_, symObjAddr: 0x8C20, symBinAddr: 0x4DABC, symSize: 0xD0 }
  - { offset: 0x74984, size: 0x8, addend: 0x0, symName: __RNvXs0_NtNtCsiTraAjBDcu4_5alloc3vec16in_place_collectINtNtNtNtCsaNl6UpbT7bw_4core4iter8adapters3map3MapINtNtB7_9into_iter8IntoIterTNtNtCsc29TF2YcYso_3syn4path15GenericArgumentNtNtB29_5token5CommaEENCINvNtB29_10punctuated4foldB25_B2N_NtNvCsiSITA57RZ13_15zerofrom_derive16replace_lifetime15ReplaceLifetimeNvYB3J_NtNtNtB29_3gen4fold4Fold21fold_generic_argumentE0EINtB5_18SpecInPlaceCollectB24_BP_E16collect_in_placeB3N_, symObjAddr: 0x8CF0, symBinAddr: 0x4DB8C, symSize: 0xD0 }
  - { offset: 0x74AD3, size: 0x8, addend: 0x0, symName: __RNvXs0_NtNtCsiTraAjBDcu4_5alloc3vec16in_place_collectINtNtNtNtCsaNl6UpbT7bw_4core4iter8adapters3map3MapINtNtB7_9into_iter8IntoIterTNtNtCsc29TF2YcYso_3syn4path15GenericArgumentNtNtB29_5token5CommaEENCINvNtB29_10punctuated4foldB25_B2N_NtNvCsiSITA57RZ13_15zerofrom_derive25replace_lifetime_and_type20ReplaceLifetimeAndTyNvYB3J_NtNtNtB29_3gen4fold4Fold21fold_generic_argumentE0EINtB5_18SpecInPlaceCollectB24_BP_E16collect_in_placeB3N_, symObjAddr: 0x8DC0, symBinAddr: 0x4DC5C, symSize: 0xD0 }
  - { offset: 0x74C22, size: 0x8, addend: 0x0, symName: __RNvXs0_NtNtCsiTraAjBDcu4_5alloc3vec16in_place_collectINtNtNtNtCsaNl6UpbT7bw_4core4iter8adapters3map3MapINtNtB7_9into_iter8IntoIterTNtNtCsc29TF2YcYso_3syn8generics12GenericParamNtNtB29_5token5CommaEENCINvNtB29_10punctuated4foldB25_B2O_NtNvCsiSITA57RZ13_15zerofrom_derive16replace_lifetime15ReplaceLifetimeNvYB3K_NtNtNtB29_3gen4fold4Fold18fold_generic_paramE0EINtB5_18SpecInPlaceCollectB24_BP_E16collect_in_placeB3O_, symObjAddr: 0x8E90, symBinAddr: 0x4DD2C, symSize: 0xD0 }
  - { offset: 0x74D71, size: 0x8, addend: 0x0, symName: __RNvXs0_NtNtCsiTraAjBDcu4_5alloc3vec16in_place_collectINtNtNtNtCsaNl6UpbT7bw_4core4iter8adapters3map3MapINtNtB7_9into_iter8IntoIterTNtNtCsc29TF2YcYso_3syn8generics12GenericParamNtNtB29_5token5CommaEENCINvNtB29_10punctuated4foldB25_B2O_NtNvCsiSITA57RZ13_15zerofrom_derive25replace_lifetime_and_type20ReplaceLifetimeAndTyNvYB3K_NtNtNtB29_3gen4fold4Fold18fold_generic_paramE0EINtB5_18SpecInPlaceCollectB24_BP_E16collect_in_placeB3O_, symObjAddr: 0x8F60, symBinAddr: 0x4DDFC, symSize: 0xD0 }
  - { offset: 0x74EC0, size: 0x8, addend: 0x0, symName: __RNvXs0_NtNtCsiTraAjBDcu4_5alloc3vec16in_place_collectINtNtNtNtCsaNl6UpbT7bw_4core4iter8adapters3map3MapINtNtB7_9into_iter8IntoIterTNtNtCsc29TF2YcYso_3syn8generics13CapturedParamNtNtB29_5token5CommaEENCINvNtB29_10punctuated4foldB25_B2P_NtNvCsiSITA57RZ13_15zerofrom_derive16replace_lifetime15ReplaceLifetimeNvYB3L_NtNtNtB29_3gen4fold4Fold19fold_captured_paramE0EINtB5_18SpecInPlaceCollectB24_BP_E16collect_in_placeB3P_, symObjAddr: 0x9030, symBinAddr: 0x4DECC, symSize: 0xD0 }
  - { offset: 0x7500F, size: 0x8, addend: 0x0, symName: __RNvXs0_NtNtCsiTraAjBDcu4_5alloc3vec16in_place_collectINtNtNtNtCsaNl6UpbT7bw_4core4iter8adapters3map3MapINtNtB7_9into_iter8IntoIterTNtNtCsc29TF2YcYso_3syn8generics13CapturedParamNtNtB29_5token5CommaEENCINvNtB29_10punctuated4foldB25_B2P_NtNvCsiSITA57RZ13_15zerofrom_derive25replace_lifetime_and_type20ReplaceLifetimeAndTyNvYB3L_NtNtNtB29_3gen4fold4Fold19fold_captured_paramE0EINtB5_18SpecInPlaceCollectB24_BP_E16collect_in_placeB3P_, symObjAddr: 0x9100, symBinAddr: 0x4DF9C, symSize: 0xD0 }
  - { offset: 0x7515E, size: 0x8, addend: 0x0, symName: __RNvXs0_NtNtCsiTraAjBDcu4_5alloc3vec16in_place_collectINtNtNtNtCsaNl6UpbT7bw_4core4iter8adapters3map3MapINtNtB7_9into_iter8IntoIterTNtNtCsc29TF2YcYso_3syn8generics14TypeParamBoundNtNtB29_5token4PlusEENCINvNtB29_10punctuated4foldB25_B2Q_NtNvCsiSITA57RZ13_15zerofrom_derive16replace_lifetime15ReplaceLifetimeNvYB3L_NtNtNtB29_3gen4fold4Fold21fold_type_param_boundE0EINtB5_18SpecInPlaceCollectB24_BP_E16collect_in_placeB3P_, symObjAddr: 0x91D0, symBinAddr: 0x4E06C, symSize: 0xD0 }
  - { offset: 0x752AD, size: 0x8, addend: 0x0, symName: __RNvXs0_NtNtCsiTraAjBDcu4_5alloc3vec16in_place_collectINtNtNtNtCsaNl6UpbT7bw_4core4iter8adapters3map3MapINtNtB7_9into_iter8IntoIterTNtNtCsc29TF2YcYso_3syn8generics14TypeParamBoundNtNtB29_5token4PlusEENCINvNtB29_10punctuated4foldB25_B2Q_NtNvCsiSITA57RZ13_15zerofrom_derive25replace_lifetime_and_type20ReplaceLifetimeAndTyNvYB3L_NtNtNtB29_3gen4fold4Fold21fold_type_param_boundE0EINtB5_18SpecInPlaceCollectB24_BP_E16collect_in_placeB3P_, symObjAddr: 0x92A0, symBinAddr: 0x4E13C, symSize: 0xD0 }
  - { offset: 0x753FC, size: 0x8, addend: 0x0, symName: __RNvXs0_NtNtCsiTraAjBDcu4_5alloc3vec16in_place_collectINtNtNtNtCsaNl6UpbT7bw_4core4iter8adapters3map3MapINtNtB7_9into_iter8IntoIterTNtNtCsc29TF2YcYso_3syn8generics14WherePredicateNtNtB29_5token5CommaEENCINvNtB29_10punctuated4foldB25_B2Q_NtNvCsiSITA57RZ13_15zerofrom_derive16replace_lifetime15ReplaceLifetimeNvYB3M_NtNtNtB29_3gen4fold4Fold20fold_where_predicateE0EINtB5_18SpecInPlaceCollectB24_BP_E16collect_in_placeB3Q_, symObjAddr: 0x9370, symBinAddr: 0x4E20C, symSize: 0xD0 }
  - { offset: 0x7554B, size: 0x8, addend: 0x0, symName: __RNvXs0_NtNtCsiTraAjBDcu4_5alloc3vec16in_place_collectINtNtNtNtCsaNl6UpbT7bw_4core4iter8adapters3map3MapINtNtB7_9into_iter8IntoIterTNtNtCsc29TF2YcYso_3syn8generics14WherePredicateNtNtB29_5token5CommaEENCINvNtB29_10punctuated4foldB25_B2Q_NtNvCsiSITA57RZ13_15zerofrom_derive25replace_lifetime_and_type20ReplaceLifetimeAndTyNvYB3M_NtNtNtB29_3gen4fold4Fold20fold_where_predicateE0EINtB5_18SpecInPlaceCollectB24_BP_E16collect_in_placeB3Q_, symObjAddr: 0x9440, symBinAddr: 0x4E2DC, symSize: 0xD0 }
  - { offset: 0x7569A, size: 0x8, addend: 0x0, symName: __RNvXs0_NtNtCsiTraAjBDcu4_5alloc3vec16in_place_collectINtNtNtNtCsaNl6UpbT7bw_4core4iter8adapters3map3MapINtNtB7_9into_iter8IntoIterTNtNtCsc29TF2YcYso_3syn8lifetime8LifetimeNtNtB29_5token4PlusEENCINvNtB29_10punctuated4foldB25_B2J_NtNvCsiSITA57RZ13_15zerofrom_derive16replace_lifetime15ReplaceLifetimeNvYB3E_NtNtNtB29_3gen4fold4Fold13fold_lifetimeE0EINtB5_18SpecInPlaceCollectB24_BP_E16collect_in_placeB3I_, symObjAddr: 0x9510, symBinAddr: 0x4E3AC, symSize: 0xD0 }
  - { offset: 0x757E9, size: 0x8, addend: 0x0, symName: __RNvXs0_NtNtCsiTraAjBDcu4_5alloc3vec16in_place_collectINtNtNtNtCsaNl6UpbT7bw_4core4iter8adapters3map3MapINtNtB7_9into_iter8IntoIterTNtNtCsc29TF2YcYso_3syn8lifetime8LifetimeNtNtB29_5token4PlusEENCINvNtB29_10punctuated4foldB25_B2J_NtNvCsiSITA57RZ13_15zerofrom_derive25replace_lifetime_and_type20ReplaceLifetimeAndTyNvYB3E_NtNtNtB29_3gen4fold4Fold13fold_lifetimeE0EINtB5_18SpecInPlaceCollectB24_BP_E16collect_in_placeB3I_, symObjAddr: 0x95E0, symBinAddr: 0x4E47C, symSize: 0xD0 }
  - { offset: 0x7F5A5, size: 0x8, addend: 0x0, symName: __RINvNtNtCsc29TF2YcYso_3syn3gen5visit10visit_exprNtNtCsiSITA57RZ13_15zerofrom_derive7visitor11TypeVisitorEBO_, symObjAddr: 0x0, symBinAddr: 0x4EDCC, symSize: 0x7D8 }
  - { offset: 0x7FEFC, size: 0x8, addend: 0x0, symName: __RINvNtNtCsc29TF2YcYso_3syn3gen5visit10visit_exprNtNtCsiSITA57RZ13_15zerofrom_derive7visitor11TypeVisitorEBO_, symObjAddr: 0x0, symBinAddr: 0x4EDCC, symSize: 0x7D8 }
  - { offset: 0x80406, size: 0x8, addend: 0x0, symName: __RINvNtNtCsc29TF2YcYso_3syn3gen5visit10visit_itemNtNtCsiSITA57RZ13_15zerofrom_derive7visitor11TypeVisitorEBO_, symObjAddr: 0x7D8, symBinAddr: 0x4F5A4, symSize: 0x35C }
  - { offset: 0x80626, size: 0x8, addend: 0x0, symName: __RINvNtNtCsc29TF2YcYso_3syn3gen5visit10visit_metaNtNtCsiSITA57RZ13_15zerofrom_derive7visitor11TypeVisitorEBO_, symObjAddr: 0xB34, symBinAddr: 0x4F900, symSize: 0xE8 }
  - { offset: 0x806BA, size: 0x8, addend: 0x0, symName: __RINvNtNtCsc29TF2YcYso_3syn3gen5visit10visit_pathNtNtCsiSITA57RZ13_15zerofrom_derive7visitor11TypeVisitorEBO_, symObjAddr: 0xC1C, symBinAddr: 0x4F9E8, symSize: 0xC8 }
  - { offset: 0x80757, size: 0x8, addend: 0x0, symName: __RINvNtNtCsc29TF2YcYso_3syn3gen5visit10visit_stmtNtNtCsiSITA57RZ13_15zerofrom_derive7visitor11TypeVisitorEBO_, symObjAddr: 0xCE4, symBinAddr: 0x4FAB0, symSize: 0x12C }
  - { offset: 0x80819, size: 0x8, addend: 0x0, symName: __RINvNtNtCsc29TF2YcYso_3syn3gen5visit10visit_typeNtNtCsiSITA57RZ13_15zerofrom_derive7visitor11TypeVisitorEBO_, symObjAddr: 0xE10, symBinAddr: 0x4FBDC, symSize: 0x328 }
  - { offset: 0x80A19, size: 0x8, addend: 0x0, symName: __RINvNtNtCsc29TF2YcYso_3syn3gen5visit11visit_blockNtNtCsiSITA57RZ13_15zerofrom_derive7visitor11TypeVisitorEBP_, symObjAddr: 0x1138, symBinAddr: 0x4FF04, symSize: 0x98 }
  - { offset: 0x80A97, size: 0x8, addend: 0x0, symName: __RINvNtNtCsc29TF2YcYso_3syn3gen5visit11visit_fieldNtNtCsiSITA57RZ13_15zerofrom_derive7visitor11TypeVisitorEBP_, symObjAddr: 0x11D0, symBinAddr: 0x4FF9C, symSize: 0x114 }
  - { offset: 0x80B33, size: 0x8, addend: 0x0, symName: __RINvNtNtCsc29TF2YcYso_3syn3gen5visit11visit_identNtNtCsiSITA57RZ13_15zerofrom_derive7visitor11TypeVisitorEBP_, symObjAddr: 0x12E4, symBinAddr: 0x500B0, symSize: 0x58 }
  - { offset: 0x80B75, size: 0x8, addend: 0x0, symName: __RINvNtNtCsc29TF2YcYso_3syn3gen5visit11visit_indexNtNtCsiSITA57RZ13_15zerofrom_derive7visitor11TypeVisitorEBP_, symObjAddr: 0x133C, symBinAddr: 0x50108, symSize: 0x3C }
  - { offset: 0x80BB7, size: 0x8, addend: 0x0, symName: __RINvNtNtCsc29TF2YcYso_3syn3gen5visit11visit_labelNtNtCsiSITA57RZ13_15zerofrom_derive7visitor11TypeVisitorEBP_, symObjAddr: 0x1378, symBinAddr: 0x50144, symSize: 0x3C }
  - { offset: 0x80BF9, size: 0x8, addend: 0x0, symName: __RINvNtNtCsc29TF2YcYso_3syn3gen5visit11visit_localNtNtCsiSITA57RZ13_15zerofrom_derive7visitor11TypeVisitorEBP_, symObjAddr: 0x13B4, symBinAddr: 0x50180, symSize: 0xFC }
  - { offset: 0x80C95, size: 0x8, addend: 0x0, symName: __RINvNtNtCsc29TF2YcYso_3syn3gen5visit11visit_macroNtNtCsiSITA57RZ13_15zerofrom_derive7visitor11TypeVisitorEBP_, symObjAddr: 0x14B0, symBinAddr: 0x5027C, symSize: 0x60 }
  - { offset: 0x80CD7, size: 0x8, addend: 0x0, symName: __RINvNtNtCsc29TF2YcYso_3syn3gen5visit11visit_qselfNtNtCsiSITA57RZ13_15zerofrom_derive7visitor11TypeVisitorEBP_, symObjAddr: 0x1510, symBinAddr: 0x502DC, symSize: 0x90 }
  - { offset: 0x80D19, size: 0x8, addend: 0x0, symName: __RINvNtNtCsc29TF2YcYso_3syn3gen5visit11visit_un_opNtNtCsiSITA57RZ13_15zerofrom_derive7visitor11TypeVisitorEBP_, symObjAddr: 0x15A0, symBinAddr: 0x5036C, symSize: 0xA8 }
  - { offset: 0x80D5B, size: 0x8, addend: 0x0, symName: __RINvNtNtCsc29TF2YcYso_3syn3gen5visit12visit_bin_opNtNtCsiSITA57RZ13_15zerofrom_derive7visitor11TypeVisitorEBQ_, symObjAddr: 0x1648, symBinAddr: 0x50414, symSize: 0x438 }
  - { offset: 0x80D9D, size: 0x8, addend: 0x0, symName: __RINvNtNtCsc29TF2YcYso_3syn3gen5visit12visit_fieldsNtNtCsiSITA57RZ13_15zerofrom_derive7visitor11TypeVisitorEBQ_, symObjAddr: 0x1A80, symBinAddr: 0x5084C, symSize: 0xC4 }
  - { offset: 0x80E1B, size: 0x8, addend: 0x0, symName: __RINvNtNtCsc29TF2YcYso_3syn3gen5visit12visit_fn_argNtNtCsiSITA57RZ13_15zerofrom_derive7visitor11TypeVisitorEBQ_, symObjAddr: 0x1B44, symBinAddr: 0x50910, symSize: 0xA0 }
  - { offset: 0x80E91, size: 0x8, addend: 0x0, symName: __RINvNtNtCsc29TF2YcYso_3syn3gen5visit12visit_memberNtNtCsiSITA57RZ13_15zerofrom_derive7visitor11TypeVisitorEBQ_, symObjAddr: 0x1BE4, symBinAddr: 0x509B0, symSize: 0x98 }
  - { offset: 0x80F07, size: 0x8, addend: 0x0, symName: __RINvNtNtCsc29TF2YcYso_3syn3gen5visit12visit_pat_orNtNtCsiSITA57RZ13_15zerofrom_derive7visitor11TypeVisitorEBQ_, symObjAddr: 0x1C7C, symBinAddr: 0x50A48, symSize: 0x128 }
  - { offset: 0x80FE0, size: 0x8, addend: 0x0, symName: __RINvNtNtCsc29TF2YcYso_3syn3gen5visit13visit_expr_ifNtNtCsiSITA57RZ13_15zerofrom_derive7visitor11TypeVisitorEBR_, symObjAddr: 0x1DA4, symBinAddr: 0x50B70, symSize: 0x1A8 }
  - { offset: 0x81074, size: 0x8, addend: 0x0, symName: __RINvNtNtCsc29TF2YcYso_3syn3gen5visit13visit_item_fnNtNtCsiSITA57RZ13_15zerofrom_derive7visitor11TypeVisitorEBR_, symObjAddr: 0x1F4C, symBinAddr: 0x50D18, symSize: 0x110 }
  - { offset: 0x810F2, size: 0x8, addend: 0x0, symName: __RINvNtNtCsc29TF2YcYso_3syn3gen5visit13visit_lit_intNtNtCsiSITA57RZ13_15zerofrom_derive7visitor11TypeVisitorEBR_, symObjAddr: 0x205C, symBinAddr: 0x50E28, symSize: 0x24 }
  - { offset: 0x81134, size: 0x8, addend: 0x0, symName: __RINvNtNtCsc29TF2YcYso_3syn3gen5visit13visit_lit_strNtNtCsiSITA57RZ13_15zerofrom_derive7visitor11TypeVisitorEBR_, symObjAddr: 0x2080, symBinAddr: 0x50E4C, symSize: 0x24 }
  - { offset: 0x81176, size: 0x8, addend: 0x0, symName: __RINvNtNtCsc29TF2YcYso_3syn3gen5visit13visit_variantNtNtCsiSITA57RZ13_15zerofrom_derive7visitor11TypeVisitorEBR_, symObjAddr: 0x20A4, symBinAddr: 0x50E70, symSize: 0x108 }
  - { offset: 0x81212, size: 0x8, addend: 0x0, symName: __RINvNtNtCsc29TF2YcYso_3syn3gen5visit14visit_expr_letNtNtCsiSITA57RZ13_15zerofrom_derive7visitor11TypeVisitorEBS_, symObjAddr: 0x21AC, symBinAddr: 0x50F78, symSize: 0x154 }
  - { offset: 0x81290, size: 0x8, addend: 0x0, symName: __RINvNtNtCsc29TF2YcYso_3syn3gen5visit14visit_expr_litNtNtCsiSITA57RZ13_15zerofrom_derive7visitor11TypeVisitorEBS_, symObjAddr: 0x2300, symBinAddr: 0x510CC, symSize: 0xA8 }
  - { offset: 0x8130E, size: 0x8, addend: 0x0, symName: __RINvNtNtCsc29TF2YcYso_3syn3gen5visit14visit_expr_tryNtNtCsiSITA57RZ13_15zerofrom_derive7visitor11TypeVisitorEBS_, symObjAddr: 0x23A8, symBinAddr: 0x51174, symSize: 0xF8 }
  - { offset: 0x8138C, size: 0x8, addend: 0x0, symName: __RINvNtNtCsc29TF2YcYso_3syn3gen5visit14visit_genericsNtNtCsiSITA57RZ13_15zerofrom_derive7visitor11TypeVisitorEBS_, symObjAddr: 0x24A0, symBinAddr: 0x5126C, symSize: 0x120 }
  - { offset: 0x81447, size: 0x8, addend: 0x0, symName: __RINvNtNtCsc29TF2YcYso_3syn3gen5visit14visit_item_modNtNtCsiSITA57RZ13_15zerofrom_derive7visitor11TypeVisitorEBS_, symObjAddr: 0x25C0, symBinAddr: 0x5138C, symSize: 0x164 }
  - { offset: 0x8150F, size: 0x8, addend: 0x0, symName: __RINvNtNtCsc29TF2YcYso_3syn3gen5visit14visit_item_useNtNtCsiSITA57RZ13_15zerofrom_derive7visitor11TypeVisitorEBS_, symObjAddr: 0x2724, symBinAddr: 0x514F0, symSize: 0xB8 }
  - { offset: 0x8158D, size: 0x8, addend: 0x0, symName: __RINvNtNtCsc29TF2YcYso_3syn3gen5visit14visit_lifetimeNtNtCsiSITA57RZ13_15zerofrom_derive7visitor11TypeVisitorEBS_, symObjAddr: 0x27DC, symBinAddr: 0x515A8, symSize: 0x50 }
  - { offset: 0x815CF, size: 0x8, addend: 0x0, symName: __RINvNtNtCsc29TF2YcYso_3syn3gen5visit14visit_lit_boolNtNtCsiSITA57RZ13_15zerofrom_derive7visitor11TypeVisitorEBS_, symObjAddr: 0x282C, symBinAddr: 0x515F8, symSize: 0x3C }
  - { offset: 0x81611, size: 0x8, addend: 0x0, symName: __RINvNtNtCsc29TF2YcYso_3syn3gen5visit14visit_lit_byteNtNtCsiSITA57RZ13_15zerofrom_derive7visitor11TypeVisitorEBS_, symObjAddr: 0x2868, symBinAddr: 0x51634, symSize: 0x24 }
  - { offset: 0x81653, size: 0x8, addend: 0x0, symName: __RINvNtNtCsc29TF2YcYso_3syn3gen5visit14visit_lit_charNtNtCsiSITA57RZ13_15zerofrom_derive7visitor11TypeVisitorEBS_, symObjAddr: 0x288C, symBinAddr: 0x51658, symSize: 0x24 }
  - { offset: 0x81695, size: 0x8, addend: 0x0, symName: __RINvNtNtCsc29TF2YcYso_3syn3gen5visit14visit_lit_cstrNtNtCsiSITA57RZ13_15zerofrom_derive7visitor11TypeVisitorEBS_, symObjAddr: 0x28B0, symBinAddr: 0x5167C, symSize: 0x24 }
  - { offset: 0x816D7, size: 0x8, addend: 0x0, symName: __RINvNtNtCsc29TF2YcYso_3syn3gen5visit14visit_pat_restNtNtCsiSITA57RZ13_15zerofrom_derive7visitor11TypeVisitorEBS_, symObjAddr: 0x28D4, symBinAddr: 0x516A0, symSize: 0x98 }
  - { offset: 0x81755, size: 0x8, addend: 0x0, symName: __RINvNtNtCsc29TF2YcYso_3syn3gen5visit14visit_pat_typeNtNtCsiSITA57RZ13_15zerofrom_derive7visitor11TypeVisitorEBS_, symObjAddr: 0x296C, symBinAddr: 0x51738, symSize: 0x154 }
  - { offset: 0x817D3, size: 0x8, addend: 0x0, symName: __RINvNtNtCsc29TF2YcYso_3syn3gen5visit14visit_pat_wildNtNtCsiSITA57RZ13_15zerofrom_derive7visitor11TypeVisitorEBS_, symObjAddr: 0x2AC0, symBinAddr: 0x5188C, symSize: 0x98 }
  - { offset: 0x81851, size: 0x8, addend: 0x0, symName: __RINvNtNtCsc29TF2YcYso_3syn3gen5visit14visit_receiverNtNtCsiSITA57RZ13_15zerofrom_derive7visitor11TypeVisitorEBS_, symObjAddr: 0x2B58, symBinAddr: 0x51924, symSize: 0x18C }
  - { offset: 0x818FB, size: 0x8, addend: 0x0, symName: __RINvNtNtCsc29TF2YcYso_3syn3gen5visit14visit_type_ptrNtNtCsiSITA57RZ13_15zerofrom_derive7visitor11TypeVisitorEBS_, symObjAddr: 0x2CE4, symBinAddr: 0x51AB0, symSize: 0x90 }
  - { offset: 0x8193D, size: 0x8, addend: 0x0, symName: __RINvNtNtCsc29TF2YcYso_3syn3gen5visit14visit_use_globNtNtCsiSITA57RZ13_15zerofrom_derive7visitor11TypeVisitorEBS_, symObjAddr: 0x2D74, symBinAddr: 0x51B40, symSize: 0x24 }
  - { offset: 0x8197F, size: 0x8, addend: 0x0, symName: __RINvNtNtCsc29TF2YcYso_3syn3gen5visit14visit_use_nameNtNtCsiSITA57RZ13_15zerofrom_derive7visitor11TypeVisitorEBS_, symObjAddr: 0x2D98, symBinAddr: 0x51B64, symSize: 0x3C }
  - { offset: 0x819C1, size: 0x8, addend: 0x0, symName: __RINvNtNtCsc29TF2YcYso_3syn3gen5visit14visit_use_pathNtNtCsiSITA57RZ13_15zerofrom_derive7visitor11TypeVisitorEBS_, symObjAddr: 0x2DD4, symBinAddr: 0x51BA0, symSize: 0xA4 }
  - { offset: 0x81A03, size: 0x8, addend: 0x0, symName: __RINvNtNtCsc29TF2YcYso_3syn3gen5visit14visit_use_treeNtNtCsiSITA57RZ13_15zerofrom_derive7visitor11TypeVisitorEBS_, symObjAddr: 0x2E78, symBinAddr: 0x51C44, symSize: 0x15C }
  - { offset: 0x81AD3, size: 0x8, addend: 0x0, symName: __RINvNtNtCsc29TF2YcYso_3syn3gen5visit14visit_variadicNtNtCsiSITA57RZ13_15zerofrom_derive7visitor11TypeVisitorEBS_, symObjAddr: 0x2FD4, symBinAddr: 0x51DA0, symSize: 0x13C }
  - { offset: 0x81B67, size: 0x8, addend: 0x0, symName: __RINvNtNtCsc29TF2YcYso_3syn3gen5visit15visit_attributeNtNtCsiSITA57RZ13_15zerofrom_derive7visitor11TypeVisitorEBT_, symObjAddr: 0x3110, symBinAddr: 0x51EDC, symSize: 0x50 }
  - { offset: 0x81BA9, size: 0x8, addend: 0x0, symName: __RINvNtNtCsc29TF2YcYso_3syn3gen5visit15visit_expr_callNtNtCsiSITA57RZ13_15zerofrom_derive7visitor11TypeVisitorEBT_, symObjAddr: 0x3160, symBinAddr: 0x51F2C, symSize: 0x188 }
  - { offset: 0x81C7A, size: 0x8, addend: 0x0, symName: __RINvNtNtCsc29TF2YcYso_3syn3gen5visit15visit_expr_castNtNtCsiSITA57RZ13_15zerofrom_derive7visitor11TypeVisitorEBT_, symObjAddr: 0x32E8, symBinAddr: 0x520B4, symSize: 0x154 }
  - { offset: 0x81CF8, size: 0x8, addend: 0x0, symName: __RINvNtNtCsc29TF2YcYso_3syn3gen5visit15visit_expr_loopNtNtCsiSITA57RZ13_15zerofrom_derive7visitor11TypeVisitorEBT_, symObjAddr: 0x343C, symBinAddr: 0x52208, symSize: 0xFC }
  - { offset: 0x81D94, size: 0x8, addend: 0x0, symName: __RINvNtNtCsc29TF2YcYso_3syn3gen5visit15visit_expr_pathNtNtCsiSITA57RZ13_15zerofrom_derive7visitor11TypeVisitorEBT_, symObjAddr: 0x3538, symBinAddr: 0x52304, symSize: 0xFC }
  - { offset: 0x81E30, size: 0x8, addend: 0x0, symName: __RINvNtNtCsc29TF2YcYso_3syn3gen5visit15visit_field_patNtNtCsiSITA57RZ13_15zerofrom_derive7visitor11TypeVisitorEBT_, symObjAddr: 0x3634, symBinAddr: 0x52400, symSize: 0x108 }
  - { offset: 0x81EAE, size: 0x8, addend: 0x0, symName: __RINvNtNtCsc29TF2YcYso_3syn3gen5visit15visit_impl_itemNtNtCsiSITA57RZ13_15zerofrom_derive7visitor11TypeVisitorEBT_, symObjAddr: 0x373C, symBinAddr: 0x52508, symSize: 0x168 }
  - { offset: 0x81F7E, size: 0x8, addend: 0x0, symName: __RINvNtNtCsc29TF2YcYso_3syn3gen5visit15visit_item_enumNtNtCsiSITA57RZ13_15zerofrom_derive7visitor11TypeVisitorEBT_, symObjAddr: 0x38A4, symBinAddr: 0x52670, symSize: 0x158 }
  - { offset: 0x82057, size: 0x8, addend: 0x0, symName: __RINvNtNtCsc29TF2YcYso_3syn3gen5visit15visit_item_implNtNtCsiSITA57RZ13_15zerofrom_derive7visitor11TypeVisitorEBT_, symObjAddr: 0x39FC, symBinAddr: 0x527C8, symSize: 0x1BC }
  - { offset: 0x82128, size: 0x8, addend: 0x0, symName: __RINvNtNtCsc29TF2YcYso_3syn3gen5visit15visit_item_typeNtNtCsiSITA57RZ13_15zerofrom_derive7visitor11TypeVisitorEBT_, symObjAddr: 0x3BB8, symBinAddr: 0x52984, symSize: 0x128 }
  - { offset: 0x821A6, size: 0x8, addend: 0x0, symName: __RINvNtNtCsc29TF2YcYso_3syn3gen5visit15visit_lit_floatNtNtCsiSITA57RZ13_15zerofrom_derive7visitor11TypeVisitorEBT_, symObjAddr: 0x3CE0, symBinAddr: 0x52AAC, symSize: 0x24 }
  - { offset: 0x821E8, size: 0x8, addend: 0x0, symName: __RINvNtNtCsc29TF2YcYso_3syn3gen5visit15visit_meta_listNtNtCsiSITA57RZ13_15zerofrom_derive7visitor11TypeVisitorEBT_, symObjAddr: 0x3D04, symBinAddr: 0x52AD0, symSize: 0x60 }
  - { offset: 0x8222A, size: 0x8, addend: 0x0, symName: __RINvNtNtCsc29TF2YcYso_3syn3gen5visit15visit_pat_identNtNtCsiSITA57RZ13_15zerofrom_derive7visitor11TypeVisitorEBT_, symObjAddr: 0x3D64, symBinAddr: 0x52B30, symSize: 0x14C }
  - { offset: 0x822BE, size: 0x8, addend: 0x0, symName: __RINvNtNtCsc29TF2YcYso_3syn3gen5visit15visit_pat_parenNtNtCsiSITA57RZ13_15zerofrom_derive7visitor11TypeVisitorEBT_, symObjAddr: 0x3EB0, symBinAddr: 0x52C7C, symSize: 0xF8 }
  - { offset: 0x8233C, size: 0x8, addend: 0x0, symName: __RINvNtNtCsc29TF2YcYso_3syn3gen5visit15visit_pat_sliceNtNtCsiSITA57RZ13_15zerofrom_derive7visitor11TypeVisitorEBT_, symObjAddr: 0x3FA8, symBinAddr: 0x52D74, symSize: 0x128 }
  - { offset: 0x82415, size: 0x8, addend: 0x0, symName: __RINvNtNtCsc29TF2YcYso_3syn3gen5visit15visit_pat_tupleNtNtCsiSITA57RZ13_15zerofrom_derive7visitor11TypeVisitorEBT_, symObjAddr: 0x40D0, symBinAddr: 0x52E9C, symSize: 0x128 }
  - { offset: 0x824EE, size: 0x8, addend: 0x0, symName: __RINvNtNtCsc29TF2YcYso_3syn3gen5visit15visit_signatureNtNtCsiSITA57RZ13_15zerofrom_derive7visitor11TypeVisitorEBT_, symObjAddr: 0x41F8, symBinAddr: 0x52FC4, symSize: 0x190 }
  - { offset: 0x825C7, size: 0x8, addend: 0x0, symName: __RINvNtNtCsc29TF2YcYso_3syn3gen5visit15visit_type_pathNtNtCsiSITA57RZ13_15zerofrom_derive7visitor11TypeVisitorEBT_, symObjAddr: 0x4388, symBinAddr: 0x53154, symSize: 0x90 }
  - { offset: 0x82627, size: 0x8, addend: 0x0, symName: __RINvNtNtCsc29TF2YcYso_3syn3gen5visit15visit_use_groupNtNtCsiSITA57RZ13_15zerofrom_derive7visitor11TypeVisitorEBT_, symObjAddr: 0x4418, symBinAddr: 0x531E4, symSize: 0xC8 }
  - { offset: 0x826C4, size: 0x8, addend: 0x0, symName: __RINvNtNtCsc29TF2YcYso_3syn3gen5visit16visit_assoc_typeNtNtCsiSITA57RZ13_15zerofrom_derive7visitor11TypeVisitorEBU_, symObjAddr: 0x44E0, symBinAddr: 0x532AC, symSize: 0xA4 }
  - { offset: 0x82724, size: 0x8, addend: 0x0, symName: __RINvNtNtCsc29TF2YcYso_3syn3gen5visit16visit_attr_styleNtNtCsiSITA57RZ13_15zerofrom_derive7visitor11TypeVisitorEBU_, symObjAddr: 0x4584, symBinAddr: 0x53350, symSize: 0x68 }
  - { offset: 0x82766, size: 0x8, addend: 0x0, symName: __RINvNtNtCsc29TF2YcYso_3syn3gen5visit16visit_constraintNtNtCsiSITA57RZ13_15zerofrom_derive7visitor11TypeVisitorEBU_, symObjAddr: 0x45EC, symBinAddr: 0x533B8, symSize: 0x124 }
  - { offset: 0x82821, size: 0x8, addend: 0x0, symName: __RINvNtNtCsc29TF2YcYso_3syn3gen5visit16visit_expr_arrayNtNtCsiSITA57RZ13_15zerofrom_derive7visitor11TypeVisitorEBU_, symObjAddr: 0x4710, symBinAddr: 0x534DC, symSize: 0x128 }
  - { offset: 0x828FA, size: 0x8, addend: 0x0, symName: __RINvNtNtCsc29TF2YcYso_3syn3gen5visit16visit_expr_asyncNtNtCsiSITA57RZ13_15zerofrom_derive7visitor11TypeVisitorEBU_, symObjAddr: 0x4838, symBinAddr: 0x53604, symSize: 0xA8 }
  - { offset: 0x82978, size: 0x8, addend: 0x0, symName: __RINvNtNtCsc29TF2YcYso_3syn3gen5visit16visit_expr_awaitNtNtCsiSITA57RZ13_15zerofrom_derive7visitor11TypeVisitorEBU_, symObjAddr: 0x48E0, symBinAddr: 0x536AC, symSize: 0xF8 }
  - { offset: 0x829F6, size: 0x8, addend: 0x0, symName: __RINvNtNtCsc29TF2YcYso_3syn3gen5visit16visit_expr_blockNtNtCsiSITA57RZ13_15zerofrom_derive7visitor11TypeVisitorEBU_, symObjAddr: 0x49D8, symBinAddr: 0x537A4, symSize: 0xFC }
  - { offset: 0x82A92, size: 0x8, addend: 0x0, symName: __RINvNtNtCsc29TF2YcYso_3syn3gen5visit16visit_expr_breakNtNtCsiSITA57RZ13_15zerofrom_derive7visitor11TypeVisitorEBU_, symObjAddr: 0x4AD4, symBinAddr: 0x538A0, symSize: 0x18C }
  - { offset: 0x82B44, size: 0x8, addend: 0x0, symName: __RINvNtNtCsc29TF2YcYso_3syn3gen5visit16visit_expr_constNtNtCsiSITA57RZ13_15zerofrom_derive7visitor11TypeVisitorEBU_, symObjAddr: 0x4C60, symBinAddr: 0x53A2C, symSize: 0xA8 }
  - { offset: 0x82BC2, size: 0x8, addend: 0x0, symName: __RINvNtNtCsc29TF2YcYso_3syn3gen5visit16visit_expr_fieldNtNtCsiSITA57RZ13_15zerofrom_derive7visitor11TypeVisitorEBU_, symObjAddr: 0x4D08, symBinAddr: 0x53AD4, symSize: 0x108 }
  - { offset: 0x82C40, size: 0x8, addend: 0x0, symName: __RINvNtNtCsc29TF2YcYso_3syn3gen5visit16visit_expr_groupNtNtCsiSITA57RZ13_15zerofrom_derive7visitor11TypeVisitorEBU_, symObjAddr: 0x4E10, symBinAddr: 0x53BDC, symSize: 0xF8 }
  - { offset: 0x82CBE, size: 0x8, addend: 0x0, symName: __RINvNtNtCsc29TF2YcYso_3syn3gen5visit16visit_expr_indexNtNtCsiSITA57RZ13_15zerofrom_derive7visitor11TypeVisitorEBU_, symObjAddr: 0x4F08, symBinAddr: 0x53CD4, symSize: 0x154 }
  - { offset: 0x82D3C, size: 0x8, addend: 0x0, symName: __RINvNtNtCsc29TF2YcYso_3syn3gen5visit16visit_expr_inferNtNtCsiSITA57RZ13_15zerofrom_derive7visitor11TypeVisitorEBU_, symObjAddr: 0x505C, symBinAddr: 0x53E28, symSize: 0x98 }
  - { offset: 0x82DBA, size: 0x8, addend: 0x0, symName: __RINvNtNtCsc29TF2YcYso_3syn3gen5visit16visit_expr_macroNtNtCsiSITA57RZ13_15zerofrom_derive7visitor11TypeVisitorEBU_, symObjAddr: 0x50F4, symBinAddr: 0x53EC0, symSize: 0xA8 }
  - { offset: 0x82E38, size: 0x8, addend: 0x0, symName: __RINvNtNtCsc29TF2YcYso_3syn3gen5visit16visit_expr_matchNtNtCsiSITA57RZ13_15zerofrom_derive7visitor11TypeVisitorEBU_, symObjAddr: 0x519C, symBinAddr: 0x53F68, symSize: 0x158 }
  - { offset: 0x82EEA, size: 0x8, addend: 0x0, symName: __RINvNtNtCsc29TF2YcYso_3syn3gen5visit16visit_expr_parenNtNtCsiSITA57RZ13_15zerofrom_derive7visitor11TypeVisitorEBU_, symObjAddr: 0x52F4, symBinAddr: 0x540C0, symSize: 0xF8 }
  - { offset: 0x82F68, size: 0x8, addend: 0x0, symName: __RINvNtNtCsc29TF2YcYso_3syn3gen5visit16visit_expr_rangeNtNtCsiSITA57RZ13_15zerofrom_derive7visitor11TypeVisitorEBU_, symObjAddr: 0x53EC, symBinAddr: 0x541B8, symSize: 0x1EC }
  - { offset: 0x83012, size: 0x8, addend: 0x0, symName: __RINvNtNtCsc29TF2YcYso_3syn3gen5visit16visit_expr_tupleNtNtCsiSITA57RZ13_15zerofrom_derive7visitor11TypeVisitorEBU_, symObjAddr: 0x55D8, symBinAddr: 0x543A4, symSize: 0x128 }
  - { offset: 0x830EB, size: 0x8, addend: 0x0, symName: __RINvNtNtCsc29TF2YcYso_3syn3gen5visit16visit_expr_unaryNtNtCsiSITA57RZ13_15zerofrom_derive7visitor11TypeVisitorEBU_, symObjAddr: 0x5700, symBinAddr: 0x544CC, symSize: 0x108 }
  - { offset: 0x83169, size: 0x8, addend: 0x0, symName: __RINvNtNtCsc29TF2YcYso_3syn3gen5visit16visit_expr_whileNtNtCsiSITA57RZ13_15zerofrom_derive7visitor11TypeVisitorEBU_, symObjAddr: 0x5808, symBinAddr: 0x545D4, symSize: 0x158 }
  - { offset: 0x83205, size: 0x8, addend: 0x0, symName: __RINvNtNtCsc29TF2YcYso_3syn3gen5visit16visit_expr_yieldNtNtCsiSITA57RZ13_15zerofrom_derive7visitor11TypeVisitorEBU_, symObjAddr: 0x5960, symBinAddr: 0x5472C, symSize: 0x13C }
  - { offset: 0x83299, size: 0x8, addend: 0x0, symName: __RINvNtNtCsc29TF2YcYso_3syn3gen5visit16visit_item_constNtNtCsiSITA57RZ13_15zerofrom_derive7visitor11TypeVisitorEBU_, symObjAddr: 0x5A9C, symBinAddr: 0x54868, symSize: 0x184 }
  - { offset: 0x83317, size: 0x8, addend: 0x0, symName: __RINvNtNtCsc29TF2YcYso_3syn3gen5visit16visit_item_macroNtNtCsiSITA57RZ13_15zerofrom_derive7visitor11TypeVisitorEBU_, symObjAddr: 0x5C20, symBinAddr: 0x549EC, symSize: 0xFC }
  - { offset: 0x833B3, size: 0x8, addend: 0x0, symName: __RINvNtNtCsc29TF2YcYso_3syn3gen5visit16visit_item_traitNtNtCsiSITA57RZ13_15zerofrom_derive7visitor11TypeVisitorEBU_, symObjAddr: 0x5D1C, symBinAddr: 0x54AE8, symSize: 0x1BC }
  - { offset: 0x834E4, size: 0x8, addend: 0x0, symName: __RINvNtNtCsc29TF2YcYso_3syn3gen5visit16visit_item_unionNtNtCsiSITA57RZ13_15zerofrom_derive7visitor11TypeVisitorEBU_, symObjAddr: 0x5ED8, symBinAddr: 0x54CA4, symSize: 0xD8 }
  - { offset: 0x83562, size: 0x8, addend: 0x0, symName: __RINvNtNtCsc29TF2YcYso_3syn3gen5visit16visit_local_initNtNtCsiSITA57RZ13_15zerofrom_derive7visitor11TypeVisitorEBU_, symObjAddr: 0x5FB0, symBinAddr: 0x54D7C, symSize: 0x134 }
  - { offset: 0x835BA, size: 0x8, addend: 0x0, symName: __RINvNtNtCsc29TF2YcYso_3syn3gen5visit16visit_pat_structNtNtCsiSITA57RZ13_15zerofrom_derive7visitor11TypeVisitorEBU_, symObjAddr: 0x60E4, symBinAddr: 0x54EB0, symSize: 0x1E0 }
  - { offset: 0x836CF, size: 0x8, addend: 0x0, symName: __RINvNtNtCsc29TF2YcYso_3syn3gen5visit16visit_stmt_macroNtNtCsiSITA57RZ13_15zerofrom_derive7visitor11TypeVisitorEBU_, symObjAddr: 0x62C4, symBinAddr: 0x55090, symSize: 0xA8 }
  - { offset: 0x8374D, size: 0x8, addend: 0x0, symName: __RINvNtNtCsc29TF2YcYso_3syn3gen5visit16visit_trait_itemNtNtCsiSITA57RZ13_15zerofrom_derive7visitor11TypeVisitorEBU_, symObjAddr: 0x636C, symBinAddr: 0x55138, symSize: 0x168 }
  - { offset: 0x8381D, size: 0x8, addend: 0x0, symName: __RINvNtNtCsc29TF2YcYso_3syn3gen5visit16visit_type_arrayNtNtCsiSITA57RZ13_15zerofrom_derive7visitor11TypeVisitorEBU_, symObjAddr: 0x64D4, symBinAddr: 0x552A0, symSize: 0xA0 }
  - { offset: 0x8385F, size: 0x8, addend: 0x0, symName: __RINvNtNtCsc29TF2YcYso_3syn3gen5visit16visit_type_groupNtNtCsiSITA57RZ13_15zerofrom_derive7visitor11TypeVisitorEBU_, symObjAddr: 0x6574, symBinAddr: 0x55340, symSize: 0x90 }
  - { offset: 0x838A1, size: 0x8, addend: 0x0, symName: __RINvNtNtCsc29TF2YcYso_3syn3gen5visit16visit_type_inferNtNtCsiSITA57RZ13_15zerofrom_derive7visitor11TypeVisitorEBU_, symObjAddr: 0x6604, symBinAddr: 0x553D0, symSize: 0x24 }
  - { offset: 0x838E3, size: 0x8, addend: 0x0, symName: __RINvNtNtCsc29TF2YcYso_3syn3gen5visit16visit_type_macroNtNtCsiSITA57RZ13_15zerofrom_derive7visitor11TypeVisitorEBU_, symObjAddr: 0x6628, symBinAddr: 0x553F4, symSize: 0x3C }
  - { offset: 0x83925, size: 0x8, addend: 0x0, symName: __RINvNtNtCsc29TF2YcYso_3syn3gen5visit16visit_type_neverNtNtCsiSITA57RZ13_15zerofrom_derive7visitor11TypeVisitorEBU_, symObjAddr: 0x6664, symBinAddr: 0x55430, symSize: 0x24 }
  - { offset: 0x83967, size: 0x8, addend: 0x0, symName: __RINvNtNtCsc29TF2YcYso_3syn3gen5visit16visit_type_paramNtNtCsiSITA57RZ13_15zerofrom_derive7visitor11TypeVisitorEBU_, symObjAddr: 0x6688, symBinAddr: 0x55454, symSize: 0x180 }
  - { offset: 0x83A5E, size: 0x8, addend: 0x0, symName: __RINvNtNtCsc29TF2YcYso_3syn3gen5visit16visit_type_parenNtNtCsiSITA57RZ13_15zerofrom_derive7visitor11TypeVisitorEBU_, symObjAddr: 0x6808, symBinAddr: 0x555D4, symSize: 0x90 }
  - { offset: 0x83AA0, size: 0x8, addend: 0x0, symName: __RINvNtNtCsc29TF2YcYso_3syn3gen5visit16visit_type_sliceNtNtCsiSITA57RZ13_15zerofrom_derive7visitor11TypeVisitorEBU_, symObjAddr: 0x6898, symBinAddr: 0x55664, symSize: 0x90 }
  - { offset: 0x83AE2, size: 0x8, addend: 0x0, symName: __RINvNtNtCsc29TF2YcYso_3syn3gen5visit16visit_type_tupleNtNtCsiSITA57RZ13_15zerofrom_derive7visitor11TypeVisitorEBU_, symObjAddr: 0x6928, symBinAddr: 0x556F4, symSize: 0xC8 }
  - { offset: 0x83B7F, size: 0x8, addend: 0x0, symName: __RINvNtNtCsc29TF2YcYso_3syn3gen5visit16visit_use_renameNtNtCsiSITA57RZ13_15zerofrom_derive7visitor11TypeVisitorEBU_, symObjAddr: 0x69F0, symBinAddr: 0x557BC, symSize: 0x50 }
  - { offset: 0x83BC1, size: 0x8, addend: 0x0, symName: __RINvNtNtCsc29TF2YcYso_3syn3gen5visit16visit_visibilityNtNtCsiSITA57RZ13_15zerofrom_derive7visitor11TypeVisitorEBU_, symObjAddr: 0x6A40, symBinAddr: 0x5580C, symSize: 0xC4 }
  - { offset: 0x83C21, size: 0x8, addend: 0x0, symName: __RINvNtNtCsc29TF2YcYso_3syn3gen5visit17visit_assoc_constNtNtCsiSITA57RZ13_15zerofrom_derive7visitor11TypeVisitorEBV_, symObjAddr: 0x6B04, symBinAddr: 0x558D0, symSize: 0xA4 }
  - { offset: 0x83C81, size: 0x8, addend: 0x0, symName: __RINvNtNtCsc29TF2YcYso_3syn3gen5visit17visit_bare_fn_argNtNtCsiSITA57RZ13_15zerofrom_derive7visitor11TypeVisitorEBV_, symObjAddr: 0x6BA8, symBinAddr: 0x55974, symSize: 0xF4 }
  - { offset: 0x83D1D, size: 0x8, addend: 0x0, symName: __RINvNtNtCsc29TF2YcYso_3syn3gen5visit17visit_const_paramNtNtCsiSITA57RZ13_15zerofrom_derive7visitor11TypeVisitorEBV_, symObjAddr: 0x6C9C, symBinAddr: 0x55A68, symSize: 0x104 }
  - { offset: 0x83DB9, size: 0x8, addend: 0x0, symName: __RINvNtNtCsc29TF2YcYso_3syn3gen5visit17visit_expr_assignNtNtCsiSITA57RZ13_15zerofrom_derive7visitor11TypeVisitorEBV_, symObjAddr: 0x6DA0, symBinAddr: 0x55B6C, symSize: 0x154 }
  - { offset: 0x83E37, size: 0x8, addend: 0x0, symName: __RINvNtNtCsc29TF2YcYso_3syn3gen5visit17visit_expr_binaryNtNtCsiSITA57RZ13_15zerofrom_derive7visitor11TypeVisitorEBV_, symObjAddr: 0x6EF4, symBinAddr: 0x55CC0, symSize: 0x164 }
  - { offset: 0x83EB5, size: 0x8, addend: 0x0, symName: __RINvNtNtCsc29TF2YcYso_3syn3gen5visit17visit_expr_repeatNtNtCsiSITA57RZ13_15zerofrom_derive7visitor11TypeVisitorEBV_, symObjAddr: 0x7058, symBinAddr: 0x55E24, symSize: 0x154 }
  - { offset: 0x83F33, size: 0x8, addend: 0x0, symName: __RINvNtNtCsc29TF2YcYso_3syn3gen5visit17visit_expr_returnNtNtCsiSITA57RZ13_15zerofrom_derive7visitor11TypeVisitorEBV_, symObjAddr: 0x71AC, symBinAddr: 0x55F78, symSize: 0x13C }
  - { offset: 0x83FC7, size: 0x8, addend: 0x0, symName: __RINvNtNtCsc29TF2YcYso_3syn3gen5visit17visit_expr_structNtNtCsiSITA57RZ13_15zerofrom_derive7visitor11TypeVisitorEBV_, symObjAddr: 0x72E8, symBinAddr: 0x560B4, symSize: 0x234 }
  - { offset: 0x840D5, size: 0x8, addend: 0x0, symName: __RINvNtNtCsc29TF2YcYso_3syn3gen5visit17visit_expr_unsafeNtNtCsiSITA57RZ13_15zerofrom_derive7visitor11TypeVisitorEBV_, symObjAddr: 0x751C, symBinAddr: 0x562E8, symSize: 0xA8 }
  - { offset: 0x84153, size: 0x8, addend: 0x0, symName: __RINvNtNtCsc29TF2YcYso_3syn3gen5visit17visit_field_valueNtNtCsiSITA57RZ13_15zerofrom_derive7visitor11TypeVisitorEBV_, symObjAddr: 0x75C4, symBinAddr: 0x56390, symSize: 0xB0 }
  - { offset: 0x841D1, size: 0x8, addend: 0x0, symName: __RINvNtNtCsc29TF2YcYso_3syn3gen5visit17visit_item_staticNtNtCsiSITA57RZ13_15zerofrom_derive7visitor11TypeVisitorEBV_, symObjAddr: 0x7674, symBinAddr: 0x56440, symSize: 0x184 }
  - { offset: 0x8424F, size: 0x8, addend: 0x0, symName: __RINvNtNtCsc29TF2YcYso_3syn3gen5visit17visit_item_structNtNtCsiSITA57RZ13_15zerofrom_derive7visitor11TypeVisitorEBV_, symObjAddr: 0x77F8, symBinAddr: 0x565C4, symSize: 0xD0 }
  - { offset: 0x842CD, size: 0x8, addend: 0x0, symName: __RINvNtNtCsc29TF2YcYso_3syn3gen5visit17visit_return_typeNtNtCsiSITA57RZ13_15zerofrom_derive7visitor11TypeVisitorEBV_, symObjAddr: 0x78C8, symBinAddr: 0x56694, symSize: 0xD8 }
  - { offset: 0x84335, size: 0x8, addend: 0x0, symName: __RINvNtNtCsc29TF2YcYso_3syn3gen5visit17visit_trait_boundNtNtCsiSITA57RZ13_15zerofrom_derive7visitor11TypeVisitorEBV_, symObjAddr: 0x79A0, symBinAddr: 0x5676C, symSize: 0xA4 }
  - { offset: 0x84395, size: 0x8, addend: 0x0, symName: __RINvNtNtCsc29TF2YcYso_3syn3gen5visit18visit_expr_closureNtNtCsiSITA57RZ13_15zerofrom_derive7visitor11TypeVisitorEBW_, symObjAddr: 0x7A44, symBinAddr: 0x56810, symSize: 0x1EC }
  - { offset: 0x8448C, size: 0x8, addend: 0x0, symName: __RINvNtNtCsc29TF2YcYso_3syn3gen5visit18visit_fields_namedNtNtCsiSITA57RZ13_15zerofrom_derive7visitor11TypeVisitorEBW_, symObjAddr: 0x7C30, symBinAddr: 0x569FC, symSize: 0xC8 }
  - { offset: 0x84529, size: 0x8, addend: 0x0, symName: __RINvNtNtCsc29TF2YcYso_3syn3gen5visit18visit_foreign_itemNtNtCsiSITA57RZ13_15zerofrom_derive7visitor11TypeVisitorEBW_, symObjAddr: 0x7CF8, symBinAddr: 0x56AC4, symSize: 0x168 }
  - { offset: 0x845F9, size: 0x8, addend: 0x0, symName: __RINvNtNtCsc29TF2YcYso_3syn3gen5visit18visit_impl_item_fnNtNtCsiSITA57RZ13_15zerofrom_derive7visitor11TypeVisitorEBW_, symObjAddr: 0x7E60, symBinAddr: 0x56C2C, symSize: 0xC0 }
  - { offset: 0x84677, size: 0x8, addend: 0x0, symName: __RINvNtNtCsc29TF2YcYso_3syn3gen5visit18visit_lit_byte_strNtNtCsiSITA57RZ13_15zerofrom_derive7visitor11TypeVisitorEBW_, symObjAddr: 0x7F20, symBinAddr: 0x56CEC, symSize: 0x24 }
  - { offset: 0x846B9, size: 0x8, addend: 0x0, symName: __RINvNtNtCsc29TF2YcYso_3syn3gen5visit18visit_path_segmentNtNtCsiSITA57RZ13_15zerofrom_derive7visitor11TypeVisitorEBW_, symObjAddr: 0x7F44, symBinAddr: 0x56D10, symSize: 0x50 }
  - { offset: 0x846FB, size: 0x8, addend: 0x0, symName: __RINvNtNtCsc29TF2YcYso_3syn3gen5visit18visit_range_limitsNtNtCsiSITA57RZ13_15zerofrom_derive7visitor11TypeVisitorEBW_, symObjAddr: 0x7F94, symBinAddr: 0x56D60, symSize: 0x74 }
  - { offset: 0x8473D, size: 0x8, addend: 0x0, symName: __RINvNtNtCsc29TF2YcYso_3syn3gen5visit18visit_type_bare_fnNtNtCsiSITA57RZ13_15zerofrom_derive7visitor11TypeVisitorEBW_, symObjAddr: 0x8008, symBinAddr: 0x56DD4, symSize: 0x1C0 }
  - { offset: 0x84834, size: 0x8, addend: 0x0, symName: __RINvNtNtCsc29TF2YcYso_3syn3gen5visit18visit_where_clauseNtNtCsiSITA57RZ13_15zerofrom_derive7visitor11TypeVisitorEBW_, symObjAddr: 0x81C8, symBinAddr: 0x56F94, symSize: 0xC8 }
  - { offset: 0x848D1, size: 0x8, addend: 0x0, symName: __RINvNtNtCsc29TF2YcYso_3syn3gen5visit19visit_bare_variadicNtNtCsiSITA57RZ13_15zerofrom_derive7visitor11TypeVisitorEBX_, symObjAddr: 0x8290, symBinAddr: 0x5705C, symSize: 0xEC }
  - { offset: 0x8496D, size: 0x8, addend: 0x0, symName: __RINvNtNtCsc29TF2YcYso_3syn3gen5visit19visit_expr_continueNtNtCsiSITA57RZ13_15zerofrom_derive7visitor11TypeVisitorEBX_, symObjAddr: 0x837C, symBinAddr: 0x57148, symSize: 0xEC }
  - { offset: 0x84A09, size: 0x8, addend: 0x0, symName: __RINvNtNtCsc29TF2YcYso_3syn3gen5visit19visit_expr_for_loopNtNtCsiSITA57RZ13_15zerofrom_derive7visitor11TypeVisitorEBX_, symObjAddr: 0x8468, symBinAddr: 0x57234, symSize: 0x1B4 }
  - { offset: 0x84AA5, size: 0x8, addend: 0x0, symName: __RINvNtNtCsc29TF2YcYso_3syn3gen5visit19visit_expr_raw_addrNtNtCsiSITA57RZ13_15zerofrom_derive7visitor11TypeVisitorEBX_, symObjAddr: 0x861C, symBinAddr: 0x573E8, symSize: 0x108 }
  - { offset: 0x84B23, size: 0x8, addend: 0x0, symName: __RINvNtNtCsc29TF2YcYso_3syn3gen5visit19visit_generic_paramNtNtCsiSITA57RZ13_15zerofrom_derive7visitor11TypeVisitorEBX_, symObjAddr: 0x8724, symBinAddr: 0x574F0, symSize: 0xE8 }
  - { offset: 0x84BB7, size: 0x8, addend: 0x0, symName: __RINvNtNtCsc29TF2YcYso_3syn3gen5visit19visit_pat_referenceNtNtCsiSITA57RZ13_15zerofrom_derive7visitor11TypeVisitorEBX_, symObjAddr: 0x880C, symBinAddr: 0x575D8, symSize: 0xF8 }
  - { offset: 0x84C35, size: 0x8, addend: 0x0, symName: __RINvNtNtCsc29TF2YcYso_3syn3gen5visit19visit_trait_item_fnNtNtCsiSITA57RZ13_15zerofrom_derive7visitor11TypeVisitorEBX_, symObjAddr: 0x8904, symBinAddr: 0x576D0, symSize: 0xF8 }
  - { offset: 0x84CD1, size: 0x8, addend: 0x0, symName: __RINvNtNtCsc29TF2YcYso_3syn3gen5visit20visit_captured_paramNtNtCsiSITA57RZ13_15zerofrom_derive7visitor11TypeVisitorEBY_, symObjAddr: 0x89FC, symBinAddr: 0x577C8, symSize: 0x94 }
  - { offset: 0x84D47, size: 0x8, addend: 0x0, symName: __RINvNtNtCsc29TF2YcYso_3syn3gen5visit20visit_expr_referenceNtNtCsiSITA57RZ13_15zerofrom_derive7visitor11TypeVisitorEBY_, symObjAddr: 0x8A90, symBinAddr: 0x5785C, symSize: 0xF8 }
  - { offset: 0x84DC5, size: 0x8, addend: 0x0, symName: __RINvNtNtCsc29TF2YcYso_3syn3gen5visit20visit_expr_try_blockNtNtCsiSITA57RZ13_15zerofrom_derive7visitor11TypeVisitorEBY_, symObjAddr: 0x8B88, symBinAddr: 0x57954, symSize: 0xA8 }
  - { offset: 0x84E43, size: 0x8, addend: 0x0, symName: __RINvNtNtCsc29TF2YcYso_3syn3gen5visit20visit_fields_unnamedNtNtCsiSITA57RZ13_15zerofrom_derive7visitor11TypeVisitorEBY_, symObjAddr: 0x8C30, symBinAddr: 0x579FC, symSize: 0xC8 }
  - { offset: 0x84EE0, size: 0x8, addend: 0x0, symName: __RINvNtNtCsc29TF2YcYso_3syn3gen5visit20visit_impl_item_typeNtNtCsiSITA57RZ13_15zerofrom_derive7visitor11TypeVisitorEBY_, symObjAddr: 0x8CF8, symBinAddr: 0x57AC4, symSize: 0xD0 }
  - { offset: 0x84F5E, size: 0x8, addend: 0x0, symName: __RINvNtNtCsc29TF2YcYso_3syn3gen5visit20visit_lifetime_paramNtNtCsiSITA57RZ13_15zerofrom_derive7visitor11TypeVisitorEBY_, symObjAddr: 0x8DC8, symBinAddr: 0x57B94, symSize: 0x138 }
  - { offset: 0x85037, size: 0x8, addend: 0x0, symName: __RINvNtNtCsc29TF2YcYso_3syn3gen5visit20visit_path_argumentsNtNtCsiSITA57RZ13_15zerofrom_derive7visitor11TypeVisitorEBY_, symObjAddr: 0x8F00, symBinAddr: 0x57CCC, symSize: 0xD4 }
  - { offset: 0x850AD, size: 0x8, addend: 0x0, symName: __RINvNtNtCsc29TF2YcYso_3syn3gen5visit20visit_predicate_typeNtNtCsiSITA57RZ13_15zerofrom_derive7visitor11TypeVisitorEBY_, symObjAddr: 0x8FD4, symBinAddr: 0x57DA0, symSize: 0x124 }
  - { offset: 0x85168, size: 0x8, addend: 0x0, symName: __RINvNtNtCsc29TF2YcYso_3syn3gen5visit20visit_type_referenceNtNtCsiSITA57RZ13_15zerofrom_derive7visitor11TypeVisitorEBY_, symObjAddr: 0x90F8, symBinAddr: 0x57EC4, symSize: 0xE0 }
  - { offset: 0x851C8, size: 0x8, addend: 0x0, symName: __RINvNtNtCsc29TF2YcYso_3syn3gen5visit20visit_vis_restrictedNtNtCsiSITA57RZ13_15zerofrom_derive7visitor11TypeVisitorEBY_, symObjAddr: 0x91D8, symBinAddr: 0x57FA4, symSize: 0x90 }
  - { offset: 0x8520A, size: 0x8, addend: 0x0, symName: __RINvNtNtCsc29TF2YcYso_3syn3gen5visit21visit_bound_lifetimesNtNtCsiSITA57RZ13_15zerofrom_derive7visitor11TypeVisitorEBZ_, symObjAddr: 0x9268, symBinAddr: 0x58034, symSize: 0xC8 }
  - { offset: 0x852A7, size: 0x8, addend: 0x0, symName: __RINvNtNtCsc29TF2YcYso_3syn3gen5visit21visit_foreign_item_fnNtNtCsiSITA57RZ13_15zerofrom_derive7visitor11TypeVisitorEBZ_, symObjAddr: 0x9330, symBinAddr: 0x580FC, symSize: 0xB0 }
  - { offset: 0x85325, size: 0x8, addend: 0x0, symName: __RINvNtNtCsc29TF2YcYso_3syn3gen5visit21visit_impl_item_constNtNtCsiSITA57RZ13_15zerofrom_derive7visitor11TypeVisitorEBZ_, symObjAddr: 0x93E0, symBinAddr: 0x581AC, symSize: 0xE0 }
  - { offset: 0x853A3, size: 0x8, addend: 0x0, symName: __RINvNtNtCsc29TF2YcYso_3syn3gen5visit21visit_impl_item_macroNtNtCsiSITA57RZ13_15zerofrom_derive7visitor11TypeVisitorEBZ_, symObjAddr: 0x94C0, symBinAddr: 0x5828C, symSize: 0xA8 }
  - { offset: 0x85421, size: 0x8, addend: 0x0, symName: __RINvNtNtCsc29TF2YcYso_3syn3gen5visit21visit_macro_delimiterNtNtCsiSITA57RZ13_15zerofrom_derive7visitor11TypeVisitorEBZ_, symObjAddr: 0x9568, symBinAddr: 0x58334, symSize: 0xA8 }
  - { offset: 0x85463, size: 0x8, addend: 0x0, symName: __RINvNtNtCsc29TF2YcYso_3syn3gen5visit21visit_meta_name_valueNtNtCsiSITA57RZ13_15zerofrom_derive7visitor11TypeVisitorEBZ_, symObjAddr: 0x9610, symBinAddr: 0x583DC, symSize: 0x50 }
  - { offset: 0x854A5, size: 0x8, addend: 0x0, symName: __RINvNtNtCsc29TF2YcYso_3syn3gen5visit21visit_precise_captureNtNtCsiSITA57RZ13_15zerofrom_derive7visitor11TypeVisitorEBZ_, symObjAddr: 0x9660, symBinAddr: 0x5842C, symSize: 0xC8 }
  - { offset: 0x85542, size: 0x8, addend: 0x0, symName: __RINvNtNtCsc29TF2YcYso_3syn3gen5visit21visit_trait_item_typeNtNtCsiSITA57RZ13_15zerofrom_derive7visitor11TypeVisitorEBZ_, symObjAddr: 0x9728, symBinAddr: 0x584F4, symSize: 0x194 }
  - { offset: 0x85639, size: 0x8, addend: 0x0, symName: __RINvNtNtCsc29TF2YcYso_3syn3gen5visit21visit_type_impl_traitNtNtCsiSITA57RZ13_15zerofrom_derive7visitor11TypeVisitorEBZ_, symObjAddr: 0x98BC, symBinAddr: 0x58688, symSize: 0xC8 }
  - { offset: 0x856D6, size: 0x8, addend: 0x0, symName: __RINvNtNtCsc29TF2YcYso_3syn3gen5visit21visit_where_predicateNtNtCsiSITA57RZ13_15zerofrom_derive7visitor11TypeVisitorEBZ_, symObjAddr: 0x9984, symBinAddr: 0x58750, symSize: 0x98 }
  - { offset: 0x8574C, size: 0x8, addend: 0x0, symName: __RINvNtNtCsc29TF2YcYso_3syn3gen5visit22visit_expr_method_callNtNtCsiSITA57RZ13_15zerofrom_derive7visitor11TypeVisitorEB10_, symObjAddr: 0x9A1C, symBinAddr: 0x587E8, symSize: 0x1EC }
  - { offset: 0x8583B, size: 0x8, addend: 0x0, symName: __RINvNtNtCsc29TF2YcYso_3syn3gen5visit22visit_field_mutabilityNtNtCsiSITA57RZ13_15zerofrom_derive7visitor11TypeVisitorEB10_, symObjAddr: 0x9C08, symBinAddr: 0x589D4, symSize: 0x24 }
  - { offset: 0x8587D, size: 0x8, addend: 0x0, symName: __RINvNtNtCsc29TF2YcYso_3syn3gen5visit22visit_generic_argumentNtNtCsiSITA57RZ13_15zerofrom_derive7visitor11TypeVisitorEB10_, symObjAddr: 0x9C2C, symBinAddr: 0x589F8, symSize: 0x1A8 }
  - { offset: 0x8596B, size: 0x8, addend: 0x0, symName: __RINvNtNtCsc29TF2YcYso_3syn3gen5visit22visit_item_foreign_modNtNtCsiSITA57RZ13_15zerofrom_derive7visitor11TypeVisitorEB10_, symObjAddr: 0x9DD4, symBinAddr: 0x58BA0, symSize: 0x108 }
  - { offset: 0x85A25, size: 0x8, addend: 0x0, symName: __RINvNtNtCsc29TF2YcYso_3syn3gen5visit22visit_item_trait_aliasNtNtCsiSITA57RZ13_15zerofrom_derive7visitor11TypeVisitorEB10_, symObjAddr: 0x9EDC, symBinAddr: 0x58CA8, symSize: 0x158 }
  - { offset: 0x85AFE, size: 0x8, addend: 0x0, symName: __RINvNtNtCsc29TF2YcYso_3syn3gen5visit22visit_pat_tuple_structNtNtCsiSITA57RZ13_15zerofrom_derive7visitor11TypeVisitorEB10_, symObjAddr: 0xA034, symBinAddr: 0x58E00, symSize: 0x18C }
  - { offset: 0x85BF5, size: 0x8, addend: 0x0, symName: __RINvNtNtCsc29TF2YcYso_3syn3gen5visit22visit_trait_item_constNtNtCsiSITA57RZ13_15zerofrom_derive7visitor11TypeVisitorEB10_, symObjAddr: 0xA1C0, symBinAddr: 0x58F8C, symSize: 0x118 }
  - { offset: 0x85C91, size: 0x8, addend: 0x0, symName: __RINvNtNtCsc29TF2YcYso_3syn3gen5visit22visit_trait_item_macroNtNtCsiSITA57RZ13_15zerofrom_derive7visitor11TypeVisitorEB10_, symObjAddr: 0xA2D8, symBinAddr: 0x590A4, symSize: 0xA8 }
  - { offset: 0x85D0F, size: 0x8, addend: 0x0, symName: __RINvNtNtCsc29TF2YcYso_3syn3gen5visit22visit_type_param_boundNtNtCsiSITA57RZ13_15zerofrom_derive7visitor11TypeVisitorEB10_, symObjAddr: 0xA380, symBinAddr: 0x5914C, symSize: 0x12C }
  - { offset: 0x85DC1, size: 0x8, addend: 0x0, symName: __RINvNtNtCsc29TF2YcYso_3syn3gen5visit23visit_foreign_item_typeNtNtCsiSITA57RZ13_15zerofrom_derive7visitor11TypeVisitorEB11_, symObjAddr: 0xA4AC, symBinAddr: 0x59278, symSize: 0xC8 }
  - { offset: 0x85E3F, size: 0x8, addend: 0x0, symName: __RINvNtNtCsc29TF2YcYso_3syn3gen5visit23visit_item_extern_crateNtNtCsiSITA57RZ13_15zerofrom_derive7visitor11TypeVisitorEB11_, symObjAddr: 0xA574, symBinAddr: 0x59340, symSize: 0x110 }
  - { offset: 0x85EDB, size: 0x8, addend: 0x0, symName: __RINvNtNtCsc29TF2YcYso_3syn3gen5visit23visit_static_mutabilityNtNtCsiSITA57RZ13_15zerofrom_derive7visitor11TypeVisitorEB11_, symObjAddr: 0xA684, symBinAddr: 0x59450, symSize: 0x68 }
  - { offset: 0x85F1D, size: 0x8, addend: 0x0, symName: __RINvNtNtCsc29TF2YcYso_3syn3gen5visit23visit_type_trait_objectNtNtCsiSITA57RZ13_15zerofrom_derive7visitor11TypeVisitorEB11_, symObjAddr: 0xA6EC, symBinAddr: 0x594B8, symSize: 0xC8 }
  - { offset: 0x85FBA, size: 0x8, addend: 0x0, symName: __RINvNtNtCsc29TF2YcYso_3syn3gen5visit24visit_foreign_item_macroNtNtCsiSITA57RZ13_15zerofrom_derive7visitor11TypeVisitorEB12_, symObjAddr: 0xA7B4, symBinAddr: 0x59580, symSize: 0xA8 }
  - { offset: 0x86038, size: 0x8, addend: 0x0, symName: __RINvNtNtCsc29TF2YcYso_3syn3gen5visit24visit_pointer_mutabilityNtNtCsiSITA57RZ13_15zerofrom_derive7visitor11TypeVisitorEB12_, symObjAddr: 0xA85C, symBinAddr: 0x59628, symSize: 0x74 }
  - { offset: 0x8607A, size: 0x8, addend: 0x0, symName: __RINvNtNtCsc29TF2YcYso_3syn3gen5visit24visit_predicate_lifetimeNtNtCsiSITA57RZ13_15zerofrom_derive7visitor11TypeVisitorEB12_, symObjAddr: 0xA8D0, symBinAddr: 0x5969C, symSize: 0xD0 }
  - { offset: 0x86117, size: 0x8, addend: 0x0, symName: __RINvNtNtCsc29TF2YcYso_3syn3gen5visit25visit_foreign_item_staticNtNtCsiSITA57RZ13_15zerofrom_derive7visitor11TypeVisitorEB13_, symObjAddr: 0xA9A0, symBinAddr: 0x5976C, symSize: 0x128 }
  - { offset: 0x86195, size: 0x8, addend: 0x0, symName: __RINvNtNtCsc29TF2YcYso_3syn3gen5visit26visit_trait_bound_modifierNtNtCsiSITA57RZ13_15zerofrom_derive7visitor11TypeVisitorEB14_, symObjAddr: 0xAAC8, symBinAddr: 0x59894, symSize: 0x68 }
  - { offset: 0x861D7, size: 0x8, addend: 0x0, symName: __RINvNtNtCsc29TF2YcYso_3syn3gen5visit37visit_parenthesized_generic_argumentsNtNtCsiSITA57RZ13_15zerofrom_derive7visitor11TypeVisitorEB1f_, symObjAddr: 0xAB30, symBinAddr: 0x598FC, symSize: 0xD8 }
  - { offset: 0x86274, size: 0x8, addend: 0x0, symName: __RINvNtNtCsc29TF2YcYso_3syn3gen5visit39visit_angle_bracketed_generic_argumentsNtNtCsiSITA57RZ13_15zerofrom_derive7visitor11TypeVisitorEB1h_, symObjAddr: 0xAC08, symBinAddr: 0x599D4, symSize: 0xC8 }
  - { offset: 0x86311, size: 0x8, addend: 0x0, symName: __RINvNtNtCsc29TF2YcYso_3syn3gen5visit9visit_abiNtNtCsiSITA57RZ13_15zerofrom_derive7visitor11TypeVisitorEBM_, symObjAddr: 0xACD0, symBinAddr: 0x59A9C, symSize: 0x80 }
  - { offset: 0x86371, size: 0x8, addend: 0x0, symName: __RINvNtNtCsc29TF2YcYso_3syn3gen5visit9visit_armNtNtCsiSITA57RZ13_15zerofrom_derive7visitor11TypeVisitorEBM_, symObjAddr: 0xAD50, symBinAddr: 0x59B1C, symSize: 0x1A8 }
  - { offset: 0x86405, size: 0x8, addend: 0x0, symName: __RINvNtNtCsc29TF2YcYso_3syn3gen5visit9visit_litNtNtCsiSITA57RZ13_15zerofrom_derive7visitor11TypeVisitorEBM_, symObjAddr: 0xAEF8, symBinAddr: 0x59CC4, symSize: 0x264 }
  - { offset: 0x86537, size: 0x8, addend: 0x0, symName: __RINvNtNtCsc29TF2YcYso_3syn3gen5visit9visit_patNtNtCsiSITA57RZ13_15zerofrom_derive7visitor11TypeVisitorEBM_, symObjAddr: 0xB15C, symBinAddr: 0x59F28, symSize: 0x390 }
  - { offset: 0x914A1, size: 0x8, addend: 0x0, symName: __RINvMNtCsaNl6UpbT7bw_4core6optionINtB3_6OptionINtNtCsiTraAjBDcu4_5alloc5boxed3BoxNtCshnvkK9b4wzu_11proc_macro25IdentEE3mapB1h_NCNvXs8_NtCsc29TF2YcYso_3syn10punctuatedINtB28_10PunctuatedB1h_NtNtB2a_5token5CommaENtNtNtNtB5_4iter6traits7collect12IntoIterator9into_iters_0ECsiSITA57RZ13_15zerofrom_derive, symObjAddr: 0x0, symBinAddr: 0x5A2B8, symSize: 0x6C }
  - { offset: 0x915A9, size: 0x8, addend: 0x0, symName: __RINvNtNtNtCs7yrEGia95Wz_10proc_macro6bridge6client5state3setINtNtCsaNl6UpbT7bw_4core6option6OptionNtB4_11TokenStreamENCNCINvB4_10run_clientB1y_BW_NCNCINvMs6_B4_INtB4_6ClientNtB8_11TokenStreamB2L_E7expand1NvCsiSITA57RZ13_15zerofrom_derive9zf_deriveE00E00EB3i_, symObjAddr: 0x68F8, symBinAddr: 0x60B68, symSize: 0xE8 }
  - { offset: 0x91688, size: 0x8, addend: 0x0, symName: __RNCNkNvNtNtNtCs7yrEGia95Wz_10proc_macro6bridge6client5state12BRIDGE_STATE0s_0CsiSITA57RZ13_15zerofrom_derive, symObjAddr: 0x7158, symBinAddr: 0x613C8, symSize: 0x30 }
  - { offset: 0x91A76, size: 0x8, addend: 0x0, symName: __RNvXs1J_NtCs7yrEGia95Wz_10proc_macro6bridgeINtB6_11ExpnGlobalsNtNtB6_6client4SpanEINtNtB6_3rpc9DecodeMutuE6decodeCsiSITA57RZ13_15zerofrom_derive, symObjAddr: 0x7F74, symBinAddr: 0x621E4, symSize: 0xB0 }
  - { offset: 0x91ACD, size: 0x8, addend: 0x0, symName: __RNvXs9_NtNtCs7yrEGia95Wz_10proc_macro6bridge3rpcTINtB7_11ExpnGlobalsNtNtB7_6client4SpanENtB16_11TokenStreamEINtB5_9DecodeMutuE6decodeCsiSITA57RZ13_15zerofrom_derive, symObjAddr: 0x8098, symBinAddr: 0x62308, symSize: 0x84 }
  - { offset: 0x91C08, size: 0x8, addend: 0x0, symName: __RNvXsR_NtCs7yrEGia95Wz_10proc_macro6bridgeINtNtCsaNl6UpbT7bw_4core6option6OptionNtNtB5_6client11TokenStreamEINtNtB5_3rpc6EncodeuE6encodeCsiSITA57RZ13_15zerofrom_derive, symObjAddr: 0x8188, symBinAddr: 0x623F8, symSize: 0xCC }
  - { offset: 0x91CAE, size: 0x8, addend: 0x0, symName: __RNvXsR_NtCs7yrEGia95Wz_10proc_macro6bridgeINtNtCsaNl6UpbT7bw_4core6option6OptionReEINtNtB5_3rpc6EncodeuE6encodeCsiSITA57RZ13_15zerofrom_derive, symObjAddr: 0x8254, symBinAddr: 0x624C4, symSize: 0xD8 }
  - { offset: 0x92749, size: 0x8, addend: 0x0, symName: __RINvXs1c_NtNtNtCsht3nMU9UgFu_3std11collections4hash3mapINtB7_7HashMapNtCshnvkK9b4wzu_11proc_macro25IdentINtNtCsaNl6UpbT7bw_4core6option6OptionB15_EEINtNtNtNtB1J_4iter6traits7collect12FromIteratorTB15_B1E_EE9from_iterINtNtNtB2t_8adapters3map3MapINtNtNtB1J_5slice4iter7IterMutNtNtCsc29TF2YcYso_3syn8generics9TypeParamENCNvCsiSITA57RZ13_15zerofrom_derive14zf_derive_impls0_0EEB58_, symObjAddr: 0x69E0, symBinAddr: 0x60C50, symSize: 0x124 }
  - { offset: 0x928B9, size: 0x8, addend: 0x0, symName: __RNvXsM_NtNtNtCsht3nMU9UgFu_3std11collections4hash3mapINtB5_6ValuesNtCshnvkK9b4wzu_11proc_macro25IdentINtNtCsaNl6UpbT7bw_4core6option6OptionB12_EENtNtNtNtB1G_4iter6traits8iterator8Iterator4nextCsiSITA57RZ13_15zerofrom_derive, symObjAddr: 0x811C, symBinAddr: 0x6238C, symSize: 0x6C }
  - { offset: 0x933E0, size: 0x8, addend: 0x0, symName: __RINvNtCsaNl6UpbT7bw_4core3ptr13drop_in_placeINtNtB4_4cell10UnsafeCellNtNtNtCs7yrEGia95Wz_10proc_macro6bridge6client6BridgeEECsiSITA57RZ13_15zerofrom_derive, symObjAddr: 0x4358, symBinAddr: 0x5E5C8, symSize: 0x24 }
  - { offset: 0x9340F, size: 0x8, addend: 0x0, symName: __RINvNtCsaNl6UpbT7bw_4core3ptr13drop_in_placeINtNtB4_4cell7RefCellNtNtNtCs7yrEGia95Wz_10proc_macro6bridge6client6BridgeEECsiSITA57RZ13_15zerofrom_derive, symObjAddr: 0x437C, symBinAddr: 0x5E5EC, symSize: 0x24 }
  - { offset: 0x9343E, size: 0x8, addend: 0x0, symName: __RINvNtCsaNl6UpbT7bw_4core3ptr13drop_in_placeINtNtB4_6option4ItemNtCshnvkK9b4wzu_11proc_macro25IdentEECsiSITA57RZ13_15zerofrom_derive, symObjAddr: 0x43A0, symBinAddr: 0x5E610, symSize: 0x24 }
  - { offset: 0x9346D, size: 0x8, addend: 0x0, symName: __RINvNtCsaNl6UpbT7bw_4core3ptr13drop_in_placeINtNtB4_6option6OptionIBH_NtCshnvkK9b4wzu_11proc_macro25IdentEEECsiSITA57RZ13_15zerofrom_derive, symObjAddr: 0x43C4, symBinAddr: 0x5E634, symSize: 0x44 }
  - { offset: 0x9349C, size: 0x8, addend: 0x0, symName: __RINvNtCsaNl6UpbT7bw_4core3ptr13drop_in_placeINtNtB4_6option6OptionINtNtCsiTraAjBDcu4_5alloc5boxed3BoxNtCshnvkK9b4wzu_11proc_macro25IdentEEECsiSITA57RZ13_15zerofrom_derive, symObjAddr: 0x4408, symBinAddr: 0x5E678, symSize: 0x44 }
  - { offset: 0x934CB, size: 0x8, addend: 0x0, symName: __RINvNtCsaNl6UpbT7bw_4core3ptr13drop_in_placeINtNtB4_6option6OptionNtNtCsc29TF2YcYso_3syn8generics9TypeParamEECsiSITA57RZ13_15zerofrom_derive, symObjAddr: 0x444C, symBinAddr: 0x5E6BC, symSize: 0x44 }
  - { offset: 0x934FA, size: 0x8, addend: 0x0, symName: __RINvNtCsaNl6UpbT7bw_4core3ptr13drop_in_placeINtNtB4_6option8IntoIterNtCshnvkK9b4wzu_11proc_macro25IdentEECsiSITA57RZ13_15zerofrom_derive, symObjAddr: 0x4490, symBinAddr: 0x5E700, symSize: 0x24 }
  - { offset: 0x93529, size: 0x8, addend: 0x0, symName: __RINvNtCsaNl6UpbT7bw_4core3ptr13drop_in_placeINtNtB4_6result6ResultINtNtCsc29TF2YcYso_3syn10punctuated10PunctuatedNtCshnvkK9b4wzu_11proc_macro25IdentNtNtB17_5token5CommaENtNtB17_5error5ErrorEECsiSITA57RZ13_15zerofrom_derive, symObjAddr: 0x44B4, symBinAddr: 0x5E724, symSize: 0x5C }
  - { offset: 0x93558, size: 0x8, addend: 0x0, symName: __RINvNtCsaNl6UpbT7bw_4core3ptr13drop_in_placeINtNtB4_6result6ResultNtCshnvkK9b4wzu_11proc_macro25IdentNtNtCsc29TF2YcYso_3syn5error5ErrorEECsiSITA57RZ13_15zerofrom_derive, symObjAddr: 0x4510, symBinAddr: 0x5E780, symSize: 0x50 }
  - { offset: 0x93587, size: 0x8, addend: 0x0, symName: __RINvNtCsaNl6UpbT7bw_4core3ptr13drop_in_placeINtNtB4_6result6ResultNtNtCsc29TF2YcYso_3syn4attr8MetaListNtNtB16_5error5ErrorEECsiSITA57RZ13_15zerofrom_derive, symObjAddr: 0x4560, symBinAddr: 0x5E7D0, symSize: 0x5C }
  - { offset: 0x935B6, size: 0x8, addend: 0x0, symName: __RINvNtCsaNl6UpbT7bw_4core3ptr13drop_in_placeINtNtCsc29TF2YcYso_3syn10punctuated10PunctuatedNtCshnvkK9b4wzu_11proc_macro25IdentNtNtBL_5token5CommaEECsiSITA57RZ13_15zerofrom_derive, symObjAddr: 0x45BC, symBinAddr: 0x5E82C, symSize: 0x60 }
  - { offset: 0x935E5, size: 0x8, addend: 0x0, symName: __RINvNtCsaNl6UpbT7bw_4core3ptr13drop_in_placeINtNtCsc29TF2YcYso_3syn10punctuated8IntoIterNtCshnvkK9b4wzu_11proc_macro25IdentEECsiSITA57RZ13_15zerofrom_derive, symObjAddr: 0x461C, symBinAddr: 0x5E88C, symSize: 0x24 }
  - { offset: 0x93614, size: 0x8, addend: 0x0, symName: __RINvNtCsaNl6UpbT7bw_4core3ptr13drop_in_placeINtNtCsg4dki62PTrg_9hashbrown3map7HashMapNtCshnvkK9b4wzu_11proc_macro25IdentINtNtB4_6option6OptionB1l_ENtNtNtCsht3nMU9UgFu_3std4hash6random11RandomStateEECsiSITA57RZ13_15zerofrom_derive, symObjAddr: 0x4640, symBinAddr: 0x5E8B0, symSize: 0x24 }
  - { offset: 0x93643, size: 0x8, addend: 0x0, symName: __RINvNtCsaNl6UpbT7bw_4core3ptr13drop_in_placeINtNtCsg4dki62PTrg_9hashbrown3map7HashMapNtCshnvkK9b4wzu_11proc_macro25IdentuNtNtNtCsht3nMU9UgFu_3std4hash6random11RandomStateEECsiSITA57RZ13_15zerofrom_derive, symObjAddr: 0x4664, symBinAddr: 0x5E8D4, symSize: 0x24 }
  - { offset: 0x93672, size: 0x8, addend: 0x0, symName: __RINvNtCsaNl6UpbT7bw_4core3ptr13drop_in_placeINtNtCsg4dki62PTrg_9hashbrown3raw8RawTableTNtCshnvkK9b4wzu_11proc_macro25IdentINtNtB4_6option6OptionB1n_EEEECsiSITA57RZ13_15zerofrom_derive, symObjAddr: 0x4688, symBinAddr: 0x5E8F8, symSize: 0x24 }
  - { offset: 0x936A1, size: 0x8, addend: 0x0, symName: __RINvNtCsaNl6UpbT7bw_4core3ptr13drop_in_placeINtNtCsg4dki62PTrg_9hashbrown3raw8RawTableTNtCshnvkK9b4wzu_11proc_macro25IdentuEEECsiSITA57RZ13_15zerofrom_derive, symObjAddr: 0x46AC, symBinAddr: 0x5E91C, symSize: 0x24 }
  - { offset: 0x936D0, size: 0x8, addend: 0x0, symName: __RINvNtCsaNl6UpbT7bw_4core3ptr13drop_in_placeINtNtCsg4dki62PTrg_9hashbrown3set7HashSetNtCshnvkK9b4wzu_11proc_macro25IdentNtNtNtCsht3nMU9UgFu_3std4hash6random11RandomStateEECsiSITA57RZ13_15zerofrom_derive, symObjAddr: 0x46D0, symBinAddr: 0x5E940, symSize: 0x24 }
  - { offset: 0x936FF, size: 0x8, addend: 0x0, symName: __RINvNtCsaNl6UpbT7bw_4core3ptr13drop_in_placeINtNtCsiTraAjBDcu4_5alloc3vec3VecNtCshnvkK9b4wzu_11proc_macro25IdentEECsiSITA57RZ13_15zerofrom_derive, symObjAddr: 0x46F4, symBinAddr: 0x5E964, symSize: 0x5C }
  - { offset: 0x9372E, size: 0x8, addend: 0x0, symName: __RINvNtCsaNl6UpbT7bw_4core3ptr13drop_in_placeINtNtCsiTraAjBDcu4_5alloc3vec3VecNtNtCsc29TF2YcYso_3syn8generics14WherePredicateEECsiSITA57RZ13_15zerofrom_derive, symObjAddr: 0x4750, symBinAddr: 0x5E9C0, symSize: 0x5C }
  - { offset: 0x9375D, size: 0x8, addend: 0x0, symName: __RINvNtCsaNl6UpbT7bw_4core3ptr13drop_in_placeINtNtCsiTraAjBDcu4_5alloc3vec3VecNtNtCsc29TF2YcYso_3syn8generics9TypeParamEECsiSITA57RZ13_15zerofrom_derive, symObjAddr: 0x47AC, symBinAddr: 0x5EA1C, symSize: 0x5C }
  - { offset: 0x9378C, size: 0x8, addend: 0x0, symName: __RINvNtCsaNl6UpbT7bw_4core3ptr13drop_in_placeINtNtCsiTraAjBDcu4_5alloc3vec3VecTNtCshnvkK9b4wzu_11proc_macro25IdentNtNtCsc29TF2YcYso_3syn5token5CommaEEECsiSITA57RZ13_15zerofrom_derive, symObjAddr: 0x4808, symBinAddr: 0x5EA78, symSize: 0x5C }
  - { offset: 0x937BB, size: 0x8, addend: 0x0, symName: __RINvNtCsaNl6UpbT7bw_4core3ptr13drop_in_placeINtNtCsiTraAjBDcu4_5alloc5boxed3BoxDNtNtB4_5error5ErrorNtNtB4_6marker4SyncNtB1B_4SendEL_EECsiSITA57RZ13_15zerofrom_derive, symObjAddr: 0x4864, symBinAddr: 0x5EAD4, symSize: 0x80 }
  - { offset: 0x937EA, size: 0x8, addend: 0x0, symName: __RINvNtCsaNl6UpbT7bw_4core3ptr13drop_in_placeINtNtCsiTraAjBDcu4_5alloc5boxed3BoxNtCshnvkK9b4wzu_11proc_macro25IdentEECsiSITA57RZ13_15zerofrom_derive, symObjAddr: 0x48E4, symBinAddr: 0x5EB54, symSize: 0x60 }
  - { offset: 0x93819, size: 0x8, addend: 0x0, symName: __RINvNtCsaNl6UpbT7bw_4core3ptr13drop_in_placeINtNtCsiTraAjBDcu4_5alloc5boxed3BoxNtNtNtCsht3nMU9UgFu_3std2io5error6CustomEECsiSITA57RZ13_15zerofrom_derive, symObjAddr: 0x4944, symBinAddr: 0x5EBB4, symSize: 0x60 }
  - { offset: 0x93848, size: 0x8, addend: 0x0, symName: __RINvNtCsaNl6UpbT7bw_4core3ptr13drop_in_placeINtNtCsiTraAjBDcu4_5alloc7raw_vec6RawVecNtCshnvkK9b4wzu_11proc_macro25IdentEECsiSITA57RZ13_15zerofrom_derive, symObjAddr: 0x49A4, symBinAddr: 0x5EC14, symSize: 0x24 }
  - { offset: 0x93877, size: 0x8, addend: 0x0, symName: __RINvNtCsaNl6UpbT7bw_4core3ptr13drop_in_placeINtNtCsiTraAjBDcu4_5alloc7raw_vec6RawVecNtNtCsc29TF2YcYso_3syn8generics14WherePredicateEECsiSITA57RZ13_15zerofrom_derive, symObjAddr: 0x49C8, symBinAddr: 0x5EC38, symSize: 0x24 }
  - { offset: 0x938A6, size: 0x8, addend: 0x0, symName: __RINvNtCsaNl6UpbT7bw_4core3ptr13drop_in_placeINtNtCsiTraAjBDcu4_5alloc7raw_vec6RawVecNtNtCsc29TF2YcYso_3syn8generics9TypeParamEECsiSITA57RZ13_15zerofrom_derive, symObjAddr: 0x49EC, symBinAddr: 0x5EC5C, symSize: 0x24 }
  - { offset: 0x938D5, size: 0x8, addend: 0x0, symName: __RINvNtCsaNl6UpbT7bw_4core3ptr13drop_in_placeINtNtCsiTraAjBDcu4_5alloc7raw_vec6RawVecTNtCshnvkK9b4wzu_11proc_macro25IdentNtNtCsc29TF2YcYso_3syn5token5CommaEEECsiSITA57RZ13_15zerofrom_derive, symObjAddr: 0x4A10, symBinAddr: 0x5EC80, symSize: 0x24 }
  - { offset: 0x93904, size: 0x8, addend: 0x0, symName: __RINvNtCsaNl6UpbT7bw_4core3ptr13drop_in_placeINtNtNtCsht3nMU9UgFu_3std2io5error9ErrorDataINtNtCsiTraAjBDcu4_5alloc5boxed3BoxNtBJ_6CustomEEECsiSITA57RZ13_15zerofrom_derive, symObjAddr: 0x4A34, symBinAddr: 0x5ECA4, symSize: 0x48 }
  - { offset: 0x93933, size: 0x8, addend: 0x0, symName: __RINvNtCsaNl6UpbT7bw_4core3ptr13drop_in_placeINtNtNtCsiTraAjBDcu4_5alloc3vec13in_place_drop11InPlaceDropNtNtCsc29TF2YcYso_3syn4attr9AttributeEECsiSITA57RZ13_15zerofrom_derive, symObjAddr: 0x4A7C, symBinAddr: 0x5ECEC, symSize: 0x24 }
  - { offset: 0x93962, size: 0x8, addend: 0x0, symName: __RINvNtCsaNl6UpbT7bw_4core3ptr13drop_in_placeINtNtNtCsiTraAjBDcu4_5alloc3vec13in_place_drop11InPlaceDropNtNtCsc29TF2YcYso_3syn4expr3ArmEECsiSITA57RZ13_15zerofrom_derive, symObjAddr: 0x4AA0, symBinAddr: 0x5ED10, symSize: 0x24 }
  - { offset: 0x93991, size: 0x8, addend: 0x0, symName: __RINvNtCsaNl6UpbT7bw_4core3ptr13drop_in_placeINtNtNtCsiTraAjBDcu4_5alloc3vec13in_place_drop11InPlaceDropNtNtCsc29TF2YcYso_3syn4item11ForeignItemEECsiSITA57RZ13_15zerofrom_derive, symObjAddr: 0x4AC4, symBinAddr: 0x5ED34, symSize: 0x24 }
  - { offset: 0x939C0, size: 0x8, addend: 0x0, symName: __RINvNtCsaNl6UpbT7bw_4core3ptr13drop_in_placeINtNtNtCsiTraAjBDcu4_5alloc3vec13in_place_drop11InPlaceDropNtNtCsc29TF2YcYso_3syn4item4ItemEECsiSITA57RZ13_15zerofrom_derive, symObjAddr: 0x4AE8, symBinAddr: 0x5ED58, symSize: 0x24 }
  - { offset: 0x939EF, size: 0x8, addend: 0x0, symName: __RINvNtCsaNl6UpbT7bw_4core3ptr13drop_in_placeINtNtNtCsiTraAjBDcu4_5alloc3vec13in_place_drop11InPlaceDropNtNtCsc29TF2YcYso_3syn4item8ImplItemEECsiSITA57RZ13_15zerofrom_derive, symObjAddr: 0x4B0C, symBinAddr: 0x5ED7C, symSize: 0x24 }
  - { offset: 0x93A1E, size: 0x8, addend: 0x0, symName: __RINvNtCsaNl6UpbT7bw_4core3ptr13drop_in_placeINtNtNtCsiTraAjBDcu4_5alloc3vec13in_place_drop11InPlaceDropNtNtCsc29TF2YcYso_3syn4item9TraitItemEECsiSITA57RZ13_15zerofrom_derive, symObjAddr: 0x4B30, symBinAddr: 0x5EDA0, symSize: 0x24 }
  - { offset: 0x93A4D, size: 0x8, addend: 0x0, symName: __RINvNtCsaNl6UpbT7bw_4core3ptr13drop_in_placeINtNtNtCsiTraAjBDcu4_5alloc3vec13in_place_drop11InPlaceDropNtNtCsc29TF2YcYso_3syn4stmt4StmtEECsiSITA57RZ13_15zerofrom_derive, symObjAddr: 0x4B54, symBinAddr: 0x5EDC4, symSize: 0x24 }
  - { offset: 0x93A7C, size: 0x8, addend: 0x0, symName: __RINvNtCsaNl6UpbT7bw_4core3ptr13drop_in_placeINtNtNtCsiTraAjBDcu4_5alloc3vec13in_place_drop11InPlaceDropTNtNtCsc29TF2YcYso_3syn2ty4TypeNtNtB1I_5token5CommaEEECsiSITA57RZ13_15zerofrom_derive, symObjAddr: 0x4B78, symBinAddr: 0x5EDE8, symSize: 0x24 }
  - { offset: 0x93AAB, size: 0x8, addend: 0x0, symName: __RINvNtCsaNl6UpbT7bw_4core3ptr13drop_in_placeINtNtNtCsiTraAjBDcu4_5alloc3vec13in_place_drop11InPlaceDropTNtNtCsc29TF2YcYso_3syn2ty9BareFnArgNtNtB1I_5token5CommaEEECsiSITA57RZ13_15zerofrom_derive, symObjAddr: 0x4B9C, symBinAddr: 0x5EE0C, symSize: 0x24 }
  - { offset: 0x93ADA, size: 0x8, addend: 0x0, symName: __RINvNtCsaNl6UpbT7bw_4core3ptr13drop_in_placeINtNtNtCsiTraAjBDcu4_5alloc3vec13in_place_drop11InPlaceDropTNtNtCsc29TF2YcYso_3syn3pat3PatNtNtB1I_5token2OrEEECsiSITA57RZ13_15zerofrom_derive, symObjAddr: 0x4BC0, symBinAddr: 0x5EE30, symSize: 0x24 }
  - { offset: 0x93B09, size: 0x8, addend: 0x0, symName: __RINvNtCsaNl6UpbT7bw_4core3ptr13drop_in_placeINtNtNtCsiTraAjBDcu4_5alloc3vec13in_place_drop11InPlaceDropTNtNtCsc29TF2YcYso_3syn3pat3PatNtNtB1I_5token5CommaEEECsiSITA57RZ13_15zerofrom_derive, symObjAddr: 0x4BE4, symBinAddr: 0x5EE54, symSize: 0x24 }
  - { offset: 0x93B38, size: 0x8, addend: 0x0, symName: __RINvNtCsaNl6UpbT7bw_4core3ptr13drop_in_placeINtNtNtCsiTraAjBDcu4_5alloc3vec13in_place_drop11InPlaceDropTNtNtCsc29TF2YcYso_3syn3pat8FieldPatNtNtB1I_5token5CommaEEECsiSITA57RZ13_15zerofrom_derive, symObjAddr: 0x4C08, symBinAddr: 0x5EE78, symSize: 0x24 }
  - { offset: 0x93B67, size: 0x8, addend: 0x0, symName: __RINvNtCsaNl6UpbT7bw_4core3ptr13drop_in_placeINtNtNtCsiTraAjBDcu4_5alloc3vec13in_place_drop11InPlaceDropTNtNtCsc29TF2YcYso_3syn4data5FieldNtNtB1I_5token5CommaEEECsiSITA57RZ13_15zerofrom_derive, symObjAddr: 0x4C2C, symBinAddr: 0x5EE9C, symSize: 0x24 }
  - { offset: 0x93B96, size: 0x8, addend: 0x0, symName: __RINvNtCsaNl6UpbT7bw_4core3ptr13drop_in_placeINtNtNtCsiTraAjBDcu4_5alloc3vec13in_place_drop11InPlaceDropTNtNtCsc29TF2YcYso_3syn4data7VariantNtNtB1I_5token5CommaEEECsiSITA57RZ13_15zerofrom_derive, symObjAddr: 0x4C50, symBinAddr: 0x5EEC0, symSize: 0x24 }
  - { offset: 0x93BC5, size: 0x8, addend: 0x0, symName: __RINvNtCsaNl6UpbT7bw_4core3ptr13drop_in_placeINtNtNtCsiTraAjBDcu4_5alloc3vec13in_place_drop11InPlaceDropTNtNtCsc29TF2YcYso_3syn4expr10FieldValueNtNtB1I_5token5CommaEEECsiSITA57RZ13_15zerofrom_derive, symObjAddr: 0x4C74, symBinAddr: 0x5EEE4, symSize: 0x24 }
  - { offset: 0x93BF4, size: 0x8, addend: 0x0, symName: __RINvNtCsaNl6UpbT7bw_4core3ptr13drop_in_placeINtNtNtCsiTraAjBDcu4_5alloc3vec13in_place_drop11InPlaceDropTNtNtCsc29TF2YcYso_3syn4expr4ExprNtNtB1I_5token5CommaEEECsiSITA57RZ13_15zerofrom_derive, symObjAddr: 0x4C98, symBinAddr: 0x5EF08, symSize: 0x24 }
  - { offset: 0x93C23, size: 0x8, addend: 0x0, symName: __RINvNtCsaNl6UpbT7bw_4core3ptr13drop_in_placeINtNtNtCsiTraAjBDcu4_5alloc3vec13in_place_drop11InPlaceDropTNtNtCsc29TF2YcYso_3syn4item5FnArgNtNtB1I_5token5CommaEEECsiSITA57RZ13_15zerofrom_derive, symObjAddr: 0x4CBC, symBinAddr: 0x5EF2C, symSize: 0x24 }
  - { offset: 0x93C52, size: 0x8, addend: 0x0, symName: __RINvNtCsaNl6UpbT7bw_4core3ptr13drop_in_placeINtNtNtCsiTraAjBDcu4_5alloc3vec13in_place_drop11InPlaceDropTNtNtCsc29TF2YcYso_3syn4item7UseTreeNtNtB1I_5token5CommaEEECsiSITA57RZ13_15zerofrom_derive, symObjAddr: 0x4CE0, symBinAddr: 0x5EF50, symSize: 0x24 }
  - { offset: 0x93C81, size: 0x8, addend: 0x0, symName: __RINvNtCsaNl6UpbT7bw_4core3ptr13drop_in_placeINtNtNtCsiTraAjBDcu4_5alloc3vec13in_place_drop11InPlaceDropTNtNtCsc29TF2YcYso_3syn4path11PathSegmentNtNtB1I_5token7PathSepEEECsiSITA57RZ13_15zerofrom_derive, symObjAddr: 0x4D04, symBinAddr: 0x5EF74, symSize: 0x24 }
  - { offset: 0x93CB0, size: 0x8, addend: 0x0, symName: __RINvNtCsaNl6UpbT7bw_4core3ptr13drop_in_placeINtNtNtCsiTraAjBDcu4_5alloc3vec13in_place_drop11InPlaceDropTNtNtCsc29TF2YcYso_3syn4path15GenericArgumentNtNtB1I_5token5CommaEEECsiSITA57RZ13_15zerofrom_derive, symObjAddr: 0x4D28, symBinAddr: 0x5EF98, symSize: 0x24 }
