---
triple:          'arm64-apple-darwin'
binary-path:     '/Users/tyler/fall25/cse380/final_project/final_project_sqlite/target/debug/build/ahash-044391cd7a104fb5/build_script_build-044391cd7a104fb5'
relocations:
  - { offset: 0x1E, size: 0x8, addend: 0x0, symName: __RINvMs_NtNtCsaNl6UpbT7bw_4core3fmt2rtNtB7_9Arguments9new_constKj1_ECsecRd5BBo4ao_18build_script_build, symObjAddr: 0x0, symBinAddr: 0x100000BF0, symSize: 0x48 }
  - { offset: 0x68, size: 0x8, addend: 0x0, symName: __RNCINvNtCsht3nMU9UgFu_3std2rt10lang_startuE0CsecRd5BBo4ao_18build_script_build, symObjAddr: 0xCC, symBinAddr: 0x100000CBC, symSize: 0x34 }
  - { offset: 0xD2, size: 0x8, addend: 0x0, symName: __RINvNtCsht3nMU9UgFu_3std2rt10lang_startuECsecRd5BBo4ao_18build_script_build, symObjAddr: 0x48, symBinAddr: 0x100000C38, symSize: 0x60 }
  - { offset: 0x191, size: 0x8, addend: 0x0, symName: __RNvXsk_NtCsht3nMU9UgFu_3std3envNtB5_8VarErrorNtNtCsaNl6UpbT7bw_4core3fmt5Debug3fmtCsecRd5BBo4ao_18build_script_build, symObjAddr: 0x67C, symBinAddr: 0x10000126C, symSize: 0xA0 }
  - { offset: 0x23A, size: 0x8, addend: 0x0, symName: __RINvNtNtCsht3nMU9UgFu_3std3sys9backtrace28___rust_begin_short_backtraceFEuuECsecRd5BBo4ao_18build_script_build, symObjAddr: 0xA8, symBinAddr: 0x100000C98, symSize: 0x24 }
  - { offset: 0x322, size: 0x8, addend: 0x0, symName: __RNvXsZ_NtCsht3nMU9UgFu_3std7processuNtB5_11Termination6reportCsecRd5BBo4ao_18build_script_build, symObjAddr: 0x66C, symBinAddr: 0x10000125C, symSize: 0x10 }
  - { offset: 0x51C, size: 0x8, addend: 0x0, symName: __RNvXss_NtCsiTraAjBDcu4_5alloc6stringNtB5_6StringNtNtNtCsaNl6UpbT7bw_4core3ops5deref5Deref5derefCsecRd5BBo4ao_18build_script_build, symObjAddr: 0x71C, symBinAddr: 0x10000130C, symSize: 0x24 }
  - { offset: 0x949, size: 0x8, addend: 0x0, symName: __RNvXs19_NtCsaNl6UpbT7bw_4core3fmtRNtNtNtCsht3nMU9UgFu_3std3ffi6os_str8OsStringNtB6_5Debug3fmtCsecRd5BBo4ao_18build_script_build, symObjAddr: 0x63C, symBinAddr: 0x10000122C, symSize: 0x30 }
  - { offset: 0xB69, size: 0x8, addend: 0x0, symName: __RNSNvYNCINvNtCsht3nMU9UgFu_3std2rt10lang_startuE0INtNtNtCsaNl6UpbT7bw_4core3ops8function6FnOnceuE9call_once6vtableCsecRd5BBo4ao_18build_script_build, symObjAddr: 0x100, symBinAddr: 0x100000CF0, symSize: 0x28 }
  - { offset: 0xBAD, size: 0x8, addend: 0x0, symName: __RNvYFEuINtNtNtCsaNl6UpbT7bw_4core3ops8function6FnOnceuE9call_onceCsecRd5BBo4ao_18build_script_build, symObjAddr: 0x740, symBinAddr: 0x100001330, symSize: 0x20 }
  - { offset: 0xBED, size: 0x8, addend: 0x0, symName: __RNvYNCINvNtCsht3nMU9UgFu_3std2rt10lang_startuE0INtNtNtCsaNl6UpbT7bw_4core3ops8function6FnOnceuE9call_onceCsecRd5BBo4ao_18build_script_build, symObjAddr: 0x760, symBinAddr: 0x100001350, symSize: 0x4C }
  - { offset: 0xC3E, size: 0x8, addend: 0x0, symName: __RNvMNtCsaNl6UpbT7bw_4core3stre20eq_ignore_ascii_caseCsecRd5BBo4ao_18build_script_build, symObjAddr: 0x128, symBinAddr: 0x100000D18, symSize: 0x34 }
  - { offset: 0xCF5, size: 0x8, addend: 0x0, symName: __RNvNvNtNtCsaNl6UpbT7bw_4core5slice3raw14from_raw_parts18precondition_checkCsecRd5BBo4ao_18build_script_build, symObjAddr: 0x460, symBinAddr: 0x100001050, symSize: 0x1DC }
  - { offset: 0xE7F, size: 0x8, addend: 0x0, symName: __RNvMNtNtCsaNl6UpbT7bw_4core5slice5asciiSh20eq_ignore_ascii_caseCsecRd5BBo4ao_18build_script_build, symObjAddr: 0x28C, symBinAddr: 0x100000E7C, symSize: 0x1D4 }
  - { offset: 0x11CC, size: 0x8, addend: 0x0, symName: __RINvMs_NtNtCsaNl6UpbT7bw_4core3fmt2rtNtB7_9Arguments9new_constKj1_ECsecRd5BBo4ao_18build_script_build, symObjAddr: 0x0, symBinAddr: 0x100000BF0, symSize: 0x48 }
  - { offset: 0x1246, size: 0x8, addend: 0x0, symName: __RNvMNtCsaNl6UpbT7bw_4core6resultINtB2_6ResultNtNtCsiTraAjBDcu4_5alloc6string6StringNtNtCsht3nMU9UgFu_3std3env8VarErrorE6expectCsecRd5BBo4ao_18build_script_build, symObjAddr: 0x15C, symBinAddr: 0x100000D4C, symSize: 0xB8 }
  - { offset: 0x139D, size: 0x8, addend: 0x0, symName: __RNvMNtCsiTraAjBDcu4_5alloc6stringNtB2_6String6as_strCsecRd5BBo4ao_18build_script_build, symObjAddr: 0x214, symBinAddr: 0x100000E04, symSize: 0x78 }
  - { offset: 0x14DD, size: 0x8, addend: 0x0, symName: __RNvCsecRd5BBo4ao_18build_script_build4main, symObjAddr: 0x7AC, symBinAddr: 0x10000139C, symSize: 0x3B8 }
  - { offset: 0x1574, size: 0x8, addend: 0x0, symName: __RINvMsx_NtNtCsaNl6UpbT7bw_4core3str7patternNtB6_14TwoWaySearcher4nextNtB6_14RejectAndMatchECsjVzkUM9rR2L_13version_check, symObjAddr: 0x0, symBinAddr: 0x100001798, symSize: 0x540 }
  - { offset: 0x2D86, size: 0x8, addend: 0x0, symName: __RNvXs0_NtNtCsaNl6UpbT7bw_4core3str7patternNtB5_12CharSearcherNtB5_15ReverseSearcher15next_match_backCsjVzkUM9rR2L_13version_check, symObjAddr: 0xFCC, symBinAddr: 0x100002764, symSize: 0x388 }
  - { offset: 0x3287, size: 0x8, addend: 0x0, symName: __RNvXst_NtNtCsaNl6UpbT7bw_4core3str7patternReNtB5_7Pattern12is_prefix_ofCsjVzkUM9rR2L_13version_check, symObjAddr: 0x1DAC, symBinAddr: 0x100003544, symSize: 0x4C }
  - { offset: 0x32C4, size: 0x8, addend: 0x0, symName: __RNvXst_NtNtCsaNl6UpbT7bw_4core3str7patternReNtB5_7Pattern12is_suffix_ofCsjVzkUM9rR2L_13version_check, symObjAddr: 0x1DF8, symBinAddr: 0x100003590, symSize: 0x4C }
  - { offset: 0x3301, size: 0x8, addend: 0x0, symName: __RNvXst_NtNtCsaNl6UpbT7bw_4core3str7patternReNtB5_7Pattern13into_searcherCsjVzkUM9rR2L_13version_check, symObjAddr: 0x1E44, symBinAddr: 0x1000035DC, symSize: 0x4C }
  - { offset: 0x3368, size: 0x8, addend: 0x0, symName: __RNvXst_NtNtCsaNl6UpbT7bw_4core3str7patternReNtB5_7Pattern15is_contained_inCsjVzkUM9rR2L_13version_check, symObjAddr: 0x1E90, symBinAddr: 0x100003628, symSize: 0x1CC }
  - { offset: 0x3618, size: 0x8, addend: 0x0, symName: __RNvXst_NtNtCsaNl6UpbT7bw_4core3str7patternReNtB5_7Pattern15strip_suffix_ofCsjVzkUM9rR2L_13version_check, symObjAddr: 0x205C, symBinAddr: 0x1000037F4, symSize: 0xE8 }
  - { offset: 0x3757, size: 0x8, addend: 0x0, symName: __RNvXs2_NtNtCsaNl6UpbT7bw_4core3str7patterncNtB5_7Pattern12is_suffix_ofCsjVzkUM9rR2L_13version_check, symObjAddr: 0x1354, symBinAddr: 0x100002AEC, symSize: 0x78 }
  - { offset: 0x37FE, size: 0x8, addend: 0x0, symName: __RNvXs2_NtNtCsaNl6UpbT7bw_4core3str7patterncNtB5_7Pattern13into_searcherCsjVzkUM9rR2L_13version_check, symObjAddr: 0x13CC, symBinAddr: 0x100002B64, symSize: 0x114 }
  - { offset: 0x391C, size: 0x8, addend: 0x0, symName: __RNvXs7_NtNtCsaNl6UpbT7bw_4core3str7patternINtB5_18MultiCharEqPatternNvMNtNtB9_4char7methodsc13is_whitespaceENtB5_7Pattern13into_searcherCsjVzkUM9rR2L_13version_check, symObjAddr: 0x14E0, symBinAddr: 0x100002C78, symSize: 0x90 }
  - { offset: 0x397E, size: 0x8, addend: 0x0, symName: __RNvXs8_NtNtCsaNl6UpbT7bw_4core3str7patternINtB5_19MultiCharEqSearcherNvMNtNtB9_4char7methodsc13is_whitespaceENtB5_8Searcher4nextCsjVzkUM9rR2L_13version_check, symObjAddr: 0x1570, symBinAddr: 0x100002D08, symSize: 0x138 }
  - { offset: 0x3AA4, size: 0x8, addend: 0x0, symName: __RNvXs9_NtNtCsaNl6UpbT7bw_4core3str7patternINtB5_19MultiCharEqSearcherNvMNtNtB9_4char7methodsc13is_whitespaceENtB5_15ReverseSearcher9next_backCsjVzkUM9rR2L_13version_check, symObjAddr: 0x16A8, symBinAddr: 0x100002E40, symSize: 0x138 }
  - { offset: 0x3BCA, size: 0x8, addend: 0x0, symName: __RNvXs_NtNtCsaNl6UpbT7bw_4core3str7patternNtB4_12CharSearcherNtB4_8Searcher10next_matchCsjVzkUM9rR2L_13version_check, symObjAddr: 0x17E0, symBinAddr: 0x100002F78, symSize: 0x380 }
  - { offset: 0x402E, size: 0x8, addend: 0x0, symName: __RNvXs_NtNtCsaNl6UpbT7bw_4core3str7patternNtB4_12CharSearcherNtB4_8Searcher4nextCsjVzkUM9rR2L_13version_check, symObjAddr: 0x1B60, symBinAddr: 0x1000032F8, symSize: 0x1E4 }
  - { offset: 0x42EA, size: 0x8, addend: 0x0, symName: __RNvXs_NtNtCsaNl6UpbT7bw_4core3str7patternNtB4_12CharSearcherNtB4_8Searcher8haystackCsjVzkUM9rR2L_13version_check, symObjAddr: 0x1D44, symBinAddr: 0x1000034DC, symSize: 0x20 }
  - { offset: 0x431E, size: 0x8, addend: 0x0, symName: __RNvXso_NtNtCsaNl6UpbT7bw_4core3str7patternINtB5_21CharPredicateSearcherNvMNtNtB9_4char7methodsc13is_whitespaceENtB5_8Searcher11next_rejectCsjVzkUM9rR2L_13version_check, symObjAddr: 0x1D64, symBinAddr: 0x1000034FC, symSize: 0x24 }
  - { offset: 0x435B, size: 0x8, addend: 0x0, symName: __RNvXsp_NtNtCsaNl6UpbT7bw_4core3str7patternINtB5_21CharPredicateSearcherNvMNtNtB9_4char7methodsc13is_whitespaceENtB5_15ReverseSearcher16next_reject_backCsjVzkUM9rR2L_13version_check, symObjAddr: 0x1D88, symBinAddr: 0x100003520, symSize: 0x24 }
  - { offset: 0x4466, size: 0x8, addend: 0x0, symName: __RNvXsv_NtNtCsaNl6UpbT7bw_4core3str7patternNtB5_11StrSearcherNtB5_8Searcher10next_matchCsjVzkUM9rR2L_13version_check, symObjAddr: 0x2144, symBinAddr: 0x1000038DC, symSize: 0x148 }
  - { offset: 0x44F2, size: 0x8, addend: 0x0, symName: __RNvXsv_NtNtCsaNl6UpbT7bw_4core3str7patternNtB5_11StrSearcherNtB5_8Searcher4nextCsjVzkUM9rR2L_13version_check, symObjAddr: 0x228C, symBinAddr: 0x100003A24, symSize: 0x454 }
  - { offset: 0x47F7, size: 0x8, addend: 0x0, symName: __RNvXsv_NtNtCsaNl6UpbT7bw_4core3str7patternNtB5_11StrSearcherNtB5_8Searcher8haystackCsjVzkUM9rR2L_13version_check, symObjAddr: 0x26E0, symBinAddr: 0x100003E78, symSize: 0x20 }
  - { offset: 0x482B, size: 0x8, addend: 0x0, symName: __RNvXsw_NtNtCsaNl6UpbT7bw_4core3str7patternNtB5_11StrSearcherNtB5_15ReverseSearcher9next_backCsjVzkUM9rR2L_13version_check, symObjAddr: 0x2700, symBinAddr: 0x100003E98, symSize: 0x43C }
  - { offset: 0x4B16, size: 0x8, addend: 0x0, symName: __RNvXsy_NtNtCsaNl6UpbT7bw_4core3str7patternNtB5_9MatchOnlyNtB5_14TwoWayStrategy16use_early_rejectCsjVzkUM9rR2L_13version_check, symObjAddr: 0x2B3C, symBinAddr: 0x1000042D4, symSize: 0xC }
  - { offset: 0x4B34, size: 0x8, addend: 0x0, symName: __RNvXsy_NtNtCsaNl6UpbT7bw_4core3str7patternNtB5_9MatchOnlyNtB5_14TwoWayStrategy8matchingCsjVzkUM9rR2L_13version_check, symObjAddr: 0x2B48, symBinAddr: 0x1000042E0, symSize: 0x28 }
  - { offset: 0x4B71, size: 0x8, addend: 0x0, symName: __RNvXsy_NtNtCsaNl6UpbT7bw_4core3str7patternNtB5_9MatchOnlyNtB5_14TwoWayStrategy9rejectingCsjVzkUM9rR2L_13version_check, symObjAddr: 0x2B70, symBinAddr: 0x100004308, symSize: 0x18 }
  - { offset: 0x4BB4, size: 0x8, addend: 0x0, symName: __RNvXsz_NtNtCsaNl6UpbT7bw_4core3str7patternNtB5_14RejectAndMatchNtB5_14TwoWayStrategy16use_early_rejectCsjVzkUM9rR2L_13version_check, symObjAddr: 0x2B88, symBinAddr: 0x100004320, symSize: 0xC }
  - { offset: 0x4BD2, size: 0x8, addend: 0x0, symName: __RNvXsz_NtNtCsaNl6UpbT7bw_4core3str7patternNtB5_14RejectAndMatchNtB5_14TwoWayStrategy8matchingCsjVzkUM9rR2L_13version_check, symObjAddr: 0x2B94, symBinAddr: 0x10000432C, symSize: 0x20 }
  - { offset: 0x4C0F, size: 0x8, addend: 0x0, symName: __RNvXsz_NtNtCsaNl6UpbT7bw_4core3str7patternNtB5_14RejectAndMatchNtB5_14TwoWayStrategy9rejectingCsjVzkUM9rR2L_13version_check, symObjAddr: 0x2BB4, symBinAddr: 0x10000434C, symSize: 0x28 }
  - { offset: 0x4C52, size: 0x8, addend: 0x0, symName: __RNvYINtNtNtCsaNl6UpbT7bw_4core3str7pattern19MultiCharEqSearcherNvMNtNtB9_4char7methodsc13is_whitespaceENtB5_15ReverseSearcher16next_reject_backCsjVzkUM9rR2L_13version_check, symObjAddr: 0x2BDC, symBinAddr: 0x100004374, symSize: 0x90 }
  - { offset: 0x4CB7, size: 0x8, addend: 0x0, symName: __RNvYNtNtNtCsaNl6UpbT7bw_4core3str7pattern11StrSearcherNtB4_15ReverseSearcher16next_reject_backCsjVzkUM9rR2L_13version_check, symObjAddr: 0x2CFC, symBinAddr: 0x100004494, symSize: 0x90 }
  - { offset: 0x4D22, size: 0x8, addend: 0x0, symName: __RNvYINtNtNtCsaNl6UpbT7bw_4core3str7pattern19MultiCharEqSearcherNvMNtNtB9_4char7methodsc13is_whitespaceENtB5_8Searcher11next_rejectCsjVzkUM9rR2L_13version_check, symObjAddr: 0x2C6C, symBinAddr: 0x100004404, symSize: 0x90 }
  - { offset: 0x4D87, size: 0x8, addend: 0x0, symName: __RNvYNtNtNtCsaNl6UpbT7bw_4core3str7pattern12CharSearcherNtB4_8Searcher11next_rejectCsjVzkUM9rR2L_13version_check, symObjAddr: 0x2D8C, symBinAddr: 0x100004524, symSize: 0x90 }
  - { offset: 0x58C6, size: 0x8, addend: 0x0, symName: __RINvMsx_NtNtCsaNl6UpbT7bw_4core3str7patternNtB6_14TwoWaySearcher4nextNtB6_14RejectAndMatchECsjVzkUM9rR2L_13version_check, symObjAddr: 0x0, symBinAddr: 0x100001798, symSize: 0x540 }
  - { offset: 0x5C62, size: 0x8, addend: 0x0, symName: __RINvMsx_NtNtCsaNl6UpbT7bw_4core3str7patternNtB6_14TwoWaySearcher4nextNtB6_9MatchOnlyECsjVzkUM9rR2L_13version_check, symObjAddr: 0x540, symBinAddr: 0x100001CD8, symSize: 0x540 }
  - { offset: 0x5FE0, size: 0x8, addend: 0x0, symName: __RINvMsx_NtNtCsaNl6UpbT7bw_4core3str7patternNtB6_14TwoWaySearcher9next_backNtB6_14RejectAndMatchECsjVzkUM9rR2L_13version_check, symObjAddr: 0xA80, symBinAddr: 0x100002218, symSize: 0x54C }
  - { offset: 0x669C, size: 0x8, addend: 0x0, symName: __RINvNtNtNtCsht3nMU9UgFu_3std2io5error14repr_bitpacked11decode_reprINtNtCsiTraAjBDcu4_5alloc5boxed3BoxNtB4_6CustomENCNvXs1_B2_NtB2_4ReprNtNtNtCsaNl6UpbT7bw_4core3ops4drop4Drop4drop0ECsjVzkUM9rR2L_13version_check, symObjAddr: 0x0, symBinAddr: 0x1000045B4, symSize: 0x1DC }
  - { offset: 0x68C4, size: 0x8, addend: 0x0, symName: __RNCNvXs1_NtNtNtCsht3nMU9UgFu_3std2io5error14repr_bitpackedNtB7_4ReprNtNtNtCsaNl6UpbT7bw_4core3ops4drop4Drop4drop0CsjVzkUM9rR2L_13version_check, symObjAddr: 0xEA8, symBinAddr: 0x10000527C, symSize: 0x3C }
  - { offset: 0x6979, size: 0x8, addend: 0x0, symName: __RNvXs1_NtNtNtCsht3nMU9UgFu_3std2io5error14repr_bitpackedNtB5_4ReprNtNtNtCsaNl6UpbT7bw_4core3ops4drop4Drop4dropCsjVzkUM9rR2L_13version_check, symObjAddr: 0x2C94, symBinAddr: 0x100006B1C, symSize: 0x38 }
  - { offset: 0x69A2, size: 0x8, addend: 0x0, symName: __RINvNtNtNtCsht3nMU9UgFu_3std2io5error14repr_bitpacked11decode_reprINtNtCsiTraAjBDcu4_5alloc5boxed3BoxNtB4_6CustomENCNvXs1_B2_NtB2_4ReprNtNtNtCsaNl6UpbT7bw_4core3ops4drop4Drop4drop0ECsjVzkUM9rR2L_13version_check, symObjAddr: 0x0, symBinAddr: 0x1000045B4, symSize: 0x1DC }
  - { offset: 0x6C0F, size: 0x8, addend: 0x0, symName: __RNCNvMs0_NtNtNtCsht3nMU9UgFu_3std2io5error14repr_bitpackedNtB7_4Repr4data0CsjVzkUM9rR2L_13version_check, symObjAddr: 0xE94, symBinAddr: 0x100005268, symSize: 0x14 }
  - { offset: 0x6C47, size: 0x8, addend: 0x0, symName: __RINvNtNtNtCsht3nMU9UgFu_3std2io5error14repr_bitpacked11decode_reprRNtB4_6CustomNCNvMs0_B2_NtB2_4Repr4data0ECsjVzkUM9rR2L_13version_check, symObjAddr: 0x1DC, symBinAddr: 0x100004790, symSize: 0x1DC }
  - { offset: 0x6EA3, size: 0x8, addend: 0x0, symName: __RNvNtNtNtCsht3nMU9UgFu_3std2io5error14repr_bitpacked14kind_from_primCsjVzkUM9rR2L_13version_check, symObjAddr: 0x1D1C, symBinAddr: 0x100005BA4, symSize: 0x758 }
  - { offset: 0x791B, size: 0x8, addend: 0x0, symName: __RNvNvMs3_NtCsaNl6UpbT7bw_4core3numi13unchecked_neg18precondition_checkCsjVzkUM9rR2L_13version_check, symObjAddr: 0x2474, symBinAddr: 0x1000062FC, symSize: 0xB8 }
  - { offset: 0x7A17, size: 0x8, addend: 0x0, symName: __RNvNvMs9_NtCsaNl6UpbT7bw_4core3numj13unchecked_add18precondition_checkCsjVzkUM9rR2L_13version_check, symObjAddr: 0x252C, symBinAddr: 0x1000063B4, symSize: 0xB0 }
  - { offset: 0x7AAB, size: 0x8, addend: 0x0, symName: __RNvNvMs9_NtCsaNl6UpbT7bw_4core3numj13unchecked_sub18precondition_checkCsjVzkUM9rR2L_13version_check, symObjAddr: 0x25DC, symBinAddr: 0x100006464, symSize: 0xAC }
  - { offset: 0x919C, size: 0x8, addend: 0x0, symName: __RINvYINtNtNtCsaNl6UpbT7bw_4core3str4iter5SplitReENtNtNtNtBa_4iter6traits8iterator8Iterator4findQNCNvCsjVzkUM9rR2L_13version_check35version_and_date_from_rustc_version0EB1A_, symObjAddr: 0x484, symBinAddr: 0x100004A38, symSize: 0x8C }
  - { offset: 0x9217, size: 0x8, addend: 0x0, symName: __RINvYINtNtNtCsaNl6UpbT7bw_4core3str4iter5SplitReENtNtNtNtBa_4iter6traits8iterator8Iterator6filterNCNvCsjVzkUM9rR2L_13version_check35version_and_date_from_rustc_version0EB1B_, symObjAddr: 0x510, symBinAddr: 0x100004AC4, symSize: 0x30 }
  - { offset: 0x927C, size: 0x8, addend: 0x0, symName: __RINvYINtNtNtCsaNl6UpbT7bw_4core3str4iter5SplitReENtNtNtNtBa_4iter6traits8iterator8Iterator8try_foldINtNtNtBa_3num7nonzero7NonZerojENCNvXs_NvBL_10advance_byB3_NtB2c_13SpecAdvanceBy15spec_advance_by0INtNtBa_6option6OptionB1z_EECsjVzkUM9rR2L_13version_check, symObjAddr: 0x540, symBinAddr: 0x100004AF4, symSize: 0x180 }
  - { offset: 0x9330, size: 0x8, addend: 0x0, symName: __RINvYINtNtNtCsaNl6UpbT7bw_4core3str4iter5SplitReENtNtNtNtBa_4iter6traits8iterator8Iterator8try_folduNCINvNvBL_4find5checkBI_QNCNvCsjVzkUM9rR2L_13version_check35version_and_date_from_rustc_version0E0INtNtNtBa_3ops12control_flow11ControlFlowBI_EEB23_, symObjAddr: 0x6C0, symBinAddr: 0x100004C74, symSize: 0x194 }
  - { offset: 0x93E6, size: 0x8, addend: 0x0, symName: __RINvYINtNtNtCsaNl6UpbT7bw_4core3str4iter5SplitcENtNtNtNtBa_4iter6traits8iterator8Iterator3anyNCNvCsjVzkUM9rR2L_13version_check16supports_features3_0EB1x_, symObjAddr: 0x854, symBinAddr: 0x100004E08, symSize: 0x44 }
  - { offset: 0x9435, size: 0x8, addend: 0x0, symName: __RINvYINtNtNtCsaNl6UpbT7bw_4core3str4iter5SplitcENtNtNtNtBa_4iter6traits8iterator8Iterator3mapReNCNvCsjVzkUM9rR2L_13version_check16supports_features0_0EB1z_, symObjAddr: 0x8F8, symBinAddr: 0x100004E4C, symSize: 0x30 }
  - { offset: 0x94A3, size: 0x8, addend: 0x0, symName: __RINvYINtNtNtCsaNl6UpbT7bw_4core3str4iter5SplitcENtNtNtNtBa_4iter6traits8iterator8Iterator4foldINtNtBa_6option6OptionReENCINvNtNtBQ_8adapters3map8map_foldB1Q_B1Q_B1u_NCNvCsjVzkUM9rR2L_13version_check16supports_features0_0NCINvNtB20_6filter11filter_foldB1Q_B1u_NCB2F_s1_0NCIB1W_B1Q_B1Q_B1u_NCB2F_s2_0INvNvBK_4last4someB1Q_EE0E0E0EB2H_, symObjAddr: 0x928, symBinAddr: 0x100004E7C, symSize: 0x12C }
  - { offset: 0x9539, size: 0x8, addend: 0x0, symName: __RINvYINtNtNtCsaNl6UpbT7bw_4core3str4iter5SplitcENtNtNtNtBa_4iter6traits8iterator8Iterator8try_folduNCINvNvBK_3any5checkReNCNvCsjVzkUM9rR2L_13version_check16supports_features3_0E0INtNtNtBa_3ops12control_flow11ControlFlowuEEB1Z_, symObjAddr: 0xBD4, symBinAddr: 0x100004FA8, symSize: 0x140 }
  - { offset: 0x95EB, size: 0x8, addend: 0x0, symName: __RINvYINtNtNtCsaNl6UpbT7bw_4core3str4iter6SplitNReENtNtNtNtBa_4iter6traits8iterator8Iterator8try_foldINtNtNtBa_3num7nonzero7NonZerojENCNvXs_NvBM_10advance_byB3_NtB2d_13SpecAdvanceBy15spec_advance_by0INtNtBa_6option6OptionB1A_EECsjVzkUM9rR2L_13version_check, symObjAddr: 0xD14, symBinAddr: 0x1000050E8, symSize: 0x180 }
  - { offset: 0x96A9, size: 0x8, addend: 0x0, symName: __RNvXs_NvNtNtNtNtCsaNl6UpbT7bw_4core4iter6traits8iterator8Iterator10advance_byINtNtNtBe_3str4iter5SplitReENtB4_13SpecAdvanceBy15spec_advance_byCsjVzkUM9rR2L_13version_check, symObjAddr: 0x2FFC, symBinAddr: 0x100006E84, symSize: 0x8C }
  - { offset: 0x9757, size: 0x8, addend: 0x0, symName: __RNvXs_NvNtNtNtNtCsaNl6UpbT7bw_4core4iter6traits8iterator8Iterator10advance_byINtNtNtBe_3str4iter6SplitNReENtB4_13SpecAdvanceBy15spec_advance_byCsjVzkUM9rR2L_13version_check, symObjAddr: 0x3114, symBinAddr: 0x100006F10, symSize: 0x8C }
  - { offset: 0x981B, size: 0x8, addend: 0x0, symName: __RNvYINtNtNtCsaNl6UpbT7bw_4core3str4iter5SplitReENtNtNtNtB9_4iter6traits8iterator8Iterator10advance_byCsjVzkUM9rR2L_13version_check, symObjAddr: 0x3280, symBinAddr: 0x10000703C, symSize: 0x28 }
  - { offset: 0x9861, size: 0x8, addend: 0x0, symName: __RNvYINtNtNtCsaNl6UpbT7bw_4core3str4iter5SplitReENtNtNtNtB9_4iter6traits8iterator8Iterator3nthCsjVzkUM9rR2L_13version_check, symObjAddr: 0x32A8, symBinAddr: 0x100007064, symSize: 0x84 }
  - { offset: 0x992D, size: 0x8, addend: 0x0, symName: __RNvYINtNtNtCsaNl6UpbT7bw_4core3str4iter6SplitNReENtNtNtNtB9_4iter6traits8iterator8Iterator10advance_byCsjVzkUM9rR2L_13version_check, symObjAddr: 0x33D8, symBinAddr: 0x1000070E8, symSize: 0x28 }
  - { offset: 0x9973, size: 0x8, addend: 0x0, symName: __RNvYINtNtNtCsaNl6UpbT7bw_4core3str4iter6SplitNReENtNtNtNtB9_4iter6traits8iterator8Iterator3nthCsjVzkUM9rR2L_13version_check, symObjAddr: 0x3400, symBinAddr: 0x100007110, symSize: 0x84 }
  - { offset: 0x9A89, size: 0x8, addend: 0x0, symName: __RNvXNtNtNtCsaNl6UpbT7bw_4core4iter6traits7collectNtNtNtB8_3str4iter5LinesNtB2_12IntoIterator9into_iterCsjVzkUM9rR2L_13version_check, symObjAddr: 0x2C64, symBinAddr: 0x100006AEC, symSize: 0x30 }
  - { offset: 0x9E18, size: 0x8, addend: 0x0, symName: __RNvXs1i_NtNtCsaNl6UpbT7bw_4core3str4iterINtB6_6SplitNReENtNtNtNtBa_4iter6traits8iterator8Iterator4nextCsjVzkUM9rR2L_13version_check, symObjAddr: 0x2CCC, symBinAddr: 0x100006B54, symSize: 0x24 }
  - { offset: 0x9EB5, size: 0x8, addend: 0x0, symName: __RNvXs3_NtNtCsaNl6UpbT7bw_4core3str4iterNtB5_11CharIndicesNtNtNtNtB9_4iter6traits8iterator8Iterator4nextCsjVzkUM9rR2L_13version_check, symObjAddr: 0x2CF0, symBinAddr: 0x100006B78, symSize: 0x130 }
  - { offset: 0xA0EE, size: 0x8, addend: 0x0, symName: __RNvXs4_NtNtCsaNl6UpbT7bw_4core3str4iterNtB5_11CharIndicesNtNtNtNtB9_4iter6traits12double_ended19DoubleEndedIterator9next_backCsjVzkUM9rR2L_13version_check, symObjAddr: 0x2E20, symBinAddr: 0x100006CA8, symSize: 0x14C }
  - { offset: 0xA241, size: 0x8, addend: 0x0, symName: __RNvXsH_NtNtCsaNl6UpbT7bw_4core3str4iterINtB5_14SplitInclusivecENtNtNtNtB9_4iter6traits8iterator8Iterator4nextCsjVzkUM9rR2L_13version_check, symObjAddr: 0x2F6C, symBinAddr: 0x100006DF4, symSize: 0x24 }
  - { offset: 0xA27E, size: 0x8, addend: 0x0, symName: __RNvXsK_NtNtCsaNl6UpbT7bw_4core3str4iterINtB5_14SplitInclusivecENtNtNtNtB9_4iter6traits12double_ended19DoubleEndedIterator9next_backCsjVzkUM9rR2L_13version_check, symObjAddr: 0x2F90, symBinAddr: 0x100006E18, symSize: 0x24 }
  - { offset: 0xA2BB, size: 0x8, addend: 0x0, symName: __RNvXsX_NtNtCsaNl6UpbT7bw_4core3str4iterINtB5_5SplitReENtNtNtNtB9_4iter6traits8iterator8Iterator4nextCsjVzkUM9rR2L_13version_check, symObjAddr: 0x2FB4, symBinAddr: 0x100006E3C, symSize: 0x24 }
  - { offset: 0xA2F2, size: 0x8, addend: 0x0, symName: __RNvXsX_NtNtCsaNl6UpbT7bw_4core3str4iterINtB5_5SplitcENtNtNtNtB9_4iter6traits8iterator8Iterator4nextCsjVzkUM9rR2L_13version_check, symObjAddr: 0x2FD8, symBinAddr: 0x100006E60, symSize: 0x24 }
  - { offset: 0xA386, size: 0x8, addend: 0x0, symName: __RNvXss_NtNtCsaNl6UpbT7bw_4core3str4iterNtB5_5LinesNtNtNtNtB9_4iter6traits8iterator8Iterator4lastCsjVzkUM9rR2L_13version_check, symObjAddr: 0x31FC, symBinAddr: 0x100006FF8, symSize: 0x20 }
  - { offset: 0xA3D3, size: 0x8, addend: 0x0, symName: __RNvXss_NtNtCsaNl6UpbT7bw_4core3str4iterNtB5_5LinesNtNtNtNtB9_4iter6traits8iterator8Iterator4nextCsjVzkUM9rR2L_13version_check, symObjAddr: 0x321C, symBinAddr: 0x100007018, symSize: 0x24 }
  - { offset: 0xAA54, size: 0x8, addend: 0x0, symName: __RNvNvNtNtCsaNl6UpbT7bw_4core5slice3raw14from_raw_parts18precondition_checkCsjVzkUM9rR2L_13version_check, symObjAddr: 0x2688, symBinAddr: 0x100006510, symSize: 0x1DC }
  - { offset: 0xABD8, size: 0x8, addend: 0x0, symName: __RNvNvNtNtCsaNl6UpbT7bw_4core5slice3raw18from_raw_parts_mut18precondition_checkCsjVzkUM9rR2L_13version_check, symObjAddr: 0x2864, symBinAddr: 0x1000066EC, symSize: 0x1DC }
  - { offset: 0xAD67, size: 0x8, addend: 0x0, symName: __RNvNvXs0_NtNtCsaNl6UpbT7bw_4core5slice5indexjINtB7_10SliceIndexSpE13get_unchecked18precondition_checkCsjVzkUM9rR2L_13version_check, symObjAddr: 0x2A40, symBinAddr: 0x1000068C8, symSize: 0xAC }
  - { offset: 0xADD5, size: 0x8, addend: 0x0, symName: __RNvNvXs0_NtNtCsaNl6UpbT7bw_4core5slice5indexjINtB7_10SliceIndexSpE17get_unchecked_mut18precondition_checkCsjVzkUM9rR2L_13version_check, symObjAddr: 0x2AEC, symBinAddr: 0x100006974, symSize: 0xAC }
  - { offset: 0xAE49, size: 0x8, addend: 0x0, symName: __RNvNvXs2_NtNtCsaNl6UpbT7bw_4core5slice5indexINtNtNtBb_3ops5range5RangejEINtB7_10SliceIndexSpE13get_unchecked18precondition_checkCsjVzkUM9rR2L_13version_check, symObjAddr: 0x2B98, symBinAddr: 0x100006A20, symSize: 0xCC }
  - { offset: 0xB501, size: 0x8, addend: 0x0, symName: __RINvNtNtNtCsiTraAjBDcu4_5alloc11collections5btree3mem7replaceINtNtB4_4node6HandleINtB10_7NodeRefNtNtB10_6marker5DyingNtNtNtCsht3nMU9UgFu_3std3ffi6os_str8OsStringINtNtCsaNl6UpbT7bw_4core6option6OptionB1R_ENtB1y_4LeafENtB1y_4EdgeEIBY_IB1i_B1w_B1R_B2z_NtB1y_14LeafOrInternalENtB1y_2KVENCINvMsm_NtB4_8navigateBX_27deallocating_next_uncheckedNtNtB8_5alloc6GlobalE0ECsjVzkUM9rR2L_13version_check, symObjAddr: 0x3B8, symBinAddr: 0x10000496C, symSize: 0xCC }
  - { offset: 0xB6BF, size: 0x8, addend: 0x0, symName: __RNvXsn_NtCsiTraAjBDcu4_5alloc3vecINtB5_3VecINtNtB7_5boxed3BoxDINtNtNtCsaNl6UpbT7bw_4core3ops8function5FnMutuEp6OutputINtNtB15_6result6ResultuNtNtNtCsht3nMU9UgFu_3std2io5error5ErrorENtNtB15_6marker4SyncNtB2V_4SendEL_EENtNtB13_4drop4Drop4dropCsjVzkUM9rR2L_13version_check, symObjAddr: 0x31A0, symBinAddr: 0x100006F9C, symSize: 0x38 }
  - { offset: 0xB76F, size: 0x8, addend: 0x0, symName: __RNvXsn_NtCsiTraAjBDcu4_5alloc3vecINtB5_3VecPaENtNtNtCsaNl6UpbT7bw_4core3ops4drop4Drop4dropCsjVzkUM9rR2L_13version_check, symObjAddr: 0x31D8, symBinAddr: 0x100006FD4, symSize: 0x24 }
  - { offset: 0xBC8B, size: 0x8, addend: 0x0, symName: __RNvMsf_NtNtCsaNl6UpbT7bw_4core3str4iterINtB5_13SplitInternalReE4nextCsjVzkUM9rR2L_13version_check, symObjAddr: 0xEE4, symBinAddr: 0x1000052B8, symSize: 0x13C }
  - { offset: 0xBDC7, size: 0x8, addend: 0x0, symName: __RNvMsf_NtNtCsaNl6UpbT7bw_4core3str4iterINtB5_13SplitInternalReE7get_endCsjVzkUM9rR2L_13version_check, symObjAddr: 0x1020, symBinAddr: 0x1000053F4, symSize: 0x124 }
  - { offset: 0xBED2, size: 0x8, addend: 0x0, symName: __RNvMsf_NtNtCsaNl6UpbT7bw_4core3str4iterINtB5_13SplitInternalcE14next_inclusiveCsjVzkUM9rR2L_13version_check, symObjAddr: 0x1144, symBinAddr: 0x100005518, symSize: 0x130 }
  - { offset: 0xBFFD, size: 0x8, addend: 0x0, symName: __RNvMsf_NtNtCsaNl6UpbT7bw_4core3str4iterINtB5_13SplitInternalcE19next_back_inclusiveCsjVzkUM9rR2L_13version_check, symObjAddr: 0x1274, symBinAddr: 0x100005648, symSize: 0x250 }
  - { offset: 0xC231, size: 0x8, addend: 0x0, symName: __RNvMsf_NtNtCsaNl6UpbT7bw_4core3str4iterINtB5_13SplitInternalcE4nextCsjVzkUM9rR2L_13version_check, symObjAddr: 0x14C4, symBinAddr: 0x100005898, symSize: 0x140 }
  - { offset: 0xC36D, size: 0x8, addend: 0x0, symName: __RNvMsf_NtNtCsaNl6UpbT7bw_4core3str4iterINtB5_13SplitInternalcE7get_endCsjVzkUM9rR2L_13version_check, symObjAddr: 0x1604, symBinAddr: 0x1000059D8, symSize: 0x128 }
  - { offset: 0xC478, size: 0x8, addend: 0x0, symName: __RNvMsl_NtNtCsaNl6UpbT7bw_4core3str4iterINtB5_14SplitNInternalReE4nextCsjVzkUM9rR2L_13version_check, symObjAddr: 0x172C, symBinAddr: 0x100005B00, symSize: 0xA4 }
  - { offset: 0xCA9A, size: 0x8, addend: 0x0, symName: __RINvMNtCsaNl6UpbT7bw_4core6optionINtB3_6OptionNtNtCsht3nMU9UgFu_3std7process6OutputE8and_thenNtNtCsiTraAjBDcu4_5alloc6string6StringNCNvCsjVzkUM9rR2L_13version_check20get_version_and_dates_0EB29_, symObjAddr: 0x0, symBinAddr: 0x100007194, symSize: 0x88 }
  - { offset: 0xCB2A, size: 0x8, addend: 0x0, symName: __RNvXs5_NtNtCsaNl6UpbT7bw_4core3num5errorNtB5_15TryFromIntErrorNtNtB9_3fmt5Debug3fmtCsjVzkUM9rR2L_13version_check, symObjAddr: 0x298C, symBinAddr: 0x100008EC0, symSize: 0x54 }
  - { offset: 0xD46B, size: 0x8, addend: 0x0, symName: __RNvXNtNtCsaNl6UpbT7bw_4core3cmp5implsuNtB4_9PartialEq2eqCsjVzkUM9rR2L_13version_check, symObjAddr: 0x23F0, symBinAddr: 0x100008BF0, symSize: 0x1C }
  - { offset: 0xD4AE, size: 0x8, addend: 0x0, symName: __RNvXs7_NtNtCsaNl6UpbT7bw_4core3cmp5implsReNtB7_9PartialEq2eqCsjVzkUM9rR2L_13version_check, symObjAddr: 0x2E74, symBinAddr: 0x1000093A8, symSize: 0x44 }
  - { offset: 0xE3CF, size: 0x8, addend: 0x0, symName: __RNvXsC_NtCsaNl6UpbT7bw_4core6optionINtB5_6OptionINtNtNtB7_3num7nonzero7NonZerojEENtNtNtB7_3ops9try_trait3Try11from_outputCsjVzkUM9rR2L_13version_check, symObjAddr: 0x31D0, symBinAddr: 0x100009704, symSize: 0x18 }
  - { offset: 0xE406, size: 0x8, addend: 0x0, symName: __RNvXsC_NtCsaNl6UpbT7bw_4core6optionINtB5_6OptionINtNtNtB7_3num7nonzero7NonZerojEENtNtNtB7_3ops9try_trait3Try6branchCsjVzkUM9rR2L_13version_check, symObjAddr: 0x31E8, symBinAddr: 0x10000971C, symSize: 0x40 }
  - { offset: 0xE4D1, size: 0x8, addend: 0x0, symName: __RNvXsD_NtCsaNl6UpbT7bw_4core6optionINtB5_6OptionINtNtNtB7_3num7nonzero7NonZerojEEINtNtNtB7_3ops9try_trait12FromResidualIBy_NtNtB7_7convert10InfallibleEE13from_residualCsjVzkUM9rR2L_13version_check, symObjAddr: 0x3228, symBinAddr: 0x10000975C, symSize: 0x14 }
  - { offset: 0xF2D9, size: 0x8, addend: 0x0, symName: __RINvXs0_NtNtNtCsaNl6UpbT7bw_4core4iter8adapters3mapINtB6_3MapINtNtB8_6filter6FilterIBO_INtNtNtBc_3str4iter5SplitcENCNvCsjVzkUM9rR2L_13version_check16supports_features0_0ENCB1Q_s1_0ENCB1Q_s2_0ENtNtNtBa_6traits8iterator8Iterator4foldINtNtBc_6option6OptionReEINvNvB34_4last4someB43_EEB1S_, symObjAddr: 0xF08, symBinAddr: 0x100007A84, symSize: 0x58 }
  - { offset: 0xF34F, size: 0x8, addend: 0x0, symName: __RINvXs0_NtNtNtCsaNl6UpbT7bw_4core4iter8adapters3mapINtB6_3MapINtNtNtBc_3str4iter5SplitcENCNvCsjVzkUM9rR2L_13version_check16supports_features0_0ENtNtNtBa_6traits8iterator8Iterator4foldINtNtBc_6option6OptionReENCINvNtB8_6filter11filter_foldB3h_B2V_NCB1q_s1_0NCINvB6_8map_foldB3h_B3h_B2V_NCB1q_s2_0INvNvB2i_4last4someB3h_EE0E0EB1s_, symObjAddr: 0xF60, symBinAddr: 0x100007ADC, symSize: 0x58 }
  - { offset: 0xF3C5, size: 0x8, addend: 0x0, symName: __RNvXs0_NtNtNtCsaNl6UpbT7bw_4core4iter8adapters3mapINtB5_3MapINtNtNtBb_3str4iter14SplitInclusivecENtB11_8LinesMapENtNtNtB9_6traits8iterator8Iterator4nextCsjVzkUM9rR2L_13version_check, symObjAddr: 0x24DC, symBinAddr: 0x100008C7C, symSize: 0x90 }
  - { offset: 0xF496, size: 0x8, addend: 0x0, symName: __RNCINvNtNtNtCsaNl6UpbT7bw_4core4iter8adapters3map8map_foldReBU_INtNtBa_6option6OptionBU_ENCNvCsjVzkUM9rR2L_13version_check16supports_features0_0NCINvNtB6_6filter11filter_foldBU_BZ_NCB1r_s1_0NCIB2_BU_BU_BZ_NCB1r_s2_0INvNvNtNtNtB8_6traits8iterator8Iterator4last4someBU_EE0E0E0B1t_, symObjAddr: 0x1040, symBinAddr: 0x100007BBC, symSize: 0xE0 }
  - { offset: 0xF51D, size: 0x8, addend: 0x0, symName: __RNCINvNtNtNtCsaNl6UpbT7bw_4core4iter8adapters3map8map_foldReBU_INtNtBa_6option6OptionBU_ENCNvCsjVzkUM9rR2L_13version_check16supports_features2_0INvNvNtNtNtB8_6traits8iterator8Iterator4last4someBU_EE0B1t_, symObjAddr: 0x1120, symBinAddr: 0x100007C9C, symSize: 0xE0 }
  - { offset: 0xF5C8, size: 0x8, addend: 0x0, symName: __RNvXs1_NtNtNtCsaNl6UpbT7bw_4core4iter8adapters3mapINtB5_3MapINtNtNtBb_3str4iter14SplitInclusivecENtB11_8LinesMapENtNtNtB9_6traits12double_ended19DoubleEndedIterator9next_backCsjVzkUM9rR2L_13version_check, symObjAddr: 0x2788, symBinAddr: 0x100008D70, symSize: 0x90 }
  - { offset: 0xF761, size: 0x8, addend: 0x0, symName: __RINvYINtNtNtNtCsaNl6UpbT7bw_4core4iter8adapters3map3MapINtNtNtBc_3str4iter5SplitcENCNvCsjVzkUM9rR2L_13version_check16supports_features0_0ENtNtNtBa_6traits8iterator8Iterator6filterNCB1k_s1_0EB1m_, symObjAddr: 0xFB8, symBinAddr: 0x100007B34, symSize: 0x30 }
  - { offset: 0xF7C6, size: 0x8, addend: 0x0, symName: __RNvYINtNtNtNtCsaNl6UpbT7bw_4core4iter8adapters3map3MapINtNtB7_6filter6FilterIB3_INtNtNtBb_3str4iter5SplitcENCNvCsjVzkUM9rR2L_13version_check16supports_features0_0ENCB1J_s1_0ENCB1J_s2_0ENtNtNtB9_6traits8iterator8Iterator4lastB1L_, symObjAddr: 0x34AC, symBinAddr: 0x1000097D0, symSize: 0x28 }
  - { offset: 0xF926, size: 0x8, addend: 0x0, symName: __RNvXs3_NtNtCsaNl6UpbT7bw_4core3str7patternNvMNtNtB9_4char7methodsc13is_whitespaceNtB5_11MultiCharEq7matchesCsjVzkUM9rR2L_13version_check, symObjAddr: 0x28CC, symBinAddr: 0x100008E00, symSize: 0x28 }
  - { offset: 0xF972, size: 0x8, addend: 0x0, symName: __RNvXsr_NtNtCsaNl6UpbT7bw_4core3str7patternNvMNtNtB9_4char7methodsc13is_whitespaceNtB5_7Pattern13into_searcherCsjVzkUM9rR2L_13version_check, symObjAddr: 0x3464, symBinAddr: 0x100009788, symSize: 0x48 }
  - { offset: 0xFA47, size: 0x8, addend: 0x0, symName: __RNvXs4_NtNtCsaNl6UpbT7bw_4core3str6traitsNtNtNtB9_3ops5range9RangeFullINtNtNtB9_5slice5index10SliceIndexeE5indexCsjVzkUM9rR2L_13version_check, symObjAddr: 0x2974, symBinAddr: 0x100008EA8, symSize: 0x18 }
  - { offset: 0xFB3C, size: 0x8, addend: 0x0, symName: __RNvXs8_NtNtCsaNl6UpbT7bw_4core3str6traitsINtNtNtB9_3ops5range7RangeTojEINtNtNtB9_5slice5index10SliceIndexeE3getCsjVzkUM9rR2L_13version_check, symObjAddr: 0x2EB8, symBinAddr: 0x1000093EC, symSize: 0x140 }
  - { offset: 0xFC95, size: 0x8, addend: 0x0, symName: __RNvXs9_NtNtCsaNl6UpbT7bw_4core3str6traitsINtNtNtB9_3ops5range9RangeFromjEINtNtNtB9_5slice5index10SliceIndexeE3getCsjVzkUM9rR2L_13version_check, symObjAddr: 0x2FF8, symBinAddr: 0x10000952C, symSize: 0x150 }
  - { offset: 0xFE04, size: 0x8, addend: 0x0, symName: __RNvXs9_NtNtCsaNl6UpbT7bw_4core3str6traitsINtNtNtB9_3ops5range9RangeFromjEINtNtNtB9_5slice5index10SliceIndexeE5indexCsjVzkUM9rR2L_13version_check, symObjAddr: 0x3148, symBinAddr: 0x10000967C, symSize: 0x88 }
  - { offset: 0xFF0D, size: 0x8, addend: 0x0, symName: __RNvMNtNtCsaNl6UpbT7bw_4core4char7methodsc13is_whitespaceCsjVzkUM9rR2L_13version_check, symObjAddr: 0x1574, symBinAddr: 0x100008094, symSize: 0x90 }
  - { offset: 0xFFA4, size: 0x8, addend: 0x0, symName: __RNvNtNtCsaNl6UpbT7bw_4core4char7methods15encode_utf8_rawCsjVzkUM9rR2L_13version_check, symObjAddr: 0x1DF4, symBinAddr: 0x1000085F4, symSize: 0x110 }
  - { offset: 0x100A4, size: 0x8, addend: 0x0, symName: __RNvNtNtCsaNl6UpbT7bw_4core4char7methods25encode_utf8_raw_uncheckedCsjVzkUM9rR2L_13version_check, symObjAddr: 0x1F04, symBinAddr: 0x100008704, symSize: 0x14C }
  - { offset: 0x1022D, size: 0x8, addend: 0x0, symName: __RNvNvNtNtCsaNl6UpbT7bw_4core4char7convert18from_u32_unchecked18precondition_checkCsjVzkUM9rR2L_13version_check, symObjAddr: 0x22EC, symBinAddr: 0x100008AEC, symSize: 0x104 }
  - { offset: 0x103E0, size: 0x8, addend: 0x0, symName: __RNvNvMNtNtCsaNl6UpbT7bw_4core5alloc6layoutNtB4_6Layout25from_size_align_unchecked18precondition_checkCsjVzkUM9rR2L_13version_check, symObjAddr: 0x2230, symBinAddr: 0x100008A30, symSize: 0xBC }
  - { offset: 0x1079E, size: 0x8, addend: 0x0, symName: __RNvNtNtCsaNl6UpbT7bw_4core5slice6memchr6memchrCsjVzkUM9rR2L_13version_check, symObjAddr: 0x2050, symBinAddr: 0x100008850, symSize: 0x114 }
  - { offset: 0x108C5, size: 0x8, addend: 0x0, symName: __RNvXs5_NtNtCsaNl6UpbT7bw_4core5slice5indexINtNtNtB9_3ops5range9RangeFromjEINtB5_10SliceIndexShE5indexCsjVzkUM9rR2L_13version_check, symObjAddr: 0x29E0, symBinAddr: 0x100008F14, symSize: 0x90 }
  - { offset: 0x10EE5, size: 0x8, addend: 0x0, symName: __RNvNtNtNtCsht3nMU9UgFu_3std3sys2fs4unix23debug_assert_fd_is_openCsjVzkUM9rR2L_13version_check, symObjAddr: 0x2164, symBinAddr: 0x100008964, symSize: 0xCC }
  - { offset: 0x112B4, size: 0x8, addend: 0x0, symName: __RNvXs3_NtNtCsht3nMU9UgFu_3std3ffi6os_strNtB5_8OsStringINtNtNtCsaNl6UpbT7bw_4core3ops5index5IndexNtNtBV_5range9RangeFullE5indexCsjVzkUM9rR2L_13version_check, symObjAddr: 0x28F4, symBinAddr: 0x100008E28, symSize: 0x80 }
  - { offset: 0x113C3, size: 0x8, addend: 0x0, symName: __RNvXs5_NtNtCsht3nMU9UgFu_3std3ffi6os_strNtB5_8OsStringNtNtNtCsaNl6UpbT7bw_4core3ops5deref5Deref5derefCsjVzkUM9rR2L_13version_check, symObjAddr: 0x2A70, symBinAddr: 0x100008FA4, symSize: 0x2C }
  - { offset: 0x113F7, size: 0x8, addend: 0x0, symName: __RNvXsW_NtNtCsht3nMU9UgFu_3std3ffi6os_streINtNtCsaNl6UpbT7bw_4core7convert5AsRefNtB5_5OsStrE6as_refCsjVzkUM9rR2L_13version_check, symObjAddr: 0x323C, symBinAddr: 0x100009770, symSize: 0x18 }
  - { offset: 0x117B4, size: 0x8, addend: 0x0, symName: __RNvXs1_NtCsiTraAjBDcu4_5alloc7raw_vecINtB5_6RawVecINtNtB7_5boxed3BoxDINtNtNtCsaNl6UpbT7bw_4core3ops8function5FnMutuEp6OutputINtNtB1c_6result6ResultuNtNtNtCsht3nMU9UgFu_3std2io5error5ErrorENtNtB1c_6marker4SyncNtB32_4SendEL_EENtNtB1a_4drop4Drop4dropCsjVzkUM9rR2L_13version_check, symObjAddr: 0x2724, symBinAddr: 0x100008D0C, symSize: 0x34 }
  - { offset: 0x117F0, size: 0x8, addend: 0x0, symName: __RNvXs1_NtCsiTraAjBDcu4_5alloc7raw_vecINtB5_6RawVecPaENtNtNtCsaNl6UpbT7bw_4core3ops4drop4Drop4dropCsjVzkUM9rR2L_13version_check, symObjAddr: 0x2758, symBinAddr: 0x100008D40, symSize: 0x30 }
  - { offset: 0x11A0D, size: 0x8, addend: 0x0, symName: __RNCINvMsm_NtNtNtCsiTraAjBDcu4_5alloc11collections5btree8navigateINtNtBa_4node6HandleINtB13_7NodeRefNtNtB13_6marker5DyingNtNtNtCsht3nMU9UgFu_3std3ffi6os_str8OsStringINtNtCsaNl6UpbT7bw_4core6option6OptionB1U_ENtB1B_4LeafENtB1B_4EdgeE27deallocating_next_uncheckedNtNtBe_5alloc6GlobalE0CsjVzkUM9rR2L_13version_check, symObjAddr: 0xFE8, symBinAddr: 0x100007B64, symSize: 0x58 }
  - { offset: 0x1205C, size: 0x8, addend: 0x0, symName: __RNvXs0_NtNtCsiTraAjBDcu4_5alloc3ffi5c_strNtB5_7CStringNtNtNtCsaNl6UpbT7bw_4core3ops4drop4Drop4dropCsjVzkUM9rR2L_13version_check, symObjAddr: 0x246C, symBinAddr: 0x100008C0C, symSize: 0x70 }
  - { offset: 0x12149, size: 0x8, addend: 0x0, symName: __RNvXs6_NtCsiTraAjBDcu4_5alloc5boxedINtB5_3BoxDINtNtNtCsaNl6UpbT7bw_4core3ops8function5FnMutuEp6OutputINtNtBP_6result6ResultuNtNtNtCsht3nMU9UgFu_3std2io5error5ErrorENtNtBP_6marker4SyncNtB2E_4SendEL_ENtNtBN_4drop4Drop4dropCsjVzkUM9rR2L_13version_check, symObjAddr: 0x2A9C, symBinAddr: 0x100008FD0, symSize: 0xCC }
  - { offset: 0x12280, size: 0x8, addend: 0x0, symName: __RNvXs6_NtCsiTraAjBDcu4_5alloc5boxedINtB5_3BoxDNtNtCsaNl6UpbT7bw_4core5error5ErrorNtNtBM_6marker4SyncNtB1j_4SendEL_ENtNtNtBM_3ops4drop4Drop4dropCsjVzkUM9rR2L_13version_check, symObjAddr: 0x2B68, symBinAddr: 0x10000909C, symSize: 0xCC }
  - { offset: 0x123B7, size: 0x8, addend: 0x0, symName: __RNvXs6_NtCsiTraAjBDcu4_5alloc5boxedINtB5_3BoxNtNtNtCsht3nMU9UgFu_3std2io5error6CustomENtNtNtCsaNl6UpbT7bw_4core3ops4drop4Drop4dropCsjVzkUM9rR2L_13version_check, symObjAddr: 0x2C34, symBinAddr: 0x100009168, symSize: 0xB8 }
  - { offset: 0x124EE, size: 0x8, addend: 0x0, symName: __RNvXs6_NtCsiTraAjBDcu4_5alloc5boxedINtB5_3BoxShENtNtNtCsaNl6UpbT7bw_4core3ops4drop4Drop4dropCsjVzkUM9rR2L_13version_check, symObjAddr: 0x2CEC, symBinAddr: 0x100009220, symSize: 0xC4 }
  - { offset: 0x12625, size: 0x8, addend: 0x0, symName: __RNvXs6_NtCsiTraAjBDcu4_5alloc5boxedINtB5_3BoxSmENtNtNtCsaNl6UpbT7bw_4core3ops4drop4Drop4dropCsjVzkUM9rR2L_13version_check, symObjAddr: 0x2DB0, symBinAddr: 0x1000092E4, symSize: 0xC4 }
  - { offset: 0x1276C, size: 0x8, addend: 0x0, symName: __RINvMNtCsaNl6UpbT7bw_4core6optionINtB3_6OptionNtNtCsht3nMU9UgFu_3std7process6OutputE8and_thenNtNtCsiTraAjBDcu4_5alloc6string6StringNCNvCsjVzkUM9rR2L_13version_check20get_version_and_dates_0EB29_, symObjAddr: 0x0, symBinAddr: 0x100007194, symSize: 0x88 }
  - { offset: 0x127F6, size: 0x8, addend: 0x0, symName: __RINvMNtCsaNl6UpbT7bw_4core6optionINtB3_6OptionNtNtCsiTraAjBDcu4_5alloc6string6StringE3mapTBv_Bv_ENCNvCsjVzkUM9rR2L_13version_check20get_version_and_dates0_0EB1B_, symObjAddr: 0x88, symBinAddr: 0x10000721C, symSize: 0x94 }
  - { offset: 0x12869, size: 0x8, addend: 0x0, symName: __RINvMNtCsaNl6UpbT7bw_4core6optionINtB3_6OptionNtNtCsiTraAjBDcu4_5alloc6string6StringE8and_thenNtNtCsjVzkUM9rR2L_13version_check7channel7ChannelNCNvMB1w_B1u_4reads_0EB1y_, symObjAddr: 0x198, symBinAddr: 0x1000072B0, symSize: 0x78 }
  - { offset: 0x128F6, size: 0x8, addend: 0x0, symName: __RINvMNtCsaNl6UpbT7bw_4core6optionINtB3_6OptionNtNtCsjVzkUM9rR2L_13version_check7channel7ChannelE3mapbNCNvBM_20is_feature_flaggable0EBM_, symObjAddr: 0x3B8, symBinAddr: 0x100007328, symSize: 0x54 }
  - { offset: 0x129A0, size: 0x8, addend: 0x0, symName: __RINvMNtCsaNl6UpbT7bw_4core6optionINtB3_6OptionNtNtNtCsht3nMU9UgFu_3std3ffi6os_str8OsStringE3mapTBI_cENCNCNvCsjVzkUM9rR2L_13version_check16supports_features_00EB1H_, symObjAddr: 0x520, symBinAddr: 0x10000737C, symSize: 0x90 }
  - { offset: 0x12A0C, size: 0x8, addend: 0x0, symName: __RINvMNtCsaNl6UpbT7bw_4core6optionINtB3_6OptionNtNtNtCsht3nMU9UgFu_3std3ffi6os_str8OsStringE3mapTBI_cENCNvCsjVzkUM9rR2L_13version_check16supports_feature0EB1F_, symObjAddr: 0x5B0, symBinAddr: 0x10000740C, symSize: 0x90 }
  - { offset: 0x12A9F, size: 0x8, addend: 0x0, symName: __RINvMNtCsaNl6UpbT7bw_4core6optionINtB3_6OptionReE3mapBI_NCNvCsjVzkUM9rR2L_13version_check35version_and_date_from_rustc_versions_0EBW_, symObjAddr: 0x640, symBinAddr: 0x10000749C, symSize: 0x64 }
  - { offset: 0x12B0A, size: 0x8, addend: 0x0, symName: __RINvMNtCsaNl6UpbT7bw_4core6optionINtB3_6OptionReE3mapNtNtCsiTraAjBDcu4_5alloc6string6StringNCNCNvCsjVzkUM9rR2L_13version_check43version_and_date_from_rustc_verbose_version00EB1x_, symObjAddr: 0x6A4, symBinAddr: 0x100007500, symSize: 0x78 }
  - { offset: 0x12B75, size: 0x8, addend: 0x0, symName: __RINvMNtCsaNl6UpbT7bw_4core6optionINtB3_6OptionReE3mapNtNtCsiTraAjBDcu4_5alloc6string6StringNCNvCsjVzkUM9rR2L_13version_check35version_and_date_from_rustc_versions0_0EB1v_, symObjAddr: 0x71C, symBinAddr: 0x100007578, symSize: 0x78 }
  - { offset: 0x12BE0, size: 0x8, addend: 0x0, symName: __RINvMNtCsaNl6UpbT7bw_4core6optionINtB3_6OptionReE3mapNtNtCsiTraAjBDcu4_5alloc6string6StringNCNvCsjVzkUM9rR2L_13version_check35version_and_date_from_rustc_versions1_0EB1v_, symObjAddr: 0x794, symBinAddr: 0x1000075F0, symSize: 0x78 }
  - { offset: 0x12C4B, size: 0x8, addend: 0x0, symName: __RINvMNtCsaNl6UpbT7bw_4core6optionINtB3_6OptionTIBw_NtNtCsiTraAjBDcu4_5alloc6string6StringEBJ_EE8and_thenBN_NCNvMNtCsjVzkUM9rR2L_13version_check7channelNtB1M_7Channel4read0EB1O_, symObjAddr: 0x894, symBinAddr: 0x100007668, symSize: 0x88 }
  - { offset: 0x12CB7, size: 0x8, addend: 0x0, symName: __RINvMNtCsaNl6UpbT7bw_4core6optionINtB3_6OptionTNtNtNtCsht3nMU9UgFu_3std3ffi6os_str8OsStringcEE7or_elseNCNvCsjVzkUM9rR2L_13version_check16supports_features_0EB1G_, symObjAddr: 0x9A4, symBinAddr: 0x1000076F0, symSize: 0xC8 }
  - { offset: 0x12D45, size: 0x8, addend: 0x0, symName: __RINvMNtCsaNl6UpbT7bw_4core6resultINtB3_6ResultNtNtCsiTraAjBDcu4_5alloc6string6StringNtNtCsht3nMU9UgFu_3std3env8VarErrorE14unwrap_or_elseNCNvCsjVzkUM9rR2L_13version_check20get_version_and_date0EB2e_, symObjAddr: 0xA6C, symBinAddr: 0x1000077B8, symSize: 0x8C }
  - { offset: 0x13026, size: 0x8, addend: 0x0, symName: __RINvMsb_NtNtNtCsiTraAjBDcu4_5alloc11collections5btree8navigateINtB6_13LazyLeafRangeNtNtNtB8_4node6marker5DyingNtNtNtCsht3nMU9UgFu_3std3ffi6os_str8OsStringINtNtCsaNl6UpbT7bw_4core6option6OptionB1K_EE16deallocating_endNtNtBc_5alloc6GlobalECsjVzkUM9rR2L_13version_check, symObjAddr: 0xCC8, symBinAddr: 0x100007844, symSize: 0x98 }
  - { offset: 0x130F8, size: 0x8, addend: 0x0, symName: __RINvMsb_NtNtNtCsiTraAjBDcu4_5alloc11collections5btree8navigateINtB6_13LazyLeafRangeNtNtNtB8_4node6marker5DyingNtNtNtCsht3nMU9UgFu_3std3ffi6os_str8OsStringINtNtCsaNl6UpbT7bw_4core6option6OptionB1K_EE27deallocating_next_uncheckedNtNtBc_5alloc6GlobalECsjVzkUM9rR2L_13version_check, symObjAddr: 0xD60, symBinAddr: 0x1000078DC, symSize: 0xA8 }
  - { offset: 0x13297, size: 0x8, addend: 0x0, symName: __RINvMsk_NtCsht3nMU9UgFu_3std7processNtB6_7Command3argReECsjVzkUM9rR2L_13version_check, symObjAddr: 0xE08, symBinAddr: 0x100007984, symSize: 0x70 }
  - { offset: 0x132D2, size: 0x8, addend: 0x0, symName: __RINvMsk_NtCsht3nMU9UgFu_3std7processNtB6_7Command3newNtNtCsiTraAjBDcu4_5alloc6string6StringECsjVzkUM9rR2L_13version_check, symObjAddr: 0xE78, symBinAddr: 0x1000079F4, symSize: 0x90 }
  - { offset: 0x1336E, size: 0x8, addend: 0x0, symName: __RNvMNtCsaNl6UpbT7bw_4core6optionINtB2_6OptionNtNtCsiTraAjBDcu4_5alloc6string6StringE2orCsjVzkUM9rR2L_13version_check, symObjAddr: 0x1200, symBinAddr: 0x100007D7C, symSize: 0xE0 }
  - { offset: 0x133C9, size: 0x8, addend: 0x0, symName: __RNvMNtCsaNl6UpbT7bw_4core6optionINtB2_6OptionReE9unwrap_orCsjVzkUM9rR2L_13version_check, symObjAddr: 0x12E0, symBinAddr: 0x100007E5C, symSize: 0x70 }
  - { offset: 0x13485, size: 0x8, addend: 0x0, symName: __RNvMNtCsaNl6UpbT7bw_4core6resultINtB2_6ResultNtNtCsht3nMU9UgFu_3std7process6OutputNtNtNtBL_2io5error5ErrorE2okCsjVzkUM9rR2L_13version_check, symObjAddr: 0x13AC, symBinAddr: 0x100007ECC, symSize: 0xA8 }
  - { offset: 0x134D9, size: 0x8, addend: 0x0, symName: __RNvMNtCsaNl6UpbT7bw_4core6resultINtB2_6ResultNtNtCsiTraAjBDcu4_5alloc6string6StringNtBJ_13FromUtf8ErrorE2okCsjVzkUM9rR2L_13version_check, symObjAddr: 0x1454, symBinAddr: 0x100007F74, symSize: 0x9C }
  - { offset: 0x1352D, size: 0x8, addend: 0x0, symName: __RNvMNtCsaNl6UpbT7bw_4core6resultINtB2_6ResulthNtNtNtB4_3num5error15TryFromIntErrorE6expectCsjVzkUM9rR2L_13version_check, symObjAddr: 0x14F0, symBinAddr: 0x100008010, symSize: 0x84 }
  - { offset: 0x13636, size: 0x8, addend: 0x0, symName: __RNvMs2_NtCsiTraAjBDcu4_5alloc7raw_vecNtB5_11RawVecInner16with_capacity_inCsjVzkUM9rR2L_13version_check, symObjAddr: 0x1750, symBinAddr: 0x100008124, symSize: 0x110 }
  - { offset: 0x1392B, size: 0x8, addend: 0x0, symName: __RNvMsb_NtNtNtCsiTraAjBDcu4_5alloc11collections5btree8navigateINtB5_13LazyLeafRangeNtNtNtB7_4node6marker5DyingNtNtNtCsht3nMU9UgFu_3std3ffi6os_str8OsStringINtNtCsaNl6UpbT7bw_4core6option6OptionB1J_EE10take_frontCsjVzkUM9rR2L_13version_check, symObjAddr: 0x1A34, symBinAddr: 0x100008234, symSize: 0x1C4 }
  - { offset: 0x13C7E, size: 0x8, addend: 0x0, symName: __RNvMsc_NtNtNtCsiTraAjBDcu4_5alloc11collections5btree8navigateINtB5_13LazyLeafRangeNtNtNtB7_4node6marker5DyingNtNtNtCsht3nMU9UgFu_3std3ffi6os_str8OsStringINtNtCsaNl6UpbT7bw_4core6option6OptionB1J_EE10init_frontCsjVzkUM9rR2L_13version_check, symObjAddr: 0x1BF8, symBinAddr: 0x1000083F8, symSize: 0x1C8 }
  - { offset: 0x13E65, size: 0x8, addend: 0x0, symName: __RNvMsl_NtNtCsht3nMU9UgFu_3std3ffi6os_strNtB5_5OsStr15to_string_lossyCsjVzkUM9rR2L_13version_check, symObjAddr: 0x1DC0, symBinAddr: 0x1000085C0, symSize: 0x34 }
  - { offset: 0x14594, size: 0x8, addend: 0x0, symName: __RINvMNtCsaNl6UpbT7bw_4core3stre11starts_withReECsjVzkUM9rR2L_13version_check, symObjAddr: 0x0, symBinAddr: 0x1000097F8, symSize: 0x4C }
  - { offset: 0x145FA, size: 0x8, addend: 0x0, symName: __RNvXNvNtCsht3nMU9UgFu_3std2io17default_write_fmtINtB2_7AdapterNtNtNtNtB6_3sys5stdio4unix6StderrENtNtCsaNl6UpbT7bw_4core3fmt5Write9write_strCsjVzkUM9rR2L_13version_check, symObjAddr: 0x1AC4, symBinAddr: 0x10000B284, symSize: 0xB4 }
  - { offset: 0x148AA, size: 0x8, addend: 0x0, symName: __RINvNtCsht3nMU9UgFu_3std2io17default_write_fmtNtNtNtNtB4_3sys5stdio4unix6StderrECsjVzkUM9rR2L_13version_check, symObjAddr: 0xD90, symBinAddr: 0x10000A550, symSize: 0x120 }
  - { offset: 0x14A1B, size: 0x8, addend: 0x0, symName: __RNvXs5_NtNtNtCsht3nMU9UgFu_3std2os2fd5ownedNtB5_7OwnedFdNtNtNtCsaNl6UpbT7bw_4core3ops4drop4Drop4dropCsjVzkUM9rR2L_13version_check, symObjAddr: 0x1E14, symBinAddr: 0x10000B544, symSize: 0x40 }
  - { offset: 0x154FC, size: 0x8, addend: 0x0, symName: __RINvMNtCsaNl6UpbT7bw_4core3stre11starts_withReECsjVzkUM9rR2L_13version_check, symObjAddr: 0x0, symBinAddr: 0x1000097F8, symSize: 0x4C }
  - { offset: 0x15576, size: 0x8, addend: 0x0, symName: __RINvMNtCsaNl6UpbT7bw_4core3stre12trim_matchesNvMNtNtB5_4char7methodsc13is_whitespaceECsjVzkUM9rR2L_13version_check, symObjAddr: 0x4C, symBinAddr: 0x100009844, symSize: 0x130 }
  - { offset: 0x15747, size: 0x8, addend: 0x0, symName: __RINvMNtCsaNl6UpbT7bw_4core3stre16trim_end_matchesNvMNtNtB5_4char7methodsc13is_whitespaceECsjVzkUM9rR2L_13version_check, symObjAddr: 0x17C, symBinAddr: 0x100009974, symSize: 0xDC }
  - { offset: 0x158AF, size: 0x8, addend: 0x0, symName: __RINvMNtCsaNl6UpbT7bw_4core3stre16trim_end_matchesReECsjVzkUM9rR2L_13version_check, symObjAddr: 0x258, symBinAddr: 0x100009A50, symSize: 0x100 }
  - { offset: 0x159E4, size: 0x8, addend: 0x0, symName: __RINvMNtCsaNl6UpbT7bw_4core3stre17trim_left_matchesReECsjVzkUM9rR2L_13version_check, symObjAddr: 0x358, symBinAddr: 0x100009B50, symSize: 0x34 }
  - { offset: 0x15A2A, size: 0x8, addend: 0x0, symName: __RINvMNtCsaNl6UpbT7bw_4core3stre17trim_left_matchescECsjVzkUM9rR2L_13version_check, symObjAddr: 0x38C, symBinAddr: 0x100009B84, symSize: 0x2C }
  - { offset: 0x15A70, size: 0x8, addend: 0x0, symName: __RINvMNtCsaNl6UpbT7bw_4core3stre18trim_right_matchesReECsjVzkUM9rR2L_13version_check, symObjAddr: 0x3B8, symBinAddr: 0x100009BB0, symSize: 0x34 }
  - { offset: 0x15B06, size: 0x8, addend: 0x0, symName: __RINvMNtCsaNl6UpbT7bw_4core3stre18trim_start_matchesNvMNtNtB5_4char7methodsc13is_whitespaceECsjVzkUM9rR2L_13version_check, symObjAddr: 0x3EC, symBinAddr: 0x100009BE4, symSize: 0xE0 }
  - { offset: 0x15CE6, size: 0x8, addend: 0x0, symName: __RINvMNtCsaNl6UpbT7bw_4core3stre18trim_start_matchescECsjVzkUM9rR2L_13version_check, symObjAddr: 0x4CC, symBinAddr: 0x100009CC4, symSize: 0xF4 }
  - { offset: 0x15E76, size: 0x8, addend: 0x0, symName: __RINvMNtCsaNl6UpbT7bw_4core3stre5splitReECsjVzkUM9rR2L_13version_check, symObjAddr: 0x5F8, symBinAddr: 0x100009DB8, symSize: 0xA4 }
  - { offset: 0x15EBC, size: 0x8, addend: 0x0, symName: __RINvMNtCsaNl6UpbT7bw_4core3stre5splitcECsjVzkUM9rR2L_13version_check, symObjAddr: 0x69C, symBinAddr: 0x100009E5C, symSize: 0x98 }
  - { offset: 0x15F35, size: 0x8, addend: 0x0, symName: __RINvMNtCsaNl6UpbT7bw_4core3stre6splitnReECsjVzkUM9rR2L_13version_check, symObjAddr: 0x734, symBinAddr: 0x100009EF4, symSize: 0xD0 }
  - { offset: 0x15FB0, size: 0x8, addend: 0x0, symName: __RINvMNtCsaNl6UpbT7bw_4core3stre8containsReECsjVzkUM9rR2L_13version_check, symObjAddr: 0x804, symBinAddr: 0x100009FC4, symSize: 0x4C }
  - { offset: 0x15FF6, size: 0x8, addend: 0x0, symName: __RINvMNtCsaNl6UpbT7bw_4core3stre9ends_withReECsjVzkUM9rR2L_13version_check, symObjAddr: 0x850, symBinAddr: 0x10000A010, symSize: 0x4C }
  - { offset: 0x1603C, size: 0x8, addend: 0x0, symName: __RINvMNtCsaNl6UpbT7bw_4core3stre9ends_withcECsjVzkUM9rR2L_13version_check, symObjAddr: 0x89C, symBinAddr: 0x10000A05C, symSize: 0x44 }
  - { offset: 0x160A0, size: 0x8, addend: 0x0, symName: __RNvMNtCsaNl6UpbT7bw_4core3stre10trim_rightCsjVzkUM9rR2L_13version_check, symObjAddr: 0x1138, symBinAddr: 0x10000A8F8, symSize: 0x28 }
  - { offset: 0x160EC, size: 0x8, addend: 0x0, symName: __RNvMNtCsaNl6UpbT7bw_4core3stre3lenCsjVzkUM9rR2L_13version_check, symObjAddr: 0x1160, symBinAddr: 0x10000A920, symSize: 0x1C }
  - { offset: 0x16118, size: 0x8, addend: 0x0, symName: __RNvMNtCsaNl6UpbT7bw_4core3stre4trimCsjVzkUM9rR2L_13version_check, symObjAddr: 0x117C, symBinAddr: 0x10000A93C, symSize: 0x28 }
  - { offset: 0x16146, size: 0x8, addend: 0x0, symName: __RNvMNtCsaNl6UpbT7bw_4core3stre5charsCsjVzkUM9rR2L_13version_check, symObjAddr: 0x11A4, symBinAddr: 0x10000A964, symSize: 0x20 }
  - { offset: 0x161E8, size: 0x8, addend: 0x0, symName: __RNvMNtCsaNl6UpbT7bw_4core3stre5linesCsjVzkUM9rR2L_13version_check, symObjAddr: 0x11C4, symBinAddr: 0x10000A984, symSize: 0xC4 }
  - { offset: 0x16296, size: 0x8, addend: 0x0, symName: __RNvMNtCsaNl6UpbT7bw_4core3stre9trim_leftCsjVzkUM9rR2L_13version_check, symObjAddr: 0x1288, symBinAddr: 0x10000AA48, symSize: 0x28 }
  - { offset: 0x16826, size: 0x8, addend: 0x0, symName: __RNvXs3_NtCsaNl6UpbT7bw_4core3strNtB5_8LinesMapINtNtNtB7_3ops8function2FnTReEE4callCsjVzkUM9rR2L_13version_check, symObjAddr: 0x1C64, symBinAddr: 0x10000B394, symSize: 0x174 }
  - { offset: 0x16951, size: 0x8, addend: 0x0, symName: __RNvXs4_NtCsaNl6UpbT7bw_4core3strNtB5_8LinesMapINtNtNtB7_3ops8function5FnMutTReEE8call_mutCsjVzkUM9rR2L_13version_check, symObjAddr: 0x1DD8, symBinAddr: 0x10000B508, symSize: 0x3C }
  - { offset: 0x169EA, size: 0x8, addend: 0x0, symName: __RNvXs1_NtNtNtCsaNl6UpbT7bw_4core3ops8function5implsQNCNvCsjVzkUM9rR2L_13version_check35version_and_date_from_rustc_version0INtB7_5FnMutTRReEE8call_mutBS_, symObjAddr: 0x1B78, symBinAddr: 0x10000B338, symSize: 0x30 }
  - { offset: 0x1745E, size: 0x8, addend: 0x0, symName: __RNvXs_NvNtNtCsaNl6UpbT7bw_4core3fmt5Write9write_fmtQINtNvNtCsht3nMU9UgFu_3std2io17default_write_fmt7AdapterNtNtNtNtBV_3sys5stdio4unix6StderrENtB4_12SpecWriteFmt14spec_write_fmtCsjVzkUM9rR2L_13version_check, symObjAddr: 0x1EF0, symBinAddr: 0x10000B584, symSize: 0x160 }
  - { offset: 0x1750D, size: 0x8, addend: 0x0, symName: __RNvYINtNvNtCsht3nMU9UgFu_3std2io17default_write_fmt7AdapterNtNtNtNtB9_3sys5stdio4unix6StderrENtNtCsaNl6UpbT7bw_4core3fmt5Write10write_charCsjVzkUM9rR2L_13version_check, symObjAddr: 0x2050, symBinAddr: 0x10000B6E4, symSize: 0x70 }
  - { offset: 0x17575, size: 0x8, addend: 0x0, symName: __RNvYINtNvNtCsht3nMU9UgFu_3std2io17default_write_fmt7AdapterNtNtNtNtB9_3sys5stdio4unix6StderrENtNtCsaNl6UpbT7bw_4core3fmt5Write9write_fmtCsjVzkUM9rR2L_13version_check, symObjAddr: 0x20C0, symBinAddr: 0x10000B754, symSize: 0x24 }
  - { offset: 0x175CF, size: 0x8, addend: 0x0, symName: __RINvXs1_NtNtNtCsaNl6UpbT7bw_4core4iter8adapters6filterINtB6_6FilterINtNtB8_3map3MapINtNtNtBc_3str4iter5SplitcENCNvCsjVzkUM9rR2L_13version_check16supports_features0_0ENCB1M_s1_0ENtNtNtBa_6traits8iterator8Iterator4foldINtNtBc_6option6OptionReENCINvB16_8map_foldB3O_B3O_B3s_NCB1M_s2_0INvNvB2P_4last4someB3O_EE0EB1O_, symObjAddr: 0xEB0, symBinAddr: 0x10000A670, symSize: 0x58 }
  - { offset: 0x1763C, size: 0x8, addend: 0x0, symName: __RNvXs1_NtNtNtCsaNl6UpbT7bw_4core4iter8adapters6filterINtB5_6FilterINtNtNtBb_3str4iter5SplitReENCNvCsjVzkUM9rR2L_13version_check35version_and_date_from_rustc_version0ENtNtNtB9_6traits8iterator8Iterator4nextB1y_, symObjAddr: 0x1BA8, symBinAddr: 0x10000B368, symSize: 0x2C }
  - { offset: 0x176B3, size: 0x8, addend: 0x0, symName: __RNCINvNtNtNtCsaNl6UpbT7bw_4core4iter8adapters6filter11filter_foldReINtNtBa_6option6OptionB11_ENCNvCsjVzkUM9rR2L_13version_check16supports_features1_0NCINvNtB6_3map8map_foldB11_B11_B13_NCB1w_s2_0INvNvNtNtNtB8_6traits8iterator8Iterator4last4someB11_EE0E0B1y_, symObjAddr: 0x1018, symBinAddr: 0x10000A7D8, symSize: 0x120 }
  - { offset: 0x17891, size: 0x8, addend: 0x0, symName: __RINvYINtNtNtNtCsaNl6UpbT7bw_4core4iter8adapters6filter6FilterINtNtB8_3map3MapINtNtNtBc_3str4iter5SplitcENCNvCsjVzkUM9rR2L_13version_check16supports_features0_0ENCB1G_s1_0ENtNtNtBa_6traits8iterator8Iterator3mapReNCB1G_s2_0EB1I_, symObjAddr: 0xFE8, symBinAddr: 0x10000A7A8, symSize: 0x30 }
  - { offset: 0x17B56, size: 0x8, addend: 0x0, symName: __RNvNtNtNtCsaNl6UpbT7bw_4core7unicode12unicode_data11white_space6lookupCsjVzkUM9rR2L_13version_check, symObjAddr: 0x17F4, symBinAddr: 0x10000AFB4, symSize: 0x14C }
  - { offset: 0x17B91, size: 0x8, addend: 0x0, symName: __RNvNvNtCsaNl6UpbT7bw_4core4hint16assert_unchecked18precondition_checkCsjVzkUM9rR2L_13version_check, symObjAddr: 0x1940, symBinAddr: 0x10000B100, symSize: 0xA4 }
  - { offset: 0x17BF1, size: 0x8, addend: 0x0, symName: __RNvNvNtCsaNl6UpbT7bw_4core4hint21unreachable_unchecked18precondition_checkCsjVzkUM9rR2L_13version_check, symObjAddr: 0x19E4, symBinAddr: 0x10000B1A4, symSize: 0x84 }
  - { offset: 0x17C51, size: 0x8, addend: 0x0, symName: __RNvXNtCsaNl6UpbT7bw_4core7convertReINtB2_5AsRefNtNtNtCsht3nMU9UgFu_3std3ffi6os_str5OsStrE6as_refCsjVzkUM9rR2L_13version_check, symObjAddr: 0x1A68, symBinAddr: 0x10000B228, symSize: 0x30 }
  - { offset: 0x17E05, size: 0x8, addend: 0x0, symName: __RNCNvCsjVzkUM9rR2L_13version_check16supports_feature0B3_, symObjAddr: 0x414C, symBinAddr: 0x10000C70C, symSize: 0x38 }
  - { offset: 0x17E3E, size: 0x8, addend: 0x0, symName: __RNCNvCsjVzkUM9rR2L_13version_check16supports_features_0B3_, symObjAddr: 0x4184, symBinAddr: 0x10000C744, symSize: 0x54 }
  - { offset: 0x17E6D, size: 0x8, addend: 0x0, symName: __RNCNCNvCsjVzkUM9rR2L_13version_check16supports_features_00B5_, symObjAddr: 0x41D8, symBinAddr: 0x10000C798, symSize: 0x38 }
  - { offset: 0x17EAE, size: 0x8, addend: 0x0, symName: __RNCNvCsjVzkUM9rR2L_13version_check16supports_features0_0B3_, symObjAddr: 0x4210, symBinAddr: 0x10000C7D0, symSize: 0x5C }
  - { offset: 0x17EE7, size: 0x8, addend: 0x0, symName: __RNCNvCsjVzkUM9rR2L_13version_check16supports_features1_0B3_, symObjAddr: 0x426C, symBinAddr: 0x10000C82C, symSize: 0x50 }
  - { offset: 0x17F20, size: 0x8, addend: 0x0, symName: __RNCNvCsjVzkUM9rR2L_13version_check16supports_features2_0B3_, symObjAddr: 0x42BC, symBinAddr: 0x10000C87C, symSize: 0x68 }
  - { offset: 0x17F59, size: 0x8, addend: 0x0, symName: __RNCNvCsjVzkUM9rR2L_13version_check16supports_features3_0B3_, symObjAddr: 0x4324, symBinAddr: 0x10000C8E4, symSize: 0x68 }
  - { offset: 0x17FA8, size: 0x8, addend: 0x0, symName: __RNvCsjVzkUM9rR2L_13version_check35version_and_date_from_rustc_version, symObjAddr: 0x2988, symBinAddr: 0x10000B778, symSize: 0x170 }
  - { offset: 0x18050, size: 0x8, addend: 0x0, symName: __RNCNvCsjVzkUM9rR2L_13version_check35version_and_date_from_rustc_version0B3_, symObjAddr: 0x2AF8, symBinAddr: 0x10000B8E8, symSize: 0x44 }
  - { offset: 0x18086, size: 0x8, addend: 0x0, symName: __RNCNvCsjVzkUM9rR2L_13version_check35version_and_date_from_rustc_versions_0B3_, symObjAddr: 0x2B3C, symBinAddr: 0x10000B92C, symSize: 0x58 }
  - { offset: 0x180BC, size: 0x8, addend: 0x0, symName: __RNCNvCsjVzkUM9rR2L_13version_check35version_and_date_from_rustc_versions0_0B3_, symObjAddr: 0x2B94, symBinAddr: 0x10000B984, symSize: 0x38 }
  - { offset: 0x180F2, size: 0x8, addend: 0x0, symName: __RNCNvCsjVzkUM9rR2L_13version_check35version_and_date_from_rustc_versions1_0B3_, symObjAddr: 0x2BCC, symBinAddr: 0x10000B9BC, symSize: 0x38 }
  - { offset: 0x18145, size: 0x8, addend: 0x0, symName: __RNvCsjVzkUM9rR2L_13version_check43version_and_date_from_rustc_verbose_version, symObjAddr: 0x2C04, symBinAddr: 0x10000B9F4, symSize: 0x63C }
  - { offset: 0x18203, size: 0x8, addend: 0x0, symName: __RNCNvCsjVzkUM9rR2L_13version_check43version_and_date_from_rustc_verbose_version0B3_, symObjAddr: 0x3240, symBinAddr: 0x10000C030, symSize: 0x80 }
  - { offset: 0x1823E, size: 0x8, addend: 0x0, symName: __RNCNCNvCsjVzkUM9rR2L_13version_check43version_and_date_from_rustc_verbose_version00B5_, symObjAddr: 0x32C0, symBinAddr: 0x10000C0B0, symSize: 0x44 }
  - { offset: 0x18284, size: 0x8, addend: 0x0, symName: __RNvCsjVzkUM9rR2L_13version_check20get_version_and_date, symObjAddr: 0x3304, symBinAddr: 0x10000C0F4, symSize: 0x128 }
  - { offset: 0x182BC, size: 0x8, addend: 0x0, symName: __RNCNvCsjVzkUM9rR2L_13version_check20get_version_and_date0B3_, symObjAddr: 0x342C, symBinAddr: 0x10000C21C, symSize: 0x74 }
  - { offset: 0x182EF, size: 0x8, addend: 0x0, symName: __RNCNvCsjVzkUM9rR2L_13version_check20get_version_and_dates_0B3_, symObjAddr: 0x34A0, symBinAddr: 0x10000C290, symSize: 0x9C }
  - { offset: 0x18326, size: 0x8, addend: 0x0, symName: __RNCNvCsjVzkUM9rR2L_13version_check20get_version_and_dates0_0B3_, symObjAddr: 0x353C, symBinAddr: 0x10000C32C, symSize: 0x84 }
  - { offset: 0x18373, size: 0x8, addend: 0x0, symName: __RNvCsjVzkUM9rR2L_13version_check20is_feature_flaggable, symObjAddr: 0x3DF0, symBinAddr: 0x10000C3B0, symSize: 0x28 }
  - { offset: 0x18396, size: 0x8, addend: 0x0, symName: __RNCNvCsjVzkUM9rR2L_13version_check20is_feature_flaggable0B3_, symObjAddr: 0x3E18, symBinAddr: 0x10000C3D8, symSize: 0x38 }
  - { offset: 0x183D7, size: 0x8, addend: 0x0, symName: __RNvCsjVzkUM9rR2L_13version_check16supports_feature, symObjAddr: 0x3E50, symBinAddr: 0x10000C410, symSize: 0x2FC }
  - { offset: 0x18F1A, size: 0x8, addend: 0x0, symName: __RNvXNvMsT_NtNtNtCsiTraAjBDcu4_5alloc11collections5btree4nodeINtB8_6HandleINtB8_7NodeRefNtNtB8_6marker5DyingpppENtB1p_2KVE12drop_key_valINtB2_7DropperINtNtCsaNl6UpbT7bw_4core6option6OptionNtNtNtCsht3nMU9UgFu_3std3ffi6os_str8OsStringEENtNtNtB2s_3ops4drop4Drop4dropCsjVzkUM9rR2L_13version_check, symObjAddr: 0x1A98, symBinAddr: 0x10000B258, symSize: 0x2C }
  - { offset: 0x19185, size: 0x8, addend: 0x0, symName: __RINvXs_NvMNtCsiTraAjBDcu4_5alloc5sliceSp9to_vec_inhNtB5_10ConvertVec6to_vecNtNtBa_5alloc6GlobalECsjVzkUM9rR2L_13version_check, symObjAddr: 0xF08, symBinAddr: 0x10000A6C8, symSize: 0xE0 }
  - { offset: 0x19567, size: 0x8, addend: 0x0, symName: __RINvMsh_NtNtNtCsiTraAjBDcu4_5alloc11collections5btree4nodeINtB6_7NodeRefNtNtB6_6marker5DyingNtNtNtCsht3nMU9UgFu_3std3ffi6os_str8OsStringINtNtCsaNl6UpbT7bw_4core6option6OptionB1s_ENtB1a_14LeafOrInternalE21deallocate_and_ascendNtNtBc_5alloc6GlobalECsjVzkUM9rR2L_13version_check, symObjAddr: 0x8E0, symBinAddr: 0x10000A0A0, symSize: 0x188 }
  - { offset: 0x197AD, size: 0x8, addend: 0x0, symName: __RINvMsj_NtNtNtCsiTraAjBDcu4_5alloc11collections5btree8navigateINtNtB8_4node6HandleINtB11_7NodeRefNtNtB11_6marker5DyingNtNtNtCsht3nMU9UgFu_3std3ffi6os_str8OsStringINtNtCsaNl6UpbT7bw_4core6option6OptionB1S_ENtB1z_4LeafENtB1z_4EdgeE16deallocating_endNtNtBc_5alloc6GlobalECsjVzkUM9rR2L_13version_check, symObjAddr: 0xA68, symBinAddr: 0x10000A228, symSize: 0xD4 }
  - { offset: 0x19A2E, size: 0x8, addend: 0x0, symName: __RINvMsj_NtNtNtCsiTraAjBDcu4_5alloc11collections5btree8navigateINtNtB8_4node6HandleINtB11_7NodeRefNtNtB11_6marker5DyingNtNtNtCsht3nMU9UgFu_3std3ffi6os_str8OsStringINtNtCsaNl6UpbT7bw_4core6option6OptionB1S_ENtB1z_4LeafENtB1z_4EdgeE17deallocating_nextNtNtBc_5alloc6GlobalECsjVzkUM9rR2L_13version_check, symObjAddr: 0xB3C, symBinAddr: 0x10000A2FC, symSize: 0x254 }
  - { offset: 0x19FF6, size: 0x8, addend: 0x0, symName: __RNvMsO_NtNtNtCsiTraAjBDcu4_5alloc11collections5btree4nodeINtB5_6HandleINtB5_7NodeRefNtNtB5_6marker5DyingNtNtNtCsht3nMU9UgFu_3std3ffi6os_str8OsStringINtNtCsaNl6UpbT7bw_4core6option6OptionB1E_ENtB1m_8InternalENtB1m_4EdgeE7descendCsjVzkUM9rR2L_13version_check, symObjAddr: 0x12B0, symBinAddr: 0x10000AA70, symSize: 0x9C }
  - { offset: 0x1A2D5, size: 0x8, addend: 0x0, symName: __RNvMsT_NtNtNtCsiTraAjBDcu4_5alloc11collections5btree4nodeINtB5_6HandleINtB5_7NodeRefNtNtB5_6marker5DyingNtNtNtCsht3nMU9UgFu_3std3ffi6os_str8OsStringINtNtCsaNl6UpbT7bw_4core6option6OptionB1E_ENtB1m_14LeafOrInternalENtB1m_2KVE12drop_key_valCsjVzkUM9rR2L_13version_check, symObjAddr: 0x134C, symBinAddr: 0x10000AB0C, symSize: 0x138 }
  - { offset: 0x1A5C8, size: 0x8, addend: 0x0, symName: __RNvMse_NtNtNtCsiTraAjBDcu4_5alloc11collections5btree4nodeINtB5_7NodeRefNtNtB5_6marker5DyingNtNtNtCsht3nMU9UgFu_3std3ffi6os_str8OsStringINtNtCsaNl6UpbT7bw_4core6option6OptionB1r_ENtB19_14LeafOrInternalE6ascendCsjVzkUM9rR2L_13version_check, symObjAddr: 0x1484, symBinAddr: 0x10000AC44, symSize: 0x160 }
  - { offset: 0x1A934, size: 0x8, addend: 0x0, symName: __RNvMsp_NtNtNtCsiTraAjBDcu4_5alloc11collections5btree8navigateINtNtB7_4node6HandleINtB10_7NodeRefNtNtB10_6marker5DyingNtNtNtCsht3nMU9UgFu_3std3ffi6os_str8OsStringINtNtCsaNl6UpbT7bw_4core6option6OptionB1R_ENtB1y_14LeafOrInternalENtB1y_2KVE14next_leaf_edgeCsjVzkUM9rR2L_13version_check, symObjAddr: 0x15E4, symBinAddr: 0x10000ADA4, symSize: 0x210 }
  - { offset: 0x1B17C, size: 0x8, addend: 0x0, symName: __RNvYNtNtNtNtCsht3nMU9UgFu_3std3sys5stdio4unix6StderrNtNtBa_2io5Write9write_allCsjVzkUM9rR2L_13version_check, symObjAddr: 0x2A38, symBinAddr: 0x10000F090, symSize: 0x270 }
  - { offset: 0x1B314, size: 0x8, addend: 0x0, symName: __RNvYNtNtNtNtCsht3nMU9UgFu_3std3sys5stdio4unix6StderrNtNtBa_2io5Write9write_fmtCsjVzkUM9rR2L_13version_check, symObjAddr: 0x2CA8, symBinAddr: 0x10000F300, symSize: 0x154 }
  - { offset: 0x1B68A, size: 0x8, addend: 0x0, symName: __RINvNtCsht3nMU9UgFu_3std3env3varReECsjVzkUM9rR2L_13version_check, symObjAddr: 0xE70, symBinAddr: 0x10000D66C, symSize: 0x68 }
  - { offset: 0x1B6BF, size: 0x8, addend: 0x0, symName: __RINvNtCsht3nMU9UgFu_3std3env6var_osReECsjVzkUM9rR2L_13version_check, symObjAddr: 0xED8, symBinAddr: 0x10000D6D4, symSize: 0x68 }
  - { offset: 0x1B770, size: 0x8, addend: 0x0, symName: __RNvXsX_NtNtCsht3nMU9UgFu_3std3ffi6os_strNtNtCsiTraAjBDcu4_5alloc6string6StringINtNtCsaNl6UpbT7bw_4core7convert5AsRefNtB5_5OsStrE6as_refCsjVzkUM9rR2L_13version_check, symObjAddr: 0x2470, symBinAddr: 0x10000EBA8, symSize: 0x80 }
  - { offset: 0x1BC59, size: 0x8, addend: 0x0, symName: __RINvNtCsaNl6UpbT7bw_4core3ptr13drop_in_placeINtNtB4_6option6OptionINtNtCsiTraAjBDcu4_5alloc5boxed3BoxSmEEECsjVzkUM9rR2L_13version_check, symObjAddr: 0xA8, symBinAddr: 0x10000C94C, symSize: 0x44 }
  - { offset: 0x1BC88, size: 0x8, addend: 0x0, symName: __RINvNtCsaNl6UpbT7bw_4core3ptr13drop_in_placeINtNtB4_6option6OptionNtNtCsiTraAjBDcu4_5alloc6string6StringEECsjVzkUM9rR2L_13version_check, symObjAddr: 0xEC, symBinAddr: 0x10000C990, symSize: 0x48 }
  - { offset: 0x1BCB7, size: 0x8, addend: 0x0, symName: __RINvNtCsaNl6UpbT7bw_4core3ptr13drop_in_placeINtNtB4_6option6OptionNtNtNtCsht3nMU9UgFu_3std3ffi6os_str8OsStringEECsjVzkUM9rR2L_13version_check, symObjAddr: 0x134, symBinAddr: 0x10000C9D8, symSize: 0x48 }
  - { offset: 0x1BCE6, size: 0x8, addend: 0x0, symName: __RINvNtCsaNl6UpbT7bw_4core3ptr13drop_in_placeINtNtB4_6option6OptionNtNtNtCsiTraAjBDcu4_5alloc3ffi5c_str7CStringEECsjVzkUM9rR2L_13version_check, symObjAddr: 0x17C, symBinAddr: 0x10000CA20, symSize: 0x44 }
  - { offset: 0x1BD15, size: 0x8, addend: 0x0, symName: __RINvNtCsaNl6UpbT7bw_4core3ptr13drop_in_placeINtNtB4_6option6OptionNtNtNtNtNtCsht3nMU9UgFu_3std3sys7process4unix6common5StdioEECsjVzkUM9rR2L_13version_check, symObjAddr: 0x1C0, symBinAddr: 0x10000CA64, symSize: 0x44 }
  - { offset: 0x1BD44, size: 0x8, addend: 0x0, symName: __RINvNtCsaNl6UpbT7bw_4core3ptr13drop_in_placeINtNtB4_6option6OptionTNtNtNtCsht3nMU9UgFu_3std3ffi6os_str8OsStringcEEECsjVzkUM9rR2L_13version_check, symObjAddr: 0x24C, symBinAddr: 0x10000CAA8, symSize: 0x48 }
  - { offset: 0x1BD73, size: 0x8, addend: 0x0, symName: __RINvNtCsaNl6UpbT7bw_4core3ptr13drop_in_placeINtNtB4_6result6ResultNtNtCsht3nMU9UgFu_3std7process6OutputNtNtNtB16_2io5error5ErrorEECsjVzkUM9rR2L_13version_check, symObjAddr: 0x294, symBinAddr: 0x10000CAF0, symSize: 0x5C }
  - { offset: 0x1BDA2, size: 0x8, addend: 0x0, symName: __RINvNtCsaNl6UpbT7bw_4core3ptr13drop_in_placeINtNtB4_6result6ResultNtNtCsiTraAjBDcu4_5alloc6string6StringNtB14_13FromUtf8ErrorEECsjVzkUM9rR2L_13version_check, symObjAddr: 0x2F0, symBinAddr: 0x10000CB4C, symSize: 0x58 }
  - { offset: 0x1BDD1, size: 0x8, addend: 0x0, symName: __RINvNtCsaNl6UpbT7bw_4core3ptr13drop_in_placeINtNtB4_6result6ResultuNtNtNtCsht3nMU9UgFu_3std2io5error5ErrorEECsjVzkUM9rR2L_13version_check, symObjAddr: 0x348, symBinAddr: 0x10000CBA4, symSize: 0x44 }
  - { offset: 0x1BE00, size: 0x8, addend: 0x0, symName: __RINvNtCsaNl6UpbT7bw_4core3ptr13drop_in_placeINtNtCsiTraAjBDcu4_5alloc3vec3VecINtNtBL_5boxed3BoxDINtNtNtB4_3ops8function5FnMutuEp6OutputINtNtB4_6result6ResultuNtNtNtCsht3nMU9UgFu_3std2io5error5ErrorENtNtB4_6marker4SyncNtB3c_4SendEL_EEECsjVzkUM9rR2L_13version_check, symObjAddr: 0x38C, symBinAddr: 0x10000CBE8, symSize: 0x5C }
  - { offset: 0x1BE2F, size: 0x8, addend: 0x0, symName: __RINvNtCsaNl6UpbT7bw_4core3ptr13drop_in_placeINtNtCsiTraAjBDcu4_5alloc3vec3VecPaEECsjVzkUM9rR2L_13version_check, symObjAddr: 0x3E8, symBinAddr: 0x10000CC44, symSize: 0x5C }
  - { offset: 0x1BE5E, size: 0x8, addend: 0x0, symName: __RINvNtCsaNl6UpbT7bw_4core3ptr13drop_in_placeINtNtCsiTraAjBDcu4_5alloc3vec3VechEECsjVzkUM9rR2L_13version_check, symObjAddr: 0x444, symBinAddr: 0x10000CCA0, symSize: 0x5C }
  - { offset: 0x1BE8D, size: 0x8, addend: 0x0, symName: __RINvNtCsaNl6UpbT7bw_4core3ptr13drop_in_placeINtNtCsiTraAjBDcu4_5alloc5boxed3BoxDINtNtNtB4_3ops8function5FnMutuEp6OutputINtNtB4_6result6ResultuNtNtNtCsht3nMU9UgFu_3std2io5error5ErrorENtNtB4_6marker4SyncNtB2W_4SendEL_EECsjVzkUM9rR2L_13version_check, symObjAddr: 0x4A0, symBinAddr: 0x10000CCFC, symSize: 0x80 }
  - { offset: 0x1BEBC, size: 0x8, addend: 0x0, symName: __RINvNtCsaNl6UpbT7bw_4core3ptr13drop_in_placeINtNtCsiTraAjBDcu4_5alloc5boxed3BoxDNtNtB4_5error5ErrorNtNtB4_6marker4SyncNtB1B_4SendEL_EECsjVzkUM9rR2L_13version_check, symObjAddr: 0x520, symBinAddr: 0x10000CD7C, symSize: 0x80 }
  - { offset: 0x1BEEB, size: 0x8, addend: 0x0, symName: __RINvNtCsaNl6UpbT7bw_4core3ptr13drop_in_placeINtNtCsiTraAjBDcu4_5alloc5boxed3BoxNtNtNtCsht3nMU9UgFu_3std2io5error6CustomEECsjVzkUM9rR2L_13version_check, symObjAddr: 0x5A0, symBinAddr: 0x10000CDFC, symSize: 0x60 }
  - { offset: 0x1BF1A, size: 0x8, addend: 0x0, symName: __RINvNtCsaNl6UpbT7bw_4core3ptr13drop_in_placeINtNtCsiTraAjBDcu4_5alloc5boxed3BoxShEECsjVzkUM9rR2L_13version_check, symObjAddr: 0x600, symBinAddr: 0x10000CE5C, symSize: 0x2C }
  - { offset: 0x1BF49, size: 0x8, addend: 0x0, symName: __RINvNtCsaNl6UpbT7bw_4core3ptr13drop_in_placeINtNtCsiTraAjBDcu4_5alloc5boxed3BoxSmEECsjVzkUM9rR2L_13version_check, symObjAddr: 0x62C, symBinAddr: 0x10000CE88, symSize: 0x2C }
  - { offset: 0x1BF78, size: 0x8, addend: 0x0, symName: __RINvNtCsaNl6UpbT7bw_4core3ptr13drop_in_placeINtNtCsiTraAjBDcu4_5alloc6borrow3CoweEECsjVzkUM9rR2L_13version_check, symObjAddr: 0x658, symBinAddr: 0x10000CEB4, symSize: 0x48 }
  - { offset: 0x1BFA7, size: 0x8, addend: 0x0, symName: __RINvNtCsaNl6UpbT7bw_4core3ptr13drop_in_placeINtNtCsiTraAjBDcu4_5alloc7raw_vec6RawVecINtNtBL_5boxed3BoxDINtNtNtB4_3ops8function5FnMutuEp6OutputINtNtB4_6result6ResultuNtNtNtCsht3nMU9UgFu_3std2io5error5ErrorENtNtB4_6marker4SyncNtB3j_4SendEL_EEECsjVzkUM9rR2L_13version_check, symObjAddr: 0x6A0, symBinAddr: 0x10000CEFC, symSize: 0x24 }
  - { offset: 0x1BFD6, size: 0x8, addend: 0x0, symName: __RINvNtCsaNl6UpbT7bw_4core3ptr13drop_in_placeINtNtCsiTraAjBDcu4_5alloc7raw_vec6RawVecPaEECsjVzkUM9rR2L_13version_check, symObjAddr: 0x6C4, symBinAddr: 0x10000CF20, symSize: 0x24 }
  - { offset: 0x1C005, size: 0x8, addend: 0x0, symName: __RINvNtCsaNl6UpbT7bw_4core3ptr13drop_in_placeINtNtCsiTraAjBDcu4_5alloc7raw_vec6RawVechEECsjVzkUM9rR2L_13version_check, symObjAddr: 0x6E8, symBinAddr: 0x10000CF44, symSize: 0x24 }
  - { offset: 0x1C034, size: 0x8, addend: 0x0, symName: __RINvNtCsaNl6UpbT7bw_4core3ptr13drop_in_placeINtNtNtCsht3nMU9UgFu_3std2io5error9ErrorDataINtNtCsiTraAjBDcu4_5alloc5boxed3BoxNtBJ_6CustomEEECsjVzkUM9rR2L_13version_check, symObjAddr: 0x70C, symBinAddr: 0x10000CF68, symSize: 0x48 }
  - { offset: 0x1C063, size: 0x8, addend: 0x0, symName: __RINvNtCsaNl6UpbT7bw_4core3ptr13drop_in_placeINtNtNtNtCsiTraAjBDcu4_5alloc11collections5btree3map8BTreeMapNtNtNtCsht3nMU9UgFu_3std3ffi6os_str8OsStringINtNtB4_6option6OptionB1F_EEECsjVzkUM9rR2L_13version_check, symObjAddr: 0x754, symBinAddr: 0x10000CFB0, symSize: 0x24 }
  - { offset: 0x1C092, size: 0x8, addend: 0x0, symName: __RINvNtCsaNl6UpbT7bw_4core3ptr13drop_in_placeINtNtNtNtCsiTraAjBDcu4_5alloc11collections5btree3map8IntoIterNtNtNtCsht3nMU9UgFu_3std3ffi6os_str8OsStringINtNtB4_6option6OptionB1F_EEECsjVzkUM9rR2L_13version_check, symObjAddr: 0x778, symBinAddr: 0x10000CFD4, symSize: 0x24 }
  - { offset: 0x1C0C1, size: 0x8, addend: 0x0, symName: __RINvNtCsaNl6UpbT7bw_4core3ptr13drop_in_placeINtNvMsT_NtNtNtCsiTraAjBDcu4_5alloc11collections5btree4nodeINtBP_6HandleINtBP_7NodeRefNtNtBP_6marker5DyingpppENtB26_2KVE12drop_key_val7DropperINtNtB4_6option6OptionNtNtNtCsht3nMU9UgFu_3std3ffi6os_str8OsStringEEECsjVzkUM9rR2L_13version_check, symObjAddr: 0x79C, symBinAddr: 0x10000CFF8, symSize: 0x24 }
  - { offset: 0x1C0F0, size: 0x8, addend: 0x0, symName: __RINvNtCsaNl6UpbT7bw_4core3ptr13drop_in_placeINtNvNtCsht3nMU9UgFu_3std2io17default_write_fmt7AdapterNtNtNtNtBN_3sys5stdio4unix6StderrEECsjVzkUM9rR2L_13version_check, symObjAddr: 0x7C0, symBinAddr: 0x10000D01C, symSize: 0x24 }
  - { offset: 0x1C11F, size: 0x8, addend: 0x0, symName: __RINvNtCsaNl6UpbT7bw_4core3ptr13drop_in_placeINtNvXsw_NtNtNtCsiTraAjBDcu4_5alloc11collections5btree3mapINtBP_8IntoIterpppENtNtNtB4_3ops4drop4Drop4drop9DropGuardNtNtNtCsht3nMU9UgFu_3std3ffi6os_str8OsStringINtNtB4_6option6OptionB2x_ENtNtBV_5alloc6GlobalEECsjVzkUM9rR2L_13version_check, symObjAddr: 0x7E4, symBinAddr: 0x10000D040, symSize: 0x24 }
  - { offset: 0x1C14E, size: 0x8, addend: 0x0, symName: __RINvNtCsaNl6UpbT7bw_4core3ptr13drop_in_placeNtNtCsht3nMU9UgFu_3std3env8VarErrorECsjVzkUM9rR2L_13version_check, symObjAddr: 0x808, symBinAddr: 0x10000D064, symSize: 0x48 }
  - { offset: 0x1C17D, size: 0x8, addend: 0x0, symName: __RINvNtCsaNl6UpbT7bw_4core3ptr13drop_in_placeNtNtCsht3nMU9UgFu_3std7process6OutputECsjVzkUM9rR2L_13version_check, symObjAddr: 0x850, symBinAddr: 0x10000D0AC, symSize: 0x60 }
  - { offset: 0x1C1AC, size: 0x8, addend: 0x0, symName: __RINvNtCsaNl6UpbT7bw_4core3ptr13drop_in_placeNtNtCsht3nMU9UgFu_3std7process7CommandECsjVzkUM9rR2L_13version_check, symObjAddr: 0x8B0, symBinAddr: 0x10000D10C, symSize: 0x24 }
  - { offset: 0x1C1DB, size: 0x8, addend: 0x0, symName: __RINvNtCsaNl6UpbT7bw_4core3ptr13drop_in_placeNtNtCsiTraAjBDcu4_5alloc6string13FromUtf8ErrorECsjVzkUM9rR2L_13version_check, symObjAddr: 0x8D4, symBinAddr: 0x10000D130, symSize: 0x24 }
  - { offset: 0x1C20A, size: 0x8, addend: 0x0, symName: __RINvNtCsaNl6UpbT7bw_4core3ptr13drop_in_placeNtNtCsiTraAjBDcu4_5alloc6string6StringECsjVzkUM9rR2L_13version_check, symObjAddr: 0x8F8, symBinAddr: 0x10000D154, symSize: 0x24 }
  - { offset: 0x1C239, size: 0x8, addend: 0x0, symName: __RINvNtCsaNl6UpbT7bw_4core3ptr13drop_in_placeNtNtNtCsht3nMU9UgFu_3std2io5error5ErrorECsjVzkUM9rR2L_13version_check, symObjAddr: 0x91C, symBinAddr: 0x10000D178, symSize: 0x24 }
  - { offset: 0x1C268, size: 0x8, addend: 0x0, symName: __RINvNtCsaNl6UpbT7bw_4core3ptr13drop_in_placeNtNtNtCsht3nMU9UgFu_3std2io5error6CustomECsjVzkUM9rR2L_13version_check, symObjAddr: 0x940, symBinAddr: 0x10000D19C, symSize: 0x24 }
  - { offset: 0x1C297, size: 0x8, addend: 0x0, symName: __RINvNtCsaNl6UpbT7bw_4core3ptr13drop_in_placeNtNtNtCsht3nMU9UgFu_3std3ffi6os_str8OsStringECsjVzkUM9rR2L_13version_check, symObjAddr: 0x964, symBinAddr: 0x10000D1C0, symSize: 0x24 }
  - { offset: 0x1C2C6, size: 0x8, addend: 0x0, symName: __RINvNtCsaNl6UpbT7bw_4core3ptr13drop_in_placeNtNtNtCsiTraAjBDcu4_5alloc3ffi5c_str7CStringECsjVzkUM9rR2L_13version_check, symObjAddr: 0x988, symBinAddr: 0x10000D1E4, symSize: 0x5C }
  - { offset: 0x1C2F5, size: 0x8, addend: 0x0, symName: __RINvNtCsaNl6UpbT7bw_4core3ptr13drop_in_placeNtNtNtNtCsht3nMU9UgFu_3std2io5error14repr_bitpacked4ReprECsjVzkUM9rR2L_13version_check, symObjAddr: 0x9E4, symBinAddr: 0x10000D240, symSize: 0x24 }
  - { offset: 0x1C324, size: 0x8, addend: 0x0, symName: __RINvNtCsaNl6UpbT7bw_4core3ptr13drop_in_placeNtNtNtNtCsht3nMU9UgFu_3std2os2fd5owned7OwnedFdECsjVzkUM9rR2L_13version_check, symObjAddr: 0xA08, symBinAddr: 0x10000D264, symSize: 0x24 }
  - { offset: 0x1C353, size: 0x8, addend: 0x0, symName: __RINvNtCsaNl6UpbT7bw_4core3ptr13drop_in_placeNtNtNtNtCsht3nMU9UgFu_3std3sys2fd4unix8FileDescECsjVzkUM9rR2L_13version_check, symObjAddr: 0xA2C, symBinAddr: 0x10000D288, symSize: 0x24 }
  - { offset: 0x1C382, size: 0x8, addend: 0x0, symName: __RINvNtCsaNl6UpbT7bw_4core3ptr13drop_in_placeNtNtNtNtCsht3nMU9UgFu_3std3sys6os_str5bytes3BufECsjVzkUM9rR2L_13version_check, symObjAddr: 0xA50, symBinAddr: 0x10000D2AC, symSize: 0x24 }
  - { offset: 0x1C3B1, size: 0x8, addend: 0x0, symName: __RINvNtCsaNl6UpbT7bw_4core3ptr13drop_in_placeNtNtNtNtCsht3nMU9UgFu_3std3sys7process3env10CommandEnvECsjVzkUM9rR2L_13version_check, symObjAddr: 0xA74, symBinAddr: 0x10000D2D0, symSize: 0x24 }
  - { offset: 0x1C3E0, size: 0x8, addend: 0x0, symName: __RINvNtCsaNl6UpbT7bw_4core3ptr13drop_in_placeNtNtNtNtNtCsht3nMU9UgFu_3std3sys7process4unix6common5StdioECsjVzkUM9rR2L_13version_check, symObjAddr: 0xA98, symBinAddr: 0x10000D2F4, symSize: 0x44 }
  - { offset: 0x1C40F, size: 0x8, addend: 0x0, symName: __RINvNtCsaNl6UpbT7bw_4core3ptr13drop_in_placeNtNtNtNtNtCsht3nMU9UgFu_3std3sys7process4unix6common7CommandECsjVzkUM9rR2L_13version_check, symObjAddr: 0xADC, symBinAddr: 0x10000D338, symSize: 0x1DC }
  - { offset: 0x1C43E, size: 0x8, addend: 0x0, symName: __RINvNtCsaNl6UpbT7bw_4core3ptr13drop_in_placeNtNtNtNtNtNtCsht3nMU9UgFu_3std3sys7process4unix6common13cstring_array12CStringArrayECsjVzkUM9rR2L_13version_check, symObjAddr: 0xCB8, symBinAddr: 0x10000D514, symSize: 0x5C }
  - { offset: 0x1C46D, size: 0x8, addend: 0x0, symName: __RINvNtCsaNl6UpbT7bw_4core3ptr13drop_in_placeNtNvNtNtNtCsiTraAjBDcu4_5alloc11collections5btree3mem7replace10PanicGuardECsjVzkUM9rR2L_13version_check, symObjAddr: 0xD14, symBinAddr: 0x10000D570, symSize: 0x24 }
  - { offset: 0x1C49C, size: 0x8, addend: 0x0, symName: __RINvNtCsaNl6UpbT7bw_4core3ptr13drop_in_placeSINtNtCsiTraAjBDcu4_5alloc5boxed3BoxDINtNtNtB4_3ops8function5FnMutuEp6OutputINtNtB4_6result6ResultuNtNtNtCsht3nMU9UgFu_3std2io5error5ErrorENtNtB4_6marker4SyncNtB2X_4SendEL_EECsjVzkUM9rR2L_13version_check, symObjAddr: 0xD38, symBinAddr: 0x10000D594, symSize: 0xB4 }
  - { offset: 0x1C4CB, size: 0x8, addend: 0x0, symName: __RINvNtCsaNl6UpbT7bw_4core3ptr13drop_in_placeTNtNtNtCsht3nMU9UgFu_3std3ffi6os_str8OsStringcEECsjVzkUM9rR2L_13version_check, symObjAddr: 0xE4C, symBinAddr: 0x10000D648, symSize: 0x24 }
  - { offset: 0x1C67F, size: 0x8, addend: 0x0, symName: __RNvNvMs1_NtNtCsaNl6UpbT7bw_4core3ptr8non_nullINtB7_7NonNullpE13new_unchecked18precondition_checkCsjVzkUM9rR2L_13version_check, symObjAddr: 0x18A8, symBinAddr: 0x10000E07C, symSize: 0xA4 }
  - { offset: 0x1C8E3, size: 0x8, addend: 0x0, symName: __RNvNvMNtNtCsaNl6UpbT7bw_4core3ptr9const_ptrPp20offset_from_unsigned18precondition_checkCsjVzkUM9rR2L_13version_check, symObjAddr: 0x17FC, symBinAddr: 0x10000DFD0, symSize: 0xAC }
  - { offset: 0x1CA0C, size: 0x8, addend: 0x0, symName: __RNvNvNtCsaNl6UpbT7bw_4core3ptr19copy_nonoverlapping18precondition_checkCsjVzkUM9rR2L_13version_check, symObjAddr: 0x194C, symBinAddr: 0x10000E120, symSize: 0x36C }
  - { offset: 0x1CE06, size: 0x8, addend: 0x0, symName: __RNvYjNtNtCsaNl6UpbT7bw_4core3cmp3Ord3maxCsjVzkUM9rR2L_13version_check, symObjAddr: 0x2E24, symBinAddr: 0x10000F47C, symSize: 0x80 }
  - { offset: 0x1CE74, size: 0x8, addend: 0x0, symName: __RNvYjNtNtCsaNl6UpbT7bw_4core3cmp3Ord3minCsjVzkUM9rR2L_13version_check, symObjAddr: 0x2EA4, symBinAddr: 0x10000F4FC, symSize: 0x80 }
  - { offset: 0x1D0FA, size: 0x8, addend: 0x0, symName: __RINvNtNtCsaNl6UpbT7bw_4core3str11validations15next_code_pointINtNtNtB6_5slice4iter4IterhEECsjVzkUM9rR2L_13version_check, symObjAddr: 0xF40, symBinAddr: 0x10000D73C, symSize: 0x224 }
  - { offset: 0x1D3AC, size: 0x8, addend: 0x0, symName: __RINvNtNtCsaNl6UpbT7bw_4core3str11validations23next_code_point_reverseINtNtNtB6_5slice4iter4IterhEECsjVzkUM9rR2L_13version_check, symObjAddr: 0x1164, symBinAddr: 0x10000D960, symSize: 0x244 }
  - { offset: 0x1D69F, size: 0x8, addend: 0x0, symName: __RNvNvXs5_NtNtCsaNl6UpbT7bw_4core3str6traitsINtNtNtBb_3ops5range5RangejEINtNtNtBb_5slice5index10SliceIndexeE13get_unchecked18precondition_checkCsjVzkUM9rR2L_13version_check, symObjAddr: 0x1D90, symBinAddr: 0x10000E564, symSize: 0xCC }
  - { offset: 0x1D71C, size: 0x8, addend: 0x0, symName: __RNvXs2_NtNtCsaNl6UpbT7bw_4core3str6traitseINtNtNtB9_3ops5index5IndexINtNtBJ_5range9RangeFromjEE5indexCsjVzkUM9rR2L_13version_check, symObjAddr: 0x22A4, symBinAddr: 0x10000EA78, symSize: 0x44 }
  - { offset: 0x1D765, size: 0x8, addend: 0x0, symName: __RNvXs_NtNtCsaNl6UpbT7bw_4core3str6traitseNtNtB8_3cmp9PartialEq2eqCsjVzkUM9rR2L_13version_check, symObjAddr: 0x25B8, symBinAddr: 0x10000ECF0, symSize: 0x64 }
  - { offset: 0x1E3A9, size: 0x8, addend: 0x0, symName: __RNvXNtNtCsaNl6UpbT7bw_4core3ops12control_flowINtB2_11ControlFlowReENtNtB4_9try_trait3Try11from_outputCsjVzkUM9rR2L_13version_check, symObjAddr: 0x1E5C, symBinAddr: 0x10000E630, symSize: 0x18 }
  - { offset: 0x1E3E7, size: 0x8, addend: 0x0, symName: __RNvXNtNtCsaNl6UpbT7bw_4core3ops12control_flowINtB2_11ControlFlowReENtNtB4_9try_trait3Try6branchCsjVzkUM9rR2L_13version_check, symObjAddr: 0x1E74, symBinAddr: 0x10000E648, symSize: 0x64 }
  - { offset: 0x1E460, size: 0x8, addend: 0x0, symName: __RNvXNtNtCsaNl6UpbT7bw_4core3ops12control_flowINtB2_11ControlFlowuENtNtB4_9try_trait3Try11from_outputCsjVzkUM9rR2L_13version_check, symObjAddr: 0x1ED8, symBinAddr: 0x10000E6AC, symSize: 0x18 }
  - { offset: 0x1E49E, size: 0x8, addend: 0x0, symName: __RNvXNtNtCsaNl6UpbT7bw_4core3ops12control_flowINtB2_11ControlFlowuENtNtB4_9try_trait3Try6branchCsjVzkUM9rR2L_13version_check, symObjAddr: 0x1EF0, symBinAddr: 0x10000E6C4, symSize: 0x40 }
  - { offset: 0x1E51C, size: 0x8, addend: 0x0, symName: __RNvXs8_NtNtCsaNl6UpbT7bw_4core3ops12control_flowINtB5_11ControlFlowuENtNtB9_3cmp9PartialEq2eqCsjVzkUM9rR2L_13version_check, symObjAddr: 0x2384, symBinAddr: 0x10000EABC, symSize: 0xEC }
  - { offset: 0x1E63B, size: 0x8, addend: 0x0, symName: __RNvXs_NtNtCsaNl6UpbT7bw_4core3ops12control_flowINtB4_11ControlFlowReEINtNtB6_9try_trait12FromResidualIBK_B12_NtNtB8_7convert10InfallibleEE13from_residualCsjVzkUM9rR2L_13version_check, symObjAddr: 0x2570, symBinAddr: 0x10000ECA8, symSize: 0x2C }
  - { offset: 0x1E679, size: 0x8, addend: 0x0, symName: __RNvXs_NtNtCsaNl6UpbT7bw_4core3ops12control_flowINtB4_11ControlFlowuEINtNtB6_9try_trait12FromResidualIBK_uNtNtB8_7convert10InfallibleEE13from_residualCsjVzkUM9rR2L_13version_check, symObjAddr: 0x259C, symBinAddr: 0x10000ECD4, symSize: 0x1C }
  - { offset: 0x1E9A7, size: 0x8, addend: 0x0, symName: __RNvYINvNvNtNtNtNtCsaNl6UpbT7bw_4core4iter6traits8iterator8Iterator4last4someReEINtNtNtBf_3ops8function5FnMutTINtNtBf_6option6OptionB1c_EB1c_EE8call_mutCsjVzkUM9rR2L_13version_check, symObjAddr: 0x2918, symBinAddr: 0x10000F050, symSize: 0x40 }
  - { offset: 0x1E9EB, size: 0x8, addend: 0x0, symName: __RNvYNvMNtNtCsaNl6UpbT7bw_4core4char7methodsc13is_whitespaceINtNtNtB9_3ops8function5FnMutTcEE8call_mutCsjVzkUM9rR2L_13version_check, symObjAddr: 0x2DFC, symBinAddr: 0x10000F454, symSize: 0x28 }
  - { offset: 0x1EADE, size: 0x8, addend: 0x0, symName: __RINvNvNtNtNtNtCsaNl6UpbT7bw_4core4iter6traits8iterator8Iterator4last4someReECsjVzkUM9rR2L_13version_check, symObjAddr: 0x13A8, symBinAddr: 0x10000DBA4, symSize: 0x30 }
  - { offset: 0x1EB28, size: 0x8, addend: 0x0, symName: __RNCINvNvNtNtNtNtCsaNl6UpbT7bw_4core4iter6traits8iterator8Iterator3any5checkReNCNvCsjVzkUM9rR2L_13version_check16supports_features3_0E0B1h_, symObjAddr: 0x13D8, symBinAddr: 0x10000DBD4, symSize: 0x54 }
  - { offset: 0x1EB90, size: 0x8, addend: 0x0, symName: __RNCINvNvNtNtNtNtCsaNl6UpbT7bw_4core4iter6traits8iterator8Iterator4find5checkReQNCNvCsjVzkUM9rR2L_13version_check35version_and_date_from_rustc_version0E0B1j_, symObjAddr: 0x142C, symBinAddr: 0x10000DC28, symSize: 0x84 }
  - { offset: 0x1EBFD, size: 0x8, addend: 0x0, symName: __RNCNvXs_NvNtNtNtNtCsaNl6UpbT7bw_4core4iter6traits8iterator8Iterator10advance_byINtNtNtBg_3str4iter5SplitReENtB6_13SpecAdvanceBy15spec_advance_by0CsjVzkUM9rR2L_13version_check, symObjAddr: 0x14B0, symBinAddr: 0x10000DCAC, symSize: 0x24 }
  - { offset: 0x1EC4A, size: 0x8, addend: 0x0, symName: __RNCNvXs_NvNtNtNtNtCsaNl6UpbT7bw_4core4iter6traits8iterator8Iterator10advance_byINtNtNtBg_3str4iter6SplitNReENtB6_13SpecAdvanceBy15spec_advance_by0CsjVzkUM9rR2L_13version_check, symObjAddr: 0x14F8, symBinAddr: 0x10000DCD0, symSize: 0x24 }
  - { offset: 0x1EE71, size: 0x8, addend: 0x0, symName: __RNvXs2V_NtNtCsaNl6UpbT7bw_4core5slice4iterINtB6_4IterhENtNtNtNtBa_4iter6traits8iterator8Iterator4nextCsjVzkUM9rR2L_13version_check, symObjAddr: 0x206C, symBinAddr: 0x10000E840, symSize: 0xB0 }
  - { offset: 0x1F028, size: 0x8, addend: 0x0, symName: __RNvXs2W_NtNtCsaNl6UpbT7bw_4core5slice4iterINtB6_4IterhENtNtNtNtBa_4iter6traits12double_ended19DoubleEndedIterator9next_backCsjVzkUM9rR2L_13version_check, symObjAddr: 0x211C, symBinAddr: 0x10000E8F0, symSize: 0x108 }
  - { offset: 0x1F93F, size: 0x8, addend: 0x0, symName: __RNvNvNtCsaNl6UpbT7bw_4core9ub_checks23maybe_is_nonoverlapping7runtimeCsjVzkUM9rR2L_13version_check, symObjAddr: 0x1CB8, symBinAddr: 0x10000E48C, symSize: 0xD8 }
  - { offset: 0x1FC3D, size: 0x8, addend: 0x0, symName: __RNCNvMNtCsjVzkUM9rR2L_13version_check7channelNtB4_7Channel4read0B6_, symObjAddr: 0x373C, symBinAddr: 0x10000F5C8, symSize: 0x44 }
  - { offset: 0x1FC70, size: 0x8, addend: 0x0, symName: __RNCNvMNtCsjVzkUM9rR2L_13version_check7channelNtB4_7Channel4reads_0B6_, symObjAddr: 0x3780, symBinAddr: 0x10000F60C, symSize: 0x84 }
  - { offset: 0x1FF2B, size: 0x8, addend: 0x0, symName: __RNvXs1_NtCsiTraAjBDcu4_5alloc5allocNtB5_6GlobalNtNtCsaNl6UpbT7bw_4core5clone5Clone5cloneCsjVzkUM9rR2L_13version_check, symObjAddr: 0x205C, symBinAddr: 0x10000E830, symSize: 0x10 }
  - { offset: 0x1FF7C, size: 0x8, addend: 0x0, symName: __RNvXs_NtCsiTraAjBDcu4_5alloc5allocNtB4_6GlobalNtNtCsaNl6UpbT7bw_4core5alloc9Allocator10deallocateCsjVzkUM9rR2L_13version_check, symObjAddr: 0x24F0, symBinAddr: 0x10000EC28, symSize: 0x80 }
  - { offset: 0x20210, size: 0x8, addend: 0x0, symName: __RNvXs1V_NtCsiTraAjBDcu4_5alloc6stringeNtB6_12SpecToString14spec_to_stringCsjVzkUM9rR2L_13version_check, symObjAddr: 0x200C, symBinAddr: 0x10000E7E0, symSize: 0x50 }
  - { offset: 0x20339, size: 0x8, addend: 0x0, symName: __RNvXss_NtCsiTraAjBDcu4_5alloc6stringNtB5_6StringNtNtNtCsaNl6UpbT7bw_4core3ops5deref5Deref5derefCsjVzkUM9rR2L_13version_check, symObjAddr: 0x26A0, symBinAddr: 0x10000EDD8, symSize: 0x24 }
  - { offset: 0x2036D, size: 0x8, addend: 0x0, symName: __RNvXsq_NtCsiTraAjBDcu4_5alloc6stringNtB5_6StringINtNtNtCsaNl6UpbT7bw_4core3ops5index5IndexNtNtBP_5range9RangeFullE5indexCsjVzkUM9rR2L_13version_check, symObjAddr: 0x261C, symBinAddr: 0x10000ED54, symSize: 0x84 }
  - { offset: 0x204BD, size: 0x8, addend: 0x0, symName: __RNvXsw_NtCsiTraAjBDcu4_5alloc6stringeNtB5_8ToString9to_stringCsjVzkUM9rR2L_13version_check, symObjAddr: 0x2854, symBinAddr: 0x10000EF8C, symSize: 0x28 }
  - { offset: 0x205D7, size: 0x8, addend: 0x0, symName: __RNvXNtNtNtCsiTraAjBDcu4_5alloc11collections5btree3mapINtB2_8BTreeMapNtNtNtCsht3nMU9UgFu_3std3ffi6os_str8OsStringINtNtCsaNl6UpbT7bw_4core6option6OptionB14_EENtNtNtB1R_3ops4drop4Drop4dropCsjVzkUM9rR2L_13version_check, symObjAddr: 0x1F30, symBinAddr: 0x10000E704, symSize: 0x4C }
  - { offset: 0x20664, size: 0x8, addend: 0x0, symName: __RNvXNvXsw_NtNtNtCsiTraAjBDcu4_5alloc11collections5btree3mapINtB8_8IntoIterpppENtNtNtCsaNl6UpbT7bw_4core3ops4drop4Drop4dropINtB2_9DropGuardNtNtNtCsht3nMU9UgFu_3std3ffi6os_str8OsStringINtNtB1k_6option6OptionB2c_ENtNtBe_5alloc6GlobalEB1e_4dropCsjVzkUM9rR2L_13version_check, symObjAddr: 0x1F7C, symBinAddr: 0x10000E750, symSize: 0x64 }
  - { offset: 0x206F9, size: 0x8, addend: 0x0, symName: __RNvXsw_NtNtNtCsiTraAjBDcu4_5alloc11collections5btree3mapINtB5_8IntoIterNtNtNtCsht3nMU9UgFu_3std3ffi6os_str8OsStringINtNtCsaNl6UpbT7bw_4core6option6OptionB17_EENtNtNtB1U_3ops4drop4Drop4dropCsjVzkUM9rR2L_13version_check, symObjAddr: 0x287C, symBinAddr: 0x10000EFB4, symSize: 0x9C }
  - { offset: 0x20770, size: 0x8, addend: 0x0, symName: __RNvXsv_NtNtNtCsiTraAjBDcu4_5alloc11collections5btree3mapINtB5_8BTreeMapNtNtNtCsht3nMU9UgFu_3std3ffi6os_str8OsStringINtNtCsaNl6UpbT7bw_4core6option6OptionB17_EENtNtNtNtB1U_4iter6traits7collect12IntoIterator9into_iterCsjVzkUM9rR2L_13version_check, symObjAddr: 0x26C4, symBinAddr: 0x10000EDFC, symSize: 0x190 }
  - { offset: 0x20D01, size: 0x8, addend: 0x0, symName: __RNvXs0_NtCsiTraAjBDcu4_5alloc3strNtNtB7_6string6StringINtNtCsaNl6UpbT7bw_4core6borrow6BorroweE6borrowCsjVzkUM9rR2L_13version_check, symObjAddr: 0x1FE0, symBinAddr: 0x10000E7B4, symSize: 0x2C }
  - { offset: 0x20DF8, size: 0x8, addend: 0x0, symName: __RNvXs2_NtCsiTraAjBDcu4_5alloc6borrowINtB5_3CoweENtNtNtCsaNl6UpbT7bw_4core3ops5deref5Deref5derefCsjVzkUM9rR2L_13version_check, symObjAddr: 0x2224, symBinAddr: 0x10000E9F8, symSize: 0x80 }
  - { offset: 0x21022, size: 0x8, addend: 0x0, symName: __RNvMNtCsiTraAjBDcu4_5alloc6stringNtB2_6String6as_strCsjVzkUM9rR2L_13version_check, symObjAddr: 0x151C, symBinAddr: 0x10000DCF4, symSize: 0x78 }
  - { offset: 0x211C0, size: 0x8, addend: 0x0, symName: __RNvMNtCsiTraAjBDcu4_5alloc6stringNtB2_6String9from_utf8CsjVzkUM9rR2L_13version_check, symObjAddr: 0x1594, symBinAddr: 0x10000DD6C, symSize: 0x158 }
  - { offset: 0x212E0, size: 0x8, addend: 0x0, symName: __RNvMs1_NtNtCsaNl6UpbT7bw_4core3ptr8non_nullINtB5_7NonNullhE20offset_from_unsignedCsjVzkUM9rR2L_13version_check, symObjAddr: 0x16EC, symBinAddr: 0x10000DEC4, symSize: 0x7C }
  - { offset: 0x2144F, size: 0x8, addend: 0x0, symName: __RNvMsx_NtNtNtCsiTraAjBDcu4_5alloc11collections5btree3mapINtB5_8IntoIterNtNtNtCsht3nMU9UgFu_3std3ffi6os_str8OsStringINtNtCsaNl6UpbT7bw_4core6option6OptionB17_EE10dying_nextCsjVzkUM9rR2L_13version_check, symObjAddr: 0x1768, symBinAddr: 0x10000DF40, symSize: 0x90 }
  - { offset: 0x21BD6, size: 0x8, addend: 0x0, symName: __RNvMNtCsjVzkUM9rR2L_13version_check7channelNtB2_7Channel4read, symObjAddr: 0x36F0, symBinAddr: 0x10000F57C, symSize: 0x4C }
  - { offset: 0x21BE9, size: 0x8, addend: 0x0, symName: __RNvMNtCsjVzkUM9rR2L_13version_check7channelNtB2_7Channel5parse, symObjAddr: 0x3804, symBinAddr: 0x10000F690, symSize: 0x224 }
  - { offset: 0x21C2D, size: 0x8, addend: 0x0, symName: __RNvMNtCsjVzkUM9rR2L_13version_check7channelNtB2_7Channel17supports_features, symObjAddr: 0x3B24, symBinAddr: 0x10000F8B4, symSize: 0x6C }
  - { offset: 0x22130, size: 0x8, addend: 0x0, symName: ___llvm_profile_get_magic, symObjAddr: 0x28, symBinAddr: 0x10000F920, symSize: 0x14 }
  - { offset: 0x22151, size: 0x8, addend: 0x0, symName: ___llvm_profile_get_num_padding_bytes, symObjAddr: 0x44, symBinAddr: 0x10000F934, symSize: 0xC }
  - { offset: 0x22159, size: 0x8, addend: 0x0, symName: ___llvm_profile_get_version, symObjAddr: 0x50, symBinAddr: 0x10000F940, symSize: 0xC }
  - { offset: 0x22182, size: 0x8, addend: 0x0, symName: ___llvm_profile_get_version, symObjAddr: 0x50, symBinAddr: 0x10000F940, symSize: 0xC }
  - { offset: 0x221F7, size: 0x8, addend: 0x0, symName: ___llvm_profile_is_continuous_mode_enabled, symObjAddr: 0x0, symBinAddr: 0x10000F94C, symSize: 0x20 }
  - { offset: 0x22214, size: 0x8, addend: 0x0, symName: __MergedGlobals, symObjAddr: 0x3E20, symBinAddr: 0x10006DA70, symSize: 0x0 }
  - { offset: 0x22236, size: 0x8, addend: 0x0, symName: __MergedGlobals, symObjAddr: 0x3E20, symBinAddr: 0x10006DA70, symSize: 0x0 }
  - { offset: 0x22266, size: 0x8, addend: 0x0, symName: ___llvm_profile_is_continuous_mode_enabled, symObjAddr: 0x0, symBinAddr: 0x10000F94C, symSize: 0x20 }
  - { offset: 0x2226E, size: 0x8, addend: 0x0, symName: ___llvm_profile_enable_continuous_mode, symObjAddr: 0x20, symBinAddr: 0x10000F96C, symSize: 0x10 }
  - { offset: 0x2227E, size: 0x8, addend: 0x0, symName: ___llvm_profile_enable_continuous_mode, symObjAddr: 0x20, symBinAddr: 0x10000F96C, symSize: 0x10 }
  - { offset: 0x22286, size: 0x8, addend: 0x0, symName: ___llvm_profile_disable_continuous_mode, symObjAddr: 0x30, symBinAddr: 0x10000F97C, symSize: 0xC }
  - { offset: 0x2229B, size: 0x8, addend: 0x0, symName: ___llvm_profile_disable_continuous_mode, symObjAddr: 0x30, symBinAddr: 0x10000F97C, symSize: 0xC }
  - { offset: 0x222A3, size: 0x8, addend: 0x0, symName: ___llvm_profile_set_page_size, symObjAddr: 0x3C, symBinAddr: 0x10000F988, symSize: 0xC }
  - { offset: 0x222B8, size: 0x8, addend: 0x0, symName: ___llvm_profile_set_page_size, symObjAddr: 0x3C, symBinAddr: 0x10000F988, symSize: 0xC }
  - { offset: 0x222C0, size: 0x8, addend: 0x0, symName: ___llvm_profile_get_size_for_buffer, symObjAddr: 0x48, symBinAddr: 0x10000F994, symSize: 0xC4 }
  - { offset: 0x222E3, size: 0x8, addend: 0x0, symName: ___llvm_profile_get_size_for_buffer, symObjAddr: 0x48, symBinAddr: 0x10000F994, symSize: 0xC4 }
  - { offset: 0x222EB, size: 0x8, addend: 0x0, symName: ___llvm_profile_get_size_for_buffer_internal, symObjAddr: 0x10C, symBinAddr: 0x10000FA58, symSize: 0x1C0 }
  - { offset: 0x2274E, size: 0x8, addend: 0x0, symName: ___llvm_profile_get_size_for_buffer_internal, symObjAddr: 0x10C, symBinAddr: 0x10000FA58, symSize: 0x1C0 }
  - { offset: 0x22756, size: 0x8, addend: 0x0, symName: ___llvm_profile_get_num_data, symObjAddr: 0x2CC, symBinAddr: 0x10000FC18, symSize: 0x10 }
  - { offset: 0x22B45, size: 0x8, addend: 0x0, symName: ___llvm_profile_get_num_data, symObjAddr: 0x2CC, symBinAddr: 0x10000FC18, symSize: 0x10 }
  - { offset: 0x22B4D, size: 0x8, addend: 0x0, symName: ___llvm_profile_get_data_size, symObjAddr: 0x2DC, symBinAddr: 0x10000FC28, symSize: 0x10 }
  - { offset: 0x22B7E, size: 0x8, addend: 0x0, symName: ___llvm_profile_get_data_size, symObjAddr: 0x2DC, symBinAddr: 0x10000FC28, symSize: 0x10 }
  - { offset: 0x22B86, size: 0x8, addend: 0x0, symName: ___llvm_profile_get_num_vtable, symObjAddr: 0x2EC, symBinAddr: 0x10000FC38, symSize: 0x18 }
  - { offset: 0x22BAA, size: 0x8, addend: 0x0, symName: ___llvm_profile_get_data_size, symObjAddr: 0x2DC, symBinAddr: 0x10000FC28, symSize: 0x10 }
  - { offset: 0x22BDC, size: 0x8, addend: 0x0, symName: ___llvm_profile_get_num_vtable, symObjAddr: 0x2EC, symBinAddr: 0x10000FC38, symSize: 0x18 }
  - { offset: 0x22BE4, size: 0x8, addend: 0x0, symName: ___llvm_profile_get_vtable_section_size, symObjAddr: 0x304, symBinAddr: 0x10000FC50, symSize: 0x8 }
  - { offset: 0x22C36, size: 0x8, addend: 0x0, symName: ___llvm_profile_get_vtable_section_size, symObjAddr: 0x304, symBinAddr: 0x10000FC50, symSize: 0x8 }
  - { offset: 0x22C3E, size: 0x8, addend: 0x0, symName: ___llvm_profile_counter_entry_size, symObjAddr: 0x30C, symBinAddr: 0x10000FC58, symSize: 0x1C }
  - { offset: 0x22C5F, size: 0x8, addend: 0x0, symName: ___llvm_profile_counter_entry_size, symObjAddr: 0x30C, symBinAddr: 0x10000FC58, symSize: 0x1C }
  - { offset: 0x22C67, size: 0x8, addend: 0x0, symName: ___llvm_profile_get_num_counters, symObjAddr: 0x328, symBinAddr: 0x10000FC74, symSize: 0x48 }
  - { offset: 0x22C77, size: 0x8, addend: 0x0, symName: ___llvm_profile_get_num_counters, symObjAddr: 0x328, symBinAddr: 0x10000FC74, symSize: 0x48 }
  - { offset: 0x22C7F, size: 0x8, addend: 0x0, symName: ___llvm_profile_get_counters_size, symObjAddr: 0x370, symBinAddr: 0x10000FCBC, symSize: 0x5C }
  - { offset: 0x22CE4, size: 0x8, addend: 0x0, symName: ___llvm_profile_get_counters_size, symObjAddr: 0x370, symBinAddr: 0x10000FCBC, symSize: 0x5C }
  - { offset: 0x22CEC, size: 0x8, addend: 0x0, symName: ___llvm_profile_get_num_bitmap_bytes, symObjAddr: 0x3CC, symBinAddr: 0x10000FD18, symSize: 0x8 }
  - { offset: 0x22D90, size: 0x8, addend: 0x0, symName: ___llvm_profile_get_num_bitmap_bytes, symObjAddr: 0x3CC, symBinAddr: 0x10000FD18, symSize: 0x8 }
  - { offset: 0x22D98, size: 0x8, addend: 0x0, symName: ___llvm_profile_get_name_size, symObjAddr: 0x3D4, symBinAddr: 0x10000FD20, symSize: 0x8 }
  - { offset: 0x22DB9, size: 0x8, addend: 0x0, symName: ___llvm_profile_get_name_size, symObjAddr: 0x3D4, symBinAddr: 0x10000FD20, symSize: 0x8 }
  - { offset: 0x22DC1, size: 0x8, addend: 0x0, symName: ___llvm_profile_get_padding_sizes_for_counters, symObjAddr: 0x3DC, symBinAddr: 0x10000FD28, symSize: 0x15C }
  - { offset: 0x22DE2, size: 0x8, addend: 0x0, symName: ___llvm_profile_get_padding_sizes_for_counters, symObjAddr: 0x3DC, symBinAddr: 0x10000FD28, symSize: 0x15C }
  - { offset: 0x22DEA, size: 0x8, addend: 0x0, symName: _initBufferWriter, symObjAddr: 0x538, symBinAddr: 0x10000FE84, symSize: 0x10 }
  - { offset: 0x22F3E, size: 0x8, addend: 0x0, symName: _initBufferWriter, symObjAddr: 0x538, symBinAddr: 0x10000FE84, symSize: 0x10 }
  - { offset: 0x230A9, size: 0x8, addend: 0x0, symName: __MergedGlobals, symObjAddr: 0xA4D8, symBinAddr: 0x10006DA80, symSize: 0x0 }
  - { offset: 0x231C7, size: 0x8, addend: 0x0, symName: __MergedGlobals, symObjAddr: 0xA4D8, symBinAddr: 0x10006DA80, symSize: 0x0 }
  - { offset: 0x233F8, size: 0x8, addend: 0x0, symName: __MergedGlobals, symObjAddr: 0xA4D8, symBinAddr: 0x10006DA80, symSize: 0x0 }
  - { offset: 0x23520, size: 0x8, addend: 0x0, symName: _getCurFilenameLength, symObjAddr: 0x1C8, symBinAddr: 0x10000FE94, symSize: 0x108 }
  - { offset: 0x23528, size: 0x8, addend: 0x0, symName: _getCurFilename, symObjAddr: 0x2D0, symBinAddr: 0x10000FF9C, symSize: 0x2B8 }
  - { offset: 0x235AB, size: 0x8, addend: 0x0, symName: _getCurFilename, symObjAddr: 0x2D0, symBinAddr: 0x10000FF9C, symSize: 0x2B8 }
  - { offset: 0x237DC, size: 0x8, addend: 0x0, symName: _parseAndSetFilename, symObjAddr: 0x688, symBinAddr: 0x100010254, symSize: 0x4B8 }
  - { offset: 0x237E4, size: 0x8, addend: 0x0, symName: ___llvm_profile_initialize, symObjAddr: 0xB40, symBinAddr: 0x10001070C, symSize: 0xB8 }
  - { offset: 0x239CC, size: 0x8, addend: 0x0, symName: ___llvm_profile_initialize, symObjAddr: 0xB40, symBinAddr: 0x10001070C, symSize: 0xB8 }
  - { offset: 0x23A48, size: 0x8, addend: 0x0, symName: ___llvm_profile_write_file, symObjAddr: 0xC74, symBinAddr: 0x1000107C4, symSize: 0x1B4 }
  - { offset: 0x23A50, size: 0x8, addend: 0x0, symName: _writeFile, symObjAddr: 0xE28, symBinAddr: 0x100010978, symSize: 0x294 }
  - { offset: 0x23BAB, size: 0x8, addend: 0x0, symName: _writeFile, symObjAddr: 0xE28, symBinAddr: 0x100010978, symSize: 0x294 }
  - { offset: 0x23D1F, size: 0x8, addend: 0x0, symName: _writeFileWithoutReturn, symObjAddr: 0x138C, symBinAddr: 0x100010C0C, symSize: 0x4 }
  - { offset: 0x23D56, size: 0x8, addend: 0x0, symName: _getProfileFileSizeForMerging, symObjAddr: 0x1574, symBinAddr: 0x100010C10, symSize: 0x110 }
  - { offset: 0x23D5E, size: 0x8, addend: 0x0, symName: _mmapProfileForMerging, symObjAddr: 0x1684, symBinAddr: 0x100010D20, symSize: 0xBC }
  - { offset: 0x23D9B, size: 0x8, addend: 0x0, symName: _mmapProfileForMerging, symObjAddr: 0x1684, symBinAddr: 0x100010D20, symSize: 0xBC }
  - { offset: 0x23DA3, size: 0x8, addend: 0x0, symName: _mmapForContinuousMode, symObjAddr: 0x1740, symBinAddr: 0x100010DDC, symSize: 0x264 }
  - { offset: 0x23DF1, size: 0x8, addend: 0x0, symName: _mmapForContinuousMode, symObjAddr: 0x1740, symBinAddr: 0x100010DDC, symSize: 0x264 }
  - { offset: 0x23DF9, size: 0x8, addend: 0x0, symName: _fileWriter, symObjAddr: 0x19A4, symBinAddr: 0x100011040, symSize: 0x140 }
  - { offset: 0x23FB8, size: 0x8, addend: 0x0, symName: _fileWriter, symObjAddr: 0x19A4, symBinAddr: 0x100011040, symSize: 0x140 }
  - { offset: 0x23FC0, size: 0x8, addend: 0x0, symName: _truncateCurrentFile, symObjAddr: 0x1AE4, symBinAddr: 0x100011180, symSize: 0xD8 }
  - { offset: 0x24088, size: 0x8, addend: 0x0, symName: _truncateCurrentFile, symObjAddr: 0x1AE4, symBinAddr: 0x100011180, symSize: 0xD8 }
  - { offset: 0x24090, size: 0x8, addend: 0x0, symName: _initializeProfileForContinuousMode, symObjAddr: 0x1BBC, symBinAddr: 0x100011258, symSize: 0x25C }
  - { offset: 0x2412E, size: 0x8, addend: 0x0, symName: _initializeProfileForContinuousMode, symObjAddr: 0x1BBC, symBinAddr: 0x100011258, symSize: 0x25C }
  - { offset: 0x24136, size: 0x8, addend: 0x0, symName: _createProfileDir, symObjAddr: 0x1E18, symBinAddr: 0x1000114B4, symSize: 0xA4 }
  - { offset: 0x24303, size: 0x8, addend: 0x0, symName: _createProfileDir, symObjAddr: 0x1E18, symBinAddr: 0x1000114B4, symSize: 0xA4 }
  - { offset: 0x2430B, size: 0x8, addend: 0x0, symName: _parseAndSetFilename.cold.1, symObjAddr: 0x1EBC, symBinAddr: 0x10004A140, symSize: 0x24 }
  - { offset: 0x24368, size: 0x8, addend: 0x0, symName: _parseAndSetFilename.cold.1, symObjAddr: 0x1EBC, symBinAddr: 0x10004A140, symSize: 0x24 }
  - { offset: 0x24370, size: 0x8, addend: 0x0, symName: _parseAndSetFilename.cold.2, symObjAddr: 0x1EE0, symBinAddr: 0x10004A164, symSize: 0x24 }
  - { offset: 0x24392, size: 0x8, addend: 0x0, symName: _parseAndSetFilename.cold.2, symObjAddr: 0x1EE0, symBinAddr: 0x10004A164, symSize: 0x24 }
  - { offset: 0x243AC, size: 0x8, addend: 0x0, symName: _parseAndSetFilename.cold.2, symObjAddr: 0x1EE0, symBinAddr: 0x10004A164, symSize: 0x24 }
  - { offset: 0x243BC, size: 0x8, addend: 0x0, symName: _parseAndSetFilename.cold.2, symObjAddr: 0x1EE0, symBinAddr: 0x10004A164, symSize: 0x24 }
  - { offset: 0x24521, size: 0x8, addend: 0x0, symName: _lprofProfileDumped, symObjAddr: 0x0, symBinAddr: 0x100011558, symSize: 0xC }
  - { offset: 0x2453E, size: 0x8, addend: 0x0, symName: _ProfileDumped, symObjAddr: 0x4E0, symBinAddr: 0x10006DB50, symSize: 0x0 }
  - { offset: 0x2454E, size: 0x8, addend: 0x0, symName: _lprofProfileDumped, symObjAddr: 0x0, symBinAddr: 0x100011558, symSize: 0xC }
  - { offset: 0x24596, size: 0x8, addend: 0x0, symName: _lprofGetLoadModuleSignature, symObjAddr: 0x0, symBinAddr: 0x100011564, symSize: 0xD0 }
  - { offset: 0x245C3, size: 0x8, addend: 0x0, symName: _VPMergeHook, symBinAddr: 0x10006DA68, symSize: 0x0 }
  - { offset: 0x2482B, size: 0x8, addend: 0x0, symName: _lprofGetLoadModuleSignature, symObjAddr: 0x0, symBinAddr: 0x100011564, symSize: 0xD0 }
  - { offset: 0x24833, size: 0x8, addend: 0x0, symName: ___llvm_profile_check_compatibility, symObjAddr: 0xD0, symBinAddr: 0x100011634, symSize: 0x1CC }
  - { offset: 0x248A3, size: 0x8, addend: 0x0, symName: ___llvm_profile_check_compatibility, symObjAddr: 0xD0, symBinAddr: 0x100011634, symSize: 0x1CC }
  - { offset: 0x248AB, size: 0x8, addend: 0x0, symName: ___llvm_profile_merge_from_buffer, symObjAddr: 0x29C, symBinAddr: 0x100011800, symSize: 0x3E8 }
  - { offset: 0x24983, size: 0x8, addend: 0x0, symName: ___llvm_profile_merge_from_buffer, symObjAddr: 0x29C, symBinAddr: 0x100011800, symSize: 0x3E8 }
  - { offset: 0x24BF5, size: 0x8, addend: 0x0, symName: _lprofMergeValueProfData, symObjAddr: 0x0, symBinAddr: 0x100011BE8, symSize: 0xF0 }
  - { offset: 0x24C06, size: 0x8, addend: 0x0, symName: _lprofMergeValueProfData, symObjAddr: 0x0, symBinAddr: 0x100011BE8, symSize: 0xF0 }
  - { offset: 0x24ED1, size: 0x8, addend: 0x0, symName: ___llvm_profile_begin_data, symObjAddr: 0x0, symBinAddr: 0x100011CD8, symSize: 0xC }
  - { offset: 0x24EF0, size: 0x8, addend: 0x0, symName: _CurrentVNode, symObjAddr: 0xC0, symBinAddr: 0x10006CF40, symSize: 0x0 }
  - { offset: 0x24F6C, size: 0x8, addend: 0x0, symName: _EndVNode, symObjAddr: 0xC8, symBinAddr: 0x10006CF48, symSize: 0x0 }
  - { offset: 0x24F75, size: 0x8, addend: 0x0, symName: ___llvm_profile_begin_data, symObjAddr: 0x0, symBinAddr: 0x100011CD8, symSize: 0xC }
  - { offset: 0x24F7D, size: 0x8, addend: 0x0, symName: ___llvm_profile_end_data, symObjAddr: 0xC, symBinAddr: 0x100011CE4, symSize: 0xC }
  - { offset: 0x24F96, size: 0x8, addend: 0x0, symName: ___llvm_profile_end_data, symObjAddr: 0xC, symBinAddr: 0x100011CE4, symSize: 0xC }
  - { offset: 0x24F9E, size: 0x8, addend: 0x0, symName: ___llvm_profile_begin_names, symObjAddr: 0x18, symBinAddr: 0x100011CF0, symSize: 0xC }
  - { offset: 0x24FB7, size: 0x8, addend: 0x0, symName: ___llvm_profile_begin_names, symObjAddr: 0x18, symBinAddr: 0x100011CF0, symSize: 0xC }
  - { offset: 0x24FBF, size: 0x8, addend: 0x0, symName: ___llvm_profile_end_names, symObjAddr: 0x24, symBinAddr: 0x100011CFC, symSize: 0xC }
  - { offset: 0x24FD8, size: 0x8, addend: 0x0, symName: ___llvm_profile_end_names, symObjAddr: 0x24, symBinAddr: 0x100011CFC, symSize: 0xC }
  - { offset: 0x24FE0, size: 0x8, addend: 0x0, symName: ___llvm_profile_begin_counters, symObjAddr: 0x30, symBinAddr: 0x100011D08, symSize: 0xC }
  - { offset: 0x24FF9, size: 0x8, addend: 0x0, symName: ___llvm_profile_begin_counters, symObjAddr: 0x30, symBinAddr: 0x100011D08, symSize: 0xC }
  - { offset: 0x25001, size: 0x8, addend: 0x0, symName: ___llvm_profile_end_counters, symObjAddr: 0x3C, symBinAddr: 0x100011D14, symSize: 0xC }
  - { offset: 0x2501A, size: 0x8, addend: 0x0, symName: ___llvm_profile_end_counters, symObjAddr: 0x3C, symBinAddr: 0x100011D14, symSize: 0xC }
  - { offset: 0x25022, size: 0x8, addend: 0x0, symName: ___llvm_profile_begin_bitmap, symObjAddr: 0x48, symBinAddr: 0x100011D20, symSize: 0xC }
  - { offset: 0x2503B, size: 0x8, addend: 0x0, symName: ___llvm_profile_begin_bitmap, symObjAddr: 0x48, symBinAddr: 0x100011D20, symSize: 0xC }
  - { offset: 0x25043, size: 0x8, addend: 0x0, symName: ___llvm_profile_end_bitmap, symObjAddr: 0x54, symBinAddr: 0x100011D2C, symSize: 0xC }
  - { offset: 0x2505C, size: 0x8, addend: 0x0, symName: ___llvm_profile_end_bitmap, symObjAddr: 0x54, symBinAddr: 0x100011D2C, symSize: 0xC }
  - { offset: 0x25064, size: 0x8, addend: 0x0, symName: ___llvm_profile_begin_vtables, symObjAddr: 0x60, symBinAddr: 0x100011D38, symSize: 0xC }
  - { offset: 0x2507D, size: 0x8, addend: 0x0, symName: ___llvm_profile_begin_vtables, symObjAddr: 0x60, symBinAddr: 0x100011D38, symSize: 0xC }
  - { offset: 0x25085, size: 0x8, addend: 0x0, symName: ___llvm_profile_end_vtables, symObjAddr: 0x6C, symBinAddr: 0x100011D44, symSize: 0xC }
  - { offset: 0x2509E, size: 0x8, addend: 0x0, symName: ___llvm_profile_end_vtables, symObjAddr: 0x6C, symBinAddr: 0x100011D44, symSize: 0xC }
  - { offset: 0x250A6, size: 0x8, addend: 0x0, symName: ___llvm_profile_begin_vtabnames, symObjAddr: 0x78, symBinAddr: 0x100011D50, symSize: 0xC }
  - { offset: 0x250BF, size: 0x8, addend: 0x0, symName: ___llvm_profile_begin_vtabnames, symObjAddr: 0x78, symBinAddr: 0x100011D50, symSize: 0xC }
  - { offset: 0x250C7, size: 0x8, addend: 0x0, symName: ___llvm_profile_end_vtabnames, symObjAddr: 0x84, symBinAddr: 0x100011D5C, symSize: 0xC }
  - { offset: 0x250E0, size: 0x8, addend: 0x0, symName: ___llvm_profile_end_vtabnames, symObjAddr: 0x84, symBinAddr: 0x100011D5C, symSize: 0xC }
  - { offset: 0x25101, size: 0x8, addend: 0x0, symName: ___llvm_profile_begin_vnodes, symObjAddr: 0x9C, symBinAddr: 0x100011D68, symSize: 0xC }
  - { offset: 0x25109, size: 0x8, addend: 0x0, symName: ___llvm_profile_end_vnodes, symObjAddr: 0xA8, symBinAddr: 0x100011D74, symSize: 0xC }
  - { offset: 0x25122, size: 0x8, addend: 0x0, symName: ___llvm_profile_end_vnodes, symObjAddr: 0xA8, symBinAddr: 0x100011D74, symSize: 0xC }
  - { offset: 0x2512A, size: 0x8, addend: 0x0, symName: ___llvm_write_binary_ids, symObjAddr: 0xB4, symBinAddr: 0x100011D80, symSize: 0x8 }
  - { offset: 0x25143, size: 0x8, addend: 0x0, symName: ___llvm_write_binary_ids, symObjAddr: 0xB4, symBinAddr: 0x100011D80, symSize: 0x8 }
  - { offset: 0x253CA, size: 0x8, addend: 0x0, symName: __GLOBAL__sub_I_InstrProfilingRuntime.cpp, symObjAddr: 0x0, symBinAddr: 0x100011D88, symSize: 0x18 }
  - { offset: 0x253ED, size: 0x8, addend: 0x0, symName: ___llvm_profile_runtime, symObjAddr: 0x590, symBinAddr: 0x10006DA24, symSize: 0x0 }
  - { offset: 0x2541D, size: 0x8, addend: 0x0, symName: __GLOBAL__sub_I_InstrProfilingRuntime.cpp, symObjAddr: 0x0, symBinAddr: 0x100011D88, symSize: 0x18 }
  - { offset: 0x25499, size: 0x8, addend: 0x0, symName: ___llvm_profile_recursive_mkdir, symObjAddr: 0x0, symBinAddr: 0x100011DA0, symSize: 0x58 }
  - { offset: 0x254A1, size: 0x8, addend: 0x0, symName: _lprofDirMode, symObjAddr: 0x5AC, symBinAddr: 0x10006CF50, symSize: 0x0 }
  - { offset: 0x254B8, size: 0x8, addend: 0x0, symName: _lprofDirMode, symObjAddr: 0x5AC, symBinAddr: 0x10006CF50, symSize: 0x0 }
  - { offset: 0x254ED, size: 0x8, addend: 0x0, symName: ___llvm_profile_recursive_mkdir, symObjAddr: 0x0, symBinAddr: 0x100011DA0, symSize: 0x58 }
  - { offset: 0x2556C, size: 0x8, addend: 0x0, symName: _lprofGetHostName, symObjAddr: 0x70, symBinAddr: 0x100011DF8, symSize: 0x80 }
  - { offset: 0x256A1, size: 0x8, addend: 0x0, symName: _lprofLockFileHandle, symObjAddr: 0x208, symBinAddr: 0x100011E78, symSize: 0x90 }
  - { offset: 0x256A9, size: 0x8, addend: 0x0, symName: _lprofUnlockFileHandle, symObjAddr: 0x298, symBinAddr: 0x100011F08, symSize: 0x90 }
  - { offset: 0x2572F, size: 0x8, addend: 0x0, symName: _lprofUnlockFileHandle, symObjAddr: 0x298, symBinAddr: 0x100011F08, symSize: 0x90 }
  - { offset: 0x25737, size: 0x8, addend: 0x0, symName: _lprofOpenFileEx, symObjAddr: 0x328, symBinAddr: 0x100011F98, symSize: 0xD0 }
  - { offset: 0x25797, size: 0x8, addend: 0x0, symName: _lprofOpenFileEx, symObjAddr: 0x328, symBinAddr: 0x100011F98, symSize: 0xD0 }
  - { offset: 0x2580F, size: 0x8, addend: 0x0, symName: _lprofFindFirstDirSeparator, symObjAddr: 0x538, symBinAddr: 0x100012068, symSize: 0x8 }
  - { offset: 0x2584F, size: 0x8, addend: 0x0, symName: _lprofSuspendSigKill, symObjAddr: 0x548, symBinAddr: 0x100012070, symSize: 0x8 }
  - { offset: 0x25857, size: 0x8, addend: 0x0, symName: _lprofRestoreSigKill, symObjAddr: 0x550, symBinAddr: 0x100012078, symSize: 0x4 }
  - { offset: 0x25872, size: 0x8, addend: 0x0, symName: _lprofRestoreSigKill, symObjAddr: 0x550, symBinAddr: 0x100012078, symSize: 0x4 }
  - { offset: 0x25891, size: 0x8, addend: 0x0, symName: _lprofAtExit, symObjAddr: 0x5A8, symBinAddr: 0x10001207C, symSize: 0x4 }
  - { offset: 0x25899, size: 0x8, addend: 0x0, symName: _lprofDirMode, symObjAddr: 0x5AC, symBinAddr: 0x10006CF50, symSize: 0x0 }
  - { offset: 0x25B64, size: 0x8, addend: 0x0, symName: _getValueProfRecordHeaderSize, symObjAddr: 0x0, symBinAddr: 0x100012080, symSize: 0xC }
  - { offset: 0x25B83, size: 0x8, addend: 0x0, symName: _VPMaxNumValsPerSite, symObjAddr: 0x1740, symBinAddr: 0x10006CF58, symSize: 0x0 }
  - { offset: 0x25C18, size: 0x8, addend: 0x0, symName: __MergedGlobals, symObjAddr: 0xEF50, symBinAddr: 0x10006DB80, symSize: 0x0 }
  - { offset: 0x25C3F, size: 0x8, addend: 0x0, symName: __MergedGlobals, symObjAddr: 0xEF50, symBinAddr: 0x10006DB80, symSize: 0x0 }
  - { offset: 0x25C56, size: 0x8, addend: 0x0, symName: __MergedGlobals, symObjAddr: 0xEF50, symBinAddr: 0x10006DB80, symSize: 0x0 }
  - { offset: 0x25C76, size: 0x8, addend: 0x0, symName: _TheVPDataReader, symObjAddr: 0x1748, symBinAddr: 0x10006CF60, symSize: 0x0 }
  - { offset: 0x25F17, size: 0x8, addend: 0x0, symName: _RTRecord, symObjAddr: 0xEF28, symBinAddr: 0x10006DB58, symSize: 0x0 }
  - { offset: 0x2610C, size: 0x8, addend: 0x0, symName: _getValueProfRecordHeaderSize, symObjAddr: 0x0, symBinAddr: 0x100012080, symSize: 0xC }
  - { offset: 0x26162, size: 0x8, addend: 0x0, symName: _getValueProfRecordValueData, symObjAddr: 0x1C, symBinAddr: 0x10001208C, symSize: 0x14 }
  - { offset: 0x26210, size: 0x8, addend: 0x0, symName: _getValueProfRecordNext, symObjAddr: 0x1B4, symBinAddr: 0x1000120A0, symSize: 0x1A4 }
  - { offset: 0x26218, size: 0x8, addend: 0x0, symName: _getFirstValueProfRecord, symObjAddr: 0x358, symBinAddr: 0x100012244, symSize: 0x8 }
  - { offset: 0x2627F, size: 0x8, addend: 0x0, symName: _getFirstValueProfRecord, symObjAddr: 0x358, symBinAddr: 0x100012244, symSize: 0x8 }
  - { offset: 0x26361, size: 0x8, addend: 0x0, symName: _lprofSetupValueProfiler, symObjAddr: 0xB38, symBinAddr: 0x10001224C, symSize: 0x64 }
  - { offset: 0x26473, size: 0x8, addend: 0x0, symName: ___llvm_profile_instrument_target_value, symObjAddr: 0xE30, symBinAddr: 0x1000122B0, symSize: 0x290 }
  - { offset: 0x26591, size: 0x8, addend: 0x0, symName: _lprofGetVPDataReader, symObjAddr: 0x1108, symBinAddr: 0x100012540, symSize: 0xC }
  - { offset: 0x26599, size: 0x8, addend: 0x0, symName: _initializeValueProfRuntimeRecord, symObjAddr: 0x1114, symBinAddr: 0x10001254C, symSize: 0x210 }
  - { offset: 0x265B4, size: 0x8, addend: 0x0, symName: _initializeValueProfRuntimeRecord, symObjAddr: 0x1114, symBinAddr: 0x10001254C, symSize: 0x210 }
  - { offset: 0x265BC, size: 0x8, addend: 0x0, symName: _getNumValueDataForSiteWrapper, symObjAddr: 0x1324, symBinAddr: 0x10001275C, symSize: 0x14 }
  - { offset: 0x266D7, size: 0x8, addend: 0x0, symName: _getNumValueDataForSiteWrapper, symObjAddr: 0x1324, symBinAddr: 0x10001275C, symSize: 0x14 }
  - { offset: 0x266DF, size: 0x8, addend: 0x0, symName: _getValueProfDataSizeWrapper, symObjAddr: 0x1338, symBinAddr: 0x100012770, symSize: 0xDC }
  - { offset: 0x2671D, size: 0x8, addend: 0x0, symName: _getNumValueDataForSiteWrapper, symObjAddr: 0x1324, symBinAddr: 0x10001275C, symSize: 0x14 }
  - { offset: 0x26743, size: 0x8, addend: 0x0, symName: _getValueProfDataSizeWrapper, symObjAddr: 0x1338, symBinAddr: 0x100012770, symSize: 0xDC }
  - { offset: 0x2674B, size: 0x8, addend: 0x0, symName: _getNextNValueData, symObjAddr: 0x1414, symBinAddr: 0x10001284C, symSize: 0x44 }
  - { offset: 0x267E2, size: 0x8, addend: 0x0, symName: _getNextNValueData, symObjAddr: 0x1414, symBinAddr: 0x10001284C, symSize: 0x44 }
  - { offset: 0x267EA, size: 0x8, addend: 0x0, symName: _getNumValueSitesRT, symObjAddr: 0x1458, symBinAddr: 0x100012890, symSize: 0x10 }
  - { offset: 0x26878, size: 0x8, addend: 0x0, symName: _getNumValueSitesRT, symObjAddr: 0x1458, symBinAddr: 0x100012890, symSize: 0x10 }
  - { offset: 0x26880, size: 0x8, addend: 0x0, symName: _getNumValueDataRT, symObjAddr: 0x1468, symBinAddr: 0x1000128A0, symSize: 0x190 }
  - { offset: 0x268BB, size: 0x8, addend: 0x0, symName: _getNumValueDataRT, symObjAddr: 0x1468, symBinAddr: 0x1000128A0, symSize: 0x190 }
  - { offset: 0x26931, size: 0x8, addend: 0x0, symName: ___llvm_profile_instrument_target_value.cold.1, symObjAddr: 0x161C, symBinAddr: 0x10004A188, symSize: 0x24 }
  - { offset: 0x269C1, size: 0x8, addend: 0x0, symName: ___llvm_profile_raw_version, symObjAddr: 0x0, symBinAddr: 0x10006CF90, symSize: 0x0 }
  - { offset: 0x26A03, size: 0x8, addend: 0x0, symName: _lprofBufferWriter, symObjAddr: 0x0, symBinAddr: 0x100012A30, symSize: 0x6C }
  - { offset: 0x26A22, size: 0x8, addend: 0x0, symName: _FreeHook, symObjAddr: 0x4F30, symBinAddr: 0x10006DA28, symSize: 0x0 }
  - { offset: 0x26A48, size: 0x8, addend: 0x0, symName: _DynamicBufferIOBuffer, symObjAddr: 0x4F38, symBinAddr: 0x10006DA30, symSize: 0x0 }
  - { offset: 0x26A76, size: 0x8, addend: 0x0, symName: _VPBufferSize, symObjAddr: 0x4F40, symBinAddr: 0x10006DA38, symSize: 0x0 }
  - { offset: 0x26A9D, size: 0x8, addend: 0x0, symName: __MergedGlobals, symObjAddr: 0x6F48, symBinAddr: 0x10006FB90, symSize: 0x0 }
  - { offset: 0x26BE8, size: 0x8, addend: 0x0, symName: _BufferIOBuffer, symObjAddr: 0x4F48, symBinAddr: 0x10006DB90, symSize: 0x0 }
  - { offset: 0x26C12, size: 0x8, addend: 0x0, symName: __MergedGlobals, symObjAddr: 0x6F48, symBinAddr: 0x10006FB90, symSize: 0x0 }
  - { offset: 0x26C8E, size: 0x8, addend: 0x0, symName: _lprofBufferWriter, symObjAddr: 0x0, symBinAddr: 0x100012A30, symSize: 0x6C }
  - { offset: 0x26DA6, size: 0x8, addend: 0x0, symName: _lprofBufferIOWrite, symObjAddr: 0x100, symBinAddr: 0x100012A9C, symSize: 0x134 }
  - { offset: 0x26EA7, size: 0x8, addend: 0x0, symName: _lprofWriteData, symObjAddr: 0x2F4, symBinAddr: 0x100012BD0, symSize: 0xD4 }
  - { offset: 0x26EAF, size: 0x8, addend: 0x0, symName: _lprofWriteDataImpl, symObjAddr: 0x3C8, symBinAddr: 0x100012CA4, symSize: 0x46C }
  - { offset: 0x272D5, size: 0x8, addend: 0x0, symName: _lprofWriteDataImpl, symObjAddr: 0x3C8, symBinAddr: 0x100012CA4, symSize: 0x46C }
  - { offset: 0x275FF, size: 0x8, addend: 0x0, symName: _writeOneValueProfData, symObjAddr: 0x8C0, symBinAddr: 0x100013110, symSize: 0x4A8 }
  - { offset: 0x278C4, size: 0x8, addend: 0x0, symName: '__ZN108_$LT$alloc..collections..btree..map..Iter$LT$K$C$V$GT$$u20$as$u20$core..iter..traits..iterator..Iterator$GT$4next17hd09f2d96589fb435E', symObjAddr: 0x0, symBinAddr: 0x1000135B8, symSize: 0x13C }
  - { offset: 0x27D1D, size: 0x8, addend: 0x0, symName: '__ZN5alloc11collections5btree4node208Handle$LT$alloc..collections..btree..node..NodeRef$LT$alloc..collections..btree..node..marker..Mut$C$K$C$V$C$alloc..collections..btree..node..marker..Leaf$GT$$C$alloc..collections..btree..node..marker..KV$GT$5split17h6d01fe3bbe152ad6E', symObjAddr: 0x114AC, symBinAddr: 0x10001F370, symSize: 0x1C0 }
  - { offset: 0x2818B, size: 0x8, addend: 0x0, symName: '__ZN5alloc11collections5btree4node208Handle$LT$alloc..collections..btree..node..NodeRef$LT$alloc..collections..btree..node..marker..Mut$C$K$C$V$C$alloc..collections..btree..node..marker..Leaf$GT$$C$alloc..collections..btree..node..marker..KV$GT$5split17ha09fe2f6ae84e77eE', symObjAddr: 0x1166C, symBinAddr: 0x10001F530, symSize: 0x164 }
  - { offset: 0x28562, size: 0x8, addend: 0x0, symName: '__ZN5alloc11collections5btree4node212Handle$LT$alloc..collections..btree..node..NodeRef$LT$alloc..collections..btree..node..marker..Mut$C$K$C$V$C$alloc..collections..btree..node..marker..Internal$GT$$C$alloc..collections..btree..node..marker..KV$GT$5split17h8a06bb5830746347E', symObjAddr: 0x11C34, symBinAddr: 0x10001F694, symSize: 0x218 }
  - { offset: 0x28AF2, size: 0x8, addend: 0x0, symName: '__ZN5alloc11collections5btree4node212Handle$LT$alloc..collections..btree..node..NodeRef$LT$alloc..collections..btree..node..marker..Mut$C$K$C$V$C$alloc..collections..btree..node..marker..Internal$GT$$C$alloc..collections..btree..node..marker..KV$GT$5split17hb4d18c041628fb6dE', symObjAddr: 0x11E4C, symBinAddr: 0x10001F8AC, symSize: 0x28C }
  - { offset: 0x291C2, size: 0x8, addend: 0x0, symName: '__ZN5alloc11collections5btree6remove259_$LT$impl$u20$alloc..collections..btree..node..Handle$LT$alloc..collections..btree..node..NodeRef$LT$alloc..collections..btree..node..marker..Mut$C$K$C$V$C$alloc..collections..btree..node..marker..Leaf$GT$$C$alloc..collections..btree..node..marker..KV$GT$$GT$14remove_leaf_kv17h73689d62ad792e56E', symObjAddr: 0x13418, symBinAddr: 0x100020908, symSize: 0x570 }
  - { offset: 0x29E01, size: 0x8, addend: 0x0, symName: '__ZN5alloc11collections5btree6remove259_$LT$impl$u20$alloc..collections..btree..node..Handle$LT$alloc..collections..btree..node..NodeRef$LT$alloc..collections..btree..node..marker..Mut$C$K$C$V$C$alloc..collections..btree..node..marker..Leaf$GT$$C$alloc..collections..btree..node..marker..KV$GT$$GT$14remove_leaf_kv17he90c15582b4564a9E', symObjAddr: 0x13988, symBinAddr: 0x100020E78, symSize: 0x52C }
  - { offset: 0x2BBBB, size: 0x8, addend: 0x0, symName: '__ZN5alloc11collections5btree4node29BalancingContext$LT$K$C$V$GT$15bulk_steal_left17h75e64982df7e0642E', symObjAddr: 0x120D8, symBinAddr: 0x10001FB38, symSize: 0x284 }
  - { offset: 0x2C123, size: 0x8, addend: 0x0, symName: '__ZN5alloc11collections5btree4node29BalancingContext$LT$K$C$V$GT$15bulk_steal_left17hbba92f5d6a683d2bE', symObjAddr: 0x1235C, symBinAddr: 0x10001FDBC, symSize: 0x1F4 }
  - { offset: 0x2C653, size: 0x8, addend: 0x0, symName: '__ZN5alloc11collections5btree4node29BalancingContext$LT$K$C$V$GT$16bulk_steal_right17h38344368ffc8c5cbE', symObjAddr: 0x12550, symBinAddr: 0x10001FFB0, symSize: 0x2CC }
  - { offset: 0x2CC70, size: 0x8, addend: 0x0, symName: '__ZN5alloc11collections5btree4node29BalancingContext$LT$K$C$V$GT$16bulk_steal_right17hbe50625095942a6eE', symObjAddr: 0x1281C, symBinAddr: 0x10002027C, symSize: 0x240 }
  - { offset: 0x2D2BE, size: 0x8, addend: 0x0, symName: '__ZN5alloc11collections5btree4node29BalancingContext$LT$K$C$V$GT$8do_merge17h4b602dda9210b2bdE', symObjAddr: 0x12A5C, symBinAddr: 0x1000204BC, symSize: 0x258 }
  - { offset: 0x2D8F6, size: 0x8, addend: 0x0, symName: '__ZN5alloc11collections5btree4node29BalancingContext$LT$K$C$V$GT$8do_merge17h745f74eea44b50d0E', symObjAddr: 0x12CB4, symBinAddr: 0x100020714, symSize: 0x1F4 }
  - { offset: 0x2E100, size: 0x8, addend: 0x0, symName: '__ZN108_$LT$alloc..collections..btree..map..Iter$LT$K$C$V$GT$$u20$as$u20$core..iter..traits..iterator..Iterator$GT$4next17hd09f2d96589fb435E', symObjAddr: 0x0, symBinAddr: 0x1000135B8, symSize: 0x13C }
  - { offset: 0x2E456, size: 0x8, addend: 0x0, symName: '__ZN5alloc11collections5btree3map25BTreeMap$LT$K$C$V$C$A$GT$6insert17h1b51d01431bfbb0bE', symObjAddr: 0xFA98, symBinAddr: 0x10001E348, symSize: 0x9B0 }
  - { offset: 0x2FDDF, size: 0x8, addend: 0x0, symName: '__ZN5alloc11collections5btree3map25IntoIter$LT$K$C$V$C$A$GT$10dying_next17h14374c324bbb3051E', symObjAddr: 0x10E34, symBinAddr: 0x10001ECF8, symSize: 0x228 }
  - { offset: 0x30185, size: 0x8, addend: 0x0, symName: '__ZN5alloc11collections5btree3map25IntoIter$LT$K$C$V$C$A$GT$10dying_next17ha97a3f555acf7d48E', symObjAddr: 0x1105C, symBinAddr: 0x10001EF20, symSize: 0x228 }
  - { offset: 0x3052B, size: 0x8, addend: 0x0, symName: '__ZN5alloc11collections5btree3map25IntoIter$LT$K$C$V$C$A$GT$10dying_next17hb30339cd7068d6cfE', symObjAddr: 0x11284, symBinAddr: 0x10001F148, symSize: 0x228 }
  - { offset: 0x3180D, size: 0x8, addend: 0x0, symName: '__ZN5alloc7raw_vec19RawVec$LT$T$C$A$GT$8grow_one17h06cf0433792cf41cE', symObjAddr: 0x14498, symBinAddr: 0x100021764, symSize: 0xB4 }
  - { offset: 0x31923, size: 0x8, addend: 0x0, symName: '__ZN5alloc7raw_vec19RawVec$LT$T$C$A$GT$8grow_one17h0ff3cfc767e809c5E', symObjAddr: 0x1454C, symBinAddr: 0x100021818, symSize: 0xC4 }
  - { offset: 0x31A39, size: 0x8, addend: 0x0, symName: '__ZN5alloc7raw_vec19RawVec$LT$T$C$A$GT$8grow_one17h2a7a88545eefe0b5E', symObjAddr: 0x14610, symBinAddr: 0x1000218DC, symSize: 0xC4 }
  - { offset: 0x31B4F, size: 0x8, addend: 0x0, symName: '__ZN5alloc7raw_vec19RawVec$LT$T$C$A$GT$8grow_one17h33ef86bd5bc7babfE', symObjAddr: 0x146D4, symBinAddr: 0x1000219A0, symSize: 0xB4 }
  - { offset: 0x31C65, size: 0x8, addend: 0x0, symName: '__ZN5alloc7raw_vec19RawVec$LT$T$C$A$GT$8grow_one17h4794d3730a636672E', symObjAddr: 0x1484C, symBinAddr: 0x100021A54, symSize: 0xC4 }
  - { offset: 0x31D7B, size: 0x8, addend: 0x0, symName: '__ZN5alloc7raw_vec19RawVec$LT$T$C$A$GT$8grow_one17h4b7a36f6d62b1585E', symObjAddr: 0x14910, symBinAddr: 0x100021B18, symSize: 0xB4 }
  - { offset: 0x31E91, size: 0x8, addend: 0x0, symName: '__ZN5alloc7raw_vec19RawVec$LT$T$C$A$GT$8grow_one17h4ec275d7687f1e24E', symObjAddr: 0x149C4, symBinAddr: 0x100021BCC, symSize: 0xC4 }
  - { offset: 0x31FA7, size: 0x8, addend: 0x0, symName: '__ZN5alloc7raw_vec19RawVec$LT$T$C$A$GT$8grow_one17h755f70e15600008eE', symObjAddr: 0x14A88, symBinAddr: 0x100021C90, symSize: 0xB4 }
  - { offset: 0x320BD, size: 0x8, addend: 0x0, symName: '__ZN5alloc7raw_vec19RawVec$LT$T$C$A$GT$8grow_one17h9a9a76236db74635E', symObjAddr: 0x14B3C, symBinAddr: 0x100021D44, symSize: 0xC0 }
  - { offset: 0x321D3, size: 0x8, addend: 0x0, symName: '__ZN5alloc7raw_vec19RawVec$LT$T$C$A$GT$8grow_one17hbdf039f48f951a6eE', symObjAddr: 0x14BFC, symBinAddr: 0x100021E04, symSize: 0xC0 }
  - { offset: 0x322E9, size: 0x8, addend: 0x0, symName: '__ZN5alloc7raw_vec19RawVec$LT$T$C$A$GT$8grow_one17hf24d0ccf3cd16788E', symObjAddr: 0x14CBC, symBinAddr: 0x100021EC4, symSize: 0xC0 }
  - { offset: 0x329CC, size: 0x8, addend: 0x0, symName: __ZN5alloc7raw_vec11finish_grow17h2d571ea7b67f06b7E, symObjAddr: 0x14418, symBinAddr: 0x10004D16C, symSize: 0x80 }
  - { offset: 0x32A67, size: 0x8, addend: 0x0, symName: '__ZN5alloc7raw_vec20RawVecInner$LT$A$GT$7reserve21do_reserve_and_handle17h4b2c29e8db0b9268E', symObjAddr: 0x14D7C, symBinAddr: 0x10004D1EC, symSize: 0xF0 }
  - { offset: 0x33D5B, size: 0x8, addend: 0x0, symName: __ZN5alloc5alloc15exchange_malloc17h9685023251c359e7E, symObjAddr: 0x143CC, symBinAddr: 0x100021718, symSize: 0x4C }
  - { offset: 0x33E29, size: 0x8, addend: 0x0, symName: '__ZN5alloc4sync16Arc$LT$T$C$A$GT$9drop_slow17h568ad2c88e43a2e4E', symObjAddr: 0x13FE4, symBinAddr: 0x1000213A4, symSize: 0x34 }
  - { offset: 0x33F06, size: 0x8, addend: 0x0, symName: '__ZN5alloc4sync16Arc$LT$T$C$A$GT$9drop_slow17h568f10379158be3aE', symObjAddr: 0x14018, symBinAddr: 0x1000213D8, symSize: 0xC0 }
  - { offset: 0x3422B, size: 0x8, addend: 0x0, symName: '__ZN5alloc4sync16Arc$LT$T$C$A$GT$9drop_slow17h74c044505d97b8fcE', symObjAddr: 0x140D8, symBinAddr: 0x100021498, symSize: 0x78 }
  - { offset: 0x343F7, size: 0x8, addend: 0x0, symName: '__ZN5alloc4sync16Arc$LT$T$C$A$GT$9drop_slow17h8f2220b00493c4e4E', symObjAddr: 0x14150, symBinAddr: 0x100021510, symSize: 0xA0 }
  - { offset: 0x346EF, size: 0x8, addend: 0x0, symName: '__ZN5alloc4sync16Arc$LT$T$C$A$GT$9drop_slow17hb6a5023acd32b46fE', symObjAddr: 0x14264, symBinAddr: 0x1000215B0, symSize: 0xD0 }
  - { offset: 0x34904, size: 0x8, addend: 0x0, symName: '__ZN5alloc4sync16Arc$LT$T$C$A$GT$9drop_slow17hd5e62bd79ab5d7f0E', symObjAddr: 0x14334, symBinAddr: 0x100021680, symSize: 0x98 }
  - { offset: 0x34E37, size: 0x8, addend: 0x0, symName: '__ZN64_$LT$alloc..ffi..c_str..NulError$u20$as$u20$core..fmt..Debug$GT$3fmt17hb25a36ba1a7f247bE', symObjAddr: 0x1BBE4, symBinAddr: 0x100028CFC, symSize: 0x4C }
  - { offset: 0x352D9, size: 0x8, addend: 0x0, symName: '__ZN58_$LT$alloc..string..String$u20$as$u20$core..fmt..Debug$GT$3fmt17hf1e461d83be89b72E', symObjAddr: 0xF8D0, symBinAddr: 0x10001E180, symSize: 0x10 }
  - { offset: 0x35394, size: 0x8, addend: 0x0, symName: '__ZN58_$LT$alloc..string..String$u20$as$u20$core..fmt..Write$GT$10write_char17h5afa657ba1086fe6E', symObjAddr: 0xF8E0, symBinAddr: 0x10001E190, symSize: 0x138 }
  - { offset: 0x35537, size: 0x8, addend: 0x0, symName: '__ZN58_$LT$alloc..string..String$u20$as$u20$core..fmt..Write$GT$9write_str17hba5566b7261b3df3E', symObjAddr: 0xFA18, symBinAddr: 0x10001E2C8, symSize: 0x80 }
  - { offset: 0x35690, size: 0x8, addend: 0x0, symName: '__ZN60_$LT$alloc..string..String$u20$as$u20$core..fmt..Display$GT$3fmt17h55315b95f551f900E', symObjAddr: 0x1BBD4, symBinAddr: 0x100028CEC, symSize: 0x10 }
  - { offset: 0x37081, size: 0x8, addend: 0x0, symName: '__ZN4core3ptr107drop_in_place$LT$alloc..vec..Vec$LT$$LP$std..ffi..os_str..OsString$C$std..ffi..os_str..OsString$RP$$GT$$GT$17h54613c9c01320632E', symObjAddr: 0x1C64, symBinAddr: 0x100014130, symSize: 0x94 }
  - { offset: 0x372B4, size: 0x8, addend: 0x0, symName: '__ZN4core3ptr107drop_in_place$LT$core..pin..Pin$LT$alloc..boxed..Box$LT$std..sys..pal..unix..sync..mutex..Mutex$GT$$GT$$GT$17h3aeea96dd755cfb4E', symObjAddr: 0x1CF8, symBinAddr: 0x1000141C4, symSize: 0x2C }
  - { offset: 0x37359, size: 0x8, addend: 0x0, symName: '__ZN4core3ptr119drop_in_place$LT$std..io..default_write_fmt..Adapter$LT$std..io..cursor..Cursor$LT$$RF$mut$u20$$u5b$u8$u5d$$GT$$GT$$GT$17h8294f296a7dc0264E', symObjAddr: 0x1DA8, symBinAddr: 0x1000141F0, symSize: 0x10 }
  - { offset: 0x37370, size: 0x8, addend: 0x0, symName: '__ZN4core3ptr119drop_in_place$LT$std..io..default_write_fmt..Adapter$LT$std..io..cursor..Cursor$LT$$RF$mut$u20$$u5b$u8$u5d$$GT$$GT$$GT$17h8294f296a7dc0264E', symObjAddr: 0x1DA8, symBinAddr: 0x1000141F0, symSize: 0x10 }
  - { offset: 0x37391, size: 0x8, addend: 0x0, symName: '__ZN4core3ptr123drop_in_place$LT$addr2line..Context$LT$gimli..read..endian_slice..EndianSlice$LT$gimli..endianity..LittleEndian$GT$$GT$$GT$17h86eb599b9bd6b6b4E', symObjAddr: 0x1DB8, symBinAddr: 0x100014200, symSize: 0x70 }
  - { offset: 0x37466, size: 0x8, addend: 0x0, symName: '__ZN4core3ptr124drop_in_place$LT$alloc..collections..btree..map..BTreeMap$LT$std..ffi..os_str..OsString$C$std..ffi..os_str..OsString$GT$$GT$17h3839acf51fe12fe1E', symObjAddr: 0x1E28, symBinAddr: 0x100014270, symSize: 0xB8 }
  - { offset: 0x37699, size: 0x8, addend: 0x0, symName: '__ZN4core3ptr124drop_in_place$LT$alloc..collections..btree..map..IntoIter$LT$std..ffi..os_str..OsString$C$std..ffi..os_str..OsString$GT$$GT$17h5df7ec7eeb3dc239E', symObjAddr: 0x1EE0, symBinAddr: 0x100014328, symSize: 0x90 }
  - { offset: 0x378A2, size: 0x8, addend: 0x0, symName: '__ZN4core3ptr128drop_in_place$LT$core..result..Result$LT$$RF$std..thread..Thread$C$$LP$$RF$std..thread..Thread$C$std..thread..Thread$RP$$GT$$GT$17h962b0ef080f547dcE', symObjAddr: 0x1F70, symBinAddr: 0x1000143B8, symSize: 0x28 }
  - { offset: 0x37A4C, size: 0x8, addend: 0x0, symName: '__ZN4core3ptr129drop_in_place$LT$addr2line..unit..ResUnit$LT$gimli..read..endian_slice..EndianSlice$LT$gimli..endianity..LittleEndian$GT$$GT$$GT$17h6704d8d711f50964E', symObjAddr: 0x1F98, symBinAddr: 0x1000143E0, symSize: 0xE4 }
  - { offset: 0x37C6E, size: 0x8, addend: 0x0, symName: '__ZN4core3ptr129drop_in_place$LT$addr2line..unit..SupUnit$LT$gimli..read..endian_slice..EndianSlice$LT$gimli..endianity..LittleEndian$GT$$GT$$GT$17h3178d992ad3814bdE', symObjAddr: 0x207C, symBinAddr: 0x1000144C4, symSize: 0x54 }
  - { offset: 0x37D49, size: 0x8, addend: 0x0, symName: '__ZN4core3ptr130drop_in_place$LT$addr2line..unit..ResUnits$LT$gimli..read..endian_slice..EndianSlice$LT$gimli..endianity..LittleEndian$GT$$GT$$GT$17hec2ee29328c5cc7bE', symObjAddr: 0x20D0, symBinAddr: 0x100014518, symSize: 0xD0 }
  - { offset: 0x37EF2, size: 0x8, addend: 0x0, symName: '__ZN4core3ptr130drop_in_place$LT$addr2line..unit..SupUnits$LT$gimli..read..endian_slice..EndianSlice$LT$gimli..endianity..LittleEndian$GT$$GT$$GT$17h1322e2d105d2f1f9E', symObjAddr: 0x21A0, symBinAddr: 0x1000145E8, symSize: 0xE4 }
  - { offset: 0x380B0, size: 0x8, addend: 0x0, symName: '__ZN4core3ptr130drop_in_place$LT$gimli..read..dwarf..Dwarf$LT$gimli..read..endian_slice..EndianSlice$LT$gimli..endianity..LittleEndian$GT$$GT$$GT$17hf3b20fbd9db1a9fdE', symObjAddr: 0x2284, symBinAddr: 0x1000146CC, symSize: 0x58 }
  - { offset: 0x3817E, size: 0x8, addend: 0x0, symName: '__ZN4core3ptr131drop_in_place$LT$$u5b$core..option..Option$LT$core..option..Option$LT$std..backtrace_rs..symbolize..gimli..Mapping$GT$$GT$$u5d$$GT$17h018dc685d3dd2730E', symObjAddr: 0x22DC, symBinAddr: 0x100014724, symSize: 0xCC }
  - { offset: 0x38228, size: 0x8, addend: 0x0, symName: '__ZN4core3ptr137drop_in_place$LT$gimli..read..dwarf..Unit$LT$gimli..read..endian_slice..EndianSlice$LT$gimli..endianity..LittleEndian$GT$$C$usize$GT$$GT$17h4031e9c5dec06b9aE', symObjAddr: 0x246C, symBinAddr: 0x1000147F0, symSize: 0x54 }
  - { offset: 0x38325, size: 0x8, addend: 0x0, symName: '__ZN4core3ptr138drop_in_place$LT$addr2line..function..LazyFunction$LT$gimli..read..endian_slice..EndianSlice$LT$gimli..endianity..LittleEndian$GT$$GT$$GT$17ha3709aaa52158f89E', symObjAddr: 0x24C0, symBinAddr: 0x100014844, symSize: 0x64 }
  - { offset: 0x3833C, size: 0x8, addend: 0x0, symName: '__ZN4core3ptr138drop_in_place$LT$addr2line..function..LazyFunction$LT$gimli..read..endian_slice..EndianSlice$LT$gimli..endianity..LittleEndian$GT$$GT$$GT$17ha3709aaa52158f89E', symObjAddr: 0x24C0, symBinAddr: 0x100014844, symSize: 0x64 }
  - { offset: 0x38351, size: 0x8, addend: 0x0, symName: '__ZN4core3ptr138drop_in_place$LT$addr2line..function..LazyFunction$LT$gimli..read..endian_slice..EndianSlice$LT$gimli..endianity..LittleEndian$GT$$GT$$GT$17ha3709aaa52158f89E', symObjAddr: 0x24C0, symBinAddr: 0x100014844, symSize: 0x64 }
  - { offset: 0x38366, size: 0x8, addend: 0x0, symName: '__ZN4core3ptr138drop_in_place$LT$addr2line..function..LazyFunction$LT$gimli..read..endian_slice..EndianSlice$LT$gimli..endianity..LittleEndian$GT$$GT$$GT$17ha3709aaa52158f89E', symObjAddr: 0x24C0, symBinAddr: 0x100014844, symSize: 0x64 }
  - { offset: 0x384A8, size: 0x8, addend: 0x0, symName: '__ZN4core3ptr144drop_in_place$LT$alloc..vec..Vec$LT$core..option..Option$LT$core..option..Option$LT$std..backtrace_rs..symbolize..gimli..Mapping$GT$$GT$$GT$$GT$17he58f1b72666b9c59E', symObjAddr: 0x2524, symBinAddr: 0x1000148A8, symSize: 0x78 }
  - { offset: 0x38610, size: 0x8, addend: 0x0, symName: '__ZN4core3ptr152drop_in_place$LT$alloc..vec..Vec$LT$addr2line..unit..ResUnit$LT$gimli..read..endian_slice..EndianSlice$LT$gimli..endianity..LittleEndian$GT$$GT$$GT$$GT$17he2165088e8298335E', symObjAddr: 0x2668, symBinAddr: 0x100014920, symSize: 0xC4 }
  - { offset: 0x3877F, size: 0x8, addend: 0x0, symName: '__ZN4core3ptr152drop_in_place$LT$alloc..vec..Vec$LT$addr2line..unit..SupUnit$LT$gimli..read..endian_slice..EndianSlice$LT$gimli..endianity..LittleEndian$GT$$GT$$GT$$GT$17h87f5dc9d3cca3a77E', symObjAddr: 0x272C, symBinAddr: 0x1000149E4, symSize: 0xF4 }
  - { offset: 0x38997, size: 0x8, addend: 0x0, symName: '__ZN4core3ptr156drop_in_place$LT$alloc..boxed..Box$LT$$u5b$core..option..Option$LT$core..option..Option$LT$std..backtrace_rs..symbolize..gimli..Mapping$GT$$GT$$u5d$$GT$$GT$17h662502e0fd7f60b9E', symObjAddr: 0x2820, symBinAddr: 0x100014AD8, symSize: 0xF8 }
  - { offset: 0x38AC1, size: 0x8, addend: 0x0, symName: '__ZN4core3ptr159drop_in_place$LT$alloc..sync..ArcInner$LT$gimli..read..dwarf..Dwarf$LT$gimli..read..endian_slice..EndianSlice$LT$gimli..endianity..LittleEndian$GT$$GT$$GT$$GT$17ha75a7326775ef05eE', symObjAddr: 0x2918, symBinAddr: 0x100014BD0, symSize: 0x5C }
  - { offset: 0x38B86, size: 0x8, addend: 0x0, symName: '__ZN4core3ptr161drop_in_place$LT$alloc..vec..Vec$LT$addr2line..function..LazyFunction$LT$gimli..read..endian_slice..EndianSlice$LT$gimli..endianity..LittleEndian$GT$$GT$$GT$$GT$17hd921ce6f632b87b3E', symObjAddr: 0x2974, symBinAddr: 0x100014C2C, symSize: 0xAC }
  - { offset: 0x38DC3, size: 0x8, addend: 0x0, symName: '__ZN4core3ptr172drop_in_place$LT$core..result..Result$LT$addr2line..Context$LT$gimli..read..endian_slice..EndianSlice$LT$gimli..endianity..LittleEndian$GT$$GT$$C$gimli..read..Error$GT$$GT$17h1cda5e1d1a7951dcE', symObjAddr: 0x2ACC, symBinAddr: 0x100014CD8, symSize: 0x80 }
  - { offset: 0x38E58, size: 0x8, addend: 0x0, symName: '__ZN4core3ptr173drop_in_place$LT$alloc..boxed..Box$LT$$u5b$addr2line..function..LazyFunction$LT$gimli..read..endian_slice..EndianSlice$LT$gimli..endianity..LittleEndian$GT$$GT$$u5d$$GT$$GT$17h34d35d9ea3d3b9d5E', symObjAddr: 0x2B4C, symBinAddr: 0x100014D58, symSize: 0x9C }
  - { offset: 0x38E6F, size: 0x8, addend: 0x0, symName: '__ZN4core3ptr173drop_in_place$LT$alloc..boxed..Box$LT$$u5b$addr2line..function..LazyFunction$LT$gimli..read..endian_slice..EndianSlice$LT$gimli..endianity..LittleEndian$GT$$GT$$u5d$$GT$$GT$17h34d35d9ea3d3b9d5E', symObjAddr: 0x2B4C, symBinAddr: 0x100014D58, symSize: 0x9C }
  - { offset: 0x390B4, size: 0x8, addend: 0x0, symName: '__ZN4core3ptr181drop_in_place$LT$core..option..Option$LT$gimli..read..line..IncompleteLineProgram$LT$gimli..read..endian_slice..EndianSlice$LT$gimli..endianity..LittleEndian$GT$$C$usize$GT$$GT$$GT$17h59a58c9c9c958e24E', symObjAddr: 0x2C58, symBinAddr: 0x100014DF4, symSize: 0x98 }
  - { offset: 0x3936F, size: 0x8, addend: 0x0, symName: '__ZN4core3ptr181drop_in_place$LT$core..result..Result$LT$addr2line..frame..FrameIter$LT$gimli..read..endian_slice..EndianSlice$LT$gimli..endianity..LittleEndian$GT$$GT$$C$gimli..read..Error$GT$$GT$17h49f2f998bcc2f32aE', symObjAddr: 0x2CF0, symBinAddr: 0x100014E8C, symSize: 0x34 }
  - { offset: 0x394AD, size: 0x8, addend: 0x0, symName: '__ZN4core3ptr184drop_in_place$LT$core..result..Result$LT$addr2line..function..Functions$LT$gimli..read..endian_slice..EndianSlice$LT$gimli..endianity..LittleEndian$GT$$GT$$C$gimli..read..Error$GT$$GT$17h10dd28e922629511E', symObjAddr: 0x2D24, symBinAddr: 0x100014EC0, symSize: 0xD8 }
  - { offset: 0x3A03F, size: 0x8, addend: 0x0, symName: '__ZN4core3ptr194drop_in_place$LT$core..result..Result$LT$std..sync..poison..mutex..MutexGuard$LT$$LP$$RP$$GT$$C$std..sync..poison..PoisonError$LT$std..sync..poison..mutex..MutexGuard$LT$$LP$$RP$$GT$$GT$$GT$$GT$17ha7e54304228a066cE', symObjAddr: 0x2E70, symBinAddr: 0x100014F98, symSize: 0x4C }
  - { offset: 0x3A06F, size: 0x8, addend: 0x0, symName: '__ZN4core3ptr199drop_in_place$LT$core..result..Result$LT$core..option..Option$LT$alloc..sync..Arc$LT$std..sync..poison..mutex..Mutex$LT$alloc..vec..Vec$LT$u8$GT$$GT$$GT$$GT$$C$std..thread..local..AccessError$GT$$GT$17hc820eafe807d521eE', symObjAddr: 0x2EBC, symBinAddr: 0x100014FE4, symSize: 0x2C }
  - { offset: 0x3A136, size: 0x8, addend: 0x0, symName: '__ZN4core3ptr231drop_in_place$LT$core..result..Result$LT$core..option..Option$LT$alloc..boxed..Box$LT$addr2line..unit..DwoUnit$LT$gimli..read..endian_slice..EndianSlice$LT$gimli..endianity..LittleEndian$GT$$GT$$GT$$GT$$C$gimli..read..Error$GT$$GT$17hdbd1f85fa898eaf9E', symObjAddr: 0x2EE8, symBinAddr: 0x100015010, symSize: 0xD4 }
  - { offset: 0x3A31F, size: 0x8, addend: 0x0, symName: '__ZN4core3ptr275drop_in_place$LT$gimli..read..line..LineRows$LT$gimli..read..endian_slice..EndianSlice$LT$gimli..endianity..LittleEndian$GT$$C$gimli..read..line..IncompleteLineProgram$LT$gimli..read..endian_slice..EndianSlice$LT$gimli..endianity..LittleEndian$GT$$C$usize$GT$$C$usize$GT$$GT$17hebba07efb64a969cE', symObjAddr: 0x2FD4, symBinAddr: 0x1000150E4, symSize: 0x8C }
  - { offset: 0x3A594, size: 0x8, addend: 0x0, symName: '__ZN4core3ptr280drop_in_place$LT$$LT$alloc..collections..btree..map..IntoIter$LT$K$C$V$C$A$GT$$u20$as$u20$core..ops..drop..Drop$GT$..drop..DropGuard$LT$u64$C$core..result..Result$LT$alloc..sync..Arc$LT$gimli..read..abbrev..Abbreviations$GT$$C$gimli..read..Error$GT$$C$alloc..alloc..Global$GT$$GT$17h605d7228f128decdE', symObjAddr: 0x3060, symBinAddr: 0x100015170, symSize: 0x84 }
  - { offset: 0x3A704, size: 0x8, addend: 0x0, symName: '__ZN4core3ptr284drop_in_place$LT$core..result..Result$LT$$RF$core..result..Result$LT$addr2line..line..Lines$C$gimli..read..Error$GT$$C$$LP$$RF$core..result..Result$LT$addr2line..line..Lines$C$gimli..read..Error$GT$$C$core..result..Result$LT$addr2line..line..Lines$C$gimli..read..Error$GT$$RP$$GT$$GT$17h4c3f39ee410886d9E', symObjAddr: 0x30E4, symBinAddr: 0x1000151F4, symSize: 0x14 }
  - { offset: 0x3A75F, size: 0x8, addend: 0x0, symName: '__ZN4core3ptr37drop_in_place$LT$std..env..VarsOs$GT$17h691c0706c4a0a296E', symObjAddr: 0x30F8, symBinAddr: 0x100015208, symSize: 0xAC }
  - { offset: 0x3AA5E, size: 0x8, addend: 0x0, symName: '__ZN4core3ptr42drop_in_place$LT$alloc..string..String$GT$17hac81f7a4d168ae64E', symObjAddr: 0x32AC, symBinAddr: 0x1000152B4, symSize: 0x18 }
  - { offset: 0x3AA75, size: 0x8, addend: 0x0, symName: '__ZN4core3ptr42drop_in_place$LT$alloc..string..String$GT$17hac81f7a4d168ae64E', symObjAddr: 0x32AC, symBinAddr: 0x1000152B4, symSize: 0x18 }
  - { offset: 0x3AB39, size: 0x8, addend: 0x0, symName: '__ZN4core3ptr42drop_in_place$LT$std..io..error..Error$GT$17habd70f1b431d348cE', symObjAddr: 0x32C4, symBinAddr: 0x1000152CC, symSize: 0xAC }
  - { offset: 0x3AD63, size: 0x8, addend: 0x0, symName: '__ZN4core3ptr44drop_in_place$LT$object..read..ObjectMap$GT$17h70ce07c320cc7419E', symObjAddr: 0x3370, symBinAddr: 0x100015378, symSize: 0x58 }
  - { offset: 0x3AE92, size: 0x8, addend: 0x0, symName: '__ZN4core3ptr46drop_in_place$LT$alloc..vec..Vec$LT$u8$GT$$GT$17hb337dff62f58fd0bE', symObjAddr: 0x3434, symBinAddr: 0x1000153D0, symSize: 0x18 }
  - { offset: 0x3AF1F, size: 0x8, addend: 0x0, symName: '__ZN4core3ptr46drop_in_place$LT$std..io..stdio..StdinLock$GT$17hb805540b2d8fd9f7E', symObjAddr: 0x344C, symBinAddr: 0x1000153E8, symSize: 0x54 }
  - { offset: 0x3AF36, size: 0x8, addend: 0x0, symName: '__ZN4core3ptr46drop_in_place$LT$std..io..stdio..StdinLock$GT$17hb805540b2d8fd9f7E', symObjAddr: 0x344C, symBinAddr: 0x1000153E8, symSize: 0x54 }
  - { offset: 0x3AF4B, size: 0x8, addend: 0x0, symName: '__ZN4core3ptr46drop_in_place$LT$std..io..stdio..StdinLock$GT$17hb805540b2d8fd9f7E', symObjAddr: 0x344C, symBinAddr: 0x1000153E8, symSize: 0x54 }
  - { offset: 0x3B03D, size: 0x8, addend: 0x0, symName: '__ZN4core3ptr48drop_in_place$LT$alloc..ffi..c_str..NulError$GT$17h0aa90617c2ef35ffE', symObjAddr: 0x3584, symBinAddr: 0x10001543C, symSize: 0x18 }
  - { offset: 0x3B054, size: 0x8, addend: 0x0, symName: '__ZN4core3ptr48drop_in_place$LT$alloc..ffi..c_str..NulError$GT$17h0aa90617c2ef35ffE', symObjAddr: 0x3584, symBinAddr: 0x10001543C, symSize: 0x18 }
  - { offset: 0x3B0E0, size: 0x8, addend: 0x0, symName: '__ZN4core3ptr557drop_in_place$LT$core..result..Result$LT$$RF$core..result..Result$LT$addr2line..function..Function$LT$gimli..read..endian_slice..EndianSlice$LT$gimli..endianity..LittleEndian$GT$$GT$$C$gimli..read..Error$GT$$C$$LP$$RF$core..result..Result$LT$addr2line..function..Function$LT$gimli..read..endian_slice..EndianSlice$LT$gimli..endianity..LittleEndian$GT$$GT$$C$gimli..read..Error$GT$$C$core..result..Result$LT$addr2line..function..Function$LT$gimli..read..endian_slice..EndianSlice$LT$gimli..endianity..LittleEndian$GT$$GT$$C$gimli..read..Error$GT$$RP$$GT$$GT$17h748b27d3ad91b666E', symObjAddr: 0x37B0, symBinAddr: 0x100015454, symSize: 0x64 }
  - { offset: 0x3B2CA, size: 0x8, addend: 0x0, symName: '__ZN4core3ptr55drop_in_place$LT$gimli..read..abbrev..Abbreviations$GT$17h5d64ddc376f7673eE', symObjAddr: 0x3814, symBinAddr: 0x1000154B8, symSize: 0x118 }
  - { offset: 0x3B62D, size: 0x8, addend: 0x0, symName: '__ZN4core3ptr560drop_in_place$LT$core..result..Result$LT$$RF$core..result..Result$LT$addr2line..function..Functions$LT$gimli..read..endian_slice..EndianSlice$LT$gimli..endianity..LittleEndian$GT$$GT$$C$gimli..read..Error$GT$$C$$LP$$RF$core..result..Result$LT$addr2line..function..Functions$LT$gimli..read..endian_slice..EndianSlice$LT$gimli..endianity..LittleEndian$GT$$GT$$C$gimli..read..Error$GT$$C$core..result..Result$LT$addr2line..function..Functions$LT$gimli..read..endian_slice..EndianSlice$LT$gimli..endianity..LittleEndian$GT$$GT$$C$gimli..read..Error$GT$$RP$$GT$$GT$17h20f4a6896059bba5E', symObjAddr: 0x39B0, symBinAddr: 0x1000155D0, symSize: 0x14 }
  - { offset: 0x3B688, size: 0x8, addend: 0x0, symName: '__ZN4core3ptr60drop_in_place$LT$gimli..read..abbrev..AbbreviationsCache$GT$17h07c70485ebd56478E', symObjAddr: 0x39C4, symBinAddr: 0x1000155E4, symSize: 0xCC }
  - { offset: 0x3B84F, size: 0x8, addend: 0x0, symName: '__ZN4core3ptr64drop_in_place$LT$std..sys..pal..unix..sync..mutex..AttrGuard$GT$17h0a5906221301930bE', symObjAddr: 0x3B1C, symBinAddr: 0x1000156B0, symSize: 0x48 }
  - { offset: 0x3B880, size: 0x8, addend: 0x0, symName: '__ZN4core3ptr64drop_in_place$LT$std..sys..process..unix..common..ChildPipes$GT$17h10e8f412fa846c73E', symObjAddr: 0x3B64, symBinAddr: 0x1000156F8, symSize: 0x78 }
  - { offset: 0x3B990, size: 0x8, addend: 0x0, symName: '__ZN4core3ptr64drop_in_place$LT$std..sys..process..unix..common..StdioPipes$GT$17hf4120600f772654aE', symObjAddr: 0x3BDC, symBinAddr: 0x100015770, symSize: 0x54 }
  - { offset: 0x3BB08, size: 0x8, addend: 0x0, symName: '__ZN4core3ptr65drop_in_place$LT$alloc..vec..Vec$LT$alloc..string..String$GT$$GT$17h66cdbc24d9622501E', symObjAddr: 0x3C30, symBinAddr: 0x1000157C4, symSize: 0x80 }
  - { offset: 0x3BCA6, size: 0x8, addend: 0x0, symName: '__ZN4core3ptr65drop_in_place$LT$std..backtrace_rs..symbolize..gimli..Context$GT$17h164c0942f12400dbE', symObjAddr: 0x3CB0, symBinAddr: 0x100015844, symSize: 0xE8 }
  - { offset: 0x3BF38, size: 0x8, addend: 0x0, symName: '__ZN4core3ptr66drop_in_place$LT$std..backtrace_rs..backtrace..libunwind..Bomb$GT$17h551fed0d2b731830E', symObjAddr: 0x3D98, symBinAddr: 0x10001592C, symSize: 0x40 }
  - { offset: 0x3BF84, size: 0x8, addend: 0x0, symName: '__ZN4core3ptr701drop_in_place$LT$core..result..Result$LT$$RF$core..result..Result$LT$core..option..Option$LT$alloc..boxed..Box$LT$addr2line..unit..DwoUnit$LT$gimli..read..endian_slice..EndianSlice$LT$gimli..endianity..LittleEndian$GT$$GT$$GT$$GT$$C$gimli..read..Error$GT$$C$$LP$$RF$core..result..Result$LT$core..option..Option$LT$alloc..boxed..Box$LT$addr2line..unit..DwoUnit$LT$gimli..read..endian_slice..EndianSlice$LT$gimli..endianity..LittleEndian$GT$$GT$$GT$$GT$$C$gimli..read..Error$GT$$C$core..result..Result$LT$core..option..Option$LT$alloc..boxed..Box$LT$addr2line..unit..DwoUnit$LT$gimli..read..endian_slice..EndianSlice$LT$gimli..endianity..LittleEndian$GT$$GT$$GT$$GT$$C$gimli..read..Error$GT$$RP$$GT$$GT$17h99be7971756b6652E', symObjAddr: 0x3DD8, symBinAddr: 0x10001596C, symSize: 0x14 }
  - { offset: 0x3C025, size: 0x8, addend: 0x0, symName: '__ZN4core3ptr70drop_in_place$LT$std..backtrace_rs..symbolize..gimli..stash..Stash$GT$17hf2d48d9015d0f7c8E', symObjAddr: 0x3E6C, symBinAddr: 0x100015980, symSize: 0xB8 }
  - { offset: 0x3C2CB, size: 0x8, addend: 0x0, symName: '__ZN4core3ptr71drop_in_place$LT$std..backtrace_rs..symbolize..gimli..macho..Object$GT$17h8bb3839755842750E', symObjAddr: 0x3F24, symBinAddr: 0x100015A38, symSize: 0xD8 }
  - { offset: 0x3C59E, size: 0x8, addend: 0x0, symName: '__ZN4core3ptr72drop_in_place$LT$core..option..Option$LT$object..read..ObjectMap$GT$$GT$17hc7c56c88aae4c5fcE', symObjAddr: 0x4068, symBinAddr: 0x100015B10, symSize: 0x64 }
  - { offset: 0x3C71B, size: 0x8, addend: 0x0, symName: '__ZN4core3ptr73drop_in_place$LT$alloc..vec..Vec$LT$addr2line..line..LineSequence$GT$$GT$17he296d46dd6d5cbabE', symObjAddr: 0x40CC, symBinAddr: 0x100015B74, symSize: 0x84 }
  - { offset: 0x3C881, size: 0x8, addend: 0x0, symName: '__ZN4core3ptr77drop_in_place$LT$alloc..boxed..Box$LT$$u5b$alloc..string..String$u5d$$GT$$GT$17hc446220f14ad3f54E', symObjAddr: 0x4188, symBinAddr: 0x100015BF8, symSize: 0x70 }
  - { offset: 0x3C898, size: 0x8, addend: 0x0, symName: '__ZN4core3ptr77drop_in_place$LT$alloc..boxed..Box$LT$$u5b$alloc..string..String$u5d$$GT$$GT$17hc446220f14ad3f54E', symObjAddr: 0x4188, symBinAddr: 0x100015BF8, symSize: 0x70 }
  - { offset: 0x3C9A4, size: 0x8, addend: 0x0, symName: '__ZN4core3ptr77drop_in_place$LT$std..panicking..begin_panic_handler..FormatStringPayload$GT$17h6fcfcc78704673e3E', symObjAddr: 0x41F8, symBinAddr: 0x100015C68, symSize: 0x24 }
  - { offset: 0x3CA60, size: 0x8, addend: 0x0, symName: '__ZN4core3ptr78drop_in_place$LT$core..result..Result$LT$usize$C$std..io..error..Error$GT$$GT$17h2f8ac36bcb547dffE', symObjAddr: 0x421C, symBinAddr: 0x100015C8C, symSize: 0x14 }
  - { offset: 0x3CA74, size: 0x8, addend: 0x0, symName: '__ZN4core3ptr79drop_in_place$LT$std..sync..poison..rwlock..RwLockReadGuard$LT$$LP$$RP$$GT$$GT$17hc54fd0027bbd6d30E', symObjAddr: 0x4230, symBinAddr: 0x100015CA0, symSize: 0x58 }
  - { offset: 0x3CB10, size: 0x8, addend: 0x0, symName: '__ZN4core3ptr81drop_in_place$LT$core..result..Result$LT$$LP$$RP$$C$std..io..error..Error$GT$$GT$17ha905afa1a1b69da6E', symObjAddr: 0x4288, symBinAddr: 0x100015CF8, symSize: 0x10 }
  - { offset: 0x3CB40, size: 0x8, addend: 0x0, symName: '__ZN4core3ptr81drop_in_place$LT$std..sys..process..unix..common..cstring_array..CStringArray$GT$17h601d89b39b80fabfE', symObjAddr: 0x4298, symBinAddr: 0x100015D08, symSize: 0xD0 }
  - { offset: 0x3CE63, size: 0x8, addend: 0x0, symName: '__ZN4core3ptr82drop_in_place$LT$alloc..sync..ArcInner$LT$std..sys..fs..unix..InnerReadDir$GT$$GT$17h5d4f495acfd7dae8E', symObjAddr: 0x4368, symBinAddr: 0x100015DD8, symSize: 0x60 }
  - { offset: 0x3D006, size: 0x8, addend: 0x0, symName: '__ZN4core3ptr84drop_in_place$LT$$LP$std..ffi..os_str..OsString$C$std..ffi..os_str..OsString$RP$$GT$17h62ddf8343f8db47bE', symObjAddr: 0x43C8, symBinAddr: 0x100015E38, symSize: 0x4C }
  - { offset: 0x3D18B, size: 0x8, addend: 0x0, symName: '__ZN4core3ptr90drop_in_place$LT$std..io..buffered..bufwriter..BufWriter$LT$W$GT$..flush_buf..BufGuard$GT$17he92d49b51e4ad54fE', symObjAddr: 0x4450, symBinAddr: 0x100015E84, symSize: 0x60 }
  - { offset: 0x3D312, size: 0x8, addend: 0x0, symName: '__ZN4core3ptr92drop_in_place$LT$core..result..Result$LT$addr2line..line..Lines$C$gimli..read..Error$GT$$GT$17h0ed91c593b269246E', symObjAddr: 0x4508, symBinAddr: 0x100015EE4, symSize: 0xE4 }
  - { offset: 0x3D558, size: 0x8, addend: 0x0, symName: '__ZN4core3ptr93drop_in_place$LT$core..option..Option$LT$std..backtrace_rs..symbolize..gimli..Mapping$GT$$GT$17h110055b033f66c0fE', symObjAddr: 0x45EC, symBinAddr: 0x100015FC8, symSize: 0x6C }
  - { offset: 0x3D5F5, size: 0x8, addend: 0x0, symName: '__ZN4core3ptr95drop_in_place$LT$std..io..buffered..linewriter..LineWriter$LT$std..io..stdio..StdoutRaw$GT$$GT$17hc5979ba65a107f72E', symObjAddr: 0x4658, symBinAddr: 0x100016034, symSize: 0xF8 }
  - { offset: 0x407E0, size: 0x8, addend: 0x0, symName: __ZN4core5slice4sort6stable14driftsort_main17h521ab17a5a757164E, symObjAddr: 0x9098, symBinAddr: 0x100017AAC, symSize: 0x140 }
  - { offset: 0x40A83, size: 0x8, addend: 0x0, symName: __ZN4core5slice4sort6stable14driftsort_main17ha9075508af06de20E, symObjAddr: 0x91D8, symBinAddr: 0x100017BEC, symSize: 0x164 }
  - { offset: 0x40D7C, size: 0x8, addend: 0x0, symName: __ZN4core5slice4sort6stable14driftsort_main17hb0662f4917d01b7dE, symObjAddr: 0x933C, symBinAddr: 0x100017D50, symSize: 0x140 }
  - { offset: 0x4101F, size: 0x8, addend: 0x0, symName: __ZN4core5slice4sort6stable14driftsort_main17hbec9c5ede644b796E, symObjAddr: 0x947C, symBinAddr: 0x100017E90, symSize: 0x164 }
  - { offset: 0x41318, size: 0x8, addend: 0x0, symName: __ZN4core5slice4sort6stable14driftsort_main17hc6af17bd05ac089fE, symObjAddr: 0x95E0, symBinAddr: 0x100017FF4, symSize: 0x140 }
  - { offset: 0x41539, size: 0x8, addend: 0x0, symName: __ZN4core5slice4sort6stable14driftsort_main17hfd7dcf5984234633E, symObjAddr: 0x9720, symBinAddr: 0x100018134, symSize: 0x140 }
  - { offset: 0x419CD, size: 0x8, addend: 0x0, symName: __ZN4core5slice4sort6stable5drift4sort17h6aaaaf784e659385E, symObjAddr: 0x9860, symBinAddr: 0x100018274, symSize: 0x4E0 }
  - { offset: 0x41FBC, size: 0x8, addend: 0x0, symName: __ZN4core5slice4sort6stable5drift4sort17h866748af94df36ccE, symObjAddr: 0x9D40, symBinAddr: 0x100018754, symSize: 0x538 }
  - { offset: 0x4264F, size: 0x8, addend: 0x0, symName: __ZN4core5slice4sort6stable5drift4sort17h9ccd45f18f7947baE, symObjAddr: 0xA278, symBinAddr: 0x100018C8C, symSize: 0x4F8 }
  - { offset: 0x42CCE, size: 0x8, addend: 0x0, symName: __ZN4core5slice4sort6stable5drift4sort17haa5e5863b64b9a60E, symObjAddr: 0xA770, symBinAddr: 0x100019184, symSize: 0x5EC }
  - { offset: 0x43388, size: 0x8, addend: 0x0, symName: __ZN4core5slice4sort6stable5drift4sort17hb68090b03a5248c3E, symObjAddr: 0xAD5C, symBinAddr: 0x100019770, symSize: 0x530 }
  - { offset: 0x439F3, size: 0x8, addend: 0x0, symName: __ZN4core5slice4sort6stable5drift4sort17he935295b9297be3dE, symObjAddr: 0xB28C, symBinAddr: 0x100019CA0, symSize: 0x4F8 }
  - { offset: 0x44276, size: 0x8, addend: 0x0, symName: __ZN4core5slice4sort6stable9quicksort9quicksort17h0ca9f036defe4ca1E, symObjAddr: 0xB784, symBinAddr: 0x10001A198, symSize: 0x834 }
  - { offset: 0x44E61, size: 0x8, addend: 0x0, symName: __ZN4core5slice4sort6stable9quicksort9quicksort17h0dcd6807bb10c1ddE, symObjAddr: 0xBFB8, symBinAddr: 0x10001A9CC, symSize: 0x6D8 }
  - { offset: 0x45921, size: 0x8, addend: 0x0, symName: __ZN4core5slice4sort6stable9quicksort9quicksort17h403c35809902d95cE, symObjAddr: 0xC690, symBinAddr: 0x10001B0A4, symSize: 0x74C }
  - { offset: 0x46066, size: 0x8, addend: 0x0, symName: __ZN4core5slice4sort6stable9quicksort9quicksort17h52ed04d04eb94d9aE, symObjAddr: 0xCDDC, symBinAddr: 0x10001B7F0, symSize: 0x834 }
  - { offset: 0x46FFD, size: 0x8, addend: 0x0, symName: __ZN4core5slice4sort6stable9quicksort9quicksort17h6a6db67da80ded8fE, symObjAddr: 0xD610, symBinAddr: 0x10001C024, symSize: 0x6E0 }
  - { offset: 0x47ABD, size: 0x8, addend: 0x0, symName: __ZN4core5slice4sort6stable9quicksort9quicksort17hfc1631ac0f214f19E, symObjAddr: 0xDCF0, symBinAddr: 0x10001C704, symSize: 0x810 }
  - { offset: 0x48739, size: 0x8, addend: 0x0, symName: __ZN4core5slice4sort6shared9smallsort12sort4_stable17h31fac7551cf33bd2E, symObjAddr: 0x7F40, symBinAddr: 0x100016954, symSize: 0x194 }
  - { offset: 0x488E6, size: 0x8, addend: 0x0, symName: __ZN4core5slice4sort6shared9smallsort12sort4_stable17hf90c0556197dda99E, symObjAddr: 0x80D4, symBinAddr: 0x100016AE8, symSize: 0x180 }
  - { offset: 0x48D08, size: 0x8, addend: 0x0, symName: __ZN4core5slice4sort6shared9smallsort12sort8_stable17hf7b6a991869544ccE, symObjAddr: 0x8254, symBinAddr: 0x100016C68, symSize: 0x2B8 }
  - { offset: 0x491F1, size: 0x8, addend: 0x0, symName: __ZN4core5slice4sort6shared9smallsort18small_sort_general17h034e2245b0bf43b0E, symObjAddr: 0x850C, symBinAddr: 0x100016F20, symSize: 0x400 }
  - { offset: 0x4975E, size: 0x8, addend: 0x0, symName: __ZN4core5slice4sort6shared9smallsort18small_sort_general17h87ad8da531a3f31aE, symObjAddr: 0x890C, symBinAddr: 0x100017320, symSize: 0x4A4 }
  - { offset: 0x49E56, size: 0x8, addend: 0x0, symName: __ZN4core5slice4sort6shared9smallsort25insertion_sort_shift_left17h42562c73653bb666E, symObjAddr: 0x8DB0, symBinAddr: 0x1000177C4, symSize: 0xA8 }
  - { offset: 0x49F2E, size: 0x8, addend: 0x0, symName: __ZN4core5slice4sort6shared9smallsort25insertion_sort_shift_left17ha2f1b9cdd766aaa4E, symObjAddr: 0x8E58, symBinAddr: 0x10001786C, symSize: 0xB8 }
  - { offset: 0x4A05C, size: 0x8, addend: 0x0, symName: __ZN4core5slice4sort6shared9smallsort25insertion_sort_shift_left17hbf93252988a52ab7E, symObjAddr: 0x8F10, symBinAddr: 0x100017924, symSize: 0x94 }
  - { offset: 0x4A126, size: 0x8, addend: 0x0, symName: __ZN4core5slice4sort6shared9smallsort25insertion_sort_shift_left17hd501c44f9cc25640E, symObjAddr: 0x8FA4, symBinAddr: 0x1000179B8, symSize: 0xF4 }
  - { offset: 0x4A523, size: 0x8, addend: 0x0, symName: __ZN4core5slice4sort6shared5pivot11median3_rec17h0df86c062c3307f3E, symObjAddr: 0x781C, symBinAddr: 0x100016230, symSize: 0x11C }
  - { offset: 0x4A61F, size: 0x8, addend: 0x0, symName: __ZN4core5slice4sort6shared5pivot11median3_rec17h4e5272a39440c6fcE, symObjAddr: 0x7938, symBinAddr: 0x10001634C, symSize: 0xCC }
  - { offset: 0x4A744, size: 0x8, addend: 0x0, symName: __ZN4core5slice4sort6shared5pivot11median3_rec17h5a457aecc5390e2dE, symObjAddr: 0x7A04, symBinAddr: 0x100016418, symSize: 0xD0 }
  - { offset: 0x4A83F, size: 0x8, addend: 0x0, symName: __ZN4core5slice4sort6shared5pivot11median3_rec17h63b3210c63d487e5E, symObjAddr: 0x7AD4, symBinAddr: 0x1000164E8, symSize: 0xD0 }
  - { offset: 0x4A938, size: 0x8, addend: 0x0, symName: __ZN4core5slice4sort6shared5pivot11median3_rec17h6546c17569d2c228E, symObjAddr: 0x7BA4, symBinAddr: 0x1000165B8, symSize: 0x134 }
  - { offset: 0x4AB5F, size: 0x8, addend: 0x0, symName: __ZN4core5slice4sort6shared5pivot11median3_rec17h825498fa0147afcdE, symObjAddr: 0x7CD8, symBinAddr: 0x1000166EC, symSize: 0xCC }
  - { offset: 0x4AC58, size: 0x8, addend: 0x0, symName: __ZN4core5slice4sort6shared5pivot11median3_rec17hcc5592aee9a962d6E, symObjAddr: 0x7DA4, symBinAddr: 0x1000167B8, symSize: 0xCC }
  - { offset: 0x4AD51, size: 0x8, addend: 0x0, symName: __ZN4core5slice4sort6shared5pivot11median3_rec17hd5918a3d1c875d2dE, symObjAddr: 0x7E70, symBinAddr: 0x100016884, symSize: 0xD0 }
  - { offset: 0x4AF14, size: 0x8, addend: 0x0, symName: __ZN4core5slice4sort8unstable7ipnsort17h3050acbcca3cb150E, symObjAddr: 0xE500, symBinAddr: 0x10001CF14, symSize: 0xEC }
  - { offset: 0x4B056, size: 0x8, addend: 0x0, symName: __ZN4core5slice4sort8unstable7ipnsort17hfd87871531817c09E, symObjAddr: 0xE5EC, symBinAddr: 0x10001D000, symSize: 0x1A8 }
  - { offset: 0x4B32A, size: 0x8, addend: 0x0, symName: __ZN4core5slice4sort8unstable8heapsort8heapsort17h018ffb6550069dc5E, symObjAddr: 0xE794, symBinAddr: 0x10001D1A8, symSize: 0x100 }
  - { offset: 0x4B516, size: 0x8, addend: 0x0, symName: __ZN4core5slice4sort8unstable8heapsort8heapsort17h13deb584184321b4E, symObjAddr: 0xE894, symBinAddr: 0x10001D2A8, symSize: 0x160 }
  - { offset: 0x4B899, size: 0x8, addend: 0x0, symName: __ZN4core5slice4sort8unstable9quicksort9quicksort17h6207a09384b1d73eE, symObjAddr: 0xE9F4, symBinAddr: 0x10001D408, symSize: 0x598 }
  - { offset: 0x4C42F, size: 0x8, addend: 0x0, symName: __ZN4core5slice4sort8unstable9quicksort9quicksort17hf6b9320c24c346cdE, symObjAddr: 0xEF8C, symBinAddr: 0x10001D9A0, symSize: 0x408 }
  - { offset: 0x4CDEB, size: 0x8, addend: 0x0, symName: '__ZN36_$LT$T$u20$as$u20$core..any..Any$GT$7type_id17hca9570fd9e3ed26eE', symObjAddr: 0x160, symBinAddr: 0x1000136F4, symSize: 0x24 }
  - { offset: 0x4CE05, size: 0x8, addend: 0x0, symName: '__ZN36_$LT$T$u20$as$u20$core..any..Any$GT$7type_id17he4b6f1bd2d030df3E', symObjAddr: 0x184, symBinAddr: 0x100013718, symSize: 0x24 }
  - { offset: 0x4CE73, size: 0x8, addend: 0x0, symName: '__ZN42_$LT$$RF$T$u20$as$u20$core..fmt..Debug$GT$3fmt17h0fc7b8965e6afc5aE', symObjAddr: 0x4CC, symBinAddr: 0x10001373C, symSize: 0x74 }
  - { offset: 0x4CF07, size: 0x8, addend: 0x0, symName: '__ZN42_$LT$$RF$T$u20$as$u20$core..fmt..Debug$GT$3fmt17h2958e9215852db4aE', symObjAddr: 0x540, symBinAddr: 0x1000137B0, symSize: 0x1C }
  - { offset: 0x4CF4D, size: 0x8, addend: 0x0, symName: '__ZN42_$LT$$RF$T$u20$as$u20$core..fmt..Debug$GT$3fmt17h2bb2d350b34dfff8E', symObjAddr: 0x55C, symBinAddr: 0x1000137CC, symSize: 0x10 }
  - { offset: 0x4CF7E, size: 0x8, addend: 0x0, symName: '__ZN42_$LT$$RF$T$u20$as$u20$core..fmt..Debug$GT$3fmt17h83b5ff28188540c2E', symObjAddr: 0x7FC, symBinAddr: 0x1000137DC, symSize: 0x14 }
  - { offset: 0x4CFAF, size: 0x8, addend: 0x0, symName: '__ZN42_$LT$$RF$T$u20$as$u20$core..fmt..Debug$GT$3fmt17h8ac30dcc9c5b5849E', symObjAddr: 0x8B0, symBinAddr: 0x1000137F0, symSize: 0x74 }
  - { offset: 0x4D0C6, size: 0x8, addend: 0x0, symName: '__ZN42_$LT$$RF$T$u20$as$u20$core..fmt..Debug$GT$3fmt17h8aff657d191ad3c5E', symObjAddr: 0x924, symBinAddr: 0x100013864, symSize: 0x1C }
  - { offset: 0x4D10C, size: 0x8, addend: 0x0, symName: '__ZN42_$LT$$RF$T$u20$as$u20$core..fmt..Debug$GT$3fmt17ha21c7837cadbd3f5E', symObjAddr: 0x9B8, symBinAddr: 0x100013880, symSize: 0x10 }
  - { offset: 0x4D12E, size: 0x8, addend: 0x0, symName: '__ZN42_$LT$$RF$T$u20$as$u20$core..fmt..Debug$GT$3fmt17heec2750af2870f2eE', symObjAddr: 0xB68, symBinAddr: 0x100013890, symSize: 0x9C }
  - { offset: 0x4D26B, size: 0x8, addend: 0x0, symName: '__ZN4core3fmt3num50_$LT$impl$u20$core..fmt..Debug$u20$for$u20$i32$GT$3fmt17h31c367ae7db50eaeE', symObjAddr: 0xDA0, symBinAddr: 0x1000139B4, symSize: 0x18 }
  - { offset: 0x4D282, size: 0x8, addend: 0x0, symName: '__ZN4core3fmt3num50_$LT$impl$u20$core..fmt..Debug$u20$for$u20$i32$GT$3fmt17h31c367ae7db50eaeE', symObjAddr: 0xDA0, symBinAddr: 0x1000139B4, symSize: 0x18 }
  - { offset: 0x4D2AD, size: 0x8, addend: 0x0, symName: '__ZN4core3fmt3num52_$LT$impl$u20$core..fmt..Debug$u20$for$u20$usize$GT$3fmt17hd9a44c73645affdaE', symObjAddr: 0xE00, symBinAddr: 0x1000139CC, symSize: 0x18 }
  - { offset: 0x4D2C4, size: 0x8, addend: 0x0, symName: '__ZN4core3fmt3num52_$LT$impl$u20$core..fmt..Debug$u20$for$u20$usize$GT$3fmt17hd9a44c73645affdaE', symObjAddr: 0xE00, symBinAddr: 0x1000139CC, symSize: 0x18 }
  - { offset: 0x4D2FE, size: 0x8, addend: 0x0, symName: '__ZN44_$LT$$RF$T$u20$as$u20$core..fmt..Display$GT$3fmt17h7aede7e1fafa8ecfE', symObjAddr: 0xCEC, symBinAddr: 0x10001392C, symSize: 0x10 }
  - { offset: 0x4D319, size: 0x8, addend: 0x0, symName: '__ZN44_$LT$$RF$T$u20$as$u20$core..fmt..Display$GT$3fmt17hcdc89f6b7cdef95fE', symObjAddr: 0xCFC, symBinAddr: 0x10001393C, symSize: 0x78 }
  - { offset: 0x4D6EE, size: 0x8, addend: 0x0, symName: __ZN4core3fmt5Write10write_char17h45384c06e74ab019E, symObjAddr: 0xE18, symBinAddr: 0x1000139E4, symSize: 0x150 }
  - { offset: 0x4D885, size: 0x8, addend: 0x0, symName: __ZN4core3fmt5Write10write_char17h9a7a54bb0ca7d9cdE, symObjAddr: 0x10E8, symBinAddr: 0x100013B34, symSize: 0x128 }
  - { offset: 0x4DA40, size: 0x8, addend: 0x0, symName: __ZN4core3fmt5Write10write_char17hb7b510f6e91dde12E, symObjAddr: 0x1350, symBinAddr: 0x100013C5C, symSize: 0x180 }
  - { offset: 0x4DBED, size: 0x8, addend: 0x0, symName: __ZN4core3fmt5Write10write_char17hdfb28a662f1dadabE, symObjAddr: 0x14D0, symBinAddr: 0x100013DDC, symSize: 0x140 }
  - { offset: 0x4DCC3, size: 0x8, addend: 0x0, symName: __ZN4core3fmt5Write9write_fmt17h13bdb2eccd0c285eE, symObjAddr: 0x1610, symBinAddr: 0x100013F1C, symSize: 0x10 }
  - { offset: 0x4DCF2, size: 0x8, addend: 0x0, symName: __ZN4core3fmt5Write9write_fmt17h3d48754a628ad650E, symObjAddr: 0x1620, symBinAddr: 0x100013F2C, symSize: 0x10 }
  - { offset: 0x4DD21, size: 0x8, addend: 0x0, symName: __ZN4core3fmt5Write9write_fmt17h4270820d5fb62457E, symObjAddr: 0x1630, symBinAddr: 0x100013F3C, symSize: 0x10 }
  - { offset: 0x4DD50, size: 0x8, addend: 0x0, symName: __ZN4core3fmt5Write9write_fmt17ha2d460255287c06dE, symObjAddr: 0x1640, symBinAddr: 0x100013F4C, symSize: 0x10 }
  - { offset: 0x4DD7F, size: 0x8, addend: 0x0, symName: __ZN4core3fmt5Write9write_fmt17ha8ecdcf0f48f38acE, symObjAddr: 0x1650, symBinAddr: 0x100013F5C, symSize: 0x10 }
  - { offset: 0x4DDDC, size: 0x8, addend: 0x0, symName: '__ZN50_$LT$$BP$mut$u20$T$u20$as$u20$core..fmt..Debug$GT$3fmt17h0e71da53ffdbf142E', symObjAddr: 0xF410, symBinAddr: 0x10001DDA8, symSize: 0x8 }
  - { offset: 0x4DDFA, size: 0x8, addend: 0x0, symName: '__ZN50_$LT$$BP$mut$u20$T$u20$as$u20$core..fmt..Debug$GT$3fmt17h0e71da53ffdbf142E', symObjAddr: 0xF410, symBinAddr: 0x10001DDA8, symSize: 0x8 }
  - { offset: 0x4DE29, size: 0x8, addend: 0x0, symName: '__ZN52_$LT$$RF$mut$u20$T$u20$as$u20$core..fmt..Display$GT$3fmt17hc5f28addd174597dE', symObjAddr: 0xF500, symBinAddr: 0x10001DDB0, symSize: 0x10 }
  - { offset: 0x4DEA8, size: 0x8, addend: 0x0, symName: '__ZN55_$LT$$RF$str$u20$as$u20$core..str..pattern..Pattern$GT$15is_contained_in17hf6a15fe5f9aec0c7E', symObjAddr: 0xF510, symBinAddr: 0x10001DDC0, symSize: 0x3C0 }
  - { offset: 0x4E8FB, size: 0x8, addend: 0x0, symName: '__ZN70_$LT$core..num..error..TryFromIntError$u20$as$u20$core..fmt..Debug$GT$3fmt17h43e59b0425417061E', symObjAddr: 0x1C570, symBinAddr: 0x1000292AC, symSize: 0x40 }
  - { offset: 0x4E9FD, size: 0x8, addend: 0x0, symName: '__ZN4core5array69_$LT$impl$u20$core..fmt..Debug$u20$for$u20$$u5b$T$u3b$$u20$N$u5d$$GT$3fmt17h666d4f1ab6b28ee7E', symObjAddr: 0x76B8, symBinAddr: 0x10001612C, symSize: 0xFC }
  - { offset: 0x4EF20, size: 0x8, addend: 0x0, symName: __ZN4core5panic12PanicPayload6as_str17h55b7c7a41678db2dE, symObjAddr: 0x7814, symBinAddr: 0x100016228, symSize: 0x8 }
  - { offset: 0x4F778, size: 0x8, addend: 0x0, symName: '__ZN4core3ops8function6FnOnce40call_once$u7b$$u7b$vtable.shim$u7d$$u7d$17h0256ef3c49b7fef6E', symObjAddr: 0x190C, symBinAddr: 0x100013F6C, symSize: 0xC }
  - { offset: 0x4F7C9, size: 0x8, addend: 0x0, symName: '__ZN4core3ops8function6FnOnce40call_once$u7b$$u7b$vtable.shim$u7d$$u7d$17h1a440162a384b96dE', symObjAddr: 0x1918, symBinAddr: 0x100013F78, symSize: 0x4 }
  - { offset: 0x4F7E6, size: 0x8, addend: 0x0, symName: '__ZN4core3ops8function6FnOnce40call_once$u7b$$u7b$vtable.shim$u7d$$u7d$17h1a440162a384b96dE', symObjAddr: 0x1918, symBinAddr: 0x100013F78, symSize: 0x4 }
  - { offset: 0x4F805, size: 0x8, addend: 0x0, symName: '__ZN4core3ops8function6FnOnce40call_once$u7b$$u7b$vtable.shim$u7d$$u7d$17h5a3ea79ed9b56f49E', symObjAddr: 0x1924, symBinAddr: 0x100013F7C, symSize: 0x28 }
  - { offset: 0x4F841, size: 0x8, addend: 0x0, symName: '__ZN4core3ops8function6FnOnce40call_once$u7b$$u7b$vtable.shim$u7d$$u7d$17h6ef6b541deff04acE', symObjAddr: 0x194C, symBinAddr: 0x100013FA4, symSize: 0xC }
  - { offset: 0x4F892, size: 0x8, addend: 0x0, symName: '__ZN4core3ops8function6FnOnce40call_once$u7b$$u7b$vtable.shim$u7d$$u7d$17h8b0e1f22722d72f6E', symObjAddr: 0x19F4, symBinAddr: 0x100013FB0, symSize: 0x4 }
  - { offset: 0x4F8AF, size: 0x8, addend: 0x0, symName: '__ZN4core3ops8function6FnOnce40call_once$u7b$$u7b$vtable.shim$u7d$$u7d$17h8b0e1f22722d72f6E', symObjAddr: 0x19F4, symBinAddr: 0x100013FB0, symSize: 0x4 }
  - { offset: 0x4F8CE, size: 0x8, addend: 0x0, symName: '__ZN4core3ops8function6FnOnce40call_once$u7b$$u7b$vtable.shim$u7d$$u7d$17h9b4a9096c70fd176E', symObjAddr: 0x1A38, symBinAddr: 0x100013FB4, symSize: 0xA4 }
  - { offset: 0x4FA14, size: 0x8, addend: 0x0, symName: '__ZN4core3ops8function6FnOnce40call_once$u7b$$u7b$vtable.shim$u7d$$u7d$17hb135094d08c6abcbE', symObjAddr: 0x1ADC, symBinAddr: 0x100014058, symSize: 0x60 }
  - { offset: 0x4FAF8, size: 0x8, addend: 0x0, symName: '__ZN4core3ops8function6FnOnce40call_once$u7b$$u7b$vtable.shim$u7d$$u7d$17hda98b980b7e364a0E', symObjAddr: 0x1B3C, symBinAddr: 0x1000140B8, symSize: 0x78 }
  - { offset: 0x5250F, size: 0x8, addend: 0x0, symName: '__ZN4core4cell4once17OnceCell$LT$T$GT$8try_init17h1f3ae8fa04109d74E', symObjAddr: 0x4750, symBinAddr: 0x10004A1AC, symSize: 0x60 }
  - { offset: 0x5252D, size: 0x8, addend: 0x0, symName: '__ZN4core4cell4once17OnceCell$LT$T$GT$8try_init17h1f3ae8fa04109d74E', symObjAddr: 0x4750, symBinAddr: 0x10004A1AC, symSize: 0x60 }
  - { offset: 0x52542, size: 0x8, addend: 0x0, symName: '__ZN4core4cell4once17OnceCell$LT$T$GT$8try_init17h1f3ae8fa04109d74E', symObjAddr: 0x4750, symBinAddr: 0x10004A1AC, symSize: 0x60 }
  - { offset: 0x52556, size: 0x8, addend: 0x0, symName: '__ZN4core4cell4once17OnceCell$LT$T$GT$8try_init17h1f3ae8fa04109d74E', symObjAddr: 0x4750, symBinAddr: 0x10004A1AC, symSize: 0x60 }
  - { offset: 0x525AD, size: 0x8, addend: 0x0, symName: '__ZN4core4cell4once17OnceCell$LT$T$GT$8try_init17h5030d0cfd605f88aE', symObjAddr: 0x47B0, symBinAddr: 0x10004A20C, symSize: 0x678 }
  - { offset: 0x5326F, size: 0x8, addend: 0x0, symName: '__ZN4core4cell4once17OnceCell$LT$T$GT$8try_init17hb2acaa81388d9a1dE', symObjAddr: 0x4E28, symBinAddr: 0x10004A884, symSize: 0x110 }
  - { offset: 0x53553, size: 0x8, addend: 0x0, symName: '__ZN4core4cell4once17OnceCell$LT$T$GT$8try_init17hec4c6057203f18caE', symObjAddr: 0x4F38, symBinAddr: 0x10004A994, symSize: 0x1AC4 }
  - { offset: 0x5680C, size: 0x8, addend: 0x0, symName: '__ZN4core4cell4once17OnceCell$LT$T$GT$8try_init17hf59b8f3666c9e504E', symObjAddr: 0x69FC, symBinAddr: 0x10004C458, symSize: 0x80 }
  - { offset: 0x568BF, size: 0x8, addend: 0x0, symName: '__ZN4core4cell4once17OnceCell$LT$T$GT$8try_init17hfae89e2951f245baE', symObjAddr: 0x6A7C, symBinAddr: 0x10004C4D8, symSize: 0xC3C }
  - { offset: 0x588D6, size: 0x8, addend: 0x0, symName: __ZN4core9panicking13assert_failed17h49968851add484acE, symObjAddr: 0xF3B8, symBinAddr: 0x10004D114, symSize: 0x34 }
  - { offset: 0x588F1, size: 0x8, addend: 0x0, symName: __ZN4core9panicking13assert_failed17h8219ec77f299110cE, symObjAddr: 0xF3EC, symBinAddr: 0x10004D148, symSize: 0x24 }
  - { offset: 0x58D1E, size: 0x8, addend: 0x0, symName: __ZN3std9panicking11panic_count8increase17h5d061070c09c1b20E, symObjAddr: 0x3BDA0, symBinAddr: 0x1000317B0, symSize: 0x64 }
  - { offset: 0x58D35, size: 0x8, addend: 0x0, symName: __ZN3std9panicking11panic_count8increase17h5d061070c09c1b20E, symObjAddr: 0x3BDA0, symBinAddr: 0x1000317B0, symSize: 0x64 }
  - { offset: 0x58D4A, size: 0x8, addend: 0x0, symName: __ZN3std9panicking11panic_count8increase17h5d061070c09c1b20E, symObjAddr: 0x3BDA0, symBinAddr: 0x1000317B0, symSize: 0x64 }
  - { offset: 0x58E29, size: 0x8, addend: 0x0, symName: __ZN3std9panicking11panic_count17is_zero_slow_path17h01eb20a9cec6a821E, symObjAddr: 0x3BE8C, symBinAddr: 0x10004D9B4, symSize: 0x2C }
  - { offset: 0x58F89, size: 0x8, addend: 0x0, symName: __RNvCs73fAdSrgOJL_7___rustc17___rust_drop_panic, symObjAddr: 0x3B3E8, symBinAddr: 0x100031064, symSize: 0xBC }
  - { offset: 0x5917E, size: 0x8, addend: 0x0, symName: __RNvCs73fAdSrgOJL_7___rustc24___rust_foreign_exception, symObjAddr: 0x3B4A4, symBinAddr: 0x100031120, symSize: 0xBC }
  - { offset: 0x59373, size: 0x8, addend: 0x0, symName: __ZN3std9panicking12default_hook17h8875fb31ec87dfadE, symObjAddr: 0x3B7CC, symBinAddr: 0x1000311DC, symSize: 0x1AC }
  - { offset: 0x596B1, size: 0x8, addend: 0x0, symName: '__ZN3std9panicking12default_hook28_$u7b$$u7b$closure$u7d$$u7d$17hf623c44b740b115fE', symObjAddr: 0x3B978, symBinAddr: 0x100031388, symSize: 0x1A4 }
  - { offset: 0x59888, size: 0x8, addend: 0x0, symName: '__ZN3std9panicking12default_hook28_$u7b$$u7b$closure$u7d$$u7d$28_$u7b$$u7b$closure$u7d$$u7d$17hf47d63ca0778dae1E', symObjAddr: 0x3BB1C, symBinAddr: 0x10003152C, symSize: 0x284 }
  - { offset: 0x59CFE, size: 0x8, addend: 0x0, symName: __RNvCs73fAdSrgOJL_7___rustc17rust_begin_unwind, symObjAddr: 0x3BF00, symBinAddr: 0x100031814, symSize: 0x20 }
  - { offset: 0x59D67, size: 0x8, addend: 0x0, symName: '__ZN102_$LT$std..panicking..begin_panic_handler..FormatStringPayload$u20$as$u20$core..panic..PanicPayload$GT$8take_box17h223afba6ccee5cb1E', symObjAddr: 0x3BF20, symBinAddr: 0x100031834, symSize: 0x118 }
  - { offset: 0x59FE3, size: 0x8, addend: 0x0, symName: '__ZN102_$LT$std..panicking..begin_panic_handler..FormatStringPayload$u20$as$u20$core..panic..PanicPayload$GT$3get17h4f88f29aab2fd10fE', symObjAddr: 0x3C038, symBinAddr: 0x10003194C, symSize: 0xB0 }
  - { offset: 0x5A11C, size: 0x8, addend: 0x0, symName: '__ZN95_$LT$std..panicking..begin_panic_handler..FormatStringPayload$u20$as$u20$core..fmt..Display$GT$3fmt17hb0af82e86096f7f0E', symObjAddr: 0x3C0E8, symBinAddr: 0x1000319FC, symSize: 0x5C }
  - { offset: 0x5A219, size: 0x8, addend: 0x0, symName: '__ZN99_$LT$std..panicking..begin_panic_handler..StaticStrPayload$u20$as$u20$core..panic..PanicPayload$GT$8take_box17h0df143ef4488f020E', symObjAddr: 0x3C144, symBinAddr: 0x100031A58, symSize: 0x48 }
  - { offset: 0x5A290, size: 0x8, addend: 0x0, symName: '__ZN99_$LT$std..panicking..begin_panic_handler..StaticStrPayload$u20$as$u20$core..panic..PanicPayload$GT$3get17h5775715a100ee158E', symObjAddr: 0x3C18C, symBinAddr: 0x100031AA0, symSize: 0xC }
  - { offset: 0x5A2AB, size: 0x8, addend: 0x0, symName: '__ZN99_$LT$std..panicking..begin_panic_handler..StaticStrPayload$u20$as$u20$core..panic..PanicPayload$GT$6as_str17h4a89cb46754932c0E', symObjAddr: 0x3C198, symBinAddr: 0x100031AAC, symSize: 0xC }
  - { offset: 0x5A2CC, size: 0x8, addend: 0x0, symName: '__ZN92_$LT$std..panicking..begin_panic_handler..StaticStrPayload$u20$as$u20$core..fmt..Display$GT$3fmt17h97bd842622e6ccedE', symObjAddr: 0x3C1A4, symBinAddr: 0x100031AB8, symSize: 0x10 }
  - { offset: 0x5A2E8, size: 0x8, addend: 0x0, symName: '__ZN3std9panicking19begin_panic_handler28_$u7b$$u7b$closure$u7d$$u7d$17hdf417b72ab8ffff8E', symObjAddr: 0x3C1B4, symBinAddr: 0x100031AC8, symSize: 0xC4 }
  - { offset: 0x5A450, size: 0x8, addend: 0x0, symName: __ZN3std9panicking14payload_as_str17h9b5790cdb2b550fcE, symObjAddr: 0x3C35C, symBinAddr: 0x100031B8C, symSize: 0xB0 }
  - { offset: 0x5A534, size: 0x8, addend: 0x0, symName: __ZN3std9panicking20rust_panic_with_hook17hdd8ceeeb04975c2bE, symObjAddr: 0x3C40C, symBinAddr: 0x100031C3C, symSize: 0x398 }
  - { offset: 0x5AD81, size: 0x8, addend: 0x0, symName: __RNvCs73fAdSrgOJL_7___rustc10rust_panic, symObjAddr: 0x3C898, symBinAddr: 0x10004D9E0, symSize: 0x60 }
  - { offset: 0x5AF0F, size: 0x8, addend: 0x0, symName: __ZN3std3sys7process4unix4unix7Process4wait17hf16eee4591add28bE, symObjAddr: 0x47350, symBinAddr: 0x100036A88, symSize: 0xA0 }
  - { offset: 0x5B0D2, size: 0x8, addend: 0x0, symName: '__ZN102_$LT$std..sys..process..unix..common..cstring_array..CStringArray$u20$as$u20$core..ops..drop..Drop$GT$4drop17h78e7b17770d00f7eE', symObjAddr: 0x44808, symBinAddr: 0x100034C90, symSize: 0x70 }
  - { offset: 0x5B1EB, size: 0x8, addend: 0x0, symName: __ZN3std3sys7process4unix6common13cstring_array12CStringArray13with_capacity17h99fa5c23e0df8330E, symObjAddr: 0x44628, symBinAddr: 0x100034BB8, symSize: 0xD8 }
  - { offset: 0x5B3AC, size: 0x8, addend: 0x0, symName: __ZN3std3sys7process4unix6common7Command3new17hee79130fbef3296eE, symObjAddr: 0x448E8, symBinAddr: 0x100034D00, symSize: 0x284 }
  - { offset: 0x5B868, size: 0x8, addend: 0x0, symName: __ZN3std3sys7process4unix6common7Command3arg17h226ffd4f27122ef8E, symObjAddr: 0x44CB4, symBinAddr: 0x100034F84, symSize: 0xEC }
  - { offset: 0x5BB6A, size: 0x8, addend: 0x0, symName: __ZN3std3sys7process4unix6common7Command11capture_env17h0cfcb5df006c563cE, symObjAddr: 0x450C4, symBinAddr: 0x100035070, symSize: 0x91C }
  - { offset: 0x5D40E, size: 0x8, addend: 0x0, symName: __ZN3std3sys7process4unix6common7Command8setup_io17h49fecf1d8531d22fE, symObjAddr: 0x459E0, symBinAddr: 0x10003598C, symSize: 0x2F8 }
  - { offset: 0x5D8C5, size: 0x8, addend: 0x0, symName: '__ZN3std3sys7process4unix4unix58_$LT$impl$u20$std..sys..process..unix..common..Command$GT$5spawn17h83be88a7218a58a1E', symObjAddr: 0x46674, symBinAddr: 0x100035DE0, symSize: 0x928 }
  - { offset: 0x5E91B, size: 0x8, addend: 0x0, symName: '__ZN3std3sys7process4unix4unix58_$LT$impl$u20$std..sys..process..unix..common..Command$GT$7do_exec17h7cf7ac48f439483cE', symObjAddr: 0x46F9C, symBinAddr: 0x100036708, symSize: 0x380 }
  - { offset: 0x5F291, size: 0x8, addend: 0x0, symName: __ZN3std3sys7process4unix6common5Stdio14to_child_stdio17hb95d2f9ba1abe590E, symObjAddr: 0x45CD8, symBinAddr: 0x100035C84, symSize: 0x15C }
  - { offset: 0x5F49A, size: 0x8, addend: 0x0, symName: __ZN3std3sys2fs4unix4File6open_c17h5a31c1e924c31a39E, symObjAddr: 0x4151C, symBinAddr: 0x100034A08, symSize: 0x1B0 }
  - { offset: 0x5F639, size: 0x8, addend: 0x0, symName: '__ZN65_$LT$std..sys..fs..unix..Dir$u20$as$u20$core..ops..drop..Drop$GT$4drop17hda69c3116f0d01f9E', symObjAddr: 0x411B8, symBinAddr: 0x10003493C, symSize: 0xCC }
  - { offset: 0x5F704, size: 0x8, addend: 0x0, symName: __ZN3std3sys2fs8read_dir17ha4d851693f34a78dE, symObjAddr: 0x38968, symBinAddr: 0x100030BD8, symSize: 0x19C }
  - { offset: 0x5FA0C, size: 0x8, addend: 0x0, symName: __ZN3std3sys2fd4unix8FileDesc11read_to_end17h4dd597c33f28b34bE, symObjAddr: 0x40840, symBinAddr: 0x100034700, symSize: 0x23C }
  - { offset: 0x5FF2F, size: 0x8, addend: 0x0, symName: __ZN3std3sys3pal4unix4sync5mutex5Mutex4init17he47bfeffad10ab23E, symObjAddr: 0x3F018, symBinAddr: 0x100033D30, symSize: 0x16C }
  - { offset: 0x5FFE6, size: 0x8, addend: 0x0, symName: __ZN3std3sys3pal4unix4sync5mutex5Mutex4lock4fail17hc6db7b5c9b0389a0E, symObjAddr: 0x3F1A0, symBinAddr: 0x10004DA98, symSize: 0xE4 }
  - { offset: 0x602D9, size: 0x8, addend: 0x0, symName: __ZN3std3sys3pal4unix14stack_overflow3imp14signal_handler17h46f8ef1aa7528f43E, symObjAddr: 0x3E7B8, symBinAddr: 0x1000334D0, symSize: 0x290 }
  - { offset: 0x608AA, size: 0x8, addend: 0x0, symName: __ZN3std3sys3pal4unix14stack_overflow3imp12make_handler17he67200fb708acd59E, symObjAddr: 0x3EA48, symBinAddr: 0x100033760, symSize: 0x234 }
  - { offset: 0x60C5A, size: 0x8, addend: 0x0, symName: __ZN3std3sys3pal4unix14stack_overflow3imp12drop_handler17h683641cfe3e92d15E, symObjAddr: 0x3EC7C, symBinAddr: 0x100033994, symSize: 0x39C }
  - { offset: 0x614BC, size: 0x8, addend: 0x0, symName: __ZN3std3sys3pal4unix14stack_overflow11thread_info16set_current_info17hdef3efae36137112E, symObjAddr: 0x3DE70, symBinAddr: 0x100032B88, symSize: 0x948 }
  - { offset: 0x6286B, size: 0x8, addend: 0x0, symName: __ZN3std3sys3pal4unix4pipe8AnonPipe5write17h16a4c9da9673706eE, symObjAddr: 0x3DBAC, symBinAddr: 0x1000328DC, symSize: 0x54 }
  - { offset: 0x62948, size: 0x8, addend: 0x0, symName: __ZN3std3sys3pal4unix4pipe9anon_pipe17ha2e56c5565a24655E, symObjAddr: 0x3DA84, symBinAddr: 0x1000327B4, symSize: 0x128 }
  - { offset: 0x62C3D, size: 0x8, addend: 0x0, symName: __ZN3std3sys3pal4unix4pipe5read217h426c633f7d168e0dE, symObjAddr: 0x3DC00, symBinAddr: 0x100032930, symSize: 0x258 }
  - { offset: 0x6316B, size: 0x8, addend: 0x0, symName: '__ZN3std3sys3pal4unix4weak18DlsymWeak$LT$F$GT$10initialize17ha6b700ee2a93a6c2E', symObjAddr: 0x3D788, symBinAddr: 0x10004DA40, symSize: 0x58 }
  - { offset: 0x631ED, size: 0x8, addend: 0x0, symName: __ZN3std3sys3pal4unix17decode_error_kind17haabc64936b405e49E, symObjAddr: 0x3FA78, symBinAddr: 0x100033E9C, symSize: 0x150 }
  - { offset: 0x63207, size: 0x8, addend: 0x0, symName: __ZN3std3sys3pal4unix14abort_internal17ha2b174aef73aaa99E, symObjAddr: 0x3FBC8, symBinAddr: 0x10004DB7C, symSize: 0xC }
  - { offset: 0x632A5, size: 0x8, addend: 0x0, symName: __ZN3std3sys3pal6common14small_c_string24run_with_cstr_allocating17h62eae881f61189b9E, symObjAddr: 0x37AA8, symBinAddr: 0x10004D6BC, symSize: 0xC4 }
  - { offset: 0x6346E, size: 0x8, addend: 0x0, symName: __ZN3std3sys3pal6common14small_c_string24run_with_cstr_allocating17h849b8fb7465c671dE, symObjAddr: 0x37B6C, symBinAddr: 0x10004D780, symSize: 0xAC }
  - { offset: 0x635CA, size: 0x8, addend: 0x0, symName: __ZN3std3sys3pal6common14small_c_string24run_with_cstr_allocating17hf63fa4ece05c9b45E, symObjAddr: 0x37CE8, symBinAddr: 0x10004D82C, symSize: 0xA4 }
  - { offset: 0x63787, size: 0x8, addend: 0x0, symName: '__ZN64_$LT$std..sys..stdio..unix..Stderr$u20$as$u20$std..io..Write$GT$5write17h3b1932d17393f261E', symObjAddr: 0x47870, symBinAddr: 0x100036B28, symSize: 0x58 }
  - { offset: 0x6385D, size: 0x8, addend: 0x0, symName: '__ZN64_$LT$std..sys..stdio..unix..Stderr$u20$as$u20$std..io..Write$GT$14write_vectored17h8ff0487a5ca382e1E', symObjAddr: 0x478C8, symBinAddr: 0x100036B80, symSize: 0x58 }
  - { offset: 0x63933, size: 0x8, addend: 0x0, symName: '__ZN64_$LT$std..sys..stdio..unix..Stderr$u20$as$u20$std..io..Write$GT$17is_write_vectored17h806729f05e1b02f1E', symObjAddr: 0x47920, symBinAddr: 0x100036BD8, symSize: 0x8 }
  - { offset: 0x6394D, size: 0x8, addend: 0x0, symName: '__ZN64_$LT$std..sys..stdio..unix..Stderr$u20$as$u20$std..io..Write$GT$5flush17ha8134fdfc2044e22E', symObjAddr: 0x47928, symBinAddr: 0x100036BE0, symSize: 0x8 }
  - { offset: 0x63995, size: 0x8, addend: 0x0, symName: '__ZN3std3sys11personality3gcc14find_eh_action28_$u7b$$u7b$closure$u7d$$u7d$17h8e0a401f13cba7b2E', symObjAddr: 0x3FBD4, symBinAddr: 0x100033FEC, symSize: 0xC }
  - { offset: 0x639A9, size: 0x8, addend: 0x0, symName: '__ZN3std3sys11personality3gcc14find_eh_action28_$u7b$$u7b$closure$u7d$$u7d$17hb37e74614c39fe5bE', symObjAddr: 0x3FBE0, symBinAddr: 0x100033FF8, symSize: 0xC }
  - { offset: 0x639D9, size: 0x8, addend: 0x0, symName: _rust_eh_personality, symObjAddr: 0x3FBEC, symBinAddr: 0x100034004, symSize: 0x378 }
  - { offset: 0x63D62, size: 0x8, addend: 0x0, symName: __ZN3std3sys11personality5dwarf2eh19read_encoded_offset17ha35e0bf259a51371E, symObjAddr: 0x37E3C, symBinAddr: 0x1000302EC, symSize: 0x148 }
  - { offset: 0x63EE2, size: 0x8, addend: 0x0, symName: '__ZN3std3sys9backtrace10_print_fmt28_$u7b$$u7b$closure$u7d$$u7d$17h53593d80dca05be6E', symObjAddr: 0x382E8, symBinAddr: 0x100030720, symSize: 0x24 }
  - { offset: 0x63F0B, size: 0x8, addend: 0x0, symName: '__ZN3std3sys9backtrace10_print_fmt28_$u7b$$u7b$closure$u7d$$u7d$17h562a49be56385aceE', symObjAddr: 0x3830C, symBinAddr: 0x100030744, symSize: 0x130 }
  - { offset: 0x6401F, size: 0x8, addend: 0x0, symName: '__ZN3std3sys9backtrace10_print_fmt28_$u7b$$u7b$closure$u7d$$u7d$28_$u7b$$u7b$closure$u7d$$u7d$17had6f8f8b94a1d5d2E', symObjAddr: 0x3843C, symBinAddr: 0x100030874, symSize: 0x264 }
  - { offset: 0x6424E, size: 0x8, addend: 0x0, symName: __ZN3std3sys9backtrace4lock17hdabe8353c49be0ebE, symObjAddr: 0x37FFC, symBinAddr: 0x100030434, symSize: 0x70 }
  - { offset: 0x64397, size: 0x8, addend: 0x0, symName: __ZN3std3sys9backtrace13BacktraceLock5print17h3eb1535b8d3666caE, symObjAddr: 0x3806C, symBinAddr: 0x1000304A4, symSize: 0x54 }
  - { offset: 0x643E4, size: 0x8, addend: 0x0, symName: '__ZN98_$LT$std..sys..backtrace..BacktraceLock..print..DisplayBacktrace$u20$as$u20$core..fmt..Display$GT$3fmt17h373e57e2286956dcE', symObjAddr: 0x380C0, symBinAddr: 0x1000304F8, symSize: 0x228 }
  - { offset: 0x648C9, size: 0x8, addend: 0x0, symName: __ZN3std3sys9backtrace26__rust_end_short_backtrace17h507d79c50996742eE, symObjAddr: 0x386A0, symBinAddr: 0x100030AD8, symSize: 0xC }
  - { offset: 0x648E3, size: 0x8, addend: 0x0, symName: __ZN3std3sys9backtrace15output_filename17h1e17c213ac1ab78dE, symObjAddr: 0x386B8, symBinAddr: 0x100030AE4, symSize: 0xF4 }
  - { offset: 0x64AA4, size: 0x8, addend: 0x0, symName: '__ZN3std3sys4sync8once_box16OnceBox$LT$T$GT$10initialize17he379977f8bc9e5d3E', symObjAddr: 0x3A608, symBinAddr: 0x10004D8D0, symSize: 0xE4 }
  - { offset: 0x64D79, size: 0x8, addend: 0x0, symName: __ZN3std3sys4sync6rwlock5queue6RwLock21read_unlock_contended17h1b9e50d42faedc94E, symObjAddr: 0x4843C, symBinAddr: 0x10004DDD8, symSize: 0x40 }
  - { offset: 0x64D97, size: 0x8, addend: 0x0, symName: __ZN3std3sys4sync6rwlock5queue6RwLock21read_unlock_contended17h1b9e50d42faedc94E, symObjAddr: 0x4843C, symBinAddr: 0x10004DDD8, symSize: 0x40 }
  - { offset: 0x64DAC, size: 0x8, addend: 0x0, symName: __ZN3std3sys4sync6rwlock5queue6RwLock21read_unlock_contended17h1b9e50d42faedc94E, symObjAddr: 0x4843C, symBinAddr: 0x10004DDD8, symSize: 0x40 }
  - { offset: 0x64EE9, size: 0x8, addend: 0x0, symName: __ZN3std3sys4sync6rwlock5queue6RwLock16unlock_contended17h76968e98b916e2abE, symObjAddr: 0x4847C, symBinAddr: 0x10004DE18, symSize: 0x40 }
  - { offset: 0x64FC5, size: 0x8, addend: 0x0, symName: __ZN3std3sys4sync6rwlock5queue6RwLock12unlock_queue17h9c4ac3ac2d5778f9E, symObjAddr: 0x485C8, symBinAddr: 0x100036E70, symSize: 0x1CC }
  - { offset: 0x656BD, size: 0x8, addend: 0x0, symName: __ZN3std3sys4sync6rwlock5queue9read_lock17h1f89cfb304dc509cE, symObjAddr: 0x481E8, symBinAddr: 0x100036E50, symSize: 0x20 }
  - { offset: 0x656D6, size: 0x8, addend: 0x0, symName: '__ZN83_$LT$std..sys..sync..rwlock..queue..PanicGuard$u20$as$u20$core..ops..drop..Drop$GT$4drop17h5cadc4ef1f5dcd7dE', symObjAddr: 0x48208, symBinAddr: 0x10004DD94, symSize: 0x44 }
  - { offset: 0x657CE, size: 0x8, addend: 0x0, symName: __ZN3std3sys4sync4once5queue4Once4call17hecaba0a776a35aa1E, symObjAddr: 0x47D60, symBinAddr: 0x10004DB88, symSize: 0x20C }
  - { offset: 0x65ABD, size: 0x8, addend: 0x0, symName: '__ZN82_$LT$std..sys..sync..once..queue..WaiterQueue$u20$as$u20$core..ops..drop..Drop$GT$4drop17h7c83cf796170585cE', symObjAddr: 0x480F4, symBinAddr: 0x100036D70, symSize: 0xE0 }
  - { offset: 0x65C80, size: 0x8, addend: 0x0, symName: __ZN3std3sys4sync4once5queue4wait17h89a94bf1656b2ec7E, symObjAddr: 0x47F6C, symBinAddr: 0x100036BE8, symSize: 0x188 }
  - { offset: 0x66257, size: 0x8, addend: 0x0, symName: __ZN3std3sys12thread_local6native5eager7destroy17heae091946a683e1cE, symObjAddr: 0x48840, symBinAddr: 0x10003703C, symSize: 0x2C }
  - { offset: 0x663A8, size: 0x8, addend: 0x0, symName: __ZN3std3sys12thread_local5guard5apple6enable9run_dtors17hef79a299de7fb9adE, symObjAddr: 0x48984, symBinAddr: 0x100037180, symSize: 0xF8 }
  - { offset: 0x668C1, size: 0x8, addend: 0x0, symName: __ZN3std3sys12thread_local11destructors4list8register17hde6abc51e3c3721cE, symObjAddr: 0x4886C, symBinAddr: 0x100037068, symSize: 0x118 }
  - { offset: 0x66C1F, size: 0x8, addend: 0x0, symName: __ZN3std3sys3env4unix13env_read_lock17ha2bee16bf1e65b98E, symObjAddr: 0x3FF64, symBinAddr: 0x10003437C, symSize: 0x23C }
  - { offset: 0x67328, size: 0x8, addend: 0x0, symName: '__ZN3std3sys3env4unix6getenv28_$u7b$$u7b$closure$u7d$$u7d$17h5aa62fce8cdb755bE', symObjAddr: 0x401A0, symBinAddr: 0x1000345B8, symSize: 0x148 }
  - { offset: 0x677C3, size: 0x8, addend: 0x0, symName: '__ZN64_$LT$std..ffi..os_str..Display$u20$as$u20$core..fmt..Display$GT$3fmt17hf4e02af35f1fefceE', symObjAddr: 0x23390, symBinAddr: 0x10002CA38, symSize: 0xAC }
  - { offset: 0x678D2, size: 0x8, addend: 0x0, symName: __ZN3std7process7Command6output17h8dcdf4d4d26f2b3aE, symObjAddr: 0x3517C, symBinAddr: 0x10002FCF8, symSize: 0x2F8 }
  - { offset: 0x67E3D, size: 0x8, addend: 0x0, symName: __ZN3std7process5abort17hbd14f557f4be895cE, symObjAddr: 0x35E58, symBinAddr: 0x10004D5E4, symSize: 0xC }
  - { offset: 0x67ED9, size: 0x8, addend: 0x0, symName: __ZN3std4path4Path13_strip_prefix17h44ebcc45a48bcda4E, symObjAddr: 0x336DC, symBinAddr: 0x10002F938, symSize: 0x21C }
  - { offset: 0x67FF7, size: 0x8, addend: 0x0, symName: __ZN3std4path4Path5_join17h5f97e78c9ec6f8c6E, symObjAddr: 0x33F08, symBinAddr: 0x10002FB54, symSize: 0x1A4 }
  - { offset: 0x685CB, size: 0x8, addend: 0x0, symName: __ZN3std4path10Components15len_before_body17h5c34a7955bf675c9E, symObjAddr: 0x31A18, symBinAddr: 0x10002ECAC, symSize: 0x188 }
  - { offset: 0x685E2, size: 0x8, addend: 0x0, symName: __ZN3std4path10Components15len_before_body17h5c34a7955bf675c9E, symObjAddr: 0x31A18, symBinAddr: 0x10002ECAC, symSize: 0x188 }
  - { offset: 0x685F7, size: 0x8, addend: 0x0, symName: __ZN3std4path10Components15len_before_body17h5c34a7955bf675c9E, symObjAddr: 0x31A18, symBinAddr: 0x10002ECAC, symSize: 0x188 }
  - { offset: 0x687AF, size: 0x8, addend: 0x0, symName: __ZN3std4path10Components7as_path17ha0723f3b84befc75E, symObjAddr: 0x31BA0, symBinAddr: 0x10002EE34, symSize: 0x318 }
  - { offset: 0x68A27, size: 0x8, addend: 0x0, symName: __ZN3std4path10Components25parse_next_component_back17hb183b6faf02472afE, symObjAddr: 0x31EB8, symBinAddr: 0x10002F14C, symSize: 0x124 }
  - { offset: 0x68BE9, size: 0x8, addend: 0x0, symName: '__ZN80_$LT$std..path..Components$u20$as$u20$core..iter..traits..iterator..Iterator$GT$4next17hc5f2949875039169E', symObjAddr: 0x32174, symBinAddr: 0x10002F270, symSize: 0x340 }
  - { offset: 0x68EE6, size: 0x8, addend: 0x0, symName: '__ZN95_$LT$std..path..Components$u20$as$u20$core..iter..traits..double_ended..DoubleEndedIterator$GT$9next_back17h97da5c60c737f00eE', symObjAddr: 0x324B4, symBinAddr: 0x10002F5B0, symSize: 0x360 }
  - { offset: 0x69090, size: 0x8, addend: 0x0, symName: '__ZN55_$LT$std..path..PathBuf$u20$as$u20$core..fmt..Debug$GT$3fmt17h89c2629322c89316E', symObjAddr: 0x335BC, symBinAddr: 0x10002F910, symSize: 0x28 }
  - { offset: 0x69241, size: 0x8, addend: 0x0, symName: '__ZN61_$LT$std..path..Component$u20$as$u20$core..cmp..PartialEq$GT$2eq17h9abf03ee93017be9E', symObjAddr: 0x3D540, symBinAddr: 0x10003267C, symSize: 0x138 }
  - { offset: 0x69429, size: 0x8, addend: 0x0, symName: '__ZN81_$LT$std..io..default_write_fmt..Adapter$LT$T$GT$$u20$as$u20$core..fmt..Write$GT$9write_str17h1421ba9cd8ee47c5E', symObjAddr: 0x2CBD4, symBinAddr: 0x10002E34C, symSize: 0xA0 }
  - { offset: 0x69551, size: 0x8, addend: 0x0, symName: '__ZN81_$LT$std..io..default_write_fmt..Adapter$LT$T$GT$$u20$as$u20$core..fmt..Write$GT$9write_str17h2d8b7e46a0e35d96E', symObjAddr: 0x2CC74, symBinAddr: 0x10002E3EC, symSize: 0x80 }
  - { offset: 0x6969D, size: 0x8, addend: 0x0, symName: '__ZN81_$LT$std..io..default_write_fmt..Adapter$LT$T$GT$$u20$as$u20$core..fmt..Write$GT$9write_str17h8e69c5e2e9f54588E', symObjAddr: 0x2CE1C, symBinAddr: 0x10002E46C, symSize: 0x50 }
  - { offset: 0x696C7, size: 0x8, addend: 0x0, symName: '__ZN81_$LT$std..io..default_write_fmt..Adapter$LT$T$GT$$u20$as$u20$core..fmt..Write$GT$9write_str17hf38da0e8ae1b5efbE', symObjAddr: 0x2CE6C, symBinAddr: 0x10002E4BC, symSize: 0xD8 }
  - { offset: 0x69889, size: 0x8, addend: 0x0, symName: '__ZN3std2io5impls74_$LT$impl$u20$std..io..Write$u20$for$u20$alloc..vec..Vec$LT$u8$C$A$GT$$GT$5write17hb822c2b238acf3c4E', symObjAddr: 0x27060, symBinAddr: 0x10002D5B4, symSize: 0x84 }
  - { offset: 0x699CE, size: 0x8, addend: 0x0, symName: '__ZN3std2io5impls74_$LT$impl$u20$std..io..Write$u20$for$u20$alloc..vec..Vec$LT$u8$C$A$GT$$GT$14write_vectored17h3b2a452d1d260808E', symObjAddr: 0x270E4, symBinAddr: 0x10002D638, symSize: 0x174 }
  - { offset: 0x69C1B, size: 0x8, addend: 0x0, symName: '__ZN3std2io5impls74_$LT$impl$u20$std..io..Write$u20$for$u20$alloc..vec..Vec$LT$u8$C$A$GT$$GT$17is_write_vectored17h85e25b333c28438fE', symObjAddr: 0x27258, symBinAddr: 0x10002D7AC, symSize: 0x8 }
  - { offset: 0x69C36, size: 0x8, addend: 0x0, symName: '__ZN3std2io5impls74_$LT$impl$u20$std..io..Write$u20$for$u20$alloc..vec..Vec$LT$u8$C$A$GT$$GT$9write_all17h4986f5d3d6bca366E', symObjAddr: 0x27260, symBinAddr: 0x10002D7B4, symSize: 0x80 }
  - { offset: 0x69D82, size: 0x8, addend: 0x0, symName: '__ZN3std2io5impls74_$LT$impl$u20$std..io..Write$u20$for$u20$alloc..vec..Vec$LT$u8$C$A$GT$$GT$18write_all_vectored17h0ce1bbe6949613dfE', symObjAddr: 0x272E0, symBinAddr: 0x10002D834, symSize: 0x168 }
  - { offset: 0x69DAD, size: 0x8, addend: 0x0, symName: '__ZN3std2io5impls74_$LT$impl$u20$std..io..Write$u20$for$u20$alloc..vec..Vec$LT$u8$C$A$GT$$GT$18write_all_vectored17h0ce1bbe6949613dfE', symObjAddr: 0x272E0, symBinAddr: 0x10002D834, symSize: 0x168 }
  - { offset: 0x69DC2, size: 0x8, addend: 0x0, symName: '__ZN3std2io5impls74_$LT$impl$u20$std..io..Write$u20$for$u20$alloc..vec..Vec$LT$u8$C$A$GT$$GT$18write_all_vectored17h0ce1bbe6949613dfE', symObjAddr: 0x272E0, symBinAddr: 0x10002D834, symSize: 0x168 }
  - { offset: 0x69DD7, size: 0x8, addend: 0x0, symName: '__ZN3std2io5impls74_$LT$impl$u20$std..io..Write$u20$for$u20$alloc..vec..Vec$LT$u8$C$A$GT$$GT$18write_all_vectored17h0ce1bbe6949613dfE', symObjAddr: 0x272E0, symBinAddr: 0x10002D834, symSize: 0x168 }
  - { offset: 0x69DEB, size: 0x8, addend: 0x0, symName: '__ZN3std2io5impls74_$LT$impl$u20$std..io..Write$u20$for$u20$alloc..vec..Vec$LT$u8$C$A$GT$$GT$18write_all_vectored17h0ce1bbe6949613dfE', symObjAddr: 0x272E0, symBinAddr: 0x10002D834, symSize: 0x168 }
  - { offset: 0x6A004, size: 0x8, addend: 0x0, symName: '__ZN3std2io5impls74_$LT$impl$u20$std..io..Write$u20$for$u20$alloc..vec..Vec$LT$u8$C$A$GT$$GT$5flush17h2126ea47a926e7aeE', symObjAddr: 0x27448, symBinAddr: 0x10002D99C, symSize: 0x8 }
  - { offset: 0x6A157, size: 0x8, addend: 0x0, symName: __ZN3std2io5error14repr_bitpacked11decode_repr17hcdf376292fdb65d2E, symObjAddr: 0x26804, symBinAddr: 0x10002D0B8, symSize: 0x60 }
  - { offset: 0x6A1C0, size: 0x8, addend: 0x0, symName: '__ZN58_$LT$std..io..error..Error$u20$as$u20$core..fmt..Debug$GT$3fmt17hdf9c13a9945d5c29E', symObjAddr: 0x26864, symBinAddr: 0x10002D118, symSize: 0x4 }
  - { offset: 0x6A200, size: 0x8, addend: 0x0, symName: '__ZN3std2io5error83_$LT$impl$u20$core..fmt..Debug$u20$for$u20$std..io..error..repr_bitpacked..Repr$GT$3fmt17h0f29a0fd45fc1bcfE', symObjAddr: 0x26AD8, symBinAddr: 0x10002D11C, symSize: 0x294 }
  - { offset: 0x6A44B, size: 0x8, addend: 0x0, symName: '__ZN60_$LT$std..io..error..Error$u20$as$u20$core..fmt..Display$GT$3fmt17habdd18ca5ab4309eE', symObjAddr: 0x26D6C, symBinAddr: 0x10002D3B0, symSize: 0x204 }
  - { offset: 0x6A6AA, size: 0x8, addend: 0x0, symName: '__ZN62_$LT$std..io..error..ErrorKind$u20$as$u20$core..fmt..Debug$GT$3fmt17h2d20d17aac9eb11fE', symObjAddr: 0x3D518, symBinAddr: 0x100032654, symSize: 0x28 }
  - { offset: 0x6A6F5, size: 0x8, addend: 0x0, symName: __ZN3std2io5Write9write_all17h968f08b438f23232E, symObjAddr: 0x2CFB8, symBinAddr: 0x10002E594, symSize: 0xB8 }
  - { offset: 0x6A810, size: 0x8, addend: 0x0, symName: __ZN3std2io5Write18write_all_vectored17hbcff9dde3b80a800E, symObjAddr: 0x2D070, symBinAddr: 0x10002E64C, symSize: 0x1CC }
  - { offset: 0x6AAC1, size: 0x8, addend: 0x0, symName: __ZN3std2io5Write9write_fmt17h00b4007fff731b84E, symObjAddr: 0x2D23C, symBinAddr: 0x10002E818, symSize: 0x128 }
  - { offset: 0x6AD0B, size: 0x8, addend: 0x0, symName: __ZN3std2io5Write9write_fmt17h1c9f4e65a2760494E, symObjAddr: 0x2D364, symBinAddr: 0x10002E940, symSize: 0x128 }
  - { offset: 0x6AF55, size: 0x8, addend: 0x0, symName: __ZN3std2io5Write9write_fmt17h619de9749845ad1bE, symObjAddr: 0x2D48C, symBinAddr: 0x10002EA68, symSize: 0x128 }
  - { offset: 0x6B1BC, size: 0x8, addend: 0x0, symName: '__ZN3std2io8buffered9bufwriter18BufWriter$LT$W$GT$9flush_buf17h4ecd4f227cafd79eE', symObjAddr: 0x25DC8, symBinAddr: 0x10002CEC0, symSize: 0x1F8 }
  - { offset: 0x6B72A, size: 0x8, addend: 0x0, symName: '__ZN3std2io8buffered9bufwriter18BufWriter$LT$W$GT$14write_all_cold17hdc683320716deeb9E', symObjAddr: 0x2614C, symBinAddr: 0x10004D4BC, symSize: 0x128 }
  - { offset: 0x6BB43, size: 0x8, addend: 0x0, symName: '__ZN61_$LT$$RF$std..io..stdio..Stdout$u20$as$u20$std..io..Write$GT$9write_fmt17h595bf9d2c2ff9fe0E', symObjAddr: 0x2A280, symBinAddr: 0x10002D9A4, symSize: 0x190 }
  - { offset: 0x6BF4B, size: 0x8, addend: 0x0, symName: '__ZN61_$LT$std..io..stdio..StdoutLock$u20$as$u20$std..io..Write$GT$9write_all17h373dc2ca22e35da8E', symObjAddr: 0x2A72C, symBinAddr: 0x10002DB34, symSize: 0x268 }
  - { offset: 0x6C6DD, size: 0x8, addend: 0x0, symName: __ZN3std2io5stdio6Stderr4lock17h2c1838d646f36f3bE, symObjAddr: 0x2ACCC, symBinAddr: 0x10002DD9C, symSize: 0xE4 }
  - { offset: 0x6C9B7, size: 0x8, addend: 0x0, symName: __ZN3std2io5stdio22try_set_output_capture17h02e4e20053907c68E, symObjAddr: 0x2BA9C, symBinAddr: 0x10002DE80, symSize: 0xEC }
  - { offset: 0x6CC58, size: 0x8, addend: 0x0, symName: __ZN3std2io5stdio31print_to_buffer_if_capture_used17hcd908728fda25d1dE, symObjAddr: 0x2BB88, symBinAddr: 0x10002DF6C, symSize: 0x20C }
  - { offset: 0x6D34C, size: 0x8, addend: 0x0, symName: __ZN3std2io5stdio6_print17h934b25807d0b964aE, symObjAddr: 0x2BE68, symBinAddr: 0x10002E178, symSize: 0xE4 }
  - { offset: 0x6D4BF, size: 0x8, addend: 0x0, symName: __ZN3std2io19default_read_to_end16small_probe_read17ha70487dca9140dd9E, symObjAddr: 0x2C90C, symBinAddr: 0x10002E25C, symSize: 0xF0 }
  - { offset: 0x6D73F, size: 0x8, addend: 0x0, symName: '__ZN3std4sync6poison4once4Once15call_once_force28_$u7b$$u7b$closure$u7d$$u7d$17h5fcd666c0990a5cbE', symObjAddr: 0x36574, symBinAddr: 0x100030214, symSize: 0x78 }
  - { offset: 0x6D87C, size: 0x8, addend: 0x0, symName: '__ZN3std4sync6poison4once4Once15call_once_force28_$u7b$$u7b$closure$u7d$$u7d$17h8900ddc7fabd604dE', symObjAddr: 0x365EC, symBinAddr: 0x10003028C, symSize: 0x60 }
  - { offset: 0x6D939, size: 0x8, addend: 0x0, symName: '__ZN3std4sync6poison4once4Once9call_once28_$u7b$$u7b$closure$u7d$$u7d$17h09c800c11a2781e6E', symObjAddr: 0x36154, symBinAddr: 0x10002FFF0, symSize: 0x224 }
  - { offset: 0x6E2C3, size: 0x8, addend: 0x0, symName: '__ZN3std4sync9once_lock17OnceLock$LT$T$GT$10initialize17ha33e4a2206d74ec9E', symObjAddr: 0x36EF0, symBinAddr: 0x10004D5F0, symSize: 0x64 }
  - { offset: 0x6E2EE, size: 0x8, addend: 0x0, symName: '__ZN3std4sync9once_lock17OnceLock$LT$T$GT$10initialize17ha33e4a2206d74ec9E', symObjAddr: 0x36EF0, symBinAddr: 0x10004D5F0, symSize: 0x64 }
  - { offset: 0x6E302, size: 0x8, addend: 0x0, symName: '__ZN3std4sync9once_lock17OnceLock$LT$T$GT$10initialize17ha33e4a2206d74ec9E', symObjAddr: 0x36EF0, symBinAddr: 0x10004D5F0, symSize: 0x64 }
  - { offset: 0x6E316, size: 0x8, addend: 0x0, symName: '__ZN3std4sync9once_lock17OnceLock$LT$T$GT$10initialize17ha33e4a2206d74ec9E', symObjAddr: 0x36EF0, symBinAddr: 0x10004D5F0, symSize: 0x64 }
  - { offset: 0x6E32C, size: 0x8, addend: 0x0, symName: '__ZN3std4sync9once_lock17OnceLock$LT$T$GT$10initialize17hd570d1d77e17be18E', symObjAddr: 0x36FB0, symBinAddr: 0x10004D654, symSize: 0x68 }
  - { offset: 0x6E357, size: 0x8, addend: 0x0, symName: '__ZN3std4sync9once_lock17OnceLock$LT$T$GT$10initialize17hd570d1d77e17be18E', symObjAddr: 0x36FB0, symBinAddr: 0x10004D654, symSize: 0x68 }
  - { offset: 0x6E36B, size: 0x8, addend: 0x0, symName: '__ZN3std4sync9once_lock17OnceLock$LT$T$GT$10initialize17hd570d1d77e17be18E', symObjAddr: 0x36FB0, symBinAddr: 0x10004D654, symSize: 0x68 }
  - { offset: 0x6E37F, size: 0x8, addend: 0x0, symName: '__ZN3std4sync9once_lock17OnceLock$LT$T$GT$10initialize17hd570d1d77e17be18E', symObjAddr: 0x36FB0, symBinAddr: 0x10004D654, symSize: 0x68 }
  - { offset: 0x6E524, size: 0x8, addend: 0x0, symName: __ZN3std12backtrace_rs9symbolize5gimli7Context3new17hb91d93e0b4232d15E, symObjAddr: 0x48BB8, symBinAddr: 0x1000372C0, symSize: 0x1FEC }
  - { offset: 0x721CB, size: 0x8, addend: 0x0, symName: __ZN3std12backtrace_rs9symbolize5gimli7Context11find_frames17h23a2097c4c7962bdE, symObjAddr: 0x4ABA4, symBinAddr: 0x1000392AC, symSize: 0x390 }
  - { offset: 0x725F0, size: 0x8, addend: 0x0, symName: __ZN3std12backtrace_rs9symbolize5gimli5macho6Object5parse17h5fdabfb181ac69c7E, symObjAddr: 0x4DA84, symBinAddr: 0x10003C174, symSize: 0xC28 }
  - { offset: 0x74404, size: 0x8, addend: 0x0, symName: __ZN3std12backtrace_rs9symbolize5gimli5macho6Object7section17hc169392917328d37E, symObjAddr: 0x4E6AC, symBinAddr: 0x10003CD9C, symSize: 0x154 }
  - { offset: 0x74848, size: 0x8, addend: 0x0, symName: __ZN3std12backtrace_rs9symbolize5gimli5macho11find_header17h55f69df1f605b83cE, symObjAddr: 0x4D8B0, symBinAddr: 0x10003BFA0, symSize: 0x1D4 }
  - { offset: 0x74867, size: 0x8, addend: 0x0, symName: __ZN3std12backtrace_rs9symbolize5gimli5macho11find_header17h55f69df1f605b83cE, symObjAddr: 0x4D8B0, symBinAddr: 0x10003BFA0, symSize: 0x1D4 }
  - { offset: 0x7487D, size: 0x8, addend: 0x0, symName: __ZN3std12backtrace_rs9symbolize5gimli5macho11find_header17h55f69df1f605b83cE, symObjAddr: 0x4D8B0, symBinAddr: 0x10003BFA0, symSize: 0x1D4 }
  - { offset: 0x74893, size: 0x8, addend: 0x0, symName: __ZN3std12backtrace_rs9symbolize5gimli5macho11find_header17h55f69df1f605b83cE, symObjAddr: 0x4D8B0, symBinAddr: 0x10003BFA0, symSize: 0x1D4 }
  - { offset: 0x748A8, size: 0x8, addend: 0x0, symName: __ZN3std12backtrace_rs9symbolize5gimli5macho11find_header17h55f69df1f605b83cE, symObjAddr: 0x4D8B0, symBinAddr: 0x10003BFA0, symSize: 0x1D4 }
  - { offset: 0x748BD, size: 0x8, addend: 0x0, symName: __ZN3std12backtrace_rs9symbolize5gimli5macho11find_header17h55f69df1f605b83cE, symObjAddr: 0x4D8B0, symBinAddr: 0x10003BFA0, symSize: 0x1D4 }
  - { offset: 0x748D2, size: 0x8, addend: 0x0, symName: __ZN3std12backtrace_rs9symbolize5gimli5macho11find_header17h55f69df1f605b83cE, symObjAddr: 0x4D8B0, symBinAddr: 0x10003BFA0, symSize: 0x1D4 }
  - { offset: 0x75009, size: 0x8, addend: 0x0, symName: __ZN3std12backtrace_rs9symbolize5gimli4mmap17h887dd2c3e0662184E, symObjAddr: 0x4AF34, symBinAddr: 0x10003963C, symSize: 0x174 }
  - { offset: 0x756A7, size: 0x8, addend: 0x0, symName: __ZN3std12backtrace_rs9symbolize5gimli7resolve17h64427fc4373c0585E, symObjAddr: 0x4B0A8, symBinAddr: 0x1000397B0, symSize: 0x27F0 }
  - { offset: 0x7B3F1, size: 0x8, addend: 0x0, symName: __ZN3std12backtrace_rs9symbolize6Symbol4name17he61211ceb05526e3E, symObjAddr: 0x3C9D8, symBinAddr: 0x100031FD4, symSize: 0xE4 }
  - { offset: 0x7B528, size: 0x8, addend: 0x0, symName: '__ZN79_$LT$std..backtrace_rs..symbolize..SymbolName$u20$as$u20$core..fmt..Display$GT$3fmt17h4c4c1b4de2e31d53E', symObjAddr: 0x3CBF4, symBinAddr: 0x1000320B8, symSize: 0x100 }
  - { offset: 0x7B651, size: 0x8, addend: 0x0, symName: __ZN3std12backtrace_rs9backtrace9libunwind5trace8trace_fn17h78394d9ee4ccceffE, symObjAddr: 0x48B70, symBinAddr: 0x100037278, symSize: 0x48 }
  - { offset: 0x7B722, size: 0x8, addend: 0x0, symName: __ZN3std12backtrace_rs5print17BacktraceFrameFmt21print_raw_with_column17h834ed90aab55fe6fE, symObjAddr: 0x3CDF4, symBinAddr: 0x1000321B8, symSize: 0x304 }
  - { offset: 0x7B845, size: 0x8, addend: 0x0, symName: __ZN3std12backtrace_rs5print17BacktraceFrameFmt14print_fileline17h4f1f1a459d4f9b31E, symObjAddr: 0x3D0F8, symBinAddr: 0x1000324BC, symSize: 0x198 }
  - { offset: 0x7BA09, size: 0x8, addend: 0x0, symName: __ZN3std6thread7current12init_current17h772b2ceaca17750fE, symObjAddr: 0x1F8C0, symBinAddr: 0x10004D320, symSize: 0x164 }
  - { offset: 0x7BD66, size: 0x8, addend: 0x0, symName: __ZN3std6thread6Thread3new17h61d7fe27c37d738eE, symObjAddr: 0x207B0, symBinAddr: 0x10002C238, symSize: 0x158 }
  - { offset: 0x7C18D, size: 0x8, addend: 0x0, symName: __ZN3std6thread8ThreadId3new9exhausted17hc87ba1ebc9ec3293E, symObjAddr: 0x20668, symBinAddr: 0x10004D484, symSize: 0x38 }
  - { offset: 0x7C1CA, size: 0x8, addend: 0x0, symName: '__ZN118_$LT$std..thread..thread_name_string..ThreadNameString$u20$as$u20$core..convert..From$LT$alloc..string..String$GT$$GT$4from17h451023573f089af3E', symObjAddr: 0x206A0, symBinAddr: 0x10002C128, symSize: 0x110 }
  - { offset: 0x7C3F5, size: 0x8, addend: 0x0, symName: __ZN3std2rt15handle_rt_panic17h541ba1db327ed283E, symObjAddr: 0x1EE7C, symBinAddr: 0x10004D2DC, symSize: 0x44 }
  - { offset: 0x7C485, size: 0x8, addend: 0x0, symName: __ZN3std2rt19lang_start_internal17h9c67c334770c9206E, symObjAddr: 0x1EF24, symBinAddr: 0x10002BA90, symSize: 0x698 }
  - { offset: 0x7D065, size: 0x8, addend: 0x0, symName: __ZN3std5panic19get_backtrace_style17h39e90e609eb8b5abE, symObjAddr: 0x317C4, symBinAddr: 0x10002EB90, symSize: 0x11C }
  - { offset: 0x7D083, size: 0x8, addend: 0x0, symName: __ZN3std5panic19get_backtrace_style17h39e90e609eb8b5abE, symObjAddr: 0x317C4, symBinAddr: 0x10002EB90, symSize: 0x11C }
  - { offset: 0x7D098, size: 0x8, addend: 0x0, symName: __ZN3std5panic19get_backtrace_style17h39e90e609eb8b5abE, symObjAddr: 0x317C4, symBinAddr: 0x10002EB90, symSize: 0x11C }
  - { offset: 0x7D4FC, size: 0x8, addend: 0x0, symName: __ZN3std3env11current_dir17hcf122f2a803df77cE, symObjAddr: 0x21AB8, symBinAddr: 0x10002C390, symSize: 0x1A0 }
  - { offset: 0x7D8C8, size: 0x8, addend: 0x0, symName: __ZN3std3env7vars_os17h5da3b85263f16da8E, symObjAddr: 0x21C5C, symBinAddr: 0x10002C530, symSize: 0x30C }
  - { offset: 0x7DF0F, size: 0x8, addend: 0x0, symName: __ZN3std3env4_var17h9dd5e1a62477915dE, symObjAddr: 0x22298, symBinAddr: 0x10002C83C, symSize: 0x98 }
  - { offset: 0x7E00B, size: 0x8, addend: 0x0, symName: __ZN3std3env7_var_os17h2a5365ce2409b350E, symObjAddr: 0x22330, symBinAddr: 0x10002C8D4, symSize: 0x164 }
  - { offset: 0x7E2CC, size: 0x8, addend: 0x0, symName: __ZN3std2fs11OpenOptions5_open17h0fbed7ef40f371a5E, symObjAddr: 0x24928, symBinAddr: 0x10002CAE4, symSize: 0x250 }
  - { offset: 0x7E47B, size: 0x8, addend: 0x0, symName: '__ZN75_$LT$std..fs..ReadDir$u20$as$u20$core..iter..traits..iterator..Iterator$GT$4next17h60ea7641501e923cE', symObjAddr: 0x24F5C, symBinAddr: 0x10002CD34, symSize: 0x18C }
  - { offset: 0x7E764, size: 0x8, addend: 0x0, symName: __ZN3std5alloc24default_alloc_error_hook17hbb2afb0af5835e8dE, symObjAddr: 0x3B0F8, symBinAddr: 0x100030D74, symSize: 0x140 }
  - { offset: 0x7E9A7, size: 0x8, addend: 0x0, symName: __RNvCs73fAdSrgOJL_7___rustc11___rdl_alloc, symObjAddr: 0x3B238, symBinAddr: 0x100030EB4, symSize: 0x6C }
  - { offset: 0x7EA2D, size: 0x8, addend: 0x0, symName: __RNvCs73fAdSrgOJL_7___rustc13___rdl_dealloc, symObjAddr: 0x3B2A4, symBinAddr: 0x100030F20, symSize: 0x4 }
  - { offset: 0x7EA4D, size: 0x8, addend: 0x0, symName: __RNvCs73fAdSrgOJL_7___rustc13___rdl_dealloc, symObjAddr: 0x3B2A4, symBinAddr: 0x100030F20, symSize: 0x4 }
  - { offset: 0x7EA61, size: 0x8, addend: 0x0, symName: __RNvCs73fAdSrgOJL_7___rustc13___rdl_realloc, symObjAddr: 0x3B2A8, symBinAddr: 0x100030F24, symSize: 0xB0 }
  - { offset: 0x7EB3F, size: 0x8, addend: 0x0, symName: __RNvCs73fAdSrgOJL_7___rustc18___rdl_alloc_zeroed, symObjAddr: 0x3B358, symBinAddr: 0x100030FD4, symSize: 0x90 }
  - { offset: 0x7EBEB, size: 0x8, addend: 0x0, symName: __ZN3std5alloc8rust_oom17hdb6eb131aa920ad3E, symObjAddr: 0x48A7C, symBinAddr: 0x10004DE58, symSize: 0x2C }
  - { offset: 0x7EC3A, size: 0x8, addend: 0x0, symName: __RNvCs73fAdSrgOJL_7___rustc8___rg_oom, symObjAddr: 0x48AA8, symBinAddr: 0x10004DE84, symSize: 0x18 }
  - { offset: 0x7ECAA, size: 0x8, addend: 0x0, symName: '__ZN9addr2line8function17Function$LT$R$GT$14parse_children17hf3df585ce7ac8262E', symObjAddr: 0x1DE2C, symBinAddr: 0x10002AA4C, symSize: 0xE84 }
  - { offset: 0x80525, size: 0x8, addend: 0x0, symName: __ZN9addr2line8function10name_entry17hfdced0c758d2a567E, symObjAddr: 0x1DAC0, symBinAddr: 0x10002A6E0, symSize: 0x36C }
  - { offset: 0x809E7, size: 0x8, addend: 0x0, symName: __ZN9addr2line8function9name_attr17h1ce69a4ce3ba7e89E, symObjAddr: 0x1ECB0, symBinAddr: 0x10002B8D0, symSize: 0x1C0 }
  - { offset: 0x80C0B, size: 0x8, addend: 0x0, symName: __ZN9addr2line4line11render_file17h41488bb5a6979477E, symObjAddr: 0x1C890, symBinAddr: 0x1000294B0, symSize: 0x4B0 }
  - { offset: 0x8156A, size: 0x8, addend: 0x0, symName: '__ZN9addr2line4unit16ResUnit$LT$R$GT$25find_function_or_location17h3697563f577d8d9fE', symObjAddr: 0x1CD40, symBinAddr: 0x100029960, symSize: 0x378 }
  - { offset: 0x81A3E, size: 0x8, addend: 0x0, symName: '__ZN9addr2line4unit16ResUnit$LT$R$GT$25find_function_or_location28_$u7b$$u7b$closure$u7d$$u7d$17h0d725353a137efa6E', symObjAddr: 0x1D0B8, symBinAddr: 0x100029CD8, symSize: 0x30C }
  - { offset: 0x81DE3, size: 0x8, addend: 0x0, symName: '__ZN9addr2line16Context$LT$R$GT$9find_unit17hfe70ee874184feb7E', symObjAddr: 0x1C734, symBinAddr: 0x100029354, symSize: 0x15C }
  - { offset: 0x81F92, size: 0x8, addend: 0x0, symName: '__ZN9addr2line6lookup30LoopingLookup$LT$T$C$L$C$F$GT$10new_lookup17h479f29027e320fd2E', symObjAddr: 0x1D684, symBinAddr: 0x10002A2A4, symSize: 0x43C }
  - { offset: 0x8246E, size: 0x8, addend: 0x0, symName: '__ZN9addr2line5frame18FrameIter$LT$R$GT$4next17hab4653c465939ee8E', symObjAddr: 0x1D3C4, symBinAddr: 0x100029FE4, symSize: 0x2C0 }
  - { offset: 0x82B8B, size: 0x8, addend: 0x0, symName: '__ZN5gimli4read4unit18Attribute$LT$R$GT$5value17hf92c28dec7922b31E', symObjAddr: 0x174B8, symBinAddr: 0x1000245D0, symSize: 0x598 }
  - { offset: 0x82FA4, size: 0x8, addend: 0x0, symName: '__ZN90_$LT$gimli..read..unit..AttributeValue$LT$R$C$Offset$GT$$u20$as$u20$core..clone..Clone$GT$5clone17hcb6071538b682662E', symObjAddr: 0x1C614, symBinAddr: 0x1000292EC, symSize: 0x68 }
  - { offset: 0x83004, size: 0x8, addend: 0x0, symName: '__ZN5gimli4read4unit32AttributeValue$LT$R$C$Offset$GT$11udata_value17hb0fbf782d56f4d3fE', symObjAddr: 0x17D08, symBinAddr: 0x100024E20, symSize: 0x84 }
  - { offset: 0x8305F, size: 0x8, addend: 0x0, symName: __ZN5gimli4read4unit15parse_attribute17h04e99a6e8528e9b0E, symObjAddr: 0x16008, symBinAddr: 0x100023120, symSize: 0xF74 }
  - { offset: 0x85C1E, size: 0x8, addend: 0x0, symName: __ZN5gimli4read4unit15skip_attributes17h34aae5d204503f89E, symObjAddr: 0x16F7C, symBinAddr: 0x100024094, symSize: 0x53C }
  - { offset: 0x86608, size: 0x8, addend: 0x0, symName: '__ZN5gimli4read4unit22EntriesCursor$LT$R$GT$10next_entry17hdbe6c325dc93b25aE', symObjAddr: 0x17A50, symBinAddr: 0x100024B68, symSize: 0x2B8 }
  - { offset: 0x86BCC, size: 0x8, addend: 0x0, symName: '__ZN5gimli4read4unit33DebugInfoUnitHeadersIter$LT$R$GT$4next17ha7bc19eef22d5132E', symObjAddr: 0x17D8C, symBinAddr: 0x100024EA4, symSize: 0x518 }
  - { offset: 0x87D16, size: 0x8, addend: 0x0, symName: '__ZN5gimli4read5dwarf13Unit$LT$R$GT$3new17h686262bf18a65175E', symObjAddr: 0x182A4, symBinAddr: 0x1000253BC, symSize: 0x1C84 }
  - { offset: 0x8B46F, size: 0x8, addend: 0x0, symName: '__ZN5gimli4read5dwarf14Dwarf$LT$R$GT$11attr_string17h1e958f109b0daeb0E', symObjAddr: 0x19F28, symBinAddr: 0x100027040, symSize: 0x220 }
  - { offset: 0x8BE5B, size: 0x8, addend: 0x0, symName: __ZN5gimli4read6reader6Reader11read_offset17hfc4380759744d0ccE, symObjAddr: 0x1A808, symBinAddr: 0x100027920, symSize: 0xB4 }
  - { offset: 0x8C07A, size: 0x8, addend: 0x0, symName: __ZN5gimli4read6reader6Reader12read_sleb12817h1bb18c7db89a5c45E, symObjAddr: 0x1A8BC, symBinAddr: 0x1000279D4, symSize: 0x23C }
  - { offset: 0x8C156, size: 0x8, addend: 0x0, symName: __ZN5gimli4read6reader6Reader12read_uleb12817he2bb007cca6a74e8E, symObjAddr: 0x1AAF8, symBinAddr: 0x100027C10, symSize: 0xB8 }
  - { offset: 0x8C1FD, size: 0x8, addend: 0x0, symName: __ZN5gimli4read6reader6Reader17read_sized_offset17h350128ac40d4d88bE, symObjAddr: 0x1ABB0, symBinAddr: 0x100027CC8, symSize: 0x10C }
  - { offset: 0x8C969, size: 0x8, addend: 0x0, symName: '__ZN5gimli4read4line27FileEntry$LT$R$C$Offset$GT$5parse17he72fe970b5aeb997E', symObjAddr: 0x15DEC, symBinAddr: 0x100022F04, symSize: 0x21C }
  - { offset: 0x8CBC0, size: 0x8, addend: 0x0, symName: __ZN5gimli4read4line13parse_file_v517h17de60bb2846bd30E, symObjAddr: 0x14E6C, symBinAddr: 0x100021F84, symSize: 0x2B4 }
  - { offset: 0x8CD38, size: 0x8, addend: 0x0, symName: __ZN5gimli4read4line15FileEntryFormat5parse17h5b94835e6d431828E, symObjAddr: 0x15120, symBinAddr: 0x100022238, symSize: 0x370 }
  - { offset: 0x8D50B, size: 0x8, addend: 0x0, symName: __ZN5gimli4read4line15parse_attribute17h44b66ac1f1fd4d70E, symObjAddr: 0x15490, symBinAddr: 0x1000225A8, symSize: 0x874 }
  - { offset: 0x8ECC5, size: 0x8, addend: 0x0, symName: __ZN5gimli4read4line18parse_directory_v517hc1cf6537e0e6b55eE, symObjAddr: 0x15D04, symBinAddr: 0x100022E1C, symSize: 0xE8 }
  - { offset: 0x8EE50, size: 0x8, addend: 0x0, symName: '__ZN5gimli4read8rnglists20RngListIter$LT$R$GT$4next17h3cf0be4737bd2bfbE', symObjAddr: 0x1AF64, symBinAddr: 0x10002807C, symSize: 0xC70 }
  - { offset: 0x9179B, size: 0x8, addend: 0x0, symName: '__ZN5gimli4read5index18UnitIndex$LT$R$GT$5parse17hb6f2329c704ae441E', symObjAddr: 0x1A148, symBinAddr: 0x100027260, symSize: 0x6C0 }
  - { offset: 0x91D0F, size: 0x8, addend: 0x0, symName: '__ZN5gimli4read7aranges30ArangeHeader$LT$R$C$Offset$GT$5parse17ha7ab83fde3103809E', symObjAddr: 0x1ACBC, symBinAddr: 0x100027DD4, symSize: 0x2A8 }
  - { offset: 0x929CC, size: 0x8, addend: 0x0, symName: __ZN6object4read7archive13ArchiveMember5parse17h529fa28f4fec8200E, symObjAddr: 0x1C00C, symBinAddr: 0x100028D48, symSize: 0x304 }
  - { offset: 0x929EA, size: 0x8, addend: 0x0, symName: __ZN6object4read7archive13ArchiveMember5parse17h529fa28f4fec8200E, symObjAddr: 0x1C00C, symBinAddr: 0x100028D48, symSize: 0x304 }
  - { offset: 0x929FF, size: 0x8, addend: 0x0, symName: __ZN6object4read7archive13ArchiveMember5parse17h529fa28f4fec8200E, symObjAddr: 0x1C00C, symBinAddr: 0x100028D48, symSize: 0x304 }
  - { offset: 0x931F9, size: 0x8, addend: 0x0, symName: __ZN6object4read7archive23parse_bsd_extended_name17ha21d7e6d1cf5441dE, symObjAddr: 0x1C310, symBinAddr: 0x10002904C, symSize: 0x260 }
  - { offset: 0x94040, size: 0x8, addend: 0x0, symName: _OUTLINED_FUNCTION_0, symObjAddr: 0x4E800, symBinAddr: 0x10003CEF0, symSize: 0x8 }
  - { offset: 0x94058, size: 0x8, addend: 0x0, symName: _OUTLINED_FUNCTION_1, symObjAddr: 0x4E808, symBinAddr: 0x10003CEF8, symSize: 0xC }
  - { offset: 0x94070, size: 0x8, addend: 0x0, symName: _OUTLINED_FUNCTION_2, symObjAddr: 0x4E814, symBinAddr: 0x10003CF04, symSize: 0xC }
  - { offset: 0x94088, size: 0x8, addend: 0x0, symName: _OUTLINED_FUNCTION_3, symObjAddr: 0x4E820, symBinAddr: 0x10003CF10, symSize: 0xC }
  - { offset: 0x940A0, size: 0x8, addend: 0x0, symName: _OUTLINED_FUNCTION_4, symObjAddr: 0x4E82C, symBinAddr: 0x10003CF1C, symSize: 0xC }
  - { offset: 0x940B8, size: 0x8, addend: 0x0, symName: _OUTLINED_FUNCTION_5, symObjAddr: 0x4E838, symBinAddr: 0x10003CF28, symSize: 0x8 }
  - { offset: 0x940D0, size: 0x8, addend: 0x0, symName: _OUTLINED_FUNCTION_6, symObjAddr: 0x4E840, symBinAddr: 0x10003CF30, symSize: 0x24 }
  - { offset: 0x940E8, size: 0x8, addend: 0x0, symName: _OUTLINED_FUNCTION_7, symObjAddr: 0x4E864, symBinAddr: 0x10003CF54, symSize: 0x10 }
  - { offset: 0x94100, size: 0x8, addend: 0x0, symName: _OUTLINED_FUNCTION_8, symObjAddr: 0x4E874, symBinAddr: 0x10003CF64, symSize: 0x8 }
  - { offset: 0x94118, size: 0x8, addend: 0x0, symName: _OUTLINED_FUNCTION_9, symObjAddr: 0x4E87C, symBinAddr: 0x10003CF6C, symSize: 0x8 }
  - { offset: 0x94130, size: 0x8, addend: 0x0, symName: _OUTLINED_FUNCTION_10, symObjAddr: 0x4E884, symBinAddr: 0x10003CF74, symSize: 0x24 }
  - { offset: 0x94148, size: 0x8, addend: 0x0, symName: _OUTLINED_FUNCTION_11, symObjAddr: 0x4E8A8, symBinAddr: 0x10003CF98, symSize: 0x20 }
  - { offset: 0x94160, size: 0x8, addend: 0x0, symName: _OUTLINED_FUNCTION_12, symObjAddr: 0x4E8C8, symBinAddr: 0x10003CFB8, symSize: 0x8 }
  - { offset: 0x94178, size: 0x8, addend: 0x0, symName: _OUTLINED_FUNCTION_13, symObjAddr: 0x4E8D0, symBinAddr: 0x10003CFC0, symSize: 0x8 }
  - { offset: 0x94190, size: 0x8, addend: 0x0, symName: _OUTLINED_FUNCTION_14, symObjAddr: 0x4E8D8, symBinAddr: 0x10003CFC8, symSize: 0x8 }
  - { offset: 0x941A8, size: 0x8, addend: 0x0, symName: _OUTLINED_FUNCTION_15, symObjAddr: 0x4E8E0, symBinAddr: 0x10003CFD0, symSize: 0x8 }
  - { offset: 0x941C0, size: 0x8, addend: 0x0, symName: _OUTLINED_FUNCTION_16, symObjAddr: 0x4E8E8, symBinAddr: 0x10003CFD8, symSize: 0x8 }
  - { offset: 0x941D8, size: 0x8, addend: 0x0, symName: _OUTLINED_FUNCTION_17, symObjAddr: 0x4E8F0, symBinAddr: 0x10003CFE0, symSize: 0x10 }
  - { offset: 0x941F0, size: 0x8, addend: 0x0, symName: _OUTLINED_FUNCTION_18, symObjAddr: 0x4E900, symBinAddr: 0x10003CFF0, symSize: 0x10 }
  - { offset: 0x94208, size: 0x8, addend: 0x0, symName: _OUTLINED_FUNCTION_19, symObjAddr: 0x4E910, symBinAddr: 0x10003D000, symSize: 0x10 }
  - { offset: 0x94220, size: 0x8, addend: 0x0, symName: _OUTLINED_FUNCTION_20, symObjAddr: 0x4E920, symBinAddr: 0x10003D010, symSize: 0x10 }
  - { offset: 0x94238, size: 0x8, addend: 0x0, symName: _OUTLINED_FUNCTION_21, symObjAddr: 0x4E930, symBinAddr: 0x10003D020, symSize: 0xC }
  - { offset: 0x94250, size: 0x8, addend: 0x0, symName: _OUTLINED_FUNCTION_22, symObjAddr: 0x4E93C, symBinAddr: 0x10003D02C, symSize: 0x18 }
  - { offset: 0x94268, size: 0x8, addend: 0x0, symName: _OUTLINED_FUNCTION_23, symObjAddr: 0x4E954, symBinAddr: 0x10003D044, symSize: 0x8 }
  - { offset: 0x94280, size: 0x8, addend: 0x0, symName: _OUTLINED_FUNCTION_24, symObjAddr: 0x4E95C, symBinAddr: 0x10003D04C, symSize: 0xC }
  - { offset: 0x94298, size: 0x8, addend: 0x0, symName: _OUTLINED_FUNCTION_25, symObjAddr: 0x4E968, symBinAddr: 0x10003D058, symSize: 0xC }
  - { offset: 0x942B0, size: 0x8, addend: 0x0, symName: _OUTLINED_FUNCTION_26, symObjAddr: 0x4E974, symBinAddr: 0x10003D064, symSize: 0x8 }
  - { offset: 0x942C8, size: 0x8, addend: 0x0, symName: _OUTLINED_FUNCTION_27, symObjAddr: 0x4E97C, symBinAddr: 0x10003D06C, symSize: 0x8 }
  - { offset: 0x942E0, size: 0x8, addend: 0x0, symName: _OUTLINED_FUNCTION_28, symObjAddr: 0x4E984, symBinAddr: 0x10003D074, symSize: 0xC }
  - { offset: 0x942F8, size: 0x8, addend: 0x0, symName: _OUTLINED_FUNCTION_29, symObjAddr: 0x4E990, symBinAddr: 0x10003D080, symSize: 0xC }
  - { offset: 0x94310, size: 0x8, addend: 0x0, symName: _OUTLINED_FUNCTION_30, symObjAddr: 0x4E99C, symBinAddr: 0x10003D08C, symSize: 0xC }
  - { offset: 0x94328, size: 0x8, addend: 0x0, symName: _OUTLINED_FUNCTION_31, symObjAddr: 0x4E9A8, symBinAddr: 0x10003D098, symSize: 0x8 }
  - { offset: 0x94340, size: 0x8, addend: 0x0, symName: _OUTLINED_FUNCTION_32, symObjAddr: 0x4E9B0, symBinAddr: 0x10003D0A0, symSize: 0x10 }
  - { offset: 0x94358, size: 0x8, addend: 0x0, symName: _OUTLINED_FUNCTION_33, symObjAddr: 0x4E9C0, symBinAddr: 0x10003D0B0, symSize: 0x14 }
  - { offset: 0x94370, size: 0x8, addend: 0x0, symName: _OUTLINED_FUNCTION_34, symObjAddr: 0x4E9D4, symBinAddr: 0x10003D0C4, symSize: 0x14 }
  - { offset: 0x94388, size: 0x8, addend: 0x0, symName: _OUTLINED_FUNCTION_35, symObjAddr: 0x4E9E8, symBinAddr: 0x10003D0D8, symSize: 0x14 }
  - { offset: 0x943A0, size: 0x8, addend: 0x0, symName: _OUTLINED_FUNCTION_36, symObjAddr: 0x4E9FC, symBinAddr: 0x10003D0EC, symSize: 0x14 }
  - { offset: 0x943D6, size: 0x8, addend: 0x0, symName: '__ZN4core3ptr49drop_in_place$LT$panic_unwind..imp..Exception$GT$17h527397a192ffb8f1E', symObjAddr: 0x0, symBinAddr: 0x10003D100, symSize: 0x78 }
  - { offset: 0x943FC, size: 0x8, addend: 0x0, symName: '__ZN4core3ptr49drop_in_place$LT$panic_unwind..imp..Exception$GT$17h527397a192ffb8f1E', symObjAddr: 0x0, symBinAddr: 0x10003D100, symSize: 0x78 }
  - { offset: 0x94503, size: 0x8, addend: 0x0, symName: '__ZN4core3ptr74drop_in_place$LT$alloc..boxed..Box$LT$panic_unwind..imp..Exception$GT$$GT$17ha4260977db93ebb9E', symObjAddr: 0x78, symBinAddr: 0x10003D178, symSize: 0x8C }
  - { offset: 0x947CB, size: 0x8, addend: 0x0, symName: __ZN12panic_unwind3imp5panic17exception_cleanup17h2bbea2a6f8ecfebbE, symObjAddr: 0x20C, symBinAddr: 0x10003D30C, symSize: 0x18 }
  - { offset: 0x947E7, size: 0x8, addend: 0x0, symName: __RNvCs73fAdSrgOJL_7___rustc20___rust_panic_cleanup, symObjAddr: 0x104, symBinAddr: 0x10003D204, symSize: 0x68 }
  - { offset: 0x9488D, size: 0x8, addend: 0x0, symName: __RNvCs73fAdSrgOJL_7___rustc18___rust_start_panic, symObjAddr: 0x16C, symBinAddr: 0x10003D26C, symSize: 0xA0 }
  - { offset: 0x94B10, size: 0x8, addend: 0x0, symName: '__ZN69_$LT$core..alloc..layout..LayoutError$u20$as$u20$core..fmt..Debug$GT$3fmt17h13fbca3ca3dd174dE', symObjAddr: 0x3B8, symBinAddr: 0x100044B94, symSize: 0x14 }
  - { offset: 0x94DFD, size: 0x8, addend: 0x0, symName: __ZN5alloc7raw_vec17capacity_overflow17hd8f87080832cecbdE, symObjAddr: 0x3CC, symBinAddr: 0x10004DF48, symSize: 0x34 }
  - { offset: 0x94E44, size: 0x8, addend: 0x0, symName: '__ZN5alloc7raw_vec20RawVecInner$LT$A$GT$7reserve21do_reserve_and_handle17h4dd33506b8348a9cE', symObjAddr: 0x4A0, symBinAddr: 0x10004DF7C, symSize: 0xB0 }
  - { offset: 0x94F46, size: 0x8, addend: 0x0, symName: __ZN5alloc7raw_vec11finish_grow17h38abc94d42a7bc55E, symObjAddr: 0x550, symBinAddr: 0x10004E02C, symSize: 0x80 }
  - { offset: 0x94FBC, size: 0x8, addend: 0x0, symName: __ZN5alloc7raw_vec12handle_error17h2ea1403ff25ec75cE, symObjAddr: 0x5D0, symBinAddr: 0x10004E0AC, symSize: 0x18 }
  - { offset: 0x950B6, size: 0x8, addend: 0x0, symName: __ZN5alloc5alloc18handle_alloc_error17h18ccdcfeddefd4c6E, symObjAddr: 0x5E8, symBinAddr: 0x10004E0C4, symSize: 0x18 }
  - { offset: 0x95128, size: 0x8, addend: 0x0, symName: __ZN5alloc6string6String15from_utf8_lossy17hbc43f3fc78418a81E, symObjAddr: 0x2E90, symBinAddr: 0x100044EC4, symSize: 0x23C }
  - { offset: 0x95660, size: 0x8, addend: 0x0, symName: '__ZN98_$LT$alloc..string..String$u20$as$u20$core..convert..From$LT$alloc..borrow..Cow$LT$str$GT$$GT$$GT$4from17h4b68af2740d6abffE', symObjAddr: 0x47BC, symBinAddr: 0x100045100, symSize: 0xB4 }
  - { offset: 0x958FC, size: 0x8, addend: 0x0, symName: '__ZN93_$LT$alloc..collections..btree..mem..replace..PanicGuard$u20$as$u20$core..ops..drop..Drop$GT$4drop17he91a4622e79b07ddE', symObjAddr: 0xE74, symBinAddr: 0x10004E0DC, symSize: 0x4 }
  - { offset: 0x959FD, size: 0x8, addend: 0x0, symName: '__ZN72_$LT$$RF$str$u20$as$u20$alloc..ffi..c_str..CString..new..SpecNewImpl$GT$13spec_new_impl17h19bc653579af59a5E', symObjAddr: 0xEF8, symBinAddr: 0x100044BA8, symSize: 0x114 }
  - { offset: 0x95C29, size: 0x8, addend: 0x0, symName: __ZN5alloc3ffi5c_str7CString19_from_vec_unchecked17h26f80605e3bdda78E, symObjAddr: 0x1150, symBinAddr: 0x100044CBC, symSize: 0x160 }
  - { offset: 0x95F4F, size: 0x8, addend: 0x0, symName: __ZN5alloc3ffi5c_str7CString8from_raw17h1a969b5b39f2d46eE, symObjAddr: 0x12B0, symBinAddr: 0x100044E1C, symSize: 0x28 }
  - { offset: 0x95F84, size: 0x8, addend: 0x0, symName: '__ZN100_$LT$alloc..ffi..c_str..CString$u20$as$u20$core..convert..From$LT$$RF$core..ffi..c_str..CStr$GT$$GT$4from17h793c5ab38e4e723fE', symObjAddr: 0x17CC, symBinAddr: 0x100044E44, symSize: 0x80 }
  - { offset: 0x9608C, size: 0x8, addend: 0x0, symName: __ZN5alloc4sync32arcinner_layout_for_value_layout17h8c52c76ed82694fdE, symObjAddr: 0x4C48, symBinAddr: 0x1000451B4, symSize: 0x74 }
  - { offset: 0x96742, size: 0x8, addend: 0x0, symName: __ZN4core5slice5index26slice_start_index_len_fail8do_panic7runtime17h429c9cce17a0ea9bE, symObjAddr: 0x1C14C, symBinAddr: 0x10004E5D4, symSize: 0x50 }
  - { offset: 0x96775, size: 0x8, addend: 0x0, symName: __ZN4core5slice5index26slice_start_index_len_fail17haf25ebf915d057aaE, symObjAddr: 0xF0BC, symBinAddr: 0x10004E4D0, symSize: 0xC }
  - { offset: 0x967BB, size: 0x8, addend: 0x0, symName: __ZN4core5slice5index24slice_end_index_len_fail8do_panic7runtime17hdec1e0cff231be1dE, symObjAddr: 0x1C19C, symBinAddr: 0x10004E624, symSize: 0x50 }
  - { offset: 0x967EE, size: 0x8, addend: 0x0, symName: __ZN4core5slice5index24slice_end_index_len_fail17he89357cd02fca028E, symObjAddr: 0xF0C8, symBinAddr: 0x10004E4DC, symSize: 0xC }
  - { offset: 0x96834, size: 0x8, addend: 0x0, symName: __ZN4core5slice5index22slice_index_order_fail8do_panic7runtime17h6303e3dc084ed840E, symObjAddr: 0x1C1EC, symBinAddr: 0x10004E674, symSize: 0x50 }
  - { offset: 0x96867, size: 0x8, addend: 0x0, symName: __ZN4core5slice5index22slice_index_order_fail17he9c8f4194031cd00E, symObjAddr: 0xF0D4, symBinAddr: 0x10004E4E8, symSize: 0xC }
  - { offset: 0x96BC0, size: 0x8, addend: 0x0, symName: __ZN4core5slice6memchr14memchr_aligned17hb906e7bc9e85c06eE, symObjAddr: 0xEA94, symBinAddr: 0x100047564, symSize: 0xDC }
  - { offset: 0x96C9C, size: 0x8, addend: 0x0, symName: __ZN4core5slice6memchr7memrchr17h7ceb156575b1a919E, symObjAddr: 0xEB70, symBinAddr: 0x100047640, symSize: 0x120 }
  - { offset: 0x96DF5, size: 0x8, addend: 0x0, symName: __ZN4core5slice4sort6stable5drift11sqrt_approx17hd32bbcccc9c319c0E, symObjAddr: 0xEC90, symBinAddr: 0x100047760, symSize: 0x2C }
  - { offset: 0x96E72, size: 0x8, addend: 0x0, symName: __ZN4core5slice4sort6shared9smallsort22panic_on_ord_violation17h87378ecb72803b59E, symObjAddr: 0xECBC, symBinAddr: 0x10004E498, symSize: 0x38 }
  - { offset: 0x96FF5, size: 0x8, addend: 0x0, symName: '__ZN42_$LT$str$u20$as$u20$core..fmt..Display$GT$3fmt17h42462a8471c7143dE', symObjAddr: 0xE768, symBinAddr: 0x1000472FC, symSize: 0x14 }
  - { offset: 0x97197, size: 0x8, addend: 0x0, symName: __ZN4core3fmt9Formatter12pad_integral17heb070ef6e4499464E, symObjAddr: 0xC07C, symBinAddr: 0x100046244, symSize: 0x3B4 }
  - { offset: 0x97498, size: 0x8, addend: 0x0, symName: __ZN4core3fmt9Formatter3pad17h299da9dcc544e21cE, symObjAddr: 0xC4AC, symBinAddr: 0x100046674, symSize: 0x304 }
  - { offset: 0x977F8, size: 0x8, addend: 0x0, symName: __ZN4core3fmt9Formatter9write_str17hd9a1b7644989a9c8E, symObjAddr: 0xCC04, symBinAddr: 0x100046978, symSize: 0x10 }
  - { offset: 0x9780C, size: 0x8, addend: 0x0, symName: __ZN4core3fmt9Formatter12debug_struct17hf7643d0658ff94cfE, symObjAddr: 0xCC20, symBinAddr: 0x100046988, symSize: 0x3C }
  - { offset: 0x9784B, size: 0x8, addend: 0x0, symName: __ZN4core3fmt9Formatter26debug_struct_field1_finish17h3d8cc21df86d1f08E, symObjAddr: 0xCC5C, symBinAddr: 0x1000469C4, symSize: 0xD0 }
  - { offset: 0x97922, size: 0x8, addend: 0x0, symName: __ZN4core3fmt9Formatter26debug_struct_field2_finish17h32b4f697403bec40E, symObjAddr: 0xCD2C, symBinAddr: 0x100046A94, symSize: 0x104 }
  - { offset: 0x979F9, size: 0x8, addend: 0x0, symName: __ZN4core3fmt9Formatter11debug_tuple17h3a3ca798bd11b2bcE, symObjAddr: 0xD340, symBinAddr: 0x100046B98, symSize: 0x50 }
  - { offset: 0x97A4E, size: 0x8, addend: 0x0, symName: __ZN4core3fmt9Formatter25debug_tuple_field1_finish17h293fabc56e30d0f7E, symObjAddr: 0xD390, symBinAddr: 0x100046BE8, symSize: 0x160 }
  - { offset: 0x97C50, size: 0x8, addend: 0x0, symName: __ZN4core3fmt9Formatter25debug_tuple_field2_finish17h0773e66da7fec5dcE, symObjAddr: 0xD4F0, symBinAddr: 0x100046D48, symSize: 0x1D8 }
  - { offset: 0x97F48, size: 0x8, addend: 0x0, symName: __ZN4core3fmt9Formatter10debug_list17hb567e092460f51e4E, symObjAddr: 0xE2A4, symBinAddr: 0x100046F20, symSize: 0x48 }
  - { offset: 0x97FF0, size: 0x8, addend: 0x0, symName: __ZN4core3fmt8builders11DebugStruct5field17hcf92289f4867f5e5E, symObjAddr: 0x8288, symBinAddr: 0x100045A80, symSize: 0x1B4 }
  - { offset: 0x981EF, size: 0x8, addend: 0x0, symName: __ZN4core3fmt8builders11DebugStruct6finish17h21c87724d91d861aE, symObjAddr: 0x8500, symBinAddr: 0x100045C34, symSize: 0x80 }
  - { offset: 0x982F0, size: 0x8, addend: 0x0, symName: '__ZN68_$LT$core..fmt..builders..PadAdapter$u20$as$u20$core..fmt..Write$GT$9write_str17hc0cf6ed124d300b4E', symObjAddr: 0x7FB0, symBinAddr: 0x1000457A8, symSize: 0x258 }
  - { offset: 0x98570, size: 0x8, addend: 0x0, symName: '__ZN68_$LT$core..fmt..builders..PadAdapter$u20$as$u20$core..fmt..Write$GT$10write_char17h9657826e049c4398E', symObjAddr: 0x8208, symBinAddr: 0x100045A00, symSize: 0x80 }
  - { offset: 0x985F5, size: 0x8, addend: 0x0, symName: __ZN4core3fmt8builders10DebugTuple5field17he743b1e43a659b47E, symObjAddr: 0x8580, symBinAddr: 0x100045CB4, symSize: 0x148 }
  - { offset: 0x98781, size: 0x8, addend: 0x0, symName: __ZN4core3fmt8builders10DebugTuple6finish17h39fdb22d98cc1346E, symObjAddr: 0x8788, symBinAddr: 0x100045DFC, symSize: 0xB0 }
  - { offset: 0x988D0, size: 0x8, addend: 0x0, symName: __ZN4core3fmt8builders8DebugSet5entry17h99c874a0178a5542E, symObjAddr: 0x8838, symBinAddr: 0x100045EAC, symSize: 0x148 }
  - { offset: 0x98A75, size: 0x8, addend: 0x0, symName: __ZN4core3fmt8builders9DebugList6finish17hd378c2ebba87d08dE, symObjAddr: 0x8B58, symBinAddr: 0x100045FF4, symSize: 0x4C }
  - { offset: 0x98C45, size: 0x8, addend: 0x0, symName: '__ZN4core3fmt3num53_$LT$impl$u20$core..fmt..LowerHex$u20$for$u20$i32$GT$3fmt17h6e850657c74d9d25E', symObjAddr: 0x19818, symBinAddr: 0x1000498B8, symSize: 0x80 }
  - { offset: 0x98CED, size: 0x8, addend: 0x0, symName: '__ZN4core3fmt3num53_$LT$impl$u20$core..fmt..UpperHex$u20$for$u20$i32$GT$3fmt17h997afd280f6b29c7E', symObjAddr: 0x19898, symBinAddr: 0x100049938, symSize: 0x80 }
  - { offset: 0x98D95, size: 0x8, addend: 0x0, symName: '__ZN4core3fmt3num53_$LT$impl$u20$core..fmt..LowerHex$u20$for$u20$i64$GT$3fmt17hbe7c020a02da664cE', symObjAddr: 0x199F8, symBinAddr: 0x1000499B8, symSize: 0x80 }
  - { offset: 0x98E3D, size: 0x8, addend: 0x0, symName: '__ZN4core3fmt3num53_$LT$impl$u20$core..fmt..UpperHex$u20$for$u20$i64$GT$3fmt17h740b27e908318385E', symObjAddr: 0x19A78, symBinAddr: 0x100049A38, symSize: 0x80 }
  - { offset: 0x98ED8, size: 0x8, addend: 0x0, symName: '__ZN4core3fmt3num52_$LT$impl$u20$core..fmt..LowerHex$u20$for$u20$i8$GT$3fmt17h4b4be5c7ea7962d0E', symObjAddr: 0x19458, symBinAddr: 0x1000497B8, symSize: 0x80 }
  - { offset: 0x98F87, size: 0x8, addend: 0x0, symName: '__ZN4core3fmt3num52_$LT$impl$u20$core..fmt..UpperHex$u20$for$u20$i8$GT$3fmt17h05fab38eb12d6eccE', symObjAddr: 0x194D8, symBinAddr: 0x100049838, symSize: 0x80 }
  - { offset: 0x9905B, size: 0x8, addend: 0x0, symName: '__ZN4core3fmt3num3imp51_$LT$impl$u20$core..fmt..Display$u20$for$u20$u8$GT$3fmt17h6b187241d8419cbfE', symObjAddr: 0x1A470, symBinAddr: 0x100049AB8, symSize: 0xB0 }
  - { offset: 0x9911F, size: 0x8, addend: 0x0, symName: '__ZN4core3fmt3num3imp52_$LT$impl$u20$core..fmt..Display$u20$for$u20$u32$GT$3fmt17hdad8bbb1fd1b667aE', symObjAddr: 0x1A984, symBinAddr: 0x100049B68, symSize: 0x130 }
  - { offset: 0x991F8, size: 0x8, addend: 0x0, symName: '__ZN4core3fmt3num3imp52_$LT$impl$u20$core..fmt..Display$u20$for$u20$i32$GT$3fmt17hf57747113c1e0663E', symObjAddr: 0x1AAB4, symBinAddr: 0x100049C98, symSize: 0x13C }
  - { offset: 0x992F6, size: 0x8, addend: 0x0, symName: '__ZN4core3fmt3num3imp52_$LT$impl$u20$core..fmt..Display$u20$for$u20$u64$GT$3fmt17ha8fcf0d52ed54e0fE', symObjAddr: 0x1ACF8, symBinAddr: 0x100049DD4, symSize: 0x13C }
  - { offset: 0x9944F, size: 0x8, addend: 0x0, symName: '__ZN57_$LT$core..fmt..Formatter$u20$as$u20$core..fmt..Write$GT$10write_char17h6d68564ee698b1edE', symObjAddr: 0xE38C, symBinAddr: 0x100046F68, symSize: 0x10 }
  - { offset: 0x99482, size: 0x8, addend: 0x0, symName: __ZN4core3fmt5Write9write_fmt17h9614ff1edc252aa5E, symObjAddr: 0xBE40, symBinAddr: 0x100046040, symSize: 0x10 }
  - { offset: 0x994C5, size: 0x8, addend: 0x0, symName: '__ZN59_$LT$core..fmt..Arguments$u20$as$u20$core..fmt..Display$GT$3fmt17h3a775e5eedaf7738E', symObjAddr: 0xBE88, symBinAddr: 0x100046050, symSize: 0xC }
  - { offset: 0x99529, size: 0x8, addend: 0x0, symName: __ZN4core3fmt5write17h2c4a0b98b09e3b30E, symObjAddr: 0xBE94, symBinAddr: 0x10004605C, symSize: 0x1E8 }
  - { offset: 0x99708, size: 0x8, addend: 0x0, symName: __ZN4core3fmt9Formatter12pad_integral12write_prefix17hc2a717568d4daf91E, symObjAddr: 0xC430, symBinAddr: 0x1000465F8, symSize: 0x7C }
  - { offset: 0x9974E, size: 0x8, addend: 0x0, symName: '__ZN42_$LT$$RF$T$u20$as$u20$core..fmt..Debug$GT$3fmt17h6e4f67bb97a98f3cE', symObjAddr: 0x1BFA8, symBinAddr: 0x100049F10, symSize: 0xE0 }
  - { offset: 0x9986C, size: 0x8, addend: 0x0, symName: '__ZN42_$LT$$RF$T$u20$as$u20$core..fmt..Debug$GT$3fmt17hfbab3261e141b19fE', symObjAddr: 0x1C090, symBinAddr: 0x100049FF0, symSize: 0x10 }
  - { offset: 0x998A8, size: 0x8, addend: 0x0, symName: '__ZN40_$LT$str$u20$as$u20$core..fmt..Debug$GT$3fmt17h6bb0dde775cede54E', symObjAddr: 0xE3E4, symBinAddr: 0x100046F78, symSize: 0x384 }
  - { offset: 0x99CAD, size: 0x8, addend: 0x0, symName: '__ZN41_$LT$char$u20$as$u20$core..fmt..Debug$GT$3fmt17h5b77a63018c31381E', symObjAddr: 0xE77C, symBinAddr: 0x100047310, symSize: 0xA8 }
  - { offset: 0x99DB7, size: 0x8, addend: 0x0, symName: '__ZN43_$LT$char$u20$as$u20$core..fmt..Display$GT$3fmt17hccc7cc18179c4872E', symObjAddr: 0xE824, symBinAddr: 0x1000473B8, symSize: 0xEC }
  - { offset: 0x99E36, size: 0x8, addend: 0x0, symName: __ZN4core3fmt17pointer_fmt_inner17h454be370dc368025E, symObjAddr: 0xE910, symBinAddr: 0x1000474A4, symSize: 0xC0 }
  - { offset: 0x99F1E, size: 0x8, addend: 0x0, symName: '__ZN44_$LT$$RF$T$u20$as$u20$core..fmt..Display$GT$3fmt17hbbf5e2ca3c54582bE', symObjAddr: 0x1C0B0, symBinAddr: 0x10004A000, symSize: 0x10 }
  - { offset: 0x9A050, size: 0x8, addend: 0x0, symName: __ZN4core6option13unwrap_failed17h1f788aa856a0b42eE, symObjAddr: 0x7830, symBinAddr: 0x10004E124, symSize: 0x1C }
  - { offset: 0x9A06B, size: 0x8, addend: 0x0, symName: __ZN4core6option13expect_failed17h89af471ff13548f9E, symObjAddr: 0x784C, symBinAddr: 0x10004E140, symSize: 0x48 }
  - { offset: 0x9A0C3, size: 0x8, addend: 0x0, symName: '__ZN71_$LT$core..ops..range..Range$LT$Idx$GT$$u20$as$u20$core..fmt..Debug$GT$3fmt17h658e9a2f8f4bbb48E', symObjAddr: 0x414C, symBinAddr: 0x100045228, symSize: 0x1F8 }
  - { offset: 0x9A540, size: 0x8, addend: 0x0, symName: __ZN4core6result13unwrap_failed17h7f68c62f4ec5b70eE, symObjAddr: 0x7EFC, symBinAddr: 0x10004E43C, symSize: 0x5C }
  - { offset: 0x9A79A, size: 0x8, addend: 0x0, symName: __ZN4core3str5count14do_count_chars17hd2a57b08be8d1b70E, symObjAddr: 0xF77C, symBinAddr: 0x100047A00, symSize: 0x718 }
  - { offset: 0x9AAEB, size: 0x8, addend: 0x0, symName: __ZN4core3str5count23char_count_general_case17h0d6812726d9a8e15E, symObjAddr: 0xFE94, symBinAddr: 0x100048118, symSize: 0x2A8 }
  - { offset: 0x9AB98, size: 0x8, addend: 0x0, symName: __ZN4core3str8converts9from_utf817h7b78634a00291fadE, symObjAddr: 0xF294, symBinAddr: 0x10004778C, symSize: 0x274 }
  - { offset: 0x9ABB5, size: 0x8, addend: 0x0, symName: __ZN4core3str8converts9from_utf817h7b78634a00291fadE, symObjAddr: 0xF294, symBinAddr: 0x10004778C, symSize: 0x274 }
  - { offset: 0x9ACA3, size: 0x8, addend: 0x0, symName: __ZN4core3str7pattern11StrSearcher3new17hd95460b09bffc181E, symObjAddr: 0x1087C, symBinAddr: 0x1000483C0, symSize: 0x8BC }
  - { offset: 0x9AFFA, size: 0x8, addend: 0x0, symName: '__ZN60_$LT$core..str..lossy..Debug$u20$as$u20$core..fmt..Debug$GT$3fmt17h61e9a8e340b24faaE', symObjAddr: 0x11138, symBinAddr: 0x100048C7C, symSize: 0x364 }
  - { offset: 0x9B310, size: 0x8, addend: 0x0, symName: '__ZN87_$LT$core..str..lossy..Utf8Chunks$u20$as$u20$core..iter..traits..iterator..Iterator$GT$4next17h454b21b309792e7dE', symObjAddr: 0x1149C, symBinAddr: 0x100048FE0, symSize: 0x1C0 }
  - { offset: 0x9B514, size: 0x8, addend: 0x0, symName: __ZN4core3str16slice_error_fail17h061e87b9dfc55aadE, symObjAddr: 0x11728, symBinAddr: 0x10004E4F4, symSize: 0xC }
  - { offset: 0x9B52E, size: 0x8, addend: 0x0, symName: __ZN4core3str19slice_error_fail_rt17h7e572c53c14a04e8E, symObjAddr: 0x11768, symBinAddr: 0x1000491A0, symSize: 0x344 }
  - { offset: 0x9B756, size: 0x8, addend: 0x0, symName: '__ZN4core4char7methods22_$LT$impl$u20$char$GT$16escape_debug_ext17h530e3c57cef50f83E', symObjAddr: 0x4EEC, symBinAddr: 0x100045434, symSize: 0x284 }
  - { offset: 0x9B994, size: 0x8, addend: 0x0, symName: __ZN4core4char7methods15encode_utf8_raw8do_panic7runtime17he7bfa606ee446088E, symObjAddr: 0x17D20, symBinAddr: 0x10004E500, symSize: 0x6C }
  - { offset: 0x9BA5B, size: 0x8, addend: 0x0, symName: '__ZN65_$LT$core..cell..BorrowMutError$u20$as$u20$core..fmt..Display$GT$3fmt17hce6430c2316144b4E', symObjAddr: 0x4DB8, symBinAddr: 0x100045420, symSize: 0x14 }
  - { offset: 0x9BA8D, size: 0x8, addend: 0x0, symName: __ZN4core4cell22panic_already_borrowed17h0d36ae2fc2f0ba17E, symObjAddr: 0x4DCC, symBinAddr: 0x10004E0E0, symSize: 0x44 }
  - { offset: 0x9BADD, size: 0x8, addend: 0x0, symName: __ZN4core7unicode12unicode_data15grapheme_extend11lookup_slow17hd2a4fb5538b8240dE, symObjAddr: 0x1D5B0, symBinAddr: 0x10004A028, symSize: 0x108 }
  - { offset: 0x9BCA2, size: 0x8, addend: 0x0, symName: __ZN4core7unicode12unicode_data2cc6lookup17h1698536727c00c0fE, symObjAddr: 0x1D598, symBinAddr: 0x10004A010, symSize: 0x18 }
  - { offset: 0x9BCC0, size: 0x8, addend: 0x0, symName: __ZN4core7unicode12unicode_data2cc6lookup17h1698536727c00c0fE, symObjAddr: 0x1D598, symBinAddr: 0x10004A010, symSize: 0x18 }
  - { offset: 0x9BCF4, size: 0x8, addend: 0x0, symName: __ZN4core7unicode9printable12is_printable17h484639cf451143c4E, symObjAddr: 0x12484, symBinAddr: 0x1000494E4, symSize: 0x2B4 }
  - { offset: 0x9C006, size: 0x8, addend: 0x0, symName: __ZN4core3ffi5c_str4CStr19from_bytes_with_nul17h3a2ee221267d5c22E, symObjAddr: 0x5480, symBinAddr: 0x1000456B8, symSize: 0xF0 }
  - { offset: 0x9C024, size: 0x8, addend: 0x0, symName: __ZN4core3ffi5c_str4CStr19from_bytes_with_nul17h3a2ee221267d5c22E, symObjAddr: 0x5480, symBinAddr: 0x1000456B8, symSize: 0xF0 }
  - { offset: 0x9C0F3, size: 0x8, addend: 0x0, symName: __ZN4core9panicking9panic_fmt17h3505bfbec5a0b799E, symObjAddr: 0x7AA4, symBinAddr: 0x10004E188, symSize: 0x20 }
  - { offset: 0x9C136, size: 0x8, addend: 0x0, symName: __ZN4core9panicking18panic_nounwind_fmt17h9dceef42c0a45ea6E, symObjAddr: 0x7AC4, symBinAddr: 0x10004E1A8, symSize: 0x3C }
  - { offset: 0x9C17B, size: 0x8, addend: 0x0, symName: __ZN4core9panicking5panic17he76e9111fdaa2ca0E, symObjAddr: 0x7B00, symBinAddr: 0x10004E1E4, symSize: 0x34 }
  - { offset: 0x9C1AA, size: 0x8, addend: 0x0, symName: __ZN4core9panicking14panic_nounwind17h9f7565b148aca0eaE, symObjAddr: 0x7B34, symBinAddr: 0x10004E218, symSize: 0x3C }
  - { offset: 0x9C1D9, size: 0x8, addend: 0x0, symName: __ZN4core9panicking26panic_nounwind_nobacktrace17h12b19155b129e9d4E, symObjAddr: 0x7B70, symBinAddr: 0x10004E254, symSize: 0x3C }
  - { offset: 0x9C208, size: 0x8, addend: 0x0, symName: __ZN4core9panicking18panic_bounds_check17he97faa96f3a18922E, symObjAddr: 0x7BF4, symBinAddr: 0x10004E290, symSize: 0x50 }
  - { offset: 0x9C23A, size: 0x8, addend: 0x0, symName: __ZN4core9panicking19panic_cannot_unwind17hf7c38fa209f60374E, symObjAddr: 0x7CD4, symBinAddr: 0x10004E2E0, symSize: 0x18 }
  - { offset: 0x9C255, size: 0x8, addend: 0x0, symName: __ZN4core9panicking16panic_in_cleanup17hdc9dae2f5fec47e4E, symObjAddr: 0x7CEC, symBinAddr: 0x10004E2F8, symSize: 0x18 }
  - { offset: 0x9C270, size: 0x8, addend: 0x0, symName: __ZN4core9panicking13assert_failed17h0019f4c0f6063c60E, symObjAddr: 0x7D68, symBinAddr: 0x10004E310, symSize: 0x24 }
  - { offset: 0x9C28B, size: 0x8, addend: 0x0, symName: __ZN4core9panicking13assert_failed17h748d75638d28cdb2E, symObjAddr: 0x7D8C, symBinAddr: 0x10004E334, symSize: 0x24 }
  - { offset: 0x9C2A6, size: 0x8, addend: 0x0, symName: __ZN4core9panicking19assert_failed_inner17hcd9fdaaa091321f9E, symObjAddr: 0x7DC4, symBinAddr: 0x10004E358, symSize: 0xE4 }
  - { offset: 0x9C2F3, size: 0x8, addend: 0x0, symName: __ZN4core9panicking11panic_const23panic_const_div_by_zero17h31f967ea86996136E, symObjAddr: 0x18300, symBinAddr: 0x10004E56C, symSize: 0x34 }
  - { offset: 0x9C322, size: 0x8, addend: 0x0, symName: __ZN4core9panicking11panic_const23panic_const_rem_by_zero17ha1e16486c02437ccE, symObjAddr: 0x18334, symBinAddr: 0x10004E5A0, symSize: 0x34 }
  - { offset: 0x9C38E, size: 0x8, addend: 0x0, symName: __ZN4core5alloc6layout6Layout19is_size_align_valid17h9081c126d538f17aE, symObjAddr: 0x129D4, symBinAddr: 0x100049798, symSize: 0x20 }
  - { offset: 0x9C3AB, size: 0x8, addend: 0x0, symName: __ZN4core5alloc6layout6Layout19is_size_align_valid17h9081c126d538f17aE, symObjAddr: 0x129D4, symBinAddr: 0x100049798, symSize: 0x20 }
  - { offset: 0x9C3D5, size: 0x8, addend: 0x0, symName: _OUTLINED_FUNCTION_0, symObjAddr: 0x1DCF4, symBinAddr: 0x10004A130, symSize: 0x10 }
...
