---
triple:          'arm64-apple-darwin'
binary-path:     '/Users/tyler/fall25/cse380/final_project/final_project_sqlite/target/debug/build/getrandom-5779ef62ad1d2087/build_script_build-5779ef62ad1d2087'
relocations:
  - { offset: 0x1E, size: 0x8, addend: 0x0, symName: __RINvMs_NtNtCsaNl6UpbT7bw_4core3fmt2rtNtB7_9Arguments9new_constKj1_ECsjWlmgRw4CHA_18build_script_build, symObjAddr: 0x0, symBinAddr: 0x100000BF0, symSize: 0x48 }
  - { offset: 0x84, size: 0x8, addend: 0x0, symName: __RNvXNvNtCsht3nMU9UgFu_3std2io17default_write_fmtINtB2_7AdapterNtNtNtNtB6_3sys5stdio4unix6StderrENtNtCsaNl6UpbT7bw_4core3fmt5Write9write_strCsjWlmgRw4CHA_18build_script_build, symObjAddr: 0x4AC4, symBinAddr: 0x100005608, symSize: 0xB4 }
  - { offset: 0x20A, size: 0x8, addend: 0x0, symName: __RNCNvXs1_NtNtNtCsht3nMU9UgFu_3std2io5error14repr_bitpackedNtB7_4ReprNtNtNtCsaNl6UpbT7bw_4core3ops4drop4Drop4drop0CsjWlmgRw4CHA_18build_script_build, symObjAddr: 0x1E1C, symBinAddr: 0x100002964, symSize: 0x3C }
  - { offset: 0x2BF, size: 0x8, addend: 0x0, symName: __RNvXs1_NtNtNtCsht3nMU9UgFu_3std2io5error14repr_bitpackedNtB5_4ReprNtNtNtCsaNl6UpbT7bw_4core3ops4drop4Drop4dropCsjWlmgRw4CHA_18build_script_build, symObjAddr: 0x4CF4, symBinAddr: 0x100005838, symSize: 0x38 }
  - { offset: 0x2E8, size: 0x8, addend: 0x0, symName: __RINvNtNtNtCsht3nMU9UgFu_3std2io5error14repr_bitpacked11decode_reprINtNtCsiTraAjBDcu4_5alloc5boxed3BoxNtB4_6CustomENCNvXs1_B2_NtB2_4ReprNtNtNtCsaNl6UpbT7bw_4core3ops4drop4Drop4drop0ECsjWlmgRw4CHA_18build_script_build, symObjAddr: 0x1698, symBinAddr: 0x1000021E0, symSize: 0x1DC }
  - { offset: 0x555, size: 0x8, addend: 0x0, symName: __RNCNvMs0_NtNtNtCsht3nMU9UgFu_3std2io5error14repr_bitpackedNtB7_4Repr4data0CsjWlmgRw4CHA_18build_script_build, symObjAddr: 0x1E08, symBinAddr: 0x100002950, symSize: 0x14 }
  - { offset: 0x58D, size: 0x8, addend: 0x0, symName: __RINvNtNtNtCsht3nMU9UgFu_3std2io5error14repr_bitpacked11decode_reprRNtB4_6CustomNCNvMs0_B2_NtB2_4Repr4data0ECsjWlmgRw4CHA_18build_script_build, symObjAddr: 0x1874, symBinAddr: 0x1000023BC, symSize: 0x1DC }
  - { offset: 0x7E9, size: 0x8, addend: 0x0, symName: __RNvNtNtNtCsht3nMU9UgFu_3std2io5error14repr_bitpacked14kind_from_primCsjWlmgRw4CHA_18build_script_build, symObjAddr: 0x3954, symBinAddr: 0x100004498, symSize: 0x758 }
  - { offset: 0x12F7, size: 0x8, addend: 0x0, symName: __RINvNtCsht3nMU9UgFu_3std2io17default_write_fmtNtNtNtNtB4_3sys5stdio4unix6StderrECsjWlmgRw4CHA_18build_script_build, symObjAddr: 0x14F4, symBinAddr: 0x10000203C, symSize: 0x120 }
  - { offset: 0x13AB, size: 0x8, addend: 0x0, symName: __RNvYNtNtNtNtCsht3nMU9UgFu_3std3sys5stdio4unix6StderrNtNtBa_2io5Write9write_allCsjWlmgRw4CHA_18build_script_build, symObjAddr: 0x5528, symBinAddr: 0x10000606C, symSize: 0x270 }
  - { offset: 0x1543, size: 0x8, addend: 0x0, symName: __RNvYNtNtNtNtCsht3nMU9UgFu_3std3sys5stdio4unix6StderrNtNtBa_2io5Write9write_fmtCsjWlmgRw4CHA_18build_script_build, symObjAddr: 0x5798, symBinAddr: 0x1000062DC, symSize: 0x154 }
  - { offset: 0x1926, size: 0x8, addend: 0x0, symName: __RINvNtNtCsht3nMU9UgFu_3std3sys9backtrace28___rust_begin_short_backtraceFEuuECsjWlmgRw4CHA_18build_script_build, symObjAddr: 0x1674, symBinAddr: 0x1000021BC, symSize: 0x24 }
  - { offset: 0x19E1, size: 0x8, addend: 0x0, symName: __RNCINvNtCsht3nMU9UgFu_3std2rt10lang_startuE0CsjWlmgRw4CHA_18build_script_build, symObjAddr: 0x1DD4, symBinAddr: 0x10000291C, symSize: 0x34 }
  - { offset: 0x1A4B, size: 0x8, addend: 0x0, symName: __RINvNtCsht3nMU9UgFu_3std2rt10lang_startuECsjWlmgRw4CHA_18build_script_build, symObjAddr: 0x1614, symBinAddr: 0x10000215C, symSize: 0x60 }
  - { offset: 0x1B5E, size: 0x8, addend: 0x0, symName: __RNvXNvXs2_NtNtCsht3nMU9UgFu_3std3ffi6os_strNtB8_8OsStringINtNtCsaNl6UpbT7bw_4core7convert4FromRpE4fromReNtB2_14SpecToOsString17spec_to_os_stringCsjWlmgRw4CHA_18build_script_build, symObjAddr: 0x4B78, symBinAddr: 0x1000056BC, symSize: 0x78 }
  - { offset: 0x1C18, size: 0x8, addend: 0x0, symName: __RNvXs2_NtNtCsht3nMU9UgFu_3std3ffi6os_strNtB5_8OsStringINtNtCsaNl6UpbT7bw_4core7convert4FromReE4fromCsjWlmgRw4CHA_18build_script_build, symObjAddr: 0x4DDC, symBinAddr: 0x100005920, symSize: 0x2C }
  - { offset: 0x1C55, size: 0x8, addend: 0x0, symName: __RNvXs3_NtNtCsht3nMU9UgFu_3std3ffi6os_strNtB5_8OsStringINtNtNtCsaNl6UpbT7bw_4core3ops5index5IndexNtNtBV_5range9RangeFullE5indexCsjWlmgRw4CHA_18build_script_build, symObjAddr: 0x4E08, symBinAddr: 0x10000594C, symSize: 0x80 }
  - { offset: 0x1D64, size: 0x8, addend: 0x0, symName: __RNvXs5_NtNtCsht3nMU9UgFu_3std3ffi6os_strNtB5_8OsStringNtNtNtCsaNl6UpbT7bw_4core3ops5deref5Deref5derefCsjWlmgRw4CHA_18build_script_build, symObjAddr: 0x4EDC, symBinAddr: 0x100005A20, symSize: 0x2C }
  - { offset: 0x1DB6, size: 0x8, addend: 0x0, symName: __RNvXsV_NtNtCsht3nMU9UgFu_3std3ffi6os_strNtB5_8OsStringINtNtCsaNl6UpbT7bw_4core7convert5AsRefNtB5_5OsStrE6as_refCsjWlmgRw4CHA_18build_script_build, symObjAddr: 0x4FC4, symBinAddr: 0x100005B08, symSize: 0x2C }
  - { offset: 0x1E08, size: 0x8, addend: 0x0, symName: __RNvXsW_NtNtCsht3nMU9UgFu_3std3ffi6os_streINtNtCsaNl6UpbT7bw_4core7convert5AsRefNtB5_5OsStrE6as_refCsjWlmgRw4CHA_18build_script_build, symObjAddr: 0x4FF0, symBinAddr: 0x100005B34, symSize: 0x18 }
  - { offset: 0x1F15, size: 0x8, addend: 0x0, symName: __RNvXsZ_NtCsht3nMU9UgFu_3std7processuNtB5_11Termination6reportCsjWlmgRw4CHA_18build_script_build, symObjAddr: 0x502C, symBinAddr: 0x100005B70, symSize: 0x10 }
  - { offset: 0x2A54, size: 0x8, addend: 0x0, symName: __RNvNvMs1_NtNtCsaNl6UpbT7bw_4core3ptr8non_nullINtB7_7NonNullpE13new_unchecked18precondition_checkCsjWlmgRw4CHA_18build_script_build, symObjAddr: 0x40AC, symBinAddr: 0x100004BF0, symSize: 0xA4 }
  - { offset: 0x2EAF, size: 0x8, addend: 0x0, symName: __RINvNtCsaNl6UpbT7bw_4core3ptr13drop_in_placeINtNtB4_6option6OptionINtNtCsiTraAjBDcu4_5alloc5boxed3BoxSmEEECsjWlmgRw4CHA_18build_script_build, symObjAddr: 0x864, symBinAddr: 0x1000013AC, symSize: 0x44 }
  - { offset: 0x2EDE, size: 0x8, addend: 0x0, symName: __RINvNtCsaNl6UpbT7bw_4core3ptr13drop_in_placeINtNtB4_6option6OptionNtNtCsiTraAjBDcu4_5alloc6string6StringEECsjWlmgRw4CHA_18build_script_build, symObjAddr: 0x8A8, symBinAddr: 0x1000013F0, symSize: 0x48 }
  - { offset: 0x2F0D, size: 0x8, addend: 0x0, symName: __RINvNtCsaNl6UpbT7bw_4core3ptr13drop_in_placeINtNtB4_6option6OptionNtNtNtCsht3nMU9UgFu_3std3ffi6os_str8OsStringEECsjWlmgRw4CHA_18build_script_build, symObjAddr: 0x8F0, symBinAddr: 0x100001438, symSize: 0x48 }
  - { offset: 0x2F3C, size: 0x8, addend: 0x0, symName: __RINvNtCsaNl6UpbT7bw_4core3ptr13drop_in_placeINtNtB4_6option6OptionNtNtNtCsiTraAjBDcu4_5alloc3ffi5c_str7CStringEECsjWlmgRw4CHA_18build_script_build, symObjAddr: 0x938, symBinAddr: 0x100001480, symSize: 0x44 }
  - { offset: 0x2F6B, size: 0x8, addend: 0x0, symName: __RINvNtCsaNl6UpbT7bw_4core3ptr13drop_in_placeINtNtB4_6option6OptionNtNtNtNtNtCsht3nMU9UgFu_3std3sys7process4unix6common5StdioEECsjWlmgRw4CHA_18build_script_build, symObjAddr: 0x97C, symBinAddr: 0x1000014C4, symSize: 0x44 }
  - { offset: 0x2F9A, size: 0x8, addend: 0x0, symName: __RINvNtCsaNl6UpbT7bw_4core3ptr13drop_in_placeINtNtB4_6result6ResultNtNtCsht3nMU9UgFu_3std7process6OutputNtNtNtB16_2io5error5ErrorEECsjWlmgRw4CHA_18build_script_build, symObjAddr: 0x9C0, symBinAddr: 0x100001508, symSize: 0x5C }
  - { offset: 0x2FC9, size: 0x8, addend: 0x0, symName: __RINvNtCsaNl6UpbT7bw_4core3ptr13drop_in_placeINtNtB4_6result6ResultNtNtCsiTraAjBDcu4_5alloc6string6StringNtNtCsht3nMU9UgFu_3std3env8VarErrorEECsjWlmgRw4CHA_18build_script_build, symObjAddr: 0xA1C, symBinAddr: 0x100001564, symSize: 0x50 }
  - { offset: 0x2FF8, size: 0x8, addend: 0x0, symName: __RINvNtCsaNl6UpbT7bw_4core3ptr13drop_in_placeINtNtB4_6result6ResultNtNtCsiTraAjBDcu4_5alloc6string6StringNtNtNtCsht3nMU9UgFu_3std3ffi6os_str8OsStringEECsjWlmgRw4CHA_18build_script_build, symObjAddr: 0xA6C, symBinAddr: 0x1000015B4, symSize: 0x50 }
  - { offset: 0x3027, size: 0x8, addend: 0x0, symName: __RINvNtCsaNl6UpbT7bw_4core3ptr13drop_in_placeINtNtB4_6result6ResultuNtNtNtCsht3nMU9UgFu_3std2io5error5ErrorEECsjWlmgRw4CHA_18build_script_build, symObjAddr: 0xABC, symBinAddr: 0x100001604, symSize: 0x44 }
  - { offset: 0x3056, size: 0x8, addend: 0x0, symName: __RINvNtCsaNl6UpbT7bw_4core3ptr13drop_in_placeINtNtCsiTraAjBDcu4_5alloc3vec3VecINtNtBL_5boxed3BoxDINtNtNtB4_3ops8function5FnMutuEp6OutputINtNtB4_6result6ResultuNtNtNtCsht3nMU9UgFu_3std2io5error5ErrorENtNtB4_6marker4SyncNtB3c_4SendEL_EEECsjWlmgRw4CHA_18build_script_build, symObjAddr: 0xB00, symBinAddr: 0x100001648, symSize: 0x5C }
  - { offset: 0x3085, size: 0x8, addend: 0x0, symName: __RINvNtCsaNl6UpbT7bw_4core3ptr13drop_in_placeINtNtCsiTraAjBDcu4_5alloc3vec3VecPaEECsjWlmgRw4CHA_18build_script_build, symObjAddr: 0xB5C, symBinAddr: 0x1000016A4, symSize: 0x5C }
  - { offset: 0x30B4, size: 0x8, addend: 0x0, symName: __RINvNtCsaNl6UpbT7bw_4core3ptr13drop_in_placeINtNtCsiTraAjBDcu4_5alloc3vec3VechEECsjWlmgRw4CHA_18build_script_build, symObjAddr: 0xBB8, symBinAddr: 0x100001700, symSize: 0x5C }
  - { offset: 0x30E3, size: 0x8, addend: 0x0, symName: __RINvNtCsaNl6UpbT7bw_4core3ptr13drop_in_placeINtNtCsiTraAjBDcu4_5alloc5boxed3BoxDINtNtNtB4_3ops8function5FnMutuEp6OutputINtNtB4_6result6ResultuNtNtNtCsht3nMU9UgFu_3std2io5error5ErrorENtNtB4_6marker4SyncNtB2W_4SendEL_EECsjWlmgRw4CHA_18build_script_build, symObjAddr: 0xC14, symBinAddr: 0x10000175C, symSize: 0x80 }
  - { offset: 0x3112, size: 0x8, addend: 0x0, symName: __RINvNtCsaNl6UpbT7bw_4core3ptr13drop_in_placeINtNtCsiTraAjBDcu4_5alloc5boxed3BoxDNtNtB4_5error5ErrorNtNtB4_6marker4SyncNtB1B_4SendEL_EECsjWlmgRw4CHA_18build_script_build, symObjAddr: 0xC94, symBinAddr: 0x1000017DC, symSize: 0x80 }
  - { offset: 0x3141, size: 0x8, addend: 0x0, symName: __RINvNtCsaNl6UpbT7bw_4core3ptr13drop_in_placeINtNtCsiTraAjBDcu4_5alloc5boxed3BoxNtNtNtCsht3nMU9UgFu_3std2io5error6CustomEECsjWlmgRw4CHA_18build_script_build, symObjAddr: 0xD14, symBinAddr: 0x10000185C, symSize: 0x60 }
  - { offset: 0x3170, size: 0x8, addend: 0x0, symName: __RINvNtCsaNl6UpbT7bw_4core3ptr13drop_in_placeINtNtCsiTraAjBDcu4_5alloc5boxed3BoxShEECsjWlmgRw4CHA_18build_script_build, symObjAddr: 0xD74, symBinAddr: 0x1000018BC, symSize: 0x2C }
  - { offset: 0x319F, size: 0x8, addend: 0x0, symName: __RINvNtCsaNl6UpbT7bw_4core3ptr13drop_in_placeINtNtCsiTraAjBDcu4_5alloc5boxed3BoxSmEECsjWlmgRw4CHA_18build_script_build, symObjAddr: 0xDA0, symBinAddr: 0x1000018E8, symSize: 0x2C }
  - { offset: 0x31CE, size: 0x8, addend: 0x0, symName: __RINvNtCsaNl6UpbT7bw_4core3ptr13drop_in_placeINtNtCsiTraAjBDcu4_5alloc7raw_vec6RawVecINtNtBL_5boxed3BoxDINtNtNtB4_3ops8function5FnMutuEp6OutputINtNtB4_6result6ResultuNtNtNtCsht3nMU9UgFu_3std2io5error5ErrorENtNtB4_6marker4SyncNtB3j_4SendEL_EEECsjWlmgRw4CHA_18build_script_build, symObjAddr: 0xDCC, symBinAddr: 0x100001914, symSize: 0x24 }
  - { offset: 0x31FD, size: 0x8, addend: 0x0, symName: __RINvNtCsaNl6UpbT7bw_4core3ptr13drop_in_placeINtNtCsiTraAjBDcu4_5alloc7raw_vec6RawVecPaEECsjWlmgRw4CHA_18build_script_build, symObjAddr: 0xDF0, symBinAddr: 0x100001938, symSize: 0x24 }
  - { offset: 0x322C, size: 0x8, addend: 0x0, symName: __RINvNtCsaNl6UpbT7bw_4core3ptr13drop_in_placeINtNtCsiTraAjBDcu4_5alloc7raw_vec6RawVechEECsjWlmgRw4CHA_18build_script_build, symObjAddr: 0xE14, symBinAddr: 0x10000195C, symSize: 0x24 }
  - { offset: 0x325B, size: 0x8, addend: 0x0, symName: __RINvNtCsaNl6UpbT7bw_4core3ptr13drop_in_placeINtNtNtCsht3nMU9UgFu_3std2io5error9ErrorDataINtNtCsiTraAjBDcu4_5alloc5boxed3BoxNtBJ_6CustomEEECsjWlmgRw4CHA_18build_script_build, symObjAddr: 0xE38, symBinAddr: 0x100001980, symSize: 0x48 }
  - { offset: 0x328A, size: 0x8, addend: 0x0, symName: __RINvNtCsaNl6UpbT7bw_4core3ptr13drop_in_placeINtNtNtNtCsiTraAjBDcu4_5alloc11collections5btree3map8BTreeMapNtNtNtCsht3nMU9UgFu_3std3ffi6os_str8OsStringINtNtB4_6option6OptionB1F_EEECsjWlmgRw4CHA_18build_script_build, symObjAddr: 0xE80, symBinAddr: 0x1000019C8, symSize: 0x24 }
  - { offset: 0x32B9, size: 0x8, addend: 0x0, symName: __RINvNtCsaNl6UpbT7bw_4core3ptr13drop_in_placeINtNtNtNtCsiTraAjBDcu4_5alloc11collections5btree3map8IntoIterNtNtNtCsht3nMU9UgFu_3std3ffi6os_str8OsStringINtNtB4_6option6OptionB1F_EEECsjWlmgRw4CHA_18build_script_build, symObjAddr: 0xEA4, symBinAddr: 0x1000019EC, symSize: 0x24 }
  - { offset: 0x32E8, size: 0x8, addend: 0x0, symName: __RINvNtCsaNl6UpbT7bw_4core3ptr13drop_in_placeINtNvMsT_NtNtNtCsiTraAjBDcu4_5alloc11collections5btree4nodeINtBP_6HandleINtBP_7NodeRefNtNtBP_6marker5DyingpppENtB26_2KVE12drop_key_val7DropperINtNtB4_6option6OptionNtNtNtCsht3nMU9UgFu_3std3ffi6os_str8OsStringEEECsjWlmgRw4CHA_18build_script_build, symObjAddr: 0xEC8, symBinAddr: 0x100001A10, symSize: 0x24 }
  - { offset: 0x3317, size: 0x8, addend: 0x0, symName: __RINvNtCsaNl6UpbT7bw_4core3ptr13drop_in_placeINtNvNtCsht3nMU9UgFu_3std2io17default_write_fmt7AdapterNtNtNtNtBN_3sys5stdio4unix6StderrEECsjWlmgRw4CHA_18build_script_build, symObjAddr: 0xEEC, symBinAddr: 0x100001A34, symSize: 0x24 }
  - { offset: 0x3346, size: 0x8, addend: 0x0, symName: __RINvNtCsaNl6UpbT7bw_4core3ptr13drop_in_placeINtNvXsw_NtNtNtCsiTraAjBDcu4_5alloc11collections5btree3mapINtBP_8IntoIterpppENtNtNtB4_3ops4drop4Drop4drop9DropGuardNtNtNtCsht3nMU9UgFu_3std3ffi6os_str8OsStringINtNtB4_6option6OptionB2x_ENtNtBV_5alloc6GlobalEECsjWlmgRw4CHA_18build_script_build, symObjAddr: 0xF10, symBinAddr: 0x100001A58, symSize: 0x24 }
  - { offset: 0x3375, size: 0x8, addend: 0x0, symName: __RINvNtCsaNl6UpbT7bw_4core3ptr13drop_in_placeNtNtCsht3nMU9UgFu_3std3env8VarErrorECsjWlmgRw4CHA_18build_script_build, symObjAddr: 0xF34, symBinAddr: 0x100001A7C, symSize: 0x48 }
  - { offset: 0x33A4, size: 0x8, addend: 0x0, symName: __RINvNtCsaNl6UpbT7bw_4core3ptr13drop_in_placeNtNtCsht3nMU9UgFu_3std7process6OutputECsjWlmgRw4CHA_18build_script_build, symObjAddr: 0xF7C, symBinAddr: 0x100001AC4, symSize: 0x60 }
  - { offset: 0x33D3, size: 0x8, addend: 0x0, symName: __RINvNtCsaNl6UpbT7bw_4core3ptr13drop_in_placeNtNtCsht3nMU9UgFu_3std7process7CommandECsjWlmgRw4CHA_18build_script_build, symObjAddr: 0xFDC, symBinAddr: 0x100001B24, symSize: 0x24 }
  - { offset: 0x3402, size: 0x8, addend: 0x0, symName: __RINvNtCsaNl6UpbT7bw_4core3ptr13drop_in_placeNtNtCsiTraAjBDcu4_5alloc6string6StringECsjWlmgRw4CHA_18build_script_build, symObjAddr: 0x1000, symBinAddr: 0x100001B48, symSize: 0x24 }
  - { offset: 0x3431, size: 0x8, addend: 0x0, symName: __RINvNtCsaNl6UpbT7bw_4core3ptr13drop_in_placeNtNtNtCsht3nMU9UgFu_3std2io5error5ErrorECsjWlmgRw4CHA_18build_script_build, symObjAddr: 0x1024, symBinAddr: 0x100001B6C, symSize: 0x24 }
  - { offset: 0x3460, size: 0x8, addend: 0x0, symName: __RINvNtCsaNl6UpbT7bw_4core3ptr13drop_in_placeNtNtNtCsht3nMU9UgFu_3std2io5error6CustomECsjWlmgRw4CHA_18build_script_build, symObjAddr: 0x1048, symBinAddr: 0x100001B90, symSize: 0x24 }
  - { offset: 0x348F, size: 0x8, addend: 0x0, symName: __RINvNtCsaNl6UpbT7bw_4core3ptr13drop_in_placeNtNtNtCsht3nMU9UgFu_3std3ffi6os_str8OsStringECsjWlmgRw4CHA_18build_script_build, symObjAddr: 0x106C, symBinAddr: 0x100001BB4, symSize: 0x24 }
  - { offset: 0x34BE, size: 0x8, addend: 0x0, symName: __RINvNtCsaNl6UpbT7bw_4core3ptr13drop_in_placeNtNtNtCsiTraAjBDcu4_5alloc3ffi5c_str7CStringECsjWlmgRw4CHA_18build_script_build, symObjAddr: 0x1090, symBinAddr: 0x100001BD8, symSize: 0x5C }
  - { offset: 0x34ED, size: 0x8, addend: 0x0, symName: __RINvNtCsaNl6UpbT7bw_4core3ptr13drop_in_placeNtNtNtNtCsht3nMU9UgFu_3std2io5error14repr_bitpacked4ReprECsjWlmgRw4CHA_18build_script_build, symObjAddr: 0x10EC, symBinAddr: 0x100001C34, symSize: 0x24 }
  - { offset: 0x351C, size: 0x8, addend: 0x0, symName: __RINvNtCsaNl6UpbT7bw_4core3ptr13drop_in_placeNtNtNtNtCsht3nMU9UgFu_3std2os2fd5owned7OwnedFdECsjWlmgRw4CHA_18build_script_build, symObjAddr: 0x1110, symBinAddr: 0x100001C58, symSize: 0x24 }
  - { offset: 0x354B, size: 0x8, addend: 0x0, symName: __RINvNtCsaNl6UpbT7bw_4core3ptr13drop_in_placeNtNtNtNtCsht3nMU9UgFu_3std3sys2fd4unix8FileDescECsjWlmgRw4CHA_18build_script_build, symObjAddr: 0x1134, symBinAddr: 0x100001C7C, symSize: 0x24 }
  - { offset: 0x357A, size: 0x8, addend: 0x0, symName: __RINvNtCsaNl6UpbT7bw_4core3ptr13drop_in_placeNtNtNtNtCsht3nMU9UgFu_3std3sys6os_str5bytes3BufECsjWlmgRw4CHA_18build_script_build, symObjAddr: 0x1158, symBinAddr: 0x100001CA0, symSize: 0x24 }
  - { offset: 0x35A9, size: 0x8, addend: 0x0, symName: __RINvNtCsaNl6UpbT7bw_4core3ptr13drop_in_placeNtNtNtNtCsht3nMU9UgFu_3std3sys7process3env10CommandEnvECsjWlmgRw4CHA_18build_script_build, symObjAddr: 0x117C, symBinAddr: 0x100001CC4, symSize: 0x24 }
  - { offset: 0x35D8, size: 0x8, addend: 0x0, symName: __RINvNtCsaNl6UpbT7bw_4core3ptr13drop_in_placeNtNtNtNtNtCsht3nMU9UgFu_3std3sys7process4unix6common5StdioECsjWlmgRw4CHA_18build_script_build, symObjAddr: 0x11A0, symBinAddr: 0x100001CE8, symSize: 0x44 }
  - { offset: 0x3607, size: 0x8, addend: 0x0, symName: __RINvNtCsaNl6UpbT7bw_4core3ptr13drop_in_placeNtNtNtNtNtCsht3nMU9UgFu_3std3sys7process4unix6common7CommandECsjWlmgRw4CHA_18build_script_build, symObjAddr: 0x11E4, symBinAddr: 0x100001D2C, symSize: 0x1DC }
  - { offset: 0x3636, size: 0x8, addend: 0x0, symName: __RINvNtCsaNl6UpbT7bw_4core3ptr13drop_in_placeNtNtNtNtNtNtCsht3nMU9UgFu_3std3sys7process4unix6common13cstring_array12CStringArrayECsjWlmgRw4CHA_18build_script_build, symObjAddr: 0x13C0, symBinAddr: 0x100001F08, symSize: 0x5C }
  - { offset: 0x3665, size: 0x8, addend: 0x0, symName: __RINvNtCsaNl6UpbT7bw_4core3ptr13drop_in_placeNtNvNtNtNtCsiTraAjBDcu4_5alloc11collections5btree3mem7replace10PanicGuardECsjWlmgRw4CHA_18build_script_build, symObjAddr: 0x141C, symBinAddr: 0x100001F64, symSize: 0x24 }
  - { offset: 0x3694, size: 0x8, addend: 0x0, symName: __RINvNtCsaNl6UpbT7bw_4core3ptr13drop_in_placeSINtNtCsiTraAjBDcu4_5alloc5boxed3BoxDINtNtNtB4_3ops8function5FnMutuEp6OutputINtNtB4_6result6ResultuNtNtNtCsht3nMU9UgFu_3std2io5error5ErrorENtNtB4_6marker4SyncNtB2X_4SendEL_EECsjWlmgRw4CHA_18build_script_build, symObjAddr: 0x1440, symBinAddr: 0x100001F88, symSize: 0xB4 }
  - { offset: 0x3D2A, size: 0x8, addend: 0x0, symName: __RNvNvNtCsaNl6UpbT7bw_4core3ptr19copy_nonoverlapping18precondition_checkCsjWlmgRw4CHA_18build_script_build, symObjAddr: 0x42AC, symBinAddr: 0x100004DF0, symSize: 0x36C }
  - { offset: 0x413B, size: 0x8, addend: 0x0, symName: __RNvXs5_NtNtCsaNl6UpbT7bw_4core3num5errorNtB5_15TryFromIntErrorNtNtB9_3fmt5Debug3fmtCsjWlmgRw4CHA_18build_script_build, symObjAddr: 0x4E88, symBinAddr: 0x1000059CC, symSize: 0x54 }
  - { offset: 0x42FA, size: 0x8, addend: 0x0, symName: __RNvNvMs9_NtCsaNl6UpbT7bw_4core3numj13unchecked_add18precondition_checkCsjWlmgRw4CHA_18build_script_build, symObjAddr: 0x4150, symBinAddr: 0x100004C94, symSize: 0xB0 }
  - { offset: 0x438E, size: 0x8, addend: 0x0, symName: __RNvNvMs9_NtCsaNl6UpbT7bw_4core3numj13unchecked_sub18precondition_checkCsjWlmgRw4CHA_18build_script_build, symObjAddr: 0x4200, symBinAddr: 0x100004D44, symSize: 0xAC }
  - { offset: 0x455E, size: 0x8, addend: 0x0, symName: __RNvMsC_NtCsaNl6UpbT7bw_4core3numy16from_ascii_radixCsjWlmgRw4CHA_18build_script_build, symObjAddr: 0x2424, symBinAddr: 0x100002F6C, symSize: 0x574 }
  - { offset: 0x4853, size: 0x8, addend: 0x0, symName: __RNvXsB_NtCsaNl6UpbT7bw_4core3numyNtNtNtB7_3str6traits7FromStr8from_strCsjWlmgRw4CHA_18build_script_build, symObjAddr: 0x4F70, symBinAddr: 0x100005AB4, symSize: 0x30 }
  - { offset: 0x4ABA, size: 0x8, addend: 0x0, symName: __RNvXs_NvNtNtCsaNl6UpbT7bw_4core3fmt5Write9write_fmtQINtNvNtCsht3nMU9UgFu_3std2io17default_write_fmt7AdapterNtNtNtNtBV_3sys5stdio4unix6StderrENtB4_12SpecWriteFmt14spec_write_fmtCsjWlmgRw4CHA_18build_script_build, symObjAddr: 0x50BC, symBinAddr: 0x100005C00, symSize: 0x160 }
  - { offset: 0x4B69, size: 0x8, addend: 0x0, symName: __RNvYINtNvNtCsht3nMU9UgFu_3std2io17default_write_fmt7AdapterNtNtNtNtB9_3sys5stdio4unix6StderrENtNtCsaNl6UpbT7bw_4core3fmt5Write10write_charCsjWlmgRw4CHA_18build_script_build, symObjAddr: 0x5448, symBinAddr: 0x100005F8C, symSize: 0x70 }
  - { offset: 0x4BD1, size: 0x8, addend: 0x0, symName: __RNvYINtNvNtCsht3nMU9UgFu_3std2io17default_write_fmt7AdapterNtNtNtNtB9_3sys5stdio4unix6StderrENtNtCsaNl6UpbT7bw_4core3fmt5Write9write_fmtCsjWlmgRw4CHA_18build_script_build, symObjAddr: 0x54B8, symBinAddr: 0x100005FFC, symSize: 0x24 }
  - { offset: 0x5C0E, size: 0x8, addend: 0x0, symName: __RNvNvNtCsaNl6UpbT7bw_4core4hint16assert_unchecked18precondition_checkCsjWlmgRw4CHA_18build_script_build, symObjAddr: 0x4618, symBinAddr: 0x10000515C, symSize: 0xA4 }
  - { offset: 0x5C6E, size: 0x8, addend: 0x0, symName: __RNvNvNtCsaNl6UpbT7bw_4core4hint21unreachable_unchecked18precondition_checkCsjWlmgRw4CHA_18build_script_build, symObjAddr: 0x46BC, symBinAddr: 0x100005200, symSize: 0x84 }
  - { offset: 0x5F86, size: 0x8, addend: 0x0, symName: __RNvNvXs0_NtNtCsaNl6UpbT7bw_4core5slice5indexjINtB7_10SliceIndexSpE13get_unchecked18precondition_checkCsjWlmgRw4CHA_18build_script_build, symObjAddr: 0x4844, symBinAddr: 0x100005388, symSize: 0xAC }
  - { offset: 0x5FF4, size: 0x8, addend: 0x0, symName: __RNvNvXs0_NtNtCsaNl6UpbT7bw_4core5slice5indexjINtB7_10SliceIndexSpE17get_unchecked_mut18precondition_checkCsjWlmgRw4CHA_18build_script_build, symObjAddr: 0x48F0, symBinAddr: 0x100005434, symSize: 0xAC }
  - { offset: 0x6068, size: 0x8, addend: 0x0, symName: __RNvNvXs2_NtNtCsaNl6UpbT7bw_4core5slice5indexINtNtNtBb_3ops5range5RangejEINtB7_10SliceIndexSpE13get_unchecked18precondition_checkCsjWlmgRw4CHA_18build_script_build, symObjAddr: 0x499C, symBinAddr: 0x1000054E0, symSize: 0xCC }
  - { offset: 0x612A, size: 0x8, addend: 0x0, symName: __RNvXs2V_NtNtCsaNl6UpbT7bw_4core5slice4iterINtB6_4IterhENtNtNtNtBa_4iter6traits8iterator8Iterator4nextCsjWlmgRw4CHA_18build_script_build, symObjAddr: 0x4D2C, symBinAddr: 0x100005870, symSize: 0xB0 }
  - { offset: 0x62B1, size: 0x8, addend: 0x0, symName: __RINvYINtNtNtCsaNl6UpbT7bw_4core3str4iter5SplitcENtNtNtNtBa_4iter6traits8iterator8Iterator8try_foldINtNtNtBa_3num7nonzero7NonZerojENCNvXs_NvBK_10advance_byB3_NtB2b_13SpecAdvanceBy15spec_advance_by0INtNtBa_6option6OptionB1y_EECsjWlmgRw4CHA_18build_script_build, symObjAddr: 0x1BFC, symBinAddr: 0x100002744, symSize: 0x180 }
  - { offset: 0x6374, size: 0x8, addend: 0x0, symName: __RNCNvXs_NvNtNtNtNtCsaNl6UpbT7bw_4core4iter6traits8iterator8Iterator10advance_byINtNtNtBg_3str4iter5SplitcENtB6_13SpecAdvanceBy15spec_advance_by0CsjWlmgRw4CHA_18build_script_build, symObjAddr: 0x1E58, symBinAddr: 0x1000029A0, symSize: 0x24 }
  - { offset: 0x63C9, size: 0x8, addend: 0x0, symName: __RNvXs_NvNtNtNtNtCsaNl6UpbT7bw_4core4iter6traits8iterator8Iterator10advance_byINtNtNtBe_3str4iter5SplitcENtB4_13SpecAdvanceBy15spec_advance_byCsjWlmgRw4CHA_18build_script_build, symObjAddr: 0x521C, symBinAddr: 0x100005D60, symSize: 0x8C }
  - { offset: 0x6479, size: 0x8, addend: 0x0, symName: __RNvYINtNtNtCsaNl6UpbT7bw_4core3str4iter5SplitcENtNtNtNtB9_4iter6traits8iterator8Iterator10advance_byCsjWlmgRw4CHA_18build_script_build, symObjAddr: 0x539C, symBinAddr: 0x100005EE0, symSize: 0x28 }
  - { offset: 0x64BF, size: 0x8, addend: 0x0, symName: __RNvYINtNtNtCsaNl6UpbT7bw_4core3str4iter5SplitcENtNtNtNtB9_4iter6traits8iterator8Iterator3nthCsjWlmgRw4CHA_18build_script_build, symObjAddr: 0x53C4, symBinAddr: 0x100005F08, symSize: 0x84 }
  - { offset: 0x659D, size: 0x8, addend: 0x0, symName: __RNvXs0_NtNtNtCsaNl6UpbT7bw_4core4iter8adapters3mapINtB5_3MapINtNtNtBb_3str4iter14SplitInclusivecENtB11_8LinesMapENtNtNtB9_6traits8iterator8Iterator4nextCsjWlmgRw4CHA_18build_script_build, symObjAddr: 0x4BF0, symBinAddr: 0x100005734, symSize: 0x90 }
  - { offset: 0x667B, size: 0x8, addend: 0x0, symName: __RNSNvYNCINvNtCsht3nMU9UgFu_3std2rt10lang_startuE0INtNtNtCsaNl6UpbT7bw_4core3ops8function6FnOnceuE9call_once6vtableCsjWlmgRw4CHA_18build_script_build, symObjAddr: 0x1E7C, symBinAddr: 0x1000029C4, symSize: 0x28 }
  - { offset: 0x66BF, size: 0x8, addend: 0x0, symName: __RNvYFEuINtNtNtCsaNl6UpbT7bw_4core3ops8function6FnOnceuE9call_onceCsjWlmgRw4CHA_18build_script_build, symObjAddr: 0x537C, symBinAddr: 0x100005EC0, symSize: 0x20 }
  - { offset: 0x66FF, size: 0x8, addend: 0x0, symName: __RNvYNCINvNtCsht3nMU9UgFu_3std2rt10lang_startuE0INtNtNtCsaNl6UpbT7bw_4core3ops8function6FnOnceuE9call_onceCsjWlmgRw4CHA_18build_script_build, symObjAddr: 0x54DC, symBinAddr: 0x100006020, symSize: 0x4C }
  - { offset: 0x6B45, size: 0x8, addend: 0x0, symName: __RNvXsH_NtNtCsaNl6UpbT7bw_4core3str4iterINtB5_14SplitInclusivecENtNtNtNtB9_4iter6traits8iterator8Iterator4nextCsjWlmgRw4CHA_18build_script_build, symObjAddr: 0x4FA0, symBinAddr: 0x100005AE4, symSize: 0x24 }
  - { offset: 0x6B82, size: 0x8, addend: 0x0, symName: __RNvXsX_NtNtCsaNl6UpbT7bw_4core3str4iterINtB5_5SplitcENtNtNtNtB9_4iter6traits8iterator8Iterator4nextCsjWlmgRw4CHA_18build_script_build, symObjAddr: 0x5008, symBinAddr: 0x100005B4C, symSize: 0x24 }
  - { offset: 0x6BBF, size: 0x8, addend: 0x0, symName: __RNvXss_NtNtCsaNl6UpbT7bw_4core3str4iterNtB5_5LinesNtNtNtNtB9_4iter6traits8iterator8Iterator4nextCsjWlmgRw4CHA_18build_script_build, symObjAddr: 0x5358, symBinAddr: 0x100005E9C, symSize: 0x24 }
  - { offset: 0x6CAF, size: 0x8, addend: 0x0, symName: __RNvMNtNtCsaNl6UpbT7bw_4core4char7methodsc8to_digitCsjWlmgRw4CHA_18build_script_build, symObjAddr: 0x2074, symBinAddr: 0x100002BBC, symSize: 0x14C }
  - { offset: 0x6DD9, size: 0x8, addend: 0x0, symName: __RNvNtNtCsaNl6UpbT7bw_4core4char7methods15encode_utf8_rawCsjWlmgRw4CHA_18build_script_build, symObjAddr: 0x36F8, symBinAddr: 0x10000423C, symSize: 0x110 }
  - { offset: 0x6ED9, size: 0x8, addend: 0x0, symName: __RNvNtNtCsaNl6UpbT7bw_4core4char7methods25encode_utf8_raw_uncheckedCsjWlmgRw4CHA_18build_script_build, symObjAddr: 0x3808, symBinAddr: 0x10000434C, symSize: 0x14C }
  - { offset: 0x7062, size: 0x8, addend: 0x0, symName: __RNvNvNtNtCsaNl6UpbT7bw_4core4char7convert18from_u32_unchecked18precondition_checkCsjWlmgRw4CHA_18build_script_build, symObjAddr: 0x4740, symBinAddr: 0x100005284, symSize: 0x104 }
  - { offset: 0x7154, size: 0x8, addend: 0x0, symName: __RNvXNtCsaNl6UpbT7bw_4core7convertReINtB2_5AsRefNtNtNtCsht3nMU9UgFu_3std3ffi6os_str5OsStrE6as_refCsjWlmgRw4CHA_18build_script_build, symObjAddr: 0x4A68, symBinAddr: 0x1000055AC, symSize: 0x30 }
  - { offset: 0x7256, size: 0x8, addend: 0x0, symName: __RNvXs7_NtNtCsaNl6UpbT7bw_4core3cmp5implsReNtB7_9PartialEq2eqCsjWlmgRw4CHA_18build_script_build, symObjAddr: 0x4F2C, symBinAddr: 0x100005A70, symSize: 0x44 }
  - { offset: 0x72DC, size: 0x8, addend: 0x0, symName: __RNvYjNtNtCsaNl6UpbT7bw_4core3cmp3Ord3maxCsjWlmgRw4CHA_18build_script_build, symObjAddr: 0x58EC, symBinAddr: 0x100006430, symSize: 0x80 }
  - { offset: 0x751C, size: 0x8, addend: 0x0, symName: __RINvMs_NtNtCsaNl6UpbT7bw_4core3fmt2rtNtB7_9Arguments9new_constKj1_ECsjWlmgRw4CHA_18build_script_build, symObjAddr: 0x0, symBinAddr: 0x100000BF0, symSize: 0x48 }
  - { offset: 0x76E6, size: 0x8, addend: 0x0, symName: __RNCINvMsm_NtNtNtCsiTraAjBDcu4_5alloc11collections5btree8navigateINtNtBa_4node6HandleINtB13_7NodeRefNtNtB13_6marker5DyingNtNtNtCsht3nMU9UgFu_3std3ffi6os_str8OsStringINtNtCsaNl6UpbT7bw_4core6option6OptionB1U_ENtB1B_4LeafENtB1B_4EdgeE27deallocating_next_uncheckedNtNtBe_5alloc6GlobalE0CsjWlmgRw4CHA_18build_script_build, symObjAddr: 0x1D7C, symBinAddr: 0x1000028C4, symSize: 0x58 }
  - { offset: 0x822F, size: 0x8, addend: 0x0, symName: __RNvXNvMsT_NtNtNtCsiTraAjBDcu4_5alloc11collections5btree4nodeINtB8_6HandleINtB8_7NodeRefNtNtB8_6marker5DyingpppENtB1p_2KVE12drop_key_valINtB2_7DropperINtNtCsaNl6UpbT7bw_4core6option6OptionNtNtNtCsht3nMU9UgFu_3std3ffi6os_str8OsStringEENtNtNtB2s_3ops4drop4Drop4dropCsjWlmgRw4CHA_18build_script_build, symObjAddr: 0x4A98, symBinAddr: 0x1000055DC, symSize: 0x2C }
  - { offset: 0x8385, size: 0x8, addend: 0x0, symName: __RINvNtNtNtCsiTraAjBDcu4_5alloc11collections5btree3mem7replaceINtNtB4_4node6HandleINtB10_7NodeRefNtNtB10_6marker5DyingNtNtNtCsht3nMU9UgFu_3std3ffi6os_str8OsStringINtNtCsaNl6UpbT7bw_4core6option6OptionB1R_ENtB1y_4LeafENtB1y_4EdgeEIBY_IB1i_B1w_B1R_B2z_NtB1y_14LeafOrInternalENtB1y_2KVENCINvMsm_NtB4_8navigateBX_27deallocating_next_uncheckedNtNtB8_5alloc6GlobalE0ECsjWlmgRw4CHA_18build_script_build, symObjAddr: 0x1A50, symBinAddr: 0x100002598, symSize: 0xCC }
  - { offset: 0x8705, size: 0x8, addend: 0x0, symName: __RNvXs6_NtCsiTraAjBDcu4_5alloc3vecINtB5_3VechENtNtNtCsaNl6UpbT7bw_4core3ops5deref5Deref5derefCsjWlmgRw4CHA_18build_script_build, symObjAddr: 0x4F08, symBinAddr: 0x100005A4C, symSize: 0x24 }
  - { offset: 0x874B, size: 0x8, addend: 0x0, symName: __RNvXsn_NtCsiTraAjBDcu4_5alloc3vecINtB5_3VecINtNtB7_5boxed3BoxDINtNtNtCsaNl6UpbT7bw_4core3ops8function5FnMutuEp6OutputINtNtB15_6result6ResultuNtNtNtCsht3nMU9UgFu_3std2io5error5ErrorENtNtB15_6marker4SyncNtB2V_4SendEL_EENtNtB13_4drop4Drop4dropCsjWlmgRw4CHA_18build_script_build, symObjAddr: 0x52D8, symBinAddr: 0x100005E1C, symSize: 0x38 }
  - { offset: 0x87FB, size: 0x8, addend: 0x0, symName: __RNvXsn_NtCsiTraAjBDcu4_5alloc3vecINtB5_3VecPaENtNtNtCsaNl6UpbT7bw_4core3ops4drop4Drop4dropCsjWlmgRw4CHA_18build_script_build, symObjAddr: 0x5310, symBinAddr: 0x100005E54, symSize: 0x24 }
  - { offset: 0x88BF, size: 0x8, addend: 0x0, symName: __RNvXs1_NtCsiTraAjBDcu4_5alloc5allocNtB5_6GlobalNtNtCsaNl6UpbT7bw_4core5clone5Clone5cloneCsjWlmgRw4CHA_18build_script_build, symObjAddr: 0x4C80, symBinAddr: 0x1000057C4, symSize: 0x10 }
  - { offset: 0x8910, size: 0x8, addend: 0x0, symName: __RNvXs_NtCsiTraAjBDcu4_5alloc5allocNtB4_6GlobalNtNtCsaNl6UpbT7bw_4core5alloc9Allocator10deallocateCsjWlmgRw4CHA_18build_script_build, symObjAddr: 0x503C, symBinAddr: 0x100005B80, symSize: 0x80 }
  - { offset: 0x8CCB, size: 0x8, addend: 0x0, symName: __RNvXs1_NtCsiTraAjBDcu4_5alloc7raw_vecINtB5_6RawVecINtNtB7_5boxed3BoxDINtNtNtCsaNl6UpbT7bw_4core3ops8function5FnMutuEp6OutputINtNtB1c_6result6ResultuNtNtNtCsht3nMU9UgFu_3std2io5error5ErrorENtNtB1c_6marker4SyncNtB32_4SendEL_EENtNtB1a_4drop4Drop4dropCsjWlmgRw4CHA_18build_script_build, symObjAddr: 0x4C90, symBinAddr: 0x1000057D4, symSize: 0x34 }
  - { offset: 0x8D07, size: 0x8, addend: 0x0, symName: __RNvXs1_NtCsiTraAjBDcu4_5alloc7raw_vecINtB5_6RawVecPaENtNtNtCsaNl6UpbT7bw_4core3ops4drop4Drop4dropCsjWlmgRw4CHA_18build_script_build, symObjAddr: 0x4CC4, symBinAddr: 0x100005808, symSize: 0x30 }
  - { offset: 0x8D7A, size: 0x8, addend: 0x0, symName: __RINvXs_NvMNtCsiTraAjBDcu4_5alloc5sliceSp9to_vec_inhNtB5_10ConvertVec6to_vecNtNtBa_5alloc6GlobalECsjWlmgRw4CHA_18build_script_build, symObjAddr: 0x1B1C, symBinAddr: 0x100002664, symSize: 0xE0 }
  - { offset: 0x90A3, size: 0x8, addend: 0x0, symName: __RNvXsk_NtCsiTraAjBDcu4_5alloc6stringNtB5_6StringNtNtCsaNl6UpbT7bw_4core7default7Default7defaultCsjWlmgRw4CHA_18build_script_build, symObjAddr: 0x52A8, symBinAddr: 0x100005DEC, symSize: 0x30 }
  - { offset: 0x90F3, size: 0x8, addend: 0x0, symName: __RNvXss_NtCsiTraAjBDcu4_5alloc6stringNtB5_6StringNtNtNtCsaNl6UpbT7bw_4core3ops5deref5Deref5derefCsjWlmgRw4CHA_18build_script_build, symObjAddr: 0x5334, symBinAddr: 0x100005E78, symSize: 0x24 }
  - { offset: 0x91BB, size: 0x8, addend: 0x0, symName: __RINvMsb_NtNtNtCsiTraAjBDcu4_5alloc11collections5btree8navigateINtB6_13LazyLeafRangeNtNtNtB8_4node6marker5DyingNtNtNtCsht3nMU9UgFu_3std3ffi6os_str8OsStringINtNtCsaNl6UpbT7bw_4core6option6OptionB1K_EE16deallocating_endNtNtBc_5alloc6GlobalECsjWlmgRw4CHA_18build_script_build, symObjAddr: 0x48, symBinAddr: 0x100000C38, symSize: 0x98 }
  - { offset: 0x92B8, size: 0x8, addend: 0x0, symName: __RINvMsb_NtNtNtCsiTraAjBDcu4_5alloc11collections5btree8navigateINtB6_13LazyLeafRangeNtNtNtB8_4node6marker5DyingNtNtNtCsht3nMU9UgFu_3std3ffi6os_str8OsStringINtNtCsaNl6UpbT7bw_4core6option6OptionB1K_EE27deallocating_next_uncheckedNtNtBc_5alloc6GlobalECsjWlmgRw4CHA_18build_script_build, symObjAddr: 0xE0, symBinAddr: 0x100000CD0, symSize: 0xA8 }
  - { offset: 0x943B, size: 0x8, addend: 0x0, symName: __RINvMsh_NtNtNtCsiTraAjBDcu4_5alloc11collections5btree4nodeINtB6_7NodeRefNtNtB6_6marker5DyingNtNtNtCsht3nMU9UgFu_3std3ffi6os_str8OsStringINtNtCsaNl6UpbT7bw_4core6option6OptionB1s_ENtB1a_14LeafOrInternalE21deallocate_and_ascendNtNtBc_5alloc6GlobalECsjWlmgRw4CHA_18build_script_build, symObjAddr: 0x188, symBinAddr: 0x100000D78, symSize: 0x188 }
  - { offset: 0x9663, size: 0x8, addend: 0x0, symName: __RINvMsj_NtNtNtCsiTraAjBDcu4_5alloc11collections5btree8navigateINtNtB8_4node6HandleINtB11_7NodeRefNtNtB11_6marker5DyingNtNtNtCsht3nMU9UgFu_3std3ffi6os_str8OsStringINtNtCsaNl6UpbT7bw_4core6option6OptionB1S_ENtB1z_4LeafENtB1z_4EdgeE16deallocating_endNtNtBc_5alloc6GlobalECsjWlmgRw4CHA_18build_script_build, symObjAddr: 0x310, symBinAddr: 0x100000F00, symSize: 0xD4 }
  - { offset: 0x98E4, size: 0x8, addend: 0x0, symName: __RINvMsj_NtNtNtCsiTraAjBDcu4_5alloc11collections5btree8navigateINtNtB8_4node6HandleINtB11_7NodeRefNtNtB11_6marker5DyingNtNtNtCsht3nMU9UgFu_3std3ffi6os_str8OsStringINtNtCsaNl6UpbT7bw_4core6option6OptionB1S_ENtB1z_4LeafENtB1z_4EdgeE17deallocating_nextNtNtBc_5alloc6GlobalECsjWlmgRw4CHA_18build_script_build, symObjAddr: 0x3E4, symBinAddr: 0x100000FD4, symSize: 0x254 }
  - { offset: 0x9BC9, size: 0x8, addend: 0x0, symName: __RINvMsk_NtCsht3nMU9UgFu_3std7processNtB6_7Command3argNtNtNtB8_3ffi6os_str8OsStringECsjWlmgRw4CHA_18build_script_build, symObjAddr: 0x638, symBinAddr: 0x100001228, symSize: 0x84 }
  - { offset: 0x9C05, size: 0x8, addend: 0x0, symName: __RINvMsk_NtCsht3nMU9UgFu_3std7processNtB6_7Command3argReECsjWlmgRw4CHA_18build_script_build, symObjAddr: 0x6BC, symBinAddr: 0x1000012AC, symSize: 0x70 }
  - { offset: 0x9C40, size: 0x8, addend: 0x0, symName: __RINvMsk_NtCsht3nMU9UgFu_3std7processNtB6_7Command3newNtNtNtB8_3ffi6os_str8OsStringECsjWlmgRw4CHA_18build_script_build, symObjAddr: 0x72C, symBinAddr: 0x10000131C, symSize: 0x90 }
  - { offset: 0xA0D6, size: 0x8, addend: 0x0, symName: __RNvMNtCsiTraAjBDcu4_5alloc6stringNtB2_6String6as_strCsjWlmgRw4CHA_18build_script_build, symObjAddr: 0x1EA4, symBinAddr: 0x1000029EC, symSize: 0x78 }
  - { offset: 0xA274, size: 0x8, addend: 0x0, symName: __RNvMNtCsiTraAjBDcu4_5alloc6stringNtB2_6String9from_utf8CsjWlmgRw4CHA_18build_script_build, symObjAddr: 0x1F1C, symBinAddr: 0x100002A64, symSize: 0x158 }
  - { offset: 0xA461, size: 0x8, addend: 0x0, symName: __RNvMs0_NtNtCsht3nMU9UgFu_3std3ffi6os_strNtB5_8OsString11into_stringCsjWlmgRw4CHA_18build_script_build, symObjAddr: 0x21C0, symBinAddr: 0x100002D08, symSize: 0x154 }
  - { offset: 0xA61D, size: 0x8, addend: 0x0, symName: __RNvMs2_NtCsiTraAjBDcu4_5alloc7raw_vecNtB5_11RawVecInner16with_capacity_inCsjWlmgRw4CHA_18build_script_build, symObjAddr: 0x2314, symBinAddr: 0x100002E5C, symSize: 0x110 }
  - { offset: 0xA858, size: 0x8, addend: 0x0, symName: __RNvMsI_NtCsht3nMU9UgFu_3std7processNtB5_10ExitStatus7successCsjWlmgRw4CHA_18build_script_build, symObjAddr: 0x2998, symBinAddr: 0x1000034E0, symSize: 0x70 }
  - { offset: 0xA9FD, size: 0x8, addend: 0x0, symName: __RNvMsO_NtNtNtCsiTraAjBDcu4_5alloc11collections5btree4nodeINtB5_6HandleINtB5_7NodeRefNtNtB5_6marker5DyingNtNtNtCsht3nMU9UgFu_3std3ffi6os_str8OsStringINtNtCsaNl6UpbT7bw_4core6option6OptionB1E_ENtB1m_8InternalENtB1m_4EdgeE7descendCsjWlmgRw4CHA_18build_script_build, symObjAddr: 0x2A08, symBinAddr: 0x100003550, symSize: 0x9C }
  - { offset: 0xACDC, size: 0x8, addend: 0x0, symName: __RNvMsT_NtNtNtCsiTraAjBDcu4_5alloc11collections5btree4nodeINtB5_6HandleINtB5_7NodeRefNtNtB5_6marker5DyingNtNtNtCsht3nMU9UgFu_3std3ffi6os_str8OsStringINtNtCsaNl6UpbT7bw_4core6option6OptionB1E_ENtB1m_14LeafOrInternalENtB1m_2KVE12drop_key_valCsjWlmgRw4CHA_18build_script_build, symObjAddr: 0x2AA4, symBinAddr: 0x1000035EC, symSize: 0x138 }
  - { offset: 0xAF1F, size: 0x8, addend: 0x0, symName: __RNvMs_NtCsiTraAjBDcu4_5alloc3vecINtB4_3VechE8as_sliceCsjWlmgRw4CHA_18build_script_build, symObjAddr: 0x2BDC, symBinAddr: 0x100003724, symSize: 0x68 }
  - { offset: 0xB151, size: 0x8, addend: 0x0, symName: __RNvMsb_NtNtNtCsiTraAjBDcu4_5alloc11collections5btree8navigateINtB5_13LazyLeafRangeNtNtNtB7_4node6marker5DyingNtNtNtCsht3nMU9UgFu_3std3ffi6os_str8OsStringINtNtCsaNl6UpbT7bw_4core6option6OptionB1J_EE10take_frontCsjWlmgRw4CHA_18build_script_build, symObjAddr: 0x2C44, symBinAddr: 0x10000378C, symSize: 0x1C4 }
  - { offset: 0xB4A4, size: 0x8, addend: 0x0, symName: __RNvMsc_NtNtNtCsiTraAjBDcu4_5alloc11collections5btree8navigateINtB5_13LazyLeafRangeNtNtNtB7_4node6marker5DyingNtNtNtCsht3nMU9UgFu_3std3ffi6os_str8OsStringINtNtCsaNl6UpbT7bw_4core6option6OptionB1J_EE10init_frontCsjWlmgRw4CHA_18build_script_build, symObjAddr: 0x2E08, symBinAddr: 0x100003950, symSize: 0x1C8 }
  - { offset: 0xB73D, size: 0x8, addend: 0x0, symName: __RNvMse_NtNtNtCsiTraAjBDcu4_5alloc11collections5btree4nodeINtB5_7NodeRefNtNtB5_6marker5DyingNtNtNtCsht3nMU9UgFu_3std3ffi6os_str8OsStringINtNtCsaNl6UpbT7bw_4core6option6OptionB1r_ENtB19_14LeafOrInternalE6ascendCsjWlmgRw4CHA_18build_script_build, symObjAddr: 0x2FD0, symBinAddr: 0x100003B18, symSize: 0x160 }
  - { offset: 0xB8D4, size: 0x8, addend: 0x0, symName: __RNvMsf_NtNtCsaNl6UpbT7bw_4core3str4iterINtB5_13SplitInternalcE14next_inclusiveCsjWlmgRw4CHA_18build_script_build, symObjAddr: 0x3130, symBinAddr: 0x100003C78, symSize: 0x130 }
  - { offset: 0xB9FF, size: 0x8, addend: 0x0, symName: __RNvMsf_NtNtCsaNl6UpbT7bw_4core3str4iterINtB5_13SplitInternalcE4nextCsjWlmgRw4CHA_18build_script_build, symObjAddr: 0x3260, symBinAddr: 0x100003DA8, symSize: 0x140 }
  - { offset: 0xBB3B, size: 0x8, addend: 0x0, symName: __RNvMsf_NtNtCsaNl6UpbT7bw_4core3str4iterINtB5_13SplitInternalcE7get_endCsjWlmgRw4CHA_18build_script_build, symObjAddr: 0x33A0, symBinAddr: 0x100003EE8, symSize: 0x128 }
  - { offset: 0xBC60, size: 0x8, addend: 0x0, symName: __RNvMsl_NtNtCsht3nMU9UgFu_3std3ffi6os_strNtB5_5OsStr8is_emptyCsjWlmgRw4CHA_18build_script_build, symObjAddr: 0x34C8, symBinAddr: 0x100004010, symSize: 0x1C }
  - { offset: 0xBEAC, size: 0x8, addend: 0x0, symName: __RNvMsp_NtNtNtCsiTraAjBDcu4_5alloc11collections5btree8navigateINtNtB7_4node6HandleINtB10_7NodeRefNtNtB10_6marker5DyingNtNtNtCsht3nMU9UgFu_3std3ffi6os_str8OsStringINtNtCsaNl6UpbT7bw_4core6option6OptionB1R_ENtB1y_14LeafOrInternalENtB1y_2KVE14next_leaf_edgeCsjWlmgRw4CHA_18build_script_build, symObjAddr: 0x34E4, symBinAddr: 0x10000402C, symSize: 0x210 }
  - { offset: 0xC793, size: 0x8, addend: 0x0, symName: __RNvCsjWlmgRw4CHA_18build_script_build19rustc_minor_version, symObjAddr: 0x596C, symBinAddr: 0x1000064B0, symSize: 0x628 }
  - { offset: 0xC8F7, size: 0x8, addend: 0x0, symName: __RNCNvCsjWlmgRw4CHA_18build_script_build19rustc_minor_version0B3_, symObjAddr: 0x5F94, symBinAddr: 0x100006AD8, symSize: 0x3C }
  - { offset: 0xC91F, size: 0x8, addend: 0x0, symName: __RNCNvCsjWlmgRw4CHA_18build_script_build19rustc_minor_versions_0B3_, symObjAddr: 0x5FD0, symBinAddr: 0x100006B14, symSize: 0x3C }
  - { offset: 0xC964, size: 0x8, addend: 0x0, symName: __RNvCsjWlmgRw4CHA_18build_script_build4main, symObjAddr: 0x600C, symBinAddr: 0x100006B50, symSize: 0x2B8 }
  - { offset: 0xC9D3, size: 0x8, addend: 0x0, symName: __RNCNvCsjWlmgRw4CHA_18build_script_build4main0B3_, symObjAddr: 0x62C4, symBinAddr: 0x100006E08, symSize: 0x44 }
  - { offset: 0xCD4A, size: 0x8, addend: 0x0, symName: __RINvMNtCsaNl6UpbT7bw_4core3stre5parseyECsjWlmgRw4CHA_18build_script_build, symObjAddr: 0x0, symBinAddr: 0x100006E78, symSize: 0x28 }
  - { offset: 0xDB28, size: 0x8, addend: 0x0, symName: __RINvMNtCsaNl6UpbT7bw_4core3stre5parseyECsjWlmgRw4CHA_18build_script_build, symObjAddr: 0x0, symBinAddr: 0x100006E78, symSize: 0x28 }
  - { offset: 0xDB5F, size: 0x8, addend: 0x0, symName: __RINvMNtCsaNl6UpbT7bw_4core3stre5splitcECsjWlmgRw4CHA_18build_script_build, symObjAddr: 0x28, symBinAddr: 0x100006EA0, symSize: 0x98 }
  - { offset: 0xDBA5, size: 0x8, addend: 0x0, symName: __RINvMNtCsaNl6UpbT7bw_4core3stre8containsReECsjWlmgRw4CHA_18build_script_build, symObjAddr: 0xC0, symBinAddr: 0x100006F38, symSize: 0x4C }
  - { offset: 0xDC1F, size: 0x8, addend: 0x0, symName: __RNvMNtCsaNl6UpbT7bw_4core3stre5linesCsjWlmgRw4CHA_18build_script_build, symObjAddr: 0x10DC, symBinAddr: 0x100007F54, symSize: 0xC4 }
  - { offset: 0xE027, size: 0x8, addend: 0x0, symName: __RNvXs2_NtNtCsaNl6UpbT7bw_4core3str7patterncNtB5_7Pattern13into_searcherCsjWlmgRw4CHA_18build_script_build, symObjAddr: 0x1EE8, symBinAddr: 0x100008D60, symSize: 0x114 }
  - { offset: 0xE170, size: 0x8, addend: 0x0, symName: __RNvXs_NtNtCsaNl6UpbT7bw_4core3str7patternNtB4_12CharSearcherNtB4_8Searcher10next_matchCsjWlmgRw4CHA_18build_script_build, symObjAddr: 0x2958, symBinAddr: 0x1000097D0, symSize: 0x380 }
  - { offset: 0xE5D4, size: 0x8, addend: 0x0, symName: __RNvXs_NtNtCsaNl6UpbT7bw_4core3str7patternNtB4_12CharSearcherNtB4_8Searcher8haystackCsjWlmgRw4CHA_18build_script_build, symObjAddr: 0x2CD8, symBinAddr: 0x100009B50, symSize: 0x20 }
  - { offset: 0xE632, size: 0x8, addend: 0x0, symName: __RNvXst_NtNtCsaNl6UpbT7bw_4core3str7patternReNtB5_7Pattern15is_contained_inCsjWlmgRw4CHA_18build_script_build, symObjAddr: 0x2DA4, symBinAddr: 0x100009C1C, symSize: 0x1CC }
  - { offset: 0xE8E2, size: 0x8, addend: 0x0, symName: __RNvXst_NtNtCsaNl6UpbT7bw_4core3str7patternReNtB5_7Pattern15strip_suffix_ofCsjWlmgRw4CHA_18build_script_build, symObjAddr: 0x2F70, symBinAddr: 0x100009DE8, symSize: 0xE8 }
  - { offset: 0xEAEF, size: 0x8, addend: 0x0, symName: __RNvXsv_NtNtCsaNl6UpbT7bw_4core3str7patternNtB5_11StrSearcherNtB5_8Searcher10next_matchCsjWlmgRw4CHA_18build_script_build, symObjAddr: 0x3058, symBinAddr: 0x100009ED0, symSize: 0x148 }
  - { offset: 0xEB7B, size: 0x8, addend: 0x0, symName: __RNvXsv_NtNtCsaNl6UpbT7bw_4core3str7patternNtB5_11StrSearcherNtB5_8Searcher4nextCsjWlmgRw4CHA_18build_script_build, symObjAddr: 0x31A0, symBinAddr: 0x10000A018, symSize: 0x454 }
  - { offset: 0xEE86, size: 0x8, addend: 0x0, symName: __RNvXsy_NtNtCsaNl6UpbT7bw_4core3str7patternNtB5_9MatchOnlyNtB5_14TwoWayStrategy16use_early_rejectCsjWlmgRw4CHA_18build_script_build, symObjAddr: 0x3820, symBinAddr: 0x10000A698, symSize: 0xC }
  - { offset: 0xEEA4, size: 0x8, addend: 0x0, symName: __RNvXsy_NtNtCsaNl6UpbT7bw_4core3str7patternNtB5_9MatchOnlyNtB5_14TwoWayStrategy8matchingCsjWlmgRw4CHA_18build_script_build, symObjAddr: 0x382C, symBinAddr: 0x10000A6A4, symSize: 0x28 }
  - { offset: 0xEEE1, size: 0x8, addend: 0x0, symName: __RNvXsy_NtNtCsaNl6UpbT7bw_4core3str7patternNtB5_9MatchOnlyNtB5_14TwoWayStrategy9rejectingCsjWlmgRw4CHA_18build_script_build, symObjAddr: 0x3854, symBinAddr: 0x10000A6CC, symSize: 0x18 }
  - { offset: 0xEF24, size: 0x8, addend: 0x0, symName: __RNvXsz_NtNtCsaNl6UpbT7bw_4core3str7patternNtB5_14RejectAndMatchNtB5_14TwoWayStrategy16use_early_rejectCsjWlmgRw4CHA_18build_script_build, symObjAddr: 0x386C, symBinAddr: 0x10000A6E4, symSize: 0xC }
  - { offset: 0xEF42, size: 0x8, addend: 0x0, symName: __RNvXsz_NtNtCsaNl6UpbT7bw_4core3str7patternNtB5_14RejectAndMatchNtB5_14TwoWayStrategy8matchingCsjWlmgRw4CHA_18build_script_build, symObjAddr: 0x3878, symBinAddr: 0x10000A6F0, symSize: 0x20 }
  - { offset: 0xEF7F, size: 0x8, addend: 0x0, symName: __RNvXsz_NtNtCsaNl6UpbT7bw_4core3str7patternNtB5_14RejectAndMatchNtB5_14TwoWayStrategy9rejectingCsjWlmgRw4CHA_18build_script_build, symObjAddr: 0x3898, symBinAddr: 0x10000A710, symSize: 0x28 }
  - { offset: 0xF012, size: 0x8, addend: 0x0, symName: __RINvNtNtCsaNl6UpbT7bw_4core3str11validations15next_code_pointINtNtNtB6_5slice4iter4IterhEECsjWlmgRw4CHA_18build_script_build, symObjAddr: 0xEB8, symBinAddr: 0x100007D30, symSize: 0x224 }
  - { offset: 0xF39D, size: 0x8, addend: 0x0, symName: __RNvNvXs5_NtNtCsaNl6UpbT7bw_4core3str6traitsINtNtNtBb_3ops5range5RangejEINtNtNtBb_5slice5index10SliceIndexeE13get_unchecked18precondition_checkCsjWlmgRw4CHA_18build_script_build, symObjAddr: 0x1CFC, symBinAddr: 0x100008B74, symSize: 0xCC }
  - { offset: 0xF4DC, size: 0x8, addend: 0x0, symName: __RNvXs9_NtNtCsaNl6UpbT7bw_4core3str6traitsINtNtNtB9_3ops5range9RangeFromjEINtNtNtB9_5slice5index10SliceIndexeE3getCsjWlmgRw4CHA_18build_script_build, symObjAddr: 0x2654, symBinAddr: 0x1000094CC, symSize: 0x150 }
  - { offset: 0xF6A6, size: 0x8, addend: 0x0, symName: __RNvXs_NtNtCsaNl6UpbT7bw_4core3str6traitseNtNtB8_3cmp9PartialEq2eqCsjWlmgRw4CHA_18build_script_build, symObjAddr: 0x28F4, symBinAddr: 0x10000976C, symSize: 0x64 }
  - { offset: 0xF81C, size: 0x8, addend: 0x0, symName: __RNvXs3_NtCsaNl6UpbT7bw_4core3strNtB5_8LinesMapINtNtNtB7_3ops8function2FnTReEE4callCsjWlmgRw4CHA_18build_script_build, symObjAddr: 0x1FFC, symBinAddr: 0x100008E74, symSize: 0x174 }
  - { offset: 0xF947, size: 0x8, addend: 0x0, symName: __RNvXs4_NtCsaNl6UpbT7bw_4core3strNtB5_8LinesMapINtNtNtB7_3ops8function5FnMutTReEE8call_mutCsjWlmgRw4CHA_18build_script_build, symObjAddr: 0x2170, symBinAddr: 0x100008FE8, symSize: 0x3C }
  - { offset: 0xFD06, size: 0x8, addend: 0x0, symName: __RNvXsC_NtCsaNl6UpbT7bw_4core6optionINtB5_6OptionINtNtNtB7_3num7nonzero7NonZerojEENtNtNtB7_3ops9try_trait3Try11from_outputCsjWlmgRw4CHA_18build_script_build, symObjAddr: 0x27A4, symBinAddr: 0x10000961C, symSize: 0x18 }
  - { offset: 0xFD3D, size: 0x8, addend: 0x0, symName: __RNvXsC_NtCsaNl6UpbT7bw_4core6optionINtB5_6OptionINtNtNtB7_3num7nonzero7NonZerojEENtNtNtB7_3ops9try_trait3Try6branchCsjWlmgRw4CHA_18build_script_build, symObjAddr: 0x27BC, symBinAddr: 0x100009634, symSize: 0x40 }
  - { offset: 0xFD92, size: 0x8, addend: 0x0, symName: __RNvXsC_NtCsaNl6UpbT7bw_4core6optionINtB5_6OptionNtNtCsht3nMU9UgFu_3std7process6OutputENtNtNtB7_3ops9try_trait3Try6branchCsjWlmgRw4CHA_18build_script_build, symObjAddr: 0x27FC, symBinAddr: 0x100009674, symSize: 0x78 }
  - { offset: 0xFDE8, size: 0x8, addend: 0x0, symName: __RNvXsC_NtCsaNl6UpbT7bw_4core6optionINtB5_6OptionReENtNtNtB7_3ops9try_trait3Try6branchCsjWlmgRw4CHA_18build_script_build, symObjAddr: 0x2874, symBinAddr: 0x1000096EC, symSize: 0x54 }
  - { offset: 0xFEE9, size: 0x8, addend: 0x0, symName: __RNvXsD_NtCsaNl6UpbT7bw_4core6optionINtB5_6OptionINtNtNtB7_3num7nonzero7NonZerojEEINtNtNtB7_3ops9try_trait12FromResidualIBy_NtNtB7_7convert10InfallibleEE13from_residualCsjWlmgRw4CHA_18build_script_build, symObjAddr: 0x28C8, symBinAddr: 0x100009740, symSize: 0x14 }
  - { offset: 0xFF1C, size: 0x8, addend: 0x0, symName: __RNvXsD_NtCsaNl6UpbT7bw_4core6optionINtB5_6OptionyEINtNtNtB7_3ops9try_trait12FromResidualIBy_NtNtB7_7convert10InfallibleEE13from_residualCsjWlmgRw4CHA_18build_script_build, symObjAddr: 0x28DC, symBinAddr: 0x100009754, symSize: 0x18 }
  - { offset: 0x104CC, size: 0x8, addend: 0x0, symName: __RNvXsd_NtCsaNl6UpbT7bw_4core6optionINtB5_6OptionReENtNtB7_3cmp9PartialEq2eqCsjWlmgRw4CHA_18build_script_build, symObjAddr: 0x2CF8, symBinAddr: 0x100009B70, symSize: 0xAC }
  - { offset: 0x10FE4, size: 0x8, addend: 0x0, symName: __RNvXs5_NtNtCsaNl6UpbT7bw_4core5slice5indexINtNtNtB9_3ops5range9RangeFromjEINtB5_10SliceIndexShE5indexCsjWlmgRw4CHA_18build_script_build, symObjAddr: 0x21AC, symBinAddr: 0x100009024, symSize: 0x90 }
  - { offset: 0x11323, size: 0x8, addend: 0x0, symName: __RNvNtNtCsaNl6UpbT7bw_4core5slice6memchr6memchrCsjWlmgRw4CHA_18build_script_build, symObjAddr: 0x15D0, symBinAddr: 0x100008448, symSize: 0x114 }
  - { offset: 0x11393, size: 0x8, addend: 0x0, symName: __RNvNvNtNtCsaNl6UpbT7bw_4core5slice3raw14from_raw_parts18precondition_checkCsjWlmgRw4CHA_18build_script_build, symObjAddr: 0x1944, symBinAddr: 0x1000087BC, symSize: 0x1DC }
  - { offset: 0x11517, size: 0x8, addend: 0x0, symName: __RNvNvNtNtCsaNl6UpbT7bw_4core5slice3raw18from_raw_parts_mut18precondition_checkCsjWlmgRw4CHA_18build_script_build, symObjAddr: 0x1B20, symBinAddr: 0x100008998, symSize: 0x1DC }
  - { offset: 0x1223C, size: 0x8, addend: 0x0, symName: __RNvNvMNtNtCsaNl6UpbT7bw_4core5alloc6layoutNtB4_6Layout25from_size_align_unchecked18precondition_checkCsjWlmgRw4CHA_18build_script_build, symObjAddr: 0x17B0, symBinAddr: 0x100008628, symSize: 0xBC }
  - { offset: 0x123AC, size: 0x8, addend: 0x0, symName: __RNvNvNtCsaNl6UpbT7bw_4core9ub_checks23maybe_is_nonoverlapping7runtimeCsjWlmgRw4CHA_18build_script_build, symObjAddr: 0x186C, symBinAddr: 0x1000086E4, symSize: 0xD8 }
  - { offset: 0x12AC1, size: 0x8, addend: 0x0, symName: __RNvNtNtNtCsht3nMU9UgFu_3std3sys2fs4unix23debug_assert_fd_is_openCsjWlmgRw4CHA_18build_script_build, symObjAddr: 0x16E4, symBinAddr: 0x10000855C, symSize: 0xCC }
  - { offset: 0x12B4E, size: 0x8, addend: 0x0, symName: __RINvNtCsht3nMU9UgFu_3std3env3varReECsjWlmgRw4CHA_18build_script_build, symObjAddr: 0xDE8, symBinAddr: 0x100007C60, symSize: 0x68 }
  - { offset: 0x12B83, size: 0x8, addend: 0x0, symName: __RINvNtCsht3nMU9UgFu_3std3env6var_osReECsjWlmgRw4CHA_18build_script_build, symObjAddr: 0xE50, symBinAddr: 0x100007CC8, symSize: 0x68 }
  - { offset: 0x12C6C, size: 0x8, addend: 0x0, symName: __RNvXs5_NtNtNtCsht3nMU9UgFu_3std2os2fd5ownedNtB5_7OwnedFdNtNtNtCsaNl6UpbT7bw_4core3ops4drop4Drop4dropCsjWlmgRw4CHA_18build_script_build, symObjAddr: 0x223C, symBinAddr: 0x1000090B4, symSize: 0x40 }
  - { offset: 0x12E73, size: 0x8, addend: 0x0, symName: __RNvXNtNtNtCsiTraAjBDcu4_5alloc11collections5btree3mapINtB2_8BTreeMapNtNtNtCsht3nMU9UgFu_3std3ffi6os_str8OsStringINtNtCsaNl6UpbT7bw_4core6option6OptionB14_EENtNtNtB1R_3ops4drop4Drop4dropCsjWlmgRw4CHA_18build_script_build, symObjAddr: 0x1DC8, symBinAddr: 0x100008C40, symSize: 0x4C }
  - { offset: 0x12F00, size: 0x8, addend: 0x0, symName: __RNvXNvXsw_NtNtNtCsiTraAjBDcu4_5alloc11collections5btree3mapINtB8_8IntoIterpppENtNtNtCsaNl6UpbT7bw_4core3ops4drop4Drop4dropINtB2_9DropGuardNtNtNtCsht3nMU9UgFu_3std3ffi6os_str8OsStringINtNtB1k_6option6OptionB2c_ENtNtBe_5alloc6GlobalEB1e_4dropCsjWlmgRw4CHA_18build_script_build, symObjAddr: 0x1E14, symBinAddr: 0x100008C8C, symSize: 0x64 }
  - { offset: 0x12F95, size: 0x8, addend: 0x0, symName: __RNvXsw_NtNtNtCsiTraAjBDcu4_5alloc11collections5btree3mapINtB5_8IntoIterNtNtNtCsht3nMU9UgFu_3std3ffi6os_str8OsStringINtNtCsaNl6UpbT7bw_4core6option6OptionB17_EENtNtNtB1U_3ops4drop4Drop4dropCsjWlmgRw4CHA_18build_script_build, symObjAddr: 0x3784, symBinAddr: 0x10000A5FC, symSize: 0x9C }
  - { offset: 0x1300C, size: 0x8, addend: 0x0, symName: __RNvXsv_NtNtNtCsiTraAjBDcu4_5alloc11collections5btree3mapINtB5_8BTreeMapNtNtNtCsht3nMU9UgFu_3std3ffi6os_str8OsStringINtNtCsaNl6UpbT7bw_4core6option6OptionB17_EENtNtNtNtB1U_4iter6traits7collect12IntoIterator9into_iterCsjWlmgRw4CHA_18build_script_build, symObjAddr: 0x35F4, symBinAddr: 0x10000A46C, symSize: 0x190 }
  - { offset: 0x13564, size: 0x8, addend: 0x0, symName: __RNvXs0_NtNtCsiTraAjBDcu4_5alloc3ffi5c_strNtB5_7CStringNtNtNtCsaNl6UpbT7bw_4core3ops4drop4Drop4dropCsjWlmgRw4CHA_18build_script_build, symObjAddr: 0x1E78, symBinAddr: 0x100008CF0, symSize: 0x70 }
  - { offset: 0x135EC, size: 0x8, addend: 0x0, symName: __RNvXs6_NtCsiTraAjBDcu4_5alloc5boxedINtB5_3BoxDINtNtNtCsaNl6UpbT7bw_4core3ops8function5FnMutuEp6OutputINtNtBP_6result6ResultuNtNtNtCsht3nMU9UgFu_3std2io5error5ErrorENtNtBP_6marker4SyncNtB2E_4SendEL_ENtNtBN_4drop4Drop4dropCsjWlmgRw4CHA_18build_script_build, symObjAddr: 0x227C, symBinAddr: 0x1000090F4, symSize: 0xCC }
  - { offset: 0x13723, size: 0x8, addend: 0x0, symName: __RNvXs6_NtCsiTraAjBDcu4_5alloc5boxedINtB5_3BoxDNtNtCsaNl6UpbT7bw_4core5error5ErrorNtNtBM_6marker4SyncNtB1j_4SendEL_ENtNtNtBM_3ops4drop4Drop4dropCsjWlmgRw4CHA_18build_script_build, symObjAddr: 0x2348, symBinAddr: 0x1000091C0, symSize: 0xCC }
  - { offset: 0x1385A, size: 0x8, addend: 0x0, symName: __RNvXs6_NtCsiTraAjBDcu4_5alloc5boxedINtB5_3BoxNtNtNtCsht3nMU9UgFu_3std2io5error6CustomENtNtNtCsaNl6UpbT7bw_4core3ops4drop4Drop4dropCsjWlmgRw4CHA_18build_script_build, symObjAddr: 0x2414, symBinAddr: 0x10000928C, symSize: 0xB8 }
  - { offset: 0x13991, size: 0x8, addend: 0x0, symName: __RNvXs6_NtCsiTraAjBDcu4_5alloc5boxedINtB5_3BoxShENtNtNtCsaNl6UpbT7bw_4core3ops4drop4Drop4dropCsjWlmgRw4CHA_18build_script_build, symObjAddr: 0x24CC, symBinAddr: 0x100009344, symSize: 0xC4 }
  - { offset: 0x13AC8, size: 0x8, addend: 0x0, symName: __RNvXs6_NtCsiTraAjBDcu4_5alloc5boxedINtB5_3BoxSmENtNtNtCsaNl6UpbT7bw_4core3ops4drop4Drop4dropCsjWlmgRw4CHA_18build_script_build, symObjAddr: 0x2590, symBinAddr: 0x100009408, symSize: 0xC4 }
  - { offset: 0x13C71, size: 0x8, addend: 0x0, symName: __RINvMNtCsaNl6UpbT7bw_4core6optionINtB3_6OptionNtNtNtCsht3nMU9UgFu_3std3ffi6os_str8OsStringE14unwrap_or_elseNCNvCsjWlmgRw4CHA_18build_script_build19rustc_minor_version0EB1L_, symObjAddr: 0x10C, symBinAddr: 0x100006F84, symSize: 0x70 }
  - { offset: 0x13CD4, size: 0x8, addend: 0x0, symName: __RINvMNtCsaNl6UpbT7bw_4core6optionINtB3_6OptionNtNtNtCsht3nMU9UgFu_3std3ffi6os_str8OsStringE6filterNCNvCsjWlmgRw4CHA_18build_script_build19rustc_minor_versions_0EB1C_, symObjAddr: 0x17C, symBinAddr: 0x100006FF4, symSize: 0x170 }
  - { offset: 0x13D2F, size: 0x8, addend: 0x0, symName: __RINvMNtCsaNl6UpbT7bw_4core6optionINtB3_6OptionNtNtNtCsht3nMU9UgFu_3std3ffi6os_str8OsStringE8and_thenNtNtCsiTraAjBDcu4_5alloc6string6StringNCNvCsjWlmgRw4CHA_18build_script_build4main0EB2g_, symObjAddr: 0x2EC, symBinAddr: 0x100007164, symSize: 0x7C }
  - { offset: 0x13E1F, size: 0x8, addend: 0x0, symName: __RINvMsx_NtNtCsaNl6UpbT7bw_4core3str7patternNtB6_14TwoWaySearcher4nextNtB6_14RejectAndMatchECsjWlmgRw4CHA_18build_script_build, symObjAddr: 0x368, symBinAddr: 0x1000071E0, symSize: 0x540 }
  - { offset: 0x141BB, size: 0x8, addend: 0x0, symName: __RINvMsx_NtNtCsaNl6UpbT7bw_4core3str7patternNtB6_14TwoWaySearcher4nextNtB6_9MatchOnlyECsjWlmgRw4CHA_18build_script_build, symObjAddr: 0x8A8, symBinAddr: 0x100007720, symSize: 0x540 }
  - { offset: 0x14634, size: 0x8, addend: 0x0, symName: __RNvMNtCsaNl6UpbT7bw_4core6optionINtB2_6OptionNtNtCsiTraAjBDcu4_5alloc6string6StringE8as_derefCsjWlmgRw4CHA_18build_script_build, symObjAddr: 0x11A0, symBinAddr: 0x100008018, symSize: 0x78 }
  - { offset: 0x14747, size: 0x8, addend: 0x0, symName: __RNvMNtCsaNl6UpbT7bw_4core6resultINtB2_6ResultNtNtCsht3nMU9UgFu_3std7process6OutputNtNtNtBL_2io5error5ErrorE2okCsjWlmgRw4CHA_18build_script_build, symObjAddr: 0x1218, symBinAddr: 0x100008090, symSize: 0xA8 }
  - { offset: 0x1479B, size: 0x8, addend: 0x0, symName: __RNvMNtCsaNl6UpbT7bw_4core6resultINtB2_6ResultNtNtCsiTraAjBDcu4_5alloc6string6StringNtNtCsht3nMU9UgFu_3std3env8VarErrorE17unwrap_or_defaultCsjWlmgRw4CHA_18build_script_build, symObjAddr: 0x12C0, symBinAddr: 0x100008138, symSize: 0xBC }
  - { offset: 0x147EF, size: 0x8, addend: 0x0, symName: __RNvMNtCsaNl6UpbT7bw_4core6resultINtB2_6ResultNtNtCsiTraAjBDcu4_5alloc6string6StringNtNtNtCsht3nMU9UgFu_3std3ffi6os_str8OsStringE2okCsjWlmgRw4CHA_18build_script_build, symObjAddr: 0x137C, symBinAddr: 0x1000081F4, symSize: 0x84 }
  - { offset: 0x14843, size: 0x8, addend: 0x0, symName: __RNvMNtCsaNl6UpbT7bw_4core6resultINtB2_6ResultReNtNtNtB4_3str5error9Utf8ErrorE2okCsjWlmgRw4CHA_18build_script_build, symObjAddr: 0x1400, symBinAddr: 0x100008278, symSize: 0x60 }
  - { offset: 0x14897, size: 0x8, addend: 0x0, symName: __RNvMNtCsaNl6UpbT7bw_4core6resultINtB2_6ResulthNtNtNtB4_3num5error15TryFromIntErrorE6expectCsjWlmgRw4CHA_18build_script_build, symObjAddr: 0x1460, symBinAddr: 0x1000082D8, symSize: 0x84 }
  - { offset: 0x148F9, size: 0x8, addend: 0x0, symName: __RNvMNtCsaNl6UpbT7bw_4core6resultINtB2_6ResultyNtNtNtB4_3num5error13ParseIntErrorE2okCsjWlmgRw4CHA_18build_script_build, symObjAddr: 0x14E4, symBinAddr: 0x10000835C, symSize: 0x5C }
  - { offset: 0x149DE, size: 0x8, addend: 0x0, symName: __RNvMsx_NtNtNtCsiTraAjBDcu4_5alloc11collections5btree3mapINtB5_8IntoIterNtNtNtCsht3nMU9UgFu_3std3ffi6os_str8OsStringINtNtCsaNl6UpbT7bw_4core6option6OptionB17_EE10dying_nextCsjWlmgRw4CHA_18build_script_build, symObjAddr: 0x1540, symBinAddr: 0x1000083B8, symSize: 0x90 }
  - { offset: 0x153B7, size: 0x8, addend: 0x0, symName: ___llvm_profile_get_magic, symObjAddr: 0x28, symBinAddr: 0x10000A750, symSize: 0x14 }
  - { offset: 0x153D8, size: 0x8, addend: 0x0, symName: ___llvm_profile_get_num_padding_bytes, symObjAddr: 0x44, symBinAddr: 0x10000A764, symSize: 0xC }
  - { offset: 0x153E0, size: 0x8, addend: 0x0, symName: ___llvm_profile_get_version, symObjAddr: 0x50, symBinAddr: 0x10000A770, symSize: 0xC }
  - { offset: 0x15409, size: 0x8, addend: 0x0, symName: ___llvm_profile_get_version, symObjAddr: 0x50, symBinAddr: 0x10000A770, symSize: 0xC }
  - { offset: 0x1547E, size: 0x8, addend: 0x0, symName: ___llvm_profile_is_continuous_mode_enabled, symObjAddr: 0x0, symBinAddr: 0x10000A77C, symSize: 0x20 }
  - { offset: 0x1549B, size: 0x8, addend: 0x0, symName: __MergedGlobals, symObjAddr: 0x3E20, symBinAddr: 0x100065110, symSize: 0x0 }
  - { offset: 0x154BD, size: 0x8, addend: 0x0, symName: __MergedGlobals, symObjAddr: 0x3E20, symBinAddr: 0x100065110, symSize: 0x0 }
  - { offset: 0x154ED, size: 0x8, addend: 0x0, symName: ___llvm_profile_is_continuous_mode_enabled, symObjAddr: 0x0, symBinAddr: 0x10000A77C, symSize: 0x20 }
  - { offset: 0x154F5, size: 0x8, addend: 0x0, symName: ___llvm_profile_enable_continuous_mode, symObjAddr: 0x20, symBinAddr: 0x10000A79C, symSize: 0x10 }
  - { offset: 0x15505, size: 0x8, addend: 0x0, symName: ___llvm_profile_enable_continuous_mode, symObjAddr: 0x20, symBinAddr: 0x10000A79C, symSize: 0x10 }
  - { offset: 0x1550D, size: 0x8, addend: 0x0, symName: ___llvm_profile_disable_continuous_mode, symObjAddr: 0x30, symBinAddr: 0x10000A7AC, symSize: 0xC }
  - { offset: 0x15522, size: 0x8, addend: 0x0, symName: ___llvm_profile_disable_continuous_mode, symObjAddr: 0x30, symBinAddr: 0x10000A7AC, symSize: 0xC }
  - { offset: 0x1552A, size: 0x8, addend: 0x0, symName: ___llvm_profile_set_page_size, symObjAddr: 0x3C, symBinAddr: 0x10000A7B8, symSize: 0xC }
  - { offset: 0x1553F, size: 0x8, addend: 0x0, symName: ___llvm_profile_set_page_size, symObjAddr: 0x3C, symBinAddr: 0x10000A7B8, symSize: 0xC }
  - { offset: 0x15547, size: 0x8, addend: 0x0, symName: ___llvm_profile_get_size_for_buffer, symObjAddr: 0x48, symBinAddr: 0x10000A7C4, symSize: 0xC4 }
  - { offset: 0x1556A, size: 0x8, addend: 0x0, symName: ___llvm_profile_get_size_for_buffer, symObjAddr: 0x48, symBinAddr: 0x10000A7C4, symSize: 0xC4 }
  - { offset: 0x15572, size: 0x8, addend: 0x0, symName: ___llvm_profile_get_size_for_buffer_internal, symObjAddr: 0x10C, symBinAddr: 0x10000A888, symSize: 0x1C0 }
  - { offset: 0x159D5, size: 0x8, addend: 0x0, symName: ___llvm_profile_get_size_for_buffer_internal, symObjAddr: 0x10C, symBinAddr: 0x10000A888, symSize: 0x1C0 }
  - { offset: 0x159DD, size: 0x8, addend: 0x0, symName: ___llvm_profile_get_num_data, symObjAddr: 0x2CC, symBinAddr: 0x10000AA48, symSize: 0x10 }
  - { offset: 0x15DCC, size: 0x8, addend: 0x0, symName: ___llvm_profile_get_num_data, symObjAddr: 0x2CC, symBinAddr: 0x10000AA48, symSize: 0x10 }
  - { offset: 0x15DD4, size: 0x8, addend: 0x0, symName: ___llvm_profile_get_data_size, symObjAddr: 0x2DC, symBinAddr: 0x10000AA58, symSize: 0x10 }
  - { offset: 0x15E05, size: 0x8, addend: 0x0, symName: ___llvm_profile_get_data_size, symObjAddr: 0x2DC, symBinAddr: 0x10000AA58, symSize: 0x10 }
  - { offset: 0x15E0D, size: 0x8, addend: 0x0, symName: ___llvm_profile_get_num_vtable, symObjAddr: 0x2EC, symBinAddr: 0x10000AA68, symSize: 0x18 }
  - { offset: 0x15E31, size: 0x8, addend: 0x0, symName: ___llvm_profile_get_data_size, symObjAddr: 0x2DC, symBinAddr: 0x10000AA58, symSize: 0x10 }
  - { offset: 0x15E63, size: 0x8, addend: 0x0, symName: ___llvm_profile_get_num_vtable, symObjAddr: 0x2EC, symBinAddr: 0x10000AA68, symSize: 0x18 }
  - { offset: 0x15E6B, size: 0x8, addend: 0x0, symName: ___llvm_profile_get_vtable_section_size, symObjAddr: 0x304, symBinAddr: 0x10000AA80, symSize: 0x8 }
  - { offset: 0x15EBD, size: 0x8, addend: 0x0, symName: ___llvm_profile_get_vtable_section_size, symObjAddr: 0x304, symBinAddr: 0x10000AA80, symSize: 0x8 }
  - { offset: 0x15EC5, size: 0x8, addend: 0x0, symName: ___llvm_profile_counter_entry_size, symObjAddr: 0x30C, symBinAddr: 0x10000AA88, symSize: 0x1C }
  - { offset: 0x15EE6, size: 0x8, addend: 0x0, symName: ___llvm_profile_counter_entry_size, symObjAddr: 0x30C, symBinAddr: 0x10000AA88, symSize: 0x1C }
  - { offset: 0x15EEE, size: 0x8, addend: 0x0, symName: ___llvm_profile_get_num_counters, symObjAddr: 0x328, symBinAddr: 0x10000AAA4, symSize: 0x48 }
  - { offset: 0x15EFE, size: 0x8, addend: 0x0, symName: ___llvm_profile_get_num_counters, symObjAddr: 0x328, symBinAddr: 0x10000AAA4, symSize: 0x48 }
  - { offset: 0x15F06, size: 0x8, addend: 0x0, symName: ___llvm_profile_get_counters_size, symObjAddr: 0x370, symBinAddr: 0x10000AAEC, symSize: 0x5C }
  - { offset: 0x15F6B, size: 0x8, addend: 0x0, symName: ___llvm_profile_get_counters_size, symObjAddr: 0x370, symBinAddr: 0x10000AAEC, symSize: 0x5C }
  - { offset: 0x15F73, size: 0x8, addend: 0x0, symName: ___llvm_profile_get_num_bitmap_bytes, symObjAddr: 0x3CC, symBinAddr: 0x10000AB48, symSize: 0x8 }
  - { offset: 0x16017, size: 0x8, addend: 0x0, symName: ___llvm_profile_get_num_bitmap_bytes, symObjAddr: 0x3CC, symBinAddr: 0x10000AB48, symSize: 0x8 }
  - { offset: 0x1601F, size: 0x8, addend: 0x0, symName: ___llvm_profile_get_name_size, symObjAddr: 0x3D4, symBinAddr: 0x10000AB50, symSize: 0x8 }
  - { offset: 0x16040, size: 0x8, addend: 0x0, symName: ___llvm_profile_get_name_size, symObjAddr: 0x3D4, symBinAddr: 0x10000AB50, symSize: 0x8 }
  - { offset: 0x16048, size: 0x8, addend: 0x0, symName: ___llvm_profile_get_padding_sizes_for_counters, symObjAddr: 0x3DC, symBinAddr: 0x10000AB58, symSize: 0x15C }
  - { offset: 0x16069, size: 0x8, addend: 0x0, symName: ___llvm_profile_get_padding_sizes_for_counters, symObjAddr: 0x3DC, symBinAddr: 0x10000AB58, symSize: 0x15C }
  - { offset: 0x16071, size: 0x8, addend: 0x0, symName: _initBufferWriter, symObjAddr: 0x538, symBinAddr: 0x10000ACB4, symSize: 0x10 }
  - { offset: 0x161C5, size: 0x8, addend: 0x0, symName: _initBufferWriter, symObjAddr: 0x538, symBinAddr: 0x10000ACB4, symSize: 0x10 }
  - { offset: 0x1632F, size: 0x8, addend: 0x0, symName: __MergedGlobals, symObjAddr: 0xA4D8, symBinAddr: 0x100065120, symSize: 0x0 }
  - { offset: 0x1644B, size: 0x8, addend: 0x0, symName: __MergedGlobals, symObjAddr: 0xA4D8, symBinAddr: 0x100065120, symSize: 0x0 }
  - { offset: 0x1667B, size: 0x8, addend: 0x0, symName: __MergedGlobals, symObjAddr: 0xA4D8, symBinAddr: 0x100065120, symSize: 0x0 }
  - { offset: 0x167A1, size: 0x8, addend: 0x0, symName: _getCurFilenameLength, symObjAddr: 0x1C8, symBinAddr: 0x10000ACC4, symSize: 0x108 }
  - { offset: 0x167A9, size: 0x8, addend: 0x0, symName: _getCurFilename, symObjAddr: 0x2D0, symBinAddr: 0x10000ADCC, symSize: 0x2B8 }
  - { offset: 0x1682C, size: 0x8, addend: 0x0, symName: _getCurFilename, symObjAddr: 0x2D0, symBinAddr: 0x10000ADCC, symSize: 0x2B8 }
  - { offset: 0x16A5D, size: 0x8, addend: 0x0, symName: _parseAndSetFilename, symObjAddr: 0x688, symBinAddr: 0x10000B084, symSize: 0x4B8 }
  - { offset: 0x16A65, size: 0x8, addend: 0x0, symName: ___llvm_profile_initialize, symObjAddr: 0xB40, symBinAddr: 0x10000B53C, symSize: 0xB8 }
  - { offset: 0x16C4D, size: 0x8, addend: 0x0, symName: ___llvm_profile_initialize, symObjAddr: 0xB40, symBinAddr: 0x10000B53C, symSize: 0xB8 }
  - { offset: 0x16CC9, size: 0x8, addend: 0x0, symName: ___llvm_profile_write_file, symObjAddr: 0xC74, symBinAddr: 0x10000B5F4, symSize: 0x1B4 }
  - { offset: 0x16CD1, size: 0x8, addend: 0x0, symName: _writeFile, symObjAddr: 0xE28, symBinAddr: 0x10000B7A8, symSize: 0x294 }
  - { offset: 0x16E2B, size: 0x8, addend: 0x0, symName: _writeFile, symObjAddr: 0xE28, symBinAddr: 0x10000B7A8, symSize: 0x294 }
  - { offset: 0x16F9F, size: 0x8, addend: 0x0, symName: _writeFileWithoutReturn, symObjAddr: 0x138C, symBinAddr: 0x10000BA3C, symSize: 0x4 }
  - { offset: 0x16FD5, size: 0x8, addend: 0x0, symName: _getProfileFileSizeForMerging, symObjAddr: 0x1574, symBinAddr: 0x10000BA40, symSize: 0x110 }
  - { offset: 0x16FDD, size: 0x8, addend: 0x0, symName: _mmapProfileForMerging, symObjAddr: 0x1684, symBinAddr: 0x10000BB50, symSize: 0xBC }
  - { offset: 0x1701A, size: 0x8, addend: 0x0, symName: _mmapProfileForMerging, symObjAddr: 0x1684, symBinAddr: 0x10000BB50, symSize: 0xBC }
  - { offset: 0x17022, size: 0x8, addend: 0x0, symName: _mmapForContinuousMode, symObjAddr: 0x1740, symBinAddr: 0x10000BC0C, symSize: 0x264 }
  - { offset: 0x17070, size: 0x8, addend: 0x0, symName: _mmapForContinuousMode, symObjAddr: 0x1740, symBinAddr: 0x10000BC0C, symSize: 0x264 }
  - { offset: 0x17078, size: 0x8, addend: 0x0, symName: _fileWriter, symObjAddr: 0x19A4, symBinAddr: 0x10000BE70, symSize: 0x140 }
  - { offset: 0x17237, size: 0x8, addend: 0x0, symName: _fileWriter, symObjAddr: 0x19A4, symBinAddr: 0x10000BE70, symSize: 0x140 }
  - { offset: 0x1723F, size: 0x8, addend: 0x0, symName: _truncateCurrentFile, symObjAddr: 0x1AE4, symBinAddr: 0x10000BFB0, symSize: 0xD8 }
  - { offset: 0x17307, size: 0x8, addend: 0x0, symName: _truncateCurrentFile, symObjAddr: 0x1AE4, symBinAddr: 0x10000BFB0, symSize: 0xD8 }
  - { offset: 0x1730F, size: 0x8, addend: 0x0, symName: _initializeProfileForContinuousMode, symObjAddr: 0x1BBC, symBinAddr: 0x10000C088, symSize: 0x25C }
  - { offset: 0x173AD, size: 0x8, addend: 0x0, symName: _initializeProfileForContinuousMode, symObjAddr: 0x1BBC, symBinAddr: 0x10000C088, symSize: 0x25C }
  - { offset: 0x173B5, size: 0x8, addend: 0x0, symName: _createProfileDir, symObjAddr: 0x1E18, symBinAddr: 0x10000C2E4, symSize: 0xA4 }
  - { offset: 0x17582, size: 0x8, addend: 0x0, symName: _createProfileDir, symObjAddr: 0x1E18, symBinAddr: 0x10000C2E4, symSize: 0xA4 }
  - { offset: 0x1758A, size: 0x8, addend: 0x0, symName: _parseAndSetFilename.cold.1, symObjAddr: 0x1EBC, symBinAddr: 0x100044BC0, symSize: 0x24 }
  - { offset: 0x175E7, size: 0x8, addend: 0x0, symName: _parseAndSetFilename.cold.1, symObjAddr: 0x1EBC, symBinAddr: 0x100044BC0, symSize: 0x24 }
  - { offset: 0x175EF, size: 0x8, addend: 0x0, symName: _parseAndSetFilename.cold.2, symObjAddr: 0x1EE0, symBinAddr: 0x100044BE4, symSize: 0x24 }
  - { offset: 0x17611, size: 0x8, addend: 0x0, symName: _parseAndSetFilename.cold.2, symObjAddr: 0x1EE0, symBinAddr: 0x100044BE4, symSize: 0x24 }
  - { offset: 0x1762B, size: 0x8, addend: 0x0, symName: _parseAndSetFilename.cold.2, symObjAddr: 0x1EE0, symBinAddr: 0x100044BE4, symSize: 0x24 }
  - { offset: 0x1763B, size: 0x8, addend: 0x0, symName: _parseAndSetFilename.cold.2, symObjAddr: 0x1EE0, symBinAddr: 0x100044BE4, symSize: 0x24 }
  - { offset: 0x177A0, size: 0x8, addend: 0x0, symName: _lprofProfileDumped, symObjAddr: 0x0, symBinAddr: 0x10000C388, symSize: 0xC }
  - { offset: 0x177BD, size: 0x8, addend: 0x0, symName: _ProfileDumped, symObjAddr: 0x4E0, symBinAddr: 0x1000651F0, symSize: 0x0 }
  - { offset: 0x177CD, size: 0x8, addend: 0x0, symName: _lprofProfileDumped, symObjAddr: 0x0, symBinAddr: 0x10000C388, symSize: 0xC }
  - { offset: 0x17815, size: 0x8, addend: 0x0, symName: _lprofGetLoadModuleSignature, symObjAddr: 0x0, symBinAddr: 0x10000C394, symSize: 0xD0 }
  - { offset: 0x17842, size: 0x8, addend: 0x0, symName: _VPMergeHook, symBinAddr: 0x100065108, symSize: 0x0 }
  - { offset: 0x17AAA, size: 0x8, addend: 0x0, symName: _lprofGetLoadModuleSignature, symObjAddr: 0x0, symBinAddr: 0x10000C394, symSize: 0xD0 }
  - { offset: 0x17AB2, size: 0x8, addend: 0x0, symName: ___llvm_profile_check_compatibility, symObjAddr: 0xD0, symBinAddr: 0x10000C464, symSize: 0x1CC }
  - { offset: 0x17B22, size: 0x8, addend: 0x0, symName: ___llvm_profile_check_compatibility, symObjAddr: 0xD0, symBinAddr: 0x10000C464, symSize: 0x1CC }
  - { offset: 0x17B2A, size: 0x8, addend: 0x0, symName: ___llvm_profile_merge_from_buffer, symObjAddr: 0x29C, symBinAddr: 0x10000C630, symSize: 0x3E8 }
  - { offset: 0x17C02, size: 0x8, addend: 0x0, symName: ___llvm_profile_merge_from_buffer, symObjAddr: 0x29C, symBinAddr: 0x10000C630, symSize: 0x3E8 }
  - { offset: 0x17E74, size: 0x8, addend: 0x0, symName: _lprofMergeValueProfData, symObjAddr: 0x0, symBinAddr: 0x10000CA18, symSize: 0xF0 }
  - { offset: 0x17E85, size: 0x8, addend: 0x0, symName: _lprofMergeValueProfData, symObjAddr: 0x0, symBinAddr: 0x10000CA18, symSize: 0xF0 }
  - { offset: 0x18150, size: 0x8, addend: 0x0, symName: ___llvm_profile_begin_data, symObjAddr: 0x0, symBinAddr: 0x10000CB08, symSize: 0xC }
  - { offset: 0x1816F, size: 0x8, addend: 0x0, symName: _CurrentVNode, symObjAddr: 0xC0, symBinAddr: 0x1000645E0, symSize: 0x0 }
  - { offset: 0x181EB, size: 0x8, addend: 0x0, symName: _EndVNode, symObjAddr: 0xC8, symBinAddr: 0x1000645E8, symSize: 0x0 }
  - { offset: 0x181F4, size: 0x8, addend: 0x0, symName: ___llvm_profile_begin_data, symObjAddr: 0x0, symBinAddr: 0x10000CB08, symSize: 0xC }
  - { offset: 0x181FC, size: 0x8, addend: 0x0, symName: ___llvm_profile_end_data, symObjAddr: 0xC, symBinAddr: 0x10000CB14, symSize: 0xC }
  - { offset: 0x18215, size: 0x8, addend: 0x0, symName: ___llvm_profile_end_data, symObjAddr: 0xC, symBinAddr: 0x10000CB14, symSize: 0xC }
  - { offset: 0x1821D, size: 0x8, addend: 0x0, symName: ___llvm_profile_begin_names, symObjAddr: 0x18, symBinAddr: 0x10000CB20, symSize: 0xC }
  - { offset: 0x18236, size: 0x8, addend: 0x0, symName: ___llvm_profile_begin_names, symObjAddr: 0x18, symBinAddr: 0x10000CB20, symSize: 0xC }
  - { offset: 0x1823E, size: 0x8, addend: 0x0, symName: ___llvm_profile_end_names, symObjAddr: 0x24, symBinAddr: 0x10000CB2C, symSize: 0xC }
  - { offset: 0x18257, size: 0x8, addend: 0x0, symName: ___llvm_profile_end_names, symObjAddr: 0x24, symBinAddr: 0x10000CB2C, symSize: 0xC }
  - { offset: 0x1825F, size: 0x8, addend: 0x0, symName: ___llvm_profile_begin_counters, symObjAddr: 0x30, symBinAddr: 0x10000CB38, symSize: 0xC }
  - { offset: 0x18278, size: 0x8, addend: 0x0, symName: ___llvm_profile_begin_counters, symObjAddr: 0x30, symBinAddr: 0x10000CB38, symSize: 0xC }
  - { offset: 0x18280, size: 0x8, addend: 0x0, symName: ___llvm_profile_end_counters, symObjAddr: 0x3C, symBinAddr: 0x10000CB44, symSize: 0xC }
  - { offset: 0x18299, size: 0x8, addend: 0x0, symName: ___llvm_profile_end_counters, symObjAddr: 0x3C, symBinAddr: 0x10000CB44, symSize: 0xC }
  - { offset: 0x182A1, size: 0x8, addend: 0x0, symName: ___llvm_profile_begin_bitmap, symObjAddr: 0x48, symBinAddr: 0x10000CB50, symSize: 0xC }
  - { offset: 0x182BA, size: 0x8, addend: 0x0, symName: ___llvm_profile_begin_bitmap, symObjAddr: 0x48, symBinAddr: 0x10000CB50, symSize: 0xC }
  - { offset: 0x182C2, size: 0x8, addend: 0x0, symName: ___llvm_profile_end_bitmap, symObjAddr: 0x54, symBinAddr: 0x10000CB5C, symSize: 0xC }
  - { offset: 0x182DB, size: 0x8, addend: 0x0, symName: ___llvm_profile_end_bitmap, symObjAddr: 0x54, symBinAddr: 0x10000CB5C, symSize: 0xC }
  - { offset: 0x182E3, size: 0x8, addend: 0x0, symName: ___llvm_profile_begin_vtables, symObjAddr: 0x60, symBinAddr: 0x10000CB68, symSize: 0xC }
  - { offset: 0x182FC, size: 0x8, addend: 0x0, symName: ___llvm_profile_begin_vtables, symObjAddr: 0x60, symBinAddr: 0x10000CB68, symSize: 0xC }
  - { offset: 0x18304, size: 0x8, addend: 0x0, symName: ___llvm_profile_end_vtables, symObjAddr: 0x6C, symBinAddr: 0x10000CB74, symSize: 0xC }
  - { offset: 0x1831D, size: 0x8, addend: 0x0, symName: ___llvm_profile_end_vtables, symObjAddr: 0x6C, symBinAddr: 0x10000CB74, symSize: 0xC }
  - { offset: 0x18325, size: 0x8, addend: 0x0, symName: ___llvm_profile_begin_vtabnames, symObjAddr: 0x78, symBinAddr: 0x10000CB80, symSize: 0xC }
  - { offset: 0x1833E, size: 0x8, addend: 0x0, symName: ___llvm_profile_begin_vtabnames, symObjAddr: 0x78, symBinAddr: 0x10000CB80, symSize: 0xC }
  - { offset: 0x18346, size: 0x8, addend: 0x0, symName: ___llvm_profile_end_vtabnames, symObjAddr: 0x84, symBinAddr: 0x10000CB8C, symSize: 0xC }
  - { offset: 0x1835F, size: 0x8, addend: 0x0, symName: ___llvm_profile_end_vtabnames, symObjAddr: 0x84, symBinAddr: 0x10000CB8C, symSize: 0xC }
  - { offset: 0x18380, size: 0x8, addend: 0x0, symName: ___llvm_profile_begin_vnodes, symObjAddr: 0x9C, symBinAddr: 0x10000CB98, symSize: 0xC }
  - { offset: 0x18388, size: 0x8, addend: 0x0, symName: ___llvm_profile_end_vnodes, symObjAddr: 0xA8, symBinAddr: 0x10000CBA4, symSize: 0xC }
  - { offset: 0x183A1, size: 0x8, addend: 0x0, symName: ___llvm_profile_end_vnodes, symObjAddr: 0xA8, symBinAddr: 0x10000CBA4, symSize: 0xC }
  - { offset: 0x183A9, size: 0x8, addend: 0x0, symName: ___llvm_write_binary_ids, symObjAddr: 0xB4, symBinAddr: 0x10000CBB0, symSize: 0x8 }
  - { offset: 0x183C2, size: 0x8, addend: 0x0, symName: ___llvm_write_binary_ids, symObjAddr: 0xB4, symBinAddr: 0x10000CBB0, symSize: 0x8 }
  - { offset: 0x18648, size: 0x8, addend: 0x0, symName: __GLOBAL__sub_I_InstrProfilingRuntime.cpp, symObjAddr: 0x0, symBinAddr: 0x10000CBB8, symSize: 0x18 }
  - { offset: 0x1866B, size: 0x8, addend: 0x0, symName: ___llvm_profile_runtime, symObjAddr: 0x590, symBinAddr: 0x1000650C4, symSize: 0x0 }
  - { offset: 0x1869B, size: 0x8, addend: 0x0, symName: __GLOBAL__sub_I_InstrProfilingRuntime.cpp, symObjAddr: 0x0, symBinAddr: 0x10000CBB8, symSize: 0x18 }
  - { offset: 0x18717, size: 0x8, addend: 0x0, symName: ___llvm_profile_recursive_mkdir, symObjAddr: 0x0, symBinAddr: 0x10000CBD0, symSize: 0x58 }
  - { offset: 0x1871F, size: 0x8, addend: 0x0, symName: _lprofDirMode, symObjAddr: 0x5AC, symBinAddr: 0x1000645F0, symSize: 0x0 }
  - { offset: 0x18736, size: 0x8, addend: 0x0, symName: _lprofDirMode, symObjAddr: 0x5AC, symBinAddr: 0x1000645F0, symSize: 0x0 }
  - { offset: 0x1876B, size: 0x8, addend: 0x0, symName: ___llvm_profile_recursive_mkdir, symObjAddr: 0x0, symBinAddr: 0x10000CBD0, symSize: 0x58 }
  - { offset: 0x187EA, size: 0x8, addend: 0x0, symName: _lprofGetHostName, symObjAddr: 0x70, symBinAddr: 0x10000CC28, symSize: 0x80 }
  - { offset: 0x1891F, size: 0x8, addend: 0x0, symName: _lprofLockFileHandle, symObjAddr: 0x208, symBinAddr: 0x10000CCA8, symSize: 0x90 }
  - { offset: 0x18927, size: 0x8, addend: 0x0, symName: _lprofUnlockFileHandle, symObjAddr: 0x298, symBinAddr: 0x10000CD38, symSize: 0x90 }
  - { offset: 0x189AD, size: 0x8, addend: 0x0, symName: _lprofUnlockFileHandle, symObjAddr: 0x298, symBinAddr: 0x10000CD38, symSize: 0x90 }
  - { offset: 0x189B5, size: 0x8, addend: 0x0, symName: _lprofOpenFileEx, symObjAddr: 0x328, symBinAddr: 0x10000CDC8, symSize: 0xD0 }
  - { offset: 0x18A15, size: 0x8, addend: 0x0, symName: _lprofOpenFileEx, symObjAddr: 0x328, symBinAddr: 0x10000CDC8, symSize: 0xD0 }
  - { offset: 0x18A8D, size: 0x8, addend: 0x0, symName: _lprofFindFirstDirSeparator, symObjAddr: 0x538, symBinAddr: 0x10000CE98, symSize: 0x8 }
  - { offset: 0x18ACD, size: 0x8, addend: 0x0, symName: _lprofSuspendSigKill, symObjAddr: 0x548, symBinAddr: 0x10000CEA0, symSize: 0x8 }
  - { offset: 0x18AD5, size: 0x8, addend: 0x0, symName: _lprofRestoreSigKill, symObjAddr: 0x550, symBinAddr: 0x10000CEA8, symSize: 0x4 }
  - { offset: 0x18AF0, size: 0x8, addend: 0x0, symName: _lprofRestoreSigKill, symObjAddr: 0x550, symBinAddr: 0x10000CEA8, symSize: 0x4 }
  - { offset: 0x18B0F, size: 0x8, addend: 0x0, symName: _lprofAtExit, symObjAddr: 0x5A8, symBinAddr: 0x10000CEAC, symSize: 0x4 }
  - { offset: 0x18B17, size: 0x8, addend: 0x0, symName: _lprofDirMode, symObjAddr: 0x5AC, symBinAddr: 0x1000645F0, symSize: 0x0 }
  - { offset: 0x18DE1, size: 0x8, addend: 0x0, symName: _getValueProfRecordHeaderSize, symObjAddr: 0x0, symBinAddr: 0x10000CEB0, symSize: 0xC }
  - { offset: 0x18E00, size: 0x8, addend: 0x0, symName: _VPMaxNumValsPerSite, symObjAddr: 0x1740, symBinAddr: 0x1000645F8, symSize: 0x0 }
  - { offset: 0x18E95, size: 0x8, addend: 0x0, symName: __MergedGlobals, symObjAddr: 0xEF50, symBinAddr: 0x100065220, symSize: 0x0 }
  - { offset: 0x18EBC, size: 0x8, addend: 0x0, symName: __MergedGlobals, symObjAddr: 0xEF50, symBinAddr: 0x100065220, symSize: 0x0 }
  - { offset: 0x18ED3, size: 0x8, addend: 0x0, symName: __MergedGlobals, symObjAddr: 0xEF50, symBinAddr: 0x100065220, symSize: 0x0 }
  - { offset: 0x18EF2, size: 0x8, addend: 0x0, symName: _TheVPDataReader, symObjAddr: 0x1748, symBinAddr: 0x100064600, symSize: 0x0 }
  - { offset: 0x19192, size: 0x8, addend: 0x0, symName: _RTRecord, symObjAddr: 0xEF28, symBinAddr: 0x1000651F8, symSize: 0x0 }
  - { offset: 0x19386, size: 0x8, addend: 0x0, symName: _getValueProfRecordHeaderSize, symObjAddr: 0x0, symBinAddr: 0x10000CEB0, symSize: 0xC }
  - { offset: 0x193DC, size: 0x8, addend: 0x0, symName: _getValueProfRecordValueData, symObjAddr: 0x1C, symBinAddr: 0x10000CEBC, symSize: 0x14 }
  - { offset: 0x1948A, size: 0x8, addend: 0x0, symName: _getValueProfRecordNext, symObjAddr: 0x1B4, symBinAddr: 0x10000CED0, symSize: 0x1A4 }
  - { offset: 0x19492, size: 0x8, addend: 0x0, symName: _getFirstValueProfRecord, symObjAddr: 0x358, symBinAddr: 0x10000D074, symSize: 0x8 }
  - { offset: 0x194F9, size: 0x8, addend: 0x0, symName: _getFirstValueProfRecord, symObjAddr: 0x358, symBinAddr: 0x10000D074, symSize: 0x8 }
  - { offset: 0x195DB, size: 0x8, addend: 0x0, symName: _lprofSetupValueProfiler, symObjAddr: 0xB38, symBinAddr: 0x10000D07C, symSize: 0x64 }
  - { offset: 0x196ED, size: 0x8, addend: 0x0, symName: ___llvm_profile_instrument_target_value, symObjAddr: 0xE30, symBinAddr: 0x10000D0E0, symSize: 0x290 }
  - { offset: 0x1980B, size: 0x8, addend: 0x0, symName: _lprofGetVPDataReader, symObjAddr: 0x1108, symBinAddr: 0x10000D370, symSize: 0xC }
  - { offset: 0x19813, size: 0x8, addend: 0x0, symName: _initializeValueProfRuntimeRecord, symObjAddr: 0x1114, symBinAddr: 0x10000D37C, symSize: 0x210 }
  - { offset: 0x1982E, size: 0x8, addend: 0x0, symName: _initializeValueProfRuntimeRecord, symObjAddr: 0x1114, symBinAddr: 0x10000D37C, symSize: 0x210 }
  - { offset: 0x19836, size: 0x8, addend: 0x0, symName: _getNumValueDataForSiteWrapper, symObjAddr: 0x1324, symBinAddr: 0x10000D58C, symSize: 0x14 }
  - { offset: 0x19951, size: 0x8, addend: 0x0, symName: _getNumValueDataForSiteWrapper, symObjAddr: 0x1324, symBinAddr: 0x10000D58C, symSize: 0x14 }
  - { offset: 0x19959, size: 0x8, addend: 0x0, symName: _getValueProfDataSizeWrapper, symObjAddr: 0x1338, symBinAddr: 0x10000D5A0, symSize: 0xDC }
  - { offset: 0x19997, size: 0x8, addend: 0x0, symName: _getNumValueDataForSiteWrapper, symObjAddr: 0x1324, symBinAddr: 0x10000D58C, symSize: 0x14 }
  - { offset: 0x199BD, size: 0x8, addend: 0x0, symName: _getValueProfDataSizeWrapper, symObjAddr: 0x1338, symBinAddr: 0x10000D5A0, symSize: 0xDC }
  - { offset: 0x199C5, size: 0x8, addend: 0x0, symName: _getNextNValueData, symObjAddr: 0x1414, symBinAddr: 0x10000D67C, symSize: 0x44 }
  - { offset: 0x19A5C, size: 0x8, addend: 0x0, symName: _getNextNValueData, symObjAddr: 0x1414, symBinAddr: 0x10000D67C, symSize: 0x44 }
  - { offset: 0x19A64, size: 0x8, addend: 0x0, symName: _getNumValueSitesRT, symObjAddr: 0x1458, symBinAddr: 0x10000D6C0, symSize: 0x10 }
  - { offset: 0x19AF2, size: 0x8, addend: 0x0, symName: _getNumValueSitesRT, symObjAddr: 0x1458, symBinAddr: 0x10000D6C0, symSize: 0x10 }
  - { offset: 0x19AFA, size: 0x8, addend: 0x0, symName: _getNumValueDataRT, symObjAddr: 0x1468, symBinAddr: 0x10000D6D0, symSize: 0x190 }
  - { offset: 0x19B35, size: 0x8, addend: 0x0, symName: _getNumValueDataRT, symObjAddr: 0x1468, symBinAddr: 0x10000D6D0, symSize: 0x190 }
  - { offset: 0x19BAB, size: 0x8, addend: 0x0, symName: ___llvm_profile_instrument_target_value.cold.1, symObjAddr: 0x161C, symBinAddr: 0x100044C08, symSize: 0x24 }
  - { offset: 0x19C3B, size: 0x8, addend: 0x0, symName: ___llvm_profile_raw_version, symObjAddr: 0x0, symBinAddr: 0x100064630, symSize: 0x0 }
  - { offset: 0x19C7D, size: 0x8, addend: 0x0, symName: _lprofBufferWriter, symObjAddr: 0x0, symBinAddr: 0x10000D860, symSize: 0x6C }
  - { offset: 0x19C9C, size: 0x8, addend: 0x0, symName: _FreeHook, symObjAddr: 0x4F30, symBinAddr: 0x1000650C8, symSize: 0x0 }
  - { offset: 0x19CC2, size: 0x8, addend: 0x0, symName: _DynamicBufferIOBuffer, symObjAddr: 0x4F38, symBinAddr: 0x1000650D0, symSize: 0x0 }
  - { offset: 0x19CF0, size: 0x8, addend: 0x0, symName: _VPBufferSize, symObjAddr: 0x4F40, symBinAddr: 0x1000650D8, symSize: 0x0 }
  - { offset: 0x19D17, size: 0x8, addend: 0x0, symName: __MergedGlobals, symObjAddr: 0x6F48, symBinAddr: 0x100067230, symSize: 0x0 }
  - { offset: 0x19E61, size: 0x8, addend: 0x0, symName: _BufferIOBuffer, symObjAddr: 0x4F48, symBinAddr: 0x100065230, symSize: 0x0 }
  - { offset: 0x19E8B, size: 0x8, addend: 0x0, symName: __MergedGlobals, symObjAddr: 0x6F48, symBinAddr: 0x100067230, symSize: 0x0 }
  - { offset: 0x19F07, size: 0x8, addend: 0x0, symName: _lprofBufferWriter, symObjAddr: 0x0, symBinAddr: 0x10000D860, symSize: 0x6C }
  - { offset: 0x1A01F, size: 0x8, addend: 0x0, symName: _lprofBufferIOWrite, symObjAddr: 0x100, symBinAddr: 0x10000D8CC, symSize: 0x134 }
  - { offset: 0x1A120, size: 0x8, addend: 0x0, symName: _lprofWriteData, symObjAddr: 0x2F4, symBinAddr: 0x10000DA00, symSize: 0xD4 }
  - { offset: 0x1A128, size: 0x8, addend: 0x0, symName: _lprofWriteDataImpl, symObjAddr: 0x3C8, symBinAddr: 0x10000DAD4, symSize: 0x46C }
  - { offset: 0x1A54E, size: 0x8, addend: 0x0, symName: _lprofWriteDataImpl, symObjAddr: 0x3C8, symBinAddr: 0x10000DAD4, symSize: 0x46C }
  - { offset: 0x1A878, size: 0x8, addend: 0x0, symName: _writeOneValueProfData, symObjAddr: 0x8C0, symBinAddr: 0x10000DF40, symSize: 0x4A8 }
  - { offset: 0x1AB3D, size: 0x8, addend: 0x0, symName: '__ZN108_$LT$alloc..collections..btree..map..Iter$LT$K$C$V$GT$$u20$as$u20$core..iter..traits..iterator..Iterator$GT$4next17hd09f2d96589fb435E', symObjAddr: 0x0, symBinAddr: 0x10000E3E8, symSize: 0x13C }
  - { offset: 0x1AF96, size: 0x8, addend: 0x0, symName: '__ZN5alloc11collections5btree4node208Handle$LT$alloc..collections..btree..node..NodeRef$LT$alloc..collections..btree..node..marker..Mut$C$K$C$V$C$alloc..collections..btree..node..marker..Leaf$GT$$C$alloc..collections..btree..node..marker..KV$GT$5split17h6d01fe3bbe152ad6E', symObjAddr: 0x114AC, symBinAddr: 0x10001A1A0, symSize: 0x1C0 }
  - { offset: 0x1B404, size: 0x8, addend: 0x0, symName: '__ZN5alloc11collections5btree4node208Handle$LT$alloc..collections..btree..node..NodeRef$LT$alloc..collections..btree..node..marker..Mut$C$K$C$V$C$alloc..collections..btree..node..marker..Leaf$GT$$C$alloc..collections..btree..node..marker..KV$GT$5split17ha09fe2f6ae84e77eE', symObjAddr: 0x1166C, symBinAddr: 0x10001A360, symSize: 0x164 }
  - { offset: 0x1B7DB, size: 0x8, addend: 0x0, symName: '__ZN5alloc11collections5btree4node212Handle$LT$alloc..collections..btree..node..NodeRef$LT$alloc..collections..btree..node..marker..Mut$C$K$C$V$C$alloc..collections..btree..node..marker..Internal$GT$$C$alloc..collections..btree..node..marker..KV$GT$5split17h8a06bb5830746347E', symObjAddr: 0x11C34, symBinAddr: 0x10001A4C4, symSize: 0x218 }
  - { offset: 0x1BD6B, size: 0x8, addend: 0x0, symName: '__ZN5alloc11collections5btree4node212Handle$LT$alloc..collections..btree..node..NodeRef$LT$alloc..collections..btree..node..marker..Mut$C$K$C$V$C$alloc..collections..btree..node..marker..Internal$GT$$C$alloc..collections..btree..node..marker..KV$GT$5split17hb4d18c041628fb6dE', symObjAddr: 0x11E4C, symBinAddr: 0x10001A6DC, symSize: 0x28C }
  - { offset: 0x1C43B, size: 0x8, addend: 0x0, symName: '__ZN5alloc11collections5btree6remove259_$LT$impl$u20$alloc..collections..btree..node..Handle$LT$alloc..collections..btree..node..NodeRef$LT$alloc..collections..btree..node..marker..Mut$C$K$C$V$C$alloc..collections..btree..node..marker..Leaf$GT$$C$alloc..collections..btree..node..marker..KV$GT$$GT$14remove_leaf_kv17h73689d62ad792e56E', symObjAddr: 0x13418, symBinAddr: 0x10001B738, symSize: 0x570 }
  - { offset: 0x1D07A, size: 0x8, addend: 0x0, symName: '__ZN5alloc11collections5btree6remove259_$LT$impl$u20$alloc..collections..btree..node..Handle$LT$alloc..collections..btree..node..NodeRef$LT$alloc..collections..btree..node..marker..Mut$C$K$C$V$C$alloc..collections..btree..node..marker..Leaf$GT$$C$alloc..collections..btree..node..marker..KV$GT$$GT$14remove_leaf_kv17he90c15582b4564a9E', symObjAddr: 0x13988, symBinAddr: 0x10001BCA8, symSize: 0x52C }
  - { offset: 0x1EE34, size: 0x8, addend: 0x0, symName: '__ZN5alloc11collections5btree4node29BalancingContext$LT$K$C$V$GT$15bulk_steal_left17h75e64982df7e0642E', symObjAddr: 0x120D8, symBinAddr: 0x10001A968, symSize: 0x284 }
  - { offset: 0x1F39C, size: 0x8, addend: 0x0, symName: '__ZN5alloc11collections5btree4node29BalancingContext$LT$K$C$V$GT$15bulk_steal_left17hbba92f5d6a683d2bE', symObjAddr: 0x1235C, symBinAddr: 0x10001ABEC, symSize: 0x1F4 }
  - { offset: 0x1F8CC, size: 0x8, addend: 0x0, symName: '__ZN5alloc11collections5btree4node29BalancingContext$LT$K$C$V$GT$16bulk_steal_right17h38344368ffc8c5cbE', symObjAddr: 0x12550, symBinAddr: 0x10001ADE0, symSize: 0x2CC }
  - { offset: 0x1FEE9, size: 0x8, addend: 0x0, symName: '__ZN5alloc11collections5btree4node29BalancingContext$LT$K$C$V$GT$16bulk_steal_right17hbe50625095942a6eE', symObjAddr: 0x1281C, symBinAddr: 0x10001B0AC, symSize: 0x240 }
  - { offset: 0x20537, size: 0x8, addend: 0x0, symName: '__ZN5alloc11collections5btree4node29BalancingContext$LT$K$C$V$GT$8do_merge17h4b602dda9210b2bdE', symObjAddr: 0x12A5C, symBinAddr: 0x10001B2EC, symSize: 0x258 }
  - { offset: 0x20B6F, size: 0x8, addend: 0x0, symName: '__ZN5alloc11collections5btree4node29BalancingContext$LT$K$C$V$GT$8do_merge17h745f74eea44b50d0E', symObjAddr: 0x12CB4, symBinAddr: 0x10001B544, symSize: 0x1F4 }
  - { offset: 0x21379, size: 0x8, addend: 0x0, symName: '__ZN108_$LT$alloc..collections..btree..map..Iter$LT$K$C$V$GT$$u20$as$u20$core..iter..traits..iterator..Iterator$GT$4next17hd09f2d96589fb435E', symObjAddr: 0x0, symBinAddr: 0x10000E3E8, symSize: 0x13C }
  - { offset: 0x216CF, size: 0x8, addend: 0x0, symName: '__ZN5alloc11collections5btree3map25BTreeMap$LT$K$C$V$C$A$GT$6insert17h1b51d01431bfbb0bE', symObjAddr: 0xFA98, symBinAddr: 0x100019178, symSize: 0x9B0 }
  - { offset: 0x23058, size: 0x8, addend: 0x0, symName: '__ZN5alloc11collections5btree3map25IntoIter$LT$K$C$V$C$A$GT$10dying_next17h14374c324bbb3051E', symObjAddr: 0x10E34, symBinAddr: 0x100019B28, symSize: 0x228 }
  - { offset: 0x233FE, size: 0x8, addend: 0x0, symName: '__ZN5alloc11collections5btree3map25IntoIter$LT$K$C$V$C$A$GT$10dying_next17ha97a3f555acf7d48E', symObjAddr: 0x1105C, symBinAddr: 0x100019D50, symSize: 0x228 }
  - { offset: 0x237A4, size: 0x8, addend: 0x0, symName: '__ZN5alloc11collections5btree3map25IntoIter$LT$K$C$V$C$A$GT$10dying_next17hb30339cd7068d6cfE', symObjAddr: 0x11284, symBinAddr: 0x100019F78, symSize: 0x228 }
  - { offset: 0x24A6A, size: 0x8, addend: 0x0, symName: '__ZN5alloc7raw_vec19RawVec$LT$T$C$A$GT$8grow_one17h06cf0433792cf41cE', symObjAddr: 0x14498, symBinAddr: 0x10001C594, symSize: 0xB4 }
  - { offset: 0x24B80, size: 0x8, addend: 0x0, symName: '__ZN5alloc7raw_vec19RawVec$LT$T$C$A$GT$8grow_one17h0ff3cfc767e809c5E', symObjAddr: 0x1454C, symBinAddr: 0x10001C648, symSize: 0xC4 }
  - { offset: 0x24C96, size: 0x8, addend: 0x0, symName: '__ZN5alloc7raw_vec19RawVec$LT$T$C$A$GT$8grow_one17h2a7a88545eefe0b5E', symObjAddr: 0x14610, symBinAddr: 0x10001C70C, symSize: 0xC4 }
  - { offset: 0x24DAC, size: 0x8, addend: 0x0, symName: '__ZN5alloc7raw_vec19RawVec$LT$T$C$A$GT$8grow_one17h33ef86bd5bc7babfE', symObjAddr: 0x146D4, symBinAddr: 0x10001C7D0, symSize: 0xB4 }
  - { offset: 0x24EC2, size: 0x8, addend: 0x0, symName: '__ZN5alloc7raw_vec19RawVec$LT$T$C$A$GT$8grow_one17h4794d3730a636672E', symObjAddr: 0x1484C, symBinAddr: 0x10001C884, symSize: 0xC4 }
  - { offset: 0x24FD8, size: 0x8, addend: 0x0, symName: '__ZN5alloc7raw_vec19RawVec$LT$T$C$A$GT$8grow_one17h4b7a36f6d62b1585E', symObjAddr: 0x14910, symBinAddr: 0x10001C948, symSize: 0xB4 }
  - { offset: 0x250EE, size: 0x8, addend: 0x0, symName: '__ZN5alloc7raw_vec19RawVec$LT$T$C$A$GT$8grow_one17h4ec275d7687f1e24E', symObjAddr: 0x149C4, symBinAddr: 0x10001C9FC, symSize: 0xC4 }
  - { offset: 0x25204, size: 0x8, addend: 0x0, symName: '__ZN5alloc7raw_vec19RawVec$LT$T$C$A$GT$8grow_one17h755f70e15600008eE', symObjAddr: 0x14A88, symBinAddr: 0x10001CAC0, symSize: 0xB4 }
  - { offset: 0x2531A, size: 0x8, addend: 0x0, symName: '__ZN5alloc7raw_vec19RawVec$LT$T$C$A$GT$8grow_one17h9a9a76236db74635E', symObjAddr: 0x14B3C, symBinAddr: 0x10001CB74, symSize: 0xC0 }
  - { offset: 0x25430, size: 0x8, addend: 0x0, symName: '__ZN5alloc7raw_vec19RawVec$LT$T$C$A$GT$8grow_one17hbdf039f48f951a6eE', symObjAddr: 0x14BFC, symBinAddr: 0x10001CC34, symSize: 0xC0 }
  - { offset: 0x25546, size: 0x8, addend: 0x0, symName: '__ZN5alloc7raw_vec19RawVec$LT$T$C$A$GT$8grow_one17hf24d0ccf3cd16788E', symObjAddr: 0x14CBC, symBinAddr: 0x10001CCF4, symSize: 0xC0 }
  - { offset: 0x25C1B, size: 0x8, addend: 0x0, symName: __ZN5alloc7raw_vec11finish_grow17h2d571ea7b67f06b7E, symObjAddr: 0x14418, symBinAddr: 0x100047BEC, symSize: 0x80 }
  - { offset: 0x25CB6, size: 0x8, addend: 0x0, symName: '__ZN5alloc7raw_vec20RawVecInner$LT$A$GT$7reserve21do_reserve_and_handle17h4b2c29e8db0b9268E', symObjAddr: 0x14D7C, symBinAddr: 0x100047C6C, symSize: 0xF0 }
  - { offset: 0x26F8E, size: 0x8, addend: 0x0, symName: __ZN5alloc5alloc15exchange_malloc17h9685023251c359e7E, symObjAddr: 0x143CC, symBinAddr: 0x10001C548, symSize: 0x4C }
  - { offset: 0x2705C, size: 0x8, addend: 0x0, symName: '__ZN5alloc4sync16Arc$LT$T$C$A$GT$9drop_slow17h568ad2c88e43a2e4E', symObjAddr: 0x13FE4, symBinAddr: 0x10001C1D4, symSize: 0x34 }
  - { offset: 0x27139, size: 0x8, addend: 0x0, symName: '__ZN5alloc4sync16Arc$LT$T$C$A$GT$9drop_slow17h568f10379158be3aE', symObjAddr: 0x14018, symBinAddr: 0x10001C208, symSize: 0xC0 }
  - { offset: 0x2745E, size: 0x8, addend: 0x0, symName: '__ZN5alloc4sync16Arc$LT$T$C$A$GT$9drop_slow17h74c044505d97b8fcE', symObjAddr: 0x140D8, symBinAddr: 0x10001C2C8, symSize: 0x78 }
  - { offset: 0x2762A, size: 0x8, addend: 0x0, symName: '__ZN5alloc4sync16Arc$LT$T$C$A$GT$9drop_slow17h8f2220b00493c4e4E', symObjAddr: 0x14150, symBinAddr: 0x10001C340, symSize: 0xA0 }
  - { offset: 0x27922, size: 0x8, addend: 0x0, symName: '__ZN5alloc4sync16Arc$LT$T$C$A$GT$9drop_slow17hb6a5023acd32b46fE', symObjAddr: 0x14264, symBinAddr: 0x10001C3E0, symSize: 0xD0 }
  - { offset: 0x27B37, size: 0x8, addend: 0x0, symName: '__ZN5alloc4sync16Arc$LT$T$C$A$GT$9drop_slow17hd5e62bd79ab5d7f0E', symObjAddr: 0x14334, symBinAddr: 0x10001C4B0, symSize: 0x98 }
  - { offset: 0x2806A, size: 0x8, addend: 0x0, symName: '__ZN64_$LT$alloc..ffi..c_str..NulError$u20$as$u20$core..fmt..Debug$GT$3fmt17hb25a36ba1a7f247bE', symObjAddr: 0x1BBE4, symBinAddr: 0x100023B2C, symSize: 0x4C }
  - { offset: 0x2850C, size: 0x8, addend: 0x0, symName: '__ZN58_$LT$alloc..string..String$u20$as$u20$core..fmt..Debug$GT$3fmt17hf1e461d83be89b72E', symObjAddr: 0xF8D0, symBinAddr: 0x100018FB0, symSize: 0x10 }
  - { offset: 0x285C7, size: 0x8, addend: 0x0, symName: '__ZN58_$LT$alloc..string..String$u20$as$u20$core..fmt..Write$GT$10write_char17h5afa657ba1086fe6E', symObjAddr: 0xF8E0, symBinAddr: 0x100018FC0, symSize: 0x138 }
  - { offset: 0x2876A, size: 0x8, addend: 0x0, symName: '__ZN58_$LT$alloc..string..String$u20$as$u20$core..fmt..Write$GT$9write_str17hba5566b7261b3df3E', symObjAddr: 0xFA18, symBinAddr: 0x1000190F8, symSize: 0x80 }
  - { offset: 0x288C3, size: 0x8, addend: 0x0, symName: '__ZN60_$LT$alloc..string..String$u20$as$u20$core..fmt..Display$GT$3fmt17h55315b95f551f900E', symObjAddr: 0x1BBD4, symBinAddr: 0x100023B1C, symSize: 0x10 }
  - { offset: 0x2A2B4, size: 0x8, addend: 0x0, symName: '__ZN4core3ptr107drop_in_place$LT$alloc..vec..Vec$LT$$LP$std..ffi..os_str..OsString$C$std..ffi..os_str..OsString$RP$$GT$$GT$17h54613c9c01320632E', symObjAddr: 0x1C64, symBinAddr: 0x10000EF60, symSize: 0x94 }
  - { offset: 0x2A4E7, size: 0x8, addend: 0x0, symName: '__ZN4core3ptr107drop_in_place$LT$core..pin..Pin$LT$alloc..boxed..Box$LT$std..sys..pal..unix..sync..mutex..Mutex$GT$$GT$$GT$17h3aeea96dd755cfb4E', symObjAddr: 0x1CF8, symBinAddr: 0x10000EFF4, symSize: 0x2C }
  - { offset: 0x2A58C, size: 0x8, addend: 0x0, symName: '__ZN4core3ptr119drop_in_place$LT$std..io..default_write_fmt..Adapter$LT$std..io..cursor..Cursor$LT$$RF$mut$u20$$u5b$u8$u5d$$GT$$GT$$GT$17h8294f296a7dc0264E', symObjAddr: 0x1DA8, symBinAddr: 0x10000F020, symSize: 0x10 }
  - { offset: 0x2A5A3, size: 0x8, addend: 0x0, symName: '__ZN4core3ptr119drop_in_place$LT$std..io..default_write_fmt..Adapter$LT$std..io..cursor..Cursor$LT$$RF$mut$u20$$u5b$u8$u5d$$GT$$GT$$GT$17h8294f296a7dc0264E', symObjAddr: 0x1DA8, symBinAddr: 0x10000F020, symSize: 0x10 }
  - { offset: 0x2A5C4, size: 0x8, addend: 0x0, symName: '__ZN4core3ptr123drop_in_place$LT$addr2line..Context$LT$gimli..read..endian_slice..EndianSlice$LT$gimli..endianity..LittleEndian$GT$$GT$$GT$17h86eb599b9bd6b6b4E', symObjAddr: 0x1DB8, symBinAddr: 0x10000F030, symSize: 0x70 }
  - { offset: 0x2A699, size: 0x8, addend: 0x0, symName: '__ZN4core3ptr124drop_in_place$LT$alloc..collections..btree..map..BTreeMap$LT$std..ffi..os_str..OsString$C$std..ffi..os_str..OsString$GT$$GT$17h3839acf51fe12fe1E', symObjAddr: 0x1E28, symBinAddr: 0x10000F0A0, symSize: 0xB8 }
  - { offset: 0x2A8CC, size: 0x8, addend: 0x0, symName: '__ZN4core3ptr124drop_in_place$LT$alloc..collections..btree..map..IntoIter$LT$std..ffi..os_str..OsString$C$std..ffi..os_str..OsString$GT$$GT$17h5df7ec7eeb3dc239E', symObjAddr: 0x1EE0, symBinAddr: 0x10000F158, symSize: 0x90 }
  - { offset: 0x2AAD5, size: 0x8, addend: 0x0, symName: '__ZN4core3ptr128drop_in_place$LT$core..result..Result$LT$$RF$std..thread..Thread$C$$LP$$RF$std..thread..Thread$C$std..thread..Thread$RP$$GT$$GT$17h962b0ef080f547dcE', symObjAddr: 0x1F70, symBinAddr: 0x10000F1E8, symSize: 0x28 }
  - { offset: 0x2AC7F, size: 0x8, addend: 0x0, symName: '__ZN4core3ptr129drop_in_place$LT$addr2line..unit..ResUnit$LT$gimli..read..endian_slice..EndianSlice$LT$gimli..endianity..LittleEndian$GT$$GT$$GT$17h6704d8d711f50964E', symObjAddr: 0x1F98, symBinAddr: 0x10000F210, symSize: 0xE4 }
  - { offset: 0x2AEA1, size: 0x8, addend: 0x0, symName: '__ZN4core3ptr129drop_in_place$LT$addr2line..unit..SupUnit$LT$gimli..read..endian_slice..EndianSlice$LT$gimli..endianity..LittleEndian$GT$$GT$$GT$17h3178d992ad3814bdE', symObjAddr: 0x207C, symBinAddr: 0x10000F2F4, symSize: 0x54 }
  - { offset: 0x2AF7C, size: 0x8, addend: 0x0, symName: '__ZN4core3ptr130drop_in_place$LT$addr2line..unit..ResUnits$LT$gimli..read..endian_slice..EndianSlice$LT$gimli..endianity..LittleEndian$GT$$GT$$GT$17hec2ee29328c5cc7bE', symObjAddr: 0x20D0, symBinAddr: 0x10000F348, symSize: 0xD0 }
  - { offset: 0x2B125, size: 0x8, addend: 0x0, symName: '__ZN4core3ptr130drop_in_place$LT$addr2line..unit..SupUnits$LT$gimli..read..endian_slice..EndianSlice$LT$gimli..endianity..LittleEndian$GT$$GT$$GT$17h1322e2d105d2f1f9E', symObjAddr: 0x21A0, symBinAddr: 0x10000F418, symSize: 0xE4 }
  - { offset: 0x2B2E3, size: 0x8, addend: 0x0, symName: '__ZN4core3ptr130drop_in_place$LT$gimli..read..dwarf..Dwarf$LT$gimli..read..endian_slice..EndianSlice$LT$gimli..endianity..LittleEndian$GT$$GT$$GT$17hf3b20fbd9db1a9fdE', symObjAddr: 0x2284, symBinAddr: 0x10000F4FC, symSize: 0x58 }
  - { offset: 0x2B3B1, size: 0x8, addend: 0x0, symName: '__ZN4core3ptr131drop_in_place$LT$$u5b$core..option..Option$LT$core..option..Option$LT$std..backtrace_rs..symbolize..gimli..Mapping$GT$$GT$$u5d$$GT$17h018dc685d3dd2730E', symObjAddr: 0x22DC, symBinAddr: 0x10000F554, symSize: 0xCC }
  - { offset: 0x2B45B, size: 0x8, addend: 0x0, symName: '__ZN4core3ptr137drop_in_place$LT$gimli..read..dwarf..Unit$LT$gimli..read..endian_slice..EndianSlice$LT$gimli..endianity..LittleEndian$GT$$C$usize$GT$$GT$17h4031e9c5dec06b9aE', symObjAddr: 0x246C, symBinAddr: 0x10000F620, symSize: 0x54 }
  - { offset: 0x2B558, size: 0x8, addend: 0x0, symName: '__ZN4core3ptr138drop_in_place$LT$addr2line..function..LazyFunction$LT$gimli..read..endian_slice..EndianSlice$LT$gimli..endianity..LittleEndian$GT$$GT$$GT$17ha3709aaa52158f89E', symObjAddr: 0x24C0, symBinAddr: 0x10000F674, symSize: 0x64 }
  - { offset: 0x2B56F, size: 0x8, addend: 0x0, symName: '__ZN4core3ptr138drop_in_place$LT$addr2line..function..LazyFunction$LT$gimli..read..endian_slice..EndianSlice$LT$gimli..endianity..LittleEndian$GT$$GT$$GT$17ha3709aaa52158f89E', symObjAddr: 0x24C0, symBinAddr: 0x10000F674, symSize: 0x64 }
  - { offset: 0x2B584, size: 0x8, addend: 0x0, symName: '__ZN4core3ptr138drop_in_place$LT$addr2line..function..LazyFunction$LT$gimli..read..endian_slice..EndianSlice$LT$gimli..endianity..LittleEndian$GT$$GT$$GT$17ha3709aaa52158f89E', symObjAddr: 0x24C0, symBinAddr: 0x10000F674, symSize: 0x64 }
  - { offset: 0x2B599, size: 0x8, addend: 0x0, symName: '__ZN4core3ptr138drop_in_place$LT$addr2line..function..LazyFunction$LT$gimli..read..endian_slice..EndianSlice$LT$gimli..endianity..LittleEndian$GT$$GT$$GT$17ha3709aaa52158f89E', symObjAddr: 0x24C0, symBinAddr: 0x10000F674, symSize: 0x64 }
  - { offset: 0x2B6DB, size: 0x8, addend: 0x0, symName: '__ZN4core3ptr144drop_in_place$LT$alloc..vec..Vec$LT$core..option..Option$LT$core..option..Option$LT$std..backtrace_rs..symbolize..gimli..Mapping$GT$$GT$$GT$$GT$17he58f1b72666b9c59E', symObjAddr: 0x2524, symBinAddr: 0x10000F6D8, symSize: 0x78 }
  - { offset: 0x2B843, size: 0x8, addend: 0x0, symName: '__ZN4core3ptr152drop_in_place$LT$alloc..vec..Vec$LT$addr2line..unit..ResUnit$LT$gimli..read..endian_slice..EndianSlice$LT$gimli..endianity..LittleEndian$GT$$GT$$GT$$GT$17he2165088e8298335E', symObjAddr: 0x2668, symBinAddr: 0x10000F750, symSize: 0xC4 }
  - { offset: 0x2B9B2, size: 0x8, addend: 0x0, symName: '__ZN4core3ptr152drop_in_place$LT$alloc..vec..Vec$LT$addr2line..unit..SupUnit$LT$gimli..read..endian_slice..EndianSlice$LT$gimli..endianity..LittleEndian$GT$$GT$$GT$$GT$17h87f5dc9d3cca3a77E', symObjAddr: 0x272C, symBinAddr: 0x10000F814, symSize: 0xF4 }
  - { offset: 0x2BBCA, size: 0x8, addend: 0x0, symName: '__ZN4core3ptr156drop_in_place$LT$alloc..boxed..Box$LT$$u5b$core..option..Option$LT$core..option..Option$LT$std..backtrace_rs..symbolize..gimli..Mapping$GT$$GT$$u5d$$GT$$GT$17h662502e0fd7f60b9E', symObjAddr: 0x2820, symBinAddr: 0x10000F908, symSize: 0xF8 }
  - { offset: 0x2BCF4, size: 0x8, addend: 0x0, symName: '__ZN4core3ptr159drop_in_place$LT$alloc..sync..ArcInner$LT$gimli..read..dwarf..Dwarf$LT$gimli..read..endian_slice..EndianSlice$LT$gimli..endianity..LittleEndian$GT$$GT$$GT$$GT$17ha75a7326775ef05eE', symObjAddr: 0x2918, symBinAddr: 0x10000FA00, symSize: 0x5C }
  - { offset: 0x2BDB9, size: 0x8, addend: 0x0, symName: '__ZN4core3ptr161drop_in_place$LT$alloc..vec..Vec$LT$addr2line..function..LazyFunction$LT$gimli..read..endian_slice..EndianSlice$LT$gimli..endianity..LittleEndian$GT$$GT$$GT$$GT$17hd921ce6f632b87b3E', symObjAddr: 0x2974, symBinAddr: 0x10000FA5C, symSize: 0xAC }
  - { offset: 0x2BFF6, size: 0x8, addend: 0x0, symName: '__ZN4core3ptr172drop_in_place$LT$core..result..Result$LT$addr2line..Context$LT$gimli..read..endian_slice..EndianSlice$LT$gimli..endianity..LittleEndian$GT$$GT$$C$gimli..read..Error$GT$$GT$17h1cda5e1d1a7951dcE', symObjAddr: 0x2ACC, symBinAddr: 0x10000FB08, symSize: 0x80 }
  - { offset: 0x2C08B, size: 0x8, addend: 0x0, symName: '__ZN4core3ptr173drop_in_place$LT$alloc..boxed..Box$LT$$u5b$addr2line..function..LazyFunction$LT$gimli..read..endian_slice..EndianSlice$LT$gimli..endianity..LittleEndian$GT$$GT$$u5d$$GT$$GT$17h34d35d9ea3d3b9d5E', symObjAddr: 0x2B4C, symBinAddr: 0x10000FB88, symSize: 0x9C }
  - { offset: 0x2C0A2, size: 0x8, addend: 0x0, symName: '__ZN4core3ptr173drop_in_place$LT$alloc..boxed..Box$LT$$u5b$addr2line..function..LazyFunction$LT$gimli..read..endian_slice..EndianSlice$LT$gimli..endianity..LittleEndian$GT$$GT$$u5d$$GT$$GT$17h34d35d9ea3d3b9d5E', symObjAddr: 0x2B4C, symBinAddr: 0x10000FB88, symSize: 0x9C }
  - { offset: 0x2C2E7, size: 0x8, addend: 0x0, symName: '__ZN4core3ptr181drop_in_place$LT$core..option..Option$LT$gimli..read..line..IncompleteLineProgram$LT$gimli..read..endian_slice..EndianSlice$LT$gimli..endianity..LittleEndian$GT$$C$usize$GT$$GT$$GT$17h59a58c9c9c958e24E', symObjAddr: 0x2C58, symBinAddr: 0x10000FC24, symSize: 0x98 }
  - { offset: 0x2C5A2, size: 0x8, addend: 0x0, symName: '__ZN4core3ptr181drop_in_place$LT$core..result..Result$LT$addr2line..frame..FrameIter$LT$gimli..read..endian_slice..EndianSlice$LT$gimli..endianity..LittleEndian$GT$$GT$$C$gimli..read..Error$GT$$GT$17h49f2f998bcc2f32aE', symObjAddr: 0x2CF0, symBinAddr: 0x10000FCBC, symSize: 0x34 }
  - { offset: 0x2C6E0, size: 0x8, addend: 0x0, symName: '__ZN4core3ptr184drop_in_place$LT$core..result..Result$LT$addr2line..function..Functions$LT$gimli..read..endian_slice..EndianSlice$LT$gimli..endianity..LittleEndian$GT$$GT$$C$gimli..read..Error$GT$$GT$17h10dd28e922629511E', symObjAddr: 0x2D24, symBinAddr: 0x10000FCF0, symSize: 0xD8 }
  - { offset: 0x2D272, size: 0x8, addend: 0x0, symName: '__ZN4core3ptr194drop_in_place$LT$core..result..Result$LT$std..sync..poison..mutex..MutexGuard$LT$$LP$$RP$$GT$$C$std..sync..poison..PoisonError$LT$std..sync..poison..mutex..MutexGuard$LT$$LP$$RP$$GT$$GT$$GT$$GT$17ha7e54304228a066cE', symObjAddr: 0x2E70, symBinAddr: 0x10000FDC8, symSize: 0x4C }
  - { offset: 0x2D2A2, size: 0x8, addend: 0x0, symName: '__ZN4core3ptr199drop_in_place$LT$core..result..Result$LT$core..option..Option$LT$alloc..sync..Arc$LT$std..sync..poison..mutex..Mutex$LT$alloc..vec..Vec$LT$u8$GT$$GT$$GT$$GT$$C$std..thread..local..AccessError$GT$$GT$17hc820eafe807d521eE', symObjAddr: 0x2EBC, symBinAddr: 0x10000FE14, symSize: 0x2C }
  - { offset: 0x2D369, size: 0x8, addend: 0x0, symName: '__ZN4core3ptr231drop_in_place$LT$core..result..Result$LT$core..option..Option$LT$alloc..boxed..Box$LT$addr2line..unit..DwoUnit$LT$gimli..read..endian_slice..EndianSlice$LT$gimli..endianity..LittleEndian$GT$$GT$$GT$$GT$$C$gimli..read..Error$GT$$GT$17hdbd1f85fa898eaf9E', symObjAddr: 0x2EE8, symBinAddr: 0x10000FE40, symSize: 0xD4 }
  - { offset: 0x2D552, size: 0x8, addend: 0x0, symName: '__ZN4core3ptr275drop_in_place$LT$gimli..read..line..LineRows$LT$gimli..read..endian_slice..EndianSlice$LT$gimli..endianity..LittleEndian$GT$$C$gimli..read..line..IncompleteLineProgram$LT$gimli..read..endian_slice..EndianSlice$LT$gimli..endianity..LittleEndian$GT$$C$usize$GT$$C$usize$GT$$GT$17hebba07efb64a969cE', symObjAddr: 0x2FD4, symBinAddr: 0x10000FF14, symSize: 0x8C }
  - { offset: 0x2D7C7, size: 0x8, addend: 0x0, symName: '__ZN4core3ptr280drop_in_place$LT$$LT$alloc..collections..btree..map..IntoIter$LT$K$C$V$C$A$GT$$u20$as$u20$core..ops..drop..Drop$GT$..drop..DropGuard$LT$u64$C$core..result..Result$LT$alloc..sync..Arc$LT$gimli..read..abbrev..Abbreviations$GT$$C$gimli..read..Error$GT$$C$alloc..alloc..Global$GT$$GT$17h605d7228f128decdE', symObjAddr: 0x3060, symBinAddr: 0x10000FFA0, symSize: 0x84 }
  - { offset: 0x2D937, size: 0x8, addend: 0x0, symName: '__ZN4core3ptr284drop_in_place$LT$core..result..Result$LT$$RF$core..result..Result$LT$addr2line..line..Lines$C$gimli..read..Error$GT$$C$$LP$$RF$core..result..Result$LT$addr2line..line..Lines$C$gimli..read..Error$GT$$C$core..result..Result$LT$addr2line..line..Lines$C$gimli..read..Error$GT$$RP$$GT$$GT$17h4c3f39ee410886d9E', symObjAddr: 0x30E4, symBinAddr: 0x100010024, symSize: 0x14 }
  - { offset: 0x2D992, size: 0x8, addend: 0x0, symName: '__ZN4core3ptr37drop_in_place$LT$std..env..VarsOs$GT$17h691c0706c4a0a296E', symObjAddr: 0x30F8, symBinAddr: 0x100010038, symSize: 0xAC }
  - { offset: 0x2DC91, size: 0x8, addend: 0x0, symName: '__ZN4core3ptr42drop_in_place$LT$alloc..string..String$GT$17hac81f7a4d168ae64E', symObjAddr: 0x32AC, symBinAddr: 0x1000100E4, symSize: 0x18 }
  - { offset: 0x2DCA8, size: 0x8, addend: 0x0, symName: '__ZN4core3ptr42drop_in_place$LT$alloc..string..String$GT$17hac81f7a4d168ae64E', symObjAddr: 0x32AC, symBinAddr: 0x1000100E4, symSize: 0x18 }
  - { offset: 0x2DD6C, size: 0x8, addend: 0x0, symName: '__ZN4core3ptr42drop_in_place$LT$std..io..error..Error$GT$17habd70f1b431d348cE', symObjAddr: 0x32C4, symBinAddr: 0x1000100FC, symSize: 0xAC }
  - { offset: 0x2DF96, size: 0x8, addend: 0x0, symName: '__ZN4core3ptr44drop_in_place$LT$object..read..ObjectMap$GT$17h70ce07c320cc7419E', symObjAddr: 0x3370, symBinAddr: 0x1000101A8, symSize: 0x58 }
  - { offset: 0x2E0C5, size: 0x8, addend: 0x0, symName: '__ZN4core3ptr46drop_in_place$LT$alloc..vec..Vec$LT$u8$GT$$GT$17hb337dff62f58fd0bE', symObjAddr: 0x3434, symBinAddr: 0x100010200, symSize: 0x18 }
  - { offset: 0x2E152, size: 0x8, addend: 0x0, symName: '__ZN4core3ptr46drop_in_place$LT$std..io..stdio..StdinLock$GT$17hb805540b2d8fd9f7E', symObjAddr: 0x344C, symBinAddr: 0x100010218, symSize: 0x54 }
  - { offset: 0x2E169, size: 0x8, addend: 0x0, symName: '__ZN4core3ptr46drop_in_place$LT$std..io..stdio..StdinLock$GT$17hb805540b2d8fd9f7E', symObjAddr: 0x344C, symBinAddr: 0x100010218, symSize: 0x54 }
  - { offset: 0x2E17E, size: 0x8, addend: 0x0, symName: '__ZN4core3ptr46drop_in_place$LT$std..io..stdio..StdinLock$GT$17hb805540b2d8fd9f7E', symObjAddr: 0x344C, symBinAddr: 0x100010218, symSize: 0x54 }
  - { offset: 0x2E270, size: 0x8, addend: 0x0, symName: '__ZN4core3ptr48drop_in_place$LT$alloc..ffi..c_str..NulError$GT$17h0aa90617c2ef35ffE', symObjAddr: 0x3584, symBinAddr: 0x10001026C, symSize: 0x18 }
  - { offset: 0x2E287, size: 0x8, addend: 0x0, symName: '__ZN4core3ptr48drop_in_place$LT$alloc..ffi..c_str..NulError$GT$17h0aa90617c2ef35ffE', symObjAddr: 0x3584, symBinAddr: 0x10001026C, symSize: 0x18 }
  - { offset: 0x2E313, size: 0x8, addend: 0x0, symName: '__ZN4core3ptr557drop_in_place$LT$core..result..Result$LT$$RF$core..result..Result$LT$addr2line..function..Function$LT$gimli..read..endian_slice..EndianSlice$LT$gimli..endianity..LittleEndian$GT$$GT$$C$gimli..read..Error$GT$$C$$LP$$RF$core..result..Result$LT$addr2line..function..Function$LT$gimli..read..endian_slice..EndianSlice$LT$gimli..endianity..LittleEndian$GT$$GT$$C$gimli..read..Error$GT$$C$core..result..Result$LT$addr2line..function..Function$LT$gimli..read..endian_slice..EndianSlice$LT$gimli..endianity..LittleEndian$GT$$GT$$C$gimli..read..Error$GT$$RP$$GT$$GT$17h748b27d3ad91b666E', symObjAddr: 0x37B0, symBinAddr: 0x100010284, symSize: 0x64 }
  - { offset: 0x2E4FD, size: 0x8, addend: 0x0, symName: '__ZN4core3ptr55drop_in_place$LT$gimli..read..abbrev..Abbreviations$GT$17h5d64ddc376f7673eE', symObjAddr: 0x3814, symBinAddr: 0x1000102E8, symSize: 0x118 }
  - { offset: 0x2E860, size: 0x8, addend: 0x0, symName: '__ZN4core3ptr560drop_in_place$LT$core..result..Result$LT$$RF$core..result..Result$LT$addr2line..function..Functions$LT$gimli..read..endian_slice..EndianSlice$LT$gimli..endianity..LittleEndian$GT$$GT$$C$gimli..read..Error$GT$$C$$LP$$RF$core..result..Result$LT$addr2line..function..Functions$LT$gimli..read..endian_slice..EndianSlice$LT$gimli..endianity..LittleEndian$GT$$GT$$C$gimli..read..Error$GT$$C$core..result..Result$LT$addr2line..function..Functions$LT$gimli..read..endian_slice..EndianSlice$LT$gimli..endianity..LittleEndian$GT$$GT$$C$gimli..read..Error$GT$$RP$$GT$$GT$17h20f4a6896059bba5E', symObjAddr: 0x39B0, symBinAddr: 0x100010400, symSize: 0x14 }
  - { offset: 0x2E8BB, size: 0x8, addend: 0x0, symName: '__ZN4core3ptr60drop_in_place$LT$gimli..read..abbrev..AbbreviationsCache$GT$17h07c70485ebd56478E', symObjAddr: 0x39C4, symBinAddr: 0x100010414, symSize: 0xCC }
  - { offset: 0x2EA82, size: 0x8, addend: 0x0, symName: '__ZN4core3ptr64drop_in_place$LT$std..sys..pal..unix..sync..mutex..AttrGuard$GT$17h0a5906221301930bE', symObjAddr: 0x3B1C, symBinAddr: 0x1000104E0, symSize: 0x48 }
  - { offset: 0x2EAB3, size: 0x8, addend: 0x0, symName: '__ZN4core3ptr64drop_in_place$LT$std..sys..process..unix..common..ChildPipes$GT$17h10e8f412fa846c73E', symObjAddr: 0x3B64, symBinAddr: 0x100010528, symSize: 0x78 }
  - { offset: 0x2EBC3, size: 0x8, addend: 0x0, symName: '__ZN4core3ptr64drop_in_place$LT$std..sys..process..unix..common..StdioPipes$GT$17hf4120600f772654aE', symObjAddr: 0x3BDC, symBinAddr: 0x1000105A0, symSize: 0x54 }
  - { offset: 0x2ED3B, size: 0x8, addend: 0x0, symName: '__ZN4core3ptr65drop_in_place$LT$alloc..vec..Vec$LT$alloc..string..String$GT$$GT$17h66cdbc24d9622501E', symObjAddr: 0x3C30, symBinAddr: 0x1000105F4, symSize: 0x80 }
  - { offset: 0x2EED9, size: 0x8, addend: 0x0, symName: '__ZN4core3ptr65drop_in_place$LT$std..backtrace_rs..symbolize..gimli..Context$GT$17h164c0942f12400dbE', symObjAddr: 0x3CB0, symBinAddr: 0x100010674, symSize: 0xE8 }
  - { offset: 0x2F16B, size: 0x8, addend: 0x0, symName: '__ZN4core3ptr66drop_in_place$LT$std..backtrace_rs..backtrace..libunwind..Bomb$GT$17h551fed0d2b731830E', symObjAddr: 0x3D98, symBinAddr: 0x10001075C, symSize: 0x40 }
  - { offset: 0x2F1B7, size: 0x8, addend: 0x0, symName: '__ZN4core3ptr701drop_in_place$LT$core..result..Result$LT$$RF$core..result..Result$LT$core..option..Option$LT$alloc..boxed..Box$LT$addr2line..unit..DwoUnit$LT$gimli..read..endian_slice..EndianSlice$LT$gimli..endianity..LittleEndian$GT$$GT$$GT$$GT$$C$gimli..read..Error$GT$$C$$LP$$RF$core..result..Result$LT$core..option..Option$LT$alloc..boxed..Box$LT$addr2line..unit..DwoUnit$LT$gimli..read..endian_slice..EndianSlice$LT$gimli..endianity..LittleEndian$GT$$GT$$GT$$GT$$C$gimli..read..Error$GT$$C$core..result..Result$LT$core..option..Option$LT$alloc..boxed..Box$LT$addr2line..unit..DwoUnit$LT$gimli..read..endian_slice..EndianSlice$LT$gimli..endianity..LittleEndian$GT$$GT$$GT$$GT$$C$gimli..read..Error$GT$$RP$$GT$$GT$17h99be7971756b6652E', symObjAddr: 0x3DD8, symBinAddr: 0x10001079C, symSize: 0x14 }
  - { offset: 0x2F258, size: 0x8, addend: 0x0, symName: '__ZN4core3ptr70drop_in_place$LT$std..backtrace_rs..symbolize..gimli..stash..Stash$GT$17hf2d48d9015d0f7c8E', symObjAddr: 0x3E6C, symBinAddr: 0x1000107B0, symSize: 0xB8 }
  - { offset: 0x2F4FE, size: 0x8, addend: 0x0, symName: '__ZN4core3ptr71drop_in_place$LT$std..backtrace_rs..symbolize..gimli..macho..Object$GT$17h8bb3839755842750E', symObjAddr: 0x3F24, symBinAddr: 0x100010868, symSize: 0xD8 }
  - { offset: 0x2F7D1, size: 0x8, addend: 0x0, symName: '__ZN4core3ptr72drop_in_place$LT$core..option..Option$LT$object..read..ObjectMap$GT$$GT$17hc7c56c88aae4c5fcE', symObjAddr: 0x4068, symBinAddr: 0x100010940, symSize: 0x64 }
  - { offset: 0x2F94E, size: 0x8, addend: 0x0, symName: '__ZN4core3ptr73drop_in_place$LT$alloc..vec..Vec$LT$addr2line..line..LineSequence$GT$$GT$17he296d46dd6d5cbabE', symObjAddr: 0x40CC, symBinAddr: 0x1000109A4, symSize: 0x84 }
  - { offset: 0x2FAB4, size: 0x8, addend: 0x0, symName: '__ZN4core3ptr77drop_in_place$LT$alloc..boxed..Box$LT$$u5b$alloc..string..String$u5d$$GT$$GT$17hc446220f14ad3f54E', symObjAddr: 0x4188, symBinAddr: 0x100010A28, symSize: 0x70 }
  - { offset: 0x2FACB, size: 0x8, addend: 0x0, symName: '__ZN4core3ptr77drop_in_place$LT$alloc..boxed..Box$LT$$u5b$alloc..string..String$u5d$$GT$$GT$17hc446220f14ad3f54E', symObjAddr: 0x4188, symBinAddr: 0x100010A28, symSize: 0x70 }
  - { offset: 0x2FBD7, size: 0x8, addend: 0x0, symName: '__ZN4core3ptr77drop_in_place$LT$std..panicking..begin_panic_handler..FormatStringPayload$GT$17h6fcfcc78704673e3E', symObjAddr: 0x41F8, symBinAddr: 0x100010A98, symSize: 0x24 }
  - { offset: 0x2FC93, size: 0x8, addend: 0x0, symName: '__ZN4core3ptr78drop_in_place$LT$core..result..Result$LT$usize$C$std..io..error..Error$GT$$GT$17h2f8ac36bcb547dffE', symObjAddr: 0x421C, symBinAddr: 0x100010ABC, symSize: 0x14 }
  - { offset: 0x2FCA7, size: 0x8, addend: 0x0, symName: '__ZN4core3ptr79drop_in_place$LT$std..sync..poison..rwlock..RwLockReadGuard$LT$$LP$$RP$$GT$$GT$17hc54fd0027bbd6d30E', symObjAddr: 0x4230, symBinAddr: 0x100010AD0, symSize: 0x58 }
  - { offset: 0x2FD43, size: 0x8, addend: 0x0, symName: '__ZN4core3ptr81drop_in_place$LT$core..result..Result$LT$$LP$$RP$$C$std..io..error..Error$GT$$GT$17ha905afa1a1b69da6E', symObjAddr: 0x4288, symBinAddr: 0x100010B28, symSize: 0x10 }
  - { offset: 0x2FD73, size: 0x8, addend: 0x0, symName: '__ZN4core3ptr81drop_in_place$LT$std..sys..process..unix..common..cstring_array..CStringArray$GT$17h601d89b39b80fabfE', symObjAddr: 0x4298, symBinAddr: 0x100010B38, symSize: 0xD0 }
  - { offset: 0x30096, size: 0x8, addend: 0x0, symName: '__ZN4core3ptr82drop_in_place$LT$alloc..sync..ArcInner$LT$std..sys..fs..unix..InnerReadDir$GT$$GT$17h5d4f495acfd7dae8E', symObjAddr: 0x4368, symBinAddr: 0x100010C08, symSize: 0x60 }
  - { offset: 0x30239, size: 0x8, addend: 0x0, symName: '__ZN4core3ptr84drop_in_place$LT$$LP$std..ffi..os_str..OsString$C$std..ffi..os_str..OsString$RP$$GT$17h62ddf8343f8db47bE', symObjAddr: 0x43C8, symBinAddr: 0x100010C68, symSize: 0x4C }
  - { offset: 0x303BE, size: 0x8, addend: 0x0, symName: '__ZN4core3ptr90drop_in_place$LT$std..io..buffered..bufwriter..BufWriter$LT$W$GT$..flush_buf..BufGuard$GT$17he92d49b51e4ad54fE', symObjAddr: 0x4450, symBinAddr: 0x100010CB4, symSize: 0x60 }
  - { offset: 0x30545, size: 0x8, addend: 0x0, symName: '__ZN4core3ptr92drop_in_place$LT$core..result..Result$LT$addr2line..line..Lines$C$gimli..read..Error$GT$$GT$17h0ed91c593b269246E', symObjAddr: 0x4508, symBinAddr: 0x100010D14, symSize: 0xE4 }
  - { offset: 0x3078B, size: 0x8, addend: 0x0, symName: '__ZN4core3ptr93drop_in_place$LT$core..option..Option$LT$std..backtrace_rs..symbolize..gimli..Mapping$GT$$GT$17h110055b033f66c0fE', symObjAddr: 0x45EC, symBinAddr: 0x100010DF8, symSize: 0x6C }
  - { offset: 0x30828, size: 0x8, addend: 0x0, symName: '__ZN4core3ptr95drop_in_place$LT$std..io..buffered..linewriter..LineWriter$LT$std..io..stdio..StdoutRaw$GT$$GT$17hc5979ba65a107f72E', symObjAddr: 0x4658, symBinAddr: 0x100010E64, symSize: 0xF8 }
  - { offset: 0x33A13, size: 0x8, addend: 0x0, symName: __ZN4core5slice4sort6stable14driftsort_main17h521ab17a5a757164E, symObjAddr: 0x9098, symBinAddr: 0x1000128DC, symSize: 0x140 }
  - { offset: 0x33CB6, size: 0x8, addend: 0x0, symName: __ZN4core5slice4sort6stable14driftsort_main17ha9075508af06de20E, symObjAddr: 0x91D8, symBinAddr: 0x100012A1C, symSize: 0x164 }
  - { offset: 0x33FAF, size: 0x8, addend: 0x0, symName: __ZN4core5slice4sort6stable14driftsort_main17hb0662f4917d01b7dE, symObjAddr: 0x933C, symBinAddr: 0x100012B80, symSize: 0x140 }
  - { offset: 0x34252, size: 0x8, addend: 0x0, symName: __ZN4core5slice4sort6stable14driftsort_main17hbec9c5ede644b796E, symObjAddr: 0x947C, symBinAddr: 0x100012CC0, symSize: 0x164 }
  - { offset: 0x3454B, size: 0x8, addend: 0x0, symName: __ZN4core5slice4sort6stable14driftsort_main17hc6af17bd05ac089fE, symObjAddr: 0x95E0, symBinAddr: 0x100012E24, symSize: 0x140 }
  - { offset: 0x3476C, size: 0x8, addend: 0x0, symName: __ZN4core5slice4sort6stable14driftsort_main17hfd7dcf5984234633E, symObjAddr: 0x9720, symBinAddr: 0x100012F64, symSize: 0x140 }
  - { offset: 0x34C00, size: 0x8, addend: 0x0, symName: __ZN4core5slice4sort6stable5drift4sort17h6aaaaf784e659385E, symObjAddr: 0x9860, symBinAddr: 0x1000130A4, symSize: 0x4E0 }
  - { offset: 0x351EF, size: 0x8, addend: 0x0, symName: __ZN4core5slice4sort6stable5drift4sort17h866748af94df36ccE, symObjAddr: 0x9D40, symBinAddr: 0x100013584, symSize: 0x538 }
  - { offset: 0x35882, size: 0x8, addend: 0x0, symName: __ZN4core5slice4sort6stable5drift4sort17h9ccd45f18f7947baE, symObjAddr: 0xA278, symBinAddr: 0x100013ABC, symSize: 0x4F8 }
  - { offset: 0x35F01, size: 0x8, addend: 0x0, symName: __ZN4core5slice4sort6stable5drift4sort17haa5e5863b64b9a60E, symObjAddr: 0xA770, symBinAddr: 0x100013FB4, symSize: 0x5EC }
  - { offset: 0x365BB, size: 0x8, addend: 0x0, symName: __ZN4core5slice4sort6stable5drift4sort17hb68090b03a5248c3E, symObjAddr: 0xAD5C, symBinAddr: 0x1000145A0, symSize: 0x530 }
  - { offset: 0x36C26, size: 0x8, addend: 0x0, symName: __ZN4core5slice4sort6stable5drift4sort17he935295b9297be3dE, symObjAddr: 0xB28C, symBinAddr: 0x100014AD0, symSize: 0x4F8 }
  - { offset: 0x374A9, size: 0x8, addend: 0x0, symName: __ZN4core5slice4sort6stable9quicksort9quicksort17h0ca9f036defe4ca1E, symObjAddr: 0xB784, symBinAddr: 0x100014FC8, symSize: 0x834 }
  - { offset: 0x38094, size: 0x8, addend: 0x0, symName: __ZN4core5slice4sort6stable9quicksort9quicksort17h0dcd6807bb10c1ddE, symObjAddr: 0xBFB8, symBinAddr: 0x1000157FC, symSize: 0x6D8 }
  - { offset: 0x38B54, size: 0x8, addend: 0x0, symName: __ZN4core5slice4sort6stable9quicksort9quicksort17h403c35809902d95cE, symObjAddr: 0xC690, symBinAddr: 0x100015ED4, symSize: 0x74C }
  - { offset: 0x39299, size: 0x8, addend: 0x0, symName: __ZN4core5slice4sort6stable9quicksort9quicksort17h52ed04d04eb94d9aE, symObjAddr: 0xCDDC, symBinAddr: 0x100016620, symSize: 0x834 }
  - { offset: 0x3A230, size: 0x8, addend: 0x0, symName: __ZN4core5slice4sort6stable9quicksort9quicksort17h6a6db67da80ded8fE, symObjAddr: 0xD610, symBinAddr: 0x100016E54, symSize: 0x6E0 }
  - { offset: 0x3ACF0, size: 0x8, addend: 0x0, symName: __ZN4core5slice4sort6stable9quicksort9quicksort17hfc1631ac0f214f19E, symObjAddr: 0xDCF0, symBinAddr: 0x100017534, symSize: 0x810 }
  - { offset: 0x3B96C, size: 0x8, addend: 0x0, symName: __ZN4core5slice4sort6shared9smallsort12sort4_stable17h31fac7551cf33bd2E, symObjAddr: 0x7F40, symBinAddr: 0x100011784, symSize: 0x194 }
  - { offset: 0x3BB19, size: 0x8, addend: 0x0, symName: __ZN4core5slice4sort6shared9smallsort12sort4_stable17hf90c0556197dda99E, symObjAddr: 0x80D4, symBinAddr: 0x100011918, symSize: 0x180 }
  - { offset: 0x3BF3B, size: 0x8, addend: 0x0, symName: __ZN4core5slice4sort6shared9smallsort12sort8_stable17hf7b6a991869544ccE, symObjAddr: 0x8254, symBinAddr: 0x100011A98, symSize: 0x2B8 }
  - { offset: 0x3C424, size: 0x8, addend: 0x0, symName: __ZN4core5slice4sort6shared9smallsort18small_sort_general17h034e2245b0bf43b0E, symObjAddr: 0x850C, symBinAddr: 0x100011D50, symSize: 0x400 }
  - { offset: 0x3C991, size: 0x8, addend: 0x0, symName: __ZN4core5slice4sort6shared9smallsort18small_sort_general17h87ad8da531a3f31aE, symObjAddr: 0x890C, symBinAddr: 0x100012150, symSize: 0x4A4 }
  - { offset: 0x3D089, size: 0x8, addend: 0x0, symName: __ZN4core5slice4sort6shared9smallsort25insertion_sort_shift_left17h42562c73653bb666E, symObjAddr: 0x8DB0, symBinAddr: 0x1000125F4, symSize: 0xA8 }
  - { offset: 0x3D161, size: 0x8, addend: 0x0, symName: __ZN4core5slice4sort6shared9smallsort25insertion_sort_shift_left17ha2f1b9cdd766aaa4E, symObjAddr: 0x8E58, symBinAddr: 0x10001269C, symSize: 0xB8 }
  - { offset: 0x3D28F, size: 0x8, addend: 0x0, symName: __ZN4core5slice4sort6shared9smallsort25insertion_sort_shift_left17hbf93252988a52ab7E, symObjAddr: 0x8F10, symBinAddr: 0x100012754, symSize: 0x94 }
  - { offset: 0x3D359, size: 0x8, addend: 0x0, symName: __ZN4core5slice4sort6shared9smallsort25insertion_sort_shift_left17hd501c44f9cc25640E, symObjAddr: 0x8FA4, symBinAddr: 0x1000127E8, symSize: 0xF4 }
  - { offset: 0x3D756, size: 0x8, addend: 0x0, symName: __ZN4core5slice4sort6shared5pivot11median3_rec17h0df86c062c3307f3E, symObjAddr: 0x781C, symBinAddr: 0x100011060, symSize: 0x11C }
  - { offset: 0x3D852, size: 0x8, addend: 0x0, symName: __ZN4core5slice4sort6shared5pivot11median3_rec17h4e5272a39440c6fcE, symObjAddr: 0x7938, symBinAddr: 0x10001117C, symSize: 0xCC }
  - { offset: 0x3D977, size: 0x8, addend: 0x0, symName: __ZN4core5slice4sort6shared5pivot11median3_rec17h5a457aecc5390e2dE, symObjAddr: 0x7A04, symBinAddr: 0x100011248, symSize: 0xD0 }
  - { offset: 0x3DA72, size: 0x8, addend: 0x0, symName: __ZN4core5slice4sort6shared5pivot11median3_rec17h63b3210c63d487e5E, symObjAddr: 0x7AD4, symBinAddr: 0x100011318, symSize: 0xD0 }
  - { offset: 0x3DB6B, size: 0x8, addend: 0x0, symName: __ZN4core5slice4sort6shared5pivot11median3_rec17h6546c17569d2c228E, symObjAddr: 0x7BA4, symBinAddr: 0x1000113E8, symSize: 0x134 }
  - { offset: 0x3DD92, size: 0x8, addend: 0x0, symName: __ZN4core5slice4sort6shared5pivot11median3_rec17h825498fa0147afcdE, symObjAddr: 0x7CD8, symBinAddr: 0x10001151C, symSize: 0xCC }
  - { offset: 0x3DE8B, size: 0x8, addend: 0x0, symName: __ZN4core5slice4sort6shared5pivot11median3_rec17hcc5592aee9a962d6E, symObjAddr: 0x7DA4, symBinAddr: 0x1000115E8, symSize: 0xCC }
  - { offset: 0x3DF84, size: 0x8, addend: 0x0, symName: __ZN4core5slice4sort6shared5pivot11median3_rec17hd5918a3d1c875d2dE, symObjAddr: 0x7E70, symBinAddr: 0x1000116B4, symSize: 0xD0 }
  - { offset: 0x3E147, size: 0x8, addend: 0x0, symName: __ZN4core5slice4sort8unstable7ipnsort17h3050acbcca3cb150E, symObjAddr: 0xE500, symBinAddr: 0x100017D44, symSize: 0xEC }
  - { offset: 0x3E289, size: 0x8, addend: 0x0, symName: __ZN4core5slice4sort8unstable7ipnsort17hfd87871531817c09E, symObjAddr: 0xE5EC, symBinAddr: 0x100017E30, symSize: 0x1A8 }
  - { offset: 0x3E55D, size: 0x8, addend: 0x0, symName: __ZN4core5slice4sort8unstable8heapsort8heapsort17h018ffb6550069dc5E, symObjAddr: 0xE794, symBinAddr: 0x100017FD8, symSize: 0x100 }
  - { offset: 0x3E749, size: 0x8, addend: 0x0, symName: __ZN4core5slice4sort8unstable8heapsort8heapsort17h13deb584184321b4E, symObjAddr: 0xE894, symBinAddr: 0x1000180D8, symSize: 0x160 }
  - { offset: 0x3EACC, size: 0x8, addend: 0x0, symName: __ZN4core5slice4sort8unstable9quicksort9quicksort17h6207a09384b1d73eE, symObjAddr: 0xE9F4, symBinAddr: 0x100018238, symSize: 0x598 }
  - { offset: 0x3F662, size: 0x8, addend: 0x0, symName: __ZN4core5slice4sort8unstable9quicksort9quicksort17hf6b9320c24c346cdE, symObjAddr: 0xEF8C, symBinAddr: 0x1000187D0, symSize: 0x408 }
  - { offset: 0x4001E, size: 0x8, addend: 0x0, symName: '__ZN36_$LT$T$u20$as$u20$core..any..Any$GT$7type_id17hca9570fd9e3ed26eE', symObjAddr: 0x160, symBinAddr: 0x10000E524, symSize: 0x24 }
  - { offset: 0x40038, size: 0x8, addend: 0x0, symName: '__ZN36_$LT$T$u20$as$u20$core..any..Any$GT$7type_id17he4b6f1bd2d030df3E', symObjAddr: 0x184, symBinAddr: 0x10000E548, symSize: 0x24 }
  - { offset: 0x400A6, size: 0x8, addend: 0x0, symName: '__ZN42_$LT$$RF$T$u20$as$u20$core..fmt..Debug$GT$3fmt17h0fc7b8965e6afc5aE', symObjAddr: 0x4CC, symBinAddr: 0x10000E56C, symSize: 0x74 }
  - { offset: 0x4013A, size: 0x8, addend: 0x0, symName: '__ZN42_$LT$$RF$T$u20$as$u20$core..fmt..Debug$GT$3fmt17h2958e9215852db4aE', symObjAddr: 0x540, symBinAddr: 0x10000E5E0, symSize: 0x1C }
  - { offset: 0x40180, size: 0x8, addend: 0x0, symName: '__ZN42_$LT$$RF$T$u20$as$u20$core..fmt..Debug$GT$3fmt17h2bb2d350b34dfff8E', symObjAddr: 0x55C, symBinAddr: 0x10000E5FC, symSize: 0x10 }
  - { offset: 0x401B1, size: 0x8, addend: 0x0, symName: '__ZN42_$LT$$RF$T$u20$as$u20$core..fmt..Debug$GT$3fmt17h83b5ff28188540c2E', symObjAddr: 0x7FC, symBinAddr: 0x10000E60C, symSize: 0x14 }
  - { offset: 0x401E2, size: 0x8, addend: 0x0, symName: '__ZN42_$LT$$RF$T$u20$as$u20$core..fmt..Debug$GT$3fmt17h8ac30dcc9c5b5849E', symObjAddr: 0x8B0, symBinAddr: 0x10000E620, symSize: 0x74 }
  - { offset: 0x402F9, size: 0x8, addend: 0x0, symName: '__ZN42_$LT$$RF$T$u20$as$u20$core..fmt..Debug$GT$3fmt17h8aff657d191ad3c5E', symObjAddr: 0x924, symBinAddr: 0x10000E694, symSize: 0x1C }
  - { offset: 0x4033F, size: 0x8, addend: 0x0, symName: '__ZN42_$LT$$RF$T$u20$as$u20$core..fmt..Debug$GT$3fmt17ha21c7837cadbd3f5E', symObjAddr: 0x9B8, symBinAddr: 0x10000E6B0, symSize: 0x10 }
  - { offset: 0x40361, size: 0x8, addend: 0x0, symName: '__ZN42_$LT$$RF$T$u20$as$u20$core..fmt..Debug$GT$3fmt17heec2750af2870f2eE', symObjAddr: 0xB68, symBinAddr: 0x10000E6C0, symSize: 0x9C }
  - { offset: 0x4049E, size: 0x8, addend: 0x0, symName: '__ZN4core3fmt3num50_$LT$impl$u20$core..fmt..Debug$u20$for$u20$i32$GT$3fmt17h31c367ae7db50eaeE', symObjAddr: 0xDA0, symBinAddr: 0x10000E7E4, symSize: 0x18 }
  - { offset: 0x404B5, size: 0x8, addend: 0x0, symName: '__ZN4core3fmt3num50_$LT$impl$u20$core..fmt..Debug$u20$for$u20$i32$GT$3fmt17h31c367ae7db50eaeE', symObjAddr: 0xDA0, symBinAddr: 0x10000E7E4, symSize: 0x18 }
  - { offset: 0x404E0, size: 0x8, addend: 0x0, symName: '__ZN4core3fmt3num52_$LT$impl$u20$core..fmt..Debug$u20$for$u20$usize$GT$3fmt17hd9a44c73645affdaE', symObjAddr: 0xE00, symBinAddr: 0x10000E7FC, symSize: 0x18 }
  - { offset: 0x404F7, size: 0x8, addend: 0x0, symName: '__ZN4core3fmt3num52_$LT$impl$u20$core..fmt..Debug$u20$for$u20$usize$GT$3fmt17hd9a44c73645affdaE', symObjAddr: 0xE00, symBinAddr: 0x10000E7FC, symSize: 0x18 }
  - { offset: 0x40531, size: 0x8, addend: 0x0, symName: '__ZN44_$LT$$RF$T$u20$as$u20$core..fmt..Display$GT$3fmt17h7aede7e1fafa8ecfE', symObjAddr: 0xCEC, symBinAddr: 0x10000E75C, symSize: 0x10 }
  - { offset: 0x4054C, size: 0x8, addend: 0x0, symName: '__ZN44_$LT$$RF$T$u20$as$u20$core..fmt..Display$GT$3fmt17hcdc89f6b7cdef95fE', symObjAddr: 0xCFC, symBinAddr: 0x10000E76C, symSize: 0x78 }
  - { offset: 0x40921, size: 0x8, addend: 0x0, symName: __ZN4core3fmt5Write10write_char17h45384c06e74ab019E, symObjAddr: 0xE18, symBinAddr: 0x10000E814, symSize: 0x150 }
  - { offset: 0x40AB8, size: 0x8, addend: 0x0, symName: __ZN4core3fmt5Write10write_char17h9a7a54bb0ca7d9cdE, symObjAddr: 0x10E8, symBinAddr: 0x10000E964, symSize: 0x128 }
  - { offset: 0x40C73, size: 0x8, addend: 0x0, symName: __ZN4core3fmt5Write10write_char17hb7b510f6e91dde12E, symObjAddr: 0x1350, symBinAddr: 0x10000EA8C, symSize: 0x180 }
  - { offset: 0x40E20, size: 0x8, addend: 0x0, symName: __ZN4core3fmt5Write10write_char17hdfb28a662f1dadabE, symObjAddr: 0x14D0, symBinAddr: 0x10000EC0C, symSize: 0x140 }
  - { offset: 0x40EF6, size: 0x8, addend: 0x0, symName: __ZN4core3fmt5Write9write_fmt17h13bdb2eccd0c285eE, symObjAddr: 0x1610, symBinAddr: 0x10000ED4C, symSize: 0x10 }
  - { offset: 0x40F25, size: 0x8, addend: 0x0, symName: __ZN4core3fmt5Write9write_fmt17h3d48754a628ad650E, symObjAddr: 0x1620, symBinAddr: 0x10000ED5C, symSize: 0x10 }
  - { offset: 0x40F54, size: 0x8, addend: 0x0, symName: __ZN4core3fmt5Write9write_fmt17h4270820d5fb62457E, symObjAddr: 0x1630, symBinAddr: 0x10000ED6C, symSize: 0x10 }
  - { offset: 0x40F83, size: 0x8, addend: 0x0, symName: __ZN4core3fmt5Write9write_fmt17ha2d460255287c06dE, symObjAddr: 0x1640, symBinAddr: 0x10000ED7C, symSize: 0x10 }
  - { offset: 0x40FB2, size: 0x8, addend: 0x0, symName: __ZN4core3fmt5Write9write_fmt17ha8ecdcf0f48f38acE, symObjAddr: 0x1650, symBinAddr: 0x10000ED8C, symSize: 0x10 }
  - { offset: 0x4100F, size: 0x8, addend: 0x0, symName: '__ZN50_$LT$$BP$mut$u20$T$u20$as$u20$core..fmt..Debug$GT$3fmt17h0e71da53ffdbf142E', symObjAddr: 0xF410, symBinAddr: 0x100018BD8, symSize: 0x8 }
  - { offset: 0x4102D, size: 0x8, addend: 0x0, symName: '__ZN50_$LT$$BP$mut$u20$T$u20$as$u20$core..fmt..Debug$GT$3fmt17h0e71da53ffdbf142E', symObjAddr: 0xF410, symBinAddr: 0x100018BD8, symSize: 0x8 }
  - { offset: 0x4105C, size: 0x8, addend: 0x0, symName: '__ZN52_$LT$$RF$mut$u20$T$u20$as$u20$core..fmt..Display$GT$3fmt17hc5f28addd174597dE', symObjAddr: 0xF500, symBinAddr: 0x100018BE0, symSize: 0x10 }
  - { offset: 0x410C2, size: 0x8, addend: 0x0, symName: '__ZN55_$LT$$RF$str$u20$as$u20$core..str..pattern..Pattern$GT$15is_contained_in17hf6a15fe5f9aec0c7E', symObjAddr: 0xF510, symBinAddr: 0x100018BF0, symSize: 0x3C0 }
  - { offset: 0x41B15, size: 0x8, addend: 0x0, symName: '__ZN70_$LT$core..num..error..TryFromIntError$u20$as$u20$core..fmt..Debug$GT$3fmt17h43e59b0425417061E', symObjAddr: 0x1C570, symBinAddr: 0x1000240DC, symSize: 0x40 }
  - { offset: 0x41C17, size: 0x8, addend: 0x0, symName: '__ZN4core5array69_$LT$impl$u20$core..fmt..Debug$u20$for$u20$$u5b$T$u3b$$u20$N$u5d$$GT$3fmt17h666d4f1ab6b28ee7E', symObjAddr: 0x76B8, symBinAddr: 0x100010F5C, symSize: 0xFC }
  - { offset: 0x4213A, size: 0x8, addend: 0x0, symName: __ZN4core5panic12PanicPayload6as_str17h55b7c7a41678db2dE, symObjAddr: 0x7814, symBinAddr: 0x100011058, symSize: 0x8 }
  - { offset: 0x42992, size: 0x8, addend: 0x0, symName: '__ZN4core3ops8function6FnOnce40call_once$u7b$$u7b$vtable.shim$u7d$$u7d$17h0256ef3c49b7fef6E', symObjAddr: 0x190C, symBinAddr: 0x10000ED9C, symSize: 0xC }
  - { offset: 0x429E3, size: 0x8, addend: 0x0, symName: '__ZN4core3ops8function6FnOnce40call_once$u7b$$u7b$vtable.shim$u7d$$u7d$17h1a440162a384b96dE', symObjAddr: 0x1918, symBinAddr: 0x10000EDA8, symSize: 0x4 }
  - { offset: 0x42A00, size: 0x8, addend: 0x0, symName: '__ZN4core3ops8function6FnOnce40call_once$u7b$$u7b$vtable.shim$u7d$$u7d$17h1a440162a384b96dE', symObjAddr: 0x1918, symBinAddr: 0x10000EDA8, symSize: 0x4 }
  - { offset: 0x42A1F, size: 0x8, addend: 0x0, symName: '__ZN4core3ops8function6FnOnce40call_once$u7b$$u7b$vtable.shim$u7d$$u7d$17h5a3ea79ed9b56f49E', symObjAddr: 0x1924, symBinAddr: 0x10000EDAC, symSize: 0x28 }
  - { offset: 0x42A5B, size: 0x8, addend: 0x0, symName: '__ZN4core3ops8function6FnOnce40call_once$u7b$$u7b$vtable.shim$u7d$$u7d$17h6ef6b541deff04acE', symObjAddr: 0x194C, symBinAddr: 0x10000EDD4, symSize: 0xC }
  - { offset: 0x42AAC, size: 0x8, addend: 0x0, symName: '__ZN4core3ops8function6FnOnce40call_once$u7b$$u7b$vtable.shim$u7d$$u7d$17h8b0e1f22722d72f6E', symObjAddr: 0x19F4, symBinAddr: 0x10000EDE0, symSize: 0x4 }
  - { offset: 0x42AC9, size: 0x8, addend: 0x0, symName: '__ZN4core3ops8function6FnOnce40call_once$u7b$$u7b$vtable.shim$u7d$$u7d$17h8b0e1f22722d72f6E', symObjAddr: 0x19F4, symBinAddr: 0x10000EDE0, symSize: 0x4 }
  - { offset: 0x42AE8, size: 0x8, addend: 0x0, symName: '__ZN4core3ops8function6FnOnce40call_once$u7b$$u7b$vtable.shim$u7d$$u7d$17h9b4a9096c70fd176E', symObjAddr: 0x1A38, symBinAddr: 0x10000EDE4, symSize: 0xA4 }
  - { offset: 0x42C2E, size: 0x8, addend: 0x0, symName: '__ZN4core3ops8function6FnOnce40call_once$u7b$$u7b$vtable.shim$u7d$$u7d$17hb135094d08c6abcbE', symObjAddr: 0x1ADC, symBinAddr: 0x10000EE88, symSize: 0x60 }
  - { offset: 0x42D12, size: 0x8, addend: 0x0, symName: '__ZN4core3ops8function6FnOnce40call_once$u7b$$u7b$vtable.shim$u7d$$u7d$17hda98b980b7e364a0E', symObjAddr: 0x1B3C, symBinAddr: 0x10000EEE8, symSize: 0x78 }
  - { offset: 0x45729, size: 0x8, addend: 0x0, symName: '__ZN4core4cell4once17OnceCell$LT$T$GT$8try_init17h1f3ae8fa04109d74E', symObjAddr: 0x4750, symBinAddr: 0x100044C2C, symSize: 0x60 }
  - { offset: 0x45747, size: 0x8, addend: 0x0, symName: '__ZN4core4cell4once17OnceCell$LT$T$GT$8try_init17h1f3ae8fa04109d74E', symObjAddr: 0x4750, symBinAddr: 0x100044C2C, symSize: 0x60 }
  - { offset: 0x4575C, size: 0x8, addend: 0x0, symName: '__ZN4core4cell4once17OnceCell$LT$T$GT$8try_init17h1f3ae8fa04109d74E', symObjAddr: 0x4750, symBinAddr: 0x100044C2C, symSize: 0x60 }
  - { offset: 0x45770, size: 0x8, addend: 0x0, symName: '__ZN4core4cell4once17OnceCell$LT$T$GT$8try_init17h1f3ae8fa04109d74E', symObjAddr: 0x4750, symBinAddr: 0x100044C2C, symSize: 0x60 }
  - { offset: 0x457C7, size: 0x8, addend: 0x0, symName: '__ZN4core4cell4once17OnceCell$LT$T$GT$8try_init17h5030d0cfd605f88aE', symObjAddr: 0x47B0, symBinAddr: 0x100044C8C, symSize: 0x678 }
  - { offset: 0x46489, size: 0x8, addend: 0x0, symName: '__ZN4core4cell4once17OnceCell$LT$T$GT$8try_init17hb2acaa81388d9a1dE', symObjAddr: 0x4E28, symBinAddr: 0x100045304, symSize: 0x110 }
  - { offset: 0x4676D, size: 0x8, addend: 0x0, symName: '__ZN4core4cell4once17OnceCell$LT$T$GT$8try_init17hec4c6057203f18caE', symObjAddr: 0x4F38, symBinAddr: 0x100045414, symSize: 0x1AC4 }
  - { offset: 0x49A26, size: 0x8, addend: 0x0, symName: '__ZN4core4cell4once17OnceCell$LT$T$GT$8try_init17hf59b8f3666c9e504E', symObjAddr: 0x69FC, symBinAddr: 0x100046ED8, symSize: 0x80 }
  - { offset: 0x49AD9, size: 0x8, addend: 0x0, symName: '__ZN4core4cell4once17OnceCell$LT$T$GT$8try_init17hfae89e2951f245baE', symObjAddr: 0x6A7C, symBinAddr: 0x100046F58, symSize: 0xC3C }
  - { offset: 0x4BAF0, size: 0x8, addend: 0x0, symName: __ZN4core9panicking13assert_failed17h49968851add484acE, symObjAddr: 0xF3B8, symBinAddr: 0x100047B94, symSize: 0x34 }
  - { offset: 0x4BB0B, size: 0x8, addend: 0x0, symName: __ZN4core9panicking13assert_failed17h8219ec77f299110cE, symObjAddr: 0xF3EC, symBinAddr: 0x100047BC8, symSize: 0x24 }
  - { offset: 0x4BF38, size: 0x8, addend: 0x0, symName: __ZN3std9panicking11panic_count8increase17h5d061070c09c1b20E, symObjAddr: 0x3BDA0, symBinAddr: 0x10002C5B8, symSize: 0x64 }
  - { offset: 0x4BF4F, size: 0x8, addend: 0x0, symName: __ZN3std9panicking11panic_count8increase17h5d061070c09c1b20E, symObjAddr: 0x3BDA0, symBinAddr: 0x10002C5B8, symSize: 0x64 }
  - { offset: 0x4BF64, size: 0x8, addend: 0x0, symName: __ZN3std9panicking11panic_count8increase17h5d061070c09c1b20E, symObjAddr: 0x3BDA0, symBinAddr: 0x10002C5B8, symSize: 0x64 }
  - { offset: 0x4C043, size: 0x8, addend: 0x0, symName: __ZN3std9panicking11panic_count17is_zero_slow_path17h01eb20a9cec6a821E, symObjAddr: 0x3BE8C, symBinAddr: 0x100048434, symSize: 0x2C }
  - { offset: 0x4C1A3, size: 0x8, addend: 0x0, symName: __RNvCs73fAdSrgOJL_7___rustc17___rust_drop_panic, symObjAddr: 0x3B3E8, symBinAddr: 0x10002BE6C, symSize: 0xBC }
  - { offset: 0x4C398, size: 0x8, addend: 0x0, symName: __RNvCs73fAdSrgOJL_7___rustc24___rust_foreign_exception, symObjAddr: 0x3B4A4, symBinAddr: 0x10002BF28, symSize: 0xBC }
  - { offset: 0x4C58D, size: 0x8, addend: 0x0, symName: __ZN3std9panicking12default_hook17h8875fb31ec87dfadE, symObjAddr: 0x3B7CC, symBinAddr: 0x10002BFE4, symSize: 0x1AC }
  - { offset: 0x4C8CB, size: 0x8, addend: 0x0, symName: '__ZN3std9panicking12default_hook28_$u7b$$u7b$closure$u7d$$u7d$17hf623c44b740b115fE', symObjAddr: 0x3B978, symBinAddr: 0x10002C190, symSize: 0x1A4 }
  - { offset: 0x4CAA2, size: 0x8, addend: 0x0, symName: '__ZN3std9panicking12default_hook28_$u7b$$u7b$closure$u7d$$u7d$28_$u7b$$u7b$closure$u7d$$u7d$17hf47d63ca0778dae1E', symObjAddr: 0x3BB1C, symBinAddr: 0x10002C334, symSize: 0x284 }
  - { offset: 0x4CF18, size: 0x8, addend: 0x0, symName: __RNvCs73fAdSrgOJL_7___rustc17rust_begin_unwind, symObjAddr: 0x3BF00, symBinAddr: 0x10002C61C, symSize: 0x20 }
  - { offset: 0x4CF81, size: 0x8, addend: 0x0, symName: '__ZN102_$LT$std..panicking..begin_panic_handler..FormatStringPayload$u20$as$u20$core..panic..PanicPayload$GT$8take_box17h223afba6ccee5cb1E', symObjAddr: 0x3BF20, symBinAddr: 0x10002C63C, symSize: 0x118 }
  - { offset: 0x4D1FD, size: 0x8, addend: 0x0, symName: '__ZN102_$LT$std..panicking..begin_panic_handler..FormatStringPayload$u20$as$u20$core..panic..PanicPayload$GT$3get17h4f88f29aab2fd10fE', symObjAddr: 0x3C038, symBinAddr: 0x10002C754, symSize: 0xB0 }
  - { offset: 0x4D336, size: 0x8, addend: 0x0, symName: '__ZN95_$LT$std..panicking..begin_panic_handler..FormatStringPayload$u20$as$u20$core..fmt..Display$GT$3fmt17hb0af82e86096f7f0E', symObjAddr: 0x3C0E8, symBinAddr: 0x10002C804, symSize: 0x5C }
  - { offset: 0x4D433, size: 0x8, addend: 0x0, symName: '__ZN99_$LT$std..panicking..begin_panic_handler..StaticStrPayload$u20$as$u20$core..panic..PanicPayload$GT$8take_box17h0df143ef4488f020E', symObjAddr: 0x3C144, symBinAddr: 0x10002C860, symSize: 0x48 }
  - { offset: 0x4D4AA, size: 0x8, addend: 0x0, symName: '__ZN99_$LT$std..panicking..begin_panic_handler..StaticStrPayload$u20$as$u20$core..panic..PanicPayload$GT$3get17h5775715a100ee158E', symObjAddr: 0x3C18C, symBinAddr: 0x10002C8A8, symSize: 0xC }
  - { offset: 0x4D4C5, size: 0x8, addend: 0x0, symName: '__ZN99_$LT$std..panicking..begin_panic_handler..StaticStrPayload$u20$as$u20$core..panic..PanicPayload$GT$6as_str17h4a89cb46754932c0E', symObjAddr: 0x3C198, symBinAddr: 0x10002C8B4, symSize: 0xC }
  - { offset: 0x4D4E6, size: 0x8, addend: 0x0, symName: '__ZN92_$LT$std..panicking..begin_panic_handler..StaticStrPayload$u20$as$u20$core..fmt..Display$GT$3fmt17h97bd842622e6ccedE', symObjAddr: 0x3C1A4, symBinAddr: 0x10002C8C0, symSize: 0x10 }
  - { offset: 0x4D502, size: 0x8, addend: 0x0, symName: '__ZN3std9panicking19begin_panic_handler28_$u7b$$u7b$closure$u7d$$u7d$17hdf417b72ab8ffff8E', symObjAddr: 0x3C1B4, symBinAddr: 0x10002C8D0, symSize: 0xC4 }
  - { offset: 0x4D66A, size: 0x8, addend: 0x0, symName: __ZN3std9panicking14payload_as_str17h9b5790cdb2b550fcE, symObjAddr: 0x3C35C, symBinAddr: 0x10002C994, symSize: 0xB0 }
  - { offset: 0x4D74E, size: 0x8, addend: 0x0, symName: __ZN3std9panicking20rust_panic_with_hook17hdd8ceeeb04975c2bE, symObjAddr: 0x3C40C, symBinAddr: 0x10002CA44, symSize: 0x398 }
  - { offset: 0x4DF9B, size: 0x8, addend: 0x0, symName: __RNvCs73fAdSrgOJL_7___rustc10rust_panic, symObjAddr: 0x3C898, symBinAddr: 0x100048460, symSize: 0x60 }
  - { offset: 0x4E109, size: 0x8, addend: 0x0, symName: __ZN3std3sys7process4unix4unix7Process4wait17hf16eee4591add28bE, symObjAddr: 0x47350, symBinAddr: 0x100031890, symSize: 0xA0 }
  - { offset: 0x4E2CC, size: 0x8, addend: 0x0, symName: '__ZN102_$LT$std..sys..process..unix..common..cstring_array..CStringArray$u20$as$u20$core..ops..drop..Drop$GT$4drop17h78e7b17770d00f7eE', symObjAddr: 0x44808, symBinAddr: 0x10002FA98, symSize: 0x70 }
  - { offset: 0x4E3E5, size: 0x8, addend: 0x0, symName: __ZN3std3sys7process4unix6common13cstring_array12CStringArray13with_capacity17h99fa5c23e0df8330E, symObjAddr: 0x44628, symBinAddr: 0x10002F9C0, symSize: 0xD8 }
  - { offset: 0x4E5A6, size: 0x8, addend: 0x0, symName: __ZN3std3sys7process4unix6common7Command3new17hee79130fbef3296eE, symObjAddr: 0x448E8, symBinAddr: 0x10002FB08, symSize: 0x284 }
  - { offset: 0x4EA62, size: 0x8, addend: 0x0, symName: __ZN3std3sys7process4unix6common7Command3arg17h226ffd4f27122ef8E, symObjAddr: 0x44CB4, symBinAddr: 0x10002FD8C, symSize: 0xEC }
  - { offset: 0x4ED64, size: 0x8, addend: 0x0, symName: __ZN3std3sys7process4unix6common7Command11capture_env17h0cfcb5df006c563cE, symObjAddr: 0x450C4, symBinAddr: 0x10002FE78, symSize: 0x91C }
  - { offset: 0x50608, size: 0x8, addend: 0x0, symName: __ZN3std3sys7process4unix6common7Command8setup_io17h49fecf1d8531d22fE, symObjAddr: 0x459E0, symBinAddr: 0x100030794, symSize: 0x2F8 }
  - { offset: 0x50ABF, size: 0x8, addend: 0x0, symName: '__ZN3std3sys7process4unix4unix58_$LT$impl$u20$std..sys..process..unix..common..Command$GT$5spawn17h83be88a7218a58a1E', symObjAddr: 0x46674, symBinAddr: 0x100030BE8, symSize: 0x928 }
  - { offset: 0x51B15, size: 0x8, addend: 0x0, symName: '__ZN3std3sys7process4unix4unix58_$LT$impl$u20$std..sys..process..unix..common..Command$GT$7do_exec17h7cf7ac48f439483cE', symObjAddr: 0x46F9C, symBinAddr: 0x100031510, symSize: 0x380 }
  - { offset: 0x5248B, size: 0x8, addend: 0x0, symName: __ZN3std3sys7process4unix6common5Stdio14to_child_stdio17hb95d2f9ba1abe590E, symObjAddr: 0x45CD8, symBinAddr: 0x100030A8C, symSize: 0x15C }
  - { offset: 0x52694, size: 0x8, addend: 0x0, symName: __ZN3std3sys2fs4unix4File6open_c17h5a31c1e924c31a39E, symObjAddr: 0x4151C, symBinAddr: 0x10002F810, symSize: 0x1B0 }
  - { offset: 0x52833, size: 0x8, addend: 0x0, symName: '__ZN65_$LT$std..sys..fs..unix..Dir$u20$as$u20$core..ops..drop..Drop$GT$4drop17hda69c3116f0d01f9E', symObjAddr: 0x411B8, symBinAddr: 0x10002F744, symSize: 0xCC }
  - { offset: 0x528FE, size: 0x8, addend: 0x0, symName: __ZN3std3sys2fs8read_dir17ha4d851693f34a78dE, symObjAddr: 0x38968, symBinAddr: 0x10002B9E0, symSize: 0x19C }
  - { offset: 0x52C06, size: 0x8, addend: 0x0, symName: __ZN3std3sys2fd4unix8FileDesc11read_to_end17h4dd597c33f28b34bE, symObjAddr: 0x40840, symBinAddr: 0x10002F508, symSize: 0x23C }
  - { offset: 0x53129, size: 0x8, addend: 0x0, symName: __ZN3std3sys3pal4unix4sync5mutex5Mutex4init17he47bfeffad10ab23E, symObjAddr: 0x3F018, symBinAddr: 0x10002EB38, symSize: 0x16C }
  - { offset: 0x531E0, size: 0x8, addend: 0x0, symName: __ZN3std3sys3pal4unix4sync5mutex5Mutex4lock4fail17hc6db7b5c9b0389a0E, symObjAddr: 0x3F1A0, symBinAddr: 0x100048518, symSize: 0xE4 }
  - { offset: 0x534D3, size: 0x8, addend: 0x0, symName: __ZN3std3sys3pal4unix14stack_overflow3imp14signal_handler17h46f8ef1aa7528f43E, symObjAddr: 0x3E7B8, symBinAddr: 0x10002E2D8, symSize: 0x290 }
  - { offset: 0x53AA4, size: 0x8, addend: 0x0, symName: __ZN3std3sys3pal4unix14stack_overflow3imp12make_handler17he67200fb708acd59E, symObjAddr: 0x3EA48, symBinAddr: 0x10002E568, symSize: 0x234 }
  - { offset: 0x53E54, size: 0x8, addend: 0x0, symName: __ZN3std3sys3pal4unix14stack_overflow3imp12drop_handler17h683641cfe3e92d15E, symObjAddr: 0x3EC7C, symBinAddr: 0x10002E79C, symSize: 0x39C }
  - { offset: 0x546B6, size: 0x8, addend: 0x0, symName: __ZN3std3sys3pal4unix14stack_overflow11thread_info16set_current_info17hdef3efae36137112E, symObjAddr: 0x3DE70, symBinAddr: 0x10002D990, symSize: 0x948 }
  - { offset: 0x55A65, size: 0x8, addend: 0x0, symName: __ZN3std3sys3pal4unix4pipe8AnonPipe5write17h16a4c9da9673706eE, symObjAddr: 0x3DBAC, symBinAddr: 0x10002D6E4, symSize: 0x54 }
  - { offset: 0x55B42, size: 0x8, addend: 0x0, symName: __ZN3std3sys3pal4unix4pipe9anon_pipe17ha2e56c5565a24655E, symObjAddr: 0x3DA84, symBinAddr: 0x10002D5BC, symSize: 0x128 }
  - { offset: 0x55E37, size: 0x8, addend: 0x0, symName: __ZN3std3sys3pal4unix4pipe5read217h426c633f7d168e0dE, symObjAddr: 0x3DC00, symBinAddr: 0x10002D738, symSize: 0x258 }
  - { offset: 0x56365, size: 0x8, addend: 0x0, symName: '__ZN3std3sys3pal4unix4weak18DlsymWeak$LT$F$GT$10initialize17ha6b700ee2a93a6c2E', symObjAddr: 0x3D788, symBinAddr: 0x1000484C0, symSize: 0x58 }
  - { offset: 0x563E7, size: 0x8, addend: 0x0, symName: __ZN3std3sys3pal4unix17decode_error_kind17haabc64936b405e49E, symObjAddr: 0x3FA78, symBinAddr: 0x10002ECA4, symSize: 0x150 }
  - { offset: 0x56401, size: 0x8, addend: 0x0, symName: __ZN3std3sys3pal4unix14abort_internal17ha2b174aef73aaa99E, symObjAddr: 0x3FBC8, symBinAddr: 0x1000485FC, symSize: 0xC }
  - { offset: 0x5649F, size: 0x8, addend: 0x0, symName: __ZN3std3sys3pal6common14small_c_string24run_with_cstr_allocating17h62eae881f61189b9E, symObjAddr: 0x37AA8, symBinAddr: 0x10004813C, symSize: 0xC4 }
  - { offset: 0x56668, size: 0x8, addend: 0x0, symName: __ZN3std3sys3pal6common14small_c_string24run_with_cstr_allocating17h849b8fb7465c671dE, symObjAddr: 0x37B6C, symBinAddr: 0x100048200, symSize: 0xAC }
  - { offset: 0x567C4, size: 0x8, addend: 0x0, symName: __ZN3std3sys3pal6common14small_c_string24run_with_cstr_allocating17hf63fa4ece05c9b45E, symObjAddr: 0x37CE8, symBinAddr: 0x1000482AC, symSize: 0xA4 }
  - { offset: 0x56981, size: 0x8, addend: 0x0, symName: '__ZN64_$LT$std..sys..stdio..unix..Stderr$u20$as$u20$std..io..Write$GT$5write17h3b1932d17393f261E', symObjAddr: 0x47870, symBinAddr: 0x100031930, symSize: 0x58 }
  - { offset: 0x56A57, size: 0x8, addend: 0x0, symName: '__ZN64_$LT$std..sys..stdio..unix..Stderr$u20$as$u20$std..io..Write$GT$14write_vectored17h8ff0487a5ca382e1E', symObjAddr: 0x478C8, symBinAddr: 0x100031988, symSize: 0x58 }
  - { offset: 0x56B2D, size: 0x8, addend: 0x0, symName: '__ZN64_$LT$std..sys..stdio..unix..Stderr$u20$as$u20$std..io..Write$GT$17is_write_vectored17h806729f05e1b02f1E', symObjAddr: 0x47920, symBinAddr: 0x1000319E0, symSize: 0x8 }
  - { offset: 0x56B47, size: 0x8, addend: 0x0, symName: '__ZN64_$LT$std..sys..stdio..unix..Stderr$u20$as$u20$std..io..Write$GT$5flush17ha8134fdfc2044e22E', symObjAddr: 0x47928, symBinAddr: 0x1000319E8, symSize: 0x8 }
  - { offset: 0x56B8F, size: 0x8, addend: 0x0, symName: '__ZN3std3sys11personality3gcc14find_eh_action28_$u7b$$u7b$closure$u7d$$u7d$17h8e0a401f13cba7b2E', symObjAddr: 0x3FBD4, symBinAddr: 0x10002EDF4, symSize: 0xC }
  - { offset: 0x56BA3, size: 0x8, addend: 0x0, symName: '__ZN3std3sys11personality3gcc14find_eh_action28_$u7b$$u7b$closure$u7d$$u7d$17hb37e74614c39fe5bE', symObjAddr: 0x3FBE0, symBinAddr: 0x10002EE00, symSize: 0xC }
  - { offset: 0x56BD3, size: 0x8, addend: 0x0, symName: _rust_eh_personality, symObjAddr: 0x3FBEC, symBinAddr: 0x10002EE0C, symSize: 0x378 }
  - { offset: 0x56F5C, size: 0x8, addend: 0x0, symName: __ZN3std3sys11personality5dwarf2eh19read_encoded_offset17ha35e0bf259a51371E, symObjAddr: 0x37E3C, symBinAddr: 0x10002B0F4, symSize: 0x148 }
  - { offset: 0x570DC, size: 0x8, addend: 0x0, symName: '__ZN3std3sys9backtrace10_print_fmt28_$u7b$$u7b$closure$u7d$$u7d$17h53593d80dca05be6E', symObjAddr: 0x382E8, symBinAddr: 0x10002B528, symSize: 0x24 }
  - { offset: 0x57105, size: 0x8, addend: 0x0, symName: '__ZN3std3sys9backtrace10_print_fmt28_$u7b$$u7b$closure$u7d$$u7d$17h562a49be56385aceE', symObjAddr: 0x3830C, symBinAddr: 0x10002B54C, symSize: 0x130 }
  - { offset: 0x57219, size: 0x8, addend: 0x0, symName: '__ZN3std3sys9backtrace10_print_fmt28_$u7b$$u7b$closure$u7d$$u7d$28_$u7b$$u7b$closure$u7d$$u7d$17had6f8f8b94a1d5d2E', symObjAddr: 0x3843C, symBinAddr: 0x10002B67C, symSize: 0x264 }
  - { offset: 0x57448, size: 0x8, addend: 0x0, symName: __ZN3std3sys9backtrace4lock17hdabe8353c49be0ebE, symObjAddr: 0x37FFC, symBinAddr: 0x10002B23C, symSize: 0x70 }
  - { offset: 0x57591, size: 0x8, addend: 0x0, symName: __ZN3std3sys9backtrace13BacktraceLock5print17h3eb1535b8d3666caE, symObjAddr: 0x3806C, symBinAddr: 0x10002B2AC, symSize: 0x54 }
  - { offset: 0x575DE, size: 0x8, addend: 0x0, symName: '__ZN98_$LT$std..sys..backtrace..BacktraceLock..print..DisplayBacktrace$u20$as$u20$core..fmt..Display$GT$3fmt17h373e57e2286956dcE', symObjAddr: 0x380C0, symBinAddr: 0x10002B300, symSize: 0x228 }
  - { offset: 0x57AC3, size: 0x8, addend: 0x0, symName: __ZN3std3sys9backtrace26__rust_end_short_backtrace17h507d79c50996742eE, symObjAddr: 0x386A0, symBinAddr: 0x10002B8E0, symSize: 0xC }
  - { offset: 0x57ADD, size: 0x8, addend: 0x0, symName: __ZN3std3sys9backtrace15output_filename17h1e17c213ac1ab78dE, symObjAddr: 0x386B8, symBinAddr: 0x10002B8EC, symSize: 0xF4 }
  - { offset: 0x57C9E, size: 0x8, addend: 0x0, symName: '__ZN3std3sys4sync8once_box16OnceBox$LT$T$GT$10initialize17he379977f8bc9e5d3E', symObjAddr: 0x3A608, symBinAddr: 0x100048350, symSize: 0xE4 }
  - { offset: 0x57F73, size: 0x8, addend: 0x0, symName: __ZN3std3sys4sync6rwlock5queue6RwLock21read_unlock_contended17h1b9e50d42faedc94E, symObjAddr: 0x4843C, symBinAddr: 0x100048858, symSize: 0x40 }
  - { offset: 0x57F91, size: 0x8, addend: 0x0, symName: __ZN3std3sys4sync6rwlock5queue6RwLock21read_unlock_contended17h1b9e50d42faedc94E, symObjAddr: 0x4843C, symBinAddr: 0x100048858, symSize: 0x40 }
  - { offset: 0x57FA6, size: 0x8, addend: 0x0, symName: __ZN3std3sys4sync6rwlock5queue6RwLock21read_unlock_contended17h1b9e50d42faedc94E, symObjAddr: 0x4843C, symBinAddr: 0x100048858, symSize: 0x40 }
  - { offset: 0x580E3, size: 0x8, addend: 0x0, symName: __ZN3std3sys4sync6rwlock5queue6RwLock16unlock_contended17h76968e98b916e2abE, symObjAddr: 0x4847C, symBinAddr: 0x100048898, symSize: 0x40 }
  - { offset: 0x581BF, size: 0x8, addend: 0x0, symName: __ZN3std3sys4sync6rwlock5queue6RwLock12unlock_queue17h9c4ac3ac2d5778f9E, symObjAddr: 0x485C8, symBinAddr: 0x100031C78, symSize: 0x1CC }
  - { offset: 0x588B7, size: 0x8, addend: 0x0, symName: __ZN3std3sys4sync6rwlock5queue9read_lock17h1f89cfb304dc509cE, symObjAddr: 0x481E8, symBinAddr: 0x100031C58, symSize: 0x20 }
  - { offset: 0x588D0, size: 0x8, addend: 0x0, symName: '__ZN83_$LT$std..sys..sync..rwlock..queue..PanicGuard$u20$as$u20$core..ops..drop..Drop$GT$4drop17h5cadc4ef1f5dcd7dE', symObjAddr: 0x48208, symBinAddr: 0x100048814, symSize: 0x44 }
  - { offset: 0x589C8, size: 0x8, addend: 0x0, symName: __ZN3std3sys4sync4once5queue4Once4call17hecaba0a776a35aa1E, symObjAddr: 0x47D60, symBinAddr: 0x100048608, symSize: 0x20C }
  - { offset: 0x58CB7, size: 0x8, addend: 0x0, symName: '__ZN82_$LT$std..sys..sync..once..queue..WaiterQueue$u20$as$u20$core..ops..drop..Drop$GT$4drop17h7c83cf796170585cE', symObjAddr: 0x480F4, symBinAddr: 0x100031B78, symSize: 0xE0 }
  - { offset: 0x58E7A, size: 0x8, addend: 0x0, symName: __ZN3std3sys4sync4once5queue4wait17h89a94bf1656b2ec7E, symObjAddr: 0x47F6C, symBinAddr: 0x1000319F0, symSize: 0x188 }
  - { offset: 0x59451, size: 0x8, addend: 0x0, symName: __ZN3std3sys12thread_local6native5eager7destroy17heae091946a683e1cE, symObjAddr: 0x48840, symBinAddr: 0x100031E44, symSize: 0x2C }
  - { offset: 0x595A2, size: 0x8, addend: 0x0, symName: __ZN3std3sys12thread_local5guard5apple6enable9run_dtors17hef79a299de7fb9adE, symObjAddr: 0x48984, symBinAddr: 0x100031F88, symSize: 0xF8 }
  - { offset: 0x59ABB, size: 0x8, addend: 0x0, symName: __ZN3std3sys12thread_local11destructors4list8register17hde6abc51e3c3721cE, symObjAddr: 0x4886C, symBinAddr: 0x100031E70, symSize: 0x118 }
  - { offset: 0x59E19, size: 0x8, addend: 0x0, symName: __ZN3std3sys3env4unix13env_read_lock17ha2bee16bf1e65b98E, symObjAddr: 0x3FF64, symBinAddr: 0x10002F184, symSize: 0x23C }
  - { offset: 0x5A522, size: 0x8, addend: 0x0, symName: '__ZN3std3sys3env4unix6getenv28_$u7b$$u7b$closure$u7d$$u7d$17h5aa62fce8cdb755bE', symObjAddr: 0x401A0, symBinAddr: 0x10002F3C0, symSize: 0x148 }
  - { offset: 0x5A98D, size: 0x8, addend: 0x0, symName: '__ZN64_$LT$std..ffi..os_str..Display$u20$as$u20$core..fmt..Display$GT$3fmt17hf4e02af35f1fefceE', symObjAddr: 0x23390, symBinAddr: 0x100027868, symSize: 0xAC }
  - { offset: 0x5AA8E, size: 0x8, addend: 0x0, symName: __ZN3std7process7Command6output17h8dcdf4d4d26f2b3aE, symObjAddr: 0x3517C, symBinAddr: 0x10002AB00, symSize: 0x2F8 }
  - { offset: 0x5AFF9, size: 0x8, addend: 0x0, symName: __ZN3std7process5abort17hbd14f557f4be895cE, symObjAddr: 0x35E58, symBinAddr: 0x100048064, symSize: 0xC }
  - { offset: 0x5B087, size: 0x8, addend: 0x0, symName: __ZN3std4path4Path13_strip_prefix17h44ebcc45a48bcda4E, symObjAddr: 0x336DC, symBinAddr: 0x10002A740, symSize: 0x21C }
  - { offset: 0x5B1A5, size: 0x8, addend: 0x0, symName: __ZN3std4path4Path5_join17h5f97e78c9ec6f8c6E, symObjAddr: 0x33F08, symBinAddr: 0x10002A95C, symSize: 0x1A4 }
  - { offset: 0x5B76B, size: 0x8, addend: 0x0, symName: __ZN3std4path10Components15len_before_body17h5c34a7955bf675c9E, symObjAddr: 0x31A18, symBinAddr: 0x100029ADC, symSize: 0x188 }
  - { offset: 0x5B782, size: 0x8, addend: 0x0, symName: __ZN3std4path10Components15len_before_body17h5c34a7955bf675c9E, symObjAddr: 0x31A18, symBinAddr: 0x100029ADC, symSize: 0x188 }
  - { offset: 0x5B797, size: 0x8, addend: 0x0, symName: __ZN3std4path10Components15len_before_body17h5c34a7955bf675c9E, symObjAddr: 0x31A18, symBinAddr: 0x100029ADC, symSize: 0x188 }
  - { offset: 0x5B94F, size: 0x8, addend: 0x0, symName: __ZN3std4path10Components7as_path17ha0723f3b84befc75E, symObjAddr: 0x31BA0, symBinAddr: 0x100029C64, symSize: 0x318 }
  - { offset: 0x5BBC7, size: 0x8, addend: 0x0, symName: __ZN3std4path10Components25parse_next_component_back17hb183b6faf02472afE, symObjAddr: 0x31EB8, symBinAddr: 0x100029F7C, symSize: 0x124 }
  - { offset: 0x5BD89, size: 0x8, addend: 0x0, symName: '__ZN80_$LT$std..path..Components$u20$as$u20$core..iter..traits..iterator..Iterator$GT$4next17hc5f2949875039169E', symObjAddr: 0x32174, symBinAddr: 0x10002A0A0, symSize: 0x340 }
  - { offset: 0x5C086, size: 0x8, addend: 0x0, symName: '__ZN95_$LT$std..path..Components$u20$as$u20$core..iter..traits..double_ended..DoubleEndedIterator$GT$9next_back17h97da5c60c737f00eE', symObjAddr: 0x324B4, symBinAddr: 0x10002A3E0, symSize: 0x360 }
  - { offset: 0x5C265, size: 0x8, addend: 0x0, symName: '__ZN61_$LT$std..path..Component$u20$as$u20$core..cmp..PartialEq$GT$2eq17h9abf03ee93017be9E', symObjAddr: 0x3D540, symBinAddr: 0x10002D484, symSize: 0x138 }
  - { offset: 0x5C44D, size: 0x8, addend: 0x0, symName: '__ZN81_$LT$std..io..default_write_fmt..Adapter$LT$T$GT$$u20$as$u20$core..fmt..Write$GT$9write_str17h1421ba9cd8ee47c5E', symObjAddr: 0x2CBD4, symBinAddr: 0x10002917C, symSize: 0xA0 }
  - { offset: 0x5C575, size: 0x8, addend: 0x0, symName: '__ZN81_$LT$std..io..default_write_fmt..Adapter$LT$T$GT$$u20$as$u20$core..fmt..Write$GT$9write_str17h2d8b7e46a0e35d96E', symObjAddr: 0x2CC74, symBinAddr: 0x10002921C, symSize: 0x80 }
  - { offset: 0x5C6C1, size: 0x8, addend: 0x0, symName: '__ZN81_$LT$std..io..default_write_fmt..Adapter$LT$T$GT$$u20$as$u20$core..fmt..Write$GT$9write_str17h8e69c5e2e9f54588E', symObjAddr: 0x2CE1C, symBinAddr: 0x10002929C, symSize: 0x50 }
  - { offset: 0x5C6EB, size: 0x8, addend: 0x0, symName: '__ZN81_$LT$std..io..default_write_fmt..Adapter$LT$T$GT$$u20$as$u20$core..fmt..Write$GT$9write_str17hf38da0e8ae1b5efbE', symObjAddr: 0x2CE6C, symBinAddr: 0x1000292EC, symSize: 0xD8 }
  - { offset: 0x5C8AD, size: 0x8, addend: 0x0, symName: '__ZN3std2io5impls74_$LT$impl$u20$std..io..Write$u20$for$u20$alloc..vec..Vec$LT$u8$C$A$GT$$GT$5write17hb822c2b238acf3c4E', symObjAddr: 0x27060, symBinAddr: 0x1000283E4, symSize: 0x84 }
  - { offset: 0x5C9F2, size: 0x8, addend: 0x0, symName: '__ZN3std2io5impls74_$LT$impl$u20$std..io..Write$u20$for$u20$alloc..vec..Vec$LT$u8$C$A$GT$$GT$14write_vectored17h3b2a452d1d260808E', symObjAddr: 0x270E4, symBinAddr: 0x100028468, symSize: 0x174 }
  - { offset: 0x5CC3F, size: 0x8, addend: 0x0, symName: '__ZN3std2io5impls74_$LT$impl$u20$std..io..Write$u20$for$u20$alloc..vec..Vec$LT$u8$C$A$GT$$GT$17is_write_vectored17h85e25b333c28438fE', symObjAddr: 0x27258, symBinAddr: 0x1000285DC, symSize: 0x8 }
  - { offset: 0x5CC5A, size: 0x8, addend: 0x0, symName: '__ZN3std2io5impls74_$LT$impl$u20$std..io..Write$u20$for$u20$alloc..vec..Vec$LT$u8$C$A$GT$$GT$9write_all17h4986f5d3d6bca366E', symObjAddr: 0x27260, symBinAddr: 0x1000285E4, symSize: 0x80 }
  - { offset: 0x5CDA6, size: 0x8, addend: 0x0, symName: '__ZN3std2io5impls74_$LT$impl$u20$std..io..Write$u20$for$u20$alloc..vec..Vec$LT$u8$C$A$GT$$GT$18write_all_vectored17h0ce1bbe6949613dfE', symObjAddr: 0x272E0, symBinAddr: 0x100028664, symSize: 0x168 }
  - { offset: 0x5CDD1, size: 0x8, addend: 0x0, symName: '__ZN3std2io5impls74_$LT$impl$u20$std..io..Write$u20$for$u20$alloc..vec..Vec$LT$u8$C$A$GT$$GT$18write_all_vectored17h0ce1bbe6949613dfE', symObjAddr: 0x272E0, symBinAddr: 0x100028664, symSize: 0x168 }
  - { offset: 0x5CDE6, size: 0x8, addend: 0x0, symName: '__ZN3std2io5impls74_$LT$impl$u20$std..io..Write$u20$for$u20$alloc..vec..Vec$LT$u8$C$A$GT$$GT$18write_all_vectored17h0ce1bbe6949613dfE', symObjAddr: 0x272E0, symBinAddr: 0x100028664, symSize: 0x168 }
  - { offset: 0x5CDFB, size: 0x8, addend: 0x0, symName: '__ZN3std2io5impls74_$LT$impl$u20$std..io..Write$u20$for$u20$alloc..vec..Vec$LT$u8$C$A$GT$$GT$18write_all_vectored17h0ce1bbe6949613dfE', symObjAddr: 0x272E0, symBinAddr: 0x100028664, symSize: 0x168 }
  - { offset: 0x5CE0F, size: 0x8, addend: 0x0, symName: '__ZN3std2io5impls74_$LT$impl$u20$std..io..Write$u20$for$u20$alloc..vec..Vec$LT$u8$C$A$GT$$GT$18write_all_vectored17h0ce1bbe6949613dfE', symObjAddr: 0x272E0, symBinAddr: 0x100028664, symSize: 0x168 }
  - { offset: 0x5D028, size: 0x8, addend: 0x0, symName: '__ZN3std2io5impls74_$LT$impl$u20$std..io..Write$u20$for$u20$alloc..vec..Vec$LT$u8$C$A$GT$$GT$5flush17h2126ea47a926e7aeE', symObjAddr: 0x27448, symBinAddr: 0x1000287CC, symSize: 0x8 }
  - { offset: 0x5D17B, size: 0x8, addend: 0x0, symName: __ZN3std2io5error14repr_bitpacked11decode_repr17hcdf376292fdb65d2E, symObjAddr: 0x26804, symBinAddr: 0x100027EE8, symSize: 0x60 }
  - { offset: 0x5D1E4, size: 0x8, addend: 0x0, symName: '__ZN58_$LT$std..io..error..Error$u20$as$u20$core..fmt..Debug$GT$3fmt17hdf9c13a9945d5c29E', symObjAddr: 0x26864, symBinAddr: 0x100027F48, symSize: 0x4 }
  - { offset: 0x5D224, size: 0x8, addend: 0x0, symName: '__ZN3std2io5error83_$LT$impl$u20$core..fmt..Debug$u20$for$u20$std..io..error..repr_bitpacked..Repr$GT$3fmt17h0f29a0fd45fc1bcfE', symObjAddr: 0x26AD8, symBinAddr: 0x100027F4C, symSize: 0x294 }
  - { offset: 0x5D46F, size: 0x8, addend: 0x0, symName: '__ZN60_$LT$std..io..error..Error$u20$as$u20$core..fmt..Display$GT$3fmt17habdd18ca5ab4309eE', symObjAddr: 0x26D6C, symBinAddr: 0x1000281E0, symSize: 0x204 }
  - { offset: 0x5D6CE, size: 0x8, addend: 0x0, symName: '__ZN62_$LT$std..io..error..ErrorKind$u20$as$u20$core..fmt..Debug$GT$3fmt17h2d20d17aac9eb11fE', symObjAddr: 0x3D518, symBinAddr: 0x10002D45C, symSize: 0x28 }
  - { offset: 0x5D719, size: 0x8, addend: 0x0, symName: __ZN3std2io5Write9write_all17h968f08b438f23232E, symObjAddr: 0x2CFB8, symBinAddr: 0x1000293C4, symSize: 0xB8 }
  - { offset: 0x5D834, size: 0x8, addend: 0x0, symName: __ZN3std2io5Write18write_all_vectored17hbcff9dde3b80a800E, symObjAddr: 0x2D070, symBinAddr: 0x10002947C, symSize: 0x1CC }
  - { offset: 0x5DAE5, size: 0x8, addend: 0x0, symName: __ZN3std2io5Write9write_fmt17h00b4007fff731b84E, symObjAddr: 0x2D23C, symBinAddr: 0x100029648, symSize: 0x128 }
  - { offset: 0x5DD2F, size: 0x8, addend: 0x0, symName: __ZN3std2io5Write9write_fmt17h1c9f4e65a2760494E, symObjAddr: 0x2D364, symBinAddr: 0x100029770, symSize: 0x128 }
  - { offset: 0x5DF79, size: 0x8, addend: 0x0, symName: __ZN3std2io5Write9write_fmt17h619de9749845ad1bE, symObjAddr: 0x2D48C, symBinAddr: 0x100029898, symSize: 0x128 }
  - { offset: 0x5E1E0, size: 0x8, addend: 0x0, symName: '__ZN3std2io8buffered9bufwriter18BufWriter$LT$W$GT$9flush_buf17h4ecd4f227cafd79eE', symObjAddr: 0x25DC8, symBinAddr: 0x100027CF0, symSize: 0x1F8 }
  - { offset: 0x5E74E, size: 0x8, addend: 0x0, symName: '__ZN3std2io8buffered9bufwriter18BufWriter$LT$W$GT$14write_all_cold17hdc683320716deeb9E', symObjAddr: 0x2614C, symBinAddr: 0x100047F3C, symSize: 0x128 }
  - { offset: 0x5EB67, size: 0x8, addend: 0x0, symName: '__ZN61_$LT$$RF$std..io..stdio..Stdout$u20$as$u20$std..io..Write$GT$9write_fmt17h595bf9d2c2ff9fe0E', symObjAddr: 0x2A280, symBinAddr: 0x1000287D4, symSize: 0x190 }
  - { offset: 0x5EF6F, size: 0x8, addend: 0x0, symName: '__ZN61_$LT$std..io..stdio..StdoutLock$u20$as$u20$std..io..Write$GT$9write_all17h373dc2ca22e35da8E', symObjAddr: 0x2A72C, symBinAddr: 0x100028964, symSize: 0x268 }
  - { offset: 0x5F701, size: 0x8, addend: 0x0, symName: __ZN3std2io5stdio6Stderr4lock17h2c1838d646f36f3bE, symObjAddr: 0x2ACCC, symBinAddr: 0x100028BCC, symSize: 0xE4 }
  - { offset: 0x5F9DB, size: 0x8, addend: 0x0, symName: __ZN3std2io5stdio22try_set_output_capture17h02e4e20053907c68E, symObjAddr: 0x2BA9C, symBinAddr: 0x100028CB0, symSize: 0xEC }
  - { offset: 0x5FC7C, size: 0x8, addend: 0x0, symName: __ZN3std2io5stdio31print_to_buffer_if_capture_used17hcd908728fda25d1dE, symObjAddr: 0x2BB88, symBinAddr: 0x100028D9C, symSize: 0x20C }
  - { offset: 0x60370, size: 0x8, addend: 0x0, symName: __ZN3std2io5stdio6_print17h934b25807d0b964aE, symObjAddr: 0x2BE68, symBinAddr: 0x100028FA8, symSize: 0xE4 }
  - { offset: 0x604E3, size: 0x8, addend: 0x0, symName: __ZN3std2io19default_read_to_end16small_probe_read17ha70487dca9140dd9E, symObjAddr: 0x2C90C, symBinAddr: 0x10002908C, symSize: 0xF0 }
  - { offset: 0x60763, size: 0x8, addend: 0x0, symName: '__ZN3std4sync6poison4once4Once15call_once_force28_$u7b$$u7b$closure$u7d$$u7d$17h5fcd666c0990a5cbE', symObjAddr: 0x36574, symBinAddr: 0x10002B01C, symSize: 0x78 }
  - { offset: 0x608A0, size: 0x8, addend: 0x0, symName: '__ZN3std4sync6poison4once4Once15call_once_force28_$u7b$$u7b$closure$u7d$$u7d$17h8900ddc7fabd604dE', symObjAddr: 0x365EC, symBinAddr: 0x10002B094, symSize: 0x60 }
  - { offset: 0x6095D, size: 0x8, addend: 0x0, symName: '__ZN3std4sync6poison4once4Once9call_once28_$u7b$$u7b$closure$u7d$$u7d$17h09c800c11a2781e6E', symObjAddr: 0x36154, symBinAddr: 0x10002ADF8, symSize: 0x224 }
  - { offset: 0x612E7, size: 0x8, addend: 0x0, symName: '__ZN3std4sync9once_lock17OnceLock$LT$T$GT$10initialize17ha33e4a2206d74ec9E', symObjAddr: 0x36EF0, symBinAddr: 0x100048070, symSize: 0x64 }
  - { offset: 0x61312, size: 0x8, addend: 0x0, symName: '__ZN3std4sync9once_lock17OnceLock$LT$T$GT$10initialize17ha33e4a2206d74ec9E', symObjAddr: 0x36EF0, symBinAddr: 0x100048070, symSize: 0x64 }
  - { offset: 0x61326, size: 0x8, addend: 0x0, symName: '__ZN3std4sync9once_lock17OnceLock$LT$T$GT$10initialize17ha33e4a2206d74ec9E', symObjAddr: 0x36EF0, symBinAddr: 0x100048070, symSize: 0x64 }
  - { offset: 0x6133A, size: 0x8, addend: 0x0, symName: '__ZN3std4sync9once_lock17OnceLock$LT$T$GT$10initialize17ha33e4a2206d74ec9E', symObjAddr: 0x36EF0, symBinAddr: 0x100048070, symSize: 0x64 }
  - { offset: 0x61350, size: 0x8, addend: 0x0, symName: '__ZN3std4sync9once_lock17OnceLock$LT$T$GT$10initialize17hd570d1d77e17be18E', symObjAddr: 0x36FB0, symBinAddr: 0x1000480D4, symSize: 0x68 }
  - { offset: 0x6137B, size: 0x8, addend: 0x0, symName: '__ZN3std4sync9once_lock17OnceLock$LT$T$GT$10initialize17hd570d1d77e17be18E', symObjAddr: 0x36FB0, symBinAddr: 0x1000480D4, symSize: 0x68 }
  - { offset: 0x6138F, size: 0x8, addend: 0x0, symName: '__ZN3std4sync9once_lock17OnceLock$LT$T$GT$10initialize17hd570d1d77e17be18E', symObjAddr: 0x36FB0, symBinAddr: 0x1000480D4, symSize: 0x68 }
  - { offset: 0x613A3, size: 0x8, addend: 0x0, symName: '__ZN3std4sync9once_lock17OnceLock$LT$T$GT$10initialize17hd570d1d77e17be18E', symObjAddr: 0x36FB0, symBinAddr: 0x1000480D4, symSize: 0x68 }
  - { offset: 0x61548, size: 0x8, addend: 0x0, symName: __ZN3std12backtrace_rs9symbolize5gimli7Context3new17hb91d93e0b4232d15E, symObjAddr: 0x48BB8, symBinAddr: 0x1000320C8, symSize: 0x1FEC }
  - { offset: 0x651EF, size: 0x8, addend: 0x0, symName: __ZN3std12backtrace_rs9symbolize5gimli7Context11find_frames17h23a2097c4c7962bdE, symObjAddr: 0x4ABA4, symBinAddr: 0x1000340B4, symSize: 0x390 }
  - { offset: 0x65614, size: 0x8, addend: 0x0, symName: __ZN3std12backtrace_rs9symbolize5gimli5macho6Object5parse17h5fdabfb181ac69c7E, symObjAddr: 0x4DA84, symBinAddr: 0x100036F7C, symSize: 0xC28 }
  - { offset: 0x67428, size: 0x8, addend: 0x0, symName: __ZN3std12backtrace_rs9symbolize5gimli5macho6Object7section17hc169392917328d37E, symObjAddr: 0x4E6AC, symBinAddr: 0x100037BA4, symSize: 0x154 }
  - { offset: 0x6786C, size: 0x8, addend: 0x0, symName: __ZN3std12backtrace_rs9symbolize5gimli5macho11find_header17h55f69df1f605b83cE, symObjAddr: 0x4D8B0, symBinAddr: 0x100036DA8, symSize: 0x1D4 }
  - { offset: 0x6788B, size: 0x8, addend: 0x0, symName: __ZN3std12backtrace_rs9symbolize5gimli5macho11find_header17h55f69df1f605b83cE, symObjAddr: 0x4D8B0, symBinAddr: 0x100036DA8, symSize: 0x1D4 }
  - { offset: 0x678A1, size: 0x8, addend: 0x0, symName: __ZN3std12backtrace_rs9symbolize5gimli5macho11find_header17h55f69df1f605b83cE, symObjAddr: 0x4D8B0, symBinAddr: 0x100036DA8, symSize: 0x1D4 }
  - { offset: 0x678B7, size: 0x8, addend: 0x0, symName: __ZN3std12backtrace_rs9symbolize5gimli5macho11find_header17h55f69df1f605b83cE, symObjAddr: 0x4D8B0, symBinAddr: 0x100036DA8, symSize: 0x1D4 }
  - { offset: 0x678CC, size: 0x8, addend: 0x0, symName: __ZN3std12backtrace_rs9symbolize5gimli5macho11find_header17h55f69df1f605b83cE, symObjAddr: 0x4D8B0, symBinAddr: 0x100036DA8, symSize: 0x1D4 }
  - { offset: 0x678E1, size: 0x8, addend: 0x0, symName: __ZN3std12backtrace_rs9symbolize5gimli5macho11find_header17h55f69df1f605b83cE, symObjAddr: 0x4D8B0, symBinAddr: 0x100036DA8, symSize: 0x1D4 }
  - { offset: 0x678F6, size: 0x8, addend: 0x0, symName: __ZN3std12backtrace_rs9symbolize5gimli5macho11find_header17h55f69df1f605b83cE, symObjAddr: 0x4D8B0, symBinAddr: 0x100036DA8, symSize: 0x1D4 }
  - { offset: 0x6802D, size: 0x8, addend: 0x0, symName: __ZN3std12backtrace_rs9symbolize5gimli4mmap17h887dd2c3e0662184E, symObjAddr: 0x4AF34, symBinAddr: 0x100034444, symSize: 0x174 }
  - { offset: 0x686CB, size: 0x8, addend: 0x0, symName: __ZN3std12backtrace_rs9symbolize5gimli7resolve17h64427fc4373c0585E, symObjAddr: 0x4B0A8, symBinAddr: 0x1000345B8, symSize: 0x27F0 }
  - { offset: 0x6E415, size: 0x8, addend: 0x0, symName: __ZN3std12backtrace_rs9symbolize6Symbol4name17he61211ceb05526e3E, symObjAddr: 0x3C9D8, symBinAddr: 0x10002CDDC, symSize: 0xE4 }
  - { offset: 0x6E54C, size: 0x8, addend: 0x0, symName: '__ZN79_$LT$std..backtrace_rs..symbolize..SymbolName$u20$as$u20$core..fmt..Display$GT$3fmt17h4c4c1b4de2e31d53E', symObjAddr: 0x3CBF4, symBinAddr: 0x10002CEC0, symSize: 0x100 }
  - { offset: 0x6E675, size: 0x8, addend: 0x0, symName: __ZN3std12backtrace_rs9backtrace9libunwind5trace8trace_fn17h78394d9ee4ccceffE, symObjAddr: 0x48B70, symBinAddr: 0x100032080, symSize: 0x48 }
  - { offset: 0x6E746, size: 0x8, addend: 0x0, symName: __ZN3std12backtrace_rs5print17BacktraceFrameFmt21print_raw_with_column17h834ed90aab55fe6fE, symObjAddr: 0x3CDF4, symBinAddr: 0x10002CFC0, symSize: 0x304 }
  - { offset: 0x6E869, size: 0x8, addend: 0x0, symName: __ZN3std12backtrace_rs5print17BacktraceFrameFmt14print_fileline17h4f1f1a459d4f9b31E, symObjAddr: 0x3D0F8, symBinAddr: 0x10002D2C4, symSize: 0x198 }
  - { offset: 0x6EA2D, size: 0x8, addend: 0x0, symName: __ZN3std6thread7current12init_current17h772b2ceaca17750fE, symObjAddr: 0x1F8C0, symBinAddr: 0x100047DA0, symSize: 0x164 }
  - { offset: 0x6ED8A, size: 0x8, addend: 0x0, symName: __ZN3std6thread6Thread3new17h61d7fe27c37d738eE, symObjAddr: 0x207B0, symBinAddr: 0x100027068, symSize: 0x158 }
  - { offset: 0x6F1B1, size: 0x8, addend: 0x0, symName: __ZN3std6thread8ThreadId3new9exhausted17hc87ba1ebc9ec3293E, symObjAddr: 0x20668, symBinAddr: 0x100047F04, symSize: 0x38 }
  - { offset: 0x6F1EE, size: 0x8, addend: 0x0, symName: '__ZN118_$LT$std..thread..thread_name_string..ThreadNameString$u20$as$u20$core..convert..From$LT$alloc..string..String$GT$$GT$4from17h451023573f089af3E', symObjAddr: 0x206A0, symBinAddr: 0x100026F58, symSize: 0x110 }
  - { offset: 0x6F419, size: 0x8, addend: 0x0, symName: __ZN3std2rt15handle_rt_panic17h541ba1db327ed283E, symObjAddr: 0x1EE7C, symBinAddr: 0x100047D5C, symSize: 0x44 }
  - { offset: 0x6F4A9, size: 0x8, addend: 0x0, symName: __ZN3std2rt19lang_start_internal17h9c67c334770c9206E, symObjAddr: 0x1EF24, symBinAddr: 0x1000268C0, symSize: 0x698 }
  - { offset: 0x70089, size: 0x8, addend: 0x0, symName: __ZN3std5panic19get_backtrace_style17h39e90e609eb8b5abE, symObjAddr: 0x317C4, symBinAddr: 0x1000299C0, symSize: 0x11C }
  - { offset: 0x700A7, size: 0x8, addend: 0x0, symName: __ZN3std5panic19get_backtrace_style17h39e90e609eb8b5abE, symObjAddr: 0x317C4, symBinAddr: 0x1000299C0, symSize: 0x11C }
  - { offset: 0x700BC, size: 0x8, addend: 0x0, symName: __ZN3std5panic19get_backtrace_style17h39e90e609eb8b5abE, symObjAddr: 0x317C4, symBinAddr: 0x1000299C0, symSize: 0x11C }
  - { offset: 0x70520, size: 0x8, addend: 0x0, symName: __ZN3std3env11current_dir17hcf122f2a803df77cE, symObjAddr: 0x21AB8, symBinAddr: 0x1000271C0, symSize: 0x1A0 }
  - { offset: 0x708EC, size: 0x8, addend: 0x0, symName: __ZN3std3env7vars_os17h5da3b85263f16da8E, symObjAddr: 0x21C5C, symBinAddr: 0x100027360, symSize: 0x30C }
  - { offset: 0x70F33, size: 0x8, addend: 0x0, symName: __ZN3std3env4_var17h9dd5e1a62477915dE, symObjAddr: 0x22298, symBinAddr: 0x10002766C, symSize: 0x98 }
  - { offset: 0x7102F, size: 0x8, addend: 0x0, symName: __ZN3std3env7_var_os17h2a5365ce2409b350E, symObjAddr: 0x22330, symBinAddr: 0x100027704, symSize: 0x164 }
  - { offset: 0x712F0, size: 0x8, addend: 0x0, symName: __ZN3std2fs11OpenOptions5_open17h0fbed7ef40f371a5E, symObjAddr: 0x24928, symBinAddr: 0x100027914, symSize: 0x250 }
  - { offset: 0x7149F, size: 0x8, addend: 0x0, symName: '__ZN75_$LT$std..fs..ReadDir$u20$as$u20$core..iter..traits..iterator..Iterator$GT$4next17h60ea7641501e923cE', symObjAddr: 0x24F5C, symBinAddr: 0x100027B64, symSize: 0x18C }
  - { offset: 0x71788, size: 0x8, addend: 0x0, symName: __ZN3std5alloc24default_alloc_error_hook17hbb2afb0af5835e8dE, symObjAddr: 0x3B0F8, symBinAddr: 0x10002BB7C, symSize: 0x140 }
  - { offset: 0x719CB, size: 0x8, addend: 0x0, symName: __RNvCs73fAdSrgOJL_7___rustc11___rdl_alloc, symObjAddr: 0x3B238, symBinAddr: 0x10002BCBC, symSize: 0x6C }
  - { offset: 0x71A51, size: 0x8, addend: 0x0, symName: __RNvCs73fAdSrgOJL_7___rustc13___rdl_dealloc, symObjAddr: 0x3B2A4, symBinAddr: 0x10002BD28, symSize: 0x4 }
  - { offset: 0x71A71, size: 0x8, addend: 0x0, symName: __RNvCs73fAdSrgOJL_7___rustc13___rdl_dealloc, symObjAddr: 0x3B2A4, symBinAddr: 0x10002BD28, symSize: 0x4 }
  - { offset: 0x71A85, size: 0x8, addend: 0x0, symName: __RNvCs73fAdSrgOJL_7___rustc13___rdl_realloc, symObjAddr: 0x3B2A8, symBinAddr: 0x10002BD2C, symSize: 0xB0 }
  - { offset: 0x71B63, size: 0x8, addend: 0x0, symName: __RNvCs73fAdSrgOJL_7___rustc18___rdl_alloc_zeroed, symObjAddr: 0x3B358, symBinAddr: 0x10002BDDC, symSize: 0x90 }
  - { offset: 0x71C0F, size: 0x8, addend: 0x0, symName: __ZN3std5alloc8rust_oom17hdb6eb131aa920ad3E, symObjAddr: 0x48A7C, symBinAddr: 0x1000488D8, symSize: 0x2C }
  - { offset: 0x71C5E, size: 0x8, addend: 0x0, symName: __RNvCs73fAdSrgOJL_7___rustc8___rg_oom, symObjAddr: 0x48AA8, symBinAddr: 0x100048904, symSize: 0x18 }
  - { offset: 0x71CCE, size: 0x8, addend: 0x0, symName: '__ZN9addr2line8function17Function$LT$R$GT$14parse_children17hf3df585ce7ac8262E', symObjAddr: 0x1DE2C, symBinAddr: 0x10002587C, symSize: 0xE84 }
  - { offset: 0x73549, size: 0x8, addend: 0x0, symName: __ZN9addr2line8function10name_entry17hfdced0c758d2a567E, symObjAddr: 0x1DAC0, symBinAddr: 0x100025510, symSize: 0x36C }
  - { offset: 0x73A0B, size: 0x8, addend: 0x0, symName: __ZN9addr2line8function9name_attr17h1ce69a4ce3ba7e89E, symObjAddr: 0x1ECB0, symBinAddr: 0x100026700, symSize: 0x1C0 }
  - { offset: 0x73C2F, size: 0x8, addend: 0x0, symName: __ZN9addr2line4line11render_file17h41488bb5a6979477E, symObjAddr: 0x1C890, symBinAddr: 0x1000242E0, symSize: 0x4B0 }
  - { offset: 0x7458E, size: 0x8, addend: 0x0, symName: '__ZN9addr2line4unit16ResUnit$LT$R$GT$25find_function_or_location17h3697563f577d8d9fE', symObjAddr: 0x1CD40, symBinAddr: 0x100024790, symSize: 0x378 }
  - { offset: 0x74A62, size: 0x8, addend: 0x0, symName: '__ZN9addr2line4unit16ResUnit$LT$R$GT$25find_function_or_location28_$u7b$$u7b$closure$u7d$$u7d$17h0d725353a137efa6E', symObjAddr: 0x1D0B8, symBinAddr: 0x100024B08, symSize: 0x30C }
  - { offset: 0x74E07, size: 0x8, addend: 0x0, symName: '__ZN9addr2line16Context$LT$R$GT$9find_unit17hfe70ee874184feb7E', symObjAddr: 0x1C734, symBinAddr: 0x100024184, symSize: 0x15C }
  - { offset: 0x74FB6, size: 0x8, addend: 0x0, symName: '__ZN9addr2line6lookup30LoopingLookup$LT$T$C$L$C$F$GT$10new_lookup17h479f29027e320fd2E', symObjAddr: 0x1D684, symBinAddr: 0x1000250D4, symSize: 0x43C }
  - { offset: 0x75492, size: 0x8, addend: 0x0, symName: '__ZN9addr2line5frame18FrameIter$LT$R$GT$4next17hab4653c465939ee8E', symObjAddr: 0x1D3C4, symBinAddr: 0x100024E14, symSize: 0x2C0 }
  - { offset: 0x75BAF, size: 0x8, addend: 0x0, symName: '__ZN5gimli4read4unit18Attribute$LT$R$GT$5value17hf92c28dec7922b31E', symObjAddr: 0x174B8, symBinAddr: 0x10001F400, symSize: 0x598 }
  - { offset: 0x75FC8, size: 0x8, addend: 0x0, symName: '__ZN90_$LT$gimli..read..unit..AttributeValue$LT$R$C$Offset$GT$$u20$as$u20$core..clone..Clone$GT$5clone17hcb6071538b682662E', symObjAddr: 0x1C614, symBinAddr: 0x10002411C, symSize: 0x68 }
  - { offset: 0x76028, size: 0x8, addend: 0x0, symName: '__ZN5gimli4read4unit32AttributeValue$LT$R$C$Offset$GT$11udata_value17hb0fbf782d56f4d3fE', symObjAddr: 0x17D08, symBinAddr: 0x10001FC50, symSize: 0x84 }
  - { offset: 0x76083, size: 0x8, addend: 0x0, symName: __ZN5gimli4read4unit15parse_attribute17h04e99a6e8528e9b0E, symObjAddr: 0x16008, symBinAddr: 0x10001DF50, symSize: 0xF74 }
  - { offset: 0x78C42, size: 0x8, addend: 0x0, symName: __ZN5gimli4read4unit15skip_attributes17h34aae5d204503f89E, symObjAddr: 0x16F7C, symBinAddr: 0x10001EEC4, symSize: 0x53C }
  - { offset: 0x7962C, size: 0x8, addend: 0x0, symName: '__ZN5gimli4read4unit22EntriesCursor$LT$R$GT$10next_entry17hdbe6c325dc93b25aE', symObjAddr: 0x17A50, symBinAddr: 0x10001F998, symSize: 0x2B8 }
  - { offset: 0x79BF0, size: 0x8, addend: 0x0, symName: '__ZN5gimli4read4unit33DebugInfoUnitHeadersIter$LT$R$GT$4next17ha7bc19eef22d5132E', symObjAddr: 0x17D8C, symBinAddr: 0x10001FCD4, symSize: 0x518 }
  - { offset: 0x7AD3A, size: 0x8, addend: 0x0, symName: '__ZN5gimli4read5dwarf13Unit$LT$R$GT$3new17h686262bf18a65175E', symObjAddr: 0x182A4, symBinAddr: 0x1000201EC, symSize: 0x1C84 }
  - { offset: 0x7E493, size: 0x8, addend: 0x0, symName: '__ZN5gimli4read5dwarf14Dwarf$LT$R$GT$11attr_string17h1e958f109b0daeb0E', symObjAddr: 0x19F28, symBinAddr: 0x100021E70, symSize: 0x220 }
  - { offset: 0x7EE7F, size: 0x8, addend: 0x0, symName: __ZN5gimli4read6reader6Reader11read_offset17hfc4380759744d0ccE, symObjAddr: 0x1A808, symBinAddr: 0x100022750, symSize: 0xB4 }
  - { offset: 0x7F09E, size: 0x8, addend: 0x0, symName: __ZN5gimli4read6reader6Reader12read_sleb12817h1bb18c7db89a5c45E, symObjAddr: 0x1A8BC, symBinAddr: 0x100022804, symSize: 0x23C }
  - { offset: 0x7F17A, size: 0x8, addend: 0x0, symName: __ZN5gimli4read6reader6Reader12read_uleb12817he2bb007cca6a74e8E, symObjAddr: 0x1AAF8, symBinAddr: 0x100022A40, symSize: 0xB8 }
  - { offset: 0x7F221, size: 0x8, addend: 0x0, symName: __ZN5gimli4read6reader6Reader17read_sized_offset17h350128ac40d4d88bE, symObjAddr: 0x1ABB0, symBinAddr: 0x100022AF8, symSize: 0x10C }
  - { offset: 0x7F98D, size: 0x8, addend: 0x0, symName: '__ZN5gimli4read4line27FileEntry$LT$R$C$Offset$GT$5parse17he72fe970b5aeb997E', symObjAddr: 0x15DEC, symBinAddr: 0x10001DD34, symSize: 0x21C }
  - { offset: 0x7FBE4, size: 0x8, addend: 0x0, symName: __ZN5gimli4read4line13parse_file_v517h17de60bb2846bd30E, symObjAddr: 0x14E6C, symBinAddr: 0x10001CDB4, symSize: 0x2B4 }
  - { offset: 0x7FD5C, size: 0x8, addend: 0x0, symName: __ZN5gimli4read4line15FileEntryFormat5parse17h5b94835e6d431828E, symObjAddr: 0x15120, symBinAddr: 0x10001D068, symSize: 0x370 }
  - { offset: 0x8052F, size: 0x8, addend: 0x0, symName: __ZN5gimli4read4line15parse_attribute17h44b66ac1f1fd4d70E, symObjAddr: 0x15490, symBinAddr: 0x10001D3D8, symSize: 0x874 }
  - { offset: 0x81CE9, size: 0x8, addend: 0x0, symName: __ZN5gimli4read4line18parse_directory_v517hc1cf6537e0e6b55eE, symObjAddr: 0x15D04, symBinAddr: 0x10001DC4C, symSize: 0xE8 }
  - { offset: 0x81E74, size: 0x8, addend: 0x0, symName: '__ZN5gimli4read8rnglists20RngListIter$LT$R$GT$4next17h3cf0be4737bd2bfbE', symObjAddr: 0x1AF64, symBinAddr: 0x100022EAC, symSize: 0xC70 }
  - { offset: 0x847BF, size: 0x8, addend: 0x0, symName: '__ZN5gimli4read5index18UnitIndex$LT$R$GT$5parse17hb6f2329c704ae441E', symObjAddr: 0x1A148, symBinAddr: 0x100022090, symSize: 0x6C0 }
  - { offset: 0x84D33, size: 0x8, addend: 0x0, symName: '__ZN5gimli4read7aranges30ArangeHeader$LT$R$C$Offset$GT$5parse17ha7ab83fde3103809E', symObjAddr: 0x1ACBC, symBinAddr: 0x100022C04, symSize: 0x2A8 }
  - { offset: 0x859F0, size: 0x8, addend: 0x0, symName: __ZN6object4read7archive13ArchiveMember5parse17h529fa28f4fec8200E, symObjAddr: 0x1C00C, symBinAddr: 0x100023B78, symSize: 0x304 }
  - { offset: 0x85A0E, size: 0x8, addend: 0x0, symName: __ZN6object4read7archive13ArchiveMember5parse17h529fa28f4fec8200E, symObjAddr: 0x1C00C, symBinAddr: 0x100023B78, symSize: 0x304 }
  - { offset: 0x85A23, size: 0x8, addend: 0x0, symName: __ZN6object4read7archive13ArchiveMember5parse17h529fa28f4fec8200E, symObjAddr: 0x1C00C, symBinAddr: 0x100023B78, symSize: 0x304 }
  - { offset: 0x8621D, size: 0x8, addend: 0x0, symName: __ZN6object4read7archive23parse_bsd_extended_name17ha21d7e6d1cf5441dE, symObjAddr: 0x1C310, symBinAddr: 0x100023E7C, symSize: 0x260 }
  - { offset: 0x87064, size: 0x8, addend: 0x0, symName: _OUTLINED_FUNCTION_0, symObjAddr: 0x4E800, symBinAddr: 0x100037CF8, symSize: 0x8 }
  - { offset: 0x8707C, size: 0x8, addend: 0x0, symName: _OUTLINED_FUNCTION_1, symObjAddr: 0x4E808, symBinAddr: 0x100037D00, symSize: 0xC }
  - { offset: 0x87094, size: 0x8, addend: 0x0, symName: _OUTLINED_FUNCTION_2, symObjAddr: 0x4E814, symBinAddr: 0x100037D0C, symSize: 0xC }
  - { offset: 0x870AC, size: 0x8, addend: 0x0, symName: _OUTLINED_FUNCTION_3, symObjAddr: 0x4E820, symBinAddr: 0x100037D18, symSize: 0xC }
  - { offset: 0x870C4, size: 0x8, addend: 0x0, symName: _OUTLINED_FUNCTION_4, symObjAddr: 0x4E82C, symBinAddr: 0x100037D24, symSize: 0xC }
  - { offset: 0x870DC, size: 0x8, addend: 0x0, symName: _OUTLINED_FUNCTION_5, symObjAddr: 0x4E838, symBinAddr: 0x100037D30, symSize: 0x8 }
  - { offset: 0x870F4, size: 0x8, addend: 0x0, symName: _OUTLINED_FUNCTION_6, symObjAddr: 0x4E840, symBinAddr: 0x100037D38, symSize: 0x24 }
  - { offset: 0x8710C, size: 0x8, addend: 0x0, symName: _OUTLINED_FUNCTION_7, symObjAddr: 0x4E864, symBinAddr: 0x100037D5C, symSize: 0x10 }
  - { offset: 0x87124, size: 0x8, addend: 0x0, symName: _OUTLINED_FUNCTION_8, symObjAddr: 0x4E874, symBinAddr: 0x100037D6C, symSize: 0x8 }
  - { offset: 0x8713C, size: 0x8, addend: 0x0, symName: _OUTLINED_FUNCTION_9, symObjAddr: 0x4E87C, symBinAddr: 0x100037D74, symSize: 0x8 }
  - { offset: 0x87154, size: 0x8, addend: 0x0, symName: _OUTLINED_FUNCTION_10, symObjAddr: 0x4E884, symBinAddr: 0x100037D7C, symSize: 0x24 }
  - { offset: 0x8716C, size: 0x8, addend: 0x0, symName: _OUTLINED_FUNCTION_11, symObjAddr: 0x4E8A8, symBinAddr: 0x100037DA0, symSize: 0x20 }
  - { offset: 0x87184, size: 0x8, addend: 0x0, symName: _OUTLINED_FUNCTION_12, symObjAddr: 0x4E8C8, symBinAddr: 0x100037DC0, symSize: 0x8 }
  - { offset: 0x8719C, size: 0x8, addend: 0x0, symName: _OUTLINED_FUNCTION_13, symObjAddr: 0x4E8D0, symBinAddr: 0x100037DC8, symSize: 0x8 }
  - { offset: 0x871B4, size: 0x8, addend: 0x0, symName: _OUTLINED_FUNCTION_14, symObjAddr: 0x4E8D8, symBinAddr: 0x100037DD0, symSize: 0x8 }
  - { offset: 0x871CC, size: 0x8, addend: 0x0, symName: _OUTLINED_FUNCTION_15, symObjAddr: 0x4E8E0, symBinAddr: 0x100037DD8, symSize: 0x8 }
  - { offset: 0x871E4, size: 0x8, addend: 0x0, symName: _OUTLINED_FUNCTION_16, symObjAddr: 0x4E8E8, symBinAddr: 0x100037DE0, symSize: 0x8 }
  - { offset: 0x871FC, size: 0x8, addend: 0x0, symName: _OUTLINED_FUNCTION_17, symObjAddr: 0x4E8F0, symBinAddr: 0x100037DE8, symSize: 0x10 }
  - { offset: 0x87214, size: 0x8, addend: 0x0, symName: _OUTLINED_FUNCTION_18, symObjAddr: 0x4E900, symBinAddr: 0x100037DF8, symSize: 0x10 }
  - { offset: 0x8722C, size: 0x8, addend: 0x0, symName: _OUTLINED_FUNCTION_19, symObjAddr: 0x4E910, symBinAddr: 0x100037E08, symSize: 0x10 }
  - { offset: 0x87244, size: 0x8, addend: 0x0, symName: _OUTLINED_FUNCTION_20, symObjAddr: 0x4E920, symBinAddr: 0x100037E18, symSize: 0x10 }
  - { offset: 0x8725C, size: 0x8, addend: 0x0, symName: _OUTLINED_FUNCTION_21, symObjAddr: 0x4E930, symBinAddr: 0x100037E28, symSize: 0xC }
  - { offset: 0x87274, size: 0x8, addend: 0x0, symName: _OUTLINED_FUNCTION_22, symObjAddr: 0x4E93C, symBinAddr: 0x100037E34, symSize: 0x18 }
  - { offset: 0x8728C, size: 0x8, addend: 0x0, symName: _OUTLINED_FUNCTION_23, symObjAddr: 0x4E954, symBinAddr: 0x100037E4C, symSize: 0x8 }
  - { offset: 0x872A4, size: 0x8, addend: 0x0, symName: _OUTLINED_FUNCTION_24, symObjAddr: 0x4E95C, symBinAddr: 0x100037E54, symSize: 0xC }
  - { offset: 0x872BC, size: 0x8, addend: 0x0, symName: _OUTLINED_FUNCTION_25, symObjAddr: 0x4E968, symBinAddr: 0x100037E60, symSize: 0xC }
  - { offset: 0x872D4, size: 0x8, addend: 0x0, symName: _OUTLINED_FUNCTION_26, symObjAddr: 0x4E974, symBinAddr: 0x100037E6C, symSize: 0x8 }
  - { offset: 0x872EC, size: 0x8, addend: 0x0, symName: _OUTLINED_FUNCTION_27, symObjAddr: 0x4E97C, symBinAddr: 0x100037E74, symSize: 0x8 }
  - { offset: 0x87304, size: 0x8, addend: 0x0, symName: _OUTLINED_FUNCTION_28, symObjAddr: 0x4E984, symBinAddr: 0x100037E7C, symSize: 0xC }
  - { offset: 0x8731C, size: 0x8, addend: 0x0, symName: _OUTLINED_FUNCTION_29, symObjAddr: 0x4E990, symBinAddr: 0x100037E88, symSize: 0xC }
  - { offset: 0x87334, size: 0x8, addend: 0x0, symName: _OUTLINED_FUNCTION_30, symObjAddr: 0x4E99C, symBinAddr: 0x100037E94, symSize: 0xC }
  - { offset: 0x8734C, size: 0x8, addend: 0x0, symName: _OUTLINED_FUNCTION_31, symObjAddr: 0x4E9A8, symBinAddr: 0x100037EA0, symSize: 0x8 }
  - { offset: 0x87364, size: 0x8, addend: 0x0, symName: _OUTLINED_FUNCTION_32, symObjAddr: 0x4E9B0, symBinAddr: 0x100037EA8, symSize: 0x10 }
  - { offset: 0x8737C, size: 0x8, addend: 0x0, symName: _OUTLINED_FUNCTION_33, symObjAddr: 0x4E9C0, symBinAddr: 0x100037EB8, symSize: 0x14 }
  - { offset: 0x87394, size: 0x8, addend: 0x0, symName: _OUTLINED_FUNCTION_34, symObjAddr: 0x4E9D4, symBinAddr: 0x100037ECC, symSize: 0x14 }
  - { offset: 0x873AC, size: 0x8, addend: 0x0, symName: _OUTLINED_FUNCTION_35, symObjAddr: 0x4E9E8, symBinAddr: 0x100037EE0, symSize: 0x14 }
  - { offset: 0x873C4, size: 0x8, addend: 0x0, symName: _OUTLINED_FUNCTION_36, symObjAddr: 0x4E9FC, symBinAddr: 0x100037EF4, symSize: 0x14 }
  - { offset: 0x873FA, size: 0x8, addend: 0x0, symName: '__ZN4core3ptr49drop_in_place$LT$panic_unwind..imp..Exception$GT$17h527397a192ffb8f1E', symObjAddr: 0x0, symBinAddr: 0x100037F08, symSize: 0x78 }
  - { offset: 0x87420, size: 0x8, addend: 0x0, symName: '__ZN4core3ptr49drop_in_place$LT$panic_unwind..imp..Exception$GT$17h527397a192ffb8f1E', symObjAddr: 0x0, symBinAddr: 0x100037F08, symSize: 0x78 }
  - { offset: 0x87527, size: 0x8, addend: 0x0, symName: '__ZN4core3ptr74drop_in_place$LT$alloc..boxed..Box$LT$panic_unwind..imp..Exception$GT$$GT$17ha4260977db93ebb9E', symObjAddr: 0x78, symBinAddr: 0x100037F80, symSize: 0x8C }
  - { offset: 0x877EF, size: 0x8, addend: 0x0, symName: __ZN12panic_unwind3imp5panic17exception_cleanup17h2bbea2a6f8ecfebbE, symObjAddr: 0x20C, symBinAddr: 0x100038114, symSize: 0x18 }
  - { offset: 0x8780B, size: 0x8, addend: 0x0, symName: __RNvCs73fAdSrgOJL_7___rustc20___rust_panic_cleanup, symObjAddr: 0x104, symBinAddr: 0x10003800C, symSize: 0x68 }
  - { offset: 0x878B1, size: 0x8, addend: 0x0, symName: __RNvCs73fAdSrgOJL_7___rustc18___rust_start_panic, symObjAddr: 0x16C, symBinAddr: 0x100038074, symSize: 0xA0 }
  - { offset: 0x87B34, size: 0x8, addend: 0x0, symName: '__ZN69_$LT$core..alloc..layout..LayoutError$u20$as$u20$core..fmt..Debug$GT$3fmt17h13fbca3ca3dd174dE', symObjAddr: 0x3B8, symBinAddr: 0x10003F978, symSize: 0x14 }
  - { offset: 0x87E21, size: 0x8, addend: 0x0, symName: __ZN5alloc7raw_vec17capacity_overflow17hd8f87080832cecbdE, symObjAddr: 0x3CC, symBinAddr: 0x1000489C8, symSize: 0x34 }
  - { offset: 0x87E68, size: 0x8, addend: 0x0, symName: '__ZN5alloc7raw_vec20RawVecInner$LT$A$GT$7reserve21do_reserve_and_handle17h4dd33506b8348a9cE', symObjAddr: 0x4A0, symBinAddr: 0x1000489FC, symSize: 0xB0 }
  - { offset: 0x87F6A, size: 0x8, addend: 0x0, symName: __ZN5alloc7raw_vec11finish_grow17h38abc94d42a7bc55E, symObjAddr: 0x550, symBinAddr: 0x100048AAC, symSize: 0x80 }
  - { offset: 0x87FE0, size: 0x8, addend: 0x0, symName: __ZN5alloc7raw_vec12handle_error17h2ea1403ff25ec75cE, symObjAddr: 0x5D0, symBinAddr: 0x100048B2C, symSize: 0x18 }
  - { offset: 0x880DA, size: 0x8, addend: 0x0, symName: __ZN5alloc5alloc18handle_alloc_error17h18ccdcfeddefd4c6E, symObjAddr: 0x5E8, symBinAddr: 0x100048B44, symSize: 0x18 }
  - { offset: 0x8814C, size: 0x8, addend: 0x0, symName: __ZN5alloc6string6String15from_utf8_lossy17hbc43f3fc78418a81E, symObjAddr: 0x2E90, symBinAddr: 0x10003FCA8, symSize: 0x23C }
  - { offset: 0x88684, size: 0x8, addend: 0x0, symName: '__ZN98_$LT$alloc..string..String$u20$as$u20$core..convert..From$LT$alloc..borrow..Cow$LT$str$GT$$GT$$GT$4from17h4b68af2740d6abffE', symObjAddr: 0x47BC, symBinAddr: 0x10003FEE4, symSize: 0xB4 }
  - { offset: 0x88920, size: 0x8, addend: 0x0, symName: '__ZN93_$LT$alloc..collections..btree..mem..replace..PanicGuard$u20$as$u20$core..ops..drop..Drop$GT$4drop17he91a4622e79b07ddE', symObjAddr: 0xE74, symBinAddr: 0x100048B5C, symSize: 0x4 }
  - { offset: 0x88A21, size: 0x8, addend: 0x0, symName: '__ZN72_$LT$$RF$str$u20$as$u20$alloc..ffi..c_str..CString..new..SpecNewImpl$GT$13spec_new_impl17h19bc653579af59a5E', symObjAddr: 0xEF8, symBinAddr: 0x10003F98C, symSize: 0x114 }
  - { offset: 0x88C4D, size: 0x8, addend: 0x0, symName: __ZN5alloc3ffi5c_str7CString19_from_vec_unchecked17h26f80605e3bdda78E, symObjAddr: 0x1150, symBinAddr: 0x10003FAA0, symSize: 0x160 }
  - { offset: 0x88F73, size: 0x8, addend: 0x0, symName: __ZN5alloc3ffi5c_str7CString8from_raw17h1a969b5b39f2d46eE, symObjAddr: 0x12B0, symBinAddr: 0x10003FC00, symSize: 0x28 }
  - { offset: 0x88FA8, size: 0x8, addend: 0x0, symName: '__ZN100_$LT$alloc..ffi..c_str..CString$u20$as$u20$core..convert..From$LT$$RF$core..ffi..c_str..CStr$GT$$GT$4from17h793c5ab38e4e723fE', symObjAddr: 0x17CC, symBinAddr: 0x10003FC28, symSize: 0x80 }
  - { offset: 0x890B0, size: 0x8, addend: 0x0, symName: __ZN5alloc4sync32arcinner_layout_for_value_layout17h8c52c76ed82694fdE, symObjAddr: 0x4C48, symBinAddr: 0x10003FF98, symSize: 0x74 }
  - { offset: 0x891FA, size: 0x8, addend: 0x0, symName: __ZN4core3num22from_ascii_radix_panic8do_panic7runtime17h9ec10103f7c0716dE, symObjAddr: 0x17C88, symBinAddr: 0x100048F8C, symSize: 0x44 }
  - { offset: 0x8922D, size: 0x8, addend: 0x0, symName: __ZN4core3num22from_ascii_radix_panic17h8860cac63b800d2bE, symObjAddr: 0x3FD8, symBinAddr: 0x100048B60, symSize: 0xC }
  - { offset: 0x8979D, size: 0x8, addend: 0x0, symName: __ZN4core5slice5index26slice_start_index_len_fail8do_panic7runtime17h429c9cce17a0ea9bE, symObjAddr: 0x1C14C, symBinAddr: 0x1000490A4, symSize: 0x50 }
  - { offset: 0x897D0, size: 0x8, addend: 0x0, symName: __ZN4core5slice5index26slice_start_index_len_fail17haf25ebf915d057aaE, symObjAddr: 0xF0BC, symBinAddr: 0x100048F5C, symSize: 0xC }
  - { offset: 0x89816, size: 0x8, addend: 0x0, symName: __ZN4core5slice5index24slice_end_index_len_fail8do_panic7runtime17hdec1e0cff231be1dE, symObjAddr: 0x1C19C, symBinAddr: 0x1000490F4, symSize: 0x50 }
  - { offset: 0x89849, size: 0x8, addend: 0x0, symName: __ZN4core5slice5index24slice_end_index_len_fail17he89357cd02fca028E, symObjAddr: 0xF0C8, symBinAddr: 0x100048F68, symSize: 0xC }
  - { offset: 0x8988F, size: 0x8, addend: 0x0, symName: __ZN4core5slice5index22slice_index_order_fail8do_panic7runtime17h6303e3dc084ed840E, symObjAddr: 0x1C1EC, symBinAddr: 0x100049144, symSize: 0x50 }
  - { offset: 0x898C2, size: 0x8, addend: 0x0, symName: __ZN4core5slice5index22slice_index_order_fail17he9c8f4194031cd00E, symObjAddr: 0xF0D4, symBinAddr: 0x100048F74, symSize: 0xC }
  - { offset: 0x89C1B, size: 0x8, addend: 0x0, symName: __ZN4core5slice6memchr14memchr_aligned17hb906e7bc9e85c06eE, symObjAddr: 0xEA94, symBinAddr: 0x100042348, symSize: 0xDC }
  - { offset: 0x89CF7, size: 0x8, addend: 0x0, symName: __ZN4core5slice6memchr7memrchr17h7ceb156575b1a919E, symObjAddr: 0xEB70, symBinAddr: 0x100042424, symSize: 0x120 }
  - { offset: 0x89E50, size: 0x8, addend: 0x0, symName: __ZN4core5slice4sort6stable5drift11sqrt_approx17hd32bbcccc9c319c0E, symObjAddr: 0xEC90, symBinAddr: 0x100042544, symSize: 0x2C }
  - { offset: 0x89ECD, size: 0x8, addend: 0x0, symName: __ZN4core5slice4sort6shared9smallsort22panic_on_ord_violation17h87378ecb72803b59E, symObjAddr: 0xECBC, symBinAddr: 0x100048F24, symSize: 0x38 }
  - { offset: 0x8A034, size: 0x8, addend: 0x0, symName: '__ZN42_$LT$str$u20$as$u20$core..fmt..Display$GT$3fmt17h42462a8471c7143dE', symObjAddr: 0xE768, symBinAddr: 0x1000420E0, symSize: 0x14 }
  - { offset: 0x8A1D6, size: 0x8, addend: 0x0, symName: __ZN4core3fmt9Formatter12pad_integral17heb070ef6e4499464E, symObjAddr: 0xC07C, symBinAddr: 0x100041028, symSize: 0x3B4 }
  - { offset: 0x8A4D7, size: 0x8, addend: 0x0, symName: __ZN4core3fmt9Formatter3pad17h299da9dcc544e21cE, symObjAddr: 0xC4AC, symBinAddr: 0x100041458, symSize: 0x304 }
  - { offset: 0x8A837, size: 0x8, addend: 0x0, symName: __ZN4core3fmt9Formatter9write_str17hd9a1b7644989a9c8E, symObjAddr: 0xCC04, symBinAddr: 0x10004175C, symSize: 0x10 }
  - { offset: 0x8A84B, size: 0x8, addend: 0x0, symName: __ZN4core3fmt9Formatter12debug_struct17hf7643d0658ff94cfE, symObjAddr: 0xCC20, symBinAddr: 0x10004176C, symSize: 0x3C }
  - { offset: 0x8A88A, size: 0x8, addend: 0x0, symName: __ZN4core3fmt9Formatter26debug_struct_field1_finish17h3d8cc21df86d1f08E, symObjAddr: 0xCC5C, symBinAddr: 0x1000417A8, symSize: 0xD0 }
  - { offset: 0x8A961, size: 0x8, addend: 0x0, symName: __ZN4core3fmt9Formatter26debug_struct_field2_finish17h32b4f697403bec40E, symObjAddr: 0xCD2C, symBinAddr: 0x100041878, symSize: 0x104 }
  - { offset: 0x8AA38, size: 0x8, addend: 0x0, symName: __ZN4core3fmt9Formatter11debug_tuple17h3a3ca798bd11b2bcE, symObjAddr: 0xD340, symBinAddr: 0x10004197C, symSize: 0x50 }
  - { offset: 0x8AA8D, size: 0x8, addend: 0x0, symName: __ZN4core3fmt9Formatter25debug_tuple_field1_finish17h293fabc56e30d0f7E, symObjAddr: 0xD390, symBinAddr: 0x1000419CC, symSize: 0x160 }
  - { offset: 0x8AC8F, size: 0x8, addend: 0x0, symName: __ZN4core3fmt9Formatter25debug_tuple_field2_finish17h0773e66da7fec5dcE, symObjAddr: 0xD4F0, symBinAddr: 0x100041B2C, symSize: 0x1D8 }
  - { offset: 0x8AF87, size: 0x8, addend: 0x0, symName: __ZN4core3fmt9Formatter10debug_list17hb567e092460f51e4E, symObjAddr: 0xE2A4, symBinAddr: 0x100041D04, symSize: 0x48 }
  - { offset: 0x8B02F, size: 0x8, addend: 0x0, symName: __ZN4core3fmt8builders11DebugStruct5field17hcf92289f4867f5e5E, symObjAddr: 0x8288, symBinAddr: 0x100040864, symSize: 0x1B4 }
  - { offset: 0x8B22E, size: 0x8, addend: 0x0, symName: __ZN4core3fmt8builders11DebugStruct6finish17h21c87724d91d861aE, symObjAddr: 0x8500, symBinAddr: 0x100040A18, symSize: 0x80 }
  - { offset: 0x8B32F, size: 0x8, addend: 0x0, symName: '__ZN68_$LT$core..fmt..builders..PadAdapter$u20$as$u20$core..fmt..Write$GT$9write_str17hc0cf6ed124d300b4E', symObjAddr: 0x7FB0, symBinAddr: 0x10004058C, symSize: 0x258 }
  - { offset: 0x8B5AF, size: 0x8, addend: 0x0, symName: '__ZN68_$LT$core..fmt..builders..PadAdapter$u20$as$u20$core..fmt..Write$GT$10write_char17h9657826e049c4398E', symObjAddr: 0x8208, symBinAddr: 0x1000407E4, symSize: 0x80 }
  - { offset: 0x8B634, size: 0x8, addend: 0x0, symName: __ZN4core3fmt8builders10DebugTuple5field17he743b1e43a659b47E, symObjAddr: 0x8580, symBinAddr: 0x100040A98, symSize: 0x148 }
  - { offset: 0x8B7C0, size: 0x8, addend: 0x0, symName: __ZN4core3fmt8builders10DebugTuple6finish17h39fdb22d98cc1346E, symObjAddr: 0x8788, symBinAddr: 0x100040BE0, symSize: 0xB0 }
  - { offset: 0x8B90F, size: 0x8, addend: 0x0, symName: __ZN4core3fmt8builders8DebugSet5entry17h99c874a0178a5542E, symObjAddr: 0x8838, symBinAddr: 0x100040C90, symSize: 0x148 }
  - { offset: 0x8BAB4, size: 0x8, addend: 0x0, symName: __ZN4core3fmt8builders9DebugList6finish17hd378c2ebba87d08dE, symObjAddr: 0x8B58, symBinAddr: 0x100040DD8, symSize: 0x4C }
  - { offset: 0x8BC84, size: 0x8, addend: 0x0, symName: '__ZN4core3fmt3num53_$LT$impl$u20$core..fmt..LowerHex$u20$for$u20$i32$GT$3fmt17h6e850657c74d9d25E', symObjAddr: 0x19818, symBinAddr: 0x100044338, symSize: 0x80 }
  - { offset: 0x8BD2C, size: 0x8, addend: 0x0, symName: '__ZN4core3fmt3num53_$LT$impl$u20$core..fmt..UpperHex$u20$for$u20$i32$GT$3fmt17h997afd280f6b29c7E', symObjAddr: 0x19898, symBinAddr: 0x1000443B8, symSize: 0x80 }
  - { offset: 0x8BDD4, size: 0x8, addend: 0x0, symName: '__ZN4core3fmt3num53_$LT$impl$u20$core..fmt..LowerHex$u20$for$u20$i64$GT$3fmt17hbe7c020a02da664cE', symObjAddr: 0x199F8, symBinAddr: 0x100044438, symSize: 0x80 }
  - { offset: 0x8BE7C, size: 0x8, addend: 0x0, symName: '__ZN4core3fmt3num53_$LT$impl$u20$core..fmt..UpperHex$u20$for$u20$i64$GT$3fmt17h740b27e908318385E', symObjAddr: 0x19A78, symBinAddr: 0x1000444B8, symSize: 0x80 }
  - { offset: 0x8BF17, size: 0x8, addend: 0x0, symName: '__ZN4core3fmt3num52_$LT$impl$u20$core..fmt..LowerHex$u20$for$u20$i8$GT$3fmt17h4b4be5c7ea7962d0E', symObjAddr: 0x19458, symBinAddr: 0x100044238, symSize: 0x80 }
  - { offset: 0x8BFC6, size: 0x8, addend: 0x0, symName: '__ZN4core3fmt3num52_$LT$impl$u20$core..fmt..UpperHex$u20$for$u20$i8$GT$3fmt17h05fab38eb12d6eccE', symObjAddr: 0x194D8, symBinAddr: 0x1000442B8, symSize: 0x80 }
  - { offset: 0x8C09A, size: 0x8, addend: 0x0, symName: '__ZN4core3fmt3num3imp51_$LT$impl$u20$core..fmt..Display$u20$for$u20$u8$GT$3fmt17h6b187241d8419cbfE', symObjAddr: 0x1A470, symBinAddr: 0x100044538, symSize: 0xB0 }
  - { offset: 0x8C15E, size: 0x8, addend: 0x0, symName: '__ZN4core3fmt3num3imp52_$LT$impl$u20$core..fmt..Display$u20$for$u20$u32$GT$3fmt17hdad8bbb1fd1b667aE', symObjAddr: 0x1A984, symBinAddr: 0x1000445E8, symSize: 0x130 }
  - { offset: 0x8C237, size: 0x8, addend: 0x0, symName: '__ZN4core3fmt3num3imp52_$LT$impl$u20$core..fmt..Display$u20$for$u20$i32$GT$3fmt17hf57747113c1e0663E', symObjAddr: 0x1AAB4, symBinAddr: 0x100044718, symSize: 0x13C }
  - { offset: 0x8C335, size: 0x8, addend: 0x0, symName: '__ZN4core3fmt3num3imp52_$LT$impl$u20$core..fmt..Display$u20$for$u20$u64$GT$3fmt17ha8fcf0d52ed54e0fE', symObjAddr: 0x1ACF8, symBinAddr: 0x100044854, symSize: 0x13C }
  - { offset: 0x8C48E, size: 0x8, addend: 0x0, symName: '__ZN57_$LT$core..fmt..Formatter$u20$as$u20$core..fmt..Write$GT$10write_char17h6d68564ee698b1edE', symObjAddr: 0xE38C, symBinAddr: 0x100041D4C, symSize: 0x10 }
  - { offset: 0x8C4C1, size: 0x8, addend: 0x0, symName: __ZN4core3fmt5Write9write_fmt17h9614ff1edc252aa5E, symObjAddr: 0xBE40, symBinAddr: 0x100040E24, symSize: 0x10 }
  - { offset: 0x8C504, size: 0x8, addend: 0x0, symName: '__ZN59_$LT$core..fmt..Arguments$u20$as$u20$core..fmt..Display$GT$3fmt17h3a775e5eedaf7738E', symObjAddr: 0xBE88, symBinAddr: 0x100040E34, symSize: 0xC }
  - { offset: 0x8C568, size: 0x8, addend: 0x0, symName: __ZN4core3fmt5write17h2c4a0b98b09e3b30E, symObjAddr: 0xBE94, symBinAddr: 0x100040E40, symSize: 0x1E8 }
  - { offset: 0x8C747, size: 0x8, addend: 0x0, symName: __ZN4core3fmt9Formatter12pad_integral12write_prefix17hc2a717568d4daf91E, symObjAddr: 0xC430, symBinAddr: 0x1000413DC, symSize: 0x7C }
  - { offset: 0x8C78D, size: 0x8, addend: 0x0, symName: '__ZN42_$LT$$RF$T$u20$as$u20$core..fmt..Debug$GT$3fmt17h6e4f67bb97a98f3cE', symObjAddr: 0x1BFA8, symBinAddr: 0x100044990, symSize: 0xE0 }
  - { offset: 0x8C8AB, size: 0x8, addend: 0x0, symName: '__ZN42_$LT$$RF$T$u20$as$u20$core..fmt..Debug$GT$3fmt17hfbab3261e141b19fE', symObjAddr: 0x1C090, symBinAddr: 0x100044A70, symSize: 0x10 }
  - { offset: 0x8C8E7, size: 0x8, addend: 0x0, symName: '__ZN40_$LT$str$u20$as$u20$core..fmt..Debug$GT$3fmt17h6bb0dde775cede54E', symObjAddr: 0xE3E4, symBinAddr: 0x100041D5C, symSize: 0x384 }
  - { offset: 0x8CCEC, size: 0x8, addend: 0x0, symName: '__ZN41_$LT$char$u20$as$u20$core..fmt..Debug$GT$3fmt17h5b77a63018c31381E', symObjAddr: 0xE77C, symBinAddr: 0x1000420F4, symSize: 0xA8 }
  - { offset: 0x8CDF6, size: 0x8, addend: 0x0, symName: '__ZN43_$LT$char$u20$as$u20$core..fmt..Display$GT$3fmt17hccc7cc18179c4872E', symObjAddr: 0xE824, symBinAddr: 0x10004219C, symSize: 0xEC }
  - { offset: 0x8CE75, size: 0x8, addend: 0x0, symName: __ZN4core3fmt17pointer_fmt_inner17h454be370dc368025E, symObjAddr: 0xE910, symBinAddr: 0x100042288, symSize: 0xC0 }
  - { offset: 0x8CF5D, size: 0x8, addend: 0x0, symName: '__ZN44_$LT$$RF$T$u20$as$u20$core..fmt..Display$GT$3fmt17hbbf5e2ca3c54582bE', symObjAddr: 0x1C0B0, symBinAddr: 0x100044A80, symSize: 0x10 }
  - { offset: 0x8D08F, size: 0x8, addend: 0x0, symName: __ZN4core6option13unwrap_failed17h1f788aa856a0b42eE, symObjAddr: 0x7830, symBinAddr: 0x100048BB0, symSize: 0x1C }
  - { offset: 0x8D0AA, size: 0x8, addend: 0x0, symName: __ZN4core6option13expect_failed17h89af471ff13548f9E, symObjAddr: 0x784C, symBinAddr: 0x100048BCC, symSize: 0x48 }
  - { offset: 0x8D102, size: 0x8, addend: 0x0, symName: '__ZN71_$LT$core..ops..range..Range$LT$Idx$GT$$u20$as$u20$core..fmt..Debug$GT$3fmt17h658e9a2f8f4bbb48E', symObjAddr: 0x414C, symBinAddr: 0x10004000C, symSize: 0x1F8 }
  - { offset: 0x8D57F, size: 0x8, addend: 0x0, symName: __ZN4core6result13unwrap_failed17h7f68c62f4ec5b70eE, symObjAddr: 0x7EFC, symBinAddr: 0x100048EC8, symSize: 0x5C }
  - { offset: 0x8D7BE, size: 0x8, addend: 0x0, symName: __ZN4core3str5count14do_count_chars17hd2a57b08be8d1b70E, symObjAddr: 0xF77C, symBinAddr: 0x1000427E4, symSize: 0x718 }
  - { offset: 0x8DB0F, size: 0x8, addend: 0x0, symName: __ZN4core3str5count23char_count_general_case17h0d6812726d9a8e15E, symObjAddr: 0xFE94, symBinAddr: 0x100042EFC, symSize: 0x2A8 }
  - { offset: 0x8DBBC, size: 0x8, addend: 0x0, symName: __ZN4core3str8converts9from_utf817h7b78634a00291fadE, symObjAddr: 0xF294, symBinAddr: 0x100042570, symSize: 0x274 }
  - { offset: 0x8DBD9, size: 0x8, addend: 0x0, symName: __ZN4core3str8converts9from_utf817h7b78634a00291fadE, symObjAddr: 0xF294, symBinAddr: 0x100042570, symSize: 0x274 }
  - { offset: 0x8DCC7, size: 0x8, addend: 0x0, symName: __ZN4core3str7pattern11StrSearcher3new17hd95460b09bffc181E, symObjAddr: 0x1087C, symBinAddr: 0x1000431A4, symSize: 0x8BC }
  - { offset: 0x8DFE1, size: 0x8, addend: 0x0, symName: '__ZN87_$LT$core..str..lossy..Utf8Chunks$u20$as$u20$core..iter..traits..iterator..Iterator$GT$4next17h454b21b309792e7dE', symObjAddr: 0x1149C, symBinAddr: 0x100043A60, symSize: 0x1C0 }
  - { offset: 0x8E1E5, size: 0x8, addend: 0x0, symName: __ZN4core3str16slice_error_fail17h061e87b9dfc55aadE, symObjAddr: 0x11728, symBinAddr: 0x100048F80, symSize: 0xC }
  - { offset: 0x8E1FF, size: 0x8, addend: 0x0, symName: __ZN4core3str19slice_error_fail_rt17h7e572c53c14a04e8E, symObjAddr: 0x11768, symBinAddr: 0x100043C20, symSize: 0x344 }
  - { offset: 0x8E427, size: 0x8, addend: 0x0, symName: '__ZN4core4char7methods22_$LT$impl$u20$char$GT$16escape_debug_ext17h530e3c57cef50f83E', symObjAddr: 0x4EEC, symBinAddr: 0x100040218, symSize: 0x284 }
  - { offset: 0x8E63B, size: 0x8, addend: 0x0, symName: __ZN4core4char7methods15encode_utf8_raw8do_panic7runtime17he7bfa606ee446088E, symObjAddr: 0x17D20, symBinAddr: 0x100048FD0, symSize: 0x6C }
  - { offset: 0x8E6E0, size: 0x8, addend: 0x0, symName: '__ZN65_$LT$core..cell..BorrowMutError$u20$as$u20$core..fmt..Display$GT$3fmt17hce6430c2316144b4E', symObjAddr: 0x4DB8, symBinAddr: 0x100040204, symSize: 0x14 }
  - { offset: 0x8E712, size: 0x8, addend: 0x0, symName: __ZN4core4cell22panic_already_borrowed17h0d36ae2fc2f0ba17E, symObjAddr: 0x4DCC, symBinAddr: 0x100048B6C, symSize: 0x44 }
  - { offset: 0x8E762, size: 0x8, addend: 0x0, symName: __ZN4core7unicode12unicode_data15grapheme_extend11lookup_slow17hd2a4fb5538b8240dE, symObjAddr: 0x1D5B0, symBinAddr: 0x100044AA8, symSize: 0x108 }
  - { offset: 0x8E927, size: 0x8, addend: 0x0, symName: __ZN4core7unicode12unicode_data2cc6lookup17h1698536727c00c0fE, symObjAddr: 0x1D598, symBinAddr: 0x100044A90, symSize: 0x18 }
  - { offset: 0x8E945, size: 0x8, addend: 0x0, symName: __ZN4core7unicode12unicode_data2cc6lookup17h1698536727c00c0fE, symObjAddr: 0x1D598, symBinAddr: 0x100044A90, symSize: 0x18 }
  - { offset: 0x8E979, size: 0x8, addend: 0x0, symName: __ZN4core7unicode9printable12is_printable17h484639cf451143c4E, symObjAddr: 0x12484, symBinAddr: 0x100043F64, symSize: 0x2B4 }
  - { offset: 0x8EC8B, size: 0x8, addend: 0x0, symName: __ZN4core3ffi5c_str4CStr19from_bytes_with_nul17h3a2ee221267d5c22E, symObjAddr: 0x5480, symBinAddr: 0x10004049C, symSize: 0xF0 }
  - { offset: 0x8ECA9, size: 0x8, addend: 0x0, symName: __ZN4core3ffi5c_str4CStr19from_bytes_with_nul17h3a2ee221267d5c22E, symObjAddr: 0x5480, symBinAddr: 0x10004049C, symSize: 0xF0 }
  - { offset: 0x8ED78, size: 0x8, addend: 0x0, symName: __ZN4core9panicking9panic_fmt17h3505bfbec5a0b799E, symObjAddr: 0x7AA4, symBinAddr: 0x100048C14, symSize: 0x20 }
  - { offset: 0x8EDBB, size: 0x8, addend: 0x0, symName: __ZN4core9panicking18panic_nounwind_fmt17h9dceef42c0a45ea6E, symObjAddr: 0x7AC4, symBinAddr: 0x100048C34, symSize: 0x3C }
  - { offset: 0x8EE00, size: 0x8, addend: 0x0, symName: __ZN4core9panicking5panic17he76e9111fdaa2ca0E, symObjAddr: 0x7B00, symBinAddr: 0x100048C70, symSize: 0x34 }
  - { offset: 0x8EE2F, size: 0x8, addend: 0x0, symName: __ZN4core9panicking14panic_nounwind17h9f7565b148aca0eaE, symObjAddr: 0x7B34, symBinAddr: 0x100048CA4, symSize: 0x3C }
  - { offset: 0x8EE5E, size: 0x8, addend: 0x0, symName: __ZN4core9panicking26panic_nounwind_nobacktrace17h12b19155b129e9d4E, symObjAddr: 0x7B70, symBinAddr: 0x100048CE0, symSize: 0x3C }
  - { offset: 0x8EE8D, size: 0x8, addend: 0x0, symName: __ZN4core9panicking18panic_bounds_check17he97faa96f3a18922E, symObjAddr: 0x7BF4, symBinAddr: 0x100048D1C, symSize: 0x50 }
  - { offset: 0x8EEBF, size: 0x8, addend: 0x0, symName: __ZN4core9panicking19panic_cannot_unwind17hf7c38fa209f60374E, symObjAddr: 0x7CD4, symBinAddr: 0x100048D6C, symSize: 0x18 }
  - { offset: 0x8EEDA, size: 0x8, addend: 0x0, symName: __ZN4core9panicking16panic_in_cleanup17hdc9dae2f5fec47e4E, symObjAddr: 0x7CEC, symBinAddr: 0x100048D84, symSize: 0x18 }
  - { offset: 0x8EEF5, size: 0x8, addend: 0x0, symName: __ZN4core9panicking13assert_failed17h0019f4c0f6063c60E, symObjAddr: 0x7D68, symBinAddr: 0x100048D9C, symSize: 0x24 }
  - { offset: 0x8EF10, size: 0x8, addend: 0x0, symName: __ZN4core9panicking13assert_failed17h748d75638d28cdb2E, symObjAddr: 0x7D8C, symBinAddr: 0x100048DC0, symSize: 0x24 }
  - { offset: 0x8EF2B, size: 0x8, addend: 0x0, symName: __ZN4core9panicking19assert_failed_inner17hcd9fdaaa091321f9E, symObjAddr: 0x7DC4, symBinAddr: 0x100048DE4, symSize: 0xE4 }
  - { offset: 0x8EF78, size: 0x8, addend: 0x0, symName: __ZN4core9panicking11panic_const23panic_const_div_by_zero17h31f967ea86996136E, symObjAddr: 0x18300, symBinAddr: 0x10004903C, symSize: 0x34 }
  - { offset: 0x8EFA7, size: 0x8, addend: 0x0, symName: __ZN4core9panicking11panic_const23panic_const_rem_by_zero17ha1e16486c02437ccE, symObjAddr: 0x18334, symBinAddr: 0x100049070, symSize: 0x34 }
  - { offset: 0x8F013, size: 0x8, addend: 0x0, symName: __ZN4core5alloc6layout6Layout19is_size_align_valid17h9081c126d538f17aE, symObjAddr: 0x129D4, symBinAddr: 0x100044218, symSize: 0x20 }
  - { offset: 0x8F030, size: 0x8, addend: 0x0, symName: __ZN4core5alloc6layout6Layout19is_size_align_valid17h9081c126d538f17aE, symObjAddr: 0x129D4, symBinAddr: 0x100044218, symSize: 0x20 }
  - { offset: 0x8F05A, size: 0x8, addend: 0x0, symName: _OUTLINED_FUNCTION_0, symObjAddr: 0x1DCF4, symBinAddr: 0x100044BB0, symSize: 0x10 }
...
