---
triple:          'arm64-apple-darwin'
binary-path:     '/Users/tyler/fall25/cse380/final_project/final_project_sqlite/target/debug/deps/libfutures_macro-1a8c4a3a83d12767.dylib'
relocations:
  - { offset: 0x1E, size: 0x8, addend: 0x0, symName: __RINvMNtCsaNl6UpbT7bw_4core6optionINtB3_6OptionNtCshnvkK9b4wzu_11proc_macro29TokenTreeE11map_or_elseNtBK_4SpanNvMse_BK_B1z_9call_siteNCNvNtCsi6DBJJHK2XK_13futures_macro8executor4test0EB2c_, symObjAddr: 0x0, symBinAddr: 0xC50, symSize: 0xE4 }
  - { offset: 0x3EB, size: 0x8, addend: 0x0, symName: __RNvXsR_NtCs7yrEGia95Wz_10proc_macro6bridgeINtNtCsaNl6UpbT7bw_4core6option6OptionNtNtB5_6client11TokenStreamEINtNtB5_3rpc6EncodeuE6encodeCsi6DBJJHK2XK_13futures_macro, symObjAddr: 0x1D3C, symBinAddr: 0x2964, symSize: 0xCC }
  - { offset: 0x491, size: 0x8, addend: 0x0, symName: __RNvXsR_NtCs7yrEGia95Wz_10proc_macro6bridgeINtNtCsaNl6UpbT7bw_4core6option6OptionReEINtNtB5_3rpc6EncodeuE6encodeCsi6DBJJHK2XK_13futures_macro, symObjAddr: 0x1E08, symBinAddr: 0x2A30, symSize: 0xD8 }
  - { offset: 0x9E2, size: 0x8, addend: 0x0, symName: __RNvXsA_NtCshnvkK9b4wzu_11proc_macro28fallbackNtB5_5IdentNtNtCsaNl6UpbT7bw_4core5clone5Clone5cloneCsi6DBJJHK2XK_13futures_macro, symObjAddr: 0x1C40, symBinAddr: 0x2868, symSize: 0x94 }
  - { offset: 0xA16, size: 0x8, addend: 0x0, symName: __RNvXsu_NtCshnvkK9b4wzu_11proc_macro28fallbackNtB5_4SpanNtNtCsaNl6UpbT7bw_4core5clone5Clone5cloneCsi6DBJJHK2XK_13futures_macro, symObjAddr: 0x268C, symBinAddr: 0x32B4, symSize: 0x10 }
  - { offset: 0xD95, size: 0x8, addend: 0x0, symName: __RNCNvXs1_NtNtNtCsht3nMU9UgFu_3std2io5error14repr_bitpackedNtB7_4ReprNtNtNtCsaNl6UpbT7bw_4core3ops4drop4Drop4drop0Csi6DBJJHK2XK_13futures_macro, symObjAddr: 0x9B8, symBinAddr: 0x15E0, symSize: 0x3C }
  - { offset: 0xE4A, size: 0x8, addend: 0x0, symName: __RNvXs1_NtNtNtCsht3nMU9UgFu_3std2io5error14repr_bitpackedNtB5_4ReprNtNtNtCsaNl6UpbT7bw_4core3ops4drop4Drop4dropCsi6DBJJHK2XK_13futures_macro, symObjAddr: 0x1B84, symBinAddr: 0x27AC, symSize: 0x38 }
  - { offset: 0xE73, size: 0x8, addend: 0x0, symName: __RINvNtNtNtCsht3nMU9UgFu_3std2io5error14repr_bitpacked11decode_reprINtNtCsiTraAjBDcu4_5alloc5boxed3BoxNtB4_6CustomENCNvXs1_B2_NtB2_4ReprNtNtNtCsaNl6UpbT7bw_4core3ops4drop4Drop4drop0ECsi6DBJJHK2XK_13futures_macro, symObjAddr: 0x78C, symBinAddr: 0x13DC, symSize: 0x1DC }
  - { offset: 0x10CF, size: 0x8, addend: 0x0, symName: __RNvNtNtNtCsht3nMU9UgFu_3std2io5error14repr_bitpacked14kind_from_primCsi6DBJJHK2XK_13futures_macro, symObjAddr: 0xC6C, symBinAddr: 0x1894, symSize: 0x758 }
  - { offset: 0x1A72, size: 0x8, addend: 0x0, symName: __RNCNvMs3_NtNtCsht3nMU9UgFu_3std6thread5localINtB7_8LocalKeyINtNtCsaNl6UpbT7bw_4core4cell4CellPuEE7replace0Csi6DBJJHK2XK_13futures_macro, symObjAddr: 0x990, symBinAddr: 0x15B8, symSize: 0x28 }
  - { offset: 0x3C75, size: 0x8, addend: 0x0, symName: __RNvXsP_NtCsaNl6UpbT7bw_4core6optionINtB5_8IntoIterRNtNtCsc29TF2YcYso_3syn4expr4ExprENtNtB7_5clone5Clone5cloneCsi6DBJJHK2XK_13futures_macro, symObjAddr: 0x1CD4, symBinAddr: 0x28FC, symSize: 0x68 }
  - { offset: 0x3DC6, size: 0x8, addend: 0x0, symName: __RNvXsw_NtCsaNl6UpbT7bw_4core6optionINtB5_8IntoIterRNtNtCsc29TF2YcYso_3syn4expr4ExprENtNtNtNtB7_4iter6traits8iterator8Iterator9size_hintCsi6DBJJHK2XK_13futures_macro, symObjAddr: 0x269C, symBinAddr: 0x32C4, symSize: 0x44 }
  - { offset: 0x4C62, size: 0x8, addend: 0x0, symName: __RNvNvNtNtCsaNl6UpbT7bw_4core5slice3raw14from_raw_parts18precondition_checkCsi6DBJJHK2XK_13futures_macro, symObjAddr: 0x15A8, symBinAddr: 0x21D0, symSize: 0x1DC }
  - { offset: 0x4DE6, size: 0x8, addend: 0x0, symName: __RNvNvNtNtCsaNl6UpbT7bw_4core5slice3raw18from_raw_parts_mut18precondition_checkCsi6DBJJHK2XK_13futures_macro, symObjAddr: 0x1784, symBinAddr: 0x23AC, symSize: 0x1DC }
  - { offset: 0x5653, size: 0x8, addend: 0x0, symName: __RNvNvNtCsaNl6UpbT7bw_4core4hint16assert_unchecked18precondition_checkCsi6DBJJHK2XK_13futures_macro, symObjAddr: 0x1480, symBinAddr: 0x20A8, symSize: 0xA4 }
  - { offset: 0x56B3, size: 0x8, addend: 0x0, symName: __RNvNvNtCsaNl6UpbT7bw_4core4hint21unreachable_unchecked18precondition_checkCsi6DBJJHK2XK_13futures_macro, symObjAddr: 0x1524, symBinAddr: 0x214C, symSize: 0x84 }
  - { offset: 0x59BD, size: 0x8, addend: 0x0, symName: __RNvNvMNtNtCsaNl6UpbT7bw_4core5alloc6layoutNtB4_6Layout25from_size_align_unchecked18precondition_checkCsi6DBJJHK2XK_13futures_macro, symObjAddr: 0x13C4, symBinAddr: 0x1FEC, symSize: 0xBC }
  - { offset: 0x5BFC, size: 0x8, addend: 0x0, symName: __RNvYINtNtCsaNl6UpbT7bw_4core6option8IntoIterRNtNtCsc29TF2YcYso_3syn4expr4ExprENtNtNtNtB7_4iter6traits10exact_size17ExactSizeIterator3lenCsi6DBJJHK2XK_13futures_macro, symObjAddr: 0x26E0, symBinAddr: 0x3308, symSize: 0xC4 }
  - { offset: 0x65DA, size: 0x8, addend: 0x0, symName: __RNvXs0_NtNtCsiTraAjBDcu4_5alloc3vec13in_place_dropINtB5_24InPlaceDstDataSrcBufDropNtNtCsc29TF2YcYso_3syn4expr4ExprNtB1k_8ExprPathENtNtNtCsaNl6UpbT7bw_4core3ops4drop4Drop4dropCsi6DBJJHK2XK_13futures_macro, symObjAddr: 0x1A14, symBinAddr: 0x263C, symSize: 0xB8 }
  - { offset: 0x6720, size: 0x8, addend: 0x0, symName: __RNvXs0_NtNtCsiTraAjBDcu4_5alloc3vec13in_place_dropINtB5_24InPlaceDstDataSrcBufDropNtNtCsc29TF2YcYso_3syn4expr4ExprNtCshnvkK9b4wzu_11proc_macro25IdentENtNtNtCsaNl6UpbT7bw_4core3ops4drop4Drop4dropCsi6DBJJHK2XK_13futures_macro, symObjAddr: 0x1ACC, symBinAddr: 0x26F4, symSize: 0xB8 }
  - { offset: 0x686C, size: 0x8, addend: 0x0, symName: __RNvXs_NtNtCsiTraAjBDcu4_5alloc3vec13in_place_dropINtB4_11InPlaceDropNtCshnvkK9b4wzu_11proc_macro25IdentENtNtNtCsaNl6UpbT7bw_4core3ops4drop4Drop4dropCsi6DBJJHK2XK_13futures_macro, symObjAddr: 0x1EE0, symBinAddr: 0x2B08, symSize: 0x70 }
  - { offset: 0x68C2, size: 0x8, addend: 0x0, symName: __RNvXs_NtNtCsiTraAjBDcu4_5alloc3vec13in_place_dropINtB4_11InPlaceDropNtNtCsc29TF2YcYso_3syn4expr8ExprPathENtNtNtCsaNl6UpbT7bw_4core3ops4drop4Drop4dropCsi6DBJJHK2XK_13futures_macro, symObjAddr: 0x1F50, symBinAddr: 0x2B78, symSize: 0x70 }
  - { offset: 0x7422, size: 0x8, addend: 0x0, symName: __RNCNvNtCsi6DBJJHK2XK_13futures_macro6select12select_inner0B5_, symObjAddr: 0x6A30, symBinAddr: 0x7658, symSize: 0x4D0 }
  - { offset: 0x7505, size: 0x8, addend: 0x0, symName: __RNCNvNtCsi6DBJJHK2XK_13futures_macro6select12select_inners_0B5_, symObjAddr: 0x6F00, symBinAddr: 0x7B28, symSize: 0xC0C }
  - { offset: 0x7653, size: 0x8, addend: 0x0, symName: __RNCNvNtCsi6DBJJHK2XK_13futures_macro6select12select_inners0_0B5_, symObjAddr: 0x7B0C, symBinAddr: 0x8734, symSize: 0x1CC }
  - { offset: 0x76EE, size: 0x8, addend: 0x0, symName: __RNCNvNtCsi6DBJJHK2XK_13futures_macro6select12select_inners1_0B5_, symObjAddr: 0x7CD8, symBinAddr: 0x8900, symSize: 0x154 }
  - { offset: 0x7781, size: 0x8, addend: 0x0, symName: __RNvXNtCsi6DBJJHK2XK_13futures_macro6selectNtB2_6SelectNtNtCsc29TF2YcYso_3syn5parse5Parse5parse, symObjAddr: 0x27D0, symBinAddr: 0x33F8, symSize: 0xE00 }
  - { offset: 0x7980, size: 0x8, addend: 0x0, symName: __RNvNtCsi6DBJJHK2XK_13futures_macro6select19declare_result_enum, symObjAddr: 0x35D0, symBinAddr: 0x41F8, symSize: 0x580 }
  - { offset: 0x7C24, size: 0x8, addend: 0x0, symName: __RNCNvNtCsi6DBJJHK2XK_13futures_macro6select19declare_result_enum0B5_, symObjAddr: 0x3B50, symBinAddr: 0x4778, symSize: 0x100 }
  - { offset: 0x7CB2, size: 0x8, addend: 0x0, symName: __RNvNtCsi6DBJJHK2XK_13futures_macro6select6select, symObjAddr: 0x3C50, symBinAddr: 0x4878, symSize: 0x38 }
  - { offset: 0x7CDE, size: 0x8, addend: 0x0, symName: __RNvNtCsi6DBJJHK2XK_13futures_macro6select13select_biased, symObjAddr: 0x3C88, symBinAddr: 0x48B0, symSize: 0x38 }
  - { offset: 0x7D0A, size: 0x8, addend: 0x0, symName: __RNvNtCsi6DBJJHK2XK_13futures_macro6select12select_inner, symObjAddr: 0x3CC0, symBinAddr: 0x48E8, symSize: 0x2D70 }
  - { offset: 0x8447, size: 0x8, addend: 0x0, symName: __RNvXs_NvNtNtCsi6DBJJHK2XK_13futures_macro6select2kw1__NtB6_8completeNtNtNtCsc29TF2YcYso_3syn5token7private11CustomToken4peek, symObjAddr: 0x7E2C, symBinAddr: 0x8A54, symSize: 0x12C }
  - { offset: 0x849D, size: 0x8, addend: 0x0, symName: __RNvXs0_NvNtNtCsi6DBJJHK2XK_13futures_macro6select2kw1__NtB7_8completeNtNtCsc29TF2YcYso_3syn5parse5Parse5parse, symObjAddr: 0x7F58, symBinAddr: 0x8B80, symSize: 0x34 }
  - { offset: 0x84CE, size: 0x8, addend: 0x0, symName: __RNCNvXs0_NvNtNtCsi6DBJJHK2XK_13futures_macro6select2kw1__NtB9_8completeNtNtCsc29TF2YcYso_3syn5parse5Parse5parse0Bd_, symObjAddr: 0x7F8C, symBinAddr: 0x8BB4, symSize: 0x1F0 }
  - { offset: 0x85FC, size: 0x8, addend: 0x0, symName: __RINvMNtCsaNl6UpbT7bw_4core6optionINtB3_6OptionNtCshnvkK9b4wzu_11proc_macro29TokenTreeE11map_or_elseNtBK_4SpanNvMse_BK_B1z_9call_siteNCNvNtCsi6DBJJHK2XK_13futures_macro8executor4test0EB2c_, symObjAddr: 0x0, symBinAddr: 0xC50, symSize: 0xE4 }
  - { offset: 0x8678, size: 0x8, addend: 0x0, symName: __RINvMNtCsaNl6UpbT7bw_4core6optionINtB3_6OptionNtCshnvkK9b4wzu_11proc_macro29TokenTreeE6map_orNtBK_4SpanNCNvNtCsi6DBJJHK2XK_13futures_macro8executor4tests_0EB1J_, symObjAddr: 0xE4, symBinAddr: 0xD34, symSize: 0xC8 }
  - { offset: 0x9FBE, size: 0x8, addend: 0x0, symName: __RNvXs0_NtCsc29TF2YcYso_3syn5tokenNtNtNtCsi6DBJJHK2XK_13futures_macro6select2kw8completeNtB5_5Token4peekBB_, symObjAddr: 0x19D8, symBinAddr: 0x2600, symSize: 0x3C }
  - { offset: 0xD386, size: 0x8, addend: 0x0, symName: __RINvNtCsc29TF2YcYso_3syn11parse_quote5parseNtNtB4_4expr8ExprPathECsi6DBJJHK2XK_13futures_macro, symObjAddr: 0x5EC, symBinAddr: 0x123C, symSize: 0xCC }
  - { offset: 0xD3E6, size: 0x8, addend: 0x0, symName: __RINvNtCsc29TF2YcYso_3syn11parse_quote5parseNtNtB4_4item8ItemEnumECsi6DBJJHK2XK_13futures_macro, symObjAddr: 0x6B8, symBinAddr: 0x1308, symSize: 0xD4 }
  - { offset: 0xD44B, size: 0x8, addend: 0x0, symName: __RINvNvNtCsc29TF2YcYso_3syn11parse_quote5parse18panic_cold_displayNtNtB6_5error5ErrorECsi6DBJJHK2XK_13futures_macro, symObjAddr: 0x968, symBinAddr: 0x15CB90, symSize: 0x28 }
  - { offset: 0xD488, size: 0x8, addend: 0x0, symName: __RNvXsh_NtCsc29TF2YcYso_3syn5parseNvYNtNtB7_4expr8ExprPathNtNtB7_11parse_quote10ParseQuote5parseNtB5_6Parser6parse2Csi6DBJJHK2XK_13futures_macro, symObjAddr: 0x1FC0, symBinAddr: 0x2BE8, symSize: 0x364 }
  - { offset: 0xD598, size: 0x8, addend: 0x0, symName: __RNvXsh_NtCsc29TF2YcYso_3syn5parseNvYNtNtB7_4item8ItemEnumNtNtB7_11parse_quote10ParseQuote5parseNtB5_6Parser6parse2Csi6DBJJHK2XK_13futures_macro, symObjAddr: 0x2324, symBinAddr: 0x2F4C, symSize: 0x368 }
  - { offset: 0xDDBC, size: 0x8, addend: 0x0, symName: __RINvMNtCsaNl6UpbT7bw_4core6optionINtB3_6OptionNtNtCsc29TF2YcYso_3syn4expr4ExprE3mapNtCshnvkK9b4wzu_11proc_macro211TokenStreamNCNvNtCsi6DBJJHK2XK_13futures_macro6select12select_inners1_0EB25_, symObjAddr: 0x1AC, symBinAddr: 0xDFC, symSize: 0xAC }
  - { offset: 0xDE42, size: 0x8, addend: 0x0, symName: __RINvMNtCsaNl6UpbT7bw_4core6optionINtB3_6OptionRNtNtCsc29TF2YcYso_3syn4expr4ExprE7or_elseNCNvXsw_NtBN_10punctuatedINtB1w_11PrivateIterBJ_NtNtBN_5token5CommaENtNtNtNtB5_4iter6traits8iterator8Iterator4nexts_0ECsi6DBJJHK2XK_13futures_macro, symObjAddr: 0x258, symBinAddr: 0xEA8, symSize: 0xA8 }
  - { offset: 0xDECB, size: 0x8, addend: 0x0, symName: __RINvMNtCsaNl6UpbT7bw_4core6optionINtB3_6OptionRNtNtCsc29TF2YcYso_3syn4expr4ExprE7or_elseNCNvXsx_NtBN_10punctuatedINtB1w_11PrivateIterBJ_NtNtBN_5token5CommaENtNtNtNtB5_4iter6traits12double_ended19DoubleEndedIterator9next_back0ECsi6DBJJHK2XK_13futures_macro, symObjAddr: 0x300, symBinAddr: 0xF50, symSize: 0xA8 }
  - { offset: 0xDF52, size: 0x8, addend: 0x0, symName: __RINvMNtCsaNl6UpbT7bw_4core6optionINtB3_6OptionRNtNtCsc29TF2YcYso_3syn4stmt4StmtE3mapNtCshnvkK9b4wzu_11proc_macro211TokenStreamNvYBI_NtNtCs4EAaWzSXu1l_5quote9to_tokens8ToTokens17into_token_streamECsi6DBJJHK2XK_13futures_macro, symObjAddr: 0x3A8, symBinAddr: 0xFF8, symSize: 0x6C }
  - { offset: 0xDFBD, size: 0x8, addend: 0x0, symName: __RINvMNtCsaNl6UpbT7bw_4core6optionINtB3_6OptionRTNtNtCsc29TF2YcYso_3syn4expr4ExprNtNtBO_5token5CommaEE3mapRBK_NCNCNvXsx_NtBO_10punctuatedINtB1T_11PrivateIterBK_B1g_ENtNtNtNtB5_4iter6traits12double_ended19DoubleEndedIterator9next_back00ECsi6DBJJHK2XK_13futures_macro, symObjAddr: 0x414, symBinAddr: 0x1064, symSize: 0x50 }
  - { offset: 0xE028, size: 0x8, addend: 0x0, symName: __RINvMNtCsaNl6UpbT7bw_4core6optionINtB3_6OptionRTNtNtCsc29TF2YcYso_3syn4expr4ExprNtNtBO_5token5CommaEE3mapRBK_NCNvXsw_NtBO_10punctuatedINtB1R_11PrivateIterBK_B1g_ENtNtNtNtB5_4iter6traits8iterator8Iterator4next0ECsi6DBJJHK2XK_13futures_macro, symObjAddr: 0x464, symBinAddr: 0x10B4, symSize: 0x50 }
  - { offset: 0xE0DF, size: 0x8, addend: 0x0, symName: __RINvMs2_NtNtCsht3nMU9UgFu_3std6thread5localINtB6_8LocalKeyINtNtCsaNl6UpbT7bw_4core4cell4CellPuEE4withNCNvMs3_B6_BF_7replace0B1s_ECsi6DBJJHK2XK_13futures_macro, symObjAddr: 0x4B4, symBinAddr: 0x1104, symSize: 0x54 }
  - { offset: 0xE198, size: 0x8, addend: 0x0, symName: __RINvMs2_NtNtCsht3nMU9UgFu_3std6thread5localINtB6_8LocalKeyINtNtCsaNl6UpbT7bw_4core4cell4CellPuEE8try_withNCNvMs3_B6_BF_7replace0B1s_ECsi6DBJJHK2XK_13futures_macro, symObjAddr: 0x508, symBinAddr: 0x1158, symSize: 0xE4 }
  - { offset: 0xE51A, size: 0x8, addend: 0x0, symName: __RNvMNtCsaNl6UpbT7bw_4core6optionINtB2_6OptionNtCshnvkK9b4wzu_11proc_macro211TokenStreamE17unwrap_or_defaultCsi6DBJJHK2XK_13futures_macro, symObjAddr: 0x9F4, symBinAddr: 0x161C, symSize: 0x70 }
  - { offset: 0xE565, size: 0x8, addend: 0x0, symName: __RNvMNtCsaNl6UpbT7bw_4core6optionINtB2_6OptionNtCshnvkK9b4wzu_11proc_macro24SpanE2orCsi6DBJJHK2XK_13futures_macro, symObjAddr: 0xA64, symBinAddr: 0x168C, symSize: 0x84 }
  - { offset: 0xE5CB, size: 0x8, addend: 0x0, symName: __RNvMNtCsaNl6UpbT7bw_4core6optionINtB2_6OptionNtNtCsc29TF2YcYso_3syn4expr4ExprE7is_someCsi6DBJJHK2XK_13futures_macro, symObjAddr: 0xAE8, symBinAddr: 0x1710, symSize: 0x28 }
  - { offset: 0xE604, size: 0x8, addend: 0x0, symName: __RNvMNtCsaNl6UpbT7bw_4core6optionINtB2_6OptionNtNtCsc29TF2YcYso_3syn5token5AsyncE4takeCsi6DBJJHK2XK_13futures_macro, symObjAddr: 0xB10, symBinAddr: 0x1738, symSize: 0x34 }
  - { offset: 0xE677, size: 0x8, addend: 0x0, symName: __RNvMNtCsaNl6UpbT7bw_4core6optionINtB2_6OptionNtNtCsc29TF2YcYso_3syn5token5AsyncE7is_noneCsi6DBJJHK2XK_13futures_macro, symObjAddr: 0xB44, symBinAddr: 0x176C, symSize: 0x20 }
  - { offset: 0xE6E8, size: 0x8, addend: 0x0, symName: __RNvMNtNtCsiTraAjBDcu4_5alloc3vec13in_place_dropINtB2_11InPlaceDropNtCshnvkK9b4wzu_11proc_macro25IdentE3lenCsi6DBJJHK2XK_13futures_macro, symObjAddr: 0xB64, symBinAddr: 0x178C, symSize: 0x84 }
  - { offset: 0xE7B0, size: 0x8, addend: 0x0, symName: __RNvMNtNtCsiTraAjBDcu4_5alloc3vec13in_place_dropINtB2_11InPlaceDropNtNtCsc29TF2YcYso_3syn4expr8ExprPathE3lenCsi6DBJJHK2XK_13futures_macro, symObjAddr: 0xBE8, symBinAddr: 0x1810, symSize: 0x84 }
  - { offset: 0xE961, size: 0x8, addend: 0x0, symName: __RNvXNtCs4EAaWzSXu1l_5quote14ident_fragmentRjNtB2_13IdentFragment3fmtCsi6DBJJHK2XK_13futures_macro, symObjAddr: 0x1960, symBinAddr: 0x2588, symSize: 0x40 }
  - { offset: 0xE9A4, size: 0x8, addend: 0x0, symName: __RNvXNtCs4EAaWzSXu1l_5quote14ident_fragmentRjNtB2_13IdentFragment4spanCsi6DBJJHK2XK_13futures_macro, symObjAddr: 0x19A0, symBinAddr: 0x25C8, symSize: 0x38 }
  - { offset: 0xE9DF, size: 0x8, addend: 0x0, symName: __RNvYjNtNtCs4EAaWzSXu1l_5quote14ident_fragment13IdentFragment4spanCsi6DBJJHK2XK_13futures_macro, symObjAddr: 0x27A4, symBinAddr: 0x33CC, symSize: 0x2C }
  - { offset: 0xEA20, size: 0x8, addend: 0x0, symName: __RNvXs3_NtCs4EAaWzSXu1l_5quote9to_tokensINtNtCsaNl6UpbT7bw_4core6option6OptionNtCshnvkK9b4wzu_11proc_macro211TokenStreamENtB5_8ToTokens9to_tokensCsi6DBJJHK2XK_13futures_macro, symObjAddr: 0x1BBC, symBinAddr: 0x27E4, symSize: 0x84 }
  - { offset: 0xF033, size: 0x8, addend: 0x0, symName: __RINvMNtCsiTraAjBDcu4_5alloc5sliceSNtNtCsc29TF2YcYso_3syn4stmt4Stmt8into_vecNtNtB5_5alloc6GlobalECsi6DBJJHK2XK_13futures_macro, symObjAddr: 0x0, symBinAddr: 0x8DA4, symSize: 0x9C }
  - { offset: 0x13D2E, size: 0x8, addend: 0x0, symName: __RNvXNtCsc29TF2YcYso_3syn11parse_quoteNtNtB4_4item8ItemEnumNtB2_10ParseQuote5parseCsi6DBJJHK2XK_13futures_macro, symObjAddr: 0x1C78, symBinAddr: 0xAA1C, symSize: 0x34 }
  - { offset: 0x14631, size: 0x8, addend: 0x0, symName: __RINvXs3_NtNtCsiTraAjBDcu4_5alloc3vec9into_iterINtB6_8IntoIterNtNtCsc29TF2YcYso_3syn4expr4ExprENtNtNtNtCsaNl6UpbT7bw_4core4iter6traits8iterator8Iterator8try_foldINtNtB8_13in_place_drop11InPlaceDropNtCshnvkK9b4wzu_11proc_macro25IdentENCINvNvXs_NtNtB1A_8adapters9enumerateINtB3S_9EnumeratepEB1u_8try_fold9enumerateBX_B2y_INtNtB1C_6result6ResultB2y_zENCINvNtB3U_3map12map_try_foldTjBX_EB38_B2y_B56_NCNvNtCsi6DBJJHK2XK_13futures_macro4join12bind_futures0NCINvNtB8_16in_place_collect24write_in_place_with_dropB38_E0E0E0B56_EB6q_, symObjAddr: 0x4E4, symBinAddr: 0x9288, symSize: 0x1EC }
  - { offset: 0x14813, size: 0x8, addend: 0x0, symName: __RNvXs3_NtNtCsiTraAjBDcu4_5alloc3vec9into_iterINtB5_8IntoIterNtNtCsc29TF2YcYso_3syn4expr4ExprENtNtNtNtCsaNl6UpbT7bw_4core4iter6traits8iterator8Iterator4nextCsi6DBJJHK2XK_13futures_macro, symObjAddr: 0x2B20, symBinAddr: 0xB8C4, symSize: 0xE4 }
  - { offset: 0x14987, size: 0x8, addend: 0x0, symName: __RNvXs3_NtNtCsiTraAjBDcu4_5alloc3vec9into_iterINtB5_8IntoIterNtNtCsc29TF2YcYso_3syn4expr4ExprENtNtNtNtCsaNl6UpbT7bw_4core4iter6traits8iterator8Iterator9size_hintCsi6DBJJHK2XK_13futures_macro, symObjAddr: 0x2C04, symBinAddr: 0xB9A8, symSize: 0x6C }
  - { offset: 0x149E2, size: 0x8, addend: 0x0, symName: __RNvXs3_NtNtCsiTraAjBDcu4_5alloc3vec9into_iterINtB5_8IntoIterTNtNtCsc29TF2YcYso_3syn3pat3PatNtNtB11_4expr4ExprEENtNtNtNtCsaNl6UpbT7bw_4core4iter6traits8iterator8Iterator4nextCsi6DBJJHK2XK_13futures_macro, symObjAddr: 0x2C70, symBinAddr: 0xBA14, symSize: 0xE4 }
  - { offset: 0x14B56, size: 0x8, addend: 0x0, symName: __RNvXs3_NtNtCsiTraAjBDcu4_5alloc3vec9into_iterINtB5_8IntoIterTNtNtCsc29TF2YcYso_3syn3pat3PatNtNtB11_4expr4ExprEENtNtNtNtCsaNl6UpbT7bw_4core4iter6traits8iterator8Iterator9size_hintCsi6DBJJHK2XK_13futures_macro, symObjAddr: 0x2D54, symBinAddr: 0xBAF8, symSize: 0x6C }
  - { offset: 0x14CF8, size: 0x8, addend: 0x0, symName: __RNvXNvXsd_NtNtCsiTraAjBDcu4_5alloc3vec9into_iterINtB8_8IntoIterppENtNtNtCsaNl6UpbT7bw_4core3ops4drop4Drop4dropINtB2_9DropGuardNtNtCsc29TF2YcYso_3syn4expr4ExprNtNtBc_5alloc6GlobalEB12_4dropCsi6DBJJHK2XK_13futures_macro, symObjAddr: 0x1D74, symBinAddr: 0xAB18, symSize: 0x7C }
  - { offset: 0x14E05, size: 0x8, addend: 0x0, symName: __RNvXNvXsd_NtNtCsiTraAjBDcu4_5alloc3vec9into_iterINtB8_8IntoIterppENtNtNtCsaNl6UpbT7bw_4core3ops4drop4Drop4dropINtB2_9DropGuardTNtNtCsc29TF2YcYso_3syn3pat3PatNtNtB25_4expr4ExprENtNtBc_5alloc6GlobalEB12_4dropCsi6DBJJHK2XK_13futures_macro, symObjAddr: 0x1DF0, symBinAddr: 0xAB94, symSize: 0x7C }
  - { offset: 0x14F62, size: 0x8, addend: 0x0, symName: __RNvXsd_NtNtCsiTraAjBDcu4_5alloc3vec9into_iterINtB5_8IntoIterNtNtCsc29TF2YcYso_3syn4expr4ExprENtNtNtCsaNl6UpbT7bw_4core3ops4drop4Drop4dropCsi6DBJJHK2XK_13futures_macro, symObjAddr: 0x3CC0, symBinAddr: 0xCA64, symSize: 0x98 }
  - { offset: 0x14FFC, size: 0x8, addend: 0x0, symName: __RNvXsd_NtNtCsiTraAjBDcu4_5alloc3vec9into_iterINtB5_8IntoIterTNtNtCsc29TF2YcYso_3syn3pat3PatNtNtB11_4expr4ExprEENtNtNtCsaNl6UpbT7bw_4core3ops4drop4Drop4dropCsi6DBJJHK2XK_13futures_macro, symObjAddr: 0x3D58, symBinAddr: 0xCAFC, symSize: 0x98 }
  - { offset: 0x1509C, size: 0x8, addend: 0x0, symName: __RNvXsf_NtNtCsiTraAjBDcu4_5alloc3vec9into_iterINtB5_8IntoIterNtNtCsc29TF2YcYso_3syn4expr4ExprENtNtNtCsaNl6UpbT7bw_4core4iter8adapters10SourceIter8as_innerCsi6DBJJHK2XK_13futures_macro, symObjAddr: 0x3DF0, symBinAddr: 0xCB94, symSize: 0x14 }
  - { offset: 0x150E2, size: 0x8, addend: 0x0, symName: __RNvXsg_NtNtCsiTraAjBDcu4_5alloc3vec9into_iterINtB5_8IntoIterNtNtCsc29TF2YcYso_3syn4expr4ExprENtNtB7_16in_place_collect13AsVecIntoIter12as_into_iterCsi6DBJJHK2XK_13futures_macro, symObjAddr: 0x3E04, symBinAddr: 0xCBA8, symSize: 0x14 }
  - { offset: 0x15278, size: 0x8, addend: 0x0, symName: __RNvXs0_NtNtCsiTraAjBDcu4_5alloc3vec16in_place_collectINtNtNtNtCsaNl6UpbT7bw_4core4iter8adapters3map3MapINtNtBU_3zip3ZipINtNtB7_9into_iter8IntoIterNtNtCsc29TF2YcYso_3syn4expr4ExprEINtNtNtBY_5slice4iter4IterNtCshnvkK9b4wzu_11proc_macro25IdentEENCNvNtCsi6DBJJHK2XK_13futures_macro6select12select_inner0EINtB5_18SpecInPlaceCollectNtB2m_8ExprPathBP_E16collect_in_placeB3Y_, symObjAddr: 0x1E6C, symBinAddr: 0xAC10, symSize: 0xD0 }
  - { offset: 0x153C7, size: 0x8, addend: 0x0, symName: __RNvXs0_NtNtCsiTraAjBDcu4_5alloc3vec16in_place_collectINtNtNtNtCsaNl6UpbT7bw_4core4iter8adapters3map3MapINtNtBU_9enumerate9EnumerateINtNtB7_9into_iter8IntoIterNtNtCsc29TF2YcYso_3syn4expr4ExprEENCNvNtCsi6DBJJHK2XK_13futures_macro4join12bind_futures0EINtB5_18SpecInPlaceCollectNtCshnvkK9b4wzu_11proc_macro25IdentBP_E16collect_in_placeB3a_, symObjAddr: 0x1F3C, symBinAddr: 0xACE0, symSize: 0xD0 }
  - { offset: 0x157D5, size: 0x8, addend: 0x0, symName: __RNvXs_NtCsiTraAjBDcu4_5alloc5allocNtB4_6GlobalNtNtCsaNl6UpbT7bw_4core5alloc9Allocator10deallocateCsi6DBJJHK2XK_13futures_macro, symObjAddr: 0x36E0, symBinAddr: 0xC484, symSize: 0x80 }
  - { offset: 0x158F5, size: 0x8, addend: 0x0, symName: __RNvXs_NtCsiTraAjBDcu4_5alloc5allocNtB4_6GlobalNtNtCsaNl6UpbT7bw_4core5alloc9Allocator6shrinkCsi6DBJJHK2XK_13futures_macro, symObjAddr: 0x3760, symBinAddr: 0xC504, symSize: 0x4D0 }
  - { offset: 0x16023, size: 0x8, addend: 0x0, symName: __RNvNtCsiTraAjBDcu4_5alloc5alloc15exchange_mallocCsi6DBJJHK2XK_13futures_macro, symObjAddr: 0x19DC, symBinAddr: 0xA780, symSize: 0xAC }
  - { offset: 0x16A4B, size: 0x8, addend: 0x0, symName: __RNvXs1_NtCsiTraAjBDcu4_5alloc7raw_vecINtB5_6RawVecNtCshnvkK9b4wzu_11proc_macro211TokenStreamENtNtNtCsaNl6UpbT7bw_4core3ops4drop4Drop4dropCsi6DBJJHK2XK_13futures_macro, symObjAddr: 0x2610, symBinAddr: 0xB3B4, symSize: 0x34 }
  - { offset: 0x16A87, size: 0x8, addend: 0x0, symName: __RNvXs1_NtCsiTraAjBDcu4_5alloc7raw_vecINtB5_6RawVecNtCshnvkK9b4wzu_11proc_macro25IdentENtNtNtCsaNl6UpbT7bw_4core3ops4drop4Drop4dropCsi6DBJJHK2XK_13futures_macro, symObjAddr: 0x2644, symBinAddr: 0xB3E8, symSize: 0x34 }
  - { offset: 0x16AC3, size: 0x8, addend: 0x0, symName: __RNvXs1_NtCsiTraAjBDcu4_5alloc7raw_vecINtB5_6RawVecNtNtCsc29TF2YcYso_3syn4expr4ExprENtNtNtCsaNl6UpbT7bw_4core3ops4drop4Drop4dropCsi6DBJJHK2XK_13futures_macro, symObjAddr: 0x2678, symBinAddr: 0xB41C, symSize: 0x34 }
  - { offset: 0x16AFF, size: 0x8, addend: 0x0, symName: __RNvXs1_NtCsiTraAjBDcu4_5alloc7raw_vecINtB5_6RawVecNtNtCsc29TF2YcYso_3syn4expr5IndexENtNtNtCsaNl6UpbT7bw_4core3ops4drop4Drop4dropCsi6DBJJHK2XK_13futures_macro, symObjAddr: 0x26AC, symBinAddr: 0xB450, symSize: 0x34 }
  - { offset: 0x16B3B, size: 0x8, addend: 0x0, symName: __RNvXs1_NtCsiTraAjBDcu4_5alloc7raw_vecINtB5_6RawVecNtNtCsc29TF2YcYso_3syn4expr8ExprPathENtNtNtCsaNl6UpbT7bw_4core3ops4drop4Drop4dropCsi6DBJJHK2XK_13futures_macro, symObjAddr: 0x26E0, symBinAddr: 0xB484, symSize: 0x34 }
  - { offset: 0x16B77, size: 0x8, addend: 0x0, symName: __RNvXs1_NtCsiTraAjBDcu4_5alloc7raw_vecINtB5_6RawVecTNtNtCsc29TF2YcYso_3syn3pat3PatNtNtBR_4expr4ExprEENtNtNtCsaNl6UpbT7bw_4core3ops4drop4Drop4dropCsi6DBJJHK2XK_13futures_macro, symObjAddr: 0x2714, symBinAddr: 0xB4B8, symSize: 0x34 }
  - { offset: 0x16C8E, size: 0x8, addend: 0x0, symName: __RNvXs6_NtCsiTraAjBDcu4_5alloc5boxedINtB5_3BoxANtNtCsc29TF2YcYso_3syn4stmt4Stmtj1_ENtNtNtCsaNl6UpbT7bw_4core3ops4drop4Drop4dropCsi6DBJJHK2XK_13futures_macro, symObjAddr: 0x302C, symBinAddr: 0xBDD0, symSize: 0xB8 }
  - { offset: 0x16DC5, size: 0x8, addend: 0x0, symName: __RNvXs6_NtCsiTraAjBDcu4_5alloc5boxedINtB5_3BoxDNtNtCsaNl6UpbT7bw_4core5error5ErrorNtNtBM_6marker4SyncNtB1j_4SendEL_ENtNtNtBM_3ops4drop4Drop4dropCsi6DBJJHK2XK_13futures_macro, symObjAddr: 0x30E4, symBinAddr: 0xBE88, symSize: 0xCC }
  - { offset: 0x16EFC, size: 0x8, addend: 0x0, symName: __RNvXs6_NtCsiTraAjBDcu4_5alloc5boxedINtB5_3BoxINtNtCsc29TF2YcYso_3syn5drops6NoDropDINtNtBM_10punctuated9IterTraitNtNtBM_4expr4ExprEp4ItemRB1M_EL_EENtNtNtCsaNl6UpbT7bw_4core3ops4drop4Drop4dropCsi6DBJJHK2XK_13futures_macro, symObjAddr: 0x31B0, symBinAddr: 0xBF54, symSize: 0x120 }
  - { offset: 0x17033, size: 0x8, addend: 0x0, symName: __RNvXs6_NtCsiTraAjBDcu4_5alloc5boxedINtB5_3BoxNtNtNtCsht3nMU9UgFu_3std2io5error6CustomENtNtNtCsaNl6UpbT7bw_4core3ops4drop4Drop4dropCsi6DBJJHK2XK_13futures_macro, symObjAddr: 0x32D0, symBinAddr: 0xC074, symSize: 0xB8 }
  - { offset: 0x17176, size: 0x8, addend: 0x0, symName: __RINvMNtCsiTraAjBDcu4_5alloc5sliceSNtNtCsc29TF2YcYso_3syn4stmt4Stmt8into_vecNtNtB5_5alloc6GlobalECsi6DBJJHK2XK_13futures_macro, symObjAddr: 0x0, symBinAddr: 0x8DA4, symSize: 0x9C }
  - { offset: 0x17986, size: 0x8, addend: 0x0, symName: __RNvXsY_CshnvkK9b4wzu_11proc_macro2NtB5_5IdentNtNtCsaNl6UpbT7bw_4core5clone5Clone5cloneCsi6DBJJHK2XK_13futures_macro, symObjAddr: 0x3668, symBinAddr: 0xC40C, symSize: 0x78 }
  - { offset: 0x17D5E, size: 0x8, addend: 0x0, symName: __RINvNvNtNtCs7yrEGia95Wz_10proc_macro6bridge14selfless_reify31reify_to_extern_c_fn_hrt_bridge7wrapperNtNtB6_6buffer6BufferNCINvMs6_NtB6_6clientINtB24_6ClientNtB8_11TokenStreamB2u_E7expand1NvCsi6DBJJHK2XK_13futures_macro13join_internalE0EB31_, symObjAddr: 0xE8, symBinAddr: 0x8E8C, symSize: 0x5C }
  - { offset: 0x17DBA, size: 0x8, addend: 0x0, symName: __RINvNvNtNtCs7yrEGia95Wz_10proc_macro6bridge14selfless_reify31reify_to_extern_c_fn_hrt_bridge7wrapperNtNtB6_6buffer6BufferNCINvMs6_NtB6_6clientINtB24_6ClientNtB8_11TokenStreamB2u_E7expand1NvCsi6DBJJHK2XK_13futures_macro15select_internalE0EB31_, symObjAddr: 0x144, symBinAddr: 0x8EE8, symSize: 0x5C }
  - { offset: 0x17E16, size: 0x8, addend: 0x0, symName: __RINvNvNtNtCs7yrEGia95Wz_10proc_macro6bridge14selfless_reify31reify_to_extern_c_fn_hrt_bridge7wrapperNtNtB6_6buffer6BufferNCINvMs6_NtB6_6clientINtB24_6ClientNtB8_11TokenStreamB2u_E7expand1NvCsi6DBJJHK2XK_13futures_macro17try_join_internalE0EB31_, symObjAddr: 0x1A0, symBinAddr: 0x8F44, symSize: 0x5C }
  - { offset: 0x17E72, size: 0x8, addend: 0x0, symName: __RINvNvNtNtCs7yrEGia95Wz_10proc_macro6bridge14selfless_reify31reify_to_extern_c_fn_hrt_bridge7wrapperNtNtB6_6buffer6BufferNCINvMs6_NtB6_6clientINtB24_6ClientNtB8_11TokenStreamB2u_E7expand1NvCsi6DBJJHK2XK_13futures_macro22select_biased_internalE0EB31_, symObjAddr: 0x1FC, symBinAddr: 0x8FA0, symSize: 0x5C }
  - { offset: 0x17ECE, size: 0x8, addend: 0x0, symName: __RINvNvNtNtCs7yrEGia95Wz_10proc_macro6bridge14selfless_reify31reify_to_extern_c_fn_hrt_bridge7wrapperNtNtB6_6buffer6BufferNCINvMs6_NtB6_6clientINtB24_6ClientNtB8_11TokenStreamB2u_E7expand1NvCsi6DBJJHK2XK_13futures_macro22stream_select_internalE0EB31_, symObjAddr: 0x258, symBinAddr: 0x8FFC, symSize: 0x5C }
  - { offset: 0x17F2A, size: 0x8, addend: 0x0, symName: __RINvNvNtNtCs7yrEGia95Wz_10proc_macro6bridge14selfless_reify31reify_to_extern_c_fn_hrt_bridge7wrapperNtNtB6_6buffer6BufferNCINvMs7_NtB6_6clientINtB24_6ClientTNtB8_11TokenStreamB2v_EB2v_E7expand2NvCsi6DBJJHK2XK_13futures_macro13test_internalE0EB37_, symObjAddr: 0x2B4, symBinAddr: 0x9058, symSize: 0x5C }
  - { offset: 0x17F8D, size: 0x8, addend: 0x0, symName: __RNvXs1J_NtCs7yrEGia95Wz_10proc_macro6bridgeINtB6_11ExpnGlobalsNtNtB6_6client4SpanEINtNtB6_3rpc9DecodeMutuE6decodeCsi6DBJJHK2XK_13futures_macro, symObjAddr: 0x250C, symBinAddr: 0xB2B0, symSize: 0xB0 }
  - { offset: 0x17FE4, size: 0x8, addend: 0x0, symName: __RNvXs7_NtNtCs7yrEGia95Wz_10proc_macro6bridge3rpcINtNtNtCsaNl6UpbT7bw_4core3num7nonzero7NonZeromEINtB5_9DecodeMutuE6decodeCsi6DBJJHK2XK_13futures_macro, symObjAddr: 0x33C4, symBinAddr: 0xC168, symSize: 0x5C }
  - { offset: 0x1805F, size: 0x8, addend: 0x0, symName: __RNvXs9_NtNtCs7yrEGia95Wz_10proc_macro6bridge3rpcTINtB7_11ExpnGlobalsNtNtB7_6client4SpanENtB16_11TokenStreamEINtB5_9DecodeMutuE6decodeCsi6DBJJHK2XK_13futures_macro, symObjAddr: 0x3420, symBinAddr: 0xC1C4, symSize: 0x84 }
  - { offset: 0x180B4, size: 0x8, addend: 0x0, symName: __RNvXs9_NtNtCs7yrEGia95Wz_10proc_macro6bridge3rpcTINtB7_11ExpnGlobalsNtNtB7_6client4SpanETNtB16_11TokenStreamB1p_EEINtB5_9DecodeMutuE6decodeCsi6DBJJHK2XK_13futures_macro, symObjAddr: 0x34A4, symBinAddr: 0xC248, symSize: 0x90 }
  - { offset: 0x18453, size: 0x8, addend: 0x0, symName: __RNvXs1e_Cs7yrEGia95Wz_10proc_macroNtB6_5IdentNtNtCsaNl6UpbT7bw_4core5clone5Clone5cloneCsi6DBJJHK2XK_13futures_macro, symObjAddr: 0x2AE0, symBinAddr: 0xB884, symSize: 0x40 }
  - { offset: 0x18530, size: 0x8, addend: 0x0, symName: __RNvNvMsd_NtNtCsaNl6UpbT7bw_4core3num7nonzeroINtB7_7NonZeropE13new_unchecked18precondition_checkCsi6DBJJHK2XK_13futures_macro, symObjAddr: 0x1B34, symBinAddr: 0xA8D8, symSize: 0x84 }
  - { offset: 0x19527, size: 0x8, addend: 0x0, symName: __RNvNvMNtNtCsaNl6UpbT7bw_4core3ptr9const_ptrPp20offset_from_unsigned18precondition_checkCsi6DBJJHK2XK_13futures_macro, symObjAddr: 0x1A88, symBinAddr: 0xA82C, symSize: 0xAC }
  - { offset: 0x1C737, size: 0x8, addend: 0x0, symName: __RINvXs0_NtNtNtCsaNl6UpbT7bw_4core4iter8adapters3mapINtB6_3MapINtNtB8_3zip3ZipINtNtNtCsiTraAjBDcu4_5alloc3vec9into_iter8IntoIterNtNtCsc29TF2YcYso_3syn4expr4ExprEINtNtNtBc_5slice4iter4IterNtCshnvkK9b4wzu_11proc_macro25IdentEENCNvNtCsi6DBJJHK2XK_13futures_macro6select12select_inner0ENtNtNtBa_6traits8iterator8Iterator8try_foldINtNtB1i_13in_place_drop11InPlaceDropNtB23_8ExprPathENCINvNtB1i_16in_place_collect24write_in_place_with_dropB5N_E0INtNtBc_6result6ResultB5c_zEEB3F_, symObjAddr: 0x310, symBinAddr: 0x90B4, symSize: 0x4C }
  - { offset: 0x1C7B5, size: 0x8, addend: 0x0, symName: __RINvXs0_NtNtNtCsaNl6UpbT7bw_4core4iter8adapters3mapINtB6_3MapINtNtB8_9enumerate9EnumerateINtNtNtCsiTraAjBDcu4_5alloc3vec9into_iter8IntoIterNtNtCsc29TF2YcYso_3syn4expr4ExprEENCNvNtCsi6DBJJHK2XK_13futures_macro4join12bind_futures0ENtNtNtBa_6traits8iterator8Iterator8try_foldINtNtB1u_13in_place_drop11InPlaceDropNtCshnvkK9b4wzu_11proc_macro25IdentENCINvNtB1u_16in_place_collect24write_in_place_with_dropB4X_E0INtNtBc_6result6ResultB4m_zEEB2R_, symObjAddr: 0x35C, symBinAddr: 0x9100, symSize: 0x4C }
  - { offset: 0x1C833, size: 0x8, addend: 0x0, symName: __RINvXs0_NtNtNtCsaNl6UpbT7bw_4core4iter8adapters3mapINtB6_3MapINtNtNtBc_3ops5range5RangejENCNvNtCsi6DBJJHK2XK_13futures_macro13stream_select13stream_select0ENtNtNtBa_6traits8iterator8Iterator4folduNCINvNvB2u_8for_each4callNtCshnvkK9b4wzu_11proc_macro25IdentNCINvMsi_NtCsiTraAjBDcu4_5alloc3vecINtB4f_3VecB3x_E14extend_trustedBN_E0E0EB1v_, symObjAddr: 0x3A8, symBinAddr: 0x914C, symSize: 0x3C }
  - { offset: 0x1C8CB, size: 0x8, addend: 0x0, symName: __RINvXs0_NtNtNtCsaNl6UpbT7bw_4core4iter8adapters3mapINtB6_3MapINtNtNtBc_3ops5range5RangejENCNvNtCsi6DBJJHK2XK_13futures_macro13stream_select13stream_selects0_0ENtNtNtBa_6traits8iterator8Iterator4folduNCINvNvB2x_8for_each4callNtCshnvkK9b4wzu_11proc_macro25IdentNCINvMsi_NtCsiTraAjBDcu4_5alloc3vecINtB4i_3VecB3A_E14extend_trustedBN_E0E0EB1v_, symObjAddr: 0x3E4, symBinAddr: 0x9188, symSize: 0x3C }
  - { offset: 0x1C963, size: 0x8, addend: 0x0, symName: __RINvXs0_NtNtNtCsaNl6UpbT7bw_4core4iter8adapters3mapINtB6_3MapINtNtNtBc_3ops5range5RangejENCNvNtCsi6DBJJHK2XK_13futures_macro13stream_select13stream_selects_0ENtNtNtBa_6traits8iterator8Iterator4folduNCINvNvB2w_8for_each4callNtCshnvkK9b4wzu_11proc_macro25IdentNCINvMsi_NtCsiTraAjBDcu4_5alloc3vecINtB4h_3VecB3z_E14extend_trustedBN_E0E0EB1v_, symObjAddr: 0x420, symBinAddr: 0x91C4, symSize: 0x3C }
  - { offset: 0x1C9FB, size: 0x8, addend: 0x0, symName: __RINvXs0_NtNtNtCsaNl6UpbT7bw_4core4iter8adapters3mapINtB6_3MapINtNtNtBc_3ops5range5RangejENCNvNtCsi6DBJJHK2XK_13futures_macro6select19declare_result_enum0ENtNtNtBa_6traits8iterator8Iterator4folduNCINvNvB2s_8for_each4callNtCshnvkK9b4wzu_11proc_macro25IdentNCINvMsi_NtCsiTraAjBDcu4_5alloc3vecINtB4d_3VecB3v_E14extend_trustedBN_E0E0EB1v_, symObjAddr: 0x45C, symBinAddr: 0x9200, symSize: 0x4C }
  - { offset: 0x1CA94, size: 0x8, addend: 0x0, symName: __RINvXs0_NtNtNtCsaNl6UpbT7bw_4core4iter8adapters3mapINtB6_3MapINtNtNtBc_3ops5range5RangejENvYNtNtCsc29TF2YcYso_3syn4expr5IndexINtNtBc_7convert4FromjE4fromENtNtNtBa_6traits8iterator8Iterator4folduNCINvNvB2s_8for_each4callB1s_NCINvMsi_NtCsiTraAjBDcu4_5alloc3vecINtB3I_3VecB1s_E14extend_trustedBN_E0E0ECsi6DBJJHK2XK_13futures_macro, symObjAddr: 0x4A8, symBinAddr: 0x924C, symSize: 0x3C }
  - { offset: 0x1CB2C, size: 0x8, addend: 0x0, symName: __RNvXs0_NtNtNtCsaNl6UpbT7bw_4core4iter8adapters3mapINtB5_3MapINtNtB7_3zip3ZipINtNtNtBb_5slice4iter4IterNtNtCsc29TF2YcYso_3syn4expr8ExprPathEIB1d_NtCshnvkK9b4wzu_11proc_macro25IdentEENCNvNtCsi6DBJJHK2XK_13futures_macro6select12select_inners_0ENtNtNtB9_6traits8iterator8Iterator4nextB2Z_, symObjAddr: 0x200C, symBinAddr: 0xADB0, symSize: 0xA4 }
  - { offset: 0x1CBC4, size: 0x8, addend: 0x0, symName: __RNvXs0_NtNtNtCsaNl6UpbT7bw_4core4iter8adapters3mapINtB5_3MapINtNtB7_3zip3ZipINtNtNtCsiTraAjBDcu4_5alloc3vec9into_iter8IntoIterTNtNtCsc29TF2YcYso_3syn3pat3PatNtNtB25_4expr4ExprEEINtNtNtBb_5slice4iter4IterNtCshnvkK9b4wzu_11proc_macro25IdentEENCNvNtCsi6DBJJHK2XK_13futures_macro6select12select_inners0_0ENtNtNtB9_6traits8iterator8Iterator4nextB3W_, symObjAddr: 0x20B0, symBinAddr: 0xAE54, symSize: 0xC4 }
  - { offset: 0x1CC5E, size: 0x8, addend: 0x0, symName: __RNvXs0_NtNtNtCsaNl6UpbT7bw_4core4iter8adapters3mapINtB5_3MapINtNtCsc29TF2YcYso_3syn10punctuated4IterNtNtB11_4expr4ExprENCNvNtCsi6DBJJHK2XK_13futures_macro13stream_select13stream_selects1_0ENtNtNtB9_6traits8iterator8Iterator4nextB1Z_, symObjAddr: 0x2174, symBinAddr: 0xAF18, symSize: 0x94 }
  - { offset: 0x1CCF6, size: 0x8, addend: 0x0, symName: __RNvXs0_NtNtNtCsaNl6UpbT7bw_4core4iter8adapters3mapINtB5_3MapINtNtNtBb_3ops5range5RangejENCNvNtCsi6DBJJHK2XK_13futures_macro13stream_select13stream_select0ENtNtNtB9_6traits8iterator8Iterator9size_hintB1u_, symObjAddr: 0x2208, symBinAddr: 0xAFAC, symSize: 0x24 }
  - { offset: 0x1CD3D, size: 0x8, addend: 0x0, symName: __RNvXs0_NtNtNtCsaNl6UpbT7bw_4core4iter8adapters3mapINtB5_3MapINtNtNtBb_3ops5range5RangejENCNvNtCsi6DBJJHK2XK_13futures_macro13stream_select13stream_selects0_0ENtNtNtB9_6traits8iterator8Iterator9size_hintB1u_, symObjAddr: 0x222C, symBinAddr: 0xAFD0, symSize: 0x24 }
  - { offset: 0x1CD84, size: 0x8, addend: 0x0, symName: __RNvXs0_NtNtNtCsaNl6UpbT7bw_4core4iter8adapters3mapINtB5_3MapINtNtNtBb_3ops5range5RangejENCNvNtCsi6DBJJHK2XK_13futures_macro13stream_select13stream_selects_0ENtNtNtB9_6traits8iterator8Iterator9size_hintB1u_, symObjAddr: 0x2250, symBinAddr: 0xAFF4, symSize: 0x24 }
  - { offset: 0x1CDCB, size: 0x8, addend: 0x0, symName: __RNvXs0_NtNtNtCsaNl6UpbT7bw_4core4iter8adapters3mapINtB5_3MapINtNtNtBb_3ops5range5RangejENCNvNtCsi6DBJJHK2XK_13futures_macro6select19declare_result_enum0ENtNtNtB9_6traits8iterator8Iterator9size_hintB1u_, symObjAddr: 0x2274, symBinAddr: 0xB018, symSize: 0x24 }
  - { offset: 0x1CE12, size: 0x8, addend: 0x0, symName: __RNvXs0_NtNtNtCsaNl6UpbT7bw_4core4iter8adapters3mapINtB5_3MapINtNtNtBb_3ops5range5RangejENvYNtNtCsc29TF2YcYso_3syn4expr5IndexINtNtBb_7convert4FromjE4fromENtNtNtB9_6traits8iterator8Iterator9size_hintCsi6DBJJHK2XK_13futures_macro, symObjAddr: 0x2298, symBinAddr: 0xB03C, symSize: 0x24 }
  - { offset: 0x1CE59, size: 0x8, addend: 0x0, symName: __RNvXs0_NtNtNtCsaNl6UpbT7bw_4core4iter8adapters3mapINtB5_3MapINtNtNtBb_5slice4iter4IterNtCshnvkK9b4wzu_11proc_macro25IdentENCNvNtCsi6DBJJHK2XK_13futures_macro4join4join0ENtNtNtB9_6traits8iterator8Iterator4nextB22_, symObjAddr: 0x22BC, symBinAddr: 0xB060, symSize: 0x94 }
  - { offset: 0x1CEF1, size: 0x8, addend: 0x0, symName: __RNvXs0_NtNtNtCsaNl6UpbT7bw_4core4iter8adapters3mapINtB5_3MapINtNtNtBb_5slice4iter4IterNtCshnvkK9b4wzu_11proc_macro25IdentENCNvNtCsi6DBJJHK2XK_13futures_macro4join4joins_0ENtNtNtB9_6traits8iterator8Iterator4nextB22_, symObjAddr: 0x2350, symBinAddr: 0xB0F4, symSize: 0x94 }
  - { offset: 0x1CF89, size: 0x8, addend: 0x0, symName: __RNvXs0_NtNtNtCsaNl6UpbT7bw_4core4iter8adapters3mapINtB5_3MapINtNtNtBb_5slice4iter4IterNtCshnvkK9b4wzu_11proc_macro25IdentENCNvNtCsi6DBJJHK2XK_13futures_macro4join8try_join0ENtNtNtB9_6traits8iterator8Iterator4nextB22_, symObjAddr: 0x23E4, symBinAddr: 0xB188, symSize: 0x94 }
  - { offset: 0x1D021, size: 0x8, addend: 0x0, symName: __RNvXs0_NtNtNtCsaNl6UpbT7bw_4core4iter8adapters3mapINtB5_3MapINtNtNtBb_5slice4iter4IterNtCshnvkK9b4wzu_11proc_macro25IdentENCNvNtCsi6DBJJHK2XK_13futures_macro4join8try_joins_0ENtNtNtB9_6traits8iterator8Iterator4nextB22_, symObjAddr: 0x2478, symBinAddr: 0xB21C, symSize: 0x94 }
  - { offset: 0x1D1A9, size: 0x8, addend: 0x0, symName: __RNCINvNtNtNtCsaNl6UpbT7bw_4core4iter8adapters3map8map_foldjNtCshnvkK9b4wzu_11proc_macro25IdentuNCNvNtCsi6DBJJHK2XK_13futures_macro13stream_select13stream_select0NCINvNvNtNtNtB8_6traits8iterator8Iterator8for_each4callBV_NCINvMsi_NtCsiTraAjBDcu4_5alloc3vecINtB3E_3VecBV_E14extend_trustedINtB4_3MapINtNtNtBa_3ops5range5RangejEB1v_EE0E0E0B1B_, symObjAddr: 0x1108, symBinAddr: 0x9EAC, symSize: 0x88 }
  - { offset: 0x1D22E, size: 0x8, addend: 0x0, symName: __RNCINvNtNtNtCsaNl6UpbT7bw_4core4iter8adapters3map8map_foldjNtCshnvkK9b4wzu_11proc_macro25IdentuNCNvNtCsi6DBJJHK2XK_13futures_macro13stream_select13stream_selects0_0NCINvNvNtNtNtB8_6traits8iterator8Iterator8for_each4callBV_NCINvMsi_NtCsiTraAjBDcu4_5alloc3vecINtB3H_3VecBV_E14extend_trustedINtB4_3MapINtNtNtBa_3ops5range5RangejEB1v_EE0E0E0B1B_, symObjAddr: 0x1190, symBinAddr: 0x9F34, symSize: 0x88 }
  - { offset: 0x1D2B3, size: 0x8, addend: 0x0, symName: __RNCINvNtNtNtCsaNl6UpbT7bw_4core4iter8adapters3map8map_foldjNtCshnvkK9b4wzu_11proc_macro25IdentuNCNvNtCsi6DBJJHK2XK_13futures_macro13stream_select13stream_selects_0NCINvNvNtNtNtB8_6traits8iterator8Iterator8for_each4callBV_NCINvMsi_NtCsiTraAjBDcu4_5alloc3vecINtB3G_3VecBV_E14extend_trustedINtB4_3MapINtNtNtBa_3ops5range5RangejEB1v_EE0E0E0B1B_, symObjAddr: 0x1218, symBinAddr: 0x9FBC, symSize: 0x88 }
  - { offset: 0x1D338, size: 0x8, addend: 0x0, symName: __RNCINvNtNtNtCsaNl6UpbT7bw_4core4iter8adapters3map8map_foldjNtCshnvkK9b4wzu_11proc_macro25IdentuNCNvNtCsi6DBJJHK2XK_13futures_macro6select19declare_result_enum0NCINvNvNtNtNtB8_6traits8iterator8Iterator8for_each4callBV_NCINvMsi_NtCsiTraAjBDcu4_5alloc3vecINtB3C_3VecBV_E14extend_trustedINtB4_3MapINtNtNtBa_3ops5range5RangejEB1v_EE0E0E0B1B_, symObjAddr: 0x12A0, symBinAddr: 0xA044, symSize: 0x88 }
  - { offset: 0x1D3BD, size: 0x8, addend: 0x0, symName: __RNCINvNtNtNtCsaNl6UpbT7bw_4core4iter8adapters3map8map_foldjNtNtCsc29TF2YcYso_3syn4expr5IndexuNvYBV_INtNtBa_7convert4FromjE4fromNCINvNvNtNtNtB8_6traits8iterator8Iterator8for_each4callBV_NCINvMsi_NtCsiTraAjBDcu4_5alloc3vecINtB36_3VecBV_E14extend_trustedINtB4_3MapINtNtNtBa_3ops5range5RangejEB1t_EE0E0E0Csi6DBJJHK2XK_13futures_macro, symObjAddr: 0x1328, symBinAddr: 0xA0CC, symSize: 0x80 }
  - { offset: 0x1D6B5, size: 0x8, addend: 0x0, symName: __RNCINvNtNtNtCsaNl6UpbT7bw_4core4iter8adapters3map12map_try_foldTNtNtCsc29TF2YcYso_3syn4expr4ExprRNtCshnvkK9b4wzu_11proc_macro25IdentENtB12_8ExprPathINtNtNtCsiTraAjBDcu4_5alloc3vec13in_place_drop11InPlaceDropB27_EINtNtBa_6result6ResultB2m_zENCNvNtCsi6DBJJHK2XK_13futures_macro6select12select_inner0NCINvNtB2r_16in_place_collect24write_in_place_with_dropB27_E0E0B3W_, symObjAddr: 0xEE4, symBinAddr: 0x9C88, symSize: 0x118 }
  - { offset: 0x1D748, size: 0x8, addend: 0x0, symName: __RNCINvNtNtNtCsaNl6UpbT7bw_4core4iter8adapters3map12map_try_foldTjNtNtCsc29TF2YcYso_3syn4expr4ExprENtCshnvkK9b4wzu_11proc_macro25IdentINtNtNtCsiTraAjBDcu4_5alloc3vec13in_place_drop11InPlaceDropB1y_EINtNtBa_6result6ResultB27_zENCNvNtCsi6DBJJHK2XK_13futures_macro4join12bind_futures0NCINvNtB2c_16in_place_collect24write_in_place_with_dropB1y_E0E0B3H_, symObjAddr: 0xFFC, symBinAddr: 0x9DA0, symSize: 0x10C }
  - { offset: 0x1D81D, size: 0x8, addend: 0x0, symName: __RNvXs9_NtNtNtCsaNl6UpbT7bw_4core4iter8adapters3mapINtB5_3MapINtNtB7_3zip3ZipINtNtNtCsiTraAjBDcu4_5alloc3vec9into_iter8IntoIterNtNtCsc29TF2YcYso_3syn4expr4ExprEINtNtNtBb_5slice4iter4IterNtCshnvkK9b4wzu_11proc_macro25IdentEENCNvNtCsi6DBJJHK2XK_13futures_macro6select12select_inner0ENtB7_10SourceIter8as_innerB3E_, symObjAddr: 0x3534, symBinAddr: 0xC2D8, symSize: 0x24 }
  - { offset: 0x1D85B, size: 0x8, addend: 0x0, symName: __RNvXs9_NtNtNtCsaNl6UpbT7bw_4core4iter8adapters3mapINtB5_3MapINtNtB7_9enumerate9EnumerateINtNtNtCsiTraAjBDcu4_5alloc3vec9into_iter8IntoIterNtNtCsc29TF2YcYso_3syn4expr4ExprEENCNvNtCsi6DBJJHK2XK_13futures_macro4join12bind_futures0ENtB7_10SourceIter8as_innerB2Q_, symObjAddr: 0x3558, symBinAddr: 0xC2FC, symSize: 0x24 }
  - { offset: 0x1DC33, size: 0x8, addend: 0x0, symName: __RNvXs1_NtNtNtCsaNl6UpbT7bw_4core4iter8adapters3zipINtB5_3ZipINtNtNtCsiTraAjBDcu4_5alloc3vec9into_iter8IntoIterNtNtCsc29TF2YcYso_3syn4expr4ExprEINtNtNtBb_5slice4iter4IterNtCshnvkK9b4wzu_11proc_macro25IdentEEINtB5_7ZipImplBW_B2h_E3newCsi6DBJJHK2XK_13futures_macro, symObjAddr: 0x2748, symBinAddr: 0xB4EC, symSize: 0x40 }
  - { offset: 0x1DC7F, size: 0x8, addend: 0x0, symName: __RNvXs1_NtNtNtCsaNl6UpbT7bw_4core4iter8adapters3zipINtB5_3ZipINtNtNtCsiTraAjBDcu4_5alloc3vec9into_iter8IntoIterNtNtCsc29TF2YcYso_3syn4expr4ExprEINtNtNtBb_5slice4iter4IterNtCshnvkK9b4wzu_11proc_macro25IdentEEINtB5_7ZipImplBW_B2h_E4nextCsi6DBJJHK2XK_13futures_macro, symObjAddr: 0x2788, symBinAddr: 0xB52C, symSize: 0x18C }
  - { offset: 0x1DDDB, size: 0x8, addend: 0x0, symName: __RNvXs1_NtNtNtCsaNl6UpbT7bw_4core4iter8adapters3zipINtB5_3ZipINtNtNtCsiTraAjBDcu4_5alloc3vec9into_iter8IntoIterTNtNtCsc29TF2YcYso_3syn3pat3PatNtNtB1P_4expr4ExprEEINtNtNtBb_5slice4iter4IterNtCshnvkK9b4wzu_11proc_macro25IdentEEINtB5_7ZipImplBW_B2z_E3newCsi6DBJJHK2XK_13futures_macro, symObjAddr: 0x2914, symBinAddr: 0xB6B8, symSize: 0x40 }
  - { offset: 0x1DE27, size: 0x8, addend: 0x0, symName: __RNvXs1_NtNtNtCsaNl6UpbT7bw_4core4iter8adapters3zipINtB5_3ZipINtNtNtCsiTraAjBDcu4_5alloc3vec9into_iter8IntoIterTNtNtCsc29TF2YcYso_3syn3pat3PatNtNtB1P_4expr4ExprEEINtNtNtBb_5slice4iter4IterNtCshnvkK9b4wzu_11proc_macro25IdentEEINtB5_7ZipImplBW_B2z_E4nextCsi6DBJJHK2XK_13futures_macro, symObjAddr: 0x2954, symBinAddr: 0xB6F8, symSize: 0x18C }
  - { offset: 0x1DF89, size: 0x8, addend: 0x0, symName: __RNvXs3_NtNtNtCsaNl6UpbT7bw_4core4iter8adapters3zipINtB5_3ZipINtNtNtBb_5slice4iter4IterNtNtCsc29TF2YcYso_3syn4expr8ExprPathEIBX_NtCshnvkK9b4wzu_11proc_macro25IdentEEINtB5_7ZipImplBW_B1X_E3newCsi6DBJJHK2XK_13futures_macro, symObjAddr: 0x2DC0, symBinAddr: 0xBB64, symSize: 0xC4 }
  - { offset: 0x1E03A, size: 0x8, addend: 0x0, symName: __RNvXs3_NtNtNtCsaNl6UpbT7bw_4core4iter8adapters3zipINtB5_3ZipINtNtNtBb_5slice4iter4IterNtNtCsc29TF2YcYso_3syn4expr8ExprPathEIBX_NtCshnvkK9b4wzu_11proc_macro25IdentEEINtB5_7ZipImplBW_B1X_E4nextCsi6DBJJHK2XK_13futures_macro, symObjAddr: 0x2E84, symBinAddr: 0xBC28, symSize: 0xB8 }
  - { offset: 0x1E096, size: 0x8, addend: 0x0, symName: __RNvXs_NtNtNtCsaNl6UpbT7bw_4core4iter8adapters3zipINtB4_3ZipINtNtNtBa_5slice4iter4IterNtNtCsc29TF2YcYso_3syn4expr8ExprPathEIBW_NtCshnvkK9b4wzu_11proc_macro25IdentEENtNtNtB8_6traits8iterator8Iterator4nextCsi6DBJJHK2XK_13futures_macro, symObjAddr: 0x3C30, symBinAddr: 0xC9D4, symSize: 0x24 }
  - { offset: 0x1E0D4, size: 0x8, addend: 0x0, symName: __RNvXs_NtNtNtCsaNl6UpbT7bw_4core4iter8adapters3zipINtB4_3ZipINtNtNtCsiTraAjBDcu4_5alloc3vec9into_iter8IntoIterNtNtCsc29TF2YcYso_3syn4expr4ExprEINtNtNtBa_5slice4iter4IterNtCshnvkK9b4wzu_11proc_macro25IdentEENtNtNtB8_6traits8iterator8Iterator4nextCsi6DBJJHK2XK_13futures_macro, symObjAddr: 0x3C54, symBinAddr: 0xC9F8, symSize: 0x24 }
  - { offset: 0x1E112, size: 0x8, addend: 0x0, symName: __RNvXs_NtNtNtCsaNl6UpbT7bw_4core4iter8adapters3zipINtB4_3ZipINtNtNtCsiTraAjBDcu4_5alloc3vec9into_iter8IntoIterTNtNtCsc29TF2YcYso_3syn3pat3PatNtNtB1O_4expr4ExprEEINtNtNtBa_5slice4iter4IterNtCshnvkK9b4wzu_11proc_macro25IdentEENtNtNtB8_6traits8iterator8Iterator4nextCsi6DBJJHK2XK_13futures_macro, symObjAddr: 0x3C78, symBinAddr: 0xCA1C, symSize: 0x24 }
  - { offset: 0x1E156, size: 0x8, addend: 0x0, symName: __RNvXsb_NtNtNtCsaNl6UpbT7bw_4core4iter8adapters3zipINtB5_3ZipINtNtNtCsiTraAjBDcu4_5alloc3vec9into_iter8IntoIterNtNtCsc29TF2YcYso_3syn4expr4ExprEINtNtNtBb_5slice4iter4IterNtCshnvkK9b4wzu_11proc_macro25IdentEENtB7_10SourceIter8as_innerCsi6DBJJHK2XK_13futures_macro, symObjAddr: 0x3C9C, symBinAddr: 0xCA40, symSize: 0x24 }
  - { offset: 0x1E381, size: 0x8, addend: 0x0, symName: __RINvYINtNtNtCsiTraAjBDcu4_5alloc3vec9into_iter8IntoIterNtNtCsc29TF2YcYso_3syn4expr4ExprENtNtNtNtCsaNl6UpbT7bw_4core4iter6traits8iterator8Iterator3zipINtNtNtB1w_5slice4iter4IterNtCshnvkK9b4wzu_11proc_macro25IdentEECsi6DBJJHK2XK_13futures_macro, symObjAddr: 0x6D0, symBinAddr: 0x9474, symSize: 0xC0 }
  - { offset: 0x1E3F7, size: 0x8, addend: 0x0, symName: __RINvYINtNtNtCsiTraAjBDcu4_5alloc3vec9into_iter8IntoIterTNtNtCsc29TF2YcYso_3syn3pat3PatNtNtBW_4expr4ExprEENtNtNtNtCsaNl6UpbT7bw_4core4iter6traits8iterator8Iterator3zipINtNtNtB1N_5slice4iter4IterNtCshnvkK9b4wzu_11proc_macro25IdentEECsi6DBJJHK2XK_13futures_macro, symObjAddr: 0x790, symBinAddr: 0x9534, symSize: 0xC0 }
  - { offset: 0x1E46D, size: 0x8, addend: 0x0, symName: __RINvYINtNtNtNtCsaNl6UpbT7bw_4core4iter8adapters3map3MapINtNtB8_3zip3ZipINtNtNtCsiTraAjBDcu4_5alloc3vec9into_iter8IntoIterNtNtCsc29TF2YcYso_3syn4expr4ExprEINtNtNtBc_5slice4iter4IterNtCshnvkK9b4wzu_11proc_macro25IdentEENCNvNtCsi6DBJJHK2XK_13futures_macro6select12select_inner0ENtNtNtBa_6traits8iterator8Iterator7collectINtB1c_3VecNtB1X_8ExprPathEEB3z_, symObjAddr: 0x850, symBinAddr: 0x95F4, symSize: 0x74 }
  - { offset: 0x1E503, size: 0x8, addend: 0x0, symName: __RINvYINtNtNtNtCsaNl6UpbT7bw_4core4iter8adapters3map3MapINtNtB8_9enumerate9EnumerateINtNtNtCsiTraAjBDcu4_5alloc3vec9into_iter8IntoIterNtNtCsc29TF2YcYso_3syn4expr4ExprEENCNvNtCsi6DBJJHK2XK_13futures_macro4join12bind_futures0ENtNtNtBa_6traits8iterator8Iterator7collectINtB1o_3VecNtCshnvkK9b4wzu_11proc_macro25IdentEEB2L_, symObjAddr: 0x8C4, symBinAddr: 0x9668, symSize: 0x74 }
  - { offset: 0x1E599, size: 0x8, addend: 0x0, symName: __RINvYINtNtNtNtCsaNl6UpbT7bw_4core4iter8adapters3map3MapINtNtNtBc_3ops5range5RangejENCNvNtCsi6DBJJHK2XK_13futures_macro13stream_select13stream_select0ENtNtNtBa_6traits8iterator8Iterator7collectINtNtCsiTraAjBDcu4_5alloc3vec3VecNtCshnvkK9b4wzu_11proc_macro25IdentEEB1p_, symObjAddr: 0x938, symBinAddr: 0x96DC, symSize: 0x58 }
  - { offset: 0x1E62E, size: 0x8, addend: 0x0, symName: __RINvYINtNtNtNtCsaNl6UpbT7bw_4core4iter8adapters3map3MapINtNtNtBc_3ops5range5RangejENCNvNtCsi6DBJJHK2XK_13futures_macro13stream_select13stream_select0ENtNtNtBa_6traits8iterator8Iterator8for_eachNCINvMsi_NtCsiTraAjBDcu4_5alloc3vecINtB3e_3VecNtCshnvkK9b4wzu_11proc_macro25IdentE14extend_trustedB3_E0EB1p_, symObjAddr: 0x990, symBinAddr: 0x9734, symSize: 0x3C }
  - { offset: 0x1E699, size: 0x8, addend: 0x0, symName: __RINvYINtNtNtNtCsaNl6UpbT7bw_4core4iter8adapters3map3MapINtNtNtBc_3ops5range5RangejENCNvNtCsi6DBJJHK2XK_13futures_macro13stream_select13stream_selects0_0ENtNtNtBa_6traits8iterator8Iterator7collectINtNtCsiTraAjBDcu4_5alloc3vec3VecNtCshnvkK9b4wzu_11proc_macro25IdentEEB1p_, symObjAddr: 0x9CC, symBinAddr: 0x9770, symSize: 0x58 }
  - { offset: 0x1E72E, size: 0x8, addend: 0x0, symName: __RINvYINtNtNtNtCsaNl6UpbT7bw_4core4iter8adapters3map3MapINtNtNtBc_3ops5range5RangejENCNvNtCsi6DBJJHK2XK_13futures_macro13stream_select13stream_selects0_0ENtNtNtBa_6traits8iterator8Iterator8for_eachNCINvMsi_NtCsiTraAjBDcu4_5alloc3vecINtB3h_3VecNtCshnvkK9b4wzu_11proc_macro25IdentE14extend_trustedB3_E0EB1p_, symObjAddr: 0xA24, symBinAddr: 0x97C8, symSize: 0x3C }
  - { offset: 0x1E799, size: 0x8, addend: 0x0, symName: __RINvYINtNtNtNtCsaNl6UpbT7bw_4core4iter8adapters3map3MapINtNtNtBc_3ops5range5RangejENCNvNtCsi6DBJJHK2XK_13futures_macro13stream_select13stream_selects_0ENtNtNtBa_6traits8iterator8Iterator7collectINtNtCsiTraAjBDcu4_5alloc3vec3VecNtCshnvkK9b4wzu_11proc_macro25IdentEEB1p_, symObjAddr: 0xA60, symBinAddr: 0x9804, symSize: 0x58 }
  - { offset: 0x1E82E, size: 0x8, addend: 0x0, symName: __RINvYINtNtNtNtCsaNl6UpbT7bw_4core4iter8adapters3map3MapINtNtNtBc_3ops5range5RangejENCNvNtCsi6DBJJHK2XK_13futures_macro13stream_select13stream_selects_0ENtNtNtBa_6traits8iterator8Iterator8for_eachNCINvMsi_NtCsiTraAjBDcu4_5alloc3vecINtB3g_3VecNtCshnvkK9b4wzu_11proc_macro25IdentE14extend_trustedB3_E0EB1p_, symObjAddr: 0xAB8, symBinAddr: 0x985C, symSize: 0x3C }
  - { offset: 0x1E899, size: 0x8, addend: 0x0, symName: __RINvYINtNtNtNtCsaNl6UpbT7bw_4core4iter8adapters3map3MapINtNtNtBc_3ops5range5RangejENCNvNtCsi6DBJJHK2XK_13futures_macro6select19declare_result_enum0ENtNtNtBa_6traits8iterator8Iterator7collectINtNtCsiTraAjBDcu4_5alloc3vec3VecNtCshnvkK9b4wzu_11proc_macro25IdentEEB1p_, symObjAddr: 0xAF4, symBinAddr: 0x9898, symSize: 0x68 }
  - { offset: 0x1E92F, size: 0x8, addend: 0x0, symName: __RINvYINtNtNtNtCsaNl6UpbT7bw_4core4iter8adapters3map3MapINtNtNtBc_3ops5range5RangejENCNvNtCsi6DBJJHK2XK_13futures_macro6select19declare_result_enum0ENtNtNtBa_6traits8iterator8Iterator8for_eachNCINvMsi_NtCsiTraAjBDcu4_5alloc3vecINtB3c_3VecNtCshnvkK9b4wzu_11proc_macro25IdentE14extend_trustedB3_E0EB1p_, symObjAddr: 0xB5C, symBinAddr: 0x9900, symSize: 0x34 }
  - { offset: 0x1E99B, size: 0x8, addend: 0x0, symName: __RINvYINtNtNtNtCsaNl6UpbT7bw_4core4iter8adapters3map3MapINtNtNtBc_3ops5range5RangejENvYNtNtCsc29TF2YcYso_3syn4expr5IndexINtNtBc_7convert4FromjE4fromENtNtNtBa_6traits8iterator8Iterator7collectINtNtCsiTraAjBDcu4_5alloc3vec3VecB1m_EECsi6DBJJHK2XK_13futures_macro, symObjAddr: 0xB90, symBinAddr: 0x9934, symSize: 0x58 }
  - { offset: 0x1EA30, size: 0x8, addend: 0x0, symName: __RINvYINtNtNtNtCsaNl6UpbT7bw_4core4iter8adapters3map3MapINtNtNtBc_3ops5range5RangejENvYNtNtCsc29TF2YcYso_3syn4expr5IndexINtNtBc_7convert4FromjE4fromENtNtNtBa_6traits8iterator8Iterator8for_eachNCINvMsi_NtCsiTraAjBDcu4_5alloc3vecINtB3c_3VecB1m_E14extend_trustedB3_E0ECsi6DBJJHK2XK_13futures_macro, symObjAddr: 0xBE8, symBinAddr: 0x998C, symSize: 0x3C }
  - { offset: 0x1EA9B, size: 0x8, addend: 0x0, symName: __RINvYINtNtNtNtCsaNl6UpbT7bw_4core4iter8adapters3zip3ZipINtNtNtBc_5slice4iter4IterNtNtCsc29TF2YcYso_3syn4expr8ExprPathEIBS_NtCshnvkK9b4wzu_11proc_macro25IdentEENtNtNtBa_6traits8iterator8Iterator3mapNtB1Y_11TokenStreamNCNvNtCsi6DBJJHK2XK_13futures_macro6select12select_inners_0EB3y_, symObjAddr: 0xC24, symBinAddr: 0x99C8, symSize: 0x50 }
  - { offset: 0x1EB09, size: 0x8, addend: 0x0, symName: __RINvYINtNtNtNtCsaNl6UpbT7bw_4core4iter8adapters3zip3ZipINtNtNtCsiTraAjBDcu4_5alloc3vec9into_iter8IntoIterNtNtCsc29TF2YcYso_3syn4expr4ExprEINtNtNtBc_5slice4iter4IterNtCshnvkK9b4wzu_11proc_macro25IdentEENtNtNtBa_6traits8iterator8Iterator3mapNtB1H_8ExprPathNCNvNtCsi6DBJJHK2XK_13futures_macro6select12select_inner0EB4a_, symObjAddr: 0xC74, symBinAddr: 0x9A18, symSize: 0x50 }
  - { offset: 0x1EB77, size: 0x8, addend: 0x0, symName: __RINvYINtNtNtNtCsaNl6UpbT7bw_4core4iter8adapters3zip3ZipINtNtNtCsiTraAjBDcu4_5alloc3vec9into_iter8IntoIterNtNtCsc29TF2YcYso_3syn4expr4ExprEINtNtNtBc_5slice4iter4IterNtCshnvkK9b4wzu_11proc_macro25IdentEENtNtNtBa_6traits8iterator8Iterator8try_foldINtNtBW_13in_place_drop11InPlaceDropNtB1H_8ExprPathENCINvNtB8_3map12map_try_foldTB1F_RB2C_EB4u_B3U_INtNtBc_6result6ResultB3U_zENCNvNtCsi6DBJJHK2XK_13futures_macro6select12select_inner0NCINvNtBW_16in_place_collect24write_in_place_with_dropB4u_E0E0B5v_EB63_, symObjAddr: 0xCC4, symBinAddr: 0x9A68, symSize: 0x1D0 }
  - { offset: 0x1EC18, size: 0x8, addend: 0x0, symName: __RINvYINtNtNtNtCsaNl6UpbT7bw_4core4iter8adapters3zip3ZipINtNtNtCsiTraAjBDcu4_5alloc3vec9into_iter8IntoIterTNtNtCsc29TF2YcYso_3syn3pat3PatNtNtB1K_4expr4ExprEEINtNtNtBc_5slice4iter4IterNtCshnvkK9b4wzu_11proc_macro25IdentEENtNtNtBa_6traits8iterator8Iterator3mapNtB2W_11TokenStreamNCNvNtCsi6DBJJHK2XK_13futures_macro6select12select_inners0_0EB4w_, symObjAddr: 0xE94, symBinAddr: 0x9C38, symSize: 0x50 }
  - { offset: 0x1EC86, size: 0x8, addend: 0x0, symName: __RNvYINtNtNtCsiTraAjBDcu4_5alloc3vec9into_iter8IntoIterNtNtCsc29TF2YcYso_3syn4expr4ExprENtNtNtNtCsaNl6UpbT7bw_4core4iter6traits8iterator8Iterator9enumerateCsi6DBJJHK2XK_13futures_macro, symObjAddr: 0x3EF8, symBinAddr: 0xCC9C, symSize: 0x18 }
  - { offset: 0x1ECB7, size: 0x8, addend: 0x0, symName: __RNvYINtNtNtCsiTraAjBDcu4_5alloc3vec9into_iter8IntoIterNtNtCsc29TF2YcYso_3syn4expr4ExprENtNtNtNtCsaNl6UpbT7bw_4core4iter6traits8iterator8Iterator9enumerateCsi6DBJJHK2XK_13futures_macro, symObjAddr: 0x3EF8, symBinAddr: 0xCC9C, symSize: 0x18 }
  - { offset: 0x1ED53, size: 0x8, addend: 0x0, symName: __RNvYINtNtNtCsiTraAjBDcu4_5alloc3vec9into_iter8IntoIterNtNtCsc29TF2YcYso_3syn4expr4ExprENtNtNtNtCsaNl6UpbT7bw_4core4iter6traits10exact_size17ExactSizeIterator3lenCsi6DBJJHK2XK_13futures_macro, symObjAddr: 0x3E34, symBinAddr: 0xCBD8, symSize: 0xC4 }
  - { offset: 0x1EE4E, size: 0x8, addend: 0x0, symName: __RNvYINtNtNtCsiTraAjBDcu4_5alloc3vec9into_iter8IntoIterTNtNtCsc29TF2YcYso_3syn3pat3PatNtNtBV_4expr4ExprEENtNtNtNtCsaNl6UpbT7bw_4core4iter6traits10exact_size17ExactSizeIterator3lenCsi6DBJJHK2XK_13futures_macro, symObjAddr: 0x3F10, symBinAddr: 0xCCB4, symSize: 0xC4 }
  - { offset: 0x1EF55, size: 0x8, addend: 0x0, symName: __RNvXNtNtNtCsaNl6UpbT7bw_4core4iter6traits7collectINtNtNtB6_8adapters3map3MapINtNtBQ_3zip3ZipINtNtNtCsiTraAjBDcu4_5alloc3vec9into_iter8IntoIterNtNtCsc29TF2YcYso_3syn4expr4ExprEINtNtNtB8_5slice4iter4IterNtCshnvkK9b4wzu_11proc_macro25IdentEENCNvNtCsi6DBJJHK2XK_13futures_macro6select12select_inner0ENtB2_12IntoIterator9into_iterB3U_, symObjAddr: 0x1CAC, symBinAddr: 0xAA50, symSize: 0x30 }
  - { offset: 0x1EF8D, size: 0x8, addend: 0x0, symName: __RNvXNtNtNtCsaNl6UpbT7bw_4core4iter6traits7collectINtNtNtB6_8adapters3map3MapINtNtBQ_9enumerate9EnumerateINtNtNtCsiTraAjBDcu4_5alloc3vec9into_iter8IntoIterNtNtCsc29TF2YcYso_3syn4expr4ExprEENCNvNtCsi6DBJJHK2XK_13futures_macro4join12bind_futures0ENtB2_12IntoIterator9into_iterB36_, symObjAddr: 0x1CDC, symBinAddr: 0xAA80, symSize: 0x30 }
  - { offset: 0x1EFC5, size: 0x8, addend: 0x0, symName: __RNvXNtNtNtCsaNl6UpbT7bw_4core4iter6traits7collectINtNtNtB6_8adapters3map3MapINtNtNtB8_3ops5range5RangejENCNvNtCsi6DBJJHK2XK_13futures_macro13stream_select13stream_select0ENtB2_12IntoIterator9into_iterB1K_, symObjAddr: 0x1D0C, symBinAddr: 0xAAB0, symSize: 0x14 }
  - { offset: 0x1EFFC, size: 0x8, addend: 0x0, symName: __RNvXNtNtNtCsaNl6UpbT7bw_4core4iter6traits7collectINtNtNtB6_8adapters3map3MapINtNtNtB8_3ops5range5RangejENCNvNtCsi6DBJJHK2XK_13futures_macro13stream_select13stream_selects0_0ENtB2_12IntoIterator9into_iterB1K_, symObjAddr: 0x1D20, symBinAddr: 0xAAC4, symSize: 0x14 }
  - { offset: 0x1F033, size: 0x8, addend: 0x0, symName: __RNvXNtNtNtCsaNl6UpbT7bw_4core4iter6traits7collectINtNtNtB6_8adapters3map3MapINtNtNtB8_3ops5range5RangejENCNvNtCsi6DBJJHK2XK_13futures_macro13stream_select13stream_selects_0ENtB2_12IntoIterator9into_iterB1K_, symObjAddr: 0x1D34, symBinAddr: 0xAAD8, symSize: 0x14 }
  - { offset: 0x1F06A, size: 0x8, addend: 0x0, symName: __RNvXNtNtNtCsaNl6UpbT7bw_4core4iter6traits7collectINtNtNtB6_8adapters3map3MapINtNtNtB8_3ops5range5RangejENCNvNtCsi6DBJJHK2XK_13futures_macro6select19declare_result_enum0ENtB2_12IntoIterator9into_iterB1K_, symObjAddr: 0x1D48, symBinAddr: 0xAAEC, symSize: 0x18 }
  - { offset: 0x1F0A1, size: 0x8, addend: 0x0, symName: __RNvXNtNtNtCsaNl6UpbT7bw_4core4iter6traits7collectINtNtNtB6_8adapters3map3MapINtNtNtB8_3ops5range5RangejENvYNtNtCsc29TF2YcYso_3syn4expr5IndexINtNtB8_7convert4FromjE4fromENtB2_12IntoIterator9into_iterCsi6DBJJHK2XK_13futures_macro, symObjAddr: 0x1D60, symBinAddr: 0xAB04, symSize: 0x14 }
  - { offset: 0x1F0E5, size: 0x8, addend: 0x0, symName: __RNvXsF_NtNtCsaNl6UpbT7bw_4core4iter5rangejNtB5_4Step13steps_betweenCsi6DBJJHK2XK_13futures_macro, symObjAddr: 0x357C, symBinAddr: 0xC320, symSize: 0x9C }
  - { offset: 0x1F140, size: 0x8, addend: 0x0, symName: __RNvXsF_NtNtCsaNl6UpbT7bw_4core4iter5rangejNtB5_4Step17forward_uncheckedCsi6DBJJHK2XK_13futures_macro, symObjAddr: 0x3618, symBinAddr: 0xC3BC, symSize: 0x50 }
  - { offset: 0x1F55D, size: 0x8, addend: 0x0, symName: __RNvMNtCsaNl6UpbT7bw_4core5sliceSNtCshnvkK9b4wzu_11proc_macro211TokenStream4iterCsi6DBJJHK2XK_13futures_macro, symObjAddr: 0x13A8, symBinAddr: 0xA14C, symSize: 0x28 }
  - { offset: 0x1F594, size: 0x8, addend: 0x0, symName: __RNvMNtCsaNl6UpbT7bw_4core5sliceSNtCshnvkK9b4wzu_11proc_macro25Ident4iterCsi6DBJJHK2XK_13futures_macro, symObjAddr: 0x13D0, symBinAddr: 0xA174, symSize: 0x28 }
  - { offset: 0x1F5CB, size: 0x8, addend: 0x0, symName: __RNvMNtCsaNl6UpbT7bw_4core5sliceSNtNtCsc29TF2YcYso_3syn4stmt4Stmt4lastCsi6DBJJHK2XK_13futures_macro, symObjAddr: 0x13F8, symBinAddr: 0xA19C, symSize: 0x58 }
  - { offset: 0x1F666, size: 0x8, addend: 0x0, symName: __RNvMNtCsaNl6UpbT7bw_4core5sliceSh15copy_from_sliceCsi6DBJJHK2XK_13futures_macro, symObjAddr: 0x1450, symBinAddr: 0xA1F4, symSize: 0xAC }
  - { offset: 0x1F82B, size: 0x8, addend: 0x0, symName: __RNvXs1_NtCsaNl6UpbT7bw_4core7convertNtCshnvkK9b4wzu_11proc_macro211TokenStreamINtB5_4IntoNtCs7yrEGia95Wz_10proc_macro11TokenStreamE4intoCsi6DBJJHK2XK_13futures_macro, symObjAddr: 0x25FC, symBinAddr: 0xB3A0, symSize: 0x14 }
  - { offset: 0x20625, size: 0x8, addend: 0x0, symName: __RINvNtCs4EAaWzSXu1l_5quote9___private8get_spanNtCshnvkK9b4wzu_11proc_macro24SpanECsi6DBJJHK2XK_13futures_macro, symObjAddr: 0xC8, symBinAddr: 0x8E6C, symSize: 0x20 }
  - { offset: 0x20710, size: 0x8, addend: 0x0, symName: __RNvXs5_NtCs4EAaWzSXu1l_5quote9___privateINtB5_9RepInterpNtCshnvkK9b4wzu_11proc_macro211TokenStreamENtNtB7_9to_tokens8ToTokens9to_tokensCsi6DBJJHK2XK_13futures_macro, symObjAddr: 0x2F3C, symBinAddr: 0xBCE0, symSize: 0x3C }
  - { offset: 0x2074F, size: 0x8, addend: 0x0, symName: __RNvXs5_NtCs4EAaWzSXu1l_5quote9___privateINtB5_9RepInterpRNtCshnvkK9b4wzu_11proc_macro211TokenStreamENtNtB7_9to_tokens8ToTokens9to_tokensCsi6DBJJHK2XK_13futures_macro, symObjAddr: 0x2F78, symBinAddr: 0xBD1C, symSize: 0x3C }
  - { offset: 0x2078E, size: 0x8, addend: 0x0, symName: __RNvXs5_NtCs4EAaWzSXu1l_5quote9___privateINtB5_9RepInterpRNtCshnvkK9b4wzu_11proc_macro25IdentENtNtB7_9to_tokens8ToTokens9to_tokensCsi6DBJJHK2XK_13futures_macro, symObjAddr: 0x2FB4, symBinAddr: 0xBD58, symSize: 0x3C }
  - { offset: 0x207CD, size: 0x8, addend: 0x0, symName: __RNvXs5_NtCs4EAaWzSXu1l_5quote9___privateINtB5_9RepInterpRNtNtCsc29TF2YcYso_3syn4expr5IndexENtNtB7_9to_tokens8ToTokens9to_tokensCsi6DBJJHK2XK_13futures_macro, symObjAddr: 0x2FF0, symBinAddr: 0xBD94, symSize: 0x3C }
  - { offset: 0x20812, size: 0x8, addend: 0x0, symName: __RNvXs7_NtCs4EAaWzSXu1l_5quote9___privateINtB5_20IdentFragmentAdapterRjENtNtCsaNl6UpbT7bw_4core3fmt7Display3fmtCsi6DBJJHK2XK_13futures_macro, symObjAddr: 0x3388, symBinAddr: 0xC12C, symSize: 0x3C }
  - { offset: 0x2085E, size: 0x8, addend: 0x0, symName: __RNvYINtNtCs4EAaWzSXu1l_5quote9___private11HasIteratorKb1_EINtB5_16CheckHasIteratorKBQ_E5checkCsi6DBJJHK2XK_13futures_macro, symObjAddr: 0x3E18, symBinAddr: 0xCBBC, symSize: 0x1C }
  - { offset: 0x2089A, size: 0x8, addend: 0x0, symName: __RNvYINtNtNtNtCsaNl6UpbT7bw_4core4iter8adapters3map3MapINtNtB7_3zip3ZipINtNtNtBb_5slice4iter4IterNtNtCsc29TF2YcYso_3syn4expr8ExprPathEIB17_NtCshnvkK9b4wzu_11proc_macro25IdentEENCNvNtCsi6DBJJHK2XK_13futures_macro6select12select_inners_0ENtNtNtCs4EAaWzSXu1l_5quote9___private3ext14RepIteratorExt15quote_into_iterB2T_, symObjAddr: 0x3FD4, symBinAddr: 0xCD78, symSize: 0x40 }
  - { offset: 0x208D0, size: 0x8, addend: 0x0, symName: __RNvYINtNtNtNtCsaNl6UpbT7bw_4core4iter8adapters3map3MapINtNtB7_3zip3ZipINtNtNtCsiTraAjBDcu4_5alloc3vec9into_iter8IntoIterTNtNtCsc29TF2YcYso_3syn3pat3PatNtNtB1Z_4expr4ExprEEINtNtNtBb_5slice4iter4IterNtCshnvkK9b4wzu_11proc_macro25IdentEENCNvNtCsi6DBJJHK2XK_13futures_macro6select12select_inners0_0ENtNtNtCs4EAaWzSXu1l_5quote9___private3ext14RepIteratorExt15quote_into_iterB3Q_, symObjAddr: 0x4014, symBinAddr: 0xCDB8, symSize: 0x40 }
  - { offset: 0x20906, size: 0x8, addend: 0x0, symName: __RNvYINtNtNtNtCsaNl6UpbT7bw_4core4iter8adapters3map3MapINtNtCsc29TF2YcYso_3syn10punctuated4IterNtNtBV_4expr4ExprENCNvNtCsi6DBJJHK2XK_13futures_macro13stream_select13stream_selects1_0ENtNtNtCs4EAaWzSXu1l_5quote9___private3ext14RepIteratorExt15quote_into_iterB1S_, symObjAddr: 0x4054, symBinAddr: 0xCDF8, symSize: 0x2C }
  - { offset: 0x2093B, size: 0x8, addend: 0x0, symName: __RNvYINtNtNtNtCsaNl6UpbT7bw_4core4iter8adapters3map3MapINtNtNtBb_5slice4iter4IterNtCshnvkK9b4wzu_11proc_macro25IdentENCNvNtCsi6DBJJHK2XK_13futures_macro4join4join0ENtNtNtCs4EAaWzSXu1l_5quote9___private3ext14RepIteratorExt15quote_into_iterB1W_, symObjAddr: 0x4080, symBinAddr: 0xCE24, symSize: 0x2C }
  - { offset: 0x20970, size: 0x8, addend: 0x0, symName: __RNvYINtNtNtNtCsaNl6UpbT7bw_4core4iter8adapters3map3MapINtNtNtBb_5slice4iter4IterNtCshnvkK9b4wzu_11proc_macro25IdentENCNvNtCsi6DBJJHK2XK_13futures_macro4join4joins_0ENtNtNtCs4EAaWzSXu1l_5quote9___private3ext14RepIteratorExt15quote_into_iterB1W_, symObjAddr: 0x40AC, symBinAddr: 0xCE50, symSize: 0x2C }
  - { offset: 0x209A5, size: 0x8, addend: 0x0, symName: __RNvYINtNtNtNtCsaNl6UpbT7bw_4core4iter8adapters3map3MapINtNtNtBb_5slice4iter4IterNtCshnvkK9b4wzu_11proc_macro25IdentENCNvNtCsi6DBJJHK2XK_13futures_macro4join8try_join0ENtNtNtCs4EAaWzSXu1l_5quote9___private3ext14RepIteratorExt15quote_into_iterB1W_, symObjAddr: 0x40D8, symBinAddr: 0xCE7C, symSize: 0x2C }
  - { offset: 0x209DA, size: 0x8, addend: 0x0, symName: __RNvYINtNtNtNtCsaNl6UpbT7bw_4core4iter8adapters3map3MapINtNtNtBb_5slice4iter4IterNtCshnvkK9b4wzu_11proc_macro25IdentENCNvNtCsi6DBJJHK2XK_13futures_macro4join8try_joins_0ENtNtNtCs4EAaWzSXu1l_5quote9___private3ext14RepIteratorExt15quote_into_iterB1W_, symObjAddr: 0x4104, symBinAddr: 0xCEA8, symSize: 0x2C }
  - { offset: 0x20A7E, size: 0x8, addend: 0x0, symName: __RNvXNtCs4EAaWzSXu1l_5quote9to_tokensRINtNtCsiTraAjBDcu4_5alloc5boxed3BoxNtNtCsc29TF2YcYso_3syn4stmt5BlockENtB2_8ToTokens9to_tokensCsi6DBJJHK2XK_13futures_macro, symObjAddr: 0x1BB8, symBinAddr: 0xA95C, symSize: 0x40 }
  - { offset: 0x20ABD, size: 0x8, addend: 0x0, symName: __RNvXNtCs4EAaWzSXu1l_5quote9to_tokensRNtCshnvkK9b4wzu_11proc_macro211TokenStreamNtB2_8ToTokens9to_tokensCsi6DBJJHK2XK_13futures_macro, symObjAddr: 0x1BF8, symBinAddr: 0xA99C, symSize: 0x40 }
  - { offset: 0x20AFC, size: 0x8, addend: 0x0, symName: __RNvXNtCs4EAaWzSXu1l_5quote9to_tokensRNtCshnvkK9b4wzu_11proc_macro25IdentNtB2_8ToTokens9to_tokensCsi6DBJJHK2XK_13futures_macro, symObjAddr: 0x1C38, symBinAddr: 0xA9DC, symSize: 0x40 }
  - { offset: 0x20B41, size: 0x8, addend: 0x0, symName: __RNvXs1_NtCs4EAaWzSXu1l_5quote9to_tokensINtNtCsiTraAjBDcu4_5alloc5boxed3BoxNtNtCsc29TF2YcYso_3syn4stmt5BlockENtB5_8ToTokens9to_tokensCsi6DBJJHK2XK_13futures_macro, symObjAddr: 0x25BC, symBinAddr: 0xB360, symSize: 0x40 }
  - { offset: 0x20B86, size: 0x8, addend: 0x0, symName: __RNvYRNtNtCsc29TF2YcYso_3syn4stmt4StmtNtNtCs4EAaWzSXu1l_5quote9to_tokens8ToTokens15to_token_streamCsi6DBJJHK2XK_13futures_macro, symObjAddr: 0x4130, symBinAddr: 0xCED4, symSize: 0x8C }
  - { offset: 0x20BD0, size: 0x8, addend: 0x0, symName: __RNvYRNtNtCsc29TF2YcYso_3syn4stmt4StmtNtNtCs4EAaWzSXu1l_5quote9to_tokens8ToTokens17into_token_streamCsi6DBJJHK2XK_13futures_macro, symObjAddr: 0x41BC, symBinAddr: 0xCF60, symSize: 0x54 }
  - { offset: 0x20C22, size: 0x8, addend: 0x0, symName: __RINvMNtNtCsaNl6UpbT7bw_4core3fmt2rtNtB3_8Argument11new_displayINtNtCs4EAaWzSXu1l_5quote9___private20IdentFragmentAdapterRjEECsi6DBJJHK2XK_13futures_macro, symObjAddr: 0x9C, symBinAddr: 0x8E40, symSize: 0x2C }
  - { offset: 0x20D2F, size: 0x8, addend: 0x0, symName: __RNvNtCsi6DBJJHK2XK_13futures_macro8executor4test, symObjAddr: 0x4210, symBinAddr: 0xCFB4, symSize: 0xBD8 }
  - { offset: 0x20F5A, size: 0x8, addend: 0x0, symName: __RNCNvNtCsi6DBJJHK2XK_13futures_macro8executor4test0B5_, symObjAddr: 0x4DE8, symBinAddr: 0xDB8C, symSize: 0x6C }
  - { offset: 0x20F91, size: 0x8, addend: 0x0, symName: __RNCNvNtCsi6DBJJHK2XK_13futures_macro8executor4tests_0B5_, symObjAddr: 0x4E54, symBinAddr: 0xDBF8, symSize: 0x6C }
  - { offset: 0x21501, size: 0x8, addend: 0x0, symName: __RNvMNtCsiTraAjBDcu4_5alloc5allocNtB2_6Global10alloc_implCsi6DBJJHK2XK_13futures_macro, symObjAddr: 0x14FC, symBinAddr: 0xA2A0, symSize: 0x204 }
  - { offset: 0x21887, size: 0x8, addend: 0x0, symName: __RNvMNtNtCs4EAaWzSXu1l_5quote9___private8get_spanINtB2_7GetSpanNtCshnvkK9b4wzu_11proc_macro24SpanE11___into_spanCsi6DBJJHK2XK_13futures_macro, symObjAddr: 0x1700, symBinAddr: 0xA4A4, symSize: 0x20 }
  - { offset: 0x218FB, size: 0x8, addend: 0x0, symName: __RNvMs0_NtCsiTraAjBDcu4_5alloc7raw_vecINtB5_6RawVecNtCshnvkK9b4wzu_11proc_macro211TokenStreamE8grow_oneCsi6DBJJHK2XK_13futures_macro, symObjAddr: 0x1720, symBinAddr: 0xA4C4, symSize: 0x90 }
  - { offset: 0x219A9, size: 0x8, addend: 0x0, symName: __RNvMs0_NtCsiTraAjBDcu4_5alloc7raw_vecINtB5_6RawVecNtNtCsc29TF2YcYso_3syn4expr4ExprE8grow_oneCsi6DBJJHK2XK_13futures_macro, symObjAddr: 0x17B0, symBinAddr: 0xA554, symSize: 0x90 }
  - { offset: 0x21A57, size: 0x8, addend: 0x0, symName: __RNvMs0_NtCsiTraAjBDcu4_5alloc7raw_vecINtB5_6RawVecTNtNtCsc29TF2YcYso_3syn3pat3PatNtNtBR_4expr4ExprEE8grow_oneCsi6DBJJHK2XK_13futures_macro, symObjAddr: 0x1840, symBinAddr: 0xA5E4, symSize: 0x90 }
  - { offset: 0x21AC0, size: 0x8, addend: 0x0, symName: __RNvMs3_NtCs4EAaWzSXu1l_5quote9___privateINtB5_9RepInterpRNtCshnvkK9b4wzu_11proc_macro25IdentE4nextCsi6DBJJHK2XK_13futures_macro, symObjAddr: 0x18D0, symBinAddr: 0xA674, symSize: 0x2C }
  - { offset: 0x21AEB, size: 0x8, addend: 0x0, symName: __RNvMs6_NtCs4EAaWzSXu1l_5quote9___privateINtB5_20IdentFragmentAdapterRjE4spanCsi6DBJJHK2XK_13futures_macro, symObjAddr: 0x18FC, symBinAddr: 0xA6A0, symSize: 0x34 }
  - { offset: 0x21C19, size: 0x8, addend: 0x0, symName: __RNvMs_NtNtCsiTraAjBDcu4_5alloc3vec9into_iterINtB4_8IntoIterNtNtCsc29TF2YcYso_3syn4expr4ExprE32forget_allocation_drop_remainingCsi6DBJJHK2XK_13futures_macro, symObjAddr: 0x1930, symBinAddr: 0xA6D4, symSize: 0xAC }
  - { offset: 0x22F06, size: 0x8, addend: 0x0, symName: __RINvCsc29TF2YcYso_3syn5parseNtNtB2_4item6ItemFnECsi6DBJJHK2XK_13futures_macro, symObjAddr: 0x0, symBinAddr: 0xDC64, symSize: 0x30 }
  - { offset: 0x2335F, size: 0x8, addend: 0x0, symName: __RNCNCNvXsx_NtCsc29TF2YcYso_3syn10punctuatedINtB9_11PrivateIterNtNtBb_4expr4ExprNtNtBb_5token5CommaENtNtNtNtCsaNl6UpbT7bw_4core4iter6traits12double_ended19DoubleEndedIterator9next_back00Csi6DBJJHK2XK_13futures_macro, symObjAddr: 0x2E84, symBinAddr: 0x10AA0, symSize: 0x24 }
  - { offset: 0x233B2, size: 0x8, addend: 0x0, symName: __RNCNvXsx_NtCsc29TF2YcYso_3syn10punctuatedINtB7_11PrivateIterNtNtB9_4expr4ExprNtNtB9_5token5CommaENtNtNtNtCsaNl6UpbT7bw_4core4iter6traits12double_ended19DoubleEndedIterator9next_back0Csi6DBJJHK2XK_13futures_macro, symObjAddr: 0x2F50, symBinAddr: 0x10B6C, symSize: 0x38 }
  - { offset: 0x233F5, size: 0x8, addend: 0x0, symName: __RNvXsx_NtCsc29TF2YcYso_3syn10punctuatedINtB5_11PrivateIterNtNtB7_4expr4ExprNtNtB7_5token5CommaENtNtNtNtCsaNl6UpbT7bw_4core4iter6traits12double_ended19DoubleEndedIterator9next_backCsi6DBJJHK2XK_13futures_macro, symObjAddr: 0x60A4, symBinAddr: 0x13CAC, symSize: 0x40 }
  - { offset: 0x23440, size: 0x8, addend: 0x0, symName: __RNCNvXsw_NtCsc29TF2YcYso_3syn10punctuatedINtB7_11PrivateIterNtNtB9_4expr4ExprNtNtB9_5token5CommaENtNtNtNtCsaNl6UpbT7bw_4core4iter6traits8iterator8Iterator4next0Csi6DBJJHK2XK_13futures_macro, symObjAddr: 0x2EF8, symBinAddr: 0x10B14, symSize: 0x24 }
  - { offset: 0x2348B, size: 0x8, addend: 0x0, symName: __RNCNvXsw_NtCsc29TF2YcYso_3syn10punctuatedINtB7_11PrivateIterNtNtB9_4expr4ExprNtNtB9_5token5CommaENtNtNtNtCsaNl6UpbT7bw_4core4iter6traits8iterator8Iterator4nexts_0Csi6DBJJHK2XK_13futures_macro, symObjAddr: 0x2F1C, symBinAddr: 0x10B38, symSize: 0x34 }
  - { offset: 0x234D5, size: 0x8, addend: 0x0, symName: __RNvXsw_NtCsc29TF2YcYso_3syn10punctuatedINtB5_11PrivateIterNtNtB7_4expr4ExprNtNtB7_5token5CommaENtNtNtNtCsaNl6UpbT7bw_4core4iter6traits8iterator8Iterator4nextCsi6DBJJHK2XK_13futures_macro, symObjAddr: 0x6060, symBinAddr: 0x13C68, symSize: 0x44 }
  - { offset: 0x23539, size: 0x8, addend: 0x0, symName: __RNvXsA_NtCsc29TF2YcYso_3syn10punctuatedINtB5_11PrivateIterNtNtB7_4expr4ExprNtNtB7_5token5CommaEINtB5_9IterTraitBU_E9clone_boxCsi6DBJJHK2XK_13futures_macro, symObjAddr: 0x4554, symBinAddr: 0x1216C, symSize: 0x94 }
  - { offset: 0x2359D, size: 0x8, addend: 0x0, symName: __RNvXst_NtCsc29TF2YcYso_3syn10punctuatedINtB5_4IterNtNtB7_4expr4ExprENtNtNtNtCsaNl6UpbT7bw_4core4iter6traits8iterator8Iterator4nextCsi6DBJJHK2XK_13futures_macro, symObjAddr: 0x6018, symBinAddr: 0x13C20, symSize: 0x48 }
  - { offset: 0x235DA, size: 0x8, addend: 0x0, symName: __RNvXsy_NtCsc29TF2YcYso_3syn10punctuatedINtB5_11PrivateIterNtNtB7_4expr4ExprNtNtB7_5token5CommaENtNtNtNtCsaNl6UpbT7bw_4core4iter6traits10exact_size17ExactSizeIterator3lenCsi6DBJJHK2XK_13futures_macro, symObjAddr: 0x60E4, symBinAddr: 0x13CEC, symSize: 0x94 }
  - { offset: 0x23654, size: 0x8, addend: 0x0, symName: __RNvXsz_NtCsc29TF2YcYso_3syn10punctuatedINtB5_11PrivateIterNtNtB7_4expr4ExprNtNtB7_5token5CommaENtNtCsaNl6UpbT7bw_4core5clone5Clone5cloneCsi6DBJJHK2XK_13futures_macro, symObjAddr: 0x6178, symBinAddr: 0x13D80, symSize: 0x68 }
  - { offset: 0x27F13, size: 0x8, addend: 0x0, symName: __RINvCsc29TF2YcYso_3syn5parseNtNtB2_4item6ItemFnECsi6DBJJHK2XK_13futures_macro, symObjAddr: 0x0, symBinAddr: 0xDC64, symSize: 0x30 }
  - { offset: 0x27F4A, size: 0x8, addend: 0x0, symName: __RINvCsc29TF2YcYso_3syn5parseNtNtCsi6DBJJHK2XK_13futures_macro4join4JoinEBu_, symObjAddr: 0x30, symBinAddr: 0xDC94, symSize: 0x30 }
  - { offset: 0x27F81, size: 0x8, addend: 0x0, symName: __RINvCsc29TF2YcYso_3syn5parseNtNtCsi6DBJJHK2XK_13futures_macro6select6SelectEBu_, symObjAddr: 0x60, symBinAddr: 0xDCC4, symSize: 0x30 }
  - { offset: 0x27FB8, size: 0x8, addend: 0x0, symName: __RINvCsc29TF2YcYso_3syn6parse2NtNtB2_4expr4ExprECsi6DBJJHK2XK_13futures_macro, symObjAddr: 0x90, symBinAddr: 0xDCF4, symSize: 0x24 }
  - { offset: 0x28206, size: 0x8, addend: 0x0, symName: __RNvXsh_NtCsc29TF2YcYso_3syn5parseNvMNtB7_10punctuatedINtBy_10PunctuatedNtNtB7_4expr4ExprNtNtB7_5token5CommaE16parse_terminatedNtB5_6Parser6parse2Csi6DBJJHK2XK_13futures_macro, symObjAddr: 0x48B0, symBinAddr: 0x124C8, symSize: 0x33C }
  - { offset: 0x28315, size: 0x8, addend: 0x0, symName: __RNvXsh_NtCsc29TF2YcYso_3syn5parseNvYNtNtB7_4expr4ExprNtB5_5Parse5parseNtB5_6Parser6parse2Csi6DBJJHK2XK_13futures_macro, symObjAddr: 0x4BEC, symBinAddr: 0x12804, symSize: 0x350 }
  - { offset: 0x28425, size: 0x8, addend: 0x0, symName: __RNvXsh_NtCsc29TF2YcYso_3syn5parseNvYNtNtB7_4item6ItemFnNtB5_5Parse5parseNtB5_6Parser6parse2Csi6DBJJHK2XK_13futures_macro, symObjAddr: 0x4F3C, symBinAddr: 0x12B54, symSize: 0x354 }
  - { offset: 0x28535, size: 0x8, addend: 0x0, symName: __RNvXsh_NtCsc29TF2YcYso_3syn5parseNvYNtNtCsi6DBJJHK2XK_13futures_macro4join4JoinNtB5_5Parse5parseNtB5_6Parser6parse2BC_, symObjAddr: 0x5290, symBinAddr: 0x12EA8, symSize: 0x334 }
  - { offset: 0x28644, size: 0x8, addend: 0x0, symName: __RNvXsh_NtCsc29TF2YcYso_3syn5parseNvYNtNtCsi6DBJJHK2XK_13futures_macro6select6SelectNtB5_5Parse5parseNtB5_6Parser6parse2BC_, symObjAddr: 0x55C4, symBinAddr: 0x131DC, symSize: 0x354 }
  - { offset: 0x2875A, size: 0x8, addend: 0x0, symName: __RNvYNvYNtNtCsc29TF2YcYso_3syn4item6ItemFnNtNtB9_5parse5Parse5parseNtBF_6Parser5parseCsi6DBJJHK2XK_13futures_macro, symObjAddr: 0x6854, symBinAddr: 0x1445C, symSize: 0x88 }
  - { offset: 0x287A0, size: 0x8, addend: 0x0, symName: __RNvYNvYNtNtCsi6DBJJHK2XK_13futures_macro4join4JoinNtNtCsc29TF2YcYso_3syn5parse5Parse5parseNtBO_6Parser5parseB9_, symObjAddr: 0x6924, symBinAddr: 0x1452C, symSize: 0x88 }
  - { offset: 0x287E6, size: 0x8, addend: 0x0, symName: __RNvYNvYNtNtCsi6DBJJHK2XK_13futures_macro6select6SelectNtNtCsc29TF2YcYso_3syn5parse5Parse5parseNtBS_6Parser5parseB9_, symObjAddr: 0x69D0, symBinAddr: 0x145D8, symSize: 0x88 }
  - { offset: 0x289C6, size: 0x8, addend: 0x0, symName: __RNvXs0_NtCsc29TF2YcYso_3syn5dropsINtB5_6NoDropDINtNtB7_10punctuated9IterTraitNtNtB7_4expr4ExprEp4ItemRB1d_EL_ENtNtNtCsaNl6UpbT7bw_4core3ops5deref8DerefMut9deref_mutCsi6DBJJHK2XK_13futures_macro, symObjAddr: 0x3EB0, symBinAddr: 0x11AC8, symSize: 0x3C }
  - { offset: 0x28A07, size: 0x8, addend: 0x0, symName: __RNvXNtCsc29TF2YcYso_3syn11parse_quoteNtNtB4_4expr8ExprPathNtB2_10ParseQuote5parseCsi6DBJJHK2XK_13futures_macro, symObjAddr: 0x3E60, symBinAddr: 0x11A78, symSize: 0x34 }
  - { offset: 0x29175, size: 0x8, addend: 0x0, symName: __RNSINvNtNtCsiTraAjBDcu4_5alloc3vec16in_place_collect18from_iter_in_placeINtNtNtNtCsaNl6UpbT7bw_4core4iter8adapters3map3MapINtNtB1d_3zip3ZipINtNtB6_9into_iter8IntoIterNtNtCsc29TF2YcYso_3syn4expr4ExprEINtNtNtB1h_5slice4iter4IterNtCshnvkK9b4wzu_11proc_macro25IdentEENCNvNtCsi6DBJJHK2XK_13futures_macro6select12select_inner0ENtB2G_8ExprPathE5reifyB4j_, symObjAddr: 0x2F88, symBinAddr: 0x10BA4, symSize: 0x1C }
  - { offset: 0x291B0, size: 0x8, addend: 0x0, symName: __RNSINvNtNtCsiTraAjBDcu4_5alloc3vec16in_place_collect18from_iter_in_placeINtNtNtNtCsaNl6UpbT7bw_4core4iter8adapters3map3MapINtNtB1d_9enumerate9EnumerateINtNtB6_9into_iter8IntoIterNtNtCsc29TF2YcYso_3syn4expr4ExprEENCNvNtCsi6DBJJHK2XK_13futures_macro4join12bind_futures0ENtCshnvkK9b4wzu_11proc_macro25IdentE5reifyB3u_, symObjAddr: 0x2FA4, symBinAddr: 0x10BC0, symSize: 0x1C }
  - { offset: 0x29E63, size: 0x8, addend: 0x0, symName: __RNvXss_NtCsiTraAjBDcu4_5alloc6stringNtB5_6StringNtNtNtCsaNl6UpbT7bw_4core3ops5deref5Deref5derefCsi6DBJJHK2XK_13futures_macro, symObjAddr: 0x5FF4, symBinAddr: 0x13BFC, symSize: 0x24 }
  - { offset: 0x29ECB, size: 0x8, addend: 0x0, symName: __RNvNtCsiTraAjBDcu4_5alloc3fmt6formatCsi6DBJJHK2XK_13futures_macro, symObjAddr: 0x3824, symBinAddr: 0x1143C, symSize: 0xD4 }
  - { offset: 0x2A215, size: 0x8, addend: 0x0, symName: __RNvXs1_NtCshnvkK9b4wzu_11proc_macro26markerNtB5_19ProcMacroAutoTraitsNtNtCsaNl6UpbT7bw_4core5clone5Clone5cloneCsi6DBJJHK2XK_13futures_macro, symObjAddr: 0x3EEC, symBinAddr: 0x11B04, symSize: 0x10 }
  - { offset: 0x2A520, size: 0x8, addend: 0x0, symName: __RINvNtNtNtCs7yrEGia95Wz_10proc_macro6bridge6client5state3setINtNtCsaNl6UpbT7bw_4core6option6OptionNtB4_11TokenStreamENCNCINvB4_10run_clientB1y_BW_NCNCINvMs6_B4_INtB4_6ClientNtB8_11TokenStreamB2L_E7expand1NvCsi6DBJJHK2XK_13futures_macro13join_internalE00E00EB3i_, symObjAddr: 0x1A14, symBinAddr: 0xF630, symSize: 0xE8 }
  - { offset: 0x2A5F5, size: 0x8, addend: 0x0, symName: __RINvNtNtNtCs7yrEGia95Wz_10proc_macro6bridge6client5state3setINtNtCsaNl6UpbT7bw_4core6option6OptionNtB4_11TokenStreamENCNCINvB4_10run_clientB1y_BW_NCNCINvMs6_B4_INtB4_6ClientNtB8_11TokenStreamB2L_E7expand1NvCsi6DBJJHK2XK_13futures_macro15select_internalE00E00EB3i_, symObjAddr: 0x1AFC, symBinAddr: 0xF718, symSize: 0xE8 }
  - { offset: 0x2A6CA, size: 0x8, addend: 0x0, symName: __RINvNtNtNtCs7yrEGia95Wz_10proc_macro6bridge6client5state3setINtNtCsaNl6UpbT7bw_4core6option6OptionNtB4_11TokenStreamENCNCINvB4_10run_clientB1y_BW_NCNCINvMs6_B4_INtB4_6ClientNtB8_11TokenStreamB2L_E7expand1NvCsi6DBJJHK2XK_13futures_macro17try_join_internalE00E00EB3i_, symObjAddr: 0x1BE4, symBinAddr: 0xF800, symSize: 0xE8 }
  - { offset: 0x2A79F, size: 0x8, addend: 0x0, symName: __RINvNtNtNtCs7yrEGia95Wz_10proc_macro6bridge6client5state3setINtNtCsaNl6UpbT7bw_4core6option6OptionNtB4_11TokenStreamENCNCINvB4_10run_clientB1y_BW_NCNCINvMs6_B4_INtB4_6ClientNtB8_11TokenStreamB2L_E7expand1NvCsi6DBJJHK2XK_13futures_macro22select_biased_internalE00E00EB3i_, symObjAddr: 0x1CCC, symBinAddr: 0xF8E8, symSize: 0xE8 }
  - { offset: 0x2A874, size: 0x8, addend: 0x0, symName: __RINvNtNtNtCs7yrEGia95Wz_10proc_macro6bridge6client5state3setINtNtCsaNl6UpbT7bw_4core6option6OptionNtB4_11TokenStreamENCNCINvB4_10run_clientB1y_BW_NCNCINvMs6_B4_INtB4_6ClientNtB8_11TokenStreamB2L_E7expand1NvCsi6DBJJHK2XK_13futures_macro22stream_select_internalE00E00EB3i_, symObjAddr: 0x1DB4, symBinAddr: 0xF9D0, symSize: 0xE8 }
  - { offset: 0x2A949, size: 0x8, addend: 0x0, symName: __RINvNtNtNtCs7yrEGia95Wz_10proc_macro6bridge6client5state3setINtNtCsaNl6UpbT7bw_4core6option6OptionNtB4_11TokenStreamENCNCINvB4_10run_clientTB1y_B1y_EBW_NCNCINvMs7_B4_INtB4_6ClientTNtB8_11TokenStreamB2S_EB2S_E7expand2NvCsi6DBJJHK2XK_13futures_macro13test_internalE00E00EB3u_, symObjAddr: 0x1E9C, symBinAddr: 0xFAB8, symSize: 0xEC }
  - { offset: 0x2AA29, size: 0x8, addend: 0x0, symName: __RNCNkNvNtNtNtCs7yrEGia95Wz_10proc_macro6bridge6client5state12BRIDGE_STATE0s_0Csi6DBJJHK2XK_13futures_macro, symObjAddr: 0x2EA8, symBinAddr: 0x10AC4, symSize: 0x30 }
  - { offset: 0x2B0F6, size: 0x8, addend: 0x0, symName: __RNvXs5_NtNtCs7yrEGia95Wz_10proc_macro6bridge6bufferNtB5_6BufferNtNtNtCsaNl6UpbT7bw_4core3ops4drop4Drop4dropCsi6DBJJHK2XK_13futures_macro, symObjAddr: 0x4484, symBinAddr: 0x1209C, symSize: 0x8C }
  - { offset: 0x2B32C, size: 0x8, addend: 0x0, symName: __RNvXsV_NtCs7yrEGia95Wz_10proc_macro6bridgeINtNtCsaNl6UpbT7bw_4core6result6ResultINtNtBJ_6option6OptionNtNtB5_6client11TokenStreamEuEINtNtB5_3rpc6EncodeuE6encodeCsi6DBJJHK2XK_13futures_macro, symObjAddr: 0x45E8, symBinAddr: 0x12200, symSize: 0x110 }
  - { offset: 0x2B3F0, size: 0x8, addend: 0x0, symName: __RNvXsV_NtCs7yrEGia95Wz_10proc_macro6bridgeINtNtCsaNl6UpbT7bw_4core6result6ResultuNtNtB5_3rpc12PanicMessageEINtB1j_6EncodeuE6encodeCsi6DBJJHK2XK_13futures_macro, symObjAddr: 0x46F8, symBinAddr: 0x12310, symSize: 0x12C }
  - { offset: 0x2C1F0, size: 0x8, addend: 0x0, symName: __RNvNvMs1_NtNtCsaNl6UpbT7bw_4core3ptr8non_nullINtB7_7NonNullpE13new_unchecked18precondition_checkCsi6DBJJHK2XK_13futures_macro, symObjAddr: 0x38F8, symBinAddr: 0x11510, symSize: 0xA4 }
  - { offset: 0x2CABF, size: 0x8, addend: 0x0, symName: __RINvNtCsaNl6UpbT7bw_4core3ptr13drop_in_placeINtNtB4_4cell10UnsafeCellNtNtNtCs7yrEGia95Wz_10proc_macro6bridge6client6BridgeEECsi6DBJJHK2XK_13futures_macro, symObjAddr: 0x7E4, symBinAddr: 0xE400, symSize: 0x24 }
  - { offset: 0x2CAEE, size: 0x8, addend: 0x0, symName: __RINvNtCsaNl6UpbT7bw_4core3ptr13drop_in_placeINtNtB4_4cell7RefCellNtNtNtCs7yrEGia95Wz_10proc_macro6bridge6client6BridgeEECsi6DBJJHK2XK_13futures_macro, symObjAddr: 0x808, symBinAddr: 0xE424, symSize: 0x24 }
  - { offset: 0x2CB1D, size: 0x8, addend: 0x0, symName: __RINvNtCsaNl6UpbT7bw_4core3ptr13drop_in_placeINtNtB4_6option6OptionTNtNtCsc29TF2YcYso_3syn4expr4ExprRNtCshnvkK9b4wzu_11proc_macro25IdentEEECsi6DBJJHK2XK_13futures_macro, symObjAddr: 0x82C, symBinAddr: 0xE448, symSize: 0x44 }
  - { offset: 0x2CB4C, size: 0x8, addend: 0x0, symName: __RINvNtCsaNl6UpbT7bw_4core3ptr13drop_in_placeINtNtB4_6result6ResultINtNtNtCsiTraAjBDcu4_5alloc3vec13in_place_drop11InPlaceDropNtCshnvkK9b4wzu_11proc_macro25IdentEzEECsi6DBJJHK2XK_13futures_macro, symObjAddr: 0x870, symBinAddr: 0xE48C, symSize: 0x30 }
  - { offset: 0x2CB7B, size: 0x8, addend: 0x0, symName: __RINvNtCsaNl6UpbT7bw_4core3ptr13drop_in_placeINtNtCs4EAaWzSXu1l_5quote9___private9RepInterpNtCshnvkK9b4wzu_11proc_macro211TokenStreamEECsi6DBJJHK2XK_13futures_macro, symObjAddr: 0x8A0, symBinAddr: 0xE4BC, symSize: 0x24 }
  - { offset: 0x2CBAA, size: 0x8, addend: 0x0, symName: __RINvNtCsaNl6UpbT7bw_4core3ptr13drop_in_placeINtNtCsc29TF2YcYso_3syn10punctuated4IterNtNtBL_4expr4ExprEECsi6DBJJHK2XK_13futures_macro, symObjAddr: 0x8C4, symBinAddr: 0xE4E0, symSize: 0x24 }
  - { offset: 0x2CBD9, size: 0x8, addend: 0x0, symName: __RINvNtCsaNl6UpbT7bw_4core3ptr13drop_in_placeINtNtCsiTraAjBDcu4_5alloc3vec3VecNtCshnvkK9b4wzu_11proc_macro211TokenStreamEECsi6DBJJHK2XK_13futures_macro, symObjAddr: 0x8E8, symBinAddr: 0xE504, symSize: 0x5C }
  - { offset: 0x2CC08, size: 0x8, addend: 0x0, symName: __RINvNtCsaNl6UpbT7bw_4core3ptr13drop_in_placeINtNtCsiTraAjBDcu4_5alloc3vec3VecNtCshnvkK9b4wzu_11proc_macro25IdentEECsi6DBJJHK2XK_13futures_macro, symObjAddr: 0x944, symBinAddr: 0xE560, symSize: 0x5C }
  - { offset: 0x2CC37, size: 0x8, addend: 0x0, symName: __RINvNtCsaNl6UpbT7bw_4core3ptr13drop_in_placeINtNtCsiTraAjBDcu4_5alloc3vec3VecNtNtCsc29TF2YcYso_3syn4expr4ExprEECsi6DBJJHK2XK_13futures_macro, symObjAddr: 0x9A0, symBinAddr: 0xE5BC, symSize: 0x5C }
  - { offset: 0x2CC66, size: 0x8, addend: 0x0, symName: __RINvNtCsaNl6UpbT7bw_4core3ptr13drop_in_placeINtNtCsiTraAjBDcu4_5alloc3vec3VecNtNtCsc29TF2YcYso_3syn4expr5IndexEECsi6DBJJHK2XK_13futures_macro, symObjAddr: 0x9FC, symBinAddr: 0xE618, symSize: 0x5C }
  - { offset: 0x2CC95, size: 0x8, addend: 0x0, symName: __RINvNtCsaNl6UpbT7bw_4core3ptr13drop_in_placeINtNtCsiTraAjBDcu4_5alloc3vec3VecNtNtCsc29TF2YcYso_3syn4expr8ExprPathEECsi6DBJJHK2XK_13futures_macro, symObjAddr: 0xA58, symBinAddr: 0xE674, symSize: 0x5C }
  - { offset: 0x2CCC4, size: 0x8, addend: 0x0, symName: __RINvNtCsaNl6UpbT7bw_4core3ptr13drop_in_placeINtNtCsiTraAjBDcu4_5alloc3vec3VecTNtNtCsc29TF2YcYso_3syn3pat3PatNtNtB1i_4expr4ExprEEECsi6DBJJHK2XK_13futures_macro, symObjAddr: 0xAB4, symBinAddr: 0xE6D0, symSize: 0x5C }
  - { offset: 0x2CCF3, size: 0x8, addend: 0x0, symName: __RINvNtCsaNl6UpbT7bw_4core3ptr13drop_in_placeINtNtCsiTraAjBDcu4_5alloc5boxed3BoxDNtNtB4_5error5ErrorNtNtB4_6marker4SyncNtB1B_4SendEL_EECsi6DBJJHK2XK_13futures_macro, symObjAddr: 0xB10, symBinAddr: 0xE72C, symSize: 0x80 }
  - { offset: 0x2CD22, size: 0x8, addend: 0x0, symName: __RINvNtCsaNl6UpbT7bw_4core3ptr13drop_in_placeINtNtCsiTraAjBDcu4_5alloc5boxed3BoxINtNtCsc29TF2YcYso_3syn5drops6NoDropDINtNtB1k_10punctuated9IterTraitNtNtB1k_4expr4ExprEp4ItemRB2l_EL_EEECsi6DBJJHK2XK_13futures_macro, symObjAddr: 0xB90, symBinAddr: 0xE7AC, symSize: 0x2C }
  - { offset: 0x2CD51, size: 0x8, addend: 0x0, symName: __RINvNtCsaNl6UpbT7bw_4core3ptr13drop_in_placeINtNtCsiTraAjBDcu4_5alloc5boxed3BoxNtNtNtCsht3nMU9UgFu_3std2io5error6CustomEECsi6DBJJHK2XK_13futures_macro, symObjAddr: 0xBBC, symBinAddr: 0xE7D8, symSize: 0x60 }
  - { offset: 0x2CD80, size: 0x8, addend: 0x0, symName: __RINvNtCsaNl6UpbT7bw_4core3ptr13drop_in_placeINtNtCsiTraAjBDcu4_5alloc7raw_vec6RawVecNtCshnvkK9b4wzu_11proc_macro211TokenStreamEECsi6DBJJHK2XK_13futures_macro, symObjAddr: 0xC1C, symBinAddr: 0xE838, symSize: 0x24 }
  - { offset: 0x2CDAF, size: 0x8, addend: 0x0, symName: __RINvNtCsaNl6UpbT7bw_4core3ptr13drop_in_placeINtNtCsiTraAjBDcu4_5alloc7raw_vec6RawVecNtCshnvkK9b4wzu_11proc_macro25IdentEECsi6DBJJHK2XK_13futures_macro, symObjAddr: 0xC40, symBinAddr: 0xE85C, symSize: 0x24 }
  - { offset: 0x2CDDE, size: 0x8, addend: 0x0, symName: __RINvNtCsaNl6UpbT7bw_4core3ptr13drop_in_placeINtNtCsiTraAjBDcu4_5alloc7raw_vec6RawVecNtNtCsc29TF2YcYso_3syn4expr4ExprEECsi6DBJJHK2XK_13futures_macro, symObjAddr: 0xC64, symBinAddr: 0xE880, symSize: 0x24 }
  - { offset: 0x2CE0D, size: 0x8, addend: 0x0, symName: __RINvNtCsaNl6UpbT7bw_4core3ptr13drop_in_placeINtNtCsiTraAjBDcu4_5alloc7raw_vec6RawVecNtNtCsc29TF2YcYso_3syn4expr5IndexEECsi6DBJJHK2XK_13futures_macro, symObjAddr: 0xC88, symBinAddr: 0xE8A4, symSize: 0x24 }
  - { offset: 0x2CE3C, size: 0x8, addend: 0x0, symName: __RINvNtCsaNl6UpbT7bw_4core3ptr13drop_in_placeINtNtCsiTraAjBDcu4_5alloc7raw_vec6RawVecNtNtCsc29TF2YcYso_3syn4expr8ExprPathEECsi6DBJJHK2XK_13futures_macro, symObjAddr: 0xCAC, symBinAddr: 0xE8C8, symSize: 0x24 }
  - { offset: 0x2CE6B, size: 0x8, addend: 0x0, symName: __RINvNtCsaNl6UpbT7bw_4core3ptr13drop_in_placeINtNtCsiTraAjBDcu4_5alloc7raw_vec6RawVecTNtNtCsc29TF2YcYso_3syn3pat3PatNtNtB1p_4expr4ExprEEECsi6DBJJHK2XK_13futures_macro, symObjAddr: 0xCD0, symBinAddr: 0xE8EC, symSize: 0x24 }
  - { offset: 0x2CE9A, size: 0x8, addend: 0x0, symName: __RINvNtCsaNl6UpbT7bw_4core3ptr13drop_in_placeINtNtNtCsht3nMU9UgFu_3std2io5error9ErrorDataINtNtCsiTraAjBDcu4_5alloc5boxed3BoxNtBJ_6CustomEEECsi6DBJJHK2XK_13futures_macro, symObjAddr: 0xCF4, symBinAddr: 0xE910, symSize: 0x48 }
  - { offset: 0x2CEC9, size: 0x8, addend: 0x0, symName: __RINvNtCsaNl6UpbT7bw_4core3ptr13drop_in_placeINtNtNtCsiTraAjBDcu4_5alloc3vec13in_place_drop11InPlaceDropNtCshnvkK9b4wzu_11proc_macro25IdentEECsi6DBJJHK2XK_13futures_macro, symObjAddr: 0xD3C, symBinAddr: 0xE958, symSize: 0x24 }
  - { offset: 0x2CEF8, size: 0x8, addend: 0x0, symName: __RINvNtCsaNl6UpbT7bw_4core3ptr13drop_in_placeINtNtNtCsiTraAjBDcu4_5alloc3vec13in_place_drop11InPlaceDropNtNtCsc29TF2YcYso_3syn4expr8ExprPathEECsi6DBJJHK2XK_13futures_macro, symObjAddr: 0xD60, symBinAddr: 0xE97C, symSize: 0x24 }
  - { offset: 0x2CF27, size: 0x8, addend: 0x0, symName: __RINvNtCsaNl6UpbT7bw_4core3ptr13drop_in_placeINtNtNtCsiTraAjBDcu4_5alloc3vec13in_place_drop24InPlaceDstDataSrcBufDropNtNtCsc29TF2YcYso_3syn4expr4ExprNtB1S_8ExprPathEECsi6DBJJHK2XK_13futures_macro, symObjAddr: 0xD84, symBinAddr: 0xE9A0, symSize: 0x24 }
  - { offset: 0x2CF56, size: 0x8, addend: 0x0, symName: __RINvNtCsaNl6UpbT7bw_4core3ptr13drop_in_placeINtNtNtCsiTraAjBDcu4_5alloc3vec13in_place_drop24InPlaceDstDataSrcBufDropNtNtCsc29TF2YcYso_3syn4expr4ExprNtCshnvkK9b4wzu_11proc_macro25IdentEECsi6DBJJHK2XK_13futures_macro, symObjAddr: 0xDA8, symBinAddr: 0xE9C4, symSize: 0x24 }
  - { offset: 0x2CF85, size: 0x8, addend: 0x0, symName: __RINvNtCsaNl6UpbT7bw_4core3ptr13drop_in_placeINtNtNtCsiTraAjBDcu4_5alloc3vec9into_iter8IntoIterNtNtCsc29TF2YcYso_3syn4expr4ExprEECsi6DBJJHK2XK_13futures_macro, symObjAddr: 0xDCC, symBinAddr: 0xE9E8, symSize: 0x24 }
  - { offset: 0x2CFB4, size: 0x8, addend: 0x0, symName: __RINvNtCsaNl6UpbT7bw_4core3ptr13drop_in_placeINtNtNtCsiTraAjBDcu4_5alloc3vec9into_iter8IntoIterTNtNtCsc29TF2YcYso_3syn3pat3PatNtNtB1z_4expr4ExprEEECsi6DBJJHK2XK_13futures_macro, symObjAddr: 0xDF0, symBinAddr: 0xEA0C, symSize: 0x24 }
  - { offset: 0x2CFE3, size: 0x8, addend: 0x0, symName: __RINvNtCsaNl6UpbT7bw_4core3ptr13drop_in_placeINtNtNtNtB4_4iter8adapters3map3MapINtNtBL_3zip3ZipINtNtNtCsiTraAjBDcu4_5alloc3vec9into_iter8IntoIterNtNtCsc29TF2YcYso_3syn4expr4ExprEINtNtNtB4_5slice4iter4IterNtCshnvkK9b4wzu_11proc_macro25IdentEENCNvNtCsi6DBJJHK2XK_13futures_macro6select12select_inner0EEB3W_, symObjAddr: 0xE14, symBinAddr: 0xEA30, symSize: 0x24 }
  - { offset: 0x2D012, size: 0x8, addend: 0x0, symName: __RINvNtCsaNl6UpbT7bw_4core3ptr13drop_in_placeINtNtNtNtB4_4iter8adapters3map3MapINtNtBL_3zip3ZipINtNtNtCsiTraAjBDcu4_5alloc3vec9into_iter8IntoIterTNtNtCsc29TF2YcYso_3syn3pat3PatNtNtB2n_4expr4ExprEEINtNtNtB4_5slice4iter4IterNtCshnvkK9b4wzu_11proc_macro25IdentEENCNvNtCsi6DBJJHK2XK_13futures_macro6select12select_inners0_0EEB4e_, symObjAddr: 0xE38, symBinAddr: 0xEA54, symSize: 0x24 }
  - { offset: 0x2D041, size: 0x8, addend: 0x0, symName: __RINvNtCsaNl6UpbT7bw_4core3ptr13drop_in_placeINtNtNtNtB4_4iter8adapters3map3MapINtNtBL_9enumerate9EnumerateINtNtNtCsiTraAjBDcu4_5alloc3vec9into_iter8IntoIterNtNtCsc29TF2YcYso_3syn4expr4ExprEENCNvNtCsi6DBJJHK2XK_13futures_macro4join12bind_futures0EEB38_, symObjAddr: 0xE5C, symBinAddr: 0xEA78, symSize: 0x24 }
  - { offset: 0x2D070, size: 0x8, addend: 0x0, symName: __RINvNtCsaNl6UpbT7bw_4core3ptr13drop_in_placeINtNtNtNtB4_4iter8adapters3map3MapINtNtCsc29TF2YcYso_3syn10punctuated4IterNtNtB1j_4expr4ExprENCNvNtCsi6DBJJHK2XK_13futures_macro13stream_select13stream_selects1_0EEB2h_, symObjAddr: 0xE80, symBinAddr: 0xEA9C, symSize: 0x24 }
  - { offset: 0x2D09F, size: 0x8, addend: 0x0, symName: __RINvNtCsaNl6UpbT7bw_4core3ptr13drop_in_placeINtNtNtNtB4_4iter8adapters3zip3ZipINtNtNtCsiTraAjBDcu4_5alloc3vec9into_iter8IntoIterNtNtCsc29TF2YcYso_3syn4expr4ExprEINtNtNtB4_5slice4iter4IterNtCshnvkK9b4wzu_11proc_macro25IdentEEECsi6DBJJHK2XK_13futures_macro, symObjAddr: 0xEA4, symBinAddr: 0xEAC0, symSize: 0x24 }
  - { offset: 0x2D0CE, size: 0x8, addend: 0x0, symName: __RINvNtCsaNl6UpbT7bw_4core3ptr13drop_in_placeINtNtNtNtB4_4iter8adapters3zip3ZipINtNtNtCsiTraAjBDcu4_5alloc3vec9into_iter8IntoIterTNtNtCsc29TF2YcYso_3syn3pat3PatNtNtB27_4expr4ExprEEINtNtNtB4_5slice4iter4IterNtCshnvkK9b4wzu_11proc_macro25IdentEEECsi6DBJJHK2XK_13futures_macro, symObjAddr: 0xEC8, symBinAddr: 0xEAE4, symSize: 0x24 }
  - { offset: 0x2D0FD, size: 0x8, addend: 0x0, symName: __RINvNtCsaNl6UpbT7bw_4core3ptr13drop_in_placeINtNtNtNtB4_4iter8adapters9enumerate9EnumerateINtNtNtCsiTraAjBDcu4_5alloc3vec9into_iter8IntoIterNtNtCsc29TF2YcYso_3syn4expr4ExprEEECsi6DBJJHK2XK_13futures_macro, symObjAddr: 0xEEC, symBinAddr: 0xEB08, symSize: 0x24 }
  - { offset: 0x2D12C, size: 0x8, addend: 0x0, symName: __RINvNtCsaNl6UpbT7bw_4core3ptr13drop_in_placeINtNvXsd_NtNtCsiTraAjBDcu4_5alloc3vec9into_iterINtBP_8IntoIterppENtNtNtB4_3ops4drop4Drop4drop9DropGuardNtNtCsc29TF2YcYso_3syn4expr4ExprNtNtBT_5alloc6GlobalEECsi6DBJJHK2XK_13futures_macro, symObjAddr: 0xF10, symBinAddr: 0xEB2C, symSize: 0x24 }
  - { offset: 0x2D15B, size: 0x8, addend: 0x0, symName: __RINvNtCsaNl6UpbT7bw_4core3ptr13drop_in_placeINtNvXsd_NtNtCsiTraAjBDcu4_5alloc3vec9into_iterINtBP_8IntoIterppENtNtNtB4_3ops4drop4Drop4drop9DropGuardTNtNtCsc29TF2YcYso_3syn3pat3PatNtNtB2q_4expr4ExprENtNtBT_5alloc6GlobalEECsi6DBJJHK2XK_13futures_macro, symObjAddr: 0xF34, symBinAddr: 0xEB50, symSize: 0x24 }
  - { offset: 0x2D18A, size: 0x8, addend: 0x0, symName: __RINvNtCsaNl6UpbT7bw_4core3ptr13drop_in_placeNCINvMsi_NtCsiTraAjBDcu4_5alloc3vecINtBP_3VecNtCshnvkK9b4wzu_11proc_macro25IdentE14extend_trustedINtNtNtNtB4_4iter8adapters3map3MapINtNtNtB4_3ops5range5RangejENCNvNtCsi6DBJJHK2XK_13futures_macro13stream_select13stream_select0EE0EB3l_, symObjAddr: 0xF58, symBinAddr: 0xEB74, symSize: 0x24 }
  - { offset: 0x2D1B9, size: 0x8, addend: 0x0, symName: __RINvNtCsaNl6UpbT7bw_4core3ptr13drop_in_placeNCINvMsi_NtCsiTraAjBDcu4_5alloc3vecINtBP_3VecNtCshnvkK9b4wzu_11proc_macro25IdentE14extend_trustedINtNtNtNtB4_4iter8adapters3map3MapINtNtNtB4_3ops5range5RangejENCNvNtCsi6DBJJHK2XK_13futures_macro13stream_select13stream_selects0_0EE0EB3l_, symObjAddr: 0xF7C, symBinAddr: 0xEB98, symSize: 0x24 }
  - { offset: 0x2D1E8, size: 0x8, addend: 0x0, symName: __RINvNtCsaNl6UpbT7bw_4core3ptr13drop_in_placeNCINvMsi_NtCsiTraAjBDcu4_5alloc3vecINtBP_3VecNtCshnvkK9b4wzu_11proc_macro25IdentE14extend_trustedINtNtNtNtB4_4iter8adapters3map3MapINtNtNtB4_3ops5range5RangejENCNvNtCsi6DBJJHK2XK_13futures_macro13stream_select13stream_selects_0EE0EB3l_, symObjAddr: 0xFA0, symBinAddr: 0xEBBC, symSize: 0x24 }
  - { offset: 0x2D217, size: 0x8, addend: 0x0, symName: __RINvNtCsaNl6UpbT7bw_4core3ptr13drop_in_placeNCINvMsi_NtCsiTraAjBDcu4_5alloc3vecINtBP_3VecNtCshnvkK9b4wzu_11proc_macro25IdentE14extend_trustedINtNtNtNtB4_4iter8adapters3map3MapINtNtNtB4_3ops5range5RangejENCNvNtCsi6DBJJHK2XK_13futures_macro6select19declare_result_enum0EE0EB3l_, symObjAddr: 0xFC4, symBinAddr: 0xEBE0, symSize: 0x24 }
  - { offset: 0x2D246, size: 0x8, addend: 0x0, symName: __RINvNtCsaNl6UpbT7bw_4core3ptr13drop_in_placeNCINvMsi_NtCsiTraAjBDcu4_5alloc3vecINtBP_3VecNtNtCsc29TF2YcYso_3syn4expr5IndexE14extend_trustedINtNtNtNtB4_4iter8adapters3map3MapINtNtNtB4_3ops5range5RangejENvYB1p_INtNtB4_7convert4FromjE4fromEE0ECsi6DBJJHK2XK_13futures_macro, symObjAddr: 0xFE8, symBinAddr: 0xEC04, symSize: 0x24 }
  - { offset: 0x2D275, size: 0x8, addend: 0x0, symName: __RINvNtCsaNl6UpbT7bw_4core3ptr13drop_in_placeNCINvNtNtNtB4_4iter8adapters3map8map_foldjNtCshnvkK9b4wzu_11proc_macro25IdentuNCNvNtCsi6DBJJHK2XK_13futures_macro13stream_select13stream_select0NCINvNvNtNtNtBP_6traits8iterator8Iterator8for_each4callB1m_NCINvMsi_NtCsiTraAjBDcu4_5alloc3vecINtB46_3VecB1m_E14extend_trustedINtBL_3MapINtNtNtB4_3ops5range5RangejEB1W_EE0E0E0EB22_, symObjAddr: 0x100C, symBinAddr: 0xEC28, symSize: 0x24 }
  - { offset: 0x2D2A4, size: 0x8, addend: 0x0, symName: __RINvNtCsaNl6UpbT7bw_4core3ptr13drop_in_placeNCINvNtNtNtB4_4iter8adapters3map8map_foldjNtCshnvkK9b4wzu_11proc_macro25IdentuNCNvNtCsi6DBJJHK2XK_13futures_macro13stream_select13stream_selects0_0NCINvNvNtNtNtBP_6traits8iterator8Iterator8for_each4callB1m_NCINvMsi_NtCsiTraAjBDcu4_5alloc3vecINtB49_3VecB1m_E14extend_trustedINtBL_3MapINtNtNtB4_3ops5range5RangejEB1W_EE0E0E0EB22_, symObjAddr: 0x1030, symBinAddr: 0xEC4C, symSize: 0x24 }
  - { offset: 0x2D2D3, size: 0x8, addend: 0x0, symName: __RINvNtCsaNl6UpbT7bw_4core3ptr13drop_in_placeNCINvNtNtNtB4_4iter8adapters3map8map_foldjNtCshnvkK9b4wzu_11proc_macro25IdentuNCNvNtCsi6DBJJHK2XK_13futures_macro13stream_select13stream_selects_0NCINvNvNtNtNtBP_6traits8iterator8Iterator8for_each4callB1m_NCINvMsi_NtCsiTraAjBDcu4_5alloc3vecINtB48_3VecB1m_E14extend_trustedINtBL_3MapINtNtNtB4_3ops5range5RangejEB1W_EE0E0E0EB22_, symObjAddr: 0x1054, symBinAddr: 0xEC70, symSize: 0x24 }
  - { offset: 0x2D302, size: 0x8, addend: 0x0, symName: __RINvNtCsaNl6UpbT7bw_4core3ptr13drop_in_placeNCINvNtNtNtB4_4iter8adapters3map8map_foldjNtCshnvkK9b4wzu_11proc_macro25IdentuNCNvNtCsi6DBJJHK2XK_13futures_macro6select19declare_result_enum0NCINvNvNtNtNtBP_6traits8iterator8Iterator8for_each4callB1m_NCINvMsi_NtCsiTraAjBDcu4_5alloc3vecINtB44_3VecB1m_E14extend_trustedINtBL_3MapINtNtNtB4_3ops5range5RangejEB1W_EE0E0E0EB22_, symObjAddr: 0x1078, symBinAddr: 0xEC94, symSize: 0x24 }
  - { offset: 0x2D331, size: 0x8, addend: 0x0, symName: __RINvNtCsaNl6UpbT7bw_4core3ptr13drop_in_placeNCINvNtNtNtB4_4iter8adapters3map8map_foldjNtNtCsc29TF2YcYso_3syn4expr5IndexuNvYB1m_INtNtB4_7convert4FromjE4fromNCINvNvNtNtNtBP_6traits8iterator8Iterator8for_each4callB1m_NCINvMsi_NtCsiTraAjBDcu4_5alloc3vecINtB3z_3VecB1m_E14extend_trustedINtBL_3MapINtNtNtB4_3ops5range5RangejEB1U_EE0E0E0ECsi6DBJJHK2XK_13futures_macro, symObjAddr: 0x109C, symBinAddr: 0xECB8, symSize: 0x24 }
  - { offset: 0x2D360, size: 0x8, addend: 0x0, symName: __RINvNtCsaNl6UpbT7bw_4core3ptr13drop_in_placeNCINvNvNtNtNtNtB4_4iter6traits8iterator8Iterator8for_each4callNtCshnvkK9b4wzu_11proc_macro25IdentNCINvMsi_NtCsiTraAjBDcu4_5alloc3vecINtB2o_3VecB1G_E14extend_trustedINtNtNtBT_8adapters3map3MapINtNtNtB4_3ops5range5RangejENCNvNtCsi6DBJJHK2XK_13futures_macro13stream_select13stream_select0EE0E0EB4j_, symObjAddr: 0x10C0, symBinAddr: 0xECDC, symSize: 0x24 }
  - { offset: 0x2D38F, size: 0x8, addend: 0x0, symName: __RINvNtCsaNl6UpbT7bw_4core3ptr13drop_in_placeNCINvNvNtNtNtNtB4_4iter6traits8iterator8Iterator8for_each4callNtCshnvkK9b4wzu_11proc_macro25IdentNCINvMsi_NtCsiTraAjBDcu4_5alloc3vecINtB2o_3VecB1G_E14extend_trustedINtNtNtBT_8adapters3map3MapINtNtNtB4_3ops5range5RangejENCNvNtCsi6DBJJHK2XK_13futures_macro13stream_select13stream_selects0_0EE0E0EB4j_, symObjAddr: 0x10E4, symBinAddr: 0xED00, symSize: 0x24 }
  - { offset: 0x2D3BE, size: 0x8, addend: 0x0, symName: __RINvNtCsaNl6UpbT7bw_4core3ptr13drop_in_placeNCINvNvNtNtNtNtB4_4iter6traits8iterator8Iterator8for_each4callNtCshnvkK9b4wzu_11proc_macro25IdentNCINvMsi_NtCsiTraAjBDcu4_5alloc3vecINtB2o_3VecB1G_E14extend_trustedINtNtNtBT_8adapters3map3MapINtNtNtB4_3ops5range5RangejENCNvNtCsi6DBJJHK2XK_13futures_macro13stream_select13stream_selects_0EE0E0EB4j_, symObjAddr: 0x1108, symBinAddr: 0xED24, symSize: 0x24 }
  - { offset: 0x2D3ED, size: 0x8, addend: 0x0, symName: __RINvNtCsaNl6UpbT7bw_4core3ptr13drop_in_placeNCINvNvNtNtNtNtB4_4iter6traits8iterator8Iterator8for_each4callNtCshnvkK9b4wzu_11proc_macro25IdentNCINvMsi_NtCsiTraAjBDcu4_5alloc3vecINtB2o_3VecB1G_E14extend_trustedINtNtNtBT_8adapters3map3MapINtNtNtB4_3ops5range5RangejENCNvNtCsi6DBJJHK2XK_13futures_macro6select19declare_result_enum0EE0E0EB4j_, symObjAddr: 0x112C, symBinAddr: 0xED48, symSize: 0x24 }
  - { offset: 0x2D41C, size: 0x8, addend: 0x0, symName: __RINvNtCsaNl6UpbT7bw_4core3ptr13drop_in_placeNCINvNvNtNtNtNtB4_4iter6traits8iterator8Iterator8for_each4callNtNtCsc29TF2YcYso_3syn4expr5IndexNCINvMsi_NtCsiTraAjBDcu4_5alloc3vecINtB2m_3VecB1G_E14extend_trustedINtNtNtBT_8adapters3map3MapINtNtNtB4_3ops5range5RangejENvYB1G_INtNtB4_7convert4FromjE4fromEE0E0ECsi6DBJJHK2XK_13futures_macro, symObjAddr: 0x1150, symBinAddr: 0xED6C, symSize: 0x24 }
  - { offset: 0x2D44B, size: 0x8, addend: 0x0, symName: __RINvNtCsaNl6UpbT7bw_4core3ptr13drop_in_placeNCNCINvNtNtCs7yrEGia95Wz_10proc_macro6bridge6client10run_clientNtBN_11TokenStreamINtNtB4_6option6OptionB1H_ENCNCINvMs6_BN_INtBN_6ClientNtBR_11TokenStreamB2R_E7expand1NvCsi6DBJJHK2XK_13futures_macro13join_internalE00E00EB3o_, symObjAddr: 0x1174, symBinAddr: 0xED90, symSize: 0x24 }
  - { offset: 0x2D47A, size: 0x8, addend: 0x0, symName: __RINvNtCsaNl6UpbT7bw_4core3ptr13drop_in_placeNCNCINvNtNtCs7yrEGia95Wz_10proc_macro6bridge6client10run_clientNtBN_11TokenStreamINtNtB4_6option6OptionB1H_ENCNCINvMs6_BN_INtBN_6ClientNtBR_11TokenStreamB2R_E7expand1NvCsi6DBJJHK2XK_13futures_macro15select_internalE00E00EB3o_, symObjAddr: 0x1198, symBinAddr: 0xEDB4, symSize: 0x24 }
  - { offset: 0x2D4A9, size: 0x8, addend: 0x0, symName: __RINvNtCsaNl6UpbT7bw_4core3ptr13drop_in_placeNCNCINvNtNtCs7yrEGia95Wz_10proc_macro6bridge6client10run_clientNtBN_11TokenStreamINtNtB4_6option6OptionB1H_ENCNCINvMs6_BN_INtBN_6ClientNtBR_11TokenStreamB2R_E7expand1NvCsi6DBJJHK2XK_13futures_macro17try_join_internalE00E00EB3o_, symObjAddr: 0x11BC, symBinAddr: 0xEDD8, symSize: 0x24 }
  - { offset: 0x2D4D8, size: 0x8, addend: 0x0, symName: __RINvNtCsaNl6UpbT7bw_4core3ptr13drop_in_placeNCNCINvNtNtCs7yrEGia95Wz_10proc_macro6bridge6client10run_clientNtBN_11TokenStreamINtNtB4_6option6OptionB1H_ENCNCINvMs6_BN_INtBN_6ClientNtBR_11TokenStreamB2R_E7expand1NvCsi6DBJJHK2XK_13futures_macro22select_biased_internalE00E00EB3o_, symObjAddr: 0x11E0, symBinAddr: 0xEDFC, symSize: 0x24 }
  - { offset: 0x2D507, size: 0x8, addend: 0x0, symName: __RINvNtCsaNl6UpbT7bw_4core3ptr13drop_in_placeNCNCINvNtNtCs7yrEGia95Wz_10proc_macro6bridge6client10run_clientNtBN_11TokenStreamINtNtB4_6option6OptionB1H_ENCNCINvMs6_BN_INtBN_6ClientNtBR_11TokenStreamB2R_E7expand1NvCsi6DBJJHK2XK_13futures_macro22stream_select_internalE00E00EB3o_, symObjAddr: 0x1204, symBinAddr: 0xEE20, symSize: 0x24 }
  - { offset: 0x2D536, size: 0x8, addend: 0x0, symName: __RINvNtCsaNl6UpbT7bw_4core3ptr13drop_in_placeNCNCINvNtNtCs7yrEGia95Wz_10proc_macro6bridge6client10run_clientTNtBN_11TokenStreamB1I_EINtNtB4_6option6OptionB1I_ENCNCINvMs7_BN_INtBN_6ClientTNtBR_11TokenStreamB2Y_EB2Y_E7expand2NvCsi6DBJJHK2XK_13futures_macro13test_internalE00E00EB3A_, symObjAddr: 0x1228, symBinAddr: 0xEE44, symSize: 0x24 }
  - { offset: 0x2D565, size: 0x8, addend: 0x0, symName: __RINvNtCsaNl6UpbT7bw_4core3ptr13drop_in_placeNtNtCsi6DBJJHK2XK_13futures_macro4join4JoinEBK_, symObjAddr: 0x124C, symBinAddr: 0xEE68, symSize: 0x24 }
  - { offset: 0x2D594, size: 0x8, addend: 0x0, symName: __RINvNtCsaNl6UpbT7bw_4core3ptr13drop_in_placeNtNtCsi6DBJJHK2XK_13futures_macro6select6SelectEBK_, symObjAddr: 0x1270, symBinAddr: 0xEE8C, symSize: 0xC0 }
  - { offset: 0x2D5C3, size: 0x8, addend: 0x0, symName: __RINvNtCsaNl6UpbT7bw_4core3ptr13drop_in_placeNtNtCsi6DBJJHK2XK_13futures_macro6select8CaseKindEBK_, symObjAddr: 0x1330, symBinAddr: 0xEF4C, symSize: 0x8C }
  - { offset: 0x2D5F2, size: 0x8, addend: 0x0, symName: __RINvNtCsaNl6UpbT7bw_4core3ptr13drop_in_placeNtNtNtCs7yrEGia95Wz_10proc_macro6bridge3rpc12PanicMessageECsi6DBJJHK2XK_13futures_macro, symObjAddr: 0x13BC, symBinAddr: 0xEFD8, symSize: 0x50 }
  - { offset: 0x2D621, size: 0x8, addend: 0x0, symName: __RINvNtCsaNl6UpbT7bw_4core3ptr13drop_in_placeNtNtNtCs7yrEGia95Wz_10proc_macro6bridge6buffer6BufferECsi6DBJJHK2XK_13futures_macro, symObjAddr: 0x140C, symBinAddr: 0xF028, symSize: 0x24 }
  - { offset: 0x2D650, size: 0x8, addend: 0x0, symName: __RINvNtCsaNl6UpbT7bw_4core3ptr13drop_in_placeNtNtNtCs7yrEGia95Wz_10proc_macro6bridge6client6BridgeECsi6DBJJHK2XK_13futures_macro, symObjAddr: 0x1430, symBinAddr: 0xF04C, symSize: 0x24 }
  - { offset: 0x2D67F, size: 0x8, addend: 0x0, symName: __RINvNtCsaNl6UpbT7bw_4core3ptr13drop_in_placeNtNtNtCsht3nMU9UgFu_3std2io5error5ErrorECsi6DBJJHK2XK_13futures_macro, symObjAddr: 0x1454, symBinAddr: 0xF070, symSize: 0x24 }
  - { offset: 0x2D6AE, size: 0x8, addend: 0x0, symName: __RINvNtCsaNl6UpbT7bw_4core3ptr13drop_in_placeNtNtNtCsht3nMU9UgFu_3std2io5error6CustomECsi6DBJJHK2XK_13futures_macro, symObjAddr: 0x1478, symBinAddr: 0xF094, symSize: 0x24 }
  - { offset: 0x2D6DD, size: 0x8, addend: 0x0, symName: __RINvNtCsaNl6UpbT7bw_4core3ptr13drop_in_placeNtNtNtNtCsht3nMU9UgFu_3std2io5error14repr_bitpacked4ReprECsi6DBJJHK2XK_13futures_macro, symObjAddr: 0x149C, symBinAddr: 0xF0B8, symSize: 0x24 }
  - { offset: 0x2D70C, size: 0x8, addend: 0x0, symName: __RINvNtCsaNl6UpbT7bw_4core3ptr13drop_in_placeNtNvNtNtNtCs7yrEGia95Wz_10proc_macro6bridge6client5state3set13RestoreOnDropECsi6DBJJHK2XK_13futures_macro, symObjAddr: 0x14C0, symBinAddr: 0xF0DC, symSize: 0x24 }
  - { offset: 0x2D73B, size: 0x8, addend: 0x0, symName: __RINvNtCsaNl6UpbT7bw_4core3ptr13drop_in_placeSNtCshnvkK9b4wzu_11proc_macro211TokenStreamECsi6DBJJHK2XK_13futures_macro, symObjAddr: 0x14E4, symBinAddr: 0xF100, symSize: 0xB4 }
  - { offset: 0x2D76A, size: 0x8, addend: 0x0, symName: __RINvNtCsaNl6UpbT7bw_4core3ptr13drop_in_placeSNtCshnvkK9b4wzu_11proc_macro25IdentECsi6DBJJHK2XK_13futures_macro, symObjAddr: 0x1598, symBinAddr: 0xF1B4, symSize: 0xC4 }
  - { offset: 0x2D799, size: 0x8, addend: 0x0, symName: __RINvNtCsaNl6UpbT7bw_4core3ptr13drop_in_placeSNtNtCsc29TF2YcYso_3syn4expr4ExprECsi6DBJJHK2XK_13futures_macro, symObjAddr: 0x165C, symBinAddr: 0xF278, symSize: 0xC4 }
  - { offset: 0x2D7C8, size: 0x8, addend: 0x0, symName: __RINvNtCsaNl6UpbT7bw_4core3ptr13drop_in_placeSNtNtCsc29TF2YcYso_3syn4expr8ExprPathECsi6DBJJHK2XK_13futures_macro, symObjAddr: 0x1720, symBinAddr: 0xF33C, symSize: 0xC4 }
  - { offset: 0x2D7F7, size: 0x8, addend: 0x0, symName: __RINvNtCsaNl6UpbT7bw_4core3ptr13drop_in_placeSTNtNtCsc29TF2YcYso_3syn3pat3PatNtNtBM_4expr4ExprEECsi6DBJJHK2XK_13futures_macro, symObjAddr: 0x17E4, symBinAddr: 0xF400, symSize: 0xC4 }
  - { offset: 0x2D826, size: 0x8, addend: 0x0, symName: __RINvNtCsaNl6UpbT7bw_4core3ptr13drop_in_placeTNtNtCsc29TF2YcYso_3syn3pat3PatNtNtBL_4expr4ExprEECsi6DBJJHK2XK_13futures_macro, symObjAddr: 0x18A8, symBinAddr: 0xF4C4, symSize: 0x60 }
  - { offset: 0x2D855, size: 0x8, addend: 0x0, symName: __RINvNtCsaNl6UpbT7bw_4core3ptr13drop_in_placeTNtNtCsc29TF2YcYso_3syn4expr4ExprRNtCshnvkK9b4wzu_11proc_macro25IdentEECsi6DBJJHK2XK_13futures_macro, symObjAddr: 0x1908, symBinAddr: 0xF524, symSize: 0x24 }
  - { offset: 0x2D884, size: 0x8, addend: 0x0, symName: __RINvNtCsaNl6UpbT7bw_4core3ptr13drop_in_placeTNtNtNtCs7yrEGia95Wz_10proc_macro6bridge6client11TokenStreamBH_EECsi6DBJJHK2XK_13futures_macro, symObjAddr: 0x192C, symBinAddr: 0xF548, symSize: 0x60 }
  - { offset: 0x2D9FC, size: 0x8, addend: 0x0, symName: __RNvNvNtCsaNl6UpbT7bw_4core3ptr19copy_nonoverlapping18precondition_checkCsi6DBJJHK2XK_13futures_macro, symObjAddr: 0x399C, symBinAddr: 0x115B4, symSize: 0x36C }
  - { offset: 0x3018B, size: 0x8, addend: 0x0, symName: __RNvXs2V_NtNtCsaNl6UpbT7bw_4core5slice4iterINtB6_4IterNtCshnvkK9b4wzu_11proc_macro211TokenStreamENtNtNtNtBa_4iter6traits8iterator8Iterator4nextCsi6DBJJHK2XK_13futures_macro, symObjAddr: 0x3EFC, symBinAddr: 0x11B14, symSize: 0xB0 }
  - { offset: 0x302C5, size: 0x8, addend: 0x0, symName: __RNvXs2V_NtNtCsaNl6UpbT7bw_4core5slice4iterINtB6_4IterNtCshnvkK9b4wzu_11proc_macro25IdentENtNtNtNtBa_4iter6traits8iterator8Iterator24___iterator_get_uncheckedCsi6DBJJHK2XK_13futures_macro, symObjAddr: 0x3FAC, symBinAddr: 0x11BC4, symSize: 0x28 }
  - { offset: 0x30320, size: 0x8, addend: 0x0, symName: __RNvXs2V_NtNtCsaNl6UpbT7bw_4core5slice4iterINtB6_4IterNtCshnvkK9b4wzu_11proc_macro25IdentENtNtNtNtBa_4iter6traits8iterator8Iterator4nextCsi6DBJJHK2XK_13futures_macro, symObjAddr: 0x3FD4, symBinAddr: 0x11BEC, symSize: 0xB0 }
  - { offset: 0x3045A, size: 0x8, addend: 0x0, symName: __RNvXs2V_NtNtCsaNl6UpbT7bw_4core5slice4iterINtB6_4IterNtCshnvkK9b4wzu_11proc_macro25IdentENtNtNtNtBa_4iter6traits8iterator8Iterator9size_hintCsi6DBJJHK2XK_13futures_macro, symObjAddr: 0x4084, symBinAddr: 0x11C9C, symSize: 0x70 }
  - { offset: 0x304C9, size: 0x8, addend: 0x0, symName: __RNvXs2V_NtNtCsaNl6UpbT7bw_4core5slice4iterINtB6_4IterNtNtCsc29TF2YcYso_3syn4expr5IndexENtNtNtNtBa_4iter6traits8iterator8Iterator4nextCsi6DBJJHK2XK_13futures_macro, symObjAddr: 0x40F4, symBinAddr: 0x11D0C, symSize: 0xB0 }
  - { offset: 0x30603, size: 0x8, addend: 0x0, symName: __RNvXs2V_NtNtCsaNl6UpbT7bw_4core5slice4iterINtB6_4IterNtNtCsc29TF2YcYso_3syn4expr8ExprPathENtNtNtNtBa_4iter6traits8iterator8Iterator24___iterator_get_uncheckedCsi6DBJJHK2XK_13futures_macro, symObjAddr: 0x41A4, symBinAddr: 0x11DBC, symSize: 0x28 }
  - { offset: 0x3065E, size: 0x8, addend: 0x0, symName: __RNvXs2V_NtNtCsaNl6UpbT7bw_4core5slice4iterINtB6_4IterNtNtCsc29TF2YcYso_3syn4expr8ExprPathENtNtNtNtBa_4iter6traits8iterator8Iterator9size_hintCsi6DBJJHK2XK_13futures_macro, symObjAddr: 0x41CC, symBinAddr: 0x11DE4, symSize: 0x70 }
  - { offset: 0x306D3, size: 0x8, addend: 0x0, symName: __RNvXs2W_NtNtCsaNl6UpbT7bw_4core5slice4iterINtB6_4IterTNtNtCsc29TF2YcYso_3syn4expr4ExprNtNtBU_5token5CommaEENtNtNtNtBa_4iter6traits12double_ended19DoubleEndedIterator9next_backCsi6DBJJHK2XK_13futures_macro, symObjAddr: 0x423C, symBinAddr: 0x11E54, symSize: 0x108 }
  - { offset: 0x30835, size: 0x8, addend: 0x0, symName: __RNvXs5_NtNtCsaNl6UpbT7bw_4core5slice4iterINtB5_4IterTNtNtCsc29TF2YcYso_3syn4expr4ExprNtNtBT_5token5CommaEENtNtB9_5clone5Clone5cloneCsi6DBJJHK2XK_13futures_macro, symObjAddr: 0x4510, symBinAddr: 0x12128, symSize: 0x20 }
  - { offset: 0x30906, size: 0x8, addend: 0x0, symName: __RNvMNtCsaNl6UpbT7bw_4core5sliceSNtNtCsc29TF2YcYso_3syn4expr5Index4iterCsi6DBJJHK2XK_13futures_macro, symObjAddr: 0x2FC0, symBinAddr: 0x10BDC, symSize: 0x28 }
  - { offset: 0x3093D, size: 0x8, addend: 0x0, symName: __RNvMNtCsaNl6UpbT7bw_4core5sliceSNtNtCsc29TF2YcYso_3syn4expr8ExprPath4iterCsi6DBJJHK2XK_13futures_macro, symObjAddr: 0x2FE8, symBinAddr: 0x10C04, symSize: 0x28 }
  - { offset: 0x30C9D, size: 0x8, addend: 0x0, symName: __RNvXsp_NtCsaNl6UpbT7bw_4core6resultINtB5_6ResultINtNtNtCsiTraAjBDcu4_5alloc3vec13in_place_drop11InPlaceDropNtCshnvkK9b4wzu_11proc_macro25IdentEzENtNtNtB7_3ops9try_trait3Try11from_outputCsi6DBJJHK2XK_13futures_macro, symObjAddr: 0x5A68, symBinAddr: 0x13680, symSize: 0x2C }
  - { offset: 0x30CDD, size: 0x8, addend: 0x0, symName: __RNvXsp_NtCsaNl6UpbT7bw_4core6resultINtB5_6ResultINtNtNtCsiTraAjBDcu4_5alloc3vec13in_place_drop11InPlaceDropNtCshnvkK9b4wzu_11proc_macro25IdentEzENtNtNtB7_3ops9try_trait3Try6branchCsi6DBJJHK2XK_13futures_macro, symObjAddr: 0x5A94, symBinAddr: 0x136AC, symSize: 0x3C }
  - { offset: 0x30D3B, size: 0x8, addend: 0x0, symName: __RNvXsp_NtCsaNl6UpbT7bw_4core6resultINtB5_6ResultINtNtNtCsiTraAjBDcu4_5alloc3vec13in_place_drop11InPlaceDropNtNtCsc29TF2YcYso_3syn4expr8ExprPathEzENtNtNtB7_3ops9try_trait3Try11from_outputCsi6DBJJHK2XK_13futures_macro, symObjAddr: 0x5AD0, symBinAddr: 0x136E8, symSize: 0x2C }
  - { offset: 0x30D7B, size: 0x8, addend: 0x0, symName: __RNvXsp_NtCsaNl6UpbT7bw_4core6resultINtB5_6ResultINtNtNtCsiTraAjBDcu4_5alloc3vec13in_place_drop11InPlaceDropNtNtCsc29TF2YcYso_3syn4expr8ExprPathEzENtNtNtB7_3ops9try_trait3Try6branchCsi6DBJJHK2XK_13futures_macro, symObjAddr: 0x5AFC, symBinAddr: 0x13714, symSize: 0x3C }
  - { offset: 0x30DD9, size: 0x8, addend: 0x0, symName: __RNvXsp_NtCsaNl6UpbT7bw_4core6resultINtB5_6ResultNtNtCsc29TF2YcYso_3syn4item6ItemFnNtNtBO_5error5ErrorENtNtNtB7_3ops9try_trait3Try6branchCsi6DBJJHK2XK_13futures_macro, symObjAddr: 0x5B38, symBinAddr: 0x13750, symSize: 0xB4 }
  - { offset: 0x30E57, size: 0x8, addend: 0x0, symName: __RNvXsp_NtCsaNl6UpbT7bw_4core6resultINtB5_6ResultNtNtCsc29TF2YcYso_3syn4item8ItemEnumNtNtBO_5error5ErrorENtNtNtB7_3ops9try_trait3Try6branchCsi6DBJJHK2XK_13futures_macro, symObjAddr: 0x5BEC, symBinAddr: 0x13804, symSize: 0xC4 }
  - { offset: 0x30ED5, size: 0x8, addend: 0x0, symName: __RNvXsp_NtCsaNl6UpbT7bw_4core6resultINtB5_6ResultNtNtCsi6DBJJHK2XK_13futures_macro4join4JoinNtNtCsc29TF2YcYso_3syn5error5ErrorENtNtNtB7_3ops9try_trait3Try6branchBO_, symObjAddr: 0x5CB0, symBinAddr: 0x138C8, symSize: 0x94 }
  - { offset: 0x30F52, size: 0x8, addend: 0x0, symName: __RNvXsp_NtCsaNl6UpbT7bw_4core6resultINtB5_6ResultNtNtCsi6DBJJHK2XK_13futures_macro6select6SelectNtNtCsc29TF2YcYso_3syn5error5ErrorENtNtNtB7_3ops9try_trait3Try6branchBO_, symObjAddr: 0x5D44, symBinAddr: 0x1395C, symSize: 0xB4 }
  - { offset: 0x30FD0, size: 0x8, addend: 0x0, symName: __RNvXsp_NtCsaNl6UpbT7bw_4core6resultINtB5_6ResultNtNtNtCsi6DBJJHK2XK_13futures_macro6select2kw8completeNtNtCsc29TF2YcYso_3syn5error5ErrorENtNtNtB7_3ops9try_trait3Try6branchBQ_, symObjAddr: 0x5DF8, symBinAddr: 0x13A10, symSize: 0x88 }
  - { offset: 0x3104E, size: 0x8, addend: 0x0, symName: __RNvXsp_NtCsaNl6UpbT7bw_4core6resultINtB5_6ResultTNtNtNtCsi6DBJJHK2XK_13futures_macro6select2kw8completeNtNtCsc29TF2YcYso_3syn6buffer6CursorENtNtB1H_5error5ErrorENtNtNtB7_3ops9try_trait3Try6branchBR_, symObjAddr: 0x5E80, symBinAddr: 0x13A98, symSize: 0x94 }
  - { offset: 0x310D1, size: 0x8, addend: 0x0, symName: __RNvXsq_NtCsaNl6UpbT7bw_4core6resultINtB5_6ResultNtNtCsi6DBJJHK2XK_13futures_macro4join4JoinNtNtCsc29TF2YcYso_3syn5error5ErrorEINtNtNtB7_3ops9try_trait12FromResidualIBy_NtNtB7_7convert10InfallibleB1r_EE13from_residualBO_, symObjAddr: 0x5F24, symBinAddr: 0x13B2C, symSize: 0x48 }
  - { offset: 0x31156, size: 0x8, addend: 0x0, symName: __RNvXsq_NtCsaNl6UpbT7bw_4core6resultINtB5_6ResultNtNtCsi6DBJJHK2XK_13futures_macro6select6SelectNtNtCsc29TF2YcYso_3syn5error5ErrorEINtNtNtB7_3ops9try_trait12FromResidualIBy_NtNtB7_7convert10InfallibleB1v_EE13from_residualBO_, symObjAddr: 0x5F6C, symBinAddr: 0x13B74, symSize: 0x48 }
  - { offset: 0x311DB, size: 0x8, addend: 0x0, symName: __RNvXsq_NtCsaNl6UpbT7bw_4core6resultINtB5_6ResultNtNtNtCsi6DBJJHK2XK_13futures_macro6select2kw8completeNtNtCsc29TF2YcYso_3syn5error5ErrorEINtNtNtB7_3ops9try_trait12FromResidualIBy_NtNtB7_7convert10InfallibleB1C_EE13from_residualBQ_, symObjAddr: 0x5FB4, symBinAddr: 0x13BBC, symSize: 0x40 }
  - { offset: 0x31A3D, size: 0x8, addend: 0x0, symName: __RNvXsn_NtNtCsaNl6UpbT7bw_4core5panic11unwind_safeINtB5_16AssertUnwindSafeNCINvNtNtCs7yrEGia95Wz_10proc_macro6bridge6client10run_clientNtB1e_11TokenStreamINtNtB9_6option6OptionB28_ENCNCINvMs6_B1e_INtB1e_6ClientNtB1i_11TokenStreamB3l_E7expand1NvCsi6DBJJHK2XK_13futures_macro13join_internalE00E0EINtNtNtB9_3ops8function6FnOnceuE9call_onceB3T_, symObjAddr: 0x5918, symBinAddr: 0x13530, symSize: 0x38 }
  - { offset: 0x31A95, size: 0x8, addend: 0x0, symName: __RNvXsn_NtNtCsaNl6UpbT7bw_4core5panic11unwind_safeINtB5_16AssertUnwindSafeNCINvNtNtCs7yrEGia95Wz_10proc_macro6bridge6client10run_clientNtB1e_11TokenStreamINtNtB9_6option6OptionB28_ENCNCINvMs6_B1e_INtB1e_6ClientNtB1i_11TokenStreamB3l_E7expand1NvCsi6DBJJHK2XK_13futures_macro15select_internalE00E0EINtNtNtB9_3ops8function6FnOnceuE9call_onceB3T_, symObjAddr: 0x5950, symBinAddr: 0x13568, symSize: 0x38 }
  - { offset: 0x31AED, size: 0x8, addend: 0x0, symName: __RNvXsn_NtNtCsaNl6UpbT7bw_4core5panic11unwind_safeINtB5_16AssertUnwindSafeNCINvNtNtCs7yrEGia95Wz_10proc_macro6bridge6client10run_clientNtB1e_11TokenStreamINtNtB9_6option6OptionB28_ENCNCINvMs6_B1e_INtB1e_6ClientNtB1i_11TokenStreamB3l_E7expand1NvCsi6DBJJHK2XK_13futures_macro17try_join_internalE00E0EINtNtNtB9_3ops8function6FnOnceuE9call_onceB3T_, symObjAddr: 0x5988, symBinAddr: 0x135A0, symSize: 0x38 }
  - { offset: 0x31B45, size: 0x8, addend: 0x0, symName: __RNvXsn_NtNtCsaNl6UpbT7bw_4core5panic11unwind_safeINtB5_16AssertUnwindSafeNCINvNtNtCs7yrEGia95Wz_10proc_macro6bridge6client10run_clientNtB1e_11TokenStreamINtNtB9_6option6OptionB28_ENCNCINvMs6_B1e_INtB1e_6ClientNtB1i_11TokenStreamB3l_E7expand1NvCsi6DBJJHK2XK_13futures_macro22select_biased_internalE00E0EINtNtNtB9_3ops8function6FnOnceuE9call_onceB3T_, symObjAddr: 0x59C0, symBinAddr: 0x135D8, symSize: 0x38 }
  - { offset: 0x31B9D, size: 0x8, addend: 0x0, symName: __RNvXsn_NtNtCsaNl6UpbT7bw_4core5panic11unwind_safeINtB5_16AssertUnwindSafeNCINvNtNtCs7yrEGia95Wz_10proc_macro6bridge6client10run_clientNtB1e_11TokenStreamINtNtB9_6option6OptionB28_ENCNCINvMs6_B1e_INtB1e_6ClientNtB1i_11TokenStreamB3l_E7expand1NvCsi6DBJJHK2XK_13futures_macro22stream_select_internalE00E0EINtNtNtB9_3ops8function6FnOnceuE9call_onceB3T_, symObjAddr: 0x59F8, symBinAddr: 0x13610, symSize: 0x38 }
  - { offset: 0x31BF5, size: 0x8, addend: 0x0, symName: __RNvXsn_NtNtCsaNl6UpbT7bw_4core5panic11unwind_safeINtB5_16AssertUnwindSafeNCINvNtNtCs7yrEGia95Wz_10proc_macro6bridge6client10run_clientTNtB1e_11TokenStreamB29_EINtNtB9_6option6OptionB29_ENCNCINvMs7_B1e_INtB1e_6ClientTNtB1i_11TokenStreamB3s_EB3s_E7expand2NvCsi6DBJJHK2XK_13futures_macro13test_internalE00E0EINtNtNtB9_3ops8function6FnOnceuE9call_onceB45_, symObjAddr: 0x5A30, symBinAddr: 0x13648, symSize: 0x38 }
  - { offset: 0x322AF, size: 0x8, addend: 0x0, symName: __RINvNtCsaNl6UpbT7bw_4core9panicking13panic_displayNtNtCsc29TF2YcYso_3syn5error5ErrorECsi6DBJJHK2XK_13futures_macro, symObjAddr: 0x198C, symBinAddr: 0xF5A8, symSize: 0x88 }
  - { offset: 0x323BD, size: 0x8, addend: 0x0, symName: __RNCINvNvXs_NtNtNtCsaNl6UpbT7bw_4core4iter8adapters9enumerateINtB9_9EnumeratepENtNtNtBd_6traits8iterator8Iterator8try_fold9enumerateNtNtCsc29TF2YcYso_3syn4expr4ExprINtNtNtCsiTraAjBDcu4_5alloc3vec13in_place_drop11InPlaceDropNtCshnvkK9b4wzu_11proc_macro25IdentEINtNtBf_6result6ResultB2B_zENCINvNtBb_3map12map_try_foldTjB25_EB3y_B2B_B48_NCNvNtCsi6DBJJHK2XK_13futures_macro4join12bind_futures0NCINvNtB2G_16in_place_collect24write_in_place_with_dropB3y_E0E0E0B5r_, symObjAddr: 0x2D58, symBinAddr: 0x10974, symSize: 0x12C }
  - { offset: 0x32455, size: 0x8, addend: 0x0, symName: __RINvXs_NtNtNtCsaNl6UpbT7bw_4core4iter8adapters9enumerateINtB5_9EnumerateINtNtNtCsiTraAjBDcu4_5alloc3vec9into_iter8IntoIterNtNtCsc29TF2YcYso_3syn4expr4ExprEENtNtNtB9_6traits8iterator8Iterator8try_foldINtNtB1d_13in_place_drop11InPlaceDropNtCshnvkK9b4wzu_11proc_macro25IdentENCINvNtB7_3map12map_try_foldTjB1W_EB3M_B3b_INtNtBb_6result6ResultB3b_zENCNvNtCsi6DBJJHK2XK_13futures_macro4join12bind_futures0NCINvNtB1d_16in_place_collect24write_in_place_with_dropB3M_E0E0B53_EB5B_, symObjAddr: 0x2408, symBinAddr: 0x10024, symSize: 0x64 }
  - { offset: 0x32516, size: 0x8, addend: 0x0, symName: __RNvXs7_NtNtNtCsaNl6UpbT7bw_4core4iter8adapters9enumerateINtB5_9EnumerateINtNtNtCsiTraAjBDcu4_5alloc3vec9into_iter8IntoIterNtNtCsc29TF2YcYso_3syn4expr4ExprEENtB7_10SourceIter8as_innerCsi6DBJJHK2XK_13futures_macro, symObjAddr: 0x4530, symBinAddr: 0x12148, symSize: 0x24 }
  - { offset: 0x32991, size: 0x8, addend: 0x0, symName: __RNvYINtNtNtCsaNl6UpbT7bw_4core5slice4iter4IterNtCshnvkK9b4wzu_11proc_macro25IdentENtNtNtNtB9_4iter8adapters3zip27TrustedRandomAccessNoCoerce4sizeCsi6DBJJHK2XK_13futures_macro, symObjAddr: 0x64D0, symBinAddr: 0x140D8, symSize: 0x2C }
  - { offset: 0x329C8, size: 0x8, addend: 0x0, symName: __RNvYINtNtNtCsaNl6UpbT7bw_4core5slice4iter4IterNtNtCsc29TF2YcYso_3syn4expr8ExprPathENtNtNtNtB9_4iter8adapters3zip27TrustedRandomAccessNoCoerce4sizeCsi6DBJJHK2XK_13futures_macro, symObjAddr: 0x64FC, symBinAddr: 0x14104, symSize: 0x2C }
  - { offset: 0x32ABF, size: 0x8, addend: 0x0, symName: __RINvYINtNtCsc29TF2YcYso_3syn10punctuated11PrivateIterNtNtB8_4expr4ExprNtNtB8_5token5CommaENtNtNtNtCsaNl6UpbT7bw_4core4iter6traits8iterator8Iterator8try_foldINtNtNtB1y_3num7nonzero7NonZerojENCNvXs_NvB1q_10advance_byB3_NtB38_13SpecAdvanceBy15spec_advance_by0INtNtB1y_6option6OptionB2u_EECsi6DBJJHK2XK_13futures_macro, symObjAddr: 0x246C, symBinAddr: 0x10088, symSize: 0x154 }
  - { offset: 0x32B73, size: 0x8, addend: 0x0, symName: __RINvYINtNtCsc29TF2YcYso_3syn10punctuated4IterNtNtB8_4expr4ExprENtNtNtNtCsaNl6UpbT7bw_4core4iter6traits8iterator8Iterator3mapNtCshnvkK9b4wzu_11proc_macro211TokenStreamNCNvNtCsi6DBJJHK2XK_13futures_macro13stream_select13stream_selects1_0EB2K_, symObjAddr: 0x25C0, symBinAddr: 0x101DC, symSize: 0x1C }
  - { offset: 0x32BCB, size: 0x8, addend: 0x0, symName: __RINvYINtNtNtCsaNl6UpbT7bw_4core3ops5range5RangejENtNtNtNtBa_4iter6traits8iterator8Iterator3mapNtCshnvkK9b4wzu_11proc_macro25IdentNCNvNtCsi6DBJJHK2XK_13futures_macro13stream_select13stream_select0EB29_, symObjAddr: 0x25DC, symBinAddr: 0x101F8, symSize: 0x14 }
  - { offset: 0x32C23, size: 0x8, addend: 0x0, symName: __RINvYINtNtNtCsaNl6UpbT7bw_4core3ops5range5RangejENtNtNtNtBa_4iter6traits8iterator8Iterator3mapNtCshnvkK9b4wzu_11proc_macro25IdentNCNvNtCsi6DBJJHK2XK_13futures_macro13stream_select13stream_selects0_0EB29_, symObjAddr: 0x25F0, symBinAddr: 0x1020C, symSize: 0x14 }
  - { offset: 0x32C7B, size: 0x8, addend: 0x0, symName: __RINvYINtNtNtCsaNl6UpbT7bw_4core3ops5range5RangejENtNtNtNtBa_4iter6traits8iterator8Iterator3mapNtCshnvkK9b4wzu_11proc_macro25IdentNCNvNtCsi6DBJJHK2XK_13futures_macro13stream_select13stream_selects_0EB29_, symObjAddr: 0x2604, symBinAddr: 0x10220, symSize: 0x14 }
  - { offset: 0x32CD3, size: 0x8, addend: 0x0, symName: __RINvYINtNtNtCsaNl6UpbT7bw_4core3ops5range5RangejENtNtNtNtBa_4iter6traits8iterator8Iterator3mapNtCshnvkK9b4wzu_11proc_macro25IdentNCNvNtCsi6DBJJHK2XK_13futures_macro6select19declare_result_enum0EB29_, symObjAddr: 0x2618, symBinAddr: 0x10234, symSize: 0x28 }
  - { offset: 0x32D40, size: 0x8, addend: 0x0, symName: __RINvYINtNtNtCsaNl6UpbT7bw_4core3ops5range5RangejENtNtNtNtBa_4iter6traits8iterator8Iterator3mapNtNtCsc29TF2YcYso_3syn4expr5IndexNvYB1u_INtNtBa_7convert4FromjE4fromECsi6DBJJHK2XK_13futures_macro, symObjAddr: 0x2640, symBinAddr: 0x1025C, symSize: 0x14 }
  - { offset: 0x32D98, size: 0x8, addend: 0x0, symName: __RINvYINtNtNtCsaNl6UpbT7bw_4core3ops5range5RangejENtNtNtNtBa_4iter6traits8iterator8Iterator4folduNCINvNtNtBR_8adapters3map8map_foldjNtCshnvkK9b4wzu_11proc_macro25IdentuNCNvNtCsi6DBJJHK2XK_13futures_macro13stream_select13stream_select0NCINvNvBL_8for_each4callB25_NCINvMsi_NtCsiTraAjBDcu4_5alloc3vecINtB4k_3VecB25_E14extend_trustedINtB1B_3MapB3_B2F_EE0E0E0EB2L_, symObjAddr: 0x2654, symBinAddr: 0x10270, symSize: 0xDC }
  - { offset: 0x32E28, size: 0x8, addend: 0x0, symName: __RINvYINtNtNtCsaNl6UpbT7bw_4core3ops5range5RangejENtNtNtNtBa_4iter6traits8iterator8Iterator4folduNCINvNtNtBR_8adapters3map8map_foldjNtCshnvkK9b4wzu_11proc_macro25IdentuNCNvNtCsi6DBJJHK2XK_13futures_macro13stream_select13stream_selects0_0NCINvNvBL_8for_each4callB25_NCINvMsi_NtCsiTraAjBDcu4_5alloc3vecINtB4n_3VecB25_E14extend_trustedINtB1B_3MapB3_B2F_EE0E0E0EB2L_, symObjAddr: 0x2730, symBinAddr: 0x1034C, symSize: 0xDC }
  - { offset: 0x32EB8, size: 0x8, addend: 0x0, symName: __RINvYINtNtNtCsaNl6UpbT7bw_4core3ops5range5RangejENtNtNtNtBa_4iter6traits8iterator8Iterator4folduNCINvNtNtBR_8adapters3map8map_foldjNtCshnvkK9b4wzu_11proc_macro25IdentuNCNvNtCsi6DBJJHK2XK_13futures_macro13stream_select13stream_selects_0NCINvNvBL_8for_each4callB25_NCINvMsi_NtCsiTraAjBDcu4_5alloc3vecINtB4m_3VecB25_E14extend_trustedINtB1B_3MapB3_B2F_EE0E0E0EB2L_, symObjAddr: 0x280C, symBinAddr: 0x10428, symSize: 0xDC }
  - { offset: 0x32F48, size: 0x8, addend: 0x0, symName: __RINvYINtNtNtCsaNl6UpbT7bw_4core3ops5range5RangejENtNtNtNtBa_4iter6traits8iterator8Iterator4folduNCINvNtNtBR_8adapters3map8map_foldjNtCshnvkK9b4wzu_11proc_macro25IdentuNCNvNtCsi6DBJJHK2XK_13futures_macro6select19declare_result_enum0NCINvNvBL_8for_each4callB25_NCINvMsi_NtCsiTraAjBDcu4_5alloc3vecINtB4i_3VecB25_E14extend_trustedINtB1B_3MapB3_B2F_EE0E0E0EB2L_, symObjAddr: 0x28E8, symBinAddr: 0x10504, symSize: 0xDC }
  - { offset: 0x32FD8, size: 0x8, addend: 0x0, symName: __RINvYINtNtNtCsaNl6UpbT7bw_4core3ops5range5RangejENtNtNtNtBa_4iter6traits8iterator8Iterator4folduNCINvNtNtBR_8adapters3map8map_foldjNtNtCsc29TF2YcYso_3syn4expr5IndexuNvYB25_INtNtBa_7convert4FromjE4fromNCINvNvBL_8for_each4callB25_NCINvMsi_NtCsiTraAjBDcu4_5alloc3vecINtB3N_3VecB25_E14extend_trustedINtB1B_3MapB3_B2D_EE0E0E0ECsi6DBJJHK2XK_13futures_macro, symObjAddr: 0x29C4, symBinAddr: 0x105E0, symSize: 0xDC }
  - { offset: 0x33068, size: 0x8, addend: 0x0, symName: __RINvYINtNtNtCsaNl6UpbT7bw_4core5slice4iter4IterNtCshnvkK9b4wzu_11proc_macro25IdentENtNtNtNtBa_4iter6traits8iterator8Iterator3mapNtBL_11TokenStreamNCNvNtCsi6DBJJHK2XK_13futures_macro4join4join0EB2q_, symObjAddr: 0x2AA0, symBinAddr: 0x106BC, symSize: 0x1C }
  - { offset: 0x330C0, size: 0x8, addend: 0x0, symName: __RINvYINtNtNtCsaNl6UpbT7bw_4core5slice4iter4IterNtCshnvkK9b4wzu_11proc_macro25IdentENtNtNtNtBa_4iter6traits8iterator8Iterator3mapNtBL_11TokenStreamNCNvNtCsi6DBJJHK2XK_13futures_macro4join4joins_0EB2q_, symObjAddr: 0x2ABC, symBinAddr: 0x106D8, symSize: 0x1C }
  - { offset: 0x33118, size: 0x8, addend: 0x0, symName: __RINvYINtNtNtCsaNl6UpbT7bw_4core5slice4iter4IterNtCshnvkK9b4wzu_11proc_macro25IdentENtNtNtNtBa_4iter6traits8iterator8Iterator3mapNtBL_11TokenStreamNCNvNtCsi6DBJJHK2XK_13futures_macro4join8try_join0EB2q_, symObjAddr: 0x2AD8, symBinAddr: 0x106F4, symSize: 0x1C }
  - { offset: 0x33170, size: 0x8, addend: 0x0, symName: __RINvYINtNtNtCsaNl6UpbT7bw_4core5slice4iter4IterNtCshnvkK9b4wzu_11proc_macro25IdentENtNtNtNtBa_4iter6traits8iterator8Iterator3mapNtBL_11TokenStreamNCNvNtCsi6DBJJHK2XK_13futures_macro4join8try_joins_0EB2q_, symObjAddr: 0x2AF4, symBinAddr: 0x10710, symSize: 0x1C }
  - { offset: 0x331C8, size: 0x8, addend: 0x0, symName: __RINvYINtNtNtCsaNl6UpbT7bw_4core5slice4iter4IterNtNtCsc29TF2YcYso_3syn4expr8ExprPathENtNtNtNtBa_4iter6traits8iterator8Iterator3zipIB4_NtCshnvkK9b4wzu_11proc_macro25IdentEECsi6DBJJHK2XK_13futures_macro, symObjAddr: 0x2B10, symBinAddr: 0x1072C, symSize: 0xCC }
  - { offset: 0x3323E, size: 0x8, addend: 0x0, symName: __RINvYINtNtNtNtCsaNl6UpbT7bw_4core4iter8adapters9enumerate9EnumerateINtNtNtCsiTraAjBDcu4_5alloc3vec9into_iter8IntoIterNtNtCsc29TF2YcYso_3syn4expr4ExprEENtNtNtBa_6traits8iterator8Iterator3mapNtCshnvkK9b4wzu_11proc_macro25IdentNCNvNtCsi6DBJJHK2XK_13futures_macro4join12bind_futures0EB3G_, symObjAddr: 0x2BDC, symBinAddr: 0x107F8, symSize: 0x60 }
  - { offset: 0x332B6, size: 0x8, addend: 0x0, symName: __RNCINvNvNtNtNtNtCsaNl6UpbT7bw_4core4iter6traits8iterator8Iterator8for_each4callNtCshnvkK9b4wzu_11proc_macro25IdentNCINvMsi_NtCsiTraAjBDcu4_5alloc3vecINtB1X_3VecB1f_E14extend_trustedINtNtNtBc_8adapters3map3MapINtNtNtBe_3ops5range5RangejENCNvNtCsi6DBJJHK2XK_13futures_macro13stream_select13stream_select0EE0E0B3S_, symObjAddr: 0x2C3C, symBinAddr: 0x10858, symSize: 0x3C }
  - { offset: 0x3330F, size: 0x8, addend: 0x0, symName: __RNCINvNvNtNtNtNtCsaNl6UpbT7bw_4core4iter6traits8iterator8Iterator8for_each4callNtCshnvkK9b4wzu_11proc_macro25IdentNCINvMsi_NtCsiTraAjBDcu4_5alloc3vecINtB1X_3VecB1f_E14extend_trustedINtNtNtBc_8adapters3map3MapINtNtNtBe_3ops5range5RangejENCNvNtCsi6DBJJHK2XK_13futures_macro13stream_select13stream_selects0_0EE0E0B3S_, symObjAddr: 0x2C78, symBinAddr: 0x10894, symSize: 0x3C }
  - { offset: 0x33368, size: 0x8, addend: 0x0, symName: __RNCINvNvNtNtNtNtCsaNl6UpbT7bw_4core4iter6traits8iterator8Iterator8for_each4callNtCshnvkK9b4wzu_11proc_macro25IdentNCINvMsi_NtCsiTraAjBDcu4_5alloc3vecINtB1X_3VecB1f_E14extend_trustedINtNtNtBc_8adapters3map3MapINtNtNtBe_3ops5range5RangejENCNvNtCsi6DBJJHK2XK_13futures_macro13stream_select13stream_selects_0EE0E0B3S_, symObjAddr: 0x2CB4, symBinAddr: 0x108D0, symSize: 0x3C }
  - { offset: 0x333C1, size: 0x8, addend: 0x0, symName: __RNCINvNvNtNtNtNtCsaNl6UpbT7bw_4core4iter6traits8iterator8Iterator8for_each4callNtCshnvkK9b4wzu_11proc_macro25IdentNCINvMsi_NtCsiTraAjBDcu4_5alloc3vecINtB1X_3VecB1f_E14extend_trustedINtNtNtBc_8adapters3map3MapINtNtNtBe_3ops5range5RangejENCNvNtCsi6DBJJHK2XK_13futures_macro6select19declare_result_enum0EE0E0B3S_, symObjAddr: 0x2CF0, symBinAddr: 0x1090C, symSize: 0x3C }
  - { offset: 0x3341A, size: 0x8, addend: 0x0, symName: __RNCINvNvNtNtNtNtCsaNl6UpbT7bw_4core4iter6traits8iterator8Iterator8for_each4callNtNtCsc29TF2YcYso_3syn4expr5IndexNCINvMsi_NtCsiTraAjBDcu4_5alloc3vecINtB1V_3VecB1f_E14extend_trustedINtNtNtBc_8adapters3map3MapINtNtNtBe_3ops5range5RangejENvYB1f_INtNtBe_7convert4FromjE4fromEE0E0Csi6DBJJHK2XK_13futures_macro, symObjAddr: 0x2D2C, symBinAddr: 0x10948, symSize: 0x2C }
  - { offset: 0x334E2, size: 0x8, addend: 0x0, symName: __RNCNvXs_NvNtNtNtNtCsaNl6UpbT7bw_4core4iter6traits8iterator8Iterator10advance_byINtNtCsc29TF2YcYso_3syn10punctuated11PrivateIterNtNtB1k_4expr4ExprNtNtB1k_5token5CommaENtB6_13SpecAdvanceBy15spec_advance_by0Csi6DBJJHK2XK_13futures_macro, symObjAddr: 0x2ED8, symBinAddr: 0x10AF4, symSize: 0x20 }
  - { offset: 0x33537, size: 0x8, addend: 0x0, symName: __RNvXs_NvNtNtNtNtCsaNl6UpbT7bw_4core4iter6traits8iterator8Iterator10advance_byINtNtCsc29TF2YcYso_3syn10punctuated11PrivateIterNtNtB1i_4expr4ExprNtNtB1i_5token5CommaENtB4_13SpecAdvanceBy15spec_advance_byCsi6DBJJHK2XK_13futures_macro, symObjAddr: 0x4824, symBinAddr: 0x1243C, symSize: 0x8C }
  - { offset: 0x335E7, size: 0x8, addend: 0x0, symName: __RNvYINtNtCsc29TF2YcYso_3syn10punctuated11PrivateIterNtNtB7_4expr4ExprNtNtB7_5token5CommaENtNtNtNtCsaNl6UpbT7bw_4core4iter6traits8iterator8Iterator10advance_byCsi6DBJJHK2XK_13futures_macro, symObjAddr: 0x63CC, symBinAddr: 0x13FD4, symSize: 0x28 }
  - { offset: 0x3362D, size: 0x8, addend: 0x0, symName: __RNvYINtNtCsc29TF2YcYso_3syn10punctuated11PrivateIterNtNtB7_4expr4ExprNtNtB7_5token5CommaENtNtNtNtCsaNl6UpbT7bw_4core4iter6traits8iterator8Iterator3nthCsi6DBJJHK2XK_13futures_macro, symObjAddr: 0x63F4, symBinAddr: 0x13FFC, symSize: 0x7C }
  - { offset: 0x336F9, size: 0x8, addend: 0x0, symName: __RNvYINtNtCsc29TF2YcYso_3syn10punctuated11PrivateIterNtNtB7_4expr4ExprNtNtB7_5token5CommaENtNtNtNtCsaNl6UpbT7bw_4core4iter6traits8iterator8Iterator9size_hintCsi6DBJJHK2XK_13futures_macro, symObjAddr: 0x6470, symBinAddr: 0x14078, symSize: 0x34 }
  - { offset: 0x3373A, size: 0x8, addend: 0x0, symName: __RNvXNtNtNtCsaNl6UpbT7bw_4core4iter6traits7collectINtNtNtB8_5slice4iter4IterNtCshnvkK9b4wzu_11proc_macro25IdentENtB2_12IntoIterator9into_iterCsi6DBJJHK2XK_13futures_macro, symObjAddr: 0x3E94, symBinAddr: 0x11AAC, symSize: 0x1C }
  - { offset: 0x3377D, size: 0x8, addend: 0x0, symName: __RNvYINtNtCsc29TF2YcYso_3syn10punctuated11PrivateIterNtNtB7_4expr4ExprNtNtB7_5token5CommaENtNtNtNtCsaNl6UpbT7bw_4core4iter6traits10exact_size17ExactSizeIterator8is_emptyCsi6DBJJHK2XK_13futures_macro, symObjAddr: 0x61E0, symBinAddr: 0x13DE8, symSize: 0x2C }
  - { offset: 0x337BE, size: 0x8, addend: 0x0, symName: __RNvYINtNtCsc29TF2YcYso_3syn10punctuated11PrivateIterNtNtB7_4expr4ExprNtNtB7_5token5CommaENtNtNtNtCsaNl6UpbT7bw_4core4iter6traits12double_ended19DoubleEndedIterator15advance_back_byCsi6DBJJHK2XK_13futures_macro, symObjAddr: 0x620C, symBinAddr: 0x13E14, symSize: 0x158 }
  - { offset: 0x33938, size: 0x8, addend: 0x0, symName: __RNvYINtNtCsc29TF2YcYso_3syn10punctuated11PrivateIterNtNtB7_4expr4ExprNtNtB7_5token5CommaENtNtNtNtCsaNl6UpbT7bw_4core4iter6traits12double_ended19DoubleEndedIterator8nth_backCsi6DBJJHK2XK_13futures_macro, symObjAddr: 0x6364, symBinAddr: 0x13F6C, symSize: 0x68 }
  - { offset: 0x339C3, size: 0x8, addend: 0x0, symName: __RNvXs3_NtNtCsaNl6UpbT7bw_4core4iter5rangeINtNtNtB9_3ops5range5RangejENtB5_17RangeIteratorImpl9spec_nextCsi6DBJJHK2XK_13futures_macro, symObjAddr: 0x4344, symBinAddr: 0x11F5C, symSize: 0x94 }
  - { offset: 0x33A7A, size: 0x8, addend: 0x0, symName: __RNvXs4_NtNtCsaNl6UpbT7bw_4core4iter5rangeINtNtNtB9_3ops5range5RangejENtNtNtB7_6traits8iterator8Iterator4nextCsi6DBJJHK2XK_13futures_macro, symObjAddr: 0x43D8, symBinAddr: 0x11FF0, symSize: 0x24 }
  - { offset: 0x33AB1, size: 0x8, addend: 0x0, symName: __RNvXs4_NtNtCsaNl6UpbT7bw_4core4iter5rangeINtNtNtB9_3ops5range5RangejENtNtNtB7_6traits8iterator8Iterator9size_hintCsi6DBJJHK2XK_13futures_macro, symObjAddr: 0x43FC, symBinAddr: 0x12014, symSize: 0x88 }
  - { offset: 0x34021, size: 0x8, addend: 0x0, symName: __RNvYNCNkNvNtNtNtCs7yrEGia95Wz_10proc_macro6bridge6client5state12BRIDGE_STATE0s_0INtNtNtCsaNl6UpbT7bw_4core3ops8function6FnOnceTINtNtB1n_6option6OptionQIB22_INtNtB1n_4cell4CellPuEEEEE9call_onceCsi6DBJJHK2XK_13futures_macro, symObjAddr: 0x6528, symBinAddr: 0x14130, symSize: 0x4C }
  - { offset: 0x34065, size: 0x8, addend: 0x0, symName: __RNvYNvMNtCsc29TF2YcYso_3syn10punctuatedINtB5_10PunctuatedNtNtB7_4expr4ExprNtNtB7_5token5CommaE16parse_terminatedINtNtNtCsaNl6UpbT7bw_4core3ops8function6FnOnceTRNtNtB7_5parse11ParseBufferEE9call_onceCsi6DBJJHK2XK_13futures_macro, symObjAddr: 0x674C, symBinAddr: 0x14354, symSize: 0x24 }
  - { offset: 0x340A9, size: 0x8, addend: 0x0, symName: __RNvYNvMNtCsc29TF2YcYso_3syn5errorNtB5_5Error18into_compile_errorINtNtNtCsaNl6UpbT7bw_4core3ops8function6FnOnceTBv_EE9call_onceCsi6DBJJHK2XK_13futures_macro, symObjAddr: 0x6770, symBinAddr: 0x14378, symSize: 0x34 }
  - { offset: 0x340ED, size: 0x8, addend: 0x0, symName: __RNvYNvMse_CshnvkK9b4wzu_11proc_macro2NtB8_4Span9call_siteINtNtNtCsaNl6UpbT7bw_4core3ops8function6FnOnceuE9call_onceCsi6DBJJHK2XK_13futures_macro, symObjAddr: 0x67A4, symBinAddr: 0x143AC, symSize: 0x1C }
  - { offset: 0x34131, size: 0x8, addend: 0x0, symName: __RNvYNvYNtNtCsc29TF2YcYso_3syn4expr4ExprNtNtB9_5parse5Parse5parseINtNtNtCsaNl6UpbT7bw_4core3ops8function6FnOnceTRNtBD_11ParseBufferEE9call_onceCsi6DBJJHK2XK_13futures_macro, symObjAddr: 0x67C0, symBinAddr: 0x143C8, symSize: 0x24 }
  - { offset: 0x34175, size: 0x8, addend: 0x0, symName: __RNvYNvYNtNtCsc29TF2YcYso_3syn4expr8ExprPathNtNtB9_11parse_quote10ParseQuote5parseINtNtNtCsaNl6UpbT7bw_4core3ops8function6FnOnceTRNtNtB9_5parse11ParseBufferEE9call_onceCsi6DBJJHK2XK_13futures_macro, symObjAddr: 0x680C, symBinAddr: 0x14414, symSize: 0x24 }
  - { offset: 0x341B9, size: 0x8, addend: 0x0, symName: __RNvYNvYNtNtCsc29TF2YcYso_3syn4item6ItemFnNtNtB9_5parse5Parse5parseINtNtNtCsaNl6UpbT7bw_4core3ops8function6FnOnceTRNtBF_11ParseBufferEE9call_onceCsi6DBJJHK2XK_13futures_macro, symObjAddr: 0x6830, symBinAddr: 0x14438, symSize: 0x24 }
  - { offset: 0x341FD, size: 0x8, addend: 0x0, symName: __RNvYNvYNtNtCsc29TF2YcYso_3syn4item8ItemEnumNtNtB9_11parse_quote10ParseQuote5parseINtNtNtCsaNl6UpbT7bw_4core3ops8function6FnOnceTRNtNtB9_5parse11ParseBufferEE9call_onceCsi6DBJJHK2XK_13futures_macro, symObjAddr: 0x68DC, symBinAddr: 0x144E4, symSize: 0x24 }
  - { offset: 0x34241, size: 0x8, addend: 0x0, symName: __RNvYNvYNtNtCsi6DBJJHK2XK_13futures_macro4join4JoinNtNtCsc29TF2YcYso_3syn5parse5Parse5parseINtNtNtCsaNl6UpbT7bw_4core3ops8function6FnOnceTRNtBO_11ParseBufferEE9call_onceB9_, symObjAddr: 0x6900, symBinAddr: 0x14508, symSize: 0x24 }
  - { offset: 0x34285, size: 0x8, addend: 0x0, symName: __RNvYNvYNtNtCsi6DBJJHK2XK_13futures_macro6select6SelectNtNtCsc29TF2YcYso_3syn5parse5Parse5parseINtNtNtCsaNl6UpbT7bw_4core3ops8function6FnOnceTRNtBS_11ParseBufferEE9call_onceB9_, symObjAddr: 0x69AC, symBinAddr: 0x145B4, symSize: 0x24 }
  - { offset: 0x342C9, size: 0x8, addend: 0x0, symName: __RNvYNvYRNtNtCsc29TF2YcYso_3syn4stmt4StmtNtNtCs4EAaWzSXu1l_5quote9to_tokens8ToTokens17into_token_streamINtNtNtCsaNl6UpbT7bw_4core3ops8function6FnOnceTB5_EE9call_onceCsi6DBJJHK2XK_13futures_macro, symObjAddr: 0x6A58, symBinAddr: 0x14660, symSize: 0x24 }
  - { offset: 0x34313, size: 0x8, addend: 0x0, symName: __RNvYNvCsi6DBJJHK2XK_13futures_macro13join_internalINtNtNtCsaNl6UpbT7bw_4core3ops8function2FnTNtCs7yrEGia95Wz_10proc_macro11TokenStreamEE4callB4_, symObjAddr: 0x6654, symBinAddr: 0x1425C, symSize: 0x28 }
  - { offset: 0x34357, size: 0x8, addend: 0x0, symName: __RNvYNvCsi6DBJJHK2XK_13futures_macro13test_internalINtNtNtCsaNl6UpbT7bw_4core3ops8function2FnTNtCs7yrEGia95Wz_10proc_macro11TokenStreamB1t_EE4callB4_, symObjAddr: 0x667C, symBinAddr: 0x14284, symSize: 0x30 }
  - { offset: 0x3439B, size: 0x8, addend: 0x0, symName: __RNvYNvCsi6DBJJHK2XK_13futures_macro15select_internalINtNtNtCsaNl6UpbT7bw_4core3ops8function2FnTNtCs7yrEGia95Wz_10proc_macro11TokenStreamEE4callB4_, symObjAddr: 0x66AC, symBinAddr: 0x142B4, symSize: 0x28 }
  - { offset: 0x343DF, size: 0x8, addend: 0x0, symName: __RNvYNvCsi6DBJJHK2XK_13futures_macro17try_join_internalINtNtNtCsaNl6UpbT7bw_4core3ops8function2FnTNtCs7yrEGia95Wz_10proc_macro11TokenStreamEE4callB4_, symObjAddr: 0x66D4, symBinAddr: 0x142DC, symSize: 0x28 }
  - { offset: 0x34423, size: 0x8, addend: 0x0, symName: __RNvYNvCsi6DBJJHK2XK_13futures_macro22select_biased_internalINtNtNtCsaNl6UpbT7bw_4core3ops8function2FnTNtCs7yrEGia95Wz_10proc_macro11TokenStreamEE4callB4_, symObjAddr: 0x66FC, symBinAddr: 0x14304, symSize: 0x28 }
  - { offset: 0x34467, size: 0x8, addend: 0x0, symName: __RNvYNvCsi6DBJJHK2XK_13futures_macro22stream_select_internalINtNtNtCsaNl6UpbT7bw_4core3ops8function2FnTNtCs7yrEGia95Wz_10proc_macro11TokenStreamEE4callB4_, symObjAddr: 0x6724, symBinAddr: 0x1432C, symSize: 0x28 }
  - { offset: 0x344B1, size: 0x8, addend: 0x0, symName: __RNvYNvYNtNtCsc29TF2YcYso_3syn4expr5IndexINtNtCsaNl6UpbT7bw_4core7convert4FromjE4fromINtNtNtBH_3ops8function5FnMutTjEE8call_mutCsi6DBJJHK2XK_13futures_macro, symObjAddr: 0x67E4, symBinAddr: 0x143EC, symSize: 0x28 }
  - { offset: 0x345D1, size: 0x8, addend: 0x0, symName: __RNvNvNtCsaNl6UpbT7bw_4core9ub_checks23maybe_is_nonoverlapping7runtimeCsi6DBJJHK2XK_13futures_macro, symObjAddr: 0x3D08, symBinAddr: 0x11920, symSize: 0xD8 }
  - { offset: 0x3503B, size: 0x8, addend: 0x0, symName: __RINvNvNtCsht3nMU9UgFu_3std9panicking12catch_unwind7do_callINtNtNtCsaNl6UpbT7bw_4core5panic11unwind_safe16AssertUnwindSafeNCINvNtNtCs7yrEGia95Wz_10proc_macro6bridge6client10run_clientNtB20_11TokenStreamINtNtB11_6option6OptionB2U_ENCNCINvMs6_B20_INtB20_6ClientNtB24_11TokenStreamB48_E7expand1NvCsi6DBJJHK2XK_13futures_macro13join_internalE00E0EuEB4G_, symObjAddr: 0x1F88, symBinAddr: 0xFBA4, symSize: 0x50 }
  - { offset: 0x35103, size: 0x8, addend: 0x0, symName: __RINvNvNtCsht3nMU9UgFu_3std9panicking12catch_unwind7do_callINtNtNtCsaNl6UpbT7bw_4core5panic11unwind_safe16AssertUnwindSafeNCINvNtNtCs7yrEGia95Wz_10proc_macro6bridge6client10run_clientNtB20_11TokenStreamINtNtB11_6option6OptionB2U_ENCNCINvMs6_B20_INtB20_6ClientNtB24_11TokenStreamB48_E7expand1NvCsi6DBJJHK2XK_13futures_macro15select_internalE00E0EuEB4G_, symObjAddr: 0x1FD8, symBinAddr: 0xFBF4, symSize: 0x50 }
  - { offset: 0x351CB, size: 0x8, addend: 0x0, symName: __RINvNvNtCsht3nMU9UgFu_3std9panicking12catch_unwind7do_callINtNtNtCsaNl6UpbT7bw_4core5panic11unwind_safe16AssertUnwindSafeNCINvNtNtCs7yrEGia95Wz_10proc_macro6bridge6client10run_clientNtB20_11TokenStreamINtNtB11_6option6OptionB2U_ENCNCINvMs6_B20_INtB20_6ClientNtB24_11TokenStreamB48_E7expand1NvCsi6DBJJHK2XK_13futures_macro17try_join_internalE00E0EuEB4G_, symObjAddr: 0x2028, symBinAddr: 0xFC44, symSize: 0x50 }
  - { offset: 0x35293, size: 0x8, addend: 0x0, symName: __RINvNvNtCsht3nMU9UgFu_3std9panicking12catch_unwind7do_callINtNtNtCsaNl6UpbT7bw_4core5panic11unwind_safe16AssertUnwindSafeNCINvNtNtCs7yrEGia95Wz_10proc_macro6bridge6client10run_clientNtB20_11TokenStreamINtNtB11_6option6OptionB2U_ENCNCINvMs6_B20_INtB20_6ClientNtB24_11TokenStreamB48_E7expand1NvCsi6DBJJHK2XK_13futures_macro22select_biased_internalE00E0EuEB4G_, symObjAddr: 0x2078, symBinAddr: 0xFC94, symSize: 0x50 }
  - { offset: 0x3535B, size: 0x8, addend: 0x0, symName: __RINvNvNtCsht3nMU9UgFu_3std9panicking12catch_unwind7do_callINtNtNtCsaNl6UpbT7bw_4core5panic11unwind_safe16AssertUnwindSafeNCINvNtNtCs7yrEGia95Wz_10proc_macro6bridge6client10run_clientNtB20_11TokenStreamINtNtB11_6option6OptionB2U_ENCNCINvMs6_B20_INtB20_6ClientNtB24_11TokenStreamB48_E7expand1NvCsi6DBJJHK2XK_13futures_macro22stream_select_internalE00E0EuEB4G_, symObjAddr: 0x20C8, symBinAddr: 0xFCE4, symSize: 0x50 }
  - { offset: 0x35423, size: 0x8, addend: 0x0, symName: __RINvNvNtCsht3nMU9UgFu_3std9panicking12catch_unwind7do_callINtNtNtCsaNl6UpbT7bw_4core5panic11unwind_safe16AssertUnwindSafeNCINvNtNtCs7yrEGia95Wz_10proc_macro6bridge6client10run_clientTNtB20_11TokenStreamB2V_EINtNtB11_6option6OptionB2V_ENCNCINvMs7_B20_INtB20_6ClientTNtB24_11TokenStreamB4f_EB4f_E7expand2NvCsi6DBJJHK2XK_13futures_macro13test_internalE00E0EuEB4S_, symObjAddr: 0x2118, symBinAddr: 0xFD34, symSize: 0x50 }
  - { offset: 0x354EB, size: 0x8, addend: 0x0, symName: __RINvNvNtCsht3nMU9UgFu_3std9panicking12catch_unwind8do_catchINtNtNtCsaNl6UpbT7bw_4core5panic11unwind_safe16AssertUnwindSafeNCINvNtNtCs7yrEGia95Wz_10proc_macro6bridge6client10run_clientNtB21_11TokenStreamINtNtB12_6option6OptionB2V_ENCNCINvMs6_B21_INtB21_6ClientNtB25_11TokenStreamB49_E7expand1NvCsi6DBJJHK2XK_13futures_macro13join_internalE00E0EuEB4H_, symObjAddr: 0x2168, symBinAddr: 0xFD84, symSize: 0x70 }
  - { offset: 0x35580, size: 0x8, addend: 0x0, symName: __RINvNvNtCsht3nMU9UgFu_3std9panicking12catch_unwind8do_catchINtNtNtCsaNl6UpbT7bw_4core5panic11unwind_safe16AssertUnwindSafeNCINvNtNtCs7yrEGia95Wz_10proc_macro6bridge6client10run_clientNtB21_11TokenStreamINtNtB12_6option6OptionB2V_ENCNCINvMs6_B21_INtB21_6ClientNtB25_11TokenStreamB49_E7expand1NvCsi6DBJJHK2XK_13futures_macro15select_internalE00E0EuEB4H_, symObjAddr: 0x21D8, symBinAddr: 0xFDF4, symSize: 0x70 }
  - { offset: 0x35615, size: 0x8, addend: 0x0, symName: __RINvNvNtCsht3nMU9UgFu_3std9panicking12catch_unwind8do_catchINtNtNtCsaNl6UpbT7bw_4core5panic11unwind_safe16AssertUnwindSafeNCINvNtNtCs7yrEGia95Wz_10proc_macro6bridge6client10run_clientNtB21_11TokenStreamINtNtB12_6option6OptionB2V_ENCNCINvMs6_B21_INtB21_6ClientNtB25_11TokenStreamB49_E7expand1NvCsi6DBJJHK2XK_13futures_macro17try_join_internalE00E0EuEB4H_, symObjAddr: 0x2248, symBinAddr: 0xFE64, symSize: 0x70 }
  - { offset: 0x356AA, size: 0x8, addend: 0x0, symName: __RINvNvNtCsht3nMU9UgFu_3std9panicking12catch_unwind8do_catchINtNtNtCsaNl6UpbT7bw_4core5panic11unwind_safe16AssertUnwindSafeNCINvNtNtCs7yrEGia95Wz_10proc_macro6bridge6client10run_clientNtB21_11TokenStreamINtNtB12_6option6OptionB2V_ENCNCINvMs6_B21_INtB21_6ClientNtB25_11TokenStreamB49_E7expand1NvCsi6DBJJHK2XK_13futures_macro22select_biased_internalE00E0EuEB4H_, symObjAddr: 0x22B8, symBinAddr: 0xFED4, symSize: 0x70 }
  - { offset: 0x3573F, size: 0x8, addend: 0x0, symName: __RINvNvNtCsht3nMU9UgFu_3std9panicking12catch_unwind8do_catchINtNtNtCsaNl6UpbT7bw_4core5panic11unwind_safe16AssertUnwindSafeNCINvNtNtCs7yrEGia95Wz_10proc_macro6bridge6client10run_clientNtB21_11TokenStreamINtNtB12_6option6OptionB2V_ENCNCINvMs6_B21_INtB21_6ClientNtB25_11TokenStreamB49_E7expand1NvCsi6DBJJHK2XK_13futures_macro22stream_select_internalE00E0EuEB4H_, symObjAddr: 0x2328, symBinAddr: 0xFF44, symSize: 0x70 }
  - { offset: 0x357D4, size: 0x8, addend: 0x0, symName: __RINvNvNtCsht3nMU9UgFu_3std9panicking12catch_unwind8do_catchINtNtNtCsaNl6UpbT7bw_4core5panic11unwind_safe16AssertUnwindSafeNCINvNtNtCs7yrEGia95Wz_10proc_macro6bridge6client10run_clientTNtB21_11TokenStreamB2W_EINtNtB12_6option6OptionB2W_ENCNCINvMs7_B21_INtB21_6ClientTNtB25_11TokenStreamB4g_EB4g_E7expand2NvCsi6DBJJHK2XK_13futures_macro13test_internalE00E0EuEB4T_, symObjAddr: 0x2398, symBinAddr: 0xFFB4, symSize: 0x70 }
  - { offset: 0x35A11, size: 0x8, addend: 0x0, symName: __RINvMNtCsaNl6UpbT7bw_4core6resultINtB3_6ResultNtCshnvkK9b4wzu_11proc_macro211TokenStreamNtNtCsc29TF2YcYso_3syn5error5ErrorE14unwrap_or_elseNvMB1q_B1o_18into_compile_errorECsi6DBJJHK2XK_13futures_macro, symObjAddr: 0xB4, symBinAddr: 0xDD18, symSize: 0x9C }
  - { offset: 0x35AB9, size: 0x8, addend: 0x0, symName: __RINvMNtCsc29TF2YcYso_3syn5errorNtB3_5Error11new_spannedNtCshnvkK9b4wzu_11proc_macro211TokenStreamReECsi6DBJJHK2XK_13futures_macro, symObjAddr: 0x150, symBinAddr: 0xDDB4, symSize: 0xBC }
  - { offset: 0x35AFC, size: 0x8, addend: 0x0, symName: __RINvMNtCsc29TF2YcYso_3syn5errorNtB3_5Error11new_spannedNtNtB5_5token2FnReECsi6DBJJHK2XK_13futures_macro, symObjAddr: 0x20C, symBinAddr: 0xDE70, symSize: 0xC0 }
  - { offset: 0x35BB5, size: 0x8, addend: 0x0, symName: __RINvMs3_NtNtCs7yrEGia95Wz_10proc_macro6bridge6bufferNtB6_6Buffer17extend_from_arrayKj4_ECsi6DBJJHK2XK_13futures_macro, symObjAddr: 0x2CC, symBinAddr: 0xDF30, symSize: 0x16C }
  - { offset: 0x35D3D, size: 0x8, addend: 0x0, symName: __RINvMs3_NtNtCs7yrEGia95Wz_10proc_macro6bridge6bufferNtB6_6Buffer17extend_from_arrayKj8_ECsi6DBJJHK2XK_13futures_macro, symObjAddr: 0x438, symBinAddr: 0xE09C, symSize: 0x16C }
  - { offset: 0x360B0, size: 0x8, addend: 0x0, symName: __RINvMs9_NtCsc29TF2YcYso_3syn5parseNtB6_11ParseBuffer4peekINvNtNtCsi6DBJJHK2XK_13futures_macro6select2kw8completeNtNtB8_9lookahead11TokenMarkerEEB10_, symObjAddr: 0x5A4, symBinAddr: 0xE208, symSize: 0x38 }
  - { offset: 0x360EB, size: 0x8, addend: 0x0, symName: __RINvMs9_NtCsc29TF2YcYso_3syn5parseNtB6_11ParseBuffer4stepNCNvXs0_NvNtNtCsi6DBJJHK2XK_13futures_macro6select2kw1__NtB13_8completeNtB6_5Parse5parse0B1N_EB17_, symObjAddr: 0x5DC, symBinAddr: 0xE240, symSize: 0x18C }
  - { offset: 0x36175, size: 0x8, addend: 0x0, symName: __RINvMs9_NtCsc29TF2YcYso_3syn5parseNtB6_11ParseBuffer5parseNtNtNtCsi6DBJJHK2XK_13futures_macro6select2kw8completeEB10_, symObjAddr: 0x768, symBinAddr: 0xE3CC, symSize: 0x34 }
  - { offset: 0x366D2, size: 0x8, addend: 0x0, symName: __RNvMNtCsc29TF2YcYso_3syn10punctuatedINtB2_10PunctuatedNtNtB4_4expr4ExprNtNtB4_5token5CommaE16parse_terminatedCsi6DBJJHK2XK_13futures_macro, symObjAddr: 0x3010, symBinAddr: 0x10C2C, symSize: 0x3C }
  - { offset: 0x36769, size: 0x8, addend: 0x0, symName: __RNvMNtCsc29TF2YcYso_3syn10punctuatedINtB2_10PunctuatedNtNtB4_4expr4ExprNtNtB4_5token5CommaE4iterCsi6DBJJHK2XK_13futures_macro, symObjAddr: 0x304C, symBinAddr: 0x10C68, symSize: 0xC8 }
  - { offset: 0x367D5, size: 0x8, addend: 0x0, symName: __RNvMNtCsc29TF2YcYso_3syn5dropsINtB2_6NoDropINtNtB4_10punctuated11PrivateIterNtNtB4_4expr4ExprNtNtB4_5token5CommaEE3newCsi6DBJJHK2XK_13futures_macro, symObjAddr: 0x3114, symBinAddr: 0x10D30, symSize: 0x40 }
  - { offset: 0x36904, size: 0x8, addend: 0x0, symName: __RNvMNtCsiTraAjBDcu4_5alloc6stringNtB2_6String6as_strCsi6DBJJHK2XK_13futures_macro, symObjAddr: 0x3154, symBinAddr: 0x10D70, symSize: 0x78 }
  - { offset: 0x36A29, size: 0x8, addend: 0x0, symName: __RNvMs1_NtNtCsaNl6UpbT7bw_4core3ptr8non_nullINtB5_7NonNullNtCshnvkK9b4wzu_11proc_macro25IdentE20offset_from_unsignedCsi6DBJJHK2XK_13futures_macro, symObjAddr: 0x31CC, symBinAddr: 0x10DE8, symSize: 0x7C }
  - { offset: 0x36B22, size: 0x8, addend: 0x0, symName: __RNvMs1_NtNtCsaNl6UpbT7bw_4core3ptr8non_nullINtB5_7NonNullNtNtCsc29TF2YcYso_3syn4expr4ExprE20offset_from_unsignedCsi6DBJJHK2XK_13futures_macro, symObjAddr: 0x3248, symBinAddr: 0x10E64, symSize: 0x7C }
  - { offset: 0x36C1B, size: 0x8, addend: 0x0, symName: __RNvMs1_NtNtCsaNl6UpbT7bw_4core3ptr8non_nullINtB5_7NonNullNtNtCsc29TF2YcYso_3syn4expr8ExprPathE20offset_from_unsignedCsi6DBJJHK2XK_13futures_macro, symObjAddr: 0x32C4, symBinAddr: 0x10EE0, symSize: 0x7C }
  - { offset: 0x36D40, size: 0x8, addend: 0x0, symName: __RNvMs1_NtNtCsaNl6UpbT7bw_4core3ptr8non_nullINtB5_7NonNullTNtNtCsc29TF2YcYso_3syn3pat3PatNtNtBY_4expr4ExprEE20offset_from_unsignedCsi6DBJJHK2XK_13futures_macro, symObjAddr: 0x3340, symBinAddr: 0x10F5C, symSize: 0x7C }
  - { offset: 0x36E39, size: 0x8, addend: 0x0, symName: __RNvMs1_NtNtCsaNl6UpbT7bw_4core3ptr8non_nullINtB5_7NonNullTNtNtCsc29TF2YcYso_3syn4expr4ExprNtNtBY_5token5CommaEE20offset_from_unsignedCsi6DBJJHK2XK_13futures_macro, symObjAddr: 0x33BC, symBinAddr: 0x10FD8, symSize: 0x7C }
  - { offset: 0x36F1B, size: 0x8, addend: 0x0, symName: __RNvMs3_NtNtCs7yrEGia95Wz_10proc_macro6bridge6bufferNtB5_6Buffer17extend_from_sliceCsi6DBJJHK2XK_13futures_macro, symObjAddr: 0x3438, symBinAddr: 0x11054, symSize: 0x164 }
  - { offset: 0x37099, size: 0x8, addend: 0x0, symName: __RNvMs3_NtNtCs7yrEGia95Wz_10proc_macro6bridge6bufferNtB5_6Buffer4pushCsi6DBJJHK2XK_13futures_macro, symObjAddr: 0x359C, symBinAddr: 0x111B8, symSize: 0x134 }
  - { offset: 0x37229, size: 0x8, addend: 0x0, symName: __RNvMs4_NtNtCsaNl6UpbT7bw_4core5slice4iterINtB5_4IterNtCshnvkK9b4wzu_11proc_macro211TokenStreamE3newCsi6DBJJHK2XK_13futures_macro, symObjAddr: 0x36D0, symBinAddr: 0x112EC, symSize: 0x50 }
  - { offset: 0x373CC, size: 0x8, addend: 0x0, symName: __RNvMs4_NtNtCsaNl6UpbT7bw_4core5slice4iterINtB5_4IterNtCshnvkK9b4wzu_11proc_macro25IdentE3newCsi6DBJJHK2XK_13futures_macro, symObjAddr: 0x3720, symBinAddr: 0x1133C, symSize: 0x58 }
  - { offset: 0x37596, size: 0x8, addend: 0x0, symName: __RNvMs4_NtNtCsaNl6UpbT7bw_4core5slice4iterINtB5_4IterNtNtCsc29TF2YcYso_3syn4expr5IndexE3newCsi6DBJJHK2XK_13futures_macro, symObjAddr: 0x3778, symBinAddr: 0x11394, symSize: 0x50 }
  - { offset: 0x37739, size: 0x8, addend: 0x0, symName: __RNvMs4_NtNtCsaNl6UpbT7bw_4core5slice4iterINtB5_4IterNtNtCsc29TF2YcYso_3syn4expr8ExprPathE3newCsi6DBJJHK2XK_13futures_macro, symObjAddr: 0x37C8, symBinAddr: 0x113E4, symSize: 0x58 }
  - { offset: 0x378D3, size: 0x8, addend: 0x0, symName: __RNvXNtCs4EAaWzSXu1l_5quote9to_tokensRNtNtCsc29TF2YcYso_3syn4expr5IndexNtB2_8ToTokens9to_tokensCsi6DBJJHK2XK_13futures_macro, symObjAddr: 0x3DE0, symBinAddr: 0x119F8, symSize: 0x40 }
  - { offset: 0x37912, size: 0x8, addend: 0x0, symName: __RNvXNtCs4EAaWzSXu1l_5quote9to_tokensRNtNtCsc29TF2YcYso_3syn4expr8ExprPathNtB2_8ToTokens9to_tokensCsi6DBJJHK2XK_13futures_macro, symObjAddr: 0x3E20, symBinAddr: 0x11A38, symSize: 0x40 }
  - { offset: 0x37957, size: 0x8, addend: 0x0, symName: __RNvYNtNtCsc29TF2YcYso_3syn5token2FnNtNtCs4EAaWzSXu1l_5quote9to_tokens8ToTokens15to_token_streamCsi6DBJJHK2XK_13futures_macro, symObjAddr: 0x6574, symBinAddr: 0x1417C, symSize: 0x8C }
  - { offset: 0x379A1, size: 0x8, addend: 0x0, symName: __RNvYNtNtCsc29TF2YcYso_3syn5token2FnNtNtCs4EAaWzSXu1l_5quote9to_tokens8ToTokens17into_token_streamCsi6DBJJHK2XK_13futures_macro, symObjAddr: 0x6600, symBinAddr: 0x14208, symSize: 0x54 }
  - { offset: 0x379E7, size: 0x8, addend: 0x0, symName: __RNvYINtNtNtCsaNl6UpbT7bw_4core5slice4iter4IterNtCshnvkK9b4wzu_11proc_macro25IdentENtNtNtCs4EAaWzSXu1l_5quote9___private3ext14RepIteratorExt15quote_into_iterCsi6DBJJHK2XK_13futures_macro, symObjAddr: 0x64A4, symBinAddr: 0x140AC, symSize: 0x2C }
  - { offset: 0x386E2, size: 0x8, addend: 0x0, symName: __RINvMsi_NtCsiTraAjBDcu4_5alloc3vecINtB6_3VecNtCshnvkK9b4wzu_11proc_macro25IdentE14extend_trustedINtNtNtNtCsaNl6UpbT7bw_4core4iter8adapters3map3MapINtNtNtB1F_3ops5range5RangejENCNvNtCsi6DBJJHK2XK_13futures_macro13stream_select13stream_select0EEB2T_, symObjAddr: 0x0, symBinAddr: 0x14684, symSize: 0x16C }
  - { offset: 0x3C677, size: 0x8, addend: 0x0, symName: __RNCINvNtNtCs7yrEGia95Wz_10proc_macro6bridge6client10run_clientNtB4_11TokenStreamINtNtCsaNl6UpbT7bw_4core6option6OptionBY_ENCNCINvMs6_B4_INtB4_6ClientNtB8_11TokenStreamB2n_E7expand1NvCsi6DBJJHK2XK_13futures_macro13join_internalE00E0B2U_, symObjAddr: 0x17D0, symBinAddr: 0x15E54, symSize: 0x324 }
  - { offset: 0x3C89C, size: 0x8, addend: 0x0, symName: __RNCINvNtNtCs7yrEGia95Wz_10proc_macro6bridge6client10run_clientNtB4_11TokenStreamINtNtCsaNl6UpbT7bw_4core6option6OptionBY_ENCNCINvMs6_B4_INtB4_6ClientNtB8_11TokenStreamB2n_E7expand1NvCsi6DBJJHK2XK_13futures_macro15select_internalE00E0B2U_, symObjAddr: 0x1AF4, symBinAddr: 0x16178, symSize: 0x324 }
  - { offset: 0x3CAC1, size: 0x8, addend: 0x0, symName: __RNCINvNtNtCs7yrEGia95Wz_10proc_macro6bridge6client10run_clientNtB4_11TokenStreamINtNtCsaNl6UpbT7bw_4core6option6OptionBY_ENCNCINvMs6_B4_INtB4_6ClientNtB8_11TokenStreamB2n_E7expand1NvCsi6DBJJHK2XK_13futures_macro17try_join_internalE00E0B2U_, symObjAddr: 0x1E18, symBinAddr: 0x1649C, symSize: 0x324 }
  - { offset: 0x3CCE6, size: 0x8, addend: 0x0, symName: __RNCINvNtNtCs7yrEGia95Wz_10proc_macro6bridge6client10run_clientNtB4_11TokenStreamINtNtCsaNl6UpbT7bw_4core6option6OptionBY_ENCNCINvMs6_B4_INtB4_6ClientNtB8_11TokenStreamB2n_E7expand1NvCsi6DBJJHK2XK_13futures_macro22select_biased_internalE00E0B2U_, symObjAddr: 0x213C, symBinAddr: 0x167C0, symSize: 0x324 }
  - { offset: 0x3CF0B, size: 0x8, addend: 0x0, symName: __RNCINvNtNtCs7yrEGia95Wz_10proc_macro6bridge6client10run_clientNtB4_11TokenStreamINtNtCsaNl6UpbT7bw_4core6option6OptionBY_ENCNCINvMs6_B4_INtB4_6ClientNtB8_11TokenStreamB2n_E7expand1NvCsi6DBJJHK2XK_13futures_macro22stream_select_internalE00E0B2U_, symObjAddr: 0x2460, symBinAddr: 0x16AE4, symSize: 0x324 }
  - { offset: 0x3D130, size: 0x8, addend: 0x0, symName: __RNCINvNtNtCs7yrEGia95Wz_10proc_macro6bridge6client10run_clientTNtB4_11TokenStreamBZ_EINtNtCsaNl6UpbT7bw_4core6option6OptionBZ_ENCNCINvMs7_B4_INtB4_6ClientTNtB8_11TokenStreamB2t_EB2t_E7expand2NvCsi6DBJJHK2XK_13futures_macro13test_internalE00E0B35_, symObjAddr: 0x2784, symBinAddr: 0x16E08, symSize: 0x344 }
  - { offset: 0x3D35A, size: 0x8, addend: 0x0, symName: __RNCNCINvNtNtCs7yrEGia95Wz_10proc_macro6bridge6client10run_clientNtB6_11TokenStreamINtNtCsaNl6UpbT7bw_4core6option6OptionB10_ENCNCINvMs6_B6_INtB6_6ClientNtBa_11TokenStreamB2q_E7expand1NvCsi6DBJJHK2XK_13futures_macro13join_internalE00E00B2X_, symObjAddr: 0x2BFC, symBinAddr: 0x17280, symSize: 0x28 }
  - { offset: 0x3D3B4, size: 0x8, addend: 0x0, symName: __RNCNCINvNtNtCs7yrEGia95Wz_10proc_macro6bridge6client10run_clientNtB6_11TokenStreamINtNtCsaNl6UpbT7bw_4core6option6OptionB10_ENCNCINvMs6_B6_INtB6_6ClientNtBa_11TokenStreamB2q_E7expand1NvCsi6DBJJHK2XK_13futures_macro15select_internalE00E00B2X_, symObjAddr: 0x2C24, symBinAddr: 0x172A8, symSize: 0x28 }
  - { offset: 0x3D40E, size: 0x8, addend: 0x0, symName: __RNCNCINvNtNtCs7yrEGia95Wz_10proc_macro6bridge6client10run_clientNtB6_11TokenStreamINtNtCsaNl6UpbT7bw_4core6option6OptionB10_ENCNCINvMs6_B6_INtB6_6ClientNtBa_11TokenStreamB2q_E7expand1NvCsi6DBJJHK2XK_13futures_macro17try_join_internalE00E00B2X_, symObjAddr: 0x2C4C, symBinAddr: 0x172D0, symSize: 0x28 }
  - { offset: 0x3D468, size: 0x8, addend: 0x0, symName: __RNCNCINvNtNtCs7yrEGia95Wz_10proc_macro6bridge6client10run_clientNtB6_11TokenStreamINtNtCsaNl6UpbT7bw_4core6option6OptionB10_ENCNCINvMs6_B6_INtB6_6ClientNtBa_11TokenStreamB2q_E7expand1NvCsi6DBJJHK2XK_13futures_macro22select_biased_internalE00E00B2X_, symObjAddr: 0x2C74, symBinAddr: 0x172F8, symSize: 0x28 }
  - { offset: 0x3D4C2, size: 0x8, addend: 0x0, symName: __RNCNCINvNtNtCs7yrEGia95Wz_10proc_macro6bridge6client10run_clientNtB6_11TokenStreamINtNtCsaNl6UpbT7bw_4core6option6OptionB10_ENCNCINvMs6_B6_INtB6_6ClientNtBa_11TokenStreamB2q_E7expand1NvCsi6DBJJHK2XK_13futures_macro22stream_select_internalE00E00B2X_, symObjAddr: 0x2C9C, symBinAddr: 0x17320, symSize: 0x28 }
  - { offset: 0x3D51C, size: 0x8, addend: 0x0, symName: __RNCNCINvNtNtCs7yrEGia95Wz_10proc_macro6bridge6client10run_clientTNtB6_11TokenStreamB11_EINtNtCsaNl6UpbT7bw_4core6option6OptionB11_ENCNCINvMs7_B6_INtB6_6ClientTNtBa_11TokenStreamB2x_EB2x_E7expand2NvCsi6DBJJHK2XK_13futures_macro13test_internalE00E00B39_, symObjAddr: 0x2CC4, symBinAddr: 0x17348, symSize: 0x24 }
  - { offset: 0x3D5E8, size: 0x8, addend: 0x0, symName: __RNCNCINvMs6_NtNtCs7yrEGia95Wz_10proc_macro6bridge6clientINtBa_6ClientNtBe_11TokenStreamB15_E7expand1NvCsi6DBJJHK2XK_13futures_macro13join_internalE00B1C_, symObjAddr: 0x2AC8, symBinAddr: 0x1714C, symSize: 0x30 }
  - { offset: 0x3D630, size: 0x8, addend: 0x0, symName: __RNCNCINvMs6_NtNtCs7yrEGia95Wz_10proc_macro6bridge6clientINtBa_6ClientNtBe_11TokenStreamB15_E7expand1NvCsi6DBJJHK2XK_13futures_macro15select_internalE00B1C_, symObjAddr: 0x2AF8, symBinAddr: 0x1717C, symSize: 0x30 }
  - { offset: 0x3D678, size: 0x8, addend: 0x0, symName: __RNCNCINvMs6_NtNtCs7yrEGia95Wz_10proc_macro6bridge6clientINtBa_6ClientNtBe_11TokenStreamB15_E7expand1NvCsi6DBJJHK2XK_13futures_macro17try_join_internalE00B1C_, symObjAddr: 0x2B28, symBinAddr: 0x171AC, symSize: 0x30 }
  - { offset: 0x3D6C0, size: 0x8, addend: 0x0, symName: __RNCNCINvMs6_NtNtCs7yrEGia95Wz_10proc_macro6bridge6clientINtBa_6ClientNtBe_11TokenStreamB15_E7expand1NvCsi6DBJJHK2XK_13futures_macro22select_biased_internalE00B1C_, symObjAddr: 0x2B58, symBinAddr: 0x171DC, symSize: 0x30 }
  - { offset: 0x3D708, size: 0x8, addend: 0x0, symName: __RNCNCINvMs6_NtNtCs7yrEGia95Wz_10proc_macro6bridge6clientINtBa_6ClientNtBe_11TokenStreamB15_E7expand1NvCsi6DBJJHK2XK_13futures_macro22stream_select_internalE00B1C_, symObjAddr: 0x2B88, symBinAddr: 0x1720C, symSize: 0x30 }
  - { offset: 0x3D751, size: 0x8, addend: 0x0, symName: __RNCINvMs6_NtNtCs7yrEGia95Wz_10proc_macro6bridge6clientINtB8_6ClientNtBc_11TokenStreamB13_E7expand1NvCsi6DBJJHK2XK_13futures_macro13join_internalE0B1A_, symObjAddr: 0x1564, symBinAddr: 0x15BE8, symSize: 0x30 }
  - { offset: 0x3D79A, size: 0x8, addend: 0x0, symName: __RNCINvMs6_NtNtCs7yrEGia95Wz_10proc_macro6bridge6clientINtB8_6ClientNtBc_11TokenStreamB13_E7expand1NvCsi6DBJJHK2XK_13futures_macro15select_internalE0B1A_, symObjAddr: 0x1594, symBinAddr: 0x15C18, symSize: 0x30 }
  - { offset: 0x3D7E3, size: 0x8, addend: 0x0, symName: __RNCINvMs6_NtNtCs7yrEGia95Wz_10proc_macro6bridge6clientINtB8_6ClientNtBc_11TokenStreamB13_E7expand1NvCsi6DBJJHK2XK_13futures_macro17try_join_internalE0B1A_, symObjAddr: 0x15C4, symBinAddr: 0x15C48, symSize: 0x30 }
  - { offset: 0x3D82C, size: 0x8, addend: 0x0, symName: __RNCINvMs6_NtNtCs7yrEGia95Wz_10proc_macro6bridge6clientINtB8_6ClientNtBc_11TokenStreamB13_E7expand1NvCsi6DBJJHK2XK_13futures_macro22select_biased_internalE0B1A_, symObjAddr: 0x15F4, symBinAddr: 0x15C78, symSize: 0x30 }
  - { offset: 0x3D875, size: 0x8, addend: 0x0, symName: __RNCINvMs6_NtNtCs7yrEGia95Wz_10proc_macro6bridge6clientINtB8_6ClientNtBc_11TokenStreamB13_E7expand1NvCsi6DBJJHK2XK_13futures_macro22stream_select_internalE0B1A_, symObjAddr: 0x1624, symBinAddr: 0x15CA8, symSize: 0x30 }
  - { offset: 0x3D8E1, size: 0x8, addend: 0x0, symName: __RINvNtNtCs7yrEGia95Wz_10proc_macro6bridge6client10run_clientNtB2_11TokenStreamINtNtCsaNl6UpbT7bw_4core6option6OptionBW_ENCNCINvMs6_B2_INtB2_6ClientNtB6_11TokenStreamB2l_E7expand1NvCsi6DBJJHK2XK_13futures_macro13join_internalE00EB2S_, symObjAddr: 0x728, symBinAddr: 0x14DAC, symSize: 0x21C }
  - { offset: 0x3DAB6, size: 0x8, addend: 0x0, symName: __RINvNtNtCs7yrEGia95Wz_10proc_macro6bridge6client10run_clientNtB2_11TokenStreamINtNtCsaNl6UpbT7bw_4core6option6OptionBW_ENCNCINvMs6_B2_INtB2_6ClientNtB6_11TokenStreamB2l_E7expand1NvCsi6DBJJHK2XK_13futures_macro15select_internalE00EB2S_, symObjAddr: 0x944, symBinAddr: 0x14FC8, symSize: 0x21C }
  - { offset: 0x3DC8B, size: 0x8, addend: 0x0, symName: __RINvNtNtCs7yrEGia95Wz_10proc_macro6bridge6client10run_clientNtB2_11TokenStreamINtNtCsaNl6UpbT7bw_4core6option6OptionBW_ENCNCINvMs6_B2_INtB2_6ClientNtB6_11TokenStreamB2l_E7expand1NvCsi6DBJJHK2XK_13futures_macro17try_join_internalE00EB2S_, symObjAddr: 0xB60, symBinAddr: 0x151E4, symSize: 0x21C }
  - { offset: 0x3DE60, size: 0x8, addend: 0x0, symName: __RINvNtNtCs7yrEGia95Wz_10proc_macro6bridge6client10run_clientNtB2_11TokenStreamINtNtCsaNl6UpbT7bw_4core6option6OptionBW_ENCNCINvMs6_B2_INtB2_6ClientNtB6_11TokenStreamB2l_E7expand1NvCsi6DBJJHK2XK_13futures_macro22select_biased_internalE00EB2S_, symObjAddr: 0xD7C, symBinAddr: 0x15400, symSize: 0x21C }
  - { offset: 0x3E035, size: 0x8, addend: 0x0, symName: __RINvNtNtCs7yrEGia95Wz_10proc_macro6bridge6client10run_clientNtB2_11TokenStreamINtNtCsaNl6UpbT7bw_4core6option6OptionBW_ENCNCINvMs6_B2_INtB2_6ClientNtB6_11TokenStreamB2l_E7expand1NvCsi6DBJJHK2XK_13futures_macro22stream_select_internalE00EB2S_, symObjAddr: 0xF98, symBinAddr: 0x1561C, symSize: 0x21C }
  - { offset: 0x3E22C, size: 0x8, addend: 0x0, symName: __RNCNCINvMs7_NtNtCs7yrEGia95Wz_10proc_macro6bridge6clientINtBa_6ClientTNtBe_11TokenStreamB16_EB16_E7expand2NvCsi6DBJJHK2XK_13futures_macro13test_internalE00B1I_, symObjAddr: 0x2BB8, symBinAddr: 0x1723C, symSize: 0x44 }
  - { offset: 0x3E29F, size: 0x8, addend: 0x0, symName: __RNCINvMs7_NtNtCs7yrEGia95Wz_10proc_macro6bridge6clientINtB8_6ClientTNtBc_11TokenStreamB14_EB14_E7expand2NvCsi6DBJJHK2XK_13futures_macro13test_internalE0B1G_, symObjAddr: 0x1654, symBinAddr: 0x15CD8, symSize: 0x30 }
  - { offset: 0x3E2EA, size: 0x8, addend: 0x0, symName: __RINvNtNtCs7yrEGia95Wz_10proc_macro6bridge6client10run_clientTNtB2_11TokenStreamBX_EINtNtCsaNl6UpbT7bw_4core6option6OptionBX_ENCNCINvMs7_B2_INtB2_6ClientTNtB6_11TokenStreamB2r_EB2r_E7expand2NvCsi6DBJJHK2XK_13futures_macro13test_internalE00EB33_, symObjAddr: 0x11B4, symBinAddr: 0x15838, symSize: 0x21C }
  - { offset: 0x3E4F1, size: 0x8, addend: 0x0, symName: __RNvXsf_NtNtCs7yrEGia95Wz_10proc_macro6bridge6clientNtB5_11TokenStreamINtNtB7_3rpc6EncodeuE6encodeCsi6DBJJHK2XK_13futures_macro, symObjAddr: 0x40C0, symBinAddr: 0x18744, symSize: 0x50 }
  - { offset: 0x3E602, size: 0x8, addend: 0x0, symName: __RNvXsi_NtNtCs7yrEGia95Wz_10proc_macro6bridge6clientNtB5_11TokenStreamINtNtB7_3rpc9DecodeMutuE6decodeCsi6DBJJHK2XK_13futures_macro, symObjAddr: 0x4110, symBinAddr: 0x18794, symSize: 0x2C }
  - { offset: 0x3E64B, size: 0x8, addend: 0x0, symName: __RNvXsk_NtNtCs7yrEGia95Wz_10proc_macro6bridge6clientNtB5_4SpanINtNtB7_3rpc9DecodeMutuE6decodeCsi6DBJJHK2XK_13futures_macro, symObjAddr: 0x413C, symBinAddr: 0x187C0, symSize: 0x2C }
  - { offset: 0x3E96C, size: 0x8, addend: 0x0, symName: __RNvXs9_NtNtCs7yrEGia95Wz_10proc_macro6bridge3rpcTNtNtB7_6client11TokenStreamBL_EINtB5_9DecodeMutuE6decodeCsi6DBJJHK2XK_13futures_macro, symObjAddr: 0x365C, symBinAddr: 0x17CE0, symSize: 0x80 }
  - { offset: 0x4064B, size: 0x8, addend: 0x0, symName: __RINvXsd_NtCsiTraAjBDcu4_5alloc3vecINtB6_3VecNtCshnvkK9b4wzu_11proc_macro25IdentEINtNtNtNtCsaNl6UpbT7bw_4core4iter6traits7collect12FromIteratorBG_E9from_iterINtNtNtB1n_8adapters3map3MapINtNtB2z_9enumerate9EnumerateINtNtB6_9into_iter8IntoIterNtNtCsc29TF2YcYso_3syn4expr4ExprEENCNvNtCsi6DBJJHK2XK_13futures_macro4join12bind_futures0EEB4u_, symObjAddr: 0x13D0, symBinAddr: 0x15A54, symSize: 0x3C }
  - { offset: 0x4068C, size: 0x8, addend: 0x0, symName: __RINvXsd_NtCsiTraAjBDcu4_5alloc3vecINtB6_3VecNtCshnvkK9b4wzu_11proc_macro25IdentEINtNtNtNtCsaNl6UpbT7bw_4core4iter6traits7collect12FromIteratorBG_E9from_iterINtNtNtB1n_8adapters3map3MapINtNtNtB1p_3ops5range5RangejENCNvNtCsi6DBJJHK2XK_13futures_macro13stream_select13stream_select0EEB3v_, symObjAddr: 0x140C, symBinAddr: 0x15A90, symSize: 0x38 }
  - { offset: 0x406CC, size: 0x8, addend: 0x0, symName: __RINvXsd_NtCsiTraAjBDcu4_5alloc3vecINtB6_3VecNtCshnvkK9b4wzu_11proc_macro25IdentEINtNtNtNtCsaNl6UpbT7bw_4core4iter6traits7collect12FromIteratorBG_E9from_iterINtNtNtB1n_8adapters3map3MapINtNtNtB1p_3ops5range5RangejENCNvNtCsi6DBJJHK2XK_13futures_macro13stream_select13stream_selects0_0EEB3v_, symObjAddr: 0x1444, symBinAddr: 0x15AC8, symSize: 0x38 }
  - { offset: 0x4070C, size: 0x8, addend: 0x0, symName: __RINvXsd_NtCsiTraAjBDcu4_5alloc3vecINtB6_3VecNtCshnvkK9b4wzu_11proc_macro25IdentEINtNtNtNtCsaNl6UpbT7bw_4core4iter6traits7collect12FromIteratorBG_E9from_iterINtNtNtB1n_8adapters3map3MapINtNtNtB1p_3ops5range5RangejENCNvNtCsi6DBJJHK2XK_13futures_macro13stream_select13stream_selects_0EEB3v_, symObjAddr: 0x147C, symBinAddr: 0x15B00, symSize: 0x38 }
  - { offset: 0x4074C, size: 0x8, addend: 0x0, symName: __RINvXsd_NtCsiTraAjBDcu4_5alloc3vecINtB6_3VecNtCshnvkK9b4wzu_11proc_macro25IdentEINtNtNtNtCsaNl6UpbT7bw_4core4iter6traits7collect12FromIteratorBG_E9from_iterINtNtNtB1n_8adapters3map3MapINtNtNtB1p_3ops5range5RangejENCNvNtCsi6DBJJHK2XK_13futures_macro6select19declare_result_enum0EEB3v_, symObjAddr: 0x14B4, symBinAddr: 0x15B38, symSize: 0x3C }
  - { offset: 0x4078D, size: 0x8, addend: 0x0, symName: __RINvXsd_NtCsiTraAjBDcu4_5alloc3vecINtB6_3VecNtNtCsc29TF2YcYso_3syn4expr5IndexEINtNtNtNtCsaNl6UpbT7bw_4core4iter6traits7collect12FromIteratorBG_E9from_iterINtNtNtB1l_8adapters3map3MapINtNtNtB1n_3ops5range5RangejENvYBG_INtNtB1n_7convert4FromjE4fromEECsi6DBJJHK2XK_13futures_macro, symObjAddr: 0x14F0, symBinAddr: 0x15B74, symSize: 0x38 }
  - { offset: 0x407CD, size: 0x8, addend: 0x0, symName: __RINvXsd_NtCsiTraAjBDcu4_5alloc3vecINtB6_3VecNtNtCsc29TF2YcYso_3syn4expr8ExprPathEINtNtNtNtCsaNl6UpbT7bw_4core4iter6traits7collect12FromIteratorBG_E9from_iterINtNtNtB1o_8adapters3map3MapINtNtB2A_3zip3ZipINtNtB6_9into_iter8IntoIterNtBI_4ExprEINtNtNtB1q_5slice4iter4IterNtCshnvkK9b4wzu_11proc_macro25IdentEENCNvNtCsi6DBJJHK2XK_13futures_macro6select12select_inner0EEB4Y_, symObjAddr: 0x1528, symBinAddr: 0x15BAC, symSize: 0x3C }
  - { offset: 0x40819, size: 0x8, addend: 0x0, symName: __RNCINvMsi_NtCsiTraAjBDcu4_5alloc3vecINtB8_3VecNtCshnvkK9b4wzu_11proc_macro25IdentE14extend_trustedINtNtNtNtCsaNl6UpbT7bw_4core4iter8adapters3map3MapINtNtNtB1H_3ops5range5RangejENCNvNtCsi6DBJJHK2XK_13futures_macro13stream_select13stream_select0EE0B2V_, symObjAddr: 0x1684, symBinAddr: 0x15D08, symSize: 0x44 }
  - { offset: 0x408C6, size: 0x8, addend: 0x0, symName: __RNCINvMsi_NtCsiTraAjBDcu4_5alloc3vecINtB8_3VecNtCshnvkK9b4wzu_11proc_macro25IdentE14extend_trustedINtNtNtNtCsaNl6UpbT7bw_4core4iter8adapters3map3MapINtNtNtB1H_3ops5range5RangejENCNvNtCsi6DBJJHK2XK_13futures_macro13stream_select13stream_selects0_0EE0B2V_, symObjAddr: 0x16C8, symBinAddr: 0x15D4C, symSize: 0x44 }
  - { offset: 0x40973, size: 0x8, addend: 0x0, symName: __RNCINvMsi_NtCsiTraAjBDcu4_5alloc3vecINtB8_3VecNtCshnvkK9b4wzu_11proc_macro25IdentE14extend_trustedINtNtNtNtCsaNl6UpbT7bw_4core4iter8adapters3map3MapINtNtNtB1H_3ops5range5RangejENCNvNtCsi6DBJJHK2XK_13futures_macro13stream_select13stream_selects_0EE0B2V_, symObjAddr: 0x170C, symBinAddr: 0x15D90, symSize: 0x44 }
  - { offset: 0x40A20, size: 0x8, addend: 0x0, symName: __RNCINvMsi_NtCsiTraAjBDcu4_5alloc3vecINtB8_3VecNtCshnvkK9b4wzu_11proc_macro25IdentE14extend_trustedINtNtNtNtCsaNl6UpbT7bw_4core4iter8adapters3map3MapINtNtNtB1H_3ops5range5RangejENCNvNtCsi6DBJJHK2XK_13futures_macro6select19declare_result_enum0EE0B2V_, symObjAddr: 0x1750, symBinAddr: 0x15DD4, symSize: 0x44 }
  - { offset: 0x40ACD, size: 0x8, addend: 0x0, symName: __RNCINvMsi_NtCsiTraAjBDcu4_5alloc3vecINtB8_3VecNtNtCsc29TF2YcYso_3syn4expr5IndexE14extend_trustedINtNtNtNtCsaNl6UpbT7bw_4core4iter8adapters3map3MapINtNtNtB1F_3ops5range5RangejENvYBI_INtNtB1F_7convert4FromjE4fromEE0Csi6DBJJHK2XK_13futures_macro, symObjAddr: 0x1794, symBinAddr: 0x15E18, symSize: 0x3C }
  - { offset: 0x414B7, size: 0x8, addend: 0x0, symName: __RNvXNtNtCsiTraAjBDcu4_5alloc3vec14spec_from_iterINtB4_3VecNtCshnvkK9b4wzu_11proc_macro25IdentEINtB2_12SpecFromIterBU_INtNtNtNtCsaNl6UpbT7bw_4core4iter8adapters3map3MapINtNtNtB20_3ops5range5RangejENCNvNtCsi6DBJJHK2XK_13futures_macro13stream_select13stream_select0EE9from_iterB3e_, symObjAddr: 0x345C, symBinAddr: 0x17AE0, symSize: 0x24 }
  - { offset: 0x414F5, size: 0x8, addend: 0x0, symName: __RNvXNtNtCsiTraAjBDcu4_5alloc3vec14spec_from_iterINtB4_3VecNtCshnvkK9b4wzu_11proc_macro25IdentEINtB2_12SpecFromIterBU_INtNtNtNtCsaNl6UpbT7bw_4core4iter8adapters3map3MapINtNtNtB20_3ops5range5RangejENCNvNtCsi6DBJJHK2XK_13futures_macro13stream_select13stream_selects0_0EE9from_iterB3e_, symObjAddr: 0x3480, symBinAddr: 0x17B04, symSize: 0x24 }
  - { offset: 0x41533, size: 0x8, addend: 0x0, symName: __RNvXNtNtCsiTraAjBDcu4_5alloc3vec14spec_from_iterINtB4_3VecNtCshnvkK9b4wzu_11proc_macro25IdentEINtB2_12SpecFromIterBU_INtNtNtNtCsaNl6UpbT7bw_4core4iter8adapters3map3MapINtNtNtB20_3ops5range5RangejENCNvNtCsi6DBJJHK2XK_13futures_macro13stream_select13stream_selects_0EE9from_iterB3e_, symObjAddr: 0x34A4, symBinAddr: 0x17B28, symSize: 0x24 }
  - { offset: 0x41571, size: 0x8, addend: 0x0, symName: __RNvXNtNtCsiTraAjBDcu4_5alloc3vec14spec_from_iterINtB4_3VecNtCshnvkK9b4wzu_11proc_macro25IdentEINtB2_12SpecFromIterBU_INtNtNtNtCsaNl6UpbT7bw_4core4iter8adapters3map3MapINtNtNtB20_3ops5range5RangejENCNvNtCsi6DBJJHK2XK_13futures_macro6select19declare_result_enum0EE9from_iterB3e_, symObjAddr: 0x34C8, symBinAddr: 0x17B4C, symSize: 0x14 }
  - { offset: 0x415B0, size: 0x8, addend: 0x0, symName: __RNvXNtNtCsiTraAjBDcu4_5alloc3vec14spec_from_iterINtB4_3VecNtNtCsc29TF2YcYso_3syn4expr5IndexEINtB2_12SpecFromIterBU_INtNtNtNtCsaNl6UpbT7bw_4core4iter8adapters3map3MapINtNtNtB1Y_3ops5range5RangejENvYBU_INtNtB1Y_7convert4FromjE4fromEE9from_iterCsi6DBJJHK2XK_13futures_macro, symObjAddr: 0x34DC, symBinAddr: 0x17B60, symSize: 0x24 }
  - { offset: 0x415F5, size: 0x8, addend: 0x0, symName: __RNvXs6_NtCsiTraAjBDcu4_5alloc3vecINtB5_3VecNtCshnvkK9b4wzu_11proc_macro211TokenStreamENtNtNtCsaNl6UpbT7bw_4core3ops5deref5Deref5derefCsi6DBJJHK2XK_13futures_macro, symObjAddr: 0x35A8, symBinAddr: 0x17C2C, symSize: 0x24 }
  - { offset: 0x41635, size: 0x8, addend: 0x0, symName: __RNvXs6_NtCsiTraAjBDcu4_5alloc3vecINtB5_3VecNtCshnvkK9b4wzu_11proc_macro25IdentENtNtNtCsaNl6UpbT7bw_4core3ops5deref5Deref5derefCsi6DBJJHK2XK_13futures_macro, symObjAddr: 0x35CC, symBinAddr: 0x17C50, symSize: 0x24 }
  - { offset: 0x41675, size: 0x8, addend: 0x0, symName: __RNvXs6_NtCsiTraAjBDcu4_5alloc3vecINtB5_3VecNtNtCsc29TF2YcYso_3syn4expr5IndexENtNtNtCsaNl6UpbT7bw_4core3ops5deref5Deref5derefCsi6DBJJHK2XK_13futures_macro, symObjAddr: 0x35F0, symBinAddr: 0x17C74, symSize: 0x24 }
  - { offset: 0x416B5, size: 0x8, addend: 0x0, symName: __RNvXs6_NtCsiTraAjBDcu4_5alloc3vecINtB5_3VecNtNtCsc29TF2YcYso_3syn4expr8ExprPathENtNtNtCsaNl6UpbT7bw_4core3ops5deref5Deref5derefCsi6DBJJHK2XK_13futures_macro, symObjAddr: 0x3614, symBinAddr: 0x17C98, symSize: 0x24 }
  - { offset: 0x416F5, size: 0x8, addend: 0x0, symName: __RNvXs6_NtCsiTraAjBDcu4_5alloc3vecINtB5_3VecNtNtCsc29TF2YcYso_3syn4stmt4StmtENtNtNtCsaNl6UpbT7bw_4core3ops5deref5Deref5derefCsi6DBJJHK2XK_13futures_macro, symObjAddr: 0x3638, symBinAddr: 0x17CBC, symSize: 0x24 }
  - { offset: 0x41740, size: 0x8, addend: 0x0, symName: __RNvXs_NtNtCsiTraAjBDcu4_5alloc3vec11spec_extendINtB6_3VecNtCshnvkK9b4wzu_11proc_macro25IdentEINtB4_10SpecExtendBT_INtNtNtNtCsaNl6UpbT7bw_4core4iter8adapters3map3MapINtNtNtB1X_3ops5range5RangejENCNvNtCsi6DBJJHK2XK_13futures_macro13stream_select13stream_select0EE11spec_extendB3b_, symObjAddr: 0x36DC, symBinAddr: 0x17D60, symSize: 0x2C }
  - { offset: 0x41791, size: 0x8, addend: 0x0, symName: __RNvXs_NtNtCsiTraAjBDcu4_5alloc3vec11spec_extendINtB6_3VecNtCshnvkK9b4wzu_11proc_macro25IdentEINtB4_10SpecExtendBT_INtNtNtNtCsaNl6UpbT7bw_4core4iter8adapters3map3MapINtNtNtB1X_3ops5range5RangejENCNvNtCsi6DBJJHK2XK_13futures_macro13stream_select13stream_selects0_0EE11spec_extendB3b_, symObjAddr: 0x3708, symBinAddr: 0x17D8C, symSize: 0x2C }
  - { offset: 0x417E2, size: 0x8, addend: 0x0, symName: __RNvXs_NtNtCsiTraAjBDcu4_5alloc3vec11spec_extendINtB6_3VecNtCshnvkK9b4wzu_11proc_macro25IdentEINtB4_10SpecExtendBT_INtNtNtNtCsaNl6UpbT7bw_4core4iter8adapters3map3MapINtNtNtB1X_3ops5range5RangejENCNvNtCsi6DBJJHK2XK_13futures_macro13stream_select13stream_selects_0EE11spec_extendB3b_, symObjAddr: 0x3734, symBinAddr: 0x17DB8, symSize: 0x2C }
  - { offset: 0x41833, size: 0x8, addend: 0x0, symName: __RNvXs_NtNtCsiTraAjBDcu4_5alloc3vec11spec_extendINtB6_3VecNtCshnvkK9b4wzu_11proc_macro25IdentEINtB4_10SpecExtendBT_INtNtNtNtCsaNl6UpbT7bw_4core4iter8adapters3map3MapINtNtNtB1X_3ops5range5RangejENCNvNtCsi6DBJJHK2XK_13futures_macro6select19declare_result_enum0EE11spec_extendB3b_, symObjAddr: 0x3760, symBinAddr: 0x17DE4, symSize: 0x24 }
  - { offset: 0x41885, size: 0x8, addend: 0x0, symName: __RNvXs_NtNtCsiTraAjBDcu4_5alloc3vec11spec_extendINtB6_3VecNtNtCsc29TF2YcYso_3syn4expr5IndexEINtB4_10SpecExtendBT_INtNtNtNtCsaNl6UpbT7bw_4core4iter8adapters3map3MapINtNtNtB1V_3ops5range5RangejENvYBT_INtNtB1V_7convert4FromjE4fromEE11spec_extendCsi6DBJJHK2XK_13futures_macro, symObjAddr: 0x3784, symBinAddr: 0x17E08, symSize: 0x2C }
  - { offset: 0x418E2, size: 0x8, addend: 0x0, symName: __RNvXs_NtNtCsiTraAjBDcu4_5alloc3vec16in_place_collectINtB6_3VecNtCshnvkK9b4wzu_11proc_macro25IdentEINtNtB6_14spec_from_iter12SpecFromIterBY_INtNtNtNtCsaNl6UpbT7bw_4core4iter8adapters3map3MapINtNtB2i_9enumerate9EnumerateINtNtB6_9into_iter8IntoIterNtNtCsc29TF2YcYso_3syn4expr4ExprEENCNvNtCsi6DBJJHK2XK_13futures_macro4join12bind_futures0EE9from_iterB4z_, symObjAddr: 0x37B0, symBinAddr: 0x17E34, symSize: 0x28 }
  - { offset: 0x4193E, size: 0x8, addend: 0x0, symName: __RNvXs_NtNtCsiTraAjBDcu4_5alloc3vec16in_place_collectINtB6_3VecNtNtCsc29TF2YcYso_3syn4expr8ExprPathEINtNtB6_14spec_from_iter12SpecFromIterBY_INtNtNtNtCsaNl6UpbT7bw_4core4iter8adapters3map3MapINtNtB2j_3zip3ZipINtNtB6_9into_iter8IntoIterNtB10_4ExprEINtNtNtB2n_5slice4iter4IterNtCshnvkK9b4wzu_11proc_macro25IdentEENCNvNtCsi6DBJJHK2XK_13futures_macro6select12select_inner0EE9from_iterB54_, symObjAddr: 0x37D8, symBinAddr: 0x17E5C, symSize: 0x28 }
  - { offset: 0x419A6, size: 0x8, addend: 0x0, symName: __RNvXs_NtNtCsiTraAjBDcu4_5alloc3vec21spec_from_iter_nestedINtB6_3VecNtCshnvkK9b4wzu_11proc_macro25IdentEINtB4_18SpecFromIterNestedB13_INtNtNtNtCsaNl6UpbT7bw_4core4iter8adapters3map3MapINtNtNtB2g_3ops5range5RangejENCNvNtCsi6DBJJHK2XK_13futures_macro13stream_select13stream_select0EE9from_iterB3u_, symObjAddr: 0x3800, symBinAddr: 0x17E84, symSize: 0x164 }
  - { offset: 0x41A7C, size: 0x8, addend: 0x0, symName: __RNvXs_NtNtCsiTraAjBDcu4_5alloc3vec21spec_from_iter_nestedINtB6_3VecNtCshnvkK9b4wzu_11proc_macro25IdentEINtB4_18SpecFromIterNestedB13_INtNtNtNtCsaNl6UpbT7bw_4core4iter8adapters3map3MapINtNtNtB2g_3ops5range5RangejENCNvNtCsi6DBJJHK2XK_13futures_macro13stream_select13stream_selects0_0EE9from_iterB3u_, symObjAddr: 0x3964, symBinAddr: 0x17FE8, symSize: 0x164 }
  - { offset: 0x41B52, size: 0x8, addend: 0x0, symName: __RNvXs_NtNtCsiTraAjBDcu4_5alloc3vec21spec_from_iter_nestedINtB6_3VecNtCshnvkK9b4wzu_11proc_macro25IdentEINtB4_18SpecFromIterNestedB13_INtNtNtNtCsaNl6UpbT7bw_4core4iter8adapters3map3MapINtNtNtB2g_3ops5range5RangejENCNvNtCsi6DBJJHK2XK_13futures_macro13stream_select13stream_selects_0EE9from_iterB3u_, symObjAddr: 0x3AC8, symBinAddr: 0x1814C, symSize: 0x164 }
  - { offset: 0x41C28, size: 0x8, addend: 0x0, symName: __RNvXs_NtNtCsiTraAjBDcu4_5alloc3vec21spec_from_iter_nestedINtB6_3VecNtCshnvkK9b4wzu_11proc_macro25IdentEINtB4_18SpecFromIterNestedB13_INtNtNtNtCsaNl6UpbT7bw_4core4iter8adapters3map3MapINtNtNtB2g_3ops5range5RangejENCNvNtCsi6DBJJHK2XK_13futures_macro6select19declare_result_enum0EE9from_iterB3u_, symObjAddr: 0x3C2C, symBinAddr: 0x182B0, symSize: 0x168 }
  - { offset: 0x41CFF, size: 0x8, addend: 0x0, symName: __RNvXs_NtNtCsiTraAjBDcu4_5alloc3vec21spec_from_iter_nestedINtB6_3VecNtNtCsc29TF2YcYso_3syn4expr5IndexEINtB4_18SpecFromIterNestedB13_INtNtNtNtCsaNl6UpbT7bw_4core4iter8adapters3map3MapINtNtNtB2e_3ops5range5RangejENvYB13_INtNtB2e_7convert4FromjE4fromEE9from_iterCsi6DBJJHK2XK_13futures_macro, symObjAddr: 0x3D94, symBinAddr: 0x18418, symSize: 0x164 }
  - { offset: 0x41DDC, size: 0x8, addend: 0x0, symName: __RNvXse_NtCsiTraAjBDcu4_5alloc3vecINtB5_3VecNtNtCsc29TF2YcYso_3syn4expr4ExprENtNtNtNtCsaNl6UpbT7bw_4core4iter6traits7collect12IntoIterator9into_iterCsi6DBJJHK2XK_13futures_macro, symObjAddr: 0x3EF8, symBinAddr: 0x1857C, symSize: 0xE4 }
  - { offset: 0x4206E, size: 0x8, addend: 0x0, symName: __RNvXse_NtCsiTraAjBDcu4_5alloc3vecINtB5_3VecTNtNtCsc29TF2YcYso_3syn3pat3PatNtNtBK_4expr4ExprEENtNtNtNtCsaNl6UpbT7bw_4core4iter6traits7collect12IntoIterator9into_iterCsi6DBJJHK2XK_13futures_macro, symObjAddr: 0x3FDC, symBinAddr: 0x18660, symSize: 0xE4 }
  - { offset: 0x42306, size: 0x8, addend: 0x0, symName: __RNvXsn_NtCsiTraAjBDcu4_5alloc3vecINtB5_3VecNtCshnvkK9b4wzu_11proc_macro211TokenStreamENtNtNtCsaNl6UpbT7bw_4core3ops4drop4Drop4dropCsi6DBJJHK2XK_13futures_macro, symObjAddr: 0x4168, symBinAddr: 0x187EC, symSize: 0x38 }
  - { offset: 0x423B6, size: 0x8, addend: 0x0, symName: __RNvXsn_NtCsiTraAjBDcu4_5alloc3vecINtB5_3VecNtCshnvkK9b4wzu_11proc_macro25IdentENtNtNtCsaNl6UpbT7bw_4core3ops4drop4Drop4dropCsi6DBJJHK2XK_13futures_macro, symObjAddr: 0x41A0, symBinAddr: 0x18824, symSize: 0x38 }
  - { offset: 0x42466, size: 0x8, addend: 0x0, symName: __RNvXsn_NtCsiTraAjBDcu4_5alloc3vecINtB5_3VecNtNtCsc29TF2YcYso_3syn4expr4ExprENtNtNtCsaNl6UpbT7bw_4core3ops4drop4Drop4dropCsi6DBJJHK2XK_13futures_macro, symObjAddr: 0x41D8, symBinAddr: 0x1885C, symSize: 0x38 }
  - { offset: 0x42516, size: 0x8, addend: 0x0, symName: __RNvXsn_NtCsiTraAjBDcu4_5alloc3vecINtB5_3VecNtNtCsc29TF2YcYso_3syn4expr5IndexENtNtNtCsaNl6UpbT7bw_4core3ops4drop4Drop4dropCsi6DBJJHK2XK_13futures_macro, symObjAddr: 0x4210, symBinAddr: 0x18894, symSize: 0x24 }
  - { offset: 0x425C6, size: 0x8, addend: 0x0, symName: __RNvXsn_NtCsiTraAjBDcu4_5alloc3vecINtB5_3VecNtNtCsc29TF2YcYso_3syn4expr8ExprPathENtNtNtCsaNl6UpbT7bw_4core3ops4drop4Drop4dropCsi6DBJJHK2XK_13futures_macro, symObjAddr: 0x4234, symBinAddr: 0x188B8, symSize: 0x38 }
  - { offset: 0x42676, size: 0x8, addend: 0x0, symName: __RNvXsn_NtCsiTraAjBDcu4_5alloc3vecINtB5_3VecTNtNtCsc29TF2YcYso_3syn3pat3PatNtNtBK_4expr4ExprEENtNtNtCsaNl6UpbT7bw_4core3ops4drop4Drop4dropCsi6DBJJHK2XK_13futures_macro, symObjAddr: 0x426C, symBinAddr: 0x188F0, symSize: 0x38 }
  - { offset: 0x4272C, size: 0x8, addend: 0x0, symName: __RNvXso_NtCsiTraAjBDcu4_5alloc3vecINtB5_3VecNtNtCsc29TF2YcYso_3syn4expr4ExprENtNtCsaNl6UpbT7bw_4core7default7Default7defaultCsi6DBJJHK2XK_13futures_macro, symObjAddr: 0x42A4, symBinAddr: 0x18928, symSize: 0x14 }
  - { offset: 0x4274E, size: 0x8, addend: 0x0, symName: __RNvXso_NtCsiTraAjBDcu4_5alloc3vecINtB5_3VecNtNtCsc29TF2YcYso_3syn4expr4ExprENtNtCsaNl6UpbT7bw_4core7default7Default7defaultCsi6DBJJHK2XK_13futures_macro, symObjAddr: 0x42A4, symBinAddr: 0x18928, symSize: 0x14 }
  - { offset: 0x42A33, size: 0x8, addend: 0x0, symName: __RINvMsi_NtCsiTraAjBDcu4_5alloc3vecINtB6_3VecNtCshnvkK9b4wzu_11proc_macro25IdentE14extend_trustedINtNtNtNtCsaNl6UpbT7bw_4core4iter8adapters3map3MapINtNtNtB1F_3ops5range5RangejENCNvNtCsi6DBJJHK2XK_13futures_macro13stream_select13stream_select0EEB2T_, symObjAddr: 0x0, symBinAddr: 0x14684, symSize: 0x16C }
  - { offset: 0x42CE8, size: 0x8, addend: 0x0, symName: __RINvMsi_NtCsiTraAjBDcu4_5alloc3vecINtB6_3VecNtCshnvkK9b4wzu_11proc_macro25IdentE14extend_trustedINtNtNtNtCsaNl6UpbT7bw_4core4iter8adapters3map3MapINtNtNtB1F_3ops5range5RangejENCNvNtCsi6DBJJHK2XK_13futures_macro13stream_select13stream_selects0_0EEB2T_, symObjAddr: 0x16C, symBinAddr: 0x147F0, symSize: 0x16C }
  - { offset: 0x42F9D, size: 0x8, addend: 0x0, symName: __RINvMsi_NtCsiTraAjBDcu4_5alloc3vecINtB6_3VecNtCshnvkK9b4wzu_11proc_macro25IdentE14extend_trustedINtNtNtNtCsaNl6UpbT7bw_4core4iter8adapters3map3MapINtNtNtB1F_3ops5range5RangejENCNvNtCsi6DBJJHK2XK_13futures_macro13stream_select13stream_selects_0EEB2T_, symObjAddr: 0x2D8, symBinAddr: 0x1495C, symSize: 0x16C }
  - { offset: 0x4325F, size: 0x8, addend: 0x0, symName: __RINvMsi_NtCsiTraAjBDcu4_5alloc3vecINtB6_3VecNtCshnvkK9b4wzu_11proc_macro25IdentE14extend_trustedINtNtNtNtCsaNl6UpbT7bw_4core4iter8adapters3map3MapINtNtNtB1F_3ops5range5RangejENCNvNtCsi6DBJJHK2XK_13futures_macro6select19declare_result_enum0EEB2T_, symObjAddr: 0x444, symBinAddr: 0x14AC8, symSize: 0x178 }
  - { offset: 0x48180, size: 0x8, addend: 0x0, symName: __RINvMsi_NtCsiTraAjBDcu4_5alloc3vecINtB6_3VecNtNtCsc29TF2YcYso_3syn4expr5IndexE14extend_trustedINtNtNtNtCsaNl6UpbT7bw_4core4iter8adapters3map3MapINtNtNtB1D_3ops5range5RangejENvYBG_INtNtB1D_7convert4FromjE4fromEECsi6DBJJHK2XK_13futures_macro, symObjAddr: 0x5BC, symBinAddr: 0x14C40, symSize: 0x16C }
  - { offset: 0x4919D, size: 0x8, addend: 0x0, symName: __RNvMNtCsiTraAjBDcu4_5alloc3vecINtB2_3VecNtCshnvkK9b4wzu_11proc_macro211TokenStreamE13with_capacityCsi6DBJJHK2XK_13futures_macro, symObjAddr: 0x2CE8, symBinAddr: 0x1736C, symSize: 0x48 }
  - { offset: 0x496D7, size: 0x8, addend: 0x0, symName: __RNvMNtCsiTraAjBDcu4_5alloc3vecINtB2_3VecNtNtCsc29TF2YcYso_3syn4expr4ExprE3newCsi6DBJJHK2XK_13futures_macro, symObjAddr: 0x2D30, symBinAddr: 0x173B4, symSize: 0x14 }
  - { offset: 0x49713, size: 0x8, addend: 0x0, symName: __RNvMNtCsiTraAjBDcu4_5alloc3vecINtB2_3VecTNtNtCsc29TF2YcYso_3syn3pat3PatNtNtBH_4expr4ExprEE3newCsi6DBJJHK2XK_13futures_macro, symObjAddr: 0x2D44, symBinAddr: 0x173C8, symSize: 0x14 }
  - { offset: 0x49843, size: 0x8, addend: 0x0, symName: __RNvMs_NtCsiTraAjBDcu4_5alloc3vecINtB4_3VecNtCshnvkK9b4wzu_11proc_macro211TokenStreamE4pushCsi6DBJJHK2XK_13futures_macro, symObjAddr: 0x2D58, symBinAddr: 0x173DC, symSize: 0x100 }
  - { offset: 0x49A9B, size: 0x8, addend: 0x0, symName: __RNvMs_NtCsiTraAjBDcu4_5alloc3vecINtB4_3VecNtCshnvkK9b4wzu_11proc_macro211TokenStreamE8as_sliceCsi6DBJJHK2XK_13futures_macro, symObjAddr: 0x2E58, symBinAddr: 0x174DC, symSize: 0x6C }
  - { offset: 0x49C85, size: 0x8, addend: 0x0, symName: __RNvMs_NtCsiTraAjBDcu4_5alloc3vecINtB4_3VecNtCshnvkK9b4wzu_11proc_macro25IdentE7reserveCsi6DBJJHK2XK_13futures_macro, symObjAddr: 0x2EC4, symBinAddr: 0x17548, symSize: 0xC8 }
  - { offset: 0x49E90, size: 0x8, addend: 0x0, symName: __RNvMs_NtCsiTraAjBDcu4_5alloc3vecINtB4_3VecNtCshnvkK9b4wzu_11proc_macro25IdentE8as_sliceCsi6DBJJHK2XK_13futures_macro, symObjAddr: 0x2F8C, symBinAddr: 0x17610, symSize: 0x6C }
  - { offset: 0x49F57, size: 0x8, addend: 0x0, symName: __RNvMs_NtCsiTraAjBDcu4_5alloc3vecINtB4_3VecNtNtCsc29TF2YcYso_3syn4expr4ExprE3lenCsi6DBJJHK2XK_13futures_macro, symObjAddr: 0x2FF8, symBinAddr: 0x1767C, symSize: 0x18 }
  - { offset: 0x4A09F, size: 0x8, addend: 0x0, symName: __RNvMs_NtCsiTraAjBDcu4_5alloc3vecINtB4_3VecNtNtCsc29TF2YcYso_3syn4expr4ExprE4pushCsi6DBJJHK2XK_13futures_macro, symObjAddr: 0x3010, symBinAddr: 0x17694, symSize: 0x120 }
  - { offset: 0x4A36C, size: 0x8, addend: 0x0, symName: __RNvMs_NtCsiTraAjBDcu4_5alloc3vecINtB4_3VecNtNtCsc29TF2YcYso_3syn4expr5IndexE7reserveCsi6DBJJHK2XK_13futures_macro, symObjAddr: 0x3130, symBinAddr: 0x177B4, symSize: 0xC8 }
  - { offset: 0x4A577, size: 0x8, addend: 0x0, symName: __RNvMs_NtCsiTraAjBDcu4_5alloc3vecINtB4_3VecNtNtCsc29TF2YcYso_3syn4expr5IndexE8as_sliceCsi6DBJJHK2XK_13futures_macro, symObjAddr: 0x31F8, symBinAddr: 0x1787C, symSize: 0x6C }
  - { offset: 0x4A6FC, size: 0x8, addend: 0x0, symName: __RNvMs_NtCsiTraAjBDcu4_5alloc3vecINtB4_3VecNtNtCsc29TF2YcYso_3syn4expr8ExprPathE8as_sliceCsi6DBJJHK2XK_13futures_macro, symObjAddr: 0x3264, symBinAddr: 0x178E8, symSize: 0x6C }
  - { offset: 0x4A881, size: 0x8, addend: 0x0, symName: __RNvMs_NtCsiTraAjBDcu4_5alloc3vecINtB4_3VecNtNtCsc29TF2YcYso_3syn4stmt4StmtE8as_sliceCsi6DBJJHK2XK_13futures_macro, symObjAddr: 0x32D0, symBinAddr: 0x17954, symSize: 0x6C }
  - { offset: 0x4AA4E, size: 0x8, addend: 0x0, symName: __RNvMs_NtCsiTraAjBDcu4_5alloc3vecINtB4_3VecTNtNtCsc29TF2YcYso_3syn3pat3PatNtNtBJ_4expr4ExprEE4pushCsi6DBJJHK2XK_13futures_macro, symObjAddr: 0x333C, symBinAddr: 0x179C0, symSize: 0x120 }
  - { offset: 0x4AC19, size: 0x8, addend: 0x0, symName: __RNvXs4_NtNtCs4EAaWzSXu1l_5quote9___private3extINtNtCsiTraAjBDcu4_5alloc3vec3VecNtCshnvkK9b4wzu_11proc_macro211TokenStreamENtB5_16RepAsIteratorExt15quote_into_iterCsi6DBJJHK2XK_13futures_macro, symObjAddr: 0x3500, symBinAddr: 0x17B84, symSize: 0x38 }
  - { offset: 0x4AC4E, size: 0x8, addend: 0x0, symName: __RNvXs4_NtNtCs4EAaWzSXu1l_5quote9___private3extINtNtCsiTraAjBDcu4_5alloc3vec3VecNtCshnvkK9b4wzu_11proc_macro25IdentENtB5_16RepAsIteratorExt15quote_into_iterCsi6DBJJHK2XK_13futures_macro, symObjAddr: 0x3538, symBinAddr: 0x17BBC, symSize: 0x38 }
  - { offset: 0x4AC83, size: 0x8, addend: 0x0, symName: __RNvXs4_NtNtCs4EAaWzSXu1l_5quote9___private3extINtNtCsiTraAjBDcu4_5alloc3vec3VecNtNtCsc29TF2YcYso_3syn4expr5IndexENtB5_16RepAsIteratorExt15quote_into_iterCsi6DBJJHK2XK_13futures_macro, symObjAddr: 0x3570, symBinAddr: 0x17BF4, symSize: 0x38 }
  - { offset: 0x4B660, size: 0x8, addend: 0x0, symName: __RNvNtCsi6DBJJHK2XK_13futures_macro13stream_select13stream_select, symObjAddr: 0x0, symBinAddr: 0x18990, symSize: 0x558C }
  - { offset: 0x4BFB2, size: 0x8, addend: 0x0, symName: __RNvNtCsi6DBJJHK2XK_13futures_macro13stream_select13stream_select, symObjAddr: 0x0, symBinAddr: 0x18990, symSize: 0x558C }
  - { offset: 0x4D2DA, size: 0x8, addend: 0x0, symName: __RNCNvNtCsi6DBJJHK2XK_13futures_macro13stream_select13stream_select0B5_, symObjAddr: 0x558C, symBinAddr: 0x1DF1C, symSize: 0x11C }
  - { offset: 0x4D360, size: 0x8, addend: 0x0, symName: __RNCNvNtCsi6DBJJHK2XK_13futures_macro13stream_select13stream_selects_0B5_, symObjAddr: 0x56A8, symBinAddr: 0x1E038, symSize: 0x11C }
  - { offset: 0x4D3E6, size: 0x8, addend: 0x0, symName: __RNCNvNtCsi6DBJJHK2XK_13futures_macro13stream_select13stream_selects0_0B5_, symObjAddr: 0x57C4, symBinAddr: 0x1E154, symSize: 0x11C }
  - { offset: 0x4D46C, size: 0x8, addend: 0x0, symName: __RNCNvNtCsi6DBJJHK2XK_13futures_macro13stream_select13stream_selects1_0B5_, symObjAddr: 0x58E0, symBinAddr: 0x1E270, symSize: 0x40 }
  - { offset: 0x559D0, size: 0x8, addend: 0x0, symName: __RINvNtNtCsiTraAjBDcu4_5alloc3vec16in_place_collect18from_iter_in_placeINtNtNtNtCsaNl6UpbT7bw_4core4iter8adapters3map3MapINtNtB1b_3zip3ZipINtNtB4_9into_iter8IntoIterNtNtCsc29TF2YcYso_3syn4expr4ExprEINtNtNtB1f_5slice4iter4IterNtCshnvkK9b4wzu_11proc_macro25IdentEENCNvNtCsi6DBJJHK2XK_13futures_macro6select12select_inner0ENtB2E_8ExprPathEB4h_, symObjAddr: 0x0, symBinAddr: 0x1E2B0, symSize: 0x40C }
  - { offset: 0x582F6, size: 0x8, addend: 0x0, symName: __RNvNvMs9_NtCsaNl6UpbT7bw_4core3numj13unchecked_add18precondition_checkCsi6DBJJHK2XK_13futures_macro, symObjAddr: 0x980, symBinAddr: 0x1EC30, symSize: 0xB0 }
  - { offset: 0x583B4, size: 0x8, addend: 0x0, symName: __RNvNvMs9_NtCsaNl6UpbT7bw_4core3numj13unchecked_mul18precondition_checkCsi6DBJJHK2XK_13futures_macro, symObjAddr: 0xA30, symBinAddr: 0x1ECE0, symSize: 0xAC }
  - { offset: 0x584C5, size: 0x8, addend: 0x0, symName: __RNvNvMs3_NtCsaNl6UpbT7bw_4core3numi13unchecked_neg18precondition_checkCsi6DBJJHK2XK_13futures_macro, symObjAddr: 0x8C8, symBinAddr: 0x1EB78, symSize: 0xB8 }
  - { offset: 0x59364, size: 0x8, addend: 0x0, symName: ___rustc_proc_macro_decls_d2e782c8d41eb9e2__, symObjAddr: 0x4FE8, symBinAddr: 0x1E0A98, symSize: 0x0 }
  - { offset: 0x5937C, size: 0x8, addend: 0x0, symName: __RNvXNtCsi6DBJJHK2XK_13futures_macro4joinNtB2_4JoinNtNtCsc29TF2YcYso_3syn5parse5Parse5parse, symObjAddr: 0xECC, symBinAddr: 0x1F17C, symSize: 0x278 }
  - { offset: 0x593EA, size: 0x8, addend: 0x0, symName: __RNvNtCsi6DBJJHK2XK_13futures_macro4join12bind_futures, symObjAddr: 0x1144, symBinAddr: 0x1F3F4, symSize: 0x16C }
  - { offset: 0x5945D, size: 0x8, addend: 0x0, symName: __RNCNvNtCsi6DBJJHK2XK_13futures_macro4join12bind_futures0B5_, symObjAddr: 0x12B0, symBinAddr: 0x1F560, symSize: 0x50C }
  - { offset: 0x595AE, size: 0x8, addend: 0x0, symName: __RNvNtCsi6DBJJHK2XK_13futures_macro4join4join, symObjAddr: 0x17BC, symBinAddr: 0x1FA6C, symSize: 0xC00 }
  - { offset: 0x598E0, size: 0x8, addend: 0x0, symName: __RNCNvNtCsi6DBJJHK2XK_13futures_macro4join4join0B5_, symObjAddr: 0x23BC, symBinAddr: 0x2066C, symSize: 0x26C }
  - { offset: 0x59941, size: 0x8, addend: 0x0, symName: __RNCNvNtCsi6DBJJHK2XK_13futures_macro4join4joins_0B5_, symObjAddr: 0x2628, symBinAddr: 0x208D8, symSize: 0x184 }
  - { offset: 0x5999B, size: 0x8, addend: 0x0, symName: __RNvNtCsi6DBJJHK2XK_13futures_macro4join8try_join, symObjAddr: 0x27AC, symBinAddr: 0x20A5C, symSize: 0xDC4 }
  - { offset: 0x59D0F, size: 0x8, addend: 0x0, symName: __RNCNvNtCsi6DBJJHK2XK_13futures_macro4join8try_join0B5_, symObjAddr: 0x3570, symBinAddr: 0x21820, symSize: 0x8F8 }
  - { offset: 0x59DF4, size: 0x8, addend: 0x0, symName: __RNCNvNtCsi6DBJJHK2XK_13futures_macro4join8try_joins_0B5_, symObjAddr: 0x3E68, symBinAddr: 0x22118, symSize: 0x304 }
  - { offset: 0x59E7F, size: 0x8, addend: 0x0, symName: __RNvXs_NtCsi6DBJJHK2XK_13futures_macro4joinNtB4_4JoinNtNtCsaNl6UpbT7bw_4core7default7Default7defaultB6_, symObjAddr: 0x42D8, symBinAddr: 0x22588, symSize: 0x38 }
  - { offset: 0x59EB3, size: 0x8, addend: 0x0, symName: __RNvCsi6DBJJHK2XK_13futures_macro13join_internal, symObjAddr: 0x416C, symBinAddr: 0x2241C, symSize: 0x30 }
  - { offset: 0x59EDF, size: 0x8, addend: 0x0, symName: __RNvCsi6DBJJHK2XK_13futures_macro17try_join_internal, symObjAddr: 0x419C, symBinAddr: 0x2244C, symSize: 0x30 }
  - { offset: 0x59F0B, size: 0x8, addend: 0x0, symName: __RNvCsi6DBJJHK2XK_13futures_macro15select_internal, symObjAddr: 0x41CC, symBinAddr: 0x2247C, symSize: 0x30 }
  - { offset: 0x59F37, size: 0x8, addend: 0x0, symName: __RNvCsi6DBJJHK2XK_13futures_macro22select_biased_internal, symObjAddr: 0x41FC, symBinAddr: 0x224AC, symSize: 0x30 }
  - { offset: 0x59F63, size: 0x8, addend: 0x0, symName: __RNvCsi6DBJJHK2XK_13futures_macro13test_internal, symObjAddr: 0x422C, symBinAddr: 0x224DC, symSize: 0x34 }
  - { offset: 0x59F9D, size: 0x8, addend: 0x0, symName: __RNvCsi6DBJJHK2XK_13futures_macro22stream_select_internal, symObjAddr: 0x4260, symBinAddr: 0x22510, symSize: 0x78 }
  - { offset: 0x5A543, size: 0x8, addend: 0x0, symName: __RNvXNtNtCs7yrEGia95Wz_10proc_macro6bridge3rpcuINtB2_6EncodeuE6encodeCsi6DBJJHK2XK_13futures_macro, symObjAddr: 0xADC, symBinAddr: 0x1ED8C, symSize: 0x14 }
  - { offset: 0x5A5BC, size: 0x8, addend: 0x0, symName: __RNvXsa_NtNtCs7yrEGia95Wz_10proc_macro6bridge3rpcRShINtB5_6EncodeuE6encodeCsi6DBJJHK2XK_13futures_macro, symObjAddr: 0xB8C, symBinAddr: 0x1EE3C, symSize: 0xD8 }
  - { offset: 0x5A6BE, size: 0x8, addend: 0x0, symName: __RNvXsc_NtNtCs7yrEGia95Wz_10proc_macro6bridge3rpcReINtB5_6EncodeuE6encodeCsi6DBJJHK2XK_13futures_macro, symObjAddr: 0xC64, symBinAddr: 0x1EF14, symSize: 0x38 }
  - { offset: 0x5A7A6, size: 0x8, addend: 0x0, symName: __RNvXsl_NtNtCs7yrEGia95Wz_10proc_macro6bridge3rpcNtB5_12PanicMessageINtB5_6EncodeuE6encodeCsi6DBJJHK2XK_13futures_macro, symObjAddr: 0xC9C, symBinAddr: 0x1EF4C, symSize: 0x128 }
  - { offset: 0x5A96C, size: 0x8, addend: 0x0, symName: __RNvXso_NtNtCs7yrEGia95Wz_10proc_macro6bridge3rpcmINtB5_9DecodeMutuE6decodeCsi6DBJJHK2XK_13futures_macro, symObjAddr: 0xDC4, symBinAddr: 0x1F074, symSize: 0x108 }
  - { offset: 0x5AF94, size: 0x8, addend: 0x0, symName: __RNvXsF_NtCshnvkK9b4wzu_11proc_macro23impNtB5_5IdentNtNtCsaNl6UpbT7bw_4core5clone5Clone5cloneCsi6DBJJHK2XK_13futures_macro, symObjAddr: 0xAF0, symBinAddr: 0x1EDA0, symSize: 0x9C }
  - { offset: 0x5B416, size: 0x8, addend: 0x0, symName: __RINvNtNtCsiTraAjBDcu4_5alloc3vec16in_place_collect18from_iter_in_placeINtNtNtNtCsaNl6UpbT7bw_4core4iter8adapters3map3MapINtNtB1b_3zip3ZipINtNtB4_9into_iter8IntoIterNtNtCsc29TF2YcYso_3syn4expr4ExprEINtNtNtB1f_5slice4iter4IterNtCshnvkK9b4wzu_11proc_macro25IdentEENCNvNtCsi6DBJJHK2XK_13futures_macro6select12select_inner0ENtB2E_8ExprPathEB4h_, symObjAddr: 0x0, symBinAddr: 0x1E2B0, symSize: 0x40C }
  - { offset: 0x5BA3B, size: 0x8, addend: 0x0, symName: __RINvNtNtCsiTraAjBDcu4_5alloc3vec16in_place_collect18from_iter_in_placeINtNtNtNtCsaNl6UpbT7bw_4core4iter8adapters3map3MapINtNtB1b_9enumerate9EnumerateINtNtB4_9into_iter8IntoIterNtNtCsc29TF2YcYso_3syn4expr4ExprEENCNvNtCsi6DBJJHK2XK_13futures_macro4join12bind_futures0ENtCshnvkK9b4wzu_11proc_macro25IdentEB3s_, symObjAddr: 0x40C, symBinAddr: 0x1E6BC, symSize: 0x40C }
  - { offset: 0x5C02C, size: 0x8, addend: 0x0, symName: __RNCINvNtNtCsiTraAjBDcu4_5alloc3vec16in_place_collect24write_in_place_with_dropNtCshnvkK9b4wzu_11proc_macro25IdentE0Csi6DBJJHK2XK_13futures_macro, symObjAddr: 0x818, symBinAddr: 0x1EAC8, symSize: 0x50 }
  - { offset: 0x5C0AD, size: 0x8, addend: 0x0, symName: __RNCINvNtNtCsiTraAjBDcu4_5alloc3vec16in_place_collect24write_in_place_with_dropNtNtCsc29TF2YcYso_3syn4expr8ExprPathE0Csi6DBJJHK2XK_13futures_macro, symObjAddr: 0x868, symBinAddr: 0x1EB18, symSize: 0x60 }
  - { offset: 0x643D4, size: 0x8, addend: 0x0, symName: __RNvXNtNtCsc29TF2YcYso_3syn4item7parsingNtB4_4ItemNtNtB6_5parse5Parse5parse, symObjAddr: 0x35A4, symBinAddr: 0x22AD0, symSize: 0x1B4 }
  - { offset: 0x6447A, size: 0x8, addend: 0x0, symName: __RNvXs0_NtNtCsc29TF2YcYso_3syn4item7parsingNtB7_9ItemMacroNtNtB9_5parse5Parse5parse, symObjAddr: 0x3758, symBinAddr: 0x22C84, symSize: 0x628 }
  - { offset: 0x64648, size: 0x8, addend: 0x0, symName: __RNvXs1_NtNtCsc29TF2YcYso_3syn4item7parsingNtB7_15ItemExternCrateNtNtB9_5parse5Parse5parse, symObjAddr: 0x3D80, symBinAddr: 0x232AC, symSize: 0x93C }
  - { offset: 0x64852, size: 0x8, addend: 0x0, symName: __RNvXs3_NtNtCsc29TF2YcYso_3syn4item7parsingNtB7_7UseTreeNtNtB9_5parse5Parse5parse, symObjAddr: 0x4714, symBinAddr: 0x23BE8, symSize: 0x58 }
  - { offset: 0x648A4, size: 0x8, addend: 0x0, symName: __RNvXs6_NtNtCsc29TF2YcYso_3syn4item7parsingNtB7_9SignatureNtNtB9_5parse5Parse5parse, symObjAddr: 0x5C94, symBinAddr: 0x23C40, symSize: 0x60 }
  - { offset: 0x648F6, size: 0x8, addend: 0x0, symName: __RNvXs7_NtNtCsc29TF2YcYso_3syn4item7parsingNtB7_6ItemFnNtNtB9_5parse5Parse5parse, symObjAddr: 0x5CF4, symBinAddr: 0x23CA0, symSize: 0x364 }
  - { offset: 0x64A29, size: 0x8, addend: 0x0, symName: __RNvXs9_NtNtCsc29TF2YcYso_3syn4item7parsingNtB7_8ReceiverNtNtB9_5parse5Parse5parse, symObjAddr: 0x6324, symBinAddr: 0x24004, symSize: 0x94C }
  - { offset: 0x64C8A, size: 0x8, addend: 0x0, symName: __RNvXsa_NtNtCsc29TF2YcYso_3syn4item7parsingNtB7_7ItemModNtNtB9_5parse5Parse5parse, symObjAddr: 0x6C70, symBinAddr: 0x24950, symSize: 0xC34 }
  - { offset: 0x64EED, size: 0x8, addend: 0x0, symName: __RNvXsb_NtNtCsc29TF2YcYso_3syn4item7parsingNtB7_14ItemForeignModNtNtB9_5parse5Parse5parse, symObjAddr: 0x78A4, symBinAddr: 0x25584, symSize: 0x610 }
  - { offset: 0x6509E, size: 0x8, addend: 0x0, symName: __RNvXsc_NtNtCsc29TF2YcYso_3syn4item7parsingNtB7_11ForeignItemNtNtB9_5parse5Parse5parse, symObjAddr: 0x7EB4, symBinAddr: 0x25B94, symSize: 0x1D8C }
  - { offset: 0x6570E, size: 0x8, addend: 0x0, symName: __RNvXsg_NtNtCsc29TF2YcYso_3syn4item7parsingNtB7_16ForeignItemMacroNtNtB9_5parse5Parse5parse, symObjAddr: 0xAF68, symBinAddr: 0x27920, symSize: 0x32C }
  - { offset: 0x65822, size: 0x8, addend: 0x0, symName: __RNvXsi_NtNtCsc29TF2YcYso_3syn4item7parsingNtB7_10ItemStructNtNtB9_5parse5Parse5parse, symObjAddr: 0xBC6C, symBinAddr: 0x27C4C, symSize: 0x638 }
  - { offset: 0x65A1F, size: 0x8, addend: 0x0, symName: __RNvXsj_NtNtCsc29TF2YcYso_3syn4item7parsingNtB7_8ItemEnumNtNtB9_5parse5Parse5parse, symObjAddr: 0xC2A4, symBinAddr: 0x28284, symSize: 0x63C }
  - { offset: 0x65C1C, size: 0x8, addend: 0x0, symName: __RNvXsk_NtNtCsc29TF2YcYso_3syn4item7parsingNtB7_9ItemUnionNtNtB9_5parse5Parse5parse, symObjAddr: 0xC8E0, symBinAddr: 0x288C0, symSize: 0x62C }
  - { offset: 0x65E08, size: 0x8, addend: 0x0, symName: __RNvXsl_NtNtCsc29TF2YcYso_3syn4item7parsingNtB7_9ItemTraitNtNtB9_5parse5Parse5parse, symObjAddr: 0xCF0C, symBinAddr: 0x28EEC, symSize: 0x634 }
  - { offset: 0x6600F, size: 0x8, addend: 0x0, symName: __RNvXsn_NtNtCsc29TF2YcYso_3syn4item7parsingNtB7_9TraitItemNtNtB9_5parse5Parse5parse, symObjAddr: 0xD7B0, symBinAddr: 0x29520, symSize: 0x1648 }
  - { offset: 0x66483, size: 0x8, addend: 0x0, symName: __RNvXsp_NtNtCsc29TF2YcYso_3syn4item7parsingNtB7_11TraitItemFnNtNtB9_5parse5Parse5parse, symObjAddr: 0xF66C, symBinAddr: 0x2AB68, symSize: 0x7DC }
  - { offset: 0x6668F, size: 0x8, addend: 0x0, symName: __RNvXsr_NtNtCsc29TF2YcYso_3syn4item7parsingNtB7_14TraitItemMacroNtNtB9_5parse5Parse5parse, symObjAddr: 0x1056C, symBinAddr: 0x2B344, symSize: 0x32C }
  - { offset: 0x667A3, size: 0x8, addend: 0x0, symName: __RNvXst_NtNtCsc29TF2YcYso_3syn4item7parsingNtB7_8ImplItemNtNtB9_5parse5Parse5parse, symObjAddr: 0x108F8, symBinAddr: 0x2B670, symSize: 0x1A6C }
  - { offset: 0x66CCD, size: 0x8, addend: 0x0, symName: __RNvXsx_NtNtCsc29TF2YcYso_3syn4item7parsingNtB7_13ImplItemMacroNtNtB9_5parse5Parse5parse, symObjAddr: 0x135D4, symBinAddr: 0x2D0DC, symSize: 0x32C }
  - { offset: 0x66DE1, size: 0x8, addend: 0x0, symName: __RNvXsz_NtNtCsc29TF2YcYso_3syn4item7parsingNtB7_16StaticMutabilityNtNtB9_5parse5Parse5parse, symObjAddr: 0x13900, symBinAddr: 0x2D408, symSize: 0xDC }
  - { offset: 0x66E57, size: 0x8, addend: 0x0, symName: __RNvXNtNtCsc29TF2YcYso_3syn4item8printingNtB4_15ItemExternCrateNtNtCs4EAaWzSXu1l_5quote9to_tokens8ToTokens9to_tokens, symObjAddr: 0x139DC, symBinAddr: 0x2D4E4, symSize: 0x10C }
  - { offset: 0x66EC4, size: 0x8, addend: 0x0, symName: __RNvXs_NtNtCsc29TF2YcYso_3syn4item8printingNtB6_7ItemUseNtNtCs4EAaWzSXu1l_5quote9to_tokens8ToTokens9to_tokens, symObjAddr: 0x13AE8, symBinAddr: 0x2D5F0, symSize: 0xA4 }
  - { offset: 0x66F03, size: 0x8, addend: 0x0, symName: __RNvXs0_NtNtCsc29TF2YcYso_3syn4item8printingNtB7_10ItemStaticNtNtCs4EAaWzSXu1l_5quote9to_tokens8ToTokens9to_tokens, symObjAddr: 0x13B8C, symBinAddr: 0x2D694, symSize: 0xE4 }
  - { offset: 0x66F42, size: 0x8, addend: 0x0, symName: __RNvXs1_NtNtCsc29TF2YcYso_3syn4item8printingNtB7_9ItemConstNtNtCs4EAaWzSXu1l_5quote9to_tokens8ToTokens9to_tokens, symObjAddr: 0x13C70, symBinAddr: 0x2D778, symSize: 0xD4 }
  - { offset: 0x66F81, size: 0x8, addend: 0x0, symName: __RNvXs2_NtNtCsc29TF2YcYso_3syn4item8printingNtB7_6ItemFnNtNtCs4EAaWzSXu1l_5quote9to_tokens8ToTokens9to_tokens, symObjAddr: 0x13D44, symBinAddr: 0x2D84C, symSize: 0xDC }
  - { offset: 0x66FC0, size: 0x8, addend: 0x0, symName: __RNvXs3_NtNtCsc29TF2YcYso_3syn4item8printingNtB7_7ItemModNtNtCs4EAaWzSXu1l_5quote9to_tokens8ToTokens9to_tokens, symObjAddr: 0x13E20, symBinAddr: 0x2D928, symSize: 0x10C }
  - { offset: 0x6702D, size: 0x8, addend: 0x0, symName: __RNvXs4_NtNtCsc29TF2YcYso_3syn4item8printingNtB7_14ItemForeignModNtNtCs4EAaWzSXu1l_5quote9to_tokens8ToTokens9to_tokens, symObjAddr: 0x13F2C, symBinAddr: 0x2DA34, symSize: 0x88 }
  - { offset: 0x6706C, size: 0x8, addend: 0x0, symName: __RNvXs5_NtNtCsc29TF2YcYso_3syn4item8printingNtB7_8ItemTypeNtNtCs4EAaWzSXu1l_5quote9to_tokens8ToTokens9to_tokens, symObjAddr: 0x13FB4, symBinAddr: 0x2DABC, symSize: 0xD4 }
  - { offset: 0x670AB, size: 0x8, addend: 0x0, symName: __RNvXs6_NtNtCsc29TF2YcYso_3syn4item8printingNtB7_8ItemEnumNtNtCs4EAaWzSXu1l_5quote9to_tokens8ToTokens9to_tokens, symObjAddr: 0x14088, symBinAddr: 0x2DB90, symSize: 0xB8 }
  - { offset: 0x670EA, size: 0x8, addend: 0x0, symName: __RNvXs7_NtNtCsc29TF2YcYso_3syn4item8printingNtB7_10ItemStructNtNtCs4EAaWzSXu1l_5quote9to_tokens8ToTokens9to_tokens, symObjAddr: 0x14140, symBinAddr: 0x2DC48, symSize: 0x188 }
  - { offset: 0x67165, size: 0x8, addend: 0x0, symName: __RNvXs8_NtNtCsc29TF2YcYso_3syn4item8printingNtB7_9ItemUnionNtNtCs4EAaWzSXu1l_5quote9to_tokens8ToTokens9to_tokens, symObjAddr: 0x142C8, symBinAddr: 0x2DDD0, symSize: 0xB4 }
  - { offset: 0x671A4, size: 0x8, addend: 0x0, symName: __RNvXs9_NtNtCsc29TF2YcYso_3syn4item8printingNtB7_9ItemTraitNtNtCs4EAaWzSXu1l_5quote9to_tokens8ToTokens9to_tokens, symObjAddr: 0x1437C, symBinAddr: 0x2DE84, symSize: 0x130 }
  - { offset: 0x671E3, size: 0x8, addend: 0x0, symName: __RNvXsa_NtNtCsc29TF2YcYso_3syn4item8printingNtB7_14ItemTraitAliasNtNtCs4EAaWzSXu1l_5quote9to_tokens8ToTokens9to_tokens, symObjAddr: 0x144AC, symBinAddr: 0x2DFB4, symSize: 0xD4 }
  - { offset: 0x67222, size: 0x8, addend: 0x0, symName: __RNvXsb_NtNtCsc29TF2YcYso_3syn4item8printingNtB7_8ItemImplNtNtCs4EAaWzSXu1l_5quote9to_tokens8ToTokens9to_tokens, symObjAddr: 0x14580, symBinAddr: 0x2E088, symSize: 0x148 }
  - { offset: 0x6729F, size: 0x8, addend: 0x0, symName: __RNvXsc_NtNtCsc29TF2YcYso_3syn4item8printingNtB7_9ItemMacroNtNtCs4EAaWzSXu1l_5quote9to_tokens8ToTokens9to_tokens, symObjAddr: 0x146C8, symBinAddr: 0x2E1D0, symSize: 0x148 }
  - { offset: 0x67330, size: 0x8, addend: 0x0, symName: __RNvXsd_NtNtCsc29TF2YcYso_3syn4item8printingNtB7_7UsePathNtNtCs4EAaWzSXu1l_5quote9to_tokens8ToTokens9to_tokens, symObjAddr: 0x14810, symBinAddr: 0x2E318, symSize: 0x60 }
  - { offset: 0x6736F, size: 0x8, addend: 0x0, symName: __RNvXse_NtNtCsc29TF2YcYso_3syn4item8printingNtB7_7UseNameNtNtCs4EAaWzSXu1l_5quote9to_tokens8ToTokens9to_tokens, symObjAddr: 0x14870, symBinAddr: 0x2E378, symSize: 0x3C }
  - { offset: 0x673AE, size: 0x8, addend: 0x0, symName: __RNvXsf_NtNtCsc29TF2YcYso_3syn4item8printingNtB7_9UseRenameNtNtCs4EAaWzSXu1l_5quote9to_tokens8ToTokens9to_tokens, symObjAddr: 0x148AC, symBinAddr: 0x2E3B4, symSize: 0x60 }
  - { offset: 0x673ED, size: 0x8, addend: 0x0, symName: __RNvXsg_NtNtCsc29TF2YcYso_3syn4item8printingNtB7_7UseGlobNtNtCs4EAaWzSXu1l_5quote9to_tokens8ToTokens9to_tokens, symObjAddr: 0x1490C, symBinAddr: 0x2E414, symSize: 0x3C }
  - { offset: 0x6742C, size: 0x8, addend: 0x0, symName: __RNvXsh_NtNtCsc29TF2YcYso_3syn4item8printingNtB7_8UseGroupNtNtCs4EAaWzSXu1l_5quote9to_tokens8ToTokens9to_tokens, symObjAddr: 0x14948, symBinAddr: 0x2E450, symSize: 0x44 }
  - { offset: 0x6746B, size: 0x8, addend: 0x0, symName: __RNvXsi_NtNtCsc29TF2YcYso_3syn4item8printingNtB7_14TraitItemConstNtNtCs4EAaWzSXu1l_5quote9to_tokens8ToTokens9to_tokens, symObjAddr: 0x1498C, symBinAddr: 0x2E494, symSize: 0x10C }
  - { offset: 0x674D8, size: 0x8, addend: 0x0, symName: __RNvXsj_NtNtCsc29TF2YcYso_3syn4item8printingNtB7_11TraitItemFnNtNtCs4EAaWzSXu1l_5quote9to_tokens8ToTokens9to_tokens, symObjAddr: 0x14A98, symBinAddr: 0x2E5A0, symSize: 0xD4 }
  - { offset: 0x67535, size: 0x8, addend: 0x0, symName: __RNvXsk_NtNtCsc29TF2YcYso_3syn4item8printingNtB7_13TraitItemTypeNtNtCs4EAaWzSXu1l_5quote9to_tokens8ToTokens9to_tokens, symObjAddr: 0x14B6C, symBinAddr: 0x2E674, symSize: 0x164 }
  - { offset: 0x675A2, size: 0x8, addend: 0x0, symName: __RNvXsl_NtNtCsc29TF2YcYso_3syn4item8printingNtB7_14TraitItemMacroNtNtCs4EAaWzSXu1l_5quote9to_tokens8ToTokens9to_tokens, symObjAddr: 0x14CD0, symBinAddr: 0x2E7D8, symSize: 0x74 }
  - { offset: 0x675E1, size: 0x8, addend: 0x0, symName: __RNvXsm_NtNtCsc29TF2YcYso_3syn4item8printingNtB7_13ImplItemConstNtNtCs4EAaWzSXu1l_5quote9to_tokens8ToTokens9to_tokens, symObjAddr: 0x14D44, symBinAddr: 0x2E84C, symSize: 0xE4 }
  - { offset: 0x67620, size: 0x8, addend: 0x0, symName: __RNvXsn_NtNtCsc29TF2YcYso_3syn4item8printingNtB7_10ImplItemFnNtNtCs4EAaWzSXu1l_5quote9to_tokens8ToTokens9to_tokens, symObjAddr: 0x14E28, symBinAddr: 0x2E930, symSize: 0x98 }
  - { offset: 0x6765F, size: 0x8, addend: 0x0, symName: __RNvXso_NtNtCsc29TF2YcYso_3syn4item8printingNtB7_12ImplItemTypeNtNtCs4EAaWzSXu1l_5quote9to_tokens8ToTokens9to_tokens, symObjAddr: 0x14EC0, symBinAddr: 0x2E9C8, symSize: 0xE4 }
  - { offset: 0x6769E, size: 0x8, addend: 0x0, symName: __RNvXsp_NtNtCsc29TF2YcYso_3syn4item8printingNtB7_13ImplItemMacroNtNtCs4EAaWzSXu1l_5quote9to_tokens8ToTokens9to_tokens, symObjAddr: 0x14FA4, symBinAddr: 0x2EAAC, symSize: 0x74 }
  - { offset: 0x676DD, size: 0x8, addend: 0x0, symName: __RNvXsq_NtNtCsc29TF2YcYso_3syn4item8printingNtB7_13ForeignItemFnNtNtCs4EAaWzSXu1l_5quote9to_tokens8ToTokens9to_tokens, symObjAddr: 0x15018, symBinAddr: 0x2EB20, symSize: 0x84 }
  - { offset: 0x6771C, size: 0x8, addend: 0x0, symName: __RNvXsr_NtNtCsc29TF2YcYso_3syn4item8printingNtB7_17ForeignItemStaticNtNtCs4EAaWzSXu1l_5quote9to_tokens8ToTokens9to_tokens, symObjAddr: 0x1509C, symBinAddr: 0x2EBA4, symSize: 0xC4 }
  - { offset: 0x6775B, size: 0x8, addend: 0x0, symName: __RNvXss_NtNtCsc29TF2YcYso_3syn4item8printingNtB7_15ForeignItemTypeNtNtCs4EAaWzSXu1l_5quote9to_tokens8ToTokens9to_tokens, symObjAddr: 0x15160, symBinAddr: 0x2EC68, symSize: 0xB4 }
  - { offset: 0x6779A, size: 0x8, addend: 0x0, symName: __RNvXst_NtNtCsc29TF2YcYso_3syn4item8printingNtB7_16ForeignItemMacroNtNtCs4EAaWzSXu1l_5quote9to_tokens8ToTokens9to_tokens, symObjAddr: 0x15214, symBinAddr: 0x2ED1C, symSize: 0x74 }
  - { offset: 0x677D9, size: 0x8, addend: 0x0, symName: __RNvXsu_NtNtCsc29TF2YcYso_3syn4item8printingNtB7_9SignatureNtNtCs4EAaWzSXu1l_5quote9to_tokens8ToTokens9to_tokens, symObjAddr: 0x15288, symBinAddr: 0x2ED90, symSize: 0xD4 }
  - { offset: 0x67818, size: 0x8, addend: 0x0, symName: __RNvXsv_NtNtCsc29TF2YcYso_3syn4item8printingNtB7_8ReceiverNtNtCs4EAaWzSXu1l_5quote9to_tokens8ToTokens9to_tokens, symObjAddr: 0x1535C, symBinAddr: 0x2EE64, symSize: 0x450 }
  - { offset: 0x67910, size: 0x8, addend: 0x0, symName: __RNvXsw_NtNtCsc29TF2YcYso_3syn4item8printingNtB7_8VariadicNtNtCs4EAaWzSXu1l_5quote9to_tokens8ToTokens9to_tokens, symObjAddr: 0x157AC, symBinAddr: 0x2F2B4, symSize: 0xDC }
  - { offset: 0x6797D, size: 0x8, addend: 0x0, symName: __RNvXsx_NtNtCsc29TF2YcYso_3syn4item8printingNtB7_16StaticMutabilityNtNtCs4EAaWzSXu1l_5quote9to_tokens8ToTokens9to_tokens, symObjAddr: 0x15888, symBinAddr: 0x2F390, symSize: 0x84 }
  - { offset: 0x679E0, size: 0x8, addend: 0x0, symName: __RNcNtNtNtCsc29TF2YcYso_3syn4item4Item4Enum0B7_, symObjAddr: 0x1590C, symBinAddr: 0x2F414, symSize: 0x3C }
  - { offset: 0x67A0F, size: 0x8, addend: 0x0, symName: __RNcNtNtNtCsc29TF2YcYso_3syn4item4Item11ExternCrate0B7_, symObjAddr: 0x15948, symBinAddr: 0x2F450, symSize: 0x3C }
  - { offset: 0x67A3E, size: 0x8, addend: 0x0, symName: __RNcNtNtNtCsc29TF2YcYso_3syn4item4Item2Fn0B7_, symObjAddr: 0x15984, symBinAddr: 0x2F48C, symSize: 0x30 }
  - { offset: 0x67A6D, size: 0x8, addend: 0x0, symName: __RNcNtNtNtCsc29TF2YcYso_3syn4item4Item10ForeignMod0B7_, symObjAddr: 0x159B4, symBinAddr: 0x2F4BC, symSize: 0x3C }
  - { offset: 0x67A9C, size: 0x8, addend: 0x0, symName: __RNcNtNtNtCsc29TF2YcYso_3syn4item4Item5Macro0B7_, symObjAddr: 0x159F0, symBinAddr: 0x2F4F8, symSize: 0x3C }
  - { offset: 0x67ACB, size: 0x8, addend: 0x0, symName: __RNcNtNtNtCsc29TF2YcYso_3syn4item4Item3Mod0B7_, symObjAddr: 0x15A2C, symBinAddr: 0x2F534, symSize: 0x3C }
  - { offset: 0x67AFA, size: 0x8, addend: 0x0, symName: __RNcNtNtNtCsc29TF2YcYso_3syn4item4Item6Struct0B7_, symObjAddr: 0x15A68, symBinAddr: 0x2F570, symSize: 0x3C }
  - { offset: 0x67B29, size: 0x8, addend: 0x0, symName: __RNcNtNtNtCsc29TF2YcYso_3syn4item4Item5Trait0B7_, symObjAddr: 0x15AA4, symBinAddr: 0x2F5AC, symSize: 0x3C }
  - { offset: 0x67B58, size: 0x8, addend: 0x0, symName: __RNcNtNtNtCsc29TF2YcYso_3syn4item4Item10TraitAlias0B7_, symObjAddr: 0x15AE0, symBinAddr: 0x2F5E8, symSize: 0x3C }
  - { offset: 0x67B87, size: 0x8, addend: 0x0, symName: __RNcNtNtNtCsc29TF2YcYso_3syn4item4Item5Union0B7_, symObjAddr: 0x15B1C, symBinAddr: 0x2F624, symSize: 0x3C }
  - { offset: 0x67BB7, size: 0x8, addend: 0x0, symName: __RNvXsk_NtCsc29TF2YcYso_3syn4itemNtB5_4ItemNtNtCs4EAaWzSXu1l_5quote9to_tokens8ToTokens9to_tokens, symObjAddr: 0x15FC0, symBinAddr: 0x2F660, symSize: 0x230 }
  - { offset: 0x67DC9, size: 0x8, addend: 0x0, symName: __RNvXsq_NtCsc29TF2YcYso_3syn4itemNtB5_7UseTreeNtNtCs4EAaWzSXu1l_5quote9to_tokens8ToTokens9to_tokens, symObjAddr: 0x1633C, symBinAddr: 0x2F890, symSize: 0x10C }
  - { offset: 0x67E9B, size: 0x8, addend: 0x0, symName: __RNcNtNtNtCsc29TF2YcYso_3syn4item11ForeignItem5Macro0B7_, symObjAddr: 0x16448, symBinAddr: 0x2F99C, symSize: 0x3C }
  - { offset: 0x67ECD, size: 0x8, addend: 0x0, symName: __RNvXsv_NtCsc29TF2YcYso_3syn4itemNtB5_11ForeignItemNtNtCs4EAaWzSXu1l_5quote9to_tokens8ToTokens9to_tokens, symObjAddr: 0x165A8, symBinAddr: 0x2F9D8, symSize: 0x118 }
  - { offset: 0x67F9F, size: 0x8, addend: 0x0, symName: __RNcNtNtNtCsc29TF2YcYso_3syn4item9TraitItem2Fn0B7_, symObjAddr: 0x166C0, symBinAddr: 0x2FAF0, symSize: 0x3C }
  - { offset: 0x67FD0, size: 0x8, addend: 0x0, symName: __RNcNtNtNtCsc29TF2YcYso_3syn4item9TraitItem5Macro0B7_, symObjAddr: 0x166FC, symBinAddr: 0x2FB2C, symSize: 0x3C }
  - { offset: 0x68002, size: 0x8, addend: 0x0, symName: __RNvXsA_NtCsc29TF2YcYso_3syn4itemNtB5_9TraitItemNtNtCs4EAaWzSXu1l_5quote9to_tokens8ToTokens9to_tokens, symObjAddr: 0x1685C, symBinAddr: 0x2FB68, symSize: 0x118 }
  - { offset: 0x680D4, size: 0x8, addend: 0x0, symName: __RNcNtNtNtCsc29TF2YcYso_3syn4item8ImplItem5Macro0B7_, symObjAddr: 0x16974, symBinAddr: 0x2FC80, symSize: 0x3C }
  - { offset: 0x68106, size: 0x8, addend: 0x0, symName: __RNvXsF_NtCsc29TF2YcYso_3syn4itemNtB5_8ImplItemNtNtCs4EAaWzSXu1l_5quote9to_tokens8ToTokens9to_tokens, symObjAddr: 0x16AD4, symBinAddr: 0x2FCBC, symSize: 0x118 }
  - { offset: 0x681D3, size: 0x8, addend: 0x0, symName: __RNvXsI_NtCsc29TF2YcYso_3syn4itemNtB5_5FnArgNtNtCs4EAaWzSXu1l_5quote9to_tokens8ToTokens9to_tokens, symObjAddr: 0x16C78, symBinAddr: 0x2FDD4, symSize: 0x8C }
  - { offset: 0x6824E, size: 0x8, addend: 0x0, symName: __RNcNtNtNtCsc29TF2YcYso_3syn4item16StaticMutability3Mut0B7_, symObjAddr: 0x16D04, symBinAddr: 0x2FE60, symSize: 0x20 }
  - { offset: 0x70954, size: 0x8, addend: 0x0, symName: __RNvMNtCsaNl6UpbT7bw_4core5sliceSTNtNtCsc29TF2YcYso_3syn4item5FnArgNtNtBz_5token5CommaE4iterBz_, symObjAddr: 0x14B0, symBinAddr: 0x225D8, symSize: 0x28 }
  - { offset: 0x7098B, size: 0x8, addend: 0x0, symName: __RNvMNtCsaNl6UpbT7bw_4core5sliceSTNtNtCsc29TF2YcYso_3syn4item7UseTreeNtNtBz_5token5CommaE4iterBz_, symObjAddr: 0x14D8, symBinAddr: 0x22600, symSize: 0x28 }
  - { offset: 0x71ED5, size: 0x8, addend: 0x0, symName: __RNvXNtCs4EAaWzSXu1l_5quote9to_tokensRNtNtCsc29TF2YcYso_3syn4item11ForeignItemNtB2_8ToTokens9to_tokensBD_, symObjAddr: 0x1500, symBinAddr: 0x22628, symSize: 0x40 }
  - { offset: 0x71F14, size: 0x8, addend: 0x0, symName: __RNvXNtCs4EAaWzSXu1l_5quote9to_tokensRNtNtCsc29TF2YcYso_3syn4item4ItemNtB2_8ToTokens9to_tokensBD_, symObjAddr: 0x1540, symBinAddr: 0x22668, symSize: 0x40 }
  - { offset: 0x71F53, size: 0x8, addend: 0x0, symName: __RNvXNtCs4EAaWzSXu1l_5quote9to_tokensRNtNtCsc29TF2YcYso_3syn4item5FnArgNtB2_8ToTokens9to_tokensBD_, symObjAddr: 0x1580, symBinAddr: 0x226A8, symSize: 0x40 }
  - { offset: 0x71F92, size: 0x8, addend: 0x0, symName: __RNvXNtCs4EAaWzSXu1l_5quote9to_tokensRNtNtCsc29TF2YcYso_3syn4item7UseTreeNtB2_8ToTokens9to_tokensBD_, symObjAddr: 0x15C0, symBinAddr: 0x226E8, symSize: 0x40 }
  - { offset: 0x71FD1, size: 0x8, addend: 0x0, symName: __RNvXNtCs4EAaWzSXu1l_5quote9to_tokensRNtNtCsc29TF2YcYso_3syn4item8ImplItemNtB2_8ToTokens9to_tokensBD_, symObjAddr: 0x1600, symBinAddr: 0x22728, symSize: 0x40 }
  - { offset: 0x72010, size: 0x8, addend: 0x0, symName: __RNvXNtCs4EAaWzSXu1l_5quote9to_tokensRNtNtCsc29TF2YcYso_3syn4item9TraitItemNtB2_8ToTokens9to_tokensBD_, symObjAddr: 0x1640, symBinAddr: 0x22768, symSize: 0x40 }
  - { offset: 0x72052, size: 0x8, addend: 0x0, symName: __RNvMNtCsc29TF2YcYso_3syn4itemNtB2_4Item13replace_attrs, symObjAddr: 0x2CE8, symBinAddr: 0x227A8, symSize: 0x328 }
  - { offset: 0x72629, size: 0x8, addend: 0x0, symName: __RINvMs_NtCsiTraAjBDcu4_5alloc3vecINtB5_3VecReE10retain_mutNCNvMNtCsc29TF2YcYso_3syn9lookaheadNtBZ_10Lookahead15error0EB11_, symObjAddr: 0x0, symBinAddr: 0x2FE80, symSize: 0xE4 }
  - { offset: 0x79B48, size: 0x8, addend: 0x0, symName: __RNvXs1_NtCsaNl6UpbT7bw_4core7convertINtNtCsiTraAjBDcu4_5alloc3vec3VechEINtB5_4IntoBy_E4intoCsc29TF2YcYso_3syn, symObjAddr: 0x6F84, symBinAddr: 0x347E0, symSize: 0x18 }
  - { offset: 0x79D85, size: 0x8, addend: 0x0, symName: __RINvNvMs_NtCsiTraAjBDcu4_5alloc3vecINtB7_3VecppE10retain_mut12process_loopNCNvMNtCsc29TF2YcYso_3syn9lookaheadNtB1f_10Lookahead15error0ReNtNtB9_5alloc6GlobalKb0_EB1h_, symObjAddr: 0xC48, symBinAddr: 0x30454, symSize: 0xCC }
  - { offset: 0x79ED9, size: 0x8, addend: 0x0, symName: __RINvNvMs_NtCsiTraAjBDcu4_5alloc3vecINtB7_3VecppE10retain_mut12process_loopNCNvMNtCsc29TF2YcYso_3syn9lookaheadNtB1f_10Lookahead15error0ReNtNtB9_5alloc6GlobalKb1_EB1h_, symObjAddr: 0xD14, symBinAddr: 0x30520, symSize: 0x170 }
  - { offset: 0x7A0CF, size: 0x8, addend: 0x0, symName: __RNvXNvMs_NtCsiTraAjBDcu4_5alloc3vecINtB7_3VecppE10retain_mutINtB2_15BackshiftOnDropReNtNtB9_5alloc6GlobalENtNtNtCsaNl6UpbT7bw_4core3ops4drop4Drop4dropCsc29TF2YcYso_3syn, symObjAddr: 0x6B78, symBinAddr: 0x3449C, symSize: 0x12C }
  - { offset: 0x7CB3E, size: 0x8, addend: 0x0, symName: __RINvXsh_NtCsiTraAjBDcu4_5alloc3vecINtB6_3VecNtCshnvkK9b4wzu_11proc_macro29TokenTreeEINtNtNtNtCsaNl6UpbT7bw_4core4iter6traits7collect6ExtendBG_E6extendINtNtNtB1r_8adapters7flatten7FlattenINtNtB2t_3map3MapIB2Z_IB2Z_INtNtNtB1t_5slice4iter4IterNtNtCsc29TF2YcYso_3syn5error12ErrorMessageENvMs_B3S_B3Q_16to_compile_errorENCINvXs7_BI_NtBI_11TokenStreamINtB1n_12FromIteratorB5f_E9from_iterB3k_E0ENCINvXs6_NtBI_3impNtB6n_11TokenStreamIB5y_B6w_E9from_iterB3f_Es_0EEEB3U_, symObjAddr: 0xEC0, symBinAddr: 0x30690, symSize: 0x48 }
  - { offset: 0x7CB93, size: 0x8, addend: 0x0, symName: __RINvXsh_NtCsiTraAjBDcu4_5alloc3vecINtB6_3VecNtNtCsc29TF2YcYso_3syn4attr9AttributeEINtNtNtNtCsaNl6UpbT7bw_4core4iter6traits7collect6ExtendBG_E6extendBw_EBK_, symObjAddr: 0xF08, symBinAddr: 0x306D8, symSize: 0x48 }
  - { offset: 0x7CBE8, size: 0x8, addend: 0x0, symName: __RINvXsh_NtCsiTraAjBDcu4_5alloc3vecINtB6_3VecNtNtCsc29TF2YcYso_3syn8generics14TypeParamBoundEINtNtNtNtCsaNl6UpbT7bw_4core4iter6traits7collect6ExtendBG_E6extendINtNtB1B_6option6OptionBG_EEBK_, symObjAddr: 0x1078, symBinAddr: 0x30720, symSize: 0x48 }
  - { offset: 0x7CC3D, size: 0x8, addend: 0x0, symName: __RINvXsh_NtCsiTraAjBDcu4_5alloc3vecINtB6_3VecNtNtCsc29TF2YcYso_3syn8generics14TypeParamBoundEINtNtNtNtCsaNl6UpbT7bw_4core4iter6traits7collect6ExtendBG_E6extendINtNtNtB1z_8adapters3map3MapINtNtB6_9into_iter8IntoIterTBG_NtNtBK_5token4PlusEENCNvXs8_NtBK_10punctuatedINtB3V_10PunctuatedBG_B3t_ENtB1v_12IntoIterator9into_iter0EEBK_, symObjAddr: 0x10C0, symBinAddr: 0x30768, symSize: 0x48 }
  - { offset: 0x7CC9D, size: 0x8, addend: 0x0, symName: __RNCINvMsi_NtCsiTraAjBDcu4_5alloc3vecINtB8_3VecNtNtCsc29TF2YcYso_3syn8generics14TypeParamBoundE14extend_trustedINtNtCsaNl6UpbT7bw_4core6option8IntoIterBI_EE0BM_, symObjAddr: 0x1204, symBinAddr: 0x307B0, symSize: 0x54 }
  - { offset: 0x7CD5B, size: 0x8, addend: 0x0, symName: __RNCINvMsi_NtCsiTraAjBDcu4_5alloc3vecINtB8_3VecNtNtCsc29TF2YcYso_3syn8generics14TypeParamBoundE14extend_trustedINtNtNtNtCsaNl6UpbT7bw_4core4iter8adapters3map3MapINtNtB8_9into_iter8IntoIterTBI_NtNtBM_5token4PlusEENCNvXs8_NtBM_10punctuatedINtB3v_10PunctuatedBI_B33_ENtNtNtB1R_6traits7collect12IntoIterator9into_iter0EE0BM_, symObjAddr: 0x1258, symBinAddr: 0x30804, symSize: 0x54 }
  - { offset: 0x7D25B, size: 0x8, addend: 0x0, symName: __RNvXs6_NtCsiTraAjBDcu4_5alloc3vecINtB5_3VecNtNtCsc29TF2YcYso_3syn4attr9AttributeENtNtNtCsaNl6UpbT7bw_4core3ops5deref5Deref5derefBJ_, symObjAddr: 0x6F9C, symBinAddr: 0x347F8, symSize: 0x24 }
  - { offset: 0x7D29B, size: 0x8, addend: 0x0, symName: __RNvXs6_NtCsiTraAjBDcu4_5alloc3vecINtB5_3VecNtNtCsc29TF2YcYso_3syn4expr3ArmENtNtNtCsaNl6UpbT7bw_4core3ops5deref5Deref5derefBJ_, symObjAddr: 0x6FC0, symBinAddr: 0x3481C, symSize: 0x24 }
  - { offset: 0x7D2DB, size: 0x8, addend: 0x0, symName: __RNvXs6_NtCsiTraAjBDcu4_5alloc3vecINtB5_3VecNtNtCsc29TF2YcYso_3syn5error12ErrorMessageENtNtNtCsaNl6UpbT7bw_4core3ops5deref5Deref5derefBJ_, symObjAddr: 0x6FE4, symBinAddr: 0x34840, symSize: 0x24 }
  - { offset: 0x7D31B, size: 0x8, addend: 0x0, symName: __RNvXs6_NtCsiTraAjBDcu4_5alloc3vecINtB5_3VecReENtNtNtCsaNl6UpbT7bw_4core3ops5deref5Deref5derefCsc29TF2YcYso_3syn, symObjAddr: 0x7008, symBinAddr: 0x34864, symSize: 0x24 }
  - { offset: 0x7D35B, size: 0x8, addend: 0x0, symName: __RNvXs6_NtCsiTraAjBDcu4_5alloc3vecINtB5_3VecTNtNtCsc29TF2YcYso_3syn2ty4TypeNtNtBK_5token5CommaEENtNtNtCsaNl6UpbT7bw_4core3ops5deref5Deref5derefBK_, symObjAddr: 0x702C, symBinAddr: 0x34888, symSize: 0x24 }
  - { offset: 0x7D39B, size: 0x8, addend: 0x0, symName: __RNvXs6_NtCsiTraAjBDcu4_5alloc3vecINtB5_3VecTNtNtCsc29TF2YcYso_3syn2ty9BareFnArgNtNtBK_5token5CommaEENtNtNtCsaNl6UpbT7bw_4core3ops5deref5Deref5derefBK_, symObjAddr: 0x7050, symBinAddr: 0x348AC, symSize: 0x24 }
  - { offset: 0x7D3DB, size: 0x8, addend: 0x0, symName: __RNvXs6_NtCsiTraAjBDcu4_5alloc3vecINtB5_3VecTNtNtCsc29TF2YcYso_3syn3pat3PatNtNtBK_5token2OrEENtNtNtCsaNl6UpbT7bw_4core3ops5deref5Deref5derefBK_, symObjAddr: 0x7074, symBinAddr: 0x348D0, symSize: 0x24 }
  - { offset: 0x7D41B, size: 0x8, addend: 0x0, symName: __RNvXs6_NtCsiTraAjBDcu4_5alloc3vecINtB5_3VecTNtNtCsc29TF2YcYso_3syn3pat3PatNtNtBK_5token5CommaEENtNtNtCsaNl6UpbT7bw_4core3ops5deref5Deref5derefBK_, symObjAddr: 0x7098, symBinAddr: 0x348F4, symSize: 0x24 }
  - { offset: 0x7D45B, size: 0x8, addend: 0x0, symName: __RNvXs6_NtCsiTraAjBDcu4_5alloc3vecINtB5_3VecTNtNtCsc29TF2YcYso_3syn3pat8FieldPatNtNtBK_5token5CommaEENtNtNtCsaNl6UpbT7bw_4core3ops5deref5Deref5derefBK_, symObjAddr: 0x70BC, symBinAddr: 0x34918, symSize: 0x24 }
  - { offset: 0x7D49B, size: 0x8, addend: 0x0, symName: __RNvXs6_NtCsiTraAjBDcu4_5alloc3vecINtB5_3VecTNtNtCsc29TF2YcYso_3syn4data5FieldNtNtBK_5token5CommaEENtNtNtCsaNl6UpbT7bw_4core3ops5deref5Deref5derefBK_, symObjAddr: 0x70E0, symBinAddr: 0x3493C, symSize: 0x24 }
  - { offset: 0x7D4DB, size: 0x8, addend: 0x0, symName: __RNvXs6_NtCsiTraAjBDcu4_5alloc3vecINtB5_3VecTNtNtCsc29TF2YcYso_3syn4data7VariantNtNtBK_5token5CommaEENtNtNtCsaNl6UpbT7bw_4core3ops5deref5Deref5derefBK_, symObjAddr: 0x7104, symBinAddr: 0x34960, symSize: 0x24 }
  - { offset: 0x7D51B, size: 0x8, addend: 0x0, symName: __RNvXs6_NtCsiTraAjBDcu4_5alloc3vecINtB5_3VecTNtNtCsc29TF2YcYso_3syn4expr10FieldValueNtNtBK_5token5CommaEENtNtNtCsaNl6UpbT7bw_4core3ops5deref5Deref5derefBK_, symObjAddr: 0x7128, symBinAddr: 0x34984, symSize: 0x24 }
  - { offset: 0x7D55B, size: 0x8, addend: 0x0, symName: __RNvXs6_NtCsiTraAjBDcu4_5alloc3vecINtB5_3VecTNtNtCsc29TF2YcYso_3syn4expr4ExprNtNtBK_5token5CommaEENtNtNtCsaNl6UpbT7bw_4core3ops5deref5Deref5derefBK_, symObjAddr: 0x714C, symBinAddr: 0x349A8, symSize: 0x24 }
  - { offset: 0x7D59B, size: 0x8, addend: 0x0, symName: __RNvXs6_NtCsiTraAjBDcu4_5alloc3vecINtB5_3VecTNtNtCsc29TF2YcYso_3syn4item5FnArgNtNtBK_5token5CommaEENtNtNtCsaNl6UpbT7bw_4core3ops5deref5Deref5derefBK_, symObjAddr: 0x7170, symBinAddr: 0x349CC, symSize: 0x24 }
  - { offset: 0x7D5DB, size: 0x8, addend: 0x0, symName: __RNvXs6_NtCsiTraAjBDcu4_5alloc3vecINtB5_3VecTNtNtCsc29TF2YcYso_3syn4item7UseTreeNtNtBK_5token5CommaEENtNtNtCsaNl6UpbT7bw_4core3ops5deref5Deref5derefBK_, symObjAddr: 0x7194, symBinAddr: 0x349F0, symSize: 0x24 }
  - { offset: 0x7D61B, size: 0x8, addend: 0x0, symName: __RNvXs6_NtCsiTraAjBDcu4_5alloc3vecINtB5_3VecTNtNtCsc29TF2YcYso_3syn4path11PathSegmentNtNtBK_5token7PathSepEENtNtNtCsaNl6UpbT7bw_4core3ops5deref5Deref5derefBK_, symObjAddr: 0x71B8, symBinAddr: 0x34A14, symSize: 0x24 }
  - { offset: 0x7D65B, size: 0x8, addend: 0x0, symName: __RNvXs6_NtCsiTraAjBDcu4_5alloc3vecINtB5_3VecTNtNtCsc29TF2YcYso_3syn4path15GenericArgumentNtNtBK_5token5CommaEENtNtNtCsaNl6UpbT7bw_4core3ops5deref5Deref5derefBK_, symObjAddr: 0x71DC, symBinAddr: 0x34A38, symSize: 0x24 }
  - { offset: 0x7D69B, size: 0x8, addend: 0x0, symName: __RNvXs6_NtCsiTraAjBDcu4_5alloc3vecINtB5_3VecTNtNtCsc29TF2YcYso_3syn8generics12GenericParamNtNtBK_5token5CommaEENtNtNtCsaNl6UpbT7bw_4core3ops5deref5Deref5derefBK_, symObjAddr: 0x7200, symBinAddr: 0x34A5C, symSize: 0x24 }
  - { offset: 0x7D6DB, size: 0x8, addend: 0x0, symName: __RNvXs6_NtCsiTraAjBDcu4_5alloc3vecINtB5_3VecTNtNtCsc29TF2YcYso_3syn8generics13CapturedParamNtNtBK_5token5CommaEENtNtNtCsaNl6UpbT7bw_4core3ops5deref5Deref5derefBK_, symObjAddr: 0x7224, symBinAddr: 0x34A80, symSize: 0x24 }
  - { offset: 0x7D71B, size: 0x8, addend: 0x0, symName: __RNvXs6_NtCsiTraAjBDcu4_5alloc3vecINtB5_3VecTNtNtCsc29TF2YcYso_3syn8generics14TypeParamBoundNtNtBK_5token4PlusEENtNtNtCsaNl6UpbT7bw_4core3ops5deref5Deref5derefBK_, symObjAddr: 0x7248, symBinAddr: 0x34AA4, symSize: 0x24 }
  - { offset: 0x7D75B, size: 0x8, addend: 0x0, symName: __RNvXs6_NtCsiTraAjBDcu4_5alloc3vecINtB5_3VecTNtNtCsc29TF2YcYso_3syn8generics14WherePredicateNtNtBK_5token5CommaEENtNtNtCsaNl6UpbT7bw_4core3ops5deref5Deref5derefBK_, symObjAddr: 0x726C, symBinAddr: 0x34AC8, symSize: 0x24 }
  - { offset: 0x7D79B, size: 0x8, addend: 0x0, symName: __RNvXs6_NtCsiTraAjBDcu4_5alloc3vecINtB5_3VecTNtNtCsc29TF2YcYso_3syn8lifetime8LifetimeNtNtBK_5token4PlusEENtNtNtCsaNl6UpbT7bw_4core3ops5deref5Deref5derefBK_, symObjAddr: 0x7290, symBinAddr: 0x34AEC, symSize: 0x24 }
  - { offset: 0x7D7DB, size: 0x8, addend: 0x0, symName: __RNvXs6_NtCsiTraAjBDcu4_5alloc3vecINtB5_3VechENtNtNtCsaNl6UpbT7bw_4core3ops5deref5Deref5derefCsc29TF2YcYso_3syn, symObjAddr: 0x72B4, symBinAddr: 0x34B10, symSize: 0x24 }
  - { offset: 0x7DAC1, size: 0x8, addend: 0x0, symName: __RNvXsb_NtCsiTraAjBDcu4_5alloc3vecINtB5_3VecNtNtCsc29TF2YcYso_3syn5error12ErrorMessageEINtNtNtCsaNl6UpbT7bw_4core3ops5index5IndexjE5indexBJ_, symObjAddr: 0x82B0, symBinAddr: 0x34BB8, symSize: 0x8C }
  - { offset: 0x7DC43, size: 0x8, addend: 0x0, symName: __RNvXsb_NtCsiTraAjBDcu4_5alloc3vecINtB5_3VecReEINtNtNtCsaNl6UpbT7bw_4core3ops5index5IndexjE5indexCsc29TF2YcYso_3syn, symObjAddr: 0x833C, symBinAddr: 0x34C44, symSize: 0x8C }
  - { offset: 0x7DDC5, size: 0x8, addend: 0x0, symName: __RNvXsb_NtCsiTraAjBDcu4_5alloc3vecINtB5_3VecTNtNtCsc29TF2YcYso_3syn3pat3PatNtNtBK_5token5CommaEEINtNtNtCsaNl6UpbT7bw_4core3ops5index5IndexjE5indexBK_, symObjAddr: 0x83C8, symBinAddr: 0x34CD0, symSize: 0x8C }
  - { offset: 0x7DF47, size: 0x8, addend: 0x0, symName: __RNvXsb_NtCsiTraAjBDcu4_5alloc3vecINtB5_3VecTNtNtCsc29TF2YcYso_3syn4path11PathSegmentNtNtBK_5token7PathSepEEINtNtNtCsaNl6UpbT7bw_4core3ops5index5IndexjE5indexBK_, symObjAddr: 0x8454, symBinAddr: 0x34D5C, symSize: 0x8C }
  - { offset: 0x7E0C9, size: 0x8, addend: 0x0, symName: __RNvXsb_NtCsiTraAjBDcu4_5alloc3vecINtB5_3VechEINtNtNtCsaNl6UpbT7bw_4core3ops5index5IndexINtNtBM_5range9RangeFromjEE5indexCsc29TF2YcYso_3syn, symObjAddr: 0x84E0, symBinAddr: 0x34DE8, symSize: 0x88 }
  - { offset: 0x7E24B, size: 0x8, addend: 0x0, symName: __RNvXsb_NtCsiTraAjBDcu4_5alloc3vecINtB5_3VechEINtNtNtCsaNl6UpbT7bw_4core3ops5index5IndexjE5indexCsc29TF2YcYso_3syn, symObjAddr: 0x8568, symBinAddr: 0x34E70, symSize: 0x88 }
  - { offset: 0x7E3D8, size: 0x8, addend: 0x0, symName: __RNvXNtNtCsiTraAjBDcu4_5alloc3vec11spec_extendINtB4_3VecNtCshnvkK9b4wzu_11proc_macro29TokenTreeEINtB2_10SpecExtendBR_INtNtNtNtCsaNl6UpbT7bw_4core4iter8adapters7flatten7FlattenINtNtB1V_3map3MapIB2N_IB2N_INtNtNtB1Z_5slice4iter4IterNtNtCsc29TF2YcYso_3syn5error12ErrorMessageENvMs_B3G_B3E_16to_compile_errorENCINvXs7_BT_NtBT_11TokenStreamINtNtNtB1X_6traits7collect12FromIteratorB53_E9from_iterB38_E0ENCINvXs6_NtBT_3impNtB6u_11TokenStreamIB5m_B6D_E9from_iterB33_Es_0EEE11spec_extendB3I_, symObjAddr: 0x68EC, symBinAddr: 0x34478, symSize: 0x24 }
  - { offset: 0x7E430, size: 0x8, addend: 0x0, symName: __RNvXs0_NtNtCsiTraAjBDcu4_5alloc3vec11spec_extendINtB7_3VecNtNtCsc29TF2YcYso_3syn4attr9AttributeEINtB5_10SpecExtendBU_INtNtB7_9into_iter8IntoIterBU_EE11spec_extendBY_, symObjAddr: 0x6E24, symBinAddr: 0x34748, symSize: 0x98 }
  - { offset: 0x7E49C, size: 0x8, addend: 0x0, symName: __RNvXs_NtNtCsiTraAjBDcu4_5alloc3vec11spec_extendINtB6_3VecNtNtCsc29TF2YcYso_3syn8generics14TypeParamBoundEINtB4_10SpecExtendBT_INtNtCsaNl6UpbT7bw_4core6option8IntoIterBT_EE11spec_extendBX_, symObjAddr: 0x8268, symBinAddr: 0x34B70, symSize: 0x24 }
  - { offset: 0x7E4EE, size: 0x8, addend: 0x0, symName: __RNvXs_NtNtCsiTraAjBDcu4_5alloc3vec11spec_extendINtB6_3VecNtNtCsc29TF2YcYso_3syn8generics14TypeParamBoundEINtB4_10SpecExtendBT_INtNtNtNtCsaNl6UpbT7bw_4core4iter8adapters3map3MapINtNtB6_9into_iter8IntoIterTBT_NtNtBX_5token4PlusEENCNvXs8_NtBX_10punctuatedINtB3L_10PunctuatedBT_B3j_ENtNtNtB27_6traits7collect12IntoIterator9into_iter0EE11spec_extendBX_, symObjAddr: 0x828C, symBinAddr: 0x34B94, symSize: 0x24 }
  - { offset: 0x7E547, size: 0x8, addend: 0x0, symName: __RNvXs7_NtCsiTraAjBDcu4_5alloc3vecINtB5_3VecTNtNtCsc29TF2YcYso_3syn4path11PathSegmentNtNtBK_5token7PathSepEENtNtNtCsaNl6UpbT7bw_4core3ops5deref8DerefMut9deref_mutBK_, symObjAddr: 0x72FC, symBinAddr: 0x34B34, symSize: 0x24 }
  - { offset: 0x7E61D, size: 0x8, addend: 0x0, symName: __RNvXsc_NtCsiTraAjBDcu4_5alloc3vecINtB5_3VecNtNtCsc29TF2YcYso_3syn6buffer5EntryEINtNtNtCsaNl6UpbT7bw_4core3ops5index8IndexMutjE9index_mutBJ_, symObjAddr: 0x85F0, symBinAddr: 0x34EF8, symSize: 0x8C }
  - { offset: 0x7E771, size: 0x8, addend: 0x0, symName: __RNvXsc_NtCsiTraAjBDcu4_5alloc3vecINtB5_3VechEINtNtNtCsaNl6UpbT7bw_4core3ops5index8IndexMutjE9index_mutCsc29TF2YcYso_3syn, symObjAddr: 0x867C, symBinAddr: 0x34F84, symSize: 0x88 }
  - { offset: 0x7E8CB, size: 0x8, addend: 0x0, symName: __RNvXse_NtCsiTraAjBDcu4_5alloc3vecINtB5_3VecNtNtCsc29TF2YcYso_3syn4attr9AttributeENtNtNtNtCsaNl6UpbT7bw_4core4iter6traits7collect12IntoIterator9into_iterBJ_, symObjAddr: 0x8704, symBinAddr: 0x3500C, symSize: 0xDC }
  - { offset: 0x7EB5D, size: 0x8, addend: 0x0, symName: __RNvXse_NtCsiTraAjBDcu4_5alloc3vecINtB5_3VecNtNtCsc29TF2YcYso_3syn8generics14TypeParamBoundENtNtNtNtCsaNl6UpbT7bw_4core4iter6traits7collect12IntoIterator9into_iterBJ_, symObjAddr: 0x89A8, symBinAddr: 0x350E8, symSize: 0xE4 }
  - { offset: 0x7EDEF, size: 0x8, addend: 0x0, symName: __RNvXse_NtCsiTraAjBDcu4_5alloc3vecINtB5_3VecTNtNtCsc29TF2YcYso_3syn4path11PathSegmentNtNtBK_5token7PathSepEENtNtNtNtCsaNl6UpbT7bw_4core4iter6traits7collect12IntoIterator9into_iterBK_, symObjAddr: 0x8C54, symBinAddr: 0x351CC, symSize: 0xE4 }
  - { offset: 0x7F081, size: 0x8, addend: 0x0, symName: __RNvXse_NtCsiTraAjBDcu4_5alloc3vecINtB5_3VecTNtNtCsc29TF2YcYso_3syn8generics14TypeParamBoundNtNtBK_5token4PlusEENtNtNtNtCsaNl6UpbT7bw_4core4iter6traits7collect12IntoIterator9into_iterBK_, symObjAddr: 0x8D38, symBinAddr: 0x352B0, symSize: 0xDC }
  - { offset: 0x7F319, size: 0x8, addend: 0x0, symName: __RNvXsf_NtCsiTraAjBDcu4_5alloc3vecRINtB5_3VecNtNtCsc29TF2YcYso_3syn4attr9AttributeENtNtNtNtCsaNl6UpbT7bw_4core4iter6traits7collect12IntoIterator9into_iterBK_, symObjAddr: 0x8E14, symBinAddr: 0x3538C, symSize: 0xA4 }
  - { offset: 0x7F557, size: 0x8, addend: 0x0, symName: __RNvXsf_NtCsiTraAjBDcu4_5alloc3vecRINtB5_3VecNtNtCsc29TF2YcYso_3syn4item11ForeignItemENtNtNtNtCsaNl6UpbT7bw_4core4iter6traits7collect12IntoIterator9into_iterBK_, symObjAddr: 0x8EB8, symBinAddr: 0x35430, symSize: 0xAC }
  - { offset: 0x7F795, size: 0x8, addend: 0x0, symName: __RNvXsf_NtCsiTraAjBDcu4_5alloc3vecRINtB5_3VecNtNtCsc29TF2YcYso_3syn4item4ItemENtNtNtNtCsaNl6UpbT7bw_4core4iter6traits7collect12IntoIterator9into_iterBK_, symObjAddr: 0x8F64, symBinAddr: 0x354DC, symSize: 0xAC }
  - { offset: 0x7F9D3, size: 0x8, addend: 0x0, symName: __RNvXsf_NtCsiTraAjBDcu4_5alloc3vecRINtB5_3VecNtNtCsc29TF2YcYso_3syn4item8ImplItemENtNtNtNtCsaNl6UpbT7bw_4core4iter6traits7collect12IntoIterator9into_iterBK_, symObjAddr: 0x9010, symBinAddr: 0x35588, symSize: 0xAC }
  - { offset: 0x7FC11, size: 0x8, addend: 0x0, symName: __RNvXsf_NtCsiTraAjBDcu4_5alloc3vecRINtB5_3VecNtNtCsc29TF2YcYso_3syn4item9TraitItemENtNtNtNtCsaNl6UpbT7bw_4core4iter6traits7collect12IntoIterator9into_iterBK_, symObjAddr: 0x90BC, symBinAddr: 0x35634, symSize: 0xAC }
  - { offset: 0x7FE4F, size: 0x8, addend: 0x0, symName: __RNvXsf_NtCsiTraAjBDcu4_5alloc3vecRINtB5_3VecNtNtCsc29TF2YcYso_3syn4stmt4StmtENtNtNtNtCsaNl6UpbT7bw_4core4iter6traits7collect12IntoIterator9into_iterBK_, symObjAddr: 0x9168, symBinAddr: 0x356E0, symSize: 0xAC }
  - { offset: 0x80093, size: 0x8, addend: 0x0, symName: __RNvXsg_NtCsiTraAjBDcu4_5alloc3vecQINtB5_3VechENtNtNtNtCsaNl6UpbT7bw_4core4iter6traits7collect12IntoIterator9into_iterCsc29TF2YcYso_3syn, symObjAddr: 0x9E24, symBinAddr: 0x3578C, symSize: 0xA0 }
  - { offset: 0x802A9, size: 0x8, addend: 0x0, symName: __RNvXsn_NtCsiTraAjBDcu4_5alloc3vecINtB5_3VecNtNtCsc29TF2YcYso_3syn4attr9AttributeENtNtNtCsaNl6UpbT7bw_4core3ops4drop4Drop4dropBJ_, symObjAddr: 0x9EC4, symBinAddr: 0x3582C, symSize: 0x38 }
  - { offset: 0x80359, size: 0x8, addend: 0x0, symName: __RNvXsn_NtCsiTraAjBDcu4_5alloc3vecINtB5_3VecNtNtCsc29TF2YcYso_3syn4expr3ArmENtNtNtCsaNl6UpbT7bw_4core3ops4drop4Drop4dropBJ_, symObjAddr: 0x9F34, symBinAddr: 0x35864, symSize: 0x38 }
  - { offset: 0x80409, size: 0x8, addend: 0x0, symName: __RNvXsn_NtCsiTraAjBDcu4_5alloc3vecINtB5_3VecNtNtCsc29TF2YcYso_3syn4expr6ExprIfENtNtNtCsaNl6UpbT7bw_4core3ops4drop4Drop4dropBJ_, symObjAddr: 0x9F6C, symBinAddr: 0x3589C, symSize: 0x38 }
  - { offset: 0x804B9, size: 0x8, addend: 0x0, symName: __RNvXsn_NtCsiTraAjBDcu4_5alloc3vecINtB5_3VecNtNtCsc29TF2YcYso_3syn4item11ForeignItemENtNtNtCsaNl6UpbT7bw_4core3ops4drop4Drop4dropBJ_, symObjAddr: 0x9FA4, symBinAddr: 0x358D4, symSize: 0x38 }
  - { offset: 0x80569, size: 0x8, addend: 0x0, symName: __RNvXsn_NtCsiTraAjBDcu4_5alloc3vecINtB5_3VecNtNtCsc29TF2YcYso_3syn4item4ItemENtNtNtCsaNl6UpbT7bw_4core3ops4drop4Drop4dropBJ_, symObjAddr: 0x9FDC, symBinAddr: 0x3590C, symSize: 0x38 }
  - { offset: 0x80619, size: 0x8, addend: 0x0, symName: __RNvXsn_NtCsiTraAjBDcu4_5alloc3vecINtB5_3VecNtNtCsc29TF2YcYso_3syn4item8ImplItemENtNtNtCsaNl6UpbT7bw_4core3ops4drop4Drop4dropBJ_, symObjAddr: 0xA014, symBinAddr: 0x35944, symSize: 0x38 }
  - { offset: 0x806C9, size: 0x8, addend: 0x0, symName: __RNvXsn_NtCsiTraAjBDcu4_5alloc3vecINtB5_3VecNtNtCsc29TF2YcYso_3syn4item9TraitItemENtNtNtCsaNl6UpbT7bw_4core3ops4drop4Drop4dropBJ_, symObjAddr: 0xA04C, symBinAddr: 0x3597C, symSize: 0x38 }
  - { offset: 0x80779, size: 0x8, addend: 0x0, symName: __RNvXsn_NtCsiTraAjBDcu4_5alloc3vecINtB5_3VecNtNtCsc29TF2YcYso_3syn4stmt4StmtENtNtNtCsaNl6UpbT7bw_4core3ops4drop4Drop4dropBJ_, symObjAddr: 0xA084, symBinAddr: 0x359B4, symSize: 0x38 }
  - { offset: 0x80829, size: 0x8, addend: 0x0, symName: __RNvXsn_NtCsiTraAjBDcu4_5alloc3vecINtB5_3VecNtNtCsc29TF2YcYso_3syn5error12ErrorMessageENtNtNtCsaNl6UpbT7bw_4core3ops4drop4Drop4dropBJ_, symObjAddr: 0xA0BC, symBinAddr: 0x359EC, symSize: 0x38 }
  - { offset: 0x808D9, size: 0x8, addend: 0x0, symName: __RNvXsn_NtCsiTraAjBDcu4_5alloc3vecINtB5_3VecNtNtCsc29TF2YcYso_3syn6buffer5EntryENtNtNtCsaNl6UpbT7bw_4core3ops4drop4Drop4dropBJ_, symObjAddr: 0xA0F4, symBinAddr: 0x35A24, symSize: 0x38 }
  - { offset: 0x80989, size: 0x8, addend: 0x0, symName: __RNvXsn_NtCsiTraAjBDcu4_5alloc3vecINtB5_3VecNtNtCsc29TF2YcYso_3syn8generics14TypeParamBoundENtNtNtCsaNl6UpbT7bw_4core3ops4drop4Drop4dropBJ_, symObjAddr: 0xA12C, symBinAddr: 0x35A5C, symSize: 0x38 }
  - { offset: 0x80A39, size: 0x8, addend: 0x0, symName: __RNvXsn_NtCsiTraAjBDcu4_5alloc3vecINtB5_3VecReENtNtNtCsaNl6UpbT7bw_4core3ops4drop4Drop4dropCsc29TF2YcYso_3syn, symObjAddr: 0xA164, symBinAddr: 0x35A94, symSize: 0x24 }
  - { offset: 0x80AE9, size: 0x8, addend: 0x0, symName: __RNvXsn_NtCsiTraAjBDcu4_5alloc3vecINtB5_3VecTNtNtCsc29TF2YcYso_3syn2ty4TypeNtNtBK_5token5CommaEENtNtNtCsaNl6UpbT7bw_4core3ops4drop4Drop4dropBK_, symObjAddr: 0xA188, symBinAddr: 0x35AB8, symSize: 0x38 }
  - { offset: 0x80B99, size: 0x8, addend: 0x0, symName: __RNvXsn_NtCsiTraAjBDcu4_5alloc3vecINtB5_3VecTNtNtCsc29TF2YcYso_3syn2ty9BareFnArgNtNtBK_5token5CommaEENtNtNtCsaNl6UpbT7bw_4core3ops4drop4Drop4dropBK_, symObjAddr: 0xA1C0, symBinAddr: 0x35AF0, symSize: 0x38 }
  - { offset: 0x80C49, size: 0x8, addend: 0x0, symName: __RNvXsn_NtCsiTraAjBDcu4_5alloc3vecINtB5_3VecTNtNtCsc29TF2YcYso_3syn3pat3PatNtNtBK_5token2OrEENtNtNtCsaNl6UpbT7bw_4core3ops4drop4Drop4dropBK_, symObjAddr: 0xA1F8, symBinAddr: 0x35B28, symSize: 0x38 }
  - { offset: 0x80CF9, size: 0x8, addend: 0x0, symName: __RNvXsn_NtCsiTraAjBDcu4_5alloc3vecINtB5_3VecTNtNtCsc29TF2YcYso_3syn3pat3PatNtNtBK_5token5CommaEENtNtNtCsaNl6UpbT7bw_4core3ops4drop4Drop4dropBK_, symObjAddr: 0xA230, symBinAddr: 0x35B60, symSize: 0x38 }
  - { offset: 0x80DA9, size: 0x8, addend: 0x0, symName: __RNvXsn_NtCsiTraAjBDcu4_5alloc3vecINtB5_3VecTNtNtCsc29TF2YcYso_3syn3pat8FieldPatNtNtBK_5token5CommaEENtNtNtCsaNl6UpbT7bw_4core3ops4drop4Drop4dropBK_, symObjAddr: 0xA268, symBinAddr: 0x35B98, symSize: 0x38 }
  - { offset: 0x80E59, size: 0x8, addend: 0x0, symName: __RNvXsn_NtCsiTraAjBDcu4_5alloc3vecINtB5_3VecTNtNtCsc29TF2YcYso_3syn4data5FieldNtNtBK_5token5CommaEENtNtNtCsaNl6UpbT7bw_4core3ops4drop4Drop4dropBK_, symObjAddr: 0xA2A0, symBinAddr: 0x35BD0, symSize: 0x38 }
  - { offset: 0x80F09, size: 0x8, addend: 0x0, symName: __RNvXsn_NtCsiTraAjBDcu4_5alloc3vecINtB5_3VecTNtNtCsc29TF2YcYso_3syn4data7VariantNtNtBK_5token5CommaEENtNtNtCsaNl6UpbT7bw_4core3ops4drop4Drop4dropBK_, symObjAddr: 0xA310, symBinAddr: 0x35C08, symSize: 0x38 }
  - { offset: 0x80FB9, size: 0x8, addend: 0x0, symName: __RNvXsn_NtCsiTraAjBDcu4_5alloc3vecINtB5_3VecTNtNtCsc29TF2YcYso_3syn4expr10FieldValueNtNtBK_5token5CommaEENtNtNtCsaNl6UpbT7bw_4core3ops4drop4Drop4dropBK_, symObjAddr: 0xA348, symBinAddr: 0x35C40, symSize: 0x38 }
  - { offset: 0x81069, size: 0x8, addend: 0x0, symName: __RNvXsn_NtCsiTraAjBDcu4_5alloc3vecINtB5_3VecTNtNtCsc29TF2YcYso_3syn4expr4ExprNtNtBK_5token5CommaEENtNtNtCsaNl6UpbT7bw_4core3ops4drop4Drop4dropBK_, symObjAddr: 0xA380, symBinAddr: 0x35C78, symSize: 0x38 }
  - { offset: 0x81119, size: 0x8, addend: 0x0, symName: __RNvXsn_NtCsiTraAjBDcu4_5alloc3vecINtB5_3VecTNtNtCsc29TF2YcYso_3syn4item5FnArgNtNtBK_5token5CommaEENtNtNtCsaNl6UpbT7bw_4core3ops4drop4Drop4dropBK_, symObjAddr: 0xA3B8, symBinAddr: 0x35CB0, symSize: 0x38 }
  - { offset: 0x811C9, size: 0x8, addend: 0x0, symName: __RNvXsn_NtCsiTraAjBDcu4_5alloc3vecINtB5_3VecTNtNtCsc29TF2YcYso_3syn4item7UseTreeNtNtBK_5token5CommaEENtNtNtCsaNl6UpbT7bw_4core3ops4drop4Drop4dropBK_, symObjAddr: 0xA3F0, symBinAddr: 0x35CE8, symSize: 0x38 }
  - { offset: 0x81279, size: 0x8, addend: 0x0, symName: __RNvXsn_NtCsiTraAjBDcu4_5alloc3vecINtB5_3VecTNtNtCsc29TF2YcYso_3syn4path11PathSegmentNtNtBK_5token7PathSepEENtNtNtCsaNl6UpbT7bw_4core3ops4drop4Drop4dropBK_, symObjAddr: 0xA428, symBinAddr: 0x35D20, symSize: 0x38 }
  - { offset: 0x81329, size: 0x8, addend: 0x0, symName: __RNvXsn_NtCsiTraAjBDcu4_5alloc3vecINtB5_3VecTNtNtCsc29TF2YcYso_3syn4path15GenericArgumentNtNtBK_5token5CommaEENtNtNtCsaNl6UpbT7bw_4core3ops4drop4Drop4dropBK_, symObjAddr: 0xA460, symBinAddr: 0x35D58, symSize: 0x38 }
  - { offset: 0x813D9, size: 0x8, addend: 0x0, symName: __RNvXsn_NtCsiTraAjBDcu4_5alloc3vecINtB5_3VecTNtNtCsc29TF2YcYso_3syn8generics12GenericParamNtNtBK_5token5CommaEENtNtNtCsaNl6UpbT7bw_4core3ops4drop4Drop4dropBK_, symObjAddr: 0xA498, symBinAddr: 0x35D90, symSize: 0x38 }
  - { offset: 0x81489, size: 0x8, addend: 0x0, symName: __RNvXsn_NtCsiTraAjBDcu4_5alloc3vecINtB5_3VecTNtNtCsc29TF2YcYso_3syn8generics13CapturedParamNtNtBK_5token5CommaEENtNtNtCsaNl6UpbT7bw_4core3ops4drop4Drop4dropBK_, symObjAddr: 0xA4D0, symBinAddr: 0x35DC8, symSize: 0x38 }
  - { offset: 0x81539, size: 0x8, addend: 0x0, symName: __RNvXsn_NtCsiTraAjBDcu4_5alloc3vecINtB5_3VecTNtNtCsc29TF2YcYso_3syn8generics14TypeParamBoundNtNtBK_5token4PlusEENtNtNtCsaNl6UpbT7bw_4core3ops4drop4Drop4dropBK_, symObjAddr: 0xA508, symBinAddr: 0x35E00, symSize: 0x38 }
  - { offset: 0x815E9, size: 0x8, addend: 0x0, symName: __RNvXsn_NtCsiTraAjBDcu4_5alloc3vecINtB5_3VecTNtNtCsc29TF2YcYso_3syn8generics14WherePredicateNtNtBK_5token5CommaEENtNtNtCsaNl6UpbT7bw_4core3ops4drop4Drop4dropBK_, symObjAddr: 0xA540, symBinAddr: 0x35E38, symSize: 0x38 }
  - { offset: 0x81699, size: 0x8, addend: 0x0, symName: __RNvXsn_NtCsiTraAjBDcu4_5alloc3vecINtB5_3VecTNtNtCsc29TF2YcYso_3syn8lifetime8LifetimeNtNtBK_5token4PlusEENtNtNtCsaNl6UpbT7bw_4core3ops4drop4Drop4dropBK_, symObjAddr: 0xA578, symBinAddr: 0x35E70, symSize: 0x38 }
  - { offset: 0x8174F, size: 0x8, addend: 0x0, symName: __RNvXsp_NtCsiTraAjBDcu4_5alloc3vecINtB5_3VecNtNtCsc29TF2YcYso_3syn5error12ErrorMessageENtNtCsaNl6UpbT7bw_4core3fmt5Debug3fmtBJ_, symObjAddr: 0xA914, symBinAddr: 0x35EA8, symSize: 0x7C }
  - { offset: 0x8185F, size: 0x8, addend: 0x0, symName: __RNvXsp_NtCsiTraAjBDcu4_5alloc3vecINtB5_3VechENtNtCsaNl6UpbT7bw_4core3fmt5Debug3fmtCsc29TF2YcYso_3syn, symObjAddr: 0xA990, symBinAddr: 0x35F24, symSize: 0x78 }
  - { offset: 0x83D8D, size: 0x8, addend: 0x0, symName: __RNvXsT_NtCsiTraAjBDcu4_5alloc6stringINtNtB7_3vec3VechEINtNtCsaNl6UpbT7bw_4core7convert4FromNtB5_6StringE4fromCsc29TF2YcYso_3syn, symObjAddr: 0x81E4, symBinAddr: 0x34B58, symSize: 0x18 }
  - { offset: 0x83FE2, size: 0x8, addend: 0x0, symName: __RNvXNvMs_NtNtCsiTraAjBDcu4_5alloc3ffi5c_strNtB7_7CString3newINtNtBb_3vec3VechENtB2_11SpecNewImpl13spec_new_implCsc29TF2YcYso_3syn, symObjAddr: 0x6CA4, symBinAddr: 0x345C8, symSize: 0x180 }
  - { offset: 0x89065, size: 0x8, addend: 0x0, symName: __RINvMs_NtCsiTraAjBDcu4_5alloc3vecINtB5_3VecReE10retain_mutNCNvMNtCsc29TF2YcYso_3syn9lookaheadNtBZ_10Lookahead15error0EB11_, symObjAddr: 0x0, symBinAddr: 0x2FE80, symSize: 0xE4 }
  - { offset: 0x8935F, size: 0x8, addend: 0x0, symName: __RINvMsi_NtCsiTraAjBDcu4_5alloc3vecINtB6_3VecNtCshnvkK9b4wzu_11proc_macro29TokenTreeE16extend_desugaredINtNtNtNtCsaNl6UpbT7bw_4core4iter8adapters7flatten7FlattenINtNtB1H_3map3MapIB2z_IB2z_INtNtNtB1L_5slice4iter4IterNtNtCsc29TF2YcYso_3syn5error12ErrorMessageENvMs_B3s_B3q_16to_compile_errorENCINvXs7_BI_NtBI_11TokenStreamINtNtNtB1J_6traits7collect12FromIteratorB4P_E9from_iterB2U_E0ENCINvXs6_NtBI_3impNtB6g_11TokenStreamIB58_B6p_E9from_iterB2P_Es_0EEEB3u_, symObjAddr: 0xE4, symBinAddr: 0x2FF64, symSize: 0x1D0 }
  - { offset: 0x89D05, size: 0x8, addend: 0x0, symName: __RINvMsi_NtCsiTraAjBDcu4_5alloc3vecINtB6_3VecNtNtCsc29TF2YcYso_3syn8generics14TypeParamBoundE14extend_trustedINtNtCsaNl6UpbT7bw_4core6option8IntoIterBG_EEBK_, symObjAddr: 0x928, symBinAddr: 0x30134, symSize: 0x19C }
  - { offset: 0x89FC9, size: 0x8, addend: 0x0, symName: __RINvMsi_NtCsiTraAjBDcu4_5alloc3vecINtB6_3VecNtNtCsc29TF2YcYso_3syn8generics14TypeParamBoundE14extend_trustedINtNtNtNtCsaNl6UpbT7bw_4core4iter8adapters3map3MapINtNtB6_9into_iter8IntoIterTBG_NtNtBK_5token4PlusEENCNvXs8_NtBK_10punctuatedINtB3t_10PunctuatedBG_B31_ENtNtNtB1P_6traits7collect12IntoIterator9into_iter0EEBK_, symObjAddr: 0xAC4, symBinAddr: 0x302D0, symSize: 0x184 }
  - { offset: 0x8A322, size: 0x8, addend: 0x0, symName: __RNvMNtCsiTraAjBDcu4_5alloc3vecINtB2_3VecNtNtCsc29TF2YcYso_3syn4attr9AttributeE3newBG_, symObjAddr: 0x12AC, symBinAddr: 0x30858, symSize: 0x14 }
  - { offset: 0x8A33F, size: 0x8, addend: 0x0, symName: __RNvMNtCsiTraAjBDcu4_5alloc3vecINtB2_3VecNtNtCsc29TF2YcYso_3syn4expr3ArmE3newBG_, symObjAddr: 0x1308, symBinAddr: 0x3086C, symSize: 0x14 }
  - { offset: 0x8A35C, size: 0x8, addend: 0x0, symName: __RNvMNtCsiTraAjBDcu4_5alloc3vecINtB2_3VecNtNtCsc29TF2YcYso_3syn4expr6ExprIfE3newBG_, symObjAddr: 0x131C, symBinAddr: 0x30880, symSize: 0x14 }
  - { offset: 0x8A379, size: 0x8, addend: 0x0, symName: __RNvMNtCsiTraAjBDcu4_5alloc3vecINtB2_3VecNtNtCsc29TF2YcYso_3syn4item11ForeignItemE3newBG_, symObjAddr: 0x1330, symBinAddr: 0x30894, symSize: 0x14 }
  - { offset: 0x8A396, size: 0x8, addend: 0x0, symName: __RNvMNtCsiTraAjBDcu4_5alloc3vecINtB2_3VecNtNtCsc29TF2YcYso_3syn4item4ItemE3newBG_, symObjAddr: 0x1344, symBinAddr: 0x308A8, symSize: 0x14 }
  - { offset: 0x8A3B3, size: 0x8, addend: 0x0, symName: __RNvMNtCsiTraAjBDcu4_5alloc3vecINtB2_3VecNtNtCsc29TF2YcYso_3syn4item8ImplItemE3newBG_, symObjAddr: 0x1358, symBinAddr: 0x308BC, symSize: 0x14 }
  - { offset: 0x8A3D0, size: 0x8, addend: 0x0, symName: __RNvMNtCsiTraAjBDcu4_5alloc3vecINtB2_3VecNtNtCsc29TF2YcYso_3syn4item9TraitItemE3newBG_, symObjAddr: 0x136C, symBinAddr: 0x308D0, symSize: 0x14 }
  - { offset: 0x8A3ED, size: 0x8, addend: 0x0, symName: __RNvMNtCsiTraAjBDcu4_5alloc3vecINtB2_3VecNtNtCsc29TF2YcYso_3syn4stmt4StmtE3newBG_, symObjAddr: 0x1380, symBinAddr: 0x308E4, symSize: 0x14 }
  - { offset: 0x8A40A, size: 0x8, addend: 0x0, symName: __RNvMNtCsiTraAjBDcu4_5alloc3vecINtB2_3VecNtNtCsc29TF2YcYso_3syn6buffer5EntryE3newBG_, symObjAddr: 0x1394, symBinAddr: 0x308F8, symSize: 0x14 }
  - { offset: 0x8A489, size: 0x8, addend: 0x0, symName: __RNvMNtCsiTraAjBDcu4_5alloc3vecINtB2_3VecNtNtCsc29TF2YcYso_3syn8generics14TypeParamBoundE13with_capacityBG_, symObjAddr: 0x13A8, symBinAddr: 0x3090C, symSize: 0x48 }
  - { offset: 0x8A501, size: 0x8, addend: 0x0, symName: __RNvMNtCsiTraAjBDcu4_5alloc3vecINtB2_3VecReE3newCsc29TF2YcYso_3syn, symObjAddr: 0x13F0, symBinAddr: 0x30954, symSize: 0x14 }
  - { offset: 0x8A51E, size: 0x8, addend: 0x0, symName: __RNvMNtCsiTraAjBDcu4_5alloc3vecINtB2_3VecTNtNtCsc29TF2YcYso_3syn2ty4TypeNtNtBH_5token5CommaEE3newBH_, symObjAddr: 0x1404, symBinAddr: 0x30968, symSize: 0x14 }
  - { offset: 0x8A53B, size: 0x8, addend: 0x0, symName: __RNvMNtCsiTraAjBDcu4_5alloc3vecINtB2_3VecTNtNtCsc29TF2YcYso_3syn2ty9BareFnArgNtNtBH_5token5CommaEE3newBH_, symObjAddr: 0x1418, symBinAddr: 0x3097C, symSize: 0x14 }
  - { offset: 0x8A558, size: 0x8, addend: 0x0, symName: __RNvMNtCsiTraAjBDcu4_5alloc3vecINtB2_3VecTNtNtCsc29TF2YcYso_3syn3pat3PatNtNtBH_5token2OrEE3newBH_, symObjAddr: 0x142C, symBinAddr: 0x30990, symSize: 0x14 }
  - { offset: 0x8A575, size: 0x8, addend: 0x0, symName: __RNvMNtCsiTraAjBDcu4_5alloc3vecINtB2_3VecTNtNtCsc29TF2YcYso_3syn3pat3PatNtNtBH_5token5CommaEE3newBH_, symObjAddr: 0x1440, symBinAddr: 0x309A4, symSize: 0x14 }
  - { offset: 0x8A592, size: 0x8, addend: 0x0, symName: __RNvMNtCsiTraAjBDcu4_5alloc3vecINtB2_3VecTNtNtCsc29TF2YcYso_3syn3pat8FieldPatNtNtBH_5token5CommaEE3newBH_, symObjAddr: 0x1454, symBinAddr: 0x309B8, symSize: 0x14 }
  - { offset: 0x8A5AF, size: 0x8, addend: 0x0, symName: __RNvMNtCsiTraAjBDcu4_5alloc3vecINtB2_3VecTNtNtCsc29TF2YcYso_3syn4data5FieldNtNtBH_5token5CommaEE3newBH_, symObjAddr: 0x1468, symBinAddr: 0x309CC, symSize: 0x14 }
  - { offset: 0x8A5CC, size: 0x8, addend: 0x0, symName: __RNvMNtCsiTraAjBDcu4_5alloc3vecINtB2_3VecTNtNtCsc29TF2YcYso_3syn4data7VariantNtNtBH_5token5CommaEE3newBH_, symObjAddr: 0x1490, symBinAddr: 0x309E0, symSize: 0x14 }
  - { offset: 0x8A5E9, size: 0x8, addend: 0x0, symName: __RNvMNtCsiTraAjBDcu4_5alloc3vecINtB2_3VecTNtNtCsc29TF2YcYso_3syn4expr10FieldValueNtNtBH_5token5CommaEE3newBH_, symObjAddr: 0x14A4, symBinAddr: 0x309F4, symSize: 0x14 }
  - { offset: 0x8A606, size: 0x8, addend: 0x0, symName: __RNvMNtCsiTraAjBDcu4_5alloc3vecINtB2_3VecTNtNtCsc29TF2YcYso_3syn4expr4ExprNtNtBH_5token5CommaEE3newBH_, symObjAddr: 0x14B8, symBinAddr: 0x30A08, symSize: 0x14 }
  - { offset: 0x8A623, size: 0x8, addend: 0x0, symName: __RNvMNtCsiTraAjBDcu4_5alloc3vecINtB2_3VecTNtNtCsc29TF2YcYso_3syn4item5FnArgNtNtBH_5token5CommaEE3newBH_, symObjAddr: 0x14CC, symBinAddr: 0x30A1C, symSize: 0x14 }
  - { offset: 0x8A640, size: 0x8, addend: 0x0, symName: __RNvMNtCsiTraAjBDcu4_5alloc3vecINtB2_3VecTNtNtCsc29TF2YcYso_3syn4item7UseTreeNtNtBH_5token5CommaEE3newBH_, symObjAddr: 0x14E0, symBinAddr: 0x30A30, symSize: 0x14 }
  - { offset: 0x8A65D, size: 0x8, addend: 0x0, symName: __RNvMNtCsiTraAjBDcu4_5alloc3vecINtB2_3VecTNtNtCsc29TF2YcYso_3syn4path11PathSegmentNtNtBH_5token7PathSepEE3newBH_, symObjAddr: 0x14F4, symBinAddr: 0x30A44, symSize: 0x14 }
  - { offset: 0x8A67A, size: 0x8, addend: 0x0, symName: __RNvMNtCsiTraAjBDcu4_5alloc3vecINtB2_3VecTNtNtCsc29TF2YcYso_3syn4path15GenericArgumentNtNtBH_5token5CommaEE3newBH_, symObjAddr: 0x1508, symBinAddr: 0x30A58, symSize: 0x14 }
  - { offset: 0x8A697, size: 0x8, addend: 0x0, symName: __RNvMNtCsiTraAjBDcu4_5alloc3vecINtB2_3VecTNtNtCsc29TF2YcYso_3syn8generics12GenericParamNtNtBH_5token5CommaEE3newBH_, symObjAddr: 0x151C, symBinAddr: 0x30A6C, symSize: 0x14 }
  - { offset: 0x8A6B4, size: 0x8, addend: 0x0, symName: __RNvMNtCsiTraAjBDcu4_5alloc3vecINtB2_3VecTNtNtCsc29TF2YcYso_3syn8generics13CapturedParamNtNtBH_5token5CommaEE3newBH_, symObjAddr: 0x1530, symBinAddr: 0x30A80, symSize: 0x14 }
  - { offset: 0x8A6D1, size: 0x8, addend: 0x0, symName: __RNvMNtCsiTraAjBDcu4_5alloc3vecINtB2_3VecTNtNtCsc29TF2YcYso_3syn8generics14TypeParamBoundNtNtBH_5token4PlusEE3newBH_, symObjAddr: 0x1544, symBinAddr: 0x30A94, symSize: 0x14 }
  - { offset: 0x8A6EE, size: 0x8, addend: 0x0, symName: __RNvMNtCsiTraAjBDcu4_5alloc3vecINtB2_3VecTNtNtCsc29TF2YcYso_3syn8generics14WherePredicateNtNtBH_5token5CommaEE3newBH_, symObjAddr: 0x1558, symBinAddr: 0x30AA8, symSize: 0x14 }
  - { offset: 0x8A70B, size: 0x8, addend: 0x0, symName: __RNvMNtCsiTraAjBDcu4_5alloc3vecINtB2_3VecTNtNtCsc29TF2YcYso_3syn8lifetime8LifetimeNtNtBH_5token4PlusEE3newBH_, symObjAddr: 0x156C, symBinAddr: 0x30ABC, symSize: 0x14 }
  - { offset: 0x8A728, size: 0x8, addend: 0x0, symName: __RNvMNtCsiTraAjBDcu4_5alloc3vecINtB2_3VechE3newCsc29TF2YcYso_3syn, symObjAddr: 0x1580, symBinAddr: 0x30AD0, symSize: 0x14 }
  - { offset: 0x8A82C, size: 0x8, addend: 0x0, symName: __RNvMs0_NtCsiTraAjBDcu4_5alloc3vecINtB5_3VechE17extend_from_sliceCsc29TF2YcYso_3syn, symObjAddr: 0x1594, symBinAddr: 0x30AE4, symSize: 0x74 }
  - { offset: 0x8AA96, size: 0x8, addend: 0x0, symName: __RNvMs0_NtCsiTraAjBDcu4_5alloc3vecINtB5_3VechE6resizeCsc29TF2YcYso_3syn, symObjAddr: 0x1608, symBinAddr: 0x30B58, symSize: 0x100 }
  - { offset: 0x8AD37, size: 0x8, addend: 0x0, symName: __RNvMs2_NtCsiTraAjBDcu4_5alloc3vecINtB5_3VechE11extend_withCsc29TF2YcYso_3syn, symObjAddr: 0x1708, symBinAddr: 0x30C58, symSize: 0x22C }
  - { offset: 0x8B125, size: 0x8, addend: 0x0, symName: __RNvMs_NtCsiTraAjBDcu4_5alloc3vecINtB4_3VecNtNtCsc29TF2YcYso_3syn4attr9AttributeE15append_elementsBI_, symObjAddr: 0x1934, symBinAddr: 0x30E84, symSize: 0xE0 }
  - { offset: 0x8B396, size: 0x8, addend: 0x0, symName: __RNvMs_NtCsiTraAjBDcu4_5alloc3vecINtB4_3VecNtNtCsc29TF2YcYso_3syn4attr9AttributeE4pushBI_, symObjAddr: 0x1A14, symBinAddr: 0x30F64, symSize: 0x118 }
  - { offset: 0x8B632, size: 0x8, addend: 0x0, symName: __RNvMs_NtCsiTraAjBDcu4_5alloc3vecINtB4_3VecNtNtCsc29TF2YcYso_3syn4attr9AttributeE6appendBI_, symObjAddr: 0x1B2C, symBinAddr: 0x3107C, symSize: 0x94 }
  - { offset: 0x8B867, size: 0x8, addend: 0x0, symName: __RNvMs_NtCsiTraAjBDcu4_5alloc3vecINtB4_3VecNtNtCsc29TF2YcYso_3syn4attr9AttributeE7reserveBI_, symObjAddr: 0x1BC0, symBinAddr: 0x31110, symSize: 0xC8 }
  - { offset: 0x8BA3E, size: 0x8, addend: 0x0, symName: __RNvMs_NtCsiTraAjBDcu4_5alloc3vecINtB4_3VecNtNtCsc29TF2YcYso_3syn4attr9AttributeE8as_sliceBI_, symObjAddr: 0x1C88, symBinAddr: 0x311D8, symSize: 0x6C }
  - { offset: 0x8BB1D, size: 0x8, addend: 0x0, symName: __RNvMs_NtCsiTraAjBDcu4_5alloc3vecINtB4_3VecNtNtCsc29TF2YcYso_3syn4attr9AttributeE8is_emptyBI_, symObjAddr: 0x1CF4, symBinAddr: 0x31244, symSize: 0x20 }
  - { offset: 0x8BB7D, size: 0x8, addend: 0x0, symName: __RNvMs_NtCsiTraAjBDcu4_5alloc3vecINtB4_3VecNtNtCsc29TF2YcYso_3syn4expr3ArmE3lenBI_, symObjAddr: 0x1DDC, symBinAddr: 0x31264, symSize: 0x18 }
  - { offset: 0x8BCC5, size: 0x8, addend: 0x0, symName: __RNvMs_NtCsiTraAjBDcu4_5alloc3vecINtB4_3VecNtNtCsc29TF2YcYso_3syn4expr3ArmE4pushBI_, symObjAddr: 0x1DF4, symBinAddr: 0x3127C, symSize: 0x120 }
  - { offset: 0x8BF13, size: 0x8, addend: 0x0, symName: __RNvMs_NtCsiTraAjBDcu4_5alloc3vecINtB4_3VecNtNtCsc29TF2YcYso_3syn4expr3ArmE8as_sliceBI_, symObjAddr: 0x1F14, symBinAddr: 0x3139C, symSize: 0x6C }
  - { offset: 0x8C127, size: 0x8, addend: 0x0, symName: __RNvMs_NtCsiTraAjBDcu4_5alloc3vecINtB4_3VecNtNtCsc29TF2YcYso_3syn4expr6ExprIfE3popBI_, symObjAddr: 0x1F80, symBinAddr: 0x31408, symSize: 0x108 }
  - { offset: 0x8C39B, size: 0x8, addend: 0x0, symName: __RNvMs_NtCsiTraAjBDcu4_5alloc3vecINtB4_3VecNtNtCsc29TF2YcYso_3syn4expr6ExprIfE4pushBI_, symObjAddr: 0x2088, symBinAddr: 0x31510, symSize: 0x120 }
  - { offset: 0x8C665, size: 0x8, addend: 0x0, symName: __RNvMs_NtCsiTraAjBDcu4_5alloc3vecINtB4_3VecNtNtCsc29TF2YcYso_3syn4item11ForeignItemE4pushBI_, symObjAddr: 0x21A8, symBinAddr: 0x31630, symSize: 0x120 }
  - { offset: 0x8C92F, size: 0x8, addend: 0x0, symName: __RNvMs_NtCsiTraAjBDcu4_5alloc3vecINtB4_3VecNtNtCsc29TF2YcYso_3syn4item4ItemE4pushBI_, symObjAddr: 0x22C8, symBinAddr: 0x31750, symSize: 0x120 }
  - { offset: 0x8CBF9, size: 0x8, addend: 0x0, symName: __RNvMs_NtCsiTraAjBDcu4_5alloc3vecINtB4_3VecNtNtCsc29TF2YcYso_3syn4item8ImplItemE4pushBI_, symObjAddr: 0x23E8, symBinAddr: 0x31870, symSize: 0x120 }
  - { offset: 0x8CEC3, size: 0x8, addend: 0x0, symName: __RNvMs_NtCsiTraAjBDcu4_5alloc3vecINtB4_3VecNtNtCsc29TF2YcYso_3syn4item9TraitItemE4pushBI_, symObjAddr: 0x2508, symBinAddr: 0x31990, symSize: 0x120 }
  - { offset: 0x8D18D, size: 0x8, addend: 0x0, symName: __RNvMs_NtCsiTraAjBDcu4_5alloc3vecINtB4_3VecNtNtCsc29TF2YcYso_3syn4stmt4StmtE4pushBI_, symObjAddr: 0x2628, symBinAddr: 0x31AB0, symSize: 0x120 }
  - { offset: 0x8D39F, size: 0x8, addend: 0x0, symName: __RNvMs_NtCsiTraAjBDcu4_5alloc3vecINtB4_3VecNtNtCsc29TF2YcYso_3syn5error12ErrorMessageE3lenBI_, symObjAddr: 0x2830, symBinAddr: 0x31BD0, symSize: 0x18 }
  - { offset: 0x8D46F, size: 0x8, addend: 0x0, symName: __RNvMs_NtCsiTraAjBDcu4_5alloc3vecINtB4_3VecNtNtCsc29TF2YcYso_3syn5error12ErrorMessageE8as_sliceBI_, symObjAddr: 0x2910, symBinAddr: 0x31BE8, symSize: 0x6C }
  - { offset: 0x8D656, size: 0x8, addend: 0x0, symName: __RNvMs_NtCsiTraAjBDcu4_5alloc3vecINtB4_3VecNtNtCsc29TF2YcYso_3syn6buffer5EntryE13shrink_to_fitBI_, symObjAddr: 0x297C, symBinAddr: 0x31C54, symSize: 0xE8 }
  - { offset: 0x8D8C9, size: 0x8, addend: 0x0, symName: __RNvMs_NtCsiTraAjBDcu4_5alloc3vecINtB4_3VecNtNtCsc29TF2YcYso_3syn6buffer5EntryE16into_boxed_sliceBI_, symObjAddr: 0x2A64, symBinAddr: 0x31D3C, symSize: 0x118 }
  - { offset: 0x8DA92, size: 0x8, addend: 0x0, symName: __RNvMs_NtCsiTraAjBDcu4_5alloc3vecINtB4_3VecNtNtCsc29TF2YcYso_3syn6buffer5EntryE3lenBI_, symObjAddr: 0x2B7C, symBinAddr: 0x31E54, symSize: 0x18 }
  - { offset: 0x8DBB3, size: 0x8, addend: 0x0, symName: __RNvMs_NtCsiTraAjBDcu4_5alloc3vecINtB4_3VecNtNtCsc29TF2YcYso_3syn6buffer5EntryE4pushBI_, symObjAddr: 0x2B94, symBinAddr: 0x31E6C, symSize: 0x100 }
  - { offset: 0x8DE7D, size: 0x8, addend: 0x0, symName: __RNvMs_NtCsiTraAjBDcu4_5alloc3vecINtB4_3VecNtNtCsc29TF2YcYso_3syn8generics14TypeParamBoundE7reserveBI_, symObjAddr: 0x2C94, symBinAddr: 0x31F6C, symSize: 0xC8 }
  - { offset: 0x8DFE4, size: 0x8, addend: 0x0, symName: __RNvMs_NtCsiTraAjBDcu4_5alloc3vecINtB4_3VecReE3lenCsc29TF2YcYso_3syn, symObjAddr: 0x2D5C, symBinAddr: 0x32034, symSize: 0x18 }
  - { offset: 0x8E0F8, size: 0x8, addend: 0x0, symName: __RNvMs_NtCsiTraAjBDcu4_5alloc3vecINtB4_3VecReE4pushCsc29TF2YcYso_3syn, symObjAddr: 0x2D74, symBinAddr: 0x3204C, symSize: 0xF4 }
  - { offset: 0x8E31B, size: 0x8, addend: 0x0, symName: __RNvMs_NtCsiTraAjBDcu4_5alloc3vecINtB4_3VecReE8as_sliceCsc29TF2YcYso_3syn, symObjAddr: 0x2E68, symBinAddr: 0x32140, symSize: 0x6C }
  - { offset: 0x8E3E2, size: 0x8, addend: 0x0, symName: __RNvMs_NtCsiTraAjBDcu4_5alloc3vecINtB4_3VecTNtNtCsc29TF2YcYso_3syn2ty4TypeNtNtBJ_5token5CommaEE3lenBJ_, symObjAddr: 0x2ED4, symBinAddr: 0x321AC, symSize: 0x18 }
  - { offset: 0x8E52A, size: 0x8, addend: 0x0, symName: __RNvMs_NtCsiTraAjBDcu4_5alloc3vecINtB4_3VecTNtNtCsc29TF2YcYso_3syn2ty4TypeNtNtBJ_5token5CommaEE4pushBJ_, symObjAddr: 0x2EEC, symBinAddr: 0x321C4, symSize: 0x120 }
  - { offset: 0x8E778, size: 0x8, addend: 0x0, symName: __RNvMs_NtCsiTraAjBDcu4_5alloc3vecINtB4_3VecTNtNtCsc29TF2YcYso_3syn2ty4TypeNtNtBJ_5token5CommaEE8as_sliceBJ_, symObjAddr: 0x300C, symBinAddr: 0x322E4, symSize: 0x6C }
  - { offset: 0x8E83F, size: 0x8, addend: 0x0, symName: __RNvMs_NtCsiTraAjBDcu4_5alloc3vecINtB4_3VecTNtNtCsc29TF2YcYso_3syn2ty9BareFnArgNtNtBJ_5token5CommaEE3lenBJ_, symObjAddr: 0x3078, symBinAddr: 0x32350, symSize: 0x18 }
  - { offset: 0x8E987, size: 0x8, addend: 0x0, symName: __RNvMs_NtCsiTraAjBDcu4_5alloc3vecINtB4_3VecTNtNtCsc29TF2YcYso_3syn2ty9BareFnArgNtNtBJ_5token5CommaEE4pushBJ_, symObjAddr: 0x3090, symBinAddr: 0x32368, symSize: 0x120 }
  - { offset: 0x8EBD5, size: 0x8, addend: 0x0, symName: __RNvMs_NtCsiTraAjBDcu4_5alloc3vecINtB4_3VecTNtNtCsc29TF2YcYso_3syn2ty9BareFnArgNtNtBJ_5token5CommaEE8as_sliceBJ_, symObjAddr: 0x31B0, symBinAddr: 0x32488, symSize: 0x6C }
  - { offset: 0x8EDA2, size: 0x8, addend: 0x0, symName: __RNvMs_NtCsiTraAjBDcu4_5alloc3vecINtB4_3VecTNtNtCsc29TF2YcYso_3syn3pat3PatNtNtBJ_5token2OrEE4pushBJ_, symObjAddr: 0x321C, symBinAddr: 0x324F4, symSize: 0x120 }
  - { offset: 0x8EFFD, size: 0x8, addend: 0x0, symName: __RNvMs_NtCsiTraAjBDcu4_5alloc3vecINtB4_3VecTNtNtCsc29TF2YcYso_3syn3pat3PatNtNtBJ_5token2OrEE8as_sliceBJ_, symObjAddr: 0x333C, symBinAddr: 0x32614, symSize: 0x6C }
  - { offset: 0x8F0C4, size: 0x8, addend: 0x0, symName: __RNvMs_NtCsiTraAjBDcu4_5alloc3vecINtB4_3VecTNtNtCsc29TF2YcYso_3syn3pat3PatNtNtBJ_5token5CommaEE3lenBJ_, symObjAddr: 0x33A8, symBinAddr: 0x32680, symSize: 0x18 }
  - { offset: 0x8F20C, size: 0x8, addend: 0x0, symName: __RNvMs_NtCsiTraAjBDcu4_5alloc3vecINtB4_3VecTNtNtCsc29TF2YcYso_3syn3pat3PatNtNtBJ_5token5CommaEE4pushBJ_, symObjAddr: 0x33C0, symBinAddr: 0x32698, symSize: 0x120 }
  - { offset: 0x8F45A, size: 0x8, addend: 0x0, symName: __RNvMs_NtCsiTraAjBDcu4_5alloc3vecINtB4_3VecTNtNtCsc29TF2YcYso_3syn3pat3PatNtNtBJ_5token5CommaEE8as_sliceBJ_, symObjAddr: 0x34E0, symBinAddr: 0x327B8, symSize: 0x6C }
  - { offset: 0x8F627, size: 0x8, addend: 0x0, symName: __RNvMs_NtCsiTraAjBDcu4_5alloc3vecINtB4_3VecTNtNtCsc29TF2YcYso_3syn3pat8FieldPatNtNtBJ_5token5CommaEE4pushBJ_, symObjAddr: 0x354C, symBinAddr: 0x32824, symSize: 0x118 }
  - { offset: 0x8F880, size: 0x8, addend: 0x0, symName: __RNvMs_NtCsiTraAjBDcu4_5alloc3vecINtB4_3VecTNtNtCsc29TF2YcYso_3syn3pat8FieldPatNtNtBJ_5token5CommaEE8as_sliceBJ_, symObjAddr: 0x3664, symBinAddr: 0x3293C, symSize: 0x6C }
  - { offset: 0x8FA74, size: 0x8, addend: 0x0, symName: __RNvMs_NtCsiTraAjBDcu4_5alloc3vecINtB4_3VecTNtNtCsc29TF2YcYso_3syn4data5FieldNtNtBJ_5token5CommaEE4pushBJ_, symObjAddr: 0x3754, symBinAddr: 0x329A8, symSize: 0x120 }
  - { offset: 0x8FCB9, size: 0x8, addend: 0x0, symName: __RNvMs_NtCsiTraAjBDcu4_5alloc3vecINtB4_3VecTNtNtCsc29TF2YcYso_3syn4data5FieldNtNtBJ_5token5CommaEE8as_sliceBJ_, symObjAddr: 0x3874, symBinAddr: 0x32AC8, symSize: 0x6C }
  - { offset: 0x8FE86, size: 0x8, addend: 0x0, symName: __RNvMs_NtCsiTraAjBDcu4_5alloc3vecINtB4_3VecTNtNtCsc29TF2YcYso_3syn4data7VariantNtNtBJ_5token5CommaEE4pushBJ_, symObjAddr: 0x38F8, symBinAddr: 0x32B34, symSize: 0x120 }
  - { offset: 0x900E1, size: 0x8, addend: 0x0, symName: __RNvMs_NtCsiTraAjBDcu4_5alloc3vecINtB4_3VecTNtNtCsc29TF2YcYso_3syn4data7VariantNtNtBJ_5token5CommaEE8as_sliceBJ_, symObjAddr: 0x3A18, symBinAddr: 0x32C54, symSize: 0x6C }
  - { offset: 0x902AE, size: 0x8, addend: 0x0, symName: __RNvMs_NtCsiTraAjBDcu4_5alloc3vecINtB4_3VecTNtNtCsc29TF2YcYso_3syn4expr10FieldValueNtNtBJ_5token5CommaEE4pushBJ_, symObjAddr: 0x3A84, symBinAddr: 0x32CC0, symSize: 0x120 }
  - { offset: 0x90509, size: 0x8, addend: 0x0, symName: __RNvMs_NtCsiTraAjBDcu4_5alloc3vecINtB4_3VecTNtNtCsc29TF2YcYso_3syn4expr10FieldValueNtNtBJ_5token5CommaEE8as_sliceBJ_, symObjAddr: 0x3BA4, symBinAddr: 0x32DE0, symSize: 0x6C }
  - { offset: 0x905D0, size: 0x8, addend: 0x0, symName: __RNvMs_NtCsiTraAjBDcu4_5alloc3vecINtB4_3VecTNtNtCsc29TF2YcYso_3syn4expr4ExprNtNtBJ_5token5CommaEE3lenBJ_, symObjAddr: 0x3C10, symBinAddr: 0x32E4C, symSize: 0x18 }
  - { offset: 0x90718, size: 0x8, addend: 0x0, symName: __RNvMs_NtCsiTraAjBDcu4_5alloc3vecINtB4_3VecTNtNtCsc29TF2YcYso_3syn4expr4ExprNtNtBJ_5token5CommaEE4pushBJ_, symObjAddr: 0x3C28, symBinAddr: 0x32E64, symSize: 0x120 }
  - { offset: 0x90966, size: 0x8, addend: 0x0, symName: __RNvMs_NtCsiTraAjBDcu4_5alloc3vecINtB4_3VecTNtNtCsc29TF2YcYso_3syn4expr4ExprNtNtBJ_5token5CommaEE8as_sliceBJ_, symObjAddr: 0x3D48, symBinAddr: 0x32F84, symSize: 0x6C }
  - { offset: 0x90A2D, size: 0x8, addend: 0x0, symName: __RNvMs_NtCsiTraAjBDcu4_5alloc3vecINtB4_3VecTNtNtCsc29TF2YcYso_3syn4item5FnArgNtNtBJ_5token5CommaEE3lenBJ_, symObjAddr: 0x3DB4, symBinAddr: 0x32FF0, symSize: 0x18 }
  - { offset: 0x90B75, size: 0x8, addend: 0x0, symName: __RNvMs_NtCsiTraAjBDcu4_5alloc3vecINtB4_3VecTNtNtCsc29TF2YcYso_3syn4item5FnArgNtNtBJ_5token5CommaEE4pushBJ_, symObjAddr: 0x3DCC, symBinAddr: 0x33008, symSize: 0x120 }
  - { offset: 0x90DC3, size: 0x8, addend: 0x0, symName: __RNvMs_NtCsiTraAjBDcu4_5alloc3vecINtB4_3VecTNtNtCsc29TF2YcYso_3syn4item5FnArgNtNtBJ_5token5CommaEE8as_sliceBJ_, symObjAddr: 0x3EEC, symBinAddr: 0x33128, symSize: 0x6C }
  - { offset: 0x90F90, size: 0x8, addend: 0x0, symName: __RNvMs_NtCsiTraAjBDcu4_5alloc3vecINtB4_3VecTNtNtCsc29TF2YcYso_3syn4item7UseTreeNtNtBJ_5token5CommaEE4pushBJ_, symObjAddr: 0x3F58, symBinAddr: 0x33194, symSize: 0x118 }
  - { offset: 0x911E9, size: 0x8, addend: 0x0, symName: __RNvMs_NtCsiTraAjBDcu4_5alloc3vecINtB4_3VecTNtNtCsc29TF2YcYso_3syn4item7UseTreeNtNtBJ_5token5CommaEE8as_sliceBJ_, symObjAddr: 0x4070, symBinAddr: 0x332AC, symSize: 0x6C }
  - { offset: 0x9137E, size: 0x8, addend: 0x0, symName: __RNvMs_NtCsiTraAjBDcu4_5alloc3vecINtB4_3VecTNtNtCsc29TF2YcYso_3syn4path11PathSegmentNtNtBJ_5token7PathSepEE12as_mut_sliceBJ_, symObjAddr: 0x40DC, symBinAddr: 0x33318, symSize: 0x6C }
  - { offset: 0x9145A, size: 0x8, addend: 0x0, symName: __RNvMs_NtCsiTraAjBDcu4_5alloc3vecINtB4_3VecTNtNtCsc29TF2YcYso_3syn4path11PathSegmentNtNtBJ_5token7PathSepEE3lenBJ_, symObjAddr: 0x4148, symBinAddr: 0x33384, symSize: 0x18 }
  - { offset: 0x915A8, size: 0x8, addend: 0x0, symName: __RNvMs_NtCsiTraAjBDcu4_5alloc3vecINtB4_3VecTNtNtCsc29TF2YcYso_3syn4path11PathSegmentNtNtBJ_5token7PathSepEE3popBJ_, symObjAddr: 0x4160, symBinAddr: 0x3339C, symSize: 0x10C }
  - { offset: 0x9181C, size: 0x8, addend: 0x0, symName: __RNvMs_NtCsiTraAjBDcu4_5alloc3vecINtB4_3VecTNtNtCsc29TF2YcYso_3syn4path11PathSegmentNtNtBJ_5token7PathSepEE4pushBJ_, symObjAddr: 0x426C, symBinAddr: 0x334A8, symSize: 0x120 }
  - { offset: 0x91A61, size: 0x8, addend: 0x0, symName: __RNvMs_NtCsiTraAjBDcu4_5alloc3vecINtB4_3VecTNtNtCsc29TF2YcYso_3syn4path11PathSegmentNtNtBJ_5token7PathSepEE8as_sliceBJ_, symObjAddr: 0x438C, symBinAddr: 0x335C8, symSize: 0x6C }
  - { offset: 0x91B28, size: 0x8, addend: 0x0, symName: __RNvMs_NtCsiTraAjBDcu4_5alloc3vecINtB4_3VecTNtNtCsc29TF2YcYso_3syn4path15GenericArgumentNtNtBJ_5token5CommaEE3lenBJ_, symObjAddr: 0x43F8, symBinAddr: 0x33634, symSize: 0x18 }
  - { offset: 0x91C70, size: 0x8, addend: 0x0, symName: __RNvMs_NtCsiTraAjBDcu4_5alloc3vecINtB4_3VecTNtNtCsc29TF2YcYso_3syn4path15GenericArgumentNtNtBJ_5token5CommaEE4pushBJ_, symObjAddr: 0x4410, symBinAddr: 0x3364C, symSize: 0x120 }
  - { offset: 0x91EBE, size: 0x8, addend: 0x0, symName: __RNvMs_NtCsiTraAjBDcu4_5alloc3vecINtB4_3VecTNtNtCsc29TF2YcYso_3syn4path15GenericArgumentNtNtBJ_5token5CommaEE8as_sliceBJ_, symObjAddr: 0x4530, symBinAddr: 0x3376C, symSize: 0x6C }
  - { offset: 0x91FE0, size: 0x8, addend: 0x0, symName: __RNvMs_NtCsiTraAjBDcu4_5alloc3vecINtB4_3VecTNtNtCsc29TF2YcYso_3syn8generics12GenericParamNtNtBJ_5token5CommaEE3lenBJ_, symObjAddr: 0x4608, symBinAddr: 0x337D8, symSize: 0x18 }
  - { offset: 0x920F4, size: 0x8, addend: 0x0, symName: __RNvMs_NtCsiTraAjBDcu4_5alloc3vecINtB4_3VecTNtNtCsc29TF2YcYso_3syn8generics12GenericParamNtNtBJ_5token5CommaEE4pushBJ_, symObjAddr: 0x4620, symBinAddr: 0x337F0, symSize: 0x120 }
  - { offset: 0x92339, size: 0x8, addend: 0x0, symName: __RNvMs_NtCsiTraAjBDcu4_5alloc3vecINtB4_3VecTNtNtCsc29TF2YcYso_3syn8generics12GenericParamNtNtBJ_5token5CommaEE8as_sliceBJ_, symObjAddr: 0x4740, symBinAddr: 0x33910, symSize: 0x6C }
  - { offset: 0x92506, size: 0x8, addend: 0x0, symName: __RNvMs_NtCsiTraAjBDcu4_5alloc3vecINtB4_3VecTNtNtCsc29TF2YcYso_3syn8generics13CapturedParamNtNtBJ_5token5CommaEE4pushBJ_, symObjAddr: 0x47AC, symBinAddr: 0x3397C, symSize: 0x118 }
  - { offset: 0x9275F, size: 0x8, addend: 0x0, symName: __RNvMs_NtCsiTraAjBDcu4_5alloc3vecINtB4_3VecTNtNtCsc29TF2YcYso_3syn8generics13CapturedParamNtNtBJ_5token5CommaEE8as_sliceBJ_, symObjAddr: 0x48C4, symBinAddr: 0x33A94, symSize: 0x6C }
  - { offset: 0x92826, size: 0x8, addend: 0x0, symName: __RNvMs_NtCsiTraAjBDcu4_5alloc3vecINtB4_3VecTNtNtCsc29TF2YcYso_3syn8generics14TypeParamBoundNtNtBJ_5token4PlusEE3lenBJ_, symObjAddr: 0x4930, symBinAddr: 0x33B00, symSize: 0x18 }
  - { offset: 0x92961, size: 0x8, addend: 0x0, symName: __RNvMs_NtCsiTraAjBDcu4_5alloc3vecINtB4_3VecTNtNtCsc29TF2YcYso_3syn8generics14TypeParamBoundNtNtBJ_5token4PlusEE4pushBJ_, symObjAddr: 0x4948, symBinAddr: 0x33B18, symSize: 0x118 }
  - { offset: 0x92BAF, size: 0x8, addend: 0x0, symName: __RNvMs_NtCsiTraAjBDcu4_5alloc3vecINtB4_3VecTNtNtCsc29TF2YcYso_3syn8generics14TypeParamBoundNtNtBJ_5token4PlusEE8as_sliceBJ_, symObjAddr: 0x4A60, symBinAddr: 0x33C30, symSize: 0x6C }
  - { offset: 0x92C76, size: 0x8, addend: 0x0, symName: __RNvMs_NtCsiTraAjBDcu4_5alloc3vecINtB4_3VecTNtNtCsc29TF2YcYso_3syn8generics14WherePredicateNtNtBJ_5token5CommaEE3lenBJ_, symObjAddr: 0x4ACC, symBinAddr: 0x33C9C, symSize: 0x18 }
  - { offset: 0x92DBE, size: 0x8, addend: 0x0, symName: __RNvMs_NtCsiTraAjBDcu4_5alloc3vecINtB4_3VecTNtNtCsc29TF2YcYso_3syn8generics14WherePredicateNtNtBJ_5token5CommaEE4pushBJ_, symObjAddr: 0x4AE4, symBinAddr: 0x33CB4, symSize: 0x120 }
  - { offset: 0x9300C, size: 0x8, addend: 0x0, symName: __RNvMs_NtCsiTraAjBDcu4_5alloc3vecINtB4_3VecTNtNtCsc29TF2YcYso_3syn8generics14WherePredicateNtNtBJ_5token5CommaEE8as_sliceBJ_, symObjAddr: 0x4C04, symBinAddr: 0x33DD4, symSize: 0x6C }
  - { offset: 0x930D3, size: 0x8, addend: 0x0, symName: __RNvMs_NtCsiTraAjBDcu4_5alloc3vecINtB4_3VecTNtNtCsc29TF2YcYso_3syn8lifetime8LifetimeNtNtBJ_5token4PlusEE3lenBJ_, symObjAddr: 0x4C70, symBinAddr: 0x33E40, symSize: 0x18 }
  - { offset: 0x9321B, size: 0x8, addend: 0x0, symName: __RNvMs_NtCsiTraAjBDcu4_5alloc3vecINtB4_3VecTNtNtCsc29TF2YcYso_3syn8lifetime8LifetimeNtNtBJ_5token4PlusEE4pushBJ_, symObjAddr: 0x4C88, symBinAddr: 0x33E58, symSize: 0x118 }
  - { offset: 0x93467, size: 0x8, addend: 0x0, symName: __RNvMs_NtCsiTraAjBDcu4_5alloc3vecINtB4_3VecTNtNtCsc29TF2YcYso_3syn8lifetime8LifetimeNtNtBJ_5token4PlusEE8as_sliceBJ_, symObjAddr: 0x4DA0, symBinAddr: 0x33F70, symSize: 0x6C }
  - { offset: 0x93627, size: 0x8, addend: 0x0, symName: __RNvMs_NtCsiTraAjBDcu4_5alloc3vecINtB4_3VechE13shrink_to_fitCsc29TF2YcYso_3syn, symObjAddr: 0x4E0C, symBinAddr: 0x33FDC, symSize: 0xE0 }
  - { offset: 0x93855, size: 0x8, addend: 0x0, symName: __RNvMs_NtCsiTraAjBDcu4_5alloc3vecINtB4_3VechE16into_boxed_sliceCsc29TF2YcYso_3syn, symObjAddr: 0x4EEC, symBinAddr: 0x340BC, symSize: 0x118 }
  - { offset: 0x93A1E, size: 0x8, addend: 0x0, symName: __RNvMs_NtCsiTraAjBDcu4_5alloc3vecINtB4_3VechE3lenCsc29TF2YcYso_3syn, symObjAddr: 0x5004, symBinAddr: 0x341D4, symSize: 0x18 }
  - { offset: 0x93B32, size: 0x8, addend: 0x0, symName: __RNvMs_NtCsiTraAjBDcu4_5alloc3vecINtB4_3VechE4pushCsc29TF2YcYso_3syn, symObjAddr: 0x501C, symBinAddr: 0x341EC, symSize: 0xDC }
  - { offset: 0x93D54, size: 0x8, addend: 0x0, symName: __RNvMs_NtCsiTraAjBDcu4_5alloc3vecINtB4_3VechE8as_sliceCsc29TF2YcYso_3syn, symObjAddr: 0x50F8, symBinAddr: 0x342C8, symSize: 0x68 }
  - { offset: 0x93FC4, size: 0x8, addend: 0x0, symName: __RNvMs_NtCsiTraAjBDcu4_5alloc3vecINtB4_3VechE9split_offCsc29TF2YcYso_3syn, symObjAddr: 0x5160, symBinAddr: 0x34330, symSize: 0x148 }
  - { offset: 0x9A75E, size: 0x8, addend: 0x0, symName: __RNvXs7_NtCsc29TF2YcYso_3syn4exprNtB5_5IndexINtNtCsaNl6UpbT7bw_4core7convert4FromjE4from, symObjAddr: 0x2AE4, symBinAddr: 0x36C7C, symSize: 0x84 }
  - { offset: 0x9A797, size: 0x8, addend: 0x0, symName: __RNvXNtNtCsc29TF2YcYso_3syn4expr7parsingNtB4_4ExprNtNtB6_5parse5Parse5parse, symObjAddr: 0x2C1C, symBinAddr: 0x36D00, symSize: 0x3C }
  - { offset: 0x9A7CB, size: 0x8, addend: 0x0, symName: __RNvXs4_NtNtCsc29TF2YcYso_3syn4expr7parsingNtB7_7ExprLitNtNtB9_5parse5Parse5parse, symObjAddr: 0x36BC, symBinAddr: 0x36D3C, symSize: 0x14C }
  - { offset: 0x9A81E, size: 0x8, addend: 0x0, symName: __RNvXs7_NtNtCsc29TF2YcYso_3syn4expr7parsingNtB7_6ExprIfNtNtB9_5parse5Parse5parse, symObjAddr: 0x3AF0, symBinAddr: 0x36E88, symSize: 0x1040 }
  - { offset: 0x9AA95, size: 0x8, addend: 0x0, symName: __RNvXs8_NtNtCsc29TF2YcYso_3syn4expr7parsingNtB7_9ExprInferNtNtB9_5parse5Parse5parse, symObjAddr: 0x4B30, symBinAddr: 0x37EC8, symSize: 0x1D0 }
  - { offset: 0x9AB26, size: 0x8, addend: 0x0, symName: __RNvXs9_NtNtCsc29TF2YcYso_3syn4expr7parsingNtB7_11ExprForLoopNtNtB9_5parse5Parse5parse, symObjAddr: 0x4D00, symBinAddr: 0x38098, symSize: 0x9A4 }
  - { offset: 0x9ADF5, size: 0x8, addend: 0x0, symName: __RNvXsa_NtNtCsc29TF2YcYso_3syn4expr7parsingNtB7_8ExprLoopNtNtB9_5parse5Parse5parse, symObjAddr: 0x56A4, symBinAddr: 0x38A3C, symSize: 0x590 }
  - { offset: 0x9AFA8, size: 0x8, addend: 0x0, symName: __RNvXsb_NtNtCsc29TF2YcYso_3syn4expr7parsingNtB7_9ExprMatchNtNtB9_5parse5Parse5parse, symObjAddr: 0x5C34, symBinAddr: 0x38FCC, symSize: 0x60C }
  - { offset: 0x9B199, size: 0x8, addend: 0x0, symName: __RNvXsh_NtNtCsc29TF2YcYso_3syn4expr7parsingNtB7_10ExprReturnNtNtB9_5parse5Parse5parse, symObjAddr: 0x6A7C, symBinAddr: 0x395D8, symSize: 0x210 }
  - { offset: 0x9B1FB, size: 0x8, addend: 0x0, symName: __RNvXsi_NtNtCsc29TF2YcYso_3syn4expr7parsingNtB7_12ExprTryBlockNtNtB9_5parse5Parse5parse, symObjAddr: 0x6C8C, symBinAddr: 0x397E8, symSize: 0x220 }
  - { offset: 0x9B26D, size: 0x8, addend: 0x0, symName: __RNvXsj_NtNtCsc29TF2YcYso_3syn4expr7parsingNtB7_9ExprYieldNtNtB9_5parse5Parse5parse, symObjAddr: 0x6EAC, symBinAddr: 0x39A08, symSize: 0x210 }
  - { offset: 0x9B2CF, size: 0x8, addend: 0x0, symName: __RNvXsk_NtNtCsc29TF2YcYso_3syn4expr7parsingNtB7_9ExprAsyncNtNtB9_5parse5Parse5parse, symObjAddr: 0x70BC, symBinAddr: 0x39C18, symSize: 0x2E8 }
  - { offset: 0x9B360, size: 0x8, addend: 0x0, symName: __RNvXsl_NtNtCsc29TF2YcYso_3syn4expr7parsingNtB7_9ExprWhileNtNtB9_5parse5Parse5parse, symObjAddr: 0x73A4, symBinAddr: 0x39F00, symSize: 0x760 }
  - { offset: 0x9B596, size: 0x8, addend: 0x0, symName: __RNvXsm_NtNtCsc29TF2YcYso_3syn4expr7parsingNtB7_9ExprConstNtNtB9_5parse5Parse5parse, symObjAddr: 0x7B04, symBinAddr: 0x3A660, symSize: 0x3BC }
  - { offset: 0x9B6EC, size: 0x8, addend: 0x0, symName: __RNvXsn_NtNtCsc29TF2YcYso_3syn4expr7parsingNtB7_5LabelNtNtB9_5parse5Parse5parse, symObjAddr: 0x7EC0, symBinAddr: 0x3AA1C, symSize: 0x1D4 }
  - { offset: 0x9B77D, size: 0x8, addend: 0x0, symName: __RNvXsp_NtNtCsc29TF2YcYso_3syn4expr7parsingNtB7_12ExprContinueNtNtB9_5parse5Parse5parse, symObjAddr: 0x8094, symBinAddr: 0x3ABF0, symSize: 0x200 }
  - { offset: 0x9B7EF, size: 0x8, addend: 0x0, symName: __RNvXsq_NtNtCsc29TF2YcYso_3syn4expr7parsingNtB7_10FieldValueNtNtB9_5parse5Parse5parse, symObjAddr: 0x8294, symBinAddr: 0x3ADF0, symSize: 0x560 }
  - { offset: 0x9B98E, size: 0x8, addend: 0x0, symName: __RNvXss_NtNtCsc29TF2YcYso_3syn4expr7parsingNtB7_10ExprUnsafeNtNtB9_5parse5Parse5parse, symObjAddr: 0x89B4, symBinAddr: 0x3B350, symSize: 0x3BC }
  - { offset: 0x9BAE4, size: 0x8, addend: 0x0, symName: __RNvXst_NtNtCsc29TF2YcYso_3syn4expr7parsingNtB7_9ExprBlockNtNtB9_5parse5Parse5parse, symObjAddr: 0x8D70, symBinAddr: 0x3B70C, symSize: 0x4FC }
  - { offset: 0x9BC6A, size: 0x8, addend: 0x0, symName: __RNvXsu_NtNtCsc29TF2YcYso_3syn4expr7parsingNtB7_11RangeLimitsNtNtB9_5parse5Parse5parse, symObjAddr: 0x926C, symBinAddr: 0x3BC08, symSize: 0x234 }
  - { offset: 0x9BCF8, size: 0x8, addend: 0x0, symName: __RNvXsw_NtNtCsc29TF2YcYso_3syn4expr7parsingNtB7_8ExprPathNtNtB9_5parse5Parse5parse, symObjAddr: 0x97D4, symBinAddr: 0x3C170, symSize: 0x238 }
  - { offset: 0x9BDE6, size: 0x8, addend: 0x0, symName: __RNvXsx_NtNtCsc29TF2YcYso_3syn4expr7parsingNtB7_6MemberNtNtB9_5parse5Parse5parse, symObjAddr: 0x9A0C, symBinAddr: 0x3C3A8, symSize: 0xFC }
  - { offset: 0x9BE1A, size: 0x8, addend: 0x0, symName: __RNvXsz_NtNtCsc29TF2YcYso_3syn4expr7parsingNtB7_3ArmNtNtB9_5parse5Parse5parse, symObjAddr: 0x9CCC, symBinAddr: 0x3C668, symSize: 0x8EC }
  - { offset: 0x9C052, size: 0x8, addend: 0x0, symName: __RNvXsA_NtNtCsc29TF2YcYso_3syn4expr7parsingNtB7_5IndexNtNtB9_5parse5Parse5parse, symObjAddr: 0xA5B8, symBinAddr: 0x3CF54, symSize: 0x28C }
  - { offset: 0x9C100, size: 0x8, addend: 0x0, symName: __RNvXNtNtCsc29TF2YcYso_3syn4expr8printingNtB4_9ExprArrayNtNtCs4EAaWzSXu1l_5quote9to_tokens8ToTokens9to_tokens, symObjAddr: 0xAAFC, symBinAddr: 0x3D1E0, symSize: 0x58 }
  - { offset: 0x9C13F, size: 0x8, addend: 0x0, symName: __RNvXs_NtNtCsc29TF2YcYso_3syn4expr8printingNtB6_10ExprAssignNtNtCs4EAaWzSXu1l_5quote9to_tokens8ToTokens9to_tokens, symObjAddr: 0xAB54, symBinAddr: 0x3D238, symSize: 0x58 }
  - { offset: 0x9C17E, size: 0x8, addend: 0x0, symName: __RNvXs0_NtNtCsc29TF2YcYso_3syn4expr8printingNtB7_9ExprAsyncNtNtCs4EAaWzSXu1l_5quote9to_tokens8ToTokens9to_tokens, symObjAddr: 0xABAC, symBinAddr: 0x3D290, symSize: 0x74 }
  - { offset: 0x9C1BD, size: 0x8, addend: 0x0, symName: __RNvXs1_NtNtCsc29TF2YcYso_3syn4expr8printingNtB7_9ExprAwaitNtNtCs4EAaWzSXu1l_5quote9to_tokens8ToTokens9to_tokens, symObjAddr: 0xAC20, symBinAddr: 0x3D304, symSize: 0x58 }
  - { offset: 0x9C1FC, size: 0x8, addend: 0x0, symName: __RNvXs2_NtNtCsc29TF2YcYso_3syn4expr8printingNtB7_10ExprBinaryNtNtCs4EAaWzSXu1l_5quote9to_tokens8ToTokens9to_tokens, symObjAddr: 0xAC78, symBinAddr: 0x3D35C, symSize: 0x58 }
  - { offset: 0x9C23B, size: 0x8, addend: 0x0, symName: __RNvXs3_NtNtCsc29TF2YcYso_3syn4expr8printingNtB7_9ExprBlockNtNtCs4EAaWzSXu1l_5quote9to_tokens8ToTokens9to_tokens, symObjAddr: 0xACD0, symBinAddr: 0x3D3B4, symSize: 0x68 }
  - { offset: 0x9C27A, size: 0x8, addend: 0x0, symName: __RNvXs4_NtNtCsc29TF2YcYso_3syn4expr8printingNtB7_9ExprBreakNtNtCs4EAaWzSXu1l_5quote9to_tokens8ToTokens9to_tokens, symObjAddr: 0xAD38, symBinAddr: 0x3D41C, symSize: 0x58 }
  - { offset: 0x9C2B9, size: 0x8, addend: 0x0, symName: __RNvXs5_NtNtCsc29TF2YcYso_3syn4expr8printingNtB7_8ExprCallNtNtCs4EAaWzSXu1l_5quote9to_tokens8ToTokens9to_tokens, symObjAddr: 0xAD90, symBinAddr: 0x3D474, symSize: 0x58 }
  - { offset: 0x9C2F8, size: 0x8, addend: 0x0, symName: __RNvXs6_NtNtCsc29TF2YcYso_3syn4expr8printingNtB7_8ExprCastNtNtCs4EAaWzSXu1l_5quote9to_tokens8ToTokens9to_tokens, symObjAddr: 0xADE8, symBinAddr: 0x3D4CC, symSize: 0x58 }
  - { offset: 0x9C337, size: 0x8, addend: 0x0, symName: __RNvXs7_NtNtCsc29TF2YcYso_3syn4expr8printingNtB7_11ExprClosureNtNtCs4EAaWzSXu1l_5quote9to_tokens8ToTokens9to_tokens, symObjAddr: 0xAE40, symBinAddr: 0x3D524, symSize: 0x58 }
  - { offset: 0x9C376, size: 0x8, addend: 0x0, symName: __RNvXs8_NtNtCsc29TF2YcYso_3syn4expr8printingNtB7_9ExprConstNtNtCs4EAaWzSXu1l_5quote9to_tokens8ToTokens9to_tokens, symObjAddr: 0xAE98, symBinAddr: 0x3D57C, symSize: 0x68 }
  - { offset: 0x9C3B5, size: 0x8, addend: 0x0, symName: __RNvXs9_NtNtCsc29TF2YcYso_3syn4expr8printingNtB7_12ExprContinueNtNtCs4EAaWzSXu1l_5quote9to_tokens8ToTokens9to_tokens, symObjAddr: 0xAF00, symBinAddr: 0x3D5E4, symSize: 0x64 }
  - { offset: 0x9C3F4, size: 0x8, addend: 0x0, symName: __RNvXsa_NtNtCsc29TF2YcYso_3syn4expr8printingNtB7_9ExprFieldNtNtCs4EAaWzSXu1l_5quote9to_tokens8ToTokens9to_tokens, symObjAddr: 0xAF64, symBinAddr: 0x3D648, symSize: 0x58 }
  - { offset: 0x9C433, size: 0x8, addend: 0x0, symName: __RNvXsb_NtNtCsc29TF2YcYso_3syn4expr8printingNtB7_11ExprForLoopNtNtCs4EAaWzSXu1l_5quote9to_tokens8ToTokens9to_tokens, symObjAddr: 0xAFBC, symBinAddr: 0x3D6A0, symSize: 0x104 }
  - { offset: 0x9C472, size: 0x8, addend: 0x0, symName: __RNvXsc_NtNtCsc29TF2YcYso_3syn4expr8printingNtB7_9ExprGroupNtNtCs4EAaWzSXu1l_5quote9to_tokens8ToTokens9to_tokens, symObjAddr: 0xB0C0, symBinAddr: 0x3D7A4, symSize: 0x58 }
  - { offset: 0x9C4B1, size: 0x8, addend: 0x0, symName: __RNvXsd_NtNtCsc29TF2YcYso_3syn4expr8printingNtB7_6ExprIfNtNtCs4EAaWzSXu1l_5quote9to_tokens8ToTokens9to_tokens, symObjAddr: 0xB118, symBinAddr: 0x3D7FC, symSize: 0x260 }
  - { offset: 0x9C587, size: 0x8, addend: 0x0, symName: __RNvXse_NtNtCsc29TF2YcYso_3syn4expr8printingNtB7_9ExprIndexNtNtCs4EAaWzSXu1l_5quote9to_tokens8ToTokens9to_tokens, symObjAddr: 0xB378, symBinAddr: 0x3DA5C, symSize: 0x58 }
  - { offset: 0x9C5C6, size: 0x8, addend: 0x0, symName: __RNvXsf_NtNtCsc29TF2YcYso_3syn4expr8printingNtB7_9ExprInferNtNtCs4EAaWzSXu1l_5quote9to_tokens8ToTokens9to_tokens, symObjAddr: 0xB3D0, symBinAddr: 0x3DAB4, symSize: 0x54 }
  - { offset: 0x9C605, size: 0x8, addend: 0x0, symName: __RNvXsg_NtNtCsc29TF2YcYso_3syn4expr8printingNtB7_7ExprLetNtNtCs4EAaWzSXu1l_5quote9to_tokens8ToTokens9to_tokens, symObjAddr: 0xB424, symBinAddr: 0x3DB08, symSize: 0x58 }
  - { offset: 0x9C644, size: 0x8, addend: 0x0, symName: __RNvXsh_NtNtCsc29TF2YcYso_3syn4expr8printingNtB7_7ExprLitNtNtCs4EAaWzSXu1l_5quote9to_tokens8ToTokens9to_tokens, symObjAddr: 0xB47C, symBinAddr: 0x3DB60, symSize: 0x54 }
  - { offset: 0x9C683, size: 0x8, addend: 0x0, symName: __RNvXsi_NtNtCsc29TF2YcYso_3syn4expr8printingNtB7_8ExprLoopNtNtCs4EAaWzSXu1l_5quote9to_tokens8ToTokens9to_tokens, symObjAddr: 0xB4D0, symBinAddr: 0x3DBB4, symSize: 0x78 }
  - { offset: 0x9C6C2, size: 0x8, addend: 0x0, symName: __RNvXsj_NtNtCsc29TF2YcYso_3syn4expr8printingNtB7_9ExprMacroNtNtCs4EAaWzSXu1l_5quote9to_tokens8ToTokens9to_tokens, symObjAddr: 0xB548, symBinAddr: 0x3DC2C, symSize: 0x54 }
  - { offset: 0x9C701, size: 0x8, addend: 0x0, symName: __RNvXsk_NtNtCsc29TF2YcYso_3syn4expr8printingNtB7_9ExprMatchNtNtCs4EAaWzSXu1l_5quote9to_tokens8ToTokens9to_tokens, symObjAddr: 0xB59C, symBinAddr: 0x3DC80, symSize: 0xD4 }
  - { offset: 0x9C740, size: 0x8, addend: 0x0, symName: __RNvXsl_NtNtCsc29TF2YcYso_3syn4expr8printingNtB7_14ExprMethodCallNtNtCs4EAaWzSXu1l_5quote9to_tokens8ToTokens9to_tokens, symObjAddr: 0xB670, symBinAddr: 0x3DD54, symSize: 0x58 }
  - { offset: 0x9C77F, size: 0x8, addend: 0x0, symName: __RNvXsm_NtNtCsc29TF2YcYso_3syn4expr8printingNtB7_9ExprParenNtNtCs4EAaWzSXu1l_5quote9to_tokens8ToTokens9to_tokens, symObjAddr: 0xB6C8, symBinAddr: 0x3DDAC, symSize: 0x58 }
  - { offset: 0x9C7BE, size: 0x8, addend: 0x0, symName: __RNvXsn_NtNtCsc29TF2YcYso_3syn4expr8printingNtB7_8ExprPathNtNtCs4EAaWzSXu1l_5quote9to_tokens8ToTokens9to_tokens, symObjAddr: 0xB720, symBinAddr: 0x3DE04, symSize: 0x64 }
  - { offset: 0x9C7FD, size: 0x8, addend: 0x0, symName: __RNvXso_NtNtCsc29TF2YcYso_3syn4expr8printingNtB7_9ExprRangeNtNtCs4EAaWzSXu1l_5quote9to_tokens8ToTokens9to_tokens, symObjAddr: 0xB784, symBinAddr: 0x3DE68, symSize: 0x58 }
  - { offset: 0x9C83C, size: 0x8, addend: 0x0, symName: __RNvXsp_NtNtCsc29TF2YcYso_3syn4expr8printingNtB7_11ExprRawAddrNtNtCs4EAaWzSXu1l_5quote9to_tokens8ToTokens9to_tokens, symObjAddr: 0xB7DC, symBinAddr: 0x3DEC0, symSize: 0x58 }
  - { offset: 0x9C87B, size: 0x8, addend: 0x0, symName: __RNvXsq_NtNtCsc29TF2YcYso_3syn4expr8printingNtB7_13ExprReferenceNtNtCs4EAaWzSXu1l_5quote9to_tokens8ToTokens9to_tokens, symObjAddr: 0xB834, symBinAddr: 0x3DF18, symSize: 0x58 }
  - { offset: 0x9C8BA, size: 0x8, addend: 0x0, symName: __RNvXsr_NtNtCsc29TF2YcYso_3syn4expr8printingNtB7_10ExprRepeatNtNtCs4EAaWzSXu1l_5quote9to_tokens8ToTokens9to_tokens, symObjAddr: 0xB88C, symBinAddr: 0x3DF70, symSize: 0x58 }
  - { offset: 0x9C8F9, size: 0x8, addend: 0x0, symName: __RNvXss_NtNtCsc29TF2YcYso_3syn4expr8printingNtB7_10ExprReturnNtNtCs4EAaWzSXu1l_5quote9to_tokens8ToTokens9to_tokens, symObjAddr: 0xB8E4, symBinAddr: 0x3DFC8, symSize: 0x58 }
  - { offset: 0x9C938, size: 0x8, addend: 0x0, symName: __RNvXst_NtNtCsc29TF2YcYso_3syn4expr8printingNtB7_10ExprStructNtNtCs4EAaWzSXu1l_5quote9to_tokens8ToTokens9to_tokens, symObjAddr: 0xB93C, symBinAddr: 0x3E020, symSize: 0x78 }
  - { offset: 0x9C977, size: 0x8, addend: 0x0, symName: __RNvXsu_NtNtCsc29TF2YcYso_3syn4expr8printingNtB7_7ExprTryNtNtCs4EAaWzSXu1l_5quote9to_tokens8ToTokens9to_tokens, symObjAddr: 0xB9B4, symBinAddr: 0x3E098, symSize: 0x58 }
  - { offset: 0x9C9B6, size: 0x8, addend: 0x0, symName: __RNvXsv_NtNtCsc29TF2YcYso_3syn4expr8printingNtB7_12ExprTryBlockNtNtCs4EAaWzSXu1l_5quote9to_tokens8ToTokens9to_tokens, symObjAddr: 0xBA0C, symBinAddr: 0x3E0F0, symSize: 0x64 }
  - { offset: 0x9C9F5, size: 0x8, addend: 0x0, symName: __RNvXsw_NtNtCsc29TF2YcYso_3syn4expr8printingNtB7_9ExprTupleNtNtCs4EAaWzSXu1l_5quote9to_tokens8ToTokens9to_tokens, symObjAddr: 0xBA70, symBinAddr: 0x3E154, symSize: 0x58 }
  - { offset: 0x9CA34, size: 0x8, addend: 0x0, symName: __RNvXsx_NtNtCsc29TF2YcYso_3syn4expr8printingNtB7_9ExprUnaryNtNtCs4EAaWzSXu1l_5quote9to_tokens8ToTokens9to_tokens, symObjAddr: 0xBAC8, symBinAddr: 0x3E1AC, symSize: 0x58 }
  - { offset: 0x9CA73, size: 0x8, addend: 0x0, symName: __RNvXsy_NtNtCsc29TF2YcYso_3syn4expr8printingNtB7_10ExprUnsafeNtNtCs4EAaWzSXu1l_5quote9to_tokens8ToTokens9to_tokens, symObjAddr: 0xBB20, symBinAddr: 0x3E204, symSize: 0x68 }
  - { offset: 0x9CAB2, size: 0x8, addend: 0x0, symName: __RNvXsz_NtNtCsc29TF2YcYso_3syn4expr8printingNtB7_9ExprWhileNtNtCs4EAaWzSXu1l_5quote9to_tokens8ToTokens9to_tokens, symObjAddr: 0xBB88, symBinAddr: 0x3E26C, symSize: 0xE4 }
  - { offset: 0x9CAF1, size: 0x8, addend: 0x0, symName: __RNvXsA_NtNtCsc29TF2YcYso_3syn4expr8printingNtB7_9ExprYieldNtNtCs4EAaWzSXu1l_5quote9to_tokens8ToTokens9to_tokens, symObjAddr: 0xBC6C, symBinAddr: 0x3E350, symSize: 0x58 }
  - { offset: 0x9CB30, size: 0x8, addend: 0x0, symName: __RNvXsB_NtNtCsc29TF2YcYso_3syn4expr8printingNtB7_3ArmNtNtCs4EAaWzSXu1l_5quote9to_tokens8ToTokens9to_tokens, symObjAddr: 0xBCC4, symBinAddr: 0x3E3A8, symSize: 0x14C }
  - { offset: 0x9CB9D, size: 0x8, addend: 0x0, symName: __RNvXsC_NtNtCsc29TF2YcYso_3syn4expr8printingNtB7_10FieldValueNtNtCs4EAaWzSXu1l_5quote9to_tokens8ToTokens9to_tokens, symObjAddr: 0xBE10, symBinAddr: 0x3E4F4, symSize: 0xB4 }
  - { offset: 0x9CBFA, size: 0x8, addend: 0x0, symName: __RNvXsD_NtNtCsc29TF2YcYso_3syn4expr8printingNtB7_5IndexNtNtCs4EAaWzSXu1l_5quote9to_tokens8ToTokens9to_tokens, symObjAddr: 0xBEC4, symBinAddr: 0x3E5A8, symSize: 0xD4 }
  - { offset: 0x9CC4F, size: 0x8, addend: 0x0, symName: __RNvXsE_NtNtCsc29TF2YcYso_3syn4expr8printingNtB7_5LabelNtNtCs4EAaWzSXu1l_5quote9to_tokens8ToTokens9to_tokens, symObjAddr: 0xBF98, symBinAddr: 0x3E67C, symSize: 0x50 }
  - { offset: 0x9CC8E, size: 0x8, addend: 0x0, symName: __RNvXsF_NtNtCsc29TF2YcYso_3syn4expr8printingNtB7_6MemberNtNtCs4EAaWzSXu1l_5quote9to_tokens8ToTokens9to_tokens, symObjAddr: 0xBFE8, symBinAddr: 0x3E6CC, symSize: 0x98 }
  - { offset: 0x9CD01, size: 0x8, addend: 0x0, symName: __RNvXsG_NtNtCsc29TF2YcYso_3syn4expr8printingNtB7_11RangeLimitsNtNtCs4EAaWzSXu1l_5quote9to_tokens8ToTokens9to_tokens, symObjAddr: 0xC080, symBinAddr: 0x3E764, symSize: 0x9C }
  - { offset: 0x9CD74, size: 0x8, addend: 0x0, symName: __RNvXsH_NtNtCsc29TF2YcYso_3syn4expr8printingNtB7_17PointerMutabilityNtNtCs4EAaWzSXu1l_5quote9to_tokens8ToTokens9to_tokens, symObjAddr: 0xC11C, symBinAddr: 0x3E800, symSize: 0x9C }
  - { offset: 0x9CDED, size: 0x8, addend: 0x0, symName: __RNcNtNtNtCsc29TF2YcYso_3syn4expr4Expr5Async0B7_, symObjAddr: 0xC1B8, symBinAddr: 0x3E89C, symSize: 0x3C }
  - { offset: 0x9CE1C, size: 0x8, addend: 0x0, symName: __RNcNtNtNtCsc29TF2YcYso_3syn4expr4Expr5Block0B7_, symObjAddr: 0xC1F4, symBinAddr: 0x3E8D8, symSize: 0x3C }
  - { offset: 0x9CE4B, size: 0x8, addend: 0x0, symName: __RNcNtNtNtCsc29TF2YcYso_3syn4expr4Expr5Break0B7_, symObjAddr: 0xC230, symBinAddr: 0x3E914, symSize: 0x3C }
  - { offset: 0x9CE7A, size: 0x8, addend: 0x0, symName: __RNcNtNtNtCsc29TF2YcYso_3syn4expr4Expr7Closure0B7_, symObjAddr: 0xC26C, symBinAddr: 0x3E950, symSize: 0x3C }
  - { offset: 0x9CEA9, size: 0x8, addend: 0x0, symName: __RNcNtNtNtCsc29TF2YcYso_3syn4expr4Expr5Const0B7_, symObjAddr: 0xC2A8, symBinAddr: 0x3E98C, symSize: 0x3C }
  - { offset: 0x9CED8, size: 0x8, addend: 0x0, symName: __RNcNtNtNtCsc29TF2YcYso_3syn4expr4Expr8Continue0B7_, symObjAddr: 0xC2E4, symBinAddr: 0x3E9C8, symSize: 0x3C }
  - { offset: 0x9CF07, size: 0x8, addend: 0x0, symName: __RNcNtNtNtCsc29TF2YcYso_3syn4expr4Expr7ForLoop0B7_, symObjAddr: 0xC320, symBinAddr: 0x3EA04, symSize: 0x3C }
  - { offset: 0x9CF36, size: 0x8, addend: 0x0, symName: __RNcNtNtNtCsc29TF2YcYso_3syn4expr4Expr2If0B7_, symObjAddr: 0xC35C, symBinAddr: 0x3EA40, symSize: 0x3C }
  - { offset: 0x9CF65, size: 0x8, addend: 0x0, symName: __RNcNtNtNtCsc29TF2YcYso_3syn4expr4Expr5Infer0B7_, symObjAddr: 0xC398, symBinAddr: 0x3EA7C, symSize: 0x20 }
  - { offset: 0x9CF93, size: 0x8, addend: 0x0, symName: __RNcNtNtNtCsc29TF2YcYso_3syn4expr4Expr3Let0B7_, symObjAddr: 0xC3B8, symBinAddr: 0x3EA9C, symSize: 0x3C }
  - { offset: 0x9CFC2, size: 0x8, addend: 0x0, symName: __RNcNtNtNtCsc29TF2YcYso_3syn4expr4Expr3Lit0B7_, symObjAddr: 0xC3F4, symBinAddr: 0x3EAD8, symSize: 0x3C }
  - { offset: 0x9CFF1, size: 0x8, addend: 0x0, symName: __RNcNtNtNtCsc29TF2YcYso_3syn4expr4Expr4Loop0B7_, symObjAddr: 0xC430, symBinAddr: 0x3EB14, symSize: 0x3C }
  - { offset: 0x9D020, size: 0x8, addend: 0x0, symName: __RNcNtNtNtCsc29TF2YcYso_3syn4expr4Expr5Match0B7_, symObjAddr: 0xC46C, symBinAddr: 0x3EB50, symSize: 0x3C }
  - { offset: 0x9D04F, size: 0x8, addend: 0x0, symName: __RNcNtNtNtCsc29TF2YcYso_3syn4expr4Expr5Range0B7_, symObjAddr: 0xC4A8, symBinAddr: 0x3EB8C, symSize: 0x3C }
  - { offset: 0x9D07E, size: 0x8, addend: 0x0, symName: __RNcNtNtNtCsc29TF2YcYso_3syn4expr4Expr6Return0B7_, symObjAddr: 0xC4E4, symBinAddr: 0x3EBC8, symSize: 0x3C }
  - { offset: 0x9D0AD, size: 0x8, addend: 0x0, symName: __RNcNtNtNtCsc29TF2YcYso_3syn4expr4Expr6Struct0B7_, symObjAddr: 0xC520, symBinAddr: 0x3EC04, symSize: 0x3C }
  - { offset: 0x9D0DC, size: 0x8, addend: 0x0, symName: __RNcNtNtNtCsc29TF2YcYso_3syn4expr4Expr8TryBlock0B7_, symObjAddr: 0xC55C, symBinAddr: 0x3EC40, symSize: 0x3C }
  - { offset: 0x9D10B, size: 0x8, addend: 0x0, symName: __RNcNtNtNtCsc29TF2YcYso_3syn4expr4Expr5Unary0B7_, symObjAddr: 0xC598, symBinAddr: 0x3EC7C, symSize: 0x3C }
  - { offset: 0x9D13A, size: 0x8, addend: 0x0, symName: __RNcNtNtNtCsc29TF2YcYso_3syn4expr4Expr6Unsafe0B7_, symObjAddr: 0xC5D4, symBinAddr: 0x3ECB8, symSize: 0x3C }
  - { offset: 0x9D169, size: 0x8, addend: 0x0, symName: __RNcNtNtNtCsc29TF2YcYso_3syn4expr4Expr5While0B7_, symObjAddr: 0xC610, symBinAddr: 0x3ECF4, symSize: 0x3C }
  - { offset: 0x9D198, size: 0x8, addend: 0x0, symName: __RNcNtNtNtCsc29TF2YcYso_3syn4expr4Expr5Yield0B7_, symObjAddr: 0xC64C, symBinAddr: 0x3ED30, symSize: 0x3C }
  - { offset: 0x9D1C8, size: 0x8, addend: 0x0, symName: __RNvXsP_NtCsc29TF2YcYso_3syn4exprNtB5_4ExprNtNtCs4EAaWzSXu1l_5quote9to_tokens8ToTokens9to_tokens, symObjAddr: 0xD200, symBinAddr: 0x3ED6C, symSize: 0x4CC }
  - { offset: 0x9D6B1, size: 0x8, addend: 0x0, symName: __RNcNtNtNtCsc29TF2YcYso_3syn4expr6Member5Named0B7_, symObjAddr: 0xD6CC, symBinAddr: 0x3F238, symSize: 0x18 }
  - { offset: 0x9D6E1, size: 0x8, addend: 0x0, symName: __RNcNtNtNtCsc29TF2YcYso_3syn4expr6Member7Unnamed0B7_, symObjAddr: 0xD6E4, symBinAddr: 0x3F250, symSize: 0x28 }
  - { offset: 0x9D717, size: 0x8, addend: 0x0, symName: __RNcNtNtNtCsc29TF2YcYso_3syn4expr11RangeLimits8HalfOpen0B7_, symObjAddr: 0xD70C, symBinAddr: 0x3F278, symSize: 0x24 }
  - { offset: 0x9D747, size: 0x8, addend: 0x0, symName: __RNcNtNtNtCsc29TF2YcYso_3syn4expr11RangeLimits6Closed0B7_, symObjAddr: 0xD730, symBinAddr: 0x3F29C, symSize: 0x20 }
  - { offset: 0xA300D, size: 0x8, addend: 0x0, symName: __RNvMNtCsaNl6UpbT7bw_4core5sliceSNtNtCsc29TF2YcYso_3syn4expr3Arm4iterBy_, symObjAddr: 0xA5C, symBinAddr: 0x35F9C, symSize: 0x28 }
  - { offset: 0xA3044, size: 0x8, addend: 0x0, symName: __RNvMNtCsaNl6UpbT7bw_4core5sliceSTNtNtCsc29TF2YcYso_3syn4expr10FieldValueNtNtBz_5token5CommaE4iterBz_, symObjAddr: 0xA84, symBinAddr: 0x35FC4, symSize: 0x28 }
  - { offset: 0xA307B, size: 0x8, addend: 0x0, symName: __RNvMNtCsaNl6UpbT7bw_4core5sliceSTNtNtCsc29TF2YcYso_3syn4expr4ExprNtNtBz_5token5CommaE4iterBz_, symObjAddr: 0xAAC, symBinAddr: 0x35FEC, symSize: 0x28 }
  - { offset: 0xA45FF, size: 0x8, addend: 0x0, symName: __RNvXNtCs4EAaWzSXu1l_5quote9to_tokensRNtNtCsc29TF2YcYso_3syn4expr10FieldValueNtB2_8ToTokens9to_tokensBD_, symObjAddr: 0xAD4, symBinAddr: 0x36014, symSize: 0x40 }
  - { offset: 0xA463E, size: 0x8, addend: 0x0, symName: __RNvXNtCs4EAaWzSXu1l_5quote9to_tokensRNtNtCsc29TF2YcYso_3syn4expr4ExprNtB2_8ToTokens9to_tokensBD_, symObjAddr: 0xB14, symBinAddr: 0x36054, symSize: 0x40 }
  - { offset: 0xA4683, size: 0x8, addend: 0x0, symName: __RNvYNtNtCsc29TF2YcYso_3syn4expr4ExprNtNtCs4EAaWzSXu1l_5quote9to_tokens8ToTokens15to_token_streamB6_, symObjAddr: 0x1B5C, symBinAddr: 0x36094, symSize: 0x8C }
  - { offset: 0xA472C, size: 0x8, addend: 0x0, symName: __RNvMNtCsc29TF2YcYso_3syn4exprNtB2_4Expr25parse_without_eager_brace, symObjAddr: 0x1C7C, symBinAddr: 0x36120, symSize: 0x3C }
  - { offset: 0xA474F, size: 0x8, addend: 0x0, symName: __RNvMNtCsc29TF2YcYso_3syn4exprNtB2_4Expr32parse_with_earlier_boundary_rule, symObjAddr: 0x1CB8, symBinAddr: 0x3615C, symSize: 0x34 }
  - { offset: 0xA4772, size: 0x8, addend: 0x0, symName: __RNvMNtCsc29TF2YcYso_3syn4exprNtB2_4Expr4peek, symObjAddr: 0x1CEC, symBinAddr: 0x36190, symSize: 0x408 }
  - { offset: 0xA47A2, size: 0x8, addend: 0x0, symName: __RNvMNtCsc29TF2YcYso_3syn4exprNtB2_4Expr13replace_attrs, symObjAddr: 0x20F4, symBinAddr: 0x36598, symSize: 0x678 }
  - { offset: 0xA47F8, size: 0x8, addend: 0x0, symName: __RNvMs6_NtCsc29TF2YcYso_3syn4exprNtB5_6Member8is_named, symObjAddr: 0x2A78, symBinAddr: 0x36C10, symSize: 0x6C }
  - { offset: 0xA4853, size: 0x8, addend: 0x0, symName: __RNvMsv_NtNtCsc29TF2YcYso_3syn4expr7parsingNtB7_11RangeLimits14parse_obsolete, symObjAddr: 0x94A0, symBinAddr: 0x3BE3C, symSize: 0x334 }
  - { offset: 0xA490E, size: 0x8, addend: 0x0, symName: __RNvMsy_NtNtCsc29TF2YcYso_3syn4expr7parsingNtB7_3Arm14parse_multiple, symObjAddr: 0x9B08, symBinAddr: 0x3C4A4, symSize: 0x1C4 }
  - { offset: 0xA4CFD, size: 0x8, addend: 0x0, symName: __RINvMsv_NtCshnvkK9b4wzu_11proc_macro23impNtB6_7Literal7subspanINtNtNtCsaNl6UpbT7bw_4core3ops5range5RangejEECsc29TF2YcYso_3syn, symObjAddr: 0x0, symBinAddr: 0x3F2BC, symSize: 0xD4 }
  - { offset: 0xA54F9, size: 0x8, addend: 0x0, symName: __RNvXs0_NtCsc29TF2YcYso_3syn5tokenNtNtNtB7_3ext7private8IdentAnyNtB5_5Token4peekB7_, symObjAddr: 0x5D64, symBinAddr: 0x4386C, symSize: 0x3C }
  - { offset: 0xA5DFB, size: 0x8, addend: 0x0, symName: __RNvXNtCsc29TF2YcYso_3syn4pathNtB2_4PathINtNtCsaNl6UpbT7bw_4core7convert4FromNtCshnvkK9b4wzu_11proc_macro25IdentE4fromB4_, symObjAddr: 0x7394, symBinAddr: 0x44E58, symSize: 0x118 }
  - { offset: 0xA5E4C, size: 0x8, addend: 0x0, symName: __RNvXs0_NtCsc29TF2YcYso_3syn4pathNtB5_11PathSegmentINtNtCsaNl6UpbT7bw_4core7convert4FromNtCshnvkK9b4wzu_11proc_macro25IdentE4fromB7_, symObjAddr: 0x773C, symBinAddr: 0x450EC, symSize: 0x68 }
  - { offset: 0xA5E8D, size: 0x8, addend: 0x0, symName: __RNvXNtNtCsc29TF2YcYso_3syn4path7parsingNtB4_4PathNtNtB6_5parse5Parse5parse, symObjAddr: 0x7908, symBinAddr: 0x45298, symSize: 0x3C }
  - { offset: 0xA5EC1, size: 0x8, addend: 0x0, symName: __RNvXs_NtNtCsc29TF2YcYso_3syn4path7parsingNtB6_15GenericArgumentNtNtB8_5parse5Parse5parse, symObjAddr: 0x7944, symBinAddr: 0x452D4, symSize: 0x13C0 }
  - { offset: 0xA6192, size: 0x8, addend: 0x0, symName: __RNvXs1_NtNtCsc29TF2YcYso_3syn4path7parsingNtB7_30AngleBracketedGenericArgumentsNtNtB9_5parse5Parse5parse, symObjAddr: 0x926C, symBinAddr: 0x46BFC, symSize: 0xD8 }
  - { offset: 0xA6202, size: 0x8, addend: 0x0, symName: __RNvXs2_NtNtCsc29TF2YcYso_3syn4path7parsingNtB7_29ParenthesizedGenericArgumentsNtNtB9_5parse5Parse5parse, symObjAddr: 0x9344, symBinAddr: 0x46CD4, symSize: 0x338 }
  - { offset: 0xA62E3, size: 0x8, addend: 0x0, symName: __RNvXs0_NtNtCsc29TF2YcYso_3syn4path8printingNtB7_4PathNtNtCs4EAaWzSXu1l_5quote9to_tokens8ToTokens9to_tokens, symObjAddr: 0xA8AC, symBinAddr: 0x48200, symSize: 0x54 }
  - { offset: 0xA6322, size: 0x8, addend: 0x0, symName: __RNvXs3_NtNtCsc29TF2YcYso_3syn4path8printingNtB7_15GenericArgumentNtNtCs4EAaWzSXu1l_5quote9to_tokens8ToTokens9to_tokens, symObjAddr: 0xA9A8, symBinAddr: 0x48254, symSize: 0x1A8 }
  - { offset: 0xA640D, size: 0x8, addend: 0x0, symName: __RNvXs4_NtNtCsc29TF2YcYso_3syn4path8printingNtB7_30AngleBracketedGenericArgumentsNtNtCs4EAaWzSXu1l_5quote9to_tokens8ToTokens9to_tokens, symObjAddr: 0xAB50, symBinAddr: 0x483FC, symSize: 0x54 }
  - { offset: 0xA644C, size: 0x8, addend: 0x0, symName: __RNvXs5_NtNtCsc29TF2YcYso_3syn4path8printingNtB7_9AssocTypeNtNtCs4EAaWzSXu1l_5quote9to_tokens8ToTokens9to_tokens, symObjAddr: 0xABA4, symBinAddr: 0x48450, symSize: 0x70 }
  - { offset: 0xA648B, size: 0x8, addend: 0x0, symName: __RNvXs6_NtNtCsc29TF2YcYso_3syn4path8printingNtB7_10AssocConstNtNtCs4EAaWzSXu1l_5quote9to_tokens8ToTokens9to_tokens, symObjAddr: 0xAC14, symBinAddr: 0x484C0, symSize: 0x70 }
  - { offset: 0xA64CA, size: 0x8, addend: 0x0, symName: __RNvXs7_NtNtCsc29TF2YcYso_3syn4path8printingNtB7_10ConstraintNtNtCs4EAaWzSXu1l_5quote9to_tokens8ToTokens9to_tokens, symObjAddr: 0xAC84, symBinAddr: 0x48530, symSize: 0x70 }
  - { offset: 0xA650F, size: 0x8, addend: 0x0, symName: __RNcNtNtNtCsc29TF2YcYso_3syn4path15GenericArgument5Const0B7_, symObjAddr: 0xB2B8, symBinAddr: 0x48AD0, symSize: 0x3C }
  - { offset: 0xA9DC8, size: 0x8, addend: 0x0, symName: __RNvNtNtCsc29TF2YcYso_3syn8generics7parsing26choose_generics_over_qpath, symObjAddr: 0x5F9C, symBinAddr: 0x43A60, symSize: 0x1F8 }
  - { offset: 0xA9DF6, size: 0x8, addend: 0x0, symName: __RNvNtNtCsc29TF2YcYso_3syn8generics7parsing40choose_generics_over_qpath_after_keyword, symObjAddr: 0x6194, symBinAddr: 0x43C58, symSize: 0x150 }
  - { offset: 0xAA434, size: 0x8, addend: 0x0, symName: __RNvXNtNtCsc29TF2YcYso_3syn2op7parsingNtB4_5BinOpNtNtB6_5parse5Parse5parse, symObjAddr: 0x62E4, symBinAddr: 0x43DA8, symSize: 0x84C }
  - { offset: 0xAA466, size: 0x8, addend: 0x0, symName: __RNvXs_NtNtCsc29TF2YcYso_3syn2op7parsingNtB6_4UnOpNtNtB8_5parse5Parse5parse, symObjAddr: 0x6B30, symBinAddr: 0x445F4, symSize: 0x1F0 }
  - { offset: 0xAA4B3, size: 0x8, addend: 0x0, symName: __RNvXNtNtCsc29TF2YcYso_3syn2op8printingNtB4_5BinOpNtNtCs4EAaWzSXu1l_5quote9to_tokens8ToTokens9to_tokens, symObjAddr: 0x6D20, symBinAddr: 0x447E4, symSize: 0x598 }
  - { offset: 0xAA827, size: 0x8, addend: 0x0, symName: __RNvXs_NtNtCsc29TF2YcYso_3syn2op8printingNtB6_4UnOpNtNtCs4EAaWzSXu1l_5quote9to_tokens8ToTokens9to_tokens, symObjAddr: 0x72B8, symBinAddr: 0x44D7C, symSize: 0xDC }
  - { offset: 0xAA8B8, size: 0x8, addend: 0x0, symName: __RNcNtNtNtCsc29TF2YcYso_3syn2op5BinOp3Add0B7_, symObjAddr: 0xAD88, symBinAddr: 0x485A0, symSize: 0x24 }
  - { offset: 0xAA8E6, size: 0x8, addend: 0x0, symName: __RNcNtNtNtCsc29TF2YcYso_3syn2op5BinOp3Sub0B7_, symObjAddr: 0xADAC, symBinAddr: 0x485C4, symSize: 0x2C }
  - { offset: 0xAA914, size: 0x8, addend: 0x0, symName: __RNcNtNtNtCsc29TF2YcYso_3syn2op5BinOp3Mul0B7_, symObjAddr: 0xADD8, symBinAddr: 0x485F0, symSize: 0x2C }
  - { offset: 0xAA942, size: 0x8, addend: 0x0, symName: __RNcNtNtNtCsc29TF2YcYso_3syn2op5BinOp3Div0B7_, symObjAddr: 0xAE04, symBinAddr: 0x4861C, symSize: 0x2C }
  - { offset: 0xAA970, size: 0x8, addend: 0x0, symName: __RNcNtNtNtCsc29TF2YcYso_3syn2op5BinOp3Rem0B7_, symObjAddr: 0xAE30, symBinAddr: 0x48648, symSize: 0x2C }
  - { offset: 0xAA99E, size: 0x8, addend: 0x0, symName: __RNcNtNtNtCsc29TF2YcYso_3syn2op5BinOp3And0B7_, symObjAddr: 0xAE5C, symBinAddr: 0x48674, symSize: 0x2C }
  - { offset: 0xAA9CC, size: 0x8, addend: 0x0, symName: __RNcNtNtNtCsc29TF2YcYso_3syn2op5BinOp2Or0B7_, symObjAddr: 0xAE88, symBinAddr: 0x486A0, symSize: 0x2C }
  - { offset: 0xAA9FA, size: 0x8, addend: 0x0, symName: __RNcNtNtNtCsc29TF2YcYso_3syn2op5BinOp6BitXor0B7_, symObjAddr: 0xAEB4, symBinAddr: 0x486CC, symSize: 0x2C }
  - { offset: 0xAAA28, size: 0x8, addend: 0x0, symName: __RNcNtNtNtCsc29TF2YcYso_3syn2op5BinOp6BitAnd0B7_, symObjAddr: 0xAEE0, symBinAddr: 0x486F8, symSize: 0x2C }
  - { offset: 0xAAA56, size: 0x8, addend: 0x0, symName: __RNcNtNtNtCsc29TF2YcYso_3syn2op5BinOp5BitOr0B7_, symObjAddr: 0xAF0C, symBinAddr: 0x48724, symSize: 0x2C }
  - { offset: 0xAAA84, size: 0x8, addend: 0x0, symName: __RNcNtNtNtCsc29TF2YcYso_3syn2op5BinOp3Shl0B7_, symObjAddr: 0xAF38, symBinAddr: 0x48750, symSize: 0x2C }
  - { offset: 0xAAAB2, size: 0x8, addend: 0x0, symName: __RNcNtNtNtCsc29TF2YcYso_3syn2op5BinOp3Shr0B7_, symObjAddr: 0xAF64, symBinAddr: 0x4877C, symSize: 0x2C }
  - { offset: 0xAAAE0, size: 0x8, addend: 0x0, symName: __RNcNtNtNtCsc29TF2YcYso_3syn2op5BinOp2Eq0B7_, symObjAddr: 0xAF90, symBinAddr: 0x487A8, symSize: 0x2C }
  - { offset: 0xAAB0E, size: 0x8, addend: 0x0, symName: __RNcNtNtNtCsc29TF2YcYso_3syn2op5BinOp2Lt0B7_, symObjAddr: 0xAFBC, symBinAddr: 0x487D4, symSize: 0x2C }
  - { offset: 0xAAB3C, size: 0x8, addend: 0x0, symName: __RNcNtNtNtCsc29TF2YcYso_3syn2op5BinOp2Le0B7_, symObjAddr: 0xAFE8, symBinAddr: 0x48800, symSize: 0x2C }
  - { offset: 0xAAB6A, size: 0x8, addend: 0x0, symName: __RNcNtNtNtCsc29TF2YcYso_3syn2op5BinOp2Ne0B7_, symObjAddr: 0xB014, symBinAddr: 0x4882C, symSize: 0x2C }
  - { offset: 0xAAB98, size: 0x8, addend: 0x0, symName: __RNcNtNtNtCsc29TF2YcYso_3syn2op5BinOp2Ge0B7_, symObjAddr: 0xB040, symBinAddr: 0x48858, symSize: 0x2C }
  - { offset: 0xAABC6, size: 0x8, addend: 0x0, symName: __RNcNtNtNtCsc29TF2YcYso_3syn2op5BinOp2Gt0B7_, symObjAddr: 0xB06C, symBinAddr: 0x48884, symSize: 0x2C }
  - { offset: 0xAABF4, size: 0x8, addend: 0x0, symName: __RNcNtNtNtCsc29TF2YcYso_3syn2op5BinOp9AddAssign0B7_, symObjAddr: 0xB098, symBinAddr: 0x488B0, symSize: 0x2C }
  - { offset: 0xAAC22, size: 0x8, addend: 0x0, symName: __RNcNtNtNtCsc29TF2YcYso_3syn2op5BinOp9SubAssign0B7_, symObjAddr: 0xB0C4, symBinAddr: 0x488DC, symSize: 0x2C }
  - { offset: 0xAAC50, size: 0x8, addend: 0x0, symName: __RNcNtNtNtCsc29TF2YcYso_3syn2op5BinOp9MulAssign0B7_, symObjAddr: 0xB0F0, symBinAddr: 0x48908, symSize: 0x2C }
  - { offset: 0xAAC7E, size: 0x8, addend: 0x0, symName: __RNcNtNtNtCsc29TF2YcYso_3syn2op5BinOp9DivAssign0B7_, symObjAddr: 0xB11C, symBinAddr: 0x48934, symSize: 0x2C }
  - { offset: 0xAACAC, size: 0x8, addend: 0x0, symName: __RNcNtNtNtCsc29TF2YcYso_3syn2op5BinOp9RemAssign0B7_, symObjAddr: 0xB148, symBinAddr: 0x48960, symSize: 0x2C }
  - { offset: 0xAACDA, size: 0x8, addend: 0x0, symName: __RNcNtNtNtCsc29TF2YcYso_3syn2op5BinOp12BitXorAssign0B7_, symObjAddr: 0xB174, symBinAddr: 0x4898C, symSize: 0x2C }
  - { offset: 0xAAD08, size: 0x8, addend: 0x0, symName: __RNcNtNtNtCsc29TF2YcYso_3syn2op5BinOp12BitAndAssign0B7_, symObjAddr: 0xB1A0, symBinAddr: 0x489B8, symSize: 0x2C }
  - { offset: 0xAAD36, size: 0x8, addend: 0x0, symName: __RNcNtNtNtCsc29TF2YcYso_3syn2op5BinOp11BitOrAssign0B7_, symObjAddr: 0xB1CC, symBinAddr: 0x489E4, symSize: 0x2C }
  - { offset: 0xAAD64, size: 0x8, addend: 0x0, symName: __RNcNtNtNtCsc29TF2YcYso_3syn2op5BinOp9ShlAssign0B7_, symObjAddr: 0xB1F8, symBinAddr: 0x48A10, symSize: 0x20 }
  - { offset: 0xAAD92, size: 0x8, addend: 0x0, symName: __RNcNtNtNtCsc29TF2YcYso_3syn2op5BinOp9ShrAssign0B7_, symObjAddr: 0xB218, symBinAddr: 0x48A30, symSize: 0x20 }
  - { offset: 0xAADC6, size: 0x8, addend: 0x0, symName: __RNcNtNtNtCsc29TF2YcYso_3syn2op4UnOp5Deref0B7_, symObjAddr: 0xB238, symBinAddr: 0x48A50, symSize: 0x28 }
  - { offset: 0xAADF4, size: 0x8, addend: 0x0, symName: __RNcNtNtNtCsc29TF2YcYso_3syn2op4UnOp3Not0B7_, symObjAddr: 0xB260, symBinAddr: 0x48A78, symSize: 0x2C }
  - { offset: 0xAAE22, size: 0x8, addend: 0x0, symName: __RNcNtNtNtCsc29TF2YcYso_3syn2op4UnOp3Neg0B7_, symObjAddr: 0xB28C, symBinAddr: 0x48AA4, symSize: 0x2C }
  - { offset: 0xAAE5C, size: 0x8, addend: 0x0, symName: __RNCNvXNtCsc29TF2YcYso_3syn3extNtCshnvkK9b4wzu_11proc_macro25IdentNtB4_8IdentExt9parse_any0B6_, symObjAddr: 0x5DA0, symBinAddr: 0x438A8, symSize: 0x130 }
  - { offset: 0xAAECE, size: 0x8, addend: 0x0, symName: __RNvXs0_NtCsc29TF2YcYso_3syn3extNtNtB5_7private8IdentAnyNtNtNtB7_5token7private11CustomToken4peek, symObjAddr: 0x5ED0, symBinAddr: 0x439D8, symSize: 0x88 }
  - { offset: 0xAC5DD, size: 0x8, addend: 0x0, symName: __RINvXs5_NtCshnvkK9b4wzu_11proc_macro23impNtB6_11TokenStreamINtNtNtNtCsaNl6UpbT7bw_4core4iter6traits7collect12FromIteratorNtB8_9TokenTreeE9from_iterINtNtNtB14_5array4iter8IntoIterB1V_Kj1_EECsc29TF2YcYso_3syn, symObjAddr: 0xE84, symBinAddr: 0x3F8F0, symSize: 0x16C }
  - { offset: 0xAC613, size: 0x8, addend: 0x0, symName: __RINvXs5_NtCshnvkK9b4wzu_11proc_macro23impNtB6_11TokenStreamINtNtNtNtCsaNl6UpbT7bw_4core4iter6traits7collect12FromIteratorNtB8_9TokenTreeE9from_iterINtNtNtB14_5array4iter8IntoIterB1V_Kj8_EECsc29TF2YcYso_3syn, symObjAddr: 0xFF0, symBinAddr: 0x3FA5C, symSize: 0x170 }
  - { offset: 0xAC649, size: 0x8, addend: 0x0, symName: __RINvXs5_NtCshnvkK9b4wzu_11proc_macro23impNtB6_11TokenStreamINtNtNtNtCsaNl6UpbT7bw_4core4iter6traits7collect12FromIteratorNtB8_9TokenTreeE9from_iterINtNtNtCsiTraAjBDcu4_5alloc3vec9into_iter8IntoIterB1V_EECsc29TF2YcYso_3syn, symObjAddr: 0x1160, symBinAddr: 0x3FBCC, symSize: 0x164 }
  - { offset: 0xAC685, size: 0x8, addend: 0x0, symName: __RINvXs6_NtCshnvkK9b4wzu_11proc_macro23impNtB6_11TokenStreamINtNtNtNtCsaNl6UpbT7bw_4core4iter6traits7collect12FromIteratorBD_E9from_iterINtNtNtB12_8adapters3map3MapIB2a_INtNtNtB14_5slice4iter4IterNtNtCsc29TF2YcYso_3syn5error12ErrorMessageENvMs_B39_B37_16to_compile_errorENCINvXs7_B8_NtB8_11TokenStreamIBW_B4w_E9from_iterB2B_E0EEB3b_, symObjAddr: 0x12C4, symBinAddr: 0x3FD30, symSize: 0x24C }
  - { offset: 0xAC6FF, size: 0x8, addend: 0x0, symName: __RNCINvXs6_NtCshnvkK9b4wzu_11proc_macro23impNtB8_11TokenStreamINtNtNtNtCsaNl6UpbT7bw_4core4iter6traits7collect12FromIteratorBF_E9from_iterINtNtNtB14_8adapters3map3MapIB2c_INtNtNtB16_5slice4iter4IterNtNtCsc29TF2YcYso_3syn5error12ErrorMessageENvMs_B3b_B39_16to_compile_errorENCINvXs7_Ba_NtBa_11TokenStreamIBY_B4y_E9from_iterB2D_E0EE0B3d_, symObjAddr: 0x1940, symBinAddr: 0x403AC, symSize: 0x10C }
  - { offset: 0xAC75C, size: 0x8, addend: 0x0, symName: __RNCINvXs6_NtCshnvkK9b4wzu_11proc_macro23impNtB8_11TokenStreamINtNtNtNtCsaNl6UpbT7bw_4core4iter6traits7collect12FromIteratorBF_E9from_iterINtNtNtB14_8adapters3map3MapIB2c_INtNtNtB16_5slice4iter4IterNtNtCsc29TF2YcYso_3syn5error12ErrorMessageENvMs_B3b_B39_16to_compile_errorENCINvXs7_Ba_NtBa_11TokenStreamIBY_B4y_E9from_iterB2D_E0EEs_0B3d_, symObjAddr: 0x1A4C, symBinAddr: 0x404B8, symSize: 0xF8 }
  - { offset: 0xAC7B6, size: 0x8, addend: 0x0, symName: __RNcNtNtNtCshnvkK9b4wzu_11proc_macro23imp4Span8Fallback0Csc29TF2YcYso_3syn, symObjAddr: 0x1B44, symBinAddr: 0x405B0, symSize: 0x14 }
  - { offset: 0xAC7E7, size: 0x8, addend: 0x0, symName: __RNvXsA_NtCshnvkK9b4wzu_11proc_macro23impNtB5_19DeferredTokenStreamNtNtCsaNl6UpbT7bw_4core5clone5Clone5cloneCsc29TF2YcYso_3syn, symObjAddr: 0x5414, symBinAddr: 0x42F7C, symSize: 0x90 }
  - { offset: 0xAC819, size: 0x8, addend: 0x0, symName: __RNvXsE_NtCshnvkK9b4wzu_11proc_macro23impNtB5_5GroupNtNtCsaNl6UpbT7bw_4core5clone5Clone5cloneCsc29TF2YcYso_3syn, symObjAddr: 0x54A4, symBinAddr: 0x4300C, symSize: 0x9C }
  - { offset: 0xAC889, size: 0x8, addend: 0x0, symName: __RNvXsF_NtCshnvkK9b4wzu_11proc_macro23impNtB5_5IdentNtNtCsaNl6UpbT7bw_4core5clone5Clone5cloneCsc29TF2YcYso_3syn, symObjAddr: 0x5540, symBinAddr: 0x430A8, symSize: 0x9C }
  - { offset: 0xAC8F9, size: 0x8, addend: 0x0, symName: __RNvXsG_NtCshnvkK9b4wzu_11proc_macro23impNtB5_7LiteralNtNtCsaNl6UpbT7bw_4core5clone5Clone5cloneCsc29TF2YcYso_3syn, symObjAddr: 0x55DC, symBinAddr: 0x43144, symSize: 0x9C }
  - { offset: 0xAC969, size: 0x8, addend: 0x0, symName: __RNvXss_NtCshnvkK9b4wzu_11proc_macro23impNtB5_5IdentINtNtCsaNl6UpbT7bw_4core3cmp9PartialEqRReE2eqCsc29TF2YcYso_3syn, symObjAddr: 0x5A18, symBinAddr: 0x43580, symSize: 0x108 }
  - { offset: 0xAC9F9, size: 0x8, addend: 0x0, symName: __RNvXss_NtCshnvkK9b4wzu_11proc_macro23impNtB5_5IdentINtNtCsaNl6UpbT7bw_4core3cmp9PartialEqReE2eqCsc29TF2YcYso_3syn, symObjAddr: 0x5B20, symBinAddr: 0x43688, symSize: 0x108 }
  - { offset: 0xACA8F, size: 0x8, addend: 0x0, symName: __RNvXsz_NtCshnvkK9b4wzu_11proc_macro23impNtB5_11TokenStreamNtNtCsaNl6UpbT7bw_4core5clone5Clone5cloneCsc29TF2YcYso_3syn, symObjAddr: 0x5C28, symBinAddr: 0x43790, symSize: 0x98 }
  - { offset: 0xB3AEB, size: 0x8, addend: 0x0, symName: __RINvXs2V_NtNtCsaNl6UpbT7bw_4core5slice4iterINtB7_4IterNtNtCsc29TF2YcYso_3syn4attr9AttributeENtNtNtNtBb_4iter6traits8iterator8Iterator4findQFG0_RL1_RL0_BQ_EbEBU_, symObjAddr: 0x7B8, symBinAddr: 0x3F390, symSize: 0xB0 }
  - { offset: 0xB3B50, size: 0x8, addend: 0x0, symName: __RINvXs2V_NtNtCsaNl6UpbT7bw_4core5slice4iterINtB7_4IterNtNtCsc29TF2YcYso_3syn5error12ErrorMessageENtNtNtNtBb_4iter6traits8iterator8Iterator4folduNCINvNtNtB1D_8adapters3map8map_foldRBQ_NtCshnvkK9b4wzu_11proc_macro211TokenStreamuNvMs_BS_BQ_16to_compile_errorNCIB2l_B2V_NtNtB2X_3imp11TokenStreamuNCINvXs7_B2X_B2V_INtNtB1B_7collect12FromIteratorB2V_E9from_iterINtB2n_3MapBF_B3C_EE0NCIB2l_B4g_NtCs7yrEGia95Wz_10proc_macro11TokenStreamuNCINvXs6_B4i_B4g_IB4Y_B4g_E9from_iterIB5I_B5H_B4G_EE0NCINvNvB1x_8for_each4callB6d_NCINvXsj_B6f_B6d_INtB50_6ExtendB6d_E6extendIB5I_B7u_B6T_EE0E0E0E0E0EBU_, symObjAddr: 0x868, symBinAddr: 0x3F440, symSize: 0x194 }
  - { offset: 0xB3CA4, size: 0x8, addend: 0x0, symName: __RINvXs2V_NtNtCsaNl6UpbT7bw_4core5slice4iterINtB7_4IterhENtNtNtNtBb_4iter6traits8iterator8Iterator4findNCNvNtNtCsc29TF2YcYso_3syn3lit5value15parse_lit_float0EB1K_, symObjAddr: 0x9FC, symBinAddr: 0x3F5D4, symSize: 0xAC }
  - { offset: 0xB3D09, size: 0x8, addend: 0x0, symName: __RNvXs2V_NtNtCsaNl6UpbT7bw_4core5slice4iterINtB6_4IterNtCshnvkK9b4wzu_11proc_macro24SpanENtNtNtNtBa_4iter6traits8iterator8Iterator4nextCsc29TF2YcYso_3syn, symObjAddr: 0x2BF8, symBinAddr: 0x41380, symSize: 0xB0 }
  - { offset: 0xB3E43, size: 0x8, addend: 0x0, symName: __RNvXs2V_NtNtCsaNl6UpbT7bw_4core5slice4iterINtB6_4IterNtNtCsc29TF2YcYso_3syn4attr9AttributeENtNtNtNtBa_4iter6traits8iterator8Iterator4nextBT_, symObjAddr: 0x2CA8, symBinAddr: 0x41430, symSize: 0xB0 }
  - { offset: 0xB3F7D, size: 0x8, addend: 0x0, symName: __RNvXs2V_NtNtCsaNl6UpbT7bw_4core5slice4iterINtB6_4IterNtNtCsc29TF2YcYso_3syn4expr3ArmENtNtNtNtBa_4iter6traits8iterator8Iterator4nextBT_, symObjAddr: 0x2D58, symBinAddr: 0x414E0, symSize: 0xB0 }
  - { offset: 0xB40B7, size: 0x8, addend: 0x0, symName: __RNvXs2V_NtNtCsaNl6UpbT7bw_4core5slice4iterINtB6_4IterNtNtCsc29TF2YcYso_3syn4item11ForeignItemENtNtNtNtBa_4iter6traits8iterator8Iterator4nextBT_, symObjAddr: 0x2E08, symBinAddr: 0x41590, symSize: 0xB0 }
  - { offset: 0xB41F1, size: 0x8, addend: 0x0, symName: __RNvXs2V_NtNtCsaNl6UpbT7bw_4core5slice4iterINtB6_4IterNtNtCsc29TF2YcYso_3syn4item4ItemENtNtNtNtBa_4iter6traits8iterator8Iterator4nextBT_, symObjAddr: 0x2EB8, symBinAddr: 0x41640, symSize: 0xB0 }
  - { offset: 0xB432B, size: 0x8, addend: 0x0, symName: __RNvXs2V_NtNtCsaNl6UpbT7bw_4core5slice4iterINtB6_4IterNtNtCsc29TF2YcYso_3syn4item8ImplItemENtNtNtNtBa_4iter6traits8iterator8Iterator4nextBT_, symObjAddr: 0x2F68, symBinAddr: 0x416F0, symSize: 0xB0 }
  - { offset: 0xB4465, size: 0x8, addend: 0x0, symName: __RNvXs2V_NtNtCsaNl6UpbT7bw_4core5slice4iterINtB6_4IterNtNtCsc29TF2YcYso_3syn4item9TraitItemENtNtNtNtBa_4iter6traits8iterator8Iterator4nextBT_, symObjAddr: 0x3018, symBinAddr: 0x417A0, symSize: 0xB0 }
  - { offset: 0xB459F, size: 0x8, addend: 0x0, symName: __RNvXs2V_NtNtCsaNl6UpbT7bw_4core5slice4iterINtB6_4IterNtNtCsc29TF2YcYso_3syn4stmt4StmtENtNtNtNtBa_4iter6traits8iterator8Iterator4nextBT_, symObjAddr: 0x30C8, symBinAddr: 0x41850, symSize: 0xB0 }
  - { offset: 0xB46D9, size: 0x8, addend: 0x0, symName: __RNvXs2V_NtNtCsaNl6UpbT7bw_4core5slice4iterINtB6_4IterNtNtCsc29TF2YcYso_3syn5error12ErrorMessageENtNtNtNtBa_4iter6traits8iterator8Iterator4nextBT_, symObjAddr: 0x3178, symBinAddr: 0x41900, symSize: 0xB0 }
  - { offset: 0xB4813, size: 0x8, addend: 0x0, symName: __RNvXs2V_NtNtCsaNl6UpbT7bw_4core5slice4iterINtB6_4IterNtNtCsc29TF2YcYso_3syn5error12ErrorMessageENtNtNtNtBa_4iter6traits8iterator8Iterator9size_hintBT_, symObjAddr: 0x3228, symBinAddr: 0x419B0, symSize: 0x70 }
  - { offset: 0xB4882, size: 0x8, addend: 0x0, symName: __RNvXs2V_NtNtCsaNl6UpbT7bw_4core5slice4iterINtB6_4IterTNtNtCsc29TF2YcYso_3syn2ty4TypeNtNtBU_5token5CommaEENtNtNtNtBa_4iter6traits8iterator8Iterator4nextBU_, symObjAddr: 0x3298, symBinAddr: 0x41A20, symSize: 0xB0 }
  - { offset: 0xB49BC, size: 0x8, addend: 0x0, symName: __RNvXs2V_NtNtCsaNl6UpbT7bw_4core5slice4iterINtB6_4IterTNtNtCsc29TF2YcYso_3syn2ty9BareFnArgNtNtBU_5token5CommaEENtNtNtNtBa_4iter6traits8iterator8Iterator4nextBU_, symObjAddr: 0x3348, symBinAddr: 0x41AD0, symSize: 0xB0 }
  - { offset: 0xB4AF6, size: 0x8, addend: 0x0, symName: __RNvXs2V_NtNtCsaNl6UpbT7bw_4core5slice4iterINtB6_4IterTNtNtCsc29TF2YcYso_3syn3pat3PatNtNtBU_5token2OrEENtNtNtNtBa_4iter6traits8iterator8Iterator4nextBU_, symObjAddr: 0x33F8, symBinAddr: 0x41B80, symSize: 0xB0 }
  - { offset: 0xB4C30, size: 0x8, addend: 0x0, symName: __RNvXs2V_NtNtCsaNl6UpbT7bw_4core5slice4iterINtB6_4IterTNtNtCsc29TF2YcYso_3syn3pat3PatNtNtBU_5token5CommaEENtNtNtNtBa_4iter6traits8iterator8Iterator4nextBU_, symObjAddr: 0x34A8, symBinAddr: 0x41C30, symSize: 0xB0 }
  - { offset: 0xB4D6A, size: 0x8, addend: 0x0, symName: __RNvXs2V_NtNtCsaNl6UpbT7bw_4core5slice4iterINtB6_4IterTNtNtCsc29TF2YcYso_3syn3pat8FieldPatNtNtBU_5token5CommaEENtNtNtNtBa_4iter6traits8iterator8Iterator4nextBU_, symObjAddr: 0x3558, symBinAddr: 0x41CE0, symSize: 0xB0 }
  - { offset: 0xB4EA4, size: 0x8, addend: 0x0, symName: __RNvXs2V_NtNtCsaNl6UpbT7bw_4core5slice4iterINtB6_4IterTNtNtCsc29TF2YcYso_3syn4data5FieldNtNtBU_5token5CommaEENtNtNtNtBa_4iter6traits8iterator8Iterator4nextBU_, symObjAddr: 0x3608, symBinAddr: 0x41D90, symSize: 0xB0 }
  - { offset: 0xB4FDE, size: 0x8, addend: 0x0, symName: __RNvXs2V_NtNtCsaNl6UpbT7bw_4core5slice4iterINtB6_4IterTNtNtCsc29TF2YcYso_3syn4data7VariantNtNtBU_5token5CommaEENtNtNtNtBa_4iter6traits8iterator8Iterator4nextBU_, symObjAddr: 0x36B8, symBinAddr: 0x41E40, symSize: 0xB0 }
  - { offset: 0xB5118, size: 0x8, addend: 0x0, symName: __RNvXs2V_NtNtCsaNl6UpbT7bw_4core5slice4iterINtB6_4IterTNtNtCsc29TF2YcYso_3syn4expr10FieldValueNtNtBU_5token5CommaEENtNtNtNtBa_4iter6traits8iterator8Iterator4nextBU_, symObjAddr: 0x3768, symBinAddr: 0x41EF0, symSize: 0xB0 }
  - { offset: 0xB5252, size: 0x8, addend: 0x0, symName: __RNvXs2V_NtNtCsaNl6UpbT7bw_4core5slice4iterINtB6_4IterTNtNtCsc29TF2YcYso_3syn4expr4ExprNtNtBU_5token5CommaEENtNtNtNtBa_4iter6traits8iterator8Iterator4nextBU_, symObjAddr: 0x3818, symBinAddr: 0x41FA0, symSize: 0xB0 }
  - { offset: 0xB538C, size: 0x8, addend: 0x0, symName: __RNvXs2V_NtNtCsaNl6UpbT7bw_4core5slice4iterINtB6_4IterTNtNtCsc29TF2YcYso_3syn4item5FnArgNtNtBU_5token5CommaEENtNtNtNtBa_4iter6traits8iterator8Iterator4nextBU_, symObjAddr: 0x38C8, symBinAddr: 0x42050, symSize: 0xB0 }
  - { offset: 0xB54C6, size: 0x8, addend: 0x0, symName: __RNvXs2V_NtNtCsaNl6UpbT7bw_4core5slice4iterINtB6_4IterTNtNtCsc29TF2YcYso_3syn4item7UseTreeNtNtBU_5token5CommaEENtNtNtNtBa_4iter6traits8iterator8Iterator4nextBU_, symObjAddr: 0x3978, symBinAddr: 0x42100, symSize: 0xB0 }
  - { offset: 0xB5600, size: 0x8, addend: 0x0, symName: __RNvXs2V_NtNtCsaNl6UpbT7bw_4core5slice4iterINtB6_4IterTNtNtCsc29TF2YcYso_3syn4path11PathSegmentNtNtBU_5token7PathSepEENtNtNtNtBa_4iter6traits8iterator8Iterator4nextBU_, symObjAddr: 0x3A28, symBinAddr: 0x421B0, symSize: 0xB0 }
  - { offset: 0xB573A, size: 0x8, addend: 0x0, symName: __RNvXs2V_NtNtCsaNl6UpbT7bw_4core5slice4iterINtB6_4IterTNtNtCsc29TF2YcYso_3syn4path15GenericArgumentNtNtBU_5token5CommaEENtNtNtNtBa_4iter6traits8iterator8Iterator4nextBU_, symObjAddr: 0x3AD8, symBinAddr: 0x42260, symSize: 0xB0 }
  - { offset: 0xB5874, size: 0x8, addend: 0x0, symName: __RNvXs2V_NtNtCsaNl6UpbT7bw_4core5slice4iterINtB6_4IterTNtNtCsc29TF2YcYso_3syn8generics12GenericParamNtNtBU_5token5CommaEENtNtNtNtBa_4iter6traits8iterator8Iterator4nextBU_, symObjAddr: 0x3B88, symBinAddr: 0x42310, symSize: 0xB0 }
  - { offset: 0xB59AE, size: 0x8, addend: 0x0, symName: __RNvXs2V_NtNtCsaNl6UpbT7bw_4core5slice4iterINtB6_4IterTNtNtCsc29TF2YcYso_3syn8generics13CapturedParamNtNtBU_5token5CommaEENtNtNtNtBa_4iter6traits8iterator8Iterator4nextBU_, symObjAddr: 0x3C38, symBinAddr: 0x423C0, symSize: 0xB0 }
  - { offset: 0xB5AE8, size: 0x8, addend: 0x0, symName: __RNvXs2V_NtNtCsaNl6UpbT7bw_4core5slice4iterINtB6_4IterTNtNtCsc29TF2YcYso_3syn8generics14TypeParamBoundNtNtBU_5token4PlusEENtNtNtNtBa_4iter6traits8iterator8Iterator4nextBU_, symObjAddr: 0x3CE8, symBinAddr: 0x42470, symSize: 0xB0 }
  - { offset: 0xB5C22, size: 0x8, addend: 0x0, symName: __RNvXs2V_NtNtCsaNl6UpbT7bw_4core5slice4iterINtB6_4IterTNtNtCsc29TF2YcYso_3syn8generics14WherePredicateNtNtBU_5token5CommaEENtNtNtNtBa_4iter6traits8iterator8Iterator4nextBU_, symObjAddr: 0x3D98, symBinAddr: 0x42520, symSize: 0xB0 }
  - { offset: 0xB5D5C, size: 0x8, addend: 0x0, symName: __RNvXs2V_NtNtCsaNl6UpbT7bw_4core5slice4iterINtB6_4IterTNtNtCsc29TF2YcYso_3syn8lifetime8LifetimeNtNtBU_5token4PlusEENtNtNtNtBa_4iter6traits8iterator8Iterator4nextBU_, symObjAddr: 0x3E48, symBinAddr: 0x425D0, symSize: 0xB0 }
  - { offset: 0xB6706, size: 0x8, addend: 0x0, symName: __RNvXs2W_NtNtCsaNl6UpbT7bw_4core5slice4iterINtB6_4IterNtCshnvkK9b4wzu_11proc_macro24SpanENtNtNtNtBa_4iter6traits12double_ended19DoubleEndedIterator9next_backCsc29TF2YcYso_3syn, symObjAddr: 0x3EF8, symBinAddr: 0x42680, symSize: 0x108 }
  - { offset: 0xB6862, size: 0x8, addend: 0x0, symName: __RNvXs2W_NtNtCsaNl6UpbT7bw_4core5slice4iterINtB6_4IterTNtNtCsc29TF2YcYso_3syn4path11PathSegmentNtNtBU_5token7PathSepEENtNtNtNtBa_4iter6traits12double_ended19DoubleEndedIterator9next_backBU_, symObjAddr: 0x4210, symBinAddr: 0x42788, symSize: 0x108 }
  - { offset: 0xB69BE, size: 0x8, addend: 0x0, symName: __RNvXs2W_NtNtCsaNl6UpbT7bw_4core5slice4iterINtB6_4IterTNtNtCsc29TF2YcYso_3syn8generics14TypeParamBoundNtNtBU_5token4PlusEENtNtNtNtBa_4iter6traits12double_ended19DoubleEndedIterator9next_backBU_, symObjAddr: 0x4420, symBinAddr: 0x42890, symSize: 0x108 }
  - { offset: 0xB6B1A, size: 0x8, addend: 0x0, symName: __RNvXs2W_NtNtCsaNl6UpbT7bw_4core5slice4iterINtB6_4IterhENtNtNtNtBa_4iter6traits12double_ended19DoubleEndedIterator9next_backCsc29TF2YcYso_3syn, symObjAddr: 0x4528, symBinAddr: 0x42998, symSize: 0x108 }
  - { offset: 0xB6CF3, size: 0x8, addend: 0x0, symName: __RNvXs33_NtNtCsaNl6UpbT7bw_4core5slice4iterINtB6_7IterMutTNtNtCsc29TF2YcYso_3syn4path11PathSegmentNtNtBX_5token7PathSepEENtNtNtNtBa_4iter6traits8iterator8Iterator4nextBX_, symObjAddr: 0x4C2C, symBinAddr: 0x42CB4, symSize: 0xB0 }
  - { offset: 0xB6E18, size: 0x8, addend: 0x0, symName: __RNvXs33_NtNtCsaNl6UpbT7bw_4core5slice4iterINtB6_7IterMuthENtNtNtNtBa_4iter6traits8iterator8Iterator4nextCsc29TF2YcYso_3syn, symObjAddr: 0x4D8C, symBinAddr: 0x42D64, symSize: 0xB0 }
  - { offset: 0xB6F43, size: 0x8, addend: 0x0, symName: __RNvXs34_NtNtCsaNl6UpbT7bw_4core5slice4iterINtB6_7IterMutTNtNtCsc29TF2YcYso_3syn4path11PathSegmentNtNtBX_5token7PathSepEENtNtNtNtBa_4iter6traits12double_ended19DoubleEndedIterator9next_backBX_, symObjAddr: 0x4F44, symBinAddr: 0x42E14, symSize: 0x108 }
  - { offset: 0xB70A5, size: 0x8, addend: 0x0, symName: __RNvXs5_NtNtCsaNl6UpbT7bw_4core5slice4iterINtB5_4IterTNtNtCsc29TF2YcYso_3syn4path11PathSegmentNtNtBT_5token7PathSepEENtNtB9_5clone5Clone5cloneBT_, symObjAddr: 0x51B4, symBinAddr: 0x42F3C, symSize: 0x20 }
  - { offset: 0xB70DA, size: 0x8, addend: 0x0, symName: __RNvXs5_NtNtCsaNl6UpbT7bw_4core5slice4iterINtB5_4IterTNtNtCsc29TF2YcYso_3syn8generics14TypeParamBoundNtNtBT_5token4PlusEENtNtB9_5clone5Clone5cloneBT_, symObjAddr: 0x51F4, symBinAddr: 0x42F5C, symSize: 0x20 }
  - { offset: 0xB7290, size: 0x8, addend: 0x0, symName: __RNvMNtCsaNl6UpbT7bw_4core5sliceSTNtNtCsc29TF2YcYso_3syn4path11PathSegmentNtNtBz_5token7PathSepE4iterBz_, symObjAddr: 0x1B58, symBinAddr: 0x405C4, symSize: 0x28 }
  - { offset: 0xB72C7, size: 0x8, addend: 0x0, symName: __RNvMNtCsaNl6UpbT7bw_4core5sliceSTNtNtCsc29TF2YcYso_3syn4path11PathSegmentNtNtBz_5token7PathSepE8iter_mutBz_, symObjAddr: 0x1B80, symBinAddr: 0x405EC, symSize: 0x28 }
  - { offset: 0xB72FE, size: 0x8, addend: 0x0, symName: __RNvMNtCsaNl6UpbT7bw_4core5sliceSTNtNtCsc29TF2YcYso_3syn4path15GenericArgumentNtNtBz_5token5CommaE4iterBz_, symObjAddr: 0x1BA8, symBinAddr: 0x40614, symSize: 0x28 }
  - { offset: 0xB7462, size: 0x8, addend: 0x0, symName: __RNvNtNtCsaNl6UpbT7bw_4core5slice6memchr6memchrCsc29TF2YcYso_3syn, symObjAddr: 0x2450, symBinAddr: 0x40E0C, symSize: 0x114 }
  - { offset: 0xB7AB3, size: 0x8, addend: 0x0, symName: __RINvYINtNtNtCsaNl6UpbT7bw_4core5array4iter8IntoIterNtCshnvkK9b4wzu_11proc_macro29TokenTreeKj1_ENtNtNtNtBa_4iter6traits8iterator8Iterator3mapNtCs7yrEGia95Wz_10proc_macro9TokenTreeNvNtBP_3imp19into_compiler_tokenECsc29TF2YcYso_3syn, symObjAddr: 0x1510, symBinAddr: 0x3FF7C, symSize: 0x30 }
  - { offset: 0xB7B21, size: 0x8, addend: 0x0, symName: __RINvYINtNtNtCsaNl6UpbT7bw_4core5array4iter8IntoIterNtCshnvkK9b4wzu_11proc_macro29TokenTreeKj1_ENtNtNtNtBa_4iter6traits8iterator8Iterator7collectNtNtBP_3imp11TokenStreamECsc29TF2YcYso_3syn, symObjAddr: 0x1540, symBinAddr: 0x3FFAC, symSize: 0x6C }
  - { offset: 0xB7BB7, size: 0x8, addend: 0x0, symName: __RINvYINtNtNtCsaNl6UpbT7bw_4core5array4iter8IntoIterNtCshnvkK9b4wzu_11proc_macro29TokenTreeKj1_ENtNtNtNtBa_4iter6traits8iterator8Iterator7collectNtNtBP_8fallback11TokenStreamECsc29TF2YcYso_3syn, symObjAddr: 0x15AC, symBinAddr: 0x40018, symSize: 0x6C }
  - { offset: 0xB7C4D, size: 0x8, addend: 0x0, symName: __RINvYINtNtNtCsaNl6UpbT7bw_4core5array4iter8IntoIterNtCshnvkK9b4wzu_11proc_macro29TokenTreeKj1_ENtNtNtNtBa_4iter6traits8iterator8Iterator8for_eachNCINvXsa_NtBP_8fallbackNtB2s_11TokenStreamINtNtB1z_7collect6ExtendBN_E6extendB3_E0ECsc29TF2YcYso_3syn, symObjAddr: 0x1618, symBinAddr: 0x40084, symSize: 0x24 }
  - { offset: 0xB7C99, size: 0x8, addend: 0x0, symName: __RINvYINtNtNtCsaNl6UpbT7bw_4core5array4iter8IntoIterNtCshnvkK9b4wzu_11proc_macro29TokenTreeKj8_ENtNtNtNtBa_4iter6traits8iterator8Iterator3mapNtCs7yrEGia95Wz_10proc_macro9TokenTreeNvNtBP_3imp19into_compiler_tokenECsc29TF2YcYso_3syn, symObjAddr: 0x163C, symBinAddr: 0x400A8, symSize: 0x30 }
  - { offset: 0xB7D07, size: 0x8, addend: 0x0, symName: __RINvYINtNtNtCsaNl6UpbT7bw_4core5array4iter8IntoIterNtCshnvkK9b4wzu_11proc_macro29TokenTreeKj8_ENtNtNtNtBa_4iter6traits8iterator8Iterator7collectNtNtBP_3imp11TokenStreamECsc29TF2YcYso_3syn, symObjAddr: 0x166C, symBinAddr: 0x400D8, symSize: 0x74 }
  - { offset: 0xB7D9D, size: 0x8, addend: 0x0, symName: __RINvYINtNtNtCsaNl6UpbT7bw_4core5array4iter8IntoIterNtCshnvkK9b4wzu_11proc_macro29TokenTreeKj8_ENtNtNtNtBa_4iter6traits8iterator8Iterator7collectNtNtBP_8fallback11TokenStreamECsc29TF2YcYso_3syn, symObjAddr: 0x16E0, symBinAddr: 0x4014C, symSize: 0x74 }
  - { offset: 0xB7E33, size: 0x8, addend: 0x0, symName: __RINvYINtNtNtCsaNl6UpbT7bw_4core5array4iter8IntoIterNtCshnvkK9b4wzu_11proc_macro29TokenTreeKj8_ENtNtNtNtBa_4iter6traits8iterator8Iterator8for_eachNCINvXsa_NtBP_8fallbackNtB2s_11TokenStreamINtNtB1z_7collect6ExtendBN_E6extendB3_E0ECsc29TF2YcYso_3syn, symObjAddr: 0x1754, symBinAddr: 0x401C0, symSize: 0x24 }
  - { offset: 0xB7E7F, size: 0x8, addend: 0x0, symName: __RINvYINtNtNtCsaNl6UpbT7bw_4core5slice4iter4IterNtNtCsc29TF2YcYso_3syn4attr9AttributeENtNtNtNtBa_4iter6traits8iterator8Iterator6filterFG0_RL1_RL0_BJ_EbEBN_, symObjAddr: 0x1778, symBinAddr: 0x401E4, symSize: 0x30 }
  - { offset: 0xB7EE3, size: 0x8, addend: 0x0, symName: __RINvYINtNtNtCsaNl6UpbT7bw_4core5slice4iter4IterNtNtCsc29TF2YcYso_3syn5error12ErrorMessageENtNtNtNtBa_4iter6traits8iterator8Iterator3mapNtCshnvkK9b4wzu_11proc_macro211TokenStreamNvMs_BL_BJ_16to_compile_errorEBN_, symObjAddr: 0x17A8, symBinAddr: 0x40214, symSize: 0x1C }
  - { offset: 0xB7F3B, size: 0x8, addend: 0x0, symName: __RINvYINtNtNtCsaNl6UpbT7bw_4core5slice4iter4IterReENtNtNtNtBa_4iter6traits8iterator8Iterator8try_foldjNCINvNtNtBS_8adapters3map12map_try_foldRBJ_jjINtNtBa_6option6OptionjENCNCINvNtCsiTraAjBDcu4_5alloc3str17join_generic_copyehBJ_E00NvMs9_NtBa_3numj11checked_addE0B2k_ECsc29TF2YcYso_3syn, symObjAddr: 0x17C4, symBinAddr: 0x40230, symSize: 0x17C }
  - { offset: 0xB7FEF, size: 0x8, addend: 0x0, symName: __RNvYINtNtNtCsaNl6UpbT7bw_4core5slice4iter4IterNtNtCsc29TF2YcYso_3syn4expr3ArmENtNtNtNtB9_4iter6traits8iterator8Iterator9enumerateBM_, symObjAddr: 0x5CC0, symBinAddr: 0x43828, symSize: 0x28 }
  - { offset: 0xB803B, size: 0x8, addend: 0x0, symName: __RNvYINtNtNtCsaNl6UpbT7bw_4core5slice4iter4IterhENtNtNtNtB9_4iter6traits8iterator8Iterator3revCsc29TF2YcYso_3syn, symObjAddr: 0x5CE8, symBinAddr: 0x43850, symSize: 0x1C }
  - { offset: 0xB807E, size: 0x8, addend: 0x0, symName: __RNvXNtNtNtCsaNl6UpbT7bw_4core4iter6traits7collectINtNtNtB8_5array4iter8IntoIterNtCshnvkK9b4wzu_11proc_macro29TokenTreeKj1_ENtB2_12IntoIterator9into_iterCsc29TF2YcYso_3syn, symObjAddr: 0x2684, symBinAddr: 0x40F60, symSize: 0x30 }
  - { offset: 0xB80B6, size: 0x8, addend: 0x0, symName: __RNvXNtNtNtCsaNl6UpbT7bw_4core4iter6traits7collectINtNtNtB8_5array4iter8IntoIterNtCshnvkK9b4wzu_11proc_macro29TokenTreeKj8_ENtB2_12IntoIterator9into_iterCsc29TF2YcYso_3syn, symObjAddr: 0x26B4, symBinAddr: 0x40F90, symSize: 0x30 }
  - { offset: 0xB80EE, size: 0x8, addend: 0x0, symName: __RNvXNtNtNtCsaNl6UpbT7bw_4core4iter6traits7collectINtNtNtB8_5slice4iter4IterNtCshnvkK9b4wzu_11proc_macro24SpanENtB2_12IntoIterator9into_iterCsc29TF2YcYso_3syn, symObjAddr: 0x26E4, symBinAddr: 0x40FC0, symSize: 0x1C }
  - { offset: 0xB8125, size: 0x8, addend: 0x0, symName: __RNvXNtNtNtCsaNl6UpbT7bw_4core4iter6traits7collectINtNtNtB8_5slice4iter4IterNtNtCsc29TF2YcYso_3syn5error12ErrorMessageENtB2_12IntoIterator9into_iterB1f_, symObjAddr: 0x27C4, symBinAddr: 0x40FDC, symSize: 0x1C }
  - { offset: 0xB8440, size: 0x8, addend: 0x0, symName: __RINvXs2_NtNtCsaNl6UpbT7bw_4core5array4iterINtB6_8IntoIterNtCshnvkK9b4wzu_11proc_macro29TokenTreeKj1_ENtNtNtNtBa_4iter6traits8iterator8Iterator4folduNCINvNtNtB1H_8adapters3map8map_foldBT_NtCs7yrEGia95Wz_10proc_macro9TokenTreeuNvNtBV_3imp19into_compiler_tokenNCINvNvB1B_8for_each4callB2Y_NCINvXsg_B30_NtB30_11TokenStreamINtNtB1F_7collect12FromIteratorB2Y_E9from_iterINtB2r_3MapBE_B3B_EE0E0E0ECsc29TF2YcYso_3syn, symObjAddr: 0xAA8, symBinAddr: 0x3F680, symSize: 0x9C }
  - { offset: 0xB854A, size: 0x8, addend: 0x0, symName: __RINvXs2_NtNtCsaNl6UpbT7bw_4core5array4iterINtB6_8IntoIterNtCshnvkK9b4wzu_11proc_macro29TokenTreeKj1_ENtNtNtNtBa_4iter6traits8iterator8Iterator4folduNCINvNvB1B_8for_each4callBT_NCINvXsa_NtBV_8fallbackNtB2X_11TokenStreamINtNtB1F_7collect6ExtendBT_E6extendBE_E0E0ECsc29TF2YcYso_3syn, symObjAddr: 0xB44, symBinAddr: 0x3F71C, symSize: 0x9C }
  - { offset: 0xB8654, size: 0x8, addend: 0x0, symName: __RINvXs2_NtNtCsaNl6UpbT7bw_4core5array4iterINtB6_8IntoIterNtCshnvkK9b4wzu_11proc_macro29TokenTreeKj8_ENtNtNtNtBa_4iter6traits8iterator8Iterator4folduNCINvNtNtB1H_8adapters3map8map_foldBT_NtCs7yrEGia95Wz_10proc_macro9TokenTreeuNvNtBV_3imp19into_compiler_tokenNCINvNvB1B_8for_each4callB2Y_NCINvXsg_B30_NtB30_11TokenStreamINtNtB1F_7collect12FromIteratorB2Y_E9from_iterINtB2r_3MapBE_B3B_EE0E0E0ECsc29TF2YcYso_3syn, symObjAddr: 0xBE0, symBinAddr: 0x3F7B8, symSize: 0x9C }
  - { offset: 0xB875E, size: 0x8, addend: 0x0, symName: __RINvXs2_NtNtCsaNl6UpbT7bw_4core5array4iterINtB6_8IntoIterNtCshnvkK9b4wzu_11proc_macro29TokenTreeKj8_ENtNtNtNtBa_4iter6traits8iterator8Iterator4folduNCINvNvB1B_8for_each4callBT_NCINvXsa_NtBV_8fallbackNtB2X_11TokenStreamINtNtB1F_7collect6ExtendBT_E6extendBE_E0E0ECsc29TF2YcYso_3syn, symObjAddr: 0xC7C, symBinAddr: 0x3F854, symSize: 0x9C }
  - { offset: 0xB8868, size: 0x8, addend: 0x0, symName: __RNvXs2_NtNtCsaNl6UpbT7bw_4core5array4iterINtB5_8IntoIterNtCshnvkK9b4wzu_11proc_macro29TokenTreeKj1_ENtNtNtNtB9_4iter6traits8iterator8Iterator9size_hintCsc29TF2YcYso_3syn, symObjAddr: 0x47BC, symBinAddr: 0x42C2C, symSize: 0x44 }
  - { offset: 0xB88DB, size: 0x8, addend: 0x0, symName: __RNvXs2_NtNtCsaNl6UpbT7bw_4core5array4iterINtB5_8IntoIterNtCshnvkK9b4wzu_11proc_macro29TokenTreeKj8_ENtNtNtNtB9_4iter6traits8iterator8Iterator9size_hintCsc29TF2YcYso_3syn, symObjAddr: 0x4800, symBinAddr: 0x42C70, symSize: 0x44 }
  - { offset: 0xB8991, size: 0x8, addend: 0x0, symName: __RNvXs4_NtNtCsaNl6UpbT7bw_4core5array4iterINtB5_8IntoIterNtCshnvkK9b4wzu_11proc_macro29TokenTreeKj1_ENtNtNtB9_3ops4drop4Drop4dropCsc29TF2YcYso_3syn, symObjAddr: 0x5154, symBinAddr: 0x42F1C, symSize: 0x10 }
  - { offset: 0xB89C4, size: 0x8, addend: 0x0, symName: __RNvXs4_NtNtCsaNl6UpbT7bw_4core5array4iterINtB5_8IntoIterNtCshnvkK9b4wzu_11proc_macro29TokenTreeKj8_ENtNtNtB9_3ops4drop4Drop4dropCsc29TF2YcYso_3syn, symObjAddr: 0x5164, symBinAddr: 0x42F2C, symSize: 0x10 }
  - { offset: 0xB9480, size: 0x8, addend: 0x0, symName: __RNvXs0_NtNtCsaNl6UpbT7bw_4core3str7patternNtB5_12CharSearcherNtB5_15ReverseSearcher15next_match_backCsc29TF2YcYso_3syn, symObjAddr: 0x27E0, symBinAddr: 0x40FF8, symSize: 0x388 }
  - { offset: 0xB9987, size: 0x8, addend: 0x0, symName: __RNvXs2_NtNtCsaNl6UpbT7bw_4core3str7patterncNtB5_7Pattern12is_suffix_ofCsc29TF2YcYso_3syn, symObjAddr: 0x4630, symBinAddr: 0x42AA0, symSize: 0x78 }
  - { offset: 0xB9A2E, size: 0x8, addend: 0x0, symName: __RNvXs2_NtNtCsaNl6UpbT7bw_4core3str7patterncNtB5_7Pattern13into_searcherCsc29TF2YcYso_3syn, symObjAddr: 0x46A8, symBinAddr: 0x42B18, symSize: 0x114 }
  - { offset: 0xB9B4C, size: 0x8, addend: 0x0, symName: __RNvXs_NtNtCsaNl6UpbT7bw_4core3str7patternNtB4_12CharSearcherNtB4_8Searcher10next_matchCsc29TF2YcYso_3syn, symObjAddr: 0x5678, symBinAddr: 0x431E0, symSize: 0x380 }
  - { offset: 0xB9FB0, size: 0x8, addend: 0x0, symName: __RNvXs_NtNtCsaNl6UpbT7bw_4core3str7patternNtB4_12CharSearcherNtB4_8Searcher8haystackCsc29TF2YcYso_3syn, symObjAddr: 0x59F8, symBinAddr: 0x43560, symSize: 0x20 }
  - { offset: 0xBA6F4, size: 0x8, addend: 0x0, symName: __RINvMsv_NtCshnvkK9b4wzu_11proc_macro23impNtB6_7Literal7subspanINtNtNtCsaNl6UpbT7bw_4core3ops5range5RangejEECsc29TF2YcYso_3syn, symObjAddr: 0x0, symBinAddr: 0x3F2BC, symSize: 0xD4 }
  - { offset: 0xBB129, size: 0x8, addend: 0x0, symName: __RNvMs4_NtNtCsaNl6UpbT7bw_4core5slice4iterINtB5_4IterNtCshnvkK9b4wzu_11proc_macro24SpanE3newCsc29TF2YcYso_3syn, symObjAddr: 0x1BD0, symBinAddr: 0x4063C, symSize: 0x50 }
  - { offset: 0xBB2D9, size: 0x8, addend: 0x0, symName: __RNvMs4_NtNtCsaNl6UpbT7bw_4core5slice4iterINtB5_4IterNtNtCsc29TF2YcYso_3syn4attr9AttributeE3newBS_, symObjAddr: 0x1C20, symBinAddr: 0x4068C, symSize: 0x50 }
  - { offset: 0xBB4A3, size: 0x8, addend: 0x0, symName: __RNvMs4_NtNtCsaNl6UpbT7bw_4core5slice4iterINtB5_4IterNtNtCsc29TF2YcYso_3syn4expr3ArmE3newBS_, symObjAddr: 0x1C70, symBinAddr: 0x406DC, symSize: 0x58 }
  - { offset: 0xBB653, size: 0x8, addend: 0x0, symName: __RNvMs4_NtNtCsaNl6UpbT7bw_4core5slice4iterINtB5_4IterNtNtCsc29TF2YcYso_3syn5error12ErrorMessageE3newBS_, symObjAddr: 0x1CC8, symBinAddr: 0x40734, symSize: 0x58 }
  - { offset: 0xBB81D, size: 0x8, addend: 0x0, symName: __RNvMs4_NtNtCsaNl6UpbT7bw_4core5slice4iterINtB5_4IterTNtNtCsc29TF2YcYso_3syn2ty4TypeNtNtBT_5token5CommaEE3newBT_, symObjAddr: 0x1D20, symBinAddr: 0x4078C, symSize: 0x58 }
  - { offset: 0xBB9E7, size: 0x8, addend: 0x0, symName: __RNvMs4_NtNtCsaNl6UpbT7bw_4core5slice4iterINtB5_4IterTNtNtCsc29TF2YcYso_3syn2ty9BareFnArgNtNtBT_5token5CommaEE3newBT_, symObjAddr: 0x1D78, symBinAddr: 0x407E4, symSize: 0x58 }
  - { offset: 0xBBBB1, size: 0x8, addend: 0x0, symName: __RNvMs4_NtNtCsaNl6UpbT7bw_4core5slice4iterINtB5_4IterTNtNtCsc29TF2YcYso_3syn3pat3PatNtNtBT_5token2OrEE3newBT_, symObjAddr: 0x1DD0, symBinAddr: 0x4083C, symSize: 0x58 }
  - { offset: 0xBBD7B, size: 0x8, addend: 0x0, symName: __RNvMs4_NtNtCsaNl6UpbT7bw_4core5slice4iterINtB5_4IterTNtNtCsc29TF2YcYso_3syn3pat3PatNtNtBT_5token5CommaEE3newBT_, symObjAddr: 0x1E28, symBinAddr: 0x40894, symSize: 0x58 }
  - { offset: 0xBBF45, size: 0x8, addend: 0x0, symName: __RNvMs4_NtNtCsaNl6UpbT7bw_4core5slice4iterINtB5_4IterTNtNtCsc29TF2YcYso_3syn3pat8FieldPatNtNtBT_5token5CommaEE3newBT_, symObjAddr: 0x1E80, symBinAddr: 0x408EC, symSize: 0x58 }
  - { offset: 0xBC10F, size: 0x8, addend: 0x0, symName: __RNvMs4_NtNtCsaNl6UpbT7bw_4core5slice4iterINtB5_4IterTNtNtCsc29TF2YcYso_3syn4data5FieldNtNtBT_5token5CommaEE3newBT_, symObjAddr: 0x1ED8, symBinAddr: 0x40944, symSize: 0x58 }
  - { offset: 0xBC2D9, size: 0x8, addend: 0x0, symName: __RNvMs4_NtNtCsaNl6UpbT7bw_4core5slice4iterINtB5_4IterTNtNtCsc29TF2YcYso_3syn4data7VariantNtNtBT_5token5CommaEE3newBT_, symObjAddr: 0x1F30, symBinAddr: 0x4099C, symSize: 0x58 }
  - { offset: 0xBC4A3, size: 0x8, addend: 0x0, symName: __RNvMs4_NtNtCsaNl6UpbT7bw_4core5slice4iterINtB5_4IterTNtNtCsc29TF2YcYso_3syn4expr10FieldValueNtNtBT_5token5CommaEE3newBT_, symObjAddr: 0x1F88, symBinAddr: 0x409F4, symSize: 0x58 }
  - { offset: 0xBC66D, size: 0x8, addend: 0x0, symName: __RNvMs4_NtNtCsaNl6UpbT7bw_4core5slice4iterINtB5_4IterTNtNtCsc29TF2YcYso_3syn4expr4ExprNtNtBT_5token5CommaEE3newBT_, symObjAddr: 0x1FE0, symBinAddr: 0x40A4C, symSize: 0x58 }
  - { offset: 0xBC837, size: 0x8, addend: 0x0, symName: __RNvMs4_NtNtCsaNl6UpbT7bw_4core5slice4iterINtB5_4IterTNtNtCsc29TF2YcYso_3syn4item5FnArgNtNtBT_5token5CommaEE3newBT_, symObjAddr: 0x2038, symBinAddr: 0x40AA4, symSize: 0x58 }
  - { offset: 0xBCA01, size: 0x8, addend: 0x0, symName: __RNvMs4_NtNtCsaNl6UpbT7bw_4core5slice4iterINtB5_4IterTNtNtCsc29TF2YcYso_3syn4item7UseTreeNtNtBT_5token5CommaEE3newBT_, symObjAddr: 0x2090, symBinAddr: 0x40AFC, symSize: 0x58 }
  - { offset: 0xBCB5F, size: 0x8, addend: 0x0, symName: __RNvMs4_NtNtCsaNl6UpbT7bw_4core5slice4iterINtB5_4IterTNtNtCsc29TF2YcYso_3syn4path11PathSegmentNtNtBT_5token7PathSepEE3newBT_, symObjAddr: 0x20E8, symBinAddr: 0x40B54, symSize: 0x58 }
  - { offset: 0xBCCBD, size: 0x8, addend: 0x0, symName: __RNvMs4_NtNtCsaNl6UpbT7bw_4core5slice4iterINtB5_4IterTNtNtCsc29TF2YcYso_3syn4path15GenericArgumentNtNtBT_5token5CommaEE3newBT_, symObjAddr: 0x2140, symBinAddr: 0x40BAC, symSize: 0x58 }
  - { offset: 0xBCE87, size: 0x8, addend: 0x0, symName: __RNvMs4_NtNtCsaNl6UpbT7bw_4core5slice4iterINtB5_4IterTNtNtCsc29TF2YcYso_3syn8generics12GenericParamNtNtBT_5token5CommaEE3newBT_, symObjAddr: 0x2198, symBinAddr: 0x40C04, symSize: 0x58 }
  - { offset: 0xBD051, size: 0x8, addend: 0x0, symName: __RNvMs4_NtNtCsaNl6UpbT7bw_4core5slice4iterINtB5_4IterTNtNtCsc29TF2YcYso_3syn8generics13CapturedParamNtNtBT_5token5CommaEE3newBT_, symObjAddr: 0x21F0, symBinAddr: 0x40C5C, symSize: 0x58 }
  - { offset: 0xBD21B, size: 0x8, addend: 0x0, symName: __RNvMs4_NtNtCsaNl6UpbT7bw_4core5slice4iterINtB5_4IterTNtNtCsc29TF2YcYso_3syn8generics14TypeParamBoundNtNtBT_5token4PlusEE3newBT_, symObjAddr: 0x2248, symBinAddr: 0x40CB4, symSize: 0x50 }
  - { offset: 0xBD3E5, size: 0x8, addend: 0x0, symName: __RNvMs4_NtNtCsaNl6UpbT7bw_4core5slice4iterINtB5_4IterTNtNtCsc29TF2YcYso_3syn8generics14WherePredicateNtNtBT_5token5CommaEE3newBT_, symObjAddr: 0x2298, symBinAddr: 0x40D04, symSize: 0x58 }
  - { offset: 0xBD5AF, size: 0x8, addend: 0x0, symName: __RNvMs4_NtNtCsaNl6UpbT7bw_4core5slice4iterINtB5_4IterTNtNtCsc29TF2YcYso_3syn8lifetime8LifetimeNtNtBT_5token4PlusEE3newBT_, symObjAddr: 0x22F0, symBinAddr: 0x40D5C, symSize: 0x58 }
  - { offset: 0xBD756, size: 0x8, addend: 0x0, symName: __RNvMsa_NtNtCsaNl6UpbT7bw_4core5slice4iterINtB5_7IterMutTNtNtCsc29TF2YcYso_3syn4path11PathSegmentNtNtBW_5token7PathSepEE3newBW_, symObjAddr: 0x23A0, symBinAddr: 0x40DB4, symSize: 0x58 }
  - { offset: 0xBD891, size: 0x8, addend: 0x0, symName: __RNvXNtCs4EAaWzSXu1l_5quote9to_tokensRNtNtCsc29TF2YcYso_3syn4path15GenericArgumentNtB2_8ToTokens9to_tokensBD_, symObjAddr: 0x2564, symBinAddr: 0x40F20, symSize: 0x40 }
  - { offset: 0xBEC20, size: 0x8, addend: 0x0, symName: __RINvMs_NtCsc29TF2YcYso_3syn4pathNtB5_4Path8is_identeEB7_, symObjAddr: 0x74AC, symBinAddr: 0x44F70, symSize: 0x94 }
  - { offset: 0xBEC83, size: 0x8, addend: 0x0, symName: __RNvMs_NtCsc29TF2YcYso_3syn4pathNtB4_4Path9get_ident, symObjAddr: 0x7540, symBinAddr: 0x45004, symSize: 0xE8 }
  - { offset: 0xBECB2, size: 0x8, addend: 0x0, symName: __RNvMs2_NtCsc29TF2YcYso_3syn4pathNtB5_13PathArguments8is_empty, symObjAddr: 0x77C4, symBinAddr: 0x45154, symSize: 0xCC }
  - { offset: 0xBECF1, size: 0x8, addend: 0x0, symName: __RNvMs2_NtCsc29TF2YcYso_3syn4pathNtB5_13PathArguments7is_none, symObjAddr: 0x7890, symBinAddr: 0x45220, symSize: 0x78 }
  - { offset: 0xBED72, size: 0x8, addend: 0x0, symName: __RNvMs0_NtNtCsc29TF2YcYso_3syn4path7parsingNtB7_30AngleBracketedGenericArguments15parse_turbofish, symObjAddr: 0x8D04, symBinAddr: 0x46694, symSize: 0xD0 }
  - { offset: 0xBEDD1, size: 0x8, addend: 0x0, symName: __RNvMs0_NtNtCsc29TF2YcYso_3syn4path7parsingNtB7_30AngleBracketedGenericArguments8do_parse, symObjAddr: 0x8DD4, symBinAddr: 0x46764, symSize: 0x498 }
  - { offset: 0xBEEDC, size: 0x8, addend: 0x0, symName: __RNvMs4_NtNtCsc29TF2YcYso_3syn4path7parsingNtB7_11PathSegment12parse_helper, symObjAddr: 0x96B8, symBinAddr: 0x4700C, symSize: 0x66C }
  - { offset: 0xBF015, size: 0x8, addend: 0x0, symName: __RNvMs5_NtNtCsc29TF2YcYso_3syn4path7parsingNtB7_4Path15parse_mod_style, symObjAddr: 0x9D24, symBinAddr: 0x47678, symSize: 0x568 }
  - { offset: 0xBF0F1, size: 0x8, addend: 0x0, symName: __RNvMs5_NtNtCsc29TF2YcYso_3syn4path7parsingNtB7_4Path12parse_helper, symObjAddr: 0xA28C, symBinAddr: 0x47BE0, symSize: 0x330 }
  - { offset: 0xBF1F1, size: 0x8, addend: 0x0, symName: __RNvMs5_NtNtCsc29TF2YcYso_3syn4path7parsingNtB7_4Path10parse_rest, symObjAddr: 0xA5BC, symBinAddr: 0x47F10, symSize: 0x26C }
  - { offset: 0xBF2C6, size: 0x8, addend: 0x0, symName: __RNvMs5_NtNtCsc29TF2YcYso_3syn4path7parsingNtB7_4Path12is_mod_style, symObjAddr: 0xA828, symBinAddr: 0x4817C, symSize: 0x84 }
  - { offset: 0xC037F, size: 0x8, addend: 0x0, symName: __RNvMs9_NtCsaNl6UpbT7bw_4core3numj11checked_addCsc29TF2YcYso_3syn, symObjAddr: 0x6190, symBinAddr: 0x4E890, symSize: 0x74 }
  - { offset: 0xC0409, size: 0x8, addend: 0x0, symName: __RNvNvMs9_NtCsaNl6UpbT7bw_4core3numj13unchecked_add18precondition_checkCsc29TF2YcYso_3syn, symObjAddr: 0x699C, symBinAddr: 0x4EF50, symSize: 0xB0 }
  - { offset: 0xC04C7, size: 0x8, addend: 0x0, symName: __RNvNvMs9_NtCsaNl6UpbT7bw_4core3numj13unchecked_mul18precondition_checkCsc29TF2YcYso_3syn, symObjAddr: 0x6A4C, symBinAddr: 0x4F000, symSize: 0xAC }
  - { offset: 0xC0658, size: 0x8, addend: 0x0, symName: __RNvMsA_NtCsaNl6UpbT7bw_4core3numm16from_ascii_radixCsc29TF2YcYso_3syn, symObjAddr: 0x6204, symBinAddr: 0x4E904, symSize: 0x594 }
  - { offset: 0xC08F5, size: 0x8, addend: 0x0, symName: __RNvNvMs3_NtCsaNl6UpbT7bw_4core3numi13unchecked_neg18precondition_checkCsc29TF2YcYso_3syn, symObjAddr: 0x68E4, symBinAddr: 0x4EE98, symSize: 0xB8 }
  - { offset: 0xC0992, size: 0x8, addend: 0x0, symName: __RNvXsz_NtCsaNl6UpbT7bw_4core3nummNtNtNtB7_3str6traits7FromStr8from_strCsc29TF2YcYso_3syn, symObjAddr: 0x14A54, symBinAddr: 0x5BBD4, symSize: 0x40 }
  - { offset: 0xCA316, size: 0x8, addend: 0x0, symName: __RNvXsp_NtCsaNl6UpbT7bw_4core6resultINtB5_6ResultANtCshnvkK9b4wzu_11proc_macro24Spanj1_NtNtCsc29TF2YcYso_3syn5error5ErrorENtNtNtB7_3ops9try_trait3Try6branchB1q_, symObjAddr: 0x709C, symBinAddr: 0x4F5F4, symSize: 0x8C }
  - { offset: 0xCA393, size: 0x8, addend: 0x0, symName: __RNvXsp_NtCsaNl6UpbT7bw_4core6resultINtB5_6ResultANtCshnvkK9b4wzu_11proc_macro24Spanj2_NtNtCsc29TF2YcYso_3syn5error5ErrorENtNtNtB7_3ops9try_trait3Try6branchB1q_, symObjAddr: 0x7128, symBinAddr: 0x4F680, symSize: 0x8C }
  - { offset: 0xCA410, size: 0x8, addend: 0x0, symName: __RNvXsp_NtCsaNl6UpbT7bw_4core6resultINtB5_6ResultANtCshnvkK9b4wzu_11proc_macro24Spanj3_NtNtCsc29TF2YcYso_3syn5error5ErrorENtNtNtB7_3ops9try_trait3Try6branchB1q_, symObjAddr: 0x71B4, symBinAddr: 0x4F70C, symSize: 0x9C }
  - { offset: 0xCA48D, size: 0x8, addend: 0x0, symName: __RNvXsp_NtCsaNl6UpbT7bw_4core6resultINtB5_6ResultINtNtB7_6option6OptionINtNtCsiTraAjBDcu4_5alloc5boxed3BoxNtNtCsc29TF2YcYso_3syn4expr4ExprEENtNtB1J_5error5ErrorENtNtNtB7_3ops9try_trait3Try6branchB1J_, symObjAddr: 0x7250, symBinAddr: 0x4F7A8, symSize: 0x88 }
  - { offset: 0xCA50B, size: 0x8, addend: 0x0, symName: __RNvXsp_NtCsaNl6UpbT7bw_4core6resultINtB5_6ResultINtNtB7_6option6OptionNtCshnvkK9b4wzu_11proc_macro25IdentENtNtCsc29TF2YcYso_3syn5error5ErrorENtNtNtB7_3ops9try_trait3Try6branchB1K_, symObjAddr: 0x72D8, symBinAddr: 0x4F830, symSize: 0x94 }
  - { offset: 0xCA588, size: 0x8, addend: 0x0, symName: __RNvXsp_NtCsaNl6UpbT7bw_4core6resultINtB5_6ResultINtNtB7_6option6OptionNtNtCsc29TF2YcYso_3syn2ty3AbiENtNtB1a_5error5ErrorENtNtNtB7_3ops9try_trait3Try6branchB1a_, symObjAddr: 0x736C, symBinAddr: 0x4F8C4, symSize: 0x94 }
  - { offset: 0xCA605, size: 0x8, addend: 0x0, symName: __RNvXsp_NtCsaNl6UpbT7bw_4core6resultINtB5_6ResultINtNtB7_6option6OptionNtNtCsc29TF2YcYso_3syn3lit3LitENtNtB1a_5error5ErrorENtNtNtB7_3ops9try_trait3Try6branchB1a_, symObjAddr: 0x7400, symBinAddr: 0x4F958, symSize: 0x94 }
  - { offset: 0xCA682, size: 0x8, addend: 0x0, symName: __RNvXsp_NtCsaNl6UpbT7bw_4core6resultINtB5_6ResultINtNtB7_6option6OptionNtNtCsc29TF2YcYso_3syn3lit6LitStrENtNtB1a_5error5ErrorENtNtNtB7_3ops9try_trait3Try6branchB1a_, symObjAddr: 0x7494, symBinAddr: 0x4F9EC, symSize: 0x88 }
  - { offset: 0xCA700, size: 0x8, addend: 0x0, symName: __RNvXsp_NtCsaNl6UpbT7bw_4core6resultINtB5_6ResultINtNtB7_6option6OptionNtNtCsc29TF2YcYso_3syn3lit8LitFloatENtNtB1a_5error5ErrorENtNtNtB7_3ops9try_trait3Try6branchB1a_, symObjAddr: 0x751C, symBinAddr: 0x4FA74, symSize: 0x88 }
  - { offset: 0xCA77E, size: 0x8, addend: 0x0, symName: __RNvXsp_NtCsaNl6UpbT7bw_4core6resultINtB5_6ResultINtNtB7_6option6OptionNtNtCsc29TF2YcYso_3syn4expr5LabelENtNtB1a_5error5ErrorENtNtNtB7_3ops9try_trait3Try6branchB1a_, symObjAddr: 0x75A4, symBinAddr: 0x4FAFC, symSize: 0xB0 }
  - { offset: 0xCA7FB, size: 0x8, addend: 0x0, symName: __RNvXsp_NtCsaNl6UpbT7bw_4core6resultINtB5_6ResultINtNtB7_6option6OptionNtNtCsc29TF2YcYso_3syn4item10ImplItemFnENtNtB1a_5error5ErrorENtNtNtB7_3ops9try_trait3Try6branchB1a_, symObjAddr: 0x7654, symBinAddr: 0x4FBAC, symSize: 0xC0 }
  - { offset: 0xCA879, size: 0x8, addend: 0x0, symName: __RNvXsp_NtCsaNl6UpbT7bw_4core6resultINtB5_6ResultINtNtB7_6option6OptionNtNtCsc29TF2YcYso_3syn4item7ItemUseENtNtB1a_5error5ErrorENtNtNtB7_3ops9try_trait3Try6branchB1a_, symObjAddr: 0x7714, symBinAddr: 0x4FC6C, symSize: 0xB8 }
  - { offset: 0xCA8F7, size: 0x8, addend: 0x0, symName: __RNvXsp_NtCsaNl6UpbT7bw_4core6resultINtB5_6ResultINtNtB7_6option6OptionNtNtCsc29TF2YcYso_3syn4item7UseTreeENtNtB1a_5error5ErrorENtNtNtB7_3ops9try_trait3Try6branchB1a_, symObjAddr: 0x77CC, symBinAddr: 0x4FD24, symSize: 0xAC }
  - { offset: 0xCA974, size: 0x8, addend: 0x0, symName: __RNvXsp_NtCsaNl6UpbT7bw_4core6resultINtB5_6ResultINtNtB7_6option6OptionNtNtCsc29TF2YcYso_3syn4item8ItemImplENtNtB1a_5error5ErrorENtNtNtB7_3ops9try_trait3Try6branchB1a_, symObjAddr: 0x7878, symBinAddr: 0x4FDD0, symSize: 0xB8 }
  - { offset: 0xCA9F2, size: 0x8, addend: 0x0, symName: __RNvXsp_NtCsaNl6UpbT7bw_4core6resultINtB5_6ResultINtNtB7_6option6OptionNtNtCsc29TF2YcYso_3syn4item9SignatureENtNtB1a_5error5ErrorENtNtNtB7_3ops9try_trait3Try6branchB1a_, symObjAddr: 0x7930, symBinAddr: 0x4FE88, symSize: 0xB4 }
  - { offset: 0xCAA70, size: 0x8, addend: 0x0, symName: __RNvXsp_NtCsaNl6UpbT7bw_4core6resultINtB5_6ResultINtNtB7_6option6OptionNtNtCsc29TF2YcYso_3syn5token2EqENtNtB1a_5error5ErrorENtNtNtB7_3ops9try_trait3Try6branchB1a_, symObjAddr: 0x79E4, symBinAddr: 0x4FF3C, symSize: 0x8C }
  - { offset: 0xCAAED, size: 0x8, addend: 0x0, symName: __RNvXsp_NtCsaNl6UpbT7bw_4core6resultINtB5_6ResultINtNtB7_6option6OptionNtNtCsc29TF2YcYso_3syn5token2OrENtNtB1a_5error5ErrorENtNtNtB7_3ops9try_trait3Try6branchB1a_, symObjAddr: 0x7A70, symBinAddr: 0x4FFC8, symSize: 0x8C }
  - { offset: 0xCAB6A, size: 0x8, addend: 0x0, symName: __RNvXsp_NtCsaNl6UpbT7bw_4core6resultINtB5_6ResultINtNtB7_6option6OptionNtNtCsc29TF2YcYso_3syn5token3BoxENtNtB1a_5error5ErrorENtNtNtB7_3ops9try_trait3Try6branchB1a_, symObjAddr: 0x7AFC, symBinAddr: 0x50054, symSize: 0x94 }
  - { offset: 0xCABE8, size: 0x8, addend: 0x0, symName: __RNvXsp_NtCsaNl6UpbT7bw_4core6resultINtB5_6ResultINtNtB7_6option6OptionNtNtCsc29TF2YcYso_3syn5token3DynENtNtB1a_5error5ErrorENtNtNtB7_3ops9try_trait3Try6branchB1a_, symObjAddr: 0x7B90, symBinAddr: 0x500E8, symSize: 0x94 }
  - { offset: 0xCAC66, size: 0x8, addend: 0x0, symName: __RNvXsp_NtCsaNl6UpbT7bw_4core6resultINtB5_6ResultINtNtB7_6option6OptionNtNtCsc29TF2YcYso_3syn5token3MutENtNtB1a_5error5ErrorENtNtNtB7_3ops9try_trait3Try6branchB1a_, symObjAddr: 0x7C24, symBinAddr: 0x5017C, symSize: 0x94 }
  - { offset: 0xCACE4, size: 0x8, addend: 0x0, symName: __RNvXsp_NtCsaNl6UpbT7bw_4core6resultINtB5_6ResultINtNtB7_6option6OptionNtNtCsc29TF2YcYso_3syn5token3RefENtNtB1a_5error5ErrorENtNtNtB7_3ops9try_trait3Try6branchB1a_, symObjAddr: 0x7CB8, symBinAddr: 0x50210, symSize: 0x94 }
  - { offset: 0xCAD62, size: 0x8, addend: 0x0, symName: __RNvXsp_NtCsaNl6UpbT7bw_4core6resultINtB5_6ResultINtNtB7_6option6OptionNtNtCsc29TF2YcYso_3syn5token4AutoENtNtB1a_5error5ErrorENtNtNtB7_3ops9try_trait3Try6branchB1a_, symObjAddr: 0x7D4C, symBinAddr: 0x502A4, symSize: 0x94 }
  - { offset: 0xCADE0, size: 0x8, addend: 0x0, symName: __RNvXsp_NtCsaNl6UpbT7bw_4core6resultINtB5_6ResultINtNtB7_6option6OptionNtNtCsc29TF2YcYso_3syn5token4MoveENtNtB1a_5error5ErrorENtNtNtB7_3ops9try_trait3Try6branchB1a_, symObjAddr: 0x7DE0, symBinAddr: 0x50338, symSize: 0x94 }
  - { offset: 0xCAE5E, size: 0x8, addend: 0x0, symName: __RNvXsp_NtCsaNl6UpbT7bw_4core6resultINtB5_6ResultINtNtB7_6option6OptionNtNtCsc29TF2YcYso_3syn5token4PlusENtNtB1a_5error5ErrorENtNtNtB7_3ops9try_trait3Try6branchB1a_, symObjAddr: 0x7E74, symBinAddr: 0x503CC, symSize: 0x8C }
  - { offset: 0xCAEDB, size: 0x8, addend: 0x0, symName: __RNvXsp_NtCsaNl6UpbT7bw_4core6resultINtB5_6ResultINtNtB7_6option6OptionNtNtCsc29TF2YcYso_3syn5token4SemiENtNtB1a_5error5ErrorENtNtNtB7_3ops9try_trait3Try6branchB1a_, symObjAddr: 0x7F00, symBinAddr: 0x50458, symSize: 0x8C }
  - { offset: 0xCAF58, size: 0x8, addend: 0x0, symName: __RNvXsp_NtCsaNl6UpbT7bw_4core6resultINtB5_6ResultINtNtB7_6option6OptionNtNtCsc29TF2YcYso_3syn5token4StarENtNtB1a_5error5ErrorENtNtNtB7_3ops9try_trait3Try6branchB1a_, symObjAddr: 0x7F8C, symBinAddr: 0x504E4, symSize: 0x8C }
  - { offset: 0xCAFD5, size: 0x8, addend: 0x0, symName: __RNvXsp_NtCsaNl6UpbT7bw_4core6resultINtB5_6ResultINtNtB7_6option6OptionNtNtCsc29TF2YcYso_3syn5token5AsyncENtNtB1a_5error5ErrorENtNtNtB7_3ops9try_trait3Try6branchB1a_, symObjAddr: 0x8018, symBinAddr: 0x50570, symSize: 0x94 }
  - { offset: 0xCB053, size: 0x8, addend: 0x0, symName: __RNvXsp_NtCsaNl6UpbT7bw_4core6resultINtB5_6ResultINtNtB7_6option6OptionNtNtCsc29TF2YcYso_3syn5token5AwaitENtNtB1a_5error5ErrorENtNtNtB7_3ops9try_trait3Try6branchB1a_, symObjAddr: 0x80AC, symBinAddr: 0x50604, symSize: 0x94 }
  - { offset: 0xCB0D1, size: 0x8, addend: 0x0, symName: __RNvXsp_NtCsaNl6UpbT7bw_4core6resultINtB5_6ResultINtNtB7_6option6OptionNtNtCsc29TF2YcYso_3syn5token5ColonENtNtB1a_5error5ErrorENtNtNtB7_3ops9try_trait3Try6branchB1a_, symObjAddr: 0x8140, symBinAddr: 0x50698, symSize: 0x8C }
  - { offset: 0xCB14E, size: 0x8, addend: 0x0, symName: __RNvXsp_NtCsaNl6UpbT7bw_4core6resultINtB5_6ResultINtNtB7_6option6OptionNtNtCsc29TF2YcYso_3syn5token5CommaENtNtB1a_5error5ErrorENtNtNtB7_3ops9try_trait3Try6branchB1a_, symObjAddr: 0x81CC, symBinAddr: 0x50724, symSize: 0x8C }
  - { offset: 0xCB1CB, size: 0x8, addend: 0x0, symName: __RNvXsp_NtCsaNl6UpbT7bw_4core6resultINtB5_6ResultINtNtB7_6option6OptionNtNtCsc29TF2YcYso_3syn5token5ConstENtNtB1a_5error5ErrorENtNtNtB7_3ops9try_trait3Try6branchB1a_, symObjAddr: 0x8258, symBinAddr: 0x507B0, symSize: 0x94 }
  - { offset: 0xCB249, size: 0x8, addend: 0x0, symName: __RNvXsp_NtCsaNl6UpbT7bw_4core6resultINtB5_6ResultINtNtB7_6option6OptionNtNtCsc29TF2YcYso_3syn5token6StaticENtNtB1a_5error5ErrorENtNtNtB7_3ops9try_trait3Try6branchB1a_, symObjAddr: 0x82EC, symBinAddr: 0x50844, symSize: 0x94 }
  - { offset: 0xCB2C7, size: 0x8, addend: 0x0, symName: __RNvXsp_NtCsaNl6UpbT7bw_4core6resultINtB5_6ResultINtNtB7_6option6OptionNtNtCsc29TF2YcYso_3syn5token6UnsafeENtNtB1a_5error5ErrorENtNtNtB7_3ops9try_trait3Try6branchB1a_, symObjAddr: 0x8380, symBinAddr: 0x508D8, symSize: 0x94 }
  - { offset: 0xCB345, size: 0x8, addend: 0x0, symName: __RNvXsp_NtCsaNl6UpbT7bw_4core6resultINtB5_6ResultINtNtB7_6option6OptionNtNtCsc29TF2YcYso_3syn5token7DefaultENtNtB1a_5error5ErrorENtNtNtB7_3ops9try_trait3Try6branchB1a_, symObjAddr: 0x8414, symBinAddr: 0x5096C, symSize: 0x94 }
  - { offset: 0xCB3C3, size: 0x8, addend: 0x0, symName: __RNvXsp_NtCsaNl6UpbT7bw_4core6resultINtB5_6ResultINtNtB7_6option6OptionNtNtCsc29TF2YcYso_3syn5token7PathSepENtNtB1a_5error5ErrorENtNtNtB7_3ops9try_trait3Try6branchB1a_, symObjAddr: 0x84A8, symBinAddr: 0x50A00, symSize: 0x9C }
  - { offset: 0xCB440, size: 0x8, addend: 0x0, symName: __RNvXsp_NtCsaNl6UpbT7bw_4core6resultINtB5_6ResultINtNtB7_6option6OptionNtNtCsc29TF2YcYso_3syn5token8QuestionENtNtB1a_5error5ErrorENtNtNtB7_3ops9try_trait3Try6branchB1a_, symObjAddr: 0x8544, symBinAddr: 0x50A9C, symSize: 0x8C }
  - { offset: 0xCB4BD, size: 0x8, addend: 0x0, symName: __RNvXsp_NtCsaNl6UpbT7bw_4core6resultINtB5_6ResultINtNtB7_6option6OptionNtNtCsc29TF2YcYso_3syn5token9DotDotDotENtNtB1a_5error5ErrorENtNtNtB7_3ops9try_trait3Try6branchB1a_, symObjAddr: 0x85D0, symBinAddr: 0x50B28, symSize: 0x8C }
  - { offset: 0xCB53A, size: 0x8, addend: 0x0, symName: __RNvXsp_NtCsaNl6UpbT7bw_4core6resultINtB5_6ResultINtNtB7_6option6OptionNtNtCsc29TF2YcYso_3syn8generics10TraitBoundENtNtB1a_5error5ErrorENtNtNtB7_3ops9try_trait3Try6branchB1a_, symObjAddr: 0x865C, symBinAddr: 0x50BB4, symSize: 0xBC }
  - { offset: 0xCB5B7, size: 0x8, addend: 0x0, symName: __RNvXsp_NtCsaNl6UpbT7bw_4core6resultINtB5_6ResultINtNtB7_6option6OptionNtNtCsc29TF2YcYso_3syn8generics11WhereClauseENtNtB1a_5error5ErrorENtNtNtB7_3ops9try_trait3Try6branchB1a_, symObjAddr: 0x8718, symBinAddr: 0x50C70, symSize: 0xB0 }
  - { offset: 0xCB634, size: 0x8, addend: 0x0, symName: __RNvXsp_NtCsaNl6UpbT7bw_4core6resultINtB5_6ResultINtNtB7_6option6OptionNtNtCsc29TF2YcYso_3syn8generics14BoundLifetimesENtNtB1a_5error5ErrorENtNtNtB7_3ops9try_trait3Try6branchB1a_, symObjAddr: 0x87C8, symBinAddr: 0x50D20, symSize: 0xB0 }
  - { offset: 0xCB6B1, size: 0x8, addend: 0x0, symName: __RNvXsp_NtCsaNl6UpbT7bw_4core6resultINtB5_6ResultINtNtB7_6option6OptionNtNtCsc29TF2YcYso_3syn8lifetime8LifetimeENtNtB1a_5error5ErrorENtNtNtB7_3ops9try_trait3Try6branchB1a_, symObjAddr: 0x8878, symBinAddr: 0x50DD0, symSize: 0x94 }
  - { offset: 0xCB72E, size: 0x8, addend: 0x0, symName: __RNvXsp_NtCsaNl6UpbT7bw_4core6resultINtB5_6ResultINtNtB7_6option6OptionNtNtNtCsc29TF2YcYso_3syn3pat7parsing13PatRangeBoundENtNtB1c_5error5ErrorENtNtNtB7_3ops9try_trait3Try6branchB1c_, symObjAddr: 0x890C, symBinAddr: 0x50E64, symSize: 0xBC }
  - { offset: 0xCB7AB, size: 0x8, addend: 0x0, symName: __RNvXsp_NtCsaNl6UpbT7bw_4core6resultINtB5_6ResultINtNtB7_6option6OptionTNtNtCsc29TF2YcYso_3syn5token2EqNtNtB1b_2ty4TypeEENtNtB1b_5error5ErrorENtNtNtB7_3ops9try_trait3Try6branchB1b_, symObjAddr: 0x89C8, symBinAddr: 0x50F20, symSize: 0xC0 }
  - { offset: 0xCB829, size: 0x8, addend: 0x0, symName: __RNvXsp_NtCsaNl6UpbT7bw_4core6resultINtB5_6ResultINtNtCsc29TF2YcYso_3syn10punctuated10PunctuatedNtNtBP_2ty4TypeNtNtBP_5token5CommaENtNtBP_5error5ErrorENtNtNtB7_3ops9try_trait3Try6branchBP_, symObjAddr: 0x8A88, symBinAddr: 0x50FE0, symSize: 0xA0 }
  - { offset: 0xCB8A6, size: 0x8, addend: 0x0, symName: __RNvXsp_NtCsaNl6UpbT7bw_4core6resultINtB5_6ResultINtNtCsc29TF2YcYso_3syn10punctuated10PunctuatedNtNtBP_4data5FieldNtNtBP_5token5CommaENtNtBP_5error5ErrorENtNtNtB7_3ops9try_trait3Try6branchBP_, symObjAddr: 0x8B28, symBinAddr: 0x51080, symSize: 0xA0 }
  - { offset: 0xCB923, size: 0x8, addend: 0x0, symName: __RNvXsp_NtCsaNl6UpbT7bw_4core6resultINtB5_6ResultINtNtCsc29TF2YcYso_3syn10punctuated10PunctuatedNtNtBP_4data7VariantNtNtBP_5token5CommaENtNtBP_5error5ErrorENtNtNtB7_3ops9try_trait3Try6branchBP_, symObjAddr: 0x8BC8, symBinAddr: 0x51120, symSize: 0xA0 }
  - { offset: 0xCB9A0, size: 0x8, addend: 0x0, symName: __RNvXsp_NtCsaNl6UpbT7bw_4core6resultINtB5_6ResultINtNtCsc29TF2YcYso_3syn10punctuated10PunctuatedNtNtBP_4expr4ExprNtNtBP_5token5CommaENtNtBP_5error5ErrorENtNtNtB7_3ops9try_trait3Try6branchBP_, symObjAddr: 0x8C68, symBinAddr: 0x511C0, symSize: 0xA0 }
  - { offset: 0xCBA1D, size: 0x8, addend: 0x0, symName: __RNvXsp_NtCsaNl6UpbT7bw_4core6resultINtB5_6ResultINtNtCsc29TF2YcYso_3syn10punctuated10PunctuatedNtNtBP_8generics14TypeParamBoundNtNtBP_5token4PlusENtNtBP_5error5ErrorENtNtNtB7_3ops9try_trait3Try6branchBP_, symObjAddr: 0x8D08, symBinAddr: 0x51260, symSize: 0xA0 }
  - { offset: 0xCBA9A, size: 0x8, addend: 0x0, symName: __RNvXsp_NtCsaNl6UpbT7bw_4core6resultINtB5_6ResultINtNtCsiTraAjBDcu4_5alloc3vec3VecNtNtCsc29TF2YcYso_3syn4attr9AttributeENtNtB1l_5error5ErrorENtNtNtB7_3ops9try_trait3Try6branchB1l_, symObjAddr: 0x8DA8, symBinAddr: 0x51300, symSize: 0x94 }
  - { offset: 0xCBB17, size: 0x8, addend: 0x0, symName: __RNvXsp_NtCsaNl6UpbT7bw_4core6resultINtB5_6ResultINtNtCsiTraAjBDcu4_5alloc3vec3VecNtNtCsc29TF2YcYso_3syn4expr3ArmENtNtB1l_5error5ErrorENtNtNtB7_3ops9try_trait3Try6branchB1l_, symObjAddr: 0x8E3C, symBinAddr: 0x51394, symSize: 0x94 }
  - { offset: 0xCBB94, size: 0x8, addend: 0x0, symName: __RNvXsp_NtCsaNl6UpbT7bw_4core6resultINtB5_6ResultINtNtCsiTraAjBDcu4_5alloc3vec3VecNtNtCsc29TF2YcYso_3syn4stmt4StmtENtNtB1l_5error5ErrorENtNtNtB7_3ops9try_trait3Try6branchB1l_, symObjAddr: 0x8ED0, symBinAddr: 0x51428, symSize: 0x94 }
  - { offset: 0xCBC11, size: 0x8, addend: 0x0, symName: __RNvXsp_NtCsaNl6UpbT7bw_4core6resultINtB5_6ResultINtNtCsiTraAjBDcu4_5alloc5boxed3BoxNtNtCsc29TF2YcYso_3syn2ty4TypeENtNtB1n_5error5ErrorENtNtNtB7_3ops9try_trait3Try6branchB1n_, symObjAddr: 0x8F64, symBinAddr: 0x514BC, symSize: 0x88 }
  - { offset: 0xCBC8F, size: 0x8, addend: 0x0, symName: __RNvXsp_NtCsaNl6UpbT7bw_4core6resultINtB5_6ResultINtNtCsiTraAjBDcu4_5alloc5boxed3BoxNtNtCsc29TF2YcYso_3syn4expr4ExprENtNtB1n_5error5ErrorENtNtNtB7_3ops9try_trait3Try6branchB1n_, symObjAddr: 0x8FEC, symBinAddr: 0x51544, symSize: 0x88 }
  - { offset: 0xCBD0D, size: 0x8, addend: 0x0, symName: __RNvXsp_NtCsaNl6UpbT7bw_4core6resultINtB5_6ResultNtCshnvkK9b4wzu_11proc_macro211TokenStreamNtBM_8LexErrorENtNtNtB7_3ops9try_trait3Try6branchCsc29TF2YcYso_3syn, symObjAddr: 0x9074, symBinAddr: 0x515CC, symSize: 0x84 }
  - { offset: 0xCBD8A, size: 0x8, addend: 0x0, symName: __RNvXsp_NtCsaNl6UpbT7bw_4core6resultINtB5_6ResultNtCshnvkK9b4wzu_11proc_macro211TokenStreamNtNtCsc29TF2YcYso_3syn5error5ErrorENtNtNtB7_3ops9try_trait3Try6branchB1u_, symObjAddr: 0x90F8, symBinAddr: 0x51650, symSize: 0xA0 }
  - { offset: 0xCBE07, size: 0x8, addend: 0x0, symName: __RNvXsp_NtCsaNl6UpbT7bw_4core6resultINtB5_6ResultNtCshnvkK9b4wzu_11proc_macro24SpanNtNtCsc29TF2YcYso_3syn5error5ErrorENtNtNtB7_3ops9try_trait3Try6branchB1m_, symObjAddr: 0x9198, symBinAddr: 0x516F0, symSize: 0x88 }
  - { offset: 0xCBE85, size: 0x8, addend: 0x0, symName: __RNvXsp_NtCsaNl6UpbT7bw_4core6resultINtB5_6ResultNtCshnvkK9b4wzu_11proc_macro25IdentNtNtCsc29TF2YcYso_3syn5error5ErrorENtNtNtB7_3ops9try_trait3Try6branchB1n_, symObjAddr: 0x9220, symBinAddr: 0x51778, symSize: 0x94 }
  - { offset: 0xCBF02, size: 0x8, addend: 0x0, symName: __RNvXsp_NtCsaNl6UpbT7bw_4core6resultINtB5_6ResultNtNtCsc29TF2YcYso_3syn11restriction10VisibilityNtNtBO_5error5ErrorENtNtNtB7_3ops9try_trait3Try6branchBO_, symObjAddr: 0x92B4, symBinAddr: 0x5180C, symSize: 0x9C }
  - { offset: 0xCBF7F, size: 0x8, addend: 0x0, symName: __RNvXsp_NtCsaNl6UpbT7bw_4core6resultINtB5_6ResultNtNtCsc29TF2YcYso_3syn2op4UnOpNtNtBO_5error5ErrorENtNtNtB7_3ops9try_trait3Try6branchBO_, symObjAddr: 0x9350, symBinAddr: 0x518A8, symSize: 0x8C }
  - { offset: 0xCBFFC, size: 0x8, addend: 0x0, symName: __RNvXsp_NtCsaNl6UpbT7bw_4core6resultINtB5_6ResultNtNtCsc29TF2YcYso_3syn2ty10ReturnTypeNtNtBO_5error5ErrorENtNtNtB7_3ops9try_trait3Try6branchBO_, symObjAddr: 0x93DC, symBinAddr: 0x51934, symSize: 0x8C }
  - { offset: 0xCC079, size: 0x8, addend: 0x0, symName: __RNvXsp_NtCsaNl6UpbT7bw_4core6resultINtB5_6ResultNtNtCsc29TF2YcYso_3syn2ty10TypeBareFnNtNtBO_5error5ErrorENtNtNtB7_3ops9try_trait3Try6branchBO_, symObjAddr: 0x9468, symBinAddr: 0x519C0, symSize: 0xB4 }
  - { offset: 0xCC0F7, size: 0x8, addend: 0x0, symName: __RNvXsp_NtCsaNl6UpbT7bw_4core6resultINtB5_6ResultNtNtCsc29TF2YcYso_3syn2ty12BareVariadicNtNtBO_5error5ErrorENtNtNtB7_3ops9try_trait3Try6branchBO_, symObjAddr: 0x951C, symBinAddr: 0x51A74, symSize: 0xB0 }
  - { offset: 0xCC174, size: 0x8, addend: 0x0, symName: __RNvXsp_NtCsaNl6UpbT7bw_4core6resultINtB5_6ResultNtNtCsc29TF2YcYso_3syn2ty15TypeTraitObjectNtNtBO_5error5ErrorENtNtNtB7_3ops9try_trait3Try6branchBO_, symObjAddr: 0x95CC, symBinAddr: 0x51B24, symSize: 0xB0 }
  - { offset: 0xCC1F1, size: 0x8, addend: 0x0, symName: __RNvXsp_NtCsaNl6UpbT7bw_4core6resultINtB5_6ResultNtNtCsc29TF2YcYso_3syn2ty3AbiNtNtBO_5error5ErrorENtNtNtB7_3ops9try_trait3Try6branchBO_, symObjAddr: 0x967C, symBinAddr: 0x51BD4, symSize: 0x94 }
  - { offset: 0xCC26F, size: 0x8, addend: 0x0, symName: __RNvXsp_NtCsaNl6UpbT7bw_4core6resultINtB5_6ResultNtNtCsc29TF2YcYso_3syn2ty4TypeNtNtBO_5error5ErrorENtNtNtB7_3ops9try_trait3Try6branchBO_, symObjAddr: 0x9710, symBinAddr: 0x51C68, symSize: 0xB4 }
  - { offset: 0xCC2ED, size: 0x8, addend: 0x0, symName: __RNvXsp_NtCsaNl6UpbT7bw_4core6resultINtB5_6ResultNtNtCsc29TF2YcYso_3syn2ty8TypePathNtNtBO_5error5ErrorENtNtNtB7_3ops9try_trait3Try6branchBO_, symObjAddr: 0x97C4, symBinAddr: 0x51D1C, symSize: 0xB0 }
  - { offset: 0xCC36A, size: 0x8, addend: 0x0, symName: __RNvXsp_NtCsaNl6UpbT7bw_4core6resultINtB5_6ResultNtNtCsc29TF2YcYso_3syn2ty9BareFnArgNtNtBO_5error5ErrorENtNtNtB7_3ops9try_trait3Try6branchBO_, symObjAddr: 0x9874, symBinAddr: 0x51DCC, symSize: 0xC0 }
  - { offset: 0xCC3E8, size: 0x8, addend: 0x0, symName: __RNvXsp_NtCsaNl6UpbT7bw_4core6resultINtB5_6ResultNtNtCsc29TF2YcYso_3syn2ty9TypeGroupNtNtBO_5error5ErrorENtNtNtB7_3ops9try_trait3Try6branchBO_, symObjAddr: 0x9934, symBinAddr: 0x51E8C, symSize: 0x94 }
  - { offset: 0xCC466, size: 0x8, addend: 0x0, symName: __RNvXsp_NtCsaNl6UpbT7bw_4core6resultINtB5_6ResultNtNtCsc29TF2YcYso_3syn3lit3LitNtNtBO_5error5ErrorENtNtNtB7_3ops9try_trait3Try6branchBO_, symObjAddr: 0x99C8, symBinAddr: 0x51F20, symSize: 0x94 }
  - { offset: 0xCC4E3, size: 0x8, addend: 0x0, symName: __RNvXsp_NtCsaNl6UpbT7bw_4core6resultINtB5_6ResultNtNtCsc29TF2YcYso_3syn3lit6LitIntNtNtBO_5error5ErrorENtNtNtB7_3ops9try_trait3Try6branchBO_, symObjAddr: 0x9A5C, symBinAddr: 0x51FB4, symSize: 0x88 }
  - { offset: 0xCC561, size: 0x8, addend: 0x0, symName: __RNvXsp_NtCsaNl6UpbT7bw_4core6resultINtB5_6ResultNtNtCsc29TF2YcYso_3syn3lit6LitStrNtNtBO_5error5ErrorENtNtNtB7_3ops9try_trait3Try6branchBO_, symObjAddr: 0x9AE4, symBinAddr: 0x5203C, symSize: 0x88 }
  - { offset: 0xCC5DF, size: 0x8, addend: 0x0, symName: __RNvXsp_NtCsaNl6UpbT7bw_4core6resultINtB5_6ResultNtNtCsc29TF2YcYso_3syn3lit8LitFloatNtNtBO_5error5ErrorENtNtNtB7_3ops9try_trait3Try6branchBO_, symObjAddr: 0x9B6C, symBinAddr: 0x520C4, symSize: 0x88 }
  - { offset: 0xCC65D, size: 0x8, addend: 0x0, symName: __RNvXsp_NtCsaNl6UpbT7bw_4core6resultINtB5_6ResultNtNtCsc29TF2YcYso_3syn3mac5MacroNtNtBO_5error5ErrorENtNtNtB7_3ops9try_trait3Try6branchBO_, symObjAddr: 0x9BF4, symBinAddr: 0x5214C, symSize: 0xBC }
  - { offset: 0xCC6DA, size: 0x8, addend: 0x0, symName: __RNvXsp_NtCsaNl6UpbT7bw_4core6resultINtB5_6ResultNtNtCsc29TF2YcYso_3syn3pat3PatNtNtBO_5error5ErrorENtNtNtB7_3ops9try_trait3Try6branchBO_, symObjAddr: 0x9CB0, symBinAddr: 0x52208, symSize: 0xCC }
  - { offset: 0xCC758, size: 0x8, addend: 0x0, symName: __RNvXsp_NtCsaNl6UpbT7bw_4core6resultINtB5_6ResultNtNtCsc29TF2YcYso_3syn3pat8FieldPatNtNtBO_5error5ErrorENtNtNtB7_3ops9try_trait3Try6branchBO_, symObjAddr: 0x9D7C, symBinAddr: 0x522D4, symSize: 0xB0 }
  - { offset: 0xCC7D5, size: 0x8, addend: 0x0, symName: __RNvXsp_NtCsaNl6UpbT7bw_4core6resultINtB5_6ResultNtNtCsc29TF2YcYso_3syn4attr4MetaNtNtBO_5error5ErrorENtNtNtB7_3ops9try_trait3Try6branchBO_, symObjAddr: 0x9E2C, symBinAddr: 0x52384, symSize: 0xC0 }
  - { offset: 0xCC853, size: 0x8, addend: 0x0, symName: __RNvXsp_NtCsaNl6UpbT7bw_4core6resultINtB5_6ResultNtNtCsc29TF2YcYso_3syn4attr9AttributeNtNtBO_5error5ErrorENtNtNtB7_3ops9try_trait3Try6branchBO_, symObjAddr: 0x9EEC, symBinAddr: 0x52444, symSize: 0xB4 }
  - { offset: 0xCC8D1, size: 0x8, addend: 0x0, symName: __RNvXsp_NtCsaNl6UpbT7bw_4core6resultINtB5_6ResultNtNtCsc29TF2YcYso_3syn4data11FieldsNamedNtNtBO_5error5ErrorENtNtNtB7_3ops9try_trait3Try6branchBO_, symObjAddr: 0x9FA0, symBinAddr: 0x524F8, symSize: 0xB0 }
  - { offset: 0xCC94E, size: 0x8, addend: 0x0, symName: __RNvXsp_NtCsaNl6UpbT7bw_4core6resultINtB5_6ResultNtNtCsc29TF2YcYso_3syn4data13FieldsUnnamedNtNtBO_5error5ErrorENtNtNtB7_3ops9try_trait3Try6branchBO_, symObjAddr: 0xA050, symBinAddr: 0x525A8, symSize: 0xB0 }
  - { offset: 0xCC9CB, size: 0x8, addend: 0x0, symName: __RNvXsp_NtCsaNl6UpbT7bw_4core6resultINtB5_6ResultNtNtCsc29TF2YcYso_3syn4data5FieldNtNtBO_5error5ErrorENtNtNtB7_3ops9try_trait3Try6branchBO_, symObjAddr: 0xA100, symBinAddr: 0x52658, symSize: 0xC0 }
  - { offset: 0xCCA49, size: 0x8, addend: 0x0, symName: __RNvXsp_NtCsaNl6UpbT7bw_4core6resultINtB5_6ResultNtNtCsc29TF2YcYso_3syn4data7VariantNtNtBO_5error5ErrorENtNtNtB7_3ops9try_trait3Try6branchBO_, symObjAddr: 0xA1C0, symBinAddr: 0x52718, symSize: 0xB4 }
  - { offset: 0xCCAC7, size: 0x8, addend: 0x0, symName: __RNvXsp_NtCsaNl6UpbT7bw_4core6resultINtB5_6ResultNtNtCsc29TF2YcYso_3syn4expr10ExprUnsafeNtNtBO_5error5ErrorENtNtNtB7_3ops9try_trait3Try6branchBO_, symObjAddr: 0xA274, symBinAddr: 0x527CC, symSize: 0xB0 }
  - { offset: 0xCCB44, size: 0x8, addend: 0x0, symName: __RNvXsp_NtCsaNl6UpbT7bw_4core6resultINtB5_6ResultNtNtCsc29TF2YcYso_3syn4expr10FieldValueNtNtBO_5error5ErrorENtNtNtB7_3ops9try_trait3Try6branchBO_, symObjAddr: 0xA324, symBinAddr: 0x5287C, symSize: 0xC0 }
  - { offset: 0xCCBC2, size: 0x8, addend: 0x0, symName: __RNvXsp_NtCsaNl6UpbT7bw_4core6resultINtB5_6ResultNtNtCsc29TF2YcYso_3syn4expr11ExprForLoopNtNtBO_5error5ErrorENtNtNtB7_3ops9try_trait3Try6branchBO_, symObjAddr: 0xA3E4, symBinAddr: 0x5293C, symSize: 0xB0 }
  - { offset: 0xCCC3F, size: 0x8, addend: 0x0, symName: __RNvXsp_NtCsaNl6UpbT7bw_4core6resultINtB5_6ResultNtNtCsc29TF2YcYso_3syn4expr11RangeLimitsNtNtBO_5error5ErrorENtNtNtB7_3ops9try_trait3Try6branchBO_, symObjAddr: 0xA494, symBinAddr: 0x529EC, symSize: 0x8C }
  - { offset: 0xCCCBC, size: 0x8, addend: 0x0, symName: __RNvXsp_NtCsaNl6UpbT7bw_4core6resultINtB5_6ResultNtNtCsc29TF2YcYso_3syn4expr12ExprTryBlockNtNtBO_5error5ErrorENtNtNtB7_3ops9try_trait3Try6branchBO_, symObjAddr: 0xA520, symBinAddr: 0x52A78, symSize: 0xB0 }
  - { offset: 0xCCD39, size: 0x8, addend: 0x0, symName: __RNvXsp_NtCsaNl6UpbT7bw_4core6resultINtB5_6ResultNtNtCsc29TF2YcYso_3syn4expr3ArmNtNtBO_5error5ErrorENtNtNtB7_3ops9try_trait3Try6branchBO_, symObjAddr: 0xA664, symBinAddr: 0x52B28, symSize: 0xC4 }
  - { offset: 0xCCDB7, size: 0x8, addend: 0x0, symName: __RNvXsp_NtCsaNl6UpbT7bw_4core6resultINtB5_6ResultNtNtCsc29TF2YcYso_3syn4expr4ExprNtNtBO_5error5ErrorENtNtNtB7_3ops9try_trait3Try6branchBO_, symObjAddr: 0xA728, symBinAddr: 0x52BEC, symSize: 0xB4 }
  - { offset: 0xCCE35, size: 0x8, addend: 0x0, symName: __RNvXsp_NtCsaNl6UpbT7bw_4core6resultINtB5_6ResultNtNtCsc29TF2YcYso_3syn4expr5IndexNtNtBO_5error5ErrorENtNtNtB7_3ops9try_trait3Try6branchBO_, symObjAddr: 0xA7DC, symBinAddr: 0x52CA0, symSize: 0x94 }
  - { offset: 0xCCEB3, size: 0x8, addend: 0x0, symName: __RNvXsp_NtCsaNl6UpbT7bw_4core6resultINtB5_6ResultNtNtCsc29TF2YcYso_3syn4expr5LabelNtNtBO_5error5ErrorENtNtNtB7_3ops9try_trait3Try6branchBO_, symObjAddr: 0xA870, symBinAddr: 0x52D34, symSize: 0xB0 }
  - { offset: 0xCCF30, size: 0x8, addend: 0x0, symName: __RNvXsp_NtCsaNl6UpbT7bw_4core6resultINtB5_6ResultNtNtCsc29TF2YcYso_3syn4expr6ExprIfNtNtBO_5error5ErrorENtNtNtB7_3ops9try_trait3Try6branchBO_, symObjAddr: 0xA920, symBinAddr: 0x52DE4, symSize: 0xB0 }
  - { offset: 0xCCFAD, size: 0x8, addend: 0x0, symName: __RNvXsp_NtCsaNl6UpbT7bw_4core6resultINtB5_6ResultNtNtCsc29TF2YcYso_3syn4expr6MemberNtNtBO_5error5ErrorENtNtNtB7_3ops9try_trait3Try6branchBO_, symObjAddr: 0xA9D0, symBinAddr: 0x52E94, symSize: 0x94 }
  - { offset: 0xCD02A, size: 0x8, addend: 0x0, symName: __RNvXsp_NtCsaNl6UpbT7bw_4core6resultINtB5_6ResultNtNtCsc29TF2YcYso_3syn4expr7ExprLitNtNtBO_5error5ErrorENtNtNtB7_3ops9try_trait3Try6branchBO_, symObjAddr: 0xAA64, symBinAddr: 0x52F28, symSize: 0xB0 }
  - { offset: 0xCD0A7, size: 0x8, addend: 0x0, symName: __RNvXsp_NtCsaNl6UpbT7bw_4core6resultINtB5_6ResultNtNtCsc29TF2YcYso_3syn4expr8ExprLoopNtNtBO_5error5ErrorENtNtNtB7_3ops9try_trait3Try6branchBO_, symObjAddr: 0xAB14, symBinAddr: 0x52FD8, symSize: 0xB0 }
  - { offset: 0xCD124, size: 0x8, addend: 0x0, symName: __RNvXsp_NtCsaNl6UpbT7bw_4core6resultINtB5_6ResultNtNtCsc29TF2YcYso_3syn4expr8ExprPathNtNtBO_5error5ErrorENtNtNtB7_3ops9try_trait3Try6branchBO_, symObjAddr: 0xABC4, symBinAddr: 0x53088, symSize: 0xBC }
  - { offset: 0xCD1A1, size: 0x8, addend: 0x0, symName: __RNvXsp_NtCsaNl6UpbT7bw_4core6resultINtB5_6ResultNtNtCsc29TF2YcYso_3syn4expr9ExprBlockNtNtBO_5error5ErrorENtNtNtB7_3ops9try_trait3Try6branchBO_, symObjAddr: 0xAC80, symBinAddr: 0x53144, symSize: 0xBC }
  - { offset: 0xCD21E, size: 0x8, addend: 0x0, symName: __RNvXsp_NtCsaNl6UpbT7bw_4core6resultINtB5_6ResultNtNtCsc29TF2YcYso_3syn4expr9ExprConstNtNtBO_5error5ErrorENtNtNtB7_3ops9try_trait3Try6branchBO_, symObjAddr: 0xAD3C, symBinAddr: 0x53200, symSize: 0xB0 }
  - { offset: 0xCD29B, size: 0x8, addend: 0x0, symName: __RNvXsp_NtCsaNl6UpbT7bw_4core6resultINtB5_6ResultNtNtCsc29TF2YcYso_3syn4expr9ExprMatchNtNtBO_5error5ErrorENtNtNtB7_3ops9try_trait3Try6branchBO_, symObjAddr: 0xADEC, symBinAddr: 0x532B0, symSize: 0xB0 }
  - { offset: 0xCD318, size: 0x8, addend: 0x0, symName: __RNvXsp_NtCsaNl6UpbT7bw_4core6resultINtB5_6ResultNtNtCsc29TF2YcYso_3syn4expr9ExprWhileNtNtBO_5error5ErrorENtNtNtB7_3ops9try_trait3Try6branchBO_, symObjAddr: 0xAE9C, symBinAddr: 0x53360, symSize: 0xBC }
  - { offset: 0xCD395, size: 0x8, addend: 0x0, symName: __RNvXsp_NtCsaNl6UpbT7bw_4core6resultINtB5_6ResultNtNtCsc29TF2YcYso_3syn4item11ForeignItemNtNtBO_5error5ErrorENtNtNtB7_3ops9try_trait3Try6branchBO_, symObjAddr: 0xB008, symBinAddr: 0x5341C, symSize: 0xB4 }
  - { offset: 0xCD413, size: 0x8, addend: 0x0, symName: __RNvXsp_NtCsaNl6UpbT7bw_4core6resultINtB5_6ResultNtNtCsc29TF2YcYso_3syn4item16StaticMutabilityNtNtBO_5error5ErrorENtNtNtB7_3ops9try_trait3Try6branchBO_, symObjAddr: 0xB0BC, symBinAddr: 0x534D0, symSize: 0x94 }
  - { offset: 0xCD491, size: 0x8, addend: 0x0, symName: __RNvXsp_NtCsaNl6UpbT7bw_4core6resultINtB5_6ResultNtNtCsc29TF2YcYso_3syn4item4ItemNtNtBO_5error5ErrorENtNtNtB7_3ops9try_trait3Try6branchBO_, symObjAddr: 0xB150, symBinAddr: 0x53564, symSize: 0xB4 }
  - { offset: 0xCD50F, size: 0x8, addend: 0x0, symName: __RNvXsp_NtCsaNl6UpbT7bw_4core6resultINtB5_6ResultNtNtCsc29TF2YcYso_3syn4item7UseTreeNtNtBO_5error5ErrorENtNtNtB7_3ops9try_trait3Try6branchBO_, symObjAddr: 0xB204, symBinAddr: 0x53618, symSize: 0xAC }
  - { offset: 0xCD58C, size: 0x8, addend: 0x0, symName: __RNvXsp_NtCsaNl6UpbT7bw_4core6resultINtB5_6ResultNtNtCsc29TF2YcYso_3syn4item8ImplItemNtNtBO_5error5ErrorENtNtNtB7_3ops9try_trait3Try6branchBO_, symObjAddr: 0xB2B0, symBinAddr: 0x536C4, symSize: 0xB4 }
  - { offset: 0xCD60A, size: 0x8, addend: 0x0, symName: __RNvXsp_NtCsaNl6UpbT7bw_4core6resultINtB5_6ResultNtNtCsc29TF2YcYso_3syn4item9SignatureNtNtBO_5error5ErrorENtNtNtB7_3ops9try_trait3Try6branchBO_, symObjAddr: 0xB364, symBinAddr: 0x53778, symSize: 0xB4 }
  - { offset: 0xCD688, size: 0x8, addend: 0x0, symName: __RNvXsp_NtCsaNl6UpbT7bw_4core6resultINtB5_6ResultNtNtCsc29TF2YcYso_3syn4item9TraitItemNtNtBO_5error5ErrorENtNtNtB7_3ops9try_trait3Try6branchBO_, symObjAddr: 0xB418, symBinAddr: 0x5382C, symSize: 0xB4 }
  - { offset: 0xCD706, size: 0x8, addend: 0x0, symName: __RNvXsp_NtCsaNl6UpbT7bw_4core6resultINtB5_6ResultNtNtCsc29TF2YcYso_3syn4path11PathSegmentNtNtBO_5error5ErrorENtNtNtB7_3ops9try_trait3Try6branchBO_, symObjAddr: 0xB4CC, symBinAddr: 0x538E0, symSize: 0xB8 }
  - { offset: 0xCD783, size: 0x8, addend: 0x0, symName: __RNvXsp_NtCsaNl6UpbT7bw_4core6resultINtB5_6ResultNtNtCsc29TF2YcYso_3syn4path15GenericArgumentNtNtBO_5error5ErrorENtNtNtB7_3ops9try_trait3Try6branchBO_, symObjAddr: 0xB584, symBinAddr: 0x53998, symSize: 0xC0 }
  - { offset: 0xCD801, size: 0x8, addend: 0x0, symName: __RNvXsp_NtCsaNl6UpbT7bw_4core6resultINtB5_6ResultNtNtCsc29TF2YcYso_3syn4path29ParenthesizedGenericArgumentsNtNtBO_5error5ErrorENtNtNtB7_3ops9try_trait3Try6branchBO_, symObjAddr: 0xB644, symBinAddr: 0x53A58, symSize: 0xB0 }
  - { offset: 0xCD87E, size: 0x8, addend: 0x0, symName: __RNvXsp_NtCsaNl6UpbT7bw_4core6resultINtB5_6ResultNtNtCsc29TF2YcYso_3syn4path30AngleBracketedGenericArgumentsNtNtBO_5error5ErrorENtNtNtB7_3ops9try_trait3Try6branchBO_, symObjAddr: 0xB6F4, symBinAddr: 0x53B08, symSize: 0xB0 }
  - { offset: 0xCD8FB, size: 0x8, addend: 0x0, symName: __RNvXsp_NtCsaNl6UpbT7bw_4core6resultINtB5_6ResultNtNtCsc29TF2YcYso_3syn4path4PathNtNtBO_5error5ErrorENtNtNtB7_3ops9try_trait3Try6branchBO_, symObjAddr: 0xB7A4, symBinAddr: 0x53BB8, symSize: 0xB0 }
  - { offset: 0xCD978, size: 0x8, addend: 0x0, symName: __RNvXsp_NtCsaNl6UpbT7bw_4core6resultINtB5_6ResultNtNtCsc29TF2YcYso_3syn4stmt4StmtNtNtBO_5error5ErrorENtNtNtB7_3ops9try_trait3Try6branchBO_, symObjAddr: 0xB854, symBinAddr: 0x53C68, symSize: 0xB4 }
  - { offset: 0xCD9F6, size: 0x8, addend: 0x0, symName: __RNvXsp_NtCsaNl6UpbT7bw_4core6resultINtB5_6ResultNtNtCsc29TF2YcYso_3syn4stmt5BlockNtNtBO_5error5ErrorENtNtNtB7_3ops9try_trait3Try6branchBO_, symObjAddr: 0xB908, symBinAddr: 0x53D1C, symSize: 0xB0 }
  - { offset: 0xCDA73, size: 0x8, addend: 0x0, symName: __RNvXsp_NtCsaNl6UpbT7bw_4core6resultINtB5_6ResultNtNtCsc29TF2YcYso_3syn5group5GroupNtNtBO_5error5ErrorENtNtNtB7_3ops9try_trait3Try6branchBO_, symObjAddr: 0xB9B8, symBinAddr: 0x53DCC, symSize: 0xB0 }
  - { offset: 0xCDAF0, size: 0x8, addend: 0x0, symName: __RNvXsp_NtCsaNl6UpbT7bw_4core6resultINtB5_6ResultNtNtCsc29TF2YcYso_3syn5token10UnderscoreNtNtBO_5error5ErrorENtNtNtB7_3ops9try_trait3Try6branchBO_, symObjAddr: 0xBA68, symBinAddr: 0x53E7C, symSize: 0x8C }
  - { offset: 0xCDB6D, size: 0x8, addend: 0x0, symName: __RNvXsp_NtCsaNl6UpbT7bw_4core6resultINtB5_6ResultNtNtCsc29TF2YcYso_3syn5token2AsNtNtBO_5error5ErrorENtNtNtB7_3ops9try_trait3Try6branchBO_, symObjAddr: 0xBAF4, symBinAddr: 0x53F08, symSize: 0x88 }
  - { offset: 0xCDBEB, size: 0x8, addend: 0x0, symName: __RNvXsp_NtCsaNl6UpbT7bw_4core6resultINtB5_6ResultNtNtCsc29TF2YcYso_3syn5token2AtNtNtBO_5error5ErrorENtNtNtB7_3ops9try_trait3Try6branchBO_, symObjAddr: 0xBB7C, symBinAddr: 0x53F90, symSize: 0x8C }
  - { offset: 0xCDC68, size: 0x8, addend: 0x0, symName: __RNvXsp_NtCsaNl6UpbT7bw_4core6resultINtB5_6ResultNtNtCsc29TF2YcYso_3syn5token2EqNtNtBO_5error5ErrorENtNtNtB7_3ops9try_trait3Try6branchBO_, symObjAddr: 0xBC08, symBinAddr: 0x5401C, symSize: 0x8C }
  - { offset: 0xCDCE5, size: 0x8, addend: 0x0, symName: __RNvXsp_NtCsaNl6UpbT7bw_4core6resultINtB5_6ResultNtNtCsc29TF2YcYso_3syn5token2FnNtNtBO_5error5ErrorENtNtNtB7_3ops9try_trait3Try6branchBO_, symObjAddr: 0xBC94, symBinAddr: 0x540A8, symSize: 0x88 }
  - { offset: 0xCDD63, size: 0x8, addend: 0x0, symName: __RNvXsp_NtCsaNl6UpbT7bw_4core6resultINtB5_6ResultNtNtCsc29TF2YcYso_3syn5token2GtNtNtBO_5error5ErrorENtNtNtB7_3ops9try_trait3Try6branchBO_, symObjAddr: 0xBD1C, symBinAddr: 0x54130, symSize: 0x8C }
  - { offset: 0xCDDE0, size: 0x8, addend: 0x0, symName: __RNvXsp_NtCsaNl6UpbT7bw_4core6resultINtB5_6ResultNtNtCsc29TF2YcYso_3syn5token2IfNtNtBO_5error5ErrorENtNtNtB7_3ops9try_trait3Try6branchBO_, symObjAddr: 0xBDA8, symBinAddr: 0x541BC, symSize: 0x88 }
  - { offset: 0xCDE5E, size: 0x8, addend: 0x0, symName: __RNvXsp_NtCsaNl6UpbT7bw_4core6resultINtB5_6ResultNtNtCsc29TF2YcYso_3syn5token2InNtNtBO_5error5ErrorENtNtNtB7_3ops9try_trait3Try6branchBO_, symObjAddr: 0xBE30, symBinAddr: 0x54244, symSize: 0x88 }
  - { offset: 0xCDEDC, size: 0x8, addend: 0x0, symName: __RNvXsp_NtCsaNl6UpbT7bw_4core6resultINtB5_6ResultNtNtCsc29TF2YcYso_3syn5token2LtNtNtBO_5error5ErrorENtNtNtB7_3ops9try_trait3Try6branchBO_, symObjAddr: 0xBEB8, symBinAddr: 0x542CC, symSize: 0x8C }
  - { offset: 0xCDF59, size: 0x8, addend: 0x0, symName: __RNvXsp_NtCsaNl6UpbT7bw_4core6resultINtB5_6ResultNtNtCsc29TF2YcYso_3syn5token2OrNtNtBO_5error5ErrorENtNtNtB7_3ops9try_trait3Try6branchBO_, symObjAddr: 0xBF44, symBinAddr: 0x54358, symSize: 0x8C }
  - { offset: 0xCDFD6, size: 0x8, addend: 0x0, symName: __RNvXsp_NtCsaNl6UpbT7bw_4core6resultINtB5_6ResultNtNtCsc29TF2YcYso_3syn5token3AndNtNtBO_5error5ErrorENtNtNtB7_3ops9try_trait3Try6branchBO_, symObjAddr: 0xBFD0, symBinAddr: 0x543E4, symSize: 0x8C }
  - { offset: 0xCE053, size: 0x8, addend: 0x0, symName: __RNvXsp_NtCsaNl6UpbT7bw_4core6resultINtB5_6ResultNtNtCsc29TF2YcYso_3syn5token3BoxNtNtBO_5error5ErrorENtNtNtB7_3ops9try_trait3Try6branchBO_, symObjAddr: 0xC05C, symBinAddr: 0x54470, symSize: 0x88 }
  - { offset: 0xCE0D1, size: 0x8, addend: 0x0, symName: __RNvXsp_NtCsaNl6UpbT7bw_4core6resultINtB5_6ResultNtNtCsc29TF2YcYso_3syn5token3DotNtNtBO_5error5ErrorENtNtNtB7_3ops9try_trait3Try6branchBO_, symObjAddr: 0xC0E4, symBinAddr: 0x544F8, symSize: 0x8C }
  - { offset: 0xCE14E, size: 0x8, addend: 0x0, symName: __RNvXsp_NtCsaNl6UpbT7bw_4core6resultINtB5_6ResultNtNtCsc29TF2YcYso_3syn5token3DynNtNtBO_5error5ErrorENtNtNtB7_3ops9try_trait3Try6branchBO_, symObjAddr: 0xC170, symBinAddr: 0x54584, symSize: 0x88 }
  - { offset: 0xCE1CC, size: 0x8, addend: 0x0, symName: __RNvXsp_NtCsaNl6UpbT7bw_4core6resultINtB5_6ResultNtNtCsc29TF2YcYso_3syn5token3ForNtNtBO_5error5ErrorENtNtNtB7_3ops9try_trait3Try6branchBO_, symObjAddr: 0xC1F8, symBinAddr: 0x5460C, symSize: 0x88 }
  - { offset: 0xCE24A, size: 0x8, addend: 0x0, symName: __RNvXsp_NtCsaNl6UpbT7bw_4core6resultINtB5_6ResultNtNtCsc29TF2YcYso_3syn5token3LetNtNtBO_5error5ErrorENtNtNtB7_3ops9try_trait3Try6branchBO_, symObjAddr: 0xC280, symBinAddr: 0x54694, symSize: 0x88 }
  - { offset: 0xCE2C8, size: 0x8, addend: 0x0, symName: __RNvXsp_NtCsaNl6UpbT7bw_4core6resultINtB5_6ResultNtNtCsc29TF2YcYso_3syn5token3ModNtNtBO_5error5ErrorENtNtNtB7_3ops9try_trait3Try6branchBO_, symObjAddr: 0xC308, symBinAddr: 0x5471C, symSize: 0x88 }
  - { offset: 0xCE346, size: 0x8, addend: 0x0, symName: __RNvXsp_NtCsaNl6UpbT7bw_4core6resultINtB5_6ResultNtNtCsc29TF2YcYso_3syn5token3MutNtNtBO_5error5ErrorENtNtNtB7_3ops9try_trait3Try6branchBO_, symObjAddr: 0xC390, symBinAddr: 0x547A4, symSize: 0x88 }
  - { offset: 0xCE3C4, size: 0x8, addend: 0x0, symName: __RNvXsp_NtCsaNl6UpbT7bw_4core6resultINtB5_6ResultNtNtCsc29TF2YcYso_3syn5token3NotNtNtBO_5error5ErrorENtNtNtB7_3ops9try_trait3Try6branchBO_, symObjAddr: 0xC418, symBinAddr: 0x5482C, symSize: 0x8C }
  - { offset: 0xCE441, size: 0x8, addend: 0x0, symName: __RNvXsp_NtCsaNl6UpbT7bw_4core6resultINtB5_6ResultNtNtCsc29TF2YcYso_3syn5token3PubNtNtBO_5error5ErrorENtNtNtB7_3ops9try_trait3Try6branchBO_, symObjAddr: 0xC4A4, symBinAddr: 0x548B8, symSize: 0x88 }
  - { offset: 0xCE4BF, size: 0x8, addend: 0x0, symName: __RNvXsp_NtCsaNl6UpbT7bw_4core6resultINtB5_6ResultNtNtCsc29TF2YcYso_3syn5token3RawNtNtBO_5error5ErrorENtNtNtB7_3ops9try_trait3Try6branchBO_, symObjAddr: 0xC52C, symBinAddr: 0x54940, symSize: 0x88 }
  - { offset: 0xCE53D, size: 0x8, addend: 0x0, symName: __RNvXsp_NtCsaNl6UpbT7bw_4core6resultINtB5_6ResultNtNtCsc29TF2YcYso_3syn5token3RefNtNtBO_5error5ErrorENtNtNtB7_3ops9try_trait3Try6branchBO_, symObjAddr: 0xC5B4, symBinAddr: 0x549C8, symSize: 0x88 }
  - { offset: 0xCE5BB, size: 0x8, addend: 0x0, symName: __RNvXsp_NtCsaNl6UpbT7bw_4core6resultINtB5_6ResultNtNtCsc29TF2YcYso_3syn5token3TryNtNtBO_5error5ErrorENtNtNtB7_3ops9try_trait3Try6branchBO_, symObjAddr: 0xC63C, symBinAddr: 0x54A50, symSize: 0x88 }
  - { offset: 0xCE639, size: 0x8, addend: 0x0, symName: __RNvXsp_NtCsaNl6UpbT7bw_4core6resultINtB5_6ResultNtNtCsc29TF2YcYso_3syn5token3UseNtNtBO_5error5ErrorENtNtNtB7_3ops9try_trait3Try6branchBO_, symObjAddr: 0xC6C4, symBinAddr: 0x54AD8, symSize: 0x88 }
  - { offset: 0xCE6B7, size: 0x8, addend: 0x0, symName: __RNvXsp_NtCsaNl6UpbT7bw_4core6resultINtB5_6ResultNtNtCsc29TF2YcYso_3syn5token4AutoNtNtBO_5error5ErrorENtNtNtB7_3ops9try_trait3Try6branchBO_, symObjAddr: 0xC74C, symBinAddr: 0x54B60, symSize: 0x88 }
  - { offset: 0xCE735, size: 0x8, addend: 0x0, symName: __RNvXsp_NtCsaNl6UpbT7bw_4core6resultINtB5_6ResultNtNtCsc29TF2YcYso_3syn5token4ElseNtNtBO_5error5ErrorENtNtNtB7_3ops9try_trait3Try6branchBO_, symObjAddr: 0xC7D4, symBinAddr: 0x54BE8, symSize: 0x88 }
  - { offset: 0xCE7B3, size: 0x8, addend: 0x0, symName: __RNvXsp_NtCsaNl6UpbT7bw_4core6resultINtB5_6ResultNtNtCsc29TF2YcYso_3syn5token4EnumNtNtBO_5error5ErrorENtNtNtB7_3ops9try_trait3Try6branchBO_, symObjAddr: 0xC85C, symBinAddr: 0x54C70, symSize: 0x88 }
  - { offset: 0xCE831, size: 0x8, addend: 0x0, symName: __RNvXsp_NtCsaNl6UpbT7bw_4core6resultINtB5_6ResultNtNtCsc29TF2YcYso_3syn5token4ImplNtNtBO_5error5ErrorENtNtNtB7_3ops9try_trait3Try6branchBO_, symObjAddr: 0xC8E4, symBinAddr: 0x54CF8, symSize: 0x88 }
  - { offset: 0xCE8AF, size: 0x8, addend: 0x0, symName: __RNvXsp_NtCsaNl6UpbT7bw_4core6resultINtB5_6ResultNtNtCsc29TF2YcYso_3syn5token4LoopNtNtBO_5error5ErrorENtNtNtB7_3ops9try_trait3Try6branchBO_, symObjAddr: 0xC96C, symBinAddr: 0x54D80, symSize: 0x88 }
  - { offset: 0xCE92D, size: 0x8, addend: 0x0, symName: __RNvXsp_NtCsaNl6UpbT7bw_4core6resultINtB5_6ResultNtNtCsc29TF2YcYso_3syn5token4MoveNtNtBO_5error5ErrorENtNtNtB7_3ops9try_trait3Try6branchBO_, symObjAddr: 0xC9F4, symBinAddr: 0x54E08, symSize: 0x88 }
  - { offset: 0xCE9AB, size: 0x8, addend: 0x0, symName: __RNvXsp_NtCsaNl6UpbT7bw_4core6resultINtB5_6ResultNtNtCsc29TF2YcYso_3syn5token4PlusNtNtBO_5error5ErrorENtNtNtB7_3ops9try_trait3Try6branchBO_, symObjAddr: 0xCA7C, symBinAddr: 0x54E90, symSize: 0x8C }
  - { offset: 0xCEA28, size: 0x8, addend: 0x0, symName: __RNvXsp_NtCsaNl6UpbT7bw_4core6resultINtB5_6ResultNtNtCsc29TF2YcYso_3syn5token4SemiNtNtBO_5error5ErrorENtNtNtB7_3ops9try_trait3Try6branchBO_, symObjAddr: 0xCB08, symBinAddr: 0x54F1C, symSize: 0x8C }
  - { offset: 0xCEAA5, size: 0x8, addend: 0x0, symName: __RNvXsp_NtCsaNl6UpbT7bw_4core6resultINtB5_6ResultNtNtCsc29TF2YcYso_3syn5token4StarNtNtBO_5error5ErrorENtNtNtB7_3ops9try_trait3Try6branchBO_, symObjAddr: 0xCB94, symBinAddr: 0x54FA8, symSize: 0x8C }
  - { offset: 0xCEB22, size: 0x8, addend: 0x0, symName: __RNvXsp_NtCsaNl6UpbT7bw_4core6resultINtB5_6ResultNtNtCsc29TF2YcYso_3syn5token4TypeNtNtBO_5error5ErrorENtNtNtB7_3ops9try_trait3Try6branchBO_, symObjAddr: 0xCC20, symBinAddr: 0x55034, symSize: 0x88 }
  - { offset: 0xCEBA0, size: 0x8, addend: 0x0, symName: __RNvXsp_NtCsaNl6UpbT7bw_4core6resultINtB5_6ResultNtNtCsc29TF2YcYso_3syn5token5AsyncNtNtBO_5error5ErrorENtNtNtB7_3ops9try_trait3Try6branchBO_, symObjAddr: 0xCCA8, symBinAddr: 0x550BC, symSize: 0x88 }
  - { offset: 0xCEC1E, size: 0x8, addend: 0x0, symName: __RNvXsp_NtCsaNl6UpbT7bw_4core6resultINtB5_6ResultNtNtCsc29TF2YcYso_3syn5token5AwaitNtNtBO_5error5ErrorENtNtNtB7_3ops9try_trait3Try6branchBO_, symObjAddr: 0xCD30, symBinAddr: 0x55144, symSize: 0x88 }
  - { offset: 0xCEC9C, size: 0x8, addend: 0x0, symName: __RNvXsp_NtCsaNl6UpbT7bw_4core6resultINtB5_6ResultNtNtCsc29TF2YcYso_3syn5token5BreakNtNtBO_5error5ErrorENtNtNtB7_3ops9try_trait3Try6branchBO_, symObjAddr: 0xCDB8, symBinAddr: 0x551CC, symSize: 0x88 }
  - { offset: 0xCED1A, size: 0x8, addend: 0x0, symName: __RNvXsp_NtCsaNl6UpbT7bw_4core6resultINtB5_6ResultNtNtCsc29TF2YcYso_3syn5token5ColonNtNtBO_5error5ErrorENtNtNtB7_3ops9try_trait3Try6branchBO_, symObjAddr: 0xCE40, symBinAddr: 0x55254, symSize: 0x8C }
  - { offset: 0xCED97, size: 0x8, addend: 0x0, symName: __RNvXsp_NtCsaNl6UpbT7bw_4core6resultINtB5_6ResultNtNtCsc29TF2YcYso_3syn5token5CommaNtNtBO_5error5ErrorENtNtNtB7_3ops9try_trait3Try6branchBO_, symObjAddr: 0xCECC, symBinAddr: 0x552E0, symSize: 0x8C }
  - { offset: 0xCEE14, size: 0x8, addend: 0x0, symName: __RNvXsp_NtCsaNl6UpbT7bw_4core6resultINtB5_6ResultNtNtCsc29TF2YcYso_3syn5token5ConstNtNtBO_5error5ErrorENtNtNtB7_3ops9try_trait3Try6branchBO_, symObjAddr: 0xCF58, symBinAddr: 0x5536C, symSize: 0x88 }
  - { offset: 0xCEE92, size: 0x8, addend: 0x0, symName: __RNvXsp_NtCsaNl6UpbT7bw_4core6resultINtB5_6ResultNtNtCsc29TF2YcYso_3syn5token5CrateNtNtBO_5error5ErrorENtNtNtB7_3ops9try_trait3Try6branchBO_, symObjAddr: 0xCFE0, symBinAddr: 0x553F4, symSize: 0x88 }
  - { offset: 0xCEF10, size: 0x8, addend: 0x0, symName: __RNvXsp_NtCsaNl6UpbT7bw_4core6resultINtB5_6ResultNtNtCsc29TF2YcYso_3syn5token5MacroNtNtBO_5error5ErrorENtNtNtB7_3ops9try_trait3Try6branchBO_, symObjAddr: 0xD068, symBinAddr: 0x5547C, symSize: 0x88 }
  - { offset: 0xCEF8E, size: 0x8, addend: 0x0, symName: __RNvXsp_NtCsaNl6UpbT7bw_4core6resultINtB5_6ResultNtNtCsc29TF2YcYso_3syn5token5MatchNtNtBO_5error5ErrorENtNtNtB7_3ops9try_trait3Try6branchBO_, symObjAddr: 0xD0F0, symBinAddr: 0x55504, symSize: 0x88 }
  - { offset: 0xCF00C, size: 0x8, addend: 0x0, symName: __RNvXsp_NtCsaNl6UpbT7bw_4core6resultINtB5_6ResultNtNtCsc29TF2YcYso_3syn5token5PoundNtNtBO_5error5ErrorENtNtNtB7_3ops9try_trait3Try6branchBO_, symObjAddr: 0xD178, symBinAddr: 0x5558C, symSize: 0x8C }
  - { offset: 0xCF089, size: 0x8, addend: 0x0, symName: __RNvXsp_NtCsaNl6UpbT7bw_4core6resultINtB5_6ResultNtNtCsc29TF2YcYso_3syn5token5TraitNtNtBO_5error5ErrorENtNtNtB7_3ops9try_trait3Try6branchBO_, symObjAddr: 0xD204, symBinAddr: 0x55618, symSize: 0x88 }
  - { offset: 0xCF107, size: 0x8, addend: 0x0, symName: __RNvXsp_NtCsaNl6UpbT7bw_4core6resultINtB5_6ResultNtNtCsc29TF2YcYso_3syn5token5UnionNtNtBO_5error5ErrorENtNtNtB7_3ops9try_trait3Try6branchBO_, symObjAddr: 0xD28C, symBinAddr: 0x556A0, symSize: 0x88 }
  - { offset: 0xCF185, size: 0x8, addend: 0x0, symName: __RNvXsp_NtCsaNl6UpbT7bw_4core6resultINtB5_6ResultNtNtCsc29TF2YcYso_3syn5token5WhereNtNtBO_5error5ErrorENtNtNtB7_3ops9try_trait3Try6branchBO_, symObjAddr: 0xD314, symBinAddr: 0x55728, symSize: 0x88 }
  - { offset: 0xCF203, size: 0x8, addend: 0x0, symName: __RNvXsp_NtCsaNl6UpbT7bw_4core6resultINtB5_6ResultNtNtCsc29TF2YcYso_3syn5token5WhileNtNtBO_5error5ErrorENtNtNtB7_3ops9try_trait3Try6branchBO_, symObjAddr: 0xD39C, symBinAddr: 0x557B0, symSize: 0x88 }
  - { offset: 0xCF281, size: 0x8, addend: 0x0, symName: __RNvXsp_NtCsaNl6UpbT7bw_4core6resultINtB5_6ResultNtNtCsc29TF2YcYso_3syn5token5YieldNtNtBO_5error5ErrorENtNtNtB7_3ops9try_trait3Try6branchBO_, symObjAddr: 0xD424, symBinAddr: 0x55838, symSize: 0x88 }
  - { offset: 0xCF2FF, size: 0x8, addend: 0x0, symName: __RNvXsp_NtCsaNl6UpbT7bw_4core6resultINtB5_6ResultNtNtCsc29TF2YcYso_3syn5token6BecomeNtNtBO_5error5ErrorENtNtNtB7_3ops9try_trait3Try6branchBO_, symObjAddr: 0xD4AC, symBinAddr: 0x558C0, symSize: 0x88 }
  - { offset: 0xCF37D, size: 0x8, addend: 0x0, symName: __RNvXsp_NtCsaNl6UpbT7bw_4core6resultINtB5_6ResultNtNtCsc29TF2YcYso_3syn5token6DotDotNtNtBO_5error5ErrorENtNtNtB7_3ops9try_trait3Try6branchBO_, symObjAddr: 0xD534, symBinAddr: 0x55948, symSize: 0x8C }
  - { offset: 0xCF3FA, size: 0x8, addend: 0x0, symName: __RNvXsp_NtCsaNl6UpbT7bw_4core6resultINtB5_6ResultNtNtCsc29TF2YcYso_3syn5token6ExternNtNtBO_5error5ErrorENtNtNtB7_3ops9try_trait3Try6branchBO_, symObjAddr: 0xD5C0, symBinAddr: 0x559D4, symSize: 0x88 }
  - { offset: 0xCF478, size: 0x8, addend: 0x0, symName: __RNvXsp_NtCsaNl6UpbT7bw_4core6resultINtB5_6ResultNtNtCsc29TF2YcYso_3syn5token6RArrowNtNtBO_5error5ErrorENtNtNtB7_3ops9try_trait3Try6branchBO_, symObjAddr: 0xD648, symBinAddr: 0x55A5C, symSize: 0x8C }
  - { offset: 0xCF4F5, size: 0x8, addend: 0x0, symName: __RNvXsp_NtCsaNl6UpbT7bw_4core6resultINtB5_6ResultNtNtCsc29TF2YcYso_3syn5token6ReturnNtNtBO_5error5ErrorENtNtNtB7_3ops9try_trait3Try6branchBO_, symObjAddr: 0xD6D4, symBinAddr: 0x55AE8, symSize: 0x88 }
  - { offset: 0xCF573, size: 0x8, addend: 0x0, symName: __RNvXsp_NtCsaNl6UpbT7bw_4core6resultINtB5_6ResultNtNtCsc29TF2YcYso_3syn5token6StaticNtNtBO_5error5ErrorENtNtNtB7_3ops9try_trait3Try6branchBO_, symObjAddr: 0xD75C, symBinAddr: 0x55B70, symSize: 0x88 }
  - { offset: 0xCF5F1, size: 0x8, addend: 0x0, symName: __RNvXsp_NtCsaNl6UpbT7bw_4core6resultINtB5_6ResultNtNtCsc29TF2YcYso_3syn5token6StructNtNtBO_5error5ErrorENtNtNtB7_3ops9try_trait3Try6branchBO_, symObjAddr: 0xD7E4, symBinAddr: 0x55BF8, symSize: 0x88 }
  - { offset: 0xCF66F, size: 0x8, addend: 0x0, symName: __RNvXsp_NtCsaNl6UpbT7bw_4core6resultINtB5_6ResultNtNtCsc29TF2YcYso_3syn5token6UnsafeNtNtBO_5error5ErrorENtNtNtB7_3ops9try_trait3Try6branchBO_, symObjAddr: 0xD86C, symBinAddr: 0x55C80, symSize: 0x88 }
  - { offset: 0xCF6ED, size: 0x8, addend: 0x0, symName: __RNvXsp_NtCsaNl6UpbT7bw_4core6resultINtB5_6ResultNtNtCsc29TF2YcYso_3syn5token7DefaultNtNtBO_5error5ErrorENtNtNtB7_3ops9try_trait3Try6branchBO_, symObjAddr: 0xD8F4, symBinAddr: 0x55D08, symSize: 0x88 }
  - { offset: 0xCF76B, size: 0x8, addend: 0x0, symName: __RNvXsp_NtCsaNl6UpbT7bw_4core6resultINtB5_6ResultNtNtCsc29TF2YcYso_3syn5token7PathSepNtNtBO_5error5ErrorENtNtNtB7_3ops9try_trait3Try6branchBO_, symObjAddr: 0xD97C, symBinAddr: 0x55D90, symSize: 0x8C }
  - { offset: 0xCF7E8, size: 0x8, addend: 0x0, symName: __RNvXsp_NtCsaNl6UpbT7bw_4core6resultINtB5_6ResultNtNtCsc29TF2YcYso_3syn5token8ContinueNtNtBO_5error5ErrorENtNtNtB7_3ops9try_trait3Try6branchBO_, symObjAddr: 0xDA08, symBinAddr: 0x55E1C, symSize: 0x88 }
  - { offset: 0xCF866, size: 0x8, addend: 0x0, symName: __RNvXsp_NtCsaNl6UpbT7bw_4core6resultINtB5_6ResultNtNtCsc29TF2YcYso_3syn5token8FatArrowNtNtBO_5error5ErrorENtNtNtB7_3ops9try_trait3Try6branchBO_, symObjAddr: 0xDA90, symBinAddr: 0x55EA4, symSize: 0x8C }
  - { offset: 0xCF8E3, size: 0x8, addend: 0x0, symName: __RNvXsp_NtCsaNl6UpbT7bw_4core6resultINtB5_6ResultNtNtCsc29TF2YcYso_3syn5token8QuestionNtNtBO_5error5ErrorENtNtNtB7_3ops9try_trait3Try6branchBO_, symObjAddr: 0xDB1C, symBinAddr: 0x55F30, symSize: 0x8C }
  - { offset: 0xCF960, size: 0x8, addend: 0x0, symName: __RNvXsp_NtCsaNl6UpbT7bw_4core6resultINtB5_6ResultNtNtCsc29TF2YcYso_3syn5token9DotDotDotNtNtBO_5error5ErrorENtNtNtB7_3ops9try_trait3Try6branchBO_, symObjAddr: 0xDBA8, symBinAddr: 0x55FBC, symSize: 0x9C }
  - { offset: 0xCF9DD, size: 0x8, addend: 0x0, symName: __RNvXsp_NtCsaNl6UpbT7bw_4core6resultINtB5_6ResultNtNtCsc29TF2YcYso_3syn5token9SelfValueNtNtBO_5error5ErrorENtNtNtB7_3ops9try_trait3Try6branchBO_, symObjAddr: 0xDC44, symBinAddr: 0x56058, symSize: 0x88 }
  - { offset: 0xCFA5B, size: 0x8, addend: 0x0, symName: __RNvXsp_NtCsaNl6UpbT7bw_4core6resultINtB5_6ResultNtNtCsc29TF2YcYso_3syn8generics10ConstParamNtNtBO_5error5ErrorENtNtNtB7_3ops9try_trait3Try6branchBO_, symObjAddr: 0xDCCC, symBinAddr: 0x560E0, symSize: 0xB4 }
  - { offset: 0xCFAD9, size: 0x8, addend: 0x0, symName: __RNvXsp_NtCsaNl6UpbT7bw_4core6resultINtB5_6ResultNtNtCsc29TF2YcYso_3syn8generics10TraitBoundNtNtBO_5error5ErrorENtNtNtB7_3ops9try_trait3Try6branchBO_, symObjAddr: 0xDD80, symBinAddr: 0x56194, symSize: 0xBC }
  - { offset: 0xCFB56, size: 0x8, addend: 0x0, symName: __RNvXsp_NtCsaNl6UpbT7bw_4core6resultINtB5_6ResultNtNtCsc29TF2YcYso_3syn8generics11WhereClauseNtNtBO_5error5ErrorENtNtNtB7_3ops9try_trait3Try6branchBO_, symObjAddr: 0xDE3C, symBinAddr: 0x56250, symSize: 0xB0 }
  - { offset: 0xCFBD3, size: 0x8, addend: 0x0, symName: __RNvXsp_NtCsaNl6UpbT7bw_4core6resultINtB5_6ResultNtNtCsc29TF2YcYso_3syn8generics12GenericParamNtNtBO_5error5ErrorENtNtNtB7_3ops9try_trait3Try6branchBO_, symObjAddr: 0xDEEC, symBinAddr: 0x56300, symSize: 0xB4 }
  - { offset: 0xCFC51, size: 0x8, addend: 0x0, symName: __RNvXsp_NtCsaNl6UpbT7bw_4core6resultINtB5_6ResultNtNtCsc29TF2YcYso_3syn8generics13CapturedParamNtNtBO_5error5ErrorENtNtNtB7_3ops9try_trait3Try6branchBO_, symObjAddr: 0xDFA0, symBinAddr: 0x563B4, symSize: 0xAC }
  - { offset: 0xCFCCE, size: 0x8, addend: 0x0, symName: __RNvXsp_NtCsaNl6UpbT7bw_4core6resultINtB5_6ResultNtNtCsc29TF2YcYso_3syn8generics13LifetimeParamNtNtBO_5error5ErrorENtNtNtB7_3ops9try_trait3Try6branchBO_, symObjAddr: 0xE04C, symBinAddr: 0x56460, symSize: 0xB0 }
  - { offset: 0xCFD4B, size: 0x8, addend: 0x0, symName: __RNvXsp_NtCsaNl6UpbT7bw_4core6resultINtB5_6ResultNtNtCsc29TF2YcYso_3syn8generics14PreciseCaptureNtNtBO_5error5ErrorENtNtNtB7_3ops9try_trait3Try6branchBO_, symObjAddr: 0xE0FC, symBinAddr: 0x56510, symSize: 0xB0 }
  - { offset: 0xCFDC8, size: 0x8, addend: 0x0, symName: __RNvXsp_NtCsaNl6UpbT7bw_4core6resultINtB5_6ResultNtNtCsc29TF2YcYso_3syn8generics14TypeParamBoundNtNtBO_5error5ErrorENtNtNtB7_3ops9try_trait3Try6branchBO_, symObjAddr: 0xE1AC, symBinAddr: 0x565C0, symSize: 0xBC }
  - { offset: 0xCFE45, size: 0x8, addend: 0x0, symName: __RNvXsp_NtCsaNl6UpbT7bw_4core6resultINtB5_6ResultNtNtCsc29TF2YcYso_3syn8generics14WherePredicateNtNtBO_5error5ErrorENtNtNtB7_3ops9try_trait3Try6branchBO_, symObjAddr: 0xE268, symBinAddr: 0x5667C, symSize: 0xC0 }
  - { offset: 0xCFEC3, size: 0x8, addend: 0x0, symName: __RNvXsp_NtCsaNl6UpbT7bw_4core6resultINtB5_6ResultNtNtCsc29TF2YcYso_3syn8generics18TraitBoundModifierNtNtBO_5error5ErrorENtNtNtB7_3ops9try_trait3Try6branchBO_, symObjAddr: 0xE328, symBinAddr: 0x5673C, symSize: 0x8C }
  - { offset: 0xCFF40, size: 0x8, addend: 0x0, symName: __RNvXsp_NtCsaNl6UpbT7bw_4core6resultINtB5_6ResultNtNtCsc29TF2YcYso_3syn8generics8GenericsNtNtBO_5error5ErrorENtNtNtB7_3ops9try_trait3Try6branchBO_, symObjAddr: 0xE3B4, symBinAddr: 0x567C8, symSize: 0xB0 }
  - { offset: 0xCFFBD, size: 0x8, addend: 0x0, symName: __RNvXsp_NtCsaNl6UpbT7bw_4core6resultINtB5_6ResultNtNtCsc29TF2YcYso_3syn8generics9TypeParamNtNtBO_5error5ErrorENtNtNtB7_3ops9try_trait3Try6branchBO_, symObjAddr: 0xE464, symBinAddr: 0x56878, symSize: 0xB4 }
  - { offset: 0xD003B, size: 0x8, addend: 0x0, symName: __RNvXsp_NtCsaNl6UpbT7bw_4core6resultINtB5_6ResultNtNtCsc29TF2YcYso_3syn8lifetime8LifetimeNtNtBO_5error5ErrorENtNtNtB7_3ops9try_trait3Try6branchBO_, symObjAddr: 0xE518, symBinAddr: 0x5692C, symSize: 0x94 }
  - { offset: 0xD00B8, size: 0x8, addend: 0x0, symName: __RNvXsp_NtCsaNl6UpbT7bw_4core6resultINtB5_6ResultNtNtNtCsc29TF2YcYso_3syn4item7parsing15FnArgOrVariadicNtNtBQ_5error5ErrorENtNtNtB7_3ops9try_trait3Try6branchBQ_, symObjAddr: 0xE5AC, symBinAddr: 0x569C0, symSize: 0xB8 }
  - { offset: 0xD0135, size: 0x8, addend: 0x0, symName: __RNvXsp_NtCsaNl6UpbT7bw_4core6resultINtB5_6ResultNtNtNtCsc29TF2YcYso_3syn4item7parsing16FlexibleItemTypeNtNtBQ_5error5ErrorENtNtNtB7_3ops9try_trait3Try6branchBQ_, symObjAddr: 0xE664, symBinAddr: 0x56A78, symSize: 0xB4 }
  - { offset: 0xD01B3, size: 0x8, addend: 0x0, symName: __RNvXsp_NtCsaNl6UpbT7bw_4core6resultINtB5_6ResultTINtNtB7_6option6OptionNtNtCsc29TF2YcYso_3syn4path5QSelfENtB19_4PathENtNtB1b_5error5ErrorENtNtNtB7_3ops9try_trait3Try6branchB1b_, symObjAddr: 0xE718, symBinAddr: 0x56B2C, symSize: 0xB0 }
  - { offset: 0xD0230, size: 0x8, addend: 0x0, symName: __RNvXsp_NtCsaNl6UpbT7bw_4core6resultINtB5_6ResultTINtNtB7_6option6OptionNtNtCsc29TF2YcYso_3syn5token5ColonEINtNtB1b_10punctuated10PunctuatedNtNtB1b_8generics14TypeParamBoundNtB19_4PlusEENtNtB1b_5error5ErrorENtNtNtB7_3ops9try_trait3Try6branchB1b_, symObjAddr: 0xE7C8, symBinAddr: 0x56BDC, symSize: 0xB0 }
  - { offset: 0xD02AD, size: 0x8, addend: 0x0, symName: __RNvXsp_NtCsaNl6UpbT7bw_4core6resultINtB5_6ResultTINtNtB7_6option6OptionNtNtCsc29TF2YcYso_3syn8generics11WhereClauseENtNtB1b_4data11FieldsNamedENtNtB1b_5error5ErrorENtNtNtB7_3ops9try_trait3Try6branchB1b_, symObjAddr: 0xE878, symBinAddr: 0x56C8C, symSize: 0xB0 }
  - { offset: 0xD032A, size: 0x8, addend: 0x0, symName: __RNvXsp_NtCsaNl6UpbT7bw_4core6resultINtB5_6ResultTINtNtB7_6option6OptionNtNtCsc29TF2YcYso_3syn8generics11WhereClauseENtNtB1b_4data6FieldsIBM_NtNtB1b_5token4SemiEENtNtB1b_5error5ErrorENtNtNtB7_3ops9try_trait3Try6branchB1b_, symObjAddr: 0xE928, symBinAddr: 0x56D3C, symSize: 0xB8 }
  - { offset: 0xD03A7, size: 0x8, addend: 0x0, symName: __RNvXsp_NtCsaNl6UpbT7bw_4core6resultINtB5_6ResultTINtNtB7_6option6OptionNtNtCsc29TF2YcYso_3syn8generics11WhereClauseENtNtB1b_5token5BraceINtNtB1b_10punctuated10PunctuatedNtNtB1b_4data7VariantNtB1S_5CommaEENtNtB1b_5error5ErrorENtNtNtB7_3ops9try_trait3Try6branchB1b_, symObjAddr: 0xE9E0, symBinAddr: 0x56DF4, symSize: 0xB0 }
  - { offset: 0xD0424, size: 0x8, addend: 0x0, symName: __RNvXsp_NtCsaNl6UpbT7bw_4core6resultINtB5_6ResultTINtNtCsc29TF2YcYso_3syn10punctuated10PunctuatedNtNtBQ_4item5FnArgNtNtBQ_5token5CommaEINtNtB7_6option6OptionNtB1y_8VariadicEENtNtBQ_5error5ErrorENtNtNtB7_3ops9try_trait3Try6branchBQ_, symObjAddr: 0xEA90, symBinAddr: 0x56EA4, symSize: 0xB0 }
  - { offset: 0xD04A1, size: 0x8, addend: 0x0, symName: __RNvXsp_NtCsaNl6UpbT7bw_4core6resultINtB5_6ResultTINtNtCsiTraAjBDcu4_5alloc3vec3VecNtNtCsc29TF2YcYso_3syn4attr9AttributeENtNtB1m_11restriction10VisibilityNtNtB1m_5token5TraitNtCshnvkK9b4wzu_11proc_macro25IdentNtNtB1m_8generics8GenericsENtNtB1m_5error5ErrorENtNtNtB7_3ops9try_trait3Try6branchB1m_, symObjAddr: 0xEB40, symBinAddr: 0x56F54, symSize: 0xB8 }
  - { offset: 0xD051F, size: 0x8, addend: 0x0, symName: __RNvXsp_NtCsaNl6UpbT7bw_4core6resultINtB5_6ResultTNtCshnvkK9b4wzu_11proc_macro211TokenStreamNtNtCsc29TF2YcYso_3syn6buffer6CursorENtNtB1v_5error5ErrorENtNtNtB7_3ops9try_trait3Try6branchB1v_, symObjAddr: 0xEBF8, symBinAddr: 0x5700C, symSize: 0xB0 }
  - { offset: 0xD059C, size: 0x8, addend: 0x0, symName: __RNvXsp_NtCsaNl6UpbT7bw_4core6resultINtB5_6ResultTNtCshnvkK9b4wzu_11proc_macro24SpanNtNtCsc29TF2YcYso_3syn6buffer6CursorENtNtB1n_5error5ErrorENtNtNtB7_3ops9try_trait3Try6branchB1n_, symObjAddr: 0xECA8, symBinAddr: 0x570BC, symSize: 0x94 }
  - { offset: 0xD0619, size: 0x8, addend: 0x0, symName: __RNvXsp_NtCsaNl6UpbT7bw_4core6resultINtB5_6ResultTNtCshnvkK9b4wzu_11proc_macro25IdentNtNtCsc29TF2YcYso_3syn6buffer6CursorENtNtB1o_5error5ErrorENtNtNtB7_3ops9try_trait3Try6branchB1o_, symObjAddr: 0xEDE8, symBinAddr: 0x57150, symSize: 0xB0 }
  - { offset: 0xD0696, size: 0x8, addend: 0x0, symName: __RNvXsp_NtCsaNl6UpbT7bw_4core6resultINtB5_6ResultTNtNtCsc29TF2YcYso_3syn3lit3LitNtNtBP_6buffer6CursorENtNtBP_5error5ErrorENtNtNtB7_3ops9try_trait3Try6branchBP_, symObjAddr: 0xF090, symBinAddr: 0x57200, symSize: 0xB8 }
  - { offset: 0xD0713, size: 0x8, addend: 0x0, symName: __RNvXsp_NtCsaNl6UpbT7bw_4core6resultINtB5_6ResultTNtNtCsc29TF2YcYso_3syn3mac14MacroDelimiterNtCshnvkK9b4wzu_11proc_macro211TokenStreamENtNtBP_5error5ErrorENtNtNtB7_3ops9try_trait3Try6branchBP_, symObjAddr: 0xF148, symBinAddr: 0x572B8, symSize: 0xB0 }
  - { offset: 0xD0790, size: 0x8, addend: 0x0, symName: __RNvXsp_NtCsaNl6UpbT7bw_4core6resultINtB5_6ResultTNtNtCsc29TF2YcYso_3syn5token10UnderscoreNtNtBP_6buffer6CursorENtNtBP_5error5ErrorENtNtNtB7_3ops9try_trait3Try6branchBP_, symObjAddr: 0xF1F8, symBinAddr: 0x57368, symSize: 0x94 }
  - { offset: 0xD080D, size: 0x8, addend: 0x0, symName: __RNvXsp_NtCsaNl6UpbT7bw_4core6resultINtB5_6ResultTNtNtCsc29TF2YcYso_3syn8lifetime8LifetimeNtNtBP_6buffer6CursorENtNtBP_5error5ErrorENtNtNtB7_3ops9try_trait3Try6branchBP_, symObjAddr: 0xF28C, symBinAddr: 0x573FC, symSize: 0xAC }
  - { offset: 0xD088A, size: 0x8, addend: 0x0, symName: __RNvXsp_NtCsaNl6UpbT7bw_4core6resultINtB5_6ResultTTNtNtCsc29TF2YcYso_3syn3mac14MacroDelimiterNtCshnvkK9b4wzu_11proc_macro211TokenStreamENtNtBQ_6buffer6CursorENtNtBQ_5error5ErrorENtNtNtB7_3ops9try_trait3Try6branchBQ_, symObjAddr: 0xF3E4, symBinAddr: 0x574A8, symSize: 0xB0 }
  - { offset: 0xD0907, size: 0x8, addend: 0x0, symName: __RNvXsp_NtCsaNl6UpbT7bw_4core6resultINtB5_6ResultTTNtNtCshnvkK9b4wzu_11proc_macro25extra9DelimSpanNtNtCsc29TF2YcYso_3syn5parse11ParseBufferENtNtB1B_6buffer6CursorENtNtB1B_5error5ErrorENtNtNtB7_3ops9try_trait3Try6branchB1B_, symObjAddr: 0xF494, symBinAddr: 0x57558, symSize: 0xB0 }
  - { offset: 0xD0984, size: 0x8, addend: 0x0, symName: __RNvXsp_NtCsaNl6UpbT7bw_4core6resultINtB5_6ResultTuNtNtCsc29TF2YcYso_3syn6buffer6CursorENtNtBQ_5error5ErrorENtNtNtB7_3ops9try_trait3Try6branchBQ_, symObjAddr: 0xF544, symBinAddr: 0x57608, symSize: 0x94 }
  - { offset: 0xD0A02, size: 0x8, addend: 0x0, symName: __RNvXsp_NtCsaNl6UpbT7bw_4core6resultINtB5_6ResultbNtNtCsc29TF2YcYso_3syn5error5ErrorENtNtNtB7_3ops9try_trait3Try6branchBP_, symObjAddr: 0xF5D8, symBinAddr: 0x5769C, symSize: 0x94 }
  - { offset: 0xD0A80, size: 0x8, addend: 0x0, symName: __RNvXsp_NtCsaNl6UpbT7bw_4core6resultINtB5_6ResultmNtNtCsc29TF2YcYso_3syn5error5ErrorENtNtNtB7_3ops9try_trait3Try6branchBP_, symObjAddr: 0xF66C, symBinAddr: 0x57730, symSize: 0x88 }
  - { offset: 0xD0AFE, size: 0x8, addend: 0x0, symName: __RNvXsp_NtCsaNl6UpbT7bw_4core6resultINtB5_6ResultuNtNtCsc29TF2YcYso_3syn5error5ErrorENtNtNtB7_3ops9try_trait3Try6branchBP_, symObjAddr: 0xF6F4, symBinAddr: 0x577B8, symSize: 0x78 }
  - { offset: 0xD0B82, size: 0x8, addend: 0x0, symName: __RNvXsq_NtCsaNl6UpbT7bw_4core6resultINtB5_6ResultANtCshnvkK9b4wzu_11proc_macro24Spanj1_NtNtCsc29TF2YcYso_3syn5error5ErrorEINtNtNtB7_3ops9try_trait12FromResidualIBy_NtNtB7_7convert10InfallibleB1m_EE13from_residualB1q_, symObjAddr: 0xF76C, symBinAddr: 0x57830, symSize: 0x40 }
  - { offset: 0xD0C07, size: 0x8, addend: 0x0, symName: __RNvXsq_NtCsaNl6UpbT7bw_4core6resultINtB5_6ResultANtCshnvkK9b4wzu_11proc_macro24Spanj2_NtNtCsc29TF2YcYso_3syn5error5ErrorEINtNtNtB7_3ops9try_trait12FromResidualIBy_NtNtB7_7convert10InfallibleB1m_EE13from_residualB1q_, symObjAddr: 0xF7AC, symBinAddr: 0x57870, symSize: 0x40 }
  - { offset: 0xD0C8C, size: 0x8, addend: 0x0, symName: __RNvXsq_NtCsaNl6UpbT7bw_4core6resultINtB5_6ResultANtCshnvkK9b4wzu_11proc_macro24Spanj3_NtNtCsc29TF2YcYso_3syn5error5ErrorEINtNtNtB7_3ops9try_trait12FromResidualIBy_NtNtB7_7convert10InfallibleB1m_EE13from_residualB1q_, symObjAddr: 0xF7EC, symBinAddr: 0x578B0, symSize: 0x40 }
  - { offset: 0xD0D11, size: 0x8, addend: 0x0, symName: __RNvXsq_NtCsaNl6UpbT7bw_4core6resultINtB5_6ResultINtNtB7_6option6OptionINtNtCsiTraAjBDcu4_5alloc5boxed3BoxNtNtCsc29TF2YcYso_3syn4expr4ExprEENtNtB1J_5error5ErrorEINtNtNtB7_3ops9try_trait12FromResidualIBy_NtNtB7_7convert10InfallibleB2d_EE13from_residualB1J_, symObjAddr: 0xF82C, symBinAddr: 0x578F0, symSize: 0x40 }
  - { offset: 0xD0D96, size: 0x8, addend: 0x0, symName: __RNvXsq_NtCsaNl6UpbT7bw_4core6resultINtB5_6ResultINtNtB7_6option6OptionNtCshnvkK9b4wzu_11proc_macro25IdentENtNtCsc29TF2YcYso_3syn5error5ErrorEINtNtNtB7_3ops9try_trait12FromResidualIBy_NtNtB7_7convert10InfallibleB1G_EE13from_residualB1K_, symObjAddr: 0xF86C, symBinAddr: 0x57930, symSize: 0x48 }
  - { offset: 0xD0E1B, size: 0x8, addend: 0x0, symName: __RNvXsq_NtCsaNl6UpbT7bw_4core6resultINtB5_6ResultINtNtB7_6option6OptionNtNtCsc29TF2YcYso_3syn3lit3LitENtNtB1a_5error5ErrorEINtNtNtB7_3ops9try_trait12FromResidualIBy_NtNtB7_7convert10InfallibleB1B_EE13from_residualB1a_, symObjAddr: 0xF8B4, symBinAddr: 0x57978, symSize: 0x48 }
  - { offset: 0xD0EA0, size: 0x8, addend: 0x0, symName: __RNvXsq_NtCsaNl6UpbT7bw_4core6resultINtB5_6ResultINtNtB7_6option6OptionNtNtCsc29TF2YcYso_3syn3lit6LitStrENtNtB1a_5error5ErrorEINtNtNtB7_3ops9try_trait12FromResidualIBy_NtNtB7_7convert10InfallibleB1E_EE13from_residualB1a_, symObjAddr: 0xF8FC, symBinAddr: 0x579C0, symSize: 0x40 }
  - { offset: 0xD0F25, size: 0x8, addend: 0x0, symName: __RNvXsq_NtCsaNl6UpbT7bw_4core6resultINtB5_6ResultINtNtB7_6option6OptionNtNtCsc29TF2YcYso_3syn3lit8LitFloatENtNtB1a_5error5ErrorEINtNtNtB7_3ops9try_trait12FromResidualIBy_NtNtB7_7convert10InfallibleB1G_EE13from_residualB1a_, symObjAddr: 0xF93C, symBinAddr: 0x57A00, symSize: 0x40 }
  - { offset: 0xD0FAA, size: 0x8, addend: 0x0, symName: __RNvXsq_NtCsaNl6UpbT7bw_4core6resultINtB5_6ResultINtNtB7_6option6OptionNtNtCsc29TF2YcYso_3syn4item10ImplItemFnENtNtB1a_5error5ErrorEINtNtNtB7_3ops9try_trait12FromResidualIBy_NtNtB7_7convert10InfallibleB1K_EE13from_residualB1a_, symObjAddr: 0xF97C, symBinAddr: 0x57A40, symSize: 0x48 }
  - { offset: 0xD102F, size: 0x8, addend: 0x0, symName: __RNvXsq_NtCsaNl6UpbT7bw_4core6resultINtB5_6ResultINtNtB7_6option6OptionNtNtCsc29TF2YcYso_3syn4item7ItemUseENtNtB1a_5error5ErrorEINtNtNtB7_3ops9try_trait12FromResidualIBy_NtNtB7_7convert10InfallibleB1G_EE13from_residualB1a_, symObjAddr: 0xF9C4, symBinAddr: 0x57A88, symSize: 0x48 }
  - { offset: 0xD10B4, size: 0x8, addend: 0x0, symName: __RNvXsq_NtCsaNl6UpbT7bw_4core6resultINtB5_6ResultINtNtB7_6option6OptionNtNtCsc29TF2YcYso_3syn4item7UseTreeENtNtB1a_5error5ErrorEINtNtNtB7_3ops9try_trait12FromResidualIBy_NtNtB7_7convert10InfallibleB1G_EE13from_residualB1a_, symObjAddr: 0xFA0C, symBinAddr: 0x57AD0, symSize: 0x48 }
  - { offset: 0xD1139, size: 0x8, addend: 0x0, symName: __RNvXsq_NtCsaNl6UpbT7bw_4core6resultINtB5_6ResultINtNtB7_6option6OptionNtNtCsc29TF2YcYso_3syn4item8ItemImplENtNtB1a_5error5ErrorEINtNtNtB7_3ops9try_trait12FromResidualIBy_NtNtB7_7convert10InfallibleB1H_EE13from_residualB1a_, symObjAddr: 0xFA54, symBinAddr: 0x57B18, symSize: 0x48 }
  - { offset: 0xD11BE, size: 0x8, addend: 0x0, symName: __RNvXsq_NtCsaNl6UpbT7bw_4core6resultINtB5_6ResultINtNtB7_6option6OptionNtNtCsc29TF2YcYso_3syn4item9SignatureENtNtB1a_5error5ErrorEINtNtNtB7_3ops9try_trait12FromResidualIBy_NtNtB7_7convert10InfallibleB1I_EE13from_residualB1a_, symObjAddr: 0xFA9C, symBinAddr: 0x57B60, symSize: 0x48 }
  - { offset: 0xD1243, size: 0x8, addend: 0x0, symName: __RNvXsq_NtCsaNl6UpbT7bw_4core6resultINtB5_6ResultINtNtB7_6option6OptionNtNtCsc29TF2YcYso_3syn5token2EqENtNtB1a_5error5ErrorEINtNtNtB7_3ops9try_trait12FromResidualIBy_NtNtB7_7convert10InfallibleB1C_EE13from_residualB1a_, symObjAddr: 0xFAE4, symBinAddr: 0x57BA8, symSize: 0x40 }
  - { offset: 0xD12C8, size: 0x8, addend: 0x0, symName: __RNvXsq_NtCsaNl6UpbT7bw_4core6resultINtB5_6ResultINtNtB7_6option6OptionNtNtCsc29TF2YcYso_3syn5token2OrENtNtB1a_5error5ErrorEINtNtNtB7_3ops9try_trait12FromResidualIBy_NtNtB7_7convert10InfallibleB1C_EE13from_residualB1a_, symObjAddr: 0xFB24, symBinAddr: 0x57BE8, symSize: 0x40 }
  - { offset: 0xD134D, size: 0x8, addend: 0x0, symName: __RNvXsq_NtCsaNl6UpbT7bw_4core6resultINtB5_6ResultINtNtB7_6option6OptionNtNtCsc29TF2YcYso_3syn5token3BoxENtNtB1a_5error5ErrorEINtNtNtB7_3ops9try_trait12FromResidualIBy_NtNtB7_7convert10InfallibleB1D_EE13from_residualB1a_, symObjAddr: 0xFB64, symBinAddr: 0x57C28, symSize: 0x40 }
  - { offset: 0xD13D2, size: 0x8, addend: 0x0, symName: __RNvXsq_NtCsaNl6UpbT7bw_4core6resultINtB5_6ResultINtNtB7_6option6OptionNtNtCsc29TF2YcYso_3syn5token3DynENtNtB1a_5error5ErrorEINtNtNtB7_3ops9try_trait12FromResidualIBy_NtNtB7_7convert10InfallibleB1D_EE13from_residualB1a_, symObjAddr: 0xFBA4, symBinAddr: 0x57C68, symSize: 0x40 }
  - { offset: 0xD1457, size: 0x8, addend: 0x0, symName: __RNvXsq_NtCsaNl6UpbT7bw_4core6resultINtB5_6ResultINtNtB7_6option6OptionNtNtCsc29TF2YcYso_3syn5token3MutENtNtB1a_5error5ErrorEINtNtNtB7_3ops9try_trait12FromResidualIBy_NtNtB7_7convert10InfallibleB1D_EE13from_residualB1a_, symObjAddr: 0xFBE4, symBinAddr: 0x57CA8, symSize: 0x40 }
  - { offset: 0xD14DC, size: 0x8, addend: 0x0, symName: __RNvXsq_NtCsaNl6UpbT7bw_4core6resultINtB5_6ResultINtNtB7_6option6OptionNtNtCsc29TF2YcYso_3syn5token3RefENtNtB1a_5error5ErrorEINtNtNtB7_3ops9try_trait12FromResidualIBy_NtNtB7_7convert10InfallibleB1D_EE13from_residualB1a_, symObjAddr: 0xFC24, symBinAddr: 0x57CE8, symSize: 0x40 }
  - { offset: 0xD1561, size: 0x8, addend: 0x0, symName: __RNvXsq_NtCsaNl6UpbT7bw_4core6resultINtB5_6ResultINtNtB7_6option6OptionNtNtCsc29TF2YcYso_3syn5token4AutoENtNtB1a_5error5ErrorEINtNtNtB7_3ops9try_trait12FromResidualIBy_NtNtB7_7convert10InfallibleB1E_EE13from_residualB1a_, symObjAddr: 0xFC64, symBinAddr: 0x57D28, symSize: 0x40 }
  - { offset: 0xD15E6, size: 0x8, addend: 0x0, symName: __RNvXsq_NtCsaNl6UpbT7bw_4core6resultINtB5_6ResultINtNtB7_6option6OptionNtNtCsc29TF2YcYso_3syn5token4MoveENtNtB1a_5error5ErrorEINtNtNtB7_3ops9try_trait12FromResidualIBy_NtNtB7_7convert10InfallibleB1E_EE13from_residualB1a_, symObjAddr: 0xFCA4, symBinAddr: 0x57D68, symSize: 0x40 }
  - { offset: 0xD166B, size: 0x8, addend: 0x0, symName: __RNvXsq_NtCsaNl6UpbT7bw_4core6resultINtB5_6ResultINtNtB7_6option6OptionNtNtCsc29TF2YcYso_3syn5token4PlusENtNtB1a_5error5ErrorEINtNtNtB7_3ops9try_trait12FromResidualIBy_NtNtB7_7convert10InfallibleB1E_EE13from_residualB1a_, symObjAddr: 0xFCE4, symBinAddr: 0x57DA8, symSize: 0x40 }
  - { offset: 0xD16F0, size: 0x8, addend: 0x0, symName: __RNvXsq_NtCsaNl6UpbT7bw_4core6resultINtB5_6ResultINtNtB7_6option6OptionNtNtCsc29TF2YcYso_3syn5token4SemiENtNtB1a_5error5ErrorEINtNtNtB7_3ops9try_trait12FromResidualIBy_NtNtB7_7convert10InfallibleB1E_EE13from_residualB1a_, symObjAddr: 0xFD24, symBinAddr: 0x57DE8, symSize: 0x40 }
  - { offset: 0xD1775, size: 0x8, addend: 0x0, symName: __RNvXsq_NtCsaNl6UpbT7bw_4core6resultINtB5_6ResultINtNtB7_6option6OptionNtNtCsc29TF2YcYso_3syn5token4StarENtNtB1a_5error5ErrorEINtNtNtB7_3ops9try_trait12FromResidualIBy_NtNtB7_7convert10InfallibleB1E_EE13from_residualB1a_, symObjAddr: 0xFD64, symBinAddr: 0x57E28, symSize: 0x40 }
  - { offset: 0xD17FA, size: 0x8, addend: 0x0, symName: __RNvXsq_NtCsaNl6UpbT7bw_4core6resultINtB5_6ResultINtNtB7_6option6OptionNtNtCsc29TF2YcYso_3syn5token5AsyncENtNtB1a_5error5ErrorEINtNtNtB7_3ops9try_trait12FromResidualIBy_NtNtB7_7convert10InfallibleB1F_EE13from_residualB1a_, symObjAddr: 0xFDA4, symBinAddr: 0x57E68, symSize: 0x40 }
  - { offset: 0xD187F, size: 0x8, addend: 0x0, symName: __RNvXsq_NtCsaNl6UpbT7bw_4core6resultINtB5_6ResultINtNtB7_6option6OptionNtNtCsc29TF2YcYso_3syn5token5AwaitENtNtB1a_5error5ErrorEINtNtNtB7_3ops9try_trait12FromResidualIBy_NtNtB7_7convert10InfallibleB1F_EE13from_residualB1a_, symObjAddr: 0xFDE4, symBinAddr: 0x57EA8, symSize: 0x40 }
  - { offset: 0xD1904, size: 0x8, addend: 0x0, symName: __RNvXsq_NtCsaNl6UpbT7bw_4core6resultINtB5_6ResultINtNtB7_6option6OptionNtNtCsc29TF2YcYso_3syn5token5ColonENtNtB1a_5error5ErrorEINtNtNtB7_3ops9try_trait12FromResidualIBy_NtNtB7_7convert10InfallibleB1F_EE13from_residualB1a_, symObjAddr: 0xFE24, symBinAddr: 0x57EE8, symSize: 0x40 }
  - { offset: 0xD1989, size: 0x8, addend: 0x0, symName: __RNvXsq_NtCsaNl6UpbT7bw_4core6resultINtB5_6ResultINtNtB7_6option6OptionNtNtCsc29TF2YcYso_3syn5token5CommaENtNtB1a_5error5ErrorEINtNtNtB7_3ops9try_trait12FromResidualIBy_NtNtB7_7convert10InfallibleB1F_EE13from_residualB1a_, symObjAddr: 0xFE64, symBinAddr: 0x57F28, symSize: 0x40 }
  - { offset: 0xD1A0E, size: 0x8, addend: 0x0, symName: __RNvXsq_NtCsaNl6UpbT7bw_4core6resultINtB5_6ResultINtNtB7_6option6OptionNtNtCsc29TF2YcYso_3syn5token5ConstENtNtB1a_5error5ErrorEINtNtNtB7_3ops9try_trait12FromResidualIBy_NtNtB7_7convert10InfallibleB1F_EE13from_residualB1a_, symObjAddr: 0xFEA4, symBinAddr: 0x57F68, symSize: 0x40 }
  - { offset: 0xD1A93, size: 0x8, addend: 0x0, symName: __RNvXsq_NtCsaNl6UpbT7bw_4core6resultINtB5_6ResultINtNtB7_6option6OptionNtNtCsc29TF2YcYso_3syn5token6StaticENtNtB1a_5error5ErrorEINtNtNtB7_3ops9try_trait12FromResidualIBy_NtNtB7_7convert10InfallibleB1G_EE13from_residualB1a_, symObjAddr: 0xFEE4, symBinAddr: 0x57FA8, symSize: 0x40 }
  - { offset: 0xD1B18, size: 0x8, addend: 0x0, symName: __RNvXsq_NtCsaNl6UpbT7bw_4core6resultINtB5_6ResultINtNtB7_6option6OptionNtNtCsc29TF2YcYso_3syn5token6UnsafeENtNtB1a_5error5ErrorEINtNtNtB7_3ops9try_trait12FromResidualIBy_NtNtB7_7convert10InfallibleB1G_EE13from_residualB1a_, symObjAddr: 0xFF24, symBinAddr: 0x57FE8, symSize: 0x40 }
  - { offset: 0xD1B9D, size: 0x8, addend: 0x0, symName: __RNvXsq_NtCsaNl6UpbT7bw_4core6resultINtB5_6ResultINtNtB7_6option6OptionNtNtCsc29TF2YcYso_3syn5token7DefaultENtNtB1a_5error5ErrorEINtNtNtB7_3ops9try_trait12FromResidualIBy_NtNtB7_7convert10InfallibleB1H_EE13from_residualB1a_, symObjAddr: 0xFF64, symBinAddr: 0x58028, symSize: 0x40 }
  - { offset: 0xD1C22, size: 0x8, addend: 0x0, symName: __RNvXsq_NtCsaNl6UpbT7bw_4core6resultINtB5_6ResultINtNtB7_6option6OptionNtNtCsc29TF2YcYso_3syn5token7PathSepENtNtB1a_5error5ErrorEINtNtNtB7_3ops9try_trait12FromResidualIBy_NtNtB7_7convert10InfallibleB1H_EE13from_residualB1a_, symObjAddr: 0xFFA4, symBinAddr: 0x58068, symSize: 0x40 }
  - { offset: 0xD1CA7, size: 0x8, addend: 0x0, symName: __RNvXsq_NtCsaNl6UpbT7bw_4core6resultINtB5_6ResultINtNtB7_6option6OptionNtNtCsc29TF2YcYso_3syn5token8QuestionENtNtB1a_5error5ErrorEINtNtNtB7_3ops9try_trait12FromResidualIBy_NtNtB7_7convert10InfallibleB1I_EE13from_residualB1a_, symObjAddr: 0xFFE4, symBinAddr: 0x580A8, symSize: 0x40 }
  - { offset: 0xD1D2C, size: 0x8, addend: 0x0, symName: __RNvXsq_NtCsaNl6UpbT7bw_4core6resultINtB5_6ResultINtNtB7_6option6OptionNtNtCsc29TF2YcYso_3syn5token9DotDotDotENtNtB1a_5error5ErrorEINtNtNtB7_3ops9try_trait12FromResidualIBy_NtNtB7_7convert10InfallibleB1J_EE13from_residualB1a_, symObjAddr: 0x10024, symBinAddr: 0x580E8, symSize: 0x40 }
  - { offset: 0xD1DB1, size: 0x8, addend: 0x0, symName: __RNvXsq_NtCsaNl6UpbT7bw_4core6resultINtB5_6ResultINtNtB7_6option6OptionNtNtCsc29TF2YcYso_3syn8generics10TraitBoundENtNtB1a_5error5ErrorEINtNtNtB7_3ops9try_trait12FromResidualIBy_NtNtB7_7convert10InfallibleB1O_EE13from_residualB1a_, symObjAddr: 0x10064, symBinAddr: 0x58128, symSize: 0x48 }
  - { offset: 0xD1E36, size: 0x8, addend: 0x0, symName: __RNvXsq_NtCsaNl6UpbT7bw_4core6resultINtB5_6ResultINtNtB7_6option6OptionNtNtCsc29TF2YcYso_3syn8lifetime8LifetimeENtNtB1a_5error5ErrorEINtNtNtB7_3ops9try_trait12FromResidualIBy_NtNtB7_7convert10InfallibleB1L_EE13from_residualB1a_, symObjAddr: 0x100AC, symBinAddr: 0x58170, symSize: 0x48 }
  - { offset: 0xD1EBB, size: 0x8, addend: 0x0, symName: __RNvXsq_NtCsaNl6UpbT7bw_4core6resultINtB5_6ResultINtNtB7_6option6OptionNtNtNtCsc29TF2YcYso_3syn3pat7parsing13PatRangeBoundENtNtB1c_5error5ErrorEINtNtNtB7_3ops9try_trait12FromResidualIBy_NtNtB7_7convert10InfallibleB1W_EE13from_residualB1c_, symObjAddr: 0x100F4, symBinAddr: 0x581B8, symSize: 0x48 }
  - { offset: 0xD1F40, size: 0x8, addend: 0x0, symName: __RNvXsq_NtCsaNl6UpbT7bw_4core6resultINtB5_6ResultINtNtB7_6option6OptionTNtNtCsc29TF2YcYso_3syn5token2EqNtNtB1b_2ty4TypeEENtNtB1b_5error5ErrorEINtNtNtB7_3ops9try_trait12FromResidualIBy_NtNtB7_7convert10InfallibleB1U_EE13from_residualB1b_, symObjAddr: 0x1013C, symBinAddr: 0x58200, symSize: 0x48 }
  - { offset: 0xD1FC5, size: 0x8, addend: 0x0, symName: __RNvXsq_NtCsaNl6UpbT7bw_4core6resultINtB5_6ResultINtNtCsc29TF2YcYso_3syn10punctuated10PunctuatedNtNtBP_2ty4TypeNtNtBP_5token5CommaENtNtBP_5error5ErrorEINtNtNtB7_3ops9try_trait12FromResidualIBy_NtNtB7_7convert10InfallibleB24_EE13from_residualBP_, symObjAddr: 0x10184, symBinAddr: 0x58248, symSize: 0x48 }
  - { offset: 0xD204A, size: 0x8, addend: 0x0, symName: __RNvXsq_NtCsaNl6UpbT7bw_4core6resultINtB5_6ResultINtNtCsc29TF2YcYso_3syn10punctuated10PunctuatedNtNtBP_4data5FieldNtNtBP_5token5CommaENtNtBP_5error5ErrorEINtNtNtB7_3ops9try_trait12FromResidualIBy_NtNtB7_7convert10InfallibleB27_EE13from_residualBP_, symObjAddr: 0x101CC, symBinAddr: 0x58290, symSize: 0x48 }
  - { offset: 0xD20CF, size: 0x8, addend: 0x0, symName: __RNvXsq_NtCsaNl6UpbT7bw_4core6resultINtB5_6ResultINtNtCsc29TF2YcYso_3syn10punctuated10PunctuatedNtNtBP_4data7VariantNtNtBP_5token5CommaENtNtBP_5error5ErrorEINtNtNtB7_3ops9try_trait12FromResidualIBy_NtNtB7_7convert10InfallibleB29_EE13from_residualBP_, symObjAddr: 0x10214, symBinAddr: 0x582D8, symSize: 0x48 }
  - { offset: 0xD2154, size: 0x8, addend: 0x0, symName: __RNvXsq_NtCsaNl6UpbT7bw_4core6resultINtB5_6ResultINtNtCsc29TF2YcYso_3syn10punctuated10PunctuatedNtNtBP_4expr4ExprNtNtBP_5token5CommaENtNtBP_5error5ErrorEINtNtNtB7_3ops9try_trait12FromResidualIBy_NtNtB7_7convert10InfallibleB26_EE13from_residualBP_, symObjAddr: 0x1025C, symBinAddr: 0x58320, symSize: 0x48 }
  - { offset: 0xD21D9, size: 0x8, addend: 0x0, symName: __RNvXsq_NtCsaNl6UpbT7bw_4core6resultINtB5_6ResultINtNtCsc29TF2YcYso_3syn10punctuated10PunctuatedNtNtBP_8generics14TypeParamBoundNtNtBP_5token4PlusENtNtBP_5error5ErrorEINtNtNtB7_3ops9try_trait12FromResidualIBy_NtNtB7_7convert10InfallibleB2k_EE13from_residualBP_, symObjAddr: 0x102A4, symBinAddr: 0x58368, symSize: 0x48 }
  - { offset: 0xD225E, size: 0x8, addend: 0x0, symName: __RNvXsq_NtCsaNl6UpbT7bw_4core6resultINtB5_6ResultINtNtCsiTraAjBDcu4_5alloc3vec3VecNtNtCsc29TF2YcYso_3syn4attr9AttributeENtNtB1l_5error5ErrorEINtNtNtB7_3ops9try_trait12FromResidualIBy_NtNtB7_7convert10InfallibleB1T_EE13from_residualB1l_, symObjAddr: 0x102EC, symBinAddr: 0x583B0, symSize: 0x48 }
  - { offset: 0xD22E3, size: 0x8, addend: 0x0, symName: __RNvXsq_NtCsaNl6UpbT7bw_4core6resultINtB5_6ResultINtNtCsiTraAjBDcu4_5alloc3vec3VecNtNtCsc29TF2YcYso_3syn4expr3ArmENtNtB1l_5error5ErrorEINtNtNtB7_3ops9try_trait12FromResidualIBy_NtNtB7_7convert10InfallibleB1N_EE13from_residualB1l_, symObjAddr: 0x10334, symBinAddr: 0x583F8, symSize: 0x48 }
  - { offset: 0xD2368, size: 0x8, addend: 0x0, symName: __RNvXsq_NtCsaNl6UpbT7bw_4core6resultINtB5_6ResultINtNtCsiTraAjBDcu4_5alloc3vec3VecNtNtCsc29TF2YcYso_3syn4stmt4StmtENtNtB1l_5error5ErrorEINtNtNtB7_3ops9try_trait12FromResidualIBy_NtNtB7_7convert10InfallibleB1O_EE13from_residualB1l_, symObjAddr: 0x1037C, symBinAddr: 0x58440, symSize: 0x48 }
  - { offset: 0xD23ED, size: 0x8, addend: 0x0, symName: __RNvXsq_NtCsaNl6UpbT7bw_4core6resultINtB5_6ResultINtNtCsiTraAjBDcu4_5alloc5boxed3BoxNtNtCsc29TF2YcYso_3syn4expr4ExprENtNtB1n_5error5ErrorEINtNtNtB7_3ops9try_trait12FromResidualIBy_NtNtB7_7convert10InfallibleB1Q_EE13from_residualB1n_, symObjAddr: 0x103C4, symBinAddr: 0x58488, symSize: 0x40 }
  - { offset: 0xD2472, size: 0x8, addend: 0x0, symName: __RNvXsq_NtCsaNl6UpbT7bw_4core6resultINtB5_6ResultNtCshnvkK9b4wzu_11proc_macro211TokenStreamNtNtCsc29TF2YcYso_3syn5error5ErrorEINtNtNtB7_3ops9try_trait12FromResidualIBy_NtNtB7_7convert10InfallibleB1q_EE13from_residualB1u_, symObjAddr: 0x10404, symBinAddr: 0x584C8, symSize: 0x48 }
  - { offset: 0xD24F7, size: 0x8, addend: 0x0, symName: __RNvXsq_NtCsaNl6UpbT7bw_4core6resultINtB5_6ResultNtCshnvkK9b4wzu_11proc_macro24SpanNtNtCsc29TF2YcYso_3syn5error5ErrorEINtNtNtB7_3ops9try_trait12FromResidualIBy_NtNtB7_7convert10InfallibleB1i_EE13from_residualB1m_, symObjAddr: 0x1044C, symBinAddr: 0x58510, symSize: 0x40 }
  - { offset: 0xD257C, size: 0x8, addend: 0x0, symName: __RNvXsq_NtCsaNl6UpbT7bw_4core6resultINtB5_6ResultNtCshnvkK9b4wzu_11proc_macro25IdentNtNtCsc29TF2YcYso_3syn5error5ErrorEINtNtNtB7_3ops9try_trait12FromResidualIBy_NtNtB7_7convert10InfallibleB1j_EE13from_residualB1n_, symObjAddr: 0x104D4, symBinAddr: 0x58550, symSize: 0x48 }
  - { offset: 0xD2601, size: 0x8, addend: 0x0, symName: __RNvXsq_NtCsaNl6UpbT7bw_4core6resultINtB5_6ResultNtNtCsc29TF2YcYso_3syn11restriction10VisibilityNtNtBO_5error5ErrorEINtNtNtB7_3ops9try_trait12FromResidualIBy_NtNtB7_7convert10InfallibleB1v_EE13from_residualBO_, symObjAddr: 0x105EC, symBinAddr: 0x58598, symSize: 0x48 }
  - { offset: 0xD2686, size: 0x8, addend: 0x0, symName: __RNvXsq_NtCsaNl6UpbT7bw_4core6resultINtB5_6ResultNtNtCsc29TF2YcYso_3syn2ty10ReturnTypeNtNtBO_5error5ErrorEINtNtNtB7_3ops9try_trait12FromResidualIBy_NtNtB7_7convert10InfallibleB1l_EE13from_residualBO_, symObjAddr: 0x10634, symBinAddr: 0x585E0, symSize: 0x40 }
  - { offset: 0xD270B, size: 0x8, addend: 0x0, symName: __RNvXsq_NtCsaNl6UpbT7bw_4core6resultINtB5_6ResultNtNtCsc29TF2YcYso_3syn2ty10TypeBareFnNtNtBO_5error5ErrorEINtNtNtB7_3ops9try_trait12FromResidualIBy_NtNtB7_7convert10InfallibleB1l_EE13from_residualBO_, symObjAddr: 0x10674, symBinAddr: 0x58620, symSize: 0x48 }
  - { offset: 0xD2790, size: 0x8, addend: 0x0, symName: __RNvXsq_NtCsaNl6UpbT7bw_4core6resultINtB5_6ResultNtNtCsc29TF2YcYso_3syn2ty12BareVariadicNtNtBO_5error5ErrorEINtNtNtB7_3ops9try_trait12FromResidualIBy_NtNtB7_7convert10InfallibleB1n_EE13from_residualBO_, symObjAddr: 0x106BC, symBinAddr: 0x58668, symSize: 0x48 }
  - { offset: 0xD2815, size: 0x8, addend: 0x0, symName: __RNvXsq_NtCsaNl6UpbT7bw_4core6resultINtB5_6ResultNtNtCsc29TF2YcYso_3syn2ty13TypeImplTraitNtNtBO_5error5ErrorEINtNtNtB7_3ops9try_trait12FromResidualIBy_NtNtB7_7convert10InfallibleB1o_EE13from_residualBO_, symObjAddr: 0x10704, symBinAddr: 0x586B0, symSize: 0x48 }
  - { offset: 0xD289A, size: 0x8, addend: 0x0, symName: __RNvXsq_NtCsaNl6UpbT7bw_4core6resultINtB5_6ResultNtNtCsc29TF2YcYso_3syn2ty13TypeReferenceNtNtBO_5error5ErrorEINtNtNtB7_3ops9try_trait12FromResidualIBy_NtNtB7_7convert10InfallibleB1o_EE13from_residualBO_, symObjAddr: 0x1074C, symBinAddr: 0x586F8, symSize: 0x48 }
  - { offset: 0xD291F, size: 0x8, addend: 0x0, symName: __RNvXsq_NtCsaNl6UpbT7bw_4core6resultINtB5_6ResultNtNtCsc29TF2YcYso_3syn2ty15TypeTraitObjectNtNtBO_5error5ErrorEINtNtNtB7_3ops9try_trait12FromResidualIBy_NtNtB7_7convert10InfallibleB1q_EE13from_residualBO_, symObjAddr: 0x10794, symBinAddr: 0x58740, symSize: 0x48 }
  - { offset: 0xD29A4, size: 0x8, addend: 0x0, symName: __RNvXsq_NtCsaNl6UpbT7bw_4core6resultINtB5_6ResultNtNtCsc29TF2YcYso_3syn2ty3AbiNtNtBO_5error5ErrorEINtNtNtB7_3ops9try_trait12FromResidualIBy_NtNtB7_7convert10InfallibleB1d_EE13from_residualBO_, symObjAddr: 0x107DC, symBinAddr: 0x58788, symSize: 0x40 }
  - { offset: 0xD2A29, size: 0x8, addend: 0x0, symName: __RNvXsq_NtCsaNl6UpbT7bw_4core6resultINtB5_6ResultNtNtCsc29TF2YcYso_3syn2ty4TypeNtNtBO_5error5ErrorEINtNtNtB7_3ops9try_trait12FromResidualIBy_NtNtB7_7convert10InfallibleB1e_EE13from_residualBO_, symObjAddr: 0x1081C, symBinAddr: 0x587C8, symSize: 0x48 }
  - { offset: 0xD2AAE, size: 0x8, addend: 0x0, symName: __RNvXsq_NtCsaNl6UpbT7bw_4core6resultINtB5_6ResultNtNtCsc29TF2YcYso_3syn2ty7TypePtrNtNtBO_5error5ErrorEINtNtNtB7_3ops9try_trait12FromResidualIBy_NtNtB7_7convert10InfallibleB1h_EE13from_residualBO_, symObjAddr: 0x10864, symBinAddr: 0x58810, symSize: 0x48 }
  - { offset: 0xD2B33, size: 0x8, addend: 0x0, symName: __RNvXsq_NtCsaNl6UpbT7bw_4core6resultINtB5_6ResultNtNtCsc29TF2YcYso_3syn2ty8TypePathNtNtBO_5error5ErrorEINtNtNtB7_3ops9try_trait12FromResidualIBy_NtNtB7_7convert10InfallibleB1i_EE13from_residualBO_, symObjAddr: 0x108AC, symBinAddr: 0x58858, symSize: 0x48 }
  - { offset: 0xD2BB8, size: 0x8, addend: 0x0, symName: __RNvXsq_NtCsaNl6UpbT7bw_4core6resultINtB5_6ResultNtNtCsc29TF2YcYso_3syn2ty9BareFnArgNtNtBO_5error5ErrorEINtNtNtB7_3ops9try_trait12FromResidualIBy_NtNtB7_7convert10InfallibleB1j_EE13from_residualBO_, symObjAddr: 0x108F4, symBinAddr: 0x588A0, symSize: 0x48 }
  - { offset: 0xD2C3D, size: 0x8, addend: 0x0, symName: __RNvXsq_NtCsaNl6UpbT7bw_4core6resultINtB5_6ResultNtNtCsc29TF2YcYso_3syn2ty9TypeGroupNtNtBO_5error5ErrorEINtNtNtB7_3ops9try_trait12FromResidualIBy_NtNtB7_7convert10InfallibleB1j_EE13from_residualBO_, symObjAddr: 0x10984, symBinAddr: 0x588E8, symSize: 0x40 }
  - { offset: 0xD2CC2, size: 0x8, addend: 0x0, symName: __RNvXsq_NtCsaNl6UpbT7bw_4core6resultINtB5_6ResultNtNtCsc29TF2YcYso_3syn2ty9TypeInferNtNtBO_5error5ErrorEINtNtNtB7_3ops9try_trait12FromResidualIBy_NtNtB7_7convert10InfallibleB1j_EE13from_residualBO_, symObjAddr: 0x109C4, symBinAddr: 0x58928, symSize: 0x40 }
  - { offset: 0xD2D47, size: 0x8, addend: 0x0, symName: __RNvXsq_NtCsaNl6UpbT7bw_4core6resultINtB5_6ResultNtNtCsc29TF2YcYso_3syn2ty9TypeNeverNtNtBO_5error5ErrorEINtNtNtB7_3ops9try_trait12FromResidualIBy_NtNtB7_7convert10InfallibleB1j_EE13from_residualBO_, symObjAddr: 0x10A4C, symBinAddr: 0x58968, symSize: 0x40 }
  - { offset: 0xD2DCC, size: 0x8, addend: 0x0, symName: __RNvXsq_NtCsaNl6UpbT7bw_4core6resultINtB5_6ResultNtNtCsc29TF2YcYso_3syn3lit3LitNtNtBO_5error5ErrorEINtNtNtB7_3ops9try_trait12FromResidualIBy_NtNtB7_7convert10InfallibleB1e_EE13from_residualBO_, symObjAddr: 0x10B64, symBinAddr: 0x589A8, symSize: 0x48 }
  - { offset: 0xD2E51, size: 0x8, addend: 0x0, symName: __RNvXsq_NtCsaNl6UpbT7bw_4core6resultINtB5_6ResultNtNtCsc29TF2YcYso_3syn3mac5MacroNtNtBO_5error5ErrorEINtNtNtB7_3ops9try_trait12FromResidualIBy_NtNtB7_7convert10InfallibleB1g_EE13from_residualBO_, symObjAddr: 0x10BAC, symBinAddr: 0x589F0, symSize: 0x48 }
  - { offset: 0xD2ED6, size: 0x8, addend: 0x0, symName: __RNvXsq_NtCsaNl6UpbT7bw_4core6resultINtB5_6ResultNtNtCsc29TF2YcYso_3syn3pat12PatReferenceNtNtBO_5error5ErrorEINtNtNtB7_3ops9try_trait12FromResidualIBy_NtNtB7_7convert10InfallibleB1o_EE13from_residualBO_, symObjAddr: 0x10BF4, symBinAddr: 0x58A38, symSize: 0x48 }
  - { offset: 0xD2F5B, size: 0x8, addend: 0x0, symName: __RNvXsq_NtCsaNl6UpbT7bw_4core6resultINtB5_6ResultNtNtCsc29TF2YcYso_3syn3pat14PatTupleStructNtNtBO_5error5ErrorEINtNtNtB7_3ops9try_trait12FromResidualIBy_NtNtB7_7convert10InfallibleB1q_EE13from_residualBO_, symObjAddr: 0x10C3C, symBinAddr: 0x58A80, symSize: 0x48 }
  - { offset: 0xD2FE0, size: 0x8, addend: 0x0, symName: __RNvXsq_NtCsaNl6UpbT7bw_4core6resultINtB5_6ResultNtNtCsc29TF2YcYso_3syn3pat3PatNtNtBO_5error5ErrorEINtNtNtB7_3ops9try_trait12FromResidualIBy_NtNtB7_7convert10InfallibleB1e_EE13from_residualBO_, symObjAddr: 0x10C84, symBinAddr: 0x58AC8, symSize: 0x4C }
  - { offset: 0xD3065, size: 0x8, addend: 0x0, symName: __RNvXsq_NtCsaNl6UpbT7bw_4core6resultINtB5_6ResultNtNtCsc29TF2YcYso_3syn3pat7PatWildNtNtBO_5error5ErrorEINtNtNtB7_3ops9try_trait12FromResidualIBy_NtNtB7_7convert10InfallibleB1i_EE13from_residualBO_, symObjAddr: 0x10D18, symBinAddr: 0x58B14, symSize: 0x48 }
  - { offset: 0xD30EA, size: 0x8, addend: 0x0, symName: __RNvXsq_NtCsaNl6UpbT7bw_4core6resultINtB5_6ResultNtNtCsc29TF2YcYso_3syn3pat8FieldPatNtNtBO_5error5ErrorEINtNtNtB7_3ops9try_trait12FromResidualIBy_NtNtB7_7convert10InfallibleB1j_EE13from_residualBO_, symObjAddr: 0x10D60, symBinAddr: 0x58B5C, symSize: 0x48 }
  - { offset: 0xD316F, size: 0x8, addend: 0x0, symName: __RNvXsq_NtCsaNl6UpbT7bw_4core6resultINtB5_6ResultNtNtCsc29TF2YcYso_3syn3pat8PatIdentNtNtBO_5error5ErrorEINtNtNtB7_3ops9try_trait12FromResidualIBy_NtNtB7_7convert10InfallibleB1j_EE13from_residualBO_, symObjAddr: 0x10DA8, symBinAddr: 0x58BA4, symSize: 0x48 }
  - { offset: 0xD31F4, size: 0x8, addend: 0x0, symName: __RNvXsq_NtCsaNl6UpbT7bw_4core6resultINtB5_6ResultNtNtCsc29TF2YcYso_3syn3pat8PatSliceNtNtBO_5error5ErrorEINtNtNtB7_3ops9try_trait12FromResidualIBy_NtNtB7_7convert10InfallibleB1j_EE13from_residualBO_, symObjAddr: 0x10DF0, symBinAddr: 0x58BEC, symSize: 0x48 }
  - { offset: 0xD3279, size: 0x8, addend: 0x0, symName: __RNvXsq_NtCsaNl6UpbT7bw_4core6resultINtB5_6ResultNtNtCsc29TF2YcYso_3syn3pat9PatStructNtNtBO_5error5ErrorEINtNtNtB7_3ops9try_trait12FromResidualIBy_NtNtB7_7convert10InfallibleB1k_EE13from_residualBO_, symObjAddr: 0x10E38, symBinAddr: 0x58C34, symSize: 0x48 }
  - { offset: 0xD32FE, size: 0x8, addend: 0x0, symName: __RNvXsq_NtCsaNl6UpbT7bw_4core6resultINtB5_6ResultNtNtCsc29TF2YcYso_3syn4attr13MetaNameValueNtNtBO_5error5ErrorEINtNtNtB7_3ops9try_trait12FromResidualIBy_NtNtB7_7convert10InfallibleB1q_EE13from_residualBO_, symObjAddr: 0x10E80, symBinAddr: 0x58C7C, symSize: 0x48 }
  - { offset: 0xD3383, size: 0x8, addend: 0x0, symName: __RNvXsq_NtCsaNl6UpbT7bw_4core6resultINtB5_6ResultNtNtCsc29TF2YcYso_3syn4attr4MetaNtNtBO_5error5ErrorEINtNtNtB7_3ops9try_trait12FromResidualIBy_NtNtB7_7convert10InfallibleB1g_EE13from_residualBO_, symObjAddr: 0x10EC8, symBinAddr: 0x58CC4, symSize: 0x48 }
  - { offset: 0xD3408, size: 0x8, addend: 0x0, symName: __RNvXsq_NtCsaNl6UpbT7bw_4core6resultINtB5_6ResultNtNtCsc29TF2YcYso_3syn4attr8MetaListNtNtBO_5error5ErrorEINtNtNtB7_3ops9try_trait12FromResidualIBy_NtNtB7_7convert10InfallibleB1k_EE13from_residualBO_, symObjAddr: 0x10F10, symBinAddr: 0x58D0C, symSize: 0x48 }
  - { offset: 0xD348D, size: 0x8, addend: 0x0, symName: __RNvXsq_NtCsaNl6UpbT7bw_4core6resultINtB5_6ResultNtNtCsc29TF2YcYso_3syn4attr9AttributeNtNtBO_5error5ErrorEINtNtNtB7_3ops9try_trait12FromResidualIBy_NtNtB7_7convert10InfallibleB1l_EE13from_residualBO_, symObjAddr: 0x10F58, symBinAddr: 0x58D54, symSize: 0x48 }
  - { offset: 0xD3512, size: 0x8, addend: 0x0, symName: __RNvXsq_NtCsaNl6UpbT7bw_4core6resultINtB5_6ResultNtNtCsc29TF2YcYso_3syn4data11FieldsNamedNtNtBO_5error5ErrorEINtNtNtB7_3ops9try_trait12FromResidualIBy_NtNtB7_7convert10InfallibleB1o_EE13from_residualBO_, symObjAddr: 0x10FA0, symBinAddr: 0x58D9C, symSize: 0x48 }
  - { offset: 0xD3597, size: 0x8, addend: 0x0, symName: __RNvXsq_NtCsaNl6UpbT7bw_4core6resultINtB5_6ResultNtNtCsc29TF2YcYso_3syn4data13FieldsUnnamedNtNtBO_5error5ErrorEINtNtNtB7_3ops9try_trait12FromResidualIBy_NtNtB7_7convert10InfallibleB1q_EE13from_residualBO_, symObjAddr: 0x10FE8, symBinAddr: 0x58DE4, symSize: 0x48 }
  - { offset: 0xD361C, size: 0x8, addend: 0x0, symName: __RNvXsq_NtCsaNl6UpbT7bw_4core6resultINtB5_6ResultNtNtCsc29TF2YcYso_3syn4data5FieldNtNtBO_5error5ErrorEINtNtNtB7_3ops9try_trait12FromResidualIBy_NtNtB7_7convert10InfallibleB1h_EE13from_residualBO_, symObjAddr: 0x11030, symBinAddr: 0x58E2C, symSize: 0x48 }
  - { offset: 0xD36A1, size: 0x8, addend: 0x0, symName: __RNvXsq_NtCsaNl6UpbT7bw_4core6resultINtB5_6ResultNtNtCsc29TF2YcYso_3syn4data7VariantNtNtBO_5error5ErrorEINtNtNtB7_3ops9try_trait12FromResidualIBy_NtNtB7_7convert10InfallibleB1j_EE13from_residualBO_, symObjAddr: 0x11078, symBinAddr: 0x58E74, symSize: 0x48 }
  - { offset: 0xD3726, size: 0x8, addend: 0x0, symName: __RNvXsq_NtCsaNl6UpbT7bw_4core6resultINtB5_6ResultNtNtCsc29TF2YcYso_3syn4expr10ExprReturnNtNtBO_5error5ErrorEINtNtNtB7_3ops9try_trait12FromResidualIBy_NtNtB7_7convert10InfallibleB1n_EE13from_residualBO_, symObjAddr: 0x11198, symBinAddr: 0x58EBC, symSize: 0x48 }
  - { offset: 0xD37AB, size: 0x8, addend: 0x0, symName: __RNvXsq_NtCsaNl6UpbT7bw_4core6resultINtB5_6ResultNtNtCsc29TF2YcYso_3syn4expr10ExprStructNtNtBO_5error5ErrorEINtNtNtB7_3ops9try_trait12FromResidualIBy_NtNtB7_7convert10InfallibleB1n_EE13from_residualBO_, symObjAddr: 0x111E0, symBinAddr: 0x58F04, symSize: 0x48 }
  - { offset: 0xD3830, size: 0x8, addend: 0x0, symName: __RNvXsq_NtCsaNl6UpbT7bw_4core6resultINtB5_6ResultNtNtCsc29TF2YcYso_3syn4expr10ExprUnsafeNtNtBO_5error5ErrorEINtNtNtB7_3ops9try_trait12FromResidualIBy_NtNtB7_7convert10InfallibleB1n_EE13from_residualBO_, symObjAddr: 0x11228, symBinAddr: 0x58F4C, symSize: 0x48 }
  - { offset: 0xD38B5, size: 0x8, addend: 0x0, symName: __RNvXsq_NtCsaNl6UpbT7bw_4core6resultINtB5_6ResultNtNtCsc29TF2YcYso_3syn4expr10FieldValueNtNtBO_5error5ErrorEINtNtNtB7_3ops9try_trait12FromResidualIBy_NtNtB7_7convert10InfallibleB1n_EE13from_residualBO_, symObjAddr: 0x11270, symBinAddr: 0x58F94, symSize: 0x48 }
  - { offset: 0xD393A, size: 0x8, addend: 0x0, symName: __RNvXsq_NtCsaNl6UpbT7bw_4core6resultINtB5_6ResultNtNtCsc29TF2YcYso_3syn4expr11ExprClosureNtNtBO_5error5ErrorEINtNtNtB7_3ops9try_trait12FromResidualIBy_NtNtB7_7convert10InfallibleB1o_EE13from_residualBO_, symObjAddr: 0x112B8, symBinAddr: 0x58FDC, symSize: 0x48 }
  - { offset: 0xD39BF, size: 0x8, addend: 0x0, symName: __RNvXsq_NtCsaNl6UpbT7bw_4core6resultINtB5_6ResultNtNtCsc29TF2YcYso_3syn4expr11ExprForLoopNtNtBO_5error5ErrorEINtNtNtB7_3ops9try_trait12FromResidualIBy_NtNtB7_7convert10InfallibleB1o_EE13from_residualBO_, symObjAddr: 0x11300, symBinAddr: 0x59024, symSize: 0x48 }
  - { offset: 0xD3A44, size: 0x8, addend: 0x0, symName: __RNvXsq_NtCsaNl6UpbT7bw_4core6resultINtB5_6ResultNtNtCsc29TF2YcYso_3syn4expr11RangeLimitsNtNtBO_5error5ErrorEINtNtNtB7_3ops9try_trait12FromResidualIBy_NtNtB7_7convert10InfallibleB1o_EE13from_residualBO_, symObjAddr: 0x11390, symBinAddr: 0x5906C, symSize: 0x40 }
  - { offset: 0xD3AC9, size: 0x8, addend: 0x0, symName: __RNvXsq_NtCsaNl6UpbT7bw_4core6resultINtB5_6ResultNtNtCsc29TF2YcYso_3syn4expr12ExprContinueNtNtBO_5error5ErrorEINtNtNtB7_3ops9try_trait12FromResidualIBy_NtNtB7_7convert10InfallibleB1p_EE13from_residualBO_, symObjAddr: 0x113D0, symBinAddr: 0x590AC, symSize: 0x48 }
  - { offset: 0xD3B4E, size: 0x8, addend: 0x0, symName: __RNvXsq_NtCsaNl6UpbT7bw_4core6resultINtB5_6ResultNtNtCsc29TF2YcYso_3syn4expr12ExprTryBlockNtNtBO_5error5ErrorEINtNtNtB7_3ops9try_trait12FromResidualIBy_NtNtB7_7convert10InfallibleB1p_EE13from_residualBO_, symObjAddr: 0x11418, symBinAddr: 0x590F4, symSize: 0x48 }
  - { offset: 0xD3BD3, size: 0x8, addend: 0x0, symName: __RNvXsq_NtCsaNl6UpbT7bw_4core6resultINtB5_6ResultNtNtCsc29TF2YcYso_3syn4expr3ArmNtNtBO_5error5ErrorEINtNtNtB7_3ops9try_trait12FromResidualIBy_NtNtB7_7convert10InfallibleB1f_EE13from_residualBO_, symObjAddr: 0x11530, symBinAddr: 0x5913C, symSize: 0x48 }
  - { offset: 0xD3C58, size: 0x8, addend: 0x0, symName: __RNvXsq_NtCsaNl6UpbT7bw_4core6resultINtB5_6ResultNtNtCsc29TF2YcYso_3syn4expr4ExprNtNtBO_5error5ErrorEINtNtNtB7_3ops9try_trait12FromResidualIBy_NtNtB7_7convert10InfallibleB1g_EE13from_residualBO_, symObjAddr: 0x11578, symBinAddr: 0x59184, symSize: 0x48 }
  - { offset: 0xD3CDD, size: 0x8, addend: 0x0, symName: __RNvXsq_NtCsaNl6UpbT7bw_4core6resultINtB5_6ResultNtNtCsc29TF2YcYso_3syn4expr5IndexNtNtBO_5error5ErrorEINtNtNtB7_3ops9try_trait12FromResidualIBy_NtNtB7_7convert10InfallibleB1h_EE13from_residualBO_, symObjAddr: 0x115C0, symBinAddr: 0x591CC, symSize: 0x40 }
  - { offset: 0xD3D62, size: 0x8, addend: 0x0, symName: __RNvXsq_NtCsaNl6UpbT7bw_4core6resultINtB5_6ResultNtNtCsc29TF2YcYso_3syn4expr5IndexNtNtBO_5error5ErrorEINtNtNtB7_3ops9try_trait12FromResidualIBy_NtNtB7_7convert10InfallibleNtCshnvkK9b4wzu_11proc_macro28LexErrorEE13from_residualBO_, symObjAddr: 0x11600, symBinAddr: 0x5920C, symSize: 0x44 }
  - { offset: 0xD3DC9, size: 0x8, addend: 0x0, symName: __RNvXsq_NtCsaNl6UpbT7bw_4core6resultINtB5_6ResultNtNtCsc29TF2YcYso_3syn4expr5LabelNtNtBO_5error5ErrorEINtNtNtB7_3ops9try_trait12FromResidualIBy_NtNtB7_7convert10InfallibleB1h_EE13from_residualBO_, symObjAddr: 0x11644, symBinAddr: 0x59250, symSize: 0x48 }
  - { offset: 0xD3E4E, size: 0x8, addend: 0x0, symName: __RNvXsq_NtCsaNl6UpbT7bw_4core6resultINtB5_6ResultNtNtCsc29TF2YcYso_3syn4expr6ExprIfNtNtBO_5error5ErrorEINtNtNtB7_3ops9try_trait12FromResidualIBy_NtNtB7_7convert10InfallibleB1i_EE13from_residualBO_, symObjAddr: 0x1168C, symBinAddr: 0x59298, symSize: 0x48 }
  - { offset: 0xD3ED3, size: 0x8, addend: 0x0, symName: __RNvXsq_NtCsaNl6UpbT7bw_4core6resultINtB5_6ResultNtNtCsc29TF2YcYso_3syn4expr7ExprLetNtNtBO_5error5ErrorEINtNtNtB7_3ops9try_trait12FromResidualIBy_NtNtB7_7convert10InfallibleB1j_EE13from_residualBO_, symObjAddr: 0x116D4, symBinAddr: 0x592E0, symSize: 0x48 }
  - { offset: 0xD3F58, size: 0x8, addend: 0x0, symName: __RNvXsq_NtCsaNl6UpbT7bw_4core6resultINtB5_6ResultNtNtCsc29TF2YcYso_3syn4expr7ExprLitNtNtBO_5error5ErrorEINtNtNtB7_3ops9try_trait12FromResidualIBy_NtNtB7_7convert10InfallibleB1j_EE13from_residualBO_, symObjAddr: 0x1171C, symBinAddr: 0x59328, symSize: 0x48 }
  - { offset: 0xD3FDD, size: 0x8, addend: 0x0, symName: __RNvXsq_NtCsaNl6UpbT7bw_4core6resultINtB5_6ResultNtNtCsc29TF2YcYso_3syn4expr8ExprLoopNtNtBO_5error5ErrorEINtNtNtB7_3ops9try_trait12FromResidualIBy_NtNtB7_7convert10InfallibleB1k_EE13from_residualBO_, symObjAddr: 0x1183C, symBinAddr: 0x59370, symSize: 0x48 }
  - { offset: 0xD4062, size: 0x8, addend: 0x0, symName: __RNvXsq_NtCsaNl6UpbT7bw_4core6resultINtB5_6ResultNtNtCsc29TF2YcYso_3syn4expr8ExprPathNtNtBO_5error5ErrorEINtNtNtB7_3ops9try_trait12FromResidualIBy_NtNtB7_7convert10InfallibleB1k_EE13from_residualBO_, symObjAddr: 0x11884, symBinAddr: 0x593B8, symSize: 0x48 }
  - { offset: 0xD40E7, size: 0x8, addend: 0x0, symName: __RNvXsq_NtCsaNl6UpbT7bw_4core6resultINtB5_6ResultNtNtCsc29TF2YcYso_3syn4expr9ExprAsyncNtNtBO_5error5ErrorEINtNtNtB7_3ops9try_trait12FromResidualIBy_NtNtB7_7convert10InfallibleB1l_EE13from_residualBO_, symObjAddr: 0x11914, symBinAddr: 0x59400, symSize: 0x48 }
  - { offset: 0xD416C, size: 0x8, addend: 0x0, symName: __RNvXsq_NtCsaNl6UpbT7bw_4core6resultINtB5_6ResultNtNtCsc29TF2YcYso_3syn4expr9ExprBlockNtNtBO_5error5ErrorEINtNtNtB7_3ops9try_trait12FromResidualIBy_NtNtB7_7convert10InfallibleB1l_EE13from_residualBO_, symObjAddr: 0x119A4, symBinAddr: 0x59448, symSize: 0x48 }
  - { offset: 0xD41F1, size: 0x8, addend: 0x0, symName: __RNvXsq_NtCsaNl6UpbT7bw_4core6resultINtB5_6ResultNtNtCsc29TF2YcYso_3syn4expr9ExprBreakNtNtBO_5error5ErrorEINtNtNtB7_3ops9try_trait12FromResidualIBy_NtNtB7_7convert10InfallibleB1l_EE13from_residualBO_, symObjAddr: 0x119EC, symBinAddr: 0x59490, symSize: 0x48 }
  - { offset: 0xD4276, size: 0x8, addend: 0x0, symName: __RNvXsq_NtCsaNl6UpbT7bw_4core6resultINtB5_6ResultNtNtCsc29TF2YcYso_3syn4expr9ExprConstNtNtBO_5error5ErrorEINtNtNtB7_3ops9try_trait12FromResidualIBy_NtNtB7_7convert10InfallibleB1l_EE13from_residualBO_, symObjAddr: 0x11A34, symBinAddr: 0x594D8, symSize: 0x48 }
  - { offset: 0xD42FB, size: 0x8, addend: 0x0, symName: __RNvXsq_NtCsaNl6UpbT7bw_4core6resultINtB5_6ResultNtNtCsc29TF2YcYso_3syn4expr9ExprInferNtNtBO_5error5ErrorEINtNtNtB7_3ops9try_trait12FromResidualIBy_NtNtB7_7convert10InfallibleB1l_EE13from_residualBO_, symObjAddr: 0x11B0C, symBinAddr: 0x59520, symSize: 0x48 }
  - { offset: 0xD4380, size: 0x8, addend: 0x0, symName: __RNvXsq_NtCsaNl6UpbT7bw_4core6resultINtB5_6ResultNtNtCsc29TF2YcYso_3syn4expr9ExprMatchNtNtBO_5error5ErrorEINtNtNtB7_3ops9try_trait12FromResidualIBy_NtNtB7_7convert10InfallibleB1l_EE13from_residualBO_, symObjAddr: 0x11B9C, symBinAddr: 0x59568, symSize: 0x48 }
  - { offset: 0xD4405, size: 0x8, addend: 0x0, symName: __RNvXsq_NtCsaNl6UpbT7bw_4core6resultINtB5_6ResultNtNtCsc29TF2YcYso_3syn4expr9ExprRangeNtNtBO_5error5ErrorEINtNtNtB7_3ops9try_trait12FromResidualIBy_NtNtB7_7convert10InfallibleB1l_EE13from_residualBO_, symObjAddr: 0x11C2C, symBinAddr: 0x595B0, symSize: 0x48 }
  - { offset: 0xD448A, size: 0x8, addend: 0x0, symName: __RNvXsq_NtCsaNl6UpbT7bw_4core6resultINtB5_6ResultNtNtCsc29TF2YcYso_3syn4expr9ExprUnaryNtNtBO_5error5ErrorEINtNtNtB7_3ops9try_trait12FromResidualIBy_NtNtB7_7convert10InfallibleB1l_EE13from_residualBO_, symObjAddr: 0x11CBC, symBinAddr: 0x595F8, symSize: 0x48 }
  - { offset: 0xD450F, size: 0x8, addend: 0x0, symName: __RNvXsq_NtCsaNl6UpbT7bw_4core6resultINtB5_6ResultNtNtCsc29TF2YcYso_3syn4expr9ExprWhileNtNtBO_5error5ErrorEINtNtNtB7_3ops9try_trait12FromResidualIBy_NtNtB7_7convert10InfallibleB1l_EE13from_residualBO_, symObjAddr: 0x11D04, symBinAddr: 0x59640, symSize: 0x48 }
  - { offset: 0xD4594, size: 0x8, addend: 0x0, symName: __RNvXsq_NtCsaNl6UpbT7bw_4core6resultINtB5_6ResultNtNtCsc29TF2YcYso_3syn4expr9ExprYieldNtNtBO_5error5ErrorEINtNtNtB7_3ops9try_trait12FromResidualIBy_NtNtB7_7convert10InfallibleB1l_EE13from_residualBO_, symObjAddr: 0x11D4C, symBinAddr: 0x59688, symSize: 0x48 }
  - { offset: 0xD4619, size: 0x8, addend: 0x0, symName: __RNvXsq_NtCsaNl6UpbT7bw_4core6resultINtB5_6ResultNtNtCsc29TF2YcYso_3syn4item10ItemStructNtNtBO_5error5ErrorEINtNtNtB7_3ops9try_trait12FromResidualIBy_NtNtB7_7convert10InfallibleB1n_EE13from_residualBO_, symObjAddr: 0x11E70, symBinAddr: 0x596D0, symSize: 0x48 }
  - { offset: 0xD469E, size: 0x8, addend: 0x0, symName: __RNvXsq_NtCsaNl6UpbT7bw_4core6resultINtB5_6ResultNtNtCsc29TF2YcYso_3syn4item11ForeignItemNtNtBO_5error5ErrorEINtNtNtB7_3ops9try_trait12FromResidualIBy_NtNtB7_7convert10InfallibleB1o_EE13from_residualBO_, symObjAddr: 0x11EB8, symBinAddr: 0x59718, symSize: 0x48 }
  - { offset: 0xD4723, size: 0x8, addend: 0x0, symName: __RNvXsq_NtCsaNl6UpbT7bw_4core6resultINtB5_6ResultNtNtCsc29TF2YcYso_3syn4item11TraitItemFnNtNtBO_5error5ErrorEINtNtNtB7_3ops9try_trait12FromResidualIBy_NtNtB7_7convert10InfallibleB1o_EE13from_residualBO_, symObjAddr: 0x11F00, symBinAddr: 0x59760, symSize: 0x48 }
  - { offset: 0xD47A8, size: 0x8, addend: 0x0, symName: __RNvXsq_NtCsaNl6UpbT7bw_4core6resultINtB5_6ResultNtNtCsc29TF2YcYso_3syn4item13ImplItemMacroNtNtBO_5error5ErrorEINtNtNtB7_3ops9try_trait12FromResidualIBy_NtNtB7_7convert10InfallibleB1q_EE13from_residualBO_, symObjAddr: 0x12020, symBinAddr: 0x597A8, symSize: 0x48 }
  - { offset: 0xD482D, size: 0x8, addend: 0x0, symName: __RNvXsq_NtCsaNl6UpbT7bw_4core6resultINtB5_6ResultNtNtCsc29TF2YcYso_3syn4item14ItemForeignModNtNtBO_5error5ErrorEINtNtNtB7_3ops9try_trait12FromResidualIBy_NtNtB7_7convert10InfallibleB1r_EE13from_residualBO_, symObjAddr: 0x120B0, symBinAddr: 0x597F0, symSize: 0x48 }
  - { offset: 0xD48B2, size: 0x8, addend: 0x0, symName: __RNvXsq_NtCsaNl6UpbT7bw_4core6resultINtB5_6ResultNtNtCsc29TF2YcYso_3syn4item14ItemTraitAliasNtNtBO_5error5ErrorEINtNtNtB7_3ops9try_trait12FromResidualIBy_NtNtB7_7convert10InfallibleB1r_EE13from_residualBO_, symObjAddr: 0x120F8, symBinAddr: 0x59838, symSize: 0x48 }
  - { offset: 0xD4937, size: 0x8, addend: 0x0, symName: __RNvXsq_NtCsaNl6UpbT7bw_4core6resultINtB5_6ResultNtNtCsc29TF2YcYso_3syn4item14TraitItemMacroNtNtBO_5error5ErrorEINtNtNtB7_3ops9try_trait12FromResidualIBy_NtNtB7_7convert10InfallibleB1r_EE13from_residualBO_, symObjAddr: 0x12188, symBinAddr: 0x59880, symSize: 0x48 }
  - { offset: 0xD49BC, size: 0x8, addend: 0x0, symName: __RNvXsq_NtCsaNl6UpbT7bw_4core6resultINtB5_6ResultNtNtCsc29TF2YcYso_3syn4item15ItemExternCrateNtNtBO_5error5ErrorEINtNtNtB7_3ops9try_trait12FromResidualIBy_NtNtB7_7convert10InfallibleB1s_EE13from_residualBO_, symObjAddr: 0x12218, symBinAddr: 0x598C8, symSize: 0x48 }
  - { offset: 0xD4A41, size: 0x8, addend: 0x0, symName: __RNvXsq_NtCsaNl6UpbT7bw_4core6resultINtB5_6ResultNtNtCsc29TF2YcYso_3syn4item16ForeignItemMacroNtNtBO_5error5ErrorEINtNtNtB7_3ops9try_trait12FromResidualIBy_NtNtB7_7convert10InfallibleB1t_EE13from_residualBO_, symObjAddr: 0x12260, symBinAddr: 0x59910, symSize: 0x48 }
  - { offset: 0xD4AC6, size: 0x8, addend: 0x0, symName: __RNvXsq_NtCsaNl6UpbT7bw_4core6resultINtB5_6ResultNtNtCsc29TF2YcYso_3syn4item16StaticMutabilityNtNtBO_5error5ErrorEINtNtNtB7_3ops9try_trait12FromResidualIBy_NtNtB7_7convert10InfallibleB1t_EE13from_residualBO_, symObjAddr: 0x122A8, symBinAddr: 0x59958, symSize: 0x40 }
  - { offset: 0xD4B4B, size: 0x8, addend: 0x0, symName: __RNvXsq_NtCsaNl6UpbT7bw_4core6resultINtB5_6ResultNtNtCsc29TF2YcYso_3syn4item4ItemNtNtBO_5error5ErrorEINtNtNtB7_3ops9try_trait12FromResidualIBy_NtNtB7_7convert10InfallibleB1g_EE13from_residualBO_, symObjAddr: 0x12330, symBinAddr: 0x59998, symSize: 0x48 }
  - { offset: 0xD4BD0, size: 0x8, addend: 0x0, symName: __RNvXsq_NtCsaNl6UpbT7bw_4core6resultINtB5_6ResultNtNtCsc29TF2YcYso_3syn4item6ItemFnNtNtBO_5error5ErrorEINtNtNtB7_3ops9try_trait12FromResidualIBy_NtNtB7_7convert10InfallibleB1i_EE13from_residualBO_, symObjAddr: 0x123C0, symBinAddr: 0x599E0, symSize: 0x48 }
  - { offset: 0xD4C55, size: 0x8, addend: 0x0, symName: __RNvXsq_NtCsaNl6UpbT7bw_4core6resultINtB5_6ResultNtNtCsc29TF2YcYso_3syn4item7ItemModNtNtBO_5error5ErrorEINtNtNtB7_3ops9try_trait12FromResidualIBy_NtNtB7_7convert10InfallibleB1j_EE13from_residualBO_, symObjAddr: 0x12408, symBinAddr: 0x59A28, symSize: 0x48 }
  - { offset: 0xD4CDA, size: 0x8, addend: 0x0, symName: __RNvXsq_NtCsaNl6UpbT7bw_4core6resultINtB5_6ResultNtNtCsc29TF2YcYso_3syn4item8ImplItemNtNtBO_5error5ErrorEINtNtNtB7_3ops9try_trait12FromResidualIBy_NtNtB7_7convert10InfallibleB1k_EE13from_residualBO_, symObjAddr: 0x12450, symBinAddr: 0x59A70, symSize: 0x48 }
  - { offset: 0xD4D5F, size: 0x8, addend: 0x0, symName: __RNvXsq_NtCsaNl6UpbT7bw_4core6resultINtB5_6ResultNtNtCsc29TF2YcYso_3syn4item8ItemEnumNtNtBO_5error5ErrorEINtNtNtB7_3ops9try_trait12FromResidualIBy_NtNtB7_7convert10InfallibleB1k_EE13from_residualBO_, symObjAddr: 0x12498, symBinAddr: 0x59AB8, symSize: 0x48 }
  - { offset: 0xD4DE4, size: 0x8, addend: 0x0, symName: __RNvXsq_NtCsaNl6UpbT7bw_4core6resultINtB5_6ResultNtNtCsc29TF2YcYso_3syn4item8ReceiverNtNtBO_5error5ErrorEINtNtNtB7_3ops9try_trait12FromResidualIBy_NtNtB7_7convert10InfallibleB1k_EE13from_residualBO_, symObjAddr: 0x12528, symBinAddr: 0x59B00, symSize: 0x48 }
  - { offset: 0xD4E69, size: 0x8, addend: 0x0, symName: __RNvXsq_NtCsaNl6UpbT7bw_4core6resultINtB5_6ResultNtNtCsc29TF2YcYso_3syn4item9ItemMacroNtNtBO_5error5ErrorEINtNtNtB7_3ops9try_trait12FromResidualIBy_NtNtB7_7convert10InfallibleB1l_EE13from_residualBO_, symObjAddr: 0x125B8, symBinAddr: 0x59B48, symSize: 0x48 }
  - { offset: 0xD4EEE, size: 0x8, addend: 0x0, symName: __RNvXsq_NtCsaNl6UpbT7bw_4core6resultINtB5_6ResultNtNtCsc29TF2YcYso_3syn4item9ItemTraitNtNtBO_5error5ErrorEINtNtNtB7_3ops9try_trait12FromResidualIBy_NtNtB7_7convert10InfallibleB1l_EE13from_residualBO_, symObjAddr: 0x12600, symBinAddr: 0x59B90, symSize: 0x48 }
  - { offset: 0xD4F73, size: 0x8, addend: 0x0, symName: __RNvXsq_NtCsaNl6UpbT7bw_4core6resultINtB5_6ResultNtNtCsc29TF2YcYso_3syn4item9ItemUnionNtNtBO_5error5ErrorEINtNtNtB7_3ops9try_trait12FromResidualIBy_NtNtB7_7convert10InfallibleB1l_EE13from_residualBO_, symObjAddr: 0x12648, symBinAddr: 0x59BD8, symSize: 0x48 }
  - { offset: 0xD4FF8, size: 0x8, addend: 0x0, symName: __RNvXsq_NtCsaNl6UpbT7bw_4core6resultINtB5_6ResultNtNtCsc29TF2YcYso_3syn4item9TraitItemNtNtBO_5error5ErrorEINtNtNtB7_3ops9try_trait12FromResidualIBy_NtNtB7_7convert10InfallibleB1l_EE13from_residualBO_, symObjAddr: 0x12690, symBinAddr: 0x59C20, symSize: 0x48 }
  - { offset: 0xD507D, size: 0x8, addend: 0x0, symName: __RNvXsq_NtCsaNl6UpbT7bw_4core6resultINtB5_6ResultNtNtCsc29TF2YcYso_3syn4path11PathSegmentNtNtBO_5error5ErrorEINtNtNtB7_3ops9try_trait12FromResidualIBy_NtNtB7_7convert10InfallibleB1o_EE13from_residualBO_, symObjAddr: 0x126D8, symBinAddr: 0x59C68, symSize: 0x4C }
  - { offset: 0xD5102, size: 0x8, addend: 0x0, symName: __RNvXsq_NtCsaNl6UpbT7bw_4core6resultINtB5_6ResultNtNtCsc29TF2YcYso_3syn4path15GenericArgumentNtNtBO_5error5ErrorEINtNtNtB7_3ops9try_trait12FromResidualIBy_NtNtB7_7convert10InfallibleB1s_EE13from_residualBO_, symObjAddr: 0x12724, symBinAddr: 0x59CB4, symSize: 0x48 }
  - { offset: 0xD5187, size: 0x8, addend: 0x0, symName: __RNvXsq_NtCsaNl6UpbT7bw_4core6resultINtB5_6ResultNtNtCsc29TF2YcYso_3syn4path29ParenthesizedGenericArgumentsNtNtBO_5error5ErrorEINtNtNtB7_3ops9try_trait12FromResidualIBy_NtNtB7_7convert10InfallibleB1G_EE13from_residualBO_, symObjAddr: 0x1276C, symBinAddr: 0x59CFC, symSize: 0x48 }
  - { offset: 0xD520C, size: 0x8, addend: 0x0, symName: __RNvXsq_NtCsaNl6UpbT7bw_4core6resultINtB5_6ResultNtNtCsc29TF2YcYso_3syn4path30AngleBracketedGenericArgumentsNtNtBO_5error5ErrorEINtNtNtB7_3ops9try_trait12FromResidualIBy_NtNtB7_7convert10InfallibleB1H_EE13from_residualBO_, symObjAddr: 0x127B4, symBinAddr: 0x59D44, symSize: 0x48 }
  - { offset: 0xD5291, size: 0x8, addend: 0x0, symName: __RNvXsq_NtCsaNl6UpbT7bw_4core6resultINtB5_6ResultNtNtCsc29TF2YcYso_3syn4path4PathNtNtBO_5error5ErrorEINtNtNtB7_3ops9try_trait12FromResidualIBy_NtNtB7_7convert10InfallibleB1g_EE13from_residualBO_, symObjAddr: 0x127FC, symBinAddr: 0x59D8C, symSize: 0x48 }
  - { offset: 0xD5316, size: 0x8, addend: 0x0, symName: __RNvXsq_NtCsaNl6UpbT7bw_4core6resultINtB5_6ResultNtNtCsc29TF2YcYso_3syn4stmt4StmtNtNtBO_5error5ErrorEINtNtNtB7_3ops9try_trait12FromResidualIBy_NtNtB7_7convert10InfallibleB1g_EE13from_residualBO_, symObjAddr: 0x12844, symBinAddr: 0x59DD4, symSize: 0x48 }
  - { offset: 0xD539B, size: 0x8, addend: 0x0, symName: __RNvXsq_NtCsaNl6UpbT7bw_4core6resultINtB5_6ResultNtNtCsc29TF2YcYso_3syn4stmt5BlockNtNtBO_5error5ErrorEINtNtNtB7_3ops9try_trait12FromResidualIBy_NtNtB7_7convert10InfallibleB1h_EE13from_residualBO_, symObjAddr: 0x1288C, symBinAddr: 0x59E1C, symSize: 0x48 }
  - { offset: 0xD5420, size: 0x8, addend: 0x0, symName: __RNvXsq_NtCsaNl6UpbT7bw_4core6resultINtB5_6ResultNtNtCsc29TF2YcYso_3syn4stmt5LocalNtNtBO_5error5ErrorEINtNtNtB7_3ops9try_trait12FromResidualIBy_NtNtB7_7convert10InfallibleB1h_EE13from_residualBO_, symObjAddr: 0x128D4, symBinAddr: 0x59E64, symSize: 0x48 }
  - { offset: 0xD54A5, size: 0x8, addend: 0x0, symName: __RNvXsq_NtCsaNl6UpbT7bw_4core6resultINtB5_6ResultNtNtCsc29TF2YcYso_3syn4stmt9StmtMacroNtNtBO_5error5ErrorEINtNtNtB7_3ops9try_trait12FromResidualIBy_NtNtB7_7convert10InfallibleB1l_EE13from_residualBO_, symObjAddr: 0x1291C, symBinAddr: 0x59EAC, symSize: 0x48 }
  - { offset: 0xD552A, size: 0x8, addend: 0x0, symName: __RNvXsq_NtCsaNl6UpbT7bw_4core6resultINtB5_6ResultNtNtCsc29TF2YcYso_3syn5token10UnderscoreNtNtBO_5error5ErrorEINtNtNtB7_3ops9try_trait12FromResidualIBy_NtNtB7_7convert10InfallibleB1o_EE13from_residualBO_, symObjAddr: 0x12964, symBinAddr: 0x59EF4, symSize: 0x40 }
  - { offset: 0xD55AF, size: 0x8, addend: 0x0, symName: __RNvXsq_NtCsaNl6UpbT7bw_4core6resultINtB5_6ResultNtNtCsc29TF2YcYso_3syn5token2AsNtNtBO_5error5ErrorEINtNtNtB7_3ops9try_trait12FromResidualIBy_NtNtB7_7convert10InfallibleB1f_EE13from_residualBO_, symObjAddr: 0x129A4, symBinAddr: 0x59F34, symSize: 0x40 }
  - { offset: 0xD5634, size: 0x8, addend: 0x0, symName: __RNvXsq_NtCsaNl6UpbT7bw_4core6resultINtB5_6ResultNtNtCsc29TF2YcYso_3syn5token2AtNtNtBO_5error5ErrorEINtNtNtB7_3ops9try_trait12FromResidualIBy_NtNtB7_7convert10InfallibleB1f_EE13from_residualBO_, symObjAddr: 0x129E4, symBinAddr: 0x59F74, symSize: 0x40 }
  - { offset: 0xD56B9, size: 0x8, addend: 0x0, symName: __RNvXsq_NtCsaNl6UpbT7bw_4core6resultINtB5_6ResultNtNtCsc29TF2YcYso_3syn5token2EqNtNtBO_5error5ErrorEINtNtNtB7_3ops9try_trait12FromResidualIBy_NtNtB7_7convert10InfallibleB1f_EE13from_residualBO_, symObjAddr: 0x12A64, symBinAddr: 0x59FB4, symSize: 0x40 }
  - { offset: 0xD573E, size: 0x8, addend: 0x0, symName: __RNvXsq_NtCsaNl6UpbT7bw_4core6resultINtB5_6ResultNtNtCsc29TF2YcYso_3syn5token2FnNtNtBO_5error5ErrorEINtNtNtB7_3ops9try_trait12FromResidualIBy_NtNtB7_7convert10InfallibleB1f_EE13from_residualBO_, symObjAddr: 0x12AA4, symBinAddr: 0x59FF4, symSize: 0x40 }
  - { offset: 0xD57C3, size: 0x8, addend: 0x0, symName: __RNvXsq_NtCsaNl6UpbT7bw_4core6resultINtB5_6ResultNtNtCsc29TF2YcYso_3syn5token2GeNtNtBO_5error5ErrorEINtNtNtB7_3ops9try_trait12FromResidualIBy_NtNtB7_7convert10InfallibleB1f_EE13from_residualBO_, symObjAddr: 0x12AE4, symBinAddr: 0x5A034, symSize: 0x40 }
  - { offset: 0xD5848, size: 0x8, addend: 0x0, symName: __RNvXsq_NtCsaNl6UpbT7bw_4core6resultINtB5_6ResultNtNtCsc29TF2YcYso_3syn5token2GtNtNtBO_5error5ErrorEINtNtNtB7_3ops9try_trait12FromResidualIBy_NtNtB7_7convert10InfallibleB1f_EE13from_residualBO_, symObjAddr: 0x12B24, symBinAddr: 0x5A074, symSize: 0x40 }
  - { offset: 0xD58CD, size: 0x8, addend: 0x0, symName: __RNvXsq_NtCsaNl6UpbT7bw_4core6resultINtB5_6ResultNtNtCsc29TF2YcYso_3syn5token2IfNtNtBO_5error5ErrorEINtNtNtB7_3ops9try_trait12FromResidualIBy_NtNtB7_7convert10InfallibleB1f_EE13from_residualBO_, symObjAddr: 0x12B64, symBinAddr: 0x5A0B4, symSize: 0x40 }
  - { offset: 0xD5952, size: 0x8, addend: 0x0, symName: __RNvXsq_NtCsaNl6UpbT7bw_4core6resultINtB5_6ResultNtNtCsc29TF2YcYso_3syn5token2InNtNtBO_5error5ErrorEINtNtNtB7_3ops9try_trait12FromResidualIBy_NtNtB7_7convert10InfallibleB1f_EE13from_residualBO_, symObjAddr: 0x12BA4, symBinAddr: 0x5A0F4, symSize: 0x40 }
  - { offset: 0xD59D7, size: 0x8, addend: 0x0, symName: __RNvXsq_NtCsaNl6UpbT7bw_4core6resultINtB5_6ResultNtNtCsc29TF2YcYso_3syn5token2LeNtNtBO_5error5ErrorEINtNtNtB7_3ops9try_trait12FromResidualIBy_NtNtB7_7convert10InfallibleB1f_EE13from_residualBO_, symObjAddr: 0x12BE4, symBinAddr: 0x5A134, symSize: 0x40 }
  - { offset: 0xD5A5C, size: 0x8, addend: 0x0, symName: __RNvXsq_NtCsaNl6UpbT7bw_4core6resultINtB5_6ResultNtNtCsc29TF2YcYso_3syn5token2LtNtNtBO_5error5ErrorEINtNtNtB7_3ops9try_trait12FromResidualIBy_NtNtB7_7convert10InfallibleB1f_EE13from_residualBO_, symObjAddr: 0x12C24, symBinAddr: 0x5A174, symSize: 0x40 }
  - { offset: 0xD5AE1, size: 0x8, addend: 0x0, symName: __RNvXsq_NtCsaNl6UpbT7bw_4core6resultINtB5_6ResultNtNtCsc29TF2YcYso_3syn5token2NeNtNtBO_5error5ErrorEINtNtNtB7_3ops9try_trait12FromResidualIBy_NtNtB7_7convert10InfallibleB1f_EE13from_residualBO_, symObjAddr: 0x12C64, symBinAddr: 0x5A1B4, symSize: 0x40 }
  - { offset: 0xD5B66, size: 0x8, addend: 0x0, symName: __RNvXsq_NtCsaNl6UpbT7bw_4core6resultINtB5_6ResultNtNtCsc29TF2YcYso_3syn5token2OrNtNtBO_5error5ErrorEINtNtNtB7_3ops9try_trait12FromResidualIBy_NtNtB7_7convert10InfallibleB1f_EE13from_residualBO_, symObjAddr: 0x12CA4, symBinAddr: 0x5A1F4, symSize: 0x40 }
  - { offset: 0xD5BEB, size: 0x8, addend: 0x0, symName: __RNvXsq_NtCsaNl6UpbT7bw_4core6resultINtB5_6ResultNtNtCsc29TF2YcYso_3syn5token3AndNtNtBO_5error5ErrorEINtNtNtB7_3ops9try_trait12FromResidualIBy_NtNtB7_7convert10InfallibleB1g_EE13from_residualBO_, symObjAddr: 0x12CE4, symBinAddr: 0x5A234, symSize: 0x40 }
  - { offset: 0xD5C70, size: 0x8, addend: 0x0, symName: __RNvXsq_NtCsaNl6UpbT7bw_4core6resultINtB5_6ResultNtNtCsc29TF2YcYso_3syn5token3BoxNtNtBO_5error5ErrorEINtNtNtB7_3ops9try_trait12FromResidualIBy_NtNtB7_7convert10InfallibleB1g_EE13from_residualBO_, symObjAddr: 0x12D24, symBinAddr: 0x5A274, symSize: 0x40 }
  - { offset: 0xD5CF5, size: 0x8, addend: 0x0, symName: __RNvXsq_NtCsaNl6UpbT7bw_4core6resultINtB5_6ResultNtNtCsc29TF2YcYso_3syn5token3DotNtNtBO_5error5ErrorEINtNtNtB7_3ops9try_trait12FromResidualIBy_NtNtB7_7convert10InfallibleB1g_EE13from_residualBO_, symObjAddr: 0x12D64, symBinAddr: 0x5A2B4, symSize: 0x40 }
  - { offset: 0xD5D7A, size: 0x8, addend: 0x0, symName: __RNvXsq_NtCsaNl6UpbT7bw_4core6resultINtB5_6ResultNtNtCsc29TF2YcYso_3syn5token3DynNtNtBO_5error5ErrorEINtNtNtB7_3ops9try_trait12FromResidualIBy_NtNtB7_7convert10InfallibleB1g_EE13from_residualBO_, symObjAddr: 0x12DA4, symBinAddr: 0x5A2F4, symSize: 0x40 }
  - { offset: 0xD5DFF, size: 0x8, addend: 0x0, symName: __RNvXsq_NtCsaNl6UpbT7bw_4core6resultINtB5_6ResultNtNtCsc29TF2YcYso_3syn5token3ForNtNtBO_5error5ErrorEINtNtNtB7_3ops9try_trait12FromResidualIBy_NtNtB7_7convert10InfallibleB1g_EE13from_residualBO_, symObjAddr: 0x12DE4, symBinAddr: 0x5A334, symSize: 0x40 }
  - { offset: 0xD5E84, size: 0x8, addend: 0x0, symName: __RNvXsq_NtCsaNl6UpbT7bw_4core6resultINtB5_6ResultNtNtCsc29TF2YcYso_3syn5token3LetNtNtBO_5error5ErrorEINtNtNtB7_3ops9try_trait12FromResidualIBy_NtNtB7_7convert10InfallibleB1g_EE13from_residualBO_, symObjAddr: 0x12E24, symBinAddr: 0x5A374, symSize: 0x40 }
  - { offset: 0xD5F09, size: 0x8, addend: 0x0, symName: __RNvXsq_NtCsaNl6UpbT7bw_4core6resultINtB5_6ResultNtNtCsc29TF2YcYso_3syn5token3ModNtNtBO_5error5ErrorEINtNtNtB7_3ops9try_trait12FromResidualIBy_NtNtB7_7convert10InfallibleB1g_EE13from_residualBO_, symObjAddr: 0x12E64, symBinAddr: 0x5A3B4, symSize: 0x40 }
  - { offset: 0xD5F8E, size: 0x8, addend: 0x0, symName: __RNvXsq_NtCsaNl6UpbT7bw_4core6resultINtB5_6ResultNtNtCsc29TF2YcYso_3syn5token3MutNtNtBO_5error5ErrorEINtNtNtB7_3ops9try_trait12FromResidualIBy_NtNtB7_7convert10InfallibleB1g_EE13from_residualBO_, symObjAddr: 0x12EA4, symBinAddr: 0x5A3F4, symSize: 0x40 }
  - { offset: 0xD6013, size: 0x8, addend: 0x0, symName: __RNvXsq_NtCsaNl6UpbT7bw_4core6resultINtB5_6ResultNtNtCsc29TF2YcYso_3syn5token3NotNtNtBO_5error5ErrorEINtNtNtB7_3ops9try_trait12FromResidualIBy_NtNtB7_7convert10InfallibleB1g_EE13from_residualBO_, symObjAddr: 0x12EE4, symBinAddr: 0x5A434, symSize: 0x40 }
  - { offset: 0xD6098, size: 0x8, addend: 0x0, symName: __RNvXsq_NtCsaNl6UpbT7bw_4core6resultINtB5_6ResultNtNtCsc29TF2YcYso_3syn5token3PubNtNtBO_5error5ErrorEINtNtNtB7_3ops9try_trait12FromResidualIBy_NtNtB7_7convert10InfallibleB1g_EE13from_residualBO_, symObjAddr: 0x12F24, symBinAddr: 0x5A474, symSize: 0x40 }
  - { offset: 0xD611D, size: 0x8, addend: 0x0, symName: __RNvXsq_NtCsaNl6UpbT7bw_4core6resultINtB5_6ResultNtNtCsc29TF2YcYso_3syn5token3RawNtNtBO_5error5ErrorEINtNtNtB7_3ops9try_trait12FromResidualIBy_NtNtB7_7convert10InfallibleB1g_EE13from_residualBO_, symObjAddr: 0x12F64, symBinAddr: 0x5A4B4, symSize: 0x40 }
  - { offset: 0xD61A2, size: 0x8, addend: 0x0, symName: __RNvXsq_NtCsaNl6UpbT7bw_4core6resultINtB5_6ResultNtNtCsc29TF2YcYso_3syn5token3RefNtNtBO_5error5ErrorEINtNtNtB7_3ops9try_trait12FromResidualIBy_NtNtB7_7convert10InfallibleB1g_EE13from_residualBO_, symObjAddr: 0x12FA4, symBinAddr: 0x5A4F4, symSize: 0x40 }
  - { offset: 0xD6227, size: 0x8, addend: 0x0, symName: __RNvXsq_NtCsaNl6UpbT7bw_4core6resultINtB5_6ResultNtNtCsc29TF2YcYso_3syn5token3ShlNtNtBO_5error5ErrorEINtNtNtB7_3ops9try_trait12FromResidualIBy_NtNtB7_7convert10InfallibleB1g_EE13from_residualBO_, symObjAddr: 0x12FE4, symBinAddr: 0x5A534, symSize: 0x40 }
  - { offset: 0xD62AC, size: 0x8, addend: 0x0, symName: __RNvXsq_NtCsaNl6UpbT7bw_4core6resultINtB5_6ResultNtNtCsc29TF2YcYso_3syn5token3ShrNtNtBO_5error5ErrorEINtNtNtB7_3ops9try_trait12FromResidualIBy_NtNtB7_7convert10InfallibleB1g_EE13from_residualBO_, symObjAddr: 0x13024, symBinAddr: 0x5A574, symSize: 0x40 }
  - { offset: 0xD6331, size: 0x8, addend: 0x0, symName: __RNvXsq_NtCsaNl6UpbT7bw_4core6resultINtB5_6ResultNtNtCsc29TF2YcYso_3syn5token3TryNtNtBO_5error5ErrorEINtNtNtB7_3ops9try_trait12FromResidualIBy_NtNtB7_7convert10InfallibleB1g_EE13from_residualBO_, symObjAddr: 0x13064, symBinAddr: 0x5A5B4, symSize: 0x40 }
  - { offset: 0xD63B6, size: 0x8, addend: 0x0, symName: __RNvXsq_NtCsaNl6UpbT7bw_4core6resultINtB5_6ResultNtNtCsc29TF2YcYso_3syn5token3UseNtNtBO_5error5ErrorEINtNtNtB7_3ops9try_trait12FromResidualIBy_NtNtB7_7convert10InfallibleB1g_EE13from_residualBO_, symObjAddr: 0x130A4, symBinAddr: 0x5A5F4, symSize: 0x40 }
  - { offset: 0xD643B, size: 0x8, addend: 0x0, symName: __RNvXsq_NtCsaNl6UpbT7bw_4core6resultINtB5_6ResultNtNtCsc29TF2YcYso_3syn5token4AutoNtNtBO_5error5ErrorEINtNtNtB7_3ops9try_trait12FromResidualIBy_NtNtB7_7convert10InfallibleB1h_EE13from_residualBO_, symObjAddr: 0x130E4, symBinAddr: 0x5A634, symSize: 0x40 }
  - { offset: 0xD64C0, size: 0x8, addend: 0x0, symName: __RNvXsq_NtCsaNl6UpbT7bw_4core6resultINtB5_6ResultNtNtCsc29TF2YcYso_3syn5token4ElseNtNtBO_5error5ErrorEINtNtNtB7_3ops9try_trait12FromResidualIBy_NtNtB7_7convert10InfallibleB1h_EE13from_residualBO_, symObjAddr: 0x13124, symBinAddr: 0x5A674, symSize: 0x40 }
  - { offset: 0xD6545, size: 0x8, addend: 0x0, symName: __RNvXsq_NtCsaNl6UpbT7bw_4core6resultINtB5_6ResultNtNtCsc29TF2YcYso_3syn5token4EnumNtNtBO_5error5ErrorEINtNtNtB7_3ops9try_trait12FromResidualIBy_NtNtB7_7convert10InfallibleB1h_EE13from_residualBO_, symObjAddr: 0x13164, symBinAddr: 0x5A6B4, symSize: 0x40 }
  - { offset: 0xD65CA, size: 0x8, addend: 0x0, symName: __RNvXsq_NtCsaNl6UpbT7bw_4core6resultINtB5_6ResultNtNtCsc29TF2YcYso_3syn5token4EqEqNtNtBO_5error5ErrorEINtNtNtB7_3ops9try_trait12FromResidualIBy_NtNtB7_7convert10InfallibleB1h_EE13from_residualBO_, symObjAddr: 0x131A4, symBinAddr: 0x5A6F4, symSize: 0x40 }
  - { offset: 0xD664F, size: 0x8, addend: 0x0, symName: __RNvXsq_NtCsaNl6UpbT7bw_4core6resultINtB5_6ResultNtNtCsc29TF2YcYso_3syn5token4ImplNtNtBO_5error5ErrorEINtNtNtB7_3ops9try_trait12FromResidualIBy_NtNtB7_7convert10InfallibleB1h_EE13from_residualBO_, symObjAddr: 0x131E4, symBinAddr: 0x5A734, symSize: 0x40 }
  - { offset: 0xD66D4, size: 0x8, addend: 0x0, symName: __RNvXsq_NtCsaNl6UpbT7bw_4core6resultINtB5_6ResultNtNtCsc29TF2YcYso_3syn5token4LoopNtNtBO_5error5ErrorEINtNtNtB7_3ops9try_trait12FromResidualIBy_NtNtB7_7convert10InfallibleB1h_EE13from_residualBO_, symObjAddr: 0x13224, symBinAddr: 0x5A774, symSize: 0x40 }
  - { offset: 0xD6759, size: 0x8, addend: 0x0, symName: __RNvXsq_NtCsaNl6UpbT7bw_4core6resultINtB5_6ResultNtNtCsc29TF2YcYso_3syn5token4MoveNtNtBO_5error5ErrorEINtNtNtB7_3ops9try_trait12FromResidualIBy_NtNtB7_7convert10InfallibleB1h_EE13from_residualBO_, symObjAddr: 0x13264, symBinAddr: 0x5A7B4, symSize: 0x40 }
  - { offset: 0xD67DE, size: 0x8, addend: 0x0, symName: __RNvXsq_NtCsaNl6UpbT7bw_4core6resultINtB5_6ResultNtNtCsc29TF2YcYso_3syn5token4OrEqNtNtBO_5error5ErrorEINtNtNtB7_3ops9try_trait12FromResidualIBy_NtNtB7_7convert10InfallibleB1h_EE13from_residualBO_, symObjAddr: 0x132A4, symBinAddr: 0x5A7F4, symSize: 0x40 }
  - { offset: 0xD6863, size: 0x8, addend: 0x0, symName: __RNvXsq_NtCsaNl6UpbT7bw_4core6resultINtB5_6ResultNtNtCsc29TF2YcYso_3syn5token4OrOrNtNtBO_5error5ErrorEINtNtNtB7_3ops9try_trait12FromResidualIBy_NtNtB7_7convert10InfallibleB1h_EE13from_residualBO_, symObjAddr: 0x132E4, symBinAddr: 0x5A834, symSize: 0x40 }
  - { offset: 0xD68E8, size: 0x8, addend: 0x0, symName: __RNvXsq_NtCsaNl6UpbT7bw_4core6resultINtB5_6ResultNtNtCsc29TF2YcYso_3syn5token4PlusNtNtBO_5error5ErrorEINtNtNtB7_3ops9try_trait12FromResidualIBy_NtNtB7_7convert10InfallibleB1h_EE13from_residualBO_, symObjAddr: 0x13324, symBinAddr: 0x5A874, symSize: 0x40 }
  - { offset: 0xD696D, size: 0x8, addend: 0x0, symName: __RNvXsq_NtCsaNl6UpbT7bw_4core6resultINtB5_6ResultNtNtCsc29TF2YcYso_3syn5token4SemiNtNtBO_5error5ErrorEINtNtNtB7_3ops9try_trait12FromResidualIBy_NtNtB7_7convert10InfallibleB1h_EE13from_residualBO_, symObjAddr: 0x133A4, symBinAddr: 0x5A8B4, symSize: 0x40 }
  - { offset: 0xD69F2, size: 0x8, addend: 0x0, symName: __RNvXsq_NtCsaNl6UpbT7bw_4core6resultINtB5_6ResultNtNtCsc29TF2YcYso_3syn5token4StarNtNtBO_5error5ErrorEINtNtNtB7_3ops9try_trait12FromResidualIBy_NtNtB7_7convert10InfallibleB1h_EE13from_residualBO_, symObjAddr: 0x133E4, symBinAddr: 0x5A8F4, symSize: 0x40 }
  - { offset: 0xD6A77, size: 0x8, addend: 0x0, symName: __RNvXsq_NtCsaNl6UpbT7bw_4core6resultINtB5_6ResultNtNtCsc29TF2YcYso_3syn5token4TypeNtNtBO_5error5ErrorEINtNtNtB7_3ops9try_trait12FromResidualIBy_NtNtB7_7convert10InfallibleB1h_EE13from_residualBO_, symObjAddr: 0x13424, symBinAddr: 0x5A934, symSize: 0x40 }
  - { offset: 0xD6AFC, size: 0x8, addend: 0x0, symName: __RNvXsq_NtCsaNl6UpbT7bw_4core6resultINtB5_6ResultNtNtCsc29TF2YcYso_3syn5token5AndEqNtNtBO_5error5ErrorEINtNtNtB7_3ops9try_trait12FromResidualIBy_NtNtB7_7convert10InfallibleB1i_EE13from_residualBO_, symObjAddr: 0x13464, symBinAddr: 0x5A974, symSize: 0x40 }
  - { offset: 0xD6B81, size: 0x8, addend: 0x0, symName: __RNvXsq_NtCsaNl6UpbT7bw_4core6resultINtB5_6ResultNtNtCsc29TF2YcYso_3syn5token5AsyncNtNtBO_5error5ErrorEINtNtNtB7_3ops9try_trait12FromResidualIBy_NtNtB7_7convert10InfallibleB1i_EE13from_residualBO_, symObjAddr: 0x134A4, symBinAddr: 0x5A9B4, symSize: 0x40 }
  - { offset: 0xD6C06, size: 0x8, addend: 0x0, symName: __RNvXsq_NtCsaNl6UpbT7bw_4core6resultINtB5_6ResultNtNtCsc29TF2YcYso_3syn5token5AwaitNtNtBO_5error5ErrorEINtNtNtB7_3ops9try_trait12FromResidualIBy_NtNtB7_7convert10InfallibleB1i_EE13from_residualBO_, symObjAddr: 0x134E4, symBinAddr: 0x5A9F4, symSize: 0x40 }
  - { offset: 0xD6C8B, size: 0x8, addend: 0x0, symName: __RNvXsq_NtCsaNl6UpbT7bw_4core6resultINtB5_6ResultNtNtCsc29TF2YcYso_3syn5token5BreakNtNtBO_5error5ErrorEINtNtNtB7_3ops9try_trait12FromResidualIBy_NtNtB7_7convert10InfallibleB1i_EE13from_residualBO_, symObjAddr: 0x13524, symBinAddr: 0x5AA34, symSize: 0x40 }
  - { offset: 0xD6D10, size: 0x8, addend: 0x0, symName: __RNvXsq_NtCsaNl6UpbT7bw_4core6resultINtB5_6ResultNtNtCsc29TF2YcYso_3syn5token5CaretNtNtBO_5error5ErrorEINtNtNtB7_3ops9try_trait12FromResidualIBy_NtNtB7_7convert10InfallibleB1i_EE13from_residualBO_, symObjAddr: 0x13564, symBinAddr: 0x5AA74, symSize: 0x40 }
  - { offset: 0xD6D95, size: 0x8, addend: 0x0, symName: __RNvXsq_NtCsaNl6UpbT7bw_4core6resultINtB5_6ResultNtNtCsc29TF2YcYso_3syn5token5ColonNtNtBO_5error5ErrorEINtNtNtB7_3ops9try_trait12FromResidualIBy_NtNtB7_7convert10InfallibleB1i_EE13from_residualBO_, symObjAddr: 0x135A4, symBinAddr: 0x5AAB4, symSize: 0x40 }
  - { offset: 0xD6E1A, size: 0x8, addend: 0x0, symName: __RNvXsq_NtCsaNl6UpbT7bw_4core6resultINtB5_6ResultNtNtCsc29TF2YcYso_3syn5token5CommaNtNtBO_5error5ErrorEINtNtNtB7_3ops9try_trait12FromResidualIBy_NtNtB7_7convert10InfallibleB1i_EE13from_residualBO_, symObjAddr: 0x135E4, symBinAddr: 0x5AAF4, symSize: 0x40 }
  - { offset: 0xD6E9F, size: 0x8, addend: 0x0, symName: __RNvXsq_NtCsaNl6UpbT7bw_4core6resultINtB5_6ResultNtNtCsc29TF2YcYso_3syn5token5ConstNtNtBO_5error5ErrorEINtNtNtB7_3ops9try_trait12FromResidualIBy_NtNtB7_7convert10InfallibleB1i_EE13from_residualBO_, symObjAddr: 0x13624, symBinAddr: 0x5AB34, symSize: 0x40 }
  - { offset: 0xD6F24, size: 0x8, addend: 0x0, symName: __RNvXsq_NtCsaNl6UpbT7bw_4core6resultINtB5_6ResultNtNtCsc29TF2YcYso_3syn5token5CrateNtNtBO_5error5ErrorEINtNtNtB7_3ops9try_trait12FromResidualIBy_NtNtB7_7convert10InfallibleB1i_EE13from_residualBO_, symObjAddr: 0x13664, symBinAddr: 0x5AB74, symSize: 0x40 }
  - { offset: 0xD6FA9, size: 0x8, addend: 0x0, symName: __RNvXsq_NtCsaNl6UpbT7bw_4core6resultINtB5_6ResultNtNtCsc29TF2YcYso_3syn5token5MacroNtNtBO_5error5ErrorEINtNtNtB7_3ops9try_trait12FromResidualIBy_NtNtB7_7convert10InfallibleB1i_EE13from_residualBO_, symObjAddr: 0x136E4, symBinAddr: 0x5ABB4, symSize: 0x40 }
  - { offset: 0xD702E, size: 0x8, addend: 0x0, symName: __RNvXsq_NtCsaNl6UpbT7bw_4core6resultINtB5_6ResultNtNtCsc29TF2YcYso_3syn5token5MatchNtNtBO_5error5ErrorEINtNtNtB7_3ops9try_trait12FromResidualIBy_NtNtB7_7convert10InfallibleB1i_EE13from_residualBO_, symObjAddr: 0x13724, symBinAddr: 0x5ABF4, symSize: 0x40 }
  - { offset: 0xD70B3, size: 0x8, addend: 0x0, symName: __RNvXsq_NtCsaNl6UpbT7bw_4core6resultINtB5_6ResultNtNtCsc29TF2YcYso_3syn5token5MinusNtNtBO_5error5ErrorEINtNtNtB7_3ops9try_trait12FromResidualIBy_NtNtB7_7convert10InfallibleB1i_EE13from_residualBO_, symObjAddr: 0x13764, symBinAddr: 0x5AC34, symSize: 0x40 }
  - { offset: 0xD7138, size: 0x8, addend: 0x0, symName: __RNvXsq_NtCsaNl6UpbT7bw_4core6resultINtB5_6ResultNtNtCsc29TF2YcYso_3syn5token5PoundNtNtBO_5error5ErrorEINtNtNtB7_3ops9try_trait12FromResidualIBy_NtNtB7_7convert10InfallibleB1i_EE13from_residualBO_, symObjAddr: 0x137A4, symBinAddr: 0x5AC74, symSize: 0x40 }
  - { offset: 0xD71BD, size: 0x8, addend: 0x0, symName: __RNvXsq_NtCsaNl6UpbT7bw_4core6resultINtB5_6ResultNtNtCsc29TF2YcYso_3syn5token5ShlEqNtNtBO_5error5ErrorEINtNtNtB7_3ops9try_trait12FromResidualIBy_NtNtB7_7convert10InfallibleB1i_EE13from_residualBO_, symObjAddr: 0x137E4, symBinAddr: 0x5ACB4, symSize: 0x40 }
  - { offset: 0xD7242, size: 0x8, addend: 0x0, symName: __RNvXsq_NtCsaNl6UpbT7bw_4core6resultINtB5_6ResultNtNtCsc29TF2YcYso_3syn5token5ShrEqNtNtBO_5error5ErrorEINtNtNtB7_3ops9try_trait12FromResidualIBy_NtNtB7_7convert10InfallibleB1i_EE13from_residualBO_, symObjAddr: 0x13824, symBinAddr: 0x5ACF4, symSize: 0x40 }
  - { offset: 0xD72C7, size: 0x8, addend: 0x0, symName: __RNvXsq_NtCsaNl6UpbT7bw_4core6resultINtB5_6ResultNtNtCsc29TF2YcYso_3syn5token5SlashNtNtBO_5error5ErrorEINtNtNtB7_3ops9try_trait12FromResidualIBy_NtNtB7_7convert10InfallibleB1i_EE13from_residualBO_, symObjAddr: 0x13864, symBinAddr: 0x5AD34, symSize: 0x40 }
  - { offset: 0xD734C, size: 0x8, addend: 0x0, symName: __RNvXsq_NtCsaNl6UpbT7bw_4core6resultINtB5_6ResultNtNtCsc29TF2YcYso_3syn5token5TraitNtNtBO_5error5ErrorEINtNtNtB7_3ops9try_trait12FromResidualIBy_NtNtB7_7convert10InfallibleB1i_EE13from_residualBO_, symObjAddr: 0x13924, symBinAddr: 0x5AD74, symSize: 0x40 }
  - { offset: 0xD73D1, size: 0x8, addend: 0x0, symName: __RNvXsq_NtCsaNl6UpbT7bw_4core6resultINtB5_6ResultNtNtCsc29TF2YcYso_3syn5token5UnionNtNtBO_5error5ErrorEINtNtNtB7_3ops9try_trait12FromResidualIBy_NtNtB7_7convert10InfallibleB1i_EE13from_residualBO_, symObjAddr: 0x13964, symBinAddr: 0x5ADB4, symSize: 0x40 }
  - { offset: 0xD7456, size: 0x8, addend: 0x0, symName: __RNvXsq_NtCsaNl6UpbT7bw_4core6resultINtB5_6ResultNtNtCsc29TF2YcYso_3syn5token5WhereNtNtBO_5error5ErrorEINtNtNtB7_3ops9try_trait12FromResidualIBy_NtNtB7_7convert10InfallibleB1i_EE13from_residualBO_, symObjAddr: 0x139A4, symBinAddr: 0x5ADF4, symSize: 0x40 }
  - { offset: 0xD74DB, size: 0x8, addend: 0x0, symName: __RNvXsq_NtCsaNl6UpbT7bw_4core6resultINtB5_6ResultNtNtCsc29TF2YcYso_3syn5token5WhileNtNtBO_5error5ErrorEINtNtNtB7_3ops9try_trait12FromResidualIBy_NtNtB7_7convert10InfallibleB1i_EE13from_residualBO_, symObjAddr: 0x139E4, symBinAddr: 0x5AE34, symSize: 0x40 }
  - { offset: 0xD7560, size: 0x8, addend: 0x0, symName: __RNvXsq_NtCsaNl6UpbT7bw_4core6resultINtB5_6ResultNtNtCsc29TF2YcYso_3syn5token5YieldNtNtBO_5error5ErrorEINtNtNtB7_3ops9try_trait12FromResidualIBy_NtNtB7_7convert10InfallibleB1i_EE13from_residualBO_, symObjAddr: 0x13A24, symBinAddr: 0x5AE74, symSize: 0x40 }
  - { offset: 0xD75E5, size: 0x8, addend: 0x0, symName: __RNvXsq_NtCsaNl6UpbT7bw_4core6resultINtB5_6ResultNtNtCsc29TF2YcYso_3syn5token6AndAndNtNtBO_5error5ErrorEINtNtNtB7_3ops9try_trait12FromResidualIBy_NtNtB7_7convert10InfallibleB1j_EE13from_residualBO_, symObjAddr: 0x13A64, symBinAddr: 0x5AEB4, symSize: 0x40 }
  - { offset: 0xD766A, size: 0x8, addend: 0x0, symName: __RNvXsq_NtCsaNl6UpbT7bw_4core6resultINtB5_6ResultNtNtCsc29TF2YcYso_3syn5token6BecomeNtNtBO_5error5ErrorEINtNtNtB7_3ops9try_trait12FromResidualIBy_NtNtB7_7convert10InfallibleB1j_EE13from_residualBO_, symObjAddr: 0x13AA4, symBinAddr: 0x5AEF4, symSize: 0x40 }
  - { offset: 0xD76EF, size: 0x8, addend: 0x0, symName: __RNvXsq_NtCsaNl6UpbT7bw_4core6resultINtB5_6ResultNtNtCsc29TF2YcYso_3syn5token6DotDotNtNtBO_5error5ErrorEINtNtNtB7_3ops9try_trait12FromResidualIBy_NtNtB7_7convert10InfallibleB1j_EE13from_residualBO_, symObjAddr: 0x13B24, symBinAddr: 0x5AF34, symSize: 0x40 }
  - { offset: 0xD7774, size: 0x8, addend: 0x0, symName: __RNvXsq_NtCsaNl6UpbT7bw_4core6resultINtB5_6ResultNtNtCsc29TF2YcYso_3syn5token6ExternNtNtBO_5error5ErrorEINtNtNtB7_3ops9try_trait12FromResidualIBy_NtNtB7_7convert10InfallibleB1j_EE13from_residualBO_, symObjAddr: 0x13B64, symBinAddr: 0x5AF74, symSize: 0x40 }
  - { offset: 0xD77F9, size: 0x8, addend: 0x0, symName: __RNvXsq_NtCsaNl6UpbT7bw_4core6resultINtB5_6ResultNtNtCsc29TF2YcYso_3syn5token6PlusEqNtNtBO_5error5ErrorEINtNtNtB7_3ops9try_trait12FromResidualIBy_NtNtB7_7convert10InfallibleB1j_EE13from_residualBO_, symObjAddr: 0x13BE4, symBinAddr: 0x5AFB4, symSize: 0x40 }
  - { offset: 0xD787E, size: 0x8, addend: 0x0, symName: __RNvXsq_NtCsaNl6UpbT7bw_4core6resultINtB5_6ResultNtNtCsc29TF2YcYso_3syn5token6RArrowNtNtBO_5error5ErrorEINtNtNtB7_3ops9try_trait12FromResidualIBy_NtNtB7_7convert10InfallibleB1j_EE13from_residualBO_, symObjAddr: 0x13C24, symBinAddr: 0x5AFF4, symSize: 0x40 }
  - { offset: 0xD7903, size: 0x8, addend: 0x0, symName: __RNvXsq_NtCsaNl6UpbT7bw_4core6resultINtB5_6ResultNtNtCsc29TF2YcYso_3syn5token6ReturnNtNtBO_5error5ErrorEINtNtNtB7_3ops9try_trait12FromResidualIBy_NtNtB7_7convert10InfallibleB1j_EE13from_residualBO_, symObjAddr: 0x13C64, symBinAddr: 0x5B034, symSize: 0x40 }
  - { offset: 0xD7988, size: 0x8, addend: 0x0, symName: __RNvXsq_NtCsaNl6UpbT7bw_4core6resultINtB5_6ResultNtNtCsc29TF2YcYso_3syn5token6StarEqNtNtBO_5error5ErrorEINtNtNtB7_3ops9try_trait12FromResidualIBy_NtNtB7_7convert10InfallibleB1j_EE13from_residualBO_, symObjAddr: 0x13CA4, symBinAddr: 0x5B074, symSize: 0x40 }
  - { offset: 0xD7A0D, size: 0x8, addend: 0x0, symName: __RNvXsq_NtCsaNl6UpbT7bw_4core6resultINtB5_6ResultNtNtCsc29TF2YcYso_3syn5token6StaticNtNtBO_5error5ErrorEINtNtNtB7_3ops9try_trait12FromResidualIBy_NtNtB7_7convert10InfallibleB1j_EE13from_residualBO_, symObjAddr: 0x13CE4, symBinAddr: 0x5B0B4, symSize: 0x40 }
  - { offset: 0xD7A92, size: 0x8, addend: 0x0, symName: __RNvXsq_NtCsaNl6UpbT7bw_4core6resultINtB5_6ResultNtNtCsc29TF2YcYso_3syn5token6StructNtNtBO_5error5ErrorEINtNtNtB7_3ops9try_trait12FromResidualIBy_NtNtB7_7convert10InfallibleB1j_EE13from_residualBO_, symObjAddr: 0x13D24, symBinAddr: 0x5B0F4, symSize: 0x40 }
  - { offset: 0xD7B17, size: 0x8, addend: 0x0, symName: __RNvXsq_NtCsaNl6UpbT7bw_4core6resultINtB5_6ResultNtNtCsc29TF2YcYso_3syn5token6UnsafeNtNtBO_5error5ErrorEINtNtNtB7_3ops9try_trait12FromResidualIBy_NtNtB7_7convert10InfallibleB1j_EE13from_residualBO_, symObjAddr: 0x13DA4, symBinAddr: 0x5B134, symSize: 0x40 }
  - { offset: 0xD7B9C, size: 0x8, addend: 0x0, symName: __RNvXsq_NtCsaNl6UpbT7bw_4core6resultINtB5_6ResultNtNtCsc29TF2YcYso_3syn5token7CaretEqNtNtBO_5error5ErrorEINtNtNtB7_3ops9try_trait12FromResidualIBy_NtNtB7_7convert10InfallibleB1k_EE13from_residualBO_, symObjAddr: 0x13DE4, symBinAddr: 0x5B174, symSize: 0x40 }
  - { offset: 0xD7C21, size: 0x8, addend: 0x0, symName: __RNvXsq_NtCsaNl6UpbT7bw_4core6resultINtB5_6ResultNtNtCsc29TF2YcYso_3syn5token7DefaultNtNtBO_5error5ErrorEINtNtNtB7_3ops9try_trait12FromResidualIBy_NtNtB7_7convert10InfallibleB1k_EE13from_residualBO_, symObjAddr: 0x13E24, symBinAddr: 0x5B1B4, symSize: 0x40 }
  - { offset: 0xD7CA6, size: 0x8, addend: 0x0, symName: __RNvXsq_NtCsaNl6UpbT7bw_4core6resultINtB5_6ResultNtNtCsc29TF2YcYso_3syn5token7MinusEqNtNtBO_5error5ErrorEINtNtNtB7_3ops9try_trait12FromResidualIBy_NtNtB7_7convert10InfallibleB1k_EE13from_residualBO_, symObjAddr: 0x13E64, symBinAddr: 0x5B1F4, symSize: 0x40 }
  - { offset: 0xD7D2B, size: 0x8, addend: 0x0, symName: __RNvXsq_NtCsaNl6UpbT7bw_4core6resultINtB5_6ResultNtNtCsc29TF2YcYso_3syn5token7PathSepNtNtBO_5error5ErrorEINtNtNtB7_3ops9try_trait12FromResidualIBy_NtNtB7_7convert10InfallibleB1k_EE13from_residualBO_, symObjAddr: 0x13EA4, symBinAddr: 0x5B234, symSize: 0x40 }
  - { offset: 0xD7DB0, size: 0x8, addend: 0x0, symName: __RNvXsq_NtCsaNl6UpbT7bw_4core6resultINtB5_6ResultNtNtCsc29TF2YcYso_3syn5token7PercentNtNtBO_5error5ErrorEINtNtNtB7_3ops9try_trait12FromResidualIBy_NtNtB7_7convert10InfallibleB1k_EE13from_residualBO_, symObjAddr: 0x13EE4, symBinAddr: 0x5B274, symSize: 0x40 }
  - { offset: 0xD7E35, size: 0x8, addend: 0x0, symName: __RNvXsq_NtCsaNl6UpbT7bw_4core6resultINtB5_6ResultNtNtCsc29TF2YcYso_3syn5token7SlashEqNtNtBO_5error5ErrorEINtNtNtB7_3ops9try_trait12FromResidualIBy_NtNtB7_7convert10InfallibleB1k_EE13from_residualBO_, symObjAddr: 0x13F24, symBinAddr: 0x5B2B4, symSize: 0x40 }
  - { offset: 0xD7EBA, size: 0x8, addend: 0x0, symName: __RNvXsq_NtCsaNl6UpbT7bw_4core6resultINtB5_6ResultNtNtCsc29TF2YcYso_3syn5token8ContinueNtNtBO_5error5ErrorEINtNtNtB7_3ops9try_trait12FromResidualIBy_NtNtB7_7convert10InfallibleB1l_EE13from_residualBO_, symObjAddr: 0x14024, symBinAddr: 0x5B2F4, symSize: 0x40 }
  - { offset: 0xD7F3F, size: 0x8, addend: 0x0, symName: __RNvXsq_NtCsaNl6UpbT7bw_4core6resultINtB5_6ResultNtNtCsc29TF2YcYso_3syn5token8DotDotEqNtNtBO_5error5ErrorEINtNtNtB7_3ops9try_trait12FromResidualIBy_NtNtB7_7convert10InfallibleB1l_EE13from_residualBO_, symObjAddr: 0x14064, symBinAddr: 0x5B334, symSize: 0x40 }
  - { offset: 0xD7FC4, size: 0x8, addend: 0x0, symName: __RNvXsq_NtCsaNl6UpbT7bw_4core6resultINtB5_6ResultNtNtCsc29TF2YcYso_3syn5token8FatArrowNtNtBO_5error5ErrorEINtNtNtB7_3ops9try_trait12FromResidualIBy_NtNtB7_7convert10InfallibleB1l_EE13from_residualBO_, symObjAddr: 0x140A4, symBinAddr: 0x5B374, symSize: 0x40 }
  - { offset: 0xD8049, size: 0x8, addend: 0x0, symName: __RNvXsq_NtCsaNl6UpbT7bw_4core6resultINtB5_6ResultNtNtCsc29TF2YcYso_3syn5token8QuestionNtNtBO_5error5ErrorEINtNtNtB7_3ops9try_trait12FromResidualIBy_NtNtB7_7convert10InfallibleB1l_EE13from_residualBO_, symObjAddr: 0x14124, symBinAddr: 0x5B3B4, symSize: 0x40 }
  - { offset: 0xD80CE, size: 0x8, addend: 0x0, symName: __RNvXsq_NtCsaNl6UpbT7bw_4core6resultINtB5_6ResultNtNtCsc29TF2YcYso_3syn5token9DotDotDotNtNtBO_5error5ErrorEINtNtNtB7_3ops9try_trait12FromResidualIBy_NtNtB7_7convert10InfallibleB1m_EE13from_residualBO_, symObjAddr: 0x141A4, symBinAddr: 0x5B3F4, symSize: 0x40 }
  - { offset: 0xD8153, size: 0x8, addend: 0x0, symName: __RNvXsq_NtCsaNl6UpbT7bw_4core6resultINtB5_6ResultNtNtCsc29TF2YcYso_3syn5token9PercentEqNtNtBO_5error5ErrorEINtNtNtB7_3ops9try_trait12FromResidualIBy_NtNtB7_7convert10InfallibleB1m_EE13from_residualBO_, symObjAddr: 0x141E4, symBinAddr: 0x5B434, symSize: 0x40 }
  - { offset: 0xD81D8, size: 0x8, addend: 0x0, symName: __RNvXsq_NtCsaNl6UpbT7bw_4core6resultINtB5_6ResultNtNtCsc29TF2YcYso_3syn5token9SelfValueNtNtBO_5error5ErrorEINtNtNtB7_3ops9try_trait12FromResidualIBy_NtNtB7_7convert10InfallibleB1m_EE13from_residualBO_, symObjAddr: 0x14224, symBinAddr: 0x5B474, symSize: 0x40 }
  - { offset: 0xD825D, size: 0x8, addend: 0x0, symName: __RNvXsq_NtCsaNl6UpbT7bw_4core6resultINtB5_6ResultNtNtCsc29TF2YcYso_3syn8generics10ConstParamNtNtBO_5error5ErrorEINtNtNtB7_3ops9try_trait12FromResidualIBy_NtNtB7_7convert10InfallibleB1r_EE13from_residualBO_, symObjAddr: 0x142AC, symBinAddr: 0x5B4B4, symSize: 0x48 }
  - { offset: 0xD82E2, size: 0x8, addend: 0x0, symName: __RNvXsq_NtCsaNl6UpbT7bw_4core6resultINtB5_6ResultNtNtCsc29TF2YcYso_3syn8generics11WhereClauseNtNtBO_5error5ErrorEINtNtNtB7_3ops9try_trait12FromResidualIBy_NtNtB7_7convert10InfallibleB1s_EE13from_residualBO_, symObjAddr: 0x142F4, symBinAddr: 0x5B4FC, symSize: 0x48 }
  - { offset: 0xD8367, size: 0x8, addend: 0x0, symName: __RNvXsq_NtCsaNl6UpbT7bw_4core6resultINtB5_6ResultNtNtCsc29TF2YcYso_3syn8generics12GenericParamNtNtBO_5error5ErrorEINtNtNtB7_3ops9try_trait12FromResidualIBy_NtNtB7_7convert10InfallibleB1t_EE13from_residualBO_, symObjAddr: 0x1433C, symBinAddr: 0x5B544, symSize: 0x48 }
  - { offset: 0xD83EC, size: 0x8, addend: 0x0, symName: __RNvXsq_NtCsaNl6UpbT7bw_4core6resultINtB5_6ResultNtNtCsc29TF2YcYso_3syn8generics13LifetimeParamNtNtBO_5error5ErrorEINtNtNtB7_3ops9try_trait12FromResidualIBy_NtNtB7_7convert10InfallibleB1u_EE13from_residualBO_, symObjAddr: 0x14384, symBinAddr: 0x5B58C, symSize: 0x48 }
  - { offset: 0xD8471, size: 0x8, addend: 0x0, symName: __RNvXsq_NtCsaNl6UpbT7bw_4core6resultINtB5_6ResultNtNtCsc29TF2YcYso_3syn8generics14BoundLifetimesNtNtBO_5error5ErrorEINtNtNtB7_3ops9try_trait12FromResidualIBy_NtNtB7_7convert10InfallibleB1v_EE13from_residualBO_, symObjAddr: 0x143CC, symBinAddr: 0x5B5D4, symSize: 0x48 }
  - { offset: 0xD84F6, size: 0x8, addend: 0x0, symName: __RNvXsq_NtCsaNl6UpbT7bw_4core6resultINtB5_6ResultNtNtCsc29TF2YcYso_3syn8generics14PreciseCaptureNtNtBO_5error5ErrorEINtNtNtB7_3ops9try_trait12FromResidualIBy_NtNtB7_7convert10InfallibleB1v_EE13from_residualBO_, symObjAddr: 0x14414, symBinAddr: 0x5B61C, symSize: 0x48 }
  - { offset: 0xD857B, size: 0x8, addend: 0x0, symName: __RNvXsq_NtCsaNl6UpbT7bw_4core6resultINtB5_6ResultNtNtCsc29TF2YcYso_3syn8generics14TypeParamBoundNtNtBO_5error5ErrorEINtNtNtB7_3ops9try_trait12FromResidualIBy_NtNtB7_7convert10InfallibleB1v_EE13from_residualBO_, symObjAddr: 0x1445C, symBinAddr: 0x5B664, symSize: 0x48 }
  - { offset: 0xD8600, size: 0x8, addend: 0x0, symName: __RNvXsq_NtCsaNl6UpbT7bw_4core6resultINtB5_6ResultNtNtCsc29TF2YcYso_3syn8generics14WherePredicateNtNtBO_5error5ErrorEINtNtNtB7_3ops9try_trait12FromResidualIBy_NtNtB7_7convert10InfallibleB1v_EE13from_residualBO_, symObjAddr: 0x144A4, symBinAddr: 0x5B6AC, symSize: 0x48 }
  - { offset: 0xD8685, size: 0x8, addend: 0x0, symName: __RNvXsq_NtCsaNl6UpbT7bw_4core6resultINtB5_6ResultNtNtCsc29TF2YcYso_3syn8generics8GenericsNtNtBO_5error5ErrorEINtNtNtB7_3ops9try_trait12FromResidualIBy_NtNtB7_7convert10InfallibleB1o_EE13from_residualBO_, symObjAddr: 0x144EC, symBinAddr: 0x5B6F4, symSize: 0x48 }
  - { offset: 0xD870A, size: 0x8, addend: 0x0, symName: __RNvXsq_NtCsaNl6UpbT7bw_4core6resultINtB5_6ResultNtNtCsc29TF2YcYso_3syn8generics9TypeParamNtNtBO_5error5ErrorEINtNtNtB7_3ops9try_trait12FromResidualIBy_NtNtB7_7convert10InfallibleB1p_EE13from_residualBO_, symObjAddr: 0x14534, symBinAddr: 0x5B73C, symSize: 0x48 }
  - { offset: 0xD878F, size: 0x8, addend: 0x0, symName: __RNvXsq_NtCsaNl6UpbT7bw_4core6resultINtB5_6ResultNtNtCsc29TF2YcYso_3syn8lifetime8LifetimeNtNtBO_5error5ErrorEINtNtNtB7_3ops9try_trait12FromResidualIBy_NtNtB7_7convert10InfallibleB1o_EE13from_residualBO_, symObjAddr: 0x1457C, symBinAddr: 0x5B784, symSize: 0x48 }
  - { offset: 0xD8814, size: 0x8, addend: 0x0, symName: __RNvXsq_NtCsaNl6UpbT7bw_4core6resultINtB5_6ResultNtNtNtCsc29TF2YcYso_3syn4item7parsing15FnArgOrVariadicNtNtBQ_5error5ErrorEINtNtNtB7_3ops9try_trait12FromResidualIBy_NtNtB7_7convert10InfallibleB1C_EE13from_residualBQ_, symObjAddr: 0x145C4, symBinAddr: 0x5B7CC, symSize: 0x4C }
  - { offset: 0xD8899, size: 0x8, addend: 0x0, symName: __RNvXsq_NtCsaNl6UpbT7bw_4core6resultINtB5_6ResultNtNtNtCsc29TF2YcYso_3syn4item7parsing16FlexibleItemTypeNtNtBQ_5error5ErrorEINtNtNtB7_3ops9try_trait12FromResidualIBy_NtNtB7_7convert10InfallibleB1D_EE13from_residualBQ_, symObjAddr: 0x14610, symBinAddr: 0x5B818, symSize: 0x48 }
  - { offset: 0xD891E, size: 0x8, addend: 0x0, symName: __RNvXsq_NtCsaNl6UpbT7bw_4core6resultINtB5_6ResultTINtNtB7_6option6OptionNtNtCsc29TF2YcYso_3syn4path5QSelfENtB19_4PathENtNtB1b_5error5ErrorEINtNtNtB7_3ops9try_trait12FromResidualIBy_NtNtB7_7convert10InfallibleB1R_EE13from_residualB1b_, symObjAddr: 0x14698, symBinAddr: 0x5B860, symSize: 0x48 }
  - { offset: 0xD89A3, size: 0x8, addend: 0x0, symName: __RNvXsq_NtCsaNl6UpbT7bw_4core6resultINtB5_6ResultTINtNtB7_6option6OptionNtNtCsc29TF2YcYso_3syn5token5ColonEINtNtB1b_10punctuated10PunctuatedNtNtB1b_8generics14TypeParamBoundNtB19_4PlusEENtNtB1b_5error5ErrorEINtNtNtB7_3ops9try_trait12FromResidualIBy_NtNtB7_7convert10InfallibleB2X_EE13from_residualB1b_, symObjAddr: 0x146E0, symBinAddr: 0x5B8A8, symSize: 0x48 }
  - { offset: 0xD8A28, size: 0x8, addend: 0x0, symName: __RNvXsq_NtCsaNl6UpbT7bw_4core6resultINtB5_6ResultTINtNtB7_6option6OptionNtNtCsc29TF2YcYso_3syn8generics11WhereClauseENtNtB1b_4data11FieldsNamedENtNtB1b_5error5ErrorEINtNtNtB7_3ops9try_trait12FromResidualIBy_NtNtB7_7convert10InfallibleB2h_EE13from_residualB1b_, symObjAddr: 0x14728, symBinAddr: 0x5B8F0, symSize: 0x48 }
  - { offset: 0xD8AAD, size: 0x8, addend: 0x0, symName: __RNvXsq_NtCsaNl6UpbT7bw_4core6resultINtB5_6ResultTINtNtB7_6option6OptionNtNtCsc29TF2YcYso_3syn8generics11WhereClauseENtNtB1b_4data6FieldsIBM_NtNtB1b_5token4SemiEENtNtB1b_5error5ErrorEINtNtNtB7_3ops9try_trait12FromResidualIBy_NtNtB7_7convert10InfallibleB2z_EE13from_residualB1b_, symObjAddr: 0x14770, symBinAddr: 0x5B938, symSize: 0x48 }
  - { offset: 0xD8B32, size: 0x8, addend: 0x0, symName: __RNvXsq_NtCsaNl6UpbT7bw_4core6resultINtB5_6ResultTINtNtB7_6option6OptionNtNtCsc29TF2YcYso_3syn8generics11WhereClauseENtNtB1b_5token5BraceINtNtB1b_10punctuated10PunctuatedNtNtB1b_4data7VariantNtB1S_5CommaEENtNtB1b_5error5ErrorEINtNtNtB7_3ops9try_trait12FromResidualIBy_NtNtB7_7convert10InfallibleB3g_EE13from_residualB1b_, symObjAddr: 0x147B8, symBinAddr: 0x5B980, symSize: 0x48 }
  - { offset: 0xD8BB7, size: 0x8, addend: 0x0, symName: __RNvXsq_NtCsaNl6UpbT7bw_4core6resultINtB5_6ResultTINtNtCsc29TF2YcYso_3syn10punctuated10PunctuatedNtNtBQ_4item5FnArgNtNtBQ_5token5CommaEINtNtB7_6option6OptionNtB1y_8VariadicEENtNtBQ_5error5ErrorEINtNtNtB7_3ops9try_trait12FromResidualIBy_NtNtB7_7convert10InfallibleB2L_EE13from_residualBQ_, symObjAddr: 0x14800, symBinAddr: 0x5B9C8, symSize: 0x48 }
  - { offset: 0xD8C3C, size: 0x8, addend: 0x0, symName: __RNvXsq_NtCsaNl6UpbT7bw_4core6resultINtB5_6ResultTINtNtCsiTraAjBDcu4_5alloc3vec3VecNtNtCsc29TF2YcYso_3syn4attr9AttributeENtNtB1m_11restriction10VisibilityNtNtB1m_5token5TraitNtCshnvkK9b4wzu_11proc_macro25IdentNtNtB1m_8generics8GenericsENtNtB1m_5error5ErrorEINtNtNtB7_3ops9try_trait12FromResidualIBy_NtNtB7_7convert10InfallibleB3L_EE13from_residualB1m_, symObjAddr: 0x14848, symBinAddr: 0x5BA10, symSize: 0x48 }
  - { offset: 0xD8CC1, size: 0x8, addend: 0x0, symName: __RNvXsq_NtCsaNl6UpbT7bw_4core6resultINtB5_6ResultTNtNtCsc29TF2YcYso_3syn3mac14MacroDelimiterNtCshnvkK9b4wzu_11proc_macro211TokenStreamENtNtBP_5error5ErrorEINtNtNtB7_3ops9try_trait12FromResidualIBy_NtNtB7_7convert10InfallibleB28_EE13from_residualBP_, symObjAddr: 0x148D8, symBinAddr: 0x5BA58, symSize: 0x48 }
  - { offset: 0xD8D46, size: 0x8, addend: 0x0, symName: __RNvXsq_NtCsaNl6UpbT7bw_4core6resultINtB5_6ResultTNtNtCshnvkK9b4wzu_11proc_macro25extra9DelimSpanNtNtCsc29TF2YcYso_3syn5parse11ParseBufferENtNtB1A_5error5ErrorEINtNtNtB7_3ops9try_trait12FromResidualIBy_NtNtB7_7convert10InfallibleB2c_EE13from_residualB1A_, symObjAddr: 0x14920, symBinAddr: 0x5BAA0, symSize: 0x48 }
  - { offset: 0xD8DCB, size: 0x8, addend: 0x0, symName: __RNvXsq_NtCsaNl6UpbT7bw_4core6resultINtB5_6ResultbNtNtCsc29TF2YcYso_3syn5error5ErrorEINtNtNtB7_3ops9try_trait12FromResidualIBy_NtNtB7_7convert10InfallibleBL_EE13from_residualBP_, symObjAddr: 0x14968, symBinAddr: 0x5BAE8, symSize: 0x40 }
  - { offset: 0xD8E50, size: 0x8, addend: 0x0, symName: __RNvXsq_NtCsaNl6UpbT7bw_4core6resultINtB5_6ResultuNtNtCsc29TF2YcYso_3syn5error5ErrorEINtNtNtB7_3ops9try_trait12FromResidualIBy_NtNtB7_7convert10InfallibleBL_EE13from_residualBP_, symObjAddr: 0x149A8, symBinAddr: 0x5BB28, symSize: 0x40 }
  - { offset: 0xDE0FD, size: 0x8, addend: 0x0, symName: __RNvXs1_NtCsaNl6UpbT7bw_4core7convertNtNtCsiTraAjBDcu4_5alloc6string6StringINtB5_4IntoINtNtBC_3vec3VechEE4intoCsc29TF2YcYso_3syn, symObjAddr: 0x6D04, symBinAddr: 0x4F288, symSize: 0x14 }
  - { offset: 0xE62A3, size: 0x8, addend: 0x0, symName: __RNvXss_NtCsiTraAjBDcu4_5alloc6stringNtB5_6StringNtNtNtCsaNl6UpbT7bw_4core3ops5deref5Deref5derefCsc29TF2YcYso_3syn, symObjAddr: 0x149E8, symBinAddr: 0x5BB68, symSize: 0x24 }
  - { offset: 0xE631C, size: 0x8, addend: 0x0, symName: __RNvXs1U_NtCsiTraAjBDcu4_5alloc6stringReNtB6_12SpecToString14spec_to_stringCsc29TF2YcYso_3syn, symObjAddr: 0x6CA8, symBinAddr: 0x4F22C, symSize: 0x5C }
  - { offset: 0xE6427, size: 0x8, addend: 0x0, symName: __RNvXs1i_NtCsiTraAjBDcu4_5alloc6stringNtB6_13FromUtf8ErrorNtNtCsaNl6UpbT7bw_4core3fmt5Debug3fmtCsc29TF2YcYso_3syn, symObjAddr: 0x6D44, symBinAddr: 0x4F29C, symSize: 0x88 }
  - { offset: 0xE64A4, size: 0x8, addend: 0x0, symName: __RNvXs1p_NtCsiTraAjBDcu4_5alloc6stringNtB6_6StringINtNtCsaNl6UpbT7bw_4core3cmp9PartialEqReE2eqCsc29TF2YcYso_3syn, symObjAddr: 0x6DCC, symBinAddr: 0x4F324, symSize: 0xD0 }
  - { offset: 0xE66E6, size: 0x8, addend: 0x0, symName: __RNvXsC_NtCsiTraAjBDcu4_5alloc6stringNtB5_6StringNtB5_12SpecToString14spec_to_stringCsc29TF2YcYso_3syn, symObjAddr: 0x6F44, symBinAddr: 0x4F49C, symSize: 0x2C }
  - { offset: 0xE6738, size: 0x8, addend: 0x0, symName: __RNvXsV_NtCsiTraAjBDcu4_5alloc6stringNtB5_6StringNtNtCsaNl6UpbT7bw_4core3fmt5Write10write_charCsc29TF2YcYso_3syn, symObjAddr: 0x6F70, symBinAddr: 0x4F4C8, symSize: 0x38 }
  - { offset: 0xE6775, size: 0x8, addend: 0x0, symName: __RNvXsV_NtCsiTraAjBDcu4_5alloc6stringNtB5_6StringNtNtCsaNl6UpbT7bw_4core3fmt5Write9write_strCsc29TF2YcYso_3syn, symObjAddr: 0x6FA8, symBinAddr: 0x4F500, symSize: 0x40 }
  - { offset: 0xE67B8, size: 0x8, addend: 0x0, symName: __RNvXsm_NtCsiTraAjBDcu4_5alloc6stringNtB5_6StringNtNtCsaNl6UpbT7bw_4core3fmt5Debug3fmtCsc29TF2YcYso_3syn, symObjAddr: 0x7014, symBinAddr: 0x4F56C, symSize: 0x88 }
  - { offset: 0xE691D, size: 0x8, addend: 0x0, symName: __RNvXsw_NtCsiTraAjBDcu4_5alloc6stringNtB5_6StringNtB5_8ToString9to_stringCsc29TF2YcYso_3syn, symObjAddr: 0x14A0C, symBinAddr: 0x5BB8C, symSize: 0x24 }
  - { offset: 0xE6954, size: 0x8, addend: 0x0, symName: __RNvXsw_NtCsiTraAjBDcu4_5alloc6stringReNtB5_8ToString9to_stringCsc29TF2YcYso_3syn, symObjAddr: 0x14A30, symBinAddr: 0x5BBB0, symSize: 0x24 }
  - { offset: 0xE69DC, size: 0x8, addend: 0x0, symName: __RNvXNvMs_NtNtCsiTraAjBDcu4_5alloc3ffi5c_strNtB7_7CString3newNtNtBb_6string6StringNtB2_11SpecNewImpl13spec_new_implCsc29TF2YcYso_3syn, symObjAddr: 0x6AF8, symBinAddr: 0x4F0AC, symSize: 0x180 }
  - { offset: 0xE6C9D, size: 0x8, addend: 0x0, symName: __RNvXsA_NtCsiTraAjBDcu4_5alloc4syncINtB5_3ArcNtNtCsht3nMU9UgFu_3std6thread5InnerENtNtNtCsaNl6UpbT7bw_4core3ops4drop4Drop4dropCsc29TF2YcYso_3syn, symObjAddr: 0x6E9C, symBinAddr: 0x4F3F4, symSize: 0xA8 }
  - { offset: 0xEC019, size: 0x8, addend: 0x0, symName: __RNvNtNtCsc29TF2YcYso_3syn5ident7parsing15accept_as_ident, symObjAddr: 0x14A94, symBinAddr: 0x5BC14, symSize: 0xE74 }
  - { offset: 0xEC04F, size: 0x8, addend: 0x0, symName: __RNCNvXNtNtCsc29TF2YcYso_3syn5ident7parsingNtCshnvkK9b4wzu_11proc_macro25IdentNtNtB8_5parse5Parse5parse0B8_, symObjAddr: 0x15908, symBinAddr: 0x5CA88, symSize: 0x2DC }
  - { offset: 0xEC0DE, size: 0x8, addend: 0x0, symName: __RNvXNtCsc29TF2YcYso_3syn5printINtB2_15TokensOrDefaultNtNtB4_5token2AsENtNtCs4EAaWzSXu1l_5quote9to_tokens8ToTokens9to_tokensB4_, symObjAddr: 0x16268, symBinAddr: 0x5CD64, symSize: 0xC0 }
  - { offset: 0xEC13A, size: 0x8, addend: 0x0, symName: __RNvXNtCsc29TF2YcYso_3syn5printINtB2_15TokensOrDefaultNtNtB4_5token2EqENtNtCs4EAaWzSXu1l_5quote9to_tokens8ToTokens9to_tokensB4_, symObjAddr: 0x16328, symBinAddr: 0x5CE24, symSize: 0xC4 }
  - { offset: 0xEC196, size: 0x8, addend: 0x0, symName: __RNvXNtCsc29TF2YcYso_3syn5printINtB2_15TokensOrDefaultNtNtB4_5token2GtENtNtCs4EAaWzSXu1l_5quote9to_tokens8ToTokens9to_tokensB4_, symObjAddr: 0x163EC, symBinAddr: 0x5CEE8, symSize: 0xC4 }
  - { offset: 0xEC1F2, size: 0x8, addend: 0x0, symName: __RNvXNtCsc29TF2YcYso_3syn5printINtB2_15TokensOrDefaultNtNtB4_5token2LtENtNtCs4EAaWzSXu1l_5quote9to_tokens8ToTokens9to_tokensB4_, symObjAddr: 0x164B0, symBinAddr: 0x5CFAC, symSize: 0xC4 }
  - { offset: 0xEC24E, size: 0x8, addend: 0x0, symName: __RNvXNtCsc29TF2YcYso_3syn5printINtB2_15TokensOrDefaultNtNtB4_5token4SemiENtNtCs4EAaWzSXu1l_5quote9to_tokens8ToTokens9to_tokensB4_, symObjAddr: 0x16574, symBinAddr: 0x5D070, symSize: 0xC4 }
  - { offset: 0xEC2AA, size: 0x8, addend: 0x0, symName: __RNvXNtCsc29TF2YcYso_3syn5printINtB2_15TokensOrDefaultNtNtB4_5token5ColonENtNtCs4EAaWzSXu1l_5quote9to_tokens8ToTokens9to_tokensB4_, symObjAddr: 0x16638, symBinAddr: 0x5D134, symSize: 0xC4 }
  - { offset: 0xEC306, size: 0x8, addend: 0x0, symName: __RNvXNtCsc29TF2YcYso_3syn5printINtB2_15TokensOrDefaultNtNtB4_5token5ConstENtNtCs4EAaWzSXu1l_5quote9to_tokens8ToTokens9to_tokensB4_, symObjAddr: 0x166FC, symBinAddr: 0x5D1F8, symSize: 0xC0 }
  - { offset: 0xEC362, size: 0x8, addend: 0x0, symName: __RNvXNtCsc29TF2YcYso_3syn5printINtB2_15TokensOrDefaultNtNtB4_5token7PathSepENtNtCs4EAaWzSXu1l_5quote9to_tokens8ToTokens9to_tokensB4_, symObjAddr: 0x167BC, symBinAddr: 0x5D2B8, symSize: 0xC4 }
  - { offset: 0xECA25, size: 0x8, addend: 0x0, symName: __RNvXsg_NtCsht3nMU9UgFu_3std6threadNtB5_8ThreadIdNtNtCsaNl6UpbT7bw_4core3cmp9PartialEq2eqCsc29TF2YcYso_3syn, symObjAddr: 0x6FE8, symBinAddr: 0x4F540, symSize: 0x2C }
  - { offset: 0xECB10, size: 0x8, addend: 0x0, symName: __RINvMNtCsaNl6UpbT7bw_4core6resultINtB3_6ResultINtNtB5_6option6OptionNtNtCsc29TF2YcYso_3syn4item7UseTreeENtNtB18_5error5ErrorE3mapB14_NvMBL_BI_6unwrapEB18_, symObjAddr: 0x1A4, symBinAddr: 0x48B0C, symSize: 0xC8 }
  - { offset: 0xECBD3, size: 0x8, addend: 0x0, symName: __RINvMNtCsaNl6UpbT7bw_4core6resultINtB3_6ResultINtNtB5_6option6OptionNtNtCsc29TF2YcYso_3syn4item9SignatureENtNtB18_5error5ErrorE3mapB14_NvMBL_BI_6unwrapEB18_, symObjAddr: 0x338, symBinAddr: 0x48BD4, symSize: 0xC8 }
  - { offset: 0xECC7E, size: 0x8, addend: 0x0, symName: __RINvMNtCsaNl6UpbT7bw_4core6resultINtB3_6ResultINtNtB5_6option6OptionNtNtCsc29TF2YcYso_3syn8generics10TraitBoundENtNtB18_5error5ErrorE3mapB14_NvMBL_BI_6unwrapEB18_, symObjAddr: 0x400, symBinAddr: 0x48C9C, symSize: 0xD8 }
  - { offset: 0xECD29, size: 0x8, addend: 0x0, symName: __RINvMNtCsaNl6UpbT7bw_4core6resultINtB3_6ResultNtCshnvkK9b4wzu_11proc_macro211TokenStreamNtNtCsc29TF2YcYso_3syn5error5ErrorE3mapNtNtB1s_3pat3PatNcNtB21_8Verbatim0EB1s_, symObjAddr: 0x4D8, symBinAddr: 0x48D74, symSize: 0xC8 }
  - { offset: 0xECDD4, size: 0x8, addend: 0x0, symName: __RINvMNtCsaNl6UpbT7bw_4core6resultINtB3_6ResultNtCshnvkK9b4wzu_11proc_macro25IdentNtNtCsc29TF2YcYso_3syn5error5ErrorE3mapINtNtB5_6option6OptionBI_ENcNtB1U_4Some0EB1l_, symObjAddr: 0x5A0, symBinAddr: 0x48E3C, symSize: 0xAC }
  - { offset: 0xECE7F, size: 0x8, addend: 0x0, symName: __RINvMNtCsaNl6UpbT7bw_4core6resultINtB3_6ResultNtCshnvkK9b4wzu_11proc_macro25IdentNtNtCsc29TF2YcYso_3syn5error5ErrorE3mapNtNtB1l_4expr6MemberNcNtB1U_5Named0EB1l_, symObjAddr: 0x64C, symBinAddr: 0x48EE8, symSize: 0xAC }
  - { offset: 0xECF2A, size: 0x8, addend: 0x0, symName: __RINvMNtCsaNl6UpbT7bw_4core6resultINtB3_6ResultNtCshnvkK9b4wzu_11proc_macro25IdentNtNtCsc29TF2YcYso_3syn5error5ErrorE3mapNtNtB1l_8generics13CapturedParamNcNtB1U_5Ident0EB1l_, symObjAddr: 0x6F8, symBinAddr: 0x48F94, symSize: 0xAC }
  - { offset: 0xECFD5, size: 0x8, addend: 0x0, symName: __RINvMNtCsaNl6UpbT7bw_4core6resultINtB3_6ResultNtNtCsc29TF2YcYso_3syn2ty13TypeImplTraitNtNtBM_5error5ErrorE3mapNtBK_4TypeNcNtB1K_9ImplTrait0EBM_, symObjAddr: 0x7A4, symBinAddr: 0x49040, symSize: 0xD0 }
  - { offset: 0xED080, size: 0x8, addend: 0x0, symName: __RINvMNtCsaNl6UpbT7bw_4core6resultINtB3_6ResultNtNtCsc29TF2YcYso_3syn2ty13TypeReferenceNtNtBM_5error5ErrorE3mapNtBK_4TypeNcNtB1K_9Reference0EBM_, symObjAddr: 0x874, symBinAddr: 0x49110, symSize: 0xCC }
  - { offset: 0xED12B, size: 0x8, addend: 0x0, symName: __RINvMNtCsaNl6UpbT7bw_4core6resultINtB3_6ResultNtNtCsc29TF2YcYso_3syn2ty15TypeTraitObjectNtNtBM_5error5ErrorE3mapNtBK_4TypeNcNtB1M_11TraitObject0EBM_, symObjAddr: 0x940, symBinAddr: 0x491DC, symSize: 0xD0 }
  - { offset: 0xED1D6, size: 0x8, addend: 0x0, symName: __RINvMNtCsaNl6UpbT7bw_4core6resultINtB3_6ResultNtNtCsc29TF2YcYso_3syn2ty3AbiNtNtBM_5error5ErrorE3mapINtNtB5_6option6OptionBI_ENcNtB1z_4Some0EBM_, symObjAddr: 0xA10, symBinAddr: 0x492AC, symSize: 0xA4 }
  - { offset: 0xED281, size: 0x8, addend: 0x0, symName: __RINvMNtCsaNl6UpbT7bw_4core6resultINtB3_6ResultNtNtCsc29TF2YcYso_3syn2ty4TypeNtNtBM_5error5ErrorE3mapINtNtCsiTraAjBDcu4_5alloc5boxed3BoxBI_ENvMB1D_B1A_3newEBM_, symObjAddr: 0xAB4, symBinAddr: 0x49350, symSize: 0xB8 }
  - { offset: 0xED32C, size: 0x8, addend: 0x0, symName: __RINvMNtCsaNl6UpbT7bw_4core6resultINtB3_6ResultNtNtCsc29TF2YcYso_3syn2ty7TypePtrNtNtBM_5error5ErrorE3mapNtBK_4TypeNcNtB1D_3Ptr0EBM_, symObjAddr: 0xB6C, symBinAddr: 0x49408, symSize: 0xC0 }
  - { offset: 0xED3D7, size: 0x8, addend: 0x0, symName: __RINvMNtCsaNl6UpbT7bw_4core6resultINtB3_6ResultNtNtCsc29TF2YcYso_3syn2ty9TypeInferNtNtBM_5error5ErrorE3mapNtBK_4TypeNcNtB1F_5Infer0EBM_, symObjAddr: 0xC2C, symBinAddr: 0x494C8, symSize: 0xC4 }
  - { offset: 0xED482, size: 0x8, addend: 0x0, symName: __RINvMNtCsaNl6UpbT7bw_4core6resultINtB3_6ResultNtNtCsc29TF2YcYso_3syn2ty9TypeNeverNtNtBM_5error5ErrorE3mapNtBK_4TypeNcNtB1F_5Never0EBM_, symObjAddr: 0xCF0, symBinAddr: 0x4958C, symSize: 0xC4 }
  - { offset: 0xED52D, size: 0x8, addend: 0x0, symName: __RINvMNtCsaNl6UpbT7bw_4core6resultINtB3_6ResultNtNtCsc29TF2YcYso_3syn3pat12PatReferenceNtNtBM_5error5ErrorE3mapNtBK_3PatNcNtB1K_9Reference0EBM_, symObjAddr: 0xDB4, symBinAddr: 0x49650, symSize: 0xE0 }
  - { offset: 0xED5D8, size: 0x8, addend: 0x0, symName: __RINvMNtCsaNl6UpbT7bw_4core6resultINtB3_6ResultNtNtCsc29TF2YcYso_3syn3pat14PatTupleStructNtNtBM_5error5ErrorE3mapNtBK_3PatNcNtB1M_11TupleStruct0EBM_, symObjAddr: 0xE94, symBinAddr: 0x49730, symSize: 0xE0 }
  - { offset: 0xED69B, size: 0x8, addend: 0x0, symName: __RINvMNtCsaNl6UpbT7bw_4core6resultINtB3_6ResultNtNtCsc29TF2YcYso_3syn3pat7PatWildNtNtBM_5error5ErrorE3mapNtBK_3PatNcNtB1E_4Wild0EBM_, symObjAddr: 0x1034, symBinAddr: 0x49810, symSize: 0xC8 }
  - { offset: 0xED746, size: 0x8, addend: 0x0, symName: __RINvMNtCsaNl6UpbT7bw_4core6resultINtB3_6ResultNtNtCsc29TF2YcYso_3syn3pat8PatIdentNtNtBM_5error5ErrorE3mapNtBK_3PatNcNtB1F_5Ident0EBM_, symObjAddr: 0x10FC, symBinAddr: 0x498D8, symSize: 0xE0 }
  - { offset: 0xED7F1, size: 0x8, addend: 0x0, symName: __RINvMNtCsaNl6UpbT7bw_4core6resultINtB3_6ResultNtNtCsc29TF2YcYso_3syn3pat8PatSliceNtNtBM_5error5ErrorE3mapNtBK_3PatNcNtB1F_5Slice0EBM_, symObjAddr: 0x11DC, symBinAddr: 0x499B8, symSize: 0xE0 }
  - { offset: 0xED89C, size: 0x8, addend: 0x0, symName: __RINvMNtCsaNl6UpbT7bw_4core6resultINtB3_6ResultNtNtCsc29TF2YcYso_3syn3pat9PatStructNtNtBM_5error5ErrorE3mapNtBK_3PatNcNtB1G_6Struct0EBM_, symObjAddr: 0x12BC, symBinAddr: 0x49A98, symSize: 0xDC }
  - { offset: 0xED947, size: 0x8, addend: 0x0, symName: __RINvMNtCsaNl6UpbT7bw_4core6resultINtB3_6ResultNtNtCsc29TF2YcYso_3syn4attr13MetaNameValueNtNtBM_5error5ErrorE3mapNtBK_4MetaNcNtB1M_9NameValue0EBM_, symObjAddr: 0x1398, symBinAddr: 0x49B74, symSize: 0xD4 }
  - { offset: 0xED9F2, size: 0x8, addend: 0x0, symName: __RINvMNtCsaNl6UpbT7bw_4core6resultINtB3_6ResultNtNtCsc29TF2YcYso_3syn4attr8MetaListNtNtBM_5error5ErrorE3mapNtBK_4MetaNcNtB1G_4List0EBM_, symObjAddr: 0x146C, symBinAddr: 0x49C48, symSize: 0xDC }
  - { offset: 0xEDA9D, size: 0x8, addend: 0x0, symName: __RINvMNtCsaNl6UpbT7bw_4core6resultINtB3_6ResultNtNtCsc29TF2YcYso_3syn4expr10ExprReturnNtNtBM_5error5ErrorE3mapNtBK_4ExprNcNtB1J_6Return0EBM_, symObjAddr: 0x1548, symBinAddr: 0x49D24, symSize: 0xD0 }
  - { offset: 0xEDB48, size: 0x8, addend: 0x0, symName: __RINvMNtCsaNl6UpbT7bw_4core6resultINtB3_6ResultNtNtCsc29TF2YcYso_3syn4expr10ExprStructNtNtBM_5error5ErrorE3mapNtBK_4ExprNcNtB1J_6Struct0EBM_, symObjAddr: 0x1618, symBinAddr: 0x49DF4, symSize: 0xD0 }
  - { offset: 0xEDBF3, size: 0x8, addend: 0x0, symName: __RINvMNtCsaNl6UpbT7bw_4core6resultINtB3_6ResultNtNtCsc29TF2YcYso_3syn4expr10ExprUnsafeNtNtBM_5error5ErrorE3mapNtBK_4ExprNcNtB1J_6Unsafe0EBM_, symObjAddr: 0x16E8, symBinAddr: 0x49EC4, symSize: 0xD0 }
  - { offset: 0xEDC9E, size: 0x8, addend: 0x0, symName: __RINvMNtCsaNl6UpbT7bw_4core6resultINtB3_6ResultNtNtCsc29TF2YcYso_3syn4expr11ExprClosureNtNtBM_5error5ErrorE3mapNtBK_4ExprNcNtB1K_7Closure0EBM_, symObjAddr: 0x17B8, symBinAddr: 0x49F94, symSize: 0xD0 }
  - { offset: 0xEDD49, size: 0x8, addend: 0x0, symName: __RINvMNtCsaNl6UpbT7bw_4core6resultINtB3_6ResultNtNtCsc29TF2YcYso_3syn4expr11ExprForLoopNtNtBM_5error5ErrorE3mapNtBK_4ExprNcNtB1K_7ForLoop0EBM_, symObjAddr: 0x1888, symBinAddr: 0x4A064, symSize: 0xD0 }
  - { offset: 0xEDDF4, size: 0x8, addend: 0x0, symName: __RINvMNtCsaNl6UpbT7bw_4core6resultINtB3_6ResultNtNtCsc29TF2YcYso_3syn4expr12ExprContinueNtNtBM_5error5ErrorE3mapNtBK_4ExprNcNtB1L_8Continue0EBM_, symObjAddr: 0x1958, symBinAddr: 0x4A134, symSize: 0xD0 }
  - { offset: 0xEDE9F, size: 0x8, addend: 0x0, symName: __RINvMNtCsaNl6UpbT7bw_4core6resultINtB3_6ResultNtNtCsc29TF2YcYso_3syn4expr12ExprTryBlockNtNtBM_5error5ErrorE3mapNtBK_4ExprNcNtB1L_8TryBlock0EBM_, symObjAddr: 0x1A28, symBinAddr: 0x4A204, symSize: 0xD0 }
  - { offset: 0xEDF4A, size: 0x8, addend: 0x0, symName: __RINvMNtCsaNl6UpbT7bw_4core6resultINtB3_6ResultNtNtCsc29TF2YcYso_3syn4expr4ExprNtNtBM_5error5ErrorE3mapINtNtCsiTraAjBDcu4_5alloc5boxed3BoxBI_ENvMB1F_B1C_3newEBM_, symObjAddr: 0x1AF8, symBinAddr: 0x4A2D4, symSize: 0xB8 }
  - { offset: 0xEDFF5, size: 0x8, addend: 0x0, symName: __RINvMNtCsaNl6UpbT7bw_4core6resultINtB3_6ResultNtNtCsc29TF2YcYso_3syn4expr4ExprNtNtBM_5error5ErrorE3mapNtNtBM_4path15GenericArgumentNcNtB1C_5Const0EBM_, symObjAddr: 0x1BB0, symBinAddr: 0x4A38C, symSize: 0xD8 }
  - { offset: 0xEE0A0, size: 0x8, addend: 0x0, symName: __RINvMNtCsaNl6UpbT7bw_4core6resultINtB3_6ResultNtNtCsc29TF2YcYso_3syn4expr5IndexNtNtBM_5error5ErrorE3mapNtBK_6MemberNcNtB1D_7Unnamed0EBM_, symObjAddr: 0x1C88, symBinAddr: 0x4A464, symSize: 0xA4 }
  - { offset: 0xEE140, size: 0x8, addend: 0x0, symName: __RINvMNtCsaNl6UpbT7bw_4core6resultINtB3_6ResultNtNtCsc29TF2YcYso_3syn4expr5IndexNtNtBM_5error5ErrorE7map_errB1f_NCNvNtBK_7parsing11multi_index0EBM_, symObjAddr: 0x1D2C, symBinAddr: 0x4A508, symSize: 0xB8 }
  - { offset: 0xEE1EB, size: 0x8, addend: 0x0, symName: __RINvMNtCsaNl6UpbT7bw_4core6resultINtB3_6ResultNtNtCsc29TF2YcYso_3syn4expr5LabelNtNtBM_5error5ErrorE3mapINtNtB5_6option6OptionBI_ENcNtB1D_4Some0EBM_, symObjAddr: 0x1DE4, symBinAddr: 0x4A5C0, symSize: 0xC4 }
  - { offset: 0xEE296, size: 0x8, addend: 0x0, symName: __RINvMNtCsaNl6UpbT7bw_4core6resultINtB3_6ResultNtNtCsc29TF2YcYso_3syn4expr6ExprIfNtNtBM_5error5ErrorE3mapNtBK_4ExprNcNtB1E_2If0EBM_, symObjAddr: 0x1EA8, symBinAddr: 0x4A684, symSize: 0xD0 }
  - { offset: 0xEE341, size: 0x8, addend: 0x0, symName: __RINvMNtCsaNl6UpbT7bw_4core6resultINtB3_6ResultNtNtCsc29TF2YcYso_3syn4expr7ExprLetNtNtBM_5error5ErrorE3mapNtBK_4ExprNcNtB1F_3Let0EBM_, symObjAddr: 0x1F78, symBinAddr: 0x4A754, symSize: 0xD0 }
  - { offset: 0xEE3EC, size: 0x8, addend: 0x0, symName: __RINvMNtCsaNl6UpbT7bw_4core6resultINtB3_6ResultNtNtCsc29TF2YcYso_3syn4expr7ExprLitNtNtBM_5error5ErrorE3mapNtBK_4ExprNcNtB1F_3Lit0EBM_, symObjAddr: 0x2048, symBinAddr: 0x4A824, symSize: 0xD0 }
  - { offset: 0xEE497, size: 0x8, addend: 0x0, symName: __RINvMNtCsaNl6UpbT7bw_4core6resultINtB3_6ResultNtNtCsc29TF2YcYso_3syn4expr8ExprLoopNtNtBM_5error5ErrorE3mapNtBK_4ExprNcNtB1G_4Loop0EBM_, symObjAddr: 0x2118, symBinAddr: 0x4A8F4, symSize: 0xD0 }
  - { offset: 0xEE542, size: 0x8, addend: 0x0, symName: __RINvMNtCsaNl6UpbT7bw_4core6resultINtB3_6ResultNtNtCsc29TF2YcYso_3syn4expr9ExprAsyncNtNtBM_5error5ErrorE3mapNtBK_4ExprNcNtB1H_5Async0EBM_, symObjAddr: 0x21E8, symBinAddr: 0x4A9C4, symSize: 0xD0 }
  - { offset: 0xEE5ED, size: 0x8, addend: 0x0, symName: __RINvMNtCsaNl6UpbT7bw_4core6resultINtB3_6ResultNtNtCsc29TF2YcYso_3syn4expr9ExprBlockNtNtBM_5error5ErrorE3mapNtBK_4ExprNcNtB1H_5Block0EBM_, symObjAddr: 0x22B8, symBinAddr: 0x4AA94, symSize: 0xD0 }
  - { offset: 0xEE698, size: 0x8, addend: 0x0, symName: __RINvMNtCsaNl6UpbT7bw_4core6resultINtB3_6ResultNtNtCsc29TF2YcYso_3syn4expr9ExprBreakNtNtBM_5error5ErrorE3mapNtBK_4ExprNcNtB1H_5Break0EBM_, symObjAddr: 0x2388, symBinAddr: 0x4AB64, symSize: 0xD0 }
  - { offset: 0xEE743, size: 0x8, addend: 0x0, symName: __RINvMNtCsaNl6UpbT7bw_4core6resultINtB3_6ResultNtNtCsc29TF2YcYso_3syn4expr9ExprConstNtNtBM_5error5ErrorE3mapNtBK_4ExprNcNtB1H_5Const0EBM_, symObjAddr: 0x2458, symBinAddr: 0x4AC34, symSize: 0xD0 }
  - { offset: 0xEE7EE, size: 0x8, addend: 0x0, symName: __RINvMNtCsaNl6UpbT7bw_4core6resultINtB3_6ResultNtNtCsc29TF2YcYso_3syn4expr9ExprInferNtNtBM_5error5ErrorE3mapNtBK_4ExprNcNtB1H_5Infer0EBM_, symObjAddr: 0x2528, symBinAddr: 0x4AD04, symSize: 0xC4 }
  - { offset: 0xEE899, size: 0x8, addend: 0x0, symName: __RINvMNtCsaNl6UpbT7bw_4core6resultINtB3_6ResultNtNtCsc29TF2YcYso_3syn4expr9ExprMatchNtNtBM_5error5ErrorE3mapNtBK_4ExprNcNtB1H_5Match0EBM_, symObjAddr: 0x25EC, symBinAddr: 0x4ADC8, symSize: 0xD0 }
  - { offset: 0xEE944, size: 0x8, addend: 0x0, symName: __RINvMNtCsaNl6UpbT7bw_4core6resultINtB3_6ResultNtNtCsc29TF2YcYso_3syn4expr9ExprRangeNtNtBM_5error5ErrorE3mapNtBK_4ExprNcNtB1H_5Range0EBM_, symObjAddr: 0x26BC, symBinAddr: 0x4AE98, symSize: 0xD0 }
  - { offset: 0xEE9EF, size: 0x8, addend: 0x0, symName: __RINvMNtCsaNl6UpbT7bw_4core6resultINtB3_6ResultNtNtCsc29TF2YcYso_3syn4expr9ExprUnaryNtNtBM_5error5ErrorE3mapNtBK_4ExprNcNtB1H_5Unary0EBM_, symObjAddr: 0x278C, symBinAddr: 0x4AF68, symSize: 0xD0 }
  - { offset: 0xEEA9A, size: 0x8, addend: 0x0, symName: __RINvMNtCsaNl6UpbT7bw_4core6resultINtB3_6ResultNtNtCsc29TF2YcYso_3syn4expr9ExprWhileNtNtBM_5error5ErrorE3mapNtBK_4ExprNcNtB1H_5While0EBM_, symObjAddr: 0x285C, symBinAddr: 0x4B038, symSize: 0xD0 }
  - { offset: 0xEEB45, size: 0x8, addend: 0x0, symName: __RINvMNtCsaNl6UpbT7bw_4core6resultINtB3_6ResultNtNtCsc29TF2YcYso_3syn4expr9ExprYieldNtNtBM_5error5ErrorE3mapNtBK_4ExprNcNtB1H_5Yield0EBM_, symObjAddr: 0x292C, symBinAddr: 0x4B108, symSize: 0xD0 }
  - { offset: 0xEEBF0, size: 0x8, addend: 0x0, symName: __RINvMNtCsaNl6UpbT7bw_4core6resultINtB3_6ResultNtNtCsc29TF2YcYso_3syn4item10ItemStructNtNtBM_5error5ErrorE3mapNtBK_4ItemNcNtB1J_6Struct0EBM_, symObjAddr: 0x29FC, symBinAddr: 0x4B1D8, symSize: 0xCC }
  - { offset: 0xEEC9B, size: 0x8, addend: 0x0, symName: __RINvMNtCsaNl6UpbT7bw_4core6resultINtB3_6ResultNtNtCsc29TF2YcYso_3syn4item11TraitItemFnNtNtBM_5error5ErrorE3mapNtBK_9TraitItemNcNtB1K_2Fn0EBM_, symObjAddr: 0x2AC8, symBinAddr: 0x4B2A4, symSize: 0xD0 }
  - { offset: 0xEED46, size: 0x8, addend: 0x0, symName: __RINvMNtCsaNl6UpbT7bw_4core6resultINtB3_6ResultNtNtCsc29TF2YcYso_3syn4item13ImplItemMacroNtNtBM_5error5ErrorE3mapNtBK_8ImplItemNcNtB1M_5Macro0EBM_, symObjAddr: 0x2B98, symBinAddr: 0x4B374, symSize: 0xD0 }
  - { offset: 0xEEDF1, size: 0x8, addend: 0x0, symName: __RINvMNtCsaNl6UpbT7bw_4core6resultINtB3_6ResultNtNtCsc29TF2YcYso_3syn4item14ItemForeignModNtNtBM_5error5ErrorE3mapNtBK_4ItemNcNtB1N_10ForeignMod0EBM_, symObjAddr: 0x2C68, symBinAddr: 0x4B444, symSize: 0xD0 }
  - { offset: 0xEEE9C, size: 0x8, addend: 0x0, symName: __RINvMNtCsaNl6UpbT7bw_4core6resultINtB3_6ResultNtNtCsc29TF2YcYso_3syn4item14ItemTraitAliasNtNtBM_5error5ErrorE3mapNtBK_4ItemNcNtB1N_10TraitAlias0EBM_, symObjAddr: 0x2D38, symBinAddr: 0x4B514, symSize: 0xD0 }
  - { offset: 0xEEF47, size: 0x8, addend: 0x0, symName: __RINvMNtCsaNl6UpbT7bw_4core6resultINtB3_6ResultNtNtCsc29TF2YcYso_3syn4item14TraitItemMacroNtNtBM_5error5ErrorE3mapNtBK_9TraitItemNcNtB1N_5Macro0EBM_, symObjAddr: 0x2E08, symBinAddr: 0x4B5E4, symSize: 0xD0 }
  - { offset: 0xEEFF2, size: 0x8, addend: 0x0, symName: __RINvMNtCsaNl6UpbT7bw_4core6resultINtB3_6ResultNtNtCsc29TF2YcYso_3syn4item15ItemExternCrateNtNtBM_5error5ErrorE3mapNtBK_4ItemNcNtB1O_11ExternCrate0EBM_, symObjAddr: 0x2ED8, symBinAddr: 0x4B6B4, symSize: 0xD0 }
  - { offset: 0xEF09D, size: 0x8, addend: 0x0, symName: __RINvMNtCsaNl6UpbT7bw_4core6resultINtB3_6ResultNtNtCsc29TF2YcYso_3syn4item16ForeignItemMacroNtNtBM_5error5ErrorE3mapNtBK_11ForeignItemNcNtB1P_5Macro0EBM_, symObjAddr: 0x2FA8, symBinAddr: 0x4B784, symSize: 0xD0 }
  - { offset: 0xEF148, size: 0x8, addend: 0x0, symName: __RINvMNtCsaNl6UpbT7bw_4core6resultINtB3_6ResultNtNtCsc29TF2YcYso_3syn4item6ItemFnNtNtBM_5error5ErrorE3mapNtBK_4ItemNcNtB1E_2Fn0EBM_, symObjAddr: 0x3078, symBinAddr: 0x4B854, symSize: 0xCC }
  - { offset: 0xEF1F3, size: 0x8, addend: 0x0, symName: __RINvMNtCsaNl6UpbT7bw_4core6resultINtB3_6ResultNtNtCsc29TF2YcYso_3syn4item7ItemModNtNtBM_5error5ErrorE3mapNtBK_4ItemNcNtB1F_3Mod0EBM_, symObjAddr: 0x3144, symBinAddr: 0x4B920, symSize: 0xD0 }
  - { offset: 0xEF29E, size: 0x8, addend: 0x0, symName: __RINvMNtCsaNl6UpbT7bw_4core6resultINtB3_6ResultNtNtCsc29TF2YcYso_3syn4item8ItemEnumNtNtBM_5error5ErrorE3mapNtBK_4ItemNcNtB1G_4Enum0EBM_, symObjAddr: 0x3214, symBinAddr: 0x4B9F0, symSize: 0xD0 }
  - { offset: 0xEF349, size: 0x8, addend: 0x0, symName: __RINvMNtCsaNl6UpbT7bw_4core6resultINtB3_6ResultNtNtCsc29TF2YcYso_3syn4item9ItemMacroNtNtBM_5error5ErrorE3mapNtBK_4ItemNcNtB1H_5Macro0EBM_, symObjAddr: 0x32E4, symBinAddr: 0x4BAC0, symSize: 0xD0 }
  - { offset: 0xEF3F4, size: 0x8, addend: 0x0, symName: __RINvMNtCsaNl6UpbT7bw_4core6resultINtB3_6ResultNtNtCsc29TF2YcYso_3syn4item9ItemTraitNtNtBM_5error5ErrorE3mapNtBK_4ItemNcNtB1H_5Trait0EBM_, symObjAddr: 0x33B4, symBinAddr: 0x4BB90, symSize: 0xD0 }
  - { offset: 0xEF49F, size: 0x8, addend: 0x0, symName: __RINvMNtCsaNl6UpbT7bw_4core6resultINtB3_6ResultNtNtCsc29TF2YcYso_3syn4item9ItemUnionNtNtBM_5error5ErrorE3mapNtBK_4ItemNcNtB1H_5Union0EBM_, symObjAddr: 0x3484, symBinAddr: 0x4BC60, symSize: 0xD0 }
  - { offset: 0xEF54A, size: 0x8, addend: 0x0, symName: __RINvMNtCsaNl6UpbT7bw_4core6resultINtB3_6ResultNtNtCsc29TF2YcYso_3syn4stmt5LocalNtNtBM_5error5ErrorE3mapNtBK_4StmtNcNtB1D_5Local0EBM_, symObjAddr: 0x3554, symBinAddr: 0x4BD30, symSize: 0xD0 }
  - { offset: 0xEF5F5, size: 0x8, addend: 0x0, symName: __RINvMNtCsaNl6UpbT7bw_4core6resultINtB3_6ResultNtNtCsc29TF2YcYso_3syn4stmt9StmtMacroNtNtBM_5error5ErrorE3mapNtBK_4StmtNcNtB1H_5Macro0EBM_, symObjAddr: 0x3624, symBinAddr: 0x4BE00, symSize: 0xD0 }
  - { offset: 0xEF6A0, size: 0x8, addend: 0x0, symName: __RINvMNtCsaNl6UpbT7bw_4core6resultINtB3_6ResultNtNtCsc29TF2YcYso_3syn5token2GeNtNtBM_5error5ErrorE3mapNtNtBM_2op5BinOpNcNtB1B_2Ge0EBM_, symObjAddr: 0x36F4, symBinAddr: 0x4BED0, symSize: 0xA4 }
  - { offset: 0xEF74B, size: 0x8, addend: 0x0, symName: __RINvMNtCsaNl6UpbT7bw_4core6resultINtB3_6ResultNtNtCsc29TF2YcYso_3syn5token2GtNtNtBM_5error5ErrorE3mapNtNtBM_2op5BinOpNcNtB1B_2Gt0EBM_, symObjAddr: 0x3798, symBinAddr: 0x4BF74, symSize: 0xA4 }
  - { offset: 0xEF7F6, size: 0x8, addend: 0x0, symName: __RINvMNtCsaNl6UpbT7bw_4core6resultINtB3_6ResultNtNtCsc29TF2YcYso_3syn5token2LeNtNtBM_5error5ErrorE3mapNtNtBM_2op5BinOpNcNtB1B_2Le0EBM_, symObjAddr: 0x383C, symBinAddr: 0x4C018, symSize: 0xA4 }
  - { offset: 0xEF8A1, size: 0x8, addend: 0x0, symName: __RINvMNtCsaNl6UpbT7bw_4core6resultINtB3_6ResultNtNtCsc29TF2YcYso_3syn5token2LtNtNtBM_5error5ErrorE3mapNtNtBM_2op5BinOpNcNtB1B_2Lt0EBM_, symObjAddr: 0x38E0, symBinAddr: 0x4C0BC, symSize: 0xA4 }
  - { offset: 0xEF94C, size: 0x8, addend: 0x0, symName: __RINvMNtCsaNl6UpbT7bw_4core6resultINtB3_6ResultNtNtCsc29TF2YcYso_3syn5token2NeNtNtBM_5error5ErrorE3mapNtNtBM_2op5BinOpNcNtB1B_2Ne0EBM_, symObjAddr: 0x3984, symBinAddr: 0x4C160, symSize: 0xA4 }
  - { offset: 0xEF9F7, size: 0x8, addend: 0x0, symName: __RINvMNtCsaNl6UpbT7bw_4core6resultINtB3_6ResultNtNtCsc29TF2YcYso_3syn5token2OrNtNtBM_5error5ErrorE3mapNtNtBM_2op5BinOpNcNtB1B_5BitOr0EBM_, symObjAddr: 0x3A28, symBinAddr: 0x4C204, symSize: 0xA4 }
  - { offset: 0xEFAA2, size: 0x8, addend: 0x0, symName: __RINvMNtCsaNl6UpbT7bw_4core6resultINtB3_6ResultNtNtCsc29TF2YcYso_3syn5token3AndNtNtBM_5error5ErrorE3mapNtNtBM_2op5BinOpNcNtB1C_6BitAnd0EBM_, symObjAddr: 0x3ACC, symBinAddr: 0x4C2A8, symSize: 0xA4 }
  - { offset: 0xEFB4D, size: 0x8, addend: 0x0, symName: __RINvMNtCsaNl6UpbT7bw_4core6resultINtB3_6ResultNtNtCsc29TF2YcYso_3syn5token3NotNtNtBM_5error5ErrorE3mapNtNtBM_2op4UnOpNcNtB1C_3Not0EBM_, symObjAddr: 0x3B70, symBinAddr: 0x4C34C, symSize: 0xAC }
  - { offset: 0xEFBF8, size: 0x8, addend: 0x0, symName: __RINvMNtCsaNl6UpbT7bw_4core6resultINtB3_6ResultNtNtCsc29TF2YcYso_3syn5token3ShlNtNtBM_5error5ErrorE3mapNtNtBM_2op5BinOpNcNtB1C_3Shl0EBM_, symObjAddr: 0x3C1C, symBinAddr: 0x4C3F8, symSize: 0xA4 }
  - { offset: 0xEFCA3, size: 0x8, addend: 0x0, symName: __RINvMNtCsaNl6UpbT7bw_4core6resultINtB3_6ResultNtNtCsc29TF2YcYso_3syn5token3ShrNtNtBM_5error5ErrorE3mapNtNtBM_2op5BinOpNcNtB1C_3Shr0EBM_, symObjAddr: 0x3CC0, symBinAddr: 0x4C49C, symSize: 0xA4 }
  - { offset: 0xEFD4E, size: 0x8, addend: 0x0, symName: __RINvMNtCsaNl6UpbT7bw_4core6resultINtB3_6ResultNtNtCsc29TF2YcYso_3syn5token4EqEqNtNtBM_5error5ErrorE3mapNtNtBM_2op5BinOpNcNtB1D_2Eq0EBM_, symObjAddr: 0x3D64, symBinAddr: 0x4C540, symSize: 0xA4 }
  - { offset: 0xEFDF9, size: 0x8, addend: 0x0, symName: __RINvMNtCsaNl6UpbT7bw_4core6resultINtB3_6ResultNtNtCsc29TF2YcYso_3syn5token4OrEqNtNtBM_5error5ErrorE3mapNtNtBM_2op5BinOpNcNtB1D_11BitOrAssign0EBM_, symObjAddr: 0x3E08, symBinAddr: 0x4C5E4, symSize: 0xA4 }
  - { offset: 0xEFEA4, size: 0x8, addend: 0x0, symName: __RINvMNtCsaNl6UpbT7bw_4core6resultINtB3_6ResultNtNtCsc29TF2YcYso_3syn5token4OrOrNtNtBM_5error5ErrorE3mapNtNtBM_2op5BinOpNcNtB1D_2Or0EBM_, symObjAddr: 0x3EAC, symBinAddr: 0x4C688, symSize: 0xA4 }
  - { offset: 0xEFF4F, size: 0x8, addend: 0x0, symName: __RINvMNtCsaNl6UpbT7bw_4core6resultINtB3_6ResultNtNtCsc29TF2YcYso_3syn5token4PlusNtNtBM_5error5ErrorE3mapNtNtBM_2op5BinOpNcNtB1D_3Add0EBM_, symObjAddr: 0x3F50, symBinAddr: 0x4C72C, symSize: 0xA4 }
  - { offset: 0xEFFFA, size: 0x8, addend: 0x0, symName: __RINvMNtCsaNl6UpbT7bw_4core6resultINtB3_6ResultNtNtCsc29TF2YcYso_3syn5token4StarNtNtBM_5error5ErrorE3mapNtNtBM_2op4UnOpNcNtB1D_5Deref0EBM_, symObjAddr: 0x3FF4, symBinAddr: 0x4C7D0, symSize: 0xAC }
  - { offset: 0xF00A5, size: 0x8, addend: 0x0, symName: __RINvMNtCsaNl6UpbT7bw_4core6resultINtB3_6ResultNtNtCsc29TF2YcYso_3syn5token4StarNtNtBM_5error5ErrorE3mapNtNtBM_2op5BinOpNcNtB1D_3Mul0EBM_, symObjAddr: 0x40A0, symBinAddr: 0x4C87C, symSize: 0xA4 }
  - { offset: 0xF0150, size: 0x8, addend: 0x0, symName: __RINvMNtCsaNl6UpbT7bw_4core6resultINtB3_6ResultNtNtCsc29TF2YcYso_3syn5token5AndEqNtNtBM_5error5ErrorE3mapNtNtBM_2op5BinOpNcNtB1E_12BitAndAssign0EBM_, symObjAddr: 0x4144, symBinAddr: 0x4C920, symSize: 0xA4 }
  - { offset: 0xF01FB, size: 0x8, addend: 0x0, symName: __RINvMNtCsaNl6UpbT7bw_4core6resultINtB3_6ResultNtNtCsc29TF2YcYso_3syn5token5CaretNtNtBM_5error5ErrorE3mapNtNtBM_2op5BinOpNcNtB1E_6BitXor0EBM_, symObjAddr: 0x41E8, symBinAddr: 0x4C9C4, symSize: 0xA4 }
  - { offset: 0xF02A6, size: 0x8, addend: 0x0, symName: __RINvMNtCsaNl6UpbT7bw_4core6resultINtB3_6ResultNtNtCsc29TF2YcYso_3syn5token5MinusNtNtBM_5error5ErrorE3mapNtNtBM_2op4UnOpNcNtB1E_3Neg0EBM_, symObjAddr: 0x428C, symBinAddr: 0x4CA68, symSize: 0xAC }
  - { offset: 0xF0351, size: 0x8, addend: 0x0, symName: __RINvMNtCsaNl6UpbT7bw_4core6resultINtB3_6ResultNtNtCsc29TF2YcYso_3syn5token5MinusNtNtBM_5error5ErrorE3mapNtNtBM_2op5BinOpNcNtB1E_3Sub0EBM_, symObjAddr: 0x4338, symBinAddr: 0x4CB14, symSize: 0xA4 }
  - { offset: 0xF03FC, size: 0x8, addend: 0x0, symName: __RINvMNtCsaNl6UpbT7bw_4core6resultINtB3_6ResultNtNtCsc29TF2YcYso_3syn5token5ShlEqNtNtBM_5error5ErrorE3mapNtNtBM_2op5BinOpNcNtB1E_9ShlAssign0EBM_, symObjAddr: 0x43DC, symBinAddr: 0x4CBB8, symSize: 0xAC }
  - { offset: 0xF04A7, size: 0x8, addend: 0x0, symName: __RINvMNtCsaNl6UpbT7bw_4core6resultINtB3_6ResultNtNtCsc29TF2YcYso_3syn5token5ShrEqNtNtBM_5error5ErrorE3mapNtNtBM_2op5BinOpNcNtB1E_9ShrAssign0EBM_, symObjAddr: 0x4488, symBinAddr: 0x4CC64, symSize: 0xAC }
  - { offset: 0xF0552, size: 0x8, addend: 0x0, symName: __RINvMNtCsaNl6UpbT7bw_4core6resultINtB3_6ResultNtNtCsc29TF2YcYso_3syn5token5SlashNtNtBM_5error5ErrorE3mapNtNtBM_2op5BinOpNcNtB1E_3Div0EBM_, symObjAddr: 0x4534, symBinAddr: 0x4CD10, symSize: 0xA4 }
  - { offset: 0xF05FD, size: 0x8, addend: 0x0, symName: __RINvMNtCsaNl6UpbT7bw_4core6resultINtB3_6ResultNtNtCsc29TF2YcYso_3syn5token6AndAndNtNtBM_5error5ErrorE3mapNtNtBM_2op5BinOpNcNtB1F_3And0EBM_, symObjAddr: 0x45D8, symBinAddr: 0x4CDB4, symSize: 0xA4 }
  - { offset: 0xF06A8, size: 0x8, addend: 0x0, symName: __RINvMNtCsaNl6UpbT7bw_4core6resultINtB3_6ResultNtNtCsc29TF2YcYso_3syn5token6DotDotNtNtBM_5error5ErrorE3mapNtNtBM_4expr11RangeLimitsNcNtB1F_8HalfOpen0EBM_, symObjAddr: 0x467C, symBinAddr: 0x4CE58, symSize: 0xA4 }
  - { offset: 0xF0753, size: 0x8, addend: 0x0, symName: __RINvMNtCsaNl6UpbT7bw_4core6resultINtB3_6ResultNtNtCsc29TF2YcYso_3syn5token6PlusEqNtNtBM_5error5ErrorE3mapNtNtBM_2op5BinOpNcNtB1F_9AddAssign0EBM_, symObjAddr: 0x4720, symBinAddr: 0x4CEFC, symSize: 0xA4 }
  - { offset: 0xF07FE, size: 0x8, addend: 0x0, symName: __RINvMNtCsaNl6UpbT7bw_4core6resultINtB3_6ResultNtNtCsc29TF2YcYso_3syn5token6StarEqNtNtBM_5error5ErrorE3mapNtNtBM_2op5BinOpNcNtB1F_9MulAssign0EBM_, symObjAddr: 0x47C4, symBinAddr: 0x4CFA0, symSize: 0xA4 }
  - { offset: 0xF08A9, size: 0x8, addend: 0x0, symName: __RINvMNtCsaNl6UpbT7bw_4core6resultINtB3_6ResultNtNtCsc29TF2YcYso_3syn5token7CaretEqNtNtBM_5error5ErrorE3mapNtNtBM_2op5BinOpNcNtB1G_12BitXorAssign0EBM_, symObjAddr: 0x4868, symBinAddr: 0x4D044, symSize: 0xA4 }
  - { offset: 0xF0954, size: 0x8, addend: 0x0, symName: __RINvMNtCsaNl6UpbT7bw_4core6resultINtB3_6ResultNtNtCsc29TF2YcYso_3syn5token7MinusEqNtNtBM_5error5ErrorE3mapNtNtBM_2op5BinOpNcNtB1G_9SubAssign0EBM_, symObjAddr: 0x490C, symBinAddr: 0x4D0E8, symSize: 0xA4 }
  - { offset: 0xF09FF, size: 0x8, addend: 0x0, symName: __RINvMNtCsaNl6UpbT7bw_4core6resultINtB3_6ResultNtNtCsc29TF2YcYso_3syn5token7PercentNtNtBM_5error5ErrorE3mapNtNtBM_2op5BinOpNcNtB1G_3Rem0EBM_, symObjAddr: 0x49B0, symBinAddr: 0x4D18C, symSize: 0xA4 }
  - { offset: 0xF0AAA, size: 0x8, addend: 0x0, symName: __RINvMNtCsaNl6UpbT7bw_4core6resultINtB3_6ResultNtNtCsc29TF2YcYso_3syn5token7SlashEqNtNtBM_5error5ErrorE3mapNtNtBM_2op5BinOpNcNtB1G_9DivAssign0EBM_, symObjAddr: 0x4A54, symBinAddr: 0x4D230, symSize: 0xA4 }
  - { offset: 0xF0B55, size: 0x8, addend: 0x0, symName: __RINvMNtCsaNl6UpbT7bw_4core6resultINtB3_6ResultNtNtCsc29TF2YcYso_3syn5token8DotDotEqNtNtBM_5error5ErrorE3mapNtNtBM_4expr11RangeLimitsNcNtB1H_6Closed0EBM_, symObjAddr: 0x4AF8, symBinAddr: 0x4D2D4, symSize: 0xAC }
  - { offset: 0xF0C00, size: 0x8, addend: 0x0, symName: __RINvMNtCsaNl6UpbT7bw_4core6resultINtB3_6ResultNtNtCsc29TF2YcYso_3syn5token8QuestionNtNtBM_5error5ErrorE3mapNtNtBM_8generics18TraitBoundModifierNcNtB1H_5Maybe0EBM_, symObjAddr: 0x4BA4, symBinAddr: 0x4D380, symSize: 0xAC }
  - { offset: 0xF0CAB, size: 0x8, addend: 0x0, symName: __RINvMNtCsaNl6UpbT7bw_4core6resultINtB3_6ResultNtNtCsc29TF2YcYso_3syn5token9PercentEqNtNtBM_5error5ErrorE3mapNtNtBM_2op5BinOpNcNtB1I_9RemAssign0EBM_, symObjAddr: 0x4C50, symBinAddr: 0x4D42C, symSize: 0xA4 }
  - { offset: 0xF0D56, size: 0x8, addend: 0x0, symName: __RINvMNtCsaNl6UpbT7bw_4core6resultINtB3_6ResultNtNtCsc29TF2YcYso_3syn8generics11WhereClauseNtNtBM_5error5ErrorE3mapINtNtB5_6option6OptionBI_ENcNtB1O_4Some0EBM_, symObjAddr: 0x4CF4, symBinAddr: 0x4D4D0, symSize: 0xC4 }
  - { offset: 0xF0E01, size: 0x8, addend: 0x0, symName: __RINvMNtCsaNl6UpbT7bw_4core6resultINtB3_6ResultNtNtCsc29TF2YcYso_3syn8generics14BoundLifetimesNtNtBM_5error5ErrorE3mapINtNtB5_6option6OptionBI_ENcNtB1R_4Some0EBM_, symObjAddr: 0x4DB8, symBinAddr: 0x4D594, symSize: 0xC4 }
  - { offset: 0xF0EAC, size: 0x8, addend: 0x0, symName: __RINvMNtCsaNl6UpbT7bw_4core6resultINtB3_6ResultNtNtCsc29TF2YcYso_3syn8lifetime8LifetimeNtNtBM_5error5ErrorE3mapNtNtBM_8generics13CapturedParamNcNtB1K_8Lifetime0EBM_, symObjAddr: 0x4E7C, symBinAddr: 0x4D658, symSize: 0xAC }
  - { offset: 0xF0F57, size: 0x8, addend: 0x0, symName: __RINvMNtCsaNl6UpbT7bw_4core6resultINtB3_6ResultNtNtCsc29TF2YcYso_3syn8lifetime8LifetimeNtNtBM_5error5ErrorE3mapNtNtBM_8generics14TypeParamBoundNcNtB1K_8Lifetime0EBM_, symObjAddr: 0x4F28, symBinAddr: 0x4D704, symSize: 0xB4 }
  - { offset: 0xF1036, size: 0x8, addend: 0x0, symName: __RINvMNtCsaNl6UpbT7bw_4core6resultINtB3_6ResultTNtNtCshnvkK9b4wzu_11proc_macro25extra9DelimSpanNtNtCsc29TF2YcYso_3syn5parse11ParseBufferENtNtB1y_5error5ErrorE3mapNtNtB1y_5group5GroupNCNvB2B_11parse_group0EB1y_, symObjAddr: 0x4FDC, symBinAddr: 0x4D7B8, symSize: 0xD4 }
  - { offset: 0xF10C9, size: 0x8, addend: 0x0, symName: __RINvMNtCsaNl6UpbT7bw_4core6resultINtB3_6ResultTNtNtCshnvkK9b4wzu_11proc_macro25extra9DelimSpanNtNtCsc29TF2YcYso_3syn5parse11ParseBufferENtNtB1y_5error5ErrorE3mapNtNtB1y_5group6BracesNCNvB2B_12parse_braces0EB1y_, symObjAddr: 0x50B0, symBinAddr: 0x4D88C, symSize: 0xC4 }
  - { offset: 0xF115C, size: 0x8, addend: 0x0, symName: __RINvMNtCsaNl6UpbT7bw_4core6resultINtB3_6ResultTNtNtCshnvkK9b4wzu_11proc_macro25extra9DelimSpanNtNtCsc29TF2YcYso_3syn5parse11ParseBufferENtNtB1y_5error5ErrorE3mapNtNtB1y_5group6ParensNCNvB2B_12parse_parens0EB1y_, symObjAddr: 0x5174, symBinAddr: 0x4D950, symSize: 0xC4 }
  - { offset: 0xF11EF, size: 0x8, addend: 0x0, symName: __RINvMNtCsaNl6UpbT7bw_4core6resultINtB3_6ResultTNtNtCshnvkK9b4wzu_11proc_macro25extra9DelimSpanNtNtCsc29TF2YcYso_3syn5parse11ParseBufferENtNtB1y_5error5ErrorE3mapNtNtB1y_5group8BracketsNCNvB2B_14parse_brackets0EB1y_, symObjAddr: 0x5238, symBinAddr: 0x4DA14, symSize: 0xC4 }
  - { offset: 0xF128F, size: 0x8, addend: 0x0, symName: __RINvMNtCsaNl6UpbT7bw_4core6resultINtB3_6ResultmNtNtNtB5_3num5error13ParseIntErrorE7map_errNtNtCsc29TF2YcYso_3syn5error5ErrorNCNvXsA_NtNtB1u_4expr7parsingNtB28_5IndexNtNtB1u_5parse5Parse5parse0EB1u_, symObjAddr: 0x52FC, symBinAddr: 0x4DAD8, symSize: 0x84 }
  - { offset: 0xF132E, size: 0x8, addend: 0x0, symName: __RNvMNtCsaNl6UpbT7bw_4core6resultINtB2_6ResultINtNtB4_6option6OptionNtNtCsc29TF2YcYso_3syn2ty3AbiENtNtB17_5error5ErrorE5is_okB17_, symObjAddr: 0x5380, symBinAddr: 0x4DB5C, symSize: 0x20 }
  - { offset: 0xF1370, size: 0x8, addend: 0x0, symName: __RNvMNtCsaNl6UpbT7bw_4core6resultINtB2_6ResultINtNtB4_6option6OptionNtNtCsc29TF2YcYso_3syn5token5AsyncENtNtB17_5error5ErrorE5is_okB17_, symObjAddr: 0x53A0, symBinAddr: 0x4DB7C, symSize: 0x2C }
  - { offset: 0xF13B2, size: 0x8, addend: 0x0, symName: __RNvMNtCsaNl6UpbT7bw_4core6resultINtB2_6ResultINtNtB4_6option6OptionNtNtCsc29TF2YcYso_3syn5token5ConstENtNtB17_5error5ErrorE5is_okB17_, symObjAddr: 0x53CC, symBinAddr: 0x4DBA8, symSize: 0x2C }
  - { offset: 0xF13F4, size: 0x8, addend: 0x0, symName: __RNvMNtCsaNl6UpbT7bw_4core6resultINtB2_6ResultINtNtB4_6option6OptionNtNtCsc29TF2YcYso_3syn5token6UnsafeENtNtB17_5error5ErrorE5is_okB17_, symObjAddr: 0x53F8, symBinAddr: 0x4DBD4, symSize: 0x2C }
  - { offset: 0xF1436, size: 0x8, addend: 0x0, symName: __RNvMNtCsaNl6UpbT7bw_4core6resultINtB2_6ResultNtCshnvkK9b4wzu_11proc_macro24SpanNtNtCsc29TF2YcYso_3syn5error5ErrorE5is_okB1j_, symObjAddr: 0x5424, symBinAddr: 0x4DC00, symSize: 0x2C }
  - { offset: 0xF1496, size: 0x8, addend: 0x0, symName: __RNvMNtCsaNl6UpbT7bw_4core6resultINtB2_6ResultNtCshnvkK9b4wzu_11proc_macro25IdentNtNtCsc29TF2YcYso_3syn5error5ErrorE10unwrap_errB1k_, symObjAddr: 0x5450, symBinAddr: 0x4DC2C, symSize: 0xB0 }
  - { offset: 0xF14F7, size: 0x8, addend: 0x0, symName: __RNvMNtCsaNl6UpbT7bw_4core6resultINtB2_6ResultNtNtCsc29TF2YcYso_3syn3lit3LitNtNtBL_5error5ErrorE5is_okBL_, symObjAddr: 0x552C, symBinAddr: 0x4DCDC, symSize: 0x20 }
  - { offset: 0xF1539, size: 0x8, addend: 0x0, symName: __RNvMNtCsaNl6UpbT7bw_4core6resultINtB2_6ResultNtNtCsc29TF2YcYso_3syn3lit6LitIntNtNtBL_5error5ErrorE5is_okBL_, symObjAddr: 0x554C, symBinAddr: 0x4DCFC, symSize: 0x2C }
  - { offset: 0xF157B, size: 0x8, addend: 0x0, symName: __RNvMNtCsaNl6UpbT7bw_4core6resultINtB2_6ResultNtNtCsc29TF2YcYso_3syn3lit6LitStrNtNtBL_5error5ErrorE5is_okBL_, symObjAddr: 0x5578, symBinAddr: 0x4DD28, symSize: 0x2C }
  - { offset: 0xF15BD, size: 0x8, addend: 0x0, symName: __RNvMNtCsaNl6UpbT7bw_4core6resultINtB2_6ResultNtNtCsc29TF2YcYso_3syn3lit8LitFloatNtNtBL_5error5ErrorE5is_okBL_, symObjAddr: 0x5654, symBinAddr: 0x4DD54, symSize: 0x2C }
  - { offset: 0xF1610, size: 0x8, addend: 0x0, symName: __RNvMNtCsaNl6UpbT7bw_4core6resultINtB2_6ResultNtNtNtCsiTraAjBDcu4_5alloc3ffi5c_str7CStringNtBJ_8NulErrorE2okCsc29TF2YcYso_3syn, symObjAddr: 0x5680, symBinAddr: 0x4DD80, symSize: 0x8C }
  - { offset: 0xF1664, size: 0x8, addend: 0x0, symName: __RNvMNtCsiTraAjBDcu4_5alloc6stringNtB2_6String10into_bytesCsc29TF2YcYso_3syn, symObjAddr: 0x570C, symBinAddr: 0x4DE0C, symSize: 0x18 }
  - { offset: 0xF1705, size: 0x8, addend: 0x0, symName: __RNvMNtCsiTraAjBDcu4_5alloc6stringNtB2_6String13with_capacityCsc29TF2YcYso_3syn, symObjAddr: 0x5724, symBinAddr: 0x4DE24, symSize: 0x58 }
  - { offset: 0xF1804, size: 0x8, addend: 0x0, symName: __RNvMNtCsiTraAjBDcu4_5alloc6stringNtB2_6String14into_boxed_strCsc29TF2YcYso_3syn, symObjAddr: 0x577C, symBinAddr: 0x4DE7C, symSize: 0x7C }
  - { offset: 0xF1916, size: 0x8, addend: 0x0, symName: __RNvMNtCsiTraAjBDcu4_5alloc6stringNtB2_6String3lenCsc29TF2YcYso_3syn, symObjAddr: 0x57F8, symBinAddr: 0x4DEF8, symSize: 0x18 }
  - { offset: 0xF195E, size: 0x8, addend: 0x0, symName: __RNvMNtCsiTraAjBDcu4_5alloc6stringNtB2_6String3newCsc29TF2YcYso_3syn, symObjAddr: 0x5810, symBinAddr: 0x4DF10, symSize: 0x30 }
  - { offset: 0xF1AC4, size: 0x8, addend: 0x0, symName: __RNvMNtCsiTraAjBDcu4_5alloc6stringNtB2_6String4pushCsc29TF2YcYso_3syn, symObjAddr: 0x5840, symBinAddr: 0x4DF40, symSize: 0xF8 }
  - { offset: 0xF1D8D, size: 0x8, addend: 0x0, symName: __RNvMNtCsiTraAjBDcu4_5alloc6stringNtB2_6String6as_strCsc29TF2YcYso_3syn, symObjAddr: 0x5938, symBinAddr: 0x4E038, symSize: 0x78 }
  - { offset: 0xF1FEF, size: 0x8, addend: 0x0, symName: __RNvMNtCsiTraAjBDcu4_5alloc6stringNtB2_6String6insertCsc29TF2YcYso_3syn, symObjAddr: 0x59B0, symBinAddr: 0x4E0B0, symSize: 0x2D4 }
  - { offset: 0xF24C7, size: 0x8, addend: 0x0, symName: __RNvMNtCsiTraAjBDcu4_5alloc6stringNtB2_6String8is_emptyCsc29TF2YcYso_3syn, symObjAddr: 0x5C84, symBinAddr: 0x4E384, symSize: 0x20 }
  - { offset: 0xF25FD, size: 0x8, addend: 0x0, symName: __RNvMNtCsiTraAjBDcu4_5alloc6stringNtB2_6String8push_strCsc29TF2YcYso_3syn, symObjAddr: 0x5CA4, symBinAddr: 0x4E3A4, symSize: 0x58 }
  - { offset: 0xF28CD, size: 0x8, addend: 0x0, symName: __RNvMNtCsiTraAjBDcu4_5alloc6stringNtB2_6String8truncateCsc29TF2YcYso_3syn, symObjAddr: 0x5CFC, symBinAddr: 0x4E3FC, symSize: 0x1B4 }
  - { offset: 0xF2C4E, size: 0x8, addend: 0x0, symName: __RNvMNtCsiTraAjBDcu4_5alloc6stringNtB2_6String9from_utf8Csc29TF2YcYso_3syn, symObjAddr: 0x5EB0, symBinAddr: 0x4E5B0, symSize: 0x158 }
