---
triple:          'arm64-apple-darwin'
binary-path:     '/Users/tyler/fall25/cse380/final_project/final_project_sqlite/target/debug/build/zerocopy-c822fe3362b87da2/build_script_build-c822fe3362b87da2'
relocations:
  - { offset: 0x1E, size: 0x8, addend: 0x0, symName: __RINvMNtNtCsaNl6UpbT7bw_4core3fmt2rtNtB3_8Argument11new_displayINtNtCsiTraAjBDcu4_5alloc6borrow3CoweEECs4XYFHvYqnfH_18build_script_build, symObjAddr: 0x0, symBinAddr: 0x100000BF0, symSize: 0x2C }
  - { offset: 0xDFC, size: 0x8, addend: 0x0, symName: __RNvXs7_NtNtCsaNl6UpbT7bw_4core3cmp5implsReNtB7_9PartialEq2eqCs4XYFHvYqnfH_18build_script_build, symObjAddr: 0x244C, symBinAddr: 0x10000303C, symSize: 0x44 }
  - { offset: 0xE51, size: 0x8, addend: 0x0, symName: __RNvXsU_NtNtCsaNl6UpbT7bw_4core3cmp5implsjNtB7_10PartialOrd11partial_cmpCs4XYFHvYqnfH_18build_script_build, symObjAddr: 0x2490, symBinAddr: 0x100003080, symSize: 0x40 }
  - { offset: 0x114D, size: 0x8, addend: 0x0, symName: __RNvXs1q_NtNtCsaNl6UpbT7bw_4core3fmt3numjNtB8_5Debug3fmtCs4XYFHvYqnfH_18build_script_build, symObjAddr: 0x20E4, symBinAddr: 0x100002CD4, symSize: 0x90 }
  - { offset: 0x2191, size: 0x8, addend: 0x0, symName: __RINvXs2V_NtNtCsaNl6UpbT7bw_4core5slice4iterINtB7_4IterhENtNtNtNtBb_4iter6traits8iterator8Iterator4folduNCINvNtNtBY_8adapters3map8map_foldRhhuNCNvNtCsiTraAjBDcu4_5alloc3str13replace_ascii0NCINvNvBS_8for_each4callhNCINvMsi_NtB2l_3vecINtB3x_3VechE14extend_trustedINtB1I_3MapBF_B2f_EE0E0E0ECs4XYFHvYqnfH_18build_script_build, symObjAddr: 0xCA0, symBinAddr: 0x100001890, symSize: 0x1B8 }
  - { offset: 0x22E6, size: 0x8, addend: 0x0, symName: __RNvXs2V_NtNtCsaNl6UpbT7bw_4core5slice4iterINtB6_4IterNtCs4XYFHvYqnfH_18build_script_build10VersionCfgENtNtNtNtBa_4iter6traits8iterator8Iterator4nextBR_, symObjAddr: 0x2174, symBinAddr: 0x100002D64, symSize: 0xB0 }
  - { offset: 0x2420, size: 0x8, addend: 0x0, symName: __RNvXs2V_NtNtCsaNl6UpbT7bw_4core5slice4iterINtB6_4IterhENtNtNtNtBa_4iter6traits8iterator8Iterator4nextCs4XYFHvYqnfH_18build_script_build, symObjAddr: 0x2224, symBinAddr: 0x100002E14, symSize: 0xB0 }
  - { offset: 0x255A, size: 0x8, addend: 0x0, symName: __RNvXs2V_NtNtCsaNl6UpbT7bw_4core5slice4iterINtB6_4IterhENtNtNtNtBa_4iter6traits8iterator8Iterator9size_hintCs4XYFHvYqnfH_18build_script_build, symObjAddr: 0x22D4, symBinAddr: 0x100002EC4, symSize: 0x70 }
  - { offset: 0x25CF, size: 0x8, addend: 0x0, symName: __RNvXs2W_NtNtCsaNl6UpbT7bw_4core5slice4iterINtB6_4IterhENtNtNtNtBa_4iter6traits12double_ended19DoubleEndedIterator9next_backCs4XYFHvYqnfH_18build_script_build, symObjAddr: 0x2344, symBinAddr: 0x100002F34, symSize: 0x108 }
  - { offset: 0x2BDA, size: 0x8, addend: 0x0, symName: __RNCNvXs1_NtNtNtCsht3nMU9UgFu_3std2io5error14repr_bitpackedNtB7_4ReprNtNtNtCsaNl6UpbT7bw_4core3ops4drop4Drop4drop0Cs4XYFHvYqnfH_18build_script_build, symObjAddr: 0xFF4, symBinAddr: 0x100001BE4, symSize: 0x3C }
  - { offset: 0x2C8F, size: 0x8, addend: 0x0, symName: __RNvXs1_NtNtNtCsht3nMU9UgFu_3std2io5error14repr_bitpackedNtB5_4ReprNtNtNtCsaNl6UpbT7bw_4core3ops4drop4Drop4dropCs4XYFHvYqnfH_18build_script_build, symObjAddr: 0x20AC, symBinAddr: 0x100002C9C, symSize: 0x38 }
  - { offset: 0x2CB8, size: 0x8, addend: 0x0, symName: __RINvNtNtNtCsht3nMU9UgFu_3std2io5error14repr_bitpacked11decode_reprINtNtCsiTraAjBDcu4_5alloc5boxed3BoxNtB4_6CustomENCNvXs1_B2_NtB2_4ReprNtNtNtCsaNl6UpbT7bw_4core3ops4drop4Drop4drop0ECs4XYFHvYqnfH_18build_script_build, symObjAddr: 0x8E8, symBinAddr: 0x1000014D8, symSize: 0x1DC }
  - { offset: 0x2F25, size: 0x8, addend: 0x0, symName: __RNCNvMs0_NtNtNtCsht3nMU9UgFu_3std2io5error14repr_bitpackedNtB7_4Repr4data0Cs4XYFHvYqnfH_18build_script_build, symObjAddr: 0xFE0, symBinAddr: 0x100001BD0, symSize: 0x14 }
  - { offset: 0x2F5D, size: 0x8, addend: 0x0, symName: __RINvNtNtNtCsht3nMU9UgFu_3std2io5error14repr_bitpacked11decode_reprRNtB4_6CustomNCNvMs0_B2_NtB2_4Repr4data0ECs4XYFHvYqnfH_18build_script_build, symObjAddr: 0xAC4, symBinAddr: 0x1000016B4, symSize: 0x1DC }
  - { offset: 0x31B9, size: 0x8, addend: 0x0, symName: __RNvNtNtNtCsht3nMU9UgFu_3std2io5error14repr_bitpacked14kind_from_primCs4XYFHvYqnfH_18build_script_build, symObjAddr: 0x16A4, symBinAddr: 0x100002294, symSize: 0x758 }
  - { offset: 0x4117, size: 0x8, addend: 0x0, symName: __RINvXsd_NtCsiTraAjBDcu4_5alloc3vecINtB6_3VecNtCs4XYFHvYqnfH_18build_script_build10VersionCfgEINtNtNtNtCsaNl6UpbT7bw_4core4iter6traits7collect12FromIteratorBG_E9from_iterINtNtNtB1A_8adapters10filter_map9FilterMapNtNtNtB1C_3str4iter5LinesNCNvBI_34parse_version_cfgs_from_cargo_toml0EEBI_, symObjAddr: 0xF38, symBinAddr: 0x100001B28, symSize: 0x3C }
  - { offset: 0x4158, size: 0x8, addend: 0x0, symName: __RINvXsd_NtCsiTraAjBDcu4_5alloc3vecINtB6_3VechEINtNtNtNtCsaNl6UpbT7bw_4core4iter6traits7collect12FromIteratorhE9from_iterINtNtNtBP_8adapters3map3MapINtNtNtBR_5slice4iter4IterhENCNvNtB8_3str13replace_ascii0EECs4XYFHvYqnfH_18build_script_build, symObjAddr: 0xF74, symBinAddr: 0x100001B64, symSize: 0x3C }
  - { offset: 0x41A4, size: 0x8, addend: 0x0, symName: __RNCINvMsi_NtCsiTraAjBDcu4_5alloc3vecINtB8_3VechE14extend_trustedINtNtNtNtCsaNl6UpbT7bw_4core4iter8adapters3map3MapINtNtNtB19_5slice4iter4IterhENCNvNtBa_3str13replace_ascii0EE0Cs4XYFHvYqnfH_18build_script_build, symObjAddr: 0xFB0, symBinAddr: 0x100001BA0, symSize: 0x30 }
  - { offset: 0x4276, size: 0x8, addend: 0x0, symName: __RNvXNtNtCsiTraAjBDcu4_5alloc3vec11spec_extendINtB4_3VecNtCs4XYFHvYqnfH_18build_script_build10VersionCfgEINtB2_10SpecExtendBR_INtNtNtNtCsaNl6UpbT7bw_4core4iter8adapters10filter_map9FilterMapNtNtNtB28_3str4iter5LinesNCNvBT_34parse_version_cfgs_from_cargo_toml0EE11spec_extendBT_, symObjAddr: 0x1DFC, symBinAddr: 0x1000029EC, symSize: 0x24 }
  - { offset: 0x42CE, size: 0x8, addend: 0x0, symName: __RNvXs_NtNtCsiTraAjBDcu4_5alloc3vec11spec_extendINtB6_3VechEINtB4_10SpecExtendhINtNtNtNtCsaNl6UpbT7bw_4core4iter8adapters3map3MapINtNtNtB1n_5slice4iter4IterhENCNvNtB8_3str13replace_ascii0EE11spec_extendCs4XYFHvYqnfH_18build_script_build, symObjAddr: 0x24D0, symBinAddr: 0x1000030C0, symSize: 0x24 }
  - { offset: 0x432C, size: 0x8, addend: 0x0, symName: __RNvXNtNtCsiTraAjBDcu4_5alloc3vec14spec_from_iterINtB4_3VecNtCs4XYFHvYqnfH_18build_script_build10VersionCfgEINtB2_12SpecFromIterBU_INtNtNtNtCsaNl6UpbT7bw_4core4iter8adapters10filter_map9FilterMapNtNtNtB2d_3str4iter5LinesNCNvBW_34parse_version_cfgs_from_cargo_toml0EE9from_iterBW_, symObjAddr: 0x1E20, symBinAddr: 0x100002A10, symSize: 0x14 }
  - { offset: 0x436B, size: 0x8, addend: 0x0, symName: __RNvXNtNtCsiTraAjBDcu4_5alloc3vec14spec_from_iterINtB4_3VechEINtB2_12SpecFromIterhINtNtNtNtCsaNl6UpbT7bw_4core4iter8adapters3map3MapINtNtNtB1q_5slice4iter4IterhENCNvNtB6_3str13replace_ascii0EE9from_iterCs4XYFHvYqnfH_18build_script_build, symObjAddr: 0x1E34, symBinAddr: 0x100002A24, symSize: 0x14 }
  - { offset: 0x43B6, size: 0x8, addend: 0x0, symName: __RNvXNtNtCsiTraAjBDcu4_5alloc3vec21spec_from_iter_nestedINtB4_3VecNtCs4XYFHvYqnfH_18build_script_build10VersionCfgEINtB2_18SpecFromIterNestedB11_INtNtNtNtCsaNl6UpbT7bw_4core4iter8adapters10filter_map9FilterMapNtNtNtB2r_3str4iter5LinesNCNvB13_34parse_version_cfgs_from_cargo_toml0EE9from_iterB13_, symObjAddr: 0x1E48, symBinAddr: 0x100002A38, symSize: 0x238 }
  - { offset: 0x45DB, size: 0x8, addend: 0x0, symName: __RNvXs_NtNtCsiTraAjBDcu4_5alloc3vec21spec_from_iter_nestedINtB6_3VechEINtB4_18SpecFromIterNestedhINtNtNtNtCsaNl6UpbT7bw_4core4iter8adapters3map3MapINtNtNtB1F_5slice4iter4IterhENCNvNtB8_3str13replace_ascii0EE9from_iterCs4XYFHvYqnfH_18build_script_build, symObjAddr: 0x24F4, symBinAddr: 0x1000030E4, symSize: 0x164 }
  - { offset: 0x46B9, size: 0x8, addend: 0x0, symName: __RNvXse_NtCsiTraAjBDcu4_5alloc3vecINtB5_3VecNtCs4XYFHvYqnfH_18build_script_build10VersionCfgENtNtNtNtCsaNl6UpbT7bw_4core4iter6traits7collect12IntoIterator9into_iterBH_, symObjAddr: 0x2658, symBinAddr: 0x100003248, symSize: 0xE4 }
  - { offset: 0x4987, size: 0x8, addend: 0x0, symName: __RNvXsf_NtCsiTraAjBDcu4_5alloc3vecRINtB5_3VecNtCs4XYFHvYqnfH_18build_script_build10VersionCfgENtNtNtNtCsaNl6UpbT7bw_4core4iter6traits7collect12IntoIterator9into_iterBI_, symObjAddr: 0x273C, symBinAddr: 0x10000332C, symSize: 0xAC }
  - { offset: 0x4C26, size: 0x8, addend: 0x0, symName: __RNvXsn_NtCsiTraAjBDcu4_5alloc3vecINtB5_3VecINtNtB7_5boxed3BoxDINtNtNtCsaNl6UpbT7bw_4core3ops8function5FnMutuEp6OutputINtNtB15_6result6ResultuNtNtNtCsht3nMU9UgFu_3std2io5error5ErrorENtNtB15_6marker4SyncNtB2V_4SendEL_EENtNtB13_4drop4Drop4dropCs4XYFHvYqnfH_18build_script_build, symObjAddr: 0x27E8, symBinAddr: 0x1000033D8, symSize: 0x38 }
  - { offset: 0x4CD6, size: 0x8, addend: 0x0, symName: __RNvXsn_NtCsiTraAjBDcu4_5alloc3vecINtB5_3VecNtCs4XYFHvYqnfH_18build_script_build10VersionCfgENtNtNtCsaNl6UpbT7bw_4core3ops4drop4Drop4dropBH_, symObjAddr: 0x2820, symBinAddr: 0x100003410, symSize: 0x38 }
  - { offset: 0x4D86, size: 0x8, addend: 0x0, symName: __RNvXsn_NtCsiTraAjBDcu4_5alloc3vecINtB5_3VecPaENtNtNtCsaNl6UpbT7bw_4core3ops4drop4Drop4dropCs4XYFHvYqnfH_18build_script_build, symObjAddr: 0x2858, symBinAddr: 0x100003448, symSize: 0x24 }
  - { offset: 0x5D94, size: 0x8, addend: 0x0, symName: __RNvXNvMsT_NtNtNtCsiTraAjBDcu4_5alloc11collections5btree4nodeINtB8_6HandleINtB8_7NodeRefNtNtB8_6marker5DyingpppENtB1p_2KVE12drop_key_valINtB2_7DropperINtNtCsaNl6UpbT7bw_4core6option6OptionNtNtNtCsht3nMU9UgFu_3std3ffi6os_str8OsStringEENtNtNtB2s_3ops4drop4Drop4dropCs4XYFHvYqnfH_18build_script_build, symObjAddr: 0x2080, symBinAddr: 0x100002C70, symSize: 0x2C }
  - { offset: 0x5E47, size: 0x8, addend: 0x0, symName: __RINvXs_NvMNtCsiTraAjBDcu4_5alloc5sliceSp9to_vec_inhNtB5_10ConvertVec6to_vecNtNtBa_5alloc6GlobalECs4XYFHvYqnfH_18build_script_build, symObjAddr: 0xE58, symBinAddr: 0x100001A48, symSize: 0xE0 }
  - { offset: 0x60D2, size: 0x8, addend: 0x0, symName: __RINvMNtNtCsaNl6UpbT7bw_4core3fmt2rtNtB3_8Argument11new_displayINtNtCsiTraAjBDcu4_5alloc6borrow3CoweEECs4XYFHvYqnfH_18build_script_build, symObjAddr: 0x0, symBinAddr: 0x100000BF0, symSize: 0x2C }
  - { offset: 0x6111, size: 0x8, addend: 0x0, symName: __RINvMNtNtCsaNl6UpbT7bw_4core3fmt2rtNtB3_8Argument11new_displayNtNtCsht3nMU9UgFu_3std7process10ExitStatusECs4XYFHvYqnfH_18build_script_build, symObjAddr: 0x2C, symBinAddr: 0x100000C1C, symSize: 0x2C }
  - { offset: 0x6149, size: 0x8, addend: 0x0, symName: __RINvMNtNtCsaNl6UpbT7bw_4core3fmt2rtNtB3_8Argument11new_displayNtNtCsiTraAjBDcu4_5alloc6string6StringECs4XYFHvYqnfH_18build_script_build, symObjAddr: 0x58, symBinAddr: 0x100000C48, symSize: 0x2C }
  - { offset: 0x6181, size: 0x8, addend: 0x0, symName: __RINvMNtNtCsaNl6UpbT7bw_4core3fmt2rtNtB3_8Argument11new_displayReECs4XYFHvYqnfH_18build_script_build, symObjAddr: 0x84, symBinAddr: 0x100000C74, symSize: 0x2C }
  - { offset: 0x61B9, size: 0x8, addend: 0x0, symName: __RINvMNtNtCsaNl6UpbT7bw_4core3fmt2rtNtB3_8Argument11new_displayjECs4XYFHvYqnfH_18build_script_build, symObjAddr: 0xB0, symBinAddr: 0x100000CA0, symSize: 0x2C }
  - { offset: 0x634F, size: 0x8, addend: 0x0, symName: __RINvMsh_NtNtNtCsiTraAjBDcu4_5alloc11collections5btree4nodeINtB6_7NodeRefNtNtB6_6marker5DyingNtNtNtCsht3nMU9UgFu_3std3ffi6os_str8OsStringINtNtCsaNl6UpbT7bw_4core6option6OptionB1s_ENtB1a_14LeafOrInternalE21deallocate_and_ascendNtNtBc_5alloc6GlobalECs4XYFHvYqnfH_18build_script_build, symObjAddr: 0xDC, symBinAddr: 0x100000CCC, symSize: 0x188 }
  - { offset: 0x6741, size: 0x8, addend: 0x0, symName: __RINvMsi_NtCsiTraAjBDcu4_5alloc3vecINtB6_3VecNtCs4XYFHvYqnfH_18build_script_build10VersionCfgE16extend_desugaredINtNtNtNtCsaNl6UpbT7bw_4core4iter8adapters10filter_map9FilterMapNtNtNtB1U_3str4iter5LinesNCNvBI_34parse_version_cfgs_from_cargo_toml0EEBI_, symObjAddr: 0x264, symBinAddr: 0x100000E54, symSize: 0x1E4 }
  - { offset: 0x6B2A, size: 0x8, addend: 0x0, symName: __RINvMsi_NtCsiTraAjBDcu4_5alloc3vecINtB6_3VechE14extend_trustedINtNtNtNtCsaNl6UpbT7bw_4core4iter8adapters3map3MapINtNtNtB17_5slice4iter4IterhENCNvNtB8_3str13replace_ascii0EECs4XYFHvYqnfH_18build_script_build, symObjAddr: 0x448, symBinAddr: 0x100001038, symSize: 0x178 }
  - { offset: 0x6D95, size: 0x8, addend: 0x0, symName: __RINvMsj_NtNtNtCsiTraAjBDcu4_5alloc11collections5btree8navigateINtNtB8_4node6HandleINtB11_7NodeRefNtNtB11_6marker5DyingNtNtNtCsht3nMU9UgFu_3std3ffi6os_str8OsStringINtNtCsaNl6UpbT7bw_4core6option6OptionB1S_ENtB1z_4LeafENtB1z_4EdgeE16deallocating_endNtNtBc_5alloc6GlobalECs4XYFHvYqnfH_18build_script_build, symObjAddr: 0x5C0, symBinAddr: 0x1000011B0, symSize: 0xD4 }
  - { offset: 0x7016, size: 0x8, addend: 0x0, symName: __RINvMsj_NtNtNtCsiTraAjBDcu4_5alloc11collections5btree8navigateINtNtB8_4node6HandleINtB11_7NodeRefNtNtB11_6marker5DyingNtNtNtCsht3nMU9UgFu_3std3ffi6os_str8OsStringINtNtCsaNl6UpbT7bw_4core6option6OptionB1S_ENtB1z_4LeafENtB1z_4EdgeE17deallocating_nextNtNtBc_5alloc6GlobalECs4XYFHvYqnfH_18build_script_build, symObjAddr: 0x694, symBinAddr: 0x100001284, symSize: 0x254 }
  - { offset: 0x761D, size: 0x8, addend: 0x0, symName: __RNvMsO_NtNtNtCsiTraAjBDcu4_5alloc11collections5btree4nodeINtB5_6HandleINtB5_7NodeRefNtNtB5_6marker5DyingNtNtNtCsht3nMU9UgFu_3std3ffi6os_str8OsStringINtNtCsaNl6UpbT7bw_4core6option6OptionB1E_ENtB1m_8InternalENtB1m_4EdgeE7descendCs4XYFHvYqnfH_18build_script_build, symObjAddr: 0x1030, symBinAddr: 0x100001C20, symSize: 0x9C }
  - { offset: 0x78FC, size: 0x8, addend: 0x0, symName: __RNvMsT_NtNtNtCsiTraAjBDcu4_5alloc11collections5btree4nodeINtB5_6HandleINtB5_7NodeRefNtNtB5_6marker5DyingNtNtNtCsht3nMU9UgFu_3std3ffi6os_str8OsStringINtNtCsaNl6UpbT7bw_4core6option6OptionB1E_ENtB1m_14LeafOrInternalENtB1m_2KVE12drop_key_valCs4XYFHvYqnfH_18build_script_build, symObjAddr: 0x10CC, symBinAddr: 0x100001CBC, symSize: 0x138 }
  - { offset: 0x7BFF, size: 0x8, addend: 0x0, symName: __RNvMs_NtCsiTraAjBDcu4_5alloc3vecINtB4_3VecNtCs4XYFHvYqnfH_18build_script_build10VersionCfgE7reserveBG_, symObjAddr: 0x1204, symBinAddr: 0x100001DF4, symSize: 0xC8 }
  - { offset: 0x7DE3, size: 0x8, addend: 0x0, symName: __RNvMs_NtCsiTraAjBDcu4_5alloc3vecINtB4_3VechE8as_sliceCs4XYFHvYqnfH_18build_script_build, symObjAddr: 0x12CC, symBinAddr: 0x100001EBC, symSize: 0x68 }
  - { offset: 0x7FB0, size: 0x8, addend: 0x0, symName: __RNvMse_NtNtNtCsiTraAjBDcu4_5alloc11collections5btree4nodeINtB5_7NodeRefNtNtB5_6marker5DyingNtNtNtCsht3nMU9UgFu_3std3ffi6os_str8OsStringINtNtCsaNl6UpbT7bw_4core6option6OptionB1r_ENtB19_14LeafOrInternalE6ascendCs4XYFHvYqnfH_18build_script_build, symObjAddr: 0x1334, symBinAddr: 0x100001F24, symSize: 0x160 }
  - { offset: 0x831C, size: 0x8, addend: 0x0, symName: __RNvMsp_NtNtNtCsiTraAjBDcu4_5alloc11collections5btree8navigateINtNtB7_4node6HandleINtB10_7NodeRefNtNtB10_6marker5DyingNtNtNtCsht3nMU9UgFu_3std3ffi6os_str8OsStringINtNtCsaNl6UpbT7bw_4core6option6OptionB1R_ENtB1y_14LeafOrInternalENtB1y_2KVE14next_leaf_edgeCs4XYFHvYqnfH_18build_script_build, symObjAddr: 0x1494, symBinAddr: 0x100002084, symSize: 0x210 }
  - { offset: 0x8EE7, size: 0x8, addend: 0x0, symName: __RINvMNtCsaNl6UpbT7bw_4core6optionINtB3_6OptionReE11map_or_elseNtNtCsiTraAjBDcu4_5alloc6string6StringNCNvNtB12_3fmt6format0NvYeNtNtB12_6borrow7ToOwned8to_ownedECs4XYFHvYqnfH_18build_script_build, symObjAddr: 0x0, symBinAddr: 0x10000346C, symSize: 0xCC }
  - { offset: 0x953D, size: 0x8, addend: 0x0, symName: __RNvXsJ_NtCsaNl6UpbT7bw_4core6optionINtB5_6OptionReENtNtB7_3fmt5Debug3fmtCs4XYFHvYqnfH_18build_script_build, symObjAddr: 0x210C, symBinAddr: 0x100005500, symSize: 0x9C }
  - { offset: 0x95A1, size: 0x8, addend: 0x0, symName: __RNvXsJ_NtCsaNl6UpbT7bw_4core6optionINtB5_6OptionhENtNtB7_3fmt5Debug3fmtCs4XYFHvYqnfH_18build_script_build, symObjAddr: 0x21A8, symBinAddr: 0x10000559C, symSize: 0x98 }
  - { offset: 0x960B, size: 0x8, addend: 0x0, symName: __RNvXsd_NtCsaNl6UpbT7bw_4core6optionINtB5_6OptionReENtNtB7_3cmp9PartialEq2eqCs4XYFHvYqnfH_18build_script_build, symObjAddr: 0x23F4, symBinAddr: 0x1000057E8, symSize: 0xAC }
  - { offset: 0x9811, size: 0x8, addend: 0x0, symName: __RNvXs5_NtNtCsaNl6UpbT7bw_4core3num5errorNtB5_15TryFromIntErrorNtNtB9_3fmt5Debug3fmtCs4XYFHvYqnfH_18build_script_build, symObjAddr: 0x1E10, symBinAddr: 0x100005204, symSize: 0x54 }
  - { offset: 0x9851, size: 0x8, addend: 0x0, symName: __RNvXsb_NtNtCsaNl6UpbT7bw_4core3num5errorNtB5_13ParseIntErrorNtNtB9_3fmt5Debug3fmtCs4XYFHvYqnfH_18build_script_build, symObjAddr: 0x2390, symBinAddr: 0x100005784, symSize: 0x64 }
  - { offset: 0x9A42, size: 0x8, addend: 0x0, symName: __RNvNvMs9_NtCsaNl6UpbT7bw_4core3numj13unchecked_add18precondition_checkCs4XYFHvYqnfH_18build_script_build, symObjAddr: 0x1748, symBinAddr: 0x100004B3C, symSize: 0xB0 }
  - { offset: 0x9AD6, size: 0x8, addend: 0x0, symName: __RNvNvMs9_NtCsaNl6UpbT7bw_4core3numj13unchecked_sub18precondition_checkCs4XYFHvYqnfH_18build_script_build, symObjAddr: 0x17F8, symBinAddr: 0x100004BEC, symSize: 0xAC }
  - { offset: 0x9BDF, size: 0x8, addend: 0x0, symName: __RNvMsu_NtCsaNl6UpbT7bw_4core3numj16from_ascii_radixCs4XYFHvYqnfH_18build_script_build, symObjAddr: 0xCB8, symBinAddr: 0x1000040AC, symSize: 0x574 }
  - { offset: 0x9E77, size: 0x8, addend: 0x0, symName: __RNvNvMs3_NtCsaNl6UpbT7bw_4core3numi13unchecked_neg18precondition_checkCs4XYFHvYqnfH_18build_script_build, symObjAddr: 0x1690, symBinAddr: 0x100004A84, symSize: 0xB8 }
  - { offset: 0x9F38, size: 0x8, addend: 0x0, symName: __RNvXst_NtCsaNl6UpbT7bw_4core3numjNtNtNtB7_3str6traits7FromStr8from_strCs4XYFHvYqnfH_18build_script_build, symObjAddr: 0x25DC, symBinAddr: 0x1000059D0, symSize: 0x30 }
  - { offset: 0x9FB1, size: 0x8, addend: 0x0, symName: __RINvNtCsaNl6UpbT7bw_4core9panicking13assert_failedINtNtB4_6option6OptionReEBM_ECs4XYFHvYqnfH_18build_script_build, symObjAddr: 0x25C, symBinAddr: 0x10004AB80, symSize: 0x3C }
  - { offset: 0xA01A, size: 0x8, addend: 0x0, symName: __RINvNtCsaNl6UpbT7bw_4core9panicking13assert_failedReBM_ECs4XYFHvYqnfH_18build_script_build, symObjAddr: 0x298, symBinAddr: 0x10004ABBC, symSize: 0x3C }
  - { offset: 0xA083, size: 0x8, addend: 0x0, symName: __RINvNtCsaNl6UpbT7bw_4core9panicking13panic_displayNtNtCsiTraAjBDcu4_5alloc6string6StringECs4XYFHvYqnfH_18build_script_build, symObjAddr: 0x2D4, symBinAddr: 0x1000036C8, symSize: 0x88 }
  - { offset: 0xA605, size: 0x8, addend: 0x0, symName: __RNvNvMNtNtCsaNl6UpbT7bw_4core3ptr9const_ptrPp20offset_from_unsigned18precondition_checkCs4XYFHvYqnfH_18build_script_build, symObjAddr: 0x15E4, symBinAddr: 0x1000049D8, symSize: 0xAC }
  - { offset: 0xA7B5, size: 0x8, addend: 0x0, symName: __RNvYNtCs4XYFHvYqnfH_18build_script_build7VersionNtNtCsaNl6UpbT7bw_4core3cmp10PartialOrd2geB4_, symObjAddr: 0x2838, symBinAddr: 0x100005C2C, symSize: 0x70 }
  - { offset: 0xABBC, size: 0x8, addend: 0x0, symName: __RNvXs19_NtCsaNl6UpbT7bw_4core3fmtRINtNtB8_6option6OptionReENtB6_5Debug3fmtCs4XYFHvYqnfH_18build_script_build, symObjAddr: 0x1C50, symBinAddr: 0x100005044, symSize: 0x30 }
  - { offset: 0xAC02, size: 0x8, addend: 0x0, symName: __RNvXs19_NtCsaNl6UpbT7bw_4core3fmtRINtNtB8_6option6OptionhENtB6_5Debug3fmtCs4XYFHvYqnfH_18build_script_build, symObjAddr: 0x1C80, symBinAddr: 0x100005074, symSize: 0x30 }
  - { offset: 0xAC48, size: 0x8, addend: 0x0, symName: __RNvXs19_NtCsaNl6UpbT7bw_4core3fmtRReNtB6_5Debug3fmtCs4XYFHvYqnfH_18build_script_build, symObjAddr: 0x1CB0, symBinAddr: 0x1000050A4, symSize: 0x30 }
  - { offset: 0xAE28, size: 0x8, addend: 0x0, symName: __RINvNtNtCsaNl6UpbT7bw_4core3str11validations15next_code_pointINtNtNtB6_5slice4iter4IterhEECs4XYFHvYqnfH_18build_script_build, symObjAddr: 0x3BC, symBinAddr: 0x1000037B0, symSize: 0x224 }
  - { offset: 0xB0DA, size: 0x8, addend: 0x0, symName: __RINvNtNtCsaNl6UpbT7bw_4core3str11validations23next_code_point_reverseINtNtNtB6_5slice4iter4IterhEECs4XYFHvYqnfH_18build_script_build, symObjAddr: 0x5E0, symBinAddr: 0x1000039D4, symSize: 0x244 }
  - { offset: 0xB3A1, size: 0x8, addend: 0x0, symName: __RNvXs3_NtNtCsaNl6UpbT7bw_4core3str7patternNCNvCs4XYFHvYqnfH_18build_script_build13rustc_version0NtB5_11MultiCharEq7matchesBI_, symObjAddr: 0x1D40, symBinAddr: 0x100005134, symSize: 0x28 }
  - { offset: 0xB3E7, size: 0x8, addend: 0x0, symName: __RNvXs3_NtNtCsaNl6UpbT7bw_4core3str7patternNvMNtNtB9_4char7methodsc13is_whitespaceNtB5_11MultiCharEq7matchesCs4XYFHvYqnfH_18build_script_build, symObjAddr: 0x1D68, symBinAddr: 0x10000515C, symSize: 0x28 }
  - { offset: 0xB433, size: 0x8, addend: 0x0, symName: __RNvXsr_NtNtCsaNl6UpbT7bw_4core3str7patternNCNvCs4XYFHvYqnfH_18build_script_build13rustc_version0NtB5_7Pattern13into_searcherBI_, symObjAddr: 0x2528, symBinAddr: 0x10000591C, symSize: 0x48 }
  - { offset: 0xB479, size: 0x8, addend: 0x0, symName: __RNvXsr_NtNtCsaNl6UpbT7bw_4core3str7patternNvMNtNtB9_4char7methodsc13is_whitespaceNtB5_7Pattern13into_searcherCs4XYFHvYqnfH_18build_script_build, symObjAddr: 0x2570, symBinAddr: 0x100005964, symSize: 0x48 }
  - { offset: 0xB74F, size: 0x8, addend: 0x0, symName: __RNvXs8_NtNtCsaNl6UpbT7bw_4core3str5errorNtB5_9Utf8ErrorNtNtB9_3fmt5Debug3fmtCs4XYFHvYqnfH_18build_script_build, symObjAddr: 0x1F34, symBinAddr: 0x100005328, symSize: 0x88 }
  - { offset: 0xB820, size: 0x8, addend: 0x0, symName: __RNvXs9_NtNtCsaNl6UpbT7bw_4core3str6traitsINtNtNtB9_3ops5range9RangeFromjEINtNtNtB9_5slice5index10SliceIndexeE3getCs4XYFHvYqnfH_18build_script_build, symObjAddr: 0x1FBC, symBinAddr: 0x1000053B0, symSize: 0x150 }
  - { offset: 0xBC1A, size: 0x8, addend: 0x0, symName: __RNvXs1_NtNtNtCsaNl6UpbT7bw_4core3ops8function5implsQNCNvCs4XYFHvYqnfH_18build_script_build34parse_version_cfgs_from_cargo_toml0INtB7_5FnMutTReEE8call_mutBS_, symObjAddr: 0x1CF0, symBinAddr: 0x1000050E4, symSize: 0x38 }
  - { offset: 0xC04B, size: 0x8, addend: 0x0, symName: __RNvNvXs0_NtNtCsaNl6UpbT7bw_4core5slice5indexjINtB7_10SliceIndexSpE13get_unchecked18precondition_checkCs4XYFHvYqnfH_18build_script_build, symObjAddr: 0x197C, symBinAddr: 0x100004D70, symSize: 0xAC }
  - { offset: 0xC0B9, size: 0x8, addend: 0x0, symName: __RNvNvXs0_NtNtCsaNl6UpbT7bw_4core5slice5indexjINtB7_10SliceIndexSpE17get_unchecked_mut18precondition_checkCs4XYFHvYqnfH_18build_script_build, symObjAddr: 0x1A28, symBinAddr: 0x100004E1C, symSize: 0xAC }
  - { offset: 0xC12D, size: 0x8, addend: 0x0, symName: __RNvNvXs2_NtNtCsaNl6UpbT7bw_4core5slice5indexINtNtNtBb_3ops5range5RangejEINtB7_10SliceIndexSpE13get_unchecked18precondition_checkCs4XYFHvYqnfH_18build_script_build, symObjAddr: 0x1AD4, symBinAddr: 0x100004EC8, symSize: 0xCC }
  - { offset: 0xC221, size: 0x8, addend: 0x0, symName: __RNvXs5_NtNtCsaNl6UpbT7bw_4core5slice5indexINtNtNtB9_3ops5range9RangeFromjEINtB5_10SliceIndexShE5indexCs4XYFHvYqnfH_18build_script_build, symObjAddr: 0x1E64, symBinAddr: 0x100005258, symSize: 0x90 }
  - { offset: 0xC3AC, size: 0x8, addend: 0x0, symName: __RNvMNtNtCsaNl6UpbT7bw_4core4char7methodsc13is_whitespaceCs4XYFHvYqnfH_18build_script_build, symObjAddr: 0xA78, symBinAddr: 0x100003E6C, symSize: 0x90 }
  - { offset: 0xC3F0, size: 0x8, addend: 0x0, symName: __RNvMNtNtCsaNl6UpbT7bw_4core4char7methodsc14is_ascii_digitCs4XYFHvYqnfH_18build_script_build, symObjAddr: 0xB08, symBinAddr: 0x100003EFC, symSize: 0x64 }
  - { offset: 0xC41E, size: 0x8, addend: 0x0, symName: __RNvMNtNtCsaNl6UpbT7bw_4core4char7methodsc8to_digitCs4XYFHvYqnfH_18build_script_build, symObjAddr: 0xB6C, symBinAddr: 0x100003F60, symSize: 0x14C }
  - { offset: 0xC51E, size: 0x8, addend: 0x0, symName: __RNvNtNtCsaNl6UpbT7bw_4core4char7methods15encode_utf8_rawCs4XYFHvYqnfH_18build_script_build, symObjAddr: 0x12BC, symBinAddr: 0x1000046B0, symSize: 0x110 }
  - { offset: 0xC61E, size: 0x8, addend: 0x0, symName: __RNvNtNtCsaNl6UpbT7bw_4core4char7methods25encode_utf8_raw_uncheckedCs4XYFHvYqnfH_18build_script_build, symObjAddr: 0x13CC, symBinAddr: 0x1000047C0, symSize: 0x14C }
  - { offset: 0xC7D7, size: 0x8, addend: 0x0, symName: __RNvNvNtCsaNl6UpbT7bw_4core9ub_checks23maybe_is_nonoverlapping7runtimeCs4XYFHvYqnfH_18build_script_build, symObjAddr: 0x18A4, symBinAddr: 0x100004C98, symSize: 0xD8 }
  - { offset: 0xCA6E, size: 0x8, addend: 0x0, symName: __RNCINvNtCsht3nMU9UgFu_3std2rt10lang_startuE0Cs4XYFHvYqnfH_18build_script_build, symObjAddr: 0x8F0, symBinAddr: 0x100003CE4, symSize: 0x34 }
  - { offset: 0xCAD8, size: 0x8, addend: 0x0, symName: __RINvNtCsht3nMU9UgFu_3std2rt10lang_startuECs4XYFHvYqnfH_18build_script_build, symObjAddr: 0x35C, symBinAddr: 0x100003750, symSize: 0x60 }
  - { offset: 0xCB5C, size: 0x8, addend: 0x0, symName: __RNvXs3_NtNtCsht3nMU9UgFu_3std3ffi6os_strNtB5_8OsStringINtNtNtCsaNl6UpbT7bw_4core3ops5index5IndexNtNtBV_5range9RangeFullE5indexCs4XYFHvYqnfH_18build_script_build, symObjAddr: 0x1D90, symBinAddr: 0x100005184, symSize: 0x80 }
  - { offset: 0xCCA4, size: 0x8, addend: 0x0, symName: __RNvXsV_NtNtCsht3nMU9UgFu_3std3ffi6os_strNtB5_8OsStringINtNtCsaNl6UpbT7bw_4core7convert5AsRefNtB5_5OsStrE6as_refCs4XYFHvYqnfH_18build_script_build, symObjAddr: 0x2240, symBinAddr: 0x100005634, symSize: 0x2C }
  - { offset: 0xCCF6, size: 0x8, addend: 0x0, symName: __RNvXsW_NtNtCsht3nMU9UgFu_3std3ffi6os_streINtNtCsaNl6UpbT7bw_4core7convert5AsRefNtB5_5OsStrE6as_refCs4XYFHvYqnfH_18build_script_build, symObjAddr: 0x226C, symBinAddr: 0x100005660, symSize: 0x18 }
  - { offset: 0xCDFB, size: 0x8, addend: 0x0, symName: __RNvNtNtNtCsht3nMU9UgFu_3std3sys2fs4unix23debug_assert_fd_is_openCs4XYFHvYqnfH_18build_script_build, symObjAddr: 0x1518, symBinAddr: 0x10000490C, symSize: 0xCC }
  - { offset: 0xCF00, size: 0x8, addend: 0x0, symName: __RNvXs1h_NtCsht3nMU9UgFu_3std4patheINtNtCsaNl6UpbT7bw_4core7convert5AsRefNtB6_4PathE6as_refCs4XYFHvYqnfH_18build_script_build, symObjAddr: 0x1D28, symBinAddr: 0x10000511C, symSize: 0x18 }
  - { offset: 0xCF59, size: 0x8, addend: 0x0, symName: __RNvXs5_NtNtNtCsht3nMU9UgFu_3std2os2fd5ownedNtB5_7OwnedFdNtNtNtCsaNl6UpbT7bw_4core3ops4drop4Drop4dropCs4XYFHvYqnfH_18build_script_build, symObjAddr: 0x1EF4, symBinAddr: 0x1000052E8, symSize: 0x40 }
  - { offset: 0xD02F, size: 0x8, addend: 0x0, symName: __RNvXss_NtCsiTraAjBDcu4_5alloc6stringNtB5_6StringNtNtNtCsaNl6UpbT7bw_4core3ops5deref5Deref5derefCs4XYFHvYqnfH_18build_script_build, symObjAddr: 0x25B8, symBinAddr: 0x1000059AC, symSize: 0x24 }
  - { offset: 0xD063, size: 0x8, addend: 0x0, symName: __RNvXsl_NtCsiTraAjBDcu4_5alloc6stringNtB5_6StringNtNtCsaNl6UpbT7bw_4core3fmt7Display3fmtCs4XYFHvYqnfH_18build_script_build, symObjAddr: 0x24A0, symBinAddr: 0x100005894, symSize: 0x88 }
  - { offset: 0xD2FB, size: 0x8, addend: 0x0, symName: __RNvXs1_NtCsiTraAjBDcu4_5alloc5allocNtB5_6GlobalNtNtCsaNl6UpbT7bw_4core5clone5Clone5cloneCs4XYFHvYqnfH_18build_script_build, symObjAddr: 0x1CE0, symBinAddr: 0x1000050D4, symSize: 0x10 }
  - { offset: 0xD34C, size: 0x8, addend: 0x0, symName: __RNvXs_NtCsiTraAjBDcu4_5alloc5allocNtB4_6GlobalNtNtCsaNl6UpbT7bw_4core5alloc9Allocator10deallocateCs4XYFHvYqnfH_18build_script_build, symObjAddr: 0x2284, symBinAddr: 0x100005678, symSize: 0x80 }
  - { offset: 0xD7FF, size: 0x8, addend: 0x0, symName: __RINvNtNtNtCsiTraAjBDcu4_5alloc11collections5btree3mem7replaceINtNtB4_4node6HandleINtB10_7NodeRefNtNtB10_6marker5DyingNtNtNtCsht3nMU9UgFu_3std3ffi6os_str8OsStringINtNtCsaNl6UpbT7bw_4core6option6OptionB1R_ENtB1y_4LeafENtB1y_4EdgeEIBY_IB1i_B1w_B1R_B2z_NtB1y_14LeafOrInternalENtB1y_2KVENCINvMsm_NtB4_8navigateBX_27deallocating_next_uncheckedNtNtB8_5alloc6GlobalE0ECs4XYFHvYqnfH_18build_script_build, symObjAddr: 0x824, symBinAddr: 0x100003C18, symSize: 0xCC }
  - { offset: 0xD9D5, size: 0x8, addend: 0x0, symName: __RNvXNtNtNtCsiTraAjBDcu4_5alloc11collections5btree3mapINtB2_8BTreeMapNtNtNtCsht3nMU9UgFu_3std3ffi6os_str8OsStringINtNtCsaNl6UpbT7bw_4core6option6OptionB14_EENtNtNtB1R_3ops4drop4Drop4dropCs4XYFHvYqnfH_18build_script_build, symObjAddr: 0x1BA0, symBinAddr: 0x100004F94, symSize: 0x4C }
  - { offset: 0xDA62, size: 0x8, addend: 0x0, symName: __RNvXNvXsw_NtNtNtCsiTraAjBDcu4_5alloc11collections5btree3mapINtB8_8IntoIterpppENtNtNtCsaNl6UpbT7bw_4core3ops4drop4Drop4dropINtB2_9DropGuardNtNtNtCsht3nMU9UgFu_3std3ffi6os_str8OsStringINtNtB1k_6option6OptionB2c_ENtNtBe_5alloc6GlobalEB1e_4dropCs4XYFHvYqnfH_18build_script_build, symObjAddr: 0x1BEC, symBinAddr: 0x100004FE0, symSize: 0x64 }
  - { offset: 0xDAF7, size: 0x8, addend: 0x0, symName: __RNvXsw_NtNtNtCsiTraAjBDcu4_5alloc11collections5btree3mapINtB5_8IntoIterNtNtNtCsht3nMU9UgFu_3std3ffi6os_str8OsStringINtNtCsaNl6UpbT7bw_4core6option6OptionB17_EENtNtNtB1U_3ops4drop4Drop4dropCs4XYFHvYqnfH_18build_script_build, symObjAddr: 0x279C, symBinAddr: 0x100005B90, symSize: 0x9C }
  - { offset: 0xDB6E, size: 0x8, addend: 0x0, symName: __RNvXsv_NtNtNtCsiTraAjBDcu4_5alloc11collections5btree3mapINtB5_8BTreeMapNtNtNtCsht3nMU9UgFu_3std3ffi6os_str8OsStringINtNtCsaNl6UpbT7bw_4core6option6OptionB17_EENtNtNtNtB1U_4iter6traits7collect12IntoIterator9into_iterCs4XYFHvYqnfH_18build_script_build, symObjAddr: 0x260C, symBinAddr: 0x100005A00, symSize: 0x190 }
  - { offset: 0xDE3E, size: 0x8, addend: 0x0, symName: __RNvXsb_NtCsiTraAjBDcu4_5alloc6borrowINtB5_3CoweENtNtCsaNl6UpbT7bw_4core3fmt7Display3fmtCs4XYFHvYqnfH_18build_script_build, symObjAddr: 0x2304, symBinAddr: 0x1000056F8, symSize: 0x8C }
  - { offset: 0xE08B, size: 0x8, addend: 0x0, symName: __RINvMNtCsaNl6UpbT7bw_4core6optionINtB3_6OptionReE11map_or_elseNtNtCsiTraAjBDcu4_5alloc6string6StringNCNvNtB12_3fmt6format0NvYeNtNtB12_6borrow7ToOwned8to_ownedECs4XYFHvYqnfH_18build_script_build, symObjAddr: 0x0, symBinAddr: 0x10000346C, symSize: 0xCC }
  - { offset: 0xE142, size: 0x8, addend: 0x0, symName: __RINvMs_NtNtCsaNl6UpbT7bw_4core3fmt2rtNtB7_9Arguments6new_v1Kj1_KBW_ECs4XYFHvYqnfH_18build_script_build, symObjAddr: 0xCC, symBinAddr: 0x100003538, symSize: 0x50 }
  - { offset: 0xE1A6, size: 0x8, addend: 0x0, symName: __RINvMs_NtNtCsaNl6UpbT7bw_4core3fmt2rtNtB7_9Arguments6new_v1Kj2_KBW_ECs4XYFHvYqnfH_18build_script_build, symObjAddr: 0x11C, symBinAddr: 0x100003588, symSize: 0x50 }
  - { offset: 0xE1D6, size: 0x8, addend: 0x0, symName: __RINvMs_NtNtCsaNl6UpbT7bw_4core3fmt2rtNtB7_9Arguments6new_v1Kj2_Kj1_ECs4XYFHvYqnfH_18build_script_build, symObjAddr: 0x16C, symBinAddr: 0x1000035D8, symSize: 0x54 }
  - { offset: 0xE23A, size: 0x8, addend: 0x0, symName: __RINvMs_NtNtCsaNl6UpbT7bw_4core3fmt2rtNtB7_9Arguments6new_v1Kj4_Kj3_ECs4XYFHvYqnfH_18build_script_build, symObjAddr: 0x1C0, symBinAddr: 0x10000362C, symSize: 0x54 }
  - { offset: 0xE26A, size: 0x8, addend: 0x0, symName: __RINvMs_NtNtCsaNl6UpbT7bw_4core3fmt2rtNtB7_9Arguments9new_constKj1_ECs4XYFHvYqnfH_18build_script_build, symObjAddr: 0x214, symBinAddr: 0x100003680, symSize: 0x48 }
  - { offset: 0xE42F, size: 0x8, addend: 0x0, symName: __RNvMNtCsaNl6UpbT7bw_4core6optionINtB2_6OptionNtNtNtCsht3nMU9UgFu_3std3ffi6os_str8OsStringE6expectCs4XYFHvYqnfH_18build_script_build, symObjAddr: 0x924, symBinAddr: 0x100003D18, symSize: 0x74 }
  - { offset: 0xE46B, size: 0x8, addend: 0x0, symName: __RNvMNtCsaNl6UpbT7bw_4core6optionINtB2_6OptionReE6expectCs4XYFHvYqnfH_18build_script_build, symObjAddr: 0x998, symBinAddr: 0x100003D8C, symSize: 0x68 }
  - { offset: 0xE58D, size: 0x8, addend: 0x0, symName: __RNvMNtCsiTraAjBDcu4_5alloc6stringNtB2_6String6as_strCs4XYFHvYqnfH_18build_script_build, symObjAddr: 0xA00, symBinAddr: 0x100003DF4, symSize: 0x78 }
  - { offset: 0xE6F2, size: 0x8, addend: 0x0, symName: __RNvMsx_NtNtNtCsiTraAjBDcu4_5alloc11collections5btree3mapINtB5_8IntoIterNtNtNtCsht3nMU9UgFu_3std3ffi6os_str8OsStringINtNtCsaNl6UpbT7bw_4core6option6OptionB17_EE10dying_nextCs4XYFHvYqnfH_18build_script_build, symObjAddr: 0x122C, symBinAddr: 0x100004620, symSize: 0x90 }
  - { offset: 0xEBE0, size: 0x8, addend: 0x0, symName: __RNvCs4XYFHvYqnfH_18build_script_build4main, symObjAddr: 0x28A8, symBinAddr: 0x100005C9C, symSize: 0x470 }
  - { offset: 0xED33, size: 0x8, addend: 0x0, symName: __RNvCs4XYFHvYqnfH_18build_script_build34parse_version_cfgs_from_cargo_toml, symObjAddr: 0x2D18, symBinAddr: 0x10000610C, symSize: 0x310 }
  - { offset: 0xEE3B, size: 0x8, addend: 0x0, symName: __RNCNvCs4XYFHvYqnfH_18build_script_build34parse_version_cfgs_from_cargo_toml0B3_, symObjAddr: 0x3028, symBinAddr: 0x10000641C, symSize: 0x5FC }
  - { offset: 0xF0B4, size: 0x8, addend: 0x0, symName: __RINvNvCs4XYFHvYqnfH_18build_script_build34parse_version_cfgs_from_cargo_toml18panic_cold_displayNtNtCsiTraAjBDcu4_5alloc6string6StringEB4_, symObjAddr: 0x3C90, symBinAddr: 0x10004ABF8, symSize: 0x28 }
  - { offset: 0xF0ED, size: 0x8, addend: 0x0, symName: __RNvCs4XYFHvYqnfH_18build_script_build13rustc_version, symObjAddr: 0x3624, symBinAddr: 0x100006A18, symSize: 0x52C }
  - { offset: 0xF298, size: 0x8, addend: 0x0, symName: __RNCNvCs4XYFHvYqnfH_18build_script_build13rustc_version0B3_, symObjAddr: 0x3B50, symBinAddr: 0x100006F44, symSize: 0x80 }
  - { offset: 0xF2DB, size: 0x8, addend: 0x0, symName: __RNvXs2_Cs4XYFHvYqnfH_18build_script_buildNtB5_7VersionNtNtCsaNl6UpbT7bw_4core3cmp10PartialOrd11partial_cmpB5_, symObjAddr: 0x3BD0, symBinAddr: 0x100006FC4, symSize: 0xC0 }
  - { offset: 0xF595, size: 0x8, addend: 0x0, symName: __RINvMsb_NtNtNtCsiTraAjBDcu4_5alloc11collections5btree8navigateINtB6_13LazyLeafRangeNtNtNtB8_4node6marker5DyingNtNtNtCsht3nMU9UgFu_3std3ffi6os_str8OsStringINtNtCsaNl6UpbT7bw_4core6option6OptionB1K_EE16deallocating_endNtNtBc_5alloc6GlobalECs4XYFHvYqnfH_18build_script_build, symObjAddr: 0x0, symBinAddr: 0x1000070B0, symSize: 0x98 }
  - { offset: 0xF5FB, size: 0x8, addend: 0x0, symName: __RNvXNvNtCsht3nMU9UgFu_3std2io17default_write_fmtINtB2_7AdapterNtNtNtNtB6_3sys5stdio4unix6StderrENtNtCsaNl6UpbT7bw_4core3fmt5Write9write_strCs4XYFHvYqnfH_18build_script_build, symObjAddr: 0x2CEC, symBinAddr: 0x100009CF0, symSize: 0xB4 }
  - { offset: 0xF9CA, size: 0x8, addend: 0x0, symName: __RINvNtCsht3nMU9UgFu_3std2io17default_write_fmtNtNtNtNtB4_3sys5stdio4unix6StderrECs4XYFHvYqnfH_18build_script_build, symObjAddr: 0x1004, symBinAddr: 0x10000800C, symSize: 0x120 }
  - { offset: 0xFA7E, size: 0x8, addend: 0x0, symName: __RNvYNtNtNtNtCsht3nMU9UgFu_3std3sys5stdio4unix6StderrNtNtBa_2io5Write9write_allCs4XYFHvYqnfH_18build_script_build, symObjAddr: 0x393C, symBinAddr: 0x10000A940, symSize: 0x270 }
  - { offset: 0xFC16, size: 0x8, addend: 0x0, symName: __RNvYNtNtNtNtCsht3nMU9UgFu_3std3sys5stdio4unix6StderrNtNtBa_2io5Write9write_fmtCs4XYFHvYqnfH_18build_script_build, symObjAddr: 0x3BAC, symBinAddr: 0x10000ABB0, symSize: 0x154 }
  - { offset: 0xFF12, size: 0x8, addend: 0x0, symName: __RINvNtNtCsht3nMU9UgFu_3std3sys9backtrace28___rust_begin_short_backtraceFEuuECs4XYFHvYqnfH_18build_script_build, symObjAddr: 0x118C, symBinAddr: 0x100008194, symSize: 0x24 }
  - { offset: 0x1000C, size: 0x8, addend: 0x0, symName: __RINvNtCsht3nMU9UgFu_3std3env6var_osReECs4XYFHvYqnfH_18build_script_build, symObjAddr: 0x1124, symBinAddr: 0x10000812C, symSize: 0x68 }
  - { offset: 0x10856, size: 0x8, addend: 0x0, symName: __RNvNvMs1_NtNtCsaNl6UpbT7bw_4core3ptr8non_nullINtB7_7NonNullpE13new_unchecked18precondition_checkCs4XYFHvYqnfH_18build_script_build, symObjAddr: 0x2098, symBinAddr: 0x10000909C, symSize: 0xA4 }
  - { offset: 0x10EBB, size: 0x8, addend: 0x0, symName: __RINvNtCsaNl6UpbT7bw_4core3ptr13drop_in_placeINtNtB4_6option6OptionINtNtCsiTraAjBDcu4_5alloc5boxed3BoxSmEEECs4XYFHvYqnfH_18build_script_build, symObjAddr: 0x1E8, symBinAddr: 0x1000071F0, symSize: 0x44 }
  - { offset: 0x10EEA, size: 0x8, addend: 0x0, symName: __RINvNtCsaNl6UpbT7bw_4core3ptr13drop_in_placeINtNtB4_6option6OptionNtCs4XYFHvYqnfH_18build_script_build10VersionCfgEEB14_, symObjAddr: 0x22C, symBinAddr: 0x100007234, symSize: 0x48 }
  - { offset: 0x10F19, size: 0x8, addend: 0x0, symName: __RINvNtCsaNl6UpbT7bw_4core3ptr13drop_in_placeINtNtB4_6option6OptionNtNtNtCsht3nMU9UgFu_3std3ffi6os_str8OsStringEECs4XYFHvYqnfH_18build_script_build, symObjAddr: 0x274, symBinAddr: 0x10000727C, symSize: 0x48 }
  - { offset: 0x10F48, size: 0x8, addend: 0x0, symName: __RINvNtCsaNl6UpbT7bw_4core3ptr13drop_in_placeINtNtB4_6option6OptionNtNtNtCsiTraAjBDcu4_5alloc3ffi5c_str7CStringEECs4XYFHvYqnfH_18build_script_build, symObjAddr: 0x2BC, symBinAddr: 0x1000072C4, symSize: 0x44 }
  - { offset: 0x10F77, size: 0x8, addend: 0x0, symName: __RINvNtCsaNl6UpbT7bw_4core3ptr13drop_in_placeINtNtB4_6option6OptionNtNtNtNtNtCsht3nMU9UgFu_3std3sys7process4unix6common5StdioEECs4XYFHvYqnfH_18build_script_build, symObjAddr: 0x300, symBinAddr: 0x100007308, symSize: 0x44 }
  - { offset: 0x10FA6, size: 0x8, addend: 0x0, symName: __RINvNtCsaNl6UpbT7bw_4core3ptr13drop_in_placeINtNtB4_6result6ResultuNtNtNtCsht3nMU9UgFu_3std2io5error5ErrorEECs4XYFHvYqnfH_18build_script_build, symObjAddr: 0x344, symBinAddr: 0x10000734C, symSize: 0x44 }
  - { offset: 0x10FD5, size: 0x8, addend: 0x0, symName: __RINvNtCsaNl6UpbT7bw_4core3ptr13drop_in_placeINtNtCsiTraAjBDcu4_5alloc3vec3VecINtNtBL_5boxed3BoxDINtNtNtB4_3ops8function5FnMutuEp6OutputINtNtB4_6result6ResultuNtNtNtCsht3nMU9UgFu_3std2io5error5ErrorENtNtB4_6marker4SyncNtB3c_4SendEL_EEECs4XYFHvYqnfH_18build_script_build, symObjAddr: 0x388, symBinAddr: 0x100007390, symSize: 0x5C }
  - { offset: 0x11004, size: 0x8, addend: 0x0, symName: __RINvNtCsaNl6UpbT7bw_4core3ptr13drop_in_placeINtNtCsiTraAjBDcu4_5alloc3vec3VecNtCs4XYFHvYqnfH_18build_script_build10VersionCfgEEB1f_, symObjAddr: 0x3E4, symBinAddr: 0x1000073EC, symSize: 0x5C }
  - { offset: 0x11033, size: 0x8, addend: 0x0, symName: __RINvNtCsaNl6UpbT7bw_4core3ptr13drop_in_placeINtNtCsiTraAjBDcu4_5alloc3vec3VecPaEECs4XYFHvYqnfH_18build_script_build, symObjAddr: 0x440, symBinAddr: 0x100007448, symSize: 0x5C }
  - { offset: 0x11062, size: 0x8, addend: 0x0, symName: __RINvNtCsaNl6UpbT7bw_4core3ptr13drop_in_placeINtNtCsiTraAjBDcu4_5alloc3vec3VechEECs4XYFHvYqnfH_18build_script_build, symObjAddr: 0x49C, symBinAddr: 0x1000074A4, symSize: 0x5C }
  - { offset: 0x11091, size: 0x8, addend: 0x0, symName: __RINvNtCsaNl6UpbT7bw_4core3ptr13drop_in_placeINtNtCsiTraAjBDcu4_5alloc5boxed3BoxDINtNtNtB4_3ops8function5FnMutuEp6OutputINtNtB4_6result6ResultuNtNtNtCsht3nMU9UgFu_3std2io5error5ErrorENtNtB4_6marker4SyncNtB2W_4SendEL_EECs4XYFHvYqnfH_18build_script_build, symObjAddr: 0x4F8, symBinAddr: 0x100007500, symSize: 0x80 }
  - { offset: 0x110C0, size: 0x8, addend: 0x0, symName: __RINvNtCsaNl6UpbT7bw_4core3ptr13drop_in_placeINtNtCsiTraAjBDcu4_5alloc5boxed3BoxDNtNtB4_5error5ErrorNtNtB4_6marker4SyncNtB1B_4SendEL_EECs4XYFHvYqnfH_18build_script_build, symObjAddr: 0x578, symBinAddr: 0x100007580, symSize: 0x80 }
  - { offset: 0x110EF, size: 0x8, addend: 0x0, symName: __RINvNtCsaNl6UpbT7bw_4core3ptr13drop_in_placeINtNtCsiTraAjBDcu4_5alloc5boxed3BoxNtNtNtCsht3nMU9UgFu_3std2io5error6CustomEECs4XYFHvYqnfH_18build_script_build, symObjAddr: 0x5F8, symBinAddr: 0x100007600, symSize: 0x60 }
  - { offset: 0x1111E, size: 0x8, addend: 0x0, symName: __RINvNtCsaNl6UpbT7bw_4core3ptr13drop_in_placeINtNtCsiTraAjBDcu4_5alloc5boxed3BoxShEECs4XYFHvYqnfH_18build_script_build, symObjAddr: 0x658, symBinAddr: 0x100007660, symSize: 0x2C }
  - { offset: 0x1114D, size: 0x8, addend: 0x0, symName: __RINvNtCsaNl6UpbT7bw_4core3ptr13drop_in_placeINtNtCsiTraAjBDcu4_5alloc5boxed3BoxSmEECs4XYFHvYqnfH_18build_script_build, symObjAddr: 0x684, symBinAddr: 0x10000768C, symSize: 0x2C }
  - { offset: 0x1117C, size: 0x8, addend: 0x0, symName: __RINvNtCsaNl6UpbT7bw_4core3ptr13drop_in_placeINtNtCsiTraAjBDcu4_5alloc6borrow3CoweEECs4XYFHvYqnfH_18build_script_build, symObjAddr: 0x6B0, symBinAddr: 0x1000076B8, symSize: 0x48 }
  - { offset: 0x111AB, size: 0x8, addend: 0x0, symName: __RINvNtCsaNl6UpbT7bw_4core3ptr13drop_in_placeINtNtCsiTraAjBDcu4_5alloc7raw_vec6RawVecINtNtBL_5boxed3BoxDINtNtNtB4_3ops8function5FnMutuEp6OutputINtNtB4_6result6ResultuNtNtNtCsht3nMU9UgFu_3std2io5error5ErrorENtNtB4_6marker4SyncNtB3j_4SendEL_EEECs4XYFHvYqnfH_18build_script_build, symObjAddr: 0x6F8, symBinAddr: 0x100007700, symSize: 0x24 }
  - { offset: 0x111DA, size: 0x8, addend: 0x0, symName: __RINvNtCsaNl6UpbT7bw_4core3ptr13drop_in_placeINtNtCsiTraAjBDcu4_5alloc7raw_vec6RawVecNtCs4XYFHvYqnfH_18build_script_build10VersionCfgEEB1m_, symObjAddr: 0x71C, symBinAddr: 0x100007724, symSize: 0x24 }
  - { offset: 0x11209, size: 0x8, addend: 0x0, symName: __RINvNtCsaNl6UpbT7bw_4core3ptr13drop_in_placeINtNtCsiTraAjBDcu4_5alloc7raw_vec6RawVecPaEECs4XYFHvYqnfH_18build_script_build, symObjAddr: 0x740, symBinAddr: 0x100007748, symSize: 0x24 }
  - { offset: 0x11238, size: 0x8, addend: 0x0, symName: __RINvNtCsaNl6UpbT7bw_4core3ptr13drop_in_placeINtNtCsiTraAjBDcu4_5alloc7raw_vec6RawVechEECs4XYFHvYqnfH_18build_script_build, symObjAddr: 0x764, symBinAddr: 0x10000776C, symSize: 0x24 }
  - { offset: 0x11267, size: 0x8, addend: 0x0, symName: __RINvNtCsaNl6UpbT7bw_4core3ptr13drop_in_placeINtNtNtB4_3ops12control_flow11ControlFlowNtCs4XYFHvYqnfH_18build_script_build10VersionCfgEEB1n_, symObjAddr: 0x788, symBinAddr: 0x100007790, symSize: 0x48 }
  - { offset: 0x11296, size: 0x8, addend: 0x0, symName: __RINvNtCsaNl6UpbT7bw_4core3ptr13drop_in_placeINtNtNtCsht3nMU9UgFu_3std2io5error9ErrorDataINtNtCsiTraAjBDcu4_5alloc5boxed3BoxNtBJ_6CustomEEECs4XYFHvYqnfH_18build_script_build, symObjAddr: 0x7D0, symBinAddr: 0x1000077D8, symSize: 0x48 }
  - { offset: 0x112C5, size: 0x8, addend: 0x0, symName: __RINvNtCsaNl6UpbT7bw_4core3ptr13drop_in_placeINtNtNtCsiTraAjBDcu4_5alloc3vec9into_iter8IntoIterNtCs4XYFHvYqnfH_18build_script_build10VersionCfgEEB1w_, symObjAddr: 0x818, symBinAddr: 0x100007820, symSize: 0x24 }
  - { offset: 0x112F4, size: 0x8, addend: 0x0, symName: __RINvNtCsaNl6UpbT7bw_4core3ptr13drop_in_placeINtNtNtNtCsiTraAjBDcu4_5alloc11collections5btree3map8BTreeMapNtNtNtCsht3nMU9UgFu_3std3ffi6os_str8OsStringINtNtB4_6option6OptionB1F_EEECs4XYFHvYqnfH_18build_script_build, symObjAddr: 0x83C, symBinAddr: 0x100007844, symSize: 0x24 }
  - { offset: 0x11323, size: 0x8, addend: 0x0, symName: __RINvNtCsaNl6UpbT7bw_4core3ptr13drop_in_placeINtNtNtNtCsiTraAjBDcu4_5alloc11collections5btree3map8IntoIterNtNtNtCsht3nMU9UgFu_3std3ffi6os_str8OsStringINtNtB4_6option6OptionB1F_EEECs4XYFHvYqnfH_18build_script_build, symObjAddr: 0x860, symBinAddr: 0x100007868, symSize: 0x24 }
  - { offset: 0x11352, size: 0x8, addend: 0x0, symName: __RINvNtCsaNl6UpbT7bw_4core3ptr13drop_in_placeINtNvMsT_NtNtNtCsiTraAjBDcu4_5alloc11collections5btree4nodeINtBP_6HandleINtBP_7NodeRefNtNtBP_6marker5DyingpppENtB26_2KVE12drop_key_val7DropperINtNtB4_6option6OptionNtNtNtCsht3nMU9UgFu_3std3ffi6os_str8OsStringEEECs4XYFHvYqnfH_18build_script_build, symObjAddr: 0x884, symBinAddr: 0x10000788C, symSize: 0x24 }
  - { offset: 0x11381, size: 0x8, addend: 0x0, symName: __RINvNtCsaNl6UpbT7bw_4core3ptr13drop_in_placeINtNvNtCsht3nMU9UgFu_3std2io17default_write_fmt7AdapterNtNtNtNtBN_3sys5stdio4unix6StderrEECs4XYFHvYqnfH_18build_script_build, symObjAddr: 0x8A8, symBinAddr: 0x1000078B0, symSize: 0x24 }
  - { offset: 0x113B0, size: 0x8, addend: 0x0, symName: __RINvNtCsaNl6UpbT7bw_4core3ptr13drop_in_placeINtNvXsd_NtNtCsiTraAjBDcu4_5alloc3vec9into_iterINtBP_8IntoIterppENtNtNtB4_3ops4drop4Drop4drop9DropGuardNtCs4XYFHvYqnfH_18build_script_build10VersionCfgNtNtBT_5alloc6GlobalEEB2n_, symObjAddr: 0x8CC, symBinAddr: 0x1000078D4, symSize: 0x24 }
  - { offset: 0x113DF, size: 0x8, addend: 0x0, symName: __RINvNtCsaNl6UpbT7bw_4core3ptr13drop_in_placeINtNvXsw_NtNtNtCsiTraAjBDcu4_5alloc11collections5btree3mapINtBP_8IntoIterpppENtNtNtB4_3ops4drop4Drop4drop9DropGuardNtNtNtCsht3nMU9UgFu_3std3ffi6os_str8OsStringINtNtB4_6option6OptionB2x_ENtNtBV_5alloc6GlobalEECs4XYFHvYqnfH_18build_script_build, symObjAddr: 0x8F0, symBinAddr: 0x1000078F8, symSize: 0x24 }
  - { offset: 0x1140E, size: 0x8, addend: 0x0, symName: __RINvNtCsaNl6UpbT7bw_4core3ptr13drop_in_placeNCINvMsi_NtCsiTraAjBDcu4_5alloc3vecINtBP_3VechE14extend_trustedINtNtNtNtB4_4iter8adapters3map3MapINtNtNtB4_5slice4iter4IterhENCNvNtBR_3str13replace_ascii0EE0ECs4XYFHvYqnfH_18build_script_build, symObjAddr: 0x914, symBinAddr: 0x10000791C, symSize: 0x24 }
  - { offset: 0x1143D, size: 0x8, addend: 0x0, symName: __RINvNtCsaNl6UpbT7bw_4core3ptr13drop_in_placeNCINvNtNtNtB4_4iter8adapters3map8map_foldRhhuNCNvNtCsiTraAjBDcu4_5alloc3str13replace_ascii0NCINvNvNtNtNtBP_6traits8iterator8Iterator8for_each4callhNCINvMsi_NtB1v_3vecINtB3c_3VechE14extend_trustedINtBL_3MapINtNtNtB4_5slice4iter4IterhEB1p_EE0E0E0ECs4XYFHvYqnfH_18build_script_build, symObjAddr: 0x938, symBinAddr: 0x100007940, symSize: 0x24 }
  - { offset: 0x1146C, size: 0x8, addend: 0x0, symName: __RINvNtCsaNl6UpbT7bw_4core3ptr13drop_in_placeNCINvNvNtNtNtNtB4_4iter6traits8iterator8Iterator8for_each4callhNCINvMsi_NtCsiTraAjBDcu4_5alloc3vecINtB1Q_3VechE14extend_trustedINtNtNtBT_8adapters3map3MapINtNtNtB4_5slice4iter4IterhENCNvNtB1S_3str13replace_ascii0EE0E0ECs4XYFHvYqnfH_18build_script_build, symObjAddr: 0x95C, symBinAddr: 0x100007964, symSize: 0x24 }
  - { offset: 0x1149B, size: 0x8, addend: 0x0, symName: __RINvNtCsaNl6UpbT7bw_4core3ptr13drop_in_placeNtCs4XYFHvYqnfH_18build_script_build10VersionCfgEBI_, symObjAddr: 0x980, symBinAddr: 0x100007988, symSize: 0x24 }
  - { offset: 0x114CA, size: 0x8, addend: 0x0, symName: __RINvNtCsaNl6UpbT7bw_4core3ptr13drop_in_placeNtNtCsht3nMU9UgFu_3std7process6OutputECs4XYFHvYqnfH_18build_script_build, symObjAddr: 0x9A4, symBinAddr: 0x1000079AC, symSize: 0x60 }
  - { offset: 0x114F9, size: 0x8, addend: 0x0, symName: __RINvNtCsaNl6UpbT7bw_4core3ptr13drop_in_placeNtNtCsht3nMU9UgFu_3std7process7CommandECs4XYFHvYqnfH_18build_script_build, symObjAddr: 0xA04, symBinAddr: 0x100007A0C, symSize: 0x24 }
  - { offset: 0x11528, size: 0x8, addend: 0x0, symName: __RINvNtCsaNl6UpbT7bw_4core3ptr13drop_in_placeNtNtCsiTraAjBDcu4_5alloc6string6StringECs4XYFHvYqnfH_18build_script_build, symObjAddr: 0xA28, symBinAddr: 0x100007A30, symSize: 0x24 }
  - { offset: 0x11557, size: 0x8, addend: 0x0, symName: __RINvNtCsaNl6UpbT7bw_4core3ptr13drop_in_placeNtNtNtCsht3nMU9UgFu_3std2io5error5ErrorECs4XYFHvYqnfH_18build_script_build, symObjAddr: 0xA4C, symBinAddr: 0x100007A54, symSize: 0x24 }
  - { offset: 0x11586, size: 0x8, addend: 0x0, symName: __RINvNtCsaNl6UpbT7bw_4core3ptr13drop_in_placeNtNtNtCsht3nMU9UgFu_3std2io5error6CustomECs4XYFHvYqnfH_18build_script_build, symObjAddr: 0xA70, symBinAddr: 0x100007A78, symSize: 0x24 }
  - { offset: 0x115B5, size: 0x8, addend: 0x0, symName: __RINvNtCsaNl6UpbT7bw_4core3ptr13drop_in_placeNtNtNtCsht3nMU9UgFu_3std3ffi6os_str8OsStringECs4XYFHvYqnfH_18build_script_build, symObjAddr: 0xA94, symBinAddr: 0x100007A9C, symSize: 0x24 }
  - { offset: 0x115E4, size: 0x8, addend: 0x0, symName: __RINvNtCsaNl6UpbT7bw_4core3ptr13drop_in_placeNtNtNtCsiTraAjBDcu4_5alloc3ffi5c_str7CStringECs4XYFHvYqnfH_18build_script_build, symObjAddr: 0xAB8, symBinAddr: 0x100007AC0, symSize: 0x5C }
  - { offset: 0x11613, size: 0x8, addend: 0x0, symName: __RINvNtCsaNl6UpbT7bw_4core3ptr13drop_in_placeNtNtNtCsiTraAjBDcu4_5alloc3vec15set_len_on_drop12SetLenOnDropECs4XYFHvYqnfH_18build_script_build, symObjAddr: 0xB14, symBinAddr: 0x100007B1C, symSize: 0x24 }
  - { offset: 0x11642, size: 0x8, addend: 0x0, symName: __RINvNtCsaNl6UpbT7bw_4core3ptr13drop_in_placeNtNtNtNtCsht3nMU9UgFu_3std2io5error14repr_bitpacked4ReprECs4XYFHvYqnfH_18build_script_build, symObjAddr: 0xB38, symBinAddr: 0x100007B40, symSize: 0x24 }
  - { offset: 0x11671, size: 0x8, addend: 0x0, symName: __RINvNtCsaNl6UpbT7bw_4core3ptr13drop_in_placeNtNtNtNtCsht3nMU9UgFu_3std2os2fd5owned7OwnedFdECs4XYFHvYqnfH_18build_script_build, symObjAddr: 0xB5C, symBinAddr: 0x100007B64, symSize: 0x24 }
  - { offset: 0x116A0, size: 0x8, addend: 0x0, symName: __RINvNtCsaNl6UpbT7bw_4core3ptr13drop_in_placeNtNtNtNtCsht3nMU9UgFu_3std3sys2fd4unix8FileDescECs4XYFHvYqnfH_18build_script_build, symObjAddr: 0xB80, symBinAddr: 0x100007B88, symSize: 0x24 }
  - { offset: 0x116CF, size: 0x8, addend: 0x0, symName: __RINvNtCsaNl6UpbT7bw_4core3ptr13drop_in_placeNtNtNtNtCsht3nMU9UgFu_3std3sys6os_str5bytes3BufECs4XYFHvYqnfH_18build_script_build, symObjAddr: 0xBA4, symBinAddr: 0x100007BAC, symSize: 0x24 }
  - { offset: 0x116FE, size: 0x8, addend: 0x0, symName: __RINvNtCsaNl6UpbT7bw_4core3ptr13drop_in_placeNtNtNtNtCsht3nMU9UgFu_3std3sys7process3env10CommandEnvECs4XYFHvYqnfH_18build_script_build, symObjAddr: 0xBC8, symBinAddr: 0x100007BD0, symSize: 0x24 }
  - { offset: 0x1172D, size: 0x8, addend: 0x0, symName: __RINvNtCsaNl6UpbT7bw_4core3ptr13drop_in_placeNtNtNtNtNtCsht3nMU9UgFu_3std3sys7process4unix6common5StdioECs4XYFHvYqnfH_18build_script_build, symObjAddr: 0xBEC, symBinAddr: 0x100007BF4, symSize: 0x44 }
  - { offset: 0x1175C, size: 0x8, addend: 0x0, symName: __RINvNtCsaNl6UpbT7bw_4core3ptr13drop_in_placeNtNtNtNtNtCsht3nMU9UgFu_3std3sys7process4unix6common7CommandECs4XYFHvYqnfH_18build_script_build, symObjAddr: 0xC30, symBinAddr: 0x100007C38, symSize: 0x1DC }
  - { offset: 0x1178B, size: 0x8, addend: 0x0, symName: __RINvNtCsaNl6UpbT7bw_4core3ptr13drop_in_placeNtNtNtNtNtNtCsht3nMU9UgFu_3std3sys7process4unix6common13cstring_array12CStringArrayECs4XYFHvYqnfH_18build_script_build, symObjAddr: 0xE0C, symBinAddr: 0x100007E14, symSize: 0x5C }
  - { offset: 0x117BA, size: 0x8, addend: 0x0, symName: __RINvNtCsaNl6UpbT7bw_4core3ptr13drop_in_placeNtNvNtNtNtCsiTraAjBDcu4_5alloc11collections5btree3mem7replace10PanicGuardECs4XYFHvYqnfH_18build_script_build, symObjAddr: 0xE68, symBinAddr: 0x100007E70, symSize: 0x24 }
  - { offset: 0x117E9, size: 0x8, addend: 0x0, symName: __RINvNtCsaNl6UpbT7bw_4core3ptr13drop_in_placeSINtNtCsiTraAjBDcu4_5alloc5boxed3BoxDINtNtNtB4_3ops8function5FnMutuEp6OutputINtNtB4_6result6ResultuNtNtNtCsht3nMU9UgFu_3std2io5error5ErrorENtNtB4_6marker4SyncNtB2X_4SendEL_EECs4XYFHvYqnfH_18build_script_build, symObjAddr: 0xE8C, symBinAddr: 0x100007E94, symSize: 0xB4 }
  - { offset: 0x11818, size: 0x8, addend: 0x0, symName: __RINvNtCsaNl6UpbT7bw_4core3ptr13drop_in_placeSNtCs4XYFHvYqnfH_18build_script_build10VersionCfgEBJ_, symObjAddr: 0xF40, symBinAddr: 0x100007F48, symSize: 0xC4 }
  - { offset: 0x11B0B, size: 0x8, addend: 0x0, symName: __RNvNvNtCsaNl6UpbT7bw_4core3ptr19copy_nonoverlapping18precondition_checkCs4XYFHvYqnfH_18build_script_build, symObjAddr: 0x213C, symBinAddr: 0x100009140, symSize: 0x36C }
  - { offset: 0x11F7E, size: 0x8, addend: 0x0, symName: __RNvNvXs5_NtNtCsaNl6UpbT7bw_4core3str6traitsINtNtNtBb_3ops5range5RangejEINtNtNtBb_5slice5index10SliceIndexeE13get_unchecked18precondition_checkCs4XYFHvYqnfH_18build_script_build, symObjAddr: 0x2A8C, symBinAddr: 0x100009A90, symSize: 0xCC }
  - { offset: 0x11FFB, size: 0x8, addend: 0x0, symName: __RNvXs_NtNtCsaNl6UpbT7bw_4core3str6traitseNtNtB8_3cmp9PartialEq2eqCs4XYFHvYqnfH_18build_script_build, symObjAddr: 0x34FC, symBinAddr: 0x10000A500, symSize: 0x64 }
  - { offset: 0x1317E, size: 0x8, addend: 0x0, symName: __RNvXs_NvNtNtCsaNl6UpbT7bw_4core3fmt5Write9write_fmtQINtNvNtCsht3nMU9UgFu_3std2io17default_write_fmt7AdapterNtNtNtNtBV_3sys5stdio4unix6StderrENtB4_12SpecWriteFmt14spec_write_fmtCs4XYFHvYqnfH_18build_script_build, symObjAddr: 0x3580, symBinAddr: 0x10000A584, symSize: 0x160 }
  - { offset: 0x1322D, size: 0x8, addend: 0x0, symName: __RNvYINtNvNtCsht3nMU9UgFu_3std2io17default_write_fmt7AdapterNtNtNtNtB9_3sys5stdio4unix6StderrENtNtCsaNl6UpbT7bw_4core3fmt5Write10write_charCs4XYFHvYqnfH_18build_script_build, symObjAddr: 0x385C, symBinAddr: 0x10000A860, symSize: 0x70 }
  - { offset: 0x13295, size: 0x8, addend: 0x0, symName: __RNvYINtNvNtCsht3nMU9UgFu_3std2io17default_write_fmt7AdapterNtNtNtNtB9_3sys5stdio4unix6StderrENtNtCsaNl6UpbT7bw_4core3fmt5Write9write_fmtCs4XYFHvYqnfH_18build_script_build, symObjAddr: 0x38CC, symBinAddr: 0x10000A8D0, symSize: 0x24 }
  - { offset: 0x1332D, size: 0x8, addend: 0x0, symName: __RNvNvNtCsaNl6UpbT7bw_4core4hint16assert_unchecked18precondition_checkCs4XYFHvYqnfH_18build_script_build, symObjAddr: 0x24A8, symBinAddr: 0x1000094AC, symSize: 0xA4 }
  - { offset: 0x1338D, size: 0x8, addend: 0x0, symName: __RNvNvNtCsaNl6UpbT7bw_4core4hint21unreachable_unchecked18precondition_checkCs4XYFHvYqnfH_18build_script_build, symObjAddr: 0x254C, symBinAddr: 0x100009550, symSize: 0x84 }
  - { offset: 0x13469, size: 0x8, addend: 0x0, symName: __RNCINvNtNtNtCsaNl6UpbT7bw_4core4iter8adapters3map8map_foldRhhuNCNvNtCsiTraAjBDcu4_5alloc3str13replace_ascii0NCINvNvNtNtNtB8_6traits8iterator8Iterator8for_each4callhNCINvMsi_NtB14_3vecINtB2L_3VechE14extend_trustedINtB4_3MapINtNtNtBa_5slice4iter4IterhEBY_EE0E0E0Cs4XYFHvYqnfH_18build_script_build, symObjAddr: 0x12FC, symBinAddr: 0x100008304, symSize: 0x7C }
  - { offset: 0x134F4, size: 0x8, addend: 0x0, symName: __RINvXs0_NtNtNtCsaNl6UpbT7bw_4core4iter8adapters3mapINtB6_3MapINtNtNtBc_5slice4iter4IterhENCNvNtCsiTraAjBDcu4_5alloc3str13replace_ascii0ENtNtNtBa_6traits8iterator8Iterator4folduNCINvNvB2a_8for_each4callhNCINvMsi_NtB1v_3vecINtB3n_3VechE14extend_trustedBN_E0E0ECs4XYFHvYqnfH_18build_script_build, symObjAddr: 0x11B0, symBinAddr: 0x1000081B8, symSize: 0x58 }
  - { offset: 0x1358D, size: 0x8, addend: 0x0, symName: __RNvXs0_NtNtNtCsaNl6UpbT7bw_4core4iter8adapters3mapINtB5_3MapINtNtNtBb_3str4iter14SplitInclusivecENtB11_8LinesMapENtNtNtB9_6traits8iterator8Iterator4nextCs4XYFHvYqnfH_18build_script_build, symObjAddr: 0x2E1C, symBinAddr: 0x100009E20, symSize: 0x90 }
  - { offset: 0x13625, size: 0x8, addend: 0x0, symName: __RNvXs0_NtNtNtCsaNl6UpbT7bw_4core4iter8adapters3mapINtB5_3MapINtNtNtBb_5slice4iter4IterhENCNvNtCsiTraAjBDcu4_5alloc3str13replace_ascii0ENtNtNtB9_6traits8iterator8Iterator9size_hintCs4XYFHvYqnfH_18build_script_build, symObjAddr: 0x2EAC, symBinAddr: 0x100009EB0, symSize: 0x24 }
  - { offset: 0x13733, size: 0x8, addend: 0x0, symName: __RINvYINtNtNtNtCsaNl6UpbT7bw_4core4iter8adapters3map3MapINtNtNtBc_5slice4iter4IterhENCNvNtCsiTraAjBDcu4_5alloc3str13replace_ascii0ENtNtNtBa_6traits8iterator8Iterator7collectINtNtB1p_3vec3VechEECs4XYFHvYqnfH_18build_script_build, symObjAddr: 0x1208, symBinAddr: 0x100008210, symSize: 0x68 }
  - { offset: 0x137C9, size: 0x8, addend: 0x0, symName: __RINvYINtNtNtNtCsaNl6UpbT7bw_4core4iter8adapters3map3MapINtNtNtBc_5slice4iter4IterhENCNvNtCsiTraAjBDcu4_5alloc3str13replace_ascii0ENtNtNtBa_6traits8iterator8Iterator8for_eachNCINvMsi_NtB1p_3vecINtB2U_3VechE14extend_trustedB3_E0ECs4XYFHvYqnfH_18build_script_build, symObjAddr: 0x1270, symBinAddr: 0x100008278, symSize: 0x34 }
  - { offset: 0x13841, size: 0x8, addend: 0x0, symName: __RNvXNtNtNtCsaNl6UpbT7bw_4core4iter6traits7collectINtNtNtB6_8adapters3map3MapINtNtNtB8_5slice4iter4IterhENCNvNtCsiTraAjBDcu4_5alloc3str13replace_ascii0ENtB2_12IntoIterator9into_iterCs4XYFHvYqnfH_18build_script_build, symObjAddr: 0x2CD8, symBinAddr: 0x100009CDC, symSize: 0x14 }
  - { offset: 0x138AF, size: 0x8, addend: 0x0, symName: __RNvYINtNtNtCsiTraAjBDcu4_5alloc3vec9into_iter8IntoIterNtCs4XYFHvYqnfH_18build_script_build10VersionCfgENtNtNtNtCsaNl6UpbT7bw_4core4iter6traits10exact_size17ExactSizeIterator3lenBS_, symObjAddr: 0x3798, symBinAddr: 0x10000A79C, symSize: 0xC4 }
  - { offset: 0x139BD, size: 0x8, addend: 0x0, symName: __RNSNvYNCINvNtCsht3nMU9UgFu_3std2rt10lang_startuE0INtNtNtCsaNl6UpbT7bw_4core3ops8function6FnOnceuE9call_once6vtableCs4XYFHvYqnfH_18build_script_build, symObjAddr: 0x13C0, symBinAddr: 0x1000083C8, symSize: 0x28 }
  - { offset: 0x13A01, size: 0x8, addend: 0x0, symName: __RNvYFEuINtNtNtCsaNl6UpbT7bw_4core3ops8function6FnOnceuE9call_onceCs4XYFHvYqnfH_18build_script_build, symObjAddr: 0x3778, symBinAddr: 0x10000A77C, symSize: 0x20 }
  - { offset: 0x13A41, size: 0x8, addend: 0x0, symName: __RNvYNCINvNtCsht3nMU9UgFu_3std2rt10lang_startuE0INtNtNtCsaNl6UpbT7bw_4core3ops8function6FnOnceuE9call_onceCs4XYFHvYqnfH_18build_script_build, symObjAddr: 0x38F0, symBinAddr: 0x10000A8F4, symSize: 0x4C }
  - { offset: 0x13A85, size: 0x8, addend: 0x0, symName: __RNvYNvYeNtNtCsiTraAjBDcu4_5alloc6borrow7ToOwned8to_ownedINtNtNtCsaNl6UpbT7bw_4core3ops8function6FnOnceTReEE9call_onceCs4XYFHvYqnfH_18build_script_build, symObjAddr: 0x3D28, symBinAddr: 0x10000AD2C, symSize: 0x2C }
  - { offset: 0x13B17, size: 0x8, addend: 0x0, symName: __RNvYNvMNtNtCsaNl6UpbT7bw_4core4char7methodsc13is_whitespaceINtNtNtB9_3ops8function5FnMutTcEE8call_mutCs4XYFHvYqnfH_18build_script_build, symObjAddr: 0x3D00, symBinAddr: 0x10000AD04, symSize: 0x28 }
  - { offset: 0x13BE7, size: 0x8, addend: 0x0, symName: __RNvXNtNtCsaNl6UpbT7bw_4core3ops12control_flowINtB2_11ControlFlowNtCs4XYFHvYqnfH_18build_script_build10VersionCfgENtNtB4_9try_trait3Try11from_outputB12_, symObjAddr: 0x2BB8, symBinAddr: 0x100009BBC, symSize: 0x18 }
  - { offset: 0x13C25, size: 0x8, addend: 0x0, symName: __RNvXNtNtCsaNl6UpbT7bw_4core3ops12control_flowINtB2_11ControlFlowNtCs4XYFHvYqnfH_18build_script_build10VersionCfgENtNtB4_9try_trait3Try6branchB12_, symObjAddr: 0x2BD0, symBinAddr: 0x100009BD4, symSize: 0x8C }
  - { offset: 0x13C9E, size: 0x8, addend: 0x0, symName: __RNvXNtNtCsaNl6UpbT7bw_4core3ops12control_flowINtB2_11ControlFlowReENtNtB4_9try_trait3Try11from_outputCs4XYFHvYqnfH_18build_script_build, symObjAddr: 0x2C5C, symBinAddr: 0x100009C60, symSize: 0x18 }
  - { offset: 0x13CDC, size: 0x8, addend: 0x0, symName: __RNvXNtNtCsaNl6UpbT7bw_4core3ops12control_flowINtB2_11ControlFlowReENtNtB4_9try_trait3Try6branchCs4XYFHvYqnfH_18build_script_build, symObjAddr: 0x2C74, symBinAddr: 0x100009C78, symSize: 0x64 }
  - { offset: 0x13D5B, size: 0x8, addend: 0x0, symName: __RNvXs_NtNtCsaNl6UpbT7bw_4core3ops12control_flowINtB4_11ControlFlowNtCs4XYFHvYqnfH_18build_script_build10VersionCfgEINtNtB6_9try_trait12FromResidualIBK_B12_NtNtB8_7convert10InfallibleEE13from_residualB14_, symObjAddr: 0x3488, symBinAddr: 0x10000A48C, symSize: 0x48 }
  - { offset: 0x13D9A, size: 0x8, addend: 0x0, symName: __RNvXs_NtNtCsaNl6UpbT7bw_4core3ops12control_flowINtB4_11ControlFlowReEINtNtB6_9try_trait12FromResidualIBK_B12_NtNtB8_7convert10InfallibleEE13from_residualCs4XYFHvYqnfH_18build_script_build, symObjAddr: 0x34D0, symBinAddr: 0x10000A4D4, symSize: 0x2C }
  - { offset: 0x141EE, size: 0x8, addend: 0x0, symName: __RNvNvMNtNtCsaNl6UpbT7bw_4core5alloc6layoutNtB4_6Layout25from_size_align_unchecked18precondition_checkCs4XYFHvYqnfH_18build_script_build, symObjAddr: 0x1FDC, symBinAddr: 0x100008FE0, symSize: 0xBC }
  - { offset: 0x1426E, size: 0x8, addend: 0x0, symName: __RNvXNtCsaNl6UpbT7bw_4core7convertReINtB2_5AsRefNtNtCsht3nMU9UgFu_3std4path4PathE6as_refCs4XYFHvYqnfH_18build_script_build, symObjAddr: 0x2B58, symBinAddr: 0x100009B5C, symSize: 0x30 }
  - { offset: 0x142AE, size: 0x8, addend: 0x0, symName: __RNvXNtCsaNl6UpbT7bw_4core7convertReINtB2_5AsRefNtNtNtCsht3nMU9UgFu_3std3ffi6os_str5OsStrE6as_refCs4XYFHvYqnfH_18build_script_build, symObjAddr: 0x2B88, symBinAddr: 0x100009B8C, symSize: 0x30 }
  - { offset: 0x1432F, size: 0x8, addend: 0x0, symName: __RNvNtNtCsaNl6UpbT7bw_4core5slice6memchr6memchrCs4XYFHvYqnfH_18build_script_build, symObjAddr: 0x1D7C, symBinAddr: 0x100008D80, symSize: 0x114 }
  - { offset: 0x1439F, size: 0x8, addend: 0x0, symName: __RNvNvNtNtCsaNl6UpbT7bw_4core5slice3raw14from_raw_parts18precondition_checkCs4XYFHvYqnfH_18build_script_build, symObjAddr: 0x26D4, symBinAddr: 0x1000096D8, symSize: 0x1DC }
  - { offset: 0x14523, size: 0x8, addend: 0x0, symName: __RNvNvNtNtCsaNl6UpbT7bw_4core5slice3raw18from_raw_parts_mut18precondition_checkCs4XYFHvYqnfH_18build_script_build, symObjAddr: 0x28B0, symBinAddr: 0x1000098B4, symSize: 0x1DC }
  - { offset: 0x14779, size: 0x8, addend: 0x0, symName: __RNvNtNtNtCsaNl6UpbT7bw_4core7unicode12unicode_data11white_space6lookupCs4XYFHvYqnfH_18build_script_build, symObjAddr: 0x1E90, symBinAddr: 0x100008E94, symSize: 0x14C }
  - { offset: 0x149D9, size: 0x8, addend: 0x0, symName: __RNvNvNtNtCsaNl6UpbT7bw_4core4char7convert18from_u32_unchecked18precondition_checkCs4XYFHvYqnfH_18build_script_build, symObjAddr: 0x25D0, symBinAddr: 0x1000095D4, symSize: 0x104 }
  - { offset: 0x14B75, size: 0x8, addend: 0x0, symName: __RNvYjNtNtCsaNl6UpbT7bw_4core3cmp3Ord3maxCs4XYFHvYqnfH_18build_script_build, symObjAddr: 0x3D54, symBinAddr: 0x10000AD58, symSize: 0x80 }
  - { offset: 0x14E33, size: 0x8, addend: 0x0, symName: __RNCINvMsm_NtNtNtCsiTraAjBDcu4_5alloc11collections5btree8navigateINtNtBa_4node6HandleINtB13_7NodeRefNtNtB13_6marker5DyingNtNtNtCsht3nMU9UgFu_3std3ffi6os_str8OsStringINtNtCsaNl6UpbT7bw_4core6option6OptionB1U_ENtB1B_4LeafENtB1B_4EdgeE27deallocating_next_uncheckedNtNtBe_5alloc6GlobalE0Cs4XYFHvYqnfH_18build_script_build, symObjAddr: 0x12A4, symBinAddr: 0x1000082AC, symSize: 0x58 }
  - { offset: 0x155AD, size: 0x8, addend: 0x0, symName: __RNvXs_NtNtCsiTraAjBDcu4_5alloc3vec15set_len_on_dropNtB4_12SetLenOnDropNtNtNtCsaNl6UpbT7bw_4core3ops4drop4Drop4dropCs4XYFHvYqnfH_18build_script_build, symObjAddr: 0x3560, symBinAddr: 0x10000A564, symSize: 0x20 }
  - { offset: 0x155EB, size: 0x8, addend: 0x0, symName: __RNvXNvXsd_NtNtCsiTraAjBDcu4_5alloc3vec9into_iterINtB8_8IntoIterppENtNtNtCsaNl6UpbT7bw_4core3ops4drop4Drop4dropINtB2_9DropGuardNtCs4XYFHvYqnfH_18build_script_build10VersionCfgNtNtBc_5alloc6GlobalEB12_4dropB22_, symObjAddr: 0x2DA0, symBinAddr: 0x100009DA4, symSize: 0x7C }
  - { offset: 0x15721, size: 0x8, addend: 0x0, symName: __RNvXsd_NtNtCsiTraAjBDcu4_5alloc3vec9into_iterINtB5_8IntoIterNtCs4XYFHvYqnfH_18build_script_build10VersionCfgENtNtNtCsaNl6UpbT7bw_4core3ops4drop4Drop4dropBY_, symObjAddr: 0x36E0, symBinAddr: 0x10000A6E4, symSize: 0x98 }
  - { offset: 0x157C1, size: 0x8, addend: 0x0, symName: __RNvXs3_NtNtCsiTraAjBDcu4_5alloc3vec9into_iterINtB5_8IntoIterNtCs4XYFHvYqnfH_18build_script_build10VersionCfgENtNtNtNtCsaNl6UpbT7bw_4core4iter6traits8iterator8Iterator4nextBY_, symObjAddr: 0x2F68, symBinAddr: 0x100009F6C, symSize: 0xDC }
  - { offset: 0x15933, size: 0x8, addend: 0x0, symName: __RNvXs3_NtNtCsiTraAjBDcu4_5alloc3vec9into_iterINtB5_8IntoIterNtCs4XYFHvYqnfH_18build_script_build10VersionCfgENtNtNtNtCsaNl6UpbT7bw_4core4iter6traits8iterator8Iterator9size_hintBY_, symObjAddr: 0x3044, symBinAddr: 0x10000A048, symSize: 0x6C }
  - { offset: 0x15C3F, size: 0x8, addend: 0x0, symName: __RNvXs1_NtCsiTraAjBDcu4_5alloc7raw_vecINtB5_6RawVecINtNtB7_5boxed3BoxDINtNtNtCsaNl6UpbT7bw_4core3ops8function5FnMutuEp6OutputINtNtB1c_6result6ResultuNtNtNtCsht3nMU9UgFu_3std2io5error5ErrorENtNtB1c_6marker4SyncNtB32_4SendEL_EENtNtB1a_4drop4Drop4dropCs4XYFHvYqnfH_18build_script_build, symObjAddr: 0x2ED0, symBinAddr: 0x100009ED4, symSize: 0x34 }
  - { offset: 0x15C7B, size: 0x8, addend: 0x0, symName: __RNvXs1_NtCsiTraAjBDcu4_5alloc7raw_vecINtB5_6RawVecNtCs4XYFHvYqnfH_18build_script_build10VersionCfgENtNtNtCsaNl6UpbT7bw_4core3ops4drop4Drop4dropBO_, symObjAddr: 0x2F04, symBinAddr: 0x100009F08, symSize: 0x34 }
  - { offset: 0x15CB7, size: 0x8, addend: 0x0, symName: __RNvXs1_NtCsiTraAjBDcu4_5alloc7raw_vecINtB5_6RawVecPaENtNtNtCsaNl6UpbT7bw_4core3ops4drop4Drop4dropCs4XYFHvYqnfH_18build_script_build, symObjAddr: 0x2F38, symBinAddr: 0x100009F3C, symSize: 0x30 }
  - { offset: 0x15D8F, size: 0x8, addend: 0x0, symName: __RNCNvNtCsiTraAjBDcu4_5alloc3fmt6format0Cs4XYFHvYqnfH_18build_script_build, symObjAddr: 0x1378, symBinAddr: 0x100008380, symSize: 0x48 }
  - { offset: 0x15DC0, size: 0x8, addend: 0x0, symName: __RNvNtCsiTraAjBDcu4_5alloc3fmt6formatCs4XYFHvYqnfH_18build_script_build, symObjAddr: 0x1CA8, symBinAddr: 0x100008CAC, symSize: 0xD4 }
  - { offset: 0x15E41, size: 0x8, addend: 0x0, symName: __RNvXs6_NtCsiTraAjBDcu4_5alloc5boxedINtB5_3BoxDINtNtNtCsaNl6UpbT7bw_4core3ops8function5FnMutuEp6OutputINtNtBP_6result6ResultuNtNtNtCsht3nMU9UgFu_3std2io5error5ErrorENtNtBP_6marker4SyncNtB2E_4SendEL_ENtNtBN_4drop4Drop4dropCs4XYFHvYqnfH_18build_script_build, symObjAddr: 0x30B0, symBinAddr: 0x10000A0B4, symSize: 0xCC }
  - { offset: 0x15F78, size: 0x8, addend: 0x0, symName: __RNvXs6_NtCsiTraAjBDcu4_5alloc5boxedINtB5_3BoxDNtNtCsaNl6UpbT7bw_4core5error5ErrorNtNtBM_6marker4SyncNtB1j_4SendEL_ENtNtNtBM_3ops4drop4Drop4dropCs4XYFHvYqnfH_18build_script_build, symObjAddr: 0x317C, symBinAddr: 0x10000A180, symSize: 0xCC }
  - { offset: 0x160AF, size: 0x8, addend: 0x0, symName: __RNvXs6_NtCsiTraAjBDcu4_5alloc5boxedINtB5_3BoxNtNtNtCsht3nMU9UgFu_3std2io5error6CustomENtNtNtCsaNl6UpbT7bw_4core3ops4drop4Drop4dropCs4XYFHvYqnfH_18build_script_build, symObjAddr: 0x3248, symBinAddr: 0x10000A24C, symSize: 0xB8 }
  - { offset: 0x161E6, size: 0x8, addend: 0x0, symName: __RNvXs6_NtCsiTraAjBDcu4_5alloc5boxedINtB5_3BoxShENtNtNtCsaNl6UpbT7bw_4core3ops4drop4Drop4dropCs4XYFHvYqnfH_18build_script_build, symObjAddr: 0x3300, symBinAddr: 0x10000A304, symSize: 0xC4 }
  - { offset: 0x1631D, size: 0x8, addend: 0x0, symName: __RNvXs6_NtCsiTraAjBDcu4_5alloc5boxedINtB5_3BoxSmENtNtNtCsaNl6UpbT7bw_4core3ops4drop4Drop4dropCs4XYFHvYqnfH_18build_script_build, symObjAddr: 0x33C4, symBinAddr: 0x10000A3C8, symSize: 0xC4 }
  - { offset: 0x16590, size: 0x8, addend: 0x0, symName: __RINvMsb_NtNtNtCsiTraAjBDcu4_5alloc11collections5btree8navigateINtB6_13LazyLeafRangeNtNtNtB8_4node6marker5DyingNtNtNtCsht3nMU9UgFu_3std3ffi6os_str8OsStringINtNtCsaNl6UpbT7bw_4core6option6OptionB1K_EE16deallocating_endNtNtBc_5alloc6GlobalECs4XYFHvYqnfH_18build_script_build, symObjAddr: 0x0, symBinAddr: 0x1000070B0, symSize: 0x98 }
  - { offset: 0x16694, size: 0x8, addend: 0x0, symName: __RINvMsb_NtNtNtCsiTraAjBDcu4_5alloc11collections5btree8navigateINtB6_13LazyLeafRangeNtNtNtB8_4node6marker5DyingNtNtNtCsht3nMU9UgFu_3std3ffi6os_str8OsStringINtNtCsaNl6UpbT7bw_4core6option6OptionB1K_EE27deallocating_next_uncheckedNtNtBc_5alloc6GlobalECs4XYFHvYqnfH_18build_script_build, symObjAddr: 0x98, symBinAddr: 0x100007148, symSize: 0xA8 }
  - { offset: 0x1695D, size: 0x8, addend: 0x0, symName: __RNvMNtCsaNl6UpbT7bw_4core6resultINtB2_6ResultNtNtCsht3nMU9UgFu_3std7process6OutputNtNtNtBL_2io5error5ErrorE6expectCs4XYFHvYqnfH_18build_script_build, symObjAddr: 0x13E8, symBinAddr: 0x1000083F0, symSize: 0xBC }
  - { offset: 0x169C0, size: 0x8, addend: 0x0, symName: __RNvMNtCsaNl6UpbT7bw_4core6resultINtB2_6ResultNtNtCsiTraAjBDcu4_5alloc6string6StringNtNtNtCsht3nMU9UgFu_3std2io5error5ErrorE6expectCs4XYFHvYqnfH_18build_script_build, symObjAddr: 0x14A4, symBinAddr: 0x1000084AC, symSize: 0xC0 }
  - { offset: 0x16A23, size: 0x8, addend: 0x0, symName: __RNvMNtCsaNl6UpbT7bw_4core6resultINtB2_6ResultReNtNtNtB4_3str5error9Utf8ErrorE6expectCs4XYFHvYqnfH_18build_script_build, symObjAddr: 0x1564, symBinAddr: 0x10000856C, symSize: 0x98 }
  - { offset: 0x16A86, size: 0x8, addend: 0x0, symName: __RNvMNtCsaNl6UpbT7bw_4core6resultINtB2_6ResulthNtNtNtB4_3num5error15TryFromIntErrorE6expectCs4XYFHvYqnfH_18build_script_build, symObjAddr: 0x15FC, symBinAddr: 0x100008604, symSize: 0x84 }
  - { offset: 0x16AE8, size: 0x8, addend: 0x0, symName: __RNvMNtCsaNl6UpbT7bw_4core6resultINtB2_6ResultjNtNtNtB4_3num5error13ParseIntErrorE6expectCs4XYFHvYqnfH_18build_script_build, symObjAddr: 0x1680, symBinAddr: 0x100008688, symSize: 0x90 }
  - { offset: 0x16BD5, size: 0x8, addend: 0x0, symName: __RNvMs1_NtNtCsaNl6UpbT7bw_4core3ptr8non_nullINtB5_7NonNullNtCs4XYFHvYqnfH_18build_script_build10VersionCfgE20offset_from_unsignedBV_, symObjAddr: 0x1710, symBinAddr: 0x100008718, symSize: 0x7C }
  - { offset: 0x16CC1, size: 0x8, addend: 0x0, symName: __RNvMs1_NtNtCsaNl6UpbT7bw_4core3ptr8non_nullINtB5_7NonNullhE20offset_from_unsignedCs4XYFHvYqnfH_18build_script_build, symObjAddr: 0x178C, symBinAddr: 0x100008794, symSize: 0x7C }
  - { offset: 0x16E38, size: 0x8, addend: 0x0, symName: __RNvMs2_NtCsiTraAjBDcu4_5alloc7raw_vecNtB5_11RawVecInner16with_capacity_inCs4XYFHvYqnfH_18build_script_build, symObjAddr: 0x1808, symBinAddr: 0x100008810, symSize: 0x110 }
  - { offset: 0x17120, size: 0x8, addend: 0x0, symName: __RNvMsb_NtNtNtCsiTraAjBDcu4_5alloc11collections5btree8navigateINtB5_13LazyLeafRangeNtNtNtB7_4node6marker5DyingNtNtNtCsht3nMU9UgFu_3std3ffi6os_str8OsStringINtNtCsaNl6UpbT7bw_4core6option6OptionB1J_EE10take_frontCs4XYFHvYqnfH_18build_script_build, symObjAddr: 0x1918, symBinAddr: 0x100008920, symSize: 0x1C4 }
  - { offset: 0x17473, size: 0x8, addend: 0x0, symName: __RNvMsc_NtNtNtCsiTraAjBDcu4_5alloc11collections5btree8navigateINtB5_13LazyLeafRangeNtNtNtB7_4node6marker5DyingNtNtNtCsht3nMU9UgFu_3std3ffi6os_str8OsStringINtNtCsaNl6UpbT7bw_4core6option6OptionB1J_EE10init_frontCs4XYFHvYqnfH_18build_script_build, symObjAddr: 0x1ADC, symBinAddr: 0x100008AE4, symSize: 0x1C8 }
  - { offset: 0x18381, size: 0x8, addend: 0x0, symName: __RINvMNtCsaNl6UpbT7bw_4core3stre16trim_end_matchescECs4XYFHvYqnfH_18build_script_build, symObjAddr: 0x0, symBinAddr: 0x10000ADD8, symSize: 0xF0 }
  - { offset: 0x187D1, size: 0x8, addend: 0x0, symName: __RINvMNtCsaNl6UpbT7bw_4core3stre16trim_end_matchescECs4XYFHvYqnfH_18build_script_build, symObjAddr: 0x0, symBinAddr: 0x10000ADD8, symSize: 0xF0 }
  - { offset: 0x18955, size: 0x8, addend: 0x0, symName: __RINvMNtCsaNl6UpbT7bw_4core3stre18trim_start_matchesNvMNtNtB5_4char7methodsc13is_whitespaceECs4XYFHvYqnfH_18build_script_build, symObjAddr: 0xF0, symBinAddr: 0x10000AEC8, symSize: 0xE0 }
  - { offset: 0x18B35, size: 0x8, addend: 0x0, symName: __RINvMNtCsaNl6UpbT7bw_4core3stre18trim_start_matchescECs4XYFHvYqnfH_18build_script_build, symObjAddr: 0x1D0, symBinAddr: 0x10000AFA8, symSize: 0xF4 }
  - { offset: 0x18CC5, size: 0x8, addend: 0x0, symName: __RINvMNtCsaNl6UpbT7bw_4core3stre5parsejECs4XYFHvYqnfH_18build_script_build, symObjAddr: 0x2C4, symBinAddr: 0x10000B09C, symSize: 0x28 }
  - { offset: 0x18CFC, size: 0x8, addend: 0x0, symName: __RINvMNtCsaNl6UpbT7bw_4core3stre5splitNCNvCs4XYFHvYqnfH_18build_script_build13rustc_version0EBD_, symObjAddr: 0x2EC, symBinAddr: 0x10000B0C4, symSize: 0x80 }
  - { offset: 0x18D42, size: 0x8, addend: 0x0, symName: __RINvMNtCsaNl6UpbT7bw_4core3stre5splitReECs4XYFHvYqnfH_18build_script_build, symObjAddr: 0x36C, symBinAddr: 0x10000B144, symSize: 0xA4 }
  - { offset: 0x18D88, size: 0x8, addend: 0x0, symName: __RINvMNtCsaNl6UpbT7bw_4core3stre5splitcECs4XYFHvYqnfH_18build_script_build, symObjAddr: 0x410, symBinAddr: 0x10000B1E8, symSize: 0x98 }
  - { offset: 0x18DCE, size: 0x8, addend: 0x0, symName: __RINvMNtCsaNl6UpbT7bw_4core3stre8containsReECs4XYFHvYqnfH_18build_script_build, symObjAddr: 0x4A8, symBinAddr: 0x10000B280, symSize: 0x4C }
  - { offset: 0x18EE9, size: 0x8, addend: 0x0, symName: __RNvMNtCsaNl6UpbT7bw_4core3stre10trim_startCs4XYFHvYqnfH_18build_script_build, symObjAddr: 0x1480, symBinAddr: 0x10000C258, symSize: 0x28 }
  - { offset: 0x18F4B, size: 0x8, addend: 0x0, symName: __RNvMNtCsaNl6UpbT7bw_4core3stre16split_whitespaceCs4XYFHvYqnfH_18build_script_build, symObjAddr: 0x14A8, symBinAddr: 0x10000C280, symSize: 0xCC }
  - { offset: 0x19001, size: 0x8, addend: 0x0, symName: __RNvMNtCsaNl6UpbT7bw_4core3stre5charsCs4XYFHvYqnfH_18build_script_build, symObjAddr: 0x1574, symBinAddr: 0x10000C34C, symSize: 0x20 }
  - { offset: 0x190A3, size: 0x8, addend: 0x0, symName: __RNvMNtCsaNl6UpbT7bw_4core3stre5linesCs4XYFHvYqnfH_18build_script_build, symObjAddr: 0x1594, symBinAddr: 0x10000C36C, symSize: 0xC4 }
  - { offset: 0x19133, size: 0x8, addend: 0x0, symName: __RNvMNtCsaNl6UpbT7bw_4core3stre8is_emptyCs4XYFHvYqnfH_18build_script_build, symObjAddr: 0x1658, symBinAddr: 0x10000C430, symSize: 0x1C }
  - { offset: 0x19820, size: 0x8, addend: 0x0, symName: __RNCNvMsp_NtNtCsaNl6UpbT7bw_4core3str4iterINtB7_20MatchIndicesInternalcE4next0Cs4XYFHvYqnfH_18build_script_build, symObjAddr: 0x1378, symBinAddr: 0x10000C150, symSize: 0xA8 }
  - { offset: 0x19C84, size: 0x8, addend: 0x0, symName: __RNvXs3_NtNtCsaNl6UpbT7bw_4core3str4iterNtB5_11CharIndicesNtNtNtNtB9_4iter6traits8iterator8Iterator4nextCs4XYFHvYqnfH_18build_script_build, symObjAddr: 0x24B8, symBinAddr: 0x10000D290, symSize: 0x130 }
  - { offset: 0x19E0C, size: 0x8, addend: 0x0, symName: __RNvXsH_NtNtCsaNl6UpbT7bw_4core3str4iterINtB5_14SplitInclusivecENtNtNtNtB9_4iter6traits8iterator8Iterator4nextCs4XYFHvYqnfH_18build_script_build, symObjAddr: 0x264C, symBinAddr: 0x10000D424, symSize: 0x24 }
  - { offset: 0x19E49, size: 0x8, addend: 0x0, symName: __RNvXsX_NtNtCsaNl6UpbT7bw_4core3str4iterINtB5_5SplitNCNvCs4XYFHvYqnfH_18build_script_build13rustc_version0ENtNtNtNtB9_4iter6traits8iterator8Iterator4nextBR_, symObjAddr: 0x2670, symBinAddr: 0x10000D448, symSize: 0x24 }
  - { offset: 0x19E80, size: 0x8, addend: 0x0, symName: __RNvXsX_NtNtCsaNl6UpbT7bw_4core3str4iterINtB5_5SplitNtB7_12IsWhitespaceENtNtNtNtB9_4iter6traits8iterator8Iterator4nextCs4XYFHvYqnfH_18build_script_build, symObjAddr: 0x2694, symBinAddr: 0x10000D46C, symSize: 0x24 }
  - { offset: 0x19EB7, size: 0x8, addend: 0x0, symName: __RNvXsX_NtNtCsaNl6UpbT7bw_4core3str4iterINtB5_5SplitReENtNtNtNtB9_4iter6traits8iterator8Iterator4nextCs4XYFHvYqnfH_18build_script_build, symObjAddr: 0x26B8, symBinAddr: 0x10000D490, symSize: 0x24 }
  - { offset: 0x19EEE, size: 0x8, addend: 0x0, symName: __RNvXsX_NtNtCsaNl6UpbT7bw_4core3str4iterINtB5_5SplitcENtNtNtNtB9_4iter6traits8iterator8Iterator4nextCs4XYFHvYqnfH_18build_script_build, symObjAddr: 0x26DC, symBinAddr: 0x10000D4B4, symSize: 0x24 }
  - { offset: 0x19F2B, size: 0x8, addend: 0x0, symName: __RNvXss_NtNtCsaNl6UpbT7bw_4core3str4iterNtB5_5LinesNtNtNtNtB9_4iter6traits8iterator8Iterator4nextCs4XYFHvYqnfH_18build_script_build, symObjAddr: 0x2760, symBinAddr: 0x10000D538, symSize: 0x24 }
  - { offset: 0x19F59, size: 0x8, addend: 0x0, symName: __RNvXss_NtNtCsaNl6UpbT7bw_4core3str4iterNtB5_5LinesNtNtNtNtB9_4iter6traits8iterator8Iterator9size_hintCs4XYFHvYqnfH_18build_script_build, symObjAddr: 0x2784, symBinAddr: 0x10000D55C, symSize: 0x34 }
  - { offset: 0x19FB7, size: 0x8, addend: 0x0, symName: __RNvXsz_NtNtCsaNl6UpbT7bw_4core3str4iterNtB5_15SplitWhitespaceNtNtNtNtB9_4iter6traits8iterator8Iterator4nextCs4XYFHvYqnfH_18build_script_build, symObjAddr: 0x27B8, symBinAddr: 0x10000D590, symSize: 0x30 }
  - { offset: 0x1A319, size: 0x8, addend: 0x0, symName: __RNvXs3_NtNtCsaNl6UpbT7bw_4core3str7patternNtB7_12IsWhitespaceNtB5_11MultiCharEq7matchesCs4XYFHvYqnfH_18build_script_build, symObjAddr: 0x25E8, symBinAddr: 0x10000D3C0, symSize: 0x28 }
  - { offset: 0x1A3D2, size: 0x8, addend: 0x0, symName: __RNvXs3_NtCsaNl6UpbT7bw_4core3strNtB5_8LinesMapINtNtNtB7_3ops8function2FnTReEE4callCs4XYFHvYqnfH_18build_script_build, symObjAddr: 0x2344, symBinAddr: 0x10000D11C, symSize: 0x174 }
  - { offset: 0x1A4FD, size: 0x8, addend: 0x0, symName: __RNvXs4_NtCsaNl6UpbT7bw_4core3strNtB5_8LinesMapINtNtNtB7_3ops8function5FnMutTReEE8call_mutCs4XYFHvYqnfH_18build_script_build, symObjAddr: 0x2610, symBinAddr: 0x10000D3E8, symSize: 0x3C }
  - { offset: 0x1A586, size: 0x8, addend: 0x0, symName: __RNvXsg_NtCsaNl6UpbT7bw_4core3strNtB5_12IsWhitespaceINtNtNtB7_3ops8function5FnMutTcEE8call_mutCs4XYFHvYqnfH_18build_script_build, symObjAddr: 0x2710, symBinAddr: 0x10000D4E8, symSize: 0x2C }
  - { offset: 0x1A634, size: 0x8, addend: 0x0, symName: __RNvXsm_NtCsaNl6UpbT7bw_4core3strNtB5_10IsNotEmptyINtNtNtB7_3ops8function5FnMutTRReEE8call_mutCs4XYFHvYqnfH_18build_script_build, symObjAddr: 0x273C, symBinAddr: 0x10000D514, symSize: 0x24 }
  - { offset: 0x1A921, size: 0x8, addend: 0x0, symName: __RNvXs1_NtNtNtCsaNl6UpbT7bw_4core3ops8function5implsQNtNtBb_3str10IsNotEmptyINtB7_5FnMutTRReEE8call_mutCs4XYFHvYqnfH_18build_script_build, symObjAddr: 0x22C4, symBinAddr: 0x10000D09C, symSize: 0x30 }
  - { offset: 0x1BCC4, size: 0x8, addend: 0x0, symName: __RNvXs0_NtNtNtCsaNl6UpbT7bw_4core4iter8adapters10filter_mapINtB5_9FilterMapNtNtNtBb_3str4iter5LinesNCNvCs4XYFHvYqnfH_18build_script_build34parse_version_cfgs_from_cargo_toml0ENtNtNtB9_6traits8iterator8Iterator4nextB1C_, symObjAddr: 0x224C, symBinAddr: 0x10000D024, symSize: 0x2C }
  - { offset: 0x1BD0B, size: 0x8, addend: 0x0, symName: __RNvXs0_NtNtNtCsaNl6UpbT7bw_4core4iter8adapters10filter_mapINtB5_9FilterMapNtNtNtBb_3str4iter5LinesNCNvCs4XYFHvYqnfH_18build_script_build34parse_version_cfgs_from_cargo_toml0ENtNtNtB9_6traits8iterator8Iterator9size_hintB1C_, symObjAddr: 0x2278, symBinAddr: 0x10000D050, symSize: 0x4C }
  - { offset: 0x1BE5F, size: 0x8, addend: 0x0, symName: __RINvYINtNtNtCsaNl6UpbT7bw_4core3str4iter5SplitNtB8_12IsWhitespaceENtNtNtNtBa_4iter6traits8iterator8Iterator4findQNtB8_10IsNotEmptyECs4XYFHvYqnfH_18build_script_build, symObjAddr: 0xD6C, symBinAddr: 0x10000BB44, symSize: 0x8C }
  - { offset: 0x1BEDA, size: 0x8, addend: 0x0, symName: __RINvYINtNtNtCsaNl6UpbT7bw_4core3str4iter5SplitNtB8_12IsWhitespaceENtNtNtNtBa_4iter6traits8iterator8Iterator8try_folduNCINvNvB12_4find5checkReQNtB8_10IsNotEmptyE0INtNtNtBa_3ops12control_flow11ControlFlowB2d_EECs4XYFHvYqnfH_18build_script_build, symObjAddr: 0xDF8, symBinAddr: 0x10000BBD0, symSize: 0x194 }
  - { offset: 0x1BF90, size: 0x8, addend: 0x0, symName: __RINvYINtNtNtNtCsaNl6UpbT7bw_4core4iter8adapters10filter_map9FilterMapNtNtNtBc_3str4iter5LinesNCNvCs4XYFHvYqnfH_18build_script_build34parse_version_cfgs_from_cargo_toml0ENtNtNtBa_6traits8iterator8Iterator7collectINtNtCsiTraAjBDcu4_5alloc3vec3VecNtB1x_10VersionCfgEEB1x_, symObjAddr: 0xF8C, symBinAddr: 0x10000BD64, symSize: 0x74 }
  - { offset: 0x1C026, size: 0x8, addend: 0x0, symName: __RINvYNtNtNtCsaNl6UpbT7bw_4core3str4iter5LinesNtNtNtNtB9_4iter6traits8iterator8Iterator10filter_mapNtCs4XYFHvYqnfH_18build_script_build10VersionCfgNCNvB1A_34parse_version_cfgs_from_cargo_toml0EB1A_, symObjAddr: 0x1000, symBinAddr: 0x10000BDD8, symSize: 0x30 }
  - { offset: 0x1C094, size: 0x8, addend: 0x0, symName: __RINvYNtNtNtCsaNl6UpbT7bw_4core3str4iter5LinesNtNtNtNtB9_4iter6traits8iterator8Iterator8find_mapNtCs4XYFHvYqnfH_18build_script_build10VersionCfgQNCNvB1x_34parse_version_cfgs_from_cargo_toml0EB1x_, symObjAddr: 0x1030, symBinAddr: 0x10000BE08, symSize: 0xB0 }
  - { offset: 0x1C118, size: 0x8, addend: 0x0, symName: __RINvYNtNtNtCsaNl6UpbT7bw_4core3str4iter5LinesNtNtNtNtB9_4iter6traits8iterator8Iterator8try_folduNCINvNvBH_8find_map5checkReNtCs4XYFHvYqnfH_18build_script_build10VersionCfgQNCNvB1Z_34parse_version_cfgs_from_cargo_toml0E0INtNtNtB9_3ops12control_flow11ControlFlowB1X_EEB1Z_, symObjAddr: 0x10E0, symBinAddr: 0x10000BEB8, symSize: 0x15C }
  - { offset: 0x1C1DE, size: 0x8, addend: 0x0, symName: __RNCINvNvNtNtNtNtCsaNl6UpbT7bw_4core4iter6traits8iterator8Iterator4find5checkReQNtNtBe_3str10IsNotEmptyE0Cs4XYFHvYqnfH_18build_script_build, symObjAddr: 0x123C, symBinAddr: 0x10000C014, symSize: 0x84 }
  - { offset: 0x1C259, size: 0x8, addend: 0x0, symName: __RNCINvNvNtNtNtNtCsaNl6UpbT7bw_4core4iter6traits8iterator8Iterator8find_map5checkReNtCs4XYFHvYqnfH_18build_script_build10VersionCfgQNCNvB1k_34parse_version_cfgs_from_cargo_toml0E0B1k_, symObjAddr: 0x12C0, symBinAddr: 0x10000C098, symSize: 0x90 }
  - { offset: 0x1C2FC, size: 0x8, addend: 0x0, symName: __RNCINvNvNtNtNtNtCsaNl6UpbT7bw_4core4iter6traits8iterator8Iterator8for_each4callhNCINvMsi_NtCsiTraAjBDcu4_5alloc3vecINtB1p_3VechE14extend_trustedINtNtNtBc_8adapters3map3MapINtNtNtBe_5slice4iter4IterhENCNvNtB1r_3str13replace_ascii0EE0E0Cs4XYFHvYqnfH_18build_script_build, symObjAddr: 0x1350, symBinAddr: 0x10000C128, symSize: 0x28 }
  - { offset: 0x1C3FF, size: 0x8, addend: 0x0, symName: __RNvXNtNtNtCsaNl6UpbT7bw_4core4iter6traits7collectINtNtNtB6_8adapters10filter_map9FilterMapNtNtNtB8_3str4iter5LinesNCNvCs4XYFHvYqnfH_18build_script_build34parse_version_cfgs_from_cargo_toml0ENtB2_12IntoIterator9into_iterB1S_, symObjAddr: 0x21AC, symBinAddr: 0x10000CF84, symSize: 0x30 }
  - { offset: 0x1CFEE, size: 0x8, addend: 0x0, symName: __RNvXsZ_NtCsht3nMU9UgFu_3std7processuNtB5_11Termination6reportCs4XYFHvYqnfH_18build_script_build, symObjAddr: 0x2700, symBinAddr: 0x10000D4D8, symSize: 0x10 }
  - { offset: 0x1D09D, size: 0x8, addend: 0x0, symName: __RINvNtCsht3nMU9UgFu_3std2fs14read_to_stringReECs4XYFHvYqnfH_18build_script_build, symObjAddr: 0xD04, symBinAddr: 0x10000BADC, symSize: 0x68 }
  - { offset: 0x1D184, size: 0x8, addend: 0x0, symName: __RINvMs3_NtCsiTraAjBDcu4_5alloc3stre7replacecECs4XYFHvYqnfH_18build_script_build, symObjAddr: 0x4F4, symBinAddr: 0x10000B2CC, symSize: 0x710 }
  - { offset: 0x1DCF0, size: 0x8, addend: 0x0, symName: __RNCNvNtCsiTraAjBDcu4_5alloc3str13replace_ascii0Cs4XYFHvYqnfH_18build_script_build, symObjAddr: 0x1420, symBinAddr: 0x10000C1F8, symSize: 0x60 }
  - { offset: 0x1DD4A, size: 0x8, addend: 0x0, symName: __RNvXs2_NtCsiTraAjBDcu4_5alloc3streNtNtB7_6borrow7ToOwned8to_ownedCs4XYFHvYqnfH_18build_script_build, symObjAddr: 0x22F4, symBinAddr: 0x10000D0CC, symSize: 0x50 }
  - { offset: 0x1E188, size: 0x8, addend: 0x0, symName: __RNvXs0_NtNtCsiTraAjBDcu4_5alloc3ffi5c_strNtB5_7CStringNtNtNtCsaNl6UpbT7bw_4core3ops4drop4Drop4dropCs4XYFHvYqnfH_18build_script_build, symObjAddr: 0x21DC, symBinAddr: 0x10000CFB4, symSize: 0x70 }
  - { offset: 0x1E910, size: 0x8, addend: 0x0, symName: __RINvMsk_NtCsht3nMU9UgFu_3std7processNtB6_7Command3argReECs4XYFHvYqnfH_18build_script_build, symObjAddr: 0xC04, symBinAddr: 0x10000B9DC, symSize: 0x70 }
  - { offset: 0x1E94B, size: 0x8, addend: 0x0, symName: __RINvMsk_NtCsht3nMU9UgFu_3std7processNtB6_7Command3newNtNtNtB8_3ffi6os_str8OsStringECs4XYFHvYqnfH_18build_script_build, symObjAddr: 0xC74, symBinAddr: 0x10000BA4C, symSize: 0x90 }
  - { offset: 0x1ECC3, size: 0x8, addend: 0x0, symName: __RNvMsI_NtCsht3nMU9UgFu_3std7processNtB5_10ExitStatus7successCs4XYFHvYqnfH_18build_script_build, symObjAddr: 0x1674, symBinAddr: 0x10000C44C, symSize: 0x70 }
  - { offset: 0x1EDA7, size: 0x8, addend: 0x0, symName: __RNvMsf_NtNtCsaNl6UpbT7bw_4core3str4iterINtB5_13SplitInternalNCNvCs4XYFHvYqnfH_18build_script_build13rustc_version0E4nextB10_, symObjAddr: 0x16E4, symBinAddr: 0x10000C4BC, symSize: 0x140 }
  - { offset: 0x1EEE3, size: 0x8, addend: 0x0, symName: __RNvMsf_NtNtCsaNl6UpbT7bw_4core3str4iterINtB5_13SplitInternalNCNvCs4XYFHvYqnfH_18build_script_build13rustc_version0E7get_endB10_, symObjAddr: 0x1824, symBinAddr: 0x10000C5FC, symSize: 0x128 }
  - { offset: 0x1EFEE, size: 0x8, addend: 0x0, symName: __RNvMsf_NtNtCsaNl6UpbT7bw_4core3str4iterINtB5_13SplitInternalNtB7_12IsWhitespaceE4nextCs4XYFHvYqnfH_18build_script_build, symObjAddr: 0x194C, symBinAddr: 0x10000C724, symSize: 0x140 }
  - { offset: 0x1F12A, size: 0x8, addend: 0x0, symName: __RNvMsf_NtNtCsaNl6UpbT7bw_4core3str4iterINtB5_13SplitInternalNtB7_12IsWhitespaceE7get_endCs4XYFHvYqnfH_18build_script_build, symObjAddr: 0x1A8C, symBinAddr: 0x10000C864, symSize: 0x128 }
  - { offset: 0x1F235, size: 0x8, addend: 0x0, symName: __RNvMsf_NtNtCsaNl6UpbT7bw_4core3str4iterINtB5_13SplitInternalReE4nextCs4XYFHvYqnfH_18build_script_build, symObjAddr: 0x1BB4, symBinAddr: 0x10000C98C, symSize: 0x13C }
  - { offset: 0x1F371, size: 0x8, addend: 0x0, symName: __RNvMsf_NtNtCsaNl6UpbT7bw_4core3str4iterINtB5_13SplitInternalReE7get_endCs4XYFHvYqnfH_18build_script_build, symObjAddr: 0x1CF0, symBinAddr: 0x10000CAC8, symSize: 0x124 }
  - { offset: 0x1F47C, size: 0x8, addend: 0x0, symName: __RNvMsf_NtNtCsaNl6UpbT7bw_4core3str4iterINtB5_13SplitInternalcE14next_inclusiveCs4XYFHvYqnfH_18build_script_build, symObjAddr: 0x1E14, symBinAddr: 0x10000CBEC, symSize: 0x130 }
  - { offset: 0x1F5A7, size: 0x8, addend: 0x0, symName: __RNvMsf_NtNtCsaNl6UpbT7bw_4core3str4iterINtB5_13SplitInternalcE4nextCs4XYFHvYqnfH_18build_script_build, symObjAddr: 0x1F44, symBinAddr: 0x10000CD1C, symSize: 0x140 }
  - { offset: 0x1F6E3, size: 0x8, addend: 0x0, symName: __RNvMsf_NtNtCsaNl6UpbT7bw_4core3str4iterINtB5_13SplitInternalcE7get_endCs4XYFHvYqnfH_18build_script_build, symObjAddr: 0x2084, symBinAddr: 0x10000CE5C, symSize: 0x128 }
  - { offset: 0x1FAEA, size: 0x8, addend: 0x0, symName: __RINvMsx_NtNtCsaNl6UpbT7bw_4core3str7patternNtB6_14TwoWaySearcher4nextNtB6_14RejectAndMatchECs4XYFHvYqnfH_18build_script_build, symObjAddr: 0x0, symBinAddr: 0x10000D5C0, symSize: 0x540 }
  - { offset: 0x20E54, size: 0x8, addend: 0x0, symName: __RNvXs0_NtNtCsaNl6UpbT7bw_4core3str7patternNtB5_12CharSearcherNtB5_15ReverseSearcher9next_backCs4XYFHvYqnfH_18build_script_build, symObjAddr: 0xA80, symBinAddr: 0x10000E040, symSize: 0x1E4 }
  - { offset: 0x21116, size: 0x8, addend: 0x0, symName: __RNvXs2_NtNtCsaNl6UpbT7bw_4core3str7patterncNtB5_7Pattern13into_searcherCs4XYFHvYqnfH_18build_script_build, symObjAddr: 0xC64, symBinAddr: 0x10000E224, symSize: 0x114 }
  - { offset: 0x2122E, size: 0x8, addend: 0x0, symName: __RNvXs2_NtNtCsaNl6UpbT7bw_4core3str7patterncNtB5_7Pattern15as_utf8_patternCs4XYFHvYqnfH_18build_script_build, symObjAddr: 0xD78, symBinAddr: 0x10000E338, symSize: 0x34 }
  - { offset: 0x21262, size: 0x8, addend: 0x0, symName: __RNvXs7_NtNtCsaNl6UpbT7bw_4core3str7patternINtB5_18MultiCharEqPatternNCNvCs4XYFHvYqnfH_18build_script_build13rustc_version0ENtB5_7Pattern13into_searcherB18_, symObjAddr: 0xDAC, symBinAddr: 0x10000E36C, symSize: 0x90 }
  - { offset: 0x212BE, size: 0x8, addend: 0x0, symName: __RNvXs7_NtNtCsaNl6UpbT7bw_4core3str7patternINtB5_18MultiCharEqPatternNtB7_12IsWhitespaceENtB5_7Pattern13into_searcherCs4XYFHvYqnfH_18build_script_build, symObjAddr: 0xE3C, symBinAddr: 0x10000E3FC, symSize: 0x90 }
  - { offset: 0x2131A, size: 0x8, addend: 0x0, symName: __RNvXs7_NtNtCsaNl6UpbT7bw_4core3str7patternINtB5_18MultiCharEqPatternNvMNtNtB9_4char7methodsc13is_whitespaceENtB5_7Pattern13into_searcherCs4XYFHvYqnfH_18build_script_build, symObjAddr: 0xECC, symBinAddr: 0x10000E48C, symSize: 0x90 }
  - { offset: 0x2137C, size: 0x8, addend: 0x0, symName: __RNvXs8_NtNtCsaNl6UpbT7bw_4core3str7patternINtB5_19MultiCharEqSearcherNCNvCs4XYFHvYqnfH_18build_script_build13rustc_version0ENtB5_8Searcher4nextB19_, symObjAddr: 0xF5C, symBinAddr: 0x10000E51C, symSize: 0x138 }
  - { offset: 0x2149C, size: 0x8, addend: 0x0, symName: __RNvXs8_NtNtCsaNl6UpbT7bw_4core3str7patternINtB5_19MultiCharEqSearcherNtB7_12IsWhitespaceENtB5_8Searcher4nextCs4XYFHvYqnfH_18build_script_build, symObjAddr: 0x1094, symBinAddr: 0x10000E654, symSize: 0x138 }
  - { offset: 0x215BC, size: 0x8, addend: 0x0, symName: __RNvXs8_NtNtCsaNl6UpbT7bw_4core3str7patternINtB5_19MultiCharEqSearcherNvMNtNtB9_4char7methodsc13is_whitespaceENtB5_8Searcher4nextCs4XYFHvYqnfH_18build_script_build, symObjAddr: 0x11CC, symBinAddr: 0x10000E78C, symSize: 0x138 }
  - { offset: 0x2177F, size: 0x8, addend: 0x0, symName: __RNvXs_NtNtCsaNl6UpbT7bw_4core3str7patternNtB4_12CharSearcherNtB4_8Searcher10next_matchCs4XYFHvYqnfH_18build_script_build, symObjAddr: 0x1304, symBinAddr: 0x10000E8C4, symSize: 0x380 }
  - { offset: 0x21BE3, size: 0x8, addend: 0x0, symName: __RNvXs_NtNtCsaNl6UpbT7bw_4core3str7patternNtB4_12CharSearcherNtB4_8Searcher4nextCs4XYFHvYqnfH_18build_script_build, symObjAddr: 0x1684, symBinAddr: 0x10000EC44, symSize: 0x1E4 }
  - { offset: 0x21E9F, size: 0x8, addend: 0x0, symName: __RNvXs_NtNtCsaNl6UpbT7bw_4core3str7patternNtB4_12CharSearcherNtB4_8Searcher8haystackCs4XYFHvYqnfH_18build_script_build, symObjAddr: 0x1868, symBinAddr: 0x10000EE28, symSize: 0x20 }
  - { offset: 0x21ED3, size: 0x8, addend: 0x0, symName: __RNvXso_NtNtCsaNl6UpbT7bw_4core3str7patternINtB5_21CharPredicateSearcherNCNvCs4XYFHvYqnfH_18build_script_build13rustc_version0ENtB5_8Searcher10next_matchB1b_, symObjAddr: 0x1888, symBinAddr: 0x10000EE48, symSize: 0x24 }
  - { offset: 0x21F0A, size: 0x8, addend: 0x0, symName: __RNvXso_NtNtCsaNl6UpbT7bw_4core3str7patternINtB5_21CharPredicateSearcherNCNvCs4XYFHvYqnfH_18build_script_build13rustc_version0ENtB5_8Searcher8haystackB1b_, symObjAddr: 0x18AC, symBinAddr: 0x10000EE6C, symSize: 0x20 }
  - { offset: 0x21F56, size: 0x8, addend: 0x0, symName: __RNvXso_NtNtCsaNl6UpbT7bw_4core3str7patternINtB5_21CharPredicateSearcherNtB7_12IsWhitespaceENtB5_8Searcher10next_matchCs4XYFHvYqnfH_18build_script_build, symObjAddr: 0x18CC, symBinAddr: 0x10000EE8C, symSize: 0x24 }
  - { offset: 0x21F8D, size: 0x8, addend: 0x0, symName: __RNvXso_NtNtCsaNl6UpbT7bw_4core3str7patternINtB5_21CharPredicateSearcherNtB7_12IsWhitespaceENtB5_8Searcher8haystackCs4XYFHvYqnfH_18build_script_build, symObjAddr: 0x18F0, symBinAddr: 0x10000EEB0, symSize: 0x20 }
  - { offset: 0x21FD9, size: 0x8, addend: 0x0, symName: __RNvXso_NtNtCsaNl6UpbT7bw_4core3str7patternINtB5_21CharPredicateSearcherNvMNtNtB9_4char7methodsc13is_whitespaceENtB5_8Searcher11next_rejectCs4XYFHvYqnfH_18build_script_build, symObjAddr: 0x1910, symBinAddr: 0x10000EED0, symSize: 0x24 }
  - { offset: 0x22016, size: 0x8, addend: 0x0, symName: __RNvXst_NtNtCsaNl6UpbT7bw_4core3str7patternReNtB5_7Pattern13into_searcherCs4XYFHvYqnfH_18build_script_build, symObjAddr: 0x1934, symBinAddr: 0x10000EEF4, symSize: 0x4C }
  - { offset: 0x2207D, size: 0x8, addend: 0x0, symName: __RNvXst_NtNtCsaNl6UpbT7bw_4core3str7patternReNtB5_7Pattern15is_contained_inCs4XYFHvYqnfH_18build_script_build, symObjAddr: 0x1980, symBinAddr: 0x10000EF40, symSize: 0x1CC }
  - { offset: 0x2232D, size: 0x8, addend: 0x0, symName: __RNvXst_NtNtCsaNl6UpbT7bw_4core3str7patternReNtB5_7Pattern15strip_suffix_ofCs4XYFHvYqnfH_18build_script_build, symObjAddr: 0x1B4C, symBinAddr: 0x10000F10C, symSize: 0xE8 }
  - { offset: 0x2253A, size: 0x8, addend: 0x0, symName: __RNvXsv_NtNtCsaNl6UpbT7bw_4core3str7patternNtB5_11StrSearcherNtB5_8Searcher10next_matchCs4XYFHvYqnfH_18build_script_build, symObjAddr: 0x1C34, symBinAddr: 0x10000F1F4, symSize: 0x148 }
  - { offset: 0x225C6, size: 0x8, addend: 0x0, symName: __RNvXsv_NtNtCsaNl6UpbT7bw_4core3str7patternNtB5_11StrSearcherNtB5_8Searcher4nextCs4XYFHvYqnfH_18build_script_build, symObjAddr: 0x1D7C, symBinAddr: 0x10000F33C, symSize: 0x454 }
  - { offset: 0x228CB, size: 0x8, addend: 0x0, symName: __RNvXsv_NtNtCsaNl6UpbT7bw_4core3str7patternNtB5_11StrSearcherNtB5_8Searcher8haystackCs4XYFHvYqnfH_18build_script_build, symObjAddr: 0x21D0, symBinAddr: 0x10000F790, symSize: 0x20 }
  - { offset: 0x228FF, size: 0x8, addend: 0x0, symName: __RNvXsy_NtNtCsaNl6UpbT7bw_4core3str7patternNtB5_9MatchOnlyNtB5_14TwoWayStrategy16use_early_rejectCs4XYFHvYqnfH_18build_script_build, symObjAddr: 0x21F0, symBinAddr: 0x10000F7B0, symSize: 0xC }
  - { offset: 0x2291D, size: 0x8, addend: 0x0, symName: __RNvXsy_NtNtCsaNl6UpbT7bw_4core3str7patternNtB5_9MatchOnlyNtB5_14TwoWayStrategy8matchingCs4XYFHvYqnfH_18build_script_build, symObjAddr: 0x21FC, symBinAddr: 0x10000F7BC, symSize: 0x28 }
  - { offset: 0x2295A, size: 0x8, addend: 0x0, symName: __RNvXsy_NtNtCsaNl6UpbT7bw_4core3str7patternNtB5_9MatchOnlyNtB5_14TwoWayStrategy9rejectingCs4XYFHvYqnfH_18build_script_build, symObjAddr: 0x2224, symBinAddr: 0x10000F7E4, symSize: 0x18 }
  - { offset: 0x2299D, size: 0x8, addend: 0x0, symName: __RNvXsz_NtNtCsaNl6UpbT7bw_4core3str7patternNtB5_14RejectAndMatchNtB5_14TwoWayStrategy16use_early_rejectCs4XYFHvYqnfH_18build_script_build, symObjAddr: 0x223C, symBinAddr: 0x10000F7FC, symSize: 0xC }
  - { offset: 0x229BB, size: 0x8, addend: 0x0, symName: __RNvXsz_NtNtCsaNl6UpbT7bw_4core3str7patternNtB5_14RejectAndMatchNtB5_14TwoWayStrategy8matchingCs4XYFHvYqnfH_18build_script_build, symObjAddr: 0x2248, symBinAddr: 0x10000F808, symSize: 0x20 }
  - { offset: 0x229F8, size: 0x8, addend: 0x0, symName: __RNvXsz_NtNtCsaNl6UpbT7bw_4core3str7patternNtB5_14RejectAndMatchNtB5_14TwoWayStrategy9rejectingCs4XYFHvYqnfH_18build_script_build, symObjAddr: 0x2268, symBinAddr: 0x10000F828, symSize: 0x28 }
  - { offset: 0x22A3B, size: 0x8, addend: 0x0, symName: __RNvYINtNtNtCsaNl6UpbT7bw_4core3str7pattern19MultiCharEqSearcherNCNvCs4XYFHvYqnfH_18build_script_build13rustc_version0ENtB5_8Searcher10next_matchB13_, symObjAddr: 0x2290, symBinAddr: 0x10000F850, symSize: 0x90 }
  - { offset: 0x22A9C, size: 0x8, addend: 0x0, symName: __RNvYINtNtNtCsaNl6UpbT7bw_4core3str7pattern19MultiCharEqSearcherNtB7_12IsWhitespaceENtB5_8Searcher10next_matchCs4XYFHvYqnfH_18build_script_build, symObjAddr: 0x2320, symBinAddr: 0x10000F8E0, symSize: 0x90 }
  - { offset: 0x22AFD, size: 0x8, addend: 0x0, symName: __RNvYINtNtNtCsaNl6UpbT7bw_4core3str7pattern19MultiCharEqSearcherNvMNtNtB9_4char7methodsc13is_whitespaceENtB5_8Searcher11next_rejectCs4XYFHvYqnfH_18build_script_build, symObjAddr: 0x23B0, symBinAddr: 0x10000F970, symSize: 0x90 }
  - { offset: 0x22B62, size: 0x8, addend: 0x0, symName: __RNvYNtNtNtCsaNl6UpbT7bw_4core3str7pattern12CharSearcherNtB4_8Searcher11next_rejectCs4XYFHvYqnfH_18build_script_build, symObjAddr: 0x24D0, symBinAddr: 0x10000FA90, symSize: 0x90 }
  - { offset: 0x22BCD, size: 0x8, addend: 0x0, symName: __RNvYNtNtNtCsaNl6UpbT7bw_4core3str7pattern12CharSearcherNtB4_15ReverseSearcher16next_reject_backCs4XYFHvYqnfH_18build_script_build, symObjAddr: 0x2440, symBinAddr: 0x10000FA00, symSize: 0x90 }
  - { offset: 0x237E3, size: 0x8, addend: 0x0, symName: __RINvMsx_NtNtCsaNl6UpbT7bw_4core3str7patternNtB6_14TwoWaySearcher4nextNtB6_14RejectAndMatchECs4XYFHvYqnfH_18build_script_build, symObjAddr: 0x0, symBinAddr: 0x10000D5C0, symSize: 0x540 }
  - { offset: 0x23B7F, size: 0x8, addend: 0x0, symName: __RINvMsx_NtNtCsaNl6UpbT7bw_4core3str7patternNtB6_14TwoWaySearcher4nextNtB6_9MatchOnlyECs4XYFHvYqnfH_18build_script_build, symObjAddr: 0x540, symBinAddr: 0x10000DB00, symSize: 0x540 }
  - { offset: 0x242B8, size: 0x8, addend: 0x0, symName: ___llvm_profile_get_magic, symObjAddr: 0x28, symBinAddr: 0x10000FB38, symSize: 0x14 }
  - { offset: 0x242D9, size: 0x8, addend: 0x0, symName: ___llvm_profile_get_num_padding_bytes, symObjAddr: 0x44, symBinAddr: 0x10000FB4C, symSize: 0xC }
  - { offset: 0x242E1, size: 0x8, addend: 0x0, symName: ___llvm_profile_get_version, symObjAddr: 0x50, symBinAddr: 0x10000FB58, symSize: 0xC }
  - { offset: 0x2430A, size: 0x8, addend: 0x0, symName: ___llvm_profile_get_version, symObjAddr: 0x50, symBinAddr: 0x10000FB58, symSize: 0xC }
  - { offset: 0x2437F, size: 0x8, addend: 0x0, symName: ___llvm_profile_is_continuous_mode_enabled, symObjAddr: 0x0, symBinAddr: 0x10000FB64, symSize: 0x20 }
  - { offset: 0x2439C, size: 0x8, addend: 0x0, symName: __MergedGlobals, symObjAddr: 0x3E20, symBinAddr: 0x10006D198, symSize: 0x0 }
  - { offset: 0x243BE, size: 0x8, addend: 0x0, symName: __MergedGlobals, symObjAddr: 0x3E20, symBinAddr: 0x10006D198, symSize: 0x0 }
  - { offset: 0x243EE, size: 0x8, addend: 0x0, symName: ___llvm_profile_is_continuous_mode_enabled, symObjAddr: 0x0, symBinAddr: 0x10000FB64, symSize: 0x20 }
  - { offset: 0x243F6, size: 0x8, addend: 0x0, symName: ___llvm_profile_enable_continuous_mode, symObjAddr: 0x20, symBinAddr: 0x10000FB84, symSize: 0x10 }
  - { offset: 0x24406, size: 0x8, addend: 0x0, symName: ___llvm_profile_enable_continuous_mode, symObjAddr: 0x20, symBinAddr: 0x10000FB84, symSize: 0x10 }
  - { offset: 0x2440E, size: 0x8, addend: 0x0, symName: ___llvm_profile_disable_continuous_mode, symObjAddr: 0x30, symBinAddr: 0x10000FB94, symSize: 0xC }
  - { offset: 0x24423, size: 0x8, addend: 0x0, symName: ___llvm_profile_disable_continuous_mode, symObjAddr: 0x30, symBinAddr: 0x10000FB94, symSize: 0xC }
  - { offset: 0x2442B, size: 0x8, addend: 0x0, symName: ___llvm_profile_set_page_size, symObjAddr: 0x3C, symBinAddr: 0x10000FBA0, symSize: 0xC }
  - { offset: 0x24440, size: 0x8, addend: 0x0, symName: ___llvm_profile_set_page_size, symObjAddr: 0x3C, symBinAddr: 0x10000FBA0, symSize: 0xC }
  - { offset: 0x24448, size: 0x8, addend: 0x0, symName: ___llvm_profile_get_size_for_buffer, symObjAddr: 0x48, symBinAddr: 0x10000FBAC, symSize: 0xC4 }
  - { offset: 0x2446B, size: 0x8, addend: 0x0, symName: ___llvm_profile_get_size_for_buffer, symObjAddr: 0x48, symBinAddr: 0x10000FBAC, symSize: 0xC4 }
  - { offset: 0x24473, size: 0x8, addend: 0x0, symName: ___llvm_profile_get_size_for_buffer_internal, symObjAddr: 0x10C, symBinAddr: 0x10000FC70, symSize: 0x1C0 }
  - { offset: 0x248D6, size: 0x8, addend: 0x0, symName: ___llvm_profile_get_size_for_buffer_internal, symObjAddr: 0x10C, symBinAddr: 0x10000FC70, symSize: 0x1C0 }
  - { offset: 0x248DE, size: 0x8, addend: 0x0, symName: ___llvm_profile_get_num_data, symObjAddr: 0x2CC, symBinAddr: 0x10000FE30, symSize: 0x10 }
  - { offset: 0x24CCD, size: 0x8, addend: 0x0, symName: ___llvm_profile_get_num_data, symObjAddr: 0x2CC, symBinAddr: 0x10000FE30, symSize: 0x10 }
  - { offset: 0x24CD5, size: 0x8, addend: 0x0, symName: ___llvm_profile_get_data_size, symObjAddr: 0x2DC, symBinAddr: 0x10000FE40, symSize: 0x10 }
  - { offset: 0x24D06, size: 0x8, addend: 0x0, symName: ___llvm_profile_get_data_size, symObjAddr: 0x2DC, symBinAddr: 0x10000FE40, symSize: 0x10 }
  - { offset: 0x24D0E, size: 0x8, addend: 0x0, symName: ___llvm_profile_get_num_vtable, symObjAddr: 0x2EC, symBinAddr: 0x10000FE50, symSize: 0x18 }
  - { offset: 0x24D32, size: 0x8, addend: 0x0, symName: ___llvm_profile_get_data_size, symObjAddr: 0x2DC, symBinAddr: 0x10000FE40, symSize: 0x10 }
  - { offset: 0x24D64, size: 0x8, addend: 0x0, symName: ___llvm_profile_get_num_vtable, symObjAddr: 0x2EC, symBinAddr: 0x10000FE50, symSize: 0x18 }
  - { offset: 0x24D6C, size: 0x8, addend: 0x0, symName: ___llvm_profile_get_vtable_section_size, symObjAddr: 0x304, symBinAddr: 0x10000FE68, symSize: 0x8 }
  - { offset: 0x24DBE, size: 0x8, addend: 0x0, symName: ___llvm_profile_get_vtable_section_size, symObjAddr: 0x304, symBinAddr: 0x10000FE68, symSize: 0x8 }
  - { offset: 0x24DC6, size: 0x8, addend: 0x0, symName: ___llvm_profile_counter_entry_size, symObjAddr: 0x30C, symBinAddr: 0x10000FE70, symSize: 0x1C }
  - { offset: 0x24DE7, size: 0x8, addend: 0x0, symName: ___llvm_profile_counter_entry_size, symObjAddr: 0x30C, symBinAddr: 0x10000FE70, symSize: 0x1C }
  - { offset: 0x24DEF, size: 0x8, addend: 0x0, symName: ___llvm_profile_get_num_counters, symObjAddr: 0x328, symBinAddr: 0x10000FE8C, symSize: 0x48 }
  - { offset: 0x24DFF, size: 0x8, addend: 0x0, symName: ___llvm_profile_get_num_counters, symObjAddr: 0x328, symBinAddr: 0x10000FE8C, symSize: 0x48 }
  - { offset: 0x24E07, size: 0x8, addend: 0x0, symName: ___llvm_profile_get_counters_size, symObjAddr: 0x370, symBinAddr: 0x10000FED4, symSize: 0x5C }
  - { offset: 0x24E6C, size: 0x8, addend: 0x0, symName: ___llvm_profile_get_counters_size, symObjAddr: 0x370, symBinAddr: 0x10000FED4, symSize: 0x5C }
  - { offset: 0x24E74, size: 0x8, addend: 0x0, symName: ___llvm_profile_get_num_bitmap_bytes, symObjAddr: 0x3CC, symBinAddr: 0x10000FF30, symSize: 0x8 }
  - { offset: 0x24F18, size: 0x8, addend: 0x0, symName: ___llvm_profile_get_num_bitmap_bytes, symObjAddr: 0x3CC, symBinAddr: 0x10000FF30, symSize: 0x8 }
  - { offset: 0x24F20, size: 0x8, addend: 0x0, symName: ___llvm_profile_get_name_size, symObjAddr: 0x3D4, symBinAddr: 0x10000FF38, symSize: 0x8 }
  - { offset: 0x24F41, size: 0x8, addend: 0x0, symName: ___llvm_profile_get_name_size, symObjAddr: 0x3D4, symBinAddr: 0x10000FF38, symSize: 0x8 }
  - { offset: 0x24F49, size: 0x8, addend: 0x0, symName: ___llvm_profile_get_padding_sizes_for_counters, symObjAddr: 0x3DC, symBinAddr: 0x10000FF40, symSize: 0x15C }
  - { offset: 0x24F6A, size: 0x8, addend: 0x0, symName: ___llvm_profile_get_padding_sizes_for_counters, symObjAddr: 0x3DC, symBinAddr: 0x10000FF40, symSize: 0x15C }
  - { offset: 0x24F72, size: 0x8, addend: 0x0, symName: _initBufferWriter, symObjAddr: 0x538, symBinAddr: 0x10001009C, symSize: 0x10 }
  - { offset: 0x250C6, size: 0x8, addend: 0x0, symName: _initBufferWriter, symObjAddr: 0x538, symBinAddr: 0x10001009C, symSize: 0x10 }
  - { offset: 0x25230, size: 0x8, addend: 0x0, symName: __MergedGlobals, symObjAddr: 0xA4D8, symBinAddr: 0x10006D1A8, symSize: 0x0 }
  - { offset: 0x2534C, size: 0x8, addend: 0x0, symName: __MergedGlobals, symObjAddr: 0xA4D8, symBinAddr: 0x10006D1A8, symSize: 0x0 }
  - { offset: 0x2557D, size: 0x8, addend: 0x0, symName: __MergedGlobals, symObjAddr: 0xA4D8, symBinAddr: 0x10006D1A8, symSize: 0x0 }
  - { offset: 0x256A4, size: 0x8, addend: 0x0, symName: _getCurFilenameLength, symObjAddr: 0x1C8, symBinAddr: 0x1000100AC, symSize: 0x108 }
  - { offset: 0x256AC, size: 0x8, addend: 0x0, symName: _getCurFilename, symObjAddr: 0x2D0, symBinAddr: 0x1000101B4, symSize: 0x2B8 }
  - { offset: 0x2572F, size: 0x8, addend: 0x0, symName: _getCurFilename, symObjAddr: 0x2D0, symBinAddr: 0x1000101B4, symSize: 0x2B8 }
  - { offset: 0x25960, size: 0x8, addend: 0x0, symName: _parseAndSetFilename, symObjAddr: 0x688, symBinAddr: 0x10001046C, symSize: 0x4B8 }
  - { offset: 0x25968, size: 0x8, addend: 0x0, symName: ___llvm_profile_initialize, symObjAddr: 0xB40, symBinAddr: 0x100010924, symSize: 0xB8 }
  - { offset: 0x25B50, size: 0x8, addend: 0x0, symName: ___llvm_profile_initialize, symObjAddr: 0xB40, symBinAddr: 0x100010924, symSize: 0xB8 }
  - { offset: 0x25BCC, size: 0x8, addend: 0x0, symName: ___llvm_profile_write_file, symObjAddr: 0xC74, symBinAddr: 0x1000109DC, symSize: 0x1B4 }
  - { offset: 0x25BD4, size: 0x8, addend: 0x0, symName: _writeFile, symObjAddr: 0xE28, symBinAddr: 0x100010B90, symSize: 0x294 }
  - { offset: 0x25D2F, size: 0x8, addend: 0x0, symName: _writeFile, symObjAddr: 0xE28, symBinAddr: 0x100010B90, symSize: 0x294 }
  - { offset: 0x25EA3, size: 0x8, addend: 0x0, symName: _writeFileWithoutReturn, symObjAddr: 0x138C, symBinAddr: 0x100010E24, symSize: 0x4 }
  - { offset: 0x25EDA, size: 0x8, addend: 0x0, symName: _getProfileFileSizeForMerging, symObjAddr: 0x1574, symBinAddr: 0x100010E28, symSize: 0x110 }
  - { offset: 0x25EE2, size: 0x8, addend: 0x0, symName: _mmapProfileForMerging, symObjAddr: 0x1684, symBinAddr: 0x100010F38, symSize: 0xBC }
  - { offset: 0x25F1F, size: 0x8, addend: 0x0, symName: _mmapProfileForMerging, symObjAddr: 0x1684, symBinAddr: 0x100010F38, symSize: 0xBC }
  - { offset: 0x25F27, size: 0x8, addend: 0x0, symName: _mmapForContinuousMode, symObjAddr: 0x1740, symBinAddr: 0x100010FF4, symSize: 0x264 }
  - { offset: 0x25F75, size: 0x8, addend: 0x0, symName: _mmapForContinuousMode, symObjAddr: 0x1740, symBinAddr: 0x100010FF4, symSize: 0x264 }
  - { offset: 0x25F7D, size: 0x8, addend: 0x0, symName: _fileWriter, symObjAddr: 0x19A4, symBinAddr: 0x100011258, symSize: 0x140 }
  - { offset: 0x2613C, size: 0x8, addend: 0x0, symName: _fileWriter, symObjAddr: 0x19A4, symBinAddr: 0x100011258, symSize: 0x140 }
  - { offset: 0x26144, size: 0x8, addend: 0x0, symName: _truncateCurrentFile, symObjAddr: 0x1AE4, symBinAddr: 0x100011398, symSize: 0xD8 }
  - { offset: 0x2620C, size: 0x8, addend: 0x0, symName: _truncateCurrentFile, symObjAddr: 0x1AE4, symBinAddr: 0x100011398, symSize: 0xD8 }
  - { offset: 0x26214, size: 0x8, addend: 0x0, symName: _initializeProfileForContinuousMode, symObjAddr: 0x1BBC, symBinAddr: 0x100011470, symSize: 0x25C }
  - { offset: 0x262B2, size: 0x8, addend: 0x0, symName: _initializeProfileForContinuousMode, symObjAddr: 0x1BBC, symBinAddr: 0x100011470, symSize: 0x25C }
  - { offset: 0x262BA, size: 0x8, addend: 0x0, symName: _createProfileDir, symObjAddr: 0x1E18, symBinAddr: 0x1000116CC, symSize: 0xA4 }
  - { offset: 0x26487, size: 0x8, addend: 0x0, symName: _createProfileDir, symObjAddr: 0x1E18, symBinAddr: 0x1000116CC, symSize: 0xA4 }
  - { offset: 0x2648F, size: 0x8, addend: 0x0, symName: _parseAndSetFilename.cold.1, symObjAddr: 0x1EBC, symBinAddr: 0x10004AC20, symSize: 0x24 }
  - { offset: 0x264EC, size: 0x8, addend: 0x0, symName: _parseAndSetFilename.cold.1, symObjAddr: 0x1EBC, symBinAddr: 0x10004AC20, symSize: 0x24 }
  - { offset: 0x264F4, size: 0x8, addend: 0x0, symName: _parseAndSetFilename.cold.2, symObjAddr: 0x1EE0, symBinAddr: 0x10004AC44, symSize: 0x24 }
  - { offset: 0x26516, size: 0x8, addend: 0x0, symName: _parseAndSetFilename.cold.2, symObjAddr: 0x1EE0, symBinAddr: 0x10004AC44, symSize: 0x24 }
  - { offset: 0x26530, size: 0x8, addend: 0x0, symName: _parseAndSetFilename.cold.2, symObjAddr: 0x1EE0, symBinAddr: 0x10004AC44, symSize: 0x24 }
  - { offset: 0x26540, size: 0x8, addend: 0x0, symName: _parseAndSetFilename.cold.2, symObjAddr: 0x1EE0, symBinAddr: 0x10004AC44, symSize: 0x24 }
  - { offset: 0x266A5, size: 0x8, addend: 0x0, symName: _lprofProfileDumped, symObjAddr: 0x0, symBinAddr: 0x100011770, symSize: 0xC }
  - { offset: 0x266C2, size: 0x8, addend: 0x0, symName: _ProfileDumped, symObjAddr: 0x4E0, symBinAddr: 0x10006D278, symSize: 0x0 }
  - { offset: 0x266D2, size: 0x8, addend: 0x0, symName: _lprofProfileDumped, symObjAddr: 0x0, symBinAddr: 0x100011770, symSize: 0xC }
  - { offset: 0x2671A, size: 0x8, addend: 0x0, symName: _lprofGetLoadModuleSignature, symObjAddr: 0x0, symBinAddr: 0x10001177C, symSize: 0xD0 }
  - { offset: 0x26747, size: 0x8, addend: 0x0, symName: _VPMergeHook, symBinAddr: 0x10006D190, symSize: 0x0 }
  - { offset: 0x269AF, size: 0x8, addend: 0x0, symName: _lprofGetLoadModuleSignature, symObjAddr: 0x0, symBinAddr: 0x10001177C, symSize: 0xD0 }
  - { offset: 0x269B7, size: 0x8, addend: 0x0, symName: ___llvm_profile_check_compatibility, symObjAddr: 0xD0, symBinAddr: 0x10001184C, symSize: 0x1CC }
  - { offset: 0x26A27, size: 0x8, addend: 0x0, symName: ___llvm_profile_check_compatibility, symObjAddr: 0xD0, symBinAddr: 0x10001184C, symSize: 0x1CC }
  - { offset: 0x26A2F, size: 0x8, addend: 0x0, symName: ___llvm_profile_merge_from_buffer, symObjAddr: 0x29C, symBinAddr: 0x100011A18, symSize: 0x3E8 }
  - { offset: 0x26B07, size: 0x8, addend: 0x0, symName: ___llvm_profile_merge_from_buffer, symObjAddr: 0x29C, symBinAddr: 0x100011A18, symSize: 0x3E8 }
  - { offset: 0x26D79, size: 0x8, addend: 0x0, symName: _lprofMergeValueProfData, symObjAddr: 0x0, symBinAddr: 0x100011E00, symSize: 0xF0 }
  - { offset: 0x26D8A, size: 0x8, addend: 0x0, symName: _lprofMergeValueProfData, symObjAddr: 0x0, symBinAddr: 0x100011E00, symSize: 0xF0 }
  - { offset: 0x27055, size: 0x8, addend: 0x0, symName: ___llvm_profile_begin_data, symObjAddr: 0x0, symBinAddr: 0x100011EF0, symSize: 0xC }
  - { offset: 0x27074, size: 0x8, addend: 0x0, symName: _CurrentVNode, symObjAddr: 0xC0, symBinAddr: 0x10006C668, symSize: 0x0 }
  - { offset: 0x270F0, size: 0x8, addend: 0x0, symName: _EndVNode, symObjAddr: 0xC8, symBinAddr: 0x10006C670, symSize: 0x0 }
  - { offset: 0x270F9, size: 0x8, addend: 0x0, symName: ___llvm_profile_begin_data, symObjAddr: 0x0, symBinAddr: 0x100011EF0, symSize: 0xC }
  - { offset: 0x27101, size: 0x8, addend: 0x0, symName: ___llvm_profile_end_data, symObjAddr: 0xC, symBinAddr: 0x100011EFC, symSize: 0xC }
  - { offset: 0x2711A, size: 0x8, addend: 0x0, symName: ___llvm_profile_end_data, symObjAddr: 0xC, symBinAddr: 0x100011EFC, symSize: 0xC }
  - { offset: 0x27122, size: 0x8, addend: 0x0, symName: ___llvm_profile_begin_names, symObjAddr: 0x18, symBinAddr: 0x100011F08, symSize: 0xC }
  - { offset: 0x2713B, size: 0x8, addend: 0x0, symName: ___llvm_profile_begin_names, symObjAddr: 0x18, symBinAddr: 0x100011F08, symSize: 0xC }
  - { offset: 0x27143, size: 0x8, addend: 0x0, symName: ___llvm_profile_end_names, symObjAddr: 0x24, symBinAddr: 0x100011F14, symSize: 0xC }
  - { offset: 0x2715C, size: 0x8, addend: 0x0, symName: ___llvm_profile_end_names, symObjAddr: 0x24, symBinAddr: 0x100011F14, symSize: 0xC }
  - { offset: 0x27164, size: 0x8, addend: 0x0, symName: ___llvm_profile_begin_counters, symObjAddr: 0x30, symBinAddr: 0x100011F20, symSize: 0xC }
  - { offset: 0x2717D, size: 0x8, addend: 0x0, symName: ___llvm_profile_begin_counters, symObjAddr: 0x30, symBinAddr: 0x100011F20, symSize: 0xC }
  - { offset: 0x27185, size: 0x8, addend: 0x0, symName: ___llvm_profile_end_counters, symObjAddr: 0x3C, symBinAddr: 0x100011F2C, symSize: 0xC }
  - { offset: 0x2719E, size: 0x8, addend: 0x0, symName: ___llvm_profile_end_counters, symObjAddr: 0x3C, symBinAddr: 0x100011F2C, symSize: 0xC }
  - { offset: 0x271A6, size: 0x8, addend: 0x0, symName: ___llvm_profile_begin_bitmap, symObjAddr: 0x48, symBinAddr: 0x100011F38, symSize: 0xC }
  - { offset: 0x271BF, size: 0x8, addend: 0x0, symName: ___llvm_profile_begin_bitmap, symObjAddr: 0x48, symBinAddr: 0x100011F38, symSize: 0xC }
  - { offset: 0x271C7, size: 0x8, addend: 0x0, symName: ___llvm_profile_end_bitmap, symObjAddr: 0x54, symBinAddr: 0x100011F44, symSize: 0xC }
  - { offset: 0x271E0, size: 0x8, addend: 0x0, symName: ___llvm_profile_end_bitmap, symObjAddr: 0x54, symBinAddr: 0x100011F44, symSize: 0xC }
  - { offset: 0x271E8, size: 0x8, addend: 0x0, symName: ___llvm_profile_begin_vtables, symObjAddr: 0x60, symBinAddr: 0x100011F50, symSize: 0xC }
  - { offset: 0x27201, size: 0x8, addend: 0x0, symName: ___llvm_profile_begin_vtables, symObjAddr: 0x60, symBinAddr: 0x100011F50, symSize: 0xC }
  - { offset: 0x27209, size: 0x8, addend: 0x0, symName: ___llvm_profile_end_vtables, symObjAddr: 0x6C, symBinAddr: 0x100011F5C, symSize: 0xC }
  - { offset: 0x27222, size: 0x8, addend: 0x0, symName: ___llvm_profile_end_vtables, symObjAddr: 0x6C, symBinAddr: 0x100011F5C, symSize: 0xC }
  - { offset: 0x2722A, size: 0x8, addend: 0x0, symName: ___llvm_profile_begin_vtabnames, symObjAddr: 0x78, symBinAddr: 0x100011F68, symSize: 0xC }
  - { offset: 0x27243, size: 0x8, addend: 0x0, symName: ___llvm_profile_begin_vtabnames, symObjAddr: 0x78, symBinAddr: 0x100011F68, symSize: 0xC }
  - { offset: 0x2724B, size: 0x8, addend: 0x0, symName: ___llvm_profile_end_vtabnames, symObjAddr: 0x84, symBinAddr: 0x100011F74, symSize: 0xC }
  - { offset: 0x27264, size: 0x8, addend: 0x0, symName: ___llvm_profile_end_vtabnames, symObjAddr: 0x84, symBinAddr: 0x100011F74, symSize: 0xC }
  - { offset: 0x27285, size: 0x8, addend: 0x0, symName: ___llvm_profile_begin_vnodes, symObjAddr: 0x9C, symBinAddr: 0x100011F80, symSize: 0xC }
  - { offset: 0x2728D, size: 0x8, addend: 0x0, symName: ___llvm_profile_end_vnodes, symObjAddr: 0xA8, symBinAddr: 0x100011F8C, symSize: 0xC }
  - { offset: 0x272A6, size: 0x8, addend: 0x0, symName: ___llvm_profile_end_vnodes, symObjAddr: 0xA8, symBinAddr: 0x100011F8C, symSize: 0xC }
  - { offset: 0x272AE, size: 0x8, addend: 0x0, symName: ___llvm_write_binary_ids, symObjAddr: 0xB4, symBinAddr: 0x100011F98, symSize: 0x8 }
  - { offset: 0x272C7, size: 0x8, addend: 0x0, symName: ___llvm_write_binary_ids, symObjAddr: 0xB4, symBinAddr: 0x100011F98, symSize: 0x8 }
  - { offset: 0x2754D, size: 0x8, addend: 0x0, symName: __GLOBAL__sub_I_InstrProfilingRuntime.cpp, symObjAddr: 0x0, symBinAddr: 0x100011FA0, symSize: 0x18 }
  - { offset: 0x27570, size: 0x8, addend: 0x0, symName: ___llvm_profile_runtime, symObjAddr: 0x590, symBinAddr: 0x10006D14C, symSize: 0x0 }
  - { offset: 0x275A0, size: 0x8, addend: 0x0, symName: __GLOBAL__sub_I_InstrProfilingRuntime.cpp, symObjAddr: 0x0, symBinAddr: 0x100011FA0, symSize: 0x18 }
  - { offset: 0x2761C, size: 0x8, addend: 0x0, symName: ___llvm_profile_recursive_mkdir, symObjAddr: 0x0, symBinAddr: 0x100011FB8, symSize: 0x58 }
  - { offset: 0x27624, size: 0x8, addend: 0x0, symName: _lprofDirMode, symObjAddr: 0x5AC, symBinAddr: 0x10006C678, symSize: 0x0 }
  - { offset: 0x2763B, size: 0x8, addend: 0x0, symName: _lprofDirMode, symObjAddr: 0x5AC, symBinAddr: 0x10006C678, symSize: 0x0 }
  - { offset: 0x27670, size: 0x8, addend: 0x0, symName: ___llvm_profile_recursive_mkdir, symObjAddr: 0x0, symBinAddr: 0x100011FB8, symSize: 0x58 }
  - { offset: 0x276EF, size: 0x8, addend: 0x0, symName: _lprofGetHostName, symObjAddr: 0x70, symBinAddr: 0x100012010, symSize: 0x80 }
  - { offset: 0x27824, size: 0x8, addend: 0x0, symName: _lprofLockFileHandle, symObjAddr: 0x208, symBinAddr: 0x100012090, symSize: 0x90 }
  - { offset: 0x2782C, size: 0x8, addend: 0x0, symName: _lprofUnlockFileHandle, symObjAddr: 0x298, symBinAddr: 0x100012120, symSize: 0x90 }
  - { offset: 0x278B2, size: 0x8, addend: 0x0, symName: _lprofUnlockFileHandle, symObjAddr: 0x298, symBinAddr: 0x100012120, symSize: 0x90 }
  - { offset: 0x278BA, size: 0x8, addend: 0x0, symName: _lprofOpenFileEx, symObjAddr: 0x328, symBinAddr: 0x1000121B0, symSize: 0xD0 }
  - { offset: 0x2791A, size: 0x8, addend: 0x0, symName: _lprofOpenFileEx, symObjAddr: 0x328, symBinAddr: 0x1000121B0, symSize: 0xD0 }
  - { offset: 0x27992, size: 0x8, addend: 0x0, symName: _lprofFindFirstDirSeparator, symObjAddr: 0x538, symBinAddr: 0x100012280, symSize: 0x8 }
  - { offset: 0x279D2, size: 0x8, addend: 0x0, symName: _lprofSuspendSigKill, symObjAddr: 0x548, symBinAddr: 0x100012288, symSize: 0x8 }
  - { offset: 0x279DA, size: 0x8, addend: 0x0, symName: _lprofRestoreSigKill, symObjAddr: 0x550, symBinAddr: 0x100012290, symSize: 0x4 }
  - { offset: 0x279F5, size: 0x8, addend: 0x0, symName: _lprofRestoreSigKill, symObjAddr: 0x550, symBinAddr: 0x100012290, symSize: 0x4 }
  - { offset: 0x27A14, size: 0x8, addend: 0x0, symName: _lprofAtExit, symObjAddr: 0x5A8, symBinAddr: 0x100012294, symSize: 0x4 }
  - { offset: 0x27A1C, size: 0x8, addend: 0x0, symName: _lprofDirMode, symObjAddr: 0x5AC, symBinAddr: 0x10006C678, symSize: 0x0 }
  - { offset: 0x27CE7, size: 0x8, addend: 0x0, symName: _getValueProfRecordHeaderSize, symObjAddr: 0x0, symBinAddr: 0x100012298, symSize: 0xC }
  - { offset: 0x27D06, size: 0x8, addend: 0x0, symName: _VPMaxNumValsPerSite, symObjAddr: 0x1740, symBinAddr: 0x10006C680, symSize: 0x0 }
  - { offset: 0x27D9B, size: 0x8, addend: 0x0, symName: __MergedGlobals, symObjAddr: 0xEF50, symBinAddr: 0x10006D2A8, symSize: 0x0 }
  - { offset: 0x27DC2, size: 0x8, addend: 0x0, symName: __MergedGlobals, symObjAddr: 0xEF50, symBinAddr: 0x10006D2A8, symSize: 0x0 }
  - { offset: 0x27DD9, size: 0x8, addend: 0x0, symName: __MergedGlobals, symObjAddr: 0xEF50, symBinAddr: 0x10006D2A8, symSize: 0x0 }
  - { offset: 0x27DF8, size: 0x8, addend: 0x0, symName: _TheVPDataReader, symObjAddr: 0x1748, symBinAddr: 0x10006C688, symSize: 0x0 }
  - { offset: 0x28098, size: 0x8, addend: 0x0, symName: _RTRecord, symObjAddr: 0xEF28, symBinAddr: 0x10006D280, symSize: 0x0 }
  - { offset: 0x2828C, size: 0x8, addend: 0x0, symName: _getValueProfRecordHeaderSize, symObjAddr: 0x0, symBinAddr: 0x100012298, symSize: 0xC }
  - { offset: 0x282E2, size: 0x8, addend: 0x0, symName: _getValueProfRecordValueData, symObjAddr: 0x1C, symBinAddr: 0x1000122A4, symSize: 0x14 }
  - { offset: 0x28390, size: 0x8, addend: 0x0, symName: _getValueProfRecordNext, symObjAddr: 0x1B4, symBinAddr: 0x1000122B8, symSize: 0x1A4 }
  - { offset: 0x28398, size: 0x8, addend: 0x0, symName: _getFirstValueProfRecord, symObjAddr: 0x358, symBinAddr: 0x10001245C, symSize: 0x8 }
  - { offset: 0x283FF, size: 0x8, addend: 0x0, symName: _getFirstValueProfRecord, symObjAddr: 0x358, symBinAddr: 0x10001245C, symSize: 0x8 }
  - { offset: 0x284E1, size: 0x8, addend: 0x0, symName: _lprofSetupValueProfiler, symObjAddr: 0xB38, symBinAddr: 0x100012464, symSize: 0x64 }
  - { offset: 0x285F3, size: 0x8, addend: 0x0, symName: ___llvm_profile_instrument_target_value, symObjAddr: 0xE30, symBinAddr: 0x1000124C8, symSize: 0x290 }
  - { offset: 0x28711, size: 0x8, addend: 0x0, symName: _lprofGetVPDataReader, symObjAddr: 0x1108, symBinAddr: 0x100012758, symSize: 0xC }
  - { offset: 0x28719, size: 0x8, addend: 0x0, symName: _initializeValueProfRuntimeRecord, symObjAddr: 0x1114, symBinAddr: 0x100012764, symSize: 0x210 }
  - { offset: 0x28734, size: 0x8, addend: 0x0, symName: _initializeValueProfRuntimeRecord, symObjAddr: 0x1114, symBinAddr: 0x100012764, symSize: 0x210 }
  - { offset: 0x2873C, size: 0x8, addend: 0x0, symName: _getNumValueDataForSiteWrapper, symObjAddr: 0x1324, symBinAddr: 0x100012974, symSize: 0x14 }
  - { offset: 0x28857, size: 0x8, addend: 0x0, symName: _getNumValueDataForSiteWrapper, symObjAddr: 0x1324, symBinAddr: 0x100012974, symSize: 0x14 }
  - { offset: 0x2885F, size: 0x8, addend: 0x0, symName: _getValueProfDataSizeWrapper, symObjAddr: 0x1338, symBinAddr: 0x100012988, symSize: 0xDC }
  - { offset: 0x2889D, size: 0x8, addend: 0x0, symName: _getNumValueDataForSiteWrapper, symObjAddr: 0x1324, symBinAddr: 0x100012974, symSize: 0x14 }
  - { offset: 0x288C3, size: 0x8, addend: 0x0, symName: _getValueProfDataSizeWrapper, symObjAddr: 0x1338, symBinAddr: 0x100012988, symSize: 0xDC }
  - { offset: 0x288CB, size: 0x8, addend: 0x0, symName: _getNextNValueData, symObjAddr: 0x1414, symBinAddr: 0x100012A64, symSize: 0x44 }
  - { offset: 0x28962, size: 0x8, addend: 0x0, symName: _getNextNValueData, symObjAddr: 0x1414, symBinAddr: 0x100012A64, symSize: 0x44 }
  - { offset: 0x2896A, size: 0x8, addend: 0x0, symName: _getNumValueSitesRT, symObjAddr: 0x1458, symBinAddr: 0x100012AA8, symSize: 0x10 }
  - { offset: 0x289F8, size: 0x8, addend: 0x0, symName: _getNumValueSitesRT, symObjAddr: 0x1458, symBinAddr: 0x100012AA8, symSize: 0x10 }
  - { offset: 0x28A00, size: 0x8, addend: 0x0, symName: _getNumValueDataRT, symObjAddr: 0x1468, symBinAddr: 0x100012AB8, symSize: 0x190 }
  - { offset: 0x28A3B, size: 0x8, addend: 0x0, symName: _getNumValueDataRT, symObjAddr: 0x1468, symBinAddr: 0x100012AB8, symSize: 0x190 }
  - { offset: 0x28AB1, size: 0x8, addend: 0x0, symName: ___llvm_profile_instrument_target_value.cold.1, symObjAddr: 0x161C, symBinAddr: 0x10004AC68, symSize: 0x24 }
  - { offset: 0x28B41, size: 0x8, addend: 0x0, symName: ___llvm_profile_raw_version, symObjAddr: 0x0, symBinAddr: 0x10006C6B8, symSize: 0x0 }
  - { offset: 0x28B83, size: 0x8, addend: 0x0, symName: _lprofBufferWriter, symObjAddr: 0x0, symBinAddr: 0x100012C48, symSize: 0x6C }
  - { offset: 0x28BA2, size: 0x8, addend: 0x0, symName: _FreeHook, symObjAddr: 0x4F30, symBinAddr: 0x10006D150, symSize: 0x0 }
  - { offset: 0x28BC8, size: 0x8, addend: 0x0, symName: _DynamicBufferIOBuffer, symObjAddr: 0x4F38, symBinAddr: 0x10006D158, symSize: 0x0 }
  - { offset: 0x28BF6, size: 0x8, addend: 0x0, symName: _VPBufferSize, symObjAddr: 0x4F40, symBinAddr: 0x10006D160, symSize: 0x0 }
  - { offset: 0x28C1D, size: 0x8, addend: 0x0, symName: __MergedGlobals, symObjAddr: 0x6F48, symBinAddr: 0x10006F2B8, symSize: 0x0 }
  - { offset: 0x28D67, size: 0x8, addend: 0x0, symName: _BufferIOBuffer, symObjAddr: 0x4F48, symBinAddr: 0x10006D2B8, symSize: 0x0 }
  - { offset: 0x28D91, size: 0x8, addend: 0x0, symName: __MergedGlobals, symObjAddr: 0x6F48, symBinAddr: 0x10006F2B8, symSize: 0x0 }
  - { offset: 0x28E0D, size: 0x8, addend: 0x0, symName: _lprofBufferWriter, symObjAddr: 0x0, symBinAddr: 0x100012C48, symSize: 0x6C }
  - { offset: 0x28F25, size: 0x8, addend: 0x0, symName: _lprofBufferIOWrite, symObjAddr: 0x100, symBinAddr: 0x100012CB4, symSize: 0x134 }
  - { offset: 0x29026, size: 0x8, addend: 0x0, symName: _lprofWriteData, symObjAddr: 0x2F4, symBinAddr: 0x100012DE8, symSize: 0xD4 }
  - { offset: 0x2902E, size: 0x8, addend: 0x0, symName: _lprofWriteDataImpl, symObjAddr: 0x3C8, symBinAddr: 0x100012EBC, symSize: 0x46C }
  - { offset: 0x29454, size: 0x8, addend: 0x0, symName: _lprofWriteDataImpl, symObjAddr: 0x3C8, symBinAddr: 0x100012EBC, symSize: 0x46C }
  - { offset: 0x2977E, size: 0x8, addend: 0x0, symName: _writeOneValueProfData, symObjAddr: 0x8C0, symBinAddr: 0x100013328, symSize: 0x4A8 }
  - { offset: 0x29A43, size: 0x8, addend: 0x0, symName: '__ZN108_$LT$alloc..collections..btree..map..Iter$LT$K$C$V$GT$$u20$as$u20$core..iter..traits..iterator..Iterator$GT$4next17hd09f2d96589fb435E', symObjAddr: 0x0, symBinAddr: 0x1000137D0, symSize: 0x13C }
  - { offset: 0x29E9C, size: 0x8, addend: 0x0, symName: '__ZN5alloc11collections5btree4node208Handle$LT$alloc..collections..btree..node..NodeRef$LT$alloc..collections..btree..node..marker..Mut$C$K$C$V$C$alloc..collections..btree..node..marker..Leaf$GT$$C$alloc..collections..btree..node..marker..KV$GT$5split17h6d01fe3bbe152ad6E', symObjAddr: 0x114AC, symBinAddr: 0x10001F588, symSize: 0x1C0 }
  - { offset: 0x2A30A, size: 0x8, addend: 0x0, symName: '__ZN5alloc11collections5btree4node208Handle$LT$alloc..collections..btree..node..NodeRef$LT$alloc..collections..btree..node..marker..Mut$C$K$C$V$C$alloc..collections..btree..node..marker..Leaf$GT$$C$alloc..collections..btree..node..marker..KV$GT$5split17ha09fe2f6ae84e77eE', symObjAddr: 0x1166C, symBinAddr: 0x10001F748, symSize: 0x164 }
  - { offset: 0x2A6E1, size: 0x8, addend: 0x0, symName: '__ZN5alloc11collections5btree4node212Handle$LT$alloc..collections..btree..node..NodeRef$LT$alloc..collections..btree..node..marker..Mut$C$K$C$V$C$alloc..collections..btree..node..marker..Internal$GT$$C$alloc..collections..btree..node..marker..KV$GT$5split17h8a06bb5830746347E', symObjAddr: 0x11C34, symBinAddr: 0x10001F8AC, symSize: 0x218 }
  - { offset: 0x2AC71, size: 0x8, addend: 0x0, symName: '__ZN5alloc11collections5btree4node212Handle$LT$alloc..collections..btree..node..NodeRef$LT$alloc..collections..btree..node..marker..Mut$C$K$C$V$C$alloc..collections..btree..node..marker..Internal$GT$$C$alloc..collections..btree..node..marker..KV$GT$5split17hb4d18c041628fb6dE', symObjAddr: 0x11E4C, symBinAddr: 0x10001FAC4, symSize: 0x28C }
  - { offset: 0x2B341, size: 0x8, addend: 0x0, symName: '__ZN5alloc11collections5btree6remove259_$LT$impl$u20$alloc..collections..btree..node..Handle$LT$alloc..collections..btree..node..NodeRef$LT$alloc..collections..btree..node..marker..Mut$C$K$C$V$C$alloc..collections..btree..node..marker..Leaf$GT$$C$alloc..collections..btree..node..marker..KV$GT$$GT$14remove_leaf_kv17h73689d62ad792e56E', symObjAddr: 0x13418, symBinAddr: 0x100020B20, symSize: 0x570 }
  - { offset: 0x2BF80, size: 0x8, addend: 0x0, symName: '__ZN5alloc11collections5btree6remove259_$LT$impl$u20$alloc..collections..btree..node..Handle$LT$alloc..collections..btree..node..NodeRef$LT$alloc..collections..btree..node..marker..Mut$C$K$C$V$C$alloc..collections..btree..node..marker..Leaf$GT$$C$alloc..collections..btree..node..marker..KV$GT$$GT$14remove_leaf_kv17he90c15582b4564a9E', symObjAddr: 0x13988, symBinAddr: 0x100021090, symSize: 0x52C }
  - { offset: 0x2DD3A, size: 0x8, addend: 0x0, symName: '__ZN5alloc11collections5btree4node29BalancingContext$LT$K$C$V$GT$15bulk_steal_left17h75e64982df7e0642E', symObjAddr: 0x120D8, symBinAddr: 0x10001FD50, symSize: 0x284 }
  - { offset: 0x2E2A2, size: 0x8, addend: 0x0, symName: '__ZN5alloc11collections5btree4node29BalancingContext$LT$K$C$V$GT$15bulk_steal_left17hbba92f5d6a683d2bE', symObjAddr: 0x1235C, symBinAddr: 0x10001FFD4, symSize: 0x1F4 }
  - { offset: 0x2E7D2, size: 0x8, addend: 0x0, symName: '__ZN5alloc11collections5btree4node29BalancingContext$LT$K$C$V$GT$16bulk_steal_right17h38344368ffc8c5cbE', symObjAddr: 0x12550, symBinAddr: 0x1000201C8, symSize: 0x2CC }
  - { offset: 0x2EDEF, size: 0x8, addend: 0x0, symName: '__ZN5alloc11collections5btree4node29BalancingContext$LT$K$C$V$GT$16bulk_steal_right17hbe50625095942a6eE', symObjAddr: 0x1281C, symBinAddr: 0x100020494, symSize: 0x240 }
  - { offset: 0x2F43D, size: 0x8, addend: 0x0, symName: '__ZN5alloc11collections5btree4node29BalancingContext$LT$K$C$V$GT$8do_merge17h4b602dda9210b2bdE', symObjAddr: 0x12A5C, symBinAddr: 0x1000206D4, symSize: 0x258 }
  - { offset: 0x2FA75, size: 0x8, addend: 0x0, symName: '__ZN5alloc11collections5btree4node29BalancingContext$LT$K$C$V$GT$8do_merge17h745f74eea44b50d0E', symObjAddr: 0x12CB4, symBinAddr: 0x10002092C, symSize: 0x1F4 }
  - { offset: 0x3027F, size: 0x8, addend: 0x0, symName: '__ZN108_$LT$alloc..collections..btree..map..Iter$LT$K$C$V$GT$$u20$as$u20$core..iter..traits..iterator..Iterator$GT$4next17hd09f2d96589fb435E', symObjAddr: 0x0, symBinAddr: 0x1000137D0, symSize: 0x13C }
  - { offset: 0x305D5, size: 0x8, addend: 0x0, symName: '__ZN5alloc11collections5btree3map25BTreeMap$LT$K$C$V$C$A$GT$6insert17h1b51d01431bfbb0bE', symObjAddr: 0xFA98, symBinAddr: 0x10001E560, symSize: 0x9B0 }
  - { offset: 0x31F5E, size: 0x8, addend: 0x0, symName: '__ZN5alloc11collections5btree3map25IntoIter$LT$K$C$V$C$A$GT$10dying_next17h14374c324bbb3051E', symObjAddr: 0x10E34, symBinAddr: 0x10001EF10, symSize: 0x228 }
  - { offset: 0x32304, size: 0x8, addend: 0x0, symName: '__ZN5alloc11collections5btree3map25IntoIter$LT$K$C$V$C$A$GT$10dying_next17ha97a3f555acf7d48E', symObjAddr: 0x1105C, symBinAddr: 0x10001F138, symSize: 0x228 }
  - { offset: 0x326AA, size: 0x8, addend: 0x0, symName: '__ZN5alloc11collections5btree3map25IntoIter$LT$K$C$V$C$A$GT$10dying_next17hb30339cd7068d6cfE', symObjAddr: 0x11284, symBinAddr: 0x10001F360, symSize: 0x228 }
  - { offset: 0x339B6, size: 0x8, addend: 0x0, symName: '__ZN5alloc7raw_vec19RawVec$LT$T$C$A$GT$8grow_one17h06cf0433792cf41cE', symObjAddr: 0x14498, symBinAddr: 0x10002197C, symSize: 0xB4 }
  - { offset: 0x33ACC, size: 0x8, addend: 0x0, symName: '__ZN5alloc7raw_vec19RawVec$LT$T$C$A$GT$8grow_one17h0ff3cfc767e809c5E', symObjAddr: 0x1454C, symBinAddr: 0x100021A30, symSize: 0xC4 }
  - { offset: 0x33BE2, size: 0x8, addend: 0x0, symName: '__ZN5alloc7raw_vec19RawVec$LT$T$C$A$GT$8grow_one17h2a7a88545eefe0b5E', symObjAddr: 0x14610, symBinAddr: 0x100021AF4, symSize: 0xC4 }
  - { offset: 0x33CF8, size: 0x8, addend: 0x0, symName: '__ZN5alloc7raw_vec19RawVec$LT$T$C$A$GT$8grow_one17h33ef86bd5bc7babfE', symObjAddr: 0x146D4, symBinAddr: 0x100021BB8, symSize: 0xB4 }
  - { offset: 0x33E0E, size: 0x8, addend: 0x0, symName: '__ZN5alloc7raw_vec19RawVec$LT$T$C$A$GT$8grow_one17h4794d3730a636672E', symObjAddr: 0x1484C, symBinAddr: 0x100021C6C, symSize: 0xC4 }
  - { offset: 0x33F24, size: 0x8, addend: 0x0, symName: '__ZN5alloc7raw_vec19RawVec$LT$T$C$A$GT$8grow_one17h4b7a36f6d62b1585E', symObjAddr: 0x14910, symBinAddr: 0x100021D30, symSize: 0xB4 }
  - { offset: 0x3403A, size: 0x8, addend: 0x0, symName: '__ZN5alloc7raw_vec19RawVec$LT$T$C$A$GT$8grow_one17h4ec275d7687f1e24E', symObjAddr: 0x149C4, symBinAddr: 0x100021DE4, symSize: 0xC4 }
  - { offset: 0x34150, size: 0x8, addend: 0x0, symName: '__ZN5alloc7raw_vec19RawVec$LT$T$C$A$GT$8grow_one17h755f70e15600008eE', symObjAddr: 0x14A88, symBinAddr: 0x100021EA8, symSize: 0xB4 }
  - { offset: 0x34266, size: 0x8, addend: 0x0, symName: '__ZN5alloc7raw_vec19RawVec$LT$T$C$A$GT$8grow_one17h9a9a76236db74635E', symObjAddr: 0x14B3C, symBinAddr: 0x100021F5C, symSize: 0xC0 }
  - { offset: 0x3437C, size: 0x8, addend: 0x0, symName: '__ZN5alloc7raw_vec19RawVec$LT$T$C$A$GT$8grow_one17hbdf039f48f951a6eE', symObjAddr: 0x14BFC, symBinAddr: 0x10002201C, symSize: 0xC0 }
  - { offset: 0x34492, size: 0x8, addend: 0x0, symName: '__ZN5alloc7raw_vec19RawVec$LT$T$C$A$GT$8grow_one17hf24d0ccf3cd16788E', symObjAddr: 0x14CBC, symBinAddr: 0x1000220DC, symSize: 0xC0 }
  - { offset: 0x34B9F, size: 0x8, addend: 0x0, symName: __ZN5alloc7raw_vec11finish_grow17h2d571ea7b67f06b7E, symObjAddr: 0x14418, symBinAddr: 0x10004DC4C, symSize: 0x80 }
  - { offset: 0x34C3A, size: 0x8, addend: 0x0, symName: '__ZN5alloc7raw_vec20RawVecInner$LT$A$GT$7reserve21do_reserve_and_handle17h4b2c29e8db0b9268E', symObjAddr: 0x14D7C, symBinAddr: 0x10004DCCC, symSize: 0xF0 }
  - { offset: 0x35FBA, size: 0x8, addend: 0x0, symName: __ZN5alloc5alloc15exchange_malloc17h9685023251c359e7E, symObjAddr: 0x143CC, symBinAddr: 0x100021930, symSize: 0x4C }
  - { offset: 0x36088, size: 0x8, addend: 0x0, symName: '__ZN5alloc4sync16Arc$LT$T$C$A$GT$9drop_slow17h568ad2c88e43a2e4E', symObjAddr: 0x13FE4, symBinAddr: 0x1000215BC, symSize: 0x34 }
  - { offset: 0x36165, size: 0x8, addend: 0x0, symName: '__ZN5alloc4sync16Arc$LT$T$C$A$GT$9drop_slow17h568f10379158be3aE', symObjAddr: 0x14018, symBinAddr: 0x1000215F0, symSize: 0xC0 }
  - { offset: 0x3648A, size: 0x8, addend: 0x0, symName: '__ZN5alloc4sync16Arc$LT$T$C$A$GT$9drop_slow17h74c044505d97b8fcE', symObjAddr: 0x140D8, symBinAddr: 0x1000216B0, symSize: 0x78 }
  - { offset: 0x36656, size: 0x8, addend: 0x0, symName: '__ZN5alloc4sync16Arc$LT$T$C$A$GT$9drop_slow17h8f2220b00493c4e4E', symObjAddr: 0x14150, symBinAddr: 0x100021728, symSize: 0xA0 }
  - { offset: 0x3694E, size: 0x8, addend: 0x0, symName: '__ZN5alloc4sync16Arc$LT$T$C$A$GT$9drop_slow17hb6a5023acd32b46fE', symObjAddr: 0x14264, symBinAddr: 0x1000217C8, symSize: 0xD0 }
  - { offset: 0x36B63, size: 0x8, addend: 0x0, symName: '__ZN5alloc4sync16Arc$LT$T$C$A$GT$9drop_slow17hd5e62bd79ab5d7f0E', symObjAddr: 0x14334, symBinAddr: 0x100021898, symSize: 0x98 }
  - { offset: 0x37096, size: 0x8, addend: 0x0, symName: '__ZN64_$LT$alloc..ffi..c_str..NulError$u20$as$u20$core..fmt..Debug$GT$3fmt17hb25a36ba1a7f247bE', symObjAddr: 0x1BBE4, symBinAddr: 0x100028F14, symSize: 0x4C }
  - { offset: 0x37554, size: 0x8, addend: 0x0, symName: '__ZN58_$LT$alloc..string..String$u20$as$u20$core..fmt..Debug$GT$3fmt17hf1e461d83be89b72E', symObjAddr: 0xF8D0, symBinAddr: 0x10001E398, symSize: 0x10 }
  - { offset: 0x3760F, size: 0x8, addend: 0x0, symName: '__ZN58_$LT$alloc..string..String$u20$as$u20$core..fmt..Write$GT$10write_char17h5afa657ba1086fe6E', symObjAddr: 0xF8E0, symBinAddr: 0x10001E3A8, symSize: 0x138 }
  - { offset: 0x377B2, size: 0x8, addend: 0x0, symName: '__ZN58_$LT$alloc..string..String$u20$as$u20$core..fmt..Write$GT$9write_str17hba5566b7261b3df3E', symObjAddr: 0xFA18, symBinAddr: 0x10001E4E0, symSize: 0x80 }
  - { offset: 0x3790B, size: 0x8, addend: 0x0, symName: '__ZN60_$LT$alloc..string..String$u20$as$u20$core..fmt..Display$GT$3fmt17h55315b95f551f900E', symObjAddr: 0x1BBD4, symBinAddr: 0x100028F04, symSize: 0x10 }
  - { offset: 0x39334, size: 0x8, addend: 0x0, symName: '__ZN4core3ptr107drop_in_place$LT$alloc..vec..Vec$LT$$LP$std..ffi..os_str..OsString$C$std..ffi..os_str..OsString$RP$$GT$$GT$17h54613c9c01320632E', symObjAddr: 0x1C64, symBinAddr: 0x100014348, symSize: 0x94 }
  - { offset: 0x39567, size: 0x8, addend: 0x0, symName: '__ZN4core3ptr107drop_in_place$LT$core..pin..Pin$LT$alloc..boxed..Box$LT$std..sys..pal..unix..sync..mutex..Mutex$GT$$GT$$GT$17h3aeea96dd755cfb4E', symObjAddr: 0x1CF8, symBinAddr: 0x1000143DC, symSize: 0x2C }
  - { offset: 0x3960C, size: 0x8, addend: 0x0, symName: '__ZN4core3ptr119drop_in_place$LT$std..io..default_write_fmt..Adapter$LT$std..io..cursor..Cursor$LT$$RF$mut$u20$$u5b$u8$u5d$$GT$$GT$$GT$17h8294f296a7dc0264E', symObjAddr: 0x1DA8, symBinAddr: 0x100014408, symSize: 0x10 }
  - { offset: 0x39623, size: 0x8, addend: 0x0, symName: '__ZN4core3ptr119drop_in_place$LT$std..io..default_write_fmt..Adapter$LT$std..io..cursor..Cursor$LT$$RF$mut$u20$$u5b$u8$u5d$$GT$$GT$$GT$17h8294f296a7dc0264E', symObjAddr: 0x1DA8, symBinAddr: 0x100014408, symSize: 0x10 }
  - { offset: 0x39644, size: 0x8, addend: 0x0, symName: '__ZN4core3ptr123drop_in_place$LT$addr2line..Context$LT$gimli..read..endian_slice..EndianSlice$LT$gimli..endianity..LittleEndian$GT$$GT$$GT$17h86eb599b9bd6b6b4E', symObjAddr: 0x1DB8, symBinAddr: 0x100014418, symSize: 0x70 }
  - { offset: 0x39719, size: 0x8, addend: 0x0, symName: '__ZN4core3ptr124drop_in_place$LT$alloc..collections..btree..map..BTreeMap$LT$std..ffi..os_str..OsString$C$std..ffi..os_str..OsString$GT$$GT$17h3839acf51fe12fe1E', symObjAddr: 0x1E28, symBinAddr: 0x100014488, symSize: 0xB8 }
  - { offset: 0x3994C, size: 0x8, addend: 0x0, symName: '__ZN4core3ptr124drop_in_place$LT$alloc..collections..btree..map..IntoIter$LT$std..ffi..os_str..OsString$C$std..ffi..os_str..OsString$GT$$GT$17h5df7ec7eeb3dc239E', symObjAddr: 0x1EE0, symBinAddr: 0x100014540, symSize: 0x90 }
  - { offset: 0x39B55, size: 0x8, addend: 0x0, symName: '__ZN4core3ptr128drop_in_place$LT$core..result..Result$LT$$RF$std..thread..Thread$C$$LP$$RF$std..thread..Thread$C$std..thread..Thread$RP$$GT$$GT$17h962b0ef080f547dcE', symObjAddr: 0x1F70, symBinAddr: 0x1000145D0, symSize: 0x28 }
  - { offset: 0x39CFF, size: 0x8, addend: 0x0, symName: '__ZN4core3ptr129drop_in_place$LT$addr2line..unit..ResUnit$LT$gimli..read..endian_slice..EndianSlice$LT$gimli..endianity..LittleEndian$GT$$GT$$GT$17h6704d8d711f50964E', symObjAddr: 0x1F98, symBinAddr: 0x1000145F8, symSize: 0xE4 }
  - { offset: 0x39F21, size: 0x8, addend: 0x0, symName: '__ZN4core3ptr129drop_in_place$LT$addr2line..unit..SupUnit$LT$gimli..read..endian_slice..EndianSlice$LT$gimli..endianity..LittleEndian$GT$$GT$$GT$17h3178d992ad3814bdE', symObjAddr: 0x207C, symBinAddr: 0x1000146DC, symSize: 0x54 }
  - { offset: 0x39FFC, size: 0x8, addend: 0x0, symName: '__ZN4core3ptr130drop_in_place$LT$addr2line..unit..ResUnits$LT$gimli..read..endian_slice..EndianSlice$LT$gimli..endianity..LittleEndian$GT$$GT$$GT$17hec2ee29328c5cc7bE', symObjAddr: 0x20D0, symBinAddr: 0x100014730, symSize: 0xD0 }
  - { offset: 0x3A1A5, size: 0x8, addend: 0x0, symName: '__ZN4core3ptr130drop_in_place$LT$addr2line..unit..SupUnits$LT$gimli..read..endian_slice..EndianSlice$LT$gimli..endianity..LittleEndian$GT$$GT$$GT$17h1322e2d105d2f1f9E', symObjAddr: 0x21A0, symBinAddr: 0x100014800, symSize: 0xE4 }
  - { offset: 0x3A363, size: 0x8, addend: 0x0, symName: '__ZN4core3ptr130drop_in_place$LT$gimli..read..dwarf..Dwarf$LT$gimli..read..endian_slice..EndianSlice$LT$gimli..endianity..LittleEndian$GT$$GT$$GT$17hf3b20fbd9db1a9fdE', symObjAddr: 0x2284, symBinAddr: 0x1000148E4, symSize: 0x58 }
  - { offset: 0x3A431, size: 0x8, addend: 0x0, symName: '__ZN4core3ptr131drop_in_place$LT$$u5b$core..option..Option$LT$core..option..Option$LT$std..backtrace_rs..symbolize..gimli..Mapping$GT$$GT$$u5d$$GT$17h018dc685d3dd2730E', symObjAddr: 0x22DC, symBinAddr: 0x10001493C, symSize: 0xCC }
  - { offset: 0x3A4DB, size: 0x8, addend: 0x0, symName: '__ZN4core3ptr137drop_in_place$LT$gimli..read..dwarf..Unit$LT$gimli..read..endian_slice..EndianSlice$LT$gimli..endianity..LittleEndian$GT$$C$usize$GT$$GT$17h4031e9c5dec06b9aE', symObjAddr: 0x246C, symBinAddr: 0x100014A08, symSize: 0x54 }
  - { offset: 0x3A5D8, size: 0x8, addend: 0x0, symName: '__ZN4core3ptr138drop_in_place$LT$addr2line..function..LazyFunction$LT$gimli..read..endian_slice..EndianSlice$LT$gimli..endianity..LittleEndian$GT$$GT$$GT$17ha3709aaa52158f89E', symObjAddr: 0x24C0, symBinAddr: 0x100014A5C, symSize: 0x64 }
  - { offset: 0x3A5EF, size: 0x8, addend: 0x0, symName: '__ZN4core3ptr138drop_in_place$LT$addr2line..function..LazyFunction$LT$gimli..read..endian_slice..EndianSlice$LT$gimli..endianity..LittleEndian$GT$$GT$$GT$17ha3709aaa52158f89E', symObjAddr: 0x24C0, symBinAddr: 0x100014A5C, symSize: 0x64 }
  - { offset: 0x3A604, size: 0x8, addend: 0x0, symName: '__ZN4core3ptr138drop_in_place$LT$addr2line..function..LazyFunction$LT$gimli..read..endian_slice..EndianSlice$LT$gimli..endianity..LittleEndian$GT$$GT$$GT$17ha3709aaa52158f89E', symObjAddr: 0x24C0, symBinAddr: 0x100014A5C, symSize: 0x64 }
  - { offset: 0x3A619, size: 0x8, addend: 0x0, symName: '__ZN4core3ptr138drop_in_place$LT$addr2line..function..LazyFunction$LT$gimli..read..endian_slice..EndianSlice$LT$gimli..endianity..LittleEndian$GT$$GT$$GT$17ha3709aaa52158f89E', symObjAddr: 0x24C0, symBinAddr: 0x100014A5C, symSize: 0x64 }
  - { offset: 0x3A75B, size: 0x8, addend: 0x0, symName: '__ZN4core3ptr144drop_in_place$LT$alloc..vec..Vec$LT$core..option..Option$LT$core..option..Option$LT$std..backtrace_rs..symbolize..gimli..Mapping$GT$$GT$$GT$$GT$17he58f1b72666b9c59E', symObjAddr: 0x2524, symBinAddr: 0x100014AC0, symSize: 0x78 }
  - { offset: 0x3A8C3, size: 0x8, addend: 0x0, symName: '__ZN4core3ptr152drop_in_place$LT$alloc..vec..Vec$LT$addr2line..unit..ResUnit$LT$gimli..read..endian_slice..EndianSlice$LT$gimli..endianity..LittleEndian$GT$$GT$$GT$$GT$17he2165088e8298335E', symObjAddr: 0x2668, symBinAddr: 0x100014B38, symSize: 0xC4 }
  - { offset: 0x3AA32, size: 0x8, addend: 0x0, symName: '__ZN4core3ptr152drop_in_place$LT$alloc..vec..Vec$LT$addr2line..unit..SupUnit$LT$gimli..read..endian_slice..EndianSlice$LT$gimli..endianity..LittleEndian$GT$$GT$$GT$$GT$17h87f5dc9d3cca3a77E', symObjAddr: 0x272C, symBinAddr: 0x100014BFC, symSize: 0xF4 }
  - { offset: 0x3AC4A, size: 0x8, addend: 0x0, symName: '__ZN4core3ptr156drop_in_place$LT$alloc..boxed..Box$LT$$u5b$core..option..Option$LT$core..option..Option$LT$std..backtrace_rs..symbolize..gimli..Mapping$GT$$GT$$u5d$$GT$$GT$17h662502e0fd7f60b9E', symObjAddr: 0x2820, symBinAddr: 0x100014CF0, symSize: 0xF8 }
  - { offset: 0x3AD74, size: 0x8, addend: 0x0, symName: '__ZN4core3ptr159drop_in_place$LT$alloc..sync..ArcInner$LT$gimli..read..dwarf..Dwarf$LT$gimli..read..endian_slice..EndianSlice$LT$gimli..endianity..LittleEndian$GT$$GT$$GT$$GT$17ha75a7326775ef05eE', symObjAddr: 0x2918, symBinAddr: 0x100014DE8, symSize: 0x5C }
  - { offset: 0x3AE39, size: 0x8, addend: 0x0, symName: '__ZN4core3ptr161drop_in_place$LT$alloc..vec..Vec$LT$addr2line..function..LazyFunction$LT$gimli..read..endian_slice..EndianSlice$LT$gimli..endianity..LittleEndian$GT$$GT$$GT$$GT$17hd921ce6f632b87b3E', symObjAddr: 0x2974, symBinAddr: 0x100014E44, symSize: 0xAC }
  - { offset: 0x3B076, size: 0x8, addend: 0x0, symName: '__ZN4core3ptr172drop_in_place$LT$core..result..Result$LT$addr2line..Context$LT$gimli..read..endian_slice..EndianSlice$LT$gimli..endianity..LittleEndian$GT$$GT$$C$gimli..read..Error$GT$$GT$17h1cda5e1d1a7951dcE', symObjAddr: 0x2ACC, symBinAddr: 0x100014EF0, symSize: 0x80 }
  - { offset: 0x3B10B, size: 0x8, addend: 0x0, symName: '__ZN4core3ptr173drop_in_place$LT$alloc..boxed..Box$LT$$u5b$addr2line..function..LazyFunction$LT$gimli..read..endian_slice..EndianSlice$LT$gimli..endianity..LittleEndian$GT$$GT$$u5d$$GT$$GT$17h34d35d9ea3d3b9d5E', symObjAddr: 0x2B4C, symBinAddr: 0x100014F70, symSize: 0x9C }
  - { offset: 0x3B122, size: 0x8, addend: 0x0, symName: '__ZN4core3ptr173drop_in_place$LT$alloc..boxed..Box$LT$$u5b$addr2line..function..LazyFunction$LT$gimli..read..endian_slice..EndianSlice$LT$gimli..endianity..LittleEndian$GT$$GT$$u5d$$GT$$GT$17h34d35d9ea3d3b9d5E', symObjAddr: 0x2B4C, symBinAddr: 0x100014F70, symSize: 0x9C }
  - { offset: 0x3B367, size: 0x8, addend: 0x0, symName: '__ZN4core3ptr181drop_in_place$LT$core..option..Option$LT$gimli..read..line..IncompleteLineProgram$LT$gimli..read..endian_slice..EndianSlice$LT$gimli..endianity..LittleEndian$GT$$C$usize$GT$$GT$$GT$17h59a58c9c9c958e24E', symObjAddr: 0x2C58, symBinAddr: 0x10001500C, symSize: 0x98 }
  - { offset: 0x3B622, size: 0x8, addend: 0x0, symName: '__ZN4core3ptr181drop_in_place$LT$core..result..Result$LT$addr2line..frame..FrameIter$LT$gimli..read..endian_slice..EndianSlice$LT$gimli..endianity..LittleEndian$GT$$GT$$C$gimli..read..Error$GT$$GT$17h49f2f998bcc2f32aE', symObjAddr: 0x2CF0, symBinAddr: 0x1000150A4, symSize: 0x34 }
  - { offset: 0x3B760, size: 0x8, addend: 0x0, symName: '__ZN4core3ptr184drop_in_place$LT$core..result..Result$LT$addr2line..function..Functions$LT$gimli..read..endian_slice..EndianSlice$LT$gimli..endianity..LittleEndian$GT$$GT$$C$gimli..read..Error$GT$$GT$17h10dd28e922629511E', symObjAddr: 0x2D24, symBinAddr: 0x1000150D8, symSize: 0xD8 }
  - { offset: 0x3C2F2, size: 0x8, addend: 0x0, symName: '__ZN4core3ptr194drop_in_place$LT$core..result..Result$LT$std..sync..poison..mutex..MutexGuard$LT$$LP$$RP$$GT$$C$std..sync..poison..PoisonError$LT$std..sync..poison..mutex..MutexGuard$LT$$LP$$RP$$GT$$GT$$GT$$GT$17ha7e54304228a066cE', symObjAddr: 0x2E70, symBinAddr: 0x1000151B0, symSize: 0x4C }
  - { offset: 0x3C322, size: 0x8, addend: 0x0, symName: '__ZN4core3ptr199drop_in_place$LT$core..result..Result$LT$core..option..Option$LT$alloc..sync..Arc$LT$std..sync..poison..mutex..Mutex$LT$alloc..vec..Vec$LT$u8$GT$$GT$$GT$$GT$$C$std..thread..local..AccessError$GT$$GT$17hc820eafe807d521eE', symObjAddr: 0x2EBC, symBinAddr: 0x1000151FC, symSize: 0x2C }
  - { offset: 0x3C3E9, size: 0x8, addend: 0x0, symName: '__ZN4core3ptr231drop_in_place$LT$core..result..Result$LT$core..option..Option$LT$alloc..boxed..Box$LT$addr2line..unit..DwoUnit$LT$gimli..read..endian_slice..EndianSlice$LT$gimli..endianity..LittleEndian$GT$$GT$$GT$$GT$$C$gimli..read..Error$GT$$GT$17hdbd1f85fa898eaf9E', symObjAddr: 0x2EE8, symBinAddr: 0x100015228, symSize: 0xD4 }
  - { offset: 0x3C5D2, size: 0x8, addend: 0x0, symName: '__ZN4core3ptr275drop_in_place$LT$gimli..read..line..LineRows$LT$gimli..read..endian_slice..EndianSlice$LT$gimli..endianity..LittleEndian$GT$$C$gimli..read..line..IncompleteLineProgram$LT$gimli..read..endian_slice..EndianSlice$LT$gimli..endianity..LittleEndian$GT$$C$usize$GT$$C$usize$GT$$GT$17hebba07efb64a969cE', symObjAddr: 0x2FD4, symBinAddr: 0x1000152FC, symSize: 0x8C }
  - { offset: 0x3C847, size: 0x8, addend: 0x0, symName: '__ZN4core3ptr280drop_in_place$LT$$LT$alloc..collections..btree..map..IntoIter$LT$K$C$V$C$A$GT$$u20$as$u20$core..ops..drop..Drop$GT$..drop..DropGuard$LT$u64$C$core..result..Result$LT$alloc..sync..Arc$LT$gimli..read..abbrev..Abbreviations$GT$$C$gimli..read..Error$GT$$C$alloc..alloc..Global$GT$$GT$17h605d7228f128decdE', symObjAddr: 0x3060, symBinAddr: 0x100015388, symSize: 0x84 }
  - { offset: 0x3C9B7, size: 0x8, addend: 0x0, symName: '__ZN4core3ptr284drop_in_place$LT$core..result..Result$LT$$RF$core..result..Result$LT$addr2line..line..Lines$C$gimli..read..Error$GT$$C$$LP$$RF$core..result..Result$LT$addr2line..line..Lines$C$gimli..read..Error$GT$$C$core..result..Result$LT$addr2line..line..Lines$C$gimli..read..Error$GT$$RP$$GT$$GT$17h4c3f39ee410886d9E', symObjAddr: 0x30E4, symBinAddr: 0x10001540C, symSize: 0x14 }
  - { offset: 0x3CA12, size: 0x8, addend: 0x0, symName: '__ZN4core3ptr37drop_in_place$LT$std..env..VarsOs$GT$17h691c0706c4a0a296E', symObjAddr: 0x30F8, symBinAddr: 0x100015420, symSize: 0xAC }
  - { offset: 0x3CD11, size: 0x8, addend: 0x0, symName: '__ZN4core3ptr42drop_in_place$LT$alloc..string..String$GT$17hac81f7a4d168ae64E', symObjAddr: 0x32AC, symBinAddr: 0x1000154CC, symSize: 0x18 }
  - { offset: 0x3CD28, size: 0x8, addend: 0x0, symName: '__ZN4core3ptr42drop_in_place$LT$alloc..string..String$GT$17hac81f7a4d168ae64E', symObjAddr: 0x32AC, symBinAddr: 0x1000154CC, symSize: 0x18 }
  - { offset: 0x3CDEC, size: 0x8, addend: 0x0, symName: '__ZN4core3ptr42drop_in_place$LT$std..io..error..Error$GT$17habd70f1b431d348cE', symObjAddr: 0x32C4, symBinAddr: 0x1000154E4, symSize: 0xAC }
  - { offset: 0x3D016, size: 0x8, addend: 0x0, symName: '__ZN4core3ptr44drop_in_place$LT$object..read..ObjectMap$GT$17h70ce07c320cc7419E', symObjAddr: 0x3370, symBinAddr: 0x100015590, symSize: 0x58 }
  - { offset: 0x3D145, size: 0x8, addend: 0x0, symName: '__ZN4core3ptr46drop_in_place$LT$alloc..vec..Vec$LT$u8$GT$$GT$17hb337dff62f58fd0bE', symObjAddr: 0x3434, symBinAddr: 0x1000155E8, symSize: 0x18 }
  - { offset: 0x3D1D2, size: 0x8, addend: 0x0, symName: '__ZN4core3ptr46drop_in_place$LT$std..io..stdio..StdinLock$GT$17hb805540b2d8fd9f7E', symObjAddr: 0x344C, symBinAddr: 0x100015600, symSize: 0x54 }
  - { offset: 0x3D1E9, size: 0x8, addend: 0x0, symName: '__ZN4core3ptr46drop_in_place$LT$std..io..stdio..StdinLock$GT$17hb805540b2d8fd9f7E', symObjAddr: 0x344C, symBinAddr: 0x100015600, symSize: 0x54 }
  - { offset: 0x3D1FE, size: 0x8, addend: 0x0, symName: '__ZN4core3ptr46drop_in_place$LT$std..io..stdio..StdinLock$GT$17hb805540b2d8fd9f7E', symObjAddr: 0x344C, symBinAddr: 0x100015600, symSize: 0x54 }
  - { offset: 0x3D2F0, size: 0x8, addend: 0x0, symName: '__ZN4core3ptr48drop_in_place$LT$alloc..ffi..c_str..NulError$GT$17h0aa90617c2ef35ffE', symObjAddr: 0x3584, symBinAddr: 0x100015654, symSize: 0x18 }
  - { offset: 0x3D307, size: 0x8, addend: 0x0, symName: '__ZN4core3ptr48drop_in_place$LT$alloc..ffi..c_str..NulError$GT$17h0aa90617c2ef35ffE', symObjAddr: 0x3584, symBinAddr: 0x100015654, symSize: 0x18 }
  - { offset: 0x3D393, size: 0x8, addend: 0x0, symName: '__ZN4core3ptr557drop_in_place$LT$core..result..Result$LT$$RF$core..result..Result$LT$addr2line..function..Function$LT$gimli..read..endian_slice..EndianSlice$LT$gimli..endianity..LittleEndian$GT$$GT$$C$gimli..read..Error$GT$$C$$LP$$RF$core..result..Result$LT$addr2line..function..Function$LT$gimli..read..endian_slice..EndianSlice$LT$gimli..endianity..LittleEndian$GT$$GT$$C$gimli..read..Error$GT$$C$core..result..Result$LT$addr2line..function..Function$LT$gimli..read..endian_slice..EndianSlice$LT$gimli..endianity..LittleEndian$GT$$GT$$C$gimli..read..Error$GT$$RP$$GT$$GT$17h748b27d3ad91b666E', symObjAddr: 0x37B0, symBinAddr: 0x10001566C, symSize: 0x64 }
  - { offset: 0x3D57D, size: 0x8, addend: 0x0, symName: '__ZN4core3ptr55drop_in_place$LT$gimli..read..abbrev..Abbreviations$GT$17h5d64ddc376f7673eE', symObjAddr: 0x3814, symBinAddr: 0x1000156D0, symSize: 0x118 }
  - { offset: 0x3D8E0, size: 0x8, addend: 0x0, symName: '__ZN4core3ptr560drop_in_place$LT$core..result..Result$LT$$RF$core..result..Result$LT$addr2line..function..Functions$LT$gimli..read..endian_slice..EndianSlice$LT$gimli..endianity..LittleEndian$GT$$GT$$C$gimli..read..Error$GT$$C$$LP$$RF$core..result..Result$LT$addr2line..function..Functions$LT$gimli..read..endian_slice..EndianSlice$LT$gimli..endianity..LittleEndian$GT$$GT$$C$gimli..read..Error$GT$$C$core..result..Result$LT$addr2line..function..Functions$LT$gimli..read..endian_slice..EndianSlice$LT$gimli..endianity..LittleEndian$GT$$GT$$C$gimli..read..Error$GT$$RP$$GT$$GT$17h20f4a6896059bba5E', symObjAddr: 0x39B0, symBinAddr: 0x1000157E8, symSize: 0x14 }
  - { offset: 0x3D93B, size: 0x8, addend: 0x0, symName: '__ZN4core3ptr60drop_in_place$LT$gimli..read..abbrev..AbbreviationsCache$GT$17h07c70485ebd56478E', symObjAddr: 0x39C4, symBinAddr: 0x1000157FC, symSize: 0xCC }
  - { offset: 0x3DB02, size: 0x8, addend: 0x0, symName: '__ZN4core3ptr64drop_in_place$LT$std..sys..pal..unix..sync..mutex..AttrGuard$GT$17h0a5906221301930bE', symObjAddr: 0x3B1C, symBinAddr: 0x1000158C8, symSize: 0x48 }
  - { offset: 0x3DB33, size: 0x8, addend: 0x0, symName: '__ZN4core3ptr64drop_in_place$LT$std..sys..process..unix..common..ChildPipes$GT$17h10e8f412fa846c73E', symObjAddr: 0x3B64, symBinAddr: 0x100015910, symSize: 0x78 }
  - { offset: 0x3DC43, size: 0x8, addend: 0x0, symName: '__ZN4core3ptr64drop_in_place$LT$std..sys..process..unix..common..StdioPipes$GT$17hf4120600f772654aE', symObjAddr: 0x3BDC, symBinAddr: 0x100015988, symSize: 0x54 }
  - { offset: 0x3DDBB, size: 0x8, addend: 0x0, symName: '__ZN4core3ptr65drop_in_place$LT$alloc..vec..Vec$LT$alloc..string..String$GT$$GT$17h66cdbc24d9622501E', symObjAddr: 0x3C30, symBinAddr: 0x1000159DC, symSize: 0x80 }
  - { offset: 0x3DF59, size: 0x8, addend: 0x0, symName: '__ZN4core3ptr65drop_in_place$LT$std..backtrace_rs..symbolize..gimli..Context$GT$17h164c0942f12400dbE', symObjAddr: 0x3CB0, symBinAddr: 0x100015A5C, symSize: 0xE8 }
  - { offset: 0x3E1EB, size: 0x8, addend: 0x0, symName: '__ZN4core3ptr66drop_in_place$LT$std..backtrace_rs..backtrace..libunwind..Bomb$GT$17h551fed0d2b731830E', symObjAddr: 0x3D98, symBinAddr: 0x100015B44, symSize: 0x40 }
  - { offset: 0x3E237, size: 0x8, addend: 0x0, symName: '__ZN4core3ptr701drop_in_place$LT$core..result..Result$LT$$RF$core..result..Result$LT$core..option..Option$LT$alloc..boxed..Box$LT$addr2line..unit..DwoUnit$LT$gimli..read..endian_slice..EndianSlice$LT$gimli..endianity..LittleEndian$GT$$GT$$GT$$GT$$C$gimli..read..Error$GT$$C$$LP$$RF$core..result..Result$LT$core..option..Option$LT$alloc..boxed..Box$LT$addr2line..unit..DwoUnit$LT$gimli..read..endian_slice..EndianSlice$LT$gimli..endianity..LittleEndian$GT$$GT$$GT$$GT$$C$gimli..read..Error$GT$$C$core..result..Result$LT$core..option..Option$LT$alloc..boxed..Box$LT$addr2line..unit..DwoUnit$LT$gimli..read..endian_slice..EndianSlice$LT$gimli..endianity..LittleEndian$GT$$GT$$GT$$GT$$C$gimli..read..Error$GT$$RP$$GT$$GT$17h99be7971756b6652E', symObjAddr: 0x3DD8, symBinAddr: 0x100015B84, symSize: 0x14 }
  - { offset: 0x3E2D8, size: 0x8, addend: 0x0, symName: '__ZN4core3ptr70drop_in_place$LT$std..backtrace_rs..symbolize..gimli..stash..Stash$GT$17hf2d48d9015d0f7c8E', symObjAddr: 0x3E6C, symBinAddr: 0x100015B98, symSize: 0xB8 }
  - { offset: 0x3E57E, size: 0x8, addend: 0x0, symName: '__ZN4core3ptr71drop_in_place$LT$std..backtrace_rs..symbolize..gimli..macho..Object$GT$17h8bb3839755842750E', symObjAddr: 0x3F24, symBinAddr: 0x100015C50, symSize: 0xD8 }
  - { offset: 0x3E851, size: 0x8, addend: 0x0, symName: '__ZN4core3ptr72drop_in_place$LT$core..option..Option$LT$object..read..ObjectMap$GT$$GT$17hc7c56c88aae4c5fcE', symObjAddr: 0x4068, symBinAddr: 0x100015D28, symSize: 0x64 }
  - { offset: 0x3E9CE, size: 0x8, addend: 0x0, symName: '__ZN4core3ptr73drop_in_place$LT$alloc..vec..Vec$LT$addr2line..line..LineSequence$GT$$GT$17he296d46dd6d5cbabE', symObjAddr: 0x40CC, symBinAddr: 0x100015D8C, symSize: 0x84 }
  - { offset: 0x3EB34, size: 0x8, addend: 0x0, symName: '__ZN4core3ptr77drop_in_place$LT$alloc..boxed..Box$LT$$u5b$alloc..string..String$u5d$$GT$$GT$17hc446220f14ad3f54E', symObjAddr: 0x4188, symBinAddr: 0x100015E10, symSize: 0x70 }
  - { offset: 0x3EB4B, size: 0x8, addend: 0x0, symName: '__ZN4core3ptr77drop_in_place$LT$alloc..boxed..Box$LT$$u5b$alloc..string..String$u5d$$GT$$GT$17hc446220f14ad3f54E', symObjAddr: 0x4188, symBinAddr: 0x100015E10, symSize: 0x70 }
  - { offset: 0x3EC57, size: 0x8, addend: 0x0, symName: '__ZN4core3ptr77drop_in_place$LT$std..panicking..begin_panic_handler..FormatStringPayload$GT$17h6fcfcc78704673e3E', symObjAddr: 0x41F8, symBinAddr: 0x100015E80, symSize: 0x24 }
  - { offset: 0x3ED13, size: 0x8, addend: 0x0, symName: '__ZN4core3ptr78drop_in_place$LT$core..result..Result$LT$usize$C$std..io..error..Error$GT$$GT$17h2f8ac36bcb547dffE', symObjAddr: 0x421C, symBinAddr: 0x100015EA4, symSize: 0x14 }
  - { offset: 0x3ED27, size: 0x8, addend: 0x0, symName: '__ZN4core3ptr79drop_in_place$LT$std..sync..poison..rwlock..RwLockReadGuard$LT$$LP$$RP$$GT$$GT$17hc54fd0027bbd6d30E', symObjAddr: 0x4230, symBinAddr: 0x100015EB8, symSize: 0x58 }
  - { offset: 0x3EDC3, size: 0x8, addend: 0x0, symName: '__ZN4core3ptr81drop_in_place$LT$core..result..Result$LT$$LP$$RP$$C$std..io..error..Error$GT$$GT$17ha905afa1a1b69da6E', symObjAddr: 0x4288, symBinAddr: 0x100015F10, symSize: 0x10 }
  - { offset: 0x3EDF3, size: 0x8, addend: 0x0, symName: '__ZN4core3ptr81drop_in_place$LT$std..sys..process..unix..common..cstring_array..CStringArray$GT$17h601d89b39b80fabfE', symObjAddr: 0x4298, symBinAddr: 0x100015F20, symSize: 0xD0 }
  - { offset: 0x3F116, size: 0x8, addend: 0x0, symName: '__ZN4core3ptr82drop_in_place$LT$alloc..sync..ArcInner$LT$std..sys..fs..unix..InnerReadDir$GT$$GT$17h5d4f495acfd7dae8E', symObjAddr: 0x4368, symBinAddr: 0x100015FF0, symSize: 0x60 }
  - { offset: 0x3F2B9, size: 0x8, addend: 0x0, symName: '__ZN4core3ptr84drop_in_place$LT$$LP$std..ffi..os_str..OsString$C$std..ffi..os_str..OsString$RP$$GT$17h62ddf8343f8db47bE', symObjAddr: 0x43C8, symBinAddr: 0x100016050, symSize: 0x4C }
  - { offset: 0x3F43E, size: 0x8, addend: 0x0, symName: '__ZN4core3ptr90drop_in_place$LT$std..io..buffered..bufwriter..BufWriter$LT$W$GT$..flush_buf..BufGuard$GT$17he92d49b51e4ad54fE', symObjAddr: 0x4450, symBinAddr: 0x10001609C, symSize: 0x60 }
  - { offset: 0x3F5C5, size: 0x8, addend: 0x0, symName: '__ZN4core3ptr92drop_in_place$LT$core..result..Result$LT$addr2line..line..Lines$C$gimli..read..Error$GT$$GT$17h0ed91c593b269246E', symObjAddr: 0x4508, symBinAddr: 0x1000160FC, symSize: 0xE4 }
  - { offset: 0x3F80B, size: 0x8, addend: 0x0, symName: '__ZN4core3ptr93drop_in_place$LT$core..option..Option$LT$std..backtrace_rs..symbolize..gimli..Mapping$GT$$GT$17h110055b033f66c0fE', symObjAddr: 0x45EC, symBinAddr: 0x1000161E0, symSize: 0x6C }
  - { offset: 0x3F8A8, size: 0x8, addend: 0x0, symName: '__ZN4core3ptr95drop_in_place$LT$std..io..buffered..linewriter..LineWriter$LT$std..io..stdio..StdoutRaw$GT$$GT$17hc5979ba65a107f72E', symObjAddr: 0x4658, symBinAddr: 0x10001624C, symSize: 0xF8 }
  - { offset: 0x42AF3, size: 0x8, addend: 0x0, symName: __ZN4core5slice4sort6stable14driftsort_main17h521ab17a5a757164E, symObjAddr: 0x9098, symBinAddr: 0x100017CC4, symSize: 0x140 }
  - { offset: 0x42D96, size: 0x8, addend: 0x0, symName: __ZN4core5slice4sort6stable14driftsort_main17ha9075508af06de20E, symObjAddr: 0x91D8, symBinAddr: 0x100017E04, symSize: 0x164 }
  - { offset: 0x4308F, size: 0x8, addend: 0x0, symName: __ZN4core5slice4sort6stable14driftsort_main17hb0662f4917d01b7dE, symObjAddr: 0x933C, symBinAddr: 0x100017F68, symSize: 0x140 }
  - { offset: 0x43332, size: 0x8, addend: 0x0, symName: __ZN4core5slice4sort6stable14driftsort_main17hbec9c5ede644b796E, symObjAddr: 0x947C, symBinAddr: 0x1000180A8, symSize: 0x164 }
  - { offset: 0x4362B, size: 0x8, addend: 0x0, symName: __ZN4core5slice4sort6stable14driftsort_main17hc6af17bd05ac089fE, symObjAddr: 0x95E0, symBinAddr: 0x10001820C, symSize: 0x140 }
  - { offset: 0x4384C, size: 0x8, addend: 0x0, symName: __ZN4core5slice4sort6stable14driftsort_main17hfd7dcf5984234633E, symObjAddr: 0x9720, symBinAddr: 0x10001834C, symSize: 0x140 }
  - { offset: 0x43CE0, size: 0x8, addend: 0x0, symName: __ZN4core5slice4sort6stable5drift4sort17h6aaaaf784e659385E, symObjAddr: 0x9860, symBinAddr: 0x10001848C, symSize: 0x4E0 }
  - { offset: 0x442CF, size: 0x8, addend: 0x0, symName: __ZN4core5slice4sort6stable5drift4sort17h866748af94df36ccE, symObjAddr: 0x9D40, symBinAddr: 0x10001896C, symSize: 0x538 }
  - { offset: 0x44962, size: 0x8, addend: 0x0, symName: __ZN4core5slice4sort6stable5drift4sort17h9ccd45f18f7947baE, symObjAddr: 0xA278, symBinAddr: 0x100018EA4, symSize: 0x4F8 }
  - { offset: 0x44FE1, size: 0x8, addend: 0x0, symName: __ZN4core5slice4sort6stable5drift4sort17haa5e5863b64b9a60E, symObjAddr: 0xA770, symBinAddr: 0x10001939C, symSize: 0x5EC }
  - { offset: 0x4569B, size: 0x8, addend: 0x0, symName: __ZN4core5slice4sort6stable5drift4sort17hb68090b03a5248c3E, symObjAddr: 0xAD5C, symBinAddr: 0x100019988, symSize: 0x530 }
  - { offset: 0x45D06, size: 0x8, addend: 0x0, symName: __ZN4core5slice4sort6stable5drift4sort17he935295b9297be3dE, symObjAddr: 0xB28C, symBinAddr: 0x100019EB8, symSize: 0x4F8 }
  - { offset: 0x46589, size: 0x8, addend: 0x0, symName: __ZN4core5slice4sort6stable9quicksort9quicksort17h0ca9f036defe4ca1E, symObjAddr: 0xB784, symBinAddr: 0x10001A3B0, symSize: 0x834 }
  - { offset: 0x47174, size: 0x8, addend: 0x0, symName: __ZN4core5slice4sort6stable9quicksort9quicksort17h0dcd6807bb10c1ddE, symObjAddr: 0xBFB8, symBinAddr: 0x10001ABE4, symSize: 0x6D8 }
  - { offset: 0x47C34, size: 0x8, addend: 0x0, symName: __ZN4core5slice4sort6stable9quicksort9quicksort17h403c35809902d95cE, symObjAddr: 0xC690, symBinAddr: 0x10001B2BC, symSize: 0x74C }
  - { offset: 0x48379, size: 0x8, addend: 0x0, symName: __ZN4core5slice4sort6stable9quicksort9quicksort17h52ed04d04eb94d9aE, symObjAddr: 0xCDDC, symBinAddr: 0x10001BA08, symSize: 0x834 }
  - { offset: 0x49310, size: 0x8, addend: 0x0, symName: __ZN4core5slice4sort6stable9quicksort9quicksort17h6a6db67da80ded8fE, symObjAddr: 0xD610, symBinAddr: 0x10001C23C, symSize: 0x6E0 }
  - { offset: 0x49DD0, size: 0x8, addend: 0x0, symName: __ZN4core5slice4sort6stable9quicksort9quicksort17hfc1631ac0f214f19E, symObjAddr: 0xDCF0, symBinAddr: 0x10001C91C, symSize: 0x810 }
  - { offset: 0x4AA4C, size: 0x8, addend: 0x0, symName: __ZN4core5slice4sort6shared9smallsort12sort4_stable17h31fac7551cf33bd2E, symObjAddr: 0x7F40, symBinAddr: 0x100016B6C, symSize: 0x194 }
  - { offset: 0x4ABF9, size: 0x8, addend: 0x0, symName: __ZN4core5slice4sort6shared9smallsort12sort4_stable17hf90c0556197dda99E, symObjAddr: 0x80D4, symBinAddr: 0x100016D00, symSize: 0x180 }
  - { offset: 0x4B01B, size: 0x8, addend: 0x0, symName: __ZN4core5slice4sort6shared9smallsort12sort8_stable17hf7b6a991869544ccE, symObjAddr: 0x8254, symBinAddr: 0x100016E80, symSize: 0x2B8 }
  - { offset: 0x4B504, size: 0x8, addend: 0x0, symName: __ZN4core5slice4sort6shared9smallsort18small_sort_general17h034e2245b0bf43b0E, symObjAddr: 0x850C, symBinAddr: 0x100017138, symSize: 0x400 }
  - { offset: 0x4BA71, size: 0x8, addend: 0x0, symName: __ZN4core5slice4sort6shared9smallsort18small_sort_general17h87ad8da531a3f31aE, symObjAddr: 0x890C, symBinAddr: 0x100017538, symSize: 0x4A4 }
  - { offset: 0x4C169, size: 0x8, addend: 0x0, symName: __ZN4core5slice4sort6shared9smallsort25insertion_sort_shift_left17h42562c73653bb666E, symObjAddr: 0x8DB0, symBinAddr: 0x1000179DC, symSize: 0xA8 }
  - { offset: 0x4C241, size: 0x8, addend: 0x0, symName: __ZN4core5slice4sort6shared9smallsort25insertion_sort_shift_left17ha2f1b9cdd766aaa4E, symObjAddr: 0x8E58, symBinAddr: 0x100017A84, symSize: 0xB8 }
  - { offset: 0x4C36F, size: 0x8, addend: 0x0, symName: __ZN4core5slice4sort6shared9smallsort25insertion_sort_shift_left17hbf93252988a52ab7E, symObjAddr: 0x8F10, symBinAddr: 0x100017B3C, symSize: 0x94 }
  - { offset: 0x4C439, size: 0x8, addend: 0x0, symName: __ZN4core5slice4sort6shared9smallsort25insertion_sort_shift_left17hd501c44f9cc25640E, symObjAddr: 0x8FA4, symBinAddr: 0x100017BD0, symSize: 0xF4 }
  - { offset: 0x4C836, size: 0x8, addend: 0x0, symName: __ZN4core5slice4sort6shared5pivot11median3_rec17h0df86c062c3307f3E, symObjAddr: 0x781C, symBinAddr: 0x100016448, symSize: 0x11C }
  - { offset: 0x4C932, size: 0x8, addend: 0x0, symName: __ZN4core5slice4sort6shared5pivot11median3_rec17h4e5272a39440c6fcE, symObjAddr: 0x7938, symBinAddr: 0x100016564, symSize: 0xCC }
  - { offset: 0x4CA57, size: 0x8, addend: 0x0, symName: __ZN4core5slice4sort6shared5pivot11median3_rec17h5a457aecc5390e2dE, symObjAddr: 0x7A04, symBinAddr: 0x100016630, symSize: 0xD0 }
  - { offset: 0x4CB52, size: 0x8, addend: 0x0, symName: __ZN4core5slice4sort6shared5pivot11median3_rec17h63b3210c63d487e5E, symObjAddr: 0x7AD4, symBinAddr: 0x100016700, symSize: 0xD0 }
  - { offset: 0x4CC4B, size: 0x8, addend: 0x0, symName: __ZN4core5slice4sort6shared5pivot11median3_rec17h6546c17569d2c228E, symObjAddr: 0x7BA4, symBinAddr: 0x1000167D0, symSize: 0x134 }
  - { offset: 0x4CE72, size: 0x8, addend: 0x0, symName: __ZN4core5slice4sort6shared5pivot11median3_rec17h825498fa0147afcdE, symObjAddr: 0x7CD8, symBinAddr: 0x100016904, symSize: 0xCC }
  - { offset: 0x4CF6B, size: 0x8, addend: 0x0, symName: __ZN4core5slice4sort6shared5pivot11median3_rec17hcc5592aee9a962d6E, symObjAddr: 0x7DA4, symBinAddr: 0x1000169D0, symSize: 0xCC }
  - { offset: 0x4D064, size: 0x8, addend: 0x0, symName: __ZN4core5slice4sort6shared5pivot11median3_rec17hd5918a3d1c875d2dE, symObjAddr: 0x7E70, symBinAddr: 0x100016A9C, symSize: 0xD0 }
  - { offset: 0x4D227, size: 0x8, addend: 0x0, symName: __ZN4core5slice4sort8unstable7ipnsort17h3050acbcca3cb150E, symObjAddr: 0xE500, symBinAddr: 0x10001D12C, symSize: 0xEC }
  - { offset: 0x4D369, size: 0x8, addend: 0x0, symName: __ZN4core5slice4sort8unstable7ipnsort17hfd87871531817c09E, symObjAddr: 0xE5EC, symBinAddr: 0x10001D218, symSize: 0x1A8 }
  - { offset: 0x4D63D, size: 0x8, addend: 0x0, symName: __ZN4core5slice4sort8unstable8heapsort8heapsort17h018ffb6550069dc5E, symObjAddr: 0xE794, symBinAddr: 0x10001D3C0, symSize: 0x100 }
  - { offset: 0x4D829, size: 0x8, addend: 0x0, symName: __ZN4core5slice4sort8unstable8heapsort8heapsort17h13deb584184321b4E, symObjAddr: 0xE894, symBinAddr: 0x10001D4C0, symSize: 0x160 }
  - { offset: 0x4DBAC, size: 0x8, addend: 0x0, symName: __ZN4core5slice4sort8unstable9quicksort9quicksort17h6207a09384b1d73eE, symObjAddr: 0xE9F4, symBinAddr: 0x10001D620, symSize: 0x598 }
  - { offset: 0x4E742, size: 0x8, addend: 0x0, symName: __ZN4core5slice4sort8unstable9quicksort9quicksort17hf6b9320c24c346cdE, symObjAddr: 0xEF8C, symBinAddr: 0x10001DBB8, symSize: 0x408 }
  - { offset: 0x4F0FE, size: 0x8, addend: 0x0, symName: '__ZN36_$LT$T$u20$as$u20$core..any..Any$GT$7type_id17hca9570fd9e3ed26eE', symObjAddr: 0x160, symBinAddr: 0x10001390C, symSize: 0x24 }
  - { offset: 0x4F118, size: 0x8, addend: 0x0, symName: '__ZN36_$LT$T$u20$as$u20$core..any..Any$GT$7type_id17he4b6f1bd2d030df3E', symObjAddr: 0x184, symBinAddr: 0x100013930, symSize: 0x24 }
  - { offset: 0x4F186, size: 0x8, addend: 0x0, symName: '__ZN42_$LT$$RF$T$u20$as$u20$core..fmt..Debug$GT$3fmt17h0fc7b8965e6afc5aE', symObjAddr: 0x4CC, symBinAddr: 0x100013954, symSize: 0x74 }
  - { offset: 0x4F21A, size: 0x8, addend: 0x0, symName: '__ZN42_$LT$$RF$T$u20$as$u20$core..fmt..Debug$GT$3fmt17h2958e9215852db4aE', symObjAddr: 0x540, symBinAddr: 0x1000139C8, symSize: 0x1C }
  - { offset: 0x4F260, size: 0x8, addend: 0x0, symName: '__ZN42_$LT$$RF$T$u20$as$u20$core..fmt..Debug$GT$3fmt17h2bb2d350b34dfff8E', symObjAddr: 0x55C, symBinAddr: 0x1000139E4, symSize: 0x10 }
  - { offset: 0x4F291, size: 0x8, addend: 0x0, symName: '__ZN42_$LT$$RF$T$u20$as$u20$core..fmt..Debug$GT$3fmt17h83b5ff28188540c2E', symObjAddr: 0x7FC, symBinAddr: 0x1000139F4, symSize: 0x14 }
  - { offset: 0x4F2C2, size: 0x8, addend: 0x0, symName: '__ZN42_$LT$$RF$T$u20$as$u20$core..fmt..Debug$GT$3fmt17h8ac30dcc9c5b5849E', symObjAddr: 0x8B0, symBinAddr: 0x100013A08, symSize: 0x74 }
  - { offset: 0x4F3D9, size: 0x8, addend: 0x0, symName: '__ZN42_$LT$$RF$T$u20$as$u20$core..fmt..Debug$GT$3fmt17h8aff657d191ad3c5E', symObjAddr: 0x924, symBinAddr: 0x100013A7C, symSize: 0x1C }
  - { offset: 0x4F41F, size: 0x8, addend: 0x0, symName: '__ZN42_$LT$$RF$T$u20$as$u20$core..fmt..Debug$GT$3fmt17ha21c7837cadbd3f5E', symObjAddr: 0x9B8, symBinAddr: 0x100013A98, symSize: 0x10 }
  - { offset: 0x4F441, size: 0x8, addend: 0x0, symName: '__ZN42_$LT$$RF$T$u20$as$u20$core..fmt..Debug$GT$3fmt17heec2750af2870f2eE', symObjAddr: 0xB68, symBinAddr: 0x100013AA8, symSize: 0x9C }
  - { offset: 0x4F57E, size: 0x8, addend: 0x0, symName: '__ZN4core3fmt3num50_$LT$impl$u20$core..fmt..Debug$u20$for$u20$i32$GT$3fmt17h31c367ae7db50eaeE', symObjAddr: 0xDA0, symBinAddr: 0x100013BCC, symSize: 0x18 }
  - { offset: 0x4F595, size: 0x8, addend: 0x0, symName: '__ZN4core3fmt3num50_$LT$impl$u20$core..fmt..Debug$u20$for$u20$i32$GT$3fmt17h31c367ae7db50eaeE', symObjAddr: 0xDA0, symBinAddr: 0x100013BCC, symSize: 0x18 }
  - { offset: 0x4F5C0, size: 0x8, addend: 0x0, symName: '__ZN4core3fmt3num52_$LT$impl$u20$core..fmt..Debug$u20$for$u20$usize$GT$3fmt17hd9a44c73645affdaE', symObjAddr: 0xE00, symBinAddr: 0x100013BE4, symSize: 0x18 }
  - { offset: 0x4F5D7, size: 0x8, addend: 0x0, symName: '__ZN4core3fmt3num52_$LT$impl$u20$core..fmt..Debug$u20$for$u20$usize$GT$3fmt17hd9a44c73645affdaE', symObjAddr: 0xE00, symBinAddr: 0x100013BE4, symSize: 0x18 }
  - { offset: 0x4F611, size: 0x8, addend: 0x0, symName: '__ZN44_$LT$$RF$T$u20$as$u20$core..fmt..Display$GT$3fmt17h7aede7e1fafa8ecfE', symObjAddr: 0xCEC, symBinAddr: 0x100013B44, symSize: 0x10 }
  - { offset: 0x4F62C, size: 0x8, addend: 0x0, symName: '__ZN44_$LT$$RF$T$u20$as$u20$core..fmt..Display$GT$3fmt17hcdc89f6b7cdef95fE', symObjAddr: 0xCFC, symBinAddr: 0x100013B54, symSize: 0x78 }
  - { offset: 0x4FA35, size: 0x8, addend: 0x0, symName: __ZN4core3fmt5Write10write_char17h45384c06e74ab019E, symObjAddr: 0xE18, symBinAddr: 0x100013BFC, symSize: 0x150 }
  - { offset: 0x4FBCC, size: 0x8, addend: 0x0, symName: __ZN4core3fmt5Write10write_char17h9a7a54bb0ca7d9cdE, symObjAddr: 0x10E8, symBinAddr: 0x100013D4C, symSize: 0x128 }
  - { offset: 0x4FD87, size: 0x8, addend: 0x0, symName: __ZN4core3fmt5Write10write_char17hb7b510f6e91dde12E, symObjAddr: 0x1350, symBinAddr: 0x100013E74, symSize: 0x180 }
  - { offset: 0x4FF34, size: 0x8, addend: 0x0, symName: __ZN4core3fmt5Write10write_char17hdfb28a662f1dadabE, symObjAddr: 0x14D0, symBinAddr: 0x100013FF4, symSize: 0x140 }
  - { offset: 0x5000A, size: 0x8, addend: 0x0, symName: __ZN4core3fmt5Write9write_fmt17h13bdb2eccd0c285eE, symObjAddr: 0x1610, symBinAddr: 0x100014134, symSize: 0x10 }
  - { offset: 0x50039, size: 0x8, addend: 0x0, symName: __ZN4core3fmt5Write9write_fmt17h3d48754a628ad650E, symObjAddr: 0x1620, symBinAddr: 0x100014144, symSize: 0x10 }
  - { offset: 0x50068, size: 0x8, addend: 0x0, symName: __ZN4core3fmt5Write9write_fmt17h4270820d5fb62457E, symObjAddr: 0x1630, symBinAddr: 0x100014154, symSize: 0x10 }
  - { offset: 0x50097, size: 0x8, addend: 0x0, symName: __ZN4core3fmt5Write9write_fmt17ha2d460255287c06dE, symObjAddr: 0x1640, symBinAddr: 0x100014164, symSize: 0x10 }
  - { offset: 0x500C6, size: 0x8, addend: 0x0, symName: __ZN4core3fmt5Write9write_fmt17ha8ecdcf0f48f38acE, symObjAddr: 0x1650, symBinAddr: 0x100014174, symSize: 0x10 }
  - { offset: 0x50123, size: 0x8, addend: 0x0, symName: '__ZN50_$LT$$BP$mut$u20$T$u20$as$u20$core..fmt..Debug$GT$3fmt17h0e71da53ffdbf142E', symObjAddr: 0xF410, symBinAddr: 0x10001DFC0, symSize: 0x8 }
  - { offset: 0x50141, size: 0x8, addend: 0x0, symName: '__ZN50_$LT$$BP$mut$u20$T$u20$as$u20$core..fmt..Debug$GT$3fmt17h0e71da53ffdbf142E', symObjAddr: 0xF410, symBinAddr: 0x10001DFC0, symSize: 0x8 }
  - { offset: 0x50170, size: 0x8, addend: 0x0, symName: '__ZN52_$LT$$RF$mut$u20$T$u20$as$u20$core..fmt..Display$GT$3fmt17hc5f28addd174597dE', symObjAddr: 0xF500, symBinAddr: 0x10001DFC8, symSize: 0x10 }
  - { offset: 0x501D6, size: 0x8, addend: 0x0, symName: '__ZN55_$LT$$RF$str$u20$as$u20$core..str..pattern..Pattern$GT$15is_contained_in17hf6a15fe5f9aec0c7E', symObjAddr: 0xF510, symBinAddr: 0x10001DFD8, symSize: 0x3C0 }
  - { offset: 0x50C45, size: 0x8, addend: 0x0, symName: '__ZN70_$LT$core..num..error..TryFromIntError$u20$as$u20$core..fmt..Debug$GT$3fmt17h43e59b0425417061E', symObjAddr: 0x1C570, symBinAddr: 0x1000294C4, symSize: 0x40 }
  - { offset: 0x50D47, size: 0x8, addend: 0x0, symName: '__ZN4core5array69_$LT$impl$u20$core..fmt..Debug$u20$for$u20$$u5b$T$u3b$$u20$N$u5d$$GT$3fmt17h666d4f1ab6b28ee7E', symObjAddr: 0x76B8, symBinAddr: 0x100016344, symSize: 0xFC }
  - { offset: 0x51278, size: 0x8, addend: 0x0, symName: __ZN4core5panic12PanicPayload6as_str17h55b7c7a41678db2dE, symObjAddr: 0x7814, symBinAddr: 0x100016440, symSize: 0x8 }
  - { offset: 0x51ADE, size: 0x8, addend: 0x0, symName: '__ZN4core3ops8function6FnOnce40call_once$u7b$$u7b$vtable.shim$u7d$$u7d$17h0256ef3c49b7fef6E', symObjAddr: 0x190C, symBinAddr: 0x100014184, symSize: 0xC }
  - { offset: 0x51B2F, size: 0x8, addend: 0x0, symName: '__ZN4core3ops8function6FnOnce40call_once$u7b$$u7b$vtable.shim$u7d$$u7d$17h1a440162a384b96dE', symObjAddr: 0x1918, symBinAddr: 0x100014190, symSize: 0x4 }
  - { offset: 0x51B4C, size: 0x8, addend: 0x0, symName: '__ZN4core3ops8function6FnOnce40call_once$u7b$$u7b$vtable.shim$u7d$$u7d$17h1a440162a384b96dE', symObjAddr: 0x1918, symBinAddr: 0x100014190, symSize: 0x4 }
  - { offset: 0x51B6B, size: 0x8, addend: 0x0, symName: '__ZN4core3ops8function6FnOnce40call_once$u7b$$u7b$vtable.shim$u7d$$u7d$17h5a3ea79ed9b56f49E', symObjAddr: 0x1924, symBinAddr: 0x100014194, symSize: 0x28 }
  - { offset: 0x51BA7, size: 0x8, addend: 0x0, symName: '__ZN4core3ops8function6FnOnce40call_once$u7b$$u7b$vtable.shim$u7d$$u7d$17h6ef6b541deff04acE', symObjAddr: 0x194C, symBinAddr: 0x1000141BC, symSize: 0xC }
  - { offset: 0x51BF8, size: 0x8, addend: 0x0, symName: '__ZN4core3ops8function6FnOnce40call_once$u7b$$u7b$vtable.shim$u7d$$u7d$17h8b0e1f22722d72f6E', symObjAddr: 0x19F4, symBinAddr: 0x1000141C8, symSize: 0x4 }
  - { offset: 0x51C15, size: 0x8, addend: 0x0, symName: '__ZN4core3ops8function6FnOnce40call_once$u7b$$u7b$vtable.shim$u7d$$u7d$17h8b0e1f22722d72f6E', symObjAddr: 0x19F4, symBinAddr: 0x1000141C8, symSize: 0x4 }
  - { offset: 0x51C34, size: 0x8, addend: 0x0, symName: '__ZN4core3ops8function6FnOnce40call_once$u7b$$u7b$vtable.shim$u7d$$u7d$17h9b4a9096c70fd176E', symObjAddr: 0x1A38, symBinAddr: 0x1000141CC, symSize: 0xA4 }
  - { offset: 0x51D7A, size: 0x8, addend: 0x0, symName: '__ZN4core3ops8function6FnOnce40call_once$u7b$$u7b$vtable.shim$u7d$$u7d$17hb135094d08c6abcbE', symObjAddr: 0x1ADC, symBinAddr: 0x100014270, symSize: 0x60 }
  - { offset: 0x51E5E, size: 0x8, addend: 0x0, symName: '__ZN4core3ops8function6FnOnce40call_once$u7b$$u7b$vtable.shim$u7d$$u7d$17hda98b980b7e364a0E', symObjAddr: 0x1B3C, symBinAddr: 0x1000142D0, symSize: 0x78 }
  - { offset: 0x548BB, size: 0x8, addend: 0x0, symName: '__ZN4core4cell4once17OnceCell$LT$T$GT$8try_init17h1f3ae8fa04109d74E', symObjAddr: 0x4750, symBinAddr: 0x10004AC8C, symSize: 0x60 }
  - { offset: 0x548D9, size: 0x8, addend: 0x0, symName: '__ZN4core4cell4once17OnceCell$LT$T$GT$8try_init17h1f3ae8fa04109d74E', symObjAddr: 0x4750, symBinAddr: 0x10004AC8C, symSize: 0x60 }
  - { offset: 0x548EE, size: 0x8, addend: 0x0, symName: '__ZN4core4cell4once17OnceCell$LT$T$GT$8try_init17h1f3ae8fa04109d74E', symObjAddr: 0x4750, symBinAddr: 0x10004AC8C, symSize: 0x60 }
  - { offset: 0x54902, size: 0x8, addend: 0x0, symName: '__ZN4core4cell4once17OnceCell$LT$T$GT$8try_init17h1f3ae8fa04109d74E', symObjAddr: 0x4750, symBinAddr: 0x10004AC8C, symSize: 0x60 }
  - { offset: 0x54959, size: 0x8, addend: 0x0, symName: '__ZN4core4cell4once17OnceCell$LT$T$GT$8try_init17h5030d0cfd605f88aE', symObjAddr: 0x47B0, symBinAddr: 0x10004ACEC, symSize: 0x678 }
  - { offset: 0x5561B, size: 0x8, addend: 0x0, symName: '__ZN4core4cell4once17OnceCell$LT$T$GT$8try_init17hb2acaa81388d9a1dE', symObjAddr: 0x4E28, symBinAddr: 0x10004B364, symSize: 0x110 }
  - { offset: 0x558FF, size: 0x8, addend: 0x0, symName: '__ZN4core4cell4once17OnceCell$LT$T$GT$8try_init17hec4c6057203f18caE', symObjAddr: 0x4F38, symBinAddr: 0x10004B474, symSize: 0x1AC4 }
  - { offset: 0x58BB8, size: 0x8, addend: 0x0, symName: '__ZN4core4cell4once17OnceCell$LT$T$GT$8try_init17hf59b8f3666c9e504E', symObjAddr: 0x69FC, symBinAddr: 0x10004CF38, symSize: 0x80 }
  - { offset: 0x58C6B, size: 0x8, addend: 0x0, symName: '__ZN4core4cell4once17OnceCell$LT$T$GT$8try_init17hfae89e2951f245baE', symObjAddr: 0x6A7C, symBinAddr: 0x10004CFB8, symSize: 0xC3C }
  - { offset: 0x5AC90, size: 0x8, addend: 0x0, symName: __ZN4core9panicking13assert_failed17h49968851add484acE, symObjAddr: 0xF3B8, symBinAddr: 0x10004DBF4, symSize: 0x34 }
  - { offset: 0x5ACAB, size: 0x8, addend: 0x0, symName: __ZN4core9panicking13assert_failed17h8219ec77f299110cE, symObjAddr: 0xF3EC, symBinAddr: 0x10004DC28, symSize: 0x24 }
  - { offset: 0x5B0F1, size: 0x8, addend: 0x0, symName: __ZN3std9panicking11panic_count8increase17h5d061070c09c1b20E, symObjAddr: 0x3BDA0, symBinAddr: 0x100031E7C, symSize: 0x64 }
  - { offset: 0x5B108, size: 0x8, addend: 0x0, symName: __ZN3std9panicking11panic_count8increase17h5d061070c09c1b20E, symObjAddr: 0x3BDA0, symBinAddr: 0x100031E7C, symSize: 0x64 }
  - { offset: 0x5B11D, size: 0x8, addend: 0x0, symName: __ZN3std9panicking11panic_count8increase17h5d061070c09c1b20E, symObjAddr: 0x3BDA0, symBinAddr: 0x100031E7C, symSize: 0x64 }
  - { offset: 0x5B1FC, size: 0x8, addend: 0x0, symName: __ZN3std9panicking11panic_count17is_zero_slow_path17h01eb20a9cec6a821E, symObjAddr: 0x3BE8C, symBinAddr: 0x10004E494, symSize: 0x2C }
  - { offset: 0x5B35C, size: 0x8, addend: 0x0, symName: __RNvCs73fAdSrgOJL_7___rustc17___rust_drop_panic, symObjAddr: 0x3B3E8, symBinAddr: 0x100031730, symSize: 0xBC }
  - { offset: 0x5B551, size: 0x8, addend: 0x0, symName: __RNvCs73fAdSrgOJL_7___rustc24___rust_foreign_exception, symObjAddr: 0x3B4A4, symBinAddr: 0x1000317EC, symSize: 0xBC }
  - { offset: 0x5B746, size: 0x8, addend: 0x0, symName: __ZN3std9panicking12default_hook17h8875fb31ec87dfadE, symObjAddr: 0x3B7CC, symBinAddr: 0x1000318A8, symSize: 0x1AC }
  - { offset: 0x5BA84, size: 0x8, addend: 0x0, symName: '__ZN3std9panicking12default_hook28_$u7b$$u7b$closure$u7d$$u7d$17hf623c44b740b115fE', symObjAddr: 0x3B978, symBinAddr: 0x100031A54, symSize: 0x1A4 }
  - { offset: 0x5BC5B, size: 0x8, addend: 0x0, symName: '__ZN3std9panicking12default_hook28_$u7b$$u7b$closure$u7d$$u7d$28_$u7b$$u7b$closure$u7d$$u7d$17hf47d63ca0778dae1E', symObjAddr: 0x3BB1C, symBinAddr: 0x100031BF8, symSize: 0x284 }
  - { offset: 0x5C0D1, size: 0x8, addend: 0x0, symName: __RNvCs73fAdSrgOJL_7___rustc17rust_begin_unwind, symObjAddr: 0x3BF00, symBinAddr: 0x100031EE0, symSize: 0x20 }
  - { offset: 0x5C13A, size: 0x8, addend: 0x0, symName: '__ZN102_$LT$std..panicking..begin_panic_handler..FormatStringPayload$u20$as$u20$core..panic..PanicPayload$GT$8take_box17h223afba6ccee5cb1E', symObjAddr: 0x3BF20, symBinAddr: 0x100031F00, symSize: 0x118 }
  - { offset: 0x5C3B6, size: 0x8, addend: 0x0, symName: '__ZN102_$LT$std..panicking..begin_panic_handler..FormatStringPayload$u20$as$u20$core..panic..PanicPayload$GT$3get17h4f88f29aab2fd10fE', symObjAddr: 0x3C038, symBinAddr: 0x100032018, symSize: 0xB0 }
  - { offset: 0x5C4EF, size: 0x8, addend: 0x0, symName: '__ZN95_$LT$std..panicking..begin_panic_handler..FormatStringPayload$u20$as$u20$core..fmt..Display$GT$3fmt17hb0af82e86096f7f0E', symObjAddr: 0x3C0E8, symBinAddr: 0x1000320C8, symSize: 0x5C }
  - { offset: 0x5C5EC, size: 0x8, addend: 0x0, symName: '__ZN99_$LT$std..panicking..begin_panic_handler..StaticStrPayload$u20$as$u20$core..panic..PanicPayload$GT$8take_box17h0df143ef4488f020E', symObjAddr: 0x3C144, symBinAddr: 0x100032124, symSize: 0x48 }
  - { offset: 0x5C663, size: 0x8, addend: 0x0, symName: '__ZN99_$LT$std..panicking..begin_panic_handler..StaticStrPayload$u20$as$u20$core..panic..PanicPayload$GT$3get17h5775715a100ee158E', symObjAddr: 0x3C18C, symBinAddr: 0x10003216C, symSize: 0xC }
  - { offset: 0x5C67E, size: 0x8, addend: 0x0, symName: '__ZN99_$LT$std..panicking..begin_panic_handler..StaticStrPayload$u20$as$u20$core..panic..PanicPayload$GT$6as_str17h4a89cb46754932c0E', symObjAddr: 0x3C198, symBinAddr: 0x100032178, symSize: 0xC }
  - { offset: 0x5C69F, size: 0x8, addend: 0x0, symName: '__ZN92_$LT$std..panicking..begin_panic_handler..StaticStrPayload$u20$as$u20$core..fmt..Display$GT$3fmt17h97bd842622e6ccedE', symObjAddr: 0x3C1A4, symBinAddr: 0x100032184, symSize: 0x10 }
  - { offset: 0x5C6BB, size: 0x8, addend: 0x0, symName: '__ZN3std9panicking19begin_panic_handler28_$u7b$$u7b$closure$u7d$$u7d$17hdf417b72ab8ffff8E', symObjAddr: 0x3C1B4, symBinAddr: 0x100032194, symSize: 0xC4 }
  - { offset: 0x5C823, size: 0x8, addend: 0x0, symName: __ZN3std9panicking14payload_as_str17h9b5790cdb2b550fcE, symObjAddr: 0x3C35C, symBinAddr: 0x100032258, symSize: 0xB0 }
  - { offset: 0x5C907, size: 0x8, addend: 0x0, symName: __ZN3std9panicking20rust_panic_with_hook17hdd8ceeeb04975c2bE, symObjAddr: 0x3C40C, symBinAddr: 0x100032308, symSize: 0x398 }
  - { offset: 0x5D154, size: 0x8, addend: 0x0, symName: __RNvCs73fAdSrgOJL_7___rustc10rust_panic, symObjAddr: 0x3C898, symBinAddr: 0x10004E4C0, symSize: 0x60 }
  - { offset: 0x5D2B5, size: 0x8, addend: 0x0, symName: __ZN3std3sys7process4unix4unix7Process4wait17hf16eee4591add28bE, symObjAddr: 0x47350, symBinAddr: 0x100037154, symSize: 0xA0 }
  - { offset: 0x5D4A7, size: 0x8, addend: 0x0, symName: '__ZN80_$LT$std..sys..process..unix..unix..ExitStatus$u20$as$u20$core..fmt..Display$GT$3fmt17hc2c754857161654fE', symObjAddr: 0x47448, symBinAddr: 0x1000371F4, symSize: 0x1F8 }
  - { offset: 0x5D684, size: 0x8, addend: 0x0, symName: '__ZN102_$LT$std..sys..process..unix..common..cstring_array..CStringArray$u20$as$u20$core..ops..drop..Drop$GT$4drop17h78e7b17770d00f7eE', symObjAddr: 0x44808, symBinAddr: 0x10003535C, symSize: 0x70 }
  - { offset: 0x5D79D, size: 0x8, addend: 0x0, symName: __ZN3std3sys7process4unix6common13cstring_array12CStringArray13with_capacity17h99fa5c23e0df8330E, symObjAddr: 0x44628, symBinAddr: 0x100035284, symSize: 0xD8 }
  - { offset: 0x5D95E, size: 0x8, addend: 0x0, symName: __ZN3std3sys7process4unix6common7Command3new17hee79130fbef3296eE, symObjAddr: 0x448E8, symBinAddr: 0x1000353CC, symSize: 0x284 }
  - { offset: 0x5DE1A, size: 0x8, addend: 0x0, symName: __ZN3std3sys7process4unix6common7Command3arg17h226ffd4f27122ef8E, symObjAddr: 0x44CB4, symBinAddr: 0x100035650, symSize: 0xEC }
  - { offset: 0x5E11C, size: 0x8, addend: 0x0, symName: __ZN3std3sys7process4unix6common7Command11capture_env17h0cfcb5df006c563cE, symObjAddr: 0x450C4, symBinAddr: 0x10003573C, symSize: 0x91C }
  - { offset: 0x5F9C0, size: 0x8, addend: 0x0, symName: __ZN3std3sys7process4unix6common7Command8setup_io17h49fecf1d8531d22fE, symObjAddr: 0x459E0, symBinAddr: 0x100036058, symSize: 0x2F8 }
  - { offset: 0x5FE77, size: 0x8, addend: 0x0, symName: '__ZN3std3sys7process4unix4unix58_$LT$impl$u20$std..sys..process..unix..common..Command$GT$5spawn17h83be88a7218a58a1E', symObjAddr: 0x46674, symBinAddr: 0x1000364AC, symSize: 0x928 }
  - { offset: 0x60ECD, size: 0x8, addend: 0x0, symName: '__ZN3std3sys7process4unix4unix58_$LT$impl$u20$std..sys..process..unix..common..Command$GT$7do_exec17h7cf7ac48f439483cE', symObjAddr: 0x46F9C, symBinAddr: 0x100036DD4, symSize: 0x380 }
  - { offset: 0x61843, size: 0x8, addend: 0x0, symName: __ZN3std3sys7process4unix6common5Stdio14to_child_stdio17hb95d2f9ba1abe590E, symObjAddr: 0x45CD8, symBinAddr: 0x100036350, symSize: 0x15C }
  - { offset: 0x61A68, size: 0x8, addend: 0x0, symName: __ZN3std3sys2fs4unix4File6open_c17h5a31c1e924c31a39E, symObjAddr: 0x4151C, symBinAddr: 0x1000350D4, symSize: 0x1B0 }
  - { offset: 0x61C07, size: 0x8, addend: 0x0, symName: '__ZN65_$LT$std..sys..fs..unix..Dir$u20$as$u20$core..ops..drop..Drop$GT$4drop17hda69c3116f0d01f9E', symObjAddr: 0x411B8, symBinAddr: 0x100035008, symSize: 0xCC }
  - { offset: 0x61CD2, size: 0x8, addend: 0x0, symName: __ZN3std3sys2fs8read_dir17ha4d851693f34a78dE, symObjAddr: 0x38968, symBinAddr: 0x1000312A4, symSize: 0x19C }
  - { offset: 0x61FDA, size: 0x8, addend: 0x0, symName: __ZN3std3sys2fd4unix8FileDesc11read_to_end17h4dd597c33f28b34bE, symObjAddr: 0x40840, symBinAddr: 0x100034DCC, symSize: 0x23C }
  - { offset: 0x624FD, size: 0x8, addend: 0x0, symName: __ZN3std3sys3pal4unix4sync5mutex5Mutex4init17he47bfeffad10ab23E, symObjAddr: 0x3F018, symBinAddr: 0x1000343FC, symSize: 0x16C }
  - { offset: 0x625B4, size: 0x8, addend: 0x0, symName: __ZN3std3sys3pal4unix4sync5mutex5Mutex4lock4fail17hc6db7b5c9b0389a0E, symObjAddr: 0x3F1A0, symBinAddr: 0x10004E578, symSize: 0xE4 }
  - { offset: 0x628A7, size: 0x8, addend: 0x0, symName: __ZN3std3sys3pal4unix14stack_overflow3imp14signal_handler17h46f8ef1aa7528f43E, symObjAddr: 0x3E7B8, symBinAddr: 0x100033B9C, symSize: 0x290 }
  - { offset: 0x62E78, size: 0x8, addend: 0x0, symName: __ZN3std3sys3pal4unix14stack_overflow3imp12make_handler17he67200fb708acd59E, symObjAddr: 0x3EA48, symBinAddr: 0x100033E2C, symSize: 0x234 }
  - { offset: 0x63228, size: 0x8, addend: 0x0, symName: __ZN3std3sys3pal4unix14stack_overflow3imp12drop_handler17h683641cfe3e92d15E, symObjAddr: 0x3EC7C, symBinAddr: 0x100034060, symSize: 0x39C }
  - { offset: 0x63A8A, size: 0x8, addend: 0x0, symName: __ZN3std3sys3pal4unix14stack_overflow11thread_info16set_current_info17hdef3efae36137112E, symObjAddr: 0x3DE70, symBinAddr: 0x100033254, symSize: 0x948 }
  - { offset: 0x64E39, size: 0x8, addend: 0x0, symName: __ZN3std3sys3pal4unix4pipe8AnonPipe5write17h16a4c9da9673706eE, symObjAddr: 0x3DBAC, symBinAddr: 0x100032FA8, symSize: 0x54 }
  - { offset: 0x64F16, size: 0x8, addend: 0x0, symName: __ZN3std3sys3pal4unix4pipe9anon_pipe17ha2e56c5565a24655E, symObjAddr: 0x3DA84, symBinAddr: 0x100032E80, symSize: 0x128 }
  - { offset: 0x6520B, size: 0x8, addend: 0x0, symName: __ZN3std3sys3pal4unix4pipe5read217h426c633f7d168e0dE, symObjAddr: 0x3DC00, symBinAddr: 0x100032FFC, symSize: 0x258 }
  - { offset: 0x65739, size: 0x8, addend: 0x0, symName: '__ZN3std3sys3pal4unix4weak18DlsymWeak$LT$F$GT$10initialize17ha6b700ee2a93a6c2E', symObjAddr: 0x3D788, symBinAddr: 0x10004E520, symSize: 0x58 }
  - { offset: 0x657BB, size: 0x8, addend: 0x0, symName: __ZN3std3sys3pal4unix17decode_error_kind17haabc64936b405e49E, symObjAddr: 0x3FA78, symBinAddr: 0x100034568, symSize: 0x150 }
  - { offset: 0x657D5, size: 0x8, addend: 0x0, symName: __ZN3std3sys3pal4unix14abort_internal17ha2b174aef73aaa99E, symObjAddr: 0x3FBC8, symBinAddr: 0x10004E65C, symSize: 0xC }
  - { offset: 0x65873, size: 0x8, addend: 0x0, symName: __ZN3std3sys3pal6common14small_c_string24run_with_cstr_allocating17h62eae881f61189b9E, symObjAddr: 0x37AA8, symBinAddr: 0x10004E19C, symSize: 0xC4 }
  - { offset: 0x65A3C, size: 0x8, addend: 0x0, symName: __ZN3std3sys3pal6common14small_c_string24run_with_cstr_allocating17h849b8fb7465c671dE, symObjAddr: 0x37B6C, symBinAddr: 0x10004E260, symSize: 0xAC }
  - { offset: 0x65B98, size: 0x8, addend: 0x0, symName: __ZN3std3sys3pal6common14small_c_string24run_with_cstr_allocating17hf63fa4ece05c9b45E, symObjAddr: 0x37CE8, symBinAddr: 0x10004E30C, symSize: 0xA4 }
  - { offset: 0x65D55, size: 0x8, addend: 0x0, symName: '__ZN64_$LT$std..sys..stdio..unix..Stderr$u20$as$u20$std..io..Write$GT$5write17h3b1932d17393f261E', symObjAddr: 0x47870, symBinAddr: 0x1000373EC, symSize: 0x58 }
  - { offset: 0x65E2B, size: 0x8, addend: 0x0, symName: '__ZN64_$LT$std..sys..stdio..unix..Stderr$u20$as$u20$std..io..Write$GT$14write_vectored17h8ff0487a5ca382e1E', symObjAddr: 0x478C8, symBinAddr: 0x100037444, symSize: 0x58 }
  - { offset: 0x65F01, size: 0x8, addend: 0x0, symName: '__ZN64_$LT$std..sys..stdio..unix..Stderr$u20$as$u20$std..io..Write$GT$17is_write_vectored17h806729f05e1b02f1E', symObjAddr: 0x47920, symBinAddr: 0x10003749C, symSize: 0x8 }
  - { offset: 0x65F1B, size: 0x8, addend: 0x0, symName: '__ZN64_$LT$std..sys..stdio..unix..Stderr$u20$as$u20$std..io..Write$GT$5flush17ha8134fdfc2044e22E', symObjAddr: 0x47928, symBinAddr: 0x1000374A4, symSize: 0x8 }
  - { offset: 0x65F63, size: 0x8, addend: 0x0, symName: '__ZN3std3sys11personality3gcc14find_eh_action28_$u7b$$u7b$closure$u7d$$u7d$17h8e0a401f13cba7b2E', symObjAddr: 0x3FBD4, symBinAddr: 0x1000346B8, symSize: 0xC }
  - { offset: 0x65F77, size: 0x8, addend: 0x0, symName: '__ZN3std3sys11personality3gcc14find_eh_action28_$u7b$$u7b$closure$u7d$$u7d$17hb37e74614c39fe5bE', symObjAddr: 0x3FBE0, symBinAddr: 0x1000346C4, symSize: 0xC }
  - { offset: 0x65FA7, size: 0x8, addend: 0x0, symName: _rust_eh_personality, symObjAddr: 0x3FBEC, symBinAddr: 0x1000346D0, symSize: 0x378 }
  - { offset: 0x66330, size: 0x8, addend: 0x0, symName: __ZN3std3sys11personality5dwarf2eh19read_encoded_offset17ha35e0bf259a51371E, symObjAddr: 0x37E3C, symBinAddr: 0x1000309B8, symSize: 0x148 }
  - { offset: 0x664B0, size: 0x8, addend: 0x0, symName: '__ZN3std3sys9backtrace10_print_fmt28_$u7b$$u7b$closure$u7d$$u7d$17h53593d80dca05be6E', symObjAddr: 0x382E8, symBinAddr: 0x100030DEC, symSize: 0x24 }
  - { offset: 0x664D9, size: 0x8, addend: 0x0, symName: '__ZN3std3sys9backtrace10_print_fmt28_$u7b$$u7b$closure$u7d$$u7d$17h562a49be56385aceE', symObjAddr: 0x3830C, symBinAddr: 0x100030E10, symSize: 0x130 }
  - { offset: 0x665ED, size: 0x8, addend: 0x0, symName: '__ZN3std3sys9backtrace10_print_fmt28_$u7b$$u7b$closure$u7d$$u7d$28_$u7b$$u7b$closure$u7d$$u7d$17had6f8f8b94a1d5d2E', symObjAddr: 0x3843C, symBinAddr: 0x100030F40, symSize: 0x264 }
  - { offset: 0x6681C, size: 0x8, addend: 0x0, symName: __ZN3std3sys9backtrace4lock17hdabe8353c49be0ebE, symObjAddr: 0x37FFC, symBinAddr: 0x100030B00, symSize: 0x70 }
  - { offset: 0x66965, size: 0x8, addend: 0x0, symName: __ZN3std3sys9backtrace13BacktraceLock5print17h3eb1535b8d3666caE, symObjAddr: 0x3806C, symBinAddr: 0x100030B70, symSize: 0x54 }
  - { offset: 0x669B2, size: 0x8, addend: 0x0, symName: '__ZN98_$LT$std..sys..backtrace..BacktraceLock..print..DisplayBacktrace$u20$as$u20$core..fmt..Display$GT$3fmt17h373e57e2286956dcE', symObjAddr: 0x380C0, symBinAddr: 0x100030BC4, symSize: 0x228 }
  - { offset: 0x66E97, size: 0x8, addend: 0x0, symName: __ZN3std3sys9backtrace26__rust_end_short_backtrace17h507d79c50996742eE, symObjAddr: 0x386A0, symBinAddr: 0x1000311A4, symSize: 0xC }
  - { offset: 0x66EB1, size: 0x8, addend: 0x0, symName: __ZN3std3sys9backtrace15output_filename17h1e17c213ac1ab78dE, symObjAddr: 0x386B8, symBinAddr: 0x1000311B0, symSize: 0xF4 }
  - { offset: 0x67072, size: 0x8, addend: 0x0, symName: '__ZN3std3sys4sync8once_box16OnceBox$LT$T$GT$10initialize17he379977f8bc9e5d3E', symObjAddr: 0x3A608, symBinAddr: 0x10004E3B0, symSize: 0xE4 }
  - { offset: 0x67347, size: 0x8, addend: 0x0, symName: __ZN3std3sys4sync6rwlock5queue6RwLock21read_unlock_contended17h1b9e50d42faedc94E, symObjAddr: 0x4843C, symBinAddr: 0x10004E8B8, symSize: 0x40 }
  - { offset: 0x67365, size: 0x8, addend: 0x0, symName: __ZN3std3sys4sync6rwlock5queue6RwLock21read_unlock_contended17h1b9e50d42faedc94E, symObjAddr: 0x4843C, symBinAddr: 0x10004E8B8, symSize: 0x40 }
  - { offset: 0x6737A, size: 0x8, addend: 0x0, symName: __ZN3std3sys4sync6rwlock5queue6RwLock21read_unlock_contended17h1b9e50d42faedc94E, symObjAddr: 0x4843C, symBinAddr: 0x10004E8B8, symSize: 0x40 }
  - { offset: 0x674B7, size: 0x8, addend: 0x0, symName: __ZN3std3sys4sync6rwlock5queue6RwLock16unlock_contended17h76968e98b916e2abE, symObjAddr: 0x4847C, symBinAddr: 0x10004E8F8, symSize: 0x40 }
  - { offset: 0x67593, size: 0x8, addend: 0x0, symName: __ZN3std3sys4sync6rwlock5queue6RwLock12unlock_queue17h9c4ac3ac2d5778f9E, symObjAddr: 0x485C8, symBinAddr: 0x100037734, symSize: 0x1CC }
  - { offset: 0x67C8B, size: 0x8, addend: 0x0, symName: __ZN3std3sys4sync6rwlock5queue9read_lock17h1f89cfb304dc509cE, symObjAddr: 0x481E8, symBinAddr: 0x100037714, symSize: 0x20 }
  - { offset: 0x67CA4, size: 0x8, addend: 0x0, symName: '__ZN83_$LT$std..sys..sync..rwlock..queue..PanicGuard$u20$as$u20$core..ops..drop..Drop$GT$4drop17h5cadc4ef1f5dcd7dE', symObjAddr: 0x48208, symBinAddr: 0x10004E874, symSize: 0x44 }
  - { offset: 0x67D9C, size: 0x8, addend: 0x0, symName: __ZN3std3sys4sync4once5queue4Once4call17hecaba0a776a35aa1E, symObjAddr: 0x47D60, symBinAddr: 0x10004E668, symSize: 0x20C }
  - { offset: 0x6808B, size: 0x8, addend: 0x0, symName: '__ZN82_$LT$std..sys..sync..once..queue..WaiterQueue$u20$as$u20$core..ops..drop..Drop$GT$4drop17h7c83cf796170585cE', symObjAddr: 0x480F4, symBinAddr: 0x100037634, symSize: 0xE0 }
  - { offset: 0x6824E, size: 0x8, addend: 0x0, symName: __ZN3std3sys4sync4once5queue4wait17h89a94bf1656b2ec7E, symObjAddr: 0x47F6C, symBinAddr: 0x1000374AC, symSize: 0x188 }
  - { offset: 0x68825, size: 0x8, addend: 0x0, symName: __ZN3std3sys12thread_local6native5eager7destroy17heae091946a683e1cE, symObjAddr: 0x48840, symBinAddr: 0x100037900, symSize: 0x2C }
  - { offset: 0x68976, size: 0x8, addend: 0x0, symName: __ZN3std3sys12thread_local5guard5apple6enable9run_dtors17hef79a299de7fb9adE, symObjAddr: 0x48984, symBinAddr: 0x100037A44, symSize: 0xF8 }
  - { offset: 0x68E8F, size: 0x8, addend: 0x0, symName: __ZN3std3sys12thread_local11destructors4list8register17hde6abc51e3c3721cE, symObjAddr: 0x4886C, symBinAddr: 0x10003792C, symSize: 0x118 }
  - { offset: 0x691ED, size: 0x8, addend: 0x0, symName: __ZN3std3sys3env4unix13env_read_lock17ha2bee16bf1e65b98E, symObjAddr: 0x3FF64, symBinAddr: 0x100034A48, symSize: 0x23C }
  - { offset: 0x698F6, size: 0x8, addend: 0x0, symName: '__ZN3std3sys3env4unix6getenv28_$u7b$$u7b$closure$u7d$$u7d$17h5aa62fce8cdb755bE', symObjAddr: 0x401A0, symBinAddr: 0x100034C84, symSize: 0x148 }
  - { offset: 0x69D54, size: 0x8, addend: 0x0, symName: '__ZN64_$LT$std..ffi..os_str..Display$u20$as$u20$core..fmt..Display$GT$3fmt17hf4e02af35f1fefceE', symObjAddr: 0x23390, symBinAddr: 0x10002CBB8, symSize: 0xAC }
  - { offset: 0x69E55, size: 0x8, addend: 0x0, symName: __ZN3std7process7Command6output17h8dcdf4d4d26f2b3aE, symObjAddr: 0x3517C, symBinAddr: 0x1000303C0, symSize: 0x2F8 }
  - { offset: 0x6A3C5, size: 0x8, addend: 0x0, symName: '__ZN63_$LT$std..process..ExitStatus$u20$as$u20$core..fmt..Display$GT$3fmt17hdffb3e00502568e6E', symObjAddr: 0x358A8, symBinAddr: 0x1000306B8, symSize: 0x4 }
  - { offset: 0x6A3E1, size: 0x8, addend: 0x0, symName: __ZN3std7process5abort17hbd14f557f4be895cE, symObjAddr: 0x35E58, symBinAddr: 0x10004E0C4, symSize: 0xC }
  - { offset: 0x6A46F, size: 0x8, addend: 0x0, symName: __ZN3std4path4Path13_strip_prefix17h44ebcc45a48bcda4E, symObjAddr: 0x336DC, symBinAddr: 0x100030000, symSize: 0x21C }
  - { offset: 0x6A58D, size: 0x8, addend: 0x0, symName: __ZN3std4path4Path5_join17h5f97e78c9ec6f8c6E, symObjAddr: 0x33F08, symBinAddr: 0x10003021C, symSize: 0x1A4 }
  - { offset: 0x6AB53, size: 0x8, addend: 0x0, symName: __ZN3std4path10Components15len_before_body17h5c34a7955bf675c9E, symObjAddr: 0x31A18, symBinAddr: 0x10002F39C, symSize: 0x188 }
  - { offset: 0x6AB6A, size: 0x8, addend: 0x0, symName: __ZN3std4path10Components15len_before_body17h5c34a7955bf675c9E, symObjAddr: 0x31A18, symBinAddr: 0x10002F39C, symSize: 0x188 }
  - { offset: 0x6AB7F, size: 0x8, addend: 0x0, symName: __ZN3std4path10Components15len_before_body17h5c34a7955bf675c9E, symObjAddr: 0x31A18, symBinAddr: 0x10002F39C, symSize: 0x188 }
  - { offset: 0x6AD37, size: 0x8, addend: 0x0, symName: __ZN3std4path10Components7as_path17ha0723f3b84befc75E, symObjAddr: 0x31BA0, symBinAddr: 0x10002F524, symSize: 0x318 }
  - { offset: 0x6AFAF, size: 0x8, addend: 0x0, symName: __ZN3std4path10Components25parse_next_component_back17hb183b6faf02472afE, symObjAddr: 0x31EB8, symBinAddr: 0x10002F83C, symSize: 0x124 }
  - { offset: 0x6B171, size: 0x8, addend: 0x0, symName: '__ZN80_$LT$std..path..Components$u20$as$u20$core..iter..traits..iterator..Iterator$GT$4next17hc5f2949875039169E', symObjAddr: 0x32174, symBinAddr: 0x10002F960, symSize: 0x340 }
  - { offset: 0x6B46E, size: 0x8, addend: 0x0, symName: '__ZN95_$LT$std..path..Components$u20$as$u20$core..iter..traits..double_ended..DoubleEndedIterator$GT$9next_back17h97da5c60c737f00eE', symObjAddr: 0x324B4, symBinAddr: 0x10002FCA0, symSize: 0x360 }
  - { offset: 0x6B64D, size: 0x8, addend: 0x0, symName: '__ZN61_$LT$std..path..Component$u20$as$u20$core..cmp..PartialEq$GT$2eq17h9abf03ee93017be9E', symObjAddr: 0x3D540, symBinAddr: 0x100032D48, symSize: 0x138 }
  - { offset: 0x6B835, size: 0x8, addend: 0x0, symName: '__ZN81_$LT$std..io..default_write_fmt..Adapter$LT$T$GT$$u20$as$u20$core..fmt..Write$GT$9write_str17h1421ba9cd8ee47c5E', symObjAddr: 0x2CBD4, symBinAddr: 0x10002EA3C, symSize: 0xA0 }
  - { offset: 0x6B95D, size: 0x8, addend: 0x0, symName: '__ZN81_$LT$std..io..default_write_fmt..Adapter$LT$T$GT$$u20$as$u20$core..fmt..Write$GT$9write_str17h2d8b7e46a0e35d96E', symObjAddr: 0x2CC74, symBinAddr: 0x10002EADC, symSize: 0x80 }
  - { offset: 0x6BAA9, size: 0x8, addend: 0x0, symName: '__ZN81_$LT$std..io..default_write_fmt..Adapter$LT$T$GT$$u20$as$u20$core..fmt..Write$GT$9write_str17h8e69c5e2e9f54588E', symObjAddr: 0x2CE1C, symBinAddr: 0x10002EB5C, symSize: 0x50 }
  - { offset: 0x6BAD3, size: 0x8, addend: 0x0, symName: '__ZN81_$LT$std..io..default_write_fmt..Adapter$LT$T$GT$$u20$as$u20$core..fmt..Write$GT$9write_str17hf38da0e8ae1b5efbE', symObjAddr: 0x2CE6C, symBinAddr: 0x10002EBAC, symSize: 0xD8 }
  - { offset: 0x6BC95, size: 0x8, addend: 0x0, symName: '__ZN3std2io5impls74_$LT$impl$u20$std..io..Write$u20$for$u20$alloc..vec..Vec$LT$u8$C$A$GT$$GT$5write17hb822c2b238acf3c4E', symObjAddr: 0x27060, symBinAddr: 0x10002D91C, symSize: 0x84 }
  - { offset: 0x6BDDA, size: 0x8, addend: 0x0, symName: '__ZN3std2io5impls74_$LT$impl$u20$std..io..Write$u20$for$u20$alloc..vec..Vec$LT$u8$C$A$GT$$GT$14write_vectored17h3b2a452d1d260808E', symObjAddr: 0x270E4, symBinAddr: 0x10002D9A0, symSize: 0x174 }
  - { offset: 0x6C027, size: 0x8, addend: 0x0, symName: '__ZN3std2io5impls74_$LT$impl$u20$std..io..Write$u20$for$u20$alloc..vec..Vec$LT$u8$C$A$GT$$GT$17is_write_vectored17h85e25b333c28438fE', symObjAddr: 0x27258, symBinAddr: 0x10002DB14, symSize: 0x8 }
  - { offset: 0x6C042, size: 0x8, addend: 0x0, symName: '__ZN3std2io5impls74_$LT$impl$u20$std..io..Write$u20$for$u20$alloc..vec..Vec$LT$u8$C$A$GT$$GT$9write_all17h4986f5d3d6bca366E', symObjAddr: 0x27260, symBinAddr: 0x10002DB1C, symSize: 0x80 }
  - { offset: 0x6C18E, size: 0x8, addend: 0x0, symName: '__ZN3std2io5impls74_$LT$impl$u20$std..io..Write$u20$for$u20$alloc..vec..Vec$LT$u8$C$A$GT$$GT$18write_all_vectored17h0ce1bbe6949613dfE', symObjAddr: 0x272E0, symBinAddr: 0x10002DB9C, symSize: 0x168 }
  - { offset: 0x6C1B9, size: 0x8, addend: 0x0, symName: '__ZN3std2io5impls74_$LT$impl$u20$std..io..Write$u20$for$u20$alloc..vec..Vec$LT$u8$C$A$GT$$GT$18write_all_vectored17h0ce1bbe6949613dfE', symObjAddr: 0x272E0, symBinAddr: 0x10002DB9C, symSize: 0x168 }
  - { offset: 0x6C1CE, size: 0x8, addend: 0x0, symName: '__ZN3std2io5impls74_$LT$impl$u20$std..io..Write$u20$for$u20$alloc..vec..Vec$LT$u8$C$A$GT$$GT$18write_all_vectored17h0ce1bbe6949613dfE', symObjAddr: 0x272E0, symBinAddr: 0x10002DB9C, symSize: 0x168 }
  - { offset: 0x6C1E3, size: 0x8, addend: 0x0, symName: '__ZN3std2io5impls74_$LT$impl$u20$std..io..Write$u20$for$u20$alloc..vec..Vec$LT$u8$C$A$GT$$GT$18write_all_vectored17h0ce1bbe6949613dfE', symObjAddr: 0x272E0, symBinAddr: 0x10002DB9C, symSize: 0x168 }
  - { offset: 0x6C1F7, size: 0x8, addend: 0x0, symName: '__ZN3std2io5impls74_$LT$impl$u20$std..io..Write$u20$for$u20$alloc..vec..Vec$LT$u8$C$A$GT$$GT$18write_all_vectored17h0ce1bbe6949613dfE', symObjAddr: 0x272E0, symBinAddr: 0x10002DB9C, symSize: 0x168 }
  - { offset: 0x6C410, size: 0x8, addend: 0x0, symName: '__ZN3std2io5impls74_$LT$impl$u20$std..io..Write$u20$for$u20$alloc..vec..Vec$LT$u8$C$A$GT$$GT$5flush17h2126ea47a926e7aeE', symObjAddr: 0x27448, symBinAddr: 0x10002DD04, symSize: 0x8 }
  - { offset: 0x6C563, size: 0x8, addend: 0x0, symName: __ZN3std2io5error14repr_bitpacked11decode_repr17hcdf376292fdb65d2E, symObjAddr: 0x26804, symBinAddr: 0x10002D420, symSize: 0x60 }
  - { offset: 0x6C5CC, size: 0x8, addend: 0x0, symName: '__ZN58_$LT$std..io..error..Error$u20$as$u20$core..fmt..Debug$GT$3fmt17hdf9c13a9945d5c29E', symObjAddr: 0x26864, symBinAddr: 0x10002D480, symSize: 0x4 }
  - { offset: 0x6C60C, size: 0x8, addend: 0x0, symName: '__ZN3std2io5error83_$LT$impl$u20$core..fmt..Debug$u20$for$u20$std..io..error..repr_bitpacked..Repr$GT$3fmt17h0f29a0fd45fc1bcfE', symObjAddr: 0x26AD8, symBinAddr: 0x10002D484, symSize: 0x294 }
  - { offset: 0x6C857, size: 0x8, addend: 0x0, symName: '__ZN60_$LT$std..io..error..Error$u20$as$u20$core..fmt..Display$GT$3fmt17habdd18ca5ab4309eE', symObjAddr: 0x26D6C, symBinAddr: 0x10002D718, symSize: 0x204 }
  - { offset: 0x6CAB6, size: 0x8, addend: 0x0, symName: '__ZN62_$LT$std..io..error..ErrorKind$u20$as$u20$core..fmt..Debug$GT$3fmt17h2d20d17aac9eb11fE', symObjAddr: 0x3D518, symBinAddr: 0x100032D20, symSize: 0x28 }
  - { offset: 0x6CB01, size: 0x8, addend: 0x0, symName: __ZN3std2io5Write9write_all17h968f08b438f23232E, symObjAddr: 0x2CFB8, symBinAddr: 0x10002EC84, symSize: 0xB8 }
  - { offset: 0x6CC1C, size: 0x8, addend: 0x0, symName: __ZN3std2io5Write18write_all_vectored17hbcff9dde3b80a800E, symObjAddr: 0x2D070, symBinAddr: 0x10002ED3C, symSize: 0x1CC }
  - { offset: 0x6CECD, size: 0x8, addend: 0x0, symName: __ZN3std2io5Write9write_fmt17h00b4007fff731b84E, symObjAddr: 0x2D23C, symBinAddr: 0x10002EF08, symSize: 0x128 }
  - { offset: 0x6D117, size: 0x8, addend: 0x0, symName: __ZN3std2io5Write9write_fmt17h1c9f4e65a2760494E, symObjAddr: 0x2D364, symBinAddr: 0x10002F030, symSize: 0x128 }
  - { offset: 0x6D361, size: 0x8, addend: 0x0, symName: __ZN3std2io5Write9write_fmt17h619de9749845ad1bE, symObjAddr: 0x2D48C, symBinAddr: 0x10002F158, symSize: 0x128 }
  - { offset: 0x6D5C8, size: 0x8, addend: 0x0, symName: '__ZN3std2io8buffered9bufwriter18BufWriter$LT$W$GT$9flush_buf17h4ecd4f227cafd79eE', symObjAddr: 0x25DC8, symBinAddr: 0x10002D228, symSize: 0x1F8 }
  - { offset: 0x6DB36, size: 0x8, addend: 0x0, symName: '__ZN3std2io8buffered9bufwriter18BufWriter$LT$W$GT$14write_all_cold17hdc683320716deeb9E', symObjAddr: 0x2614C, symBinAddr: 0x10004DF9C, symSize: 0x128 }
  - { offset: 0x6DF4F, size: 0x8, addend: 0x0, symName: '__ZN61_$LT$$RF$std..io..stdio..Stdout$u20$as$u20$std..io..Write$GT$9write_fmt17h595bf9d2c2ff9fe0E', symObjAddr: 0x2A280, symBinAddr: 0x10002DD0C, symSize: 0x190 }
  - { offset: 0x6E357, size: 0x8, addend: 0x0, symName: '__ZN61_$LT$std..io..stdio..StdoutLock$u20$as$u20$std..io..Write$GT$9write_all17h373dc2ca22e35da8E', symObjAddr: 0x2A72C, symBinAddr: 0x10002DE9C, symSize: 0x268 }
  - { offset: 0x6EAE9, size: 0x8, addend: 0x0, symName: __ZN3std2io5stdio6Stderr4lock17h2c1838d646f36f3bE, symObjAddr: 0x2ACCC, symBinAddr: 0x10002E104, symSize: 0xE4 }
  - { offset: 0x6EDC3, size: 0x8, addend: 0x0, symName: __ZN3std2io5stdio22try_set_output_capture17h02e4e20053907c68E, symObjAddr: 0x2BA9C, symBinAddr: 0x10002E1E8, symSize: 0xEC }
  - { offset: 0x6F064, size: 0x8, addend: 0x0, symName: __ZN3std2io5stdio31print_to_buffer_if_capture_used17hcd908728fda25d1dE, symObjAddr: 0x2BB88, symBinAddr: 0x10002E2D4, symSize: 0x20C }
  - { offset: 0x6F758, size: 0x8, addend: 0x0, symName: __ZN3std2io5stdio6_print17h934b25807d0b964aE, symObjAddr: 0x2BE68, symBinAddr: 0x10002E4E0, symSize: 0xE4 }
  - { offset: 0x6F91D, size: 0x8, addend: 0x0, symName: __ZN3std2io19default_read_to_end16small_probe_read17h26e3fc13c132144cE, symObjAddr: 0x2C81C, symBinAddr: 0x10002E85C, symSize: 0xF0 }
  - { offset: 0x6FB5C, size: 0x8, addend: 0x0, symName: __ZN3std2io19default_read_to_end16small_probe_read17ha70487dca9140dd9E, symObjAddr: 0x2C90C, symBinAddr: 0x10002E94C, symSize: 0xF0 }
  - { offset: 0x6FD70, size: 0x8, addend: 0x0, symName: __ZN3std2io19default_read_to_end17h0ecdad62deb92c34E, symObjAddr: 0x2C04C, symBinAddr: 0x10002E5C4, symSize: 0x298 }
  - { offset: 0x7020C, size: 0x8, addend: 0x0, symName: '__ZN3std4sync6poison4once4Once15call_once_force28_$u7b$$u7b$closure$u7d$$u7d$17h5fcd666c0990a5cbE', symObjAddr: 0x36574, symBinAddr: 0x1000308E0, symSize: 0x78 }
  - { offset: 0x70349, size: 0x8, addend: 0x0, symName: '__ZN3std4sync6poison4once4Once15call_once_force28_$u7b$$u7b$closure$u7d$$u7d$17h8900ddc7fabd604dE', symObjAddr: 0x365EC, symBinAddr: 0x100030958, symSize: 0x60 }
  - { offset: 0x70406, size: 0x8, addend: 0x0, symName: '__ZN3std4sync6poison4once4Once9call_once28_$u7b$$u7b$closure$u7d$$u7d$17h09c800c11a2781e6E', symObjAddr: 0x36154, symBinAddr: 0x1000306BC, symSize: 0x224 }
  - { offset: 0x70D90, size: 0x8, addend: 0x0, symName: '__ZN3std4sync9once_lock17OnceLock$LT$T$GT$10initialize17ha33e4a2206d74ec9E', symObjAddr: 0x36EF0, symBinAddr: 0x10004E0D0, symSize: 0x64 }
  - { offset: 0x70DBB, size: 0x8, addend: 0x0, symName: '__ZN3std4sync9once_lock17OnceLock$LT$T$GT$10initialize17ha33e4a2206d74ec9E', symObjAddr: 0x36EF0, symBinAddr: 0x10004E0D0, symSize: 0x64 }
  - { offset: 0x70DCF, size: 0x8, addend: 0x0, symName: '__ZN3std4sync9once_lock17OnceLock$LT$T$GT$10initialize17ha33e4a2206d74ec9E', symObjAddr: 0x36EF0, symBinAddr: 0x10004E0D0, symSize: 0x64 }
  - { offset: 0x70DE3, size: 0x8, addend: 0x0, symName: '__ZN3std4sync9once_lock17OnceLock$LT$T$GT$10initialize17ha33e4a2206d74ec9E', symObjAddr: 0x36EF0, symBinAddr: 0x10004E0D0, symSize: 0x64 }
  - { offset: 0x70DF9, size: 0x8, addend: 0x0, symName: '__ZN3std4sync9once_lock17OnceLock$LT$T$GT$10initialize17hd570d1d77e17be18E', symObjAddr: 0x36FB0, symBinAddr: 0x10004E134, symSize: 0x68 }
  - { offset: 0x70E24, size: 0x8, addend: 0x0, symName: '__ZN3std4sync9once_lock17OnceLock$LT$T$GT$10initialize17hd570d1d77e17be18E', symObjAddr: 0x36FB0, symBinAddr: 0x10004E134, symSize: 0x68 }
  - { offset: 0x70E38, size: 0x8, addend: 0x0, symName: '__ZN3std4sync9once_lock17OnceLock$LT$T$GT$10initialize17hd570d1d77e17be18E', symObjAddr: 0x36FB0, symBinAddr: 0x10004E134, symSize: 0x68 }
  - { offset: 0x70E4C, size: 0x8, addend: 0x0, symName: '__ZN3std4sync9once_lock17OnceLock$LT$T$GT$10initialize17hd570d1d77e17be18E', symObjAddr: 0x36FB0, symBinAddr: 0x10004E134, symSize: 0x68 }
  - { offset: 0x70FF1, size: 0x8, addend: 0x0, symName: __ZN3std12backtrace_rs9symbolize5gimli7Context3new17hb91d93e0b4232d15E, symObjAddr: 0x48BB8, symBinAddr: 0x100037B84, symSize: 0x1FEC }
  - { offset: 0x74C98, size: 0x8, addend: 0x0, symName: __ZN3std12backtrace_rs9symbolize5gimli7Context11find_frames17h23a2097c4c7962bdE, symObjAddr: 0x4ABA4, symBinAddr: 0x100039B70, symSize: 0x390 }
  - { offset: 0x750BD, size: 0x8, addend: 0x0, symName: __ZN3std12backtrace_rs9symbolize5gimli5macho6Object5parse17h5fdabfb181ac69c7E, symObjAddr: 0x4DA84, symBinAddr: 0x10003CA38, symSize: 0xC28 }
  - { offset: 0x76ED1, size: 0x8, addend: 0x0, symName: __ZN3std12backtrace_rs9symbolize5gimli5macho6Object7section17hc169392917328d37E, symObjAddr: 0x4E6AC, symBinAddr: 0x10003D660, symSize: 0x154 }
  - { offset: 0x77315, size: 0x8, addend: 0x0, symName: __ZN3std12backtrace_rs9symbolize5gimli5macho11find_header17h55f69df1f605b83cE, symObjAddr: 0x4D8B0, symBinAddr: 0x10003C864, symSize: 0x1D4 }
  - { offset: 0x77334, size: 0x8, addend: 0x0, symName: __ZN3std12backtrace_rs9symbolize5gimli5macho11find_header17h55f69df1f605b83cE, symObjAddr: 0x4D8B0, symBinAddr: 0x10003C864, symSize: 0x1D4 }
  - { offset: 0x7734A, size: 0x8, addend: 0x0, symName: __ZN3std12backtrace_rs9symbolize5gimli5macho11find_header17h55f69df1f605b83cE, symObjAddr: 0x4D8B0, symBinAddr: 0x10003C864, symSize: 0x1D4 }
  - { offset: 0x77360, size: 0x8, addend: 0x0, symName: __ZN3std12backtrace_rs9symbolize5gimli5macho11find_header17h55f69df1f605b83cE, symObjAddr: 0x4D8B0, symBinAddr: 0x10003C864, symSize: 0x1D4 }
  - { offset: 0x77375, size: 0x8, addend: 0x0, symName: __ZN3std12backtrace_rs9symbolize5gimli5macho11find_header17h55f69df1f605b83cE, symObjAddr: 0x4D8B0, symBinAddr: 0x10003C864, symSize: 0x1D4 }
  - { offset: 0x7738A, size: 0x8, addend: 0x0, symName: __ZN3std12backtrace_rs9symbolize5gimli5macho11find_header17h55f69df1f605b83cE, symObjAddr: 0x4D8B0, symBinAddr: 0x10003C864, symSize: 0x1D4 }
  - { offset: 0x7739F, size: 0x8, addend: 0x0, symName: __ZN3std12backtrace_rs9symbolize5gimli5macho11find_header17h55f69df1f605b83cE, symObjAddr: 0x4D8B0, symBinAddr: 0x10003C864, symSize: 0x1D4 }
  - { offset: 0x77AD6, size: 0x8, addend: 0x0, symName: __ZN3std12backtrace_rs9symbolize5gimli4mmap17h887dd2c3e0662184E, symObjAddr: 0x4AF34, symBinAddr: 0x100039F00, symSize: 0x174 }
  - { offset: 0x78174, size: 0x8, addend: 0x0, symName: __ZN3std12backtrace_rs9symbolize5gimli7resolve17h64427fc4373c0585E, symObjAddr: 0x4B0A8, symBinAddr: 0x10003A074, symSize: 0x27F0 }
  - { offset: 0x7DEBE, size: 0x8, addend: 0x0, symName: __ZN3std12backtrace_rs9symbolize6Symbol4name17he61211ceb05526e3E, symObjAddr: 0x3C9D8, symBinAddr: 0x1000326A0, symSize: 0xE4 }
  - { offset: 0x7DFF5, size: 0x8, addend: 0x0, symName: '__ZN79_$LT$std..backtrace_rs..symbolize..SymbolName$u20$as$u20$core..fmt..Display$GT$3fmt17h4c4c1b4de2e31d53E', symObjAddr: 0x3CBF4, symBinAddr: 0x100032784, symSize: 0x100 }
  - { offset: 0x7E11E, size: 0x8, addend: 0x0, symName: __ZN3std12backtrace_rs9backtrace9libunwind5trace8trace_fn17h78394d9ee4ccceffE, symObjAddr: 0x48B70, symBinAddr: 0x100037B3C, symSize: 0x48 }
  - { offset: 0x7E1EF, size: 0x8, addend: 0x0, symName: __ZN3std12backtrace_rs5print17BacktraceFrameFmt21print_raw_with_column17h834ed90aab55fe6fE, symObjAddr: 0x3CDF4, symBinAddr: 0x100032884, symSize: 0x304 }
  - { offset: 0x7E312, size: 0x8, addend: 0x0, symName: __ZN3std12backtrace_rs5print17BacktraceFrameFmt14print_fileline17h4f1f1a459d4f9b31E, symObjAddr: 0x3D0F8, symBinAddr: 0x100032B88, symSize: 0x198 }
  - { offset: 0x7E4D6, size: 0x8, addend: 0x0, symName: __ZN3std6thread7current12init_current17h772b2ceaca17750fE, symObjAddr: 0x1F8C0, symBinAddr: 0x10004DE00, symSize: 0x164 }
  - { offset: 0x7E833, size: 0x8, addend: 0x0, symName: __ZN3std6thread6Thread3new17h61d7fe27c37d738eE, symObjAddr: 0x207B0, symBinAddr: 0x10002C450, symSize: 0x158 }
  - { offset: 0x7EC5A, size: 0x8, addend: 0x0, symName: __ZN3std6thread8ThreadId3new9exhausted17hc87ba1ebc9ec3293E, symObjAddr: 0x20668, symBinAddr: 0x10004DF64, symSize: 0x38 }
  - { offset: 0x7EC97, size: 0x8, addend: 0x0, symName: '__ZN118_$LT$std..thread..thread_name_string..ThreadNameString$u20$as$u20$core..convert..From$LT$alloc..string..String$GT$$GT$4from17h451023573f089af3E', symObjAddr: 0x206A0, symBinAddr: 0x10002C340, symSize: 0x110 }
  - { offset: 0x7EEC2, size: 0x8, addend: 0x0, symName: __ZN3std2rt15handle_rt_panic17h541ba1db327ed283E, symObjAddr: 0x1EE7C, symBinAddr: 0x10004DDBC, symSize: 0x44 }
  - { offset: 0x7EF52, size: 0x8, addend: 0x0, symName: __ZN3std2rt19lang_start_internal17h9c67c334770c9206E, symObjAddr: 0x1EF24, symBinAddr: 0x10002BCA8, symSize: 0x698 }
  - { offset: 0x7FB32, size: 0x8, addend: 0x0, symName: __ZN3std5panic19get_backtrace_style17h39e90e609eb8b5abE, symObjAddr: 0x317C4, symBinAddr: 0x10002F280, symSize: 0x11C }
  - { offset: 0x7FB50, size: 0x8, addend: 0x0, symName: __ZN3std5panic19get_backtrace_style17h39e90e609eb8b5abE, symObjAddr: 0x317C4, symBinAddr: 0x10002F280, symSize: 0x11C }
  - { offset: 0x7FB65, size: 0x8, addend: 0x0, symName: __ZN3std5panic19get_backtrace_style17h39e90e609eb8b5abE, symObjAddr: 0x317C4, symBinAddr: 0x10002F280, symSize: 0x11C }
  - { offset: 0x7FFAE, size: 0x8, addend: 0x0, symName: __ZN3std3env11current_dir17hcf122f2a803df77cE, symObjAddr: 0x21AB8, symBinAddr: 0x10002C5A8, symSize: 0x1A0 }
  - { offset: 0x8037A, size: 0x8, addend: 0x0, symName: __ZN3std3env7vars_os17h5da3b85263f16da8E, symObjAddr: 0x21C5C, symBinAddr: 0x10002C748, symSize: 0x30C }
  - { offset: 0x809C1, size: 0x8, addend: 0x0, symName: __ZN3std3env7_var_os17h2a5365ce2409b350E, symObjAddr: 0x22330, symBinAddr: 0x10002CA54, symSize: 0x164 }
  - { offset: 0x80C82, size: 0x8, addend: 0x0, symName: __ZN3std2fs11OpenOptions5_open17h0fbed7ef40f371a5E, symObjAddr: 0x24928, symBinAddr: 0x10002CE4C, symSize: 0x250 }
  - { offset: 0x80E1D, size: 0x8, addend: 0x0, symName: __ZN3std2fs14read_to_string5inner17hf6cea8ef142cb0abE, symObjAddr: 0x235C0, symBinAddr: 0x10002CC64, symSize: 0x1E8 }
  - { offset: 0x813EE, size: 0x8, addend: 0x0, symName: '__ZN75_$LT$std..fs..ReadDir$u20$as$u20$core..iter..traits..iterator..Iterator$GT$4next17h60ea7641501e923cE', symObjAddr: 0x24F5C, symBinAddr: 0x10002D09C, symSize: 0x18C }
  - { offset: 0x816D7, size: 0x8, addend: 0x0, symName: __ZN3std5alloc24default_alloc_error_hook17hbb2afb0af5835e8dE, symObjAddr: 0x3B0F8, symBinAddr: 0x100031440, symSize: 0x140 }
  - { offset: 0x8191A, size: 0x8, addend: 0x0, symName: __RNvCs73fAdSrgOJL_7___rustc11___rdl_alloc, symObjAddr: 0x3B238, symBinAddr: 0x100031580, symSize: 0x6C }
  - { offset: 0x819A0, size: 0x8, addend: 0x0, symName: __RNvCs73fAdSrgOJL_7___rustc13___rdl_dealloc, symObjAddr: 0x3B2A4, symBinAddr: 0x1000315EC, symSize: 0x4 }
  - { offset: 0x819C0, size: 0x8, addend: 0x0, symName: __RNvCs73fAdSrgOJL_7___rustc13___rdl_dealloc, symObjAddr: 0x3B2A4, symBinAddr: 0x1000315EC, symSize: 0x4 }
  - { offset: 0x819D4, size: 0x8, addend: 0x0, symName: __RNvCs73fAdSrgOJL_7___rustc13___rdl_realloc, symObjAddr: 0x3B2A8, symBinAddr: 0x1000315F0, symSize: 0xB0 }
  - { offset: 0x81AB2, size: 0x8, addend: 0x0, symName: __RNvCs73fAdSrgOJL_7___rustc18___rdl_alloc_zeroed, symObjAddr: 0x3B358, symBinAddr: 0x1000316A0, symSize: 0x90 }
  - { offset: 0x81B5E, size: 0x8, addend: 0x0, symName: __ZN3std5alloc8rust_oom17hdb6eb131aa920ad3E, symObjAddr: 0x48A7C, symBinAddr: 0x10004E938, symSize: 0x2C }
  - { offset: 0x81BAD, size: 0x8, addend: 0x0, symName: __RNvCs73fAdSrgOJL_7___rustc8___rg_oom, symObjAddr: 0x48AA8, symBinAddr: 0x10004E964, symSize: 0x18 }
  - { offset: 0x81C1D, size: 0x8, addend: 0x0, symName: '__ZN9addr2line8function17Function$LT$R$GT$14parse_children17hf3df585ce7ac8262E', symObjAddr: 0x1DE2C, symBinAddr: 0x10002AC64, symSize: 0xE84 }
  - { offset: 0x83498, size: 0x8, addend: 0x0, symName: __ZN9addr2line8function10name_entry17hfdced0c758d2a567E, symObjAddr: 0x1DAC0, symBinAddr: 0x10002A8F8, symSize: 0x36C }
  - { offset: 0x8395A, size: 0x8, addend: 0x0, symName: __ZN9addr2line8function9name_attr17h1ce69a4ce3ba7e89E, symObjAddr: 0x1ECB0, symBinAddr: 0x10002BAE8, symSize: 0x1C0 }
  - { offset: 0x83B7E, size: 0x8, addend: 0x0, symName: __ZN9addr2line4line11render_file17h41488bb5a6979477E, symObjAddr: 0x1C890, symBinAddr: 0x1000296C8, symSize: 0x4B0 }
  - { offset: 0x844DD, size: 0x8, addend: 0x0, symName: '__ZN9addr2line4unit16ResUnit$LT$R$GT$25find_function_or_location17h3697563f577d8d9fE', symObjAddr: 0x1CD40, symBinAddr: 0x100029B78, symSize: 0x378 }
  - { offset: 0x849B1, size: 0x8, addend: 0x0, symName: '__ZN9addr2line4unit16ResUnit$LT$R$GT$25find_function_or_location28_$u7b$$u7b$closure$u7d$$u7d$17h0d725353a137efa6E', symObjAddr: 0x1D0B8, symBinAddr: 0x100029EF0, symSize: 0x30C }
  - { offset: 0x84D56, size: 0x8, addend: 0x0, symName: '__ZN9addr2line16Context$LT$R$GT$9find_unit17hfe70ee874184feb7E', symObjAddr: 0x1C734, symBinAddr: 0x10002956C, symSize: 0x15C }
  - { offset: 0x84F05, size: 0x8, addend: 0x0, symName: '__ZN9addr2line6lookup30LoopingLookup$LT$T$C$L$C$F$GT$10new_lookup17h479f29027e320fd2E', symObjAddr: 0x1D684, symBinAddr: 0x10002A4BC, symSize: 0x43C }
  - { offset: 0x853E1, size: 0x8, addend: 0x0, symName: '__ZN9addr2line5frame18FrameIter$LT$R$GT$4next17hab4653c465939ee8E', symObjAddr: 0x1D3C4, symBinAddr: 0x10002A1FC, symSize: 0x2C0 }
  - { offset: 0x85AFE, size: 0x8, addend: 0x0, symName: '__ZN5gimli4read4unit18Attribute$LT$R$GT$5value17hf92c28dec7922b31E', symObjAddr: 0x174B8, symBinAddr: 0x1000247E8, symSize: 0x598 }
  - { offset: 0x85F17, size: 0x8, addend: 0x0, symName: '__ZN90_$LT$gimli..read..unit..AttributeValue$LT$R$C$Offset$GT$$u20$as$u20$core..clone..Clone$GT$5clone17hcb6071538b682662E', symObjAddr: 0x1C614, symBinAddr: 0x100029504, symSize: 0x68 }
  - { offset: 0x85F77, size: 0x8, addend: 0x0, symName: '__ZN5gimli4read4unit32AttributeValue$LT$R$C$Offset$GT$11udata_value17hb0fbf782d56f4d3fE', symObjAddr: 0x17D08, symBinAddr: 0x100025038, symSize: 0x84 }
  - { offset: 0x85FD2, size: 0x8, addend: 0x0, symName: __ZN5gimli4read4unit15parse_attribute17h04e99a6e8528e9b0E, symObjAddr: 0x16008, symBinAddr: 0x100023338, symSize: 0xF74 }
  - { offset: 0x88B91, size: 0x8, addend: 0x0, symName: __ZN5gimli4read4unit15skip_attributes17h34aae5d204503f89E, symObjAddr: 0x16F7C, symBinAddr: 0x1000242AC, symSize: 0x53C }
  - { offset: 0x8957B, size: 0x8, addend: 0x0, symName: '__ZN5gimli4read4unit22EntriesCursor$LT$R$GT$10next_entry17hdbe6c325dc93b25aE', symObjAddr: 0x17A50, symBinAddr: 0x100024D80, symSize: 0x2B8 }
  - { offset: 0x89B3F, size: 0x8, addend: 0x0, symName: '__ZN5gimli4read4unit33DebugInfoUnitHeadersIter$LT$R$GT$4next17ha7bc19eef22d5132E', symObjAddr: 0x17D8C, symBinAddr: 0x1000250BC, symSize: 0x518 }
  - { offset: 0x8AC89, size: 0x8, addend: 0x0, symName: '__ZN5gimli4read5dwarf13Unit$LT$R$GT$3new17h686262bf18a65175E', symObjAddr: 0x182A4, symBinAddr: 0x1000255D4, symSize: 0x1C84 }
  - { offset: 0x8E3E2, size: 0x8, addend: 0x0, symName: '__ZN5gimli4read5dwarf14Dwarf$LT$R$GT$11attr_string17h1e958f109b0daeb0E', symObjAddr: 0x19F28, symBinAddr: 0x100027258, symSize: 0x220 }
  - { offset: 0x8EDCE, size: 0x8, addend: 0x0, symName: __ZN5gimli4read6reader6Reader11read_offset17hfc4380759744d0ccE, symObjAddr: 0x1A808, symBinAddr: 0x100027B38, symSize: 0xB4 }
  - { offset: 0x8EFED, size: 0x8, addend: 0x0, symName: __ZN5gimli4read6reader6Reader12read_sleb12817h1bb18c7db89a5c45E, symObjAddr: 0x1A8BC, symBinAddr: 0x100027BEC, symSize: 0x23C }
  - { offset: 0x8F0C9, size: 0x8, addend: 0x0, symName: __ZN5gimli4read6reader6Reader12read_uleb12817he2bb007cca6a74e8E, symObjAddr: 0x1AAF8, symBinAddr: 0x100027E28, symSize: 0xB8 }
  - { offset: 0x8F170, size: 0x8, addend: 0x0, symName: __ZN5gimli4read6reader6Reader17read_sized_offset17h350128ac40d4d88bE, symObjAddr: 0x1ABB0, symBinAddr: 0x100027EE0, symSize: 0x10C }
  - { offset: 0x8F8DC, size: 0x8, addend: 0x0, symName: '__ZN5gimli4read4line27FileEntry$LT$R$C$Offset$GT$5parse17he72fe970b5aeb997E', symObjAddr: 0x15DEC, symBinAddr: 0x10002311C, symSize: 0x21C }
  - { offset: 0x8FB33, size: 0x8, addend: 0x0, symName: __ZN5gimli4read4line13parse_file_v517h17de60bb2846bd30E, symObjAddr: 0x14E6C, symBinAddr: 0x10002219C, symSize: 0x2B4 }
  - { offset: 0x8FCAB, size: 0x8, addend: 0x0, symName: __ZN5gimli4read4line15FileEntryFormat5parse17h5b94835e6d431828E, symObjAddr: 0x15120, symBinAddr: 0x100022450, symSize: 0x370 }
  - { offset: 0x9047E, size: 0x8, addend: 0x0, symName: __ZN5gimli4read4line15parse_attribute17h44b66ac1f1fd4d70E, symObjAddr: 0x15490, symBinAddr: 0x1000227C0, symSize: 0x874 }
  - { offset: 0x91C38, size: 0x8, addend: 0x0, symName: __ZN5gimli4read4line18parse_directory_v517hc1cf6537e0e6b55eE, symObjAddr: 0x15D04, symBinAddr: 0x100023034, symSize: 0xE8 }
  - { offset: 0x91DC3, size: 0x8, addend: 0x0, symName: '__ZN5gimli4read8rnglists20RngListIter$LT$R$GT$4next17h3cf0be4737bd2bfbE', symObjAddr: 0x1AF64, symBinAddr: 0x100028294, symSize: 0xC70 }
  - { offset: 0x9470E, size: 0x8, addend: 0x0, symName: '__ZN5gimli4read5index18UnitIndex$LT$R$GT$5parse17hb6f2329c704ae441E', symObjAddr: 0x1A148, symBinAddr: 0x100027478, symSize: 0x6C0 }
  - { offset: 0x94C82, size: 0x8, addend: 0x0, symName: '__ZN5gimli4read7aranges30ArangeHeader$LT$R$C$Offset$GT$5parse17ha7ab83fde3103809E', symObjAddr: 0x1ACBC, symBinAddr: 0x100027FEC, symSize: 0x2A8 }
  - { offset: 0x9593F, size: 0x8, addend: 0x0, symName: __ZN6object4read7archive13ArchiveMember5parse17h529fa28f4fec8200E, symObjAddr: 0x1C00C, symBinAddr: 0x100028F60, symSize: 0x304 }
  - { offset: 0x9595D, size: 0x8, addend: 0x0, symName: __ZN6object4read7archive13ArchiveMember5parse17h529fa28f4fec8200E, symObjAddr: 0x1C00C, symBinAddr: 0x100028F60, symSize: 0x304 }
  - { offset: 0x95972, size: 0x8, addend: 0x0, symName: __ZN6object4read7archive13ArchiveMember5parse17h529fa28f4fec8200E, symObjAddr: 0x1C00C, symBinAddr: 0x100028F60, symSize: 0x304 }
  - { offset: 0x9616C, size: 0x8, addend: 0x0, symName: __ZN6object4read7archive23parse_bsd_extended_name17ha21d7e6d1cf5441dE, symObjAddr: 0x1C310, symBinAddr: 0x100029264, symSize: 0x260 }
  - { offset: 0x96FEB, size: 0x8, addend: 0x0, symName: _OUTLINED_FUNCTION_0, symObjAddr: 0x4E800, symBinAddr: 0x10003D7B4, symSize: 0x8 }
  - { offset: 0x97003, size: 0x8, addend: 0x0, symName: _OUTLINED_FUNCTION_1, symObjAddr: 0x4E808, symBinAddr: 0x10003D7BC, symSize: 0xC }
  - { offset: 0x9701B, size: 0x8, addend: 0x0, symName: _OUTLINED_FUNCTION_2, symObjAddr: 0x4E814, symBinAddr: 0x10003D7C8, symSize: 0xC }
  - { offset: 0x97033, size: 0x8, addend: 0x0, symName: _OUTLINED_FUNCTION_3, symObjAddr: 0x4E820, symBinAddr: 0x10003D7D4, symSize: 0xC }
  - { offset: 0x9704B, size: 0x8, addend: 0x0, symName: _OUTLINED_FUNCTION_4, symObjAddr: 0x4E82C, symBinAddr: 0x10003D7E0, symSize: 0xC }
  - { offset: 0x97063, size: 0x8, addend: 0x0, symName: _OUTLINED_FUNCTION_5, symObjAddr: 0x4E838, symBinAddr: 0x10003D7EC, symSize: 0x8 }
  - { offset: 0x9707B, size: 0x8, addend: 0x0, symName: _OUTLINED_FUNCTION_6, symObjAddr: 0x4E840, symBinAddr: 0x10003D7F4, symSize: 0x24 }
  - { offset: 0x97093, size: 0x8, addend: 0x0, symName: _OUTLINED_FUNCTION_7, symObjAddr: 0x4E864, symBinAddr: 0x10003D818, symSize: 0x10 }
  - { offset: 0x970AB, size: 0x8, addend: 0x0, symName: _OUTLINED_FUNCTION_8, symObjAddr: 0x4E874, symBinAddr: 0x10003D828, symSize: 0x8 }
  - { offset: 0x970C3, size: 0x8, addend: 0x0, symName: _OUTLINED_FUNCTION_9, symObjAddr: 0x4E87C, symBinAddr: 0x10003D830, symSize: 0x8 }
  - { offset: 0x970DB, size: 0x8, addend: 0x0, symName: _OUTLINED_FUNCTION_10, symObjAddr: 0x4E884, symBinAddr: 0x10003D838, symSize: 0x24 }
  - { offset: 0x970F3, size: 0x8, addend: 0x0, symName: _OUTLINED_FUNCTION_11, symObjAddr: 0x4E8A8, symBinAddr: 0x10003D85C, symSize: 0x20 }
  - { offset: 0x9710B, size: 0x8, addend: 0x0, symName: _OUTLINED_FUNCTION_12, symObjAddr: 0x4E8C8, symBinAddr: 0x10003D87C, symSize: 0x8 }
  - { offset: 0x97123, size: 0x8, addend: 0x0, symName: _OUTLINED_FUNCTION_13, symObjAddr: 0x4E8D0, symBinAddr: 0x10003D884, symSize: 0x8 }
  - { offset: 0x9713B, size: 0x8, addend: 0x0, symName: _OUTLINED_FUNCTION_14, symObjAddr: 0x4E8D8, symBinAddr: 0x10003D88C, symSize: 0x8 }
  - { offset: 0x97153, size: 0x8, addend: 0x0, symName: _OUTLINED_FUNCTION_15, symObjAddr: 0x4E8E0, symBinAddr: 0x10003D894, symSize: 0x8 }
  - { offset: 0x9716B, size: 0x8, addend: 0x0, symName: _OUTLINED_FUNCTION_16, symObjAddr: 0x4E8E8, symBinAddr: 0x10003D89C, symSize: 0x8 }
  - { offset: 0x97183, size: 0x8, addend: 0x0, symName: _OUTLINED_FUNCTION_17, symObjAddr: 0x4E8F0, symBinAddr: 0x10003D8A4, symSize: 0x10 }
  - { offset: 0x9719B, size: 0x8, addend: 0x0, symName: _OUTLINED_FUNCTION_18, symObjAddr: 0x4E900, symBinAddr: 0x10003D8B4, symSize: 0x10 }
  - { offset: 0x971B3, size: 0x8, addend: 0x0, symName: _OUTLINED_FUNCTION_19, symObjAddr: 0x4E910, symBinAddr: 0x10003D8C4, symSize: 0x10 }
  - { offset: 0x971CB, size: 0x8, addend: 0x0, symName: _OUTLINED_FUNCTION_20, symObjAddr: 0x4E920, symBinAddr: 0x10003D8D4, symSize: 0x10 }
  - { offset: 0x971E3, size: 0x8, addend: 0x0, symName: _OUTLINED_FUNCTION_21, symObjAddr: 0x4E930, symBinAddr: 0x10003D8E4, symSize: 0xC }
  - { offset: 0x971FB, size: 0x8, addend: 0x0, symName: _OUTLINED_FUNCTION_22, symObjAddr: 0x4E93C, symBinAddr: 0x10003D8F0, symSize: 0x18 }
  - { offset: 0x97213, size: 0x8, addend: 0x0, symName: _OUTLINED_FUNCTION_23, symObjAddr: 0x4E954, symBinAddr: 0x10003D908, symSize: 0x8 }
  - { offset: 0x9722B, size: 0x8, addend: 0x0, symName: _OUTLINED_FUNCTION_24, symObjAddr: 0x4E95C, symBinAddr: 0x10003D910, symSize: 0xC }
  - { offset: 0x97243, size: 0x8, addend: 0x0, symName: _OUTLINED_FUNCTION_25, symObjAddr: 0x4E968, symBinAddr: 0x10003D91C, symSize: 0xC }
  - { offset: 0x9725B, size: 0x8, addend: 0x0, symName: _OUTLINED_FUNCTION_26, symObjAddr: 0x4E974, symBinAddr: 0x10003D928, symSize: 0x8 }
  - { offset: 0x97273, size: 0x8, addend: 0x0, symName: _OUTLINED_FUNCTION_27, symObjAddr: 0x4E97C, symBinAddr: 0x10003D930, symSize: 0x8 }
  - { offset: 0x9728B, size: 0x8, addend: 0x0, symName: _OUTLINED_FUNCTION_28, symObjAddr: 0x4E984, symBinAddr: 0x10003D938, symSize: 0xC }
  - { offset: 0x972A3, size: 0x8, addend: 0x0, symName: _OUTLINED_FUNCTION_29, symObjAddr: 0x4E990, symBinAddr: 0x10003D944, symSize: 0xC }
  - { offset: 0x972BB, size: 0x8, addend: 0x0, symName: _OUTLINED_FUNCTION_30, symObjAddr: 0x4E99C, symBinAddr: 0x10003D950, symSize: 0xC }
  - { offset: 0x972D3, size: 0x8, addend: 0x0, symName: _OUTLINED_FUNCTION_31, symObjAddr: 0x4E9A8, symBinAddr: 0x10003D95C, symSize: 0x8 }
  - { offset: 0x972EB, size: 0x8, addend: 0x0, symName: _OUTLINED_FUNCTION_32, symObjAddr: 0x4E9B0, symBinAddr: 0x10003D964, symSize: 0x10 }
  - { offset: 0x97303, size: 0x8, addend: 0x0, symName: _OUTLINED_FUNCTION_33, symObjAddr: 0x4E9C0, symBinAddr: 0x10003D974, symSize: 0x14 }
  - { offset: 0x9731B, size: 0x8, addend: 0x0, symName: _OUTLINED_FUNCTION_34, symObjAddr: 0x4E9D4, symBinAddr: 0x10003D988, symSize: 0x14 }
  - { offset: 0x97333, size: 0x8, addend: 0x0, symName: _OUTLINED_FUNCTION_35, symObjAddr: 0x4E9E8, symBinAddr: 0x10003D99C, symSize: 0x14 }
  - { offset: 0x9734B, size: 0x8, addend: 0x0, symName: _OUTLINED_FUNCTION_36, symObjAddr: 0x4E9FC, symBinAddr: 0x10003D9B0, symSize: 0x14 }
  - { offset: 0x97381, size: 0x8, addend: 0x0, symName: '__ZN4core3ptr49drop_in_place$LT$panic_unwind..imp..Exception$GT$17h527397a192ffb8f1E', symObjAddr: 0x0, symBinAddr: 0x10003D9C4, symSize: 0x78 }
  - { offset: 0x973A7, size: 0x8, addend: 0x0, symName: '__ZN4core3ptr49drop_in_place$LT$panic_unwind..imp..Exception$GT$17h527397a192ffb8f1E', symObjAddr: 0x0, symBinAddr: 0x10003D9C4, symSize: 0x78 }
  - { offset: 0x974AE, size: 0x8, addend: 0x0, symName: '__ZN4core3ptr74drop_in_place$LT$alloc..boxed..Box$LT$panic_unwind..imp..Exception$GT$$GT$17ha4260977db93ebb9E', symObjAddr: 0x78, symBinAddr: 0x10003DA3C, symSize: 0x8C }
  - { offset: 0x97776, size: 0x8, addend: 0x0, symName: __ZN12panic_unwind3imp5panic17exception_cleanup17h2bbea2a6f8ecfebbE, symObjAddr: 0x20C, symBinAddr: 0x10003DBD0, symSize: 0x18 }
  - { offset: 0x97792, size: 0x8, addend: 0x0, symName: __RNvCs73fAdSrgOJL_7___rustc20___rust_panic_cleanup, symObjAddr: 0x104, symBinAddr: 0x10003DAC8, symSize: 0x68 }
  - { offset: 0x97838, size: 0x8, addend: 0x0, symName: __RNvCs73fAdSrgOJL_7___rustc18___rust_start_panic, symObjAddr: 0x16C, symBinAddr: 0x10003DB30, symSize: 0xA0 }
  - { offset: 0x978FE, size: 0x8, addend: 0x0, symName: '__ZN42_$LT$$RF$T$u20$as$u20$core..fmt..Debug$GT$3fmt17hbfe40856fb87cb3fE', symObjAddr: 0x10, symBinAddr: 0x10004546C, symSize: 0x68 }
  - { offset: 0x97928, size: 0x8, addend: 0x0, symName: '__ZN42_$LT$$RF$T$u20$as$u20$core..fmt..Debug$GT$3fmt17hd70af3e1c37d3b5aE', symObjAddr: 0x78, symBinAddr: 0x1000454D4, symSize: 0x1C }
  - { offset: 0x979BA, size: 0x8, addend: 0x0, symName: __ZN4core3fmt5Write9write_fmt17hc140709df235180dE, symObjAddr: 0x94, symBinAddr: 0x1000454F0, symSize: 0x10 }
  - { offset: 0x979FC, size: 0x8, addend: 0x0, symName: '__ZN53_$LT$core..fmt..Error$u20$as$u20$core..fmt..Debug$GT$3fmt17haea4712e43834251E', symObjAddr: 0x3A4, symBinAddr: 0x100045518, symSize: 0x14 }
  - { offset: 0x97A96, size: 0x8, addend: 0x0, symName: '__ZN4core3ptr42drop_in_place$LT$alloc..string..String$GT$17h263ff4f12d214cf2E', symObjAddr: 0xBC, symBinAddr: 0x100045500, symSize: 0x18 }
  - { offset: 0x97D9D, size: 0x8, addend: 0x0, symName: __ZN4core9panicking13assert_failed17h55cb6962dc004475E, symObjAddr: 0x374, symBinAddr: 0x10004EA28, symSize: 0x30 }
  - { offset: 0x97DC8, size: 0x8, addend: 0x0, symName: '__ZN69_$LT$core..alloc..layout..LayoutError$u20$as$u20$core..fmt..Debug$GT$3fmt17h13fbca3ca3dd174dE', symObjAddr: 0x3B8, symBinAddr: 0x10004552C, symSize: 0x14 }
  - { offset: 0x98116, size: 0x8, addend: 0x0, symName: __ZN5alloc7raw_vec17capacity_overflow17hd8f87080832cecbdE, symObjAddr: 0x3CC, symBinAddr: 0x10004EA58, symSize: 0x34 }
  - { offset: 0x9815D, size: 0x8, addend: 0x0, symName: '__ZN5alloc7raw_vec20RawVecInner$LT$A$GT$7reserve21do_reserve_and_handle17h4dd33506b8348a9cE', symObjAddr: 0x4A0, symBinAddr: 0x10004EA8C, symSize: 0xB0 }
  - { offset: 0x9825F, size: 0x8, addend: 0x0, symName: __ZN5alloc7raw_vec11finish_grow17h38abc94d42a7bc55E, symObjAddr: 0x550, symBinAddr: 0x10004EB3C, symSize: 0x80 }
  - { offset: 0x982D5, size: 0x8, addend: 0x0, symName: __ZN5alloc7raw_vec12handle_error17h2ea1403ff25ec75cE, symObjAddr: 0x5D0, symBinAddr: 0x10004EBBC, symSize: 0x18 }
  - { offset: 0x983CF, size: 0x8, addend: 0x0, symName: __ZN5alloc5alloc18handle_alloc_error17h18ccdcfeddefd4c6E, symObjAddr: 0x5E8, symBinAddr: 0x10004EBD4, symSize: 0x18 }
  - { offset: 0x98479, size: 0x8, addend: 0x0, symName: __ZN5alloc6string6String15from_utf8_lossy17hbc43f3fc78418a81E, symObjAddr: 0x2E90, symBinAddr: 0x100045A14, symSize: 0x23C }
  - { offset: 0x9898F, size: 0x8, addend: 0x0, symName: __ZN5alloc6string6String17try_reserve_exact17hd6d1936590df7714E, symObjAddr: 0x4338, symBinAddr: 0x100045C50, symSize: 0xAC }
  - { offset: 0x98ADA, size: 0x8, addend: 0x0, symName: '__ZN98_$LT$alloc..string..String$u20$as$u20$core..convert..From$LT$alloc..borrow..Cow$LT$str$GT$$GT$$GT$4from17h4b68af2740d6abffE', symObjAddr: 0x47BC, symBinAddr: 0x100045CFC, symSize: 0xB4 }
  - { offset: 0x98C30, size: 0x8, addend: 0x0, symName: '__ZN58_$LT$alloc..string..String$u20$as$u20$core..fmt..Write$GT$9write_str17hba5566b7261b3df3E', symObjAddr: 0x491C, symBinAddr: 0x100045DB0, symSize: 0x78 }
  - { offset: 0x98D83, size: 0x8, addend: 0x0, symName: '__ZN58_$LT$alloc..string..String$u20$as$u20$core..fmt..Write$GT$10write_char17h5afa657ba1086fe6E', symObjAddr: 0x4994, symBinAddr: 0x100045E28, symSize: 0x130 }
  - { offset: 0x990D4, size: 0x8, addend: 0x0, symName: '__ZN93_$LT$alloc..collections..btree..mem..replace..PanicGuard$u20$as$u20$core..ops..drop..Drop$GT$4drop17he91a4622e79b07ddE', symObjAddr: 0xE74, symBinAddr: 0x10004EBEC, symSize: 0x4 }
  - { offset: 0x991D5, size: 0x8, addend: 0x0, symName: '__ZN72_$LT$$RF$str$u20$as$u20$alloc..ffi..c_str..CString..new..SpecNewImpl$GT$13spec_new_impl17h19bc653579af59a5E', symObjAddr: 0xEF8, symBinAddr: 0x100045540, symSize: 0x114 }
  - { offset: 0x99401, size: 0x8, addend: 0x0, symName: __ZN5alloc3ffi5c_str7CString19_from_vec_unchecked17h26f80605e3bdda78E, symObjAddr: 0x1150, symBinAddr: 0x100045654, symSize: 0x160 }
  - { offset: 0x99727, size: 0x8, addend: 0x0, symName: __ZN5alloc3ffi5c_str7CString8from_raw17h1a969b5b39f2d46eE, symObjAddr: 0x12B0, symBinAddr: 0x1000457B4, symSize: 0x28 }
  - { offset: 0x9975C, size: 0x8, addend: 0x0, symName: '__ZN100_$LT$alloc..ffi..c_str..CString$u20$as$u20$core..convert..From$LT$$RF$core..ffi..c_str..CStr$GT$$GT$4from17h793c5ab38e4e723fE', symObjAddr: 0x17CC, symBinAddr: 0x1000457DC, symSize: 0x80 }
  - { offset: 0x99869, size: 0x8, addend: 0x0, symName: __ZN5alloc3fmt6format12format_inner17haed4f2c70b405047E, symObjAddr: 0x1858, symBinAddr: 0x10004585C, symSize: 0x1B8 }
  - { offset: 0x99AA8, size: 0x8, addend: 0x0, symName: __ZN5alloc4sync32arcinner_layout_for_value_layout17h8c52c76ed82694fdE, symObjAddr: 0x4C48, symBinAddr: 0x100045F58, symSize: 0x74 }
  - { offset: 0x99BF2, size: 0x8, addend: 0x0, symName: __ZN4core3num22from_ascii_radix_panic8do_panic7runtime17h9ec10103f7c0716dE, symObjAddr: 0x17C88, symBinAddr: 0x10004F01C, symSize: 0x44 }
  - { offset: 0x99C25, size: 0x8, addend: 0x0, symName: __ZN4core3num22from_ascii_radix_panic17h8860cac63b800d2bE, symObjAddr: 0x3FD8, symBinAddr: 0x10004EBF0, symSize: 0xC }
  - { offset: 0x9A195, size: 0x8, addend: 0x0, symName: __ZN4core5slice5index26slice_start_index_len_fail8do_panic7runtime17h429c9cce17a0ea9bE, symObjAddr: 0x1C14C, symBinAddr: 0x10004F134, symSize: 0x50 }
  - { offset: 0x9A1C8, size: 0x8, addend: 0x0, symName: __ZN4core5slice5index26slice_start_index_len_fail17haf25ebf915d057aaE, symObjAddr: 0xF0BC, symBinAddr: 0x10004EFEC, symSize: 0xC }
  - { offset: 0x9A20E, size: 0x8, addend: 0x0, symName: __ZN4core5slice5index24slice_end_index_len_fail8do_panic7runtime17hdec1e0cff231be1dE, symObjAddr: 0x1C19C, symBinAddr: 0x10004F184, symSize: 0x50 }
  - { offset: 0x9A241, size: 0x8, addend: 0x0, symName: __ZN4core5slice5index24slice_end_index_len_fail17he89357cd02fca028E, symObjAddr: 0xF0C8, symBinAddr: 0x10004EFF8, symSize: 0xC }
  - { offset: 0x9A287, size: 0x8, addend: 0x0, symName: __ZN4core5slice5index22slice_index_order_fail8do_panic7runtime17h6303e3dc084ed840E, symObjAddr: 0x1C1EC, symBinAddr: 0x10004F1D4, symSize: 0x50 }
  - { offset: 0x9A2BA, size: 0x8, addend: 0x0, symName: __ZN4core5slice5index22slice_index_order_fail17he9c8f4194031cd00E, symObjAddr: 0xF0D4, symBinAddr: 0x10004F004, symSize: 0xC }
  - { offset: 0x9A613, size: 0x8, addend: 0x0, symName: __ZN4core5slice6memchr14memchr_aligned17hb906e7bc9e85c06eE, symObjAddr: 0xEA94, symBinAddr: 0x100048308, symSize: 0xDC }
  - { offset: 0x9A6EF, size: 0x8, addend: 0x0, symName: __ZN4core5slice6memchr7memrchr17h7ceb156575b1a919E, symObjAddr: 0xEB70, symBinAddr: 0x1000483E4, symSize: 0x120 }
  - { offset: 0x9A848, size: 0x8, addend: 0x0, symName: __ZN4core5slice4sort6stable5drift11sqrt_approx17hd32bbcccc9c319c0E, symObjAddr: 0xEC90, symBinAddr: 0x100048504, symSize: 0x2C }
  - { offset: 0x9A8C5, size: 0x8, addend: 0x0, symName: __ZN4core5slice4sort6shared9smallsort22panic_on_ord_violation17h87378ecb72803b59E, symObjAddr: 0xECBC, symBinAddr: 0x10004EFB4, symSize: 0x38 }
  - { offset: 0x9AA2C, size: 0x8, addend: 0x0, symName: '__ZN42_$LT$str$u20$as$u20$core..fmt..Display$GT$3fmt17h42462a8471c7143dE', symObjAddr: 0xE768, symBinAddr: 0x1000480A0, symSize: 0x14 }
  - { offset: 0x9ABCE, size: 0x8, addend: 0x0, symName: __ZN4core3fmt9Formatter12pad_integral17heb070ef6e4499464E, symObjAddr: 0xC07C, symBinAddr: 0x100046FE8, symSize: 0x3B4 }
  - { offset: 0x9AECF, size: 0x8, addend: 0x0, symName: __ZN4core3fmt9Formatter3pad17h299da9dcc544e21cE, symObjAddr: 0xC4AC, symBinAddr: 0x100047418, symSize: 0x304 }
  - { offset: 0x9B22F, size: 0x8, addend: 0x0, symName: __ZN4core3fmt9Formatter9write_str17hd9a1b7644989a9c8E, symObjAddr: 0xCC04, symBinAddr: 0x10004771C, symSize: 0x10 }
  - { offset: 0x9B243, size: 0x8, addend: 0x0, symName: __ZN4core3fmt9Formatter12debug_struct17hf7643d0658ff94cfE, symObjAddr: 0xCC20, symBinAddr: 0x10004772C, symSize: 0x3C }
  - { offset: 0x9B282, size: 0x8, addend: 0x0, symName: __ZN4core3fmt9Formatter26debug_struct_field1_finish17h3d8cc21df86d1f08E, symObjAddr: 0xCC5C, symBinAddr: 0x100047768, symSize: 0xD0 }
  - { offset: 0x9B359, size: 0x8, addend: 0x0, symName: __ZN4core3fmt9Formatter26debug_struct_field2_finish17h32b4f697403bec40E, symObjAddr: 0xCD2C, symBinAddr: 0x100047838, symSize: 0x104 }
  - { offset: 0x9B430, size: 0x8, addend: 0x0, symName: __ZN4core3fmt9Formatter11debug_tuple17h3a3ca798bd11b2bcE, symObjAddr: 0xD340, symBinAddr: 0x10004793C, symSize: 0x50 }
  - { offset: 0x9B485, size: 0x8, addend: 0x0, symName: __ZN4core3fmt9Formatter25debug_tuple_field1_finish17h293fabc56e30d0f7E, symObjAddr: 0xD390, symBinAddr: 0x10004798C, symSize: 0x160 }
  - { offset: 0x9B687, size: 0x8, addend: 0x0, symName: __ZN4core3fmt9Formatter25debug_tuple_field2_finish17h0773e66da7fec5dcE, symObjAddr: 0xD4F0, symBinAddr: 0x100047AEC, symSize: 0x1D8 }
  - { offset: 0x9B97F, size: 0x8, addend: 0x0, symName: __ZN4core3fmt9Formatter10debug_list17hb567e092460f51e4E, symObjAddr: 0xE2A4, symBinAddr: 0x100047CC4, symSize: 0x48 }
  - { offset: 0x9BA27, size: 0x8, addend: 0x0, symName: __ZN4core3fmt8builders11DebugStruct5field17hcf92289f4867f5e5E, symObjAddr: 0x8288, symBinAddr: 0x100046824, symSize: 0x1B4 }
  - { offset: 0x9BC26, size: 0x8, addend: 0x0, symName: __ZN4core3fmt8builders11DebugStruct6finish17h21c87724d91d861aE, symObjAddr: 0x8500, symBinAddr: 0x1000469D8, symSize: 0x80 }
  - { offset: 0x9BD27, size: 0x8, addend: 0x0, symName: '__ZN68_$LT$core..fmt..builders..PadAdapter$u20$as$u20$core..fmt..Write$GT$9write_str17hc0cf6ed124d300b4E', symObjAddr: 0x7FB0, symBinAddr: 0x10004654C, symSize: 0x258 }
  - { offset: 0x9BFA7, size: 0x8, addend: 0x0, symName: '__ZN68_$LT$core..fmt..builders..PadAdapter$u20$as$u20$core..fmt..Write$GT$10write_char17h9657826e049c4398E', symObjAddr: 0x8208, symBinAddr: 0x1000467A4, symSize: 0x80 }
  - { offset: 0x9C02C, size: 0x8, addend: 0x0, symName: __ZN4core3fmt8builders10DebugTuple5field17he743b1e43a659b47E, symObjAddr: 0x8580, symBinAddr: 0x100046A58, symSize: 0x148 }
  - { offset: 0x9C1B8, size: 0x8, addend: 0x0, symName: __ZN4core3fmt8builders10DebugTuple6finish17h39fdb22d98cc1346E, symObjAddr: 0x8788, symBinAddr: 0x100046BA0, symSize: 0xB0 }
  - { offset: 0x9C307, size: 0x8, addend: 0x0, symName: __ZN4core3fmt8builders8DebugSet5entry17h99c874a0178a5542E, symObjAddr: 0x8838, symBinAddr: 0x100046C50, symSize: 0x148 }
  - { offset: 0x9C4AC, size: 0x8, addend: 0x0, symName: __ZN4core3fmt8builders9DebugList6finish17hd378c2ebba87d08dE, symObjAddr: 0x8B58, symBinAddr: 0x100046D98, symSize: 0x4C }
  - { offset: 0x9C67C, size: 0x8, addend: 0x0, symName: '__ZN4core3fmt3num53_$LT$impl$u20$core..fmt..LowerHex$u20$for$u20$i32$GT$3fmt17h6e850657c74d9d25E', symObjAddr: 0x19818, symBinAddr: 0x10004A2F8, symSize: 0x80 }
  - { offset: 0x9C724, size: 0x8, addend: 0x0, symName: '__ZN4core3fmt3num53_$LT$impl$u20$core..fmt..UpperHex$u20$for$u20$i32$GT$3fmt17h997afd280f6b29c7E', symObjAddr: 0x19898, symBinAddr: 0x10004A378, symSize: 0x80 }
  - { offset: 0x9C7CC, size: 0x8, addend: 0x0, symName: '__ZN4core3fmt3num53_$LT$impl$u20$core..fmt..LowerHex$u20$for$u20$i64$GT$3fmt17hbe7c020a02da664cE', symObjAddr: 0x199F8, symBinAddr: 0x10004A3F8, symSize: 0x80 }
  - { offset: 0x9C874, size: 0x8, addend: 0x0, symName: '__ZN4core3fmt3num53_$LT$impl$u20$core..fmt..UpperHex$u20$for$u20$i64$GT$3fmt17h740b27e908318385E', symObjAddr: 0x19A78, symBinAddr: 0x10004A478, symSize: 0x80 }
  - { offset: 0x9C90F, size: 0x8, addend: 0x0, symName: '__ZN4core3fmt3num52_$LT$impl$u20$core..fmt..LowerHex$u20$for$u20$i8$GT$3fmt17h4b4be5c7ea7962d0E', symObjAddr: 0x19458, symBinAddr: 0x10004A1F8, symSize: 0x80 }
  - { offset: 0x9C9BE, size: 0x8, addend: 0x0, symName: '__ZN4core3fmt3num52_$LT$impl$u20$core..fmt..UpperHex$u20$for$u20$i8$GT$3fmt17h05fab38eb12d6eccE', symObjAddr: 0x194D8, symBinAddr: 0x10004A278, symSize: 0x80 }
  - { offset: 0x9CA92, size: 0x8, addend: 0x0, symName: '__ZN4core3fmt3num3imp51_$LT$impl$u20$core..fmt..Display$u20$for$u20$u8$GT$3fmt17h6b187241d8419cbfE', symObjAddr: 0x1A470, symBinAddr: 0x10004A4F8, symSize: 0xB0 }
  - { offset: 0x9CB56, size: 0x8, addend: 0x0, symName: '__ZN4core3fmt3num3imp52_$LT$impl$u20$core..fmt..Display$u20$for$u20$u32$GT$3fmt17hdad8bbb1fd1b667aE', symObjAddr: 0x1A984, symBinAddr: 0x10004A5A8, symSize: 0x130 }
  - { offset: 0x9CC2F, size: 0x8, addend: 0x0, symName: '__ZN4core3fmt3num3imp52_$LT$impl$u20$core..fmt..Display$u20$for$u20$i32$GT$3fmt17hf57747113c1e0663E', symObjAddr: 0x1AAB4, symBinAddr: 0x10004A6D8, symSize: 0x13C }
  - { offset: 0x9CD2D, size: 0x8, addend: 0x0, symName: '__ZN4core3fmt3num3imp52_$LT$impl$u20$core..fmt..Display$u20$for$u20$u64$GT$3fmt17ha8fcf0d52ed54e0fE', symObjAddr: 0x1ACF8, symBinAddr: 0x10004A814, symSize: 0x13C }
  - { offset: 0x9CE86, size: 0x8, addend: 0x0, symName: '__ZN57_$LT$core..fmt..Formatter$u20$as$u20$core..fmt..Write$GT$10write_char17h6d68564ee698b1edE', symObjAddr: 0xE38C, symBinAddr: 0x100047D0C, symSize: 0x10 }
  - { offset: 0x9CEB9, size: 0x8, addend: 0x0, symName: __ZN4core3fmt5Write9write_fmt17h9614ff1edc252aa5E, symObjAddr: 0xBE40, symBinAddr: 0x100046DE4, symSize: 0x10 }
  - { offset: 0x9CEFC, size: 0x8, addend: 0x0, symName: '__ZN59_$LT$core..fmt..Arguments$u20$as$u20$core..fmt..Display$GT$3fmt17h3a775e5eedaf7738E', symObjAddr: 0xBE88, symBinAddr: 0x100046DF4, symSize: 0xC }
  - { offset: 0x9CF60, size: 0x8, addend: 0x0, symName: __ZN4core3fmt5write17h2c4a0b98b09e3b30E, symObjAddr: 0xBE94, symBinAddr: 0x100046E00, symSize: 0x1E8 }
  - { offset: 0x9D13F, size: 0x8, addend: 0x0, symName: __ZN4core3fmt9Formatter12pad_integral12write_prefix17hc2a717568d4daf91E, symObjAddr: 0xC430, symBinAddr: 0x10004739C, symSize: 0x7C }
  - { offset: 0x9D185, size: 0x8, addend: 0x0, symName: '__ZN42_$LT$$RF$T$u20$as$u20$core..fmt..Debug$GT$3fmt17h6e4f67bb97a98f3cE', symObjAddr: 0x1BFA8, symBinAddr: 0x10004A950, symSize: 0xE0 }
  - { offset: 0x9D2A3, size: 0x8, addend: 0x0, symName: '__ZN42_$LT$$RF$T$u20$as$u20$core..fmt..Debug$GT$3fmt17hfbab3261e141b19fE', symObjAddr: 0x1C090, symBinAddr: 0x10004AA30, symSize: 0x10 }
  - { offset: 0x9D2DF, size: 0x8, addend: 0x0, symName: '__ZN40_$LT$str$u20$as$u20$core..fmt..Debug$GT$3fmt17h6bb0dde775cede54E', symObjAddr: 0xE3E4, symBinAddr: 0x100047D1C, symSize: 0x384 }
  - { offset: 0x9D6E4, size: 0x8, addend: 0x0, symName: '__ZN41_$LT$char$u20$as$u20$core..fmt..Debug$GT$3fmt17h5b77a63018c31381E', symObjAddr: 0xE77C, symBinAddr: 0x1000480B4, symSize: 0xA8 }
  - { offset: 0x9D7EE, size: 0x8, addend: 0x0, symName: '__ZN43_$LT$char$u20$as$u20$core..fmt..Display$GT$3fmt17hccc7cc18179c4872E', symObjAddr: 0xE824, symBinAddr: 0x10004815C, symSize: 0xEC }
  - { offset: 0x9D86D, size: 0x8, addend: 0x0, symName: __ZN4core3fmt17pointer_fmt_inner17h454be370dc368025E, symObjAddr: 0xE910, symBinAddr: 0x100048248, symSize: 0xC0 }
  - { offset: 0x9D955, size: 0x8, addend: 0x0, symName: '__ZN44_$LT$$RF$T$u20$as$u20$core..fmt..Display$GT$3fmt17hbbf5e2ca3c54582bE', symObjAddr: 0x1C0B0, symBinAddr: 0x10004AA40, symSize: 0x10 }
  - { offset: 0x9DA87, size: 0x8, addend: 0x0, symName: __ZN4core6option13unwrap_failed17h1f788aa856a0b42eE, symObjAddr: 0x7830, symBinAddr: 0x10004EC40, symSize: 0x1C }
  - { offset: 0x9DAA2, size: 0x8, addend: 0x0, symName: __ZN4core6option13expect_failed17h89af471ff13548f9E, symObjAddr: 0x784C, symBinAddr: 0x10004EC5C, symSize: 0x48 }
  - { offset: 0x9DAFA, size: 0x8, addend: 0x0, symName: '__ZN71_$LT$core..ops..range..Range$LT$Idx$GT$$u20$as$u20$core..fmt..Debug$GT$3fmt17h658e9a2f8f4bbb48E', symObjAddr: 0x414C, symBinAddr: 0x100045FCC, symSize: 0x1F8 }
  - { offset: 0x9DF77, size: 0x8, addend: 0x0, symName: __ZN4core6result13unwrap_failed17h7f68c62f4ec5b70eE, symObjAddr: 0x7EFC, symBinAddr: 0x10004EF58, symSize: 0x5C }
  - { offset: 0x9E1B6, size: 0x8, addend: 0x0, symName: __ZN4core3str5count14do_count_chars17hd2a57b08be8d1b70E, symObjAddr: 0xF77C, symBinAddr: 0x1000487A4, symSize: 0x718 }
  - { offset: 0x9E507, size: 0x8, addend: 0x0, symName: __ZN4core3str5count23char_count_general_case17h0d6812726d9a8e15E, symObjAddr: 0xFE94, symBinAddr: 0x100048EBC, symSize: 0x2A8 }
  - { offset: 0x9E5B4, size: 0x8, addend: 0x0, symName: __ZN4core3str8converts9from_utf817h7b78634a00291fadE, symObjAddr: 0xF294, symBinAddr: 0x100048530, symSize: 0x274 }
  - { offset: 0x9E5D1, size: 0x8, addend: 0x0, symName: __ZN4core3str8converts9from_utf817h7b78634a00291fadE, symObjAddr: 0xF294, symBinAddr: 0x100048530, symSize: 0x274 }
  - { offset: 0x9E6BF, size: 0x8, addend: 0x0, symName: __ZN4core3str7pattern11StrSearcher3new17hd95460b09bffc181E, symObjAddr: 0x1087C, symBinAddr: 0x100049164, symSize: 0x8BC }
  - { offset: 0x9E9D9, size: 0x8, addend: 0x0, symName: '__ZN87_$LT$core..str..lossy..Utf8Chunks$u20$as$u20$core..iter..traits..iterator..Iterator$GT$4next17h454b21b309792e7dE', symObjAddr: 0x1149C, symBinAddr: 0x100049A20, symSize: 0x1C0 }
  - { offset: 0x9EBDD, size: 0x8, addend: 0x0, symName: __ZN4core3str16slice_error_fail17h061e87b9dfc55aadE, symObjAddr: 0x11728, symBinAddr: 0x10004F010, symSize: 0xC }
  - { offset: 0x9EBF7, size: 0x8, addend: 0x0, symName: __ZN4core3str19slice_error_fail_rt17h7e572c53c14a04e8E, symObjAddr: 0x11768, symBinAddr: 0x100049BE0, symSize: 0x344 }
  - { offset: 0x9EE1F, size: 0x8, addend: 0x0, symName: '__ZN4core4char7methods22_$LT$impl$u20$char$GT$16escape_debug_ext17h530e3c57cef50f83E', symObjAddr: 0x4EEC, symBinAddr: 0x1000461D8, symSize: 0x284 }
  - { offset: 0x9F033, size: 0x8, addend: 0x0, symName: __ZN4core4char7methods15encode_utf8_raw8do_panic7runtime17he7bfa606ee446088E, symObjAddr: 0x17D20, symBinAddr: 0x10004F060, symSize: 0x6C }
  - { offset: 0x9F0D8, size: 0x8, addend: 0x0, symName: '__ZN65_$LT$core..cell..BorrowMutError$u20$as$u20$core..fmt..Display$GT$3fmt17hce6430c2316144b4E', symObjAddr: 0x4DB8, symBinAddr: 0x1000461C4, symSize: 0x14 }
  - { offset: 0x9F10A, size: 0x8, addend: 0x0, symName: __ZN4core4cell22panic_already_borrowed17h0d36ae2fc2f0ba17E, symObjAddr: 0x4DCC, symBinAddr: 0x10004EBFC, symSize: 0x44 }
  - { offset: 0x9F15A, size: 0x8, addend: 0x0, symName: __ZN4core7unicode12unicode_data15grapheme_extend11lookup_slow17hd2a4fb5538b8240dE, symObjAddr: 0x1D5B0, symBinAddr: 0x10004AA68, symSize: 0x108 }
  - { offset: 0x9F31F, size: 0x8, addend: 0x0, symName: __ZN4core7unicode12unicode_data2cc6lookup17h1698536727c00c0fE, symObjAddr: 0x1D598, symBinAddr: 0x10004AA50, symSize: 0x18 }
  - { offset: 0x9F33D, size: 0x8, addend: 0x0, symName: __ZN4core7unicode12unicode_data2cc6lookup17h1698536727c00c0fE, symObjAddr: 0x1D598, symBinAddr: 0x10004AA50, symSize: 0x18 }
  - { offset: 0x9F371, size: 0x8, addend: 0x0, symName: __ZN4core7unicode9printable12is_printable17h484639cf451143c4E, symObjAddr: 0x12484, symBinAddr: 0x100049F24, symSize: 0x2B4 }
  - { offset: 0x9F683, size: 0x8, addend: 0x0, symName: __ZN4core3ffi5c_str4CStr19from_bytes_with_nul17h3a2ee221267d5c22E, symObjAddr: 0x5480, symBinAddr: 0x10004645C, symSize: 0xF0 }
  - { offset: 0x9F6A1, size: 0x8, addend: 0x0, symName: __ZN4core3ffi5c_str4CStr19from_bytes_with_nul17h3a2ee221267d5c22E, symObjAddr: 0x5480, symBinAddr: 0x10004645C, symSize: 0xF0 }
  - { offset: 0x9F770, size: 0x8, addend: 0x0, symName: __ZN4core9panicking9panic_fmt17h3505bfbec5a0b799E, symObjAddr: 0x7AA4, symBinAddr: 0x10004ECA4, symSize: 0x20 }
  - { offset: 0x9F7B3, size: 0x8, addend: 0x0, symName: __ZN4core9panicking18panic_nounwind_fmt17h9dceef42c0a45ea6E, symObjAddr: 0x7AC4, symBinAddr: 0x10004ECC4, symSize: 0x3C }
  - { offset: 0x9F7F8, size: 0x8, addend: 0x0, symName: __ZN4core9panicking5panic17he76e9111fdaa2ca0E, symObjAddr: 0x7B00, symBinAddr: 0x10004ED00, symSize: 0x34 }
  - { offset: 0x9F827, size: 0x8, addend: 0x0, symName: __ZN4core9panicking14panic_nounwind17h9f7565b148aca0eaE, symObjAddr: 0x7B34, symBinAddr: 0x10004ED34, symSize: 0x3C }
  - { offset: 0x9F856, size: 0x8, addend: 0x0, symName: __ZN4core9panicking26panic_nounwind_nobacktrace17h12b19155b129e9d4E, symObjAddr: 0x7B70, symBinAddr: 0x10004ED70, symSize: 0x3C }
  - { offset: 0x9F885, size: 0x8, addend: 0x0, symName: __ZN4core9panicking18panic_bounds_check17he97faa96f3a18922E, symObjAddr: 0x7BF4, symBinAddr: 0x10004EDAC, symSize: 0x50 }
  - { offset: 0x9F8B7, size: 0x8, addend: 0x0, symName: __ZN4core9panicking19panic_cannot_unwind17hf7c38fa209f60374E, symObjAddr: 0x7CD4, symBinAddr: 0x10004EDFC, symSize: 0x18 }
  - { offset: 0x9F8D2, size: 0x8, addend: 0x0, symName: __ZN4core9panicking16panic_in_cleanup17hdc9dae2f5fec47e4E, symObjAddr: 0x7CEC, symBinAddr: 0x10004EE14, symSize: 0x18 }
  - { offset: 0x9F8ED, size: 0x8, addend: 0x0, symName: __ZN4core9panicking13assert_failed17h0019f4c0f6063c60E, symObjAddr: 0x7D68, symBinAddr: 0x10004EE2C, symSize: 0x24 }
  - { offset: 0x9F908, size: 0x8, addend: 0x0, symName: __ZN4core9panicking13assert_failed17h748d75638d28cdb2E, symObjAddr: 0x7D8C, symBinAddr: 0x10004EE50, symSize: 0x24 }
  - { offset: 0x9F923, size: 0x8, addend: 0x0, symName: __ZN4core9panicking19assert_failed_inner17hcd9fdaaa091321f9E, symObjAddr: 0x7DC4, symBinAddr: 0x10004EE74, symSize: 0xE4 }
  - { offset: 0x9F970, size: 0x8, addend: 0x0, symName: __ZN4core9panicking11panic_const23panic_const_div_by_zero17h31f967ea86996136E, symObjAddr: 0x18300, symBinAddr: 0x10004F0CC, symSize: 0x34 }
  - { offset: 0x9F99F, size: 0x8, addend: 0x0, symName: __ZN4core9panicking11panic_const23panic_const_rem_by_zero17ha1e16486c02437ccE, symObjAddr: 0x18334, symBinAddr: 0x10004F100, symSize: 0x34 }
  - { offset: 0x9FA0B, size: 0x8, addend: 0x0, symName: __ZN4core5alloc6layout6Layout19is_size_align_valid17h9081c126d538f17aE, symObjAddr: 0x129D4, symBinAddr: 0x10004A1D8, symSize: 0x20 }
  - { offset: 0x9FA28, size: 0x8, addend: 0x0, symName: __ZN4core5alloc6layout6Layout19is_size_align_valid17h9081c126d538f17aE, symObjAddr: 0x129D4, symBinAddr: 0x10004A1D8, symSize: 0x20 }
  - { offset: 0x9FA52, size: 0x8, addend: 0x0, symName: _OUTLINED_FUNCTION_0, symObjAddr: 0x1DCF4, symBinAddr: 0x10004AB70, symSize: 0x10 }
...
