---
triple:          'arm64-apple-darwin'
binary-path:     '/Users/tyler/fall25/cse380/final_project/final_project_sqlite/target/debug/build/libsqlite3-sys-83cd847939278c45/build_script_build-83cd847939278c45'
relocations:
  - { offset: 0x1E, size: 0x8, addend: 0x0, symName: __RINvMNtCsaNl6UpbT7bw_4core6optionINtB3_6OptionNtNtNtCsht3nMU9UgFu_3std3ffi6os_str8OsStringE6map_orbNCNvCs7BJ4jM1GVB3_18build_script_build4main0EB1D_, symObjAddr: 0x0, symBinAddr: 0x100000BF0, symSize: 0xD0 }
  - { offset: 0x68, size: 0x8, addend: 0x0, symName: __RNCINvNtCsht3nMU9UgFu_3std2rt10lang_startuE0Cs7BJ4jM1GVB3_18build_script_build, symObjAddr: 0x9FC, symBinAddr: 0x1000015EC, symSize: 0x34 }
  - { offset: 0xD2, size: 0x8, addend: 0x0, symName: __RINvNtCsht3nMU9UgFu_3std2rt10lang_startuECs7BJ4jM1GVB3_18build_script_build, symObjAddr: 0x7F4, symBinAddr: 0x1000013E4, symSize: 0x60 }
  - { offset: 0x18C, size: 0x8, addend: 0x0, symName: __RINvNtCsht3nMU9UgFu_3std3env3varNtNtCsiTraAjBDcu4_5alloc6string6StringECs7BJ4jM1GVB3_18build_script_build, symObjAddr: 0x854, symBinAddr: 0x100001444, symSize: 0x74 }
  - { offset: 0x1E5, size: 0x8, addend: 0x0, symName: __RNCINvNtCsht3nMU9UgFu_3std3env7set_varReNtNtB6_4path7PathBufE0Cs7BJ4jM1GVB3_18build_script_build, symObjAddr: 0xA30, symBinAddr: 0x100001620, symSize: 0x12C }
  - { offset: 0x2FB, size: 0x8, addend: 0x0, symName: __RINvNtCsht3nMU9UgFu_3std3env7set_varReNtNtB4_4path7PathBufECs7BJ4jM1GVB3_18build_script_build, symObjAddr: 0x8C8, symBinAddr: 0x1000014B8, symSize: 0x110 }
  - { offset: 0x3A8, size: 0x8, addend: 0x0, symName: __RNvXsk_NtCsht3nMU9UgFu_3std3envNtB5_8VarErrorNtNtCsaNl6UpbT7bw_4core3fmt5Debug3fmtCs7BJ4jM1GVB3_18build_script_build, symObjAddr: 0x1770, symBinAddr: 0x100002360, symSize: 0xA0 }
  - { offset: 0x454, size: 0x8, addend: 0x0, symName: __RNvXs3_NtNtCsht3nMU9UgFu_3std3ffi6os_strNtB5_8OsStringINtNtNtCsaNl6UpbT7bw_4core3ops5index5IndexNtNtBV_5range9RangeFullE5indexCs7BJ4jM1GVB3_18build_script_build, symObjAddr: 0x15F0, symBinAddr: 0x1000021E0, symSize: 0x80 }
  - { offset: 0x5AB, size: 0x8, addend: 0x0, symName: __RNvXsX_NtNtCsht3nMU9UgFu_3std3ffi6os_strNtNtCsiTraAjBDcu4_5alloc6string6StringINtNtCsaNl6UpbT7bw_4core7convert5AsRefNtB5_5OsStrE6as_refCs7BJ4jM1GVB3_18build_script_build, symObjAddr: 0x16E0, symBinAddr: 0x1000022D0, symSize: 0x80 }
  - { offset: 0x7CF, size: 0x8, addend: 0x0, symName: __RINvNtNtCsht3nMU9UgFu_3std3sys9backtrace28___rust_begin_short_backtraceFEuuECs7BJ4jM1GVB3_18build_script_build, symObjAddr: 0x9D8, symBinAddr: 0x1000015C8, symSize: 0x24 }
  - { offset: 0xB7D, size: 0x8, addend: 0x0, symName: __RNvXs11_NtCsht3nMU9UgFu_3std4pathNtB6_7PathBufINtNtCsaNl6UpbT7bw_4core7convert5AsRefNtNtNtB8_3ffi6os_str5OsStrE6as_refCs7BJ4jM1GVB3_18build_script_build, symObjAddr: 0x13EC, symBinAddr: 0x100001FDC, symSize: 0x2C }
  - { offset: 0xBB1, size: 0x8, addend: 0x0, symName: __RNvXs1i_NtCsht3nMU9UgFu_3std4pathNtNtCsiTraAjBDcu4_5alloc6string6StringINtNtCsaNl6UpbT7bw_4core7convert5AsRefNtB6_4PathE6as_refCs7BJ4jM1GVB3_18build_script_build, symObjAddr: 0x142C, symBinAddr: 0x10000201C, symSize: 0x24 }
  - { offset: 0xC03, size: 0x8, addend: 0x0, symName: __RNvXsH_NtCsht3nMU9UgFu_3std4pathNtB5_7PathBufNtNtNtCsaNl6UpbT7bw_4core3ops5deref5Deref5derefCs7BJ4jM1GVB3_18build_script_build, symObjAddr: 0x16AC, symBinAddr: 0x10000229C, symSize: 0x34 }
  - { offset: 0xF41, size: 0x8, addend: 0x0, symName: __RINvNtCsht3nMU9UgFu_3std2fs4copyNtNtCsiTraAjBDcu4_5alloc6string6StringRNtNtB4_4path4PathECs7BJ4jM1GVB3_18build_script_build, symObjAddr: 0x74C, symBinAddr: 0x10000133C, symSize: 0xA8 }
  - { offset: 0x1009, size: 0x8, addend: 0x0, symName: __RNvXsZ_NtCsht3nMU9UgFu_3std7processuNtB5_11Termination6reportCs7BJ4jM1GVB3_18build_script_build, symObjAddr: 0x1760, symBinAddr: 0x100002350, symSize: 0x10 }
  - { offset: 0x17E3, size: 0x8, addend: 0x0, symName: __RNvXs1n_NtCsiTraAjBDcu4_5alloc6stringNtB6_6StringINtNtCsaNl6UpbT7bw_4core3cmp9PartialEqeE2neCs7BJ4jM1GVB3_18build_script_build, symObjAddr: 0x1450, symBinAddr: 0x100002040, symSize: 0xD0 }
  - { offset: 0x1A49, size: 0x8, addend: 0x0, symName: __RNvXs1p_NtCsiTraAjBDcu4_5alloc6stringNtB6_6StringINtNtCsaNl6UpbT7bw_4core3cmp9PartialEqReE2eqCs7BJ4jM1GVB3_18build_script_build, symObjAddr: 0x1520, symBinAddr: 0x100002110, symSize: 0xD0 }
  - { offset: 0x1CA9, size: 0x8, addend: 0x0, symName: __RNvXss_NtCsiTraAjBDcu4_5alloc6stringNtB5_6StringNtNtNtCsaNl6UpbT7bw_4core3ops5deref5Deref5derefCs7BJ4jM1GVB3_18build_script_build, symObjAddr: 0x1810, symBinAddr: 0x100002400, symSize: 0x24 }
  - { offset: 0x201D, size: 0x8, addend: 0x0, symName: __RNvNtCsiTraAjBDcu4_5alloc3fmt6formatCs7BJ4jM1GVB3_18build_script_build, symObjAddr: 0x1064, symBinAddr: 0x100001C54, symSize: 0xD4 }
  - { offset: 0x249A, size: 0x8, addend: 0x0, symName: __RINvNtCsaNl6UpbT7bw_4core3ptr13drop_in_placeINtNtB4_6option6OptionNtCs7BJ4jM1GVB3_18build_script_build14HeaderLocationEEB14_, symObjAddr: 0x5F0, symBinAddr: 0x1000011E0, symSize: 0x4C }
  - { offset: 0x24C9, size: 0x8, addend: 0x0, symName: __RINvNtCsaNl6UpbT7bw_4core3ptr13drop_in_placeINtNtB4_6result6ResultNtCs23PVZzqjOzE_10pkg_config7LibraryNtB14_5ErrorEECs7BJ4jM1GVB3_18build_script_build, symObjAddr: 0x63C, symBinAddr: 0x10000122C, symSize: 0x5C }
  - { offset: 0x24F8, size: 0x8, addend: 0x0, symName: __RINvNtCsaNl6UpbT7bw_4core3ptr13drop_in_placeINtNtB4_6result6ResultNtCsf5fT0r89Pli_5vcpkg7LibraryNtB14_5ErrorEECs7BJ4jM1GVB3_18build_script_build, symObjAddr: 0x698, symBinAddr: 0x100001288, symSize: 0x5C }
  - { offset: 0x2527, size: 0x8, addend: 0x0, symName: __RINvNtCsaNl6UpbT7bw_4core3ptr13drop_in_placeNtCs7BJ4jM1GVB3_18build_script_build14HeaderLocationEBI_, symObjAddr: 0x6F4, symBinAddr: 0x1000012E4, symSize: 0x58 }
  - { offset: 0x3641, size: 0x8, addend: 0x0, symName: __RNvNvNtCsaNl6UpbT7bw_4core4hint16assert_unchecked18precondition_checkCs7BJ4jM1GVB3_18build_script_build, symObjAddr: 0x1138, symBinAddr: 0x100001D28, symSize: 0xA4 }
  - { offset: 0x3916, size: 0x8, addend: 0x0, symName: __RNSNvYNCINvNtCsht3nMU9UgFu_3std2rt10lang_startuE0INtNtNtCsaNl6UpbT7bw_4core3ops8function6FnOnceuE9call_once6vtableCs7BJ4jM1GVB3_18build_script_build, symObjAddr: 0xB5C, symBinAddr: 0x10000174C, symSize: 0x28 }
  - { offset: 0x395A, size: 0x8, addend: 0x0, symName: __RNvYFEuINtNtNtCsaNl6UpbT7bw_4core3ops8function6FnOnceuE9call_onceCs7BJ4jM1GVB3_18build_script_build, symObjAddr: 0x1864, symBinAddr: 0x100002454, symSize: 0x20 }
  - { offset: 0x399A, size: 0x8, addend: 0x0, symName: __RNvYNCINvNtCsht3nMU9UgFu_3std2rt10lang_startuE0INtNtNtCsaNl6UpbT7bw_4core3ops8function6FnOnceuE9call_onceCs7BJ4jM1GVB3_18build_script_build, symObjAddr: 0x1884, symBinAddr: 0x100002474, symSize: 0x4C }
  - { offset: 0x3B3C, size: 0x8, addend: 0x0, symName: __RNvXsz_NtNtCsaNl6UpbT7bw_4core3str4iterNtB5_15SplitWhitespaceNtNtNtNtB9_4iter6traits8iterator8Iterator4nextCs7BJ4jM1GVB3_18build_script_build, symObjAddr: 0x1834, symBinAddr: 0x100002424, symSize: 0x30 }
  - { offset: 0x3BD8, size: 0x8, addend: 0x0, symName: __RNvMNtCsaNl6UpbT7bw_4core3stre16split_whitespaceCs7BJ4jM1GVB3_18build_script_build, symObjAddr: 0xB84, symBinAddr: 0x100001774, symSize: 0xCC }
  - { offset: 0x3E03, size: 0x8, addend: 0x0, symName: __RNvNvNtNtCsaNl6UpbT7bw_4core5slice3raw14from_raw_parts18precondition_checkCs7BJ4jM1GVB3_18build_script_build, symObjAddr: 0x11DC, symBinAddr: 0x100001DCC, symSize: 0x1DC }
  - { offset: 0x4298, size: 0x8, addend: 0x0, symName: __RNvXs1_NtCsaNl6UpbT7bw_4core7convertINtNtCsiTraAjBDcu4_5alloc6borrow3CoweEINtB5_4IntoNtNtBD_6string6StringE4intoCs7BJ4jM1GVB3_18build_script_build, symObjAddr: 0x1418, symBinAddr: 0x100002008, symSize: 0x14 }
  - { offset: 0x4321, size: 0x8, addend: 0x0, symName: __RNvYNtNtCsfpvTL5dBvDY_2cc16windows_registry6VsVersNtNtCsaNl6UpbT7bw_4core3cmp9PartialEq2neCs7BJ4jM1GVB3_18build_script_build, symObjAddr: 0x18D0, symBinAddr: 0x1000024C0, symSize: 0x30 }
  - { offset: 0x43F3, size: 0x8, addend: 0x0, symName: __RNvXs7_NtNtCsaNl6UpbT7bw_4core3cmp5implsRNtNtCsiTraAjBDcu4_5alloc6string6StringINtB7_9PartialEqReE2neCs7BJ4jM1GVB3_18build_script_build, symObjAddr: 0x1670, symBinAddr: 0x100002260, symSize: 0x3C }
  - { offset: 0x4508, size: 0x8, addend: 0x0, symName: __RNCNvCs7BJ4jM1GVB3_18build_script_build4main0B3_, symObjAddr: 0x1F18, symBinAddr: 0x100002B08, symSize: 0x74 }
  - { offset: 0x4558, size: 0x8, addend: 0x0, symName: __RNCNvCs7BJ4jM1GVB3_18build_script_build11is_compiler0B3_, symObjAddr: 0x1AB8, symBinAddr: 0x1000026A8, symSize: 0x7C }
  - { offset: 0x45A2, size: 0x8, addend: 0x0, symName: __RNCNvCs7BJ4jM1GVB3_18build_script_build14android_target0B3_, symObjAddr: 0x19DC, symBinAddr: 0x1000025CC, symSize: 0x74 }
  - { offset: 0x45EB, size: 0x8, addend: 0x0, symName: __RNCNvNtCs7BJ4jM1GVB3_18build_script_build13build_bundled4mains0_0B5_, symObjAddr: 0x2ED0, symBinAddr: 0x100003AC0, symSize: 0x74 }
  - { offset: 0x4623, size: 0x8, addend: 0x0, symName: __RNvNtCs7BJ4jM1GVB3_18build_script_build13build_bundled4main, symObjAddr: 0x1F8C, symBinAddr: 0x100002B7C, symSize: 0xF44 }
  - { offset: 0x48F3, size: 0x8, addend: 0x0, symName: __RNvCs7BJ4jM1GVB3_18build_script_build10win_target, symObjAddr: 0x1900, symBinAddr: 0x1000024F0, symSize: 0x88 }
  - { offset: 0x4910, size: 0x8, addend: 0x0, symName: __RNvCs7BJ4jM1GVB3_18build_script_build14android_target, symObjAddr: 0x1988, symBinAddr: 0x100002578, symSize: 0x54 }
  - { offset: 0x492D, size: 0x8, addend: 0x0, symName: __RNvCs7BJ4jM1GVB3_18build_script_build11is_compiler, symObjAddr: 0x1A50, symBinAddr: 0x100002640, symSize: 0x68 }
  - { offset: 0x4959, size: 0x8, addend: 0x0, symName: __RINvCs7BJ4jM1GVB3_18build_script_build13copy_bindingsRNtNtCsht3nMU9UgFu_3std4path4PathEB2_, symObjAddr: 0x1B34, symBinAddr: 0x100002724, symSize: 0x154 }
  - { offset: 0x4A17, size: 0x8, addend: 0x0, symName: __RNvCs7BJ4jM1GVB3_18build_script_build4main, symObjAddr: 0x1C88, symBinAddr: 0x100002878, symSize: 0x290 }
  - { offset: 0x4A91, size: 0x8, addend: 0x0, symName: __RNvCs7BJ4jM1GVB3_18build_script_build10env_prefix, symObjAddr: 0x2F44, symBinAddr: 0x100003B34, symSize: 0x24 }
  - { offset: 0x4AAF, size: 0x8, addend: 0x0, symName: __RNvCs7BJ4jM1GVB3_18build_script_build8lib_name, symObjAddr: 0x2F68, symBinAddr: 0x100003B58, symSize: 0x24 }
  - { offset: 0x4AD2, size: 0x8, addend: 0x0, symName: __RNvNtCs7BJ4jM1GVB3_18build_script_build12build_linked4main, symObjAddr: 0x2F8C, symBinAddr: 0x100003B7C, symSize: 0xF4 }
  - { offset: 0x4B21, size: 0x8, addend: 0x0, symName: __RNvNtCs7BJ4jM1GVB3_18build_script_build12build_linked14find_link_mode, symObjAddr: 0x3080, symBinAddr: 0x100003C70, symSize: 0x16C }
  - { offset: 0x4BAC, size: 0x8, addend: 0x0, symName: __RNvNtCs7BJ4jM1GVB3_18build_script_build12build_linked11find_sqlite, symObjAddr: 0x31EC, symBinAddr: 0x100003DDC, symSize: 0x87C }
  - { offset: 0x4DAA, size: 0x8, addend: 0x0, symName: __RNvNtCs7BJ4jM1GVB3_18build_script_build12build_linked9try_vcpkg, symObjAddr: 0x3A68, symBinAddr: 0x100004658, symSize: 0x334 }
  - { offset: 0x4F7C, size: 0x8, addend: 0x0, symName: __RNvXs0_NtCsfpvTL5dBvDY_2cc16windows_registryNtB5_6VsVersNtNtCsaNl6UpbT7bw_4core3cmp9PartialEq2eqCs7BJ4jM1GVB3_18build_script_build, symObjAddr: 0x13B8, symBinAddr: 0x100001FA8, symSize: 0x34 }
  - { offset: 0x5448, size: 0x8, addend: 0x0, symName: __RINvMNtCsaNl6UpbT7bw_4core6optionINtB3_6OptionNtNtNtCsht3nMU9UgFu_3std3ffi6os_str8OsStringE6map_orbNCNvCs7BJ4jM1GVB3_18build_script_build4main0EB1D_, symObjAddr: 0x0, symBinAddr: 0x100000BF0, symSize: 0xD0 }
  - { offset: 0x54C8, size: 0x8, addend: 0x0, symName: __RINvMNtCsaNl6UpbT7bw_4core6resultINtB3_6ResultNtNtCsiTraAjBDcu4_5alloc6string6StringNtNtCsht3nMU9UgFu_3std3env8VarErrorE6map_orbNCNvCs7BJ4jM1GVB3_18build_script_build11is_compiler0EB26_, symObjAddr: 0xD0, symBinAddr: 0x100000CC0, symSize: 0x10C }
  - { offset: 0x5544, size: 0x8, addend: 0x0, symName: __RINvMNtCsaNl6UpbT7bw_4core6resultINtB3_6ResultNtNtCsiTraAjBDcu4_5alloc6string6StringNtNtCsht3nMU9UgFu_3std3env8VarErrorE6map_orbNCNvCs7BJ4jM1GVB3_18build_script_build14android_target0EB26_, symObjAddr: 0x1DC, symBinAddr: 0x100000DCC, symSize: 0x100 }
  - { offset: 0x55C0, size: 0x8, addend: 0x0, symName: __RINvMNtCsaNl6UpbT7bw_4core6resultINtB3_6ResultNtNtCsiTraAjBDcu4_5alloc6string6StringNtNtCsht3nMU9UgFu_3std3env8VarErrorE6map_orbNCNvNtCs7BJ4jM1GVB3_18build_script_build13build_bundled4mains0_0EB28_, symObjAddr: 0x2DC, symBinAddr: 0x100000ECC, symSize: 0x100 }
  - { offset: 0x5BAD, size: 0x8, addend: 0x0, symName: __RINvMs3_CsfpvTL5dBvDY_2ccNtB6_5Build4fileNtNtCsiTraAjBDcu4_5alloc6string6StringECs7BJ4jM1GVB3_18build_script_build, symObjAddr: 0x3DC, symBinAddr: 0x100000FCC, symSize: 0xC0 }
  - { offset: 0x5BF6, size: 0x8, addend: 0x0, symName: __RINvMs3_CsfpvTL5dBvDY_2ccNtB6_5Build4flagRNtNtCsiTraAjBDcu4_5alloc6string6StringECs7BJ4jM1GVB3_18build_script_build, symObjAddr: 0x49C, symBinAddr: 0x10000108C, symSize: 0xA8 }
  - { offset: 0x5C31, size: 0x8, addend: 0x0, symName: __RINvMs3_CsfpvTL5dBvDY_2ccNtB6_5Build4flagReECs7BJ4jM1GVB3_18build_script_build, symObjAddr: 0x544, symBinAddr: 0x100001134, symSize: 0xAC }
  - { offset: 0x60CD, size: 0x8, addend: 0x0, symName: __RNvMNtCsaNl6UpbT7bw_4core6resultINtB2_6ResultNtCs23PVZzqjOzE_10pkg_config7LibraryNtBJ_5ErrorE6is_errCs7BJ4jM1GVB3_18build_script_build, symObjAddr: 0xC50, symBinAddr: 0x100001840, symSize: 0x30 }
  - { offset: 0x6120, size: 0x8, addend: 0x0, symName: __RNvMNtCsaNl6UpbT7bw_4core6resultINtB2_6ResultyNtNtNtCsht3nMU9UgFu_3std2io5error5ErrorE6expectCs7BJ4jM1GVB3_18build_script_build, symObjAddr: 0xC80, symBinAddr: 0x100001870, symSize: 0x9C }
  - { offset: 0x6269, size: 0x8, addend: 0x0, symName: __RNvMNtCsiTraAjBDcu4_5alloc6stringNtB2_6String6as_strCs7BJ4jM1GVB3_18build_script_build, symObjAddr: 0xD1C, symBinAddr: 0x10000190C, symSize: 0x78 }
  - { offset: 0x63C4, size: 0x8, addend: 0x0, symName: __RNvMs0_NtCsiTraAjBDcu4_5alloc7raw_vecINtB5_6RawVecINtNtB7_4sync3ArcNtNtCsht3nMU9UgFu_3std4path4PathEE8grow_oneCs7BJ4jM1GVB3_18build_script_build, symObjAddr: 0xD94, symBinAddr: 0x100001984, symSize: 0x90 }
  - { offset: 0x6498, size: 0x8, addend: 0x0, symName: __RNvMs12_NtCsht3nMU9UgFu_3std4pathNtB6_4Path15to_string_lossyCs7BJ4jM1GVB3_18build_script_build, symObjAddr: 0xE24, symBinAddr: 0x100001A14, symSize: 0x40 }
  - { offset: 0x660A, size: 0x8, addend: 0x0, symName: __RNvMs_NtCsiTraAjBDcu4_5alloc3vecINtB4_3VecINtNtB6_4sync3ArcNtNtCsht3nMU9UgFu_3std4path4PathEE4pushCs7BJ4jM1GVB3_18build_script_build, symObjAddr: 0xE64, symBinAddr: 0x100001A54, symSize: 0xF8 }
  - { offset: 0x6915, size: 0x8, addend: 0x0, symName: __RNvMs_NtCsiTraAjBDcu4_5alloc3vecINtB4_3VecNtNtCsht3nMU9UgFu_3std4path7PathBufE3popCs7BJ4jM1GVB3_18build_script_build, symObjAddr: 0xF5C, symBinAddr: 0x100001B4C, symSize: 0x108 }
  - { offset: 0x70F1, size: 0x8, addend: 0x0, symName: __RINvMsx_NtNtCsaNl6UpbT7bw_4core3str7patternNtB6_14TwoWaySearcher4nextNtB6_14RejectAndMatchECs23PVZzqjOzE_10pkg_config, symObjAddr: 0x0, symBinAddr: 0x1000049D0, symSize: 0x540 }
  - { offset: 0x797B, size: 0x8, addend: 0x0, symName: __RINvYINtNtNtCsaNl6UpbT7bw_4core5slice4iter4IterNtNtCsiTraAjBDcu4_5alloc6string6StringENtNtNtNtBa_4iter6traits8iterator8Iterator3mapINtNtBN_3vec3VecReENCNvMs5_Cs23PVZzqjOzE_10pkg_configNtB2w_7Library17parse_libs_cflagss3_0EB2w_, symObjAddr: 0x1754, symBinAddr: 0x100006124, symSize: 0x1C }
  - { offset: 0x79D3, size: 0x8, addend: 0x0, symName: __RINvYINtNtNtCsaNl6UpbT7bw_4core5slice4iter4IterNtNtCsiTraAjBDcu4_5alloc6string6StringENtNtNtNtBa_4iter6traits8iterator8Iterator6filterNCNvMs5_Cs23PVZzqjOzE_10pkg_configNtB2g_7Library17parse_libs_cflagss0_0EB2g_, symObjAddr: 0x1770, symBinAddr: 0x100006140, symSize: 0x1C }
  - { offset: 0x7A22, size: 0x8, addend: 0x0, symName: __RINvYINtNtNtCsaNl6UpbT7bw_4core5slice4iter4IterNtNtCsiTraAjBDcu4_5alloc6string6StringENtNtNtNtBa_4iter6traits8iterator8Iterator6filterNCNvMs5_Cs23PVZzqjOzE_10pkg_configNtB2g_7Library17parse_libs_cflagss4_0EB2g_, symObjAddr: 0x178C, symBinAddr: 0x10000615C, symSize: 0x1C }
  - { offset: 0x7A98, size: 0x8, addend: 0x0, symName: __RINvYINtNtNtCsaNl6UpbT7bw_4core5slice4iter4IterNtNtCsiTraAjBDcu4_5alloc6string6StringENtNtNtNtBa_4iter6traits8iterator8Iterator8flat_mapINtNtBN_3vec3VecReENCNvMs5_Cs23PVZzqjOzE_10pkg_configNtB2B_7Library17parse_libs_cflagss3_0EB2B_, symObjAddr: 0x17A8, symBinAddr: 0x100006178, symSize: 0x94 }
  - { offset: 0x7B66, size: 0x8, addend: 0x0, symName: __RINvYINtNtNtCsaNl6UpbT7bw_4core5slice4iter4IterNtNtCsiTraAjBDcu4_5alloc6string6StringENtNtNtNtBa_4iter6traits8iterator8Iterator8try_foldjNCINvNtNtB1s_8adapters3map12map_try_foldRBJ_jjINtNtBa_6option6OptionjENCNCINvNtBN_3str17join_generic_copyehBJ_E00NvMs9_NtBa_3numj11checked_addE0B2V_ECs23PVZzqjOzE_10pkg_config, symObjAddr: 0x183C, symBinAddr: 0x10000620C, symSize: 0x17C }
  - { offset: 0x7C1A, size: 0x8, addend: 0x0, symName: __RINvYINtNtNtCsaNl6UpbT7bw_4core5slice4iter4IterNtNtNtCsht3nMU9UgFu_3std3ffi6os_str8OsStringENtNtNtNtBa_4iter6traits8iterator8Iterator3mapBJ_NCINvMCs23PVZzqjOzE_10pkg_configNtB2k_14WrappedCommand4argsRINtNtCsiTraAjBDcu4_5alloc3vec3VecBJ_ERBJ_E0EB2k_, symObjAddr: 0x19B8, symBinAddr: 0x100006388, symSize: 0x1C }
  - { offset: 0x7C72, size: 0x8, addend: 0x0, symName: __RINvYINtNtNtCsaNl6UpbT7bw_4core5slice4iter4IterNtNtNtCsht3nMU9UgFu_3std3ffi6os_str8OsStringENtNtNtNtBa_4iter6traits8iterator8Iterator3mapNtNtCsiTraAjBDcu4_5alloc6string6StringNCNvXs_Cs23PVZzqjOzE_10pkg_configNtB2U_14WrappedCommandNtNtBa_3fmt7Display3fmts_0EB2U_, symObjAddr: 0x19D4, symBinAddr: 0x1000063A4, symSize: 0x1C }
  - { offset: 0x7CCA, size: 0x8, addend: 0x0, symName: __RINvYINtNtNtCsaNl6UpbT7bw_4core5slice4iter4IterReENtNtNtNtBa_4iter6traits8iterator8Iterator3mapNtNtNtCsht3nMU9UgFu_3std3ffi6os_str8OsStringNCINvMCs23PVZzqjOzE_10pkg_configNtB2j_14WrappedCommand4argsRSBJ_RBJ_E0EB2j_, symObjAddr: 0x19F0, symBinAddr: 0x1000063C0, symSize: 0x1C }
  - { offset: 0x7D22, size: 0x8, addend: 0x0, symName: __RINvYINtNtNtCsaNl6UpbT7bw_4core5slice4iter4IterReENtNtNtNtBa_4iter6traits8iterator8Iterator8try_foldjNCINvNtNtBS_8adapters3map12map_try_foldRBJ_jjINtNtBa_6option6OptionjENCNCINvNtCsiTraAjBDcu4_5alloc3str17join_generic_copyehBJ_E00NvMs9_NtBa_3numj11checked_addE0B2k_ECs23PVZzqjOzE_10pkg_config, symObjAddr: 0x1A0C, symBinAddr: 0x1000063DC, symSize: 0x17C }
  - { offset: 0x7DD6, size: 0x8, addend: 0x0, symName: __RINvYINtNtNtCsaNl6UpbT7bw_4core5slice4iter4IterTNtNtNtCsht3nMU9UgFu_3std3ffi6os_str8OsStringBK_EENtNtNtNtBa_4iter6traits8iterator8Iterator3mapNtNtCsiTraAjBDcu4_5alloc6string6StringNCNvXs_Cs23PVZzqjOzE_10pkg_configNtB2Z_14WrappedCommandNtNtBa_3fmt7Display3fmt0EB2Z_, symObjAddr: 0x1B88, symBinAddr: 0x100006558, symSize: 0x1C }
  - { offset: 0x8CC2, size: 0x8, addend: 0x0, symName: __RINvXs2V_NtNtCsaNl6UpbT7bw_4core5slice4iterINtB7_4IterNtNtCsht3nMU9UgFu_3std4path7PathBufENtNtNtNtBb_4iter6traits8iterator8Iterator3anyNCNCNvCs23PVZzqjOzE_10pkg_config19is_static_available0s_0EB2f_, symObjAddr: 0xA80, symBinAddr: 0x100005450, symSize: 0xB0 }
  - { offset: 0x8D27, size: 0x8, addend: 0x0, symName: __RINvXs2V_NtNtCsaNl6UpbT7bw_4core5slice4iterINtB7_4IterNtNtCsht3nMU9UgFu_3std4path7PathBufENtNtNtNtBb_4iter6traits8iterator8Iterator3anyNCNvCs23PVZzqjOzE_10pkg_config19is_static_available0EB2d_, symObjAddr: 0xB30, symBinAddr: 0x100005500, symSize: 0xB4 }
  - { offset: 0x8D8C, size: 0x8, addend: 0x0, symName: __RINvXs2V_NtNtCsaNl6UpbT7bw_4core5slice4iterINtB7_4IterNtNtCsiTraAjBDcu4_5alloc6string6StringENtNtNtNtBb_4iter6traits8iterator8Iterator3anyNCNCNvCs23PVZzqjOzE_10pkg_config19is_static_available00EB2i_, symObjAddr: 0xBE4, symBinAddr: 0x1000055B4, symSize: 0xB0 }
  - { offset: 0x8DF1, size: 0x8, addend: 0x0, symName: __RINvXs2V_NtNtCsaNl6UpbT7bw_4core5slice4iterINtB7_4IterNtNtCsiTraAjBDcu4_5alloc6string6StringENtNtNtNtBb_4iter6traits8iterator8Iterator4findQNCNvMs5_Cs23PVZzqjOzE_10pkg_configNtB2m_7Library17parse_libs_cflagss0_0EB2m_, symObjAddr: 0xC94, symBinAddr: 0x100005664, symSize: 0xB0 }
  - { offset: 0x8E56, size: 0x8, addend: 0x0, symName: __RINvXs2V_NtNtCsaNl6UpbT7bw_4core5slice4iterINtB7_4IterNtNtCsiTraAjBDcu4_5alloc6string6StringENtNtNtNtBb_4iter6traits8iterator8Iterator4findQNCNvMs5_Cs23PVZzqjOzE_10pkg_configNtB2m_7Library17parse_libs_cflagss4_0EB2m_, symObjAddr: 0xD44, symBinAddr: 0x100005714, symSize: 0xB0 }
  - { offset: 0x8EBB, size: 0x8, addend: 0x0, symName: __RINvXs2V_NtNtCsaNl6UpbT7bw_4core5slice4iterINtB7_4IterNtNtNtCsht3nMU9UgFu_3std3ffi6os_str8OsStringENtNtNtNtBb_4iter6traits8iterator8Iterator4folduNCINvNtNtB1F_8adapters3map8map_foldRBQ_BQ_uNCINvMCs23PVZzqjOzE_10pkg_configNtB37_14WrappedCommand4argsRINtNtCsiTraAjBDcu4_5alloc3vec3VecBQ_EB2T_E0NCINvNvB1z_8for_each4callBQ_NCINvMsi_B42_B3Z_14extend_trustedINtB2p_3MapBF_B31_EE0E0E0EB37_, symObjAddr: 0xDF4, symBinAddr: 0x1000057C4, symSize: 0x1C0 }
  - { offset: 0x9010, size: 0x8, addend: 0x0, symName: __RINvXs2V_NtNtCsaNl6UpbT7bw_4core5slice4iterINtB7_4IterNtNtNtCsht3nMU9UgFu_3std3ffi6os_str8OsStringENtNtNtNtBb_4iter6traits8iterator8Iterator4folduNCINvNtNtB1F_8adapters3map8map_foldRBQ_NtNtCsiTraAjBDcu4_5alloc6string6StringuNCNvXs_Cs23PVZzqjOzE_10pkg_configNtB3H_14WrappedCommandNtNtBb_3fmt7Display3fmts_0NCINvNvB1z_8for_each4callB2X_NCINvMsi_NtB31_3vecINtB5v_3VecB2X_E14extend_trustedINtB2p_3MapBF_B3A_EE0E0E0EB3H_, symObjAddr: 0xFB4, symBinAddr: 0x100005984, symSize: 0x1C0 }
  - { offset: 0x9165, size: 0x8, addend: 0x0, symName: __RINvXs2V_NtNtCsaNl6UpbT7bw_4core5slice4iterINtB7_4IterReENtNtNtNtBb_4iter6traits8iterator8Iterator3anyNCNvXsf_NtB9_3cmpBQ_NtB1K_13SliceContains14slice_contains0ECs23PVZzqjOzE_10pkg_config, symObjAddr: 0x1174, symBinAddr: 0x100005B44, symSize: 0xB0 }
  - { offset: 0x91CA, size: 0x8, addend: 0x0, symName: __RINvXs2V_NtNtCsaNl6UpbT7bw_4core5slice4iterINtB7_4IterReENtNtNtNtBb_4iter6traits8iterator8Iterator4folduNCINvNtNtBZ_8adapters3map8map_foldRBQ_NtNtNtCsht3nMU9UgFu_3std3ffi6os_str8OsStringuNCINvMCs23PVZzqjOzE_10pkg_configNtB35_14WrappedCommand4argsRSBQ_B2c_E0NCINvNvBT_8for_each4callB2g_NCINvMsi_NtCsiTraAjBDcu4_5alloc3vecINtB4I_3VecB2g_E14extend_trustedINtB1J_3MapBF_B2Z_EE0E0E0EB35_, symObjAddr: 0x1224, symBinAddr: 0x100005BF4, symSize: 0x1B8 }
  - { offset: 0x931F, size: 0x8, addend: 0x0, symName: __RINvXs2V_NtNtCsaNl6UpbT7bw_4core5slice4iterINtB7_4IterTNtNtNtCsht3nMU9UgFu_3std3ffi6os_str8OsStringBR_EENtNtNtNtBb_4iter6traits8iterator8Iterator4folduNCINvNtNtB1K_8adapters3map8map_foldRBQ_NtNtCsiTraAjBDcu4_5alloc6string6StringuNCNvXs_Cs23PVZzqjOzE_10pkg_configNtB3M_14WrappedCommandNtNtBb_3fmt7Display3fmt0NCINvNvB1E_8for_each4callB32_NCINvMsi_NtB36_3vecINtB5y_3VecB32_E14extend_trustedINtB2u_3MapBF_B3F_EE0E0E0EB3M_, symObjAddr: 0x13DC, symBinAddr: 0x100005DAC, symSize: 0x1C0 }
  - { offset: 0x9474, size: 0x8, addend: 0x0, symName: __RINvXs2V_NtNtCsaNl6UpbT7bw_4core5slice4iterINtB7_4IterhENtNtNtNtBb_4iter6traits8iterator8Iterator4folduNCINvNtNtBY_8adapters3map8map_foldRhhuNCNvNtCsiTraAjBDcu4_5alloc3str13replace_ascii0NCINvNvBS_8for_each4callhNCINvMsi_NtB2l_3vecINtB3x_3VechE14extend_trustedINtB1I_3MapBF_B2f_EE0E0E0ECs23PVZzqjOzE_10pkg_config, symObjAddr: 0x159C, symBinAddr: 0x100005F6C, symSize: 0x1B8 }
  - { offset: 0x95C9, size: 0x8, addend: 0x0, symName: __RNvXs2V_NtNtCsaNl6UpbT7bw_4core5slice4iterINtB6_4IterNtNtCsht3nMU9UgFu_3std4path7PathBufENtNtNtNtBa_4iter6traits8iterator8Iterator4nextCs23PVZzqjOzE_10pkg_config, symObjAddr: 0x1D70, symBinAddr: 0x1000066D4, symSize: 0xB0 }
  - { offset: 0x9703, size: 0x8, addend: 0x0, symName: __RNvXs2V_NtNtCsaNl6UpbT7bw_4core5slice4iterINtB6_4IterNtNtCsiTraAjBDcu4_5alloc6string6StringENtNtNtNtBa_4iter6traits8iterator8Iterator4nextCs23PVZzqjOzE_10pkg_config, symObjAddr: 0x1E20, symBinAddr: 0x100006784, symSize: 0xB0 }
  - { offset: 0x983D, size: 0x8, addend: 0x0, symName: __RNvXs2V_NtNtCsaNl6UpbT7bw_4core5slice4iterINtB6_4IterNtNtNtCsht3nMU9UgFu_3std3ffi6os_str8OsStringENtNtNtNtBa_4iter6traits8iterator8Iterator4nextCs23PVZzqjOzE_10pkg_config, symObjAddr: 0x1ED0, symBinAddr: 0x100006834, symSize: 0xB0 }
  - { offset: 0x9977, size: 0x8, addend: 0x0, symName: __RNvXs2V_NtNtCsaNl6UpbT7bw_4core5slice4iterINtB6_4IterNtNtNtCsht3nMU9UgFu_3std3ffi6os_str8OsStringENtNtNtNtBa_4iter6traits8iterator8Iterator9size_hintCs23PVZzqjOzE_10pkg_config, symObjAddr: 0x1F80, symBinAddr: 0x1000068E4, symSize: 0x70 }
  - { offset: 0x99E6, size: 0x8, addend: 0x0, symName: __RNvXs2V_NtNtCsaNl6UpbT7bw_4core5slice4iterINtB6_4IterReENtNtNtNtBa_4iter6traits8iterator8Iterator4nextCs23PVZzqjOzE_10pkg_config, symObjAddr: 0x1FF0, symBinAddr: 0x100006954, symSize: 0xB0 }
  - { offset: 0x9B20, size: 0x8, addend: 0x0, symName: __RNvXs2V_NtNtCsaNl6UpbT7bw_4core5slice4iterINtB6_4IterReENtNtNtNtBa_4iter6traits8iterator8Iterator9size_hintCs23PVZzqjOzE_10pkg_config, symObjAddr: 0x20A0, symBinAddr: 0x100006A04, symSize: 0x70 }
  - { offset: 0x9B8F, size: 0x8, addend: 0x0, symName: __RNvXs2V_NtNtCsaNl6UpbT7bw_4core5slice4iterINtB6_4IterTNtNtNtCsht3nMU9UgFu_3std3ffi6os_str8OsStringBQ_EENtNtNtNtBa_4iter6traits8iterator8Iterator9size_hintCs23PVZzqjOzE_10pkg_config, symObjAddr: 0x2110, symBinAddr: 0x100006A74, symSize: 0x70 }
  - { offset: 0x9BFE, size: 0x8, addend: 0x0, symName: __RNvXs2V_NtNtCsaNl6UpbT7bw_4core5slice4iterINtB6_4IterhENtNtNtNtBa_4iter6traits8iterator8Iterator4nextCs23PVZzqjOzE_10pkg_config, symObjAddr: 0x2180, symBinAddr: 0x100006AE4, symSize: 0xB0 }
  - { offset: 0x9D38, size: 0x8, addend: 0x0, symName: __RNvXs2V_NtNtCsaNl6UpbT7bw_4core5slice4iterINtB6_4IterhENtNtNtNtBa_4iter6traits8iterator8Iterator9size_hintCs23PVZzqjOzE_10pkg_config, symObjAddr: 0x2230, symBinAddr: 0x100006B94, symSize: 0x70 }
  - { offset: 0x9FE6, size: 0x8, addend: 0x0, symName: __RNvXs2W_NtNtCsaNl6UpbT7bw_4core5slice4iterINtB6_4IterhENtNtNtNtBa_4iter6traits12double_ended19DoubleEndedIterator9next_backCs23PVZzqjOzE_10pkg_config, symObjAddr: 0x22A0, symBinAddr: 0x100006C04, symSize: 0x108 }
  - { offset: 0xA208, size: 0x8, addend: 0x0, symName: __RNvXs_NtNtCsaNl6UpbT7bw_4core5slice4iterRSReNtNtNtNtB8_4iter6traits7collect12IntoIterator9into_iterCs23PVZzqjOzE_10pkg_config, symObjAddr: 0x2CE0, symBinAddr: 0x100007644, symSize: 0x50 }
  - { offset: 0xA339, size: 0x8, addend: 0x0, symName: __RNvXs_NtNtCsaNl6UpbT7bw_4core5slice4iterRShNtNtNtNtB8_4iter6traits7collect12IntoIterator9into_iterCs23PVZzqjOzE_10pkg_config, symObjAddr: 0x2D30, symBinAddr: 0x100007694, symSize: 0x50 }
  - { offset: 0xA745, size: 0x8, addend: 0x0, symName: __RNvXst_NtNtCsaNl6UpbT7bw_4core3str7patternReNtB5_7Pattern12is_prefix_ofCs23PVZzqjOzE_10pkg_config, symObjAddr: 0x2E14, symBinAddr: 0x100007778, symSize: 0x4C }
  - { offset: 0xA7AC, size: 0x8, addend: 0x0, symName: __RNvXst_NtNtCsaNl6UpbT7bw_4core3str7patternReNtB5_7Pattern15is_contained_inCs23PVZzqjOzE_10pkg_config, symObjAddr: 0x2E60, symBinAddr: 0x1000077C4, symSize: 0x1CC }
  - { offset: 0xAA5C, size: 0x8, addend: 0x0, symName: __RNvXst_NtNtCsaNl6UpbT7bw_4core3str7patternReNtB5_7Pattern15strip_suffix_ofCs23PVZzqjOzE_10pkg_config, symObjAddr: 0x302C, symBinAddr: 0x100007990, symSize: 0xE8 }
  - { offset: 0xAB9B, size: 0x8, addend: 0x0, symName: __RNvXs2_NtNtCsaNl6UpbT7bw_4core3str7patterncNtB5_7Pattern12is_prefix_ofCs23PVZzqjOzE_10pkg_config, symObjAddr: 0x23A8, symBinAddr: 0x100006D0C, symSize: 0x78 }
  - { offset: 0xAC42, size: 0x8, addend: 0x0, symName: __RNvXs2_NtNtCsaNl6UpbT7bw_4core3str7patterncNtB5_7Pattern13into_searcherCs23PVZzqjOzE_10pkg_config, symObjAddr: 0x2420, symBinAddr: 0x100006D84, symSize: 0x114 }
  - { offset: 0xAD5A, size: 0x8, addend: 0x0, symName: __RNvXs2_NtNtCsaNl6UpbT7bw_4core3str7patterncNtB5_7Pattern15as_utf8_patternCs23PVZzqjOzE_10pkg_config, symObjAddr: 0x2534, symBinAddr: 0x100006E98, symSize: 0x34 }
  - { offset: 0xAD88, size: 0x8, addend: 0x0, symName: __RNvXs2_NtNtCsaNl6UpbT7bw_4core3str7patterncNtB5_7Pattern15is_contained_inCs23PVZzqjOzE_10pkg_config, symObjAddr: 0x2568, symBinAddr: 0x100006ECC, symSize: 0xD8 }
  - { offset: 0xAE99, size: 0x8, addend: 0x0, symName: __RNvXs7_NtNtCsaNl6UpbT7bw_4core3str7patternINtB5_18MultiCharEqPatternNvMNtNtB9_4char7methodsc13is_whitespaceENtB5_7Pattern13into_searcherCs23PVZzqjOzE_10pkg_config, symObjAddr: 0x2640, symBinAddr: 0x100006FA4, symSize: 0x90 }
  - { offset: 0xAEFB, size: 0x8, addend: 0x0, symName: __RNvXs8_NtNtCsaNl6UpbT7bw_4core3str7patternINtB5_19MultiCharEqSearcherNvMNtNtB9_4char7methodsc13is_whitespaceENtB5_8Searcher4nextCs23PVZzqjOzE_10pkg_config, symObjAddr: 0x26D0, symBinAddr: 0x100007034, symSize: 0x138 }
  - { offset: 0xB021, size: 0x8, addend: 0x0, symName: __RNvXs9_NtNtCsaNl6UpbT7bw_4core3str7patternINtB5_19MultiCharEqSearcherNvMNtNtB9_4char7methodsc13is_whitespaceENtB5_15ReverseSearcher9next_backCs23PVZzqjOzE_10pkg_config, symObjAddr: 0x2808, symBinAddr: 0x10000716C, symSize: 0x138 }
  - { offset: 0xB1AE, size: 0x8, addend: 0x0, symName: __RNvXs_NtNtCsaNl6UpbT7bw_4core3str7patternNtB4_12CharSearcherNtB4_8Searcher10next_matchCs23PVZzqjOzE_10pkg_config, symObjAddr: 0x2940, symBinAddr: 0x1000072A4, symSize: 0x380 }
  - { offset: 0xB612, size: 0x8, addend: 0x0, symName: __RNvXs_NtNtCsaNl6UpbT7bw_4core3str7patternNtB4_12CharSearcherNtB4_8Searcher8haystackCs23PVZzqjOzE_10pkg_config, symObjAddr: 0x2CC0, symBinAddr: 0x100007624, symSize: 0x20 }
  - { offset: 0xB646, size: 0x8, addend: 0x0, symName: __RNvXso_NtNtCsaNl6UpbT7bw_4core3str7patternINtB5_21CharPredicateSearcherNvMNtNtB9_4char7methodsc13is_whitespaceENtB5_8Searcher11next_rejectCs23PVZzqjOzE_10pkg_config, symObjAddr: 0x2D80, symBinAddr: 0x1000076E4, symSize: 0x24 }
  - { offset: 0xB683, size: 0x8, addend: 0x0, symName: __RNvXsp_NtNtCsaNl6UpbT7bw_4core3str7patternINtB5_21CharPredicateSearcherNvMNtNtB9_4char7methodsc13is_whitespaceENtB5_15ReverseSearcher16next_reject_backCs23PVZzqjOzE_10pkg_config, symObjAddr: 0x2DA4, symBinAddr: 0x100007708, symSize: 0x24 }
  - { offset: 0xB6D7, size: 0x8, addend: 0x0, symName: __RNvXss_NtNtCsaNl6UpbT7bw_4core3str7patternRReNtB5_7Pattern12is_suffix_ofCs23PVZzqjOzE_10pkg_config, symObjAddr: 0x2DC8, symBinAddr: 0x10000772C, symSize: 0x4C }
  - { offset: 0xB823, size: 0x8, addend: 0x0, symName: __RNvXsv_NtNtCsaNl6UpbT7bw_4core3str7patternNtB5_11StrSearcherNtB5_8Searcher10next_matchCs23PVZzqjOzE_10pkg_config, symObjAddr: 0x3114, symBinAddr: 0x100007A78, symSize: 0x148 }
  - { offset: 0xB8AF, size: 0x8, addend: 0x0, symName: __RNvXsv_NtNtCsaNl6UpbT7bw_4core3str7patternNtB5_11StrSearcherNtB5_8Searcher4nextCs23PVZzqjOzE_10pkg_config, symObjAddr: 0x325C, symBinAddr: 0x100007BC0, symSize: 0x454 }
  - { offset: 0xBBBA, size: 0x8, addend: 0x0, symName: __RNvXsy_NtNtCsaNl6UpbT7bw_4core3str7patternNtB5_9MatchOnlyNtB5_14TwoWayStrategy16use_early_rejectCs23PVZzqjOzE_10pkg_config, symObjAddr: 0x36B0, symBinAddr: 0x100008014, symSize: 0xC }
  - { offset: 0xBBD8, size: 0x8, addend: 0x0, symName: __RNvXsy_NtNtCsaNl6UpbT7bw_4core3str7patternNtB5_9MatchOnlyNtB5_14TwoWayStrategy8matchingCs23PVZzqjOzE_10pkg_config, symObjAddr: 0x36BC, symBinAddr: 0x100008020, symSize: 0x28 }
  - { offset: 0xBC15, size: 0x8, addend: 0x0, symName: __RNvXsy_NtNtCsaNl6UpbT7bw_4core3str7patternNtB5_9MatchOnlyNtB5_14TwoWayStrategy9rejectingCs23PVZzqjOzE_10pkg_config, symObjAddr: 0x36E4, symBinAddr: 0x100008048, symSize: 0x18 }
  - { offset: 0xBC58, size: 0x8, addend: 0x0, symName: __RNvXsz_NtNtCsaNl6UpbT7bw_4core3str7patternNtB5_14RejectAndMatchNtB5_14TwoWayStrategy16use_early_rejectCs23PVZzqjOzE_10pkg_config, symObjAddr: 0x36FC, symBinAddr: 0x100008060, symSize: 0xC }
  - { offset: 0xBC76, size: 0x8, addend: 0x0, symName: __RNvXsz_NtNtCsaNl6UpbT7bw_4core3str7patternNtB5_14RejectAndMatchNtB5_14TwoWayStrategy8matchingCs23PVZzqjOzE_10pkg_config, symObjAddr: 0x3708, symBinAddr: 0x10000806C, symSize: 0x20 }
  - { offset: 0xBCB3, size: 0x8, addend: 0x0, symName: __RNvXsz_NtNtCsaNl6UpbT7bw_4core3str7patternNtB5_14RejectAndMatchNtB5_14TwoWayStrategy9rejectingCs23PVZzqjOzE_10pkg_config, symObjAddr: 0x3728, symBinAddr: 0x10000808C, symSize: 0x28 }
  - { offset: 0xBCF6, size: 0x8, addend: 0x0, symName: __RNvYINtNtNtCsaNl6UpbT7bw_4core3str7pattern19MultiCharEqSearcherNvMNtNtB9_4char7methodsc13is_whitespaceENtB5_15ReverseSearcher16next_reject_backCs23PVZzqjOzE_10pkg_config, symObjAddr: 0x3750, symBinAddr: 0x1000080B4, symSize: 0x90 }
  - { offset: 0xBD61, size: 0x8, addend: 0x0, symName: __RNvYINtNtNtCsaNl6UpbT7bw_4core3str7pattern19MultiCharEqSearcherNvMNtNtB9_4char7methodsc13is_whitespaceENtB5_8Searcher11next_rejectCs23PVZzqjOzE_10pkg_config, symObjAddr: 0x37E0, symBinAddr: 0x100008144, symSize: 0x90 }
  - { offset: 0xD040, size: 0x8, addend: 0x0, symName: __RINvMsx_NtNtCsaNl6UpbT7bw_4core3str7patternNtB6_14TwoWaySearcher4nextNtB6_14RejectAndMatchECs23PVZzqjOzE_10pkg_config, symObjAddr: 0x0, symBinAddr: 0x1000049D0, symSize: 0x540 }
  - { offset: 0xD3DC, size: 0x8, addend: 0x0, symName: __RINvMsx_NtNtCsaNl6UpbT7bw_4core3str7patternNtB6_14TwoWaySearcher4nextNtB6_9MatchOnlyECs23PVZzqjOzE_10pkg_config, symObjAddr: 0x540, symBinAddr: 0x100004F10, symSize: 0x540 }
  - { offset: 0xDED4, size: 0x8, addend: 0x0, symName: __RNvMs4_NtNtCsaNl6UpbT7bw_4core5slice4iterINtB5_4IterNtNtCsht3nMU9UgFu_3std4path7PathBufE3newCs23PVZzqjOzE_10pkg_config, symObjAddr: 0x1BA4, symBinAddr: 0x100006574, symSize: 0x58 }
  - { offset: 0xE084, size: 0x8, addend: 0x0, symName: __RNvMs4_NtNtCsaNl6UpbT7bw_4core5slice4iterINtB5_4IterNtNtCsiTraAjBDcu4_5alloc6string6StringE3newCs23PVZzqjOzE_10pkg_config, symObjAddr: 0x1BFC, symBinAddr: 0x1000065CC, symSize: 0x58 }
  - { offset: 0xE234, size: 0x8, addend: 0x0, symName: __RNvMs4_NtNtCsaNl6UpbT7bw_4core5slice4iterINtB5_4IterNtNtNtCsht3nMU9UgFu_3std3ffi6os_str8OsStringE3newCs23PVZzqjOzE_10pkg_config, symObjAddr: 0x1C54, symBinAddr: 0x100006624, symSize: 0x58 }
  - { offset: 0xE436, size: 0x8, addend: 0x0, symName: __RNvMs4_NtNtCsaNl6UpbT7bw_4core5slice4iterINtB5_4IterTNtNtNtCsht3nMU9UgFu_3std3ffi6os_str8OsStringBP_EE3newCs23PVZzqjOzE_10pkg_config, symObjAddr: 0x1CFC, symBinAddr: 0x10000667C, symSize: 0x58 }
  - { offset: 0xECBF, size: 0x8, addend: 0x0, symName: __RINvMs6_NtCsg4dki62PTrg_9hashbrown3rawINtB6_8RawTableTNtNtCsiTraAjBDcu4_5alloc6string6StringINtNtCsaNl6UpbT7bw_4core6option6OptionBQ_EEE14reserve_rehashNCINvNtB8_3map11make_hasherBQ_B1s_NtNtNtCsht3nMU9UgFu_3std4hash6random11RandomStateE0ECs23PVZzqjOzE_10pkg_config, symObjAddr: 0x0, symBinAddr: 0x1000ED0E4, symSize: 0x828 }
  - { offset: 0xECFB, size: 0x8, addend: 0x0, symName: __RNCINvMs6_NtCsg4dki62PTrg_9hashbrown3rawINtB8_8RawTableTNtNtCsiTraAjBDcu4_5alloc6string6StringINtNtCsaNl6UpbT7bw_4core6option6OptionBS_EEE14reserve_rehashNCINvNtBa_3map11make_hasherBS_B1u_NtNtNtCsht3nMU9UgFu_3std4hash6random11RandomStateE0E0Cs23PVZzqjOzE_10pkg_config, symObjAddr: 0x12B8, symBinAddr: 0x100008C64, symSize: 0xC8 }
  - { offset: 0xEEB8, size: 0x8, addend: 0x0, symName: __RNCINvMs6_NtCsg4dki62PTrg_9hashbrown3rawINtB8_8RawTableTNtNtCsiTraAjBDcu4_5alloc6string6StringINtNtCsaNl6UpbT7bw_4core6option6OptionBS_EEE14reserve_rehashNCINvNtBa_3map11make_hasherBS_B1u_NtNtNtCsht3nMU9UgFu_3std4hash6random11RandomStateE0Es_0Cs23PVZzqjOzE_10pkg_config, symObjAddr: 0x1380, symBinAddr: 0x100008D2C, symSize: 0x30 }
  - { offset: 0xEF15, size: 0x8, addend: 0x0, symName: __RNCINvMs6_NtCsg4dki62PTrg_9hashbrown3rawINtB8_8RawTableTNtNtCsiTraAjBDcu4_5alloc6string6StringINtNtCsaNl6UpbT7bw_4core6option6OptionBS_EEE24find_or_find_insert_slotNCINvNtBa_3map14equivalent_keyBS_BS_B1u_E0NCINvB2H_11make_hasherBS_B1u_NtNtNtCsht3nMU9UgFu_3std4hash6random11RandomStateE0E0Cs23PVZzqjOzE_10pkg_config, symObjAddr: 0x13B0, symBinAddr: 0x100008D5C, symSize: 0xCC }
  - { offset: 0xF7DD, size: 0x8, addend: 0x0, symName: __RNCINvMsa_NtCsg4dki62PTrg_9hashbrown3rawNtB8_13RawTableInner14prepare_resizeNtNtCsiTraAjBDcu4_5alloc5alloc6GlobalE0Cs23PVZzqjOzE_10pkg_config, symObjAddr: 0x147C, symBinAddr: 0x100008E28, symSize: 0xBC }
  - { offset: 0xF9C0, size: 0x8, addend: 0x0, symName: __RNCNvMsa_NtCsg4dki62PTrg_9hashbrown3rawNtB7_13RawTableInner15rehash_in_place0Cs23PVZzqjOzE_10pkg_config, symObjAddr: 0x1538, symBinAddr: 0x100008EE4, symSize: 0x22C }
  - { offset: 0xFFC9, size: 0x8, addend: 0x0, symName: __RNvNtCsg4dki62PTrg_9hashbrown3raw19capacity_to_bucketsCs23PVZzqjOzE_10pkg_config, symObjAddr: 0x2960, symBinAddr: 0x10000A30C, symSize: 0x218 }
  - { offset: 0x101D2, size: 0x8, addend: 0x0, symName: __RNvXsg_NtCsg4dki62PTrg_9hashbrown3rawINtB5_8RawTableTNtNtCsiTraAjBDcu4_5alloc6string6StringINtNtCsaNl6UpbT7bw_4core6option6OptionBP_EEENtNtNtB1w_3ops4drop4Drop4dropCs23PVZzqjOzE_10pkg_config, symObjAddr: 0x2B78, symBinAddr: 0x10000A524, symSize: 0x3C }
  - { offset: 0x1384E, size: 0x8, addend: 0x0, symName: __RINvMs6_NtCsg4dki62PTrg_9hashbrown3rawINtB6_8RawTableTNtNtCsiTraAjBDcu4_5alloc6string6StringINtNtCsaNl6UpbT7bw_4core6option6OptionBQ_EEE14reserve_rehashNCINvNtB8_3map11make_hasherBQ_B1s_NtNtNtCsht3nMU9UgFu_3std4hash6random11RandomStateE0ECs23PVZzqjOzE_10pkg_config, symObjAddr: 0x0, symBinAddr: 0x1000ED0E4, symSize: 0x828 }
  - { offset: 0x1423E, size: 0x8, addend: 0x0, symName: __RINvMs6_NtCsg4dki62PTrg_9hashbrown3rawINtB6_8RawTableTNtNtCsiTraAjBDcu4_5alloc6string6StringINtNtCsaNl6UpbT7bw_4core6option6OptionBQ_EEE24find_or_find_insert_slotNCINvNtB8_3map14equivalent_keyBQ_BQ_B1s_E0NCINvB2F_11make_hasherBQ_B1s_NtNtNtCsht3nMU9UgFu_3std4hash6random11RandomStateE0ECs23PVZzqjOzE_10pkg_config, symObjAddr: 0x828, symBinAddr: 0x1000081D4, symSize: 0x140 }
  - { offset: 0x1442A, size: 0x8, addend: 0x0, symName: __RINvMs6_NtCsg4dki62PTrg_9hashbrown3rawINtB6_8RawTableTNtNtCsiTraAjBDcu4_5alloc6string6StringINtNtCsaNl6UpbT7bw_4core6option6OptionBQ_EEE7reserveNCINvNtB8_3map11make_hasherBQ_B1s_NtNtNtCsht3nMU9UgFu_3std4hash6random11RandomStateE0ECs23PVZzqjOzE_10pkg_config, symObjAddr: 0x968, symBinAddr: 0x100008314, symSize: 0xCC }
  - { offset: 0x1460E, size: 0x8, addend: 0x0, symName: __RINvMsa_NtCsg4dki62PTrg_9hashbrown3rawNtB6_13RawTableInner13drop_elementsTNtNtCsiTraAjBDcu4_5alloc6string6StringINtNtCsaNl6UpbT7bw_4core6option6OptionB1a_EEECs23PVZzqjOzE_10pkg_config, symObjAddr: 0xA34, symBinAddr: 0x1000083E0, symSize: 0x178 }
  - { offset: 0x14979, size: 0x8, addend: 0x0, symName: __RINvMsa_NtCsg4dki62PTrg_9hashbrown3rawNtB6_13RawTableInner16drop_inner_tableTNtNtCsiTraAjBDcu4_5alloc6string6StringINtNtCsaNl6UpbT7bw_4core6option6OptionB1d_EENtNtB1h_5alloc6GlobalECs23PVZzqjOzE_10pkg_config, symObjAddr: 0xBAC, symBinAddr: 0x100008558, symSize: 0xBC }
  - { offset: 0x14B8C, size: 0x8, addend: 0x0, symName: __RINvMsa_NtCsg4dki62PTrg_9hashbrown3rawNtB6_13RawTableInner17new_uninitializedNtNtCsiTraAjBDcu4_5alloc5alloc6GlobalECs23PVZzqjOzE_10pkg_config, symObjAddr: 0xC68, symBinAddr: 0x100008614, symSize: 0x1B0 }
  - { offset: 0x14DDD, size: 0x8, addend: 0x0, symName: __RINvMsa_NtCsg4dki62PTrg_9hashbrown3rawNtB6_13RawTableInner22fallible_with_capacityNtNtCsiTraAjBDcu4_5alloc5alloc6GlobalECs23PVZzqjOzE_10pkg_config, symObjAddr: 0xE18, symBinAddr: 0x1000087C4, symSize: 0x2B0 }
  - { offset: 0x15253, size: 0x8, addend: 0x0, symName: __RINvMsi_NtCsg4dki62PTrg_9hashbrown3rawINtB6_12RawIterRangeTNtNtCsiTraAjBDcu4_5alloc6string6StringINtNtCsaNl6UpbT7bw_4core6option6OptionBV_EEE9next_implKb0_ECs23PVZzqjOzE_10pkg_config, symObjAddr: 0x10C8, symBinAddr: 0x100008A74, symSize: 0x1F0 }
  - { offset: 0x159EB, size: 0x8, addend: 0x0, symName: __RNvMs1_NtCsg4dki62PTrg_9hashbrown3rawNtB5_11TableLayout20calculate_layout_forCs23PVZzqjOzE_10pkg_config, symObjAddr: 0x1764, symBinAddr: 0x100009110, symSize: 0x210 }
  - { offset: 0x15E78, size: 0x8, addend: 0x0, symName: __RNvMs6_NtCsg4dki62PTrg_9hashbrown3rawINtB5_8RawTableTNtNtCsiTraAjBDcu4_5alloc6string6StringINtNtCsaNl6UpbT7bw_4core6option6OptionBP_EEE14insert_in_slotCs23PVZzqjOzE_10pkg_config, symObjAddr: 0x1974, symBinAddr: 0x100009320, symSize: 0x148 }
  - { offset: 0x1630D, size: 0x8, addend: 0x0, symName: __RNvMsa_NtCsg4dki62PTrg_9hashbrown3rawNtB5_13RawTableInner15fix_insert_slotCs23PVZzqjOzE_10pkg_config, symObjAddr: 0x1ABC, symBinAddr: 0x100009468, symSize: 0x12C }
  - { offset: 0x1668D, size: 0x8, addend: 0x0, symName: __RNvMsa_NtCsg4dki62PTrg_9hashbrown3rawNtB5_13RawTableInner15rehash_in_placeCs23PVZzqjOzE_10pkg_config, symObjAddr: 0x1BE8, symBinAddr: 0x100009594, symSize: 0x4AC }
  - { offset: 0x16EA2, size: 0x8, addend: 0x0, symName: __RNvMsa_NtCsg4dki62PTrg_9hashbrown3rawNtB5_13RawTableInner16find_insert_slotCs23PVZzqjOzE_10pkg_config, symObjAddr: 0x2094, symBinAddr: 0x100009A40, symSize: 0x11C }
  - { offset: 0x1709D, size: 0x8, addend: 0x0, symName: __RNvMsa_NtCsg4dki62PTrg_9hashbrown3rawNtB5_13RawTableInner19prepare_insert_slotCs23PVZzqjOzE_10pkg_config, symObjAddr: 0x21B0, symBinAddr: 0x100009B5C, symSize: 0x74 }
  - { offset: 0x1738E, size: 0x8, addend: 0x0, symName: __RNvMsa_NtCsg4dki62PTrg_9hashbrown3rawNtB5_13RawTableInner23prepare_rehash_in_placeCs23PVZzqjOzE_10pkg_config, symObjAddr: 0x2224, symBinAddr: 0x100009BD0, symSize: 0x258 }
  - { offset: 0x17A9A, size: 0x8, addend: 0x0, symName: __RNvMsa_NtCsg4dki62PTrg_9hashbrown3rawNtB5_13RawTableInner25find_insert_slot_in_groupCs23PVZzqjOzE_10pkg_config, symObjAddr: 0x247C, symBinAddr: 0x100009E28, symSize: 0x15C }
  - { offset: 0x17D80, size: 0x8, addend: 0x0, symName: __RNvMsa_NtCsg4dki62PTrg_9hashbrown3rawNtB5_13RawTableInner30find_or_find_insert_slot_innerCs23PVZzqjOzE_10pkg_config, symObjAddr: 0x25D8, symBinAddr: 0x100009F84, symSize: 0x2C0 }
  - { offset: 0x18179, size: 0x8, addend: 0x0, symName: __RNvMsi_NtCsg4dki62PTrg_9hashbrown3rawINtB5_12RawIterRangeTNtNtCsiTraAjBDcu4_5alloc6string6StringINtNtCsaNl6UpbT7bw_4core6option6OptionBU_EEE3newCs23PVZzqjOzE_10pkg_config, symObjAddr: 0x2898, symBinAddr: 0x10000A244, symSize: 0xC8 }
  - { offset: 0x18405, size: 0x8, addend: 0x0, symName: __RNvXs1_NtNtNtCsaNl6UpbT7bw_4core3ops8function5implsQNCNvMs5_Cs23PVZzqjOzE_10pkg_configNtBW_7Library17parse_libs_cflagss0_0INtB7_5FnMutTRRNtNtCsiTraAjBDcu4_5alloc6string6StringEE8call_mutBW_, symObjAddr: 0x0, symBinAddr: 0x10000A560, symSize: 0x30 }
  - { offset: 0x193F9, size: 0x8, addend: 0x0, symName: __RNvXs1_NtNtNtCsaNl6UpbT7bw_4core3ops8function5implsQNCNvMs5_Cs23PVZzqjOzE_10pkg_configNtBW_7Library17parse_libs_cflagss0_0INtB7_5FnMutTRRNtNtCsiTraAjBDcu4_5alloc6string6StringEE8call_mutBW_, symObjAddr: 0x0, symBinAddr: 0x10000A560, symSize: 0x30 }
  - { offset: 0x19448, size: 0x8, addend: 0x0, symName: __RNvXs1_NtNtNtCsaNl6UpbT7bw_4core3ops8function5implsQNCNvMs5_Cs23PVZzqjOzE_10pkg_configNtBW_7Library17parse_libs_cflagss4_0INtB7_5FnMutTRRNtNtCsiTraAjBDcu4_5alloc6string6StringEE8call_mutBW_, symObjAddr: 0x30, symBinAddr: 0x10000A590, symSize: 0x30 }
  - { offset: 0x1A896, size: 0x8, addend: 0x0, symName: __RNCINvMCs23PVZzqjOzE_10pkg_configNtB5_14WrappedCommand4argsRINtNtCsiTraAjBDcu4_5alloc3vec3VecNtNtNtCsht3nMU9UgFu_3std3ffi6os_str8OsStringERB1t_E0B5_, symObjAddr: 0x4D0, symBinAddr: 0x10000A918, symSize: 0x78 }
  - { offset: 0x1A8DE, size: 0x8, addend: 0x0, symName: __RNCINvMCs23PVZzqjOzE_10pkg_configNtB5_14WrappedCommand4argsRSReRBX_E0B5_, symObjAddr: 0x548, symBinAddr: 0x10000A990, symSize: 0x78 }
  - { offset: 0x1A936, size: 0x8, addend: 0x0, symName: __RNvCs23PVZzqjOzE_10pkg_config15quote_if_needed, symObjAddr: 0xA74, symBinAddr: 0x10000AEBC, symSize: 0x140 }
  - { offset: 0x1A9A2, size: 0x8, addend: 0x0, symName: __RNvXs_Cs23PVZzqjOzE_10pkg_configNtB4_14WrappedCommandNtNtCsaNl6UpbT7bw_4core3fmt7Display3fmt, symObjAddr: 0xBB4, symBinAddr: 0x10000AFFC, symSize: 0x2EC }
  - { offset: 0x1AA4C, size: 0x8, addend: 0x0, symName: __RNCNvXs_Cs23PVZzqjOzE_10pkg_configNtB6_14WrappedCommandNtNtCsaNl6UpbT7bw_4core3fmt7Display3fmt0B6_, symObjAddr: 0xEA0, symBinAddr: 0x10000B2E8, symSize: 0x16C }
  - { offset: 0x1AAFB, size: 0x8, addend: 0x0, symName: __RNCNvXs_Cs23PVZzqjOzE_10pkg_configNtB6_14WrappedCommandNtNtCsaNl6UpbT7bw_4core3fmt7Display3fmts_0B6_, symObjAddr: 0x100C, symBinAddr: 0x10000B454, symSize: 0xA0 }
  - { offset: 0x1AE97, size: 0x8, addend: 0x0, symName: __RNCNvMs3_Cs23PVZzqjOzE_10pkg_configNtB7_6Config5probe0B7_, symObjAddr: 0x352C, symBinAddr: 0x10000BC00, symSize: 0x204 }
  - { offset: 0x1AF24, size: 0x8, addend: 0x0, symName: __RNCNvMs3_Cs23PVZzqjOzE_10pkg_configNtB7_6Config16targeted_env_var0B7_, symObjAddr: 0x4314, symBinAddr: 0x10000C928, symSize: 0x108 }
  - { offset: 0x1AFCB, size: 0x8, addend: 0x0, symName: __RNCNvMs3_Cs23PVZzqjOzE_10pkg_configNtB7_6Config16targeted_env_vars_0B7_, symObjAddr: 0x441C, symBinAddr: 0x10000CA30, symSize: 0x108 }
  - { offset: 0x1B072, size: 0x8, addend: 0x0, symName: __RNCNvMs3_Cs23PVZzqjOzE_10pkg_configNtB7_6Config16targeted_env_vars0_0B7_, symObjAddr: 0x4524, symBinAddr: 0x10000CB38, symSize: 0x48 }
  - { offset: 0x1B0B9, size: 0x8, addend: 0x0, symName: __RNCNvMs3_Cs23PVZzqjOzE_10pkg_configNtB7_6Config9is_static0B7_, symObjAddr: 0x466C, symBinAddr: 0x10000CC80, symSize: 0x48 }
  - { offset: 0x1B100, size: 0x8, addend: 0x0, symName: __RNCNvMs3_Cs23PVZzqjOzE_10pkg_configNtB7_6Config3run0B7_, symObjAddr: 0x4B7C, symBinAddr: 0x10000D190, symSize: 0x3C }
  - { offset: 0x1B12A, size: 0x8, addend: 0x0, symName: __RNCNvMs3_Cs23PVZzqjOzE_10pkg_configNtB7_6Config3runs_0B7_, symObjAddr: 0x4BB8, symBinAddr: 0x10000D1CC, symSize: 0x1D4 }
  - { offset: 0x1B2E5, size: 0x8, addend: 0x0, symName: __RNvNvMs5_Cs23PVZzqjOzE_10pkg_configNtB7_7Library25extract_lib_from_filename13test_suffixes, symObjAddr: 0x6098, symBinAddr: 0x10000E5E0, symSize: 0x15C }
  - { offset: 0x1B354, size: 0x8, addend: 0x0, symName: __RNCNvMs5_Cs23PVZzqjOzE_10pkg_configNtB7_7Library17parse_libs_cflags0B7_, symObjAddr: 0x7D30, symBinAddr: 0x100010278, symSize: 0x48 }
  - { offset: 0x1B38D, size: 0x8, addend: 0x0, symName: __RNCNvMs5_Cs23PVZzqjOzE_10pkg_configNtB7_7Library17parse_libs_cflagss0_0B7_, symObjAddr: 0x7D78, symBinAddr: 0x1000102C0, symSize: 0x44 }
  - { offset: 0x1B3C6, size: 0x8, addend: 0x0, symName: __RNCNvMs5_Cs23PVZzqjOzE_10pkg_configNtB7_7Library17parse_libs_cflagss1_0B7_, symObjAddr: 0x7DBC, symBinAddr: 0x100010304, symSize: 0xA0 }
  - { offset: 0x1B3FF, size: 0x8, addend: 0x0, symName: __RNCNvMs5_Cs23PVZzqjOzE_10pkg_configNtB7_7Library17parse_libs_cflagss2_0B7_, symObjAddr: 0x7E5C, symBinAddr: 0x1000103A4, symSize: 0x38 }
  - { offset: 0x1B438, size: 0x8, addend: 0x0, symName: __RNCNvMs5_Cs23PVZzqjOzE_10pkg_configNtB7_7Library17parse_libs_cflagss3_0B7_, symObjAddr: 0x7E94, symBinAddr: 0x1000103DC, symSize: 0x184 }
  - { offset: 0x1B471, size: 0x8, addend: 0x0, symName: __RNCNvMs5_Cs23PVZzqjOzE_10pkg_configNtB7_7Library17parse_libs_cflagss4_0B7_, symObjAddr: 0x8018, symBinAddr: 0x100010560, symSize: 0x50 }
  - { offset: 0x1B4D6, size: 0x8, addend: 0x0, symName: __RNvCs23PVZzqjOzE_10pkg_config6envify, symObjAddr: 0x8120, symBinAddr: 0x100010668, symSize: 0x4C }
  - { offset: 0x1B509, size: 0x8, addend: 0x0, symName: __RNCNvCs23PVZzqjOzE_10pkg_config6envify0B3_, symObjAddr: 0x816C, symBinAddr: 0x1000106B4, symSize: 0x3C }
  - { offset: 0x1B542, size: 0x8, addend: 0x0, symName: __RNCNvCs23PVZzqjOzE_10pkg_config6envifys_0B3_, symObjAddr: 0x81A8, symBinAddr: 0x1000106F0, symSize: 0x64 }
  - { offset: 0x1B58A, size: 0x8, addend: 0x0, symName: __RNvCs23PVZzqjOzE_10pkg_config19is_static_available, symObjAddr: 0x820C, symBinAddr: 0x100010754, symSize: 0x1E4 }
  - { offset: 0x1B651, size: 0x8, addend: 0x0, symName: __RNCNvCs23PVZzqjOzE_10pkg_config19is_static_available0B3_, symObjAddr: 0x83F0, symBinAddr: 0x100010938, symSize: 0xD8 }
  - { offset: 0x1B6C8, size: 0x8, addend: 0x0, symName: __RNCNCNvCs23PVZzqjOzE_10pkg_config19is_static_available00B5_, symObjAddr: 0x84C8, symBinAddr: 0x100010A10, symSize: 0xB4 }
  - { offset: 0x1B708, size: 0x8, addend: 0x0, symName: __RNCNCNvCs23PVZzqjOzE_10pkg_config19is_static_available0s_0B5_, symObjAddr: 0x857C, symBinAddr: 0x100010AC4, symSize: 0x4C }
  - { offset: 0x1B74A, size: 0x8, addend: 0x0, symName: __RNvCs23PVZzqjOzE_10pkg_config11split_flags, symObjAddr: 0x85C8, symBinAddr: 0x100010B10, symSize: 0x4FC }
  - { offset: 0x1B9C6, size: 0x8, addend: 0x0, symName: __RINvMCs23PVZzqjOzE_10pkg_configNtB3_14WrappedCommand3newNtNtNtCsht3nMU9UgFu_3std3ffi6os_str8OsStringEB3_, symObjAddr: 0x178, symBinAddr: 0x10000A5C0, symSize: 0x174 }
  - { offset: 0x1BA26, size: 0x8, addend: 0x0, symName: __RINvMCs23PVZzqjOzE_10pkg_configNtB3_14WrappedCommand4argsRINtNtCsiTraAjBDcu4_5alloc3vec3VecNtNtNtCsht3nMU9UgFu_3std3ffi6os_str8OsStringERB1r_EB3_, symObjAddr: 0x2EC, symBinAddr: 0x10000A734, symSize: 0xE8 }
  - { offset: 0x1BAE4, size: 0x8, addend: 0x0, symName: __RINvMCs23PVZzqjOzE_10pkg_configNtB3_14WrappedCommand4argsRSReRBV_EB3_, symObjAddr: 0x3D4, symBinAddr: 0x10000A81C, symSize: 0xFC }
  - { offset: 0x1BB50, size: 0x8, addend: 0x0, symName: __RINvMCs23PVZzqjOzE_10pkg_configNtB3_14WrappedCommand3argRNtNtCsiTraAjBDcu4_5alloc6string6StringEB3_, symObjAddr: 0x5C0, symBinAddr: 0x10000AA08, symSize: 0xC8 }
  - { offset: 0x1BB89, size: 0x8, addend: 0x0, symName: __RINvMCs23PVZzqjOzE_10pkg_configNtB3_14WrappedCommand3argReEB3_, symObjAddr: 0x688, symBinAddr: 0x10000AAD0, symSize: 0xCC }
  - { offset: 0x1BBC2, size: 0x8, addend: 0x0, symName: __RINvMCs23PVZzqjOzE_10pkg_configNtB3_14WrappedCommand3envReBS_EB3_, symObjAddr: 0x754, symBinAddr: 0x10000AB9C, symSize: 0x168 }
  - { offset: 0x1BC14, size: 0x8, addend: 0x0, symName: __RINvMCs23PVZzqjOzE_10pkg_configNtB3_14WrappedCommand3envReNtNtNtCsht3nMU9UgFu_3std3ffi6os_str8OsStringEB3_, symObjAddr: 0x8BC, symBinAddr: 0x10000AD04, symSize: 0x184 }
  - { offset: 0x1BCC8, size: 0x8, addend: 0x0, symName: __RNvMCs23PVZzqjOzE_10pkg_configNtB2_14WrappedCommand6output, symObjAddr: 0xA40, symBinAddr: 0x10000AE88, symSize: 0x34 }
  - { offset: 0x1BD58, size: 0x8, addend: 0x0, symName: __RNvMs3_Cs23PVZzqjOzE_10pkg_configNtB5_6Config3new, symObjAddr: 0x2A68, symBinAddr: 0x10000B4F4, symSize: 0xD0 }
  - { offset: 0x1BD78, size: 0x8, addend: 0x0, symName: __RNvMs3_Cs23PVZzqjOzE_10pkg_configNtB5_6Config17print_system_libs, symObjAddr: 0x2E00, symBinAddr: 0x10000B5C4, symSize: 0x2C }
  - { offset: 0x1BEA4, size: 0x8, addend: 0x0, symName: __RNvMs3_Cs23PVZzqjOzE_10pkg_configNtB5_6Config5probe, symObjAddr: 0x2F1C, symBinAddr: 0x10000B5F0, symSize: 0x610 }
  - { offset: 0x1C01B, size: 0x8, addend: 0x0, symName: __RNvMs3_Cs23PVZzqjOzE_10pkg_configNtB5_6Config16target_supported, symObjAddr: 0x3730, symBinAddr: 0x10000BE04, symSize: 0x36C }
  - { offset: 0x1C09A, size: 0x8, addend: 0x0, symName: __RNvMs3_Cs23PVZzqjOzE_10pkg_configNtB5_6Config16targeted_env_var, symObjAddr: 0x3B5C, symBinAddr: 0x10000C170, symSize: 0x7B8 }
  - { offset: 0x1C1B7, size: 0x8, addend: 0x0, symName: __RNvMs3_Cs23PVZzqjOzE_10pkg_configNtB5_6Config10env_var_os, symObjAddr: 0x456C, symBinAddr: 0x10000CB80, symSize: 0xA8 }
  - { offset: 0x1C207, size: 0x8, addend: 0x0, symName: __RNvMs3_Cs23PVZzqjOzE_10pkg_configNtB5_6Config9is_static, symObjAddr: 0x4614, symBinAddr: 0x10000CC28, symSize: 0x58 }
  - { offset: 0x1C239, size: 0x8, addend: 0x0, symName: __RNvMs3_Cs23PVZzqjOzE_10pkg_configNtB5_6Config3run, symObjAddr: 0x46B4, symBinAddr: 0x10000CCC8, symSize: 0x4C8 }
  - { offset: 0x1C383, size: 0x8, addend: 0x0, symName: __RNvMs3_Cs23PVZzqjOzE_10pkg_configNtB5_6Config7command, symObjAddr: 0x4D8C, symBinAddr: 0x10000D3A0, symSize: 0x84C }
  - { offset: 0x1C5E1, size: 0x8, addend: 0x0, symName: __RNvMs3_Cs23PVZzqjOzE_10pkg_configNtB5_6Config14print_metadata, symObjAddr: 0x55D8, symBinAddr: 0x10000DBEC, symSize: 0x94 }
  - { offset: 0x1C631, size: 0x8, addend: 0x0, symName: __RNvMs3_Cs23PVZzqjOzE_10pkg_configNtB5_6Config12infer_static, symObjAddr: 0x566C, symBinAddr: 0x10000DC80, symSize: 0x43C }
  - { offset: 0x1C6F6, size: 0x8, addend: 0x0, symName: __RNvMs5_Cs23PVZzqjOzE_10pkg_configNtB5_7Library3new, symObjAddr: 0x5B74, symBinAddr: 0x10000E0BC, symSize: 0x224 }
  - { offset: 0x1C709, size: 0x8, addend: 0x0, symName: __RNvMs5_Cs23PVZzqjOzE_10pkg_configNtB5_7Library25extract_lib_from_filename, symObjAddr: 0x5D98, symBinAddr: 0x10000E2E0, symSize: 0x300 }
  - { offset: 0x1C7E5, size: 0x8, addend: 0x0, symName: __RNvMs5_Cs23PVZzqjOzE_10pkg_configNtB5_7Library17parse_libs_cflags, symObjAddr: 0x61F4, symBinAddr: 0x10000E73C, symSize: 0x1B3C }
  - { offset: 0x1CEE3, size: 0x8, addend: 0x0, symName: __RNvMs5_Cs23PVZzqjOzE_10pkg_configNtB5_7Library16parse_modversion, symObjAddr: 0x8068, symBinAddr: 0x1000105B0, symSize: 0xB8 }
  - { offset: 0x1D289, size: 0x8, addend: 0x0, symName: __RINvMNtCsiTraAjBDcu4_5alloc5sliceSRe4joinBw_ECs23PVZzqjOzE_10pkg_config, symObjAddr: 0x0, symBinAddr: 0x10001100C, symSize: 0x34 }
  - { offset: 0x1DE24, size: 0x8, addend: 0x0, symName: __RNvNvMNtNtCsaNl6UpbT7bw_4core3ptr9const_ptrPp20offset_from_unsigned18precondition_checkCs23PVZzqjOzE_10pkg_config, symObjAddr: 0x2254, symBinAddr: 0x100012D44, symSize: 0xAC }
  - { offset: 0x1F84F, size: 0x8, addend: 0x0, symName: __RINvNtNtNtNtCsaNl6UpbT7bw_4core9core_arch10arm_shared4neon9generated13vget_lane_u64Kl0_ECs23PVZzqjOzE_10pkg_config, symObjAddr: 0xC78, symBinAddr: 0x100011A64, symSize: 0x18 }
  - { offset: 0x1F87E, size: 0x8, addend: 0x0, symName: __RNvNtNtNtNtCsaNl6UpbT7bw_4core9core_arch10arm_shared4neon9generated18vreinterpret_s8_u8Cs23PVZzqjOzE_10pkg_config, symObjAddr: 0x209C, symBinAddr: 0x100012B8C, symSize: 0xC }
  - { offset: 0x1F8AC, size: 0x8, addend: 0x0, symName: __RNvNtNtNtNtCsaNl6UpbT7bw_4core9core_arch10arm_shared4neon9generated19vreinterpret_u64_u8Cs23PVZzqjOzE_10pkg_config, symObjAddr: 0x20A8, symBinAddr: 0x100012B98, symSize: 0xC }
  - { offset: 0x1F8DA, size: 0x8, addend: 0x0, symName: __RNvNtNtNtNtCsaNl6UpbT7bw_4core9core_arch10arm_shared4neon9generated7vceq_u8Cs23PVZzqjOzE_10pkg_config, symObjAddr: 0x20B4, symBinAddr: 0x100012BA4, symSize: 0x14 }
  - { offset: 0x1F917, size: 0x8, addend: 0x0, symName: __RNvNtNtNtNtCsaNl6UpbT7bw_4core9core_arch10arm_shared4neon9generated7vorr_u8Cs23PVZzqjOzE_10pkg_config, symObjAddr: 0x20C8, symBinAddr: 0x100012BB8, symSize: 0x14 }
  - { offset: 0x1F954, size: 0x8, addend: 0x0, symName: __RNvNtNtNtNtCsaNl6UpbT7bw_4core9core_arch10arm_shared4neon9generated9vdup_n_u8Cs23PVZzqjOzE_10pkg_config, symObjAddr: 0x20DC, symBinAddr: 0x100012BCC, symSize: 0x34 }
  - { offset: 0x1FA3D, size: 0x8, addend: 0x0, symName: __RNvNtNtNtNtCsaNl6UpbT7bw_4core9core_arch7aarch644neon9generated7vld1_u8Cs23PVZzqjOzE_10pkg_config, symObjAddr: 0x2110, symBinAddr: 0x100012C00, symSize: 0x34 }
  - { offset: 0x1FA6B, size: 0x8, addend: 0x0, symName: __RNvNtNtNtNtCsaNl6UpbT7bw_4core9core_arch7aarch644neon9generated7vst1_u8Cs23PVZzqjOzE_10pkg_config, symObjAddr: 0x2144, symBinAddr: 0x100012C34, symSize: 0x40 }
  - { offset: 0x1FAA5, size: 0x8, addend: 0x0, symName: __RNvNtNtNtNtCsaNl6UpbT7bw_4core9core_arch7aarch644neon9generated8vcgez_s8Cs23PVZzqjOzE_10pkg_config, symObjAddr: 0x2184, symBinAddr: 0x100012C74, symSize: 0x68 }
  - { offset: 0x1FB47, size: 0x8, addend: 0x0, symName: __RNvNtNtNtNtCsaNl6UpbT7bw_4core9core_arch7aarch644neon9generated8vcltz_s8Cs23PVZzqjOzE_10pkg_config, symObjAddr: 0x21EC, symBinAddr: 0x100012CDC, symSize: 0x68 }
  - { offset: 0x2007B, size: 0x8, addend: 0x0, symName: __RINvYINtNtNtCsaNl6UpbT7bw_4core3str4iter5SplitcENtNtNtNtBa_4iter6traits8iterator8Iterator7collectINtNtCsiTraAjBDcu4_5alloc3vec3VecReEECs23PVZzqjOzE_10pkg_config, symObjAddr: 0xDB0, symBinAddr: 0x100011B6C, symSize: 0x74 }
  - { offset: 0x20111, size: 0x8, addend: 0x0, symName: __RINvYNtNtNtCsaNl6UpbT7bw_4core3str4iter5CharsNtNtNtNtB9_4iter6traits8iterator8Iterator3mapcNCNvCs23PVZzqjOzE_10pkg_config6envify0EB1v_, symObjAddr: 0xE24, symBinAddr: 0x100011BE0, symSize: 0x1C }
  - { offset: 0x20169, size: 0x8, addend: 0x0, symName: __RINvYNtNtNtCsaNl6UpbT7bw_4core3str4iter5CharsNtNtNtNtB9_4iter6traits8iterator8Iterator4folduNCINvNtNtBN_8adapters3map8map_foldccuNCNvCs23PVZzqjOzE_10pkg_config6envify0NCIB1v_ccuNCB25_s_0NCINvNvBH_8for_each4callcNCINvXsb_NtCsiTraAjBDcu4_5alloc6stringNtB3w_6StringINtNtBL_7collect6ExtendcE6extendINtB1x_3MapIB4J_B3_B23_EB2P_EE0E0E0E0EB27_, symObjAddr: 0xE40, symBinAddr: 0x100011BFC, symSize: 0xB4 }
  - { offset: 0x20202, size: 0x8, addend: 0x0, symName: __RNCINvNvNtNtNtNtCsaNl6UpbT7bw_4core4iter6traits8iterator8Iterator8for_each4callNtNtCsiTraAjBDcu4_5alloc6string6StringNCINvMsi_NtB1j_3vecINtB20_3VecB1f_E14extend_trustedINtNtNtBc_8adapters3map3MapINtNtB20_9into_iter8IntoIterReENvYB1f_INtNtBe_7convert4FromB3z_E4fromEE0E0Cs23PVZzqjOzE_10pkg_config, symObjAddr: 0xEF4, symBinAddr: 0x100011CB0, symSize: 0x3C }
  - { offset: 0x2025B, size: 0x8, addend: 0x0, symName: __RNCINvNvNtNtNtNtCsaNl6UpbT7bw_4core4iter6traits8iterator8Iterator8for_each4callNtNtCsiTraAjBDcu4_5alloc6string6StringNCINvMsi_NtB1j_3vecINtB20_3VecB1f_E14extend_trustedINtNtNtBc_8adapters3map3MapINtNtNtBe_5slice4iter4IterNtNtNtCsht3nMU9UgFu_3std3ffi6os_str8OsStringENCNvXs_Cs23PVZzqjOzE_10pkg_configNtB4n_14WrappedCommandNtNtBe_3fmt7Display3fmts_0EE0E0B4n_, symObjAddr: 0xF30, symBinAddr: 0x100011CEC, symSize: 0x3C }
  - { offset: 0x202B4, size: 0x8, addend: 0x0, symName: __RNCINvNvNtNtNtNtCsaNl6UpbT7bw_4core4iter6traits8iterator8Iterator8for_each4callNtNtCsiTraAjBDcu4_5alloc6string6StringNCINvMsi_NtB1j_3vecINtB20_3VecB1f_E14extend_trustedINtNtNtBc_8adapters3map3MapINtNtNtBe_5slice4iter4IterTNtNtNtCsht3nMU9UgFu_3std3ffi6os_str8OsStringB3y_EENCNvXs_Cs23PVZzqjOzE_10pkg_configNtB4t_14WrappedCommandNtNtBe_3fmt7Display3fmt0EE0E0B4t_, symObjAddr: 0xF6C, symBinAddr: 0x100011D28, symSize: 0x3C }
  - { offset: 0x2030D, size: 0x8, addend: 0x0, symName: __RNCINvNvNtNtNtNtCsaNl6UpbT7bw_4core4iter6traits8iterator8Iterator8for_each4callNtNtNtCsht3nMU9UgFu_3std3ffi6os_str8OsStringNCINvMsi_NtCsiTraAjBDcu4_5alloc3vecINtB26_3VecB1f_E14extend_trustedINtNtNtBc_8adapters3map3MapINtNtNtBe_5slice4iter4IterB1f_ENCINvMCs23PVZzqjOzE_10pkg_configNtB44_14WrappedCommand4argsRB2w_RB1f_E0EE0E0B44_, symObjAddr: 0xFA8, symBinAddr: 0x100011D64, symSize: 0x3C }
  - { offset: 0x20366, size: 0x8, addend: 0x0, symName: __RNCINvNvNtNtNtNtCsaNl6UpbT7bw_4core4iter6traits8iterator8Iterator8for_each4callNtNtNtCsht3nMU9UgFu_3std3ffi6os_str8OsStringNCINvMsi_NtCsiTraAjBDcu4_5alloc3vecINtB26_3VecB1f_E14extend_trustedINtNtNtBc_8adapters3map3MapINtNtNtBe_5slice4iter4IterReENCINvMCs23PVZzqjOzE_10pkg_configNtB42_14WrappedCommand4argsRSB3T_RB3T_E0EE0E0B42_, symObjAddr: 0xFE4, symBinAddr: 0x100011DA0, symSize: 0x3C }
  - { offset: 0x203BF, size: 0x8, addend: 0x0, symName: __RNCINvNvNtNtNtNtCsaNl6UpbT7bw_4core4iter6traits8iterator8Iterator8for_each4callcNCINvXsb_NtCsiTraAjBDcu4_5alloc6stringNtB1p_6StringINtNtBa_7collect6ExtendcE6extendINtNtNtBc_8adapters3map3MapIB2C_NtNtNtBe_3str4iter5CharsNCNvCs23PVZzqjOzE_10pkg_config6envify0ENCB3x_s_0EE0E0B3z_, symObjAddr: 0x1020, symBinAddr: 0x100011DDC, symSize: 0x28 }
  - { offset: 0x20417, size: 0x8, addend: 0x0, symName: __RNCINvNvNtNtNtNtCsaNl6UpbT7bw_4core4iter6traits8iterator8Iterator8for_each4callhNCINvMsi_NtCsiTraAjBDcu4_5alloc3vecINtB1p_3VechE14extend_trustedINtNtNtBc_8adapters3map3MapINtNtNtBe_5slice4iter4IterhENCNvNtB1r_3str13replace_ascii0EE0E0Cs23PVZzqjOzE_10pkg_config, symObjAddr: 0x1048, symBinAddr: 0x100011E04, symSize: 0x28 }
  - { offset: 0x20484, size: 0x8, addend: 0x0, symName: __RNvYINtNtNtCsaNl6UpbT7bw_4core3str4iter5SplitcENtNtNtNtB9_4iter6traits8iterator8Iterator9size_hintCs23PVZzqjOzE_10pkg_config, symObjAddr: 0x2E20, symBinAddr: 0x100013910, symSize: 0x34 }
  - { offset: 0x204C5, size: 0x8, addend: 0x0, symName: __RNvXNtNtNtCsaNl6UpbT7bw_4core4iter6traits7collectINtNtNtB8_3str4iter5SplitcENtB2_12IntoIterator9into_iterCs23PVZzqjOzE_10pkg_config, symObjAddr: 0x244C, symBinAddr: 0x100012F3C, symSize: 0x30 }
  - { offset: 0x205DE, size: 0x8, addend: 0x0, symName: __RNCNvMsp_NtNtCsaNl6UpbT7bw_4core3str4iterINtB7_20MatchIndicesInternalcE4next0Cs23PVZzqjOzE_10pkg_config, symObjAddr: 0x1070, symBinAddr: 0x100011E2C, symSize: 0xA8 }
  - { offset: 0x20766, size: 0x8, addend: 0x0, symName: __RNvXNtNtCsaNl6UpbT7bw_4core3str4iterNtB2_5CharsNtNtNtNtB6_4iter6traits8iterator8Iterator4nextCs23PVZzqjOzE_10pkg_config, symObjAddr: 0x2358, symBinAddr: 0x100012E48, symSize: 0x80 }
  - { offset: 0x207FD, size: 0x8, addend: 0x0, symName: __RNvXNtNtCsaNl6UpbT7bw_4core3str4iterNtB2_5CharsNtNtNtNtB6_4iter6traits8iterator8Iterator9size_hintCs23PVZzqjOzE_10pkg_config, symObjAddr: 0x23D8, symBinAddr: 0x100012EC8, symSize: 0x74 }
  - { offset: 0x208B0, size: 0x8, addend: 0x0, symName: __RNvXs3_NtNtCsaNl6UpbT7bw_4core3str4iterNtB5_11CharIndicesNtNtNtNtB9_4iter6traits8iterator8Iterator4nextCs23PVZzqjOzE_10pkg_config, symObjAddr: 0x24A8, symBinAddr: 0x100012F98, symSize: 0x130 }
  - { offset: 0x20AE9, size: 0x8, addend: 0x0, symName: __RNvXs4_NtNtCsaNl6UpbT7bw_4core3str4iterNtB5_11CharIndicesNtNtNtNtB9_4iter6traits12double_ended19DoubleEndedIterator9next_backCs23PVZzqjOzE_10pkg_config, symObjAddr: 0x2600, symBinAddr: 0x1000130F0, symSize: 0x14C }
  - { offset: 0x20C3C, size: 0x8, addend: 0x0, symName: __RNvXsH_NtNtCsaNl6UpbT7bw_4core3str4iterINtB5_14SplitInclusivecENtNtNtNtB9_4iter6traits8iterator8Iterator4nextCs23PVZzqjOzE_10pkg_config, symObjAddr: 0x2D4C, symBinAddr: 0x10001383C, symSize: 0x24 }
  - { offset: 0x20C79, size: 0x8, addend: 0x0, symName: __RNvXsX_NtNtCsaNl6UpbT7bw_4core3str4iterINtB5_5SplitcENtNtNtNtB9_4iter6traits8iterator8Iterator4nextCs23PVZzqjOzE_10pkg_config, symObjAddr: 0x2D70, symBinAddr: 0x100013860, symSize: 0x24 }
  - { offset: 0x20CB6, size: 0x8, addend: 0x0, symName: __RNvXss_NtNtCsaNl6UpbT7bw_4core3str4iterNtB5_5LinesNtNtNtNtB9_4iter6traits8iterator8Iterator4nextCs23PVZzqjOzE_10pkg_config, symObjAddr: 0x2DFC, symBinAddr: 0x1000138EC, symSize: 0x24 }
  - { offset: 0x20D95, size: 0x8, addend: 0x0, symName: __RNvXs3_NtNtCsaNl6UpbT7bw_4core3str7patternNvMNtNtB9_4char7methodsc13is_whitespaceNtB5_11MultiCharEq7matchesCs23PVZzqjOzE_10pkg_config, symObjAddr: 0x25D8, symBinAddr: 0x1000130C8, symSize: 0x28 }
  - { offset: 0x20DE1, size: 0x8, addend: 0x0, symName: __RNvXsr_NtNtCsaNl6UpbT7bw_4core3str7patternNvMNtNtB9_4char7methodsc13is_whitespaceNtB5_7Pattern13into_searcherCs23PVZzqjOzE_10pkg_config, symObjAddr: 0x2DB4, symBinAddr: 0x1000138A4, symSize: 0x48 }
  - { offset: 0x21278, size: 0x8, addend: 0x0, symName: __RNvMNtNtCsaNl6UpbT7bw_4core4char7methodsc13is_whitespaceCs23PVZzqjOzE_10pkg_config, symObjAddr: 0x1118, symBinAddr: 0x100011ED4, symSize: 0x90 }
  - { offset: 0x212DA, size: 0x8, addend: 0x0, symName: __RNvMNtNtCsaNl6UpbT7bw_4core4char7methodsc18to_ascii_uppercaseCs23PVZzqjOzE_10pkg_config, symObjAddr: 0x11A8, symBinAddr: 0x100011F64, symSize: 0x80 }
  - { offset: 0x213E3, size: 0x8, addend: 0x0, symName: __RNvNtNtCsaNl6UpbT7bw_4core4char7methods15encode_utf8_rawCs23PVZzqjOzE_10pkg_config, symObjAddr: 0x1BF4, symBinAddr: 0x100012930, symSize: 0x110 }
  - { offset: 0x214E3, size: 0x8, addend: 0x0, symName: __RNvNtNtCsaNl6UpbT7bw_4core4char7methods25encode_utf8_raw_uncheckedCs23PVZzqjOzE_10pkg_config, symObjAddr: 0x1D04, symBinAddr: 0x100012A40, symSize: 0x14C }
  - { offset: 0x216C0, size: 0x8, addend: 0x0, symName: __RNvXNtCsaNl6UpbT7bw_4core7convertRReINtB2_5AsRefNtNtNtCsht3nMU9UgFu_3std3ffi6os_str5OsStrE6as_refCs23PVZzqjOzE_10pkg_config, symObjAddr: 0x2300, symBinAddr: 0x100012DF0, symSize: 0x28 }
  - { offset: 0x21700, size: 0x8, addend: 0x0, symName: __RNvXNtCsaNl6UpbT7bw_4core7convertReINtB2_5AsRefNtNtNtCsht3nMU9UgFu_3std3ffi6os_str5OsStrE6as_refCs23PVZzqjOzE_10pkg_config, symObjAddr: 0x2328, symBinAddr: 0x100012E18, symSize: 0x30 }
  - { offset: 0x21782, size: 0x8, addend: 0x0, symName: __RNvYjNtNtCsaNl6UpbT7bw_4core3cmp3Ord3maxCs23PVZzqjOzE_10pkg_config, symObjAddr: 0x2E54, symBinAddr: 0x100013944, symSize: 0x80 }
  - { offset: 0x217F0, size: 0x8, addend: 0x0, symName: __RNvYjNtNtCsaNl6UpbT7bw_4core3cmp3Ord3minCs23PVZzqjOzE_10pkg_config, symObjAddr: 0x2ED4, symBinAddr: 0x1000139C4, symSize: 0x80 }
  - { offset: 0x21C10, size: 0x8, addend: 0x0, symName: __RINvXNtNtNtNtCsht3nMU9UgFu_3std3sys12thread_local6native4lazyzNtB3_14DestroyedState13register_dtorINtNtCsaNl6UpbT7bw_4core4cell4CellTyyEEECs23PVZzqjOzE_10pkg_config, symObjAddr: 0xC90, symBinAddr: 0x100011A7C, symSize: 0x10 }
  - { offset: 0x220EB, size: 0x8, addend: 0x0, symName: __RINvNtCsht3nMU9UgFu_3std2fs8metadataRNtNtB4_4path4PathECs23PVZzqjOzE_10pkg_config, symObjAddr: 0xB8C, symBinAddr: 0x100011978, symSize: 0xEC }
  - { offset: 0x221E8, size: 0x8, addend: 0x0, symName: __RINvMNtCsiTraAjBDcu4_5alloc5sliceSRe4joinBw_ECs23PVZzqjOzE_10pkg_config, symObjAddr: 0x0, symBinAddr: 0x10001100C, symSize: 0x34 }
  - { offset: 0x22237, size: 0x8, addend: 0x0, symName: __RINvMNtCsiTraAjBDcu4_5alloc5sliceSRe8into_vecNtNtB5_5alloc6GlobalECs23PVZzqjOzE_10pkg_config, symObjAddr: 0x34, symBinAddr: 0x100011040, symSize: 0x9C }
  - { offset: 0x2243D, size: 0x8, addend: 0x0, symName: __RINvXs_NvMNtCsiTraAjBDcu4_5alloc5sliceSp9to_vec_inhNtB5_10ConvertVec6to_vecNtNtBa_5alloc6GlobalECs23PVZzqjOzE_10pkg_config, symObjAddr: 0xCA0, symBinAddr: 0x100011A8C, symSize: 0xE0 }
  - { offset: 0x22650, size: 0x8, addend: 0x0, symName: __RNvXs6_NtCsiTraAjBDcu4_5alloc5boxedINtB5_3BoxANtNtB7_6string6Stringj1_ENtNtNtCsaNl6UpbT7bw_4core3ops4drop4Drop4dropCs23PVZzqjOzE_10pkg_config, symObjAddr: 0x274C, symBinAddr: 0x10001323C, symSize: 0xB8 }
  - { offset: 0x22787, size: 0x8, addend: 0x0, symName: __RNvXs6_NtCsiTraAjBDcu4_5alloc5boxedINtB5_3BoxANtNtCsht3nMU9UgFu_3std4path7PathBufj2_ENtNtNtCsaNl6UpbT7bw_4core3ops4drop4Drop4dropCs23PVZzqjOzE_10pkg_config, symObjAddr: 0x2804, symBinAddr: 0x1000132F4, symSize: 0xB8 }
  - { offset: 0x228BE, size: 0x8, addend: 0x0, symName: __RNvXs6_NtCsiTraAjBDcu4_5alloc5boxedINtB5_3BoxARej1_ENtNtNtCsaNl6UpbT7bw_4core3ops4drop4Drop4dropCs23PVZzqjOzE_10pkg_config, symObjAddr: 0x28BC, symBinAddr: 0x1000133AC, symSize: 0xB8 }
  - { offset: 0x229F5, size: 0x8, addend: 0x0, symName: __RNvXs6_NtCsiTraAjBDcu4_5alloc5boxedINtB5_3BoxDINtNtNtCsaNl6UpbT7bw_4core3ops8function5FnMutuEp6OutputINtNtBP_6result6ResultuNtNtNtCsht3nMU9UgFu_3std2io5error5ErrorENtNtBP_6marker4SyncNtB2E_4SendEL_ENtNtBN_4drop4Drop4dropCs23PVZzqjOzE_10pkg_config, symObjAddr: 0x2974, symBinAddr: 0x100013464, symSize: 0xCC }
  - { offset: 0x22B2C, size: 0x8, addend: 0x0, symName: __RNvXs6_NtCsiTraAjBDcu4_5alloc5boxedINtB5_3BoxDNtNtCsaNl6UpbT7bw_4core5error5ErrorNtNtBM_6marker4SyncNtB1j_4SendEL_ENtNtNtBM_3ops4drop4Drop4dropCs23PVZzqjOzE_10pkg_config, symObjAddr: 0x2A40, symBinAddr: 0x100013530, symSize: 0xCC }
  - { offset: 0x22C63, size: 0x8, addend: 0x0, symName: __RNvXs6_NtCsiTraAjBDcu4_5alloc5boxedINtB5_3BoxNtNtNtCsht3nMU9UgFu_3std2io5error6CustomENtNtNtCsaNl6UpbT7bw_4core3ops4drop4Drop4dropCs23PVZzqjOzE_10pkg_config, symObjAddr: 0x2B0C, symBinAddr: 0x1000135FC, symSize: 0xB8 }
  - { offset: 0x22D9A, size: 0x8, addend: 0x0, symName: __RNvXs6_NtCsiTraAjBDcu4_5alloc5boxedINtB5_3BoxShENtNtNtCsaNl6UpbT7bw_4core3ops4drop4Drop4dropCs23PVZzqjOzE_10pkg_config, symObjAddr: 0x2BC4, symBinAddr: 0x1000136B4, symSize: 0xC4 }
  - { offset: 0x22ED1, size: 0x8, addend: 0x0, symName: __RNvXs6_NtCsiTraAjBDcu4_5alloc5boxedINtB5_3BoxSmENtNtNtCsaNl6UpbT7bw_4core3ops4drop4Drop4dropCs23PVZzqjOzE_10pkg_config, symObjAddr: 0x2C88, symBinAddr: 0x100013778, symSize: 0xC4 }
  - { offset: 0x23443, size: 0x8, addend: 0x0, symName: __RNvXs_NtNtCsiTraAjBDcu4_5alloc3vec15set_len_on_dropNtB4_12SetLenOnDropNtNtNtCsaNl6UpbT7bw_4core3ops4drop4Drop4dropCs23PVZzqjOzE_10pkg_config, symObjAddr: 0x2D94, symBinAddr: 0x100013884, symSize: 0x20 }
  - { offset: 0x23FE6, size: 0x8, addend: 0x0, symName: __RNvXNvMsT_NtNtNtCsiTraAjBDcu4_5alloc11collections5btree4nodeINtB8_6HandleINtB8_7NodeRefNtNtB8_6marker5DyingpppENtB1p_2KVE12drop_key_valINtB2_7DropperINtNtCsaNl6UpbT7bw_4core6option6OptionNtNtNtCsht3nMU9UgFu_3std3ffi6os_str8OsStringEENtNtNtB2s_3ops4drop4Drop4dropCs23PVZzqjOzE_10pkg_config, symObjAddr: 0x247C, symBinAddr: 0x100012F6C, symSize: 0x2C }
  - { offset: 0x243DC, size: 0x8, addend: 0x0, symName: __RINvMs0_NtNtNtNtCsht3nMU9UgFu_3std3sys12thread_local6native4lazyINtB6_7StorageINtNtCsaNl6UpbT7bw_4core4cell4CellTyyEEzE11get_or_initNvNvNvMNtNtBe_4hash6randomNtB2d_11RandomState3new4KEYS6___initECs23PVZzqjOzE_10pkg_config, symObjAddr: 0xD0, symBinAddr: 0x1000110DC, symSize: 0xA4 }
  - { offset: 0x245BC, size: 0x8, addend: 0x0, symName: __RINvMs0_NtNtNtNtCsht3nMU9UgFu_3std3sys12thread_local6native4lazyINtB6_7StorageINtNtCsaNl6UpbT7bw_4core4cell4CellTyyEEzE16get_or_init_slowNvNvNvMNtNtBe_4hash6randomNtB2i_11RandomState3new4KEYS6___initECs23PVZzqjOzE_10pkg_config, symObjAddr: 0x174, symBinAddr: 0x1000ED90C, symSize: 0x220 }
  - { offset: 0x249CE, size: 0x8, addend: 0x0, symName: __RINvMsh_NtNtNtCsiTraAjBDcu4_5alloc11collections5btree4nodeINtB6_7NodeRefNtNtB6_6marker5DyingNtNtNtCsht3nMU9UgFu_3std3ffi6os_str8OsStringINtNtCsaNl6UpbT7bw_4core6option6OptionB1s_ENtB1a_14LeafOrInternalE21deallocate_and_ascendNtNtBc_5alloc6GlobalECs23PVZzqjOzE_10pkg_config, symObjAddr: 0x394, symBinAddr: 0x100011180, symSize: 0x188 }
  - { offset: 0x24C14, size: 0x8, addend: 0x0, symName: __RINvMsj_NtNtNtCsiTraAjBDcu4_5alloc11collections5btree8navigateINtNtB8_4node6HandleINtB11_7NodeRefNtNtB11_6marker5DyingNtNtNtCsht3nMU9UgFu_3std3ffi6os_str8OsStringINtNtCsaNl6UpbT7bw_4core6option6OptionB1S_ENtB1z_4LeafENtB1z_4EdgeE16deallocating_endNtNtBc_5alloc6GlobalECs23PVZzqjOzE_10pkg_config, symObjAddr: 0x51C, symBinAddr: 0x100011308, symSize: 0xD4 }
  - { offset: 0x24E95, size: 0x8, addend: 0x0, symName: __RINvMsj_NtNtNtCsiTraAjBDcu4_5alloc11collections5btree8navigateINtNtB8_4node6HandleINtB11_7NodeRefNtNtB11_6marker5DyingNtNtNtCsht3nMU9UgFu_3std3ffi6os_str8OsStringINtNtCsaNl6UpbT7bw_4core6option6OptionB1S_ENtB1z_4LeafENtB1z_4EdgeE17deallocating_nextNtNtBc_5alloc6GlobalECs23PVZzqjOzE_10pkg_config, symObjAddr: 0x5F0, symBinAddr: 0x1000113DC, symSize: 0x254 }
  - { offset: 0x251A8, size: 0x8, addend: 0x0, symName: __RINvMsk_NtCsht3nMU9UgFu_3std7processNtB6_7Command3argRNtNtNtB8_3ffi6os_str5OsStrECs23PVZzqjOzE_10pkg_config, symObjAddr: 0x844, symBinAddr: 0x100011630, symSize: 0x70 }
  - { offset: 0x25210, size: 0x8, addend: 0x0, symName: __RINvMsk_NtCsht3nMU9UgFu_3std7processNtB6_7Command3envRNtNtNtB8_3ffi6os_str5OsStrBP_ECs23PVZzqjOzE_10pkg_config, symObjAddr: 0x8B4, symBinAddr: 0x1000116A0, symSize: 0xA4 }
  - { offset: 0x25281, size: 0x8, addend: 0x0, symName: __RINvMsk_NtCsht3nMU9UgFu_3std7processNtB6_7Command3newRNtNtNtB8_3ffi6os_str5OsStrECs23PVZzqjOzE_10pkg_config, symObjAddr: 0x958, symBinAddr: 0x100011744, symSize: 0x84 }
  - { offset: 0x252C7, size: 0x8, addend: 0x0, symName: __RINvMsk_NtCsht3nMU9UgFu_3std7processNtB6_7Command4argsRINtNtCsiTraAjBDcu4_5alloc3vec3VecNtNtNtB8_3ffi6os_str8OsStringERB1o_ECs23PVZzqjOzE_10pkg_config, symObjAddr: 0x9DC, symBinAddr: 0x1000117C8, symSize: 0xD4 }
  - { offset: 0x25362, size: 0x8, addend: 0x0, symName: __RINvMsk_NtCsht3nMU9UgFu_3std7processNtB6_7Command4argsRSReRBS_ECs23PVZzqjOzE_10pkg_config, symObjAddr: 0xAB0, symBinAddr: 0x10001189C, symSize: 0xDC }
  - { offset: 0x259B1, size: 0x8, addend: 0x0, symName: __RNvMsI_NtCsht3nMU9UgFu_3std7processNtB5_10ExitStatus7successCs23PVZzqjOzE_10pkg_config, symObjAddr: 0x12A8, symBinAddr: 0x100011FE4, symSize: 0x70 }
  - { offset: 0x25B56, size: 0x8, addend: 0x0, symName: __RNvMsO_NtNtNtCsiTraAjBDcu4_5alloc11collections5btree4nodeINtB5_6HandleINtB5_7NodeRefNtNtB5_6marker5DyingNtNtNtCsht3nMU9UgFu_3std3ffi6os_str8OsStringINtNtCsaNl6UpbT7bw_4core6option6OptionB1E_ENtB1m_8InternalENtB1m_4EdgeE7descendCs23PVZzqjOzE_10pkg_config, symObjAddr: 0x1318, symBinAddr: 0x100012054, symSize: 0x9C }
  - { offset: 0x25E35, size: 0x8, addend: 0x0, symName: __RNvMsT_NtNtNtCsiTraAjBDcu4_5alloc11collections5btree4nodeINtB5_6HandleINtB5_7NodeRefNtNtB5_6marker5DyingNtNtNtCsht3nMU9UgFu_3std3ffi6os_str8OsStringINtNtCsaNl6UpbT7bw_4core6option6OptionB1E_ENtB1m_14LeafOrInternalENtB1m_2KVE12drop_key_valCs23PVZzqjOzE_10pkg_config, symObjAddr: 0x13B4, symBinAddr: 0x1000120F0, symSize: 0x138 }
  - { offset: 0x26128, size: 0x8, addend: 0x0, symName: __RNvMse_NtNtNtCsiTraAjBDcu4_5alloc11collections5btree4nodeINtB5_7NodeRefNtNtB5_6marker5DyingNtNtNtCsht3nMU9UgFu_3std3ffi6os_str8OsStringINtNtCsaNl6UpbT7bw_4core6option6OptionB1r_ENtB19_14LeafOrInternalE6ascendCs23PVZzqjOzE_10pkg_config, symObjAddr: 0x14EC, symBinAddr: 0x100012228, symSize: 0x160 }
  - { offset: 0x2628D, size: 0x8, addend: 0x0, symName: __RNvMsf_NtNtCsaNl6UpbT7bw_4core3str4iterINtB5_13SplitInternalcE14next_inclusiveCs23PVZzqjOzE_10pkg_config, symObjAddr: 0x164C, symBinAddr: 0x100012388, symSize: 0x130 }
  - { offset: 0x263B8, size: 0x8, addend: 0x0, symName: __RNvMsf_NtNtCsaNl6UpbT7bw_4core3str4iterINtB5_13SplitInternalcE4nextCs23PVZzqjOzE_10pkg_config, symObjAddr: 0x177C, symBinAddr: 0x1000124B8, symSize: 0x140 }
  - { offset: 0x264F4, size: 0x8, addend: 0x0, symName: __RNvMsf_NtNtCsaNl6UpbT7bw_4core3str4iterINtB5_13SplitInternalcE7get_endCs23PVZzqjOzE_10pkg_config, symObjAddr: 0x18BC, symBinAddr: 0x1000125F8, symSize: 0x128 }
  - { offset: 0x26806, size: 0x8, addend: 0x0, symName: __RNvMsp_NtNtNtCsiTraAjBDcu4_5alloc11collections5btree8navigateINtNtB7_4node6HandleINtB10_7NodeRefNtNtB10_6marker5DyingNtNtNtCsht3nMU9UgFu_3std3ffi6os_str8OsStringINtNtCsaNl6UpbT7bw_4core6option6OptionB1R_ENtB1y_14LeafOrInternalENtB1y_2KVE14next_leaf_edgeCs23PVZzqjOzE_10pkg_config, symObjAddr: 0x19E4, symBinAddr: 0x100012720, symSize: 0x210 }
  - { offset: 0x273D4, size: 0x8, addend: 0x0, symName: __RINvMNtCsaNl6UpbT7bw_4core6resultINtB3_6ResultINtNtCsiTraAjBDcu4_5alloc3vec3VechENtCs23PVZzqjOzE_10pkg_config5ErrorE7map_errB1h_NCNvMs3_B1j_NtB1j_6Config5probe0EB1j_, symObjAddr: 0x0, symBinAddr: 0x100013A44, symSize: 0xDC }
  - { offset: 0x27425, size: 0x8, addend: 0x0, symName: __RNvXs5_NtNtCsaNl6UpbT7bw_4core3num5errorNtB5_15TryFromIntErrorNtNtB9_3fmt5Debug3fmtCs23PVZzqjOzE_10pkg_config, symObjAddr: 0x24F0, symBinAddr: 0x1000158DC, symSize: 0x54 }
  - { offset: 0x274F7, size: 0x8, addend: 0x0, symName: __RNvNvMs3_NtCsaNl6UpbT7bw_4core3numi13unchecked_neg18precondition_checkCs23PVZzqjOzE_10pkg_config, symObjAddr: 0x1C6C, symBinAddr: 0x100015088, symSize: 0xB8 }
  - { offset: 0x27594, size: 0x8, addend: 0x0, symName: __RNvMs9_NtCsaNl6UpbT7bw_4core3numj11checked_addCs23PVZzqjOzE_10pkg_config, symObjAddr: 0x1044, symBinAddr: 0x100014464, symSize: 0x74 }
  - { offset: 0x2761E, size: 0x8, addend: 0x0, symName: __RNvNvMs9_NtCsaNl6UpbT7bw_4core3numj13unchecked_add18precondition_checkCs23PVZzqjOzE_10pkg_config, symObjAddr: 0x1D24, symBinAddr: 0x100015140, symSize: 0xB0 }
  - { offset: 0x276B2, size: 0x8, addend: 0x0, symName: __RNvNvMs9_NtCsaNl6UpbT7bw_4core3numj13unchecked_sub18precondition_checkCs23PVZzqjOzE_10pkg_config, symObjAddr: 0x1DD4, symBinAddr: 0x1000151F0, symSize: 0xAC }
  - { offset: 0x2829C, size: 0x8, addend: 0x0, symName: __RNvXsp_NtCsaNl6UpbT7bw_4core6resultINtB5_6ResultINtNtCsiTraAjBDcu4_5alloc3vec3VechENtCs23PVZzqjOzE_10pkg_config5ErrorENtNtNtB7_3ops9try_trait3Try6branchB1l_, symObjAddr: 0x2C30, symBinAddr: 0x10001601C, symSize: 0xC0 }
  - { offset: 0x28320, size: 0x8, addend: 0x0, symName: __RNvXsq_NtCsaNl6UpbT7bw_4core6resultINtB5_6ResultNtCs23PVZzqjOzE_10pkg_config7LibraryNtBM_5ErrorEINtNtNtB7_3ops9try_trait12FromResidualIBy_NtNtB7_7convert10InfallibleB1k_EE13from_residualBM_, symObjAddr: 0x2D30, symBinAddr: 0x1000160DC, symSize: 0x74 }
  - { offset: 0x29912, size: 0x8, addend: 0x0, symName: __RINvNtNtNtCsaNl6UpbT7bw_4core4iter8adapters7flatten17and_then_or_clearINtNtNtCsiTraAjBDcu4_5alloc3vec9into_iter8IntoIterReEB1U_NvYB16_NtNtNtB6_6traits8iterator8Iterator4nextECs23PVZzqjOzE_10pkg_config, symObjAddr: 0x73C, symBinAddr: 0x100013D70, symSize: 0x108 }
  - { offset: 0x29A55, size: 0x8, addend: 0x0, symName: __RNvXs1_NtNtNtCsaNl6UpbT7bw_4core4iter8adapters7flattenINtB5_7FlatMapINtNtNtBb_5slice4iter4IterNtNtCsiTraAjBDcu4_5alloc6string6StringEINtNtB1y_3vec3VecReENCNvMs5_Cs23PVZzqjOzE_10pkg_configNtB2z_7Library17parse_libs_cflagss3_0ENtNtNtB9_6traits8iterator8Iterator4nextB2z_, symObjAddr: 0x2130, symBinAddr: 0x10001554C, symSize: 0x24 }
  - { offset: 0x29AA2, size: 0x8, addend: 0x0, symName: __RNvXsi_NtNtNtCsaNl6UpbT7bw_4core4iter8adapters7flattenINtB5_13FlattenCompatINtNtB7_3map3MapINtNtNtBb_5slice4iter4IterNtNtCsiTraAjBDcu4_5alloc6string6StringENCNvMs5_Cs23PVZzqjOzE_10pkg_configNtB2C_7Library17parse_libs_cflagss3_0EINtNtNtB1V_3vec9into_iter8IntoIterReEENtNtNtB9_6traits8iterator8Iterator4nextB2C_, symObjAddr: 0x2B00, symBinAddr: 0x100015EEC, symSize: 0x130 }
  - { offset: 0x29C52, size: 0x8, addend: 0x0, symName: __RNvNvNtCsaNl6UpbT7bw_4core4hint16assert_unchecked18precondition_checkCs23PVZzqjOzE_10pkg_config, symObjAddr: 0x1E80, symBinAddr: 0x10001529C, symSize: 0xA4 }
  - { offset: 0x29CB2, size: 0x8, addend: 0x0, symName: __RNvNvNtCsaNl6UpbT7bw_4core4hint21unreachable_unchecked18precondition_checkCs23PVZzqjOzE_10pkg_config, symObjAddr: 0x1F24, symBinAddr: 0x100015340, symSize: 0x84 }
  - { offset: 0x29DD3, size: 0x8, addend: 0x0, symName: __RNvNtNtCsaNl6UpbT7bw_4core4hash3sip9u8to64_leCs23PVZzqjOzE_10pkg_config, symObjAddr: 0x114C, symBinAddr: 0x100014568, symSize: 0x240 }
  - { offset: 0x29F90, size: 0x8, addend: 0x0, symName: __RNvXs3_NtNtCsaNl6UpbT7bw_4core4hash3sipINtB5_6HasherNtB5_11Sip13RoundsENtB7_6Hasher5writeCs23PVZzqjOzE_10pkg_config, symObjAddr: 0x21BC, symBinAddr: 0x1000155A8, symSize: 0x238 }
  - { offset: 0x2A106, size: 0x8, addend: 0x0, symName: __RNvXs3_NtNtCsaNl6UpbT7bw_4core4hash3sipINtB5_6HasherNtB5_11Sip13RoundsENtB7_6Hasher6finishCs23PVZzqjOzE_10pkg_config, symObjAddr: 0x23F4, symBinAddr: 0x1000157E0, symSize: 0xA0 }
  - { offset: 0x2A179, size: 0x8, addend: 0x0, symName: __RNvXs3_NtNtCsaNl6UpbT7bw_4core4hash3sipINtB5_6HasherNtB5_11Sip13RoundsENtB7_6Hasher9write_strCs23PVZzqjOzE_10pkg_config, symObjAddr: 0x2494, symBinAddr: 0x100015880, symSize: 0x5C }
  - { offset: 0x2A1DF, size: 0x8, addend: 0x0, symName: __RNvXs6_NtNtCsaNl6UpbT7bw_4core4hash3sipNtB5_11Sip13RoundsNtB5_3Sip8c_roundsCs23PVZzqjOzE_10pkg_config, symObjAddr: 0x2544, symBinAddr: 0x100015930, symSize: 0x170 }
  - { offset: 0x2A355, size: 0x8, addend: 0x0, symName: __RNvXs6_NtNtCsaNl6UpbT7bw_4core4hash3sipNtB5_11Sip13RoundsNtB5_3Sip8d_roundsCs23PVZzqjOzE_10pkg_config, symObjAddr: 0x26B4, symBinAddr: 0x100015AA0, symSize: 0x408 }
  - { offset: 0x2A8E2, size: 0x8, addend: 0x0, symName: __RNvNvMNtNtCsaNl6UpbT7bw_4core5alloc6layoutNtB4_6Layout25from_size_align_unchecked18precondition_checkCs23PVZzqjOzE_10pkg_config, symObjAddr: 0x1BB0, symBinAddr: 0x100014FCC, symSize: 0xBC }
  - { offset: 0x2A958, size: 0x8, addend: 0x0, symName: __RNvNvNtCsaNl6UpbT7bw_4core9ub_checks23maybe_is_nonoverlapping7runtimeCs23PVZzqjOzE_10pkg_config, symObjAddr: 0x1FA8, symBinAddr: 0x1000153C4, symSize: 0xD8 }
  - { offset: 0x2AB43, size: 0x8, addend: 0x0, symName: __RNvXs7_NtNtCsaNl6UpbT7bw_4core3cmp5implsReNtB7_9PartialEq2eqCs23PVZzqjOzE_10pkg_config, symObjAddr: 0x2ABC, symBinAddr: 0x100015EA8, symSize: 0x44 }
  - { offset: 0x2ADDD, size: 0x8, addend: 0x0, symName: __RNCNvXs1_NtNtNtCsht3nMU9UgFu_3std2io5error14repr_bitpackedNtB7_4ReprNtNtNtCsaNl6UpbT7bw_4core3ops4drop4Drop4drop0Cs23PVZzqjOzE_10pkg_config, symObjAddr: 0xC10, symBinAddr: 0x100014244, symSize: 0x3C }
  - { offset: 0x2AE92, size: 0x8, addend: 0x0, symName: __RNvXs1_NtNtNtCsht3nMU9UgFu_3std2io5error14repr_bitpackedNtB5_4ReprNtNtNtCsaNl6UpbT7bw_4core3ops4drop4Drop4dropCs23PVZzqjOzE_10pkg_config, symObjAddr: 0x2154, symBinAddr: 0x100015570, symSize: 0x38 }
  - { offset: 0x2AEBB, size: 0x8, addend: 0x0, symName: __RINvNtNtNtCsht3nMU9UgFu_3std2io5error14repr_bitpacked11decode_reprINtNtCsiTraAjBDcu4_5alloc5boxed3BoxNtB4_6CustomENCNvXs1_B2_NtB2_4ReprNtNtNtCsaNl6UpbT7bw_4core3ops4drop4Drop4drop0ECs23PVZzqjOzE_10pkg_config, symObjAddr: 0x844, symBinAddr: 0x100013E78, symSize: 0x1DC }
  - { offset: 0x2B128, size: 0x8, addend: 0x0, symName: __RNCNvMs0_NtNtNtCsht3nMU9UgFu_3std2io5error14repr_bitpackedNtB7_4Repr4data0Cs23PVZzqjOzE_10pkg_config, symObjAddr: 0xBFC, symBinAddr: 0x100014230, symSize: 0x14 }
  - { offset: 0x2B160, size: 0x8, addend: 0x0, symName: __RINvNtNtNtCsht3nMU9UgFu_3std2io5error14repr_bitpacked11decode_reprRNtB4_6CustomNCNvMs0_B2_NtB2_4Repr4data0ECs23PVZzqjOzE_10pkg_config, symObjAddr: 0xA20, symBinAddr: 0x100014054, symSize: 0x1DC }
  - { offset: 0x2B3BC, size: 0x8, addend: 0x0, symName: __RNvNtNtNtCsht3nMU9UgFu_3std2io5error14repr_bitpacked14kind_from_primCs23PVZzqjOzE_10pkg_config, symObjAddr: 0x138C, symBinAddr: 0x1000147A8, symSize: 0x758 }
  - { offset: 0x2C011, size: 0x8, addend: 0x0, symName: __RNvNtNtNtCsht3nMU9UgFu_3std3sys2fs4unix23debug_assert_fd_is_openCs23PVZzqjOzE_10pkg_config, symObjAddr: 0x1AE4, symBinAddr: 0x100014F00, symSize: 0xCC }
  - { offset: 0x2C87D, size: 0x8, addend: 0x0, symName: __RNvXNtNtNtCsiTraAjBDcu4_5alloc11collections5btree3mapINtB2_8BTreeMapNtNtNtCsht3nMU9UgFu_3std3ffi6os_str8OsStringINtNtCsaNl6UpbT7bw_4core6option6OptionB14_EENtNtNtB1R_3ops4drop4Drop4dropCs23PVZzqjOzE_10pkg_config, symObjAddr: 0x2080, symBinAddr: 0x10001549C, symSize: 0x4C }
  - { offset: 0x2C90A, size: 0x8, addend: 0x0, symName: __RNvXNvXsw_NtNtNtCsiTraAjBDcu4_5alloc11collections5btree3mapINtB8_8IntoIterpppENtNtNtCsaNl6UpbT7bw_4core3ops4drop4Drop4dropINtB2_9DropGuardNtNtNtCsht3nMU9UgFu_3std3ffi6os_str8OsStringINtNtB1k_6option6OptionB2c_ENtNtBe_5alloc6GlobalEB1e_4dropCs23PVZzqjOzE_10pkg_config, symObjAddr: 0x20CC, symBinAddr: 0x1000154E8, symSize: 0x64 }
  - { offset: 0x2C99F, size: 0x8, addend: 0x0, symName: __RNvXsw_NtNtNtCsiTraAjBDcu4_5alloc11collections5btree3mapINtB5_8IntoIterNtNtNtCsht3nMU9UgFu_3std3ffi6os_str8OsStringINtNtCsaNl6UpbT7bw_4core6option6OptionB17_EENtNtNtB1U_3ops4drop4Drop4dropCs23PVZzqjOzE_10pkg_config, symObjAddr: 0x2FB4, symBinAddr: 0x1000162E0, symSize: 0x9C }
  - { offset: 0x2CA16, size: 0x8, addend: 0x0, symName: __RNvXsv_NtNtNtCsiTraAjBDcu4_5alloc11collections5btree3mapINtB5_8BTreeMapNtNtNtCsht3nMU9UgFu_3std3ffi6os_str8OsStringINtNtCsaNl6UpbT7bw_4core6option6OptionB17_EENtNtNtNtB1U_4iter6traits7collect12IntoIterator9into_iterCs23PVZzqjOzE_10pkg_config, symObjAddr: 0x2E24, symBinAddr: 0x100016150, symSize: 0x190 }
  - { offset: 0x2D371, size: 0x8, addend: 0x0, symName: __RINvMNtCsaNl6UpbT7bw_4core6resultINtB3_6ResultINtNtCsiTraAjBDcu4_5alloc3vec3VechENtCs23PVZzqjOzE_10pkg_config5ErrorE7map_errB1h_NCNvMs3_B1j_NtB1j_6Config5probe0EB1j_, symObjAddr: 0x0, symBinAddr: 0x100013A44, symSize: 0xDC }
  - { offset: 0x2D548, size: 0x8, addend: 0x0, symName: __RINvMNtCsaNl6UpbT7bw_4core6resultINtB3_6ResultNtNtCsht3nMU9UgFu_3std7process6OutputNtNtNtBM_2io5error5ErrorE7or_elseB1j_NCNvMs3_Cs23PVZzqjOzE_10pkg_configNtB22_6Config3runs_0EB22_, symObjAddr: 0x284, symBinAddr: 0x100013B20, symSize: 0xB4 }
  - { offset: 0x2D629, size: 0x8, addend: 0x0, symName: __RINvMNtCsaNl6UpbT7bw_4core6resultINtB3_6ResultRNtNtCsiTraAjBDcu4_5alloc6string6StringRNtNtCsht3nMU9UgFu_3std3env8VarErrorE3mapbNCNvMs5_Cs23PVZzqjOzE_10pkg_configNtB29_7Library17parse_libs_cflags0EB29_, symObjAddr: 0x494, symBinAddr: 0x100013BD4, symSize: 0x68 }
  - { offset: 0x2D741, size: 0x8, addend: 0x0, symName: __RINvMNtNtCsaNl6UpbT7bw_4core3fmt2rtNtB3_8Argument11new_displayINtNtCsiTraAjBDcu4_5alloc6borrow3CoweEECs23PVZzqjOzE_10pkg_config, symObjAddr: 0x4FC, symBinAddr: 0x100013C3C, symSize: 0x2C }
  - { offset: 0x2D8CF, size: 0x8, addend: 0x0, symName: __RINvMNtNtCsaNl6UpbT7bw_4core3fmt2rtNtB3_8Argument11new_displayNtCs23PVZzqjOzE_10pkg_config14WrappedCommandEB10_, symObjAddr: 0x528, symBinAddr: 0x100013C68, symSize: 0x2C }
  - { offset: 0x2D92E, size: 0x8, addend: 0x0, symName: __RINvMNtNtCsaNl6UpbT7bw_4core3fmt2rtNtB3_8Argument11new_displayNtNtCsht3nMU9UgFu_3std4path7DisplayECs23PVZzqjOzE_10pkg_config, symObjAddr: 0x554, symBinAddr: 0x100013C94, symSize: 0x2C }
  - { offset: 0x2D966, size: 0x8, addend: 0x0, symName: __RINvMNtNtCsaNl6UpbT7bw_4core3fmt2rtNtB3_8Argument11new_displayNtNtCsiTraAjBDcu4_5alloc6string6StringECs23PVZzqjOzE_10pkg_config, symObjAddr: 0x5AC, symBinAddr: 0x100013CC0, symSize: 0x2C }
  - { offset: 0x2D99E, size: 0x8, addend: 0x0, symName: __RINvMNtNtCsaNl6UpbT7bw_4core3fmt2rtNtB3_8Argument11new_displayRNtNtCsiTraAjBDcu4_5alloc6string6StringECs23PVZzqjOzE_10pkg_config, symObjAddr: 0x5D8, symBinAddr: 0x100013CEC, symSize: 0x2C }
  - { offset: 0x2D9F0, size: 0x8, addend: 0x0, symName: __RINvMNtNtCsaNl6UpbT7bw_4core3fmt2rtNtB3_8Argument11new_displayReECs23PVZzqjOzE_10pkg_config, symObjAddr: 0x65C, symBinAddr: 0x100013D18, symSize: 0x2C }
  - { offset: 0x2DA35, size: 0x8, addend: 0x0, symName: __RINvMNtNtCsaNl6UpbT7bw_4core3fmt2rtNtB3_8Argument9new_debugNtNtNtCsht3nMU9UgFu_3std3ffi6os_str8OsStringECs23PVZzqjOzE_10pkg_config, symObjAddr: 0x6B4, symBinAddr: 0x100013D44, symSize: 0x2C }
  - { offset: 0x2DCAD, size: 0x8, addend: 0x0, symName: __RNvMNtCsaNl6UpbT7bw_4core6resultINtB2_6ResultNtNtCsiTraAjBDcu4_5alloc6string6StringNtNtCsht3nMU9UgFu_3std3env8VarErrorE6as_refCs23PVZzqjOzE_10pkg_config, symObjAddr: 0xC4C, symBinAddr: 0x100014280, symSize: 0x68 }
  - { offset: 0x2DD1E, size: 0x8, addend: 0x0, symName: __RNvMNtCsaNl6UpbT7bw_4core6resultINtB2_6ResultbRNtNtCsht3nMU9UgFu_3std3env8VarErrorE9unwrap_orCs23PVZzqjOzE_10pkg_config, symObjAddr: 0xD88, symBinAddr: 0x1000142E8, symSize: 0x6C }
  - { offset: 0x2DD81, size: 0x8, addend: 0x0, symName: __RNvMNtCsaNl6UpbT7bw_4core6resultINtB2_6ResulthNtNtNtB4_3num5error15TryFromIntErrorE6expectCs23PVZzqjOzE_10pkg_config, symObjAddr: 0xDF4, symBinAddr: 0x100014354, symSize: 0x84 }
  - { offset: 0x2DDF0, size: 0x8, addend: 0x0, symName: __RNvMs0_NtNtCsaNl6UpbT7bw_4core4hash3sipINtB5_6HasherNtB5_11Sip13RoundsE5resetCs23PVZzqjOzE_10pkg_config, symObjAddr: 0xEF8, symBinAddr: 0x1000143D8, symSize: 0x8C }
  - { offset: 0x2DE71, size: 0x8, addend: 0x0, symName: __RNvMsx_NtNtNtCsiTraAjBDcu4_5alloc11collections5btree3mapINtB5_8IntoIterNtNtNtCsht3nMU9UgFu_3std3ffi6os_str8OsStringINtNtCsaNl6UpbT7bw_4core6option6OptionB17_EE10dying_nextCs23PVZzqjOzE_10pkg_config, symObjAddr: 0x10B8, symBinAddr: 0x1000144D8, symSize: 0x90 }
  - { offset: 0x2E184, size: 0x8, addend: 0x0, symName: __RINvMs3_NtCsiTraAjBDcu4_5alloc3stre7replacecECs23PVZzqjOzE_10pkg_config, symObjAddr: 0x0, symBinAddr: 0x10001637C, symSize: 0x710 }
  - { offset: 0x3057E, size: 0x8, addend: 0x0, symName: __RINvMs3_NtCsiTraAjBDcu4_5alloc3stre7replacecECs23PVZzqjOzE_10pkg_config, symObjAddr: 0x0, symBinAddr: 0x10001637C, symSize: 0x710 }
  - { offset: 0x310EA, size: 0x8, addend: 0x0, symName: __RNCNvNtCsiTraAjBDcu4_5alloc3str13replace_ascii0Cs23PVZzqjOzE_10pkg_config, symObjAddr: 0x35D8, symBinAddr: 0x100019954, symSize: 0x60 }
  - { offset: 0x311AD, size: 0x8, addend: 0x0, symName: __RNCNCINvNtCsiTraAjBDcu4_5alloc3str17join_generic_copyehNtNtB8_6string6StringE00Cs23PVZzqjOzE_10pkg_config, symObjAddr: 0x3568, symBinAddr: 0x1000198E4, symSize: 0x38 }
  - { offset: 0x311FE, size: 0x8, addend: 0x0, symName: __RNCNCINvNtCsiTraAjBDcu4_5alloc3str17join_generic_copyehReE00Cs23PVZzqjOzE_10pkg_config, symObjAddr: 0x35A0, symBinAddr: 0x10001991C, symSize: 0x38 }
  - { offset: 0x312B4, size: 0x8, addend: 0x0, symName: __RNCINvNtCsiTraAjBDcu4_5alloc3str17join_generic_copyehNtNtB6_6string6StringEs_0Cs23PVZzqjOzE_10pkg_config, symObjAddr: 0x3458, symBinAddr: 0x1000197D4, symSize: 0x88 }
  - { offset: 0x31381, size: 0x8, addend: 0x0, symName: __RNCINvNtCsiTraAjBDcu4_5alloc3str17join_generic_copyehReEs_0Cs23PVZzqjOzE_10pkg_config, symObjAddr: 0x34E0, symBinAddr: 0x10001985C, symSize: 0x88 }
  - { offset: 0x3144F, size: 0x8, addend: 0x0, symName: __RINvNtCsiTraAjBDcu4_5alloc3str17join_generic_copyehNtNtB4_6string6StringECs23PVZzqjOzE_10pkg_config, symObjAddr: 0x710, symBinAddr: 0x100016A8C, symSize: 0x16AC }
  - { offset: 0x329DB, size: 0x8, addend: 0x0, symName: __RINvNtCsiTraAjBDcu4_5alloc3str17join_generic_copyehReECs23PVZzqjOzE_10pkg_config, symObjAddr: 0x1DBC, symBinAddr: 0x100018138, symSize: 0x169C }
  - { offset: 0x33F6C, size: 0x8, addend: 0x0, symName: __RNvXs2_NtCsiTraAjBDcu4_5alloc3streNtNtB7_6borrow7ToOwned8to_ownedCs23PVZzqjOzE_10pkg_config, symObjAddr: 0x3638, symBinAddr: 0x1000199B4, symSize: 0x50 }
  - { offset: 0x34039, size: 0x8, addend: 0x0, symName: __RNvXs_NtCsiTraAjBDcu4_5alloc3strSReINtNtB6_5slice4JoinBv_E4joinCs23PVZzqjOzE_10pkg_config, symObjAddr: 0x3688, symBinAddr: 0x100019A04, symSize: 0x50 }
  - { offset: 0x35648, size: 0x8, addend: 0x0, symName: __RINvMNtCsaNl6UpbT7bw_4core3stre11starts_withReECs23PVZzqjOzE_10pkg_config, symObjAddr: 0x0, symBinAddr: 0x100019A54, symSize: 0x4C }
  - { offset: 0x359D5, size: 0x8, addend: 0x0, symName: __RNvYNtNtNtNtCsht3nMU9UgFu_3std3sys5stdio4unix6StderrNtNtBa_2io5Write9write_allCs23PVZzqjOzE_10pkg_config, symObjAddr: 0x46D4, symBinAddr: 0x10001DDF0, symSize: 0x270 }
  - { offset: 0x35B6D, size: 0x8, addend: 0x0, symName: __RNvYNtNtNtNtCsht3nMU9UgFu_3std3sys5stdio4unix6StderrNtNtBa_2io5Write9write_fmtCs23PVZzqjOzE_10pkg_config, symObjAddr: 0x4944, symBinAddr: 0x10001E060, symSize: 0x154 }
  - { offset: 0x3607B, size: 0x8, addend: 0x0, symName: __RNvXs14_NtCsht3nMU9UgFu_3std4pathNtB6_4PathINtNtCsaNl6UpbT7bw_4core7convert5AsRefNtNtNtB8_3ffi6os_str5OsStrE6as_refCs23PVZzqjOzE_10pkg_config, symObjAddr: 0x349C, symBinAddr: 0x10001CC28, symSize: 0x18 }
  - { offset: 0x360AF, size: 0x8, addend: 0x0, symName: __RNvXs1d_NtCsht3nMU9UgFu_3std4pathNtB6_4PathINtNtCsaNl6UpbT7bw_4core7convert5AsRefBv_E6as_refCs23PVZzqjOzE_10pkg_config, symObjAddr: 0x353C, symBinAddr: 0x10001CC98, symSize: 0x18 }
  - { offset: 0x36101, size: 0x8, addend: 0x0, symName: __RNvXsH_NtCsht3nMU9UgFu_3std4pathNtB5_7PathBufNtNtNtCsaNl6UpbT7bw_4core3ops5deref5Deref5derefCs23PVZzqjOzE_10pkg_config, symObjAddr: 0x4070, symBinAddr: 0x10001D78C, symSize: 0x34 }
  - { offset: 0x3618F, size: 0x8, addend: 0x0, symName: __RNvXs1j_NtCsht3nMU9UgFu_3std4pathNtB6_7PathBufINtNtCsaNl6UpbT7bw_4core7convert5AsRefNtB6_4PathE6as_refCs23PVZzqjOzE_10pkg_config, symObjAddr: 0x3554, symBinAddr: 0x10001CCB0, symSize: 0x34 }
  - { offset: 0x3627D, size: 0x8, addend: 0x0, symName: __RNvXsz_NtCsht3nMU9UgFu_3std4pathNtB5_7PathBufINtNtCsaNl6UpbT7bw_4core7convert4FromRNtB5_4PathE4fromCs23PVZzqjOzE_10pkg_config, symObjAddr: 0x4478, symBinAddr: 0x10001DB94, symSize: 0x8C }
  - { offset: 0x36353, size: 0x8, addend: 0x0, symName: __RNvXsz_NtCsht3nMU9UgFu_3std4pathNtB5_7PathBufINtNtCsaNl6UpbT7bw_4core7convert4FromReE4fromCs23PVZzqjOzE_10pkg_config, symObjAddr: 0x4504, symBinAddr: 0x10001DC20, symSize: 0x8C }
  - { offset: 0x36509, size: 0x8, addend: 0x0, symName: __RNvXNvXs2_NtNtCsht3nMU9UgFu_3std3ffi6os_strNtB8_8OsStringINtNtCsaNl6UpbT7bw_4core7convert4FromRpE4fromReNtB2_14SpecToOsString17spec_to_os_stringCs23PVZzqjOzE_10pkg_config, symObjAddr: 0x3394, symBinAddr: 0x10001CB20, symSize: 0x78 }
  - { offset: 0x365C3, size: 0x8, addend: 0x0, symName: __RNvXs2_NtNtCsht3nMU9UgFu_3std3ffi6os_strNtB5_8OsStringINtNtCsaNl6UpbT7bw_4core7convert4FromReE4fromCs23PVZzqjOzE_10pkg_config, symObjAddr: 0x3588, symBinAddr: 0x10001CCE4, symSize: 0x2C }
  - { offset: 0x3661E, size: 0x8, addend: 0x0, symName: __RNvXs5_NtNtCsht3nMU9UgFu_3std3ffi6os_strNtB5_8OsStringNtNtNtCsaNl6UpbT7bw_4core3ops5deref5Deref5derefCs23PVZzqjOzE_10pkg_config, symObjAddr: 0x3B24, symBinAddr: 0x10001D280, symSize: 0x2C }
  - { offset: 0x36706, size: 0x8, addend: 0x0, symName: __RNvXsV_NtNtCsht3nMU9UgFu_3std3ffi6os_strNtB5_8OsStringINtNtCsaNl6UpbT7bw_4core7convert5AsRefNtB5_5OsStrE6as_refCs23PVZzqjOzE_10pkg_config, symObjAddr: 0x40BC, symBinAddr: 0x10001D7D8, symSize: 0x2C }
  - { offset: 0x36758, size: 0x8, addend: 0x0, symName: __RNvXs3_NtNtCsht3nMU9UgFu_3std3ffi6os_strNtB5_8OsStringINtNtNtCsaNl6UpbT7bw_4core3ops5index5IndexNtNtBV_5range9RangeFullE5indexCs23PVZzqjOzE_10pkg_config, symObjAddr: 0x3728, symBinAddr: 0x10001CE84, symSize: 0x80 }
  - { offset: 0x368BD, size: 0x8, addend: 0x0, symName: __RNvXs7_NtNtCsht3nMU9UgFu_3std3ffi6os_strNtB5_8OsStringNtNtCsaNl6UpbT7bw_4core7default7Default7defaultCs23PVZzqjOzE_10pkg_config, symObjAddr: 0x3BCC, symBinAddr: 0x10001D328, symSize: 0x40 }
  - { offset: 0x36936, size: 0x8, addend: 0x0, symName: __RNvXsU_NtNtCsht3nMU9UgFu_3std3ffi6os_strNtB5_5OsStrINtNtCsaNl6UpbT7bw_4core7convert5AsRefBC_E6as_refCs23PVZzqjOzE_10pkg_config, symObjAddr: 0x40A4, symBinAddr: 0x10001D7C0, symSize: 0x18 }
  - { offset: 0x3696A, size: 0x8, addend: 0x0, symName: __RNvXsW_NtNtCsht3nMU9UgFu_3std3ffi6os_streINtNtCsaNl6UpbT7bw_4core7convert5AsRefNtB5_5OsStrE6as_refCs23PVZzqjOzE_10pkg_config, symObjAddr: 0x40E8, symBinAddr: 0x10001D804, symSize: 0x18 }
  - { offset: 0x36A16, size: 0x8, addend: 0x0, symName: __RNvXsa_NtNtCsht3nMU9UgFu_3std3ffi6os_strNtB5_8OsStringNtNtCsaNl6UpbT7bw_4core3cmp9PartialEq2eqCs23PVZzqjOzE_10pkg_config, symObjAddr: 0x4118, symBinAddr: 0x10001D834, symSize: 0x144 }
  - { offset: 0x36E10, size: 0x8, addend: 0x0, symName: __RNvXsb_NtNtCsht3nMU9UgFu_3std3ffi6os_strNtB5_8OsStringINtNtCsaNl6UpbT7bw_4core3cmp9PartialEqeE2eqCs23PVZzqjOzE_10pkg_config, symObjAddr: 0x425C, symBinAddr: 0x10001D978, symSize: 0xCC }
  - { offset: 0x37227, size: 0x8, addend: 0x0, symName: __RNvXs5_NtNtNtCsht3nMU9UgFu_3std2os2fd5ownedNtB5_7OwnedFdNtNtNtCsaNl6UpbT7bw_4core3ops4drop4Drop4dropCs23PVZzqjOzE_10pkg_config, symObjAddr: 0x3B50, symBinAddr: 0x10001D2AC, symSize: 0x40 }
  - { offset: 0x377A9, size: 0x8, addend: 0x0, symName: __RINvNtCsaNl6UpbT7bw_4core3ptr13drop_in_placeINtNtB4_6option6OptionIBH_NtNtCsiTraAjBDcu4_5alloc6string6StringEEECs23PVZzqjOzE_10pkg_config, symObjAddr: 0x9C4, symBinAddr: 0x10001A258, symSize: 0x48 }
  - { offset: 0x377D8, size: 0x8, addend: 0x0, symName: __RINvNtCsaNl6UpbT7bw_4core3ptr13drop_in_placeINtNtB4_6option6OptionINtNtCsiTraAjBDcu4_5alloc5boxed3BoxSmEEECs23PVZzqjOzE_10pkg_config, symObjAddr: 0xA0C, symBinAddr: 0x10001A2A0, symSize: 0x44 }
  - { offset: 0x37807, size: 0x8, addend: 0x0, symName: __RINvNtCsaNl6UpbT7bw_4core3ptr13drop_in_placeINtNtB4_6option6OptionINtNtNtCsiTraAjBDcu4_5alloc3vec9into_iter8IntoIterReEEECs23PVZzqjOzE_10pkg_config, symObjAddr: 0xA50, symBinAddr: 0x10001A2E4, symSize: 0x44 }
  - { offset: 0x37836, size: 0x8, addend: 0x0, symName: __RINvNtCsaNl6UpbT7bw_4core3ptr13drop_in_placeINtNtB4_6option6OptionNtNtCsiTraAjBDcu4_5alloc6string6StringEECs23PVZzqjOzE_10pkg_config, symObjAddr: 0xA94, symBinAddr: 0x10001A328, symSize: 0x48 }
  - { offset: 0x37865, size: 0x8, addend: 0x0, symName: __RINvNtCsaNl6UpbT7bw_4core3ptr13drop_in_placeINtNtB4_6option6OptionNtNtNtCsht3nMU9UgFu_3std3ffi6os_str8OsStringEECs23PVZzqjOzE_10pkg_config, symObjAddr: 0xADC, symBinAddr: 0x10001A370, symSize: 0x48 }
  - { offset: 0x37894, size: 0x8, addend: 0x0, symName: __RINvNtCsaNl6UpbT7bw_4core3ptr13drop_in_placeINtNtB4_6option6OptionNtNtNtCsiTraAjBDcu4_5alloc3ffi5c_str7CStringEECs23PVZzqjOzE_10pkg_config, symObjAddr: 0xB24, symBinAddr: 0x10001A3B8, symSize: 0x44 }
  - { offset: 0x378C3, size: 0x8, addend: 0x0, symName: __RINvNtCsaNl6UpbT7bw_4core3ptr13drop_in_placeINtNtB4_6option6OptionNtNtNtNtNtCsht3nMU9UgFu_3std3sys7process4unix6common5StdioEECs23PVZzqjOzE_10pkg_config, symObjAddr: 0xB68, symBinAddr: 0x10001A3FC, symSize: 0x44 }
  - { offset: 0x378F2, size: 0x8, addend: 0x0, symName: __RINvNtCsaNl6UpbT7bw_4core3ptr13drop_in_placeINtNtB4_6result6ResultNtNtCsht3nMU9UgFu_3std2fs8MetadataNtNtNtB16_2io5error5ErrorEECs23PVZzqjOzE_10pkg_config, symObjAddr: 0xBF4, symBinAddr: 0x10001A440, symSize: 0x40 }
  - { offset: 0x37921, size: 0x8, addend: 0x0, symName: __RINvNtCsaNl6UpbT7bw_4core3ptr13drop_in_placeINtNtB4_6result6ResultNtNtCsiTraAjBDcu4_5alloc6string6StringNtNtCsht3nMU9UgFu_3std3env8VarErrorEECs23PVZzqjOzE_10pkg_config, symObjAddr: 0xC34, symBinAddr: 0x10001A480, symSize: 0x50 }
  - { offset: 0x37950, size: 0x8, addend: 0x0, symName: __RINvNtCsaNl6UpbT7bw_4core3ptr13drop_in_placeINtNtB4_6result6ResultuNtNtNtCsht3nMU9UgFu_3std2io5error5ErrorEECs23PVZzqjOzE_10pkg_config, symObjAddr: 0xC84, symBinAddr: 0x10001A4D0, symSize: 0x44 }
  - { offset: 0x3797F, size: 0x8, addend: 0x0, symName: __RINvNtCsaNl6UpbT7bw_4core3ptr13drop_in_placeINtNtCsg4dki62PTrg_9hashbrown10scopeguard10ScopeGuardNtNtBL_3raw13RawTableInnerNCINvMsa_B1z_B1x_14prepare_resizeNtNtCsiTraAjBDcu4_5alloc5alloc6GlobalE0EECs23PVZzqjOzE_10pkg_config, symObjAddr: 0xCC8, symBinAddr: 0x10001A514, symSize: 0x24 }
  - { offset: 0x379AE, size: 0x8, addend: 0x0, symName: __RINvNtCsaNl6UpbT7bw_4core3ptr13drop_in_placeINtNtCsg4dki62PTrg_9hashbrown10scopeguard10ScopeGuardQNtNtBL_3raw13RawTableInnerNCNvMsa_B1A_B1y_15rehash_in_place0EECs23PVZzqjOzE_10pkg_config, symObjAddr: 0xCEC, symBinAddr: 0x10001A538, symSize: 0x24 }
  - { offset: 0x379DD, size: 0x8, addend: 0x0, symName: __RINvNtCsaNl6UpbT7bw_4core3ptr13drop_in_placeINtNtCsg4dki62PTrg_9hashbrown3map7HashMapNtNtCsiTraAjBDcu4_5alloc6string6StringINtNtB4_6option6OptionB1l_ENtNtNtCsht3nMU9UgFu_3std4hash6random11RandomStateEECs23PVZzqjOzE_10pkg_config, symObjAddr: 0xD10, symBinAddr: 0x10001A55C, symSize: 0x24 }
  - { offset: 0x37A0C, size: 0x8, addend: 0x0, symName: __RINvNtCsaNl6UpbT7bw_4core3ptr13drop_in_placeINtNtCsg4dki62PTrg_9hashbrown3raw8RawTableTNtNtCsiTraAjBDcu4_5alloc6string6StringINtNtB4_6option6OptionB1n_EEEECs23PVZzqjOzE_10pkg_config, symObjAddr: 0xD34, symBinAddr: 0x10001A580, symSize: 0x24 }
  - { offset: 0x37A3B, size: 0x8, addend: 0x0, symName: __RINvNtCsaNl6UpbT7bw_4core3ptr13drop_in_placeINtNtCsiTraAjBDcu4_5alloc3vec3VecIBH_NtNtBL_6string6StringEEECs23PVZzqjOzE_10pkg_config, symObjAddr: 0xD58, symBinAddr: 0x10001A5A4, symSize: 0x5C }
  - { offset: 0x37A6A, size: 0x8, addend: 0x0, symName: __RINvNtCsaNl6UpbT7bw_4core3ptr13drop_in_placeINtNtCsiTraAjBDcu4_5alloc3vec3VecINtNtBL_5boxed3BoxDINtNtNtB4_3ops8function5FnMutuEp6OutputINtNtB4_6result6ResultuNtNtNtCsht3nMU9UgFu_3std2io5error5ErrorENtNtB4_6marker4SyncNtB3c_4SendEL_EEECs23PVZzqjOzE_10pkg_config, symObjAddr: 0xDB4, symBinAddr: 0x10001A600, symSize: 0x5C }
  - { offset: 0x37A99, size: 0x8, addend: 0x0, symName: __RINvNtCsaNl6UpbT7bw_4core3ptr13drop_in_placeINtNtCsiTraAjBDcu4_5alloc3vec3VecNtNtBL_6string6StringEECs23PVZzqjOzE_10pkg_config, symObjAddr: 0xE10, symBinAddr: 0x10001A65C, symSize: 0x5C }
  - { offset: 0x37AC8, size: 0x8, addend: 0x0, symName: __RINvNtCsaNl6UpbT7bw_4core3ptr13drop_in_placeINtNtCsiTraAjBDcu4_5alloc3vec3VecNtNtCsht3nMU9UgFu_3std4path7PathBufEECs23PVZzqjOzE_10pkg_config, symObjAddr: 0xE6C, symBinAddr: 0x10001A6B8, symSize: 0x5C }
  - { offset: 0x37AF7, size: 0x8, addend: 0x0, symName: __RINvNtCsaNl6UpbT7bw_4core3ptr13drop_in_placeINtNtCsiTraAjBDcu4_5alloc3vec3VecNtNtNtCsht3nMU9UgFu_3std3ffi6os_str8OsStringEECs23PVZzqjOzE_10pkg_config, symObjAddr: 0xEC8, symBinAddr: 0x10001A714, symSize: 0x5C }
  - { offset: 0x37B26, size: 0x8, addend: 0x0, symName: __RINvNtCsaNl6UpbT7bw_4core3ptr13drop_in_placeINtNtCsiTraAjBDcu4_5alloc3vec3VecPaEECs23PVZzqjOzE_10pkg_config, symObjAddr: 0xF24, symBinAddr: 0x10001A770, symSize: 0x5C }
  - { offset: 0x37B55, size: 0x8, addend: 0x0, symName: __RINvNtCsaNl6UpbT7bw_4core3ptr13drop_in_placeINtNtCsiTraAjBDcu4_5alloc3vec3VecReEECs23PVZzqjOzE_10pkg_config, symObjAddr: 0xF80, symBinAddr: 0x10001A7CC, symSize: 0x5C }
  - { offset: 0x37B84, size: 0x8, addend: 0x0, symName: __RINvNtCsaNl6UpbT7bw_4core3ptr13drop_in_placeINtNtCsiTraAjBDcu4_5alloc3vec3VecTNtNtNtCsht3nMU9UgFu_3std3ffi6os_str8OsStringB1e_EEECs23PVZzqjOzE_10pkg_config, symObjAddr: 0xFDC, symBinAddr: 0x10001A828, symSize: 0x5C }
  - { offset: 0x37BB3, size: 0x8, addend: 0x0, symName: __RINvNtCsaNl6UpbT7bw_4core3ptr13drop_in_placeINtNtCsiTraAjBDcu4_5alloc3vec3VechEECs23PVZzqjOzE_10pkg_config, symObjAddr: 0x1038, symBinAddr: 0x10001A884, symSize: 0x5C }
  - { offset: 0x37BE2, size: 0x8, addend: 0x0, symName: __RINvNtCsaNl6UpbT7bw_4core3ptr13drop_in_placeINtNtCsiTraAjBDcu4_5alloc5boxed3BoxARej1_EECs23PVZzqjOzE_10pkg_config, symObjAddr: 0x1094, symBinAddr: 0x10001A8E0, symSize: 0x2C }
  - { offset: 0x37C11, size: 0x8, addend: 0x0, symName: __RINvNtCsaNl6UpbT7bw_4core3ptr13drop_in_placeINtNtCsiTraAjBDcu4_5alloc5boxed3BoxDINtNtNtB4_3ops8function5FnMutuEp6OutputINtNtB4_6result6ResultuNtNtNtCsht3nMU9UgFu_3std2io5error5ErrorENtNtB4_6marker4SyncNtB2W_4SendEL_EECs23PVZzqjOzE_10pkg_config, symObjAddr: 0x10C0, symBinAddr: 0x10001A90C, symSize: 0x80 }
  - { offset: 0x37C40, size: 0x8, addend: 0x0, symName: __RINvNtCsaNl6UpbT7bw_4core3ptr13drop_in_placeINtNtCsiTraAjBDcu4_5alloc5boxed3BoxDNtNtB4_5error5ErrorNtNtB4_6marker4SyncNtB1B_4SendEL_EECs23PVZzqjOzE_10pkg_config, symObjAddr: 0x1140, symBinAddr: 0x10001A98C, symSize: 0x80 }
  - { offset: 0x37C6F, size: 0x8, addend: 0x0, symName: __RINvNtCsaNl6UpbT7bw_4core3ptr13drop_in_placeINtNtCsiTraAjBDcu4_5alloc5boxed3BoxNtNtNtCsht3nMU9UgFu_3std2io5error6CustomEECs23PVZzqjOzE_10pkg_config, symObjAddr: 0x11C0, symBinAddr: 0x10001AA0C, symSize: 0x60 }
  - { offset: 0x37C9E, size: 0x8, addend: 0x0, symName: __RINvNtCsaNl6UpbT7bw_4core3ptr13drop_in_placeINtNtCsiTraAjBDcu4_5alloc5boxed3BoxShEECs23PVZzqjOzE_10pkg_config, symObjAddr: 0x1220, symBinAddr: 0x10001AA6C, symSize: 0x2C }
  - { offset: 0x37CCD, size: 0x8, addend: 0x0, symName: __RINvNtCsaNl6UpbT7bw_4core3ptr13drop_in_placeINtNtCsiTraAjBDcu4_5alloc5boxed3BoxSmEECs23PVZzqjOzE_10pkg_config, symObjAddr: 0x124C, symBinAddr: 0x10001AA98, symSize: 0x2C }
  - { offset: 0x37CFC, size: 0x8, addend: 0x0, symName: __RINvNtCsaNl6UpbT7bw_4core3ptr13drop_in_placeINtNtCsiTraAjBDcu4_5alloc6borrow3CoweEECs23PVZzqjOzE_10pkg_config, symObjAddr: 0x1278, symBinAddr: 0x10001AAC4, symSize: 0x48 }
  - { offset: 0x37D2B, size: 0x8, addend: 0x0, symName: __RINvNtCsaNl6UpbT7bw_4core3ptr13drop_in_placeINtNtCsiTraAjBDcu4_5alloc7raw_vec6RawVecINtNtBL_3vec3VecNtNtBL_6string6StringEEECs23PVZzqjOzE_10pkg_config, symObjAddr: 0x12C0, symBinAddr: 0x10001AB0C, symSize: 0x24 }
  - { offset: 0x37D5A, size: 0x8, addend: 0x0, symName: __RINvNtCsaNl6UpbT7bw_4core3ptr13drop_in_placeINtNtCsiTraAjBDcu4_5alloc7raw_vec6RawVecINtNtBL_5boxed3BoxDINtNtNtB4_3ops8function5FnMutuEp6OutputINtNtB4_6result6ResultuNtNtNtCsht3nMU9UgFu_3std2io5error5ErrorENtNtB4_6marker4SyncNtB3j_4SendEL_EEECs23PVZzqjOzE_10pkg_config, symObjAddr: 0x12E4, symBinAddr: 0x10001AB30, symSize: 0x24 }
  - { offset: 0x37D89, size: 0x8, addend: 0x0, symName: __RINvNtCsaNl6UpbT7bw_4core3ptr13drop_in_placeINtNtCsiTraAjBDcu4_5alloc7raw_vec6RawVecNtNtBL_6string6StringEECs23PVZzqjOzE_10pkg_config, symObjAddr: 0x1308, symBinAddr: 0x10001AB54, symSize: 0x24 }
  - { offset: 0x37DB8, size: 0x8, addend: 0x0, symName: __RINvNtCsaNl6UpbT7bw_4core3ptr13drop_in_placeINtNtCsiTraAjBDcu4_5alloc7raw_vec6RawVecNtNtCsht3nMU9UgFu_3std4path7PathBufEECs23PVZzqjOzE_10pkg_config, symObjAddr: 0x132C, symBinAddr: 0x10001AB78, symSize: 0x24 }
  - { offset: 0x37DE7, size: 0x8, addend: 0x0, symName: __RINvNtCsaNl6UpbT7bw_4core3ptr13drop_in_placeINtNtCsiTraAjBDcu4_5alloc7raw_vec6RawVecNtNtNtCsht3nMU9UgFu_3std3ffi6os_str8OsStringEECs23PVZzqjOzE_10pkg_config, symObjAddr: 0x1350, symBinAddr: 0x10001AB9C, symSize: 0x24 }
  - { offset: 0x37E16, size: 0x8, addend: 0x0, symName: __RINvNtCsaNl6UpbT7bw_4core3ptr13drop_in_placeINtNtCsiTraAjBDcu4_5alloc7raw_vec6RawVecPaEECs23PVZzqjOzE_10pkg_config, symObjAddr: 0x1374, symBinAddr: 0x10001ABC0, symSize: 0x24 }
  - { offset: 0x37E45, size: 0x8, addend: 0x0, symName: __RINvNtCsaNl6UpbT7bw_4core3ptr13drop_in_placeINtNtCsiTraAjBDcu4_5alloc7raw_vec6RawVecReEECs23PVZzqjOzE_10pkg_config, symObjAddr: 0x1398, symBinAddr: 0x10001ABE4, symSize: 0x24 }
  - { offset: 0x37E74, size: 0x8, addend: 0x0, symName: __RINvNtCsaNl6UpbT7bw_4core3ptr13drop_in_placeINtNtCsiTraAjBDcu4_5alloc7raw_vec6RawVecTNtNtNtCsht3nMU9UgFu_3std3ffi6os_str8OsStringB1l_EEECs23PVZzqjOzE_10pkg_config, symObjAddr: 0x13BC, symBinAddr: 0x10001AC08, symSize: 0x24 }
  - { offset: 0x37EA3, size: 0x8, addend: 0x0, symName: __RINvNtCsaNl6UpbT7bw_4core3ptr13drop_in_placeINtNtCsiTraAjBDcu4_5alloc7raw_vec6RawVechEECs23PVZzqjOzE_10pkg_config, symObjAddr: 0x13E0, symBinAddr: 0x10001AC2C, symSize: 0x24 }
  - { offset: 0x37ED2, size: 0x8, addend: 0x0, symName: __RINvNtCsaNl6UpbT7bw_4core3ptr13drop_in_placeINtNtNtB4_3ops5range5BoundNtNtCsiTraAjBDcu4_5alloc6string6StringEECs23PVZzqjOzE_10pkg_config, symObjAddr: 0x1404, symBinAddr: 0x10001AC50, symSize: 0x64 }
  - { offset: 0x37F01, size: 0x8, addend: 0x0, symName: __RINvNtCsaNl6UpbT7bw_4core3ptr13drop_in_placeINtNtNtCsht3nMU9UgFu_3std2io5error9ErrorDataINtNtCsiTraAjBDcu4_5alloc5boxed3BoxNtBJ_6CustomEEECs23PVZzqjOzE_10pkg_config, symObjAddr: 0x1468, symBinAddr: 0x10001ACB4, symSize: 0x48 }
  - { offset: 0x37F30, size: 0x8, addend: 0x0, symName: __RINvNtCsaNl6UpbT7bw_4core3ptr13drop_in_placeINtNtNtCsiTraAjBDcu4_5alloc3vec9into_iter8IntoIterReEECs23PVZzqjOzE_10pkg_config, symObjAddr: 0x14B0, symBinAddr: 0x10001ACFC, symSize: 0x24 }
  - { offset: 0x37F5F, size: 0x8, addend: 0x0, symName: __RINvNtCsaNl6UpbT7bw_4core3ptr13drop_in_placeINtNtNtNtB4_4iter8adapters3map3MapINtNtNtCsiTraAjBDcu4_5alloc3vec9into_iter8IntoIterReENvYNtNtB1l_6string6StringINtNtB4_7convert4FromB22_E4fromEECs23PVZzqjOzE_10pkg_config, symObjAddr: 0x14D4, symBinAddr: 0x10001AD20, symSize: 0x24 }
  - { offset: 0x37F8E, size: 0x8, addend: 0x0, symName: __RINvNtCsaNl6UpbT7bw_4core3ptr13drop_in_placeINtNtNtNtB4_4iter8adapters7flatten13FlattenCompatINtNtBL_3map3MapINtNtNtB4_5slice4iter4IterNtNtCsiTraAjBDcu4_5alloc6string6StringENCNvMs5_Cs23PVZzqjOzE_10pkg_configNtB2U_7Library17parse_libs_cflagss3_0EINtNtNtB2d_3vec9into_iter8IntoIterReEEEB2U_, symObjAddr: 0x14F8, symBinAddr: 0x10001AD44, symSize: 0x60 }
  - { offset: 0x37FBD, size: 0x8, addend: 0x0, symName: __RINvNtCsaNl6UpbT7bw_4core3ptr13drop_in_placeINtNtNtNtB4_4iter8adapters7flatten7FlatMapINtNtNtB4_5slice4iter4IterNtNtCsiTraAjBDcu4_5alloc6string6StringEINtNtB1Q_3vec3VecReENCNvMs5_Cs23PVZzqjOzE_10pkg_configNtB2R_7Library17parse_libs_cflagss3_0EEB2R_, symObjAddr: 0x1558, symBinAddr: 0x10001ADA4, symSize: 0x24 }
  - { offset: 0x37FEC, size: 0x8, addend: 0x0, symName: __RINvNtCsaNl6UpbT7bw_4core3ptr13drop_in_placeINtNtNtNtCsht3nMU9UgFu_3std11collections4hash3map7HashMapNtNtCsiTraAjBDcu4_5alloc6string6StringINtNtB4_6option6OptionB1B_EEECs23PVZzqjOzE_10pkg_config, symObjAddr: 0x157C, symBinAddr: 0x10001ADC8, symSize: 0x24 }
  - { offset: 0x3801B, size: 0x8, addend: 0x0, symName: __RINvNtCsaNl6UpbT7bw_4core3ptr13drop_in_placeINtNtNtNtCsiTraAjBDcu4_5alloc11collections5btree3map8BTreeMapNtNtNtCsht3nMU9UgFu_3std3ffi6os_str8OsStringINtNtB4_6option6OptionB1F_EEECs23PVZzqjOzE_10pkg_config, symObjAddr: 0x15A0, symBinAddr: 0x10001ADEC, symSize: 0x24 }
  - { offset: 0x3804A, size: 0x8, addend: 0x0, symName: __RINvNtCsaNl6UpbT7bw_4core3ptr13drop_in_placeINtNtNtNtCsiTraAjBDcu4_5alloc11collections5btree3map8IntoIterNtNtNtCsht3nMU9UgFu_3std3ffi6os_str8OsStringINtNtB4_6option6OptionB1F_EEECs23PVZzqjOzE_10pkg_config, symObjAddr: 0x15C4, symBinAddr: 0x10001AE10, symSize: 0x24 }
  - { offset: 0x38079, size: 0x8, addend: 0x0, symName: __RINvNtCsaNl6UpbT7bw_4core3ptr13drop_in_placeINtNvMsT_NtNtNtCsiTraAjBDcu4_5alloc11collections5btree4nodeINtBP_6HandleINtBP_7NodeRefNtNtBP_6marker5DyingpppENtB26_2KVE12drop_key_val7DropperINtNtB4_6option6OptionNtNtNtCsht3nMU9UgFu_3std3ffi6os_str8OsStringEEECs23PVZzqjOzE_10pkg_config, symObjAddr: 0x15E8, symBinAddr: 0x10001AE34, symSize: 0x24 }
  - { offset: 0x380A8, size: 0x8, addend: 0x0, symName: __RINvNtCsaNl6UpbT7bw_4core3ptr13drop_in_placeINtNvNtCsht3nMU9UgFu_3std2io17default_write_fmt7AdapterNtNtNtNtBN_3sys5stdio4unix6StderrEECs23PVZzqjOzE_10pkg_config, symObjAddr: 0x160C, symBinAddr: 0x10001AE58, symSize: 0x24 }
  - { offset: 0x380D7, size: 0x8, addend: 0x0, symName: __RINvNtCsaNl6UpbT7bw_4core3ptr13drop_in_placeINtNvXsd_NtNtCsiTraAjBDcu4_5alloc3vec9into_iterINtBP_8IntoIterppENtNtNtB4_3ops4drop4Drop4drop9DropGuardReNtNtBT_5alloc6GlobalEECs23PVZzqjOzE_10pkg_config, symObjAddr: 0x1630, symBinAddr: 0x10001AE7C, symSize: 0x24 }
  - { offset: 0x38106, size: 0x8, addend: 0x0, symName: __RINvNtCsaNl6UpbT7bw_4core3ptr13drop_in_placeINtNvXsw_NtNtNtCsiTraAjBDcu4_5alloc11collections5btree3mapINtBP_8IntoIterpppENtNtNtB4_3ops4drop4Drop4drop9DropGuardNtNtNtCsht3nMU9UgFu_3std3ffi6os_str8OsStringINtNtB4_6option6OptionB2x_ENtNtBV_5alloc6GlobalEECs23PVZzqjOzE_10pkg_config, symObjAddr: 0x1654, symBinAddr: 0x10001AEA0, symSize: 0x24 }
  - { offset: 0x38135, size: 0x8, addend: 0x0, symName: __RINvNtCsaNl6UpbT7bw_4core3ptr13drop_in_placeNCINvMsi_NtCsiTraAjBDcu4_5alloc3vecINtBP_3VecNtNtBR_6string6StringE14extend_trustedINtNtNtNtB4_4iter8adapters3map3MapINtNtBP_9into_iter8IntoIterReENvYB1p_INtNtB4_7convert4FromB30_E4fromEE0ECs23PVZzqjOzE_10pkg_config, symObjAddr: 0x1678, symBinAddr: 0x10001AEC4, symSize: 0x24 }
  - { offset: 0x38164, size: 0x8, addend: 0x0, symName: __RINvNtCsaNl6UpbT7bw_4core3ptr13drop_in_placeNCINvMsi_NtCsiTraAjBDcu4_5alloc3vecINtBP_3VecNtNtBR_6string6StringE14extend_trustedINtNtNtNtB4_4iter8adapters3map3MapINtNtNtB4_5slice4iter4IterNtNtNtCsht3nMU9UgFu_3std3ffi6os_str8OsStringENCNvXs_Cs23PVZzqjOzE_10pkg_configNtB3P_14WrappedCommandNtNtB4_3fmt7Display3fmts_0EE0EB3P_, symObjAddr: 0x169C, symBinAddr: 0x10001AEE8, symSize: 0x24 }
  - { offset: 0x38193, size: 0x8, addend: 0x0, symName: __RINvNtCsaNl6UpbT7bw_4core3ptr13drop_in_placeNCINvMsi_NtCsiTraAjBDcu4_5alloc3vecINtBP_3VecNtNtBR_6string6StringE14extend_trustedINtNtNtNtB4_4iter8adapters3map3MapINtNtNtB4_5slice4iter4IterTNtNtNtCsht3nMU9UgFu_3std3ffi6os_str8OsStringB30_EENCNvXs_Cs23PVZzqjOzE_10pkg_configNtB3V_14WrappedCommandNtNtB4_3fmt7Display3fmt0EE0EB3V_, symObjAddr: 0x16C0, symBinAddr: 0x10001AF0C, symSize: 0x24 }
  - { offset: 0x381C2, size: 0x8, addend: 0x0, symName: __RINvNtCsaNl6UpbT7bw_4core3ptr13drop_in_placeNCINvMsi_NtCsiTraAjBDcu4_5alloc3vecINtBP_3VecNtNtNtCsht3nMU9UgFu_3std3ffi6os_str8OsStringE14extend_trustedINtNtNtNtB4_4iter8adapters3map3MapINtNtNtB4_5slice4iter4IterB1p_ENCINvMCs23PVZzqjOzE_10pkg_configNtB3x_14WrappedCommand4argsRB1f_RB1p_E0EE0EB3x_, symObjAddr: 0x16E4, symBinAddr: 0x10001AF30, symSize: 0x24 }
  - { offset: 0x381F1, size: 0x8, addend: 0x0, symName: __RINvNtCsaNl6UpbT7bw_4core3ptr13drop_in_placeNCINvMsi_NtCsiTraAjBDcu4_5alloc3vecINtBP_3VecNtNtNtCsht3nMU9UgFu_3std3ffi6os_str8OsStringE14extend_trustedINtNtNtNtB4_4iter8adapters3map3MapINtNtNtB4_5slice4iter4IterReENCINvMCs23PVZzqjOzE_10pkg_configNtB3v_14WrappedCommand4argsRSB3m_RB3m_E0EE0EB3v_, symObjAddr: 0x1708, symBinAddr: 0x10001AF54, symSize: 0x24 }
  - { offset: 0x38220, size: 0x8, addend: 0x0, symName: __RINvNtCsaNl6UpbT7bw_4core3ptr13drop_in_placeNCINvMsi_NtCsiTraAjBDcu4_5alloc3vecINtBP_3VechE14extend_trustedINtNtNtNtB4_4iter8adapters3map3MapINtNtNtB4_5slice4iter4IterhENCNvNtBR_3str13replace_ascii0EE0ECs23PVZzqjOzE_10pkg_config, symObjAddr: 0x172C, symBinAddr: 0x10001AF78, symSize: 0x24 }
  - { offset: 0x3824F, size: 0x8, addend: 0x0, symName: __RINvNtCsaNl6UpbT7bw_4core3ptr13drop_in_placeNCINvNtNtNtB4_4iter8adapters3map8map_foldRNtNtNtCsht3nMU9UgFu_3std3ffi6os_str8OsStringB1m_uNCINvMCs23PVZzqjOzE_10pkg_configNtB2f_14WrappedCommand4argsRINtNtCsiTraAjBDcu4_5alloc3vec3VecB1m_EB1l_E0NCINvNvNtNtNtBP_6traits8iterator8Iterator8for_each4callB1m_NCINvMsi_B3a_B37_14extend_trustedINtBL_3MapINtNtNtB4_5slice4iter4IterB1m_EB29_EE0E0E0EB2f_, symObjAddr: 0x1750, symBinAddr: 0x10001AF9C, symSize: 0x24 }
  - { offset: 0x3827E, size: 0x8, addend: 0x0, symName: __RINvNtCsaNl6UpbT7bw_4core3ptr13drop_in_placeNCINvNtNtNtB4_4iter8adapters3map8map_foldRNtNtNtCsht3nMU9UgFu_3std3ffi6os_str8OsStringNtNtCsiTraAjBDcu4_5alloc6string6StringuNCNvXs_Cs23PVZzqjOzE_10pkg_configNtB2O_14WrappedCommandNtNtB4_3fmt7Display3fmts_0NCINvNvNtNtNtBP_6traits8iterator8Iterator8for_each4callB24_NCINvMsi_NtB28_3vecINtB56_3VecB24_E14extend_trustedINtBL_3MapINtNtNtB4_5slice4iter4IterB1m_EB2H_EE0E0E0EB2O_, symObjAddr: 0x1774, symBinAddr: 0x10001AFC0, symSize: 0x24 }
  - { offset: 0x382AD, size: 0x8, addend: 0x0, symName: __RINvNtCsaNl6UpbT7bw_4core3ptr13drop_in_placeNCINvNtNtNtB4_4iter8adapters3map8map_foldRReNtNtNtCsht3nMU9UgFu_3std3ffi6os_str8OsStringuNCINvMCs23PVZzqjOzE_10pkg_configNtB2d_14WrappedCommand4argsRSB1m_B1l_E0NCINvNvNtNtNtBP_6traits8iterator8Iterator8for_each4callB1o_NCINvMsi_NtCsiTraAjBDcu4_5alloc3vecINtB4m_3VecB1o_E14extend_trustedINtBL_3MapINtNtNtB4_5slice4iter4IterB1m_EB27_EE0E0E0EB2d_, symObjAddr: 0x1798, symBinAddr: 0x10001AFE4, symSize: 0x24 }
  - { offset: 0x382DC, size: 0x8, addend: 0x0, symName: __RINvNtCsaNl6UpbT7bw_4core3ptr13drop_in_placeNCINvNtNtNtB4_4iter8adapters3map8map_foldRTNtNtNtCsht3nMU9UgFu_3std3ffi6os_str8OsStringB1n_ENtNtCsiTraAjBDcu4_5alloc6string6StringuNCNvXs_Cs23PVZzqjOzE_10pkg_configNtB2U_14WrappedCommandNtNtB4_3fmt7Display3fmt0NCINvNvNtNtNtBP_6traits8iterator8Iterator8for_each4callB2a_NCINvMsi_NtB2e_3vecINtB5a_3VecB2a_E14extend_trustedINtBL_3MapINtNtNtB4_5slice4iter4IterB1m_EB2N_EE0E0E0EB2U_, symObjAddr: 0x17BC, symBinAddr: 0x10001B008, symSize: 0x24 }
  - { offset: 0x3830B, size: 0x8, addend: 0x0, symName: __RINvNtCsaNl6UpbT7bw_4core3ptr13drop_in_placeNCINvNtNtNtB4_4iter8adapters3map8map_foldReNtNtCsiTraAjBDcu4_5alloc6string6StringuNvYB1n_INtNtB4_7convert4FromB1l_E4fromNCINvNvNtNtNtBP_6traits8iterator8Iterator8for_each4callB1n_NCINvMsi_NtB1r_3vecINtB3I_3VecB1n_E14extend_trustedINtBL_3MapINtNtB3I_9into_iter8IntoIterB1l_EB20_EE0E0E0ECs23PVZzqjOzE_10pkg_config, symObjAddr: 0x17E0, symBinAddr: 0x10001B02C, symSize: 0x24 }
  - { offset: 0x3833A, size: 0x8, addend: 0x0, symName: __RINvNtCsaNl6UpbT7bw_4core3ptr13drop_in_placeNCINvNtNtNtB4_4iter8adapters3map8map_foldRhhuNCNvNtCsiTraAjBDcu4_5alloc3str13replace_ascii0NCINvNvNtNtNtBP_6traits8iterator8Iterator8for_each4callhNCINvMsi_NtB1v_3vecINtB3c_3VechE14extend_trustedINtBL_3MapINtNtNtB4_5slice4iter4IterhEB1p_EE0E0E0ECs23PVZzqjOzE_10pkg_config, symObjAddr: 0x1804, symBinAddr: 0x10001B050, symSize: 0x24 }
  - { offset: 0x38369, size: 0x8, addend: 0x0, symName: __RINvNtCsaNl6UpbT7bw_4core3ptr13drop_in_placeNCINvNvNtNtNtNtB4_4iter6traits8iterator8Iterator8for_each4callNtNtCsiTraAjBDcu4_5alloc6string6StringNCINvMsi_NtB1K_3vecINtB2r_3VecB1G_E14extend_trustedINtNtNtBT_8adapters3map3MapINtNtB2r_9into_iter8IntoIterReENvYB1G_INtNtB4_7convert4FromB40_E4fromEE0E0ECs23PVZzqjOzE_10pkg_config, symObjAddr: 0x1828, symBinAddr: 0x10001B074, symSize: 0x24 }
  - { offset: 0x38398, size: 0x8, addend: 0x0, symName: __RINvNtCsaNl6UpbT7bw_4core3ptr13drop_in_placeNCINvNvNtNtNtNtB4_4iter6traits8iterator8Iterator8for_each4callNtNtCsiTraAjBDcu4_5alloc6string6StringNCINvMsi_NtB1K_3vecINtB2r_3VecB1G_E14extend_trustedINtNtNtBT_8adapters3map3MapINtNtNtB4_5slice4iter4IterNtNtNtCsht3nMU9UgFu_3std3ffi6os_str8OsStringENCNvXs_Cs23PVZzqjOzE_10pkg_configNtB4O_14WrappedCommandNtNtB4_3fmt7Display3fmts_0EE0E0EB4O_, symObjAddr: 0x184C, symBinAddr: 0x10001B098, symSize: 0x24 }
  - { offset: 0x383C7, size: 0x8, addend: 0x0, symName: __RINvNtCsaNl6UpbT7bw_4core3ptr13drop_in_placeNCINvNvNtNtNtNtB4_4iter6traits8iterator8Iterator8for_each4callNtNtCsiTraAjBDcu4_5alloc6string6StringNCINvMsi_NtB1K_3vecINtB2r_3VecB1G_E14extend_trustedINtNtNtBT_8adapters3map3MapINtNtNtB4_5slice4iter4IterTNtNtNtCsht3nMU9UgFu_3std3ffi6os_str8OsStringB3Z_EENCNvXs_Cs23PVZzqjOzE_10pkg_configNtB4U_14WrappedCommandNtNtB4_3fmt7Display3fmt0EE0E0EB4U_, symObjAddr: 0x1870, symBinAddr: 0x10001B0BC, symSize: 0x24 }
  - { offset: 0x383F6, size: 0x8, addend: 0x0, symName: __RINvNtCsaNl6UpbT7bw_4core3ptr13drop_in_placeNCINvNvNtNtNtNtB4_4iter6traits8iterator8Iterator8for_each4callNtNtNtCsht3nMU9UgFu_3std3ffi6os_str8OsStringNCINvMsi_NtCsiTraAjBDcu4_5alloc3vecINtB2x_3VecB1G_E14extend_trustedINtNtNtBT_8adapters3map3MapINtNtNtB4_5slice4iter4IterB1G_ENCINvMCs23PVZzqjOzE_10pkg_configNtB4v_14WrappedCommand4argsRB2X_RB1G_E0EE0E0EB4v_, symObjAddr: 0x1894, symBinAddr: 0x10001B0E0, symSize: 0x24 }
  - { offset: 0x38425, size: 0x8, addend: 0x0, symName: __RINvNtCsaNl6UpbT7bw_4core3ptr13drop_in_placeNCINvNvNtNtNtNtB4_4iter6traits8iterator8Iterator8for_each4callNtNtNtCsht3nMU9UgFu_3std3ffi6os_str8OsStringNCINvMsi_NtCsiTraAjBDcu4_5alloc3vecINtB2x_3VecB1G_E14extend_trustedINtNtNtBT_8adapters3map3MapINtNtNtB4_5slice4iter4IterReENCINvMCs23PVZzqjOzE_10pkg_configNtB4t_14WrappedCommand4argsRSB4k_RB4k_E0EE0E0EB4t_, symObjAddr: 0x18B8, symBinAddr: 0x10001B104, symSize: 0x24 }
  - { offset: 0x38454, size: 0x8, addend: 0x0, symName: __RINvNtCsaNl6UpbT7bw_4core3ptr13drop_in_placeNCINvNvNtNtNtNtB4_4iter6traits8iterator8Iterator8for_each4callhNCINvMsi_NtCsiTraAjBDcu4_5alloc3vecINtB1Q_3VechE14extend_trustedINtNtNtBT_8adapters3map3MapINtNtNtB4_5slice4iter4IterhENCNvNtB1S_3str13replace_ascii0EE0E0ECs23PVZzqjOzE_10pkg_config, symObjAddr: 0x18DC, symBinAddr: 0x10001B128, symSize: 0x24 }
  - { offset: 0x38483, size: 0x8, addend: 0x0, symName: __RINvNtCsaNl6UpbT7bw_4core3ptr13drop_in_placeNCNvMs3_Cs23PVZzqjOzE_10pkg_configNtBO_6Config3runs_0EBO_, symObjAddr: 0x1900, symBinAddr: 0x10001B14C, symSize: 0x24 }
  - { offset: 0x384B2, size: 0x8, addend: 0x0, symName: __RINvNtCsaNl6UpbT7bw_4core3ptr13drop_in_placeNtCs23PVZzqjOzE_10pkg_config14WrappedCommandEBI_, symObjAddr: 0x1924, symBinAddr: 0x10001B170, symSize: 0xC0 }
  - { offset: 0x384E1, size: 0x8, addend: 0x0, symName: __RINvNtCsaNl6UpbT7bw_4core3ptr13drop_in_placeNtCs23PVZzqjOzE_10pkg_config5ErrorEBI_, symObjAddr: 0x19E4, symBinAddr: 0x10001B230, symSize: 0x180 }
  - { offset: 0x38510, size: 0x8, addend: 0x0, symName: __RINvNtCsaNl6UpbT7bw_4core3ptr13drop_in_placeNtCs23PVZzqjOzE_10pkg_config6ConfigEBI_, symObjAddr: 0x1B64, symBinAddr: 0x10001B3B0, symSize: 0x90 }
  - { offset: 0x3853F, size: 0x8, addend: 0x0, symName: __RINvNtCsaNl6UpbT7bw_4core3ptr13drop_in_placeNtCs23PVZzqjOzE_10pkg_config7LibraryEBI_, symObjAddr: 0x1BF4, symBinAddr: 0x10001B440, symSize: 0x1B0 }
  - { offset: 0x3856E, size: 0x8, addend: 0x0, symName: __RINvNtCsaNl6UpbT7bw_4core3ptr13drop_in_placeNtNtCsht3nMU9UgFu_3std3env8VarErrorECs23PVZzqjOzE_10pkg_config, symObjAddr: 0x1DA4, symBinAddr: 0x10001B5F0, symSize: 0x48 }
  - { offset: 0x3859D, size: 0x8, addend: 0x0, symName: __RINvNtCsaNl6UpbT7bw_4core3ptr13drop_in_placeNtNtCsht3nMU9UgFu_3std4path7PathBufECs23PVZzqjOzE_10pkg_config, symObjAddr: 0x1DEC, symBinAddr: 0x10001B638, symSize: 0x24 }
  - { offset: 0x385CC, size: 0x8, addend: 0x0, symName: __RINvNtCsaNl6UpbT7bw_4core3ptr13drop_in_placeNtNtCsht3nMU9UgFu_3std7process6OutputECs23PVZzqjOzE_10pkg_config, symObjAddr: 0x1E10, symBinAddr: 0x10001B65C, symSize: 0x60 }
  - { offset: 0x385FB, size: 0x8, addend: 0x0, symName: __RINvNtCsaNl6UpbT7bw_4core3ptr13drop_in_placeNtNtCsht3nMU9UgFu_3std7process7CommandECs23PVZzqjOzE_10pkg_config, symObjAddr: 0x1E70, symBinAddr: 0x10001B6BC, symSize: 0x24 }
  - { offset: 0x3862A, size: 0x8, addend: 0x0, symName: __RINvNtCsaNl6UpbT7bw_4core3ptr13drop_in_placeNtNtCsiTraAjBDcu4_5alloc6string13FromUtf8ErrorECs23PVZzqjOzE_10pkg_config, symObjAddr: 0x1E94, symBinAddr: 0x10001B6E0, symSize: 0x24 }
  - { offset: 0x38659, size: 0x8, addend: 0x0, symName: __RINvNtCsaNl6UpbT7bw_4core3ptr13drop_in_placeNtNtCsiTraAjBDcu4_5alloc6string6StringECs23PVZzqjOzE_10pkg_config, symObjAddr: 0x1EB8, symBinAddr: 0x10001B704, symSize: 0x24 }
  - { offset: 0x38688, size: 0x8, addend: 0x0, symName: __RINvNtCsaNl6UpbT7bw_4core3ptr13drop_in_placeNtNtNtCsht3nMU9UgFu_3std2io5error5ErrorECs23PVZzqjOzE_10pkg_config, symObjAddr: 0x1EDC, symBinAddr: 0x10001B728, symSize: 0x24 }
  - { offset: 0x386B7, size: 0x8, addend: 0x0, symName: __RINvNtCsaNl6UpbT7bw_4core3ptr13drop_in_placeNtNtNtCsht3nMU9UgFu_3std2io5error6CustomECs23PVZzqjOzE_10pkg_config, symObjAddr: 0x1F00, symBinAddr: 0x10001B74C, symSize: 0x24 }
  - { offset: 0x386E6, size: 0x8, addend: 0x0, symName: __RINvNtCsaNl6UpbT7bw_4core3ptr13drop_in_placeNtNtNtCsht3nMU9UgFu_3std3ffi6os_str8OsStringECs23PVZzqjOzE_10pkg_config, symObjAddr: 0x1F24, symBinAddr: 0x10001B770, symSize: 0x24 }
  - { offset: 0x38715, size: 0x8, addend: 0x0, symName: __RINvNtCsaNl6UpbT7bw_4core3ptr13drop_in_placeNtNtNtCsiTraAjBDcu4_5alloc3ffi5c_str7CStringECs23PVZzqjOzE_10pkg_config, symObjAddr: 0x1F48, symBinAddr: 0x10001B794, symSize: 0x5C }
  - { offset: 0x38744, size: 0x8, addend: 0x0, symName: __RINvNtCsaNl6UpbT7bw_4core3ptr13drop_in_placeNtNtNtCsiTraAjBDcu4_5alloc3vec15set_len_on_drop12SetLenOnDropECs23PVZzqjOzE_10pkg_config, symObjAddr: 0x1FA4, symBinAddr: 0x10001B7F0, symSize: 0x24 }
  - { offset: 0x38773, size: 0x8, addend: 0x0, symName: __RINvNtCsaNl6UpbT7bw_4core3ptr13drop_in_placeNtNtNtNtCsht3nMU9UgFu_3std2io5error14repr_bitpacked4ReprECs23PVZzqjOzE_10pkg_config, symObjAddr: 0x1FC8, symBinAddr: 0x10001B814, symSize: 0x24 }
  - { offset: 0x387A2, size: 0x8, addend: 0x0, symName: __RINvNtCsaNl6UpbT7bw_4core3ptr13drop_in_placeNtNtNtNtCsht3nMU9UgFu_3std2os2fd5owned7OwnedFdECs23PVZzqjOzE_10pkg_config, symObjAddr: 0x1FEC, symBinAddr: 0x10001B838, symSize: 0x24 }
  - { offset: 0x387D1, size: 0x8, addend: 0x0, symName: __RINvNtCsaNl6UpbT7bw_4core3ptr13drop_in_placeNtNtNtNtCsht3nMU9UgFu_3std3sys2fd4unix8FileDescECs23PVZzqjOzE_10pkg_config, symObjAddr: 0x2010, symBinAddr: 0x10001B85C, symSize: 0x24 }
  - { offset: 0x38800, size: 0x8, addend: 0x0, symName: __RINvNtCsaNl6UpbT7bw_4core3ptr13drop_in_placeNtNtNtNtCsht3nMU9UgFu_3std3sys6os_str5bytes3BufECs23PVZzqjOzE_10pkg_config, symObjAddr: 0x2034, symBinAddr: 0x10001B880, symSize: 0x24 }
  - { offset: 0x3882F, size: 0x8, addend: 0x0, symName: __RINvNtCsaNl6UpbT7bw_4core3ptr13drop_in_placeNtNtNtNtCsht3nMU9UgFu_3std3sys7process3env10CommandEnvECs23PVZzqjOzE_10pkg_config, symObjAddr: 0x2058, symBinAddr: 0x10001B8A4, symSize: 0x24 }
  - { offset: 0x3885E, size: 0x8, addend: 0x0, symName: __RINvNtCsaNl6UpbT7bw_4core3ptr13drop_in_placeNtNtNtNtNtCsht3nMU9UgFu_3std3sys7process4unix6common5StdioECs23PVZzqjOzE_10pkg_config, symObjAddr: 0x207C, symBinAddr: 0x10001B8C8, symSize: 0x44 }
  - { offset: 0x3888D, size: 0x8, addend: 0x0, symName: __RINvNtCsaNl6UpbT7bw_4core3ptr13drop_in_placeNtNtNtNtNtCsht3nMU9UgFu_3std3sys7process4unix6common7CommandECs23PVZzqjOzE_10pkg_config, symObjAddr: 0x20C0, symBinAddr: 0x10001B90C, symSize: 0x1DC }
  - { offset: 0x388BC, size: 0x8, addend: 0x0, symName: __RINvNtCsaNl6UpbT7bw_4core3ptr13drop_in_placeNtNtNtNtNtNtCsht3nMU9UgFu_3std3sys7process4unix6common13cstring_array12CStringArrayECs23PVZzqjOzE_10pkg_config, symObjAddr: 0x229C, symBinAddr: 0x10001BAE8, symSize: 0x5C }
  - { offset: 0x388EB, size: 0x8, addend: 0x0, symName: __RINvNtCsaNl6UpbT7bw_4core3ptr13drop_in_placeNtNvNtNtNtCsiTraAjBDcu4_5alloc11collections5btree3mem7replace10PanicGuardECs23PVZzqjOzE_10pkg_config, symObjAddr: 0x22F8, symBinAddr: 0x10001BB44, symSize: 0x24 }
  - { offset: 0x3891A, size: 0x8, addend: 0x0, symName: __RINvNtCsaNl6UpbT7bw_4core3ptr13drop_in_placeSINtNtCsiTraAjBDcu4_5alloc3vec3VecNtNtBM_6string6StringEECs23PVZzqjOzE_10pkg_config, symObjAddr: 0x231C, symBinAddr: 0x10001BB68, symSize: 0xC4 }
  - { offset: 0x38949, size: 0x8, addend: 0x0, symName: __RINvNtCsaNl6UpbT7bw_4core3ptr13drop_in_placeSINtNtCsiTraAjBDcu4_5alloc5boxed3BoxDINtNtNtB4_3ops8function5FnMutuEp6OutputINtNtB4_6result6ResultuNtNtNtCsht3nMU9UgFu_3std2io5error5ErrorENtNtB4_6marker4SyncNtB2X_4SendEL_EECs23PVZzqjOzE_10pkg_config, symObjAddr: 0x23E0, symBinAddr: 0x10001BC2C, symSize: 0xB4 }
  - { offset: 0x38978, size: 0x8, addend: 0x0, symName: __RINvNtCsaNl6UpbT7bw_4core3ptr13drop_in_placeSNtNtCsht3nMU9UgFu_3std4path7PathBufECs23PVZzqjOzE_10pkg_config, symObjAddr: 0x2494, symBinAddr: 0x10001BCE0, symSize: 0xC4 }
  - { offset: 0x389A7, size: 0x8, addend: 0x0, symName: __RINvNtCsaNl6UpbT7bw_4core3ptr13drop_in_placeSNtNtCsiTraAjBDcu4_5alloc6string6StringECs23PVZzqjOzE_10pkg_config, symObjAddr: 0x2558, symBinAddr: 0x10001BDA4, symSize: 0xC4 }
  - { offset: 0x389D6, size: 0x8, addend: 0x0, symName: __RINvNtCsaNl6UpbT7bw_4core3ptr13drop_in_placeSNtNtNtCsht3nMU9UgFu_3std3ffi6os_str8OsStringECs23PVZzqjOzE_10pkg_config, symObjAddr: 0x261C, symBinAddr: 0x10001BE68, symSize: 0xC4 }
  - { offset: 0x38A05, size: 0x8, addend: 0x0, symName: __RINvNtCsaNl6UpbT7bw_4core3ptr13drop_in_placeSTNtNtNtCsht3nMU9UgFu_3std3ffi6os_str8OsStringBI_EECs23PVZzqjOzE_10pkg_config, symObjAddr: 0x26E0, symBinAddr: 0x10001BF2C, symSize: 0xC4 }
  - { offset: 0x38A34, size: 0x8, addend: 0x0, symName: __RINvNtCsaNl6UpbT7bw_4core3ptr13drop_in_placeTNtNtCsiTraAjBDcu4_5alloc6string6StringINtNtB4_6option6OptionBH_EEECs23PVZzqjOzE_10pkg_config, symObjAddr: 0x27A4, symBinAddr: 0x10001BFF0, symSize: 0x60 }
  - { offset: 0x38A63, size: 0x8, addend: 0x0, symName: __RINvNtCsaNl6UpbT7bw_4core3ptr13drop_in_placeTNtNtNtCsht3nMU9UgFu_3std3ffi6os_str8OsStringBH_EECs23PVZzqjOzE_10pkg_config, symObjAddr: 0x2804, symBinAddr: 0x10001C050, symSize: 0x60 }
  - { offset: 0x38B29, size: 0x8, addend: 0x0, symName: __RINvMNtCsaNl6UpbT7bw_4core3stre11starts_withReECs23PVZzqjOzE_10pkg_config, symObjAddr: 0x0, symBinAddr: 0x100019A54, symSize: 0x4C }
  - { offset: 0x38B6F, size: 0x8, addend: 0x0, symName: __RINvMNtCsaNl6UpbT7bw_4core3stre11starts_withcECs23PVZzqjOzE_10pkg_config, symObjAddr: 0x4C, symBinAddr: 0x100019AA0, symSize: 0x44 }
  - { offset: 0x38BE9, size: 0x8, addend: 0x0, symName: __RINvMNtCsaNl6UpbT7bw_4core3stre12trim_matchesNvMNtNtB5_4char7methodsc13is_whitespaceECs23PVZzqjOzE_10pkg_config, symObjAddr: 0x90, symBinAddr: 0x100019AE4, symSize: 0x130 }
  - { offset: 0x38D86, size: 0x8, addend: 0x0, symName: __RINvMNtCsaNl6UpbT7bw_4core3stre5splitcECs23PVZzqjOzE_10pkg_config, symObjAddr: 0x29C, symBinAddr: 0x100019C14, symSize: 0x98 }
  - { offset: 0x38DCC, size: 0x8, addend: 0x0, symName: __RINvMNtCsaNl6UpbT7bw_4core3stre8containsReECs23PVZzqjOzE_10pkg_config, symObjAddr: 0x334, symBinAddr: 0x100019CAC, symSize: 0x4C }
  - { offset: 0x38E12, size: 0x8, addend: 0x0, symName: __RINvMNtCsaNl6UpbT7bw_4core3stre8containscECs23PVZzqjOzE_10pkg_config, symObjAddr: 0x380, symBinAddr: 0x100019CF8, symSize: 0x44 }
  - { offset: 0x38E58, size: 0x8, addend: 0x0, symName: __RINvMNtCsaNl6UpbT7bw_4core3stre9ends_withRReECs23PVZzqjOzE_10pkg_config, symObjAddr: 0x3C4, symBinAddr: 0x100019D3C, symSize: 0x48 }
  - { offset: 0x38E9E, size: 0x8, addend: 0x0, symName: __RNvMNtCsaNl6UpbT7bw_4core3stre3lenCs23PVZzqjOzE_10pkg_config, symObjAddr: 0x29C8, symBinAddr: 0x10001C1F0, symSize: 0x1C }
  - { offset: 0x38ECA, size: 0x8, addend: 0x0, symName: __RNvMNtCsaNl6UpbT7bw_4core3stre4trimCs23PVZzqjOzE_10pkg_config, symObjAddr: 0x29E4, symBinAddr: 0x10001C20C, symSize: 0x28 }
  - { offset: 0x38EF8, size: 0x8, addend: 0x0, symName: __RNvMNtCsaNl6UpbT7bw_4core3stre5charsCs23PVZzqjOzE_10pkg_config, symObjAddr: 0x2A0C, symBinAddr: 0x10001C234, symSize: 0x20 }
  - { offset: 0x38F9A, size: 0x8, addend: 0x0, symName: __RNvMNtCsaNl6UpbT7bw_4core3stre5linesCs23PVZzqjOzE_10pkg_config, symObjAddr: 0x2A2C, symBinAddr: 0x10001C254, symSize: 0xC4 }
  - { offset: 0x391A9, size: 0x8, addend: 0x0, symName: __RNvXs5_NtNtCsaNl6UpbT7bw_4core3str6traitsINtNtNtB9_3ops5range5RangejEINtNtNtB9_5slice5index10SliceIndexeE3getCs23PVZzqjOzE_10pkg_config, symObjAddr: 0x37FC, symBinAddr: 0x10001CF58, symSize: 0x208 }
  - { offset: 0x392E8, size: 0x8, addend: 0x0, symName: __RNvXs5_NtNtCsaNl6UpbT7bw_4core3str6traitsINtNtNtB9_3ops5range5RangejEINtNtNtB9_5slice5index10SliceIndexeE5indexCs23PVZzqjOzE_10pkg_config, symObjAddr: 0x3A04, symBinAddr: 0x10001D160, symSize: 0x90 }
  - { offset: 0x393D5, size: 0x8, addend: 0x0, symName: __RNvXs4_NtNtCsaNl6UpbT7bw_4core3str6traitsNtNtNtB9_3ops5range9RangeFullINtNtNtB9_5slice5index10SliceIndexeE5indexCs23PVZzqjOzE_10pkg_config, symObjAddr: 0x37E4, symBinAddr: 0x10001CF40, symSize: 0x18 }
  - { offset: 0x3943C, size: 0x8, addend: 0x0, symName: __RNvXs8_NtNtCsaNl6UpbT7bw_4core3str6traitsINtNtNtB9_3ops5range7RangeTojEINtNtNtB9_5slice5index10SliceIndexeE3getCs23PVZzqjOzE_10pkg_config, symObjAddr: 0x3C0C, symBinAddr: 0x10001D368, symSize: 0x140 }
  - { offset: 0x39555, size: 0x8, addend: 0x0, symName: __RNvXs8_NtNtCsaNl6UpbT7bw_4core3str6traitsINtNtNtB9_3ops5range7RangeTojEINtNtNtB9_5slice5index10SliceIndexeE5indexCs23PVZzqjOzE_10pkg_config, symObjAddr: 0x3D4C, symBinAddr: 0x10001D4A8, symSize: 0x84 }
  - { offset: 0x395E8, size: 0x8, addend: 0x0, symName: __RNvXs9_NtNtCsaNl6UpbT7bw_4core3str6traitsINtNtNtB9_3ops5range9RangeFromjEINtNtNtB9_5slice5index10SliceIndexeE3getCs23PVZzqjOzE_10pkg_config, symObjAddr: 0x3DD0, symBinAddr: 0x10001D52C, symSize: 0x150 }
  - { offset: 0x39757, size: 0x8, addend: 0x0, symName: __RNvXs9_NtNtCsaNl6UpbT7bw_4core3str6traitsINtNtNtB9_3ops5range9RangeFromjEINtNtNtB9_5slice5index10SliceIndexeE5indexCs23PVZzqjOzE_10pkg_config, symObjAddr: 0x3F20, symBinAddr: 0x10001D67C, symSize: 0x88 }
  - { offset: 0x3999E, size: 0x8, addend: 0x0, symName: __RNvXs3_NtCsaNl6UpbT7bw_4core3strNtB5_8LinesMapINtNtNtB7_3ops8function2FnTReEE4callCs23PVZzqjOzE_10pkg_config, symObjAddr: 0x35B4, symBinAddr: 0x10001CD10, symSize: 0x174 }
  - { offset: 0x39AC9, size: 0x8, addend: 0x0, symName: __RNvXs4_NtCsaNl6UpbT7bw_4core3strNtB5_8LinesMapINtNtNtB7_3ops8function5FnMutTReEE8call_mutCs23PVZzqjOzE_10pkg_config, symObjAddr: 0x37A8, symBinAddr: 0x10001CF04, symSize: 0x3C }
  - { offset: 0x39B22, size: 0x8, addend: 0x0, symName: __RNvXs_NtCsaNl6UpbT7bw_4core3streINtNtB6_7convert5AsRefShE6as_refCs23PVZzqjOzE_10pkg_config, symObjAddr: 0x4100, symBinAddr: 0x10001D81C, symSize: 0x18 }
  - { offset: 0x39D8E, size: 0x8, addend: 0x0, symName: __RNSNvYNCINvMs6_NtCsg4dki62PTrg_9hashbrown3rawINtBd_8RawTableTNtNtCsiTraAjBDcu4_5alloc6string6StringINtNtCsaNl6UpbT7bw_4core6option6OptionBX_EEE14reserve_rehashNCINvNtBf_3map11make_hasherBX_B1z_NtNtNtCsht3nMU9UgFu_3std4hash6random11RandomStateE0E0INtNtNtB1E_3ops8function6FnOnceTQNtBd_13RawTableInnerjEE9call_once6vtableCs23PVZzqjOzE_10pkg_config, symObjAddr: 0x2958, symBinAddr: 0x10001C180, symSize: 0x38 }
  - { offset: 0x39DD2, size: 0x8, addend: 0x0, symName: __RNSNvYNCINvMs6_NtCsg4dki62PTrg_9hashbrown3rawINtBd_8RawTableTNtNtCsiTraAjBDcu4_5alloc6string6StringINtNtCsaNl6UpbT7bw_4core6option6OptionBX_EEE24find_or_find_insert_slotNCINvNtBf_3map14equivalent_keyBX_BX_B1z_E0NCINvB2M_11make_hasherBX_B1z_NtNtNtCsht3nMU9UgFu_3std4hash6random11RandomStateE0E0INtNtNtB1E_3ops8function6FnOnceTjEE9call_once6vtableCs23PVZzqjOzE_10pkg_config, symObjAddr: 0x2990, symBinAddr: 0x10001C1B8, symSize: 0x38 }
  - { offset: 0x39E16, size: 0x8, addend: 0x0, symName: __RNvYNCINvMs6_NtCsg4dki62PTrg_9hashbrown3rawINtBb_8RawTableTNtNtCsiTraAjBDcu4_5alloc6string6StringINtNtCsaNl6UpbT7bw_4core6option6OptionBV_EEE14reserve_rehashNCINvNtBd_3map11make_hasherBV_B1x_NtNtNtCsht3nMU9UgFu_3std4hash6random11RandomStateE0E0INtNtNtB1C_3ops8function6FnOnceTQNtBb_13RawTableInnerjEE9call_onceCs23PVZzqjOzE_10pkg_config, symObjAddr: 0x4590, symBinAddr: 0x10001DCAC, symSize: 0x5C }
  - { offset: 0x39E5A, size: 0x8, addend: 0x0, symName: __RNvYNCINvMs6_NtCsg4dki62PTrg_9hashbrown3rawINtBb_8RawTableTNtNtCsiTraAjBDcu4_5alloc6string6StringINtNtCsaNl6UpbT7bw_4core6option6OptionBV_EEE14reserve_rehashNCINvNtBd_3map11make_hasherBV_B1x_NtNtNtCsht3nMU9UgFu_3std4hash6random11RandomStateE0Es_0INtNtNtB1C_3ops8function6FnOnceTOhEE9call_onceCs23PVZzqjOzE_10pkg_config, symObjAddr: 0x45EC, symBinAddr: 0x10001DD08, symSize: 0x44 }
  - { offset: 0x39E9A, size: 0x8, addend: 0x0, symName: __RNvYNCINvMs6_NtCsg4dki62PTrg_9hashbrown3rawINtBb_8RawTableTNtNtCsiTraAjBDcu4_5alloc6string6StringINtNtCsaNl6UpbT7bw_4core6option6OptionBV_EEE24find_or_find_insert_slotNCINvNtBd_3map14equivalent_keyBV_BV_B1x_E0NCINvB2K_11make_hasherBV_B1x_NtNtNtCsht3nMU9UgFu_3std4hash6random11RandomStateE0E0INtNtNtB1C_3ops8function6FnOnceTjEE9call_onceCs23PVZzqjOzE_10pkg_config, symObjAddr: 0x4630, symBinAddr: 0x10001DD4C, symSize: 0x58 }
  - { offset: 0x39EDE, size: 0x8, addend: 0x0, symName: __RNvYNCNkNvNvMNtNtCsht3nMU9UgFu_3std4hash6randomNtBb_11RandomState3new4KEYS0s_0INtNtNtCsaNl6UpbT7bw_4core3ops8function6FnOnceTINtNtB1l_6option6OptionQIB20_INtNtB1l_4cell4CellTyyEEEEEE9call_onceCs23PVZzqjOzE_10pkg_config, symObjAddr: 0x4688, symBinAddr: 0x10001DDA4, symSize: 0x4C }
  - { offset: 0x39F22, size: 0x8, addend: 0x0, symName: __RNvYNvNvNvMNtNtCsht3nMU9UgFu_3std4hash6randomNtB9_11RandomState3new4KEYS6___initINtNtNtCsaNl6UpbT7bw_4core3ops8function6FnOnceuE9call_onceCs23PVZzqjOzE_10pkg_config, symObjAddr: 0x4AF0, symBinAddr: 0x10001E20C, symSize: 0x1C }
  - { offset: 0x39F66, size: 0x8, addend: 0x0, symName: __RNvYNvYINtNtNtCsiTraAjBDcu4_5alloc3vec9into_iter8IntoIterReENtNtNtNtCsaNl6UpbT7bw_4core4iter6traits8iterator8Iterator4nextINtNtNtB14_3ops8function6FnOnceTQB5_EE9call_onceCs23PVZzqjOzE_10pkg_config, symObjAddr: 0x4B0C, symBinAddr: 0x10001E228, symSize: 0x24 }
  - { offset: 0x39FAA, size: 0x8, addend: 0x0, symName: __RNvYNvYeNtNtCsiTraAjBDcu4_5alloc6borrow7ToOwned8to_ownedINtNtNtCsaNl6UpbT7bw_4core3ops8function6FnOnceTReEE9call_onceCs23PVZzqjOzE_10pkg_config, symObjAddr: 0x4B60, symBinAddr: 0x10001E27C, symSize: 0x2C }
  - { offset: 0x39FF4, size: 0x8, addend: 0x0, symName: __RNvYNvMNtNtCsaNl6UpbT7bw_4core4char7methodsc13is_whitespaceINtNtNtB9_3ops8function5FnMutTcEE8call_mutCs23PVZzqjOzE_10pkg_config, symObjAddr: 0x4A98, symBinAddr: 0x10001E1B4, symSize: 0x28 }
  - { offset: 0x3A038, size: 0x8, addend: 0x0, symName: __RNvYNvMs9_NtCsaNl6UpbT7bw_4core3numj11checked_addINtNtNtBa_3ops8function5FnMutTjjEE8call_mutCs23PVZzqjOzE_10pkg_config, symObjAddr: 0x4AC0, symBinAddr: 0x10001E1DC, symSize: 0x30 }
  - { offset: 0x3A07C, size: 0x8, addend: 0x0, symName: __RNvYNvYNtNtCsiTraAjBDcu4_5alloc6string6StringINtNtCsaNl6UpbT7bw_4core7convert4FromReE4fromINtNtNtBM_3ops8function5FnMutTB1i_EE8call_mutCs23PVZzqjOzE_10pkg_config, symObjAddr: 0x4B30, symBinAddr: 0x10001E24C, symSize: 0x30 }
  - { offset: 0x3B2EF, size: 0x8, addend: 0x0, symName: __RNvXNtCsaNl6UpbT7bw_4core7convertRNtNtCsht3nMU9UgFu_3std4path4PathINtB2_5AsRefBw_E6as_refCs23PVZzqjOzE_10pkg_config, symObjAddr: 0x32E4, symBinAddr: 0x10001CA70, symSize: 0x30 }
  - { offset: 0x3B32F, size: 0x8, addend: 0x0, symName: __RNvXNtCsaNl6UpbT7bw_4core7convertRNtNtCsht3nMU9UgFu_3std4path7PathBufINtB2_5AsRefNtBy_4PathE6as_refCs23PVZzqjOzE_10pkg_config, symObjAddr: 0x3314, symBinAddr: 0x10001CAA0, symSize: 0x28 }
  - { offset: 0x3B36F, size: 0x8, addend: 0x0, symName: __RNvXNtCsaNl6UpbT7bw_4core7convertRNtNtNtCsht3nMU9UgFu_3std3ffi6os_str5OsStrINtB2_5AsRefBw_E6as_refCs23PVZzqjOzE_10pkg_config, symObjAddr: 0x333C, symBinAddr: 0x10001CAC8, symSize: 0x30 }
  - { offset: 0x3B3AF, size: 0x8, addend: 0x0, symName: __RNvXNtCsaNl6UpbT7bw_4core7convertRNtNtNtCsht3nMU9UgFu_3std3ffi6os_str8OsStringINtB2_5AsRefNtBy_5OsStrE6as_refCs23PVZzqjOzE_10pkg_config, symObjAddr: 0x336C, symBinAddr: 0x10001CAF8, symSize: 0x28 }
  - { offset: 0x3B821, size: 0x8, addend: 0x0, symName: __RNvMNtCsaNl6UpbT7bw_4core5sliceSNtNtCsht3nMU9UgFu_3std4path7PathBuf4iterCs23PVZzqjOzE_10pkg_config, symObjAddr: 0x2B34, symBinAddr: 0x10001C318, symSize: 0x28 }
  - { offset: 0x3B858, size: 0x8, addend: 0x0, symName: __RNvMNtCsaNl6UpbT7bw_4core5sliceSNtNtNtCsht3nMU9UgFu_3std3ffi6os_str8OsString4iterCs23PVZzqjOzE_10pkg_config, symObjAddr: 0x2B5C, symBinAddr: 0x10001C340, symSize: 0x28 }
  - { offset: 0x3B88F, size: 0x8, addend: 0x0, symName: __RNvMNtCsaNl6UpbT7bw_4core5sliceSTNtNtNtCsht3nMU9UgFu_3std3ffi6os_str8OsStringBv_E4iterCs23PVZzqjOzE_10pkg_config, symObjAddr: 0x2B84, symBinAddr: 0x10001C368, symSize: 0x28 }
  - { offset: 0x3B9C5, size: 0x8, addend: 0x0, symName: __RNvXs5_NtNtCsaNl6UpbT7bw_4core5slice5indexINtNtNtB9_3ops5range9RangeFromjEINtB5_10SliceIndexShE5indexCs23PVZzqjOzE_10pkg_config, symObjAddr: 0x3A94, symBinAddr: 0x10001D1F0, symSize: 0x90 }
  - { offset: 0x3BDBB, size: 0x8, addend: 0x0, symName: __RNvXs9_NtNtNtCsaNl6UpbT7bw_4core4iter8adapters4fuseINtB5_4FuseINtNtB7_3map3MapINtNtNtBb_5slice4iter4IterNtNtCsiTraAjBDcu4_5alloc6string6StringENCNvMs5_Cs23PVZzqjOzE_10pkg_configNtB2p_7Library17parse_libs_cflagss3_0EEINtB5_8FuseImplBY_E4nextB2p_, symObjAddr: 0x3FA8, symBinAddr: 0x10001D704, symSize: 0x88 }
  - { offset: 0x3BEB0, size: 0x8, addend: 0x0, symName: __RNvXsh_NtNtNtCsaNl6UpbT7bw_4core4iter8adapters7step_byINtNtNtBb_3ops5range5RangejEINtB5_14SpecRangeSetupBQ_E5setupCs23PVZzqjOzE_10pkg_config, symObjAddr: 0x4328, symBinAddr: 0x10001DA44, symSize: 0x150 }
  - { offset: 0x3C316, size: 0x8, addend: 0x0, symName: __RNvNtNtNtCsaNl6UpbT7bw_4core7unicode12unicode_data11white_space6lookupCs23PVZzqjOzE_10pkg_config, symObjAddr: 0x3198, symBinAddr: 0x10001C924, symSize: 0x14C }
  - { offset: 0x3C351, size: 0x8, addend: 0x0, symName: __RNvXs0_NtCsaNl6UpbT7bw_4core6borrowReINtB5_6BorroweE6borrowCs23PVZzqjOzE_10pkg_config, symObjAddr: 0x340C, symBinAddr: 0x10001CB98, symSize: 0x20 }
  - { offset: 0x3C3D4, size: 0x8, addend: 0x0, symName: __RNvXs7_NtNtCsaNl6UpbT7bw_4core3cmp5implsRNtNtNtCsht3nMU9UgFu_3std3ffi6os_str8OsStringINtB7_9PartialEqReE2eqCs23PVZzqjOzE_10pkg_config, symObjAddr: 0x3B90, symBinAddr: 0x10001D2EC, symSize: 0x3C }
  - { offset: 0x3C6A4, size: 0x8, addend: 0x0, symName: __RNSNvXs_NtNtCsiTraAjBDcu4_5alloc3vec21spec_from_iter_nestedINtB8_3VecNtNtBa_6string6StringEINtB6_18SpecFromIterNestedB15_INtNtNtNtCsaNl6UpbT7bw_4core4iter8adapters3map3MapINtNtB8_9into_iter8IntoIterReENvYB15_INtNtB24_7convert4FromB3a_E4fromEE9from_iter5reifyCs23PVZzqjOzE_10pkg_config, symObjAddr: 0x293C, symBinAddr: 0x10001C164, symSize: 0x1C }
  - { offset: 0x3CCE0, size: 0x8, addend: 0x0, symName: __RINvMNtCsiTraAjBDcu4_5alloc5sliceSNtNtCsht3nMU9UgFu_3std4path7PathBuf8into_vecNtNtB5_5alloc6GlobalECs23PVZzqjOzE_10pkg_config, symObjAddr: 0x40C, symBinAddr: 0x100019D84, symSize: 0x9C }
  - { offset: 0x3D0C4, size: 0x8, addend: 0x0, symName: __RNCNvNtCsiTraAjBDcu4_5alloc3fmt6format0Cs23PVZzqjOzE_10pkg_config, symObjAddr: 0x28F4, symBinAddr: 0x10001C11C, symSize: 0x48 }
  - { offset: 0x3D0F5, size: 0x8, addend: 0x0, symName: __RNvNtCsiTraAjBDcu4_5alloc3fmt6formatCs23PVZzqjOzE_10pkg_config, symObjAddr: 0x30C4, symBinAddr: 0x10001C850, symSize: 0xD4 }
  - { offset: 0x3D1DA, size: 0x8, addend: 0x0, symName: __RNvXs0_NtNtCsiTraAjBDcu4_5alloc3ffi5c_strNtB5_7CStringNtNtNtCsaNl6UpbT7bw_4core3ops4drop4Drop4dropCs23PVZzqjOzE_10pkg_config, symObjAddr: 0x342C, symBinAddr: 0x10001CBB8, symSize: 0x70 }
  - { offset: 0x3D885, size: 0x8, addend: 0x0, symName: __RINvMs12_NtCsht3nMU9UgFu_3std4pathNtB7_4Path11starts_withRNtB7_7PathBufECs23PVZzqjOzE_10pkg_config, symObjAddr: 0x4A8, symBinAddr: 0x100019E20, symSize: 0x7C }
  - { offset: 0x3D8C0, size: 0x8, addend: 0x0, symName: __RINvMs12_NtCsht3nMU9UgFu_3std4pathNtB7_4Path3neweECs23PVZzqjOzE_10pkg_config, symObjAddr: 0x524, symBinAddr: 0x100019E9C, symSize: 0x28 }
  - { offset: 0x3D906, size: 0x8, addend: 0x0, symName: __RINvMs12_NtCsht3nMU9UgFu_3std4pathNtB7_4Path4joinRRNtNtCsiTraAjBDcu4_5alloc6string6StringECs23PVZzqjOzE_10pkg_config, symObjAddr: 0x54C, symBinAddr: 0x100019EC4, symSize: 0x7C }
  - { offset: 0x3D99E, size: 0x8, addend: 0x0, symName: __RINvMs2_NtNtCsht3nMU9UgFu_3std6thread5localINtB6_8LocalKeyINtNtCsaNl6UpbT7bw_4core4cell4CellTyyEEE4withNCNvMNtNtBa_4hash6randomNtB1I_11RandomState3new0B21_ECs23PVZzqjOzE_10pkg_config, symObjAddr: 0x5C8, symBinAddr: 0x100019F40, symSize: 0x50 }
  - { offset: 0x3DA57, size: 0x8, addend: 0x0, symName: __RINvMs2_NtNtCsht3nMU9UgFu_3std6thread5localINtB6_8LocalKeyINtNtCsaNl6UpbT7bw_4core4cell4CellTyyEEE8try_withNCNvMNtNtBa_4hash6randomNtB1M_11RandomState3new0B25_ECs23PVZzqjOzE_10pkg_config, symObjAddr: 0x618, symBinAddr: 0x100019F90, symSize: 0xE8 }
  - { offset: 0x3DCD6, size: 0x8, addend: 0x0, symName: __RINvMs_NtNtCsaNl6UpbT7bw_4core3fmt2rtNtB7_9Arguments6new_v1Kj1_KBW_ECs23PVZzqjOzE_10pkg_config, symObjAddr: 0x700, symBinAddr: 0x10001A078, symSize: 0x50 }
  - { offset: 0x3DD3A, size: 0x8, addend: 0x0, symName: __RINvMs_NtNtCsaNl6UpbT7bw_4core3fmt2rtNtB7_9Arguments6new_v1Kj2_KBW_ECs23PVZzqjOzE_10pkg_config, symObjAddr: 0x750, symBinAddr: 0x10001A0C8, symSize: 0x50 }
  - { offset: 0x3DD6A, size: 0x8, addend: 0x0, symName: __RINvMs_NtNtCsaNl6UpbT7bw_4core3fmt2rtNtB7_9Arguments6new_v1Kj2_Kj1_ECs23PVZzqjOzE_10pkg_config, symObjAddr: 0x7A0, symBinAddr: 0x10001A118, symSize: 0x54 }
  - { offset: 0x3DDCE, size: 0x8, addend: 0x0, symName: __RINvMs_NtNtCsaNl6UpbT7bw_4core3fmt2rtNtB7_9Arguments6new_v1Kj3_KBW_ECs23PVZzqjOzE_10pkg_config, symObjAddr: 0x7F4, symBinAddr: 0x10001A16C, symSize: 0x50 }
  - { offset: 0x3DDFE, size: 0x8, addend: 0x0, symName: __RINvMs_NtNtCsaNl6UpbT7bw_4core3fmt2rtNtB7_9Arguments6new_v1Kj3_Kj2_ECs23PVZzqjOzE_10pkg_config, symObjAddr: 0x844, symBinAddr: 0x10001A1BC, symSize: 0x54 }
  - { offset: 0x3DE48, size: 0x8, addend: 0x0, symName: __RINvMs_NtNtCsaNl6UpbT7bw_4core3fmt2rtNtB7_9Arguments9new_constKj1_ECs23PVZzqjOzE_10pkg_config, symObjAddr: 0x8EC, symBinAddr: 0x10001A210, symSize: 0x48 }
  - { offset: 0x3DEB2, size: 0x8, addend: 0x0, symName: __RNCINvNtCsg4dki62PTrg_9hashbrown3map11make_hasherNtNtCsiTraAjBDcu4_5alloc6string6StringINtNtCsaNl6UpbT7bw_4core6option6OptionBL_ENtNtNtCsht3nMU9UgFu_3std4hash6random11RandomStateE0Cs23PVZzqjOzE_10pkg_config, symObjAddr: 0x2888, symBinAddr: 0x10001C0B0, symSize: 0x3C }
  - { offset: 0x3DF47, size: 0x8, addend: 0x0, symName: __RNCINvNtCsg4dki62PTrg_9hashbrown3map14equivalent_keyNtNtCsiTraAjBDcu4_5alloc6string6StringBO_INtNtCsaNl6UpbT7bw_4core6option6OptionBO_EE0Cs23PVZzqjOzE_10pkg_config, symObjAddr: 0x28C4, symBinAddr: 0x10001C0EC, symSize: 0x30 }
  - { offset: 0x3E274, size: 0x8, addend: 0x0, symName: __RNvXs1_NtCsg4dki62PTrg_9hashbrown10scopeguardINtB5_10ScopeGuardNtNtB7_3raw13RawTableInnerNCINvMsa_B11_BZ_14prepare_resizeNtNtCsiTraAjBDcu4_5alloc5alloc6GlobalE0ENtNtNtCsaNl6UpbT7bw_4core3ops4drop4Drop4dropCs23PVZzqjOzE_10pkg_config, symObjAddr: 0x34B4, symBinAddr: 0x10001CC40, symSize: 0x2C }
  - { offset: 0x3E2AE, size: 0x8, addend: 0x0, symName: __RNvXs1_NtCsg4dki62PTrg_9hashbrown10scopeguardINtB5_10ScopeGuardQNtNtB7_3raw13RawTableInnerNCNvMsa_B12_B10_15rehash_in_place0ENtNtNtCsaNl6UpbT7bw_4core3ops4drop4Drop4dropCs23PVZzqjOzE_10pkg_config, symObjAddr: 0x34E0, symBinAddr: 0x10001CC6C, symSize: 0x2C }
  - { offset: 0x3E580, size: 0x8, addend: 0x0, symName: __RNvMs12_NtCsht3nMU9UgFu_3std4pathNtB6_4Path6existsCs23PVZzqjOzE_10pkg_config, symObjAddr: 0x2BAC, symBinAddr: 0x10001C390, symSize: 0x54 }
  - { offset: 0x3E5E8, size: 0x8, addend: 0x0, symName: __RNvMs12_NtCsht3nMU9UgFu_3std4pathNtB6_4Path7displayCs23PVZzqjOzE_10pkg_config, symObjAddr: 0x2C00, symBinAddr: 0x10001C3E4, symSize: 0x18 }
  - { offset: 0x3E723, size: 0x8, addend: 0x0, symName: __RNvMs1_NtCsg4dki62PTrg_9hashbrown3mapINtB5_7HashMapNtNtCsiTraAjBDcu4_5alloc6string6StringINtNtCsaNl6UpbT7bw_4core6option6OptionBN_ENtNtNtCsht3nMU9UgFu_3std4hash6random11RandomStateE6insertCs23PVZzqjOzE_10pkg_config, symObjAddr: 0x2C18, symBinAddr: 0x10001C3FC, symSize: 0x238 }
  - { offset: 0x3E90E, size: 0x8, addend: 0x0, symName: __RNvMs9_NtCsaNl6UpbT7bw_4core3fmtNtB5_9Formatter9write_fmtCs23PVZzqjOzE_10pkg_config, symObjAddr: 0x2E50, symBinAddr: 0x10001C634, symSize: 0x17C }
  - { offset: 0x3E9E6, size: 0x8, addend: 0x0, symName: __RNvMsl_NtNtCsht3nMU9UgFu_3std3ffi6os_strNtB5_5OsStr12to_os_stringCs23PVZzqjOzE_10pkg_config, symObjAddr: 0x3024, symBinAddr: 0x10001C7B0, symSize: 0x6C }
  - { offset: 0x3EA7E, size: 0x8, addend: 0x0, symName: __RNvMsl_NtNtCsht3nMU9UgFu_3std3ffi6os_strNtB5_5OsStr15to_string_lossyCs23PVZzqjOzE_10pkg_config, symObjAddr: 0x3090, symBinAddr: 0x10001C81C, symSize: 0x34 }
  - { offset: 0x3FDD0, size: 0x8, addend: 0x0, symName: __RINvMNtCsaNl6UpbT7bw_4core6optionINtB3_6OptionNtNtNtCsht3nMU9UgFu_3std3ffi6os_str8OsStringE14unwrap_or_elseNCNvMs3_Cs23PVZzqjOzE_10pkg_configNtB1P_6Config3run0EB1P_, symObjAddr: 0x0, symBinAddr: 0x10001E2A8, symSize: 0x70 }
  - { offset: 0x40C03, size: 0x8, addend: 0x0, symName: __RNvXsC_NtCsaNl6UpbT7bw_4core6optionINtB5_6OptionjENtNtNtB7_3ops9try_trait3Try11from_outputCs23PVZzqjOzE_10pkg_config, symObjAddr: 0x2EAC, symBinAddr: 0x100020F84, symSize: 0x24 }
  - { offset: 0x40C3A, size: 0x8, addend: 0x0, symName: __RNvXsC_NtCsaNl6UpbT7bw_4core6optionINtB5_6OptionjENtNtNtB7_3ops9try_trait3Try6branchCs23PVZzqjOzE_10pkg_config, symObjAddr: 0x2ED0, symBinAddr: 0x100020FA8, symSize: 0x48 }
  - { offset: 0x40DA5, size: 0x8, addend: 0x0, symName: __RNvXsD_NtCsaNl6UpbT7bw_4core6optionINtB5_6OptionjEINtNtNtB7_3ops9try_trait12FromResidualIBy_NtNtB7_7convert10InfallibleEE13from_residualCs23PVZzqjOzE_10pkg_config, symObjAddr: 0x2F18, symBinAddr: 0x100020FF0, symSize: 0x18 }
  - { offset: 0x4112D, size: 0x8, addend: 0x0, symName: __RNvXsJ_NtCsaNl6UpbT7bw_4core6optionINtB5_6OptionhENtNtB7_3fmt5Debug3fmtCs23PVZzqjOzE_10pkg_config, symObjAddr: 0x2F30, symBinAddr: 0x100021008, symSize: 0x98 }
  - { offset: 0x41BB2, size: 0x8, addend: 0x0, symName: __RNvXs19_NtCsaNl6UpbT7bw_4core3fmtRINtNtB8_6option6OptionhENtB6_5Debug3fmtCs23PVZzqjOzE_10pkg_config, symObjAddr: 0x28A4, symBinAddr: 0x10002097C, symSize: 0x30 }
  - { offset: 0x41C03, size: 0x8, addend: 0x0, symName: __RNvXs1q_NtNtCsaNl6UpbT7bw_4core3fmt3numjNtB8_5Debug3fmtCs23PVZzqjOzE_10pkg_config, symObjAddr: 0x2A80, symBinAddr: 0x100020B58, symSize: 0x90 }
  - { offset: 0x420D0, size: 0x8, addend: 0x0, symName: __RINvNtNtCsaNl6UpbT7bw_4core3str11validations15next_code_pointINtNtNtB6_5slice4iter4IterhEECs23PVZzqjOzE_10pkg_config, symObjAddr: 0x608, symBinAddr: 0x10001E84C, symSize: 0x224 }
  - { offset: 0x42382, size: 0x8, addend: 0x0, symName: __RINvNtNtCsaNl6UpbT7bw_4core3str11validations23next_code_point_reverseINtNtNtB6_5slice4iter4IterhEECs23PVZzqjOzE_10pkg_config, symObjAddr: 0x82C, symBinAddr: 0x10001EA70, symSize: 0x244 }
  - { offset: 0x4264E, size: 0x8, addend: 0x0, symName: __RNvNvXs5_NtNtCsaNl6UpbT7bw_4core3str6traitsINtNtNtBb_3ops5range5RangejEINtNtNtBb_5slice5index10SliceIndexeE13get_unchecked18precondition_checkCs23PVZzqjOzE_10pkg_config, symObjAddr: 0x22C0, symBinAddr: 0x100020490, symSize: 0xCC }
  - { offset: 0x426CB, size: 0x8, addend: 0x0, symName: __RNvXs2_NtNtCsaNl6UpbT7bw_4core3str6traitseINtNtNtB9_3ops5index5IndexINtNtBJ_5range7RangeTojEE5indexCs23PVZzqjOzE_10pkg_config, symObjAddr: 0x2B90, symBinAddr: 0x100020C68, symSize: 0x44 }
  - { offset: 0x4270E, size: 0x8, addend: 0x0, symName: __RNvXs2_NtNtCsaNl6UpbT7bw_4core3str6traitseINtNtNtB9_3ops5index5IndexINtNtBJ_5range9RangeFromjEE5indexCs23PVZzqjOzE_10pkg_config, symObjAddr: 0x2BD4, symBinAddr: 0x100020CAC, symSize: 0x44 }
  - { offset: 0x42757, size: 0x8, addend: 0x0, symName: __RNvXs_NtNtCsaNl6UpbT7bw_4core3str6traitseNtNtB8_3cmp9PartialEq2eqCs23PVZzqjOzE_10pkg_config, symObjAddr: 0x307C, symBinAddr: 0x100021154, symSize: 0x64 }
  - { offset: 0x42B61, size: 0x8, addend: 0x0, symName: __RINvXs0_NtNtNtCsaNl6UpbT7bw_4core4iter8adapters3mapINtB6_3MapIBO_NtNtNtBc_3str4iter5CharsNCNvCs23PVZzqjOzE_10pkg_config6envify0ENCB1r_s_0ENtNtNtBa_6traits8iterator8Iterator4folduNCINvNvB2c_8for_each4callcNCINvXsb_NtCsiTraAjBDcu4_5alloc6stringNtB3p_6StringINtNtB2g_7collect6ExtendcE6extendBN_E0E0EB1t_, symObjAddr: 0xB3C, symBinAddr: 0x10001ED80, symSize: 0x34 }
  - { offset: 0x42BD2, size: 0x8, addend: 0x0, symName: __RINvXs0_NtNtNtCsaNl6UpbT7bw_4core4iter8adapters3mapINtB6_3MapINtNtNtBc_5slice4iter4IterNtNtNtCsht3nMU9UgFu_3std3ffi6os_str8OsStringENCINvMCs23PVZzqjOzE_10pkg_configNtB2c_14WrappedCommand4argsRINtNtCsiTraAjBDcu4_5alloc3vec3VecB1n_ERB1n_E0ENtNtNtBa_6traits8iterator8Iterator4folduNCINvNvB3O_8for_each4callB1n_NCINvMsi_B37_B34_14extend_trustedBN_E0E0EB2c_, symObjAddr: 0xB70, symBinAddr: 0x10001EDB4, symSize: 0x44 }
  - { offset: 0x42C6A, size: 0x8, addend: 0x0, symName: __RINvXs0_NtNtNtCsaNl6UpbT7bw_4core4iter8adapters3mapINtB6_3MapINtNtNtBc_5slice4iter4IterNtNtNtCsht3nMU9UgFu_3std3ffi6os_str8OsStringENCNvXs_Cs23PVZzqjOzE_10pkg_configNtB2d_14WrappedCommandNtNtBc_3fmt7Display3fmts_0ENtNtNtBa_6traits8iterator8Iterator4folduNCINvNvB3q_8for_each4callNtNtCsiTraAjBDcu4_5alloc6string6StringNCINvMsi_NtB4x_3vecINtB5e_3VecB4t_E14extend_trustedBN_E0E0EB2d_, symObjAddr: 0xBB4, symBinAddr: 0x10001EDF8, symSize: 0x44 }
  - { offset: 0x42D02, size: 0x8, addend: 0x0, symName: __RINvXs0_NtNtNtCsaNl6UpbT7bw_4core4iter8adapters3mapINtB6_3MapINtNtNtBc_5slice4iter4IterReENCINvMCs23PVZzqjOzE_10pkg_configNtB1w_14WrappedCommand4argsRSB1n_RB1n_E0ENtNtNtBa_6traits8iterator8Iterator4folduNCINvNvB2B_8for_each4callNtNtNtCsht3nMU9UgFu_3std3ffi6os_str8OsStringNCINvMsi_NtCsiTraAjBDcu4_5alloc3vecINtB4v_3VecB3E_E14extend_trustedBN_E0E0EB1w_, symObjAddr: 0xBF8, symBinAddr: 0x10001EE3C, symSize: 0x44 }
  - { offset: 0x42D9A, size: 0x8, addend: 0x0, symName: __RINvXs0_NtNtNtCsaNl6UpbT7bw_4core4iter8adapters3mapINtB6_3MapINtNtNtBc_5slice4iter4IterTNtNtNtCsht3nMU9UgFu_3std3ffi6os_str8OsStringB1o_EENCNvXs_Cs23PVZzqjOzE_10pkg_configNtB2j_14WrappedCommandNtNtBc_3fmt7Display3fmt0ENtNtNtBa_6traits8iterator8Iterator4folduNCINvNvB3u_8for_each4callNtNtCsiTraAjBDcu4_5alloc6string6StringNCINvMsi_NtB4B_3vecINtB5i_3VecB4x_E14extend_trustedBN_E0E0EB2j_, symObjAddr: 0xC3C, symBinAddr: 0x10001EE80, symSize: 0x44 }
  - { offset: 0x42E32, size: 0x8, addend: 0x0, symName: __RINvXs0_NtNtNtCsaNl6UpbT7bw_4core4iter8adapters3mapINtB6_3MapINtNtNtBc_5slice4iter4IterhENCNvNtCsiTraAjBDcu4_5alloc3str13replace_ascii0ENtNtNtBa_6traits8iterator8Iterator4folduNCINvNvB2a_8for_each4callhNCINvMsi_NtB1v_3vecINtB3n_3VechE14extend_trustedBN_E0E0ECs23PVZzqjOzE_10pkg_config, symObjAddr: 0xC80, symBinAddr: 0x10001EEC4, symSize: 0x58 }
  - { offset: 0x42ECB, size: 0x8, addend: 0x0, symName: __RINvXs0_NtNtNtCsaNl6UpbT7bw_4core4iter8adapters3mapINtB6_3MapINtNtNtCsiTraAjBDcu4_5alloc3vec9into_iter8IntoIterReENvYNtNtB14_6string6StringINtNtBc_7convert4FromB1L_E4fromENtNtNtBa_6traits8iterator8Iterator4folduNCINvNvB2J_8for_each4callB1R_NCINvMsi_B12_INtB12_3VecB1R_E14extend_trustedBN_E0E0ECs23PVZzqjOzE_10pkg_config, symObjAddr: 0xCD8, symBinAddr: 0x10001EF1C, symSize: 0x4C }
  - { offset: 0x42F64, size: 0x8, addend: 0x0, symName: __RINvXs0_NtNtNtCsaNl6UpbT7bw_4core4iter8adapters3mapINtB6_3MapNtNtNtBc_3str4iter5CharsNCNvCs23PVZzqjOzE_10pkg_config6envify0ENtNtNtBa_6traits8iterator8Iterator4folduNCINvB6_8map_foldccuNCB1n_s_0NCINvNvB1Y_8for_each4callcNCINvXsb_NtCsiTraAjBDcu4_5alloc6stringNtB3E_6StringINtNtB22_7collect6ExtendcE6extendIBO_BN_B2W_EE0E0E0EB1p_, symObjAddr: 0xD24, symBinAddr: 0x10001EF68, symSize: 0x34 }
  - { offset: 0x42FD5, size: 0x8, addend: 0x0, symName: __RNvXs0_NtNtNtCsaNl6UpbT7bw_4core4iter8adapters3mapINtB5_3MapIBN_NtNtNtBb_3str4iter5CharsNCNvCs23PVZzqjOzE_10pkg_config6envify0ENCB1q_s_0ENtNtNtB9_6traits8iterator8Iterator9size_hintB1s_, symObjAddr: 0x2508, symBinAddr: 0x1000206A8, symSize: 0x24 }
  - { offset: 0x4301C, size: 0x8, addend: 0x0, symName: __RNvXs0_NtNtNtCsaNl6UpbT7bw_4core4iter8adapters3mapINtB5_3MapINtNtB7_6filter6FilterINtNtNtBb_5slice4iter4IterNtNtCsiTraAjBDcu4_5alloc6string6StringENCNvMs5_Cs23PVZzqjOzE_10pkg_configNtB2t_7Library17parse_libs_cflagss0_0ENCB2n_s1_0ENtNtNtB9_6traits8iterator8Iterator4nextB2t_, symObjAddr: 0x252C, symBinAddr: 0x1000206CC, symSize: 0x90 }
  - { offset: 0x430B4, size: 0x8, addend: 0x0, symName: __RNvXs0_NtNtNtCsaNl6UpbT7bw_4core4iter8adapters3mapINtB5_3MapINtNtNtBb_3str4iter14SplitInclusivecENtB11_8LinesMapENtNtNtB9_6traits8iterator8Iterator4nextCs23PVZzqjOzE_10pkg_config, symObjAddr: 0x25BC, symBinAddr: 0x10002075C, symSize: 0x90 }
  - { offset: 0x4314C, size: 0x8, addend: 0x0, symName: __RNvXs0_NtNtNtCsaNl6UpbT7bw_4core4iter8adapters3mapINtB5_3MapINtNtNtBb_5slice4iter4IterNtNtCsiTraAjBDcu4_5alloc6string6StringENCNvMs5_Cs23PVZzqjOzE_10pkg_configNtB27_7Library17parse_libs_cflagss3_0ENtNtNtB9_6traits8iterator8Iterator4nextB27_, symObjAddr: 0x2714, symBinAddr: 0x1000207EC, symSize: 0x94 }
  - { offset: 0x431E4, size: 0x8, addend: 0x0, symName: __RNvXs0_NtNtNtCsaNl6UpbT7bw_4core4iter8adapters3mapINtB5_3MapINtNtNtBb_5slice4iter4IterNtNtNtCsht3nMU9UgFu_3std3ffi6os_str8OsStringENCINvMCs23PVZzqjOzE_10pkg_configNtB2b_14WrappedCommand4argsRINtNtCsiTraAjBDcu4_5alloc3vec3VecB1m_ERB1m_E0ENtNtNtB9_6traits8iterator8Iterator9size_hintB2b_, symObjAddr: 0x27A8, symBinAddr: 0x100020880, symSize: 0x24 }
  - { offset: 0x4322B, size: 0x8, addend: 0x0, symName: __RNvXs0_NtNtNtCsaNl6UpbT7bw_4core4iter8adapters3mapINtB5_3MapINtNtNtBb_5slice4iter4IterNtNtNtCsht3nMU9UgFu_3std3ffi6os_str8OsStringENCNvXs_Cs23PVZzqjOzE_10pkg_configNtB2c_14WrappedCommandNtNtBb_3fmt7Display3fmts_0ENtNtNtB9_6traits8iterator8Iterator9size_hintB2c_, symObjAddr: 0x27CC, symBinAddr: 0x1000208A4, symSize: 0x24 }
  - { offset: 0x43272, size: 0x8, addend: 0x0, symName: __RNvXs0_NtNtNtCsaNl6UpbT7bw_4core4iter8adapters3mapINtB5_3MapINtNtNtBb_5slice4iter4IterReENCINvMCs23PVZzqjOzE_10pkg_configNtB1v_14WrappedCommand4argsRSB1m_RB1m_E0ENtNtNtB9_6traits8iterator8Iterator9size_hintB1v_, symObjAddr: 0x27F0, symBinAddr: 0x1000208C8, symSize: 0x24 }
  - { offset: 0x432B9, size: 0x8, addend: 0x0, symName: __RNvXs0_NtNtNtCsaNl6UpbT7bw_4core4iter8adapters3mapINtB5_3MapINtNtNtBb_5slice4iter4IterTNtNtNtCsht3nMU9UgFu_3std3ffi6os_str8OsStringB1n_EENCNvXs_Cs23PVZzqjOzE_10pkg_configNtB2i_14WrappedCommandNtNtBb_3fmt7Display3fmt0ENtNtNtB9_6traits8iterator8Iterator9size_hintB2i_, symObjAddr: 0x2814, symBinAddr: 0x1000208EC, symSize: 0x24 }
  - { offset: 0x43300, size: 0x8, addend: 0x0, symName: __RNvXs0_NtNtNtCsaNl6UpbT7bw_4core4iter8adapters3mapINtB5_3MapINtNtNtBb_5slice4iter4IterhENCNvNtCsiTraAjBDcu4_5alloc3str13replace_ascii0ENtNtNtB9_6traits8iterator8Iterator9size_hintCs23PVZzqjOzE_10pkg_config, symObjAddr: 0x2838, symBinAddr: 0x100020910, symSize: 0x24 }
  - { offset: 0x43347, size: 0x8, addend: 0x0, symName: __RNvXs0_NtNtNtCsaNl6UpbT7bw_4core4iter8adapters3mapINtB5_3MapINtNtNtCsiTraAjBDcu4_5alloc3vec9into_iter8IntoIterReENvYNtNtB13_6string6StringINtNtBb_7convert4FromB1K_E4fromENtNtNtB9_6traits8iterator8Iterator9size_hintCs23PVZzqjOzE_10pkg_config, symObjAddr: 0x285C, symBinAddr: 0x100020934, symSize: 0x24 }
  - { offset: 0x4338E, size: 0x8, addend: 0x0, symName: __RNvXs0_NtNtNtCsaNl6UpbT7bw_4core4iter8adapters3mapINtB5_3MapNtNtNtBb_3str4iter5CharsNCNvCs23PVZzqjOzE_10pkg_config6envify0ENtNtNtB9_6traits8iterator8Iterator9size_hintB1o_, symObjAddr: 0x2880, symBinAddr: 0x100020958, symSize: 0x24 }
  - { offset: 0x434E3, size: 0x8, addend: 0x0, symName: __RNCINvNtNtNtCsaNl6UpbT7bw_4core4iter8adapters3map8map_foldRNtNtNtCsht3nMU9UgFu_3std3ffi6os_str8OsStringBV_uNCINvMCs23PVZzqjOzE_10pkg_configNtB1N_14WrappedCommand4argsRINtNtCsiTraAjBDcu4_5alloc3vec3VecBV_EBU_E0NCINvNvNtNtNtB8_6traits8iterator8Iterator8for_each4callBV_NCINvMsi_B2I_B2F_14extend_trustedINtB4_3MapINtNtNtBa_5slice4iter4IterBV_EB1H_EE0E0E0B1N_, symObjAddr: 0x1490, symBinAddr: 0x10001F660, symSize: 0x8C }
  - { offset: 0x43568, size: 0x8, addend: 0x0, symName: __RNCINvNtNtNtCsaNl6UpbT7bw_4core4iter8adapters3map8map_foldRNtNtNtCsht3nMU9UgFu_3std3ffi6os_str8OsStringNtNtCsiTraAjBDcu4_5alloc6string6StringuNCNvXs_Cs23PVZzqjOzE_10pkg_configNtB2n_14WrappedCommandNtNtBa_3fmt7Display3fmts_0NCINvNvNtNtNtB8_6traits8iterator8Iterator8for_each4callB1D_NCINvMsi_NtB1H_3vecINtB4F_3VecB1D_E14extend_trustedINtB4_3MapINtNtNtBa_5slice4iter4IterBV_EB2g_EE0E0E0B2n_, symObjAddr: 0x151C, symBinAddr: 0x10001F6EC, symSize: 0x8C }
  - { offset: 0x435ED, size: 0x8, addend: 0x0, symName: __RNCINvNtNtNtCsaNl6UpbT7bw_4core4iter8adapters3map8map_foldRReNtNtNtCsht3nMU9UgFu_3std3ffi6os_str8OsStringuNCINvMCs23PVZzqjOzE_10pkg_configNtB1M_14WrappedCommand4argsRSBV_BU_E0NCINvNvNtNtNtB8_6traits8iterator8Iterator8for_each4callBX_NCINvMsi_NtCsiTraAjBDcu4_5alloc3vecINtB3S_3VecBX_E14extend_trustedINtB4_3MapINtNtNtBa_5slice4iter4IterBV_EB1G_EE0E0E0B1M_, symObjAddr: 0x15A8, symBinAddr: 0x10001F778, symSize: 0x8C }
  - { offset: 0x43672, size: 0x8, addend: 0x0, symName: __RNCINvNtNtNtCsaNl6UpbT7bw_4core4iter8adapters3map8map_foldRTNtNtNtCsht3nMU9UgFu_3std3ffi6os_str8OsStringBW_ENtNtCsiTraAjBDcu4_5alloc6string6StringuNCNvXs_Cs23PVZzqjOzE_10pkg_configNtB2s_14WrappedCommandNtNtBa_3fmt7Display3fmt0NCINvNvNtNtNtB8_6traits8iterator8Iterator8for_each4callB1I_NCINvMsi_NtB1M_3vecINtB4I_3VecB1I_E14extend_trustedINtB4_3MapINtNtNtBa_5slice4iter4IterBV_EB2l_EE0E0E0B2s_, symObjAddr: 0x1634, symBinAddr: 0x10001F804, symSize: 0x8C }
  - { offset: 0x436F7, size: 0x8, addend: 0x0, symName: __RNCINvNtNtNtCsaNl6UpbT7bw_4core4iter8adapters3map8map_foldReNtNtCsiTraAjBDcu4_5alloc6string6StringuNvYBW_INtNtBa_7convert4FromBU_E4fromNCINvNvNtNtNtB8_6traits8iterator8Iterator8for_each4callBW_NCINvMsi_NtB10_3vecINtB3e_3VecBW_E14extend_trustedINtB4_3MapINtNtB3e_9into_iter8IntoIterBU_EB1z_EE0E0E0Cs23PVZzqjOzE_10pkg_config, symObjAddr: 0x16C0, symBinAddr: 0x10001F890, symSize: 0x90 }
  - { offset: 0x4377C, size: 0x8, addend: 0x0, symName: __RNCINvNtNtNtCsaNl6UpbT7bw_4core4iter8adapters3map8map_foldRhhuNCNvNtCsiTraAjBDcu4_5alloc3str13replace_ascii0NCINvNvNtNtNtB8_6traits8iterator8Iterator8for_each4callhNCINvMsi_NtB14_3vecINtB2L_3VechE14extend_trustedINtB4_3MapINtNtNtBa_5slice4iter4IterhEBY_EE0E0E0Cs23PVZzqjOzE_10pkg_config, symObjAddr: 0x1750, symBinAddr: 0x10001F920, symSize: 0x7C }
  - { offset: 0x43801, size: 0x8, addend: 0x0, symName: __RNCINvNtNtNtCsaNl6UpbT7bw_4core4iter8adapters3map8map_foldccuNCNvCs23PVZzqjOzE_10pkg_config6envify0NCIB2_ccuNCBZ_s_0NCINvNvNtNtNtB8_6traits8iterator8Iterator8for_each4callcNCINvXsb_NtCsiTraAjBDcu4_5alloc6stringNtB2T_6StringINtNtB21_7collect6ExtendcE6extendINtB4_3MapIB47_NtNtNtBa_3str4iter5CharsBX_EB1I_EE0E0E0E0B11_, symObjAddr: 0x17CC, symBinAddr: 0x10001F99C, symSize: 0x78 }
  - { offset: 0x43886, size: 0x8, addend: 0x0, symName: __RNCINvNtNtNtCsaNl6UpbT7bw_4core4iter8adapters3map8map_foldccuNCNvCs23PVZzqjOzE_10pkg_config6envifys_0NCINvNvNtNtNtB8_6traits8iterator8Iterator8for_each4callcNCINvXsb_NtCsiTraAjBDcu4_5alloc6stringNtB2E_6StringINtNtB1M_7collect6ExtendcE6extendINtB4_3MapIB3S_NtNtNtBa_3str4iter5CharsNCBZ_0EBX_EE0E0E0B11_, symObjAddr: 0x1844, symBinAddr: 0x10001FA14, symSize: 0x78 }
  - { offset: 0x43B32, size: 0x8, addend: 0x0, symName: __RNCINvNtNtNtCsaNl6UpbT7bw_4core4iter8adapters3map12map_try_foldRNtNtCsiTraAjBDcu4_5alloc6string6StringjjINtNtBa_6option6OptionjENCNCINvNtB14_3str17join_generic_copyehB10_E00NvMs9_NtBa_3numj11checked_addE0Cs23PVZzqjOzE_10pkg_config, symObjAddr: 0x1340, symBinAddr: 0x10001F510, symSize: 0xA8 }
  - { offset: 0x43BC4, size: 0x8, addend: 0x0, symName: __RNCINvNtNtNtCsaNl6UpbT7bw_4core4iter8adapters3map12map_try_foldRRejjINtNtBa_6option6OptionjENCNCINvNtCsiTraAjBDcu4_5alloc3str17join_generic_copyehB10_E00NvMs9_NtBa_3numj11checked_addE0Cs23PVZzqjOzE_10pkg_config, symObjAddr: 0x13E8, symBinAddr: 0x10001F5B8, symSize: 0xA8 }
  - { offset: 0x44050, size: 0x8, addend: 0x0, symName: __RINvYINtNtNtCsiTraAjBDcu4_5alloc3vec9into_iter8IntoIterReENtNtNtNtCsaNl6UpbT7bw_4core4iter6traits8iterator8Iterator3mapNtNtBa_6string6StringNvYB1T_INtNtB12_7convert4FromBR_E4fromECs23PVZzqjOzE_10pkg_config, symObjAddr: 0xE7C, symBinAddr: 0x10001F0C0, symSize: 0x1C }
  - { offset: 0x440BD, size: 0x8, addend: 0x0, symName: __RINvYINtNtNtNtCsaNl6UpbT7bw_4core4iter8adapters3map3MapIB4_NtNtNtBc_3str4iter5CharsNCNvCs23PVZzqjOzE_10pkg_config6envify0ENCB1l_s_0ENtNtNtBa_6traits8iterator8Iterator7collectNtNtCsiTraAjBDcu4_5alloc6string6StringEB1n_, symObjAddr: 0xE98, symBinAddr: 0x10001F0DC, symSize: 0x58 }
  - { offset: 0x44152, size: 0x8, addend: 0x0, symName: __RINvYINtNtNtNtCsaNl6UpbT7bw_4core4iter8adapters3map3MapIB4_NtNtNtBc_3str4iter5CharsNCNvCs23PVZzqjOzE_10pkg_config6envify0ENCB1l_s_0ENtNtNtBa_6traits8iterator8Iterator8for_eachNCINvXsb_NtCsiTraAjBDcu4_5alloc6stringNtB2W_6StringINtNtB2a_7collect6ExtendcE6extendB3_E0EB1n_, symObjAddr: 0xEF0, symBinAddr: 0x10001F134, symSize: 0x34 }
  - { offset: 0x4419D, size: 0x8, addend: 0x0, symName: __RINvYINtNtNtNtCsaNl6UpbT7bw_4core4iter8adapters3map3MapINtNtNtBc_5slice4iter4IterNtNtNtCsht3nMU9UgFu_3std3ffi6os_str8OsStringENCINvMCs23PVZzqjOzE_10pkg_configNtB26_14WrappedCommand4argsRINtNtCsiTraAjBDcu4_5alloc3vec3VecB1h_ERB1h_E0ENtNtNtBa_6traits8iterator8Iterator8for_eachNCINvMsi_B31_B2Y_14extend_trustedB3_E0EB26_, symObjAddr: 0xF98, symBinAddr: 0x10001F168, symSize: 0x44 }
  - { offset: 0x44208, size: 0x8, addend: 0x0, symName: __RINvYINtNtNtNtCsaNl6UpbT7bw_4core4iter8adapters3map3MapINtNtNtBc_5slice4iter4IterNtNtNtCsht3nMU9UgFu_3std3ffi6os_str8OsStringENCNvXs_Cs23PVZzqjOzE_10pkg_configNtB27_14WrappedCommandNtNtBc_3fmt7Display3fmts_0ENtNtNtBa_6traits8iterator8Iterator7collectINtNtCsiTraAjBDcu4_5alloc3vec3VecNtNtB45_6string6StringEEB27_, symObjAddr: 0xFDC, symBinAddr: 0x10001F1AC, symSize: 0x60 }
  - { offset: 0x4429D, size: 0x8, addend: 0x0, symName: __RINvYINtNtNtNtCsaNl6UpbT7bw_4core4iter8adapters3map3MapINtNtNtBc_5slice4iter4IterNtNtNtCsht3nMU9UgFu_3std3ffi6os_str8OsStringENCNvXs_Cs23PVZzqjOzE_10pkg_configNtB27_14WrappedCommandNtNtBc_3fmt7Display3fmts_0ENtNtNtBa_6traits8iterator8Iterator8for_eachNCINvMsi_NtCsiTraAjBDcu4_5alloc3vecINtB4a_3VecNtNtB4c_6string6StringE14extend_trustedB3_E0EB27_, symObjAddr: 0x103C, symBinAddr: 0x10001F20C, symSize: 0x44 }
  - { offset: 0x44308, size: 0x8, addend: 0x0, symName: __RINvYINtNtNtNtCsaNl6UpbT7bw_4core4iter8adapters3map3MapINtNtNtBc_5slice4iter4IterReENCINvMCs23PVZzqjOzE_10pkg_configNtB1q_14WrappedCommand4argsRSB1h_RB1h_E0ENtNtNtBa_6traits8iterator8Iterator8for_eachNCINvMsi_NtCsiTraAjBDcu4_5alloc3vecINtB3l_3VecNtNtNtCsht3nMU9UgFu_3std3ffi6os_str8OsStringE14extend_trustedB3_E0EB1q_, symObjAddr: 0x1080, symBinAddr: 0x10001F250, symSize: 0x44 }
  - { offset: 0x44373, size: 0x8, addend: 0x0, symName: __RINvYINtNtNtNtCsaNl6UpbT7bw_4core4iter8adapters3map3MapINtNtNtBc_5slice4iter4IterTNtNtNtCsht3nMU9UgFu_3std3ffi6os_str8OsStringB1i_EENCNvXs_Cs23PVZzqjOzE_10pkg_configNtB2d_14WrappedCommandNtNtBc_3fmt7Display3fmt0ENtNtNtBa_6traits8iterator8Iterator7collectINtNtCsiTraAjBDcu4_5alloc3vec3VecNtNtB49_6string6StringEEB2d_, symObjAddr: 0x10C4, symBinAddr: 0x10001F294, symSize: 0x60 }
  - { offset: 0x44408, size: 0x8, addend: 0x0, symName: __RINvYINtNtNtNtCsaNl6UpbT7bw_4core4iter8adapters3map3MapINtNtNtBc_5slice4iter4IterTNtNtNtCsht3nMU9UgFu_3std3ffi6os_str8OsStringB1i_EENCNvXs_Cs23PVZzqjOzE_10pkg_configNtB2d_14WrappedCommandNtNtBc_3fmt7Display3fmt0ENtNtNtBa_6traits8iterator8Iterator8for_eachNCINvMsi_NtCsiTraAjBDcu4_5alloc3vecINtB4e_3VecNtNtB4g_6string6StringE14extend_trustedB3_E0EB2d_, symObjAddr: 0x1124, symBinAddr: 0x10001F2F4, symSize: 0x44 }
  - { offset: 0x44473, size: 0x8, addend: 0x0, symName: __RINvYINtNtNtNtCsaNl6UpbT7bw_4core4iter8adapters3map3MapINtNtNtBc_5slice4iter4IterhENCNvNtCsiTraAjBDcu4_5alloc3str13replace_ascii0ENtNtNtBa_6traits8iterator8Iterator7collectINtNtB1p_3vec3VechEECs23PVZzqjOzE_10pkg_config, symObjAddr: 0x1168, symBinAddr: 0x10001F338, symSize: 0x68 }
  - { offset: 0x44509, size: 0x8, addend: 0x0, symName: __RINvYINtNtNtNtCsaNl6UpbT7bw_4core4iter8adapters3map3MapINtNtNtBc_5slice4iter4IterhENCNvNtCsiTraAjBDcu4_5alloc3str13replace_ascii0ENtNtNtBa_6traits8iterator8Iterator8for_eachNCINvMsi_NtB1p_3vecINtB2U_3VechE14extend_trustedB3_E0ECs23PVZzqjOzE_10pkg_config, symObjAddr: 0x11D0, symBinAddr: 0x10001F3A0, symSize: 0x34 }
  - { offset: 0x44575, size: 0x8, addend: 0x0, symName: __RINvYINtNtNtNtCsaNl6UpbT7bw_4core4iter8adapters3map3MapINtNtNtCsiTraAjBDcu4_5alloc3vec9into_iter8IntoIterReENvYNtNtBY_6string6StringINtNtBc_7convert4FromB1F_E4fromENtNtNtBa_6traits8iterator8Iterator7collectINtBW_3VecB1L_EECs23PVZzqjOzE_10pkg_config, symObjAddr: 0x1204, symBinAddr: 0x10001F3D4, symSize: 0x68 }
  - { offset: 0x4460B, size: 0x8, addend: 0x0, symName: __RINvYINtNtNtNtCsaNl6UpbT7bw_4core4iter8adapters3map3MapINtNtNtCsiTraAjBDcu4_5alloc3vec9into_iter8IntoIterReENvYNtNtBY_6string6StringINtNtBc_7convert4FromB1F_E4fromENtNtNtBa_6traits8iterator8Iterator8for_eachNCINvMsi_BW_INtBW_3VecB1L_E14extend_trustedB3_E0ECs23PVZzqjOzE_10pkg_config, symObjAddr: 0x126C, symBinAddr: 0x10001F43C, symSize: 0x34 }
  - { offset: 0x44677, size: 0x8, addend: 0x0, symName: __RINvYINtNtNtNtCsaNl6UpbT7bw_4core4iter8adapters3map3MapNtNtNtBc_3str4iter5CharsNCNvCs23PVZzqjOzE_10pkg_config6envify0ENtNtNtBa_6traits8iterator8Iterator3mapcNCB1h_s_0EB1j_, symObjAddr: 0x12A0, symBinAddr: 0x10001F470, symSize: 0x1C }
  - { offset: 0x446DB, size: 0x8, addend: 0x0, symName: __RNvXNtNtNtCsaNl6UpbT7bw_4core4iter6traits7collectINtNtNtB6_8adapters3map3MapIBM_NtNtNtB8_3str4iter5CharsNCNvCs23PVZzqjOzE_10pkg_config6envify0ENCB1G_s_0ENtB2_12IntoIterator9into_iterB1I_, symObjAddr: 0x238C, symBinAddr: 0x10002055C, symSize: 0x1C }
  - { offset: 0x44712, size: 0x8, addend: 0x0, symName: __RNvXNtNtNtCsaNl6UpbT7bw_4core4iter6traits7collectINtNtNtB6_8adapters3map3MapINtNtBQ_6filter6FilterINtNtNtB8_5slice4iter4IterNtNtCsiTraAjBDcu4_5alloc6string6StringENCNvMs5_Cs23PVZzqjOzE_10pkg_configNtB2J_7Library17parse_libs_cflagss0_0ENCB2D_s1_0ENtB2_12IntoIterator9into_iterB2J_, symObjAddr: 0x23A8, symBinAddr: 0x100020578, symSize: 0x1C }
  - { offset: 0x44749, size: 0x8, addend: 0x0, symName: __RNvXNtNtNtCsaNl6UpbT7bw_4core4iter6traits7collectINtNtNtB6_8adapters3map3MapINtNtNtB8_5slice4iter4IterNtNtNtCsht3nMU9UgFu_3std3ffi6os_str8OsStringENCINvMCs23PVZzqjOzE_10pkg_configNtB2r_14WrappedCommand4argsRINtNtCsiTraAjBDcu4_5alloc3vec3VecB1C_ERB1C_E0ENtB2_12IntoIterator9into_iterB2r_, symObjAddr: 0x23F4, symBinAddr: 0x100020594, symSize: 0x1C }
  - { offset: 0x44780, size: 0x8, addend: 0x0, symName: __RNvXNtNtNtCsaNl6UpbT7bw_4core4iter6traits7collectINtNtNtB6_8adapters3map3MapINtNtNtB8_5slice4iter4IterNtNtNtCsht3nMU9UgFu_3std3ffi6os_str8OsStringENCNvXs_Cs23PVZzqjOzE_10pkg_configNtB2s_14WrappedCommandNtNtB8_3fmt7Display3fmts_0ENtB2_12IntoIterator9into_iterB2s_, symObjAddr: 0x2410, symBinAddr: 0x1000205B0, symSize: 0x1C }
  - { offset: 0x447B7, size: 0x8, addend: 0x0, symName: __RNvXNtNtNtCsaNl6UpbT7bw_4core4iter6traits7collectINtNtNtB6_8adapters3map3MapINtNtNtB8_5slice4iter4IterReENCINvMCs23PVZzqjOzE_10pkg_configNtB1L_14WrappedCommand4argsRSB1C_RB1C_E0ENtB2_12IntoIterator9into_iterB1L_, symObjAddr: 0x242C, symBinAddr: 0x1000205CC, symSize: 0x1C }
  - { offset: 0x447EE, size: 0x8, addend: 0x0, symName: __RNvXNtNtNtCsaNl6UpbT7bw_4core4iter6traits7collectINtNtNtB6_8adapters3map3MapINtNtNtB8_5slice4iter4IterTNtNtNtCsht3nMU9UgFu_3std3ffi6os_str8OsStringB1D_EENCNvXs_Cs23PVZzqjOzE_10pkg_configNtB2y_14WrappedCommandNtNtB8_3fmt7Display3fmt0ENtB2_12IntoIterator9into_iterB2y_, symObjAddr: 0x2448, symBinAddr: 0x1000205E8, symSize: 0x1C }
  - { offset: 0x44825, size: 0x8, addend: 0x0, symName: __RNvXNtNtNtCsaNl6UpbT7bw_4core4iter6traits7collectINtNtNtB6_8adapters3map3MapINtNtNtB8_5slice4iter4IterhENCNvNtCsiTraAjBDcu4_5alloc3str13replace_ascii0ENtB2_12IntoIterator9into_iterCs23PVZzqjOzE_10pkg_config, symObjAddr: 0x2464, symBinAddr: 0x100020604, symSize: 0x14 }
  - { offset: 0x4485C, size: 0x8, addend: 0x0, symName: __RNvXNtNtNtCsaNl6UpbT7bw_4core4iter6traits7collectINtNtNtB6_8adapters3map3MapINtNtNtCsiTraAjBDcu4_5alloc3vec9into_iter8IntoIterReENvYNtNtB1j_6string6StringINtNtB8_7convert4FromB20_E4fromENtB2_12IntoIterator9into_iterCs23PVZzqjOzE_10pkg_config, symObjAddr: 0x2478, symBinAddr: 0x100020618, symSize: 0x14 }
  - { offset: 0x448CA, size: 0x8, addend: 0x0, symName: __RNvYINtNtNtCsiTraAjBDcu4_5alloc3vec9into_iter8IntoIterReENtNtNtNtCsaNl6UpbT7bw_4core4iter6traits10exact_size17ExactSizeIterator3lenCs23PVZzqjOzE_10pkg_config, symObjAddr: 0x32E8, symBinAddr: 0x1000213C0, symSize: 0xC4 }
  - { offset: 0x44A93, size: 0x8, addend: 0x0, symName: __RINvYNtNtNtCsht3nMU9UgFu_3std4hash6random11RandomStateNtNtCsaNl6UpbT7bw_4core4hash11BuildHasher8hash_oneRNtNtCsiTraAjBDcu4_5alloc6string6StringECs23PVZzqjOzE_10pkg_config, symObjAddr: 0x12BC, symBinAddr: 0x10001F48C, symSize: 0x84 }
  - { offset: 0x44D3B, size: 0x8, addend: 0x0, symName: __RNvMNtCsaNl6UpbT7bw_4core5sliceSINtNtNtB4_3mem12maybe_uninit11MaybeUninithE15copy_from_sliceCs23PVZzqjOzE_10pkg_config, symObjAddr: 0x191C, symBinAddr: 0x10001FAEC, symSize: 0xAC }
  - { offset: 0x44E06, size: 0x8, addend: 0x0, symName: __RNvMNtCsaNl6UpbT7bw_4core5sliceSINtNtNtB4_3mem12maybe_uninit11MaybeUninithE22split_at_mut_uncheckedCs23PVZzqjOzE_10pkg_config, symObjAddr: 0x19C8, symBinAddr: 0x10001FB98, symSize: 0xF8 }
  - { offset: 0x451EC, size: 0x8, addend: 0x0, symName: __RNvNvNtNtCsaNl6UpbT7bw_4core4char7convert18from_u32_unchecked18precondition_checkCs23PVZzqjOzE_10pkg_config, symObjAddr: 0x2198, symBinAddr: 0x100020368, symSize: 0x104 }
  - { offset: 0x452FA, size: 0x8, addend: 0x0, symName: __RINvNtCsht3nMU9UgFu_3std3env3varReECs23PVZzqjOzE_10pkg_config, symObjAddr: 0x538, symBinAddr: 0x10001E77C, symSize: 0x68 }
  - { offset: 0x4532F, size: 0x8, addend: 0x0, symName: __RINvNtCsht3nMU9UgFu_3std3env6var_osReECs23PVZzqjOzE_10pkg_config, symObjAddr: 0x5A0, symBinAddr: 0x10001E7E4, symSize: 0x68 }
  - { offset: 0x453DA, size: 0x8, addend: 0x0, symName: __RNCNkNvNvMNtNtCsht3nMU9UgFu_3std4hash6randomNtB8_11RandomState3new4KEYS0s_0Cs23PVZzqjOzE_10pkg_config, symObjAddr: 0x18BC, symBinAddr: 0x10001FA8C, symSize: 0x34 }
  - { offset: 0x45418, size: 0x8, addend: 0x0, symName: __RNvNvNvMNtNtCsht3nMU9UgFu_3std4hash6randomNtB6_11RandomState3new4KEYS6___initCs23PVZzqjOzE_10pkg_config, symObjAddr: 0x229C, symBinAddr: 0x10002046C, symSize: 0x24 }
  - { offset: 0x45436, size: 0x8, addend: 0x0, symName: __RNCNvMNtNtCsht3nMU9UgFu_3std4hash6randomNtB4_11RandomState3new0Cs23PVZzqjOzE_10pkg_config, symObjAddr: 0x18F0, symBinAddr: 0x10001FAC0, symSize: 0x2C }
  - { offset: 0x45541, size: 0x8, addend: 0x0, symName: __RNvXs2_NtNtCsht3nMU9UgFu_3std4hash6randomNtB5_13DefaultHasherNtNtCsaNl6UpbT7bw_4core4hash6Hasher6finishCs23PVZzqjOzE_10pkg_config, symObjAddr: 0x2C18, symBinAddr: 0x100020CF0, symSize: 0x2C }
  - { offset: 0x4558A, size: 0x8, addend: 0x0, symName: __RNvXs2_NtNtCsht3nMU9UgFu_3std4hash6randomNtB5_13DefaultHasherNtNtCsaNl6UpbT7bw_4core4hash6Hasher9write_strCs23PVZzqjOzE_10pkg_config, symObjAddr: 0x2C44, symBinAddr: 0x100020D1C, symSize: 0x38 }
  - { offset: 0x455EB, size: 0x8, addend: 0x0, symName: __RNvXs_NtNtCsht3nMU9UgFu_3std4hash6randomNtB4_11RandomStateNtNtCsaNl6UpbT7bw_4core4hash11BuildHasher12build_hasherCs23PVZzqjOzE_10pkg_config, symObjAddr: 0x30E0, symBinAddr: 0x1000211B8, symSize: 0xCC }
  - { offset: 0x45961, size: 0x8, addend: 0x0, symName: __RINvXs3_NtNtCsiTraAjBDcu4_5alloc3vec9into_iterINtB6_8IntoIterReENtNtNtNtCsaNl6UpbT7bw_4core4iter6traits8iterator8Iterator4folduNCINvNtNtB16_8adapters3map8map_foldBX_NtNtBa_6string6StringuNvYB2D_INtNtB18_7convert4FromBX_E4fromNCINvNvB10_8for_each4callB2D_NCINvMsi_B8_INtB8_3VecB2D_E14extend_trustedINtB26_3MapBI_B2Z_EE0E0E0ECs23PVZzqjOzE_10pkg_config, symObjAddr: 0xD58, symBinAddr: 0x10001EF9C, symSize: 0x124 }
  - { offset: 0x45B2D, size: 0x8, addend: 0x0, symName: __RNvXs3_NtNtCsiTraAjBDcu4_5alloc3vec9into_iterINtB5_8IntoIterReENtNtNtNtCsaNl6UpbT7bw_4core4iter6traits8iterator8Iterator4nextCs23PVZzqjOzE_10pkg_config, symObjAddr: 0x2C7C, symBinAddr: 0x100020D54, symSize: 0xB8 }
  - { offset: 0x45CA6, size: 0x8, addend: 0x0, symName: __RNvXs3_NtNtCsiTraAjBDcu4_5alloc3vec9into_iterINtB5_8IntoIterReENtNtNtNtCsaNl6UpbT7bw_4core4iter6traits8iterator8Iterator9size_hintCs23PVZzqjOzE_10pkg_config, symObjAddr: 0x2D34, symBinAddr: 0x100020E0C, symSize: 0x6C }
  - { offset: 0x45D9B, size: 0x8, addend: 0x0, symName: __RNvXNvXsd_NtNtCsiTraAjBDcu4_5alloc3vec9into_iterINtB8_8IntoIterppENtNtNtCsaNl6UpbT7bw_4core3ops4drop4Drop4dropINtB2_9DropGuardReNtNtBc_5alloc6GlobalEB12_4dropCs23PVZzqjOzE_10pkg_config, symObjAddr: 0x248C, symBinAddr: 0x10002062C, symSize: 0x7C }
  - { offset: 0x45ED1, size: 0x8, addend: 0x0, symName: __RNvXsd_NtNtCsiTraAjBDcu4_5alloc3vec9into_iterINtB5_8IntoIterReENtNtNtCsaNl6UpbT7bw_4core3ops4drop4Drop4dropCs23PVZzqjOzE_10pkg_config, symObjAddr: 0x3238, symBinAddr: 0x100021310, symSize: 0x8C }
  - { offset: 0x46066, size: 0x8, addend: 0x0, symName: __RNvXs_NtCsiTraAjBDcu4_5alloc5allocNtB4_6GlobalNtNtCsaNl6UpbT7bw_4core5alloc9Allocator10deallocateCs23PVZzqjOzE_10pkg_config, symObjAddr: 0x2FC8, symBinAddr: 0x1000210A0, symSize: 0x80 }
  - { offset: 0x4612D, size: 0x8, addend: 0x0, symName: __RNvXs_NtCsiTraAjBDcu4_5alloc5allocNtB4_6GlobalNtNtCsaNl6UpbT7bw_4core5alloc9Allocator8allocateCs23PVZzqjOzE_10pkg_config, symObjAddr: 0x3048, symBinAddr: 0x100021120, symSize: 0x34 }
  - { offset: 0x46168, size: 0x8, addend: 0x0, symName: __RNvNtCsiTraAjBDcu4_5alloc5alloc15exchange_mallocCs23PVZzqjOzE_10pkg_config, symObjAddr: 0x20EC, symBinAddr: 0x1000202BC, symSize: 0xAC }
  - { offset: 0x46204, size: 0x8, addend: 0x0, symName: __RNvXs1_NtCsiTraAjBDcu4_5alloc5allocNtB5_6GlobalNtNtCsaNl6UpbT7bw_4core5clone5Clone5cloneCs23PVZzqjOzE_10pkg_config, symObjAddr: 0x28D4, symBinAddr: 0x1000209AC, symSize: 0x10 }
  - { offset: 0x465B2, size: 0x8, addend: 0x0, symName: __RNvXs1_NtCsiTraAjBDcu4_5alloc7raw_vecINtB5_6RawVecINtNtB7_3vec3VecNtNtB7_6string6StringEENtNtNtCsaNl6UpbT7bw_4core3ops4drop4Drop4dropCs23PVZzqjOzE_10pkg_config, symObjAddr: 0x28E4, symBinAddr: 0x1000209BC, symSize: 0x34 }
  - { offset: 0x465EE, size: 0x8, addend: 0x0, symName: __RNvXs1_NtCsiTraAjBDcu4_5alloc7raw_vecINtB5_6RawVecINtNtB7_5boxed3BoxDINtNtNtCsaNl6UpbT7bw_4core3ops8function5FnMutuEp6OutputINtNtB1c_6result6ResultuNtNtNtCsht3nMU9UgFu_3std2io5error5ErrorENtNtB1c_6marker4SyncNtB32_4SendEL_EENtNtB1a_4drop4Drop4dropCs23PVZzqjOzE_10pkg_config, symObjAddr: 0x2918, symBinAddr: 0x1000209F0, symSize: 0x34 }
  - { offset: 0x4662A, size: 0x8, addend: 0x0, symName: __RNvXs1_NtCsiTraAjBDcu4_5alloc7raw_vecINtB5_6RawVecNtNtB7_6string6StringENtNtNtCsaNl6UpbT7bw_4core3ops4drop4Drop4dropCs23PVZzqjOzE_10pkg_config, symObjAddr: 0x294C, symBinAddr: 0x100020A24, symSize: 0x34 }
  - { offset: 0x46666, size: 0x8, addend: 0x0, symName: __RNvXs1_NtCsiTraAjBDcu4_5alloc7raw_vecINtB5_6RawVecNtNtCsht3nMU9UgFu_3std4path7PathBufENtNtNtCsaNl6UpbT7bw_4core3ops4drop4Drop4dropCs23PVZzqjOzE_10pkg_config, symObjAddr: 0x2980, symBinAddr: 0x100020A58, symSize: 0x34 }
  - { offset: 0x466A2, size: 0x8, addend: 0x0, symName: __RNvXs1_NtCsiTraAjBDcu4_5alloc7raw_vecINtB5_6RawVecNtNtNtCsht3nMU9UgFu_3std3ffi6os_str8OsStringENtNtNtCsaNl6UpbT7bw_4core3ops4drop4Drop4dropCs23PVZzqjOzE_10pkg_config, symObjAddr: 0x29B4, symBinAddr: 0x100020A8C, symSize: 0x34 }
  - { offset: 0x466DE, size: 0x8, addend: 0x0, symName: __RNvXs1_NtCsiTraAjBDcu4_5alloc7raw_vecINtB5_6RawVecPaENtNtNtCsaNl6UpbT7bw_4core3ops4drop4Drop4dropCs23PVZzqjOzE_10pkg_config, symObjAddr: 0x29E8, symBinAddr: 0x100020AC0, symSize: 0x30 }
  - { offset: 0x4671A, size: 0x8, addend: 0x0, symName: __RNvXs1_NtCsiTraAjBDcu4_5alloc7raw_vecINtB5_6RawVecReENtNtNtCsaNl6UpbT7bw_4core3ops4drop4Drop4dropCs23PVZzqjOzE_10pkg_config, symObjAddr: 0x2A18, symBinAddr: 0x100020AF0, symSize: 0x34 }
  - { offset: 0x46756, size: 0x8, addend: 0x0, symName: __RNvXs1_NtCsiTraAjBDcu4_5alloc7raw_vecINtB5_6RawVecTNtNtNtCsht3nMU9UgFu_3std3ffi6os_str8OsStringBN_EENtNtNtCsaNl6UpbT7bw_4core3ops4drop4Drop4dropCs23PVZzqjOzE_10pkg_config, symObjAddr: 0x2A4C, symBinAddr: 0x100020B24, symSize: 0x34 }
  - { offset: 0x468B2, size: 0x8, addend: 0x0, symName: __RNvXsB_NtCsiTraAjBDcu4_5alloc6stringINtNtB7_6borrow3CoweENtB5_12SpecToString14spec_to_stringCs23PVZzqjOzE_10pkg_config, symObjAddr: 0x2DA0, symBinAddr: 0x100020E78, symSize: 0x10C }
  - { offset: 0x46B26, size: 0x8, addend: 0x0, symName: __RNvXsw_NtCsiTraAjBDcu4_5alloc6stringINtNtB7_6borrow3CoweENtB5_8ToString9to_stringCs23PVZzqjOzE_10pkg_config, symObjAddr: 0x32C4, symBinAddr: 0x10002139C, symSize: 0x24 }
  - { offset: 0x46D9A, size: 0x8, addend: 0x0, symName: __RINvNtNtNtCsiTraAjBDcu4_5alloc11collections5btree3mem7replaceINtNtB4_4node6HandleINtB10_7NodeRefNtNtB10_6marker5DyingNtNtNtCsht3nMU9UgFu_3std3ffi6os_str8OsStringINtNtCsaNl6UpbT7bw_4core6option6OptionB1R_ENtB1y_4LeafENtB1y_4EdgeEIBY_IB1i_B1w_B1R_B2z_NtB1y_14LeafOrInternalENtB1y_2KVENCINvMsm_NtB4_8navigateBX_27deallocating_next_uncheckedNtNtB8_5alloc6GlobalE0ECs23PVZzqjOzE_10pkg_config, symObjAddr: 0xA70, symBinAddr: 0x10001ECB4, symSize: 0xCC }
  - { offset: 0x46FC1, size: 0x8, addend: 0x0, symName: __RNvXs2_NtCsiTraAjBDcu4_5alloc6borrowINtB5_3CoweENtNtNtCsaNl6UpbT7bw_4core3ops5deref5Deref5derefCs23PVZzqjOzE_10pkg_config, symObjAddr: 0x2B10, symBinAddr: 0x100020BE8, symSize: 0x80 }
  - { offset: 0x470F3, size: 0x8, addend: 0x0, symName: __RNvXsb_NtCsiTraAjBDcu4_5alloc6borrowINtB5_3CoweENtNtCsaNl6UpbT7bw_4core3fmt7Display3fmtCs23PVZzqjOzE_10pkg_config, symObjAddr: 0x31AC, symBinAddr: 0x100021284, symSize: 0x8C }
  - { offset: 0x47422, size: 0x8, addend: 0x0, symName: __RINvMNtCsaNl6UpbT7bw_4core6optionINtB3_6OptionNtNtNtCsht3nMU9UgFu_3std3ffi6os_str8OsStringE14unwrap_or_elseNCNvMs3_Cs23PVZzqjOzE_10pkg_configNtB1P_6Config3run0EB1P_, symObjAddr: 0x0, symBinAddr: 0x10001E2A8, symSize: 0x70 }
  - { offset: 0x474DE, size: 0x8, addend: 0x0, symName: __RINvMNtCsaNl6UpbT7bw_4core6optionINtB3_6OptionNtNtNtCsht3nMU9UgFu_3std3ffi6os_str8OsStringE7or_elseNCNvMs3_Cs23PVZzqjOzE_10pkg_configNtB1H_6Config16targeted_env_var0EB1H_, symObjAddr: 0x70, symBinAddr: 0x10001E318, symSize: 0xE4 }
  - { offset: 0x47542, size: 0x8, addend: 0x0, symName: __RINvMNtCsaNl6UpbT7bw_4core6optionINtB3_6OptionNtNtNtCsht3nMU9UgFu_3std3ffi6os_str8OsStringE7or_elseNCNvMs3_Cs23PVZzqjOzE_10pkg_configNtB1H_6Config16targeted_env_vars0_0EB1H_, symObjAddr: 0x154, symBinAddr: 0x10001E3FC, symSize: 0xE0 }
  - { offset: 0x475A5, size: 0x8, addend: 0x0, symName: __RINvMNtCsaNl6UpbT7bw_4core6optionINtB3_6OptionNtNtNtCsht3nMU9UgFu_3std3ffi6os_str8OsStringE7or_elseNCNvMs3_Cs23PVZzqjOzE_10pkg_configNtB1H_6Config16targeted_env_vars_0EB1H_, symObjAddr: 0x234, symBinAddr: 0x10001E4DC, symSize: 0xE4 }
  - { offset: 0x47730, size: 0x8, addend: 0x0, symName: __RINvMNtCsaNl6UpbT7bw_4core6optionINtB3_6OptionReE11map_or_elseNtNtCsiTraAjBDcu4_5alloc6string6StringNCNvNtB12_3fmt6format0NvYeNtNtB12_6borrow7ToOwned8to_ownedECs23PVZzqjOzE_10pkg_config, symObjAddr: 0x318, symBinAddr: 0x10001E5C0, symSize: 0xCC }
  - { offset: 0x477B3, size: 0x8, addend: 0x0, symName: __RINvMNtCsaNl6UpbT7bw_4core6optionINtB3_6OptionReE3mapNtNtCsiTraAjBDcu4_5alloc6string6StringNCNvMs5_Cs23PVZzqjOzE_10pkg_configNtB1z_7Library17parse_libs_cflagss2_0EB1z_, symObjAddr: 0x3E4, symBinAddr: 0x10001E68C, symSize: 0x78 }
  - { offset: 0x4781E, size: 0x8, addend: 0x0, symName: __RINvMNtCsaNl6UpbT7bw_4core6optionINtB3_6OptionbE14unwrap_or_elseNCNvMs3_Cs23PVZzqjOzE_10pkg_configNtB18_6Config9is_static0EB18_, symObjAddr: 0x45C, symBinAddr: 0x10001E704, symSize: 0x78 }
  - { offset: 0x47C58, size: 0x8, addend: 0x0, symName: __RNvMNtCsaNl6UpbT7bw_4core6optionINtB2_6OptionNtNtNtCsht3nMU9UgFu_3std3ffi6os_str8OsStringE17unwrap_or_defaultCs23PVZzqjOzE_10pkg_config, symObjAddr: 0x1AC0, symBinAddr: 0x10001FC90, symSize: 0x70 }
  - { offset: 0x47CCC, size: 0x8, addend: 0x0, symName: __RNvMNtCsaNl6UpbT7bw_4core6optionINtB2_6OptionNtNtNtCsht3nMU9UgFu_3std3ffi6os_str8OsStringE7is_noneCs23PVZzqjOzE_10pkg_config, symObjAddr: 0x1B30, symBinAddr: 0x10001FD00, symSize: 0x2C }
  - { offset: 0x47D16, size: 0x8, addend: 0x0, symName: __RNvMNtCsaNl6UpbT7bw_4core6optionINtB2_6OptionNtNtNtCsht3nMU9UgFu_3std3ffi6os_str8OsStringE7is_someCs23PVZzqjOzE_10pkg_config, symObjAddr: 0x1B5C, symBinAddr: 0x10001FD2C, symSize: 0x2C }
  - { offset: 0x47EC2, size: 0x8, addend: 0x0, symName: __RNvMNtCsiTraAjBDcu4_5alloc5allocNtB2_6Global10alloc_implCs23PVZzqjOzE_10pkg_config, symObjAddr: 0x1B88, symBinAddr: 0x10001FD58, symSize: 0x204 }
  - { offset: 0x483E6, size: 0x8, addend: 0x0, symName: __RNvMNtNtNtCsht3nMU9UgFu_3std11collections4hash3mapINtB2_7HashMapNtNtCsiTraAjBDcu4_5alloc6string6StringINtNtCsaNl6UpbT7bw_4core6option6OptionB10_EE3newCs23PVZzqjOzE_10pkg_config, symObjAddr: 0x1D8C, symBinAddr: 0x10001FF5C, symSize: 0x7C }
  - { offset: 0x484E7, size: 0x8, addend: 0x0, symName: __RNvMs0_NtCsiTraAjBDcu4_5alloc7raw_vecINtB5_6RawVecINtNtB7_3vec3VecNtNtB7_6string6StringEE8grow_oneCs23PVZzqjOzE_10pkg_config, symObjAddr: 0x1E08, symBinAddr: 0x10001FFD8, symSize: 0x90 }
  - { offset: 0x48595, size: 0x8, addend: 0x0, symName: __RNvMs0_NtCsiTraAjBDcu4_5alloc7raw_vecINtB5_6RawVecNtNtCsht3nMU9UgFu_3std4path7PathBufE8grow_oneCs23PVZzqjOzE_10pkg_config, symObjAddr: 0x1E98, symBinAddr: 0x100020068, symSize: 0x90 }
  - { offset: 0x48643, size: 0x8, addend: 0x0, symName: __RNvMs0_NtCsiTraAjBDcu4_5alloc7raw_vecINtB5_6RawVecReE8grow_oneCs23PVZzqjOzE_10pkg_config, symObjAddr: 0x1F28, symBinAddr: 0x1000200F8, symSize: 0x90 }
  - { offset: 0x486B9, size: 0x8, addend: 0x0, symName: __RNvMs0_NtNtNtCsht3nMU9UgFu_3std11collections4hash3mapINtB5_7HashMapNtNtCsiTraAjBDcu4_5alloc6string6StringINtNtCsaNl6UpbT7bw_4core6option6OptionB13_EE6insertCs23PVZzqjOzE_10pkg_config, symObjAddr: 0x1FB8, symBinAddr: 0x100020188, symSize: 0x24 }
  - { offset: 0x487B1, size: 0x8, addend: 0x0, symName: __RNvMs2_NtCsiTraAjBDcu4_5alloc7raw_vecNtB5_11RawVecInner16with_capacity_inCs23PVZzqjOzE_10pkg_config, symObjAddr: 0x1FDC, symBinAddr: 0x1000201AC, symSize: 0x110 }
  - { offset: 0x490CD, size: 0x8, addend: 0x0, symName: __RINvMNtCsiTraAjBDcu4_5alloc5sliceSNtNtB5_6string6String4joinReECs23PVZzqjOzE_10pkg_config, symObjAddr: 0x0, symBinAddr: 0x100021484, symSize: 0x34 }
  - { offset: 0x49133, size: 0x8, addend: 0x0, symName: __RNvXNvNtCsht3nMU9UgFu_3std2io17default_write_fmtINtB2_7AdapterNtNtNtNtB6_3sys5stdio4unix6StderrENtNtCsaNl6UpbT7bw_4core3fmt5Write9write_strCs23PVZzqjOzE_10pkg_config, symObjAddr: 0x2B98, symBinAddr: 0x100023F34, symSize: 0xB4 }
  - { offset: 0x493E3, size: 0x8, addend: 0x0, symName: __RINvNtCsht3nMU9UgFu_3std2io17default_write_fmtNtNtNtNtB4_3sys5stdio4unix6StderrECs23PVZzqjOzE_10pkg_config, symObjAddr: 0x588, symBinAddr: 0x10002194C, symSize: 0x120 }
  - { offset: 0x4951C, size: 0x8, addend: 0x0, symName: __RNvXsX_NtNtCsht3nMU9UgFu_3std3ffi6os_strNtNtCsiTraAjBDcu4_5alloc6string6StringINtNtCsaNl6UpbT7bw_4core7convert5AsRefNtB5_5OsStrE6as_refCs23PVZzqjOzE_10pkg_config, symObjAddr: 0x2FCC, symBinAddr: 0x1000242F0, symSize: 0x80 }
  - { offset: 0x496EC, size: 0x8, addend: 0x0, symName: __RNvXs1i_NtCsht3nMU9UgFu_3std4pathNtNtCsiTraAjBDcu4_5alloc6string6StringINtNtCsaNl6UpbT7bw_4core7convert5AsRefNtB6_4PathE6as_refCs23PVZzqjOzE_10pkg_config, symObjAddr: 0x2DAC, symBinAddr: 0x100024148, symSize: 0x24 }
  - { offset: 0x49C03, size: 0x8, addend: 0x0, symName: __RNvNvMs1_NtNtCsaNl6UpbT7bw_4core3ptr8non_nullINtB7_7NonNullpE13new_unchecked18precondition_checkCs23PVZzqjOzE_10pkg_config, symObjAddr: 0x19D0, symBinAddr: 0x100022D6C, symSize: 0xA4 }
  - { offset: 0x49F7E, size: 0x8, addend: 0x0, symName: __RINvNtCsaNl6UpbT7bw_4core3ptr10swap_chunkKj1_ECs23PVZzqjOzE_10pkg_config, symObjAddr: 0x210, symBinAddr: 0x100021694, symSize: 0x3C }
  - { offset: 0x49FB7, size: 0x8, addend: 0x0, symName: __RINvNtCsaNl6UpbT7bw_4core3ptr10swap_chunkKj2_ECs23PVZzqjOzE_10pkg_config, symObjAddr: 0x24C, symBinAddr: 0x1000216D0, symSize: 0x3C }
  - { offset: 0x49FF0, size: 0x8, addend: 0x0, symName: __RINvNtCsaNl6UpbT7bw_4core3ptr10swap_chunkKj4_ECs23PVZzqjOzE_10pkg_config, symObjAddr: 0x288, symBinAddr: 0x10002170C, symSize: 0x3C }
  - { offset: 0x4A029, size: 0x8, addend: 0x0, symName: __RINvNtCsaNl6UpbT7bw_4core3ptr10swap_chunkKj8_ECs23PVZzqjOzE_10pkg_config, symObjAddr: 0x2C4, symBinAddr: 0x100021748, symSize: 0x3C }
  - { offset: 0x4A09D, size: 0x8, addend: 0x0, symName: __RINvNtCsaNl6UpbT7bw_4core3ptr14read_unalignedNtNtNtNtB4_9core_arch10arm_shared4neon9uint8x8_tECs23PVZzqjOzE_10pkg_config, symObjAddr: 0x300, symBinAddr: 0x100021784, symSize: 0x94 }
  - { offset: 0x4A1AC, size: 0x8, addend: 0x0, symName: __RINvNtCsaNl6UpbT7bw_4core3ptr15write_unalignedNtNtNtNtB4_9core_arch10arm_shared4neon9uint8x8_tECs23PVZzqjOzE_10pkg_config, symObjAddr: 0x394, symBinAddr: 0x100021818, symSize: 0x78 }
  - { offset: 0x4A40A, size: 0x8, addend: 0x0, symName: __RNvNvNtCsaNl6UpbT7bw_4core3ptr19swap_nonoverlapping18precondition_checkCs23PVZzqjOzE_10pkg_config, symObjAddr: 0x1DE0, symBinAddr: 0x10002317C, symSize: 0x38C }
  - { offset: 0x4A6EA, size: 0x8, addend: 0x0, symName: __RINvNtCsaNl6UpbT7bw_4core3ptr19swap_nonoverlappinghECs23PVZzqjOzE_10pkg_config, symObjAddr: 0x4CC, symBinAddr: 0x100021890, symSize: 0xBC }
  - { offset: 0x4A82A, size: 0x8, addend: 0x0, symName: __RINvNvNtCsaNl6UpbT7bw_4core3ptr25swap_nonoverlapping_bytes26swap_nonoverlapping_chunksKj8_ECs23PVZzqjOzE_10pkg_config, symObjAddr: 0x6A8, symBinAddr: 0x100021A6C, symSize: 0xE4 }
  - { offset: 0x4A9C8, size: 0x8, addend: 0x0, symName: __RNvNvNtCsaNl6UpbT7bw_4core3ptr25swap_nonoverlapping_bytes25swap_nonoverlapping_shortCs23PVZzqjOzE_10pkg_config, symObjAddr: 0x216C, symBinAddr: 0x100023508, symSize: 0x120 }
  - { offset: 0x4AF28, size: 0x8, addend: 0x0, symName: __RNvNtCsaNl6UpbT7bw_4core3ptr25swap_nonoverlapping_bytesCs23PVZzqjOzE_10pkg_config, symObjAddr: 0x1738, symBinAddr: 0x100022AD4, symSize: 0xD8 }
  - { offset: 0x4B0D1, size: 0x8, addend: 0x0, symName: __RNvNvNtCsaNl6UpbT7bw_4core3ptr19copy_nonoverlapping18precondition_checkCs23PVZzqjOzE_10pkg_config, symObjAddr: 0x1A74, symBinAddr: 0x100022E10, symSize: 0x36C }
  - { offset: 0x4B384, size: 0x8, addend: 0x0, symName: __RNvNvNtCsaNl6UpbT7bw_4core3ptr7replace18precondition_checkCs23PVZzqjOzE_10pkg_config, symObjAddr: 0x228C, symBinAddr: 0x100023628, symSize: 0x16C }
  - { offset: 0x4B8E6, size: 0x8, addend: 0x0, symName: __RNvXs8_NtNtCsaNl6UpbT7bw_4core3str5errorNtB5_9Utf8ErrorNtNtB9_3fmt5Debug3fmtCs23PVZzqjOzE_10pkg_config, symObjAddr: 0x2E58, symBinAddr: 0x1000241F4, symSize: 0x88 }
  - { offset: 0x4C5E8, size: 0x8, addend: 0x0, symName: __RNvXs19_NtCsaNl6UpbT7bw_4core3fmtRNtNtNtB8_3str5error9Utf8ErrorNtB6_5Debug3fmtCs23PVZzqjOzE_10pkg_config, symObjAddr: 0x2C78, symBinAddr: 0x100024014, symSize: 0x30 }
  - { offset: 0x4C634, size: 0x8, addend: 0x0, symName: __RNvXs1b_NtCsaNl6UpbT7bw_4core3fmtRNtNtCsiTraAjBDcu4_5alloc6string6StringNtB6_7Display3fmtCs23PVZzqjOzE_10pkg_config, symObjAddr: 0x2D50, symBinAddr: 0x1000240EC, symSize: 0x30 }
  - { offset: 0x4C68A, size: 0x8, addend: 0x0, symName: __RNvXs_NvNtNtCsaNl6UpbT7bw_4core3fmt5Write9write_fmtQINtNvNtCsht3nMU9UgFu_3std2io17default_write_fmt7AdapterNtNtNtNtBV_3sys5stdio4unix6StderrENtB4_12SpecWriteFmt14spec_write_fmtCs23PVZzqjOzE_10pkg_config, symObjAddr: 0x309C, symBinAddr: 0x1000243C0, symSize: 0x160 }
  - { offset: 0x4C739, size: 0x8, addend: 0x0, symName: __RNvYINtNvNtCsht3nMU9UgFu_3std2io17default_write_fmt7AdapterNtNtNtNtB9_3sys5stdio4unix6StderrENtNtCsaNl6UpbT7bw_4core3fmt5Write10write_charCs23PVZzqjOzE_10pkg_config, symObjAddr: 0x3658, symBinAddr: 0x10002481C, symSize: 0x70 }
  - { offset: 0x4C7A1, size: 0x8, addend: 0x0, symName: __RNvYINtNvNtCsht3nMU9UgFu_3std2io17default_write_fmt7AdapterNtNtNtNtB9_3sys5stdio4unix6StderrENtNtCsaNl6UpbT7bw_4core3fmt5Write9write_fmtCs23PVZzqjOzE_10pkg_config, symObjAddr: 0x36C8, symBinAddr: 0x10002488C, symSize: 0x24 }
  - { offset: 0x4C898, size: 0x8, addend: 0x0, symName: __RINvYINtNtNtNtCsaNl6UpbT7bw_4core4iter8adapters6filter6FilterINtNtNtBc_5slice4iter4IterNtNtCsiTraAjBDcu4_5alloc6string6StringENCNvMs5_Cs23PVZzqjOzE_10pkg_configNtB28_7Library17parse_libs_cflagss0_0ENtNtNtBa_6traits8iterator8Iterator3mapTReB3N_ENCB22_s1_0EB28_, symObjAddr: 0x9AC, symBinAddr: 0x100021D70, symSize: 0x1C }
  - { offset: 0x4C8FC, size: 0x8, addend: 0x0, symName: __RNvXNtNtNtCsaNl6UpbT7bw_4core4iter6traits7collectINtNtNtB6_8adapters6filter6FilterINtNtNtB8_5slice4iter4IterNtNtCsiTraAjBDcu4_5alloc6string6StringENCNvMs5_Cs23PVZzqjOzE_10pkg_configNtB2t_7Library17parse_libs_cflagss4_0ENtB2_12IntoIterator9into_iterB2t_, symObjAddr: 0x2B7C, symBinAddr: 0x100023F18, symSize: 0x1C }
  - { offset: 0x4C9A4, size: 0x8, addend: 0x0, symName: __RNvXs1_NtNtNtCsaNl6UpbT7bw_4core4iter8adapters6filterINtB5_6FilterINtNtNtBb_5slice4iter4IterNtNtCsiTraAjBDcu4_5alloc6string6StringENCNvMs5_Cs23PVZzqjOzE_10pkg_configNtB2d_7Library17parse_libs_cflagss0_0ENtNtNtB9_6traits8iterator8Iterator4nextB2d_, symObjAddr: 0x2CF8, symBinAddr: 0x100024094, symSize: 0x2C }
  - { offset: 0x4C9E2, size: 0x8, addend: 0x0, symName: __RNvXs1_NtNtNtCsaNl6UpbT7bw_4core4iter8adapters6filterINtB5_6FilterINtNtNtBb_5slice4iter4IterNtNtCsiTraAjBDcu4_5alloc6string6StringENCNvMs5_Cs23PVZzqjOzE_10pkg_configNtB2d_7Library17parse_libs_cflagss4_0ENtNtNtB9_6traits8iterator8Iterator4nextB2d_, symObjAddr: 0x2D24, symBinAddr: 0x1000240C0, symSize: 0x2C }
  - { offset: 0x4CC98, size: 0x8, addend: 0x0, symName: __RINvXs3_NtNtCsaNl6UpbT7bw_4core4hash5implsRNtNtCsiTraAjBDcu4_5alloc6string6StringNtB8_4Hash4hashNtNtNtCsht3nMU9UgFu_3std4hash6random13DefaultHasherECs23PVZzqjOzE_10pkg_config, symObjAddr: 0x78C, symBinAddr: 0x100021B50, symSize: 0x30 }
  - { offset: 0x4CE7C, size: 0x8, addend: 0x0, symName: __RNvNvNtNtCsaNl6UpbT7bw_4core5slice3raw14from_raw_parts18precondition_checkCs23PVZzqjOzE_10pkg_config, symObjAddr: 0x23F8, symBinAddr: 0x100023794, symSize: 0x1DC }
  - { offset: 0x4D000, size: 0x8, addend: 0x0, symName: __RNvNvNtNtCsaNl6UpbT7bw_4core5slice3raw18from_raw_parts_mut18precondition_checkCs23PVZzqjOzE_10pkg_config, symObjAddr: 0x25D4, symBinAddr: 0x100023970, symSize: 0x1DC }
  - { offset: 0x4D27F, size: 0x8, addend: 0x0, symName: __RNCNvXsf_NtNtCsaNl6UpbT7bw_4core5slice3cmpReNtB7_13SliceContains14slice_contains0Cs23PVZzqjOzE_10pkg_config, symObjAddr: 0xA54, symBinAddr: 0x100021E18, symSize: 0x38 }
  - { offset: 0x4D2C9, size: 0x8, addend: 0x0, symName: __RNvXsf_NtNtCsaNl6UpbT7bw_4core5slice3cmpReNtB5_13SliceContains14slice_containsCs23PVZzqjOzE_10pkg_config, symObjAddr: 0x335C, symBinAddr: 0x100024520, symSize: 0x78 }
  - { offset: 0x4D410, size: 0x8, addend: 0x0, symName: __RNvMNtCsaNl6UpbT7bw_4core5sliceSNtNtCsiTraAjBDcu4_5alloc6string6String4iterCs23PVZzqjOzE_10pkg_config, symObjAddr: 0xA8C, symBinAddr: 0x100021E50, symSize: 0x28 }
  - { offset: 0x4D447, size: 0x8, addend: 0x0, symName: __RNvMNtCsaNl6UpbT7bw_4core5sliceSRe8containsCs23PVZzqjOzE_10pkg_config, symObjAddr: 0xADC, symBinAddr: 0x100021E78, symSize: 0x48 }
  - { offset: 0x4D4B9, size: 0x8, addend: 0x0, symName: __RNvNvMNtCsaNl6UpbT7bw_4core5sliceSp22split_at_mut_unchecked18precondition_checkCs23PVZzqjOzE_10pkg_config, symObjAddr: 0x1924, symBinAddr: 0x100022CC0, symSize: 0xAC }
  - { offset: 0x4D668, size: 0x8, addend: 0x0, symName: __RNvNtNtCsaNl6UpbT7bw_4core5slice6memchr6memchrCs23PVZzqjOzE_10pkg_config, symObjAddr: 0x1810, symBinAddr: 0x100022BAC, symSize: 0x114 }
  - { offset: 0x4D6DD, size: 0x8, addend: 0x0, symName: __RNvNvXs0_NtNtCsaNl6UpbT7bw_4core5slice5indexjINtB7_10SliceIndexSpE13get_unchecked18precondition_checkCs23PVZzqjOzE_10pkg_config, symObjAddr: 0x27B0, symBinAddr: 0x100023B4C, symSize: 0xAC }
  - { offset: 0x4D74B, size: 0x8, addend: 0x0, symName: __RNvNvXs0_NtNtCsaNl6UpbT7bw_4core5slice5indexjINtB7_10SliceIndexSpE17get_unchecked_mut18precondition_checkCs23PVZzqjOzE_10pkg_config, symObjAddr: 0x285C, symBinAddr: 0x100023BF8, symSize: 0xAC }
  - { offset: 0x4D7BF, size: 0x8, addend: 0x0, symName: __RNvNvXs2_NtNtCsaNl6UpbT7bw_4core5slice5indexINtNtNtBb_3ops5range5RangejEINtB7_10SliceIndexSpE13get_unchecked18precondition_checkCs23PVZzqjOzE_10pkg_config, symObjAddr: 0x2908, symBinAddr: 0x100023CA4, symSize: 0xCC }
  - { offset: 0x4D83B, size: 0x8, addend: 0x0, symName: __RNvNvXs2_NtNtCsaNl6UpbT7bw_4core5slice5indexINtNtNtBb_3ops5range5RangejEINtB7_10SliceIndexSpE17get_unchecked_mut18precondition_checkCs23PVZzqjOzE_10pkg_config, symObjAddr: 0x29D4, symBinAddr: 0x100023D70, symSize: 0xCC }
  - { offset: 0x4D941, size: 0x8, addend: 0x0, symName: __RNvXNtCsaNl6UpbT7bw_4core7convertRNtNtCsiTraAjBDcu4_5alloc6string6StringINtB2_5AsRefNtNtCsht3nMU9UgFu_3std4path4PathE6as_refCs23PVZzqjOzE_10pkg_config, symObjAddr: 0x2B04, symBinAddr: 0x100023EA0, symSize: 0x28 }
  - { offset: 0x4D981, size: 0x8, addend: 0x0, symName: __RNvXNtCsaNl6UpbT7bw_4core7convertRNtNtCsiTraAjBDcu4_5alloc6string6StringINtB2_5AsRefNtNtNtCsht3nMU9UgFu_3std3ffi6os_str5OsStrE6as_refCs23PVZzqjOzE_10pkg_config, symObjAddr: 0x2B2C, symBinAddr: 0x100023EC8, symSize: 0x28 }
  - { offset: 0x4D9C1, size: 0x8, addend: 0x0, symName: __RNvXNtCsaNl6UpbT7bw_4core7convertRRNtNtCsiTraAjBDcu4_5alloc6string6StringINtB2_5AsRefNtNtCsht3nMU9UgFu_3std4path4PathE6as_refCs23PVZzqjOzE_10pkg_config, symObjAddr: 0x2B54, symBinAddr: 0x100023EF0, symSize: 0x28 }
  - { offset: 0x4DD1B, size: 0x8, addend: 0x0, symName: __RNvXNtCsaNl6UpbT7bw_4core6borrowNtNtCsiTraAjBDcu4_5alloc6string6StringINtB2_6BorrowBu_E6borrowCs23PVZzqjOzE_10pkg_config, symObjAddr: 0x2AF0, symBinAddr: 0x100023E8C, symSize: 0x14 }
  - { offset: 0x4E269, size: 0x8, addend: 0x0, symName: __RINvXs5_NtCsiTraAjBDcu4_5alloc6stringNtB6_6StringINtNtNtNtCsaNl6UpbT7bw_4core4iter6traits7collect12FromIteratorcE9from_iterINtNtNtBS_8adapters3map3MapIB1Y_NtNtNtBU_3str4iter5CharsNCNvCs23PVZzqjOzE_10pkg_config6envify0ENCB2T_s_0EEB2V_, symObjAddr: 0x7BC, symBinAddr: 0x100021B80, symSize: 0xA0 }
  - { offset: 0x4E2E7, size: 0x8, addend: 0x0, symName: __RINvXsb_NtCsiTraAjBDcu4_5alloc6stringNtB6_6StringINtNtNtNtCsaNl6UpbT7bw_4core4iter6traits7collect6ExtendcE6extendINtNtNtBS_8adapters3map3MapIB1O_NtNtNtBU_3str4iter5CharsNCNvCs23PVZzqjOzE_10pkg_config6envify0ENCB2J_s_0EEB2L_, symObjAddr: 0x85C, symBinAddr: 0x100021C20, symSize: 0xC0 }
  - { offset: 0x4E388, size: 0x8, addend: 0x0, symName: __RNCINvXsb_NtCsiTraAjBDcu4_5alloc6stringNtB8_6StringINtNtNtNtCsaNl6UpbT7bw_4core4iter6traits7collect6ExtendcE6extendINtNtNtBU_8adapters3map3MapIB1Q_NtNtNtBW_3str4iter5CharsNCNvCs23PVZzqjOzE_10pkg_config6envify0ENCB2L_s_0EE0B2N_, symObjAddr: 0xA20, symBinAddr: 0x100021DE4, symSize: 0x34 }
  - { offset: 0x4E44B, size: 0x8, addend: 0x0, symName: __RNvXss_NtCsiTraAjBDcu4_5alloc6stringNtB5_6StringNtNtNtCsaNl6UpbT7bw_4core3ops5deref5Deref5derefCs23PVZzqjOzE_10pkg_config, symObjAddr: 0x360C, symBinAddr: 0x1000247D0, symSize: 0x24 }
  - { offset: 0x4E47F, size: 0x8, addend: 0x0, symName: __RINvXsn_NtCsiTraAjBDcu4_5alloc6stringNtB6_6StringNtNtCsaNl6UpbT7bw_4core4hash4Hash4hashNtNtNtCsht3nMU9UgFu_3std4hash6random13DefaultHasherECs23PVZzqjOzE_10pkg_config, symObjAddr: 0x91C, symBinAddr: 0x100021CE0, symSize: 0x90 }
  - { offset: 0x4E66C, size: 0x8, addend: 0x0, symName: __RNvXsH_NtCsiTraAjBDcu4_5alloc6stringNtB5_6StringINtNtCsaNl6UpbT7bw_4core7convert4FromReE4fromCs23PVZzqjOzE_10pkg_config, symObjAddr: 0x2F04, symBinAddr: 0x1000242A0, symSize: 0x50 }
  - { offset: 0x4E759, size: 0x8, addend: 0x0, symName: __RNvXs1V_NtCsiTraAjBDcu4_5alloc6stringeNtB6_12SpecToString14spec_to_stringCs23PVZzqjOzE_10pkg_config, symObjAddr: 0x2CA8, symBinAddr: 0x100024044, symSize: 0x50 }
  - { offset: 0x4E864, size: 0x8, addend: 0x0, symName: __RNvXs1d_NtCsiTraAjBDcu4_5alloc6stringNtB6_6StringNtNtCsaNl6UpbT7bw_4core3cmp9PartialEq2eqCs23PVZzqjOzE_10pkg_config, symObjAddr: 0x2D80, symBinAddr: 0x10002411C, symSize: 0x2C }
  - { offset: 0x4E8A7, size: 0x8, addend: 0x0, symName: __RNvXs1i_NtCsiTraAjBDcu4_5alloc6stringNtB6_13FromUtf8ErrorNtNtCsaNl6UpbT7bw_4core3fmt5Debug3fmtCs23PVZzqjOzE_10pkg_config, symObjAddr: 0x2DD0, symBinAddr: 0x10002416C, symSize: 0x88 }
  - { offset: 0x4E8EA, size: 0x8, addend: 0x0, symName: __RNvXsE_NtCsiTraAjBDcu4_5alloc6stringNtB5_6StringINtNtCsaNl6UpbT7bw_4core7convert5AsRefeE6as_refCs23PVZzqjOzE_10pkg_config, symObjAddr: 0x2EE0, symBinAddr: 0x10002427C, symSize: 0x24 }
  - { offset: 0x4E93C, size: 0x8, addend: 0x0, symName: __RNvXsl_NtCsiTraAjBDcu4_5alloc6stringNtB5_6StringNtNtCsaNl6UpbT7bw_4core3fmt7Display3fmtCs23PVZzqjOzE_10pkg_config, symObjAddr: 0x33D4, symBinAddr: 0x100024598, symSize: 0x88 }
  - { offset: 0x4EAA1, size: 0x8, addend: 0x0, symName: __RNvXsq_NtCsiTraAjBDcu4_5alloc6stringNtB5_6StringINtNtNtCsaNl6UpbT7bw_4core3ops5index5IndexINtNtBP_5range5RangejEE5indexCs23PVZzqjOzE_10pkg_config, symObjAddr: 0x345C, symBinAddr: 0x100024620, symSize: 0x9C }
  - { offset: 0x4EBEB, size: 0x8, addend: 0x0, symName: __RNvXsq_NtCsiTraAjBDcu4_5alloc6stringNtB5_6StringINtNtNtCsaNl6UpbT7bw_4core3ops5index5IndexINtNtBP_5range9RangeFromjEE5indexCs23PVZzqjOzE_10pkg_config, symObjAddr: 0x34F8, symBinAddr: 0x1000246BC, symSize: 0x90 }
  - { offset: 0x4ED35, size: 0x8, addend: 0x0, symName: __RNvXsq_NtCsiTraAjBDcu4_5alloc6stringNtB5_6StringINtNtNtCsaNl6UpbT7bw_4core3ops5index5IndexNtNtBP_5range9RangeFullE5indexCs23PVZzqjOzE_10pkg_config, symObjAddr: 0x3588, symBinAddr: 0x10002474C, symSize: 0x84 }
  - { offset: 0x4EE85, size: 0x8, addend: 0x0, symName: __RNvXsw_NtCsiTraAjBDcu4_5alloc6stringeNtB5_8ToString9to_stringCs23PVZzqjOzE_10pkg_config, symObjAddr: 0x3630, symBinAddr: 0x1000247F4, symSize: 0x28 }
  - { offset: 0x4EEC8, size: 0x8, addend: 0x0, symName: __RINvMNtCsiTraAjBDcu4_5alloc5sliceSNtNtB5_6string6String4joinReECs23PVZzqjOzE_10pkg_config, symObjAddr: 0x0, symBinAddr: 0x100021484, symSize: 0x34 }
  - { offset: 0x4EF17, size: 0x8, addend: 0x0, symName: __RINvMNtCsiTraAjBDcu4_5alloc5sliceSNtNtB5_6string6String8into_vecNtNtB5_5alloc6GlobalECs23PVZzqjOzE_10pkg_config, symObjAddr: 0x34, symBinAddr: 0x1000214B8, symSize: 0x9C }
  - { offset: 0x4F410, size: 0x8, addend: 0x0, symName: __RNCINvMsm_NtNtNtCsiTraAjBDcu4_5alloc11collections5btree8navigateINtNtBa_4node6HandleINtB13_7NodeRefNtNtB13_6marker5DyingNtNtNtCsht3nMU9UgFu_3std3ffi6os_str8OsStringINtNtCsaNl6UpbT7bw_4core6option6OptionB1U_ENtB1B_4LeafENtB1B_4EdgeE27deallocating_next_uncheckedNtNtBe_5alloc6GlobalE0Cs23PVZzqjOzE_10pkg_config, symObjAddr: 0x9C8, symBinAddr: 0x100021D8C, symSize: 0x58 }
  - { offset: 0x4F921, size: 0x8, addend: 0x0, symName: __RNvXs0_NtCsiTraAjBDcu4_5alloc3strNtNtB7_6string6StringINtNtCsaNl6UpbT7bw_4core6borrow6BorroweE6borrowCs23PVZzqjOzE_10pkg_config, symObjAddr: 0x2C4C, symBinAddr: 0x100023FE8, symSize: 0x2C }
  - { offset: 0x4F991, size: 0x8, addend: 0x0, symName: __RNvXs_NtCsiTraAjBDcu4_5alloc3strSNtNtB6_6string6StringINtNtB6_5slice4JoinReE4joinCs23PVZzqjOzE_10pkg_config, symObjAddr: 0x304C, symBinAddr: 0x100024370, symSize: 0x50 }
  - { offset: 0x4FC6B, size: 0x8, addend: 0x0, symName: __RINvMsb_NtNtNtCsiTraAjBDcu4_5alloc11collections5btree8navigateINtB6_13LazyLeafRangeNtNtNtB8_4node6marker5DyingNtNtNtCsht3nMU9UgFu_3std3ffi6os_str8OsStringINtNtCsaNl6UpbT7bw_4core6option6OptionB1K_EE16deallocating_endNtNtBc_5alloc6GlobalECs23PVZzqjOzE_10pkg_config, symObjAddr: 0xD0, symBinAddr: 0x100021554, symSize: 0x98 }
  - { offset: 0x4FD3D, size: 0x8, addend: 0x0, symName: __RINvMsb_NtNtNtCsiTraAjBDcu4_5alloc11collections5btree8navigateINtB6_13LazyLeafRangeNtNtNtB8_4node6marker5DyingNtNtNtCsht3nMU9UgFu_3std3ffi6os_str8OsStringINtNtCsaNl6UpbT7bw_4core6option6OptionB1K_EE27deallocating_next_uncheckedNtNtBc_5alloc6GlobalECs23PVZzqjOzE_10pkg_config, symObjAddr: 0x168, symBinAddr: 0x1000215EC, symSize: 0xA8 }
  - { offset: 0x4FEE3, size: 0x8, addend: 0x0, symName: __RNvXCsg4dki62PTrg_9hashbrownNtNtCsiTraAjBDcu4_5alloc6string6StringINtB2_10EquivalentBq_E10equivalentCs23PVZzqjOzE_10pkg_config, symObjAddr: 0x2AA0, symBinAddr: 0x100023E3C, symSize: 0x50 }
  - { offset: 0x502FD, size: 0x8, addend: 0x0, symName: __RNvMNtCsiTraAjBDcu4_5alloc6stringNtB2_6String3lenCs23PVZzqjOzE_10pkg_config, symObjAddr: 0xB24, symBinAddr: 0x100021EC0, symSize: 0x18 }
  - { offset: 0x50345, size: 0x8, addend: 0x0, symName: __RNvMNtCsiTraAjBDcu4_5alloc6stringNtB2_6String3newCs23PVZzqjOzE_10pkg_config, symObjAddr: 0xB3C, symBinAddr: 0x100021ED8, symSize: 0x30 }
  - { offset: 0x5047E, size: 0x8, addend: 0x0, symName: __RNvMNtCsiTraAjBDcu4_5alloc6stringNtB2_6String4pushCs23PVZzqjOzE_10pkg_config, symObjAddr: 0xB6C, symBinAddr: 0x100021F08, symSize: 0xF8 }
  - { offset: 0x5070B, size: 0x8, addend: 0x0, symName: __RNvMNtCsiTraAjBDcu4_5alloc6stringNtB2_6String6as_strCs23PVZzqjOzE_10pkg_config, symObjAddr: 0xC64, symBinAddr: 0x100022000, symSize: 0x78 }
  - { offset: 0x508F4, size: 0x8, addend: 0x0, symName: __RNvMNtCsiTraAjBDcu4_5alloc6stringNtB2_6String8push_strCs23PVZzqjOzE_10pkg_config, symObjAddr: 0xCDC, symBinAddr: 0x100022078, symSize: 0x58 }
  - { offset: 0x50AE3, size: 0x8, addend: 0x0, symName: __RNvMNtCsiTraAjBDcu4_5alloc6stringNtB2_6String9from_utf8Cs23PVZzqjOzE_10pkg_config, symObjAddr: 0xD34, symBinAddr: 0x1000220D0, symSize: 0x158 }
  - { offset: 0x50BE7, size: 0x8, addend: 0x0, symName: __RNvMNtNtNtCsaNl6UpbT7bw_4core4iter8adapters7step_byINtB2_6StepByINtNtNtB8_3ops5range5RangejEE3newCs23PVZzqjOzE_10pkg_config, symObjAddr: 0xE8C, symBinAddr: 0x100022228, symSize: 0xE0 }
  - { offset: 0x50C3D, size: 0x8, addend: 0x0, symName: __RNvMNtNtNtCsg4dki62PTrg_9hashbrown7control5group4neonNtB2_5Group10match_fullCs23PVZzqjOzE_10pkg_config, symObjAddr: 0xF6C, symBinAddr: 0x100022308, symSize: 0x68 }
  - { offset: 0x50C75, size: 0x8, addend: 0x0, symName: __RNvMNtNtNtCsg4dki62PTrg_9hashbrown7control5group4neonNtB2_5Group22match_empty_or_deletedCs23PVZzqjOzE_10pkg_config, symObjAddr: 0xFD4, symBinAddr: 0x100022370, symSize: 0x68 }
  - { offset: 0x50CAD, size: 0x8, addend: 0x0, symName: __RNvMNtNtNtCsg4dki62PTrg_9hashbrown7control5group4neonNtB2_5Group44convert_special_to_empty_and_full_to_deletedCs23PVZzqjOzE_10pkg_config, symObjAddr: 0x103C, symBinAddr: 0x1000223D8, symSize: 0x88 }
  - { offset: 0x50CE5, size: 0x8, addend: 0x0, symName: __RNvMNtNtNtCsg4dki62PTrg_9hashbrown7control5group4neonNtB2_5Group9match_tagCs23PVZzqjOzE_10pkg_config, symObjAddr: 0x10C4, symBinAddr: 0x100022460, symSize: 0x7C }
  - { offset: 0x50D5C, size: 0x8, addend: 0x0, symName: __RNvMs1_NtNtCsaNl6UpbT7bw_4core3ptr8non_nullINtB5_7NonNullNtNtCsiTraAjBDcu4_5alloc6string6StringE20offset_from_unsignedCs23PVZzqjOzE_10pkg_config, symObjAddr: 0x1140, symBinAddr: 0x1000224DC, symSize: 0x7C }
  - { offset: 0x50E62, size: 0x8, addend: 0x0, symName: __RNvMs1_NtNtCsaNl6UpbT7bw_4core3ptr8non_nullINtB5_7NonNullNtNtNtCsht3nMU9UgFu_3std3ffi6os_str8OsStringE20offset_from_unsignedCs23PVZzqjOzE_10pkg_config, symObjAddr: 0x11BC, symBinAddr: 0x100022558, symSize: 0x7C }
  - { offset: 0x50F68, size: 0x8, addend: 0x0, symName: __RNvMs1_NtNtCsaNl6UpbT7bw_4core3ptr8non_nullINtB5_7NonNullReE20offset_from_unsignedCs23PVZzqjOzE_10pkg_config, symObjAddr: 0x1238, symBinAddr: 0x1000225D4, symSize: 0x7C }
  - { offset: 0x5108C, size: 0x8, addend: 0x0, symName: __RNvMs1_NtNtCsaNl6UpbT7bw_4core3ptr8non_nullINtB5_7NonNullTNtNtNtCsht3nMU9UgFu_3std3ffi6os_str8OsStringBU_EE20offset_from_unsignedCs23PVZzqjOzE_10pkg_config, symObjAddr: 0x12B4, symBinAddr: 0x100022650, symSize: 0x7C }
  - { offset: 0x51178, size: 0x8, addend: 0x0, symName: __RNvMs1_NtNtCsaNl6UpbT7bw_4core3ptr8non_nullINtB5_7NonNullhE20offset_from_unsignedCs23PVZzqjOzE_10pkg_config, symObjAddr: 0x1330, symBinAddr: 0x1000226CC, symSize: 0x7C }
  - { offset: 0x513DE, size: 0x8, addend: 0x0, symName: __RNvMsb_NtNtNtCsiTraAjBDcu4_5alloc11collections5btree8navigateINtB5_13LazyLeafRangeNtNtNtB7_4node6marker5DyingNtNtNtCsht3nMU9UgFu_3std3ffi6os_str8OsStringINtNtCsaNl6UpbT7bw_4core6option6OptionB1J_EE10take_frontCs23PVZzqjOzE_10pkg_config, symObjAddr: 0x13AC, symBinAddr: 0x100022748, symSize: 0x1C4 }
  - { offset: 0x51731, size: 0x8, addend: 0x0, symName: __RNvMsc_NtNtNtCsiTraAjBDcu4_5alloc11collections5btree8navigateINtB5_13LazyLeafRangeNtNtNtB7_4node6marker5DyingNtNtNtCsht3nMU9UgFu_3std3ffi6os_str8OsStringINtNtCsaNl6UpbT7bw_4core6option6OptionB1J_EE10init_frontCs23PVZzqjOzE_10pkg_config, symObjAddr: 0x1570, symBinAddr: 0x10002290C, symSize: 0x1C8 }
  - { offset: 0x520D1, size: 0x8, addend: 0x0, symName: __RINvMsi_NtCsiTraAjBDcu4_5alloc3vecINtB6_3VecNtNtB8_6string6StringE14extend_trustedINtNtNtNtCsaNl6UpbT7bw_4core4iter8adapters3map3MapINtNtB6_9into_iter8IntoIterReENvYBG_INtNtB1r_7convert4FromB2x_E4fromEECs23PVZzqjOzE_10pkg_config, symObjAddr: 0x0, symBinAddr: 0x1000248B0, symSize: 0x184 }
  - { offset: 0x54DF0, size: 0x8, addend: 0x0, symName: __RINvXsd_NtCsiTraAjBDcu4_5alloc3vecINtB6_3VecNtNtB8_6string6StringEINtNtNtNtCsaNl6UpbT7bw_4core4iter6traits7collect12FromIteratorBG_E9from_iterINtNtNtB19_8adapters3map3MapINtNtB6_9into_iter8IntoIterReENvYBG_INtNtB1b_7convert4FromB39_E4fromEECs23PVZzqjOzE_10pkg_config, symObjAddr: 0xC0C, symBinAddr: 0x1000252F4, symSize: 0x3C }
  - { offset: 0x54E31, size: 0x8, addend: 0x0, symName: __RINvXsd_NtCsiTraAjBDcu4_5alloc3vecINtB6_3VecNtNtB8_6string6StringEINtNtNtNtCsaNl6UpbT7bw_4core4iter6traits7collect12FromIteratorBG_E9from_iterINtNtNtB19_8adapters3map3MapINtNtNtB1b_5slice4iter4IterNtNtNtCsht3nMU9UgFu_3std3ffi6os_str8OsStringENCNvXs_Cs23PVZzqjOzE_10pkg_configNtB3Z_14WrappedCommandNtNtB1b_3fmt7Display3fmts_0EEB3Z_, symObjAddr: 0xC84, symBinAddr: 0x100025330, symSize: 0x40 }
  - { offset: 0x54E71, size: 0x8, addend: 0x0, symName: __RINvXsd_NtCsiTraAjBDcu4_5alloc3vecINtB6_3VecNtNtB8_6string6StringEINtNtNtNtCsaNl6UpbT7bw_4core4iter6traits7collect12FromIteratorBG_E9from_iterINtNtNtB19_8adapters3map3MapINtNtNtB1b_5slice4iter4IterTNtNtNtCsht3nMU9UgFu_3std3ffi6os_str8OsStringB3a_EENCNvXs_Cs23PVZzqjOzE_10pkg_configNtB45_14WrappedCommandNtNtB1b_3fmt7Display3fmt0EEB45_, symObjAddr: 0xCC4, symBinAddr: 0x100025370, symSize: 0x40 }
  - { offset: 0x54EB1, size: 0x8, addend: 0x0, symName: __RINvXsd_NtCsiTraAjBDcu4_5alloc3vecINtB6_3VecReEINtNtNtNtCsaNl6UpbT7bw_4core4iter6traits7collect12FromIteratorBG_E9from_iterINtNtNtBS_3str4iter5SplitcEECs23PVZzqjOzE_10pkg_config, symObjAddr: 0xD04, symBinAddr: 0x1000253B0, symSize: 0x3C }
  - { offset: 0x54EF2, size: 0x8, addend: 0x0, symName: __RINvXsd_NtCsiTraAjBDcu4_5alloc3vecINtB6_3VechEINtNtNtNtCsaNl6UpbT7bw_4core4iter6traits7collect12FromIteratorhE9from_iterINtNtNtBP_8adapters3map3MapINtNtNtBR_5slice4iter4IterhENCNvNtB8_3str13replace_ascii0EECs23PVZzqjOzE_10pkg_config, symObjAddr: 0xD40, symBinAddr: 0x1000253EC, symSize: 0x3C }
  - { offset: 0x54F39, size: 0x8, addend: 0x0, symName: __RINvXsh_NtCsiTraAjBDcu4_5alloc3vecINtB6_3VecNtNtNtCsht3nMU9UgFu_3std3ffi6os_str8OsStringEINtNtNtNtCsaNl6UpbT7bw_4core4iter6traits7collect6ExtendBG_E6extendINtNtNtB1w_8adapters3map3MapINtNtNtB1y_5slice4iter4IterBG_ENCINvMCs23PVZzqjOzE_10pkg_configNtB3w_14WrappedCommand4argsRBw_RBG_E0EEB3w_, symObjAddr: 0xD7C, symBinAddr: 0x100025428, symSize: 0x60 }
  - { offset: 0x54F8D, size: 0x8, addend: 0x0, symName: __RINvXsh_NtCsiTraAjBDcu4_5alloc3vecINtB6_3VecNtNtNtCsht3nMU9UgFu_3std3ffi6os_str8OsStringEINtNtNtNtCsaNl6UpbT7bw_4core4iter6traits7collect6ExtendBG_E6extendINtNtNtB1w_8adapters3map3MapINtNtNtB1y_5slice4iter4IterReENCINvMCs23PVZzqjOzE_10pkg_configNtB3v_14WrappedCommand4argsRSB3m_RB3m_E0EEB3v_, symObjAddr: 0xDDC, symBinAddr: 0x100025488, symSize: 0x60 }
  - { offset: 0x54FEC, size: 0x8, addend: 0x0, symName: __RNCINvMsi_NtCsiTraAjBDcu4_5alloc3vecINtB8_3VecNtNtBa_6string6StringE14extend_trustedINtNtNtNtCsaNl6UpbT7bw_4core4iter8adapters3map3MapINtNtB8_9into_iter8IntoIterReENvYBI_INtNtB1t_7convert4FromB2z_E4fromEE0Cs23PVZzqjOzE_10pkg_config, symObjAddr: 0xE3C, symBinAddr: 0x1000254E8, symSize: 0x44 }
  - { offset: 0x55099, size: 0x8, addend: 0x0, symName: __RNCINvMsi_NtCsiTraAjBDcu4_5alloc3vecINtB8_3VecNtNtBa_6string6StringE14extend_trustedINtNtNtNtCsaNl6UpbT7bw_4core4iter8adapters3map3MapINtNtNtB1t_5slice4iter4IterNtNtNtCsht3nMU9UgFu_3std3ffi6os_str8OsStringENCNvXs_Cs23PVZzqjOzE_10pkg_configNtB3p_14WrappedCommandNtNtB1t_3fmt7Display3fmts_0EE0B3p_, symObjAddr: 0xE80, symBinAddr: 0x10002552C, symSize: 0x44 }
  - { offset: 0x55146, size: 0x8, addend: 0x0, symName: __RNCINvMsi_NtCsiTraAjBDcu4_5alloc3vecINtB8_3VecNtNtBa_6string6StringE14extend_trustedINtNtNtNtCsaNl6UpbT7bw_4core4iter8adapters3map3MapINtNtNtB1t_5slice4iter4IterTNtNtNtCsht3nMU9UgFu_3std3ffi6os_str8OsStringB2A_EENCNvXs_Cs23PVZzqjOzE_10pkg_configNtB3v_14WrappedCommandNtNtB1t_3fmt7Display3fmt0EE0B3v_, symObjAddr: 0xEC4, symBinAddr: 0x100025570, symSize: 0x44 }
  - { offset: 0x551F3, size: 0x8, addend: 0x0, symName: __RNCINvMsi_NtCsiTraAjBDcu4_5alloc3vecINtB8_3VecNtNtNtCsht3nMU9UgFu_3std3ffi6os_str8OsStringE14extend_trustedINtNtNtNtCsaNl6UpbT7bw_4core4iter8adapters3map3MapINtNtNtB1Q_5slice4iter4IterBI_ENCINvMCs23PVZzqjOzE_10pkg_configNtB36_14WrappedCommand4argsRBy_RBI_E0EE0B36_, symObjAddr: 0xF08, symBinAddr: 0x1000255B4, symSize: 0x44 }
  - { offset: 0x552A0, size: 0x8, addend: 0x0, symName: __RNCINvMsi_NtCsiTraAjBDcu4_5alloc3vecINtB8_3VecNtNtNtCsht3nMU9UgFu_3std3ffi6os_str8OsStringE14extend_trustedINtNtNtNtCsaNl6UpbT7bw_4core4iter8adapters3map3MapINtNtNtB1Q_5slice4iter4IterReENCINvMCs23PVZzqjOzE_10pkg_configNtB35_14WrappedCommand4argsRSB2W_RB2W_E0EE0B35_, symObjAddr: 0xF4C, symBinAddr: 0x1000255F8, symSize: 0x44 }
  - { offset: 0x5534D, size: 0x8, addend: 0x0, symName: __RNCINvMsi_NtCsiTraAjBDcu4_5alloc3vecINtB8_3VechE14extend_trustedINtNtNtNtCsaNl6UpbT7bw_4core4iter8adapters3map3MapINtNtNtB19_5slice4iter4IterhENCNvNtBa_3str13replace_ascii0EE0Cs23PVZzqjOzE_10pkg_config, symObjAddr: 0xF90, symBinAddr: 0x10002563C, symSize: 0x30 }
  - { offset: 0x556B5, size: 0x8, addend: 0x0, symName: __RNvXs6_NtCsiTraAjBDcu4_5alloc3vecINtB5_3VecNtNtB7_6string6StringENtNtNtCsaNl6UpbT7bw_4core3ops5deref5Deref5derefCs23PVZzqjOzE_10pkg_config, symObjAddr: 0x2258, symBinAddr: 0x1000266A8, symSize: 0x24 }
  - { offset: 0x556F5, size: 0x8, addend: 0x0, symName: __RNvXs6_NtCsiTraAjBDcu4_5alloc3vecINtB5_3VecNtNtCsht3nMU9UgFu_3std4path7PathBufENtNtNtCsaNl6UpbT7bw_4core3ops5deref5Deref5derefCs23PVZzqjOzE_10pkg_config, symObjAddr: 0x227C, symBinAddr: 0x1000266CC, symSize: 0x24 }
  - { offset: 0x55735, size: 0x8, addend: 0x0, symName: __RNvXs6_NtCsiTraAjBDcu4_5alloc3vecINtB5_3VecNtNtNtCsht3nMU9UgFu_3std3ffi6os_str8OsStringENtNtNtCsaNl6UpbT7bw_4core3ops5deref5Deref5derefCs23PVZzqjOzE_10pkg_config, symObjAddr: 0x22A0, symBinAddr: 0x1000266F0, symSize: 0x24 }
  - { offset: 0x55775, size: 0x8, addend: 0x0, symName: __RNvXs6_NtCsiTraAjBDcu4_5alloc3vecINtB5_3VecReENtNtNtCsaNl6UpbT7bw_4core3ops5deref5Deref5derefCs23PVZzqjOzE_10pkg_config, symObjAddr: 0x22C4, symBinAddr: 0x100026714, symSize: 0x24 }
  - { offset: 0x557B5, size: 0x8, addend: 0x0, symName: __RNvXs6_NtCsiTraAjBDcu4_5alloc3vecINtB5_3VecTNtNtNtCsht3nMU9UgFu_3std3ffi6os_str8OsStringBG_EENtNtNtCsaNl6UpbT7bw_4core3ops5deref5Deref5derefCs23PVZzqjOzE_10pkg_config, symObjAddr: 0x22E8, symBinAddr: 0x100026738, symSize: 0x24 }
  - { offset: 0x557F5, size: 0x8, addend: 0x0, symName: __RNvXs6_NtCsiTraAjBDcu4_5alloc3vecINtB5_3VechENtNtNtCsaNl6UpbT7bw_4core3ops5deref5Deref5derefCs23PVZzqjOzE_10pkg_config, symObjAddr: 0x230C, symBinAddr: 0x10002675C, symSize: 0x24 }
  - { offset: 0x558EC, size: 0x8, addend: 0x0, symName: __RNvXNtNtCsiTraAjBDcu4_5alloc3vec10partial_eqINtB4_3VechENtNtCsaNl6UpbT7bw_4core3cmp9PartialEq2eqCs23PVZzqjOzE_10pkg_config, symObjAddr: 0x1C50, symBinAddr: 0x1000262FC, symSize: 0xDC }
  - { offset: 0x55BDB, size: 0x8, addend: 0x0, symName: __RNvXNtNtCsiTraAjBDcu4_5alloc3vec11spec_extendINtB4_3VecReEINtB2_10SpecExtendBR_INtNtNtCsaNl6UpbT7bw_4core3str4iter5SplitcEE11spec_extendCs23PVZzqjOzE_10pkg_config, symObjAddr: 0x1D50, symBinAddr: 0x1000263D8, symSize: 0x24 }
  - { offset: 0x55C33, size: 0x8, addend: 0x0, symName: __RNvXs_NtNtCsiTraAjBDcu4_5alloc3vec11spec_extendINtB6_3VecNtNtB8_6string6StringEINtB4_10SpecExtendBT_INtNtNtNtCsaNl6UpbT7bw_4core4iter8adapters3map3MapINtNtB6_9into_iter8IntoIterReENvYBT_INtNtB1J_7convert4FromB2P_E4fromEE11spec_extendCs23PVZzqjOzE_10pkg_config, symObjAddr: 0x2330, symBinAddr: 0x100026780, symSize: 0x24 }
  - { offset: 0x55C85, size: 0x8, addend: 0x0, symName: __RNvXs_NtNtCsiTraAjBDcu4_5alloc3vec11spec_extendINtB6_3VecNtNtB8_6string6StringEINtB4_10SpecExtendBT_INtNtNtNtCsaNl6UpbT7bw_4core4iter8adapters3map3MapINtNtNtB1J_5slice4iter4IterNtNtNtCsht3nMU9UgFu_3std3ffi6os_str8OsStringENCNvXs_Cs23PVZzqjOzE_10pkg_configNtB3F_14WrappedCommandNtNtB1J_3fmt7Display3fmts_0EE11spec_extendB3F_, symObjAddr: 0x2354, symBinAddr: 0x1000267A4, symSize: 0x34 }
  - { offset: 0x55CD6, size: 0x8, addend: 0x0, symName: __RNvXs_NtNtCsiTraAjBDcu4_5alloc3vec11spec_extendINtB6_3VecNtNtB8_6string6StringEINtB4_10SpecExtendBT_INtNtNtNtCsaNl6UpbT7bw_4core4iter8adapters3map3MapINtNtNtB1J_5slice4iter4IterTNtNtNtCsht3nMU9UgFu_3std3ffi6os_str8OsStringB2Q_EENCNvXs_Cs23PVZzqjOzE_10pkg_configNtB3L_14WrappedCommandNtNtB1J_3fmt7Display3fmt0EE11spec_extendB3L_, symObjAddr: 0x2388, symBinAddr: 0x1000267D8, symSize: 0x34 }
  - { offset: 0x55D27, size: 0x8, addend: 0x0, symName: __RNvXs_NtNtCsiTraAjBDcu4_5alloc3vec11spec_extendINtB6_3VecNtNtNtCsht3nMU9UgFu_3std3ffi6os_str8OsStringEINtB4_10SpecExtendBT_INtNtNtNtCsaNl6UpbT7bw_4core4iter8adapters3map3MapINtNtNtB26_5slice4iter4IterBT_ENCINvMCs23PVZzqjOzE_10pkg_configNtB3m_14WrappedCommand4argsRBJ_RBT_E0EE11spec_extendB3m_, symObjAddr: 0x23BC, symBinAddr: 0x10002680C, symSize: 0x34 }
  - { offset: 0x55D78, size: 0x8, addend: 0x0, symName: __RNvXs_NtNtCsiTraAjBDcu4_5alloc3vec11spec_extendINtB6_3VecNtNtNtCsht3nMU9UgFu_3std3ffi6os_str8OsStringEINtB4_10SpecExtendBT_INtNtNtNtCsaNl6UpbT7bw_4core4iter8adapters3map3MapINtNtNtB26_5slice4iter4IterReENCINvMCs23PVZzqjOzE_10pkg_configNtB3l_14WrappedCommand4argsRSB3c_RB3c_E0EE11spec_extendB3l_, symObjAddr: 0x23F0, symBinAddr: 0x100026840, symSize: 0x34 }
  - { offset: 0x55DC9, size: 0x8, addend: 0x0, symName: __RNvXs_NtNtCsiTraAjBDcu4_5alloc3vec11spec_extendINtB6_3VechEINtB4_10SpecExtendhINtNtNtNtCsaNl6UpbT7bw_4core4iter8adapters3map3MapINtNtNtB1n_5slice4iter4IterhENCNvNtB8_3str13replace_ascii0EE11spec_extendCs23PVZzqjOzE_10pkg_config, symObjAddr: 0x2424, symBinAddr: 0x100026874, symSize: 0x24 }
  - { offset: 0x55E27, size: 0x8, addend: 0x0, symName: __RNvXNtNtCsiTraAjBDcu4_5alloc3vec14spec_from_iterINtB4_3VecNtNtB6_6string6StringEINtB2_12SpecFromIterBU_INtNtNtNtCsaNl6UpbT7bw_4core4iter8adapters3map3MapINtNtNtB1M_5slice4iter4IterNtNtNtCsht3nMU9UgFu_3std3ffi6os_str8OsStringENCNvXs_Cs23PVZzqjOzE_10pkg_configNtB3I_14WrappedCommandNtNtB1M_3fmt7Display3fmts_0EE9from_iterB3I_, symObjAddr: 0x1D88, symBinAddr: 0x1000263FC, symSize: 0x2C }
  - { offset: 0x55E65, size: 0x8, addend: 0x0, symName: __RNvXNtNtCsiTraAjBDcu4_5alloc3vec14spec_from_iterINtB4_3VecNtNtB6_6string6StringEINtB2_12SpecFromIterBU_INtNtNtNtCsaNl6UpbT7bw_4core4iter8adapters3map3MapINtNtNtB1M_5slice4iter4IterTNtNtNtCsht3nMU9UgFu_3std3ffi6os_str8OsStringB2T_EENCNvXs_Cs23PVZzqjOzE_10pkg_configNtB3O_14WrappedCommandNtNtB1M_3fmt7Display3fmt0EE9from_iterB3O_, symObjAddr: 0x1DB4, symBinAddr: 0x100026428, symSize: 0x2C }
  - { offset: 0x55EA3, size: 0x8, addend: 0x0, symName: __RNvXNtNtCsiTraAjBDcu4_5alloc3vec14spec_from_iterINtB4_3VecReEINtB2_12SpecFromIterBU_INtNtNtCsaNl6UpbT7bw_4core3str4iter5SplitcEE9from_iterCs23PVZzqjOzE_10pkg_config, symObjAddr: 0x1DE0, symBinAddr: 0x100026454, symSize: 0x14 }
  - { offset: 0x55EE2, size: 0x8, addend: 0x0, symName: __RNvXNtNtCsiTraAjBDcu4_5alloc3vec14spec_from_iterINtB4_3VechEINtB2_12SpecFromIterhINtNtNtNtCsaNl6UpbT7bw_4core4iter8adapters3map3MapINtNtNtB1q_5slice4iter4IterhENCNvNtB6_3str13replace_ascii0EE9from_iterCs23PVZzqjOzE_10pkg_config, symObjAddr: 0x1DF4, symBinAddr: 0x100026468, symSize: 0x14 }
  - { offset: 0x55F2D, size: 0x8, addend: 0x0, symName: __RNvXNtNtCsiTraAjBDcu4_5alloc3vec21spec_from_iter_nestedINtB4_3VecReEINtB2_18SpecFromIterNestedB11_INtNtNtCsaNl6UpbT7bw_4core3str4iter5SplitcEE9from_iterCs23PVZzqjOzE_10pkg_config, symObjAddr: 0x202C, symBinAddr: 0x10002647C, symSize: 0x22C }
  - { offset: 0x56152, size: 0x8, addend: 0x0, symName: __RNvXs_NtNtCsiTraAjBDcu4_5alloc3vec21spec_from_iter_nestedINtB6_3VecNtNtB8_6string6StringEINtB4_18SpecFromIterNestedB13_INtNtNtNtCsaNl6UpbT7bw_4core4iter8adapters3map3MapINtNtB6_9into_iter8IntoIterReENvYB13_INtNtB22_7convert4FromB38_E4fromEE9from_iterCs23PVZzqjOzE_10pkg_config, symObjAddr: 0x2470, symBinAddr: 0x1000268C0, symSize: 0x170 }
  - { offset: 0x56229, size: 0x8, addend: 0x0, symName: __RNvXs_NtNtCsiTraAjBDcu4_5alloc3vec21spec_from_iter_nestedINtB6_3VecNtNtB8_6string6StringEINtB4_18SpecFromIterNestedB13_INtNtNtNtCsaNl6UpbT7bw_4core4iter8adapters3map3MapINtNtNtB22_5slice4iter4IterNtNtNtCsht3nMU9UgFu_3std3ffi6os_str8OsStringENCNvXs_Cs23PVZzqjOzE_10pkg_configNtB3Y_14WrappedCommandNtNtB22_3fmt7Display3fmts_0EE9from_iterB3Y_, symObjAddr: 0x25E0, symBinAddr: 0x100026A30, symSize: 0x164 }
  - { offset: 0x562FF, size: 0x8, addend: 0x0, symName: __RNvXs_NtNtCsiTraAjBDcu4_5alloc3vec21spec_from_iter_nestedINtB6_3VecNtNtB8_6string6StringEINtB4_18SpecFromIterNestedB13_INtNtNtNtCsaNl6UpbT7bw_4core4iter8adapters3map3MapINtNtNtB22_5slice4iter4IterTNtNtNtCsht3nMU9UgFu_3std3ffi6os_str8OsStringB39_EENCNvXs_Cs23PVZzqjOzE_10pkg_configNtB44_14WrappedCommandNtNtB22_3fmt7Display3fmt0EE9from_iterB44_, symObjAddr: 0x2744, symBinAddr: 0x100026B94, symSize: 0x164 }
  - { offset: 0x563D5, size: 0x8, addend: 0x0, symName: __RNvXs_NtNtCsiTraAjBDcu4_5alloc3vec21spec_from_iter_nestedINtB6_3VechEINtB4_18SpecFromIterNestedhINtNtNtNtCsaNl6UpbT7bw_4core4iter8adapters3map3MapINtNtNtB1F_5slice4iter4IterhENCNvNtB8_3str13replace_ascii0EE9from_iterCs23PVZzqjOzE_10pkg_config, symObjAddr: 0x28A8, symBinAddr: 0x100026CF8, symSize: 0x164 }
  - { offset: 0x564B8, size: 0x8, addend: 0x0, symName: __RNvXs_NtNtCsiTraAjBDcu4_5alloc3vec16in_place_collectINtB6_3VecNtNtB8_6string6StringEINtNtB6_14spec_from_iter12SpecFromIterBY_INtNtNtNtCsaNl6UpbT7bw_4core4iter8adapters3map3MapINtNtB6_9into_iter8IntoIterReENvYBY_INtNtB28_7convert4FromB3e_E4fromEE9from_iterCs23PVZzqjOzE_10pkg_config, symObjAddr: 0x2448, symBinAddr: 0x100026898, symSize: 0x28 }
  - { offset: 0x5651B, size: 0x8, addend: 0x0, symName: __RNvXse_NtCsiTraAjBDcu4_5alloc3vecINtB5_3VecReENtNtNtNtCsaNl6UpbT7bw_4core4iter6traits7collect12IntoIterator9into_iterCs23PVZzqjOzE_10pkg_config, symObjAddr: 0x2A0C, symBinAddr: 0x100026E5C, symSize: 0xDC }
  - { offset: 0x567B3, size: 0x8, addend: 0x0, symName: __RNvXsf_NtCsiTraAjBDcu4_5alloc3vecRINtB5_3VecNtNtNtCsht3nMU9UgFu_3std3ffi6os_str8OsStringENtNtNtNtCsaNl6UpbT7bw_4core4iter6traits7collect12IntoIterator9into_iterCs23PVZzqjOzE_10pkg_config, symObjAddr: 0x2AE8, symBinAddr: 0x100026F38, symSize: 0xAC }
  - { offset: 0x569F7, size: 0x8, addend: 0x0, symName: __RNvXsn_NtCsiTraAjBDcu4_5alloc3vecINtB5_3VecIBw_NtNtB7_6string6StringEENtNtNtCsaNl6UpbT7bw_4core3ops4drop4Drop4dropCs23PVZzqjOzE_10pkg_config, symObjAddr: 0x2B94, symBinAddr: 0x100026FE4, symSize: 0x38 }
  - { offset: 0x56AA7, size: 0x8, addend: 0x0, symName: __RNvXsn_NtCsiTraAjBDcu4_5alloc3vecINtB5_3VecINtNtB7_5boxed3BoxDINtNtNtCsaNl6UpbT7bw_4core3ops8function5FnMutuEp6OutputINtNtB15_6result6ResultuNtNtNtCsht3nMU9UgFu_3std2io5error5ErrorENtNtB15_6marker4SyncNtB2V_4SendEL_EENtNtB13_4drop4Drop4dropCs23PVZzqjOzE_10pkg_config, symObjAddr: 0x2BCC, symBinAddr: 0x10002701C, symSize: 0x38 }
  - { offset: 0x56B57, size: 0x8, addend: 0x0, symName: __RNvXsn_NtCsiTraAjBDcu4_5alloc3vecINtB5_3VecNtNtB7_6string6StringENtNtNtCsaNl6UpbT7bw_4core3ops4drop4Drop4dropCs23PVZzqjOzE_10pkg_config, symObjAddr: 0x2C04, symBinAddr: 0x100027054, symSize: 0x38 }
  - { offset: 0x56C07, size: 0x8, addend: 0x0, symName: __RNvXsn_NtCsiTraAjBDcu4_5alloc3vecINtB5_3VecNtNtCsht3nMU9UgFu_3std4path7PathBufENtNtNtCsaNl6UpbT7bw_4core3ops4drop4Drop4dropCs23PVZzqjOzE_10pkg_config, symObjAddr: 0x2C3C, symBinAddr: 0x10002708C, symSize: 0x38 }
  - { offset: 0x56CB7, size: 0x8, addend: 0x0, symName: __RNvXsn_NtCsiTraAjBDcu4_5alloc3vecINtB5_3VecNtNtNtCsht3nMU9UgFu_3std3ffi6os_str8OsStringENtNtNtCsaNl6UpbT7bw_4core3ops4drop4Drop4dropCs23PVZzqjOzE_10pkg_config, symObjAddr: 0x2C74, symBinAddr: 0x1000270C4, symSize: 0x38 }
  - { offset: 0x56D67, size: 0x8, addend: 0x0, symName: __RNvXsn_NtCsiTraAjBDcu4_5alloc3vecINtB5_3VecPaENtNtNtCsaNl6UpbT7bw_4core3ops4drop4Drop4dropCs23PVZzqjOzE_10pkg_config, symObjAddr: 0x2CAC, symBinAddr: 0x1000270FC, symSize: 0x24 }
  - { offset: 0x56E17, size: 0x8, addend: 0x0, symName: __RNvXsn_NtCsiTraAjBDcu4_5alloc3vecINtB5_3VecReENtNtNtCsaNl6UpbT7bw_4core3ops4drop4Drop4dropCs23PVZzqjOzE_10pkg_config, symObjAddr: 0x2CD0, symBinAddr: 0x100027120, symSize: 0x24 }
  - { offset: 0x56EC7, size: 0x8, addend: 0x0, symName: __RNvXsn_NtCsiTraAjBDcu4_5alloc3vecINtB5_3VecTNtNtNtCsht3nMU9UgFu_3std3ffi6os_str8OsStringBG_EENtNtNtCsaNl6UpbT7bw_4core3ops4drop4Drop4dropCs23PVZzqjOzE_10pkg_config, symObjAddr: 0x2CF4, symBinAddr: 0x100027144, symSize: 0x38 }
  - { offset: 0x57033, size: 0x8, addend: 0x0, symName: __RNvXsp_NtCsiTraAjBDcu4_5alloc3vecINtB5_3VechENtNtCsaNl6UpbT7bw_4core3fmt5Debug3fmtCs23PVZzqjOzE_10pkg_config, symObjAddr: 0x2D2C, symBinAddr: 0x10002717C, symSize: 0x78 }
  - { offset: 0x572AD, size: 0x8, addend: 0x0, symName: __RINvMsi_NtCsiTraAjBDcu4_5alloc3vecINtB6_3VecNtNtB8_6string6StringE14extend_trustedINtNtNtNtCsaNl6UpbT7bw_4core4iter8adapters3map3MapINtNtB6_9into_iter8IntoIterReENvYBG_INtNtB1r_7convert4FromB2x_E4fromEECs23PVZzqjOzE_10pkg_config, symObjAddr: 0x0, symBinAddr: 0x1000248B0, symSize: 0x184 }
  - { offset: 0x57633, size: 0x8, addend: 0x0, symName: __RINvMsi_NtCsiTraAjBDcu4_5alloc3vecINtB6_3VecNtNtB8_6string6StringE14extend_trustedINtNtNtNtCsaNl6UpbT7bw_4core4iter8adapters3map3MapINtNtNtB1r_5slice4iter4IterNtNtNtCsht3nMU9UgFu_3std3ffi6os_str8OsStringENCNvXs_Cs23PVZzqjOzE_10pkg_configNtB3n_14WrappedCommandNtNtB1r_3fmt7Display3fmts_0EEB3n_, symObjAddr: 0x184, symBinAddr: 0x100024A34, symSize: 0x16C }
  - { offset: 0x57920, size: 0x8, addend: 0x0, symName: __RINvMsi_NtCsiTraAjBDcu4_5alloc3vecINtB6_3VecNtNtB8_6string6StringE14extend_trustedINtNtNtNtCsaNl6UpbT7bw_4core4iter8adapters3map3MapINtNtNtB1r_5slice4iter4IterTNtNtNtCsht3nMU9UgFu_3std3ffi6os_str8OsStringB2y_EENCNvXs_Cs23PVZzqjOzE_10pkg_configNtB3t_14WrappedCommandNtNtB1r_3fmt7Display3fmt0EEB3t_, symObjAddr: 0x2F0, symBinAddr: 0x100024BA0, symSize: 0x16C }
  - { offset: 0x57C24, size: 0x8, addend: 0x0, symName: __RINvMsi_NtCsiTraAjBDcu4_5alloc3vecINtB6_3VecNtNtNtCsht3nMU9UgFu_3std3ffi6os_str8OsStringE14extend_trustedINtNtNtNtCsaNl6UpbT7bw_4core4iter8adapters3map3MapINtNtNtB1O_5slice4iter4IterBG_ENCINvMCs23PVZzqjOzE_10pkg_configNtB34_14WrappedCommand4argsRBw_RBG_E0EEB34_, symObjAddr: 0x624, symBinAddr: 0x100024D0C, symSize: 0x16C }
  - { offset: 0x57EE6, size: 0x8, addend: 0x0, symName: __RINvMsi_NtCsiTraAjBDcu4_5alloc3vecINtB6_3VecNtNtNtCsht3nMU9UgFu_3std3ffi6os_str8OsStringE14extend_trustedINtNtNtNtCsaNl6UpbT7bw_4core4iter8adapters3map3MapINtNtNtB1O_5slice4iter4IterReENCINvMCs23PVZzqjOzE_10pkg_configNtB33_14WrappedCommand4argsRSB2U_RB2U_E0EEB33_, symObjAddr: 0x790, symBinAddr: 0x100024E78, symSize: 0x16C }
  - { offset: 0x58266, size: 0x8, addend: 0x0, symName: __RINvMsi_NtCsiTraAjBDcu4_5alloc3vecINtB6_3VecReE16extend_desugaredINtNtNtCsaNl6UpbT7bw_4core3str4iter5SplitcEECs23PVZzqjOzE_10pkg_config, symObjAddr: 0x8FC, symBinAddr: 0x100024FE4, symSize: 0x198 }
  - { offset: 0x5859B, size: 0x8, addend: 0x0, symName: __RINvMsi_NtCsiTraAjBDcu4_5alloc3vecINtB6_3VechE14extend_trustedINtNtNtNtCsaNl6UpbT7bw_4core4iter8adapters3map3MapINtNtNtB17_5slice4iter4IterhENCNvNtB8_3str13replace_ascii0EECs23PVZzqjOzE_10pkg_config, symObjAddr: 0xA94, symBinAddr: 0x10002517C, symSize: 0x178 }
  - { offset: 0x587F0, size: 0x8, addend: 0x0, symName: __RNvMNtCsiTraAjBDcu4_5alloc3vecINtB2_3VecIBt_NtNtB4_6string6StringEE3newCs23PVZzqjOzE_10pkg_config, symObjAddr: 0xFC0, symBinAddr: 0x10002566C, symSize: 0x14 }
  - { offset: 0x5880D, size: 0x8, addend: 0x0, symName: __RNvMNtCsiTraAjBDcu4_5alloc3vecINtB2_3VecNtNtB4_6string6StringE3newCs23PVZzqjOzE_10pkg_config, symObjAddr: 0xFD4, symBinAddr: 0x100025680, symSize: 0x14 }
  - { offset: 0x5882A, size: 0x8, addend: 0x0, symName: __RNvMNtCsiTraAjBDcu4_5alloc3vecINtB2_3VecNtNtCsht3nMU9UgFu_3std4path7PathBufE3newCs23PVZzqjOzE_10pkg_config, symObjAddr: 0xFE8, symBinAddr: 0x100025694, symSize: 0x14 }
  - { offset: 0x58847, size: 0x8, addend: 0x0, symName: __RNvMNtCsiTraAjBDcu4_5alloc3vecINtB2_3VecNtNtNtCsht3nMU9UgFu_3std3ffi6os_str8OsStringE3newCs23PVZzqjOzE_10pkg_config, symObjAddr: 0xFFC, symBinAddr: 0x1000256A8, symSize: 0x14 }
  - { offset: 0x58864, size: 0x8, addend: 0x0, symName: __RNvMNtCsiTraAjBDcu4_5alloc3vecINtB2_3VecReE3newCs23PVZzqjOzE_10pkg_config, symObjAddr: 0x1010, symBinAddr: 0x1000256BC, symSize: 0x14 }
  - { offset: 0x58881, size: 0x8, addend: 0x0, symName: __RNvMNtCsiTraAjBDcu4_5alloc3vecINtB2_3VecTNtNtNtCsht3nMU9UgFu_3std3ffi6os_str8OsStringBD_EE3newCs23PVZzqjOzE_10pkg_config, symObjAddr: 0x1024, symBinAddr: 0x1000256D0, symSize: 0x14 }
  - { offset: 0x5889E, size: 0x8, addend: 0x0, symName: __RNvMNtCsiTraAjBDcu4_5alloc3vecINtB2_3VechE3newCs23PVZzqjOzE_10pkg_config, symObjAddr: 0x1038, symBinAddr: 0x1000256E4, symSize: 0x14 }
  - { offset: 0x589CE, size: 0x8, addend: 0x0, symName: __RNvMs_NtCsiTraAjBDcu4_5alloc3vecINtB4_3VecIBv_NtNtB6_6string6StringEE4pushCs23PVZzqjOzE_10pkg_config, symObjAddr: 0x104C, symBinAddr: 0x1000256F8, symSize: 0x108 }
  - { offset: 0x58C61, size: 0x8, addend: 0x0, symName: __RNvMs_NtCsiTraAjBDcu4_5alloc3vecINtB4_3VecNtNtB6_6string6StringE4pushCs23PVZzqjOzE_10pkg_config, symObjAddr: 0x1154, symBinAddr: 0x100025800, symSize: 0x108 }
  - { offset: 0x58F45, size: 0x8, addend: 0x0, symName: __RNvMs_NtCsiTraAjBDcu4_5alloc3vecINtB4_3VecNtNtB6_6string6StringE7reserveCs23PVZzqjOzE_10pkg_config, symObjAddr: 0x125C, symBinAddr: 0x100025908, symSize: 0xC8 }
  - { offset: 0x59143, size: 0x8, addend: 0x0, symName: __RNvMs_NtCsiTraAjBDcu4_5alloc3vecINtB4_3VecNtNtB6_6string6StringE8as_sliceCs23PVZzqjOzE_10pkg_config, symObjAddr: 0x1324, symBinAddr: 0x1000259D0, symSize: 0x6C }
  - { offset: 0x59310, size: 0x8, addend: 0x0, symName: __RNvMs_NtCsiTraAjBDcu4_5alloc3vecINtB4_3VecNtNtCsht3nMU9UgFu_3std4path7PathBufE4pushCs23PVZzqjOzE_10pkg_config, symObjAddr: 0x1390, symBinAddr: 0x100025A3C, symSize: 0x108 }
  - { offset: 0x59568, size: 0x8, addend: 0x0, symName: __RNvMs_NtCsiTraAjBDcu4_5alloc3vecINtB4_3VecNtNtCsht3nMU9UgFu_3std4path7PathBufE8as_sliceCs23PVZzqjOzE_10pkg_config, symObjAddr: 0x1498, symBinAddr: 0x100025B44, symSize: 0x6C }
  - { offset: 0x59701, size: 0x8, addend: 0x0, symName: __RNvMs_NtCsiTraAjBDcu4_5alloc3vecINtB4_3VecNtNtNtCsht3nMU9UgFu_3std3ffi6os_str8OsStringE4pushCs23PVZzqjOzE_10pkg_config, symObjAddr: 0x1504, symBinAddr: 0x100025BB0, symSize: 0x108 }
  - { offset: 0x599CB, size: 0x8, addend: 0x0, symName: __RNvMs_NtCsiTraAjBDcu4_5alloc3vecINtB4_3VecNtNtNtCsht3nMU9UgFu_3std3ffi6os_str8OsStringE7reserveCs23PVZzqjOzE_10pkg_config, symObjAddr: 0x160C, symBinAddr: 0x100025CB8, symSize: 0xC8 }
  - { offset: 0x59BD6, size: 0x8, addend: 0x0, symName: __RNvMs_NtCsiTraAjBDcu4_5alloc3vecINtB4_3VecNtNtNtCsht3nMU9UgFu_3std3ffi6os_str8OsStringE8as_sliceCs23PVZzqjOzE_10pkg_config, symObjAddr: 0x16D4, symBinAddr: 0x100025D80, symSize: 0x6C }
  - { offset: 0x59D6F, size: 0x8, addend: 0x0, symName: __RNvMs_NtCsiTraAjBDcu4_5alloc3vecINtB4_3VecReE4pushCs23PVZzqjOzE_10pkg_config, symObjAddr: 0x1740, symBinAddr: 0x100025DEC, symSize: 0xF4 }
  - { offset: 0x5A038, size: 0x8, addend: 0x0, symName: __RNvMs_NtCsiTraAjBDcu4_5alloc3vecINtB4_3VecReE7reserveCs23PVZzqjOzE_10pkg_config, symObjAddr: 0x1834, symBinAddr: 0x100025EE0, symSize: 0xC8 }
  - { offset: 0x5A20F, size: 0x8, addend: 0x0, symName: __RNvMs_NtCsiTraAjBDcu4_5alloc3vecINtB4_3VecReE8as_sliceCs23PVZzqjOzE_10pkg_config, symObjAddr: 0x18FC, symBinAddr: 0x100025FA8, symSize: 0x6C }
  - { offset: 0x5A3CF, size: 0x8, addend: 0x0, symName: __RNvMs_NtCsiTraAjBDcu4_5alloc3vecINtB4_3VecTNtNtNtCsht3nMU9UgFu_3std3ffi6os_str8OsStringBF_EE4pushCs23PVZzqjOzE_10pkg_config, symObjAddr: 0x1968, symBinAddr: 0x100026014, symSize: 0x118 }
  - { offset: 0x5A628, size: 0x8, addend: 0x0, symName: __RNvMs_NtCsiTraAjBDcu4_5alloc3vecINtB4_3VecTNtNtNtCsht3nMU9UgFu_3std3ffi6os_str8OsStringBF_EE8as_sliceCs23PVZzqjOzE_10pkg_config, symObjAddr: 0x1A80, symBinAddr: 0x10002612C, symSize: 0x6C }
  - { offset: 0x5A7C1, size: 0x8, addend: 0x0, symName: __RNvMs_NtCsiTraAjBDcu4_5alloc3vecINtB4_3VechE4pushCs23PVZzqjOzE_10pkg_config, symObjAddr: 0x1AEC, symBinAddr: 0x100026198, symSize: 0xDC }
  - { offset: 0x5A9F0, size: 0x8, addend: 0x0, symName: __RNvMs_NtCsiTraAjBDcu4_5alloc3vecINtB4_3VechE8as_sliceCs23PVZzqjOzE_10pkg_config, symObjAddr: 0x1BC8, symBinAddr: 0x100026274, symSize: 0x68 }
  - { offset: 0x5AACF, size: 0x8, addend: 0x0, symName: __RNvMs_NtCsiTraAjBDcu4_5alloc3vecINtB4_3VechE8is_emptyCs23PVZzqjOzE_10pkg_config, symObjAddr: 0x1C30, symBinAddr: 0x1000262DC, symSize: 0x20 }
  - { offset: 0x5B782, size: 0x8, addend: 0x0, symName: __RINvXs3_NtNtCsaNl6UpbT7bw_4core4hash5implsRNtCsfpvTL5dBvDY_2cc12CompilerFlagNtB8_4Hash4hashNtNtNtCsht3nMU9UgFu_3std4hash6random13DefaultHasherEBH_, symObjAddr: 0x0, symBinAddr: 0x1000271F4, symSize: 0x30 }
  - { offset: 0x5B8A5, size: 0x8, addend: 0x0, symName: __RNvXNvMs4_CsfpvTL5dBvDY_2ccNtB8_5Build25find_msvc_tools_find_toolNtB2_14BuildEnvGetterNtNtCsgGwrKXH7Od_15find_msvc_tools10find_tools9EnvGetter7get_env, symObjAddr: 0x1D0DC, symBinAddr: 0x10004296C, symSize: 0x50 }
  - { offset: 0x5B8E9, size: 0x8, addend: 0x0, symName: __RNCNvMs4_CsfpvTL5dBvDY_2ccNtB7_5Build11try_compile0B7_, symObjAddr: 0x444C, symBinAddr: 0x10002AC90, symSize: 0x80 }
  - { offset: 0x5B934, size: 0x8, addend: 0x0, symName: __RNCNvMs4_CsfpvTL5dBvDY_2ccNtB7_5Build11try_compiles_0B7_, symObjAddr: 0x44CC, symBinAddr: 0x10002AD10, symSize: 0x54 }
  - { offset: 0x5B984, size: 0x8, addend: 0x0, symName: __RNCNCNvMs4_CsfpvTL5dBvDY_2ccNtB9_5Build11try_compiles_00B9_, symObjAddr: 0x4520, symBinAddr: 0x10002AD64, symSize: 0xBC }
  - { offset: 0x5B9E0, size: 0x8, addend: 0x0, symName: __RNCNCNCNvMs4_CsfpvTL5dBvDY_2ccNtBb_5Build11try_compiles_000Bb_, symObjAddr: 0x45DC, symBinAddr: 0x10002AE20, symSize: 0x54 }
  - { offset: 0x5BA3C, size: 0x8, addend: 0x0, symName: __RNCNvMs4_CsfpvTL5dBvDY_2ccNtB7_5Build20msvc_macro_assembler0B7_, symObjAddr: 0xC614, symBinAddr: 0x1000324F4, symSize: 0x48 }
  - { offset: 0x5BA83, size: 0x8, addend: 0x0, symName: __RNCNvMs4_CsfpvTL5dBvDY_2ccNtB7_5Build8assemble0B7_, symObjAddr: 0xD0FC, symBinAddr: 0x100032FDC, symSize: 0x38 }
  - { offset: 0x5BABC, size: 0x8, addend: 0x0, symName: __RNCNvMs4_CsfpvTL5dBvDY_2ccNtB7_5Build8assembles_0B7_, symObjAddr: 0xD134, symBinAddr: 0x100033014, symSize: 0x9C }
  - { offset: 0x5BB0F, size: 0x8, addend: 0x0, symName: __RNCNCNvMs4_CsfpvTL5dBvDY_2ccNtB9_5Build8assembles_00B9_, symObjAddr: 0xD1D0, symBinAddr: 0x1000330B0, symSize: 0x20 }
  - { offset: 0x5BB55, size: 0x8, addend: 0x0, symName: __RNCNvMs4_CsfpvTL5dBvDY_2ccNtB7_5Build17get_base_compiler0B7_, symObjAddr: 0x10884, symBinAddr: 0x100036764, symSize: 0x408 }
  - { offset: 0x5BC39, size: 0x8, addend: 0x0, symName: __RNCNvMs4_CsfpvTL5dBvDY_2ccNtB7_5Build17get_base_compilers_0B7_, symObjAddr: 0x10C8C, symBinAddr: 0x100036B6C, symSize: 0x194 }
  - { offset: 0x5BCA1, size: 0x8, addend: 0x0, symName: __RNCNvMs4_CsfpvTL5dBvDY_2ccNtB7_5Build17get_base_compilers0_0B7_, symObjAddr: 0x10E20, symBinAddr: 0x100036D00, symSize: 0x34 }
  - { offset: 0x5BCD7, size: 0x8, addend: 0x0, symName: __RNCNvMs4_CsfpvTL5dBvDY_2ccNtB7_5Build8env_tool0B7_, symObjAddr: 0x11B78, symBinAddr: 0x100037A58, symSize: 0x48 }
  - { offset: 0x5BD10, size: 0x8, addend: 0x0, symName: __RNCNvMs4_CsfpvTL5dBvDY_2ccNtB7_5Build8env_tools_0B7_, symObjAddr: 0x11BC0, symBinAddr: 0x100037AA0, symSize: 0x48 }
  - { offset: 0x5BD5D, size: 0x8, addend: 0x0, symName: __RNCNvMs4_CsfpvTL5dBvDY_2ccNtB7_5Build25get_base_archiver_variant0B7_, symObjAddr: 0x147AC, symBinAddr: 0x10003A03C, symSize: 0x18C }
  - { offset: 0x5BDFB, size: 0x8, addend: 0x0, symName: __RNCNvMs4_CsfpvTL5dBvDY_2ccNtB7_5Build25get_base_archiver_variants_0B7_, symObjAddr: 0x14938, symBinAddr: 0x10003A1C8, symSize: 0x448 }
  - { offset: 0x5BF33, size: 0x8, addend: 0x0, symName: __RNCNCNvMs4_CsfpvTL5dBvDY_2ccNtB9_5Build25get_base_archiver_variants_00B9_, symObjAddr: 0x14D80, symBinAddr: 0x10003A610, symSize: 0x38 }
  - { offset: 0x5BF74, size: 0x8, addend: 0x0, symName: __RNCNvMs4_CsfpvTL5dBvDY_2ccNtB7_5Build25get_base_archiver_variants0_0B7_, symObjAddr: 0x14DB8, symBinAddr: 0x10003A648, symSize: 0x1A0 }
  - { offset: 0x5BFCD, size: 0x8, addend: 0x0, symName: __RNCNvMs4_CsfpvTL5dBvDY_2ccNtB7_5Build25get_base_archiver_variants1_0B7_, symObjAddr: 0x14F58, symBinAddr: 0x10003A7E8, symSize: 0x2DC }
  - { offset: 0x5C0E9, size: 0x8, addend: 0x0, symName: __RNCNvMs4_CsfpvTL5dBvDY_2ccNtB7_5Build25get_base_archiver_variants2_0B7_, symObjAddr: 0x15234, symBinAddr: 0x10003AAC4, symSize: 0x3C }
  - { offset: 0x5C13D, size: 0x8, addend: 0x0, symName: __RNCNvMs4_CsfpvTL5dBvDY_2ccNtB7_5Build17prefix_for_target0B7_, symObjAddr: 0x15360, symBinAddr: 0x10003ABF0, symSize: 0xB8 }
  - { offset: 0x5C176, size: 0x8, addend: 0x0, symName: __RNCNvMs4_CsfpvTL5dBvDY_2ccNtB7_5Build17prefix_for_targets_0B7_, symObjAddr: 0x15418, symBinAddr: 0x10003ACA8, symSize: 0x54 }
  - { offset: 0x5C1AB, size: 0x8, addend: 0x0, symName: __RNCNCNvMs4_CsfpvTL5dBvDY_2ccNtB9_5Build17prefix_for_targets_00B9_, symObjAddr: 0x1546C, symBinAddr: 0x10003ACFC, symSize: 0x118 }
  - { offset: 0x5C1EC, size: 0x8, addend: 0x0, symName: __RNCNvMs4_CsfpvTL5dBvDY_2ccNtB7_5Build17prefix_for_targets0_0B7_, symObjAddr: 0x15584, symBinAddr: 0x10003AE14, symSize: 0x1F38 }
  - { offset: 0x5C23C, size: 0x8, addend: 0x0, symName: __RNCNvMs4_CsfpvTL5dBvDY_2ccNtB7_5Build23find_working_gnu_prefix0B7_, symObjAddr: 0x1761C, symBinAddr: 0x10003CEAC, symSize: 0x6C }
  - { offset: 0x5C2A2, size: 0x8, addend: 0x0, symName: __RNCNCNvMs4_CsfpvTL5dBvDY_2ccNtB9_5Build23find_working_gnu_prefix00B9_, symObjAddr: 0x17688, symBinAddr: 0x10003CF18, symSize: 0x2D8 }
  - { offset: 0x5C3A6, size: 0x8, addend: 0x0, symName: __RNCNvMs4_CsfpvTL5dBvDY_2ccNtB7_5Build23find_working_gnu_prefixs_0B7_, symObjAddr: 0x17960, symBinAddr: 0x10003D1F0, symSize: 0x40 }
  - { offset: 0x5C3DC, size: 0x8, addend: 0x0, symName: __RNCNvMs4_CsfpvTL5dBvDY_2ccNtB7_5Build9get_debug0B7_, symObjAddr: 0x17F84, symBinAddr: 0x10003D814, symSize: 0x48 }
  - { offset: 0x5C412, size: 0x8, addend: 0x0, symName: __RNCNvMs4_CsfpvTL5dBvDY_2ccNtB7_5Build23get_shell_escaped_flags0B7_, symObjAddr: 0x18010, symBinAddr: 0x10003D8A0, symSize: 0x48 }
  - { offset: 0x5C448, size: 0x8, addend: 0x0, symName: __RNCNvMs4_CsfpvTL5dBvDY_2ccNtB7_5Build23get_force_frame_pointer0B7_, symObjAddr: 0x183C0, symBinAddr: 0x10003DC50, symSize: 0x38 }
  - { offset: 0x5C47E, size: 0x8, addend: 0x0, symName: __RNCNvMs4_CsfpvTL5dBvDY_2ccNtB7_5Build11get_out_dir0B7_, symObjAddr: 0x1853C, symBinAddr: 0x10003DDCC, symSize: 0x48 }
  - { offset: 0x5C4B5, size: 0x8, addend: 0x0, symName: __RNvNvMs4_CsfpvTL5dBvDY_2ccNtB7_5Build6getenv17provided_by_cargo, symObjAddr: 0x18AE8, symBinAddr: 0x10003E378, symSize: 0x2E0 }
  - { offset: 0x5C511, size: 0x8, addend: 0x0, symName: __RNCNvMs4_CsfpvTL5dBvDY_2ccNtB7_5Build6getenv0B7_, symObjAddr: 0x18DC8, symBinAddr: 0x10003E658, symSize: 0x60 }
  - { offset: 0x5C563, size: 0x8, addend: 0x0, symName: __RNCNvMs4_CsfpvTL5dBvDY_2ccNtB7_5Build6getenvs_0B7_, symObjAddr: 0x18E28, symBinAddr: 0x10003E6B8, symSize: 0x3C }
  - { offset: 0x5C5AE, size: 0x8, addend: 0x0, symName: __RNCNvMs4_CsfpvTL5dBvDY_2ccNtB7_5Build6getenvs0_0B7_, symObjAddr: 0x18E64, symBinAddr: 0x10003E6F4, symSize: 0x4C }
  - { offset: 0x5C5EB, size: 0x8, addend: 0x0, symName: __RNCNvMs4_CsfpvTL5dBvDY_2ccNtB7_5Build17getenv_unwrap_str0B7_, symObjAddr: 0x192F4, symBinAddr: 0x10003EB84, symSize: 0x90 }
  - { offset: 0x5C65D, size: 0x8, addend: 0x0, symName: __RNCNvMs4_CsfpvTL5dBvDY_2ccNtB7_5Build27getenv_with_target_prefixes0B7_, symObjAddr: 0x19AF8, symBinAddr: 0x10003F388, symSize: 0x68 }
  - { offset: 0x5C6B6, size: 0x8, addend: 0x0, symName: __RNCNvMs4_CsfpvTL5dBvDY_2ccNtB7_5Build20apple_sdk_root_inner0B7_, symObjAddr: 0x1AC84, symBinAddr: 0x100040514, symSize: 0xC4 }
  - { offset: 0x5C711, size: 0x8, addend: 0x0, symName: __RNCNCNvMs4_CsfpvTL5dBvDY_2ccNtB9_5Build20apple_sdk_root_inner00B9_, symObjAddr: 0x1AD48, symBinAddr: 0x1000405D8, symSize: 0x48 }
  - { offset: 0x5C76B, size: 0x8, addend: 0x0, symName: __RNCNvMs4_CsfpvTL5dBvDY_2ccNtB7_5Build23apple_deployment_target0B7_, symObjAddr: 0x1B754, symBinAddr: 0x100040FE4, symSize: 0x2E4 }
  - { offset: 0x5C812, size: 0x8, addend: 0x0, symName: __RNCNvMs4_CsfpvTL5dBvDY_2ccNtB7_5Build23apple_deployment_targets_0B7_, symObjAddr: 0x1BA38, symBinAddr: 0x1000412C8, symSize: 0x17C }
  - { offset: 0x5C894, size: 0x8, addend: 0x0, symName: __RNCNCNvMs4_CsfpvTL5dBvDY_2ccNtB9_5Build23apple_deployment_targets_00B9_, symObjAddr: 0x1BBB4, symBinAddr: 0x100041444, symSize: 0x88 }
  - { offset: 0x5C8E6, size: 0x8, addend: 0x0, symName: __RNCNCNvMs4_CsfpvTL5dBvDY_2ccNtB9_5Build23apple_deployment_targets_0s_0B9_, symObjAddr: 0x1BC3C, symBinAddr: 0x1000414CC, symSize: 0x2C }
  - { offset: 0x5C91B, size: 0x8, addend: 0x0, symName: __RNCNCNvMs4_CsfpvTL5dBvDY_2ccNtB9_5Build23apple_deployment_targets_0s0_0B9_, symObjAddr: 0x1BC68, symBinAddr: 0x1000414F8, symSize: 0x48 }
  - { offset: 0x5C964, size: 0x8, addend: 0x0, symName: __RNCNvMs4_CsfpvTL5dBvDY_2ccNtB7_5Build23apple_deployment_targets0_0B7_, symObjAddr: 0x1BCB0, symBinAddr: 0x100041540, symSize: 0x3B0 }
  - { offset: 0x5CA55, size: 0x8, addend: 0x0, symName: __RNCNCNvMs4_CsfpvTL5dBvDY_2ccNtB9_5Build23apple_deployment_targets0_00B9_, symObjAddr: 0x1C060, symBinAddr: 0x1000418F0, symSize: 0x7C }
  - { offset: 0x5CA96, size: 0x8, addend: 0x0, symName: __RNCNvMs4_CsfpvTL5dBvDY_2ccNtB7_5Build23apple_deployment_targets1_0B7_, symObjAddr: 0x1C0DC, symBinAddr: 0x10004196C, symSize: 0x168 }
  - { offset: 0x5CAEF, size: 0x8, addend: 0x0, symName: __RNCNvMs4_CsfpvTL5dBvDY_2ccNtB7_5Build23apple_deployment_targets2_0B7_, symObjAddr: 0x1C244, symBinAddr: 0x100041AD4, symSize: 0x44 }
  - { offset: 0x5CB19, size: 0x8, addend: 0x0, symName: __RNCNvMs4_CsfpvTL5dBvDY_2ccNtB7_5Build23apple_deployment_targets3_0B7_, symObjAddr: 0x1C288, symBinAddr: 0x100041B18, symSize: 0x44 }
  - { offset: 0x5CB43, size: 0x8, addend: 0x0, symName: __RNCNvMs4_CsfpvTL5dBvDY_2ccNtB7_5Build23apple_deployment_targets4_0B7_, symObjAddr: 0x1C2CC, symBinAddr: 0x100041B5C, symSize: 0x44 }
  - { offset: 0x5CB6D, size: 0x8, addend: 0x0, symName: __RNCNvMs4_CsfpvTL5dBvDY_2ccNtB7_5Build23apple_deployment_targets5_0B7_, symObjAddr: 0x1C310, symBinAddr: 0x100041BA0, symSize: 0x44 }
  - { offset: 0x5CC08, size: 0x8, addend: 0x0, symName: __RNCNvMs4_CsfpvTL5dBvDY_2ccNtB7_5Build15cuda_file_count0B7_, symObjAddr: 0x1C624, symBinAddr: 0x100041EB4, symSize: 0x80 }
  - { offset: 0x5CC4E, size: 0x8, addend: 0x0, symName: __RNvNvMs4_CsfpvTL5dBvDY_2ccNtB7_5Build5which9check_exe, symObjAddr: 0x1C78C, symBinAddr: 0x10004201C, symSize: 0x1B4 }
  - { offset: 0x5CCB2, size: 0x8, addend: 0x0, symName: __RNCNvMs4_CsfpvTL5dBvDY_2ccNtB7_5Build5which0B7_, symObjAddr: 0x1C940, symBinAddr: 0x1000421D0, symSize: 0x6C }
  - { offset: 0x5CCF7, size: 0x8, addend: 0x0, symName: __RNCNCNvMs4_CsfpvTL5dBvDY_2ccNtB9_5Build5which00B9_, symObjAddr: 0x1C9AC, symBinAddr: 0x10004223C, symSize: 0xB4 }
  - { offset: 0x5CD39, size: 0x8, addend: 0x0, symName: __RNCNvMs4_CsfpvTL5dBvDY_2ccNtB7_5Build5whichs_0B7_, symObjAddr: 0x1CA60, symBinAddr: 0x1000422F0, symSize: 0x114 }
  - { offset: 0x5CDD1, size: 0x8, addend: 0x0, symName: __RNCNvMs4_CsfpvTL5dBvDY_2ccNtB7_5Build20find_msvc_tools_find0B7_, symObjAddr: 0x1CFA8, symBinAddr: 0x100042838, symSize: 0x64 }
  - { offset: 0x5DD92, size: 0x8, addend: 0x0, symName: __RNvCsfpvTL5dBvDY_2cc32NEW_STANDALONE_ANDROID_COMPILERS, symObjAddr: 0x23D18, symBinAddr: 0x100158490, symSize: 0x0 }
  - { offset: 0x5DDB2, size: 0x8, addend: 0x0, symName: __RNvNvCsfpvTL5dBvDY_2cc11is_disabled5CACHE, symObjAddr: 0x6CEE5, symBinAddr: 0x10016FC90, symSize: 0x0 }
  - { offset: 0x5DDBF, size: 0x8, addend: 0x0, symName: __RNvNvCsfpvTL5dBvDY_2cc11is_disabled19compute_is_disabled, symObjAddr: 0x1E8C4, symBinAddr: 0x100044130, symSize: 0x1D0 }
  - { offset: 0x5DE65, size: 0x8, addend: 0x0, symName: __RNvXs_CsfpvTL5dBvDY_2ccNtB4_5ErrorINtNtCsaNl6UpbT7bw_4core7convert4FromNtNtNtCsht3nMU9UgFu_3std2io5error5ErrorE4from, symObjAddr: 0x254, symBinAddr: 0x100027448, symSize: 0xD0 }
  - { offset: 0x5DED5, size: 0x8, addend: 0x0, symName: __RNvXs0_CsfpvTL5dBvDY_2ccNtB5_5ErrorNtNtCsaNl6UpbT7bw_4core3fmt7Display3fmt, symObjAddr: 0x324, symBinAddr: 0x100027518, symSize: 0x90 }
  - { offset: 0x5DF49, size: 0x8, addend: 0x0, symName: __RNvCsfpvTL5dBvDY_2cc4fail, symObjAddr: 0x1D4B4, symBinAddr: 0x100042D20, symSize: 0x64 }
  - { offset: 0x5DF91, size: 0x8, addend: 0x0, symName: __RNvCsfpvTL5dBvDY_2cc49android_clang_compiler_uses_target_arg_internally, symObjAddr: 0x1D518, symBinAddr: 0x100042D84, symSize: 0x150 }
  - { offset: 0x5E001, size: 0x8, addend: 0x0, symName: __RNvCsfpvTL5dBvDY_2cc21is_llvm_mingw_wrapper, symObjAddr: 0x1D668, symBinAddr: 0x100042ED4, symSize: 0xF8 }
  - { offset: 0x5E04A, size: 0x8, addend: 0x0, symName: __RNCNvCsfpvTL5dBvDY_2cc21is_llvm_mingw_wrapper0B3_, symObjAddr: 0x1D760, symBinAddr: 0x100042FCC, symSize: 0x38 }
  - { offset: 0x5E08B, size: 0x8, addend: 0x0, symName: __RNvCsfpvTL5dBvDY_2cc27autodetect_android_compiler, symObjAddr: 0x1D798, symBinAddr: 0x100043004, symSize: 0x82C }
  - { offset: 0x5E285, size: 0x8, addend: 0x0, symName: __RNCNvCsfpvTL5dBvDY_2cc27autodetect_android_compiler0B3_, symObjAddr: 0x1DFC4, symBinAddr: 0x100043830, symSize: 0x68 }
  - { offset: 0x5E2C3, size: 0x8, addend: 0x0, symName: __RNCNCNvCsfpvTL5dBvDY_2cc27autodetect_android_compiler00B5_, symObjAddr: 0x1E02C, symBinAddr: 0x100043898, symSize: 0x58 }
  - { offset: 0x5E30C, size: 0x8, addend: 0x0, symName: __RNvCsfpvTL5dBvDY_2cc52map_darwin_target_from_rust_to_compiler_architecture, symObjAddr: 0x1E084, symBinAddr: 0x1000438F0, symSize: 0x3F8 }
  - { offset: 0x5E358, size: 0x8, addend: 0x0, symName: __RNvCsfpvTL5dBvDY_2cc6is_arm, symObjAddr: 0x1E47C, symBinAddr: 0x100043CE8, symSize: 0x104 }
  - { offset: 0x5E386, size: 0x8, addend: 0x0, symName: __RNvCsfpvTL5dBvDY_2cc11is_disabled, symObjAddr: 0x1E768, symBinAddr: 0x100043FD4, symSize: 0x15C }
  - { offset: 0x5E3EF, size: 0x8, addend: 0x0, symName: __RNvCsfpvTL5dBvDY_2cc14check_disabled, symObjAddr: 0x1EA94, symBinAddr: 0x100044300, symSize: 0x98 }
  - { offset: 0x5E412, size: 0x8, addend: 0x0, symName: __RNvXsa_CsfpvTL5dBvDY_2ccNtB5_12CompilerFlagNtNtCsaNl6UpbT7bw_4core3cmp9PartialEq2eqB5_, symObjAddr: 0x1EB2C, symBinAddr: 0x100044398, symSize: 0x60 }
  - { offset: 0x5E455, size: 0x8, addend: 0x0, symName: __RINvXsb_CsfpvTL5dBvDY_2ccNtB6_12CompilerFlagNtNtCsaNl6UpbT7bw_4core4hash4Hash4hashNtNtNtCsht3nMU9UgFu_3std4hash6random13DefaultHasherEB6_, symObjAddr: 0x1EB8C, symBinAddr: 0x1000443F8, symSize: 0x40 }
  - { offset: 0x5E49D, size: 0x8, addend: 0x0, symName: __RNvXsd_CsfpvTL5dBvDY_2ccNtB5_10BuildCacheNtNtCsaNl6UpbT7bw_4core7default7Default7defaultB5_, symObjAddr: 0x1EBCC, symBinAddr: 0x100044438, symSize: 0x180 }
  - { offset: 0x5E4C1, size: 0x8, addend: 0x0, symName: __RNvXsg_CsfpvTL5dBvDY_2ccNtB5_9ErrorKindNtNtCsaNl6UpbT7bw_4core5clone5Clone5cloneB5_, symObjAddr: 0x1ED4C, symBinAddr: 0x1000445B8, symSize: 0x120 }
  - { offset: 0x5E4F5, size: 0x8, addend: 0x0, symName: __RNvXsh_CsfpvTL5dBvDY_2ccNtB5_9ErrorKindNtNtCsaNl6UpbT7bw_4core3fmt5Debug3fmtB5_, symObjAddr: 0x1EE6C, symBinAddr: 0x1000446D8, symSize: 0x1BC }
  - { offset: 0x5E538, size: 0x8, addend: 0x0, symName: __RNvXsi_CsfpvTL5dBvDY_2ccNtB5_5ErrorNtNtCsaNl6UpbT7bw_4core5clone5Clone5cloneB5_, symObjAddr: 0x1F028, symBinAddr: 0x100044894, symSize: 0x5C }
  - { offset: 0x5E56C, size: 0x8, addend: 0x0, symName: __RNvXsj_CsfpvTL5dBvDY_2ccNtB5_5ErrorNtNtCsaNl6UpbT7bw_4core3fmt5Debug3fmtB5_, symObjAddr: 0x1F084, symBinAddr: 0x1000448F0, symSize: 0x88 }
  - { offset: 0x5E5AF, size: 0x8, addend: 0x0, symName: __RNvXsp_CsfpvTL5dBvDY_2ccNtB5_10AsmFileExtNtNtCsaNl6UpbT7bw_4core3cmp9PartialEq2eqB5_, symObjAddr: 0x1F10C, symBinAddr: 0x100044978, symSize: 0x3C }
  - { offset: 0x616E3, size: 0x8, addend: 0x0, symName: __RINvXs3_NtNtCsaNl6UpbT7bw_4core4hash5implsRNtCsfpvTL5dBvDY_2cc12CompilerFlagNtB8_4Hash4hashNtNtNtCsht3nMU9UgFu_3std4hash6random13DefaultHasherEBH_, symObjAddr: 0x0, symBinAddr: 0x1000271F4, symSize: 0x30 }
  - { offset: 0x617FD, size: 0x8, addend: 0x0, symName: __RNvMNtCsaNl6UpbT7bw_4core5sliceSNtCsfpvTL5dBvDY_2cc6Object4iterBw_, symObjAddr: 0x30, symBinAddr: 0x100027224, symSize: 0x28 }
  - { offset: 0x618BA, size: 0x8, addend: 0x0, symName: __RNvXs_NtNtCsaNl6UpbT7bw_4core5slice4iterRSNtCsfpvTL5dBvDY_2cc6ObjectNtNtNtNtB8_4iter6traits7collect12IntoIterator9into_iterBG_, symObjAddr: 0x11C, symBinAddr: 0x100027310, symSize: 0x58 }
  - { offset: 0x61C20, size: 0x8, addend: 0x0, symName: __RNvXNtCsaNl6UpbT7bw_4core6borrowNtCsfpvTL5dBvDY_2cc12CompilerFlagINtB2_6BorrowBu_E6borrowBw_, symObjAddr: 0xA8, symBinAddr: 0x10002729C, symSize: 0x14 }
  - { offset: 0x61C6B, size: 0x8, addend: 0x0, symName: __RNvXs1_NtNtNtCsaNl6UpbT7bw_4core3ops8function5implsQNCNvMs4_CsfpvTL5dBvDY_2ccNtBW_5Build25get_base_archiver_variants1_0INtB7_5FnMutTRReEE8call_mutBW_, symObjAddr: 0xBC, symBinAddr: 0x1000272B0, symSize: 0x30 }
  - { offset: 0x61CBA, size: 0x8, addend: 0x0, symName: __RNvXs1_NtNtNtCsaNl6UpbT7bw_4core3ops8function5implsQNCNvMs4_CsfpvTL5dBvDY_2ccNtBW_5Build27getenv_with_target_prefixes0INtB7_5FnMutTRNtNtCsiTraAjBDcu4_5alloc6string6StringEE8call_mutBW_, symObjAddr: 0xEC, symBinAddr: 0x1000272E0, symSize: 0x30 }
  - { offset: 0x62FC9, size: 0x8, addend: 0x0, symName: __RNvXCsg4dki62PTrg_9hashbrownNtCsfpvTL5dBvDY_2cc12CompilerFlagINtB2_10EquivalentBq_E10equivalentBs_, symObjAddr: 0x58, symBinAddr: 0x10002724C, symSize: 0x50 }
  - { offset: 0x6344A, size: 0x8, addend: 0x0, symName: __RINvMCsfpvTL5dBvDY_2ccNtB3_5Error3newNtNtCsiTraAjBDcu4_5alloc6string6StringEB3_, symObjAddr: 0x174, symBinAddr: 0x100027368, symSize: 0x68 }
  - { offset: 0x63486, size: 0x8, addend: 0x0, symName: __RINvMCsfpvTL5dBvDY_2ccNtB3_5Error3newReEB3_, symObjAddr: 0x1DC, symBinAddr: 0x1000273D0, symSize: 0x78 }
  - { offset: 0x634C1, size: 0x8, addend: 0x0, symName: __RNvMs2_CsfpvTL5dBvDY_2ccNtB5_6Object3new, symObjAddr: 0x3B4, symBinAddr: 0x1000275A8, symSize: 0x38 }
  - { offset: 0x634F3, size: 0x8, addend: 0x0, symName: __RNvMs3_CsfpvTL5dBvDY_2ccNtB5_5Build3new, symObjAddr: 0x3EC, symBinAddr: 0x1000275E0, symSize: 0x4CC }
  - { offset: 0x63531, size: 0x8, addend: 0x0, symName: __RINvMs3_CsfpvTL5dBvDY_2ccNtB6_5Build4flagRNtNtNtCsht3nMU9UgFu_3std3ffi6os_str5OsStrEB6_, symObjAddr: 0x8B8, symBinAddr: 0x100027AAC, symSize: 0xAC }
  - { offset: 0x635BC, size: 0x8, addend: 0x0, symName: __RNvMs3_CsfpvTL5dBvDY_2ccNtB5_5Build3cpp, symObjAddr: 0xE34, symBinAddr: 0x100027B58, symSize: 0x2C }
  - { offset: 0x635EE, size: 0x8, addend: 0x0, symName: __RNvMs3_CsfpvTL5dBvDY_2ccNtB5_5Build4cuda, symObjAddr: 0xE60, symBinAddr: 0x100027B84, symSize: 0xE4 }
  - { offset: 0x63620, size: 0x8, addend: 0x0, symName: __RNvMs3_CsfpvTL5dBvDY_2ccNtB5_5Build8warnings, symObjAddr: 0x1128, symBinAddr: 0x100027C68, symSize: 0x40 }
  - { offset: 0x63652, size: 0x8, addend: 0x0, symName: __RNvMs3_CsfpvTL5dBvDY_2ccNtB5_5Build6target, symObjAddr: 0x11C8, symBinAddr: 0x100027CA8, symSize: 0xB0 }
  - { offset: 0x63684, size: 0x8, addend: 0x0, symName: __RNvMs3_CsfpvTL5dBvDY_2ccNtB5_5Build4host, symObjAddr: 0x1278, symBinAddr: 0x100027D58, symSize: 0xB0 }
  - { offset: 0x636B6, size: 0x8, addend: 0x0, symName: __RNvMs3_CsfpvTL5dBvDY_2ccNtB5_5Build9opt_level, symObjAddr: 0x1328, symBinAddr: 0x100027E08, symSize: 0xB4 }
  - { offset: 0x636E8, size: 0x8, addend: 0x0, symName: __RNvMs3_CsfpvTL5dBvDY_2ccNtB5_5Build5debug, symObjAddr: 0x148C, symBinAddr: 0x100027EBC, symSize: 0x34 }
  - { offset: 0x6371A, size: 0x8, addend: 0x0, symName: __RINvMs3_CsfpvTL5dBvDY_2ccNtB6_5Build8compilerRNtNtCsht3nMU9UgFu_3std4path4PathEB6_, symObjAddr: 0x14F4, symBinAddr: 0x100027EF0, symSize: 0xE4 }
  - { offset: 0x63755, size: 0x8, addend: 0x0, symName: __RNvMs3_CsfpvTL5dBvDY_2ccNtB5_5Build14cargo_metadata, symObjAddr: 0x15D8, symBinAddr: 0x100027FD4, symSize: 0x2C }
  - { offset: 0x63787, size: 0x8, addend: 0x0, symName: __RNvMs3_CsfpvTL5dBvDY_2ccNtB5_5Build25emit_rerun_if_env_changed, symObjAddr: 0x1728, symBinAddr: 0x100028000, symSize: 0x2C }
  - { offset: 0x637B9, size: 0x8, addend: 0x0, symName: __RNvMs3_CsfpvTL5dBvDY_2ccNtB5_5Build17inherit_rustflags, symObjAddr: 0x17BC, symBinAddr: 0x10002802C, symSize: 0x2C }
  - { offset: 0x637EB, size: 0x8, addend: 0x0, symName: __RNvMs4_CsfpvTL5dBvDY_2ccNtB5_5Build17ensure_check_file, symObjAddr: 0x1814, symBinAddr: 0x100028058, symSize: 0x428 }
  - { offset: 0x639CD, size: 0x8, addend: 0x0, symName: __RNvMs4_CsfpvTL5dBvDY_2ccNtB5_5Build23is_flag_supported_inner, symObjAddr: 0x1C3C, symBinAddr: 0x100028480, symSize: 0xE90 }
  - { offset: 0x63D0A, size: 0x8, addend: 0x0, symName: __RNvMs4_CsfpvTL5dBvDY_2ccNtB5_5Build11try_compile, symObjAddr: 0x2ACC, symBinAddr: 0x100029310, symSize: 0x1980 }
  - { offset: 0x64240, size: 0x8, addend: 0x0, symName: __RNvMs4_CsfpvTL5dBvDY_2ccNtB5_5Build7compile, symObjAddr: 0x4630, symBinAddr: 0x10002AE74, symSize: 0xD8 }
  - { offset: 0x64288, size: 0x8, addend: 0x0, symName: __RNvMs4_CsfpvTL5dBvDY_2ccNtB5_5Build15compile_objects, symObjAddr: 0x4B50, symBinAddr: 0x10002AF4C, symSize: 0x2AC }
  - { offset: 0x644BA, size: 0x8, addend: 0x0, symName: __RNvMs4_CsfpvTL5dBvDY_2ccNtB5_5Build25create_compile_object_cmd, symObjAddr: 0x4DFC, symBinAddr: 0x10002B1F8, symSize: 0x88C }
  - { offset: 0x646D2, size: 0x8, addend: 0x0, symName: __RNvMs4_CsfpvTL5dBvDY_2ccNtB5_5Build12get_compiler, symObjAddr: 0x5BA4, symBinAddr: 0x10002BA84, symSize: 0xF8 }
  - { offset: 0x6470C, size: 0x8, addend: 0x0, symName: __RNvMs4_CsfpvTL5dBvDY_2ccNtB5_5Build16try_get_compiler, symObjAddr: 0x5C9C, symBinAddr: 0x10002BB7C, symSize: 0x1248 }
  - { offset: 0x64B60, size: 0x8, addend: 0x0, symName: __RNvMs4_CsfpvTL5dBvDY_2ccNtB5_5Build17add_default_flags, symObjAddr: 0x6EE4, symBinAddr: 0x10002CDC4, symSize: 0x4884 }
  - { offset: 0x650E4, size: 0x8, addend: 0x0, symName: __RNvMs4_CsfpvTL5dBvDY_2ccNtB5_5Build23add_inherited_rustflags, symObjAddr: 0xB768, symBinAddr: 0x100031648, symSize: 0x24C }
  - { offset: 0x651CF, size: 0x8, addend: 0x0, symName: __RNvMs4_CsfpvTL5dBvDY_2ccNtB5_5Build20msvc_macro_assembler, symObjAddr: 0xB9B4, symBinAddr: 0x100031894, symSize: 0xC60 }
  - { offset: 0x6553C, size: 0x8, addend: 0x0, symName: __RNvMs4_CsfpvTL5dBvDY_2ccNtB5_5Build8assemble, symObjAddr: 0xC65C, symBinAddr: 0x10003253C, symSize: 0xAA0 }
  - { offset: 0x657C9, size: 0x8, addend: 0x0, symName: __RNvMs4_CsfpvTL5dBvDY_2ccNtB5_5Build20assemble_progressive, symObjAddr: 0xD1F0, symBinAddr: 0x1000330D0, symSize: 0x5FC }
  - { offset: 0x65905, size: 0x8, addend: 0x0, symName: __RNvMs4_CsfpvTL5dBvDY_2ccNtB5_5Build11apple_flags, symObjAddr: 0xD7EC, symBinAddr: 0x1000336CC, symSize: 0x9A0 }
  - { offset: 0x65A9A, size: 0x8, addend: 0x0, symName: __RINvMs4_CsfpvTL5dBvDY_2ccNtB6_5Build3cmdNtNtCsht3nMU9UgFu_3std4path7PathBufEB6_, symObjAddr: 0xE18C, symBinAddr: 0x10003406C, symSize: 0x170 }
  - { offset: 0x65B2A, size: 0x8, addend: 0x0, symName: __RINvMs4_CsfpvTL5dBvDY_2ccNtB6_5Build3cmdRNtNtCsht3nMU9UgFu_3std4path4PathEB6_, symObjAddr: 0xE2FC, symBinAddr: 0x1000341DC, symSize: 0x180 }
  - { offset: 0x65BC7, size: 0x8, addend: 0x0, symName: __RINvMs4_CsfpvTL5dBvDY_2ccNtB6_5Build3cmdRNtNtCsht3nMU9UgFu_3std4path7PathBufEB6_, symObjAddr: 0xE47C, symBinAddr: 0x10003435C, symSize: 0x178 }
  - { offset: 0x65C56, size: 0x8, addend: 0x0, symName: __RINvMs4_CsfpvTL5dBvDY_2ccNtB6_5Build3cmdReEB6_, symObjAddr: 0xE5F4, symBinAddr: 0x1000344D4, symSize: 0x180 }
  - { offset: 0x65CE6, size: 0x8, addend: 0x0, symName: __RNvMs4_CsfpvTL5dBvDY_2ccNtB5_5Build12prefer_clang, symObjAddr: 0xE774, symBinAddr: 0x100034654, symSize: 0x198 }
  - { offset: 0x65D20, size: 0x8, addend: 0x0, symName: __RNvMs4_CsfpvTL5dBvDY_2ccNtB5_5Build17get_base_compiler, symObjAddr: 0xE90C, symBinAddr: 0x1000347EC, symSize: 0x1F78 }
  - { offset: 0x661F9, size: 0x8, addend: 0x0, symName: __RNvMs4_CsfpvTL5dBvDY_2ccNtB5_5Build22rustc_wrapper_fallback, symObjAddr: 0x10E54, symBinAddr: 0x100036D34, symSize: 0x2DC }
  - { offset: 0x66369, size: 0x8, addend: 0x0, symName: __RNvMs4_CsfpvTL5dBvDY_2ccNtB5_5Build8env_tool, symObjAddr: 0x11130, symBinAddr: 0x100037010, symSize: 0xA48 }
  - { offset: 0x6656A, size: 0x8, addend: 0x0, symName: __RNvMs4_CsfpvTL5dBvDY_2ccNtB5_5Build19get_cpp_link_stdlib, symObjAddr: 0x11C08, symBinAddr: 0x100037AE8, symSize: 0x720 }
  - { offset: 0x6661F, size: 0x8, addend: 0x0, symName: __RNvMs4_CsfpvTL5dBvDY_2ccNtB5_5Build16try_get_archiver, symObjAddr: 0x12420, symBinAddr: 0x100038208, symSize: 0x120 }
  - { offset: 0x666A9, size: 0x8, addend: 0x0, symName: __RNvMs4_CsfpvTL5dBvDY_2ccNtB5_5Build26try_get_archiver_and_flags, symObjAddr: 0x12540, symBinAddr: 0x100038328, symSize: 0x408 }
  - { offset: 0x667CA, size: 0x8, addend: 0x0, symName: __RNvMs4_CsfpvTL5dBvDY_2ccNtB5_5Build17get_base_archiver, symObjAddr: 0x12948, symBinAddr: 0x100038730, symSize: 0x158 }
  - { offset: 0x66819, size: 0x8, addend: 0x0, symName: __RNvMs4_CsfpvTL5dBvDY_2ccNtB5_5Build25get_base_archiver_variant, symObjAddr: 0x12FF8, symBinAddr: 0x100038888, symSize: 0x17B4 }
  - { offset: 0x66C87, size: 0x8, addend: 0x0, symName: __RNvMs4_CsfpvTL5dBvDY_2ccNtB5_5Build17prefix_for_target, symObjAddr: 0x15270, symBinAddr: 0x10003AB00, symSize: 0xF0 }
  - { offset: 0x66CB9, size: 0x8, addend: 0x0, symName: __RNvMs4_CsfpvTL5dBvDY_2ccNtB5_5Build23find_working_gnu_prefix, symObjAddr: 0x174BC, symBinAddr: 0x10003CD4C, symSize: 0x160 }
  - { offset: 0x66D1A, size: 0x8, addend: 0x0, symName: __RNvMs4_CsfpvTL5dBvDY_2ccNtB5_5Build10get_target, symObjAddr: 0x179A0, symBinAddr: 0x10003D230, symSize: 0x17C }
  - { offset: 0x66D6C, size: 0x8, addend: 0x0, symName: __RNvMs4_CsfpvTL5dBvDY_2ccNtB5_5Build14get_raw_target, symObjAddr: 0x17B1C, symBinAddr: 0x10003D3AC, symSize: 0xD4 }
  - { offset: 0x66DAD, size: 0x8, addend: 0x0, symName: __RNvMs4_CsfpvTL5dBvDY_2ccNtB5_5Build20get_is_cross_compile, symObjAddr: 0x17BF0, symBinAddr: 0x10003D480, symSize: 0x27C }
  - { offset: 0x66E71, size: 0x8, addend: 0x0, symName: __RNvMs4_CsfpvTL5dBvDY_2ccNtB5_5Build13get_opt_level, symObjAddr: 0x17E6C, symBinAddr: 0x10003D6FC, symSize: 0xD4 }
  - { offset: 0x66EB2, size: 0x8, addend: 0x0, symName: __RNvMs4_CsfpvTL5dBvDY_2ccNtB5_5Build9get_debug, symObjAddr: 0x17F40, symBinAddr: 0x10003D7D0, symSize: 0x44 }
  - { offset: 0x66ED5, size: 0x8, addend: 0x0, symName: __RNvMs4_CsfpvTL5dBvDY_2ccNtB5_5Build23get_shell_escaped_flags, symObjAddr: 0x17FCC, symBinAddr: 0x10003D85C, symSize: 0x44 }
  - { offset: 0x66EF8, size: 0x8, addend: 0x0, symName: __RNvMs4_CsfpvTL5dBvDY_2ccNtB5_5Build17get_dwarf_version, symObjAddr: 0x18058, symBinAddr: 0x10003D8E8, symSize: 0x324 }
  - { offset: 0x66F76, size: 0x8, addend: 0x0, symName: __RNvMs4_CsfpvTL5dBvDY_2ccNtB5_5Build23get_force_frame_pointer, symObjAddr: 0x1837C, symBinAddr: 0x10003DC0C, symSize: 0x44 }
  - { offset: 0x66F99, size: 0x8, addend: 0x0, symName: __RNvMs4_CsfpvTL5dBvDY_2ccNtB5_5Build11get_out_dir, symObjAddr: 0x183F8, symBinAddr: 0x10003DC88, symSize: 0x144 }
  - { offset: 0x67060, size: 0x8, addend: 0x0, symName: __RNvMs4_CsfpvTL5dBvDY_2ccNtB5_5Build6getenv, symObjAddr: 0x18584, symBinAddr: 0x10003DE14, symSize: 0x564 }
  - { offset: 0x6718A, size: 0x8, addend: 0x0, symName: __RNvMs4_CsfpvTL5dBvDY_2ccNtB5_5Build14getenv_boolean, symObjAddr: 0x18EB0, symBinAddr: 0x10003E740, symSize: 0x1CC }
  - { offset: 0x671D3, size: 0x8, addend: 0x0, symName: __RNvMs4_CsfpvTL5dBvDY_2ccNtB5_5Build13getenv_unwrap, symObjAddr: 0x1907C, symBinAddr: 0x10003E90C, symSize: 0x120 }
  - { offset: 0x67261, size: 0x8, addend: 0x0, symName: __RNvMs4_CsfpvTL5dBvDY_2ccNtB5_5Build17getenv_unwrap_str, symObjAddr: 0x1919C, symBinAddr: 0x10003EA2C, symSize: 0x158 }
  - { offset: 0x672F4, size: 0x8, addend: 0x0, symName: __RNvMs4_CsfpvTL5dBvDY_2ccNtB5_5Build11target_envs, symObjAddr: 0x19384, symBinAddr: 0x10003EC14, symSize: 0x4B0 }
  - { offset: 0x674CF, size: 0x8, addend: 0x0, symName: __RNvMs4_CsfpvTL5dBvDY_2ccNtB5_5Build27getenv_with_target_prefixes, symObjAddr: 0x19834, symBinAddr: 0x10003F0C4, symSize: 0x2C4 }
  - { offset: 0x675BC, size: 0x8, addend: 0x0, symName: __RNvMs4_CsfpvTL5dBvDY_2ccNtB5_5Build8envflags, symObjAddr: 0x19B60, symBinAddr: 0x10003F3F0, symSize: 0x524 }
  - { offset: 0x676C2, size: 0x8, addend: 0x0, symName: __RNvMs4_CsfpvTL5dBvDY_2ccNtB5_5Build20fix_env_for_apple_os, symObjAddr: 0x1A084, symBinAddr: 0x10003F914, symSize: 0x158 }
  - { offset: 0x67750, size: 0x8, addend: 0x0, symName: __RNvMs4_CsfpvTL5dBvDY_2ccNtB5_5Build20apple_sdk_root_inner, symObjAddr: 0x1A1DC, symBinAddr: 0x10003FA6C, symSize: 0xAA8 }
  - { offset: 0x67852, size: 0x8, addend: 0x0, symName: __RNvMs4_CsfpvTL5dBvDY_2ccNtB5_5Build14apple_sdk_root, symObjAddr: 0x1AD90, symBinAddr: 0x100040620, symSize: 0x3C8 }
  - { offset: 0x67907, size: 0x8, addend: 0x0, symName: __RNvMs4_CsfpvTL5dBvDY_2ccNtB5_5Build23apple_deployment_target, symObjAddr: 0x1B158, symBinAddr: 0x1000409E8, symSize: 0x5FC }
  - { offset: 0x67A01, size: 0x8, addend: 0x0, symName: __RNvMs4_CsfpvTL5dBvDY_2ccNtB5_5Build17wasm_musl_sysroot, symObjAddr: 0x1C354, symBinAddr: 0x100041BE4, symSize: 0x148 }
  - { offset: 0x67A42, size: 0x8, addend: 0x0, symName: __RNvMs4_CsfpvTL5dBvDY_2ccNtB5_5Build12wasi_sysroot, symObjAddr: 0x1C49C, symBinAddr: 0x100041D2C, symSize: 0x148 }
  - { offset: 0x67A83, size: 0x8, addend: 0x0, symName: __RNvMs4_CsfpvTL5dBvDY_2ccNtB5_5Build15cuda_file_count, symObjAddr: 0x1C5E4, symBinAddr: 0x100041E74, symSize: 0x40 }
  - { offset: 0x67AA6, size: 0x8, addend: 0x0, symName: __RNvMs4_CsfpvTL5dBvDY_2ccNtB5_5Build5which, symObjAddr: 0x1C6A4, symBinAddr: 0x100041F34, symSize: 0xE8 }
  - { offset: 0x67B0D, size: 0x8, addend: 0x0, symName: __RNvMs4_CsfpvTL5dBvDY_2ccNtB5_5Build15search_programs, symObjAddr: 0x1CB74, symBinAddr: 0x100042404, symSize: 0x3D4 }
  - { offset: 0x67C27, size: 0x8, addend: 0x0, symName: __RNvMs4_CsfpvTL5dBvDY_2ccNtB5_5Build20find_msvc_tools_find, symObjAddr: 0x1CF48, symBinAddr: 0x1000427D8, symSize: 0x60 }
  - { offset: 0x67C68, size: 0x8, addend: 0x0, symName: __RNvMs4_CsfpvTL5dBvDY_2ccNtB5_5Build25find_msvc_tools_find_tool, symObjAddr: 0x1D00C, symBinAddr: 0x10004289C, symSize: 0xD0 }
  - { offset: 0x67CA9, size: 0x8, addend: 0x0, symName: __RNvMs4_CsfpvTL5dBvDY_2ccNtB5_5Build24autodetect_wasi_compiler, symObjAddr: 0x1D12C, symBinAddr: 0x1000429BC, symSize: 0x364 }
  - { offset: 0x67D7E, size: 0x8, addend: 0x0, symName: __RNvMs6_CsfpvTL5dBvDY_2ccNtB5_10AsmFileExt9from_path, symObjAddr: 0x1E580, symBinAddr: 0x100043DEC, symSize: 0x1E8 }
  - { offset: 0x683BF, size: 0x8, addend: 0x0, symName: __RINvMs6_NtCsg4dki62PTrg_9hashbrown3rawINtB6_8RawTableTINtNtCsiTraAjBDcu4_5alloc5boxed3BoxSIBR_NtNtNtCsht3nMU9UgFu_3std3ffi6os_str5OsStrEENtNtCsfpvTL5dBvDY_2cc4tool10ToolFamilyEE14reserve_rehashNCINvNtB8_3map11make_hasherBQ_B2b_NtNtNtB1A_4hash6random11RandomStateE0EB2f_, symObjAddr: 0x0, symBinAddr: 0x1000EDB2C, symSize: 0x838 }
  - { offset: 0x683FB, size: 0x8, addend: 0x0, symName: __RNCINvMs6_NtCsg4dki62PTrg_9hashbrown3rawINtB8_8RawTableTINtNtCsiTraAjBDcu4_5alloc5boxed3BoxSIBT_NtNtNtCsht3nMU9UgFu_3std3ffi6os_str5OsStrEENtNtCsfpvTL5dBvDY_2cc4tool10ToolFamilyEE14reserve_rehashNCINvNtBa_3map11make_hasherBS_B2d_NtNtNtB1C_4hash6random11RandomStateE0E0B2h_, symObjAddr: 0x5C54, symBinAddr: 0x100047D00, symSize: 0xC8 }
  - { offset: 0x685B8, size: 0x8, addend: 0x0, symName: __RNCINvMs6_NtCsg4dki62PTrg_9hashbrown3rawINtB8_8RawTableTINtNtCsiTraAjBDcu4_5alloc5boxed3BoxSIBT_NtNtNtCsht3nMU9UgFu_3std3ffi6os_str5OsStrEENtNtCsfpvTL5dBvDY_2cc4tool10ToolFamilyEE14reserve_rehashNCINvNtBa_3map11make_hasherBS_B2d_NtNtNtB1C_4hash6random11RandomStateE0Es_0B2h_, symObjAddr: 0x5D1C, symBinAddr: 0x100047DC8, symSize: 0x30 }
  - { offset: 0x68608, size: 0x8, addend: 0x0, symName: __RNCINvMs6_NtCsg4dki62PTrg_9hashbrown3rawINtB8_8RawTableTINtNtCsiTraAjBDcu4_5alloc5boxed3BoxeEINtNtBX_4sync3ArcNtNtNtCsht3nMU9UgFu_3std3ffi6os_str5OsStrEEE14reserve_rehashNCINvNtBa_3map11make_hasherBS_B1t_NtNtNtB1Q_4hash6random11RandomStateE0E0CsfpvTL5dBvDY_2cc, symObjAddr: 0x5EE4, symBinAddr: 0x100047F90, symSize: 0xC8 }
  - { offset: 0x687C5, size: 0x8, addend: 0x0, symName: __RNCINvMs6_NtCsg4dki62PTrg_9hashbrown3rawINtB8_8RawTableTINtNtCsiTraAjBDcu4_5alloc5boxed3BoxeEINtNtBX_4sync3ArcNtNtNtCsht3nMU9UgFu_3std3ffi6os_str5OsStrEEE14reserve_rehashNCINvNtBa_3map11make_hasherBS_B1t_NtNtNtB1Q_4hash6random11RandomStateE0Es_0CsfpvTL5dBvDY_2cc, symObjAddr: 0x5FAC, symBinAddr: 0x100048058, symSize: 0x30 }
  - { offset: 0x68815, size: 0x8, addend: 0x0, symName: __RNCINvMs6_NtCsg4dki62PTrg_9hashbrown3rawINtB8_8RawTableTINtNtCsiTraAjBDcu4_5alloc5boxed3BoxeEINtNtBX_4sync3ArceEEE14reserve_rehashNCINvNtBa_3map11make_hasherBS_B1t_NtNtNtCsht3nMU9UgFu_3std4hash6random11RandomStateE0E0CsfpvTL5dBvDY_2cc, symObjAddr: 0x6174, symBinAddr: 0x100048220, symSize: 0xC8 }
  - { offset: 0x689D2, size: 0x8, addend: 0x0, symName: __RNCINvMs6_NtCsg4dki62PTrg_9hashbrown3rawINtB8_8RawTableTINtNtCsiTraAjBDcu4_5alloc5boxed3BoxeEINtNtBX_4sync3ArceEEE14reserve_rehashNCINvNtBa_3map11make_hasherBS_B1t_NtNtNtCsht3nMU9UgFu_3std4hash6random11RandomStateE0Es_0CsfpvTL5dBvDY_2cc, symObjAddr: 0x623C, symBinAddr: 0x1000482E8, symSize: 0x30 }
  - { offset: 0x68A22, size: 0x8, addend: 0x0, symName: __RNCINvMs6_NtCsg4dki62PTrg_9hashbrown3rawINtB8_8RawTableTINtNtCsiTraAjBDcu4_5alloc5boxed3BoxeEINtNtCsaNl6UpbT7bw_4core6option6OptionINtNtBX_4sync3ArcNtNtNtCsht3nMU9UgFu_3std3ffi6os_str5OsStrEEEE14reserve_rehashNCINvNtBa_3map11make_hasherBS_B1t_NtNtNtB2s_4hash6random11RandomStateE0E0CsfpvTL5dBvDY_2cc, symObjAddr: 0x6404, symBinAddr: 0x1000484B0, symSize: 0xC8 }
  - { offset: 0x68BDF, size: 0x8, addend: 0x0, symName: __RNCINvMs6_NtCsg4dki62PTrg_9hashbrown3rawINtB8_8RawTableTINtNtCsiTraAjBDcu4_5alloc5boxed3BoxeEINtNtCsaNl6UpbT7bw_4core6option6OptionINtNtBX_4sync3ArcNtNtNtCsht3nMU9UgFu_3std3ffi6os_str5OsStrEEEE14reserve_rehashNCINvNtBa_3map11make_hasherBS_B1t_NtNtNtB2s_4hash6random11RandomStateE0Es_0CsfpvTL5dBvDY_2cc, symObjAddr: 0x64CC, symBinAddr: 0x100048578, symSize: 0x30 }
  - { offset: 0x68C2F, size: 0x8, addend: 0x0, symName: __RNCINvMs6_NtCsg4dki62PTrg_9hashbrown3rawINtB8_8RawTableTNtCsfpvTL5dBvDY_2cc12CompilerFlagbEE14reserve_rehashNCINvNtBa_3map11make_hasherBS_bNtNtNtCsht3nMU9UgFu_3std4hash6random11RandomStateE0E0BU_, symObjAddr: 0x6694, symBinAddr: 0x100048740, symSize: 0xC8 }
  - { offset: 0x68DEC, size: 0x8, addend: 0x0, symName: __RNCINvMs6_NtCsg4dki62PTrg_9hashbrown3rawINtB8_8RawTableTNtCsfpvTL5dBvDY_2cc12CompilerFlagbEE14reserve_rehashNCINvNtBa_3map11make_hasherBS_bNtNtNtCsht3nMU9UgFu_3std4hash6random11RandomStateE0Es_0BU_, symObjAddr: 0x675C, symBinAddr: 0x100048808, symSize: 0x30 }
  - { offset: 0x68E65, size: 0x8, addend: 0x0, symName: __RNCINvMs6_NtCsg4dki62PTrg_9hashbrown3rawINtB8_8RawTableTINtNtCsiTraAjBDcu4_5alloc5boxed3BoxSIBT_NtNtNtCsht3nMU9UgFu_3std3ffi6os_str5OsStrEENtNtCsfpvTL5dBvDY_2cc4tool10ToolFamilyEE24find_or_find_insert_slotNCINvNtBa_3map14equivalent_keyBS_BS_B2d_E0NCINvB3m_11make_hasherBS_B2d_NtNtNtB1C_4hash6random11RandomStateE0E0B2h_, symObjAddr: 0x5D4C, symBinAddr: 0x100047DF8, symSize: 0xCC }
  - { offset: 0x69032, size: 0x8, addend: 0x0, symName: __RNCINvMs6_NtCsg4dki62PTrg_9hashbrown3rawINtB8_8RawTableTINtNtCsiTraAjBDcu4_5alloc5boxed3BoxeEINtNtBX_4sync3ArcNtNtNtCsht3nMU9UgFu_3std3ffi6os_str5OsStrEEE24find_or_find_insert_slotNCINvNtBa_3map14equivalent_keyBS_BS_B1t_E0NCINvB2X_11make_hasherBS_B1t_NtNtNtB1Q_4hash6random11RandomStateE0E0CsfpvTL5dBvDY_2cc, symObjAddr: 0x5FDC, symBinAddr: 0x100048088, symSize: 0xCC }
  - { offset: 0x691FF, size: 0x8, addend: 0x0, symName: __RNCINvMs6_NtCsg4dki62PTrg_9hashbrown3rawINtB8_8RawTableTINtNtCsiTraAjBDcu4_5alloc5boxed3BoxeEINtNtBX_4sync3ArceEEE24find_or_find_insert_slotNCINvNtBa_3map14equivalent_keyBS_BS_B1t_E0NCINvB2j_11make_hasherBS_B1t_NtNtNtCsht3nMU9UgFu_3std4hash6random11RandomStateE0E0CsfpvTL5dBvDY_2cc, symObjAddr: 0x626C, symBinAddr: 0x100048318, symSize: 0xCC }
  - { offset: 0x693CC, size: 0x8, addend: 0x0, symName: __RNCINvMs6_NtCsg4dki62PTrg_9hashbrown3rawINtB8_8RawTableTINtNtCsiTraAjBDcu4_5alloc5boxed3BoxeEINtNtCsaNl6UpbT7bw_4core6option6OptionINtNtBX_4sync3ArcNtNtNtCsht3nMU9UgFu_3std3ffi6os_str5OsStrEEEE24find_or_find_insert_slotNCINvNtBa_3map14equivalent_keyBS_BS_B1t_E0NCINvB3A_11make_hasherBS_B1t_NtNtNtB2s_4hash6random11RandomStateE0E0CsfpvTL5dBvDY_2cc, symObjAddr: 0x64FC, symBinAddr: 0x1000485A8, symSize: 0xCC }
  - { offset: 0x69599, size: 0x8, addend: 0x0, symName: __RNCINvMs6_NtCsg4dki62PTrg_9hashbrown3rawINtB8_8RawTableTNtCsfpvTL5dBvDY_2cc12CompilerFlagbEE24find_or_find_insert_slotNCINvNtBa_3map14equivalent_keyBS_BS_bE0NCINvB1X_11make_hasherBS_bNtNtNtCsht3nMU9UgFu_3std4hash6random11RandomStateE0E0BU_, symObjAddr: 0x678C, symBinAddr: 0x100048838, symSize: 0xCC }
  - { offset: 0x6976C, size: 0x8, addend: 0x0, symName: __RNCINvMs6_NtCsg4dki62PTrg_9hashbrown3rawINtB8_8RawTableTINtNtCsiTraAjBDcu4_5alloc5boxed3BoxSIBT_NtNtNtCsht3nMU9UgFu_3std3ffi6os_str5OsStrEENtNtCsfpvTL5dBvDY_2cc4tool10ToolFamilyEE4findNCINvNtBa_3map14equivalent_keyBS_BS_B2d_E0E0B2h_, symObjAddr: 0x5E18, symBinAddr: 0x100047EC4, symSize: 0xCC }
  - { offset: 0x69930, size: 0x8, addend: 0x0, symName: __RNCINvMs6_NtCsg4dki62PTrg_9hashbrown3rawINtB8_8RawTableTINtNtCsiTraAjBDcu4_5alloc5boxed3BoxeEINtNtBX_4sync3ArcNtNtNtCsht3nMU9UgFu_3std3ffi6os_str5OsStrEEE4findNCINvNtBa_3map14equivalent_keyeBS_B1t_E0E0CsfpvTL5dBvDY_2cc, symObjAddr: 0x60A8, symBinAddr: 0x100048154, symSize: 0xCC }
  - { offset: 0x69AF4, size: 0x8, addend: 0x0, symName: __RNCINvMs6_NtCsg4dki62PTrg_9hashbrown3rawINtB8_8RawTableTINtNtCsiTraAjBDcu4_5alloc5boxed3BoxeEINtNtBX_4sync3ArceEEE4findNCINvNtBa_3map14equivalent_keyeBS_B1t_E0E0CsfpvTL5dBvDY_2cc, symObjAddr: 0x6338, symBinAddr: 0x1000483E4, symSize: 0xCC }
  - { offset: 0x69CB8, size: 0x8, addend: 0x0, symName: __RNCINvMs6_NtCsg4dki62PTrg_9hashbrown3rawINtB8_8RawTableTINtNtCsiTraAjBDcu4_5alloc5boxed3BoxeEINtNtCsaNl6UpbT7bw_4core6option6OptionINtNtBX_4sync3ArcNtNtNtCsht3nMU9UgFu_3std3ffi6os_str5OsStrEEEE4findNCINvNtBa_3map14equivalent_keyeBS_B1t_E0E0CsfpvTL5dBvDY_2cc, symObjAddr: 0x65C8, symBinAddr: 0x100048674, symSize: 0xCC }
  - { offset: 0x69E7C, size: 0x8, addend: 0x0, symName: __RNCINvMs6_NtCsg4dki62PTrg_9hashbrown3rawINtB8_8RawTableTNtCsfpvTL5dBvDY_2cc12CompilerFlagbEE4findNCINvNtBa_3map14equivalent_keyBS_BS_bE0E0BU_, symObjAddr: 0x6858, symBinAddr: 0x100048904, symSize: 0xCC }
  - { offset: 0x6B15A, size: 0x8, addend: 0x0, symName: __RNCINvMsa_NtCsg4dki62PTrg_9hashbrown3rawNtB8_13RawTableInner14prepare_resizeNtNtCsiTraAjBDcu4_5alloc5alloc6GlobalE0CsfpvTL5dBvDY_2cc, symObjAddr: 0x6924, symBinAddr: 0x1000489D0, symSize: 0xBC }
  - { offset: 0x6B33D, size: 0x8, addend: 0x0, symName: __RNCNvMsa_NtCsg4dki62PTrg_9hashbrown3rawNtB7_13RawTableInner15rehash_in_place0CsfpvTL5dBvDY_2cc, symObjAddr: 0x69E0, symBinAddr: 0x100048A8C, symSize: 0x22C }
  - { offset: 0x6C06A, size: 0x8, addend: 0x0, symName: __RNvNtCsg4dki62PTrg_9hashbrown3raw19capacity_to_bucketsCsfpvTL5dBvDY_2cc, symObjAddr: 0x8628, symBinAddr: 0x10004A6D4, symSize: 0x218 }
  - { offset: 0x6C273, size: 0x8, addend: 0x0, symName: __RNvXsg_NtCsg4dki62PTrg_9hashbrown3rawINtB5_8RawTableTINtNtCsiTraAjBDcu4_5alloc5boxed3BoxSIBQ_NtNtNtCsht3nMU9UgFu_3std3ffi6os_str5OsStrEENtNtCsfpvTL5dBvDY_2cc4tool10ToolFamilyEENtNtNtCsaNl6UpbT7bw_4core3ops4drop4Drop4dropB2e_, symObjAddr: 0x8840, symBinAddr: 0x10004A8EC, symSize: 0x3C }
  - { offset: 0x6C2AF, size: 0x8, addend: 0x0, symName: __RNvXsg_NtCsg4dki62PTrg_9hashbrown3rawINtB5_8RawTableTINtNtCsiTraAjBDcu4_5alloc5boxed3BoxeEINtNtBU_4sync3ArcNtNtNtCsht3nMU9UgFu_3std3ffi6os_str5OsStrEEENtNtNtCsaNl6UpbT7bw_4core3ops4drop4Drop4dropCsfpvTL5dBvDY_2cc, symObjAddr: 0x887C, symBinAddr: 0x10004A928, symSize: 0x3C }
  - { offset: 0x6C2EB, size: 0x8, addend: 0x0, symName: __RNvXsg_NtCsg4dki62PTrg_9hashbrown3rawINtB5_8RawTableTINtNtCsiTraAjBDcu4_5alloc5boxed3BoxeEINtNtBU_4sync3ArceEEENtNtNtCsaNl6UpbT7bw_4core3ops4drop4Drop4dropCsfpvTL5dBvDY_2cc, symObjAddr: 0x88B8, symBinAddr: 0x10004A964, symSize: 0x3C }
  - { offset: 0x6C327, size: 0x8, addend: 0x0, symName: __RNvXsg_NtCsg4dki62PTrg_9hashbrown3rawINtB5_8RawTableTINtNtCsiTraAjBDcu4_5alloc5boxed3BoxeEINtNtCsaNl6UpbT7bw_4core6option6OptionINtNtBU_4sync3ArcNtNtNtCsht3nMU9UgFu_3std3ffi6os_str5OsStrEEEENtNtNtB1v_3ops4drop4Drop4dropCsfpvTL5dBvDY_2cc, symObjAddr: 0x88F4, symBinAddr: 0x10004A9A0, symSize: 0x3C }
  - { offset: 0x6C363, size: 0x8, addend: 0x0, symName: __RNvXsg_NtCsg4dki62PTrg_9hashbrown3rawINtB5_8RawTableTNtCsfpvTL5dBvDY_2cc12CompilerFlagbEENtNtNtCsaNl6UpbT7bw_4core3ops4drop4Drop4dropBR_, symObjAddr: 0x8930, symBinAddr: 0x10004A9DC, symSize: 0x3C }
  - { offset: 0x71B6D, size: 0x8, addend: 0x0, symName: __RINvMs6_NtCsg4dki62PTrg_9hashbrown3rawINtB6_8RawTableTINtNtCsiTraAjBDcu4_5alloc5boxed3BoxSIBR_NtNtNtCsht3nMU9UgFu_3std3ffi6os_str5OsStrEENtNtCsfpvTL5dBvDY_2cc4tool10ToolFamilyEE14reserve_rehashNCINvNtB8_3map11make_hasherBQ_B2b_NtNtNtB1A_4hash6random11RandomStateE0EB2f_, symObjAddr: 0x0, symBinAddr: 0x1000EDB2C, symSize: 0x838 }
  - { offset: 0x7255D, size: 0x8, addend: 0x0, symName: __RINvMs6_NtCsg4dki62PTrg_9hashbrown3rawINtB6_8RawTableTINtNtCsiTraAjBDcu4_5alloc5boxed3BoxSIBR_NtNtNtCsht3nMU9UgFu_3std3ffi6os_str5OsStrEENtNtCsfpvTL5dBvDY_2cc4tool10ToolFamilyEE24find_or_find_insert_slotNCINvNtB8_3map14equivalent_keyBQ_BQ_B2b_E0NCINvB3k_11make_hasherBQ_B2b_NtNtNtB1A_4hash6random11RandomStateE0EB2f_, symObjAddr: 0x838, symBinAddr: 0x1000449B4, symSize: 0x140 }
  - { offset: 0x729DF, size: 0x8, addend: 0x0, symName: __RINvMs6_NtCsg4dki62PTrg_9hashbrown3rawINtB6_8RawTableTINtNtCsiTraAjBDcu4_5alloc5boxed3BoxSIBR_NtNtNtCsht3nMU9UgFu_3std3ffi6os_str5OsStrEENtNtCsfpvTL5dBvDY_2cc4tool10ToolFamilyEE4findNCINvNtB8_3map14equivalent_keyBQ_BQ_B2b_E0EB2f_, symObjAddr: 0x978, symBinAddr: 0x100044AF4, symSize: 0x330 }
  - { offset: 0x72E9A, size: 0x8, addend: 0x0, symName: __RINvMs6_NtCsg4dki62PTrg_9hashbrown3rawINtB6_8RawTableTINtNtCsiTraAjBDcu4_5alloc5boxed3BoxSIBR_NtNtNtCsht3nMU9UgFu_3std3ffi6os_str5OsStrEENtNtCsfpvTL5dBvDY_2cc4tool10ToolFamilyEE7reserveNCINvNtB8_3map11make_hasherBQ_B2b_NtNtNtB1A_4hash6random11RandomStateE0EB2f_, symObjAddr: 0xCA8, symBinAddr: 0x100044E24, symSize: 0xCC }
  - { offset: 0x72F72, size: 0x8, addend: 0x0, symName: __RINvMs6_NtCsg4dki62PTrg_9hashbrown3rawINtB6_8RawTableTINtNtCsiTraAjBDcu4_5alloc5boxed3BoxeEINtNtBV_4sync3ArcNtNtNtCsht3nMU9UgFu_3std3ffi6os_str5OsStrEEE14reserve_rehashNCINvNtB8_3map11make_hasherBQ_B1r_NtNtNtB1O_4hash6random11RandomStateE0ECsfpvTL5dBvDY_2cc, symObjAddr: 0xD74, symBinAddr: 0x1000EE364, symSize: 0x838 }
  - { offset: 0x73962, size: 0x8, addend: 0x0, symName: __RINvMs6_NtCsg4dki62PTrg_9hashbrown3rawINtB6_8RawTableTINtNtCsiTraAjBDcu4_5alloc5boxed3BoxeEINtNtBV_4sync3ArcNtNtNtCsht3nMU9UgFu_3std3ffi6os_str5OsStrEEE24find_or_find_insert_slotNCINvNtB8_3map14equivalent_keyBQ_BQ_B1r_E0NCINvB2V_11make_hasherBQ_B1r_NtNtNtB1O_4hash6random11RandomStateE0ECsfpvTL5dBvDY_2cc, symObjAddr: 0x15AC, symBinAddr: 0x100044EF0, symSize: 0x140 }
  - { offset: 0x73BE4, size: 0x8, addend: 0x0, symName: __RINvMs6_NtCsg4dki62PTrg_9hashbrown3rawINtB6_8RawTableTINtNtCsiTraAjBDcu4_5alloc5boxed3BoxeEINtNtBV_4sync3ArcNtNtNtCsht3nMU9UgFu_3std3ffi6os_str5OsStrEEE4findNCINvNtB8_3map14equivalent_keyeBQ_B1r_E0ECsfpvTL5dBvDY_2cc, symObjAddr: 0x16EC, symBinAddr: 0x100045030, symSize: 0x334 }
  - { offset: 0x74092, size: 0x8, addend: 0x0, symName: __RINvMs6_NtCsg4dki62PTrg_9hashbrown3rawINtB6_8RawTableTINtNtCsiTraAjBDcu4_5alloc5boxed3BoxeEINtNtBV_4sync3ArcNtNtNtCsht3nMU9UgFu_3std3ffi6os_str5OsStrEEE7reserveNCINvNtB8_3map11make_hasherBQ_B1r_NtNtNtB1O_4hash6random11RandomStateE0ECsfpvTL5dBvDY_2cc, symObjAddr: 0x1A20, symBinAddr: 0x100045364, symSize: 0xCC }
  - { offset: 0x7416A, size: 0x8, addend: 0x0, symName: __RINvMs6_NtCsg4dki62PTrg_9hashbrown3rawINtB6_8RawTableTINtNtCsiTraAjBDcu4_5alloc5boxed3BoxeEINtNtBV_4sync3ArceEEE14reserve_rehashNCINvNtB8_3map11make_hasherBQ_B1r_NtNtNtCsht3nMU9UgFu_3std4hash6random11RandomStateE0ECsfpvTL5dBvDY_2cc, symObjAddr: 0x1AEC, symBinAddr: 0x1000EEB9C, symSize: 0x838 }
  - { offset: 0x74B5A, size: 0x8, addend: 0x0, symName: __RINvMs6_NtCsg4dki62PTrg_9hashbrown3rawINtB6_8RawTableTINtNtCsiTraAjBDcu4_5alloc5boxed3BoxeEINtNtBV_4sync3ArceEEE24find_or_find_insert_slotNCINvNtB8_3map14equivalent_keyBQ_BQ_B1r_E0NCINvB2h_11make_hasherBQ_B1r_NtNtNtCsht3nMU9UgFu_3std4hash6random11RandomStateE0ECsfpvTL5dBvDY_2cc, symObjAddr: 0x2324, symBinAddr: 0x100045430, symSize: 0x140 }
  - { offset: 0x74DDC, size: 0x8, addend: 0x0, symName: __RINvMs6_NtCsg4dki62PTrg_9hashbrown3rawINtB6_8RawTableTINtNtCsiTraAjBDcu4_5alloc5boxed3BoxeEINtNtBV_4sync3ArceEEE4findNCINvNtB8_3map14equivalent_keyeBQ_B1r_E0ECsfpvTL5dBvDY_2cc, symObjAddr: 0x2464, symBinAddr: 0x100045570, symSize: 0x334 }
  - { offset: 0x7528A, size: 0x8, addend: 0x0, symName: __RINvMs6_NtCsg4dki62PTrg_9hashbrown3rawINtB6_8RawTableTINtNtCsiTraAjBDcu4_5alloc5boxed3BoxeEINtNtBV_4sync3ArceEEE7reserveNCINvNtB8_3map11make_hasherBQ_B1r_NtNtNtCsht3nMU9UgFu_3std4hash6random11RandomStateE0ECsfpvTL5dBvDY_2cc, symObjAddr: 0x2798, symBinAddr: 0x1000458A4, symSize: 0xCC }
  - { offset: 0x75362, size: 0x8, addend: 0x0, symName: __RINvMs6_NtCsg4dki62PTrg_9hashbrown3rawINtB6_8RawTableTINtNtCsiTraAjBDcu4_5alloc5boxed3BoxeEINtNtCsaNl6UpbT7bw_4core6option6OptionINtNtBV_4sync3ArcNtNtNtCsht3nMU9UgFu_3std3ffi6os_str5OsStrEEEE14reserve_rehashNCINvNtB8_3map11make_hasherBQ_B1r_NtNtNtB2q_4hash6random11RandomStateE0ECsfpvTL5dBvDY_2cc, symObjAddr: 0x2864, symBinAddr: 0x1000EF3D4, symSize: 0x838 }
  - { offset: 0x75D52, size: 0x8, addend: 0x0, symName: __RINvMs6_NtCsg4dki62PTrg_9hashbrown3rawINtB6_8RawTableTINtNtCsiTraAjBDcu4_5alloc5boxed3BoxeEINtNtCsaNl6UpbT7bw_4core6option6OptionINtNtBV_4sync3ArcNtNtNtCsht3nMU9UgFu_3std3ffi6os_str5OsStrEEEE24find_or_find_insert_slotNCINvNtB8_3map14equivalent_keyBQ_BQ_B1r_E0NCINvB3y_11make_hasherBQ_B1r_NtNtNtB2q_4hash6random11RandomStateE0ECsfpvTL5dBvDY_2cc, symObjAddr: 0x309C, symBinAddr: 0x100045970, symSize: 0x140 }
  - { offset: 0x75FD4, size: 0x8, addend: 0x0, symName: __RINvMs6_NtCsg4dki62PTrg_9hashbrown3rawINtB6_8RawTableTINtNtCsiTraAjBDcu4_5alloc5boxed3BoxeEINtNtCsaNl6UpbT7bw_4core6option6OptionINtNtBV_4sync3ArcNtNtNtCsht3nMU9UgFu_3std3ffi6os_str5OsStrEEEE4findNCINvNtB8_3map14equivalent_keyeBQ_B1r_E0ECsfpvTL5dBvDY_2cc, symObjAddr: 0x31DC, symBinAddr: 0x100045AB0, symSize: 0x334 }
  - { offset: 0x76482, size: 0x8, addend: 0x0, symName: __RINvMs6_NtCsg4dki62PTrg_9hashbrown3rawINtB6_8RawTableTINtNtCsiTraAjBDcu4_5alloc5boxed3BoxeEINtNtCsaNl6UpbT7bw_4core6option6OptionINtNtBV_4sync3ArcNtNtNtCsht3nMU9UgFu_3std3ffi6os_str5OsStrEEEE7reserveNCINvNtB8_3map11make_hasherBQ_B1r_NtNtNtB2q_4hash6random11RandomStateE0ECsfpvTL5dBvDY_2cc, symObjAddr: 0x3510, symBinAddr: 0x100045DE4, symSize: 0xCC }
  - { offset: 0x7655A, size: 0x8, addend: 0x0, symName: __RINvMs6_NtCsg4dki62PTrg_9hashbrown3rawINtB6_8RawTableTNtCsfpvTL5dBvDY_2cc12CompilerFlagbEE14reserve_rehashNCINvNtB8_3map11make_hasherBQ_bNtNtNtCsht3nMU9UgFu_3std4hash6random11RandomStateE0EBS_, symObjAddr: 0x35DC, symBinAddr: 0x1000EFC0C, symSize: 0x828 }
  - { offset: 0x76F4A, size: 0x8, addend: 0x0, symName: __RINvMs6_NtCsg4dki62PTrg_9hashbrown3rawINtB6_8RawTableTNtCsfpvTL5dBvDY_2cc12CompilerFlagbEE24find_or_find_insert_slotNCINvNtB8_3map14equivalent_keyBQ_BQ_bE0NCINvB1V_11make_hasherBQ_bNtNtNtCsht3nMU9UgFu_3std4hash6random11RandomStateE0EBS_, symObjAddr: 0x3E04, symBinAddr: 0x100045EB0, symSize: 0x140 }
  - { offset: 0x771CC, size: 0x8, addend: 0x0, symName: __RINvMs6_NtCsg4dki62PTrg_9hashbrown3rawINtB6_8RawTableTNtCsfpvTL5dBvDY_2cc12CompilerFlagbEE4findNCINvNtB8_3map14equivalent_keyBQ_BQ_bE0EBS_, symObjAddr: 0x3F44, symBinAddr: 0x100045FF0, symSize: 0x330 }
  - { offset: 0x7767A, size: 0x8, addend: 0x0, symName: __RINvMs6_NtCsg4dki62PTrg_9hashbrown3rawINtB6_8RawTableTNtCsfpvTL5dBvDY_2cc12CompilerFlagbEE7reserveNCINvNtB8_3map11make_hasherBQ_bNtNtNtCsht3nMU9UgFu_3std4hash6random11RandomStateE0EBS_, symObjAddr: 0x4274, symBinAddr: 0x100046320, symSize: 0xCC }
  - { offset: 0x7785E, size: 0x8, addend: 0x0, symName: __RINvMsa_NtCsg4dki62PTrg_9hashbrown3rawNtB6_13RawTableInner13drop_elementsTINtNtCsiTraAjBDcu4_5alloc5boxed3BoxSIB1b_NtNtNtCsht3nMU9UgFu_3std3ffi6os_str5OsStrEENtNtCsfpvTL5dBvDY_2cc4tool10ToolFamilyEEB2A_, symObjAddr: 0x4340, symBinAddr: 0x1000463EC, symSize: 0x178 }
  - { offset: 0x77B9C, size: 0x8, addend: 0x0, symName: __RINvMsa_NtCsg4dki62PTrg_9hashbrown3rawNtB6_13RawTableInner13drop_elementsTINtNtCsiTraAjBDcu4_5alloc5boxed3BoxeEINtNtB1f_4sync3ArcNtNtNtCsht3nMU9UgFu_3std3ffi6os_str5OsStrEEECsfpvTL5dBvDY_2cc, symObjAddr: 0x44B8, symBinAddr: 0x100046564, symSize: 0x178 }
  - { offset: 0x77EDA, size: 0x8, addend: 0x0, symName: __RINvMsa_NtCsg4dki62PTrg_9hashbrown3rawNtB6_13RawTableInner13drop_elementsTINtNtCsiTraAjBDcu4_5alloc5boxed3BoxeEINtNtB1f_4sync3ArceEEECsfpvTL5dBvDY_2cc, symObjAddr: 0x4630, symBinAddr: 0x1000466DC, symSize: 0x178 }
  - { offset: 0x78218, size: 0x8, addend: 0x0, symName: __RINvMsa_NtCsg4dki62PTrg_9hashbrown3rawNtB6_13RawTableInner13drop_elementsTINtNtCsiTraAjBDcu4_5alloc5boxed3BoxeEINtNtCsaNl6UpbT7bw_4core6option6OptionINtNtB1f_4sync3ArcNtNtNtCsht3nMU9UgFu_3std3ffi6os_str5OsStrEEEECsfpvTL5dBvDY_2cc, symObjAddr: 0x47A8, symBinAddr: 0x100046854, symSize: 0x178 }
  - { offset: 0x78556, size: 0x8, addend: 0x0, symName: __RINvMsa_NtCsg4dki62PTrg_9hashbrown3rawNtB6_13RawTableInner13drop_elementsTNtCsfpvTL5dBvDY_2cc12CompilerFlagbEEB1c_, symObjAddr: 0x4920, symBinAddr: 0x1000469CC, symSize: 0x178 }
  - { offset: 0x788C1, size: 0x8, addend: 0x0, symName: __RINvMsa_NtCsg4dki62PTrg_9hashbrown3rawNtB6_13RawTableInner16drop_inner_tableTINtNtCsiTraAjBDcu4_5alloc5boxed3BoxSIB1e_NtNtNtCsht3nMU9UgFu_3std3ffi6os_str5OsStrEENtNtCsfpvTL5dBvDY_2cc4tool10ToolFamilyENtNtB1i_5alloc6GlobalEB2D_, symObjAddr: 0x4A98, symBinAddr: 0x100046B44, symSize: 0xBC }
  - { offset: 0x78B64, size: 0x8, addend: 0x0, symName: __RINvMsa_NtCsg4dki62PTrg_9hashbrown3rawNtB6_13RawTableInner16drop_inner_tableTINtNtCsiTraAjBDcu4_5alloc5boxed3BoxeEINtNtB1i_4sync3ArcNtNtNtCsht3nMU9UgFu_3std3ffi6os_str5OsStrEENtNtB1i_5alloc6GlobalECsfpvTL5dBvDY_2cc, symObjAddr: 0x4B54, symBinAddr: 0x100046C00, symSize: 0xBC }
  - { offset: 0x78E07, size: 0x8, addend: 0x0, symName: __RINvMsa_NtCsg4dki62PTrg_9hashbrown3rawNtB6_13RawTableInner16drop_inner_tableTINtNtCsiTraAjBDcu4_5alloc5boxed3BoxeEINtNtB1i_4sync3ArceEENtNtB1i_5alloc6GlobalECsfpvTL5dBvDY_2cc, symObjAddr: 0x4C10, symBinAddr: 0x100046CBC, symSize: 0xBC }
  - { offset: 0x790AA, size: 0x8, addend: 0x0, symName: __RINvMsa_NtCsg4dki62PTrg_9hashbrown3rawNtB6_13RawTableInner16drop_inner_tableTINtNtCsiTraAjBDcu4_5alloc5boxed3BoxeEINtNtCsaNl6UpbT7bw_4core6option6OptionINtNtB1i_4sync3ArcNtNtNtCsht3nMU9UgFu_3std3ffi6os_str5OsStrEEENtNtB1i_5alloc6GlobalECsfpvTL5dBvDY_2cc, symObjAddr: 0x4CCC, symBinAddr: 0x100046D78, symSize: 0xBC }
  - { offset: 0x7934D, size: 0x8, addend: 0x0, symName: __RINvMsa_NtCsg4dki62PTrg_9hashbrown3rawNtB6_13RawTableInner16drop_inner_tableTNtCsfpvTL5dBvDY_2cc12CompilerFlagbENtNtCsiTraAjBDcu4_5alloc5alloc6GlobalEB1f_, symObjAddr: 0x4D88, symBinAddr: 0x100046E34, symSize: 0xBC }
  - { offset: 0x79560, size: 0x8, addend: 0x0, symName: __RINvMsa_NtCsg4dki62PTrg_9hashbrown3rawNtB6_13RawTableInner17new_uninitializedNtNtCsiTraAjBDcu4_5alloc5alloc6GlobalECsfpvTL5dBvDY_2cc, symObjAddr: 0x4E44, symBinAddr: 0x100046EF0, symSize: 0x1B0 }
  - { offset: 0x797B1, size: 0x8, addend: 0x0, symName: __RINvMsa_NtCsg4dki62PTrg_9hashbrown3rawNtB6_13RawTableInner22fallible_with_capacityNtNtCsiTraAjBDcu4_5alloc5alloc6GlobalECsfpvTL5dBvDY_2cc, symObjAddr: 0x4FF4, symBinAddr: 0x1000470A0, symSize: 0x2B0 }
  - { offset: 0x79C27, size: 0x8, addend: 0x0, symName: __RINvMsi_NtCsg4dki62PTrg_9hashbrown3rawINtB6_12RawIterRangeTINtNtCsiTraAjBDcu4_5alloc5boxed3BoxSIBW_NtNtNtCsht3nMU9UgFu_3std3ffi6os_str5OsStrEENtNtCsfpvTL5dBvDY_2cc4tool10ToolFamilyEE9next_implKb0_EB2k_, symObjAddr: 0x52A4, symBinAddr: 0x100047350, symSize: 0x1F0 }
  - { offset: 0x7A0A9, size: 0x8, addend: 0x0, symName: __RINvMsi_NtCsg4dki62PTrg_9hashbrown3rawINtB6_12RawIterRangeTINtNtCsiTraAjBDcu4_5alloc5boxed3BoxeEINtNtB10_4sync3ArcNtNtNtCsht3nMU9UgFu_3std3ffi6os_str5OsStrEEE9next_implKb0_ECsfpvTL5dBvDY_2cc, symObjAddr: 0x5494, symBinAddr: 0x100047540, symSize: 0x1F0 }
  - { offset: 0x7A52B, size: 0x8, addend: 0x0, symName: __RINvMsi_NtCsg4dki62PTrg_9hashbrown3rawINtB6_12RawIterRangeTINtNtCsiTraAjBDcu4_5alloc5boxed3BoxeEINtNtB10_4sync3ArceEEE9next_implKb0_ECsfpvTL5dBvDY_2cc, symObjAddr: 0x5684, symBinAddr: 0x100047730, symSize: 0x1F0 }
  - { offset: 0x7A9AD, size: 0x8, addend: 0x0, symName: __RINvMsi_NtCsg4dki62PTrg_9hashbrown3rawINtB6_12RawIterRangeTINtNtCsiTraAjBDcu4_5alloc5boxed3BoxeEINtNtCsaNl6UpbT7bw_4core6option6OptionINtNtB10_4sync3ArcNtNtNtCsht3nMU9UgFu_3std3ffi6os_str5OsStrEEEE9next_implKb0_ECsfpvTL5dBvDY_2cc, symObjAddr: 0x5874, symBinAddr: 0x100047920, symSize: 0x1F0 }
  - { offset: 0x7AE2F, size: 0x8, addend: 0x0, symName: __RINvMsi_NtCsg4dki62PTrg_9hashbrown3rawINtB6_12RawIterRangeTNtCsfpvTL5dBvDY_2cc12CompilerFlagbEE9next_implKb0_EBX_, symObjAddr: 0x5A64, symBinAddr: 0x100047B10, symSize: 0x1F0 }
  - { offset: 0x7C5F3, size: 0x8, addend: 0x0, symName: __RNvMs1_NtCsg4dki62PTrg_9hashbrown3rawNtB5_11TableLayout20calculate_layout_forCsfpvTL5dBvDY_2cc, symObjAddr: 0x6C0C, symBinAddr: 0x100048CB8, symSize: 0x210 }
  - { offset: 0x7CA80, size: 0x8, addend: 0x0, symName: __RNvMs6_NtCsg4dki62PTrg_9hashbrown3rawINtB5_8RawTableTINtNtCsiTraAjBDcu4_5alloc5boxed3BoxSIBQ_NtNtNtCsht3nMU9UgFu_3std3ffi6os_str5OsStrEENtNtCsfpvTL5dBvDY_2cc4tool10ToolFamilyEE14insert_in_slotB2e_, symObjAddr: 0x6E1C, symBinAddr: 0x100048EC8, symSize: 0x140 }
  - { offset: 0x7CFD1, size: 0x8, addend: 0x0, symName: __RNvMs6_NtCsg4dki62PTrg_9hashbrown3rawINtB5_8RawTableTINtNtCsiTraAjBDcu4_5alloc5boxed3BoxeEINtNtBU_4sync3ArcNtNtNtCsht3nMU9UgFu_3std3ffi6os_str5OsStrEEE14insert_in_slotCsfpvTL5dBvDY_2cc, symObjAddr: 0x6F5C, symBinAddr: 0x100049008, symSize: 0x140 }
  - { offset: 0x7D522, size: 0x8, addend: 0x0, symName: __RNvMs6_NtCsg4dki62PTrg_9hashbrown3rawINtB5_8RawTableTINtNtCsiTraAjBDcu4_5alloc5boxed3BoxeEINtNtBU_4sync3ArceEEE14insert_in_slotCsfpvTL5dBvDY_2cc, symObjAddr: 0x709C, symBinAddr: 0x100049148, symSize: 0x140 }
  - { offset: 0x7DA73, size: 0x8, addend: 0x0, symName: __RNvMs6_NtCsg4dki62PTrg_9hashbrown3rawINtB5_8RawTableTINtNtCsiTraAjBDcu4_5alloc5boxed3BoxeEINtNtCsaNl6UpbT7bw_4core6option6OptionINtNtBU_4sync3ArcNtNtNtCsht3nMU9UgFu_3std3ffi6os_str5OsStrEEEE14insert_in_slotCsfpvTL5dBvDY_2cc, symObjAddr: 0x71DC, symBinAddr: 0x100049288, symSize: 0x140 }
  - { offset: 0x7DFC4, size: 0x8, addend: 0x0, symName: __RNvMs6_NtCsg4dki62PTrg_9hashbrown3rawINtB5_8RawTableTNtCsfpvTL5dBvDY_2cc12CompilerFlagbEE14insert_in_slotBR_, symObjAddr: 0x731C, symBinAddr: 0x1000493C8, symSize: 0x148 }
  - { offset: 0x7E459, size: 0x8, addend: 0x0, symName: __RNvMsa_NtCsg4dki62PTrg_9hashbrown3rawNtB5_13RawTableInner15fix_insert_slotCsfpvTL5dBvDY_2cc, symObjAddr: 0x7464, symBinAddr: 0x100049510, symSize: 0x12C }
  - { offset: 0x7E7D9, size: 0x8, addend: 0x0, symName: __RNvMsa_NtCsg4dki62PTrg_9hashbrown3rawNtB5_13RawTableInner15rehash_in_placeCsfpvTL5dBvDY_2cc, symObjAddr: 0x7590, symBinAddr: 0x10004963C, symSize: 0x4AC }
  - { offset: 0x7EFE1, size: 0x8, addend: 0x0, symName: __RNvMsa_NtCsg4dki62PTrg_9hashbrown3rawNtB5_13RawTableInner16find_insert_slotCsfpvTL5dBvDY_2cc, symObjAddr: 0x7A3C, symBinAddr: 0x100049AE8, symSize: 0x11C }
  - { offset: 0x7F1DC, size: 0x8, addend: 0x0, symName: __RNvMsa_NtCsg4dki62PTrg_9hashbrown3rawNtB5_13RawTableInner19prepare_insert_slotCsfpvTL5dBvDY_2cc, symObjAddr: 0x7B58, symBinAddr: 0x100049C04, symSize: 0x74 }
  - { offset: 0x7F4CD, size: 0x8, addend: 0x0, symName: __RNvMsa_NtCsg4dki62PTrg_9hashbrown3rawNtB5_13RawTableInner23prepare_rehash_in_placeCsfpvTL5dBvDY_2cc, symObjAddr: 0x7BCC, symBinAddr: 0x100049C78, symSize: 0x258 }
  - { offset: 0x7FBD9, size: 0x8, addend: 0x0, symName: __RNvMsa_NtCsg4dki62PTrg_9hashbrown3rawNtB5_13RawTableInner25find_insert_slot_in_groupCsfpvTL5dBvDY_2cc, symObjAddr: 0x7E24, symBinAddr: 0x100049ED0, symSize: 0x15C }
  - { offset: 0x7FE77, size: 0x8, addend: 0x0, symName: __RNvMsa_NtCsg4dki62PTrg_9hashbrown3rawNtB5_13RawTableInner30find_or_find_insert_slot_innerCsfpvTL5dBvDY_2cc, symObjAddr: 0x7F80, symBinAddr: 0x10004A02C, symSize: 0x2C0 }
  - { offset: 0x80270, size: 0x8, addend: 0x0, symName: __RNvMsi_NtCsg4dki62PTrg_9hashbrown3rawINtB5_12RawIterRangeTINtNtCsiTraAjBDcu4_5alloc5boxed3BoxSIBV_NtNtNtCsht3nMU9UgFu_3std3ffi6os_str5OsStrEENtNtCsfpvTL5dBvDY_2cc4tool10ToolFamilyEE3newB2j_, symObjAddr: 0x8240, symBinAddr: 0x10004A2EC, symSize: 0xC8 }
  - { offset: 0x80511, size: 0x8, addend: 0x0, symName: __RNvMsi_NtCsg4dki62PTrg_9hashbrown3rawINtB5_12RawIterRangeTINtNtCsiTraAjBDcu4_5alloc5boxed3BoxeEINtNtBZ_4sync3ArcNtNtNtCsht3nMU9UgFu_3std3ffi6os_str5OsStrEEE3newCsfpvTL5dBvDY_2cc, symObjAddr: 0x8308, symBinAddr: 0x10004A3B4, symSize: 0xC8 }
  - { offset: 0x807B2, size: 0x8, addend: 0x0, symName: __RNvMsi_NtCsg4dki62PTrg_9hashbrown3rawINtB5_12RawIterRangeTINtNtCsiTraAjBDcu4_5alloc5boxed3BoxeEINtNtBZ_4sync3ArceEEE3newCsfpvTL5dBvDY_2cc, symObjAddr: 0x83D0, symBinAddr: 0x10004A47C, symSize: 0xC8 }
  - { offset: 0x80A53, size: 0x8, addend: 0x0, symName: __RNvMsi_NtCsg4dki62PTrg_9hashbrown3rawINtB5_12RawIterRangeTINtNtCsiTraAjBDcu4_5alloc5boxed3BoxeEINtNtCsaNl6UpbT7bw_4core6option6OptionINtNtBZ_4sync3ArcNtNtNtCsht3nMU9UgFu_3std3ffi6os_str5OsStrEEEE3newCsfpvTL5dBvDY_2cc, symObjAddr: 0x8498, symBinAddr: 0x10004A544, symSize: 0xC8 }
  - { offset: 0x80CF4, size: 0x8, addend: 0x0, symName: __RNvMsi_NtCsg4dki62PTrg_9hashbrown3rawINtB5_12RawIterRangeTNtCsfpvTL5dBvDY_2cc12CompilerFlagbEE3newBW_, symObjAddr: 0x8560, symBinAddr: 0x10004A60C, symSize: 0xC8 }
  - { offset: 0x8395A, size: 0x8, addend: 0x0, symName: __RNvMNtCsaNl6UpbT7bw_4core5sliceSRINtNtCsiTraAjBDcu4_5alloc3vec3VechE4iterCsfpvTL5dBvDY_2cc, symObjAddr: 0x19F0, symBinAddr: 0x10004BE08, symSize: 0x28 }
  - { offset: 0x8556A, size: 0x8, addend: 0x0, symName: __RINvXsd_NtCsiTraAjBDcu4_5alloc3vecINtB6_3VecINtNtB8_5boxed3BoxNtNtNtCsht3nMU9UgFu_3std3ffi6os_str5OsStrEEINtNtNtNtCsaNl6UpbT7bw_4core4iter6traits7collect12FromIteratorBG_E9from_iterINtNtNtB1M_8adapters3map3MapINtNtB2Y_5chain5ChainINtNtB2Y_6cloned6ClonedINtNtNtB1O_5slice4iter4IterRBY_EEIB2U_IB44_NtNtB8_6string6StringEINvMsl_B10_BY_3newB4K_EEENvYB4u_INtNtB1O_7convert4IntoBG_E4intoEECsfpvTL5dBvDY_2cc, symObjAddr: 0x1534, symBinAddr: 0x10004BA40, symSize: 0x3C }
  - { offset: 0x855AB, size: 0x8, addend: 0x0, symName: __RINvXsd_NtCsiTraAjBDcu4_5alloc3vecINtB6_3VecNtNtB8_6string6StringEINtNtNtNtCsaNl6UpbT7bw_4core4iter6traits7collect12FromIteratorBG_E9from_iterINtNtNtB19_8adapters3map3MapNtNtNtB1b_3str4iter15SplitWhitespaceNCNvMs4_CsfpvTL5dBvDY_2ccNtB3q_5Build8env_tool0EEB3q_, symObjAddr: 0x1570, symBinAddr: 0x10004BA7C, symSize: 0x3C }
  - { offset: 0x855EC, size: 0x8, addend: 0x0, symName: __RINvXsd_NtCsiTraAjBDcu4_5alloc3vecINtB6_3VecNtNtB8_6string6StringEINtNtNtNtCsaNl6UpbT7bw_4core4iter6traits7collect12FromIteratorBG_E9from_iterINtNtNtB19_8adapters3map3MapNtNtNtB1b_3str4iter15SplitWhitespaceNCNvMs4_CsfpvTL5dBvDY_2ccNtB3q_5Build8env_tools_0EEB3q_, symObjAddr: 0x15AC, symBinAddr: 0x10004BAB8, symSize: 0x3C }
  - { offset: 0x8562D, size: 0x8, addend: 0x0, symName: __RINvXsd_NtCsiTraAjBDcu4_5alloc3vecINtB6_3VecRNtNtCsht3nMU9UgFu_3std4path4PathEINtNtNtNtCsaNl6UpbT7bw_4core4iter6traits7collect12FromIteratorBG_E9from_iterINtNtNtB1l_8adapters5chain5ChainINtNtB2x_3map3MapINtNtNtB1n_5slice4iter4IterNtCsfpvTL5dBvDY_2cc6ObjectENCNvMs4_B3I_NtB3I_5Build8assemble0EIB2Z_IB3g_INtNtB8_4sync3ArcBH_EENvYB4Q_NtNtNtB1n_3ops5deref5Deref5derefEEEB3I_, symObjAddr: 0x1624, symBinAddr: 0x10004BAF4, symSize: 0x3C }
  - { offset: 0x8566E, size: 0x8, addend: 0x0, symName: __RINvXsd_NtCsiTraAjBDcu4_5alloc3vecINtB6_3VecReEINtNtNtNtCsaNl6UpbT7bw_4core4iter6traits7collect12FromIteratorBG_E9from_iterINtNtNtBS_3str4iter5SplitcEECsfpvTL5dBvDY_2cc, symObjAddr: 0x1660, symBinAddr: 0x10004BB30, symSize: 0x3C }
  - { offset: 0x856AF, size: 0x8, addend: 0x0, symName: __RINvXsd_NtCsiTraAjBDcu4_5alloc3vecINtB6_3VecTNtNtNtCsht3nMU9UgFu_3std3ffi6os_str8OsStringBH_EEINtNtNtNtCsaNl6UpbT7bw_4core4iter6traits7collect12FromIteratorBG_E9from_iterINtNtNtB1B_8adapters3map3MapINtNtNtB1D_5slice4iter4IterBG_ENCNvMNtCsfpvTL5dBvDY_2cc4toolNtB3K_4Tool20from_find_msvc_tools0EEB3M_, symObjAddr: 0x169C, symBinAddr: 0x10004BB6C, symSize: 0x40 }
  - { offset: 0x856EF, size: 0x8, addend: 0x0, symName: __RINvXsd_NtCsiTraAjBDcu4_5alloc3vecINtB6_3VechEINtNtNtNtCsaNl6UpbT7bw_4core4iter6traits7collect12FromIteratorhE9from_iterINtNtNtBP_8adapters3map3MapINtNtNtBR_5slice4iter4IterhENCNvNtB8_3str13replace_ascii0EECsfpvTL5dBvDY_2cc, symObjAddr: 0x16DC, symBinAddr: 0x10004BBAC, symSize: 0x3C }
  - { offset: 0x85736, size: 0x8, addend: 0x0, symName: __RINvXsh_NtCsiTraAjBDcu4_5alloc3vecINtB6_3VecNtNtB8_6string6StringEINtNtNtNtCsaNl6UpbT7bw_4core4iter6traits7collect6ExtendBG_E6extendINtNtNtB19_8adapters3map3MapNtNtNtB1b_3str4iter20SplitAsciiWhitespaceNvYeNtBI_8ToString9to_stringEECsfpvTL5dBvDY_2cc, symObjAddr: 0x1760, symBinAddr: 0x10004BBE8, symSize: 0x48 }
  - { offset: 0x8578B, size: 0x8, addend: 0x0, symName: __RINvXsh_NtCsiTraAjBDcu4_5alloc3vecINtB6_3VecNtNtB8_6string6StringEINtNtNtNtCsaNl6UpbT7bw_4core4iter6traits7collect6ExtendBG_E6extendNtCs7fJiqweRQJY_5shlex5ShlexECsfpvTL5dBvDY_2cc, symObjAddr: 0x17A8, symBinAddr: 0x10004BC30, symSize: 0x48 }
  - { offset: 0x857E0, size: 0x8, addend: 0x0, symName: __RINvXsh_NtCsiTraAjBDcu4_5alloc3vecINtB6_3VecNtNtNtCsht3nMU9UgFu_3std3ffi6os_str8OsStringEINtNtNtNtCsaNl6UpbT7bw_4core4iter6traits7collect6ExtendBG_E6extendABG_j6_ECsfpvTL5dBvDY_2cc, symObjAddr: 0x17F0, symBinAddr: 0x10004BC78, symSize: 0x48 }
  - { offset: 0x85840, size: 0x8, addend: 0x0, symName: __RNCINvMsi_NtCsiTraAjBDcu4_5alloc3vecINtB8_3VecINtNtBa_5boxed3BoxNtNtNtCsht3nMU9UgFu_3std3ffi6os_str5OsStrEE14extend_trustedINtNtNtNtCsaNl6UpbT7bw_4core4iter8adapters3map3MapINtNtB22_5chain5ChainINtNtB22_6cloned6ClonedINtNtNtB26_5slice4iter4IterRB10_EEIB1Y_IB3u_NtNtBa_6string6StringEINvMsl_B12_B10_3newB4b_EEENvYB3U_INtNtB26_7convert4IntoBI_E4intoEE0CsfpvTL5dBvDY_2cc, symObjAddr: 0x18A8, symBinAddr: 0x10004BCC0, symSize: 0x40 }
  - { offset: 0x858FD, size: 0x8, addend: 0x0, symName: __RNCINvMsi_NtCsiTraAjBDcu4_5alloc3vecINtB8_3VecNtNtNtCsht3nMU9UgFu_3std3ffi6os_str8OsStringE14extend_trustedINtNtNtCsaNl6UpbT7bw_4core5array4iter8IntoIterBI_Kj6_EE0CsfpvTL5dBvDY_2cc, symObjAddr: 0x18E8, symBinAddr: 0x10004BD00, symSize: 0x44 }
  - { offset: 0x859AA, size: 0x8, addend: 0x0, symName: __RNCINvMsi_NtCsiTraAjBDcu4_5alloc3vecINtB8_3VecRNtNtCsht3nMU9UgFu_3std4path4PathE14extend_trustedINtNtNtNtCsaNl6UpbT7bw_4core4iter8adapters5chain5ChainINtNtB1B_3map3MapINtNtNtB1F_5slice4iter4IterNtCsfpvTL5dBvDY_2cc6ObjectENCNvMs4_B38_NtB38_5Build8assemble0EIB2p_IB2G_INtNtBa_4sync3ArcBJ_EENvYB4g_NtNtNtB1F_3ops5deref5Deref5derefEEE0B38_, symObjAddr: 0x192C, symBinAddr: 0x10004BD44, symSize: 0x40 }
  - { offset: 0x85A67, size: 0x8, addend: 0x0, symName: __RNCINvMsi_NtCsiTraAjBDcu4_5alloc3vecINtB8_3VecTNtNtNtCsht3nMU9UgFu_3std3ffi6os_str8OsStringBJ_EE14extend_trustedINtNtNtNtCsaNl6UpbT7bw_4core4iter8adapters3map3MapINtNtNtB1V_5slice4iter4IterBI_ENCNvMNtCsfpvTL5dBvDY_2cc4toolNtB3a_4Tool20from_find_msvc_tools0EE0B3c_, symObjAddr: 0x196C, symBinAddr: 0x10004BD84, symSize: 0x54 }
  - { offset: 0x85B25, size: 0x8, addend: 0x0, symName: __RNCINvMsi_NtCsiTraAjBDcu4_5alloc3vecINtB8_3VechE14extend_trustedINtNtNtNtCsaNl6UpbT7bw_4core4iter8adapters3map3MapINtNtNtB19_5slice4iter4IterhENCNvNtBa_3str13replace_ascii0EE0CsfpvTL5dBvDY_2cc, symObjAddr: 0x19C0, symBinAddr: 0x10004BDD8, symSize: 0x30 }
  - { offset: 0x85FA7, size: 0x8, addend: 0x0, symName: __RNvXNtNtCsiTraAjBDcu4_5alloc3vec11spec_extendINtB4_3VecNtNtB6_6string6StringEINtB2_10SpecExtendBR_INtNtNtNtCsaNl6UpbT7bw_4core4iter8adapters3map3MapNtNtNtB1H_3str4iter15SplitWhitespaceNCNvMs4_CsfpvTL5dBvDY_2ccNtB34_5Build8env_tool0EE11spec_extendB34_, symObjAddr: 0x3140, symBinAddr: 0x10004D478, symSize: 0x24 }
  - { offset: 0x85FF9, size: 0x8, addend: 0x0, symName: __RNvXNtNtCsiTraAjBDcu4_5alloc3vec11spec_extendINtB4_3VecNtNtB6_6string6StringEINtB2_10SpecExtendBR_INtNtNtNtCsaNl6UpbT7bw_4core4iter8adapters3map3MapNtNtNtB1H_3str4iter15SplitWhitespaceNCNvMs4_CsfpvTL5dBvDY_2ccNtB34_5Build8env_tools_0EE11spec_extendB34_, symObjAddr: 0x3164, symBinAddr: 0x10004D49C, symSize: 0x24 }
  - { offset: 0x8604B, size: 0x8, addend: 0x0, symName: __RNvXNtNtCsiTraAjBDcu4_5alloc3vec11spec_extendINtB4_3VecNtNtB6_6string6StringEINtB2_10SpecExtendBR_INtNtNtNtCsaNl6UpbT7bw_4core4iter8adapters3map3MapNtNtNtB1H_3str4iter20SplitAsciiWhitespaceNvYeNtBT_8ToString9to_stringEE11spec_extendCsfpvTL5dBvDY_2cc, symObjAddr: 0x3188, symBinAddr: 0x10004D4C0, symSize: 0x24 }
  - { offset: 0x8609D, size: 0x8, addend: 0x0, symName: __RNvXNtNtCsiTraAjBDcu4_5alloc3vec11spec_extendINtB4_3VecNtNtB6_6string6StringEINtB2_10SpecExtendBR_NtCs7fJiqweRQJY_5shlex5ShlexE11spec_extendCsfpvTL5dBvDY_2cc, symObjAddr: 0x31AC, symBinAddr: 0x10004D4E4, symSize: 0x24 }
  - { offset: 0x860EF, size: 0x8, addend: 0x0, symName: __RNvXNtNtCsiTraAjBDcu4_5alloc3vec11spec_extendINtB4_3VecReEINtB2_10SpecExtendBR_INtNtNtCsaNl6UpbT7bw_4core3str4iter5SplitcEE11spec_extendCsfpvTL5dBvDY_2cc, symObjAddr: 0x31D0, symBinAddr: 0x10004D508, symSize: 0x24 }
  - { offset: 0x86147, size: 0x8, addend: 0x0, symName: __RNvXs_NtNtCsiTraAjBDcu4_5alloc3vec11spec_extendINtB6_3VecINtNtB8_5boxed3BoxNtNtNtCsht3nMU9UgFu_3std3ffi6os_str5OsStrEEINtB4_10SpecExtendBT_INtNtNtNtCsaNl6UpbT7bw_4core4iter8adapters3map3MapINtNtB2i_5chain5ChainINtNtB2i_6cloned6ClonedINtNtNtB2m_5slice4iter4IterRB1b_EEIB2e_IB3K_NtNtB8_6string6StringEINvMsl_B1d_B1b_3newB4r_EEENvYB4a_INtNtB2m_7convert4IntoBT_E4intoEE11spec_extendCsfpvTL5dBvDY_2cc, symObjAddr: 0x3E9C, symBinAddr: 0x10004E084, symSize: 0x24 }
  - { offset: 0x86199, size: 0x8, addend: 0x0, symName: __RNvXs_NtNtCsiTraAjBDcu4_5alloc3vec11spec_extendINtB6_3VecNtNtNtCsht3nMU9UgFu_3std3ffi6os_str8OsStringEINtB4_10SpecExtendBT_INtNtNtCsaNl6UpbT7bw_4core5array4iter8IntoIterBT_Kj6_EE11spec_extendCsfpvTL5dBvDY_2cc, symObjAddr: 0x3EC0, symBinAddr: 0x10004E0A8, symSize: 0x24 }
  - { offset: 0x861EB, size: 0x8, addend: 0x0, symName: __RNvXs_NtNtCsiTraAjBDcu4_5alloc3vec11spec_extendINtB6_3VecRNtNtCsht3nMU9UgFu_3std4path4PathEINtB4_10SpecExtendBT_INtNtNtNtCsaNl6UpbT7bw_4core4iter8adapters5chain5ChainINtNtB1R_3map3MapINtNtNtB1V_5slice4iter4IterNtCsfpvTL5dBvDY_2cc6ObjectENCNvMs4_B3o_NtB3o_5Build8assemble0EIB2F_IB2W_INtNtB8_4sync3ArcBU_EENvYB4w_NtNtNtB1V_3ops5deref5Deref5derefEEE11spec_extendB3o_, symObjAddr: 0x3EE4, symBinAddr: 0x10004E0CC, symSize: 0x24 }
  - { offset: 0x8623D, size: 0x8, addend: 0x0, symName: __RNvXs_NtNtCsiTraAjBDcu4_5alloc3vec11spec_extendINtB6_3VecTNtNtNtCsht3nMU9UgFu_3std3ffi6os_str8OsStringBU_EEINtB4_10SpecExtendBT_INtNtNtNtCsaNl6UpbT7bw_4core4iter8adapters3map3MapINtNtNtB2b_5slice4iter4IterBT_ENCNvMNtCsfpvTL5dBvDY_2cc4toolNtB3q_4Tool20from_find_msvc_tools0EE11spec_extendB3s_, symObjAddr: 0x3F08, symBinAddr: 0x10004E0F0, symSize: 0x34 }
  - { offset: 0x8628E, size: 0x8, addend: 0x0, symName: __RNvXs_NtNtCsiTraAjBDcu4_5alloc3vec11spec_extendINtB6_3VechEINtB4_10SpecExtendhINtNtNtNtCsaNl6UpbT7bw_4core4iter8adapters3map3MapINtNtNtB1n_5slice4iter4IterhENCNvNtB8_3str13replace_ascii0EE11spec_extendCsfpvTL5dBvDY_2cc, symObjAddr: 0x3F3C, symBinAddr: 0x10004E124, symSize: 0x24 }
  - { offset: 0x862EC, size: 0x8, addend: 0x0, symName: __RNvXNtNtCsiTraAjBDcu4_5alloc3vec14spec_from_iterINtB4_3VecINtNtB6_5boxed3BoxNtNtNtCsht3nMU9UgFu_3std3ffi6os_str5OsStrEEINtB2_12SpecFromIterBU_INtNtNtNtCsaNl6UpbT7bw_4core4iter8adapters3map3MapINtNtB2l_5chain5ChainINtNtB2l_6cloned6ClonedINtNtNtB2p_5slice4iter4IterRB1c_EEIB2h_IB3N_NtNtB6_6string6StringEINvMsl_B1e_B1c_3newB4u_EEENvYB4d_INtNtB2p_7convert4IntoBU_E4intoEE9from_iterCsfpvTL5dBvDY_2cc, symObjAddr: 0x31F4, symBinAddr: 0x10004D52C, symSize: 0x14 }
  - { offset: 0x8632B, size: 0x8, addend: 0x0, symName: __RNvXNtNtCsiTraAjBDcu4_5alloc3vec14spec_from_iterINtB4_3VecNtNtB6_6string6StringEINtB2_12SpecFromIterBU_INtNtNtNtCsaNl6UpbT7bw_4core4iter8adapters3map3MapNtNtNtB1M_3str4iter15SplitWhitespaceNCNvMs4_CsfpvTL5dBvDY_2ccNtB39_5Build8env_tool0EE9from_iterB39_, symObjAddr: 0x3208, symBinAddr: 0x10004D540, symSize: 0x14 }
  - { offset: 0x8636A, size: 0x8, addend: 0x0, symName: __RNvXNtNtCsiTraAjBDcu4_5alloc3vec14spec_from_iterINtB4_3VecNtNtB6_6string6StringEINtB2_12SpecFromIterBU_INtNtNtNtCsaNl6UpbT7bw_4core4iter8adapters3map3MapNtNtNtB1M_3str4iter15SplitWhitespaceNCNvMs4_CsfpvTL5dBvDY_2ccNtB39_5Build8env_tools_0EE9from_iterB39_, symObjAddr: 0x321C, symBinAddr: 0x10004D554, symSize: 0x14 }
  - { offset: 0x863A9, size: 0x8, addend: 0x0, symName: __RNvXNtNtCsiTraAjBDcu4_5alloc3vec14spec_from_iterINtB4_3VecRNtNtCsht3nMU9UgFu_3std4path4PathEINtB2_12SpecFromIterBU_INtNtNtNtCsaNl6UpbT7bw_4core4iter8adapters5chain5ChainINtNtB1U_3map3MapINtNtNtB1Y_5slice4iter4IterNtCsfpvTL5dBvDY_2cc6ObjectENCNvMs4_B3r_NtB3r_5Build8assemble0EIB2I_IB2Z_INtNtB6_4sync3ArcBV_EENvYB4z_NtNtNtB1Y_3ops5deref5Deref5derefEEE9from_iterB3r_, symObjAddr: 0x3230, symBinAddr: 0x10004D568, symSize: 0x14 }
  - { offset: 0x863E8, size: 0x8, addend: 0x0, symName: __RNvXNtNtCsiTraAjBDcu4_5alloc3vec14spec_from_iterINtB4_3VecReEINtB2_12SpecFromIterBU_INtNtNtCsaNl6UpbT7bw_4core3str4iter5SplitcEE9from_iterCsfpvTL5dBvDY_2cc, symObjAddr: 0x3244, symBinAddr: 0x10004D57C, symSize: 0x14 }
  - { offset: 0x86427, size: 0x8, addend: 0x0, symName: __RNvXNtNtCsiTraAjBDcu4_5alloc3vec14spec_from_iterINtB4_3VecTNtNtNtCsht3nMU9UgFu_3std3ffi6os_str8OsStringBV_EEINtB2_12SpecFromIterBU_INtNtNtNtCsaNl6UpbT7bw_4core4iter8adapters3map3MapINtNtNtB2e_5slice4iter4IterBU_ENCNvMNtCsfpvTL5dBvDY_2cc4toolNtB3t_4Tool20from_find_msvc_tools0EE9from_iterB3v_, symObjAddr: 0x3258, symBinAddr: 0x10004D590, symSize: 0x2C }
  - { offset: 0x86465, size: 0x8, addend: 0x0, symName: __RNvXNtNtCsiTraAjBDcu4_5alloc3vec14spec_from_iterINtB4_3VechEINtB2_12SpecFromIterhINtNtNtNtCsaNl6UpbT7bw_4core4iter8adapters3map3MapINtNtNtB1q_5slice4iter4IterhENCNvNtB6_3str13replace_ascii0EE9from_iterCsfpvTL5dBvDY_2cc, symObjAddr: 0x3284, symBinAddr: 0x10004D5BC, symSize: 0x14 }
  - { offset: 0x864B0, size: 0x8, addend: 0x0, symName: __RNvXNtNtCsiTraAjBDcu4_5alloc3vec21spec_from_iter_nestedINtB4_3VecNtNtB6_6string6StringEINtB2_18SpecFromIterNestedB11_INtNtNtNtCsaNl6UpbT7bw_4core4iter8adapters3map3MapNtNtNtB20_3str4iter15SplitWhitespaceNCNvMs4_CsfpvTL5dBvDY_2ccNtB3n_5Build8env_tool0EE9from_iterB3n_, symObjAddr: 0x3298, symBinAddr: 0x10004D5D0, symSize: 0x224 }
  - { offset: 0x866CF, size: 0x8, addend: 0x0, symName: __RNvXNtNtCsiTraAjBDcu4_5alloc3vec21spec_from_iter_nestedINtB4_3VecNtNtB6_6string6StringEINtB2_18SpecFromIterNestedB11_INtNtNtNtCsaNl6UpbT7bw_4core4iter8adapters3map3MapNtNtNtB20_3str4iter15SplitWhitespaceNCNvMs4_CsfpvTL5dBvDY_2ccNtB3n_5Build8env_tools_0EE9from_iterB3n_, symObjAddr: 0x34BC, symBinAddr: 0x10004D7F4, symSize: 0x224 }
  - { offset: 0x868EE, size: 0x8, addend: 0x0, symName: __RNvXNtNtCsiTraAjBDcu4_5alloc3vec21spec_from_iter_nestedINtB4_3VecReEINtB2_18SpecFromIterNestedB11_INtNtNtCsaNl6UpbT7bw_4core3str4iter5SplitcEE9from_iterCsfpvTL5dBvDY_2cc, symObjAddr: 0x36E0, symBinAddr: 0x10004DA18, symSize: 0x22C }
  - { offset: 0x86B13, size: 0x8, addend: 0x0, symName: __RNvXs_NtNtCsiTraAjBDcu4_5alloc3vec21spec_from_iter_nestedINtB6_3VecINtNtB8_5boxed3BoxNtNtNtCsht3nMU9UgFu_3std3ffi6os_str5OsStrEEINtB4_18SpecFromIterNestedB13_INtNtNtNtCsaNl6UpbT7bw_4core4iter8adapters3map3MapINtNtB2B_5chain5ChainINtNtB2B_6cloned6ClonedINtNtNtB2F_5slice4iter4IterRB1l_EEIB2x_IB43_NtNtB8_6string6StringEINvMsl_B1n_B1l_3newB4K_EEENvYB4t_INtNtB2F_7convert4IntoB13_E4intoEE9from_iterCsfpvTL5dBvDY_2cc, symObjAddr: 0x3F88, symBinAddr: 0x10004E148, symSize: 0x168 }
  - { offset: 0x86BEA, size: 0x8, addend: 0x0, symName: __RNvXs_NtNtCsiTraAjBDcu4_5alloc3vec21spec_from_iter_nestedINtB6_3VecRNtNtCsht3nMU9UgFu_3std4path4PathEINtB4_18SpecFromIterNestedB13_INtNtNtNtCsaNl6UpbT7bw_4core4iter8adapters5chain5ChainINtNtB2a_3map3MapINtNtNtB2e_5slice4iter4IterNtCsfpvTL5dBvDY_2cc6ObjectENCNvMs4_B3H_NtB3H_5Build8assemble0EIB2Y_IB3f_INtNtB8_4sync3ArcB14_EENvYB4P_NtNtNtB2e_3ops5deref5Deref5derefEEE9from_iterB3H_, symObjAddr: 0x40F0, symBinAddr: 0x10004E2B0, symSize: 0x168 }
  - { offset: 0x86CC1, size: 0x8, addend: 0x0, symName: __RNvXs_NtNtCsiTraAjBDcu4_5alloc3vec21spec_from_iter_nestedINtB6_3VecTNtNtNtCsht3nMU9UgFu_3std3ffi6os_str8OsStringB14_EEINtB4_18SpecFromIterNestedB13_INtNtNtNtCsaNl6UpbT7bw_4core4iter8adapters3map3MapINtNtNtB2v_5slice4iter4IterB13_ENCNvMNtCsfpvTL5dBvDY_2cc4toolNtB3L_4Tool20from_find_msvc_tools0EE9from_iterB3N_, symObjAddr: 0x4258, symBinAddr: 0x10004E418, symSize: 0x164 }
  - { offset: 0x86D97, size: 0x8, addend: 0x0, symName: __RNvXs_NtNtCsiTraAjBDcu4_5alloc3vec21spec_from_iter_nestedINtB6_3VechEINtB4_18SpecFromIterNestedhINtNtNtNtCsaNl6UpbT7bw_4core4iter8adapters3map3MapINtNtNtB1F_5slice4iter4IterhENCNvNtB8_3str13replace_ascii0EE9from_iterCsfpvTL5dBvDY_2cc, symObjAddr: 0x43BC, symBinAddr: 0x10004E57C, symSize: 0x164 }
  - { offset: 0x86E75, size: 0x8, addend: 0x0, symName: __RNvXs6_NtCsiTraAjBDcu4_5alloc3vecINtB5_3VecINtNtB7_4sync3ArcNtNtCsht3nMU9UgFu_3std4path4PathEENtNtNtCsaNl6UpbT7bw_4core3ops5deref5Deref5derefCsfpvTL5dBvDY_2cc, symObjAddr: 0x3A38, symBinAddr: 0x10004DC44, symSize: 0x24 }
  - { offset: 0x86EB5, size: 0x8, addend: 0x0, symName: __RNvXs6_NtCsiTraAjBDcu4_5alloc3vecINtB5_3VecINtNtB7_4sync3ArcNtNtNtCsht3nMU9UgFu_3std3ffi6os_str5OsStrEENtNtNtCsaNl6UpbT7bw_4core3ops5deref5Deref5derefCsfpvTL5dBvDY_2cc, symObjAddr: 0x3A5C, symBinAddr: 0x10004DC68, symSize: 0x24 }
  - { offset: 0x86EF5, size: 0x8, addend: 0x0, symName: __RNvXs6_NtCsiTraAjBDcu4_5alloc3vecINtB5_3VecNtCsfpvTL5dBvDY_2cc6ObjectENtNtNtCsaNl6UpbT7bw_4core3ops5deref5Deref5derefBH_, symObjAddr: 0x3A80, symBinAddr: 0x10004DC8C, symSize: 0x24 }
  - { offset: 0x86F35, size: 0x8, addend: 0x0, symName: __RNvXs6_NtCsiTraAjBDcu4_5alloc3vecINtB5_3VecNtNtB7_6string6StringENtNtNtCsaNl6UpbT7bw_4core3ops5deref5Deref5derefCsfpvTL5dBvDY_2cc, symObjAddr: 0x3AA4, symBinAddr: 0x10004DCB0, symSize: 0x24 }
  - { offset: 0x86F75, size: 0x8, addend: 0x0, symName: __RNvXs6_NtCsiTraAjBDcu4_5alloc3vecINtB5_3VecNtNtNtCsht3nMU9UgFu_3std3ffi6os_str8OsStringENtNtNtCsaNl6UpbT7bw_4core3ops5deref5Deref5derefCsfpvTL5dBvDY_2cc, symObjAddr: 0x3AC8, symBinAddr: 0x10004DCD4, symSize: 0x24 }
  - { offset: 0x86FB5, size: 0x8, addend: 0x0, symName: __RNvXs6_NtCsiTraAjBDcu4_5alloc3vecINtB5_3VecRNtNtCsht3nMU9UgFu_3std4path4PathENtNtNtCsaNl6UpbT7bw_4core3ops5deref5Deref5derefCsfpvTL5dBvDY_2cc, symObjAddr: 0x3AEC, symBinAddr: 0x10004DCF8, symSize: 0x24 }
  - { offset: 0x86FF5, size: 0x8, addend: 0x0, symName: __RNvXs6_NtCsiTraAjBDcu4_5alloc3vecINtB5_3VecReENtNtNtCsaNl6UpbT7bw_4core3ops5deref5Deref5derefCsfpvTL5dBvDY_2cc, symObjAddr: 0x3B10, symBinAddr: 0x10004DD1C, symSize: 0x24 }
  - { offset: 0x87035, size: 0x8, addend: 0x0, symName: __RNvXs6_NtCsiTraAjBDcu4_5alloc3vecINtB5_3VecTINtNtB7_4sync3ArcNtNtNtCsht3nMU9UgFu_3std3ffi6os_str5OsStrEBG_EENtNtNtCsaNl6UpbT7bw_4core3ops5deref5Deref5derefCsfpvTL5dBvDY_2cc, symObjAddr: 0x3B34, symBinAddr: 0x10004DD40, symSize: 0x24 }
  - { offset: 0x87075, size: 0x8, addend: 0x0, symName: __RNvXs6_NtCsiTraAjBDcu4_5alloc3vecINtB5_3VecTINtNtB7_4sync3ArceEINtNtCsaNl6UpbT7bw_4core6option6OptionBG_EEENtNtNtB14_3ops5deref5Deref5derefCsfpvTL5dBvDY_2cc, symObjAddr: 0x3B58, symBinAddr: 0x10004DD64, symSize: 0x24 }
  - { offset: 0x870B5, size: 0x8, addend: 0x0, symName: __RNvXs6_NtCsiTraAjBDcu4_5alloc3vecINtB5_3VechENtNtNtCsaNl6UpbT7bw_4core3ops5deref5Deref5derefCsfpvTL5dBvDY_2cc, symObjAddr: 0x3B7C, symBinAddr: 0x10004DD88, symSize: 0x24 }
  - { offset: 0x872AB, size: 0x8, addend: 0x0, symName: __RNvXs7_NtCsiTraAjBDcu4_5alloc3vecINtB5_3VechENtNtNtCsaNl6UpbT7bw_4core3ops5deref8DerefMut9deref_mutCsfpvTL5dBvDY_2cc, symObjAddr: 0x3BA0, symBinAddr: 0x10004DDAC, symSize: 0x24 }
  - { offset: 0x87321, size: 0x8, addend: 0x0, symName: __RNvXs9_NtCsiTraAjBDcu4_5alloc3vecINtB5_3VecNtNtB7_6string6StringENtNtCsaNl6UpbT7bw_4core5clone5Clone5cloneCsfpvTL5dBvDY_2cc, symObjAddr: 0x3BC4, symBinAddr: 0x10004DDD0, symSize: 0x90 }
  - { offset: 0x874F2, size: 0x8, addend: 0x0, symName: __RNvXs9_NtCsiTraAjBDcu4_5alloc3vecINtB5_3VecNtNtNtCsht3nMU9UgFu_3std3ffi6os_str8OsStringENtNtCsaNl6UpbT7bw_4core5clone5Clone5cloneCsfpvTL5dBvDY_2cc, symObjAddr: 0x3C54, symBinAddr: 0x10004DE60, symSize: 0x90 }
  - { offset: 0x876C3, size: 0x8, addend: 0x0, symName: __RNvXs9_NtCsiTraAjBDcu4_5alloc3vecINtB5_3VecTNtNtNtCsht3nMU9UgFu_3std3ffi6os_str8OsStringBG_EENtNtCsaNl6UpbT7bw_4core5clone5Clone5cloneCsfpvTL5dBvDY_2cc, symObjAddr: 0x3CE4, symBinAddr: 0x10004DEF0, symSize: 0x90 }
  - { offset: 0x87894, size: 0x8, addend: 0x0, symName: __RNvXs9_NtCsiTraAjBDcu4_5alloc3vecINtB5_3VechENtNtCsaNl6UpbT7bw_4core5clone5Clone10clone_fromCsfpvTL5dBvDY_2cc, symObjAddr: 0x3D74, symBinAddr: 0x10004DF80, symSize: 0x78 }
  - { offset: 0x87982, size: 0x8, addend: 0x0, symName: __RNvXs9_NtCsiTraAjBDcu4_5alloc3vecINtB5_3VechENtNtCsaNl6UpbT7bw_4core5clone5Clone5cloneCsfpvTL5dBvDY_2cc, symObjAddr: 0x3DEC, symBinAddr: 0x10004DFF8, symSize: 0x8C }
  - { offset: 0x87B59, size: 0x8, addend: 0x0, symName: __RNvXsb_NtCsiTraAjBDcu4_5alloc3vecINtB5_3VechEINtNtNtCsaNl6UpbT7bw_4core3ops5index5IndexINtNtBM_5range7RangeTojEE5indexCsfpvTL5dBvDY_2cc, symObjAddr: 0x4520, symBinAddr: 0x10004E6E0, symSize: 0xE0 }
  - { offset: 0x87D70, size: 0x8, addend: 0x0, symName: __RNvXsc_NtCsiTraAjBDcu4_5alloc3vecINtB5_3VechEINtNtNtCsaNl6UpbT7bw_4core3ops5index8IndexMutINtNtBM_5range9RangeFromjEE9index_mutCsfpvTL5dBvDY_2cc, symObjAddr: 0x4600, symBinAddr: 0x10004E7C0, symSize: 0x88 }
  - { offset: 0x87ECA, size: 0x8, addend: 0x0, symName: __RNvXse_NtCsiTraAjBDcu4_5alloc3vecINtB5_3VecNtNtB7_6string6StringENtNtNtNtCsaNl6UpbT7bw_4core4iter6traits7collect12IntoIterator9into_iterCsfpvTL5dBvDY_2cc, symObjAddr: 0x476C, symBinAddr: 0x10004E848, symSize: 0xE4 }
  - { offset: 0x88162, size: 0x8, addend: 0x0, symName: __RNvXsf_NtCsiTraAjBDcu4_5alloc3vecRINtB5_3VecINtNtB7_4sync3ArcNtNtNtCsht3nMU9UgFu_3std3ffi6os_str5OsStrEENtNtNtNtCsaNl6UpbT7bw_4core4iter6traits7collect12IntoIterator9into_iterCsfpvTL5dBvDY_2cc, symObjAddr: 0x4850, symBinAddr: 0x10004E92C, symSize: 0xA4 }
  - { offset: 0x883A0, size: 0x8, addend: 0x0, symName: __RNvXsf_NtCsiTraAjBDcu4_5alloc3vecRINtB5_3VecNtNtB7_6string6StringENtNtNtNtCsaNl6UpbT7bw_4core4iter6traits7collect12IntoIterator9into_iterCsfpvTL5dBvDY_2cc, symObjAddr: 0x48F4, symBinAddr: 0x10004E9D0, symSize: 0xAC }
  - { offset: 0x885DE, size: 0x8, addend: 0x0, symName: __RNvXsf_NtCsiTraAjBDcu4_5alloc3vecRINtB5_3VecNtNtNtCsht3nMU9UgFu_3std3ffi6os_str8OsStringENtNtNtNtCsaNl6UpbT7bw_4core4iter6traits7collect12IntoIterator9into_iterCsfpvTL5dBvDY_2cc, symObjAddr: 0x49A0, symBinAddr: 0x10004EA7C, symSize: 0xAC }
  - { offset: 0x8881C, size: 0x8, addend: 0x0, symName: __RNvXsf_NtCsiTraAjBDcu4_5alloc3vecRINtB5_3VecTNtNtNtCsht3nMU9UgFu_3std3ffi6os_str8OsStringBH_EENtNtNtNtCsaNl6UpbT7bw_4core4iter6traits7collect12IntoIterator9into_iterCsfpvTL5dBvDY_2cc, symObjAddr: 0x4A4C, symBinAddr: 0x10004EB28, symSize: 0xAC }
  - { offset: 0x88A60, size: 0x8, addend: 0x0, symName: __RNvXsn_NtCsiTraAjBDcu4_5alloc3vecINtB5_3VecINtNtB7_4sync3ArcNtNtCsht3nMU9UgFu_3std4path4PathEENtNtNtCsaNl6UpbT7bw_4core3ops4drop4Drop4dropCsfpvTL5dBvDY_2cc, symObjAddr: 0x4AF8, symBinAddr: 0x10004EBD4, symSize: 0x38 }
  - { offset: 0x88B10, size: 0x8, addend: 0x0, symName: __RNvXsn_NtCsiTraAjBDcu4_5alloc3vecINtB5_3VecINtNtB7_4sync3ArcNtNtNtCsht3nMU9UgFu_3std3ffi6os_str5OsStrEENtNtNtCsaNl6UpbT7bw_4core3ops4drop4Drop4dropCsfpvTL5dBvDY_2cc, symObjAddr: 0x4B30, symBinAddr: 0x10004EC0C, symSize: 0x38 }
  - { offset: 0x88BC0, size: 0x8, addend: 0x0, symName: __RNvXsn_NtCsiTraAjBDcu4_5alloc3vecINtB5_3VecINtNtB7_5boxed3BoxNtNtNtCsht3nMU9UgFu_3std3ffi6os_str5OsStrEENtNtNtCsaNl6UpbT7bw_4core3ops4drop4Drop4dropCsfpvTL5dBvDY_2cc, symObjAddr: 0x4B68, symBinAddr: 0x10004EC44, symSize: 0x38 }
  - { offset: 0x88C70, size: 0x8, addend: 0x0, symName: __RNvXsn_NtCsiTraAjBDcu4_5alloc3vecINtB5_3VecNtCsfpvTL5dBvDY_2cc6ObjectENtNtNtCsaNl6UpbT7bw_4core3ops4drop4Drop4dropBH_, symObjAddr: 0x4BA0, symBinAddr: 0x10004EC7C, symSize: 0x38 }
  - { offset: 0x88D20, size: 0x8, addend: 0x0, symName: __RNvXsn_NtCsiTraAjBDcu4_5alloc3vecINtB5_3VecNtNtNtCsht3nMU9UgFu_3std3ffi6os_str8OsStringENtNtNtCsaNl6UpbT7bw_4core3ops4drop4Drop4dropCsfpvTL5dBvDY_2cc, symObjAddr: 0x4BD8, symBinAddr: 0x10004ECB4, symSize: 0x38 }
  - { offset: 0x88DD0, size: 0x8, addend: 0x0, symName: __RNvXsn_NtCsiTraAjBDcu4_5alloc3vecINtB5_3VecRNtNtCsht3nMU9UgFu_3std4path4PathENtNtNtCsaNl6UpbT7bw_4core3ops4drop4Drop4dropCsfpvTL5dBvDY_2cc, symObjAddr: 0x4C10, symBinAddr: 0x10004ECEC, symSize: 0x24 }
  - { offset: 0x88E80, size: 0x8, addend: 0x0, symName: __RNvXsn_NtCsiTraAjBDcu4_5alloc3vecINtB5_3VecReENtNtNtCsaNl6UpbT7bw_4core3ops4drop4Drop4dropCsfpvTL5dBvDY_2cc, symObjAddr: 0x4C34, symBinAddr: 0x10004ED10, symSize: 0x24 }
  - { offset: 0x88F30, size: 0x8, addend: 0x0, symName: __RNvXsn_NtCsiTraAjBDcu4_5alloc3vecINtB5_3VecTINtNtB7_4sync3ArcNtNtNtCsht3nMU9UgFu_3std3ffi6os_str5OsStrEBG_EENtNtNtCsaNl6UpbT7bw_4core3ops4drop4Drop4dropCsfpvTL5dBvDY_2cc, symObjAddr: 0x4C58, symBinAddr: 0x10004ED34, symSize: 0x38 }
  - { offset: 0x88FE0, size: 0x8, addend: 0x0, symName: __RNvXsn_NtCsiTraAjBDcu4_5alloc3vecINtB5_3VecTINtNtB7_4sync3ArceEINtNtCsaNl6UpbT7bw_4core6option6OptionBG_EEENtNtNtB14_3ops4drop4Drop4dropCsfpvTL5dBvDY_2cc, symObjAddr: 0x4C90, symBinAddr: 0x10004ED6C, symSize: 0x38 }
  - { offset: 0x8A88B, size: 0x8, addend: 0x0, symName: __RINvMsi_NtCsiTraAjBDcu4_5alloc3vecINtB6_3VecINtNtB8_5boxed3BoxNtNtNtCsht3nMU9UgFu_3std3ffi6os_str5OsStrEE14extend_trustedINtNtNtNtCsaNl6UpbT7bw_4core4iter8adapters3map3MapINtNtB20_5chain5ChainINtNtB20_6cloned6ClonedINtNtNtB24_5slice4iter4IterRBY_EEIB1W_IB3s_NtNtB8_6string6StringEINvMsl_B10_BY_3newB48_EEENvYB3S_INtNtB24_7convert4IntoBG_E4intoEECsfpvTL5dBvDY_2cc, symObjAddr: 0x2B4, symBinAddr: 0x10004AA18, symSize: 0x178 }
  - { offset: 0x8AC20, size: 0x8, addend: 0x0, symName: __RINvMsi_NtCsiTraAjBDcu4_5alloc3vecINtB6_3VecNtNtB8_6string6StringE16extend_desugaredINtNtNtNtCsaNl6UpbT7bw_4core4iter8adapters3map3MapNtNtNtB1t_3str4iter15SplitWhitespaceNCNvMs4_CsfpvTL5dBvDY_2ccNtB2Q_5Build8env_tool0EEB2Q_, symObjAddr: 0x42C, symBinAddr: 0x10004AB90, symSize: 0x1C8 }
  - { offset: 0x8AFB6, size: 0x8, addend: 0x0, symName: __RINvMsi_NtCsiTraAjBDcu4_5alloc3vecINtB6_3VecNtNtB8_6string6StringE16extend_desugaredINtNtNtNtCsaNl6UpbT7bw_4core4iter8adapters3map3MapNtNtNtB1t_3str4iter15SplitWhitespaceNCNvMs4_CsfpvTL5dBvDY_2ccNtB2Q_5Build8env_tools_0EEB2Q_, symObjAddr: 0x5F4, symBinAddr: 0x10004AD58, symSize: 0x1C8 }
  - { offset: 0x8B364, size: 0x8, addend: 0x0, symName: __RINvMsi_NtCsiTraAjBDcu4_5alloc3vecINtB6_3VecNtNtB8_6string6StringE16extend_desugaredINtNtNtNtCsaNl6UpbT7bw_4core4iter8adapters3map3MapNtNtNtB1t_3str4iter20SplitAsciiWhitespaceNvYeNtBI_8ToString9to_stringEECsfpvTL5dBvDY_2cc, symObjAddr: 0x7BC, symBinAddr: 0x10004AF20, symSize: 0x1C8 }
  - { offset: 0x8B748, size: 0x8, addend: 0x0, symName: __RINvMsi_NtCsiTraAjBDcu4_5alloc3vecINtB6_3VecNtNtB8_6string6StringE16extend_desugaredNtCs7fJiqweRQJY_5shlex5ShlexECsfpvTL5dBvDY_2cc, symObjAddr: 0x984, symBinAddr: 0x10004B0E8, symSize: 0x1C8 }
  - { offset: 0x8BA88, size: 0x8, addend: 0x0, symName: __RINvMsi_NtCsiTraAjBDcu4_5alloc3vecINtB6_3VecNtNtNtCsht3nMU9UgFu_3std3ffi6os_str8OsStringE14extend_trustedINtNtNtCsaNl6UpbT7bw_4core5array4iter8IntoIterBG_Kj6_EECsfpvTL5dBvDY_2cc, symObjAddr: 0xB4C, symBinAddr: 0x10004B2B0, symSize: 0x19C }
  - { offset: 0x8BE0C, size: 0x8, addend: 0x0, symName: __RINvMsi_NtCsiTraAjBDcu4_5alloc3vecINtB6_3VecRNtNtCsht3nMU9UgFu_3std4path4PathE14extend_trustedINtNtNtNtCsaNl6UpbT7bw_4core4iter8adapters5chain5ChainINtNtB1z_3map3MapINtNtNtB1D_5slice4iter4IterNtCsfpvTL5dBvDY_2cc6ObjectENCNvMs4_B36_NtB36_5Build8assemble0EIB2n_IB2E_INtNtB8_4sync3ArcBH_EENvYB4e_NtNtNtB1D_3ops5deref5Deref5derefEEEB36_, symObjAddr: 0xCE8, symBinAddr: 0x10004B44C, symSize: 0x178 }
  - { offset: 0x8C1AE, size: 0x8, addend: 0x0, symName: __RINvMsi_NtCsiTraAjBDcu4_5alloc3vecINtB6_3VecReE16extend_desugaredINtNtNtCsaNl6UpbT7bw_4core3str4iter5SplitcEECsfpvTL5dBvDY_2cc, symObjAddr: 0xE60, symBinAddr: 0x10004B5C4, symSize: 0x198 }
  - { offset: 0x8C50E, size: 0x8, addend: 0x0, symName: __RINvMsi_NtCsiTraAjBDcu4_5alloc3vecINtB6_3VecTNtNtNtCsht3nMU9UgFu_3std3ffi6os_str8OsStringBH_EE14extend_trustedINtNtNtNtCsaNl6UpbT7bw_4core4iter8adapters3map3MapINtNtNtB1T_5slice4iter4IterBG_ENCNvMNtCsfpvTL5dBvDY_2cc4toolNtB38_4Tool20from_find_msvc_tools0EEB3a_, symObjAddr: 0xFF8, symBinAddr: 0x10004B75C, symSize: 0x16C }
  - { offset: 0x8C7EA, size: 0x8, addend: 0x0, symName: __RINvMsi_NtCsiTraAjBDcu4_5alloc3vecINtB6_3VechE14extend_trustedINtNtNtNtCsaNl6UpbT7bw_4core4iter8adapters3map3MapINtNtNtB17_5slice4iter4IterhENCNvNtB8_3str13replace_ascii0EECsfpvTL5dBvDY_2cc, symObjAddr: 0x1164, symBinAddr: 0x10004B8C8, symSize: 0x178 }
  - { offset: 0x8CA33, size: 0x8, addend: 0x0, symName: __RNvMNtCsiTraAjBDcu4_5alloc3vecINtB2_3VecINtNtB4_4sync3ArcNtNtCsht3nMU9UgFu_3std4path4PathEE3newCsfpvTL5dBvDY_2cc, symObjAddr: 0x1A18, symBinAddr: 0x10004BE30, symSize: 0x14 }
  - { offset: 0x8CA50, size: 0x8, addend: 0x0, symName: __RNvMNtCsiTraAjBDcu4_5alloc3vecINtB2_3VecINtNtB4_4sync3ArcNtNtNtCsht3nMU9UgFu_3std3ffi6os_str5OsStrEE3newCsfpvTL5dBvDY_2cc, symObjAddr: 0x1A2C, symBinAddr: 0x10004BE44, symSize: 0x14 }
  - { offset: 0x8CACF, size: 0x8, addend: 0x0, symName: __RNvMNtCsiTraAjBDcu4_5alloc3vecINtB2_3VecNtCsfpvTL5dBvDY_2cc6ObjectE13with_capacityBE_, symObjAddr: 0x1A40, symBinAddr: 0x10004BE58, symSize: 0x48 }
  - { offset: 0x8CB47, size: 0x8, addend: 0x0, symName: __RNvMNtCsiTraAjBDcu4_5alloc3vecINtB2_3VecNtNtB4_6string6StringE3newCsfpvTL5dBvDY_2cc, symObjAddr: 0x1A88, symBinAddr: 0x10004BEA0, symSize: 0x14 }
  - { offset: 0x8CB64, size: 0x8, addend: 0x0, symName: __RNvMNtCsiTraAjBDcu4_5alloc3vecINtB2_3VecNtNtNtCsht3nMU9UgFu_3std3ffi6os_str8OsStringE3newCsfpvTL5dBvDY_2cc, symObjAddr: 0x1A9C, symBinAddr: 0x10004BEB4, symSize: 0x14 }
  - { offset: 0x8CB9F, size: 0x8, addend: 0x0, symName: __RNvMNtCsiTraAjBDcu4_5alloc3vecINtB2_3VecTINtNtB4_4sync3ArcNtNtNtCsht3nMU9UgFu_3std3ffi6os_str5OsStrEBD_EE3newCsfpvTL5dBvDY_2cc, symObjAddr: 0x1AB0, symBinAddr: 0x10004BEC8, symSize: 0x14 }
  - { offset: 0x8CC01, size: 0x8, addend: 0x0, symName: __RNvMNtCsiTraAjBDcu4_5alloc3vecINtB2_3VecTINtNtB4_4sync3ArceEINtNtCsaNl6UpbT7bw_4core6option6OptionBD_EEE3newCsfpvTL5dBvDY_2cc, symObjAddr: 0x1AC4, symBinAddr: 0x10004BEDC, symSize: 0x14 }
  - { offset: 0x8CC80, size: 0x8, addend: 0x0, symName: __RNvMNtCsiTraAjBDcu4_5alloc3vecINtB2_3VechE13with_capacityCsfpvTL5dBvDY_2cc, symObjAddr: 0x1AD8, symBinAddr: 0x10004BEF0, symSize: 0x44 }
  - { offset: 0x8CE17, size: 0x8, addend: 0x0, symName: __RNvMs0_NtCsiTraAjBDcu4_5alloc3vecINtB5_3VechE6resizeCsfpvTL5dBvDY_2cc, symObjAddr: 0x1B1C, symBinAddr: 0x10004BF34, symSize: 0x100 }
  - { offset: 0x8D0B8, size: 0x8, addend: 0x0, symName: __RNvMs2_NtCsiTraAjBDcu4_5alloc3vecINtB5_3VechE11extend_withCsfpvTL5dBvDY_2cc, symObjAddr: 0x1C1C, symBinAddr: 0x10004C034, symSize: 0x22C }
  - { offset: 0x8D457, size: 0x8, addend: 0x0, symName: __RNvMs_NtCsiTraAjBDcu4_5alloc3vecINtB4_3VecINtNtB6_4sync3ArcNtNtCsht3nMU9UgFu_3std4path4PathEE8as_sliceCsfpvTL5dBvDY_2cc, symObjAddr: 0x1E60, symBinAddr: 0x10004C260, symSize: 0x6C }
  - { offset: 0x8D5F0, size: 0x8, addend: 0x0, symName: __RNvMs_NtCsiTraAjBDcu4_5alloc3vecINtB4_3VecINtNtB6_4sync3ArcNtNtNtCsht3nMU9UgFu_3std3ffi6os_str5OsStrEE4pushCsfpvTL5dBvDY_2cc, symObjAddr: 0x1ECC, symBinAddr: 0x10004C2CC, symSize: 0xF8 }
  - { offset: 0x8D85F, size: 0x8, addend: 0x0, symName: __RNvMs_NtCsiTraAjBDcu4_5alloc3vecINtB4_3VecINtNtB6_4sync3ArcNtNtNtCsht3nMU9UgFu_3std3ffi6os_str5OsStrEE8as_sliceCsfpvTL5dBvDY_2cc, symObjAddr: 0x208C, symBinAddr: 0x10004C3C4, symSize: 0x6C }
  - { offset: 0x8D93E, size: 0x8, addend: 0x0, symName: __RNvMs_NtCsiTraAjBDcu4_5alloc3vecINtB4_3VecINtNtB6_4sync3ArcNtNtNtCsht3nMU9UgFu_3std3ffi6os_str5OsStrEE8is_emptyCsfpvTL5dBvDY_2cc, symObjAddr: 0x20F8, symBinAddr: 0x10004C430, symSize: 0x20 }
  - { offset: 0x8DAA4, size: 0x8, addend: 0x0, symName: __RNvMs_NtCsiTraAjBDcu4_5alloc3vecINtB4_3VecINtNtB6_5boxed3BoxNtNtNtCsht3nMU9UgFu_3std3ffi6os_str5OsStrEE13shrink_to_fitCsfpvTL5dBvDY_2cc, symObjAddr: 0x2118, symBinAddr: 0x10004C450, symSize: 0xE8 }
  - { offset: 0x8DD17, size: 0x8, addend: 0x0, symName: __RNvMs_NtCsiTraAjBDcu4_5alloc3vecINtB4_3VecINtNtB6_5boxed3BoxNtNtNtCsht3nMU9UgFu_3std3ffi6os_str5OsStrEE16into_boxed_sliceCsfpvTL5dBvDY_2cc, symObjAddr: 0x2200, symBinAddr: 0x10004C538, symSize: 0x118 }
  - { offset: 0x8DFE9, size: 0x8, addend: 0x0, symName: __RNvMs_NtCsiTraAjBDcu4_5alloc3vecINtB4_3VecINtNtB6_5boxed3BoxNtNtNtCsht3nMU9UgFu_3std3ffi6os_str5OsStrEE7reserveCsfpvTL5dBvDY_2cc, symObjAddr: 0x2318, symBinAddr: 0x10004C650, symSize: 0xC8 }
  - { offset: 0x8E256, size: 0x8, addend: 0x0, symName: __RNvMs_NtCsiTraAjBDcu4_5alloc3vecINtB4_3VecNtCsfpvTL5dBvDY_2cc6ObjectE4pushBG_, symObjAddr: 0x23E0, symBinAddr: 0x10004C718, symSize: 0x118 }
  - { offset: 0x8E4AF, size: 0x8, addend: 0x0, symName: __RNvMs_NtCsiTraAjBDcu4_5alloc3vecINtB4_3VecNtCsfpvTL5dBvDY_2cc6ObjectE8as_sliceBG_, symObjAddr: 0x24F8, symBinAddr: 0x10004C830, symSize: 0x6C }
  - { offset: 0x8E600, size: 0x8, addend: 0x0, symName: __RNvMs_NtCsiTraAjBDcu4_5alloc3vecINtB4_3VecNtNtB6_6string6StringE8as_sliceCsfpvTL5dBvDY_2cc, symObjAddr: 0x2564, symBinAddr: 0x10004C89C, symSize: 0x6C }
  - { offset: 0x8E799, size: 0x8, addend: 0x0, symName: __RNvMs_NtCsiTraAjBDcu4_5alloc3vecINtB4_3VecNtNtNtCsht3nMU9UgFu_3std3ffi6os_str8OsStringE4pushCsfpvTL5dBvDY_2cc, symObjAddr: 0x25D0, symBinAddr: 0x10004C908, symSize: 0x108 }
  - { offset: 0x8EA63, size: 0x8, addend: 0x0, symName: __RNvMs_NtCsiTraAjBDcu4_5alloc3vecINtB4_3VecNtNtNtCsht3nMU9UgFu_3std3ffi6os_str8OsStringE7reserveCsfpvTL5dBvDY_2cc, symObjAddr: 0x26D8, symBinAddr: 0x10004CA10, symSize: 0xC8 }
  - { offset: 0x8EC6E, size: 0x8, addend: 0x0, symName: __RNvMs_NtCsiTraAjBDcu4_5alloc3vecINtB4_3VecNtNtNtCsht3nMU9UgFu_3std3ffi6os_str8OsStringE8as_sliceCsfpvTL5dBvDY_2cc, symObjAddr: 0x27A0, symBinAddr: 0x10004CAD8, symSize: 0x6C }
  - { offset: 0x8ED4D, size: 0x8, addend: 0x0, symName: __RNvMs_NtCsiTraAjBDcu4_5alloc3vecINtB4_3VecNtNtNtCsht3nMU9UgFu_3std3ffi6os_str8OsStringE8is_emptyCsfpvTL5dBvDY_2cc, symObjAddr: 0x280C, symBinAddr: 0x10004CB44, symSize: 0x20 }
  - { offset: 0x8EEB6, size: 0x8, addend: 0x0, symName: __RNvMs_NtCsiTraAjBDcu4_5alloc3vecINtB4_3VecRNtNtCsht3nMU9UgFu_3std4path4PathE7reserveCsfpvTL5dBvDY_2cc, symObjAddr: 0x282C, symBinAddr: 0x10004CB64, symSize: 0xC8 }
  - { offset: 0x8F0C1, size: 0x8, addend: 0x0, symName: __RNvMs_NtCsiTraAjBDcu4_5alloc3vecINtB4_3VecRNtNtCsht3nMU9UgFu_3std4path4PathE8as_sliceCsfpvTL5dBvDY_2cc, symObjAddr: 0x28F4, symBinAddr: 0x10004CC2C, symSize: 0x6C }
  - { offset: 0x8F25A, size: 0x8, addend: 0x0, symName: __RNvMs_NtCsiTraAjBDcu4_5alloc3vecINtB4_3VecReE4pushCsfpvTL5dBvDY_2cc, symObjAddr: 0x2960, symBinAddr: 0x10004CC98, symSize: 0xF4 }
  - { offset: 0x8F523, size: 0x8, addend: 0x0, symName: __RNvMs_NtCsiTraAjBDcu4_5alloc3vecINtB4_3VecReE7reserveCsfpvTL5dBvDY_2cc, symObjAddr: 0x2A54, symBinAddr: 0x10004CD8C, symSize: 0xC8 }
  - { offset: 0x8F6FA, size: 0x8, addend: 0x0, symName: __RNvMs_NtCsiTraAjBDcu4_5alloc3vecINtB4_3VecReE8as_sliceCsfpvTL5dBvDY_2cc, symObjAddr: 0x2B1C, symBinAddr: 0x10004CE54, symSize: 0x6C }
  - { offset: 0x8F87F, size: 0x8, addend: 0x0, symName: __RNvMs_NtCsiTraAjBDcu4_5alloc3vecINtB4_3VecTINtNtB6_4sync3ArcNtNtNtCsht3nMU9UgFu_3std3ffi6os_str5OsStrEBF_EE8as_sliceCsfpvTL5dBvDY_2cc, symObjAddr: 0x2B88, symBinAddr: 0x10004CEC0, symSize: 0x6C }
  - { offset: 0x8FA04, size: 0x8, addend: 0x0, symName: __RNvMs_NtCsiTraAjBDcu4_5alloc3vecINtB4_3VecTINtNtB6_4sync3ArceEINtNtCsaNl6UpbT7bw_4core6option6OptionBF_EEE8as_sliceCsfpvTL5dBvDY_2cc, symObjAddr: 0x2BF4, symBinAddr: 0x10004CF2C, symSize: 0x6C }
  - { offset: 0x8FB9D, size: 0x8, addend: 0x0, symName: __RNvMs_NtCsiTraAjBDcu4_5alloc3vecINtB4_3VecTNtNtNtCsht3nMU9UgFu_3std3ffi6os_str8OsStringBF_EE4pushCsfpvTL5dBvDY_2cc, symObjAddr: 0x2C60, symBinAddr: 0x10004CF98, symSize: 0x118 }
  - { offset: 0x8FE68, size: 0x8, addend: 0x0, symName: __RNvMs_NtCsiTraAjBDcu4_5alloc3vecINtB4_3VecTNtNtNtCsht3nMU9UgFu_3std3ffi6os_str8OsStringBF_EE7reserveCsfpvTL5dBvDY_2cc, symObjAddr: 0x2D78, symBinAddr: 0x10004D0B0, symSize: 0xC8 }
  - { offset: 0x90001, size: 0x8, addend: 0x0, symName: __RNvMs_NtCsiTraAjBDcu4_5alloc3vecINtB4_3VecTNtNtNtCsht3nMU9UgFu_3std3ffi6os_str8OsStringBF_EE8is_emptyCsfpvTL5dBvDY_2cc, symObjAddr: 0x2E40, symBinAddr: 0x10004D178, symSize: 0x20 }
  - { offset: 0x900F2, size: 0x8, addend: 0x0, symName: __RNvMs_NtCsiTraAjBDcu4_5alloc3vecINtB4_3VechE12as_mut_sliceCsfpvTL5dBvDY_2cc, symObjAddr: 0x2E60, symBinAddr: 0x10004D198, symSize: 0x68 }
  - { offset: 0x902C7, size: 0x8, addend: 0x0, symName: __RNvMs_NtCsiTraAjBDcu4_5alloc3vecINtB4_3VechE13shrink_to_fitCsfpvTL5dBvDY_2cc, symObjAddr: 0x2EC8, symBinAddr: 0x10004D200, symSize: 0xE0 }
  - { offset: 0x90513, size: 0x8, addend: 0x0, symName: __RNvMs_NtCsiTraAjBDcu4_5alloc3vecINtB4_3VechE16into_boxed_sliceCsfpvTL5dBvDY_2cc, symObjAddr: 0x2FA8, symBinAddr: 0x10004D2E0, symSize: 0x118 }
  - { offset: 0x906DC, size: 0x8, addend: 0x0, symName: __RNvMs_NtCsiTraAjBDcu4_5alloc3vecINtB4_3VechE3lenCsfpvTL5dBvDY_2cc, symObjAddr: 0x30C0, symBinAddr: 0x10004D3F8, symSize: 0x18 }
  - { offset: 0x90781, size: 0x8, addend: 0x0, symName: __RNvMs_NtCsiTraAjBDcu4_5alloc3vecINtB4_3VechE8as_sliceCsfpvTL5dBvDY_2cc, symObjAddr: 0x30D8, symBinAddr: 0x10004D410, symSize: 0x68 }
  - { offset: 0x91F87, size: 0x8, addend: 0x0, symName: __RINvXs2V_NtNtCsaNl6UpbT7bw_4core5slice4iterINtB7_4IterINtNtCsiTraAjBDcu4_5alloc4sync3ArcNtNtCsht3nMU9UgFu_3std4path4PathEENtNtNtNtBb_4iter6traits8iterator8Iterator4foldjNCINvNtNtB22_8adapters3map8map_foldRBQ_jjNCINvNvXs1_NtB2O_6filterINtB3x_6FilterppEB1W_5count8to_usizeB3g_NCNvMs4_CsfpvTL5dBvDY_2ccNtB4w_5Build15cuda_file_count0E0NCINvXsK_NtB20_5accumjNtB5s_3Sum3sumINtB2M_3MapBF_B3m_EE0E0EB4w_, symObjAddr: 0x0, symBinAddr: 0x10004EDA4, symSize: 0x1BC }
  - { offset: 0x94481, size: 0x8, addend: 0x0, symName: __RINvXs2V_NtNtCsaNl6UpbT7bw_4core5slice4iterINtB7_4IterINtNtCsiTraAjBDcu4_5alloc4sync3ArcNtNtCsht3nMU9UgFu_3std4path4PathEENtNtNtNtBb_4iter6traits8iterator8Iterator4foldjNCINvNtNtB22_8adapters3map8map_foldRBQ_jjNCINvNvXs1_NtB2O_6filterINtB3x_6FilterppEB1W_5count8to_usizeB3g_NCNvMs4_CsfpvTL5dBvDY_2ccNtB4w_5Build15cuda_file_count0E0NCINvXsK_NtB20_5accumjNtB5s_3Sum3sumINtB2M_3MapBF_B3m_EE0E0EB4w_, symObjAddr: 0x0, symBinAddr: 0x10004EDA4, symSize: 0x1BC }
  - { offset: 0x945DA, size: 0x8, addend: 0x0, symName: __RINvXs2V_NtNtCsaNl6UpbT7bw_4core5slice4iterINtB7_4IterINtNtCsiTraAjBDcu4_5alloc4sync3ArcNtNtCsht3nMU9UgFu_3std4path4PathEENtNtNtNtBb_4iter6traits8iterator8Iterator4folduNCINvNtNtB22_8adapters3map8map_foldRBQ_RB1o_uNvYBQ_NtNtNtBb_3ops5deref5Deref5derefNCINvNvB1W_8for_each4callB3k_NCINvMsi_NtBV_3vecINtB4D_3VecB3k_E14extend_trustedINtNtB2O_5chain5ChainINtB2M_3MapIBG_NtCsfpvTL5dBvDY_2cc6ObjectENCNvMs4_B5U_NtB5U_5Build8assemble0EIB5E_BF_B3q_EEE0E0E0EB5U_, symObjAddr: 0x1BC, symBinAddr: 0x10004EF60, symSize: 0x1B8 }
  - { offset: 0x9472F, size: 0x8, addend: 0x0, symName: __RINvXs2V_NtNtCsaNl6UpbT7bw_4core5slice4iterINtB7_4IterNtCsfpvTL5dBvDY_2cc6ObjectENtNtNtNtBb_4iter6traits8iterator8Iterator4folduNCINvNtNtB1n_8adapters3map8map_foldRBQ_RNtNtCsht3nMU9UgFu_3std4path4PathuNCNvMs4_BS_NtBS_5Build8assemble0QNCINvNvB1h_8for_each4callB2F_NCINvMsi_NtCsiTraAjBDcu4_5alloc3vecINtB4m_3VecB2F_E14extend_trustedINtNtB29_5chain5ChainINtB27_3MapBF_B3d_EIB5E_IBG_INtNtB4o_4sync3ArcB2G_EENvYB65_NtNtNtBb_3ops5deref5Deref5derefEEE0E0E0EBS_, symObjAddr: 0x374, symBinAddr: 0x10004F118, symSize: 0x194 }
  - { offset: 0x94883, size: 0x8, addend: 0x0, symName: __RINvXs2V_NtNtCsaNl6UpbT7bw_4core5slice4iterINtB7_4IterNtNtCsiTraAjBDcu4_5alloc6string6StringENtNtNtNtBb_4iter6traits8iterator8Iterator3anyNCNCNvMNtCsfpvTL5dBvDY_2cc4toolNtB2j_4Tool13with_featuress_00EB2l_, symObjAddr: 0x508, symBinAddr: 0x10004F2AC, symSize: 0xAC }
  - { offset: 0x948E8, size: 0x8, addend: 0x0, symName: __RINvXs2V_NtNtCsaNl6UpbT7bw_4core5slice4iterINtB7_4IterNtNtCsiTraAjBDcu4_5alloc6string6StringENtNtNtNtBb_4iter6traits8iterator8Iterator4folduNCINvNtNtB1z_8adapters3map8map_foldRBQ_RNtNtNtCsht3nMU9UgFu_3std3ffi6os_str5OsStruINvMsl_B2U_B2S_3newBQ_ENCIB2h_B2R_INtNtBU_5boxed3BoxB2S_EuNvYB2R_INtNtBb_7convert4IntoB46_E4intoNCINvNvB1t_8for_each4callB46_NCINvMsi_NtBU_3vecINtB5I_3VecB46_E14extend_trustedINtB2j_3MapINtNtB2l_5chain5ChainINtNtB2l_6cloned6ClonedIBG_B2R_EEIB6o_BF_B3y_EEB4u_EE0E0E0E0ECsfpvTL5dBvDY_2cc, symObjAddr: 0x5B4, symBinAddr: 0x10004F358, symSize: 0x1C0 }
  - { offset: 0x94A3D, size: 0x8, addend: 0x0, symName: __RINvXs2V_NtNtCsaNl6UpbT7bw_4core5slice4iterINtB7_4IterNtNtCsiTraAjBDcu4_5alloc6string6StringENtNtNtNtBb_4iter6traits8iterator8Iterator8find_mapINtNtBU_4sync3ArcNtNtNtCsht3nMU9UgFu_3std3ffi6os_str5OsStrEQNCNvMs4_CsfpvTL5dBvDY_2ccNtB3n_5Build27getenv_with_target_prefixes0EB3n_, symObjAddr: 0x774, symBinAddr: 0x10004F518, symSize: 0xE8 }
  - { offset: 0x94AC1, size: 0x8, addend: 0x0, symName: __RINvXs2V_NtNtCsaNl6UpbT7bw_4core5slice4iterINtB7_4IterNtNtNtCsht3nMU9UgFu_3std3ffi6os_str8OsStringENtNtNtNtBb_4iter6traits8iterator8Iterator3anyNCNvMNtCsfpvTL5dBvDY_2cc4toolNtB2n_4Tool20is_duplicate_opt_arg0EB2p_, symObjAddr: 0x85C, symBinAddr: 0x10004F600, symSize: 0xAC }
  - { offset: 0x94B26, size: 0x8, addend: 0x0, symName: __RINvXs2V_NtNtCsaNl6UpbT7bw_4core5slice4iterINtB7_4IterNtNtNtCsht3nMU9UgFu_3std3ffi6os_str8OsStringENtNtNtNtBb_4iter6traits8iterator8Iterator3anyNCNvXsf_NtB9_3cmpBQ_NtB2q_13SliceContains14slice_contains0ECsfpvTL5dBvDY_2cc, symObjAddr: 0x908, symBinAddr: 0x10004F6AC, symSize: 0xB0 }
  - { offset: 0x94B8B, size: 0x8, addend: 0x0, symName: __RINvXs2V_NtNtCsaNl6UpbT7bw_4core5slice4iterINtB7_4IterNtNtNtCsht3nMU9UgFu_3std3ffi6os_str8OsStringENtNtNtNtBb_4iter6traits8iterator8Iterator4findQNCNvMNtCsfpvTL5dBvDY_2cc4toolNtB2p_4Tool10to_command0EB2r_, symObjAddr: 0x9B8, symBinAddr: 0x10004F75C, symSize: 0xB0 }
  - { offset: 0x94BF0, size: 0x8, addend: 0x0, symName: __RINvXs2V_NtNtCsaNl6UpbT7bw_4core5slice4iterINtB7_4IterRINtNtCsiTraAjBDcu4_5alloc3vec3VechEENtNtNtNtBb_4iter6traits8iterator8Iterator3anyNCNvNvMNtCsfpvTL5dBvDY_2cc4toolNtB2h_4Tool13with_features19detect_family_inners1_0EB2j_, symObjAddr: 0xA68, symBinAddr: 0x10004F80C, symSize: 0xAC }
  - { offset: 0x94C55, size: 0x8, addend: 0x0, symName: __RINvXs2V_NtNtCsaNl6UpbT7bw_4core5slice4iterINtB7_4IterRNtNtNtCsht3nMU9UgFu_3std3ffi6os_str5OsStrENtNtNtNtBb_4iter6traits8iterator8Iterator4folduNCINvNtNtB1D_8adapters3map8map_foldRBQ_BQ_uNvYBQ_NtNtBb_5clone5Clone5cloneQNCIB2l_BQ_INtNtCsiTraAjBDcu4_5alloc5boxed3BoxBR_EuNvYBQ_INtNtBb_7convert4IntoB3F_E4intoNCINvNvB1x_8for_each4callB3F_NCINvMsi_NtB3K_3vecINtB5w_3VecB3F_E14extend_trustedINtB2n_3MapINtNtB2p_5chain5ChainINtNtB2p_6cloned6ClonedBF_EIB6d_IBG_NtNtB3K_6string6StringEINvMsl_BT_BR_3newB7i_EEEB4j_EE0E0E0E0ECsfpvTL5dBvDY_2cc, symObjAddr: 0xB14, symBinAddr: 0x10004F8B8, symSize: 0x18C }
  - { offset: 0x94DA9, size: 0x8, addend: 0x0, symName: __RINvXs2V_NtNtCsaNl6UpbT7bw_4core5slice4iterINtB7_4IterReENtNtNtNtBb_4iter6traits8iterator8Iterator3anyNCNCNvMs4_CsfpvTL5dBvDY_2ccNtB1M_5Build20apple_sdk_root_inner00EB1M_, symObjAddr: 0xCA0, symBinAddr: 0x10004FA44, symSize: 0xB0 }
  - { offset: 0x94E0E, size: 0x8, addend: 0x0, symName: __RINvXs2V_NtNtCsaNl6UpbT7bw_4core5slice4iterINtB7_4IterReENtNtNtNtBb_4iter6traits8iterator8Iterator3anyNCNvXsf_NtB9_3cmpBQ_NtB1K_13SliceContains14slice_contains0ECsfpvTL5dBvDY_2cc, symObjAddr: 0xD50, symBinAddr: 0x10004FAF4, symSize: 0xB0 }
  - { offset: 0x94E73, size: 0x8, addend: 0x0, symName: __RINvXs2V_NtNtCsaNl6UpbT7bw_4core5slice4iterINtB7_4IterReENtNtNtNtBb_4iter6traits8iterator8Iterator4findNCNCNvCsfpvTL5dBvDY_2cc27autodetect_android_compiler00EB1J_, symObjAddr: 0xE00, symBinAddr: 0x10004FBA4, symSize: 0xB0 }
  - { offset: 0x94ED8, size: 0x8, addend: 0x0, symName: __RINvXs2V_NtNtCsaNl6UpbT7bw_4core5slice4iterINtB7_4IterReENtNtNtNtBb_4iter6traits8iterator8Iterator8find_mapNtNtCsiTraAjBDcu4_5alloc6string6StringQNCNvMs4_CsfpvTL5dBvDY_2ccNtB2s_5Build25get_base_archiver_variants1_0EB2s_, symObjAddr: 0xEB0, symBinAddr: 0x10004FC54, symSize: 0xE8 }
  - { offset: 0x94F5D, size: 0x8, addend: 0x0, symName: __RINvXs2V_NtNtCsaNl6UpbT7bw_4core5slice4iterINtB7_4IterTINtNtCsiTraAjBDcu4_5alloc4sync3ArcNtNtNtCsht3nMU9UgFu_3std3ffi6os_str5OsStrEBR_EENtNtNtNtBb_4iter6traits8iterator8Iterator4findNCNCNvMs4_CsfpvTL5dBvDY_2ccNtB34_5Build23apple_deployment_targets_00EB34_, symObjAddr: 0xF98, symBinAddr: 0x10004FD3C, symSize: 0xB0 }
  - { offset: 0x94FC2, size: 0x8, addend: 0x0, symName: __RINvXs2V_NtNtCsaNl6UpbT7bw_4core5slice4iterINtB7_4IterTINtNtCsiTraAjBDcu4_5alloc4sync3ArcNtNtNtCsht3nMU9UgFu_3std3ffi6os_str5OsStrEBR_EENtNtNtNtBb_4iter6traits8iterator8Iterator4findNCNvMs4_CsfpvTL5dBvDY_2ccNtB32_5Build6getenv0EB32_, symObjAddr: 0x1048, symBinAddr: 0x10004FDEC, symSize: 0xB0 }
  - { offset: 0x95027, size: 0x8, addend: 0x0, symName: __RINvXs2V_NtNtCsaNl6UpbT7bw_4core5slice4iterINtB7_4IterTNtNtNtCsht3nMU9UgFu_3std3ffi6os_str8OsStringBR_EENtNtNtNtBb_4iter6traits8iterator8Iterator4findNCNvMs4_CsfpvTL5dBvDY_2ccNtB2w_5Build11try_compile0EB2w_, symObjAddr: 0x10F8, symBinAddr: 0x10004FE9C, symSize: 0xAC }
  - { offset: 0x9508C, size: 0x8, addend: 0x0, symName: __RINvXs2V_NtNtCsaNl6UpbT7bw_4core5slice4iterINtB7_4IterTNtNtNtCsht3nMU9UgFu_3std3ffi6os_str8OsStringBR_EENtNtNtNtBb_4iter6traits8iterator8Iterator4folduNCINvNtNtB1K_8adapters3map8map_foldRBQ_BQ_uNCNvMNtCsfpvTL5dBvDY_2cc4toolNtB3b_4Tool20from_find_msvc_tools0NCINvNvB1E_8for_each4callBQ_NCINvMsi_NtCsiTraAjBDcu4_5alloc3vecINtB4I_3VecBQ_E14extend_trustedINtB2u_3MapBF_B36_EE0E0E0EB3d_, symObjAddr: 0x11A4, symBinAddr: 0x10004FF48, symSize: 0x1C0 }
  - { offset: 0x951E1, size: 0x8, addend: 0x0, symName: __RINvXs2V_NtNtCsaNl6UpbT7bw_4core5slice4iterINtB7_4ItercENtNtNtNtBb_4iter6traits8iterator8Iterator3anyNCNvXsL_NtB9_3cmpcNtB1J_13SliceContains14slice_containss_0ECsfpvTL5dBvDY_2cc, symObjAddr: 0x1364, symBinAddr: 0x100050108, symSize: 0xB0 }
  - { offset: 0x95246, size: 0x8, addend: 0x0, symName: __RINvXs2V_NtNtCsaNl6UpbT7bw_4core5slice4iterINtB7_4ItercENtNtNtNtBb_4iter6traits8iterator8Iterator4foldbNCNvXsL_NtB9_3cmpcNtB1L_13SliceContains14slice_contains0ECsfpvTL5dBvDY_2cc, symObjAddr: 0x1414, symBinAddr: 0x1000501B8, symSize: 0x1CC }
  - { offset: 0x9539F, size: 0x8, addend: 0x0, symName: __RINvXs2V_NtNtCsaNl6UpbT7bw_4core5slice4iterINtB7_4IterhENtNtNtNtBb_4iter6traits8iterator8Iterator4folduNCINvNtNtBY_8adapters3map8map_foldRhhuNCNvNtCsiTraAjBDcu4_5alloc3str13replace_ascii0NCINvNvBS_8for_each4callhNCINvMsi_NtB2l_3vecINtB3x_3VechE14extend_trustedINtB1I_3MapBF_B2f_EE0E0E0ECsfpvTL5dBvDY_2cc, symObjAddr: 0x15E0, symBinAddr: 0x100050384, symSize: 0x1B8 }
  - { offset: 0x954F4, size: 0x8, addend: 0x0, symName: __RINvXs2V_NtNtCsaNl6UpbT7bw_4core5slice4iterINtB7_4IterhENtNtNtNtBb_4iter6traits8iterator8Iterator8positionNCNvXsf_B7_INtB7_5SplithNtNtBb_3str17IsAsciiWhitespaceEBS_4next0ECsfpvTL5dBvDY_2cc, symObjAddr: 0x1798, symBinAddr: 0x10005053C, symSize: 0x188 }
  - { offset: 0x955B2, size: 0x8, addend: 0x0, symName: __RINvXs2V_NtNtCsaNl6UpbT7bw_4core5slice4iterINtB7_4IterhENtNtNtNtBb_4iter6traits8iterator8Iterator8positionNCNvXsm_B7_INtB7_14SplitInclusivehNCNvMs_NtCsfpvTL5dBvDY_2cc15command_helpersNtB2l_15StderrForwarder17forward_available0EBS_4next0EB2n_, symObjAddr: 0x1920, symBinAddr: 0x1000506C4, symSize: 0x188 }
  - { offset: 0x95670, size: 0x8, addend: 0x0, symName: __RNvXs2V_NtNtCsaNl6UpbT7bw_4core5slice4iterINtB6_4IterAhj20_ENtNtNtNtBa_4iter6traits8iterator8Iterator4nextCsfpvTL5dBvDY_2cc, symObjAddr: 0x266C, symBinAddr: 0x10005128C, symSize: 0xB0 }
  - { offset: 0x957AA, size: 0x8, addend: 0x0, symName: __RNvXs2V_NtNtCsaNl6UpbT7bw_4core5slice4iterINtB6_4IterINtNtCsiTraAjBDcu4_5alloc4sync3ArcNtNtCsht3nMU9UgFu_3std4path4PathEENtNtNtNtBa_4iter6traits8iterator8Iterator4nextCsfpvTL5dBvDY_2cc, symObjAddr: 0x271C, symBinAddr: 0x10005133C, symSize: 0xB0 }
  - { offset: 0x958E4, size: 0x8, addend: 0x0, symName: __RNvXs2V_NtNtCsaNl6UpbT7bw_4core5slice4iterINtB6_4IterINtNtCsiTraAjBDcu4_5alloc4sync3ArcNtNtCsht3nMU9UgFu_3std4path4PathEENtNtNtNtBa_4iter6traits8iterator8Iterator9size_hintCsfpvTL5dBvDY_2cc, symObjAddr: 0x27CC, symBinAddr: 0x1000513EC, symSize: 0x70 }
  - { offset: 0x95953, size: 0x8, addend: 0x0, symName: __RNvXs2V_NtNtCsaNl6UpbT7bw_4core5slice4iterINtB6_4IterINtNtCsiTraAjBDcu4_5alloc4sync3ArcNtNtNtCsht3nMU9UgFu_3std3ffi6os_str5OsStrEENtNtNtNtBa_4iter6traits8iterator8Iterator4nextCsfpvTL5dBvDY_2cc, symObjAddr: 0x283C, symBinAddr: 0x10005145C, symSize: 0xB0 }
  - { offset: 0x95A8D, size: 0x8, addend: 0x0, symName: __RNvXs2V_NtNtCsaNl6UpbT7bw_4core5slice4iterINtB6_4IterINtNtCsiTraAjBDcu4_5alloc5boxed3BoxNtNtNtCsht3nMU9UgFu_3std3ffi6os_str5OsStrEENtNtNtNtBa_4iter6traits8iterator8Iterator4nextCsfpvTL5dBvDY_2cc, symObjAddr: 0x28EC, symBinAddr: 0x10005150C, symSize: 0xB0 }
  - { offset: 0x95BC7, size: 0x8, addend: 0x0, symName: __RNvXs2V_NtNtCsaNl6UpbT7bw_4core5slice4iterINtB6_4IterNtCsfpvTL5dBvDY_2cc6ObjectENtNtNtNtBa_4iter6traits8iterator8Iterator4nextBR_, symObjAddr: 0x299C, symBinAddr: 0x1000515BC, symSize: 0xB0 }
  - { offset: 0x95D01, size: 0x8, addend: 0x0, symName: __RNvXs2V_NtNtCsaNl6UpbT7bw_4core5slice4iterINtB6_4IterNtCsfpvTL5dBvDY_2cc6ObjectENtNtNtNtBa_4iter6traits8iterator8Iterator9size_hintBR_, symObjAddr: 0x2A4C, symBinAddr: 0x10005166C, symSize: 0x70 }
  - { offset: 0x95D70, size: 0x8, addend: 0x0, symName: __RNvXs2V_NtNtCsaNl6UpbT7bw_4core5slice4iterINtB6_4IterNtNtCsiTraAjBDcu4_5alloc6string6StringENtNtNtNtBa_4iter6traits8iterator8Iterator4nextCsfpvTL5dBvDY_2cc, symObjAddr: 0x2ABC, symBinAddr: 0x1000516DC, symSize: 0xB0 }
  - { offset: 0x95EAA, size: 0x8, addend: 0x0, symName: __RNvXs2V_NtNtCsaNl6UpbT7bw_4core5slice4iterINtB6_4IterNtNtCsiTraAjBDcu4_5alloc6string6StringENtNtNtNtBa_4iter6traits8iterator8Iterator9size_hintCsfpvTL5dBvDY_2cc, symObjAddr: 0x2B6C, symBinAddr: 0x10005178C, symSize: 0x70 }
  - { offset: 0x95F19, size: 0x8, addend: 0x0, symName: __RNvXs2V_NtNtCsaNl6UpbT7bw_4core5slice4iterINtB6_4IterNtNtNtCsht3nMU9UgFu_3std3ffi6os_str8OsStringENtNtNtNtBa_4iter6traits8iterator8Iterator4nextCsfpvTL5dBvDY_2cc, symObjAddr: 0x2BDC, symBinAddr: 0x1000517FC, symSize: 0xB0 }
  - { offset: 0x96053, size: 0x8, addend: 0x0, symName: __RNvXs2V_NtNtCsaNl6UpbT7bw_4core5slice4iterINtB6_4IterRINtNtCsiTraAjBDcu4_5alloc3vec3VechEENtNtNtNtBa_4iter6traits8iterator8Iterator4nextCsfpvTL5dBvDY_2cc, symObjAddr: 0x2C8C, symBinAddr: 0x1000518AC, symSize: 0xB0 }
  - { offset: 0x9618D, size: 0x8, addend: 0x0, symName: __RNvXs2V_NtNtCsaNl6UpbT7bw_4core5slice4iterINtB6_4IterRNtNtCsht3nMU9UgFu_3std4path4PathENtNtNtNtBa_4iter6traits8iterator8Iterator4nextCsfpvTL5dBvDY_2cc, symObjAddr: 0x2D3C, symBinAddr: 0x10005195C, symSize: 0xB0 }
  - { offset: 0x962C7, size: 0x8, addend: 0x0, symName: __RNvXs2V_NtNtCsaNl6UpbT7bw_4core5slice4iterINtB6_4IterRNtNtNtCsht3nMU9UgFu_3std3ffi6os_str5OsStrENtNtNtNtBa_4iter6traits8iterator8Iterator9size_hintCsfpvTL5dBvDY_2cc, symObjAddr: 0x2DEC, symBinAddr: 0x100051A0C, symSize: 0x70 }
  - { offset: 0x96336, size: 0x8, addend: 0x0, symName: __RNvXs2V_NtNtCsaNl6UpbT7bw_4core5slice4iterINtB6_4IterTINtNtCsiTraAjBDcu4_5alloc4sync3ArcNtNtNtCsht3nMU9UgFu_3std3ffi6os_str5OsStrEBQ_EENtNtNtNtBa_4iter6traits8iterator8Iterator4nextCsfpvTL5dBvDY_2cc, symObjAddr: 0x2E5C, symBinAddr: 0x100051A7C, symSize: 0xB0 }
  - { offset: 0x96470, size: 0x8, addend: 0x0, symName: __RNvXs2V_NtNtCsaNl6UpbT7bw_4core5slice4iterINtB6_4IterTINtNtCsiTraAjBDcu4_5alloc4sync3ArceEINtNtBa_6option6OptionBQ_EEENtNtNtNtBa_4iter6traits8iterator8Iterator4nextCsfpvTL5dBvDY_2cc, symObjAddr: 0x2F0C, symBinAddr: 0x100051B2C, symSize: 0xB0 }
  - { offset: 0x965AA, size: 0x8, addend: 0x0, symName: __RNvXs2V_NtNtCsaNl6UpbT7bw_4core5slice4iterINtB6_4IterTNtNtNtCsht3nMU9UgFu_3std3ffi6os_str8OsStringBQ_EENtNtNtNtBa_4iter6traits8iterator8Iterator9size_hintCsfpvTL5dBvDY_2cc, symObjAddr: 0x2FBC, symBinAddr: 0x100051BDC, symSize: 0x70 }
  - { offset: 0x96619, size: 0x8, addend: 0x0, symName: __RNvXs2V_NtNtCsaNl6UpbT7bw_4core5slice4iterINtB6_4ItercENtNtNtNtBa_4iter6traits8iterator8Iterator4nextCsfpvTL5dBvDY_2cc, symObjAddr: 0x302C, symBinAddr: 0x100051C4C, symSize: 0xB0 }
  - { offset: 0x96753, size: 0x8, addend: 0x0, symName: __RNvXs2V_NtNtCsaNl6UpbT7bw_4core5slice4iterINtB6_4IterhENtNtNtNtBa_4iter6traits8iterator8Iterator10advance_byCsfpvTL5dBvDY_2cc, symObjAddr: 0x30DC, symBinAddr: 0x100051CFC, symSize: 0xB0 }
  - { offset: 0x96888, size: 0x8, addend: 0x0, symName: __RNvXs2V_NtNtCsaNl6UpbT7bw_4core5slice4iterINtB6_4IterhENtNtNtNtBa_4iter6traits8iterator8Iterator9size_hintCsfpvTL5dBvDY_2cc, symObjAddr: 0x318C, symBinAddr: 0x100051DAC, symSize: 0x70 }
  - { offset: 0x96A3F, size: 0x8, addend: 0x0, symName: __RNCNvXsf_NtNtCsaNl6UpbT7bw_4core5slice4iterINtB7_5SplithNtNtBb_3str17IsAsciiWhitespaceENtNtNtNtBb_4iter6traits8iterator8Iterator4next0CsfpvTL5dBvDY_2cc, symObjAddr: 0x1FC8, symBinAddr: 0x100050C04, symSize: 0x30 }
  - { offset: 0x96AA5, size: 0x8, addend: 0x0, symName: __RNvXsf_NtNtCsaNl6UpbT7bw_4core5slice4iterINtB5_5SplithNtNtB9_3str17IsAsciiWhitespaceENtNtNtNtB9_4iter6traits8iterator8Iterator4nextCsfpvTL5dBvDY_2cc, symObjAddr: 0x345C, symBinAddr: 0x10005207C, symSize: 0x250 }
  - { offset: 0x96E00, size: 0x8, addend: 0x0, symName: __RNvXsf_NtNtCsaNl6UpbT7bw_4core5slice4iterINtB5_5SplithNtNtB9_3str17IsAsciiWhitespaceENtNtNtNtB9_4iter6traits8iterator8Iterator9size_hintCsfpvTL5dBvDY_2cc, symObjAddr: 0x36AC, symBinAddr: 0x1000522CC, symSize: 0x84 }
  - { offset: 0x96E4B, size: 0x8, addend: 0x0, symName: __RNCNvXsm_NtNtCsaNl6UpbT7bw_4core5slice4iterINtB7_14SplitInclusivehNCNvMs_NtCsfpvTL5dBvDY_2cc15command_helpersNtB19_15StderrForwarder17forward_available0ENtNtNtNtBb_4iter6traits8iterator8Iterator4next0B1b_, symObjAddr: 0x1FF8, symBinAddr: 0x100050C34, symSize: 0x30 }
  - { offset: 0x96EE8, size: 0x8, addend: 0x0, symName: __RNvXsm_NtNtCsaNl6UpbT7bw_4core5slice4iterINtB5_14SplitInclusivehNCNvMs_NtCsfpvTL5dBvDY_2cc15command_helpersNtB17_15StderrForwarder17forward_available0ENtNtNtNtB9_4iter6traits8iterator8Iterator4nextB19_, symObjAddr: 0x3730, symBinAddr: 0x100052350, symSize: 0x260 }
  - { offset: 0x97404, size: 0x8, addend: 0x0, symName: __RNvXs17_NtNtCsaNl6UpbT7bw_4core5slice4iterINtB6_6ChunksRNtNtCsht3nMU9UgFu_3std4path4PathENtNtNtNtBa_4iter6traits8iterator8Iterator4nextCsfpvTL5dBvDY_2cc, symObjAddr: 0x23CC, symBinAddr: 0x100050FEC, symSize: 0x160 }
  - { offset: 0x97504, size: 0x8, addend: 0x0, symName: __RNvXs1q_NtNtCsaNl6UpbT7bw_4core5slice4iterINtB6_11ChunksExactcENtNtNtNtBa_4iter6traits8iterator8Iterator4nextCsfpvTL5dBvDY_2cc, symObjAddr: 0x252C, symBinAddr: 0x10005114C, symSize: 0x140 }
  - { offset: 0x9767A, size: 0x8, addend: 0x0, symName: __RNvXs2W_NtNtCsaNl6UpbT7bw_4core5slice4iterINtB6_4IterNtNtCsiTraAjBDcu4_5alloc6string6StringENtNtNtNtBa_4iter6traits12double_ended19DoubleEndedIterator9next_backCsfpvTL5dBvDY_2cc, symObjAddr: 0x31FC, symBinAddr: 0x100051E1C, symSize: 0x108 }
  - { offset: 0x977D6, size: 0x8, addend: 0x0, symName: __RNvXs2W_NtNtCsaNl6UpbT7bw_4core5slice4iterINtB6_4IterhENtNtNtNtBa_4iter6traits12double_ended19DoubleEndedIterator9next_backCsfpvTL5dBvDY_2cc, symObjAddr: 0x3304, symBinAddr: 0x100051F24, symSize: 0x108 }
  - { offset: 0x97938, size: 0x8, addend: 0x0, symName: __RNvXs_NtNtCsaNl6UpbT7bw_4core5slice4iterRSReNtNtNtNtB8_4iter6traits7collect12IntoIterator9into_iterCsfpvTL5dBvDY_2cc, symObjAddr: 0x340C, symBinAddr: 0x10005202C, symSize: 0x50 }
  - { offset: 0x98129, size: 0x8, addend: 0x0, symName: __RINvYINtNtNtCsaNl6UpbT7bw_4core5slice4iter4IterINtNtCsiTraAjBDcu4_5alloc4sync3ArcNtNtCsht3nMU9UgFu_3std4path4PathEENtNtNtNtBa_4iter6traits8iterator8Iterator3mapRB1h_NvYBJ_NtNtNtBa_3ops5deref5Deref5derefECsfpvTL5dBvDY_2cc, symObjAddr: 0x1AC4, symBinAddr: 0x10005084C, symSize: 0x1C }
  - { offset: 0x98181, size: 0x8, addend: 0x0, symName: __RINvYINtNtNtCsaNl6UpbT7bw_4core5slice4iter4IterINtNtCsiTraAjBDcu4_5alloc4sync3ArcNtNtCsht3nMU9UgFu_3std4path4PathEENtNtNtNtBa_4iter6traits8iterator8Iterator3mapjNCINvNvXs1_NtNtB1V_8adapters6filterINtB2K_6FilterppEB1P_5count8to_usizeRBJ_NCNvMs4_CsfpvTL5dBvDY_2ccNtB3U_5Build15cuda_file_count0E0EB3U_, symObjAddr: 0x1AE0, symBinAddr: 0x100050868, symSize: 0x1C }
  - { offset: 0x981D9, size: 0x8, addend: 0x0, symName: __RINvYINtNtNtCsaNl6UpbT7bw_4core5slice4iter4IterINtNtCsiTraAjBDcu4_5alloc4sync3ArcNtNtCsht3nMU9UgFu_3std4path4PathEENtNtNtNtBa_4iter6traits8iterator8Iterator6filterNCNvMs4_CsfpvTL5dBvDY_2ccNtB2J_5Build15cuda_file_count0EB2J_, symObjAddr: 0x1AFC, symBinAddr: 0x100050884, symSize: 0x1C }
  - { offset: 0x98228, size: 0x8, addend: 0x0, symName: __RINvYINtNtNtCsaNl6UpbT7bw_4core5slice4iter4IterINtNtCsiTraAjBDcu4_5alloc4sync3ArcNtNtNtCsht3nMU9UgFu_3std3ffi6os_str5OsStrEENtNtNtNtBa_4iter6traits8iterator8Iterator3mapRB1h_NvYBJ_NtNtNtBa_3ops5deref5Deref5derefECsfpvTL5dBvDY_2cc, symObjAddr: 0x1C64, symBinAddr: 0x1000508A0, symSize: 0x1C }
  - { offset: 0x98280, size: 0x8, addend: 0x0, symName: __RINvYINtNtNtCsaNl6UpbT7bw_4core5slice4iter4IterNtCsfpvTL5dBvDY_2cc6ObjectENtNtNtNtBa_4iter6traits8iterator8Iterator3mapRNtNtCsht3nMU9UgFu_3std4path4PathNCNvMs4_BL_NtBL_5Build8assemble0EBL_, symObjAddr: 0x1C80, symBinAddr: 0x1000508BC, symSize: 0x1C }
  - { offset: 0x982D8, size: 0x8, addend: 0x0, symName: __RINvYINtNtNtCsaNl6UpbT7bw_4core5slice4iter4IterNtNtCsiTraAjBDcu4_5alloc6string6StringENtNtNtNtBa_4iter6traits8iterator8Iterator10filter_mapINtNtBN_4sync3ArcNtNtNtCsht3nMU9UgFu_3std3ffi6os_str5OsStrENCNvMs4_CsfpvTL5dBvDY_2ccNtB3i_5Build27getenv_with_target_prefixes0EB3i_, symObjAddr: 0x1C9C, symBinAddr: 0x1000508D8, symSize: 0x30 }
  - { offset: 0x98345, size: 0x8, addend: 0x0, symName: __RINvYINtNtNtCsaNl6UpbT7bw_4core5slice4iter4IterNtNtCsiTraAjBDcu4_5alloc6string6StringENtNtNtNtBa_4iter6traits8iterator8Iterator3mapRNtNtNtCsht3nMU9UgFu_3std3ffi6os_str5OsStrINvMsl_B28_B26_3newBJ_EECsfpvTL5dBvDY_2cc, symObjAddr: 0x1CCC, symBinAddr: 0x100050908, symSize: 0x1C }
  - { offset: 0x9839D, size: 0x8, addend: 0x0, symName: __RINvYINtNtNtCsaNl6UpbT7bw_4core5slice4iter4IterNtNtNtCsht3nMU9UgFu_3std3ffi6os_str8OsStringENtNtNtNtBa_4iter6traits8iterator8Iterator6filterNCNvMNtCsfpvTL5dBvDY_2cc4toolNtB2j_4Tool10to_command0EB2l_, symObjAddr: 0x1CE8, symBinAddr: 0x100050924, symSize: 0x30 }
  - { offset: 0x98401, size: 0x8, addend: 0x0, symName: __RINvYINtNtNtCsaNl6UpbT7bw_4core5slice4iter4IterRNtNtNtCsht3nMU9UgFu_3std3ffi6os_str5OsStrENtNtNtNtBa_4iter6traits8iterator8Iterator3mapBJ_NvYBJ_NtNtBa_5clone5Clone5cloneECsfpvTL5dBvDY_2cc, symObjAddr: 0x1D18, symBinAddr: 0x100050954, symSize: 0x1C }
  - { offset: 0x98459, size: 0x8, addend: 0x0, symName: __RINvYINtNtNtCsaNl6UpbT7bw_4core5slice4iter4IterRNtNtNtCsht3nMU9UgFu_3std3ffi6os_str5OsStrENtNtNtNtBa_4iter6traits8iterator8Iterator6clonedBJ_ECsfpvTL5dBvDY_2cc, symObjAddr: 0x1D34, symBinAddr: 0x100050970, symSize: 0x1C }
  - { offset: 0x98499, size: 0x8, addend: 0x0, symName: __RINvYINtNtNtCsaNl6UpbT7bw_4core5slice4iter4IterReENtNtNtNtBa_4iter6traits8iterator8Iterator10filter_mapNtNtCsiTraAjBDcu4_5alloc6string6StringNCNvMs4_CsfpvTL5dBvDY_2ccNtB2n_5Build25get_base_archiver_variants1_0EB2n_, symObjAddr: 0x1D50, symBinAddr: 0x10005098C, symSize: 0x3C }
  - { offset: 0x98506, size: 0x8, addend: 0x0, symName: __RINvYINtNtNtCsaNl6UpbT7bw_4core5slice4iter4IterTNtNtNtCsht3nMU9UgFu_3std3ffi6os_str8OsStringBK_EENtNtNtNtBa_4iter6traits8iterator8Iterator3mapBJ_NCNvMNtCsfpvTL5dBvDY_2cc4toolNtB2o_4Tool20from_find_msvc_tools0EB2q_, symObjAddr: 0x1D8C, symBinAddr: 0x1000509C8, symSize: 0x1C }
  - { offset: 0x9855E, size: 0x8, addend: 0x0, symName: __RINvYINtNtNtCsaNl6UpbT7bw_4core5slice4iter5SplithNtNtBa_3str17IsAsciiWhitespaceENtNtNtNtBa_4iter6traits8iterator8Iterator4findQNtBN_15BytesIsNotEmptyECsfpvTL5dBvDY_2cc, symObjAddr: 0x1DA8, symBinAddr: 0x1000509E4, symSize: 0x8C }
  - { offset: 0x985D9, size: 0x8, addend: 0x0, symName: __RINvYINtNtNtCsaNl6UpbT7bw_4core5slice4iter5SplithNtNtBa_3str17IsAsciiWhitespaceENtNtNtNtBa_4iter6traits8iterator8Iterator8try_folduNCINvNvB1g_4find5checkRShQNtBN_15BytesIsNotEmptyE0INtNtNtBa_3ops12control_flow11ControlFlowB2r_EECsfpvTL5dBvDY_2cc, symObjAddr: 0x1E34, symBinAddr: 0x100050A70, symSize: 0x194 }
  - { offset: 0x9868F, size: 0x8, addend: 0x0, symName: __RNvYINtNtNtCsaNl6UpbT7bw_4core5slice4iter4IterINtNtCsiTraAjBDcu4_5alloc4sync3ArcNtNtNtCsht3nMU9UgFu_3std3ffi6os_str5OsStrEENtNtNtNtB9_4iter6traits8iterator8Iterator9enumerateCsfpvTL5dBvDY_2cc, symObjAddr: 0x3990, symBinAddr: 0x1000525B0, symSize: 0x28 }
  - { offset: 0x986DB, size: 0x8, addend: 0x0, symName: __RNvYINtNtNtCsaNl6UpbT7bw_4core5slice4iter4IterNtNtCsiTraAjBDcu4_5alloc6string6StringENtNtNtNtB9_4iter6traits8iterator8Iterator3revCsfpvTL5dBvDY_2cc, symObjAddr: 0x39B8, symBinAddr: 0x1000525D8, symSize: 0x1C }
  - { offset: 0x98795, size: 0x8, addend: 0x0, symName: __RNvXNtNtNtCsaNl6UpbT7bw_4core4iter6traits7collectINtNtNtB8_5slice4iter14SplitInclusivehNCNvMs_NtCsfpvTL5dBvDY_2cc15command_helpersNtB1u_15StderrForwarder17forward_available0ENtB2_12IntoIterator9into_iterB1w_, symObjAddr: 0x2310, symBinAddr: 0x100050F4C, symSize: 0x18 }
  - { offset: 0x987CC, size: 0x8, addend: 0x0, symName: __RNvXNtNtNtCsaNl6UpbT7bw_4core4iter6traits7collectINtNtNtB8_5slice4iter4IterINtNtCsiTraAjBDcu4_5alloc4sync3ArcNtNtCsht3nMU9UgFu_3std4path4PathEENtB2_12IntoIterator9into_iterCsfpvTL5dBvDY_2cc, symObjAddr: 0x2328, symBinAddr: 0x100050F64, symSize: 0x1C }
  - { offset: 0x98803, size: 0x8, addend: 0x0, symName: __RNvXNtNtNtCsaNl6UpbT7bw_4core4iter6traits7collectINtNtNtB8_5slice4iter4IterINtNtCsiTraAjBDcu4_5alloc4sync3ArcNtNtNtCsht3nMU9UgFu_3std3ffi6os_str5OsStrEENtB2_12IntoIterator9into_iterCsfpvTL5dBvDY_2cc, symObjAddr: 0x2344, symBinAddr: 0x100050F80, symSize: 0x1C }
  - { offset: 0x9883A, size: 0x8, addend: 0x0, symName: __RNvXNtNtNtCsaNl6UpbT7bw_4core4iter6traits7collectINtNtNtB8_5slice4iter4IterTINtNtCsiTraAjBDcu4_5alloc4sync3ArcNtNtNtCsht3nMU9UgFu_3std3ffi6os_str5OsStrEB1c_EENtB2_12IntoIterator9into_iterCsfpvTL5dBvDY_2cc, symObjAddr: 0x237C, symBinAddr: 0x100050F9C, symSize: 0x1C }
  - { offset: 0x98871, size: 0x8, addend: 0x0, symName: __RNvXNtNtNtCsaNl6UpbT7bw_4core4iter6traits7collectINtNtNtB8_5slice4iter4IterTINtNtCsiTraAjBDcu4_5alloc4sync3ArceEINtNtB8_6option6OptionB1c_EEENtB2_12IntoIterator9into_iterCsfpvTL5dBvDY_2cc, symObjAddr: 0x2398, symBinAddr: 0x100050FB8, symSize: 0x1C }
  - { offset: 0x988A8, size: 0x8, addend: 0x0, symName: __RNvXNtNtNtCsaNl6UpbT7bw_4core4iter6traits7collectINtNtNtB8_5slice4iter6ChunksRNtNtCsht3nMU9UgFu_3std4path4PathENtB2_12IntoIterator9into_iterCsfpvTL5dBvDY_2cc, symObjAddr: 0x23B4, symBinAddr: 0x100050FD4, symSize: 0x18 }
  - { offset: 0x9B369, size: 0x8, addend: 0x0, symName: __RNvMs4_NtNtCsaNl6UpbT7bw_4core5slice4iterINtB5_4IterINtNtCsiTraAjBDcu4_5alloc4sync3ArcNtNtCsht3nMU9UgFu_3std4path4PathEE3newCsfpvTL5dBvDY_2cc, symObjAddr: 0x2028, symBinAddr: 0x100050C64, symSize: 0x50 }
  - { offset: 0x9B533, size: 0x8, addend: 0x0, symName: __RNvMs4_NtNtCsaNl6UpbT7bw_4core5slice4iterINtB5_4IterINtNtCsiTraAjBDcu4_5alloc4sync3ArcNtNtNtCsht3nMU9UgFu_3std3ffi6os_str5OsStrEE3newCsfpvTL5dBvDY_2cc, symObjAddr: 0x2078, symBinAddr: 0x100050CB4, symSize: 0x50 }
  - { offset: 0x9B6E3, size: 0x8, addend: 0x0, symName: __RNvMs4_NtNtCsaNl6UpbT7bw_4core5slice4iterINtB5_4IterNtCsfpvTL5dBvDY_2cc6ObjectE3newBQ_, symObjAddr: 0x20C8, symBinAddr: 0x100050D04, symSize: 0x58 }
  - { offset: 0x9B886, size: 0x8, addend: 0x0, symName: __RNvMs4_NtNtCsaNl6UpbT7bw_4core5slice4iterINtB5_4IterNtNtCsiTraAjBDcu4_5alloc6string6StringE3newCsfpvTL5dBvDY_2cc, symObjAddr: 0x2120, symBinAddr: 0x100050D5C, symSize: 0x58 }
  - { offset: 0x9BA36, size: 0x8, addend: 0x0, symName: __RNvMs4_NtNtCsaNl6UpbT7bw_4core5slice4iterINtB5_4IterNtNtNtCsht3nMU9UgFu_3std3ffi6os_str8OsStringE3newCsfpvTL5dBvDY_2cc, symObjAddr: 0x2178, symBinAddr: 0x100050DB4, symSize: 0x58 }
  - { offset: 0x9BC0D, size: 0x8, addend: 0x0, symName: __RNvMs4_NtNtCsaNl6UpbT7bw_4core5slice4iterINtB5_4IterRINtNtCsiTraAjBDcu4_5alloc3vec3VechEE3newCsfpvTL5dBvDY_2cc, symObjAddr: 0x21D0, symBinAddr: 0x100050E0C, symSize: 0x50 }
  - { offset: 0x9BDBD, size: 0x8, addend: 0x0, symName: __RNvMs4_NtNtCsaNl6UpbT7bw_4core5slice4iterINtB5_4IterRNtNtNtCsht3nMU9UgFu_3std3ffi6os_str5OsStrE3newCsfpvTL5dBvDY_2cc, symObjAddr: 0x2220, symBinAddr: 0x100050E5C, symSize: 0x50 }
  - { offset: 0x9BF87, size: 0x8, addend: 0x0, symName: __RNvMs4_NtNtCsaNl6UpbT7bw_4core5slice4iterINtB5_4IterTINtNtCsiTraAjBDcu4_5alloc4sync3ArcNtNtNtCsht3nMU9UgFu_3std3ffi6os_str5OsStrEBP_EE3newCsfpvTL5dBvDY_2cc, symObjAddr: 0x2270, symBinAddr: 0x100050EAC, symSize: 0x50 }
  - { offset: 0x9C151, size: 0x8, addend: 0x0, symName: __RNvMs4_NtNtCsaNl6UpbT7bw_4core5slice4iterINtB5_4IterTINtNtCsiTraAjBDcu4_5alloc4sync3ArceEINtNtB9_6option6OptionBP_EEE3newCsfpvTL5dBvDY_2cc, symObjAddr: 0x22C0, symBinAddr: 0x100050EFC, symSize: 0x50 }
  - { offset: 0x9D110, size: 0x8, addend: 0x0, symName: __RINvMNtCsaNl6UpbT7bw_4core6resultINtB3_6ResultINtNtCsiTraAjBDcu4_5alloc3vec3VechENtCsfpvTL5dBvDY_2cc5ErrorE3mapbNCNvNvMNtB1j_4toolNtB1T_4Tool13with_features9is_zig_cc0EB1j_, symObjAddr: 0x0, symBinAddr: 0x1000525F4, symSize: 0xA4 }
  - { offset: 0x9E5D8, size: 0x8, addend: 0x0, symName: __RNcNtINtNtCsiTraAjBDcu4_5alloc6borrow3CowNtNtCsht3nMU9UgFu_3std4path4PathE5Owned0CsfpvTL5dBvDY_2cc, symObjAddr: 0xC54, symBinAddr: 0x100053248, symSize: 0x18 }
  - { offset: 0x9E609, size: 0x8, addend: 0x0, symName: __RNcNtINtNtCsiTraAjBDcu4_5alloc6borrow3CoweE5Owned0CsfpvTL5dBvDY_2cc, symObjAddr: 0xC98, symBinAddr: 0x10005328C, symSize: 0x18 }
  - { offset: 0x9E640, size: 0x8, addend: 0x0, symName: __RNcNtINtNtCsiTraAjBDcu4_5alloc6borrow3CowNtNtCsht3nMU9UgFu_3std4path4PathE8Borrowed0CsfpvTL5dBvDY_2cc, symObjAddr: 0xC6C, symBinAddr: 0x100053260, symSize: 0x2C }
  - { offset: 0x9E671, size: 0x8, addend: 0x0, symName: __RNcNtINtNtCsiTraAjBDcu4_5alloc6borrow3CoweE8Borrowed0CsfpvTL5dBvDY_2cc, symObjAddr: 0xCB0, symBinAddr: 0x1000532A4, symSize: 0x2C }
  - { offset: 0x9E6A9, size: 0x8, addend: 0x0, symName: __RNvXs0_NtCsiTraAjBDcu4_5alloc6borrowINtB5_3CoweENtNtCsaNl6UpbT7bw_4core5clone5Clone5cloneCsfpvTL5dBvDY_2cc, symObjAddr: 0x1C54, symBinAddr: 0x100054248, symSize: 0xA8 }
  - { offset: 0x9E780, size: 0x8, addend: 0x0, symName: __RNvXs2_NtCsiTraAjBDcu4_5alloc6borrowINtB5_3CowNtNtCsht3nMU9UgFu_3std4path4PathENtNtNtCsaNl6UpbT7bw_4core3ops5deref5Deref5derefCsfpvTL5dBvDY_2cc, symObjAddr: 0x1E7C, symBinAddr: 0x100054470, symSize: 0x80 }
  - { offset: 0x9E7F3, size: 0x8, addend: 0x0, symName: __RNvXs2_NtCsiTraAjBDcu4_5alloc6borrowINtB5_3CoweENtNtNtCsaNl6UpbT7bw_4core3ops5deref5Deref5derefCsfpvTL5dBvDY_2cc, symObjAddr: 0x1EFC, symBinAddr: 0x1000544F0, symSize: 0x80 }
  - { offset: 0x9E959, size: 0x8, addend: 0x0, symName: __RNvXs8_NtCsiTraAjBDcu4_5alloc6borrowINtB5_3CoweENtNtCsaNl6UpbT7bw_4core3cmp9PartialEq2eqCsfpvTL5dBvDY_2cc, symObjAddr: 0x1F7C, symBinAddr: 0x100054570, symSize: 0xFC }
  - { offset: 0x9EA44, size: 0x8, addend: 0x0, symName: __RNvXsa_NtCsiTraAjBDcu4_5alloc6borrowINtB5_3CoweENtNtCsaNl6UpbT7bw_4core3fmt5Debug3fmtCsfpvTL5dBvDY_2cc, symObjAddr: 0x20C0, symBinAddr: 0x1000546B4, symSize: 0x8C }
  - { offset: 0x9EAF2, size: 0x8, addend: 0x0, symName: __RNvXsb_NtCsiTraAjBDcu4_5alloc6borrowINtB5_3CoweENtNtCsaNl6UpbT7bw_4core3fmt7Display3fmtCsfpvTL5dBvDY_2cc, symObjAddr: 0x214C, symBinAddr: 0x100054740, symSize: 0x8C }
  - { offset: 0x9EBA0, size: 0x8, addend: 0x0, symName: __RNvXse_NtCsiTraAjBDcu4_5alloc6borrowINtB5_3CowNtNtCsht3nMU9UgFu_3std4path4PathEINtNtCsaNl6UpbT7bw_4core7convert5AsRefBI_E6as_refCsfpvTL5dBvDY_2cc, symObjAddr: 0x21D8, symBinAddr: 0x1000547CC, symSize: 0x80 }
  - { offset: 0x9EC21, size: 0x8, addend: 0x0, symName: __RNvXse_NtCsiTraAjBDcu4_5alloc6borrowINtB5_3CoweEINtNtCsaNl6UpbT7bw_4core7convert5AsRefeE6as_refCsfpvTL5dBvDY_2cc, symObjAddr: 0x2258, symBinAddr: 0x10005484C, symSize: 0x80 }
  - { offset: 0x9ED13, size: 0x8, addend: 0x0, symName: __RNvXs1t_NtCsiTraAjBDcu4_5alloc6stringINtNtB8_6borrow3CoweEINtNtCsaNl6UpbT7bw_4core3cmp9PartialEqReE2eqCsfpvTL5dBvDY_2cc, symObjAddr: 0x1D40, symBinAddr: 0x100054334, symSize: 0x13C }
  - { offset: 0x9FDDC, size: 0x8, addend: 0x0, symName: __RNvXs19_NtCsaNl6UpbT7bw_4core3fmtRINtNtCsiTraAjBDcu4_5alloc6borrow3CoweENtB6_5Debug3fmtCsfpvTL5dBvDY_2cc, symObjAddr: 0x1CFC, symBinAddr: 0x1000542F0, symSize: 0x30 }
  - { offset: 0xA15F0, size: 0x8, addend: 0x0, symName: __RNcNtINtNtCsaNl6UpbT7bw_4core6result6ResultuINtNtNtB8_3num7nonzero7NonZerojEE3Err0CsfpvTL5dBvDY_2cc, symObjAddr: 0xC3C, symBinAddr: 0x100053230, symSize: 0x18 }
  - { offset: 0xA1FDE, size: 0x8, addend: 0x0, symName: __RNvXsp_NtCsaNl6UpbT7bw_4core6resultINtB5_6ResultANtNtCsiTraAjBDcu4_5alloc6string6Stringj4_NtCsfpvTL5dBvDY_2cc5ErrorENtNtNtB7_3ops9try_trait3Try6branchB1s_, symObjAddr: 0x22D8, symBinAddr: 0x1000548CC, symSize: 0xB0 }
  - { offset: 0xA205B, size: 0x8, addend: 0x0, symName: __RNvXsp_NtCsaNl6UpbT7bw_4core6resultINtB5_6ResultINtNtB7_6option6OptionINtNtCsiTraAjBDcu4_5alloc3vec3VecNtNtB1b_6string6StringEENtCsfpvTL5dBvDY_2cc5ErrorENtNtNtB7_3ops9try_trait3Try6branchB23_, symObjAddr: 0x2388, symBinAddr: 0x10005497C, symSize: 0x9C }
  - { offset: 0xA20D8, size: 0x8, addend: 0x0, symName: __RNvXsp_NtCsaNl6UpbT7bw_4core6resultINtB5_6ResultINtNtB7_6option6OptionINtNtCsiTraAjBDcu4_5alloc6borrow3CowNtNtCsht3nMU9UgFu_3std4path4PathEENtCsfpvTL5dBvDY_2cc5ErrorENtNtNtB7_3ops9try_trait3Try6branchB2g_, symObjAddr: 0x2424, symBinAddr: 0x100054A18, symSize: 0x9C }
  - { offset: 0xA2155, size: 0x8, addend: 0x0, symName: __RNvXsp_NtCsaNl6UpbT7bw_4core6resultINtB5_6ResultINtNtB7_6option6OptionReENtCsfpvTL5dBvDY_2cc5ErrorENtNtNtB7_3ops9try_trait3Try6branchB1b_, symObjAddr: 0x24C0, symBinAddr: 0x100054AB4, symSize: 0x94 }
  - { offset: 0xA21D3, size: 0x8, addend: 0x0, symName: __RNvXsp_NtCsaNl6UpbT7bw_4core6resultINtB5_6ResultINtNtB7_6option6OptionmENtCsfpvTL5dBvDY_2cc5ErrorENtNtNtB7_3ops9try_trait3Try6branchB1a_, symObjAddr: 0x2554, symBinAddr: 0x100054B48, symSize: 0x94 }
  - { offset: 0xA2251, size: 0x8, addend: 0x0, symName: __RNvXsp_NtCsaNl6UpbT7bw_4core6resultINtB5_6ResultINtNtCsiTraAjBDcu4_5alloc3vec3VecNtCsfpvTL5dBvDY_2cc6ObjectENtB1j_5ErrorENtNtNtB7_3ops9try_trait3Try6branchB1j_, symObjAddr: 0x25E8, symBinAddr: 0x100054BDC, symSize: 0x9C }
  - { offset: 0xA22CE, size: 0x8, addend: 0x0, symName: __RNvXsp_NtCsaNl6UpbT7bw_4core6resultINtB5_6ResultINtNtCsiTraAjBDcu4_5alloc3vec3VechENtCsfpvTL5dBvDY_2cc5ErrorENtNtNtB7_3ops9try_trait3Try6branchB1l_, symObjAddr: 0x2720, symBinAddr: 0x100054C78, symSize: 0x9C }
  - { offset: 0xA234B, size: 0x8, addend: 0x0, symName: __RNvXsp_NtCsaNl6UpbT7bw_4core6resultINtB5_6ResultINtNtCsiTraAjBDcu4_5alloc4sync3ArcNtNtNtCsht3nMU9UgFu_3std3ffi6os_str5OsStrENtCsfpvTL5dBvDY_2cc5ErrorENtNtNtB7_3ops9try_trait3Try6branchB20_, symObjAddr: 0x27BC, symBinAddr: 0x100054D14, symSize: 0x94 }
  - { offset: 0xA23C9, size: 0x8, addend: 0x0, symName: __RNvXsp_NtCsaNl6UpbT7bw_4core6resultINtB5_6ResultINtNtCsiTraAjBDcu4_5alloc5boxed3BoxeENtCsfpvTL5dBvDY_2cc5ErrorENtNtNtB7_3ops9try_trait3Try6branchB1n_, symObjAddr: 0x2850, symBinAddr: 0x100054DA8, symSize: 0x94 }
  - { offset: 0xA2447, size: 0x8, addend: 0x0, symName: __RNvXsp_NtCsaNl6UpbT7bw_4core6resultINtB5_6ResultINtNtCsiTraAjBDcu4_5alloc6borrow3CowNtNtCsht3nMU9UgFu_3std4path4PathENtCsfpvTL5dBvDY_2cc5ErrorENtNtNtB7_3ops9try_trait3Try6branchB1T_, symObjAddr: 0x28E4, symBinAddr: 0x100054E3C, symSize: 0x9C }
  - { offset: 0xA24C4, size: 0x8, addend: 0x0, symName: __RNvXsp_NtCsaNl6UpbT7bw_4core6resultINtB5_6ResultINtNtCsiTraAjBDcu4_5alloc6borrow3CoweENtCsfpvTL5dBvDY_2cc5ErrorENtNtNtB7_3ops9try_trait3Try6branchB1o_, symObjAddr: 0x2980, symBinAddr: 0x100054ED8, symSize: 0x9C }
  - { offset: 0xA2541, size: 0x8, addend: 0x0, symName: __RNvXsp_NtCsaNl6UpbT7bw_4core6resultINtB5_6ResultNtNtCsfpvTL5dBvDY_2cc4tool10ToolFamilyNtBO_5ErrorENtNtNtB7_3ops9try_trait3Try6branchBO_, symObjAddr: 0x2A84, symBinAddr: 0x100054F74, symSize: 0x94 }
  - { offset: 0xA25BF, size: 0x8, addend: 0x0, symName: __RNvXsp_NtCsaNl6UpbT7bw_4core6resultINtB5_6ResultNtNtCsfpvTL5dBvDY_2cc4tool4ToolNtBO_5ErrorENtNtNtB7_3ops9try_trait3Try6branchBO_, symObjAddr: 0x2B18, symBinAddr: 0x100055008, symSize: 0xC4 }
  - { offset: 0xA263D, size: 0x8, addend: 0x0, symName: __RNvXsp_NtCsaNl6UpbT7bw_4core6resultINtB5_6ResultNtNtCsfpvTL5dBvDY_2cc5flags17RustcCodegenFlagsNtBO_5ErrorENtNtNtB7_3ops9try_trait3Try6branchBO_, symObjAddr: 0x2BDC, symBinAddr: 0x1000550CC, symSize: 0xB4 }
  - { offset: 0xA26BB, size: 0x8, addend: 0x0, symName: __RNvXsp_NtCsaNl6UpbT7bw_4core6resultINtB5_6ResultNtNtCsfpvTL5dBvDY_2cc6target10TargetInfoNtBO_5ErrorENtNtNtB7_3ops9try_trait3Try6branchBO_, symObjAddr: 0x2C90, symBinAddr: 0x100055180, symSize: 0xA8 }
  - { offset: 0xA2738, size: 0x8, addend: 0x0, symName: __RNvXsp_NtCsaNl6UpbT7bw_4core6resultINtB5_6ResultNtNtCsfpvTL5dBvDY_2cc8tempfile13NamedTempfileNtBO_5ErrorENtNtNtB7_3ops9try_trait3Try6branchBO_, symObjAddr: 0x2D38, symBinAddr: 0x100055228, symSize: 0x94 }
  - { offset: 0xA27B5, size: 0x8, addend: 0x0, symName: __RNvXsp_NtCsaNl6UpbT7bw_4core6resultINtB5_6ResultNtNtCsht3nMU9UgFu_3std2fs4FileNtNtNtBO_2io5error5ErrorENtNtNtB7_3ops9try_trait3Try6branchCsfpvTL5dBvDY_2cc, symObjAddr: 0x2DCC, symBinAddr: 0x1000552BC, symSize: 0x6C }
  - { offset: 0xA2832, size: 0x8, addend: 0x0, symName: __RNvXsp_NtCsaNl6UpbT7bw_4core6resultINtB5_6ResultNtNtCsht3nMU9UgFu_3std4path7PathBufNtCsfpvTL5dBvDY_2cc5ErrorENtNtNtB7_3ops9try_trait3Try6branchB1l_, symObjAddr: 0x2E38, symBinAddr: 0x100055328, symSize: 0x9C }
  - { offset: 0xA28AF, size: 0x8, addend: 0x0, symName: __RNvXsp_NtCsaNl6UpbT7bw_4core6resultINtB5_6ResultNtNtCsht3nMU9UgFu_3std7process10ExitStatusNtNtNtBO_2io5error5ErrorENtNtNtB7_3ops9try_trait3Try6branchCsfpvTL5dBvDY_2cc, symObjAddr: 0x2ED4, symBinAddr: 0x1000553C4, symSize: 0x6C }
  - { offset: 0xA292C, size: 0x8, addend: 0x0, symName: __RNvXsp_NtCsaNl6UpbT7bw_4core6resultINtB5_6ResultNtNtCsht3nMU9UgFu_3std7process5ChildNtCsfpvTL5dBvDY_2cc5ErrorENtNtNtB7_3ops9try_trait3Try6branchB1m_, symObjAddr: 0x2F40, symBinAddr: 0x100055430, symSize: 0x9C }
  - { offset: 0xA29A9, size: 0x8, addend: 0x0, symName: __RNvXsp_NtCsaNl6UpbT7bw_4core6resultINtB5_6ResultNtNtCsht3nMU9UgFu_3std7process6OutputNtNtNtBO_2io5error5ErrorENtNtNtB7_3ops9try_trait3Try6branchCsfpvTL5dBvDY_2cc, symObjAddr: 0x2FDC, symBinAddr: 0x1000554CC, symSize: 0x94 }
  - { offset: 0xA2A26, size: 0x8, addend: 0x0, symName: __RNvXsp_NtCsaNl6UpbT7bw_4core6resultINtB5_6ResultNtNtCsht3nMU9UgFu_3std7process7CommandNtCsfpvTL5dBvDY_2cc5ErrorENtNtNtB7_3ops9try_trait3Try6branchB1o_, symObjAddr: 0x3070, symBinAddr: 0x100055560, symSize: 0xC4 }
  - { offset: 0xA2AA4, size: 0x8, addend: 0x0, symName: __RNvXsp_NtCsaNl6UpbT7bw_4core6resultINtB5_6ResultNtNtCsiTraAjBDcu4_5alloc6string6StringNtCsfpvTL5dBvDY_2cc5ErrorENtNtNtB7_3ops9try_trait3Try6branchB1o_, symObjAddr: 0x3134, symBinAddr: 0x100055624, symSize: 0x9C }
  - { offset: 0xA2B21, size: 0x8, addend: 0x0, symName: __RNvXsp_NtCsaNl6UpbT7bw_4core6resultINtB5_6ResultRNtNtCsht3nMU9UgFu_3std4path4PathNtCsfpvTL5dBvDY_2cc5ErrorENtNtNtB7_3ops9try_trait3Try6branchB1j_, symObjAddr: 0x31D0, symBinAddr: 0x1000556C0, symSize: 0x94 }
  - { offset: 0xA2B9F, size: 0x8, addend: 0x0, symName: __RNvXsp_NtCsaNl6UpbT7bw_4core6resultINtB5_6ResultRNtNtNtCsht3nMU9UgFu_3std3ffi6os_str5OsStrNtCsfpvTL5dBvDY_2cc5ErrorENtNtNtB7_3ops9try_trait3Try6branchB1s_, symObjAddr: 0x3264, symBinAddr: 0x100055754, symSize: 0x94 }
  - { offset: 0xA2C1D, size: 0x8, addend: 0x0, symName: __RNvXsp_NtCsaNl6UpbT7bw_4core6resultINtB5_6ResultReNtCsfpvTL5dBvDY_2cc5ErrorENtNtNtB7_3ops9try_trait3Try6branchBO_, symObjAddr: 0x32F8, symBinAddr: 0x1000557E8, symSize: 0x94 }
  - { offset: 0xA2C9B, size: 0x8, addend: 0x0, symName: __RNvXsp_NtCsaNl6UpbT7bw_4core6resultINtB5_6ResultTNtNtCsht3nMU9UgFu_3std7process7CommandNtNtBP_4path7PathBufENtCsfpvTL5dBvDY_2cc5ErrorENtNtNtB7_3ops9try_trait3Try6branchB1K_, symObjAddr: 0x338C, symBinAddr: 0x10005587C, symSize: 0xB8 }
  - { offset: 0xA2D19, size: 0x8, addend: 0x0, symName: __RNvXsp_NtCsaNl6UpbT7bw_4core6resultINtB5_6ResultTNtNtCsht3nMU9UgFu_3std7process7CommandNtNtBP_4path7PathBufbENtCsfpvTL5dBvDY_2cc5ErrorENtNtNtB7_3ops9try_trait3Try6branchB1L_, symObjAddr: 0x3444, symBinAddr: 0x100055934, symSize: 0xC4 }
  - { offset: 0xA2D97, size: 0x8, addend: 0x0, symName: __RNvXsp_NtCsaNl6UpbT7bw_4core6resultINtB5_6ResultTReBL_ENtCsfpvTL5dBvDY_2cc5ErrorENtNtNtB7_3ops9try_trait3Try6branchBT_, symObjAddr: 0x3508, symBinAddr: 0x1000559F8, symSize: 0x94 }
  - { offset: 0xA2E14, size: 0x8, addend: 0x0, symName: __RNvXsp_NtCsaNl6UpbT7bw_4core6resultINtB5_6ResultbNtCsfpvTL5dBvDY_2cc5ErrorENtNtNtB7_3ops9try_trait3Try6branchBN_, symObjAddr: 0x359C, symBinAddr: 0x100055A8C, symSize: 0x94 }
  - { offset: 0xA2E92, size: 0x8, addend: 0x0, symName: __RNvXsp_NtCsaNl6UpbT7bw_4core6resultINtB5_6ResultjNtNtNtCsht3nMU9UgFu_3std2io5error5ErrorENtNtNtB7_3ops9try_trait3Try6branchCsfpvTL5dBvDY_2cc, symObjAddr: 0x3630, symBinAddr: 0x100055B20, symSize: 0x5C }
  - { offset: 0xA2F0E, size: 0x8, addend: 0x0, symName: __RNvXsp_NtCsaNl6UpbT7bw_4core6resultINtB5_6ResultuNtCsfpvTL5dBvDY_2cc5ErrorENtNtNtB7_3ops9try_trait3Try6branchBN_, symObjAddr: 0x368C, symBinAddr: 0x100055B7C, symSize: 0x78 }
  - { offset: 0xA2F8C, size: 0x8, addend: 0x0, symName: __RNvXsp_NtCsaNl6UpbT7bw_4core6resultINtB5_6ResultuNtNtB7_3fmt5ErrorENtNtNtB7_3ops9try_trait3Try6branchCsfpvTL5dBvDY_2cc, symObjAddr: 0x3704, symBinAddr: 0x100055BF4, symSize: 0x40 }
  - { offset: 0xA3008, size: 0x8, addend: 0x0, symName: __RNvXsp_NtCsaNl6UpbT7bw_4core6resultINtB5_6ResultuNtNtNtCsht3nMU9UgFu_3std2io5error5ErrorENtNtNtB7_3ops9try_trait3Try6branchCsfpvTL5dBvDY_2cc, symObjAddr: 0x3744, symBinAddr: 0x100055C34, symSize: 0x48 }
  - { offset: 0xA308A, size: 0x8, addend: 0x0, symName: __RNvXsq_NtCsaNl6UpbT7bw_4core6resultINtB5_6ResultANtNtCsiTraAjBDcu4_5alloc6string6Stringj4_NtCsfpvTL5dBvDY_2cc5ErrorEINtNtNtB7_3ops9try_trait12FromResidualIBy_NtNtB7_7convert10InfallibleB1q_EE13from_residualB1s_, symObjAddr: 0x378C, symBinAddr: 0x100055C7C, symSize: 0x48 }
  - { offset: 0xA310F, size: 0x8, addend: 0x0, symName: __RNvXsq_NtCsaNl6UpbT7bw_4core6resultINtB5_6ResultINtNtB7_6option6OptionINtNtCsiTraAjBDcu4_5alloc3vec3VecNtNtB1b_6string6StringEENtCsfpvTL5dBvDY_2cc5ErrorEINtNtNtB7_3ops9try_trait12FromResidualIBy_NtNtB7_7convert10InfallibleB21_EE13from_residualB23_, symObjAddr: 0x37D4, symBinAddr: 0x100055CC4, symSize: 0x3C }
  - { offset: 0xA3194, size: 0x8, addend: 0x0, symName: __RNvXsq_NtCsaNl6UpbT7bw_4core6resultINtB5_6ResultINtNtB7_6option6OptionINtNtCsiTraAjBDcu4_5alloc6borrow3CowNtNtCsht3nMU9UgFu_3std4path4PathEENtCsfpvTL5dBvDY_2cc5ErrorEINtNtNtB7_3ops9try_trait12FromResidualIBy_NtNtB7_7convert10InfallibleB2e_EE13from_residualB2g_, symObjAddr: 0x3810, symBinAddr: 0x100055D00, symSize: 0x3C }
  - { offset: 0xA3219, size: 0x8, addend: 0x0, symName: __RNvXsq_NtCsaNl6UpbT7bw_4core6resultINtB5_6ResultINtNtCsiTraAjBDcu4_5alloc3vec3VecNtCsfpvTL5dBvDY_2cc6ObjectENtB1j_5ErrorEINtNtNtB7_3ops9try_trait12FromResidualIBy_NtNtB7_7convert10InfallibleB1I_EE13from_residualB1j_, symObjAddr: 0x384C, symBinAddr: 0x100055D3C, symSize: 0x3C }
  - { offset: 0xA329E, size: 0x8, addend: 0x0, symName: __RNvXsq_NtCsaNl6UpbT7bw_4core6resultINtB5_6ResultINtNtCsiTraAjBDcu4_5alloc3vec3VecNtCsfpvTL5dBvDY_2cc6ObjectENtB1j_5ErrorEINtNtNtB7_3ops9try_trait12FromResidualIBy_NtNtB7_7convert10InfallibleNtNtNtCsht3nMU9UgFu_3std2io5error5ErrorEE13from_residualB1j_, symObjAddr: 0x3888, symBinAddr: 0x100055D78, symSize: 0x44 }
  - { offset: 0xA3305, size: 0x8, addend: 0x0, symName: __RNvXsq_NtCsaNl6UpbT7bw_4core6resultINtB5_6ResultINtNtCsiTraAjBDcu4_5alloc3vec3VechENtCsfpvTL5dBvDY_2cc5ErrorEINtNtNtB7_3ops9try_trait12FromResidualIBy_NtNtB7_7convert10InfallibleB1j_EE13from_residualB1l_, symObjAddr: 0x3908, symBinAddr: 0x100055DBC, symSize: 0x3C }
  - { offset: 0xA338A, size: 0x8, addend: 0x0, symName: __RNvXsq_NtCsaNl6UpbT7bw_4core6resultINtB5_6ResultINtNtCsiTraAjBDcu4_5alloc4sync3ArcNtNtNtCsht3nMU9UgFu_3std3ffi6os_str5OsStrENtCsfpvTL5dBvDY_2cc5ErrorEINtNtNtB7_3ops9try_trait12FromResidualIBy_NtNtB7_7convert10InfallibleB1Y_EE13from_residualB20_, symObjAddr: 0x3944, symBinAddr: 0x100055DF8, symSize: 0x3C }
  - { offset: 0xA340F, size: 0x8, addend: 0x0, symName: __RNvXsq_NtCsaNl6UpbT7bw_4core6resultINtB5_6ResultNtNtCsfpvTL5dBvDY_2cc4tool10ToolFamilyNtBO_5ErrorEINtNtNtB7_3ops9try_trait12FromResidualIBy_NtNtB7_7convert10InfallibleB1m_EE13from_residualBO_, symObjAddr: 0x3988, symBinAddr: 0x100055E34, symSize: 0x3C }
  - { offset: 0xA3494, size: 0x8, addend: 0x0, symName: __RNvXsq_NtCsaNl6UpbT7bw_4core6resultINtB5_6ResultNtNtCsfpvTL5dBvDY_2cc4tool10ToolFamilyNtBO_5ErrorEINtNtNtB7_3ops9try_trait12FromResidualIBy_NtNtB7_7convert10InfallibleNtNtNtCsht3nMU9UgFu_3std2io5error5ErrorEE13from_residualBO_, symObjAddr: 0x39C4, symBinAddr: 0x100055E70, symSize: 0x44 }
  - { offset: 0xA34FB, size: 0x8, addend: 0x0, symName: __RNvXsq_NtCsaNl6UpbT7bw_4core6resultINtB5_6ResultNtNtCsfpvTL5dBvDY_2cc4tool4ToolNtBO_5ErrorEINtNtNtB7_3ops9try_trait12FromResidualIBy_NtNtB7_7convert10InfallibleB1f_EE13from_residualBO_, symObjAddr: 0x3A08, symBinAddr: 0x100055EB4, symSize: 0x48 }
  - { offset: 0xA3580, size: 0x8, addend: 0x0, symName: __RNvXsq_NtCsaNl6UpbT7bw_4core6resultINtB5_6ResultNtNtCsfpvTL5dBvDY_2cc5flags17RustcCodegenFlagsNtBO_5ErrorEINtNtNtB7_3ops9try_trait12FromResidualIBy_NtNtB7_7convert10InfallibleB1u_EE13from_residualBO_, symObjAddr: 0x3A50, symBinAddr: 0x100055EFC, symSize: 0x48 }
  - { offset: 0xA3605, size: 0x8, addend: 0x0, symName: __RNvXsq_NtCsaNl6UpbT7bw_4core6resultINtB5_6ResultNtNtCsfpvTL5dBvDY_2cc6target10TargetInfoNtBO_5ErrorEINtNtNtB7_3ops9try_trait12FromResidualIBy_NtNtB7_7convert10InfallibleB1o_EE13from_residualBO_, symObjAddr: 0x3A98, symBinAddr: 0x100055F44, symSize: 0x40 }
  - { offset: 0xA368A, size: 0x8, addend: 0x0, symName: __RNvXsq_NtCsaNl6UpbT7bw_4core6resultINtB5_6ResultNtNtCsht3nMU9UgFu_3std4path7PathBufNtCsfpvTL5dBvDY_2cc5ErrorEINtNtNtB7_3ops9try_trait12FromResidualIBy_NtNtB7_7convert10InfallibleB1j_EE13from_residualB1l_, symObjAddr: 0x3AD8, symBinAddr: 0x100055F84, symSize: 0x3C }
  - { offset: 0xA370F, size: 0x8, addend: 0x0, symName: __RNvXsq_NtCsaNl6UpbT7bw_4core6resultINtB5_6ResultNtNtCsht3nMU9UgFu_3std4path7PathBufNtCsfpvTL5dBvDY_2cc5ErrorEINtNtNtB7_3ops9try_trait12FromResidualIBy_NtNtB7_7convert10InfallibleNtNtNtBO_2io5error5ErrorEE13from_residualB1l_, symObjAddr: 0x3B14, symBinAddr: 0x100055FC0, symSize: 0x44 }
  - { offset: 0xA3776, size: 0x8, addend: 0x0, symName: __RNvXsq_NtCsaNl6UpbT7bw_4core6resultINtB5_6ResultNtNtCsht3nMU9UgFu_3std7process7CommandNtCsfpvTL5dBvDY_2cc5ErrorEINtNtNtB7_3ops9try_trait12FromResidualIBy_NtNtB7_7convert10InfallibleB1m_EE13from_residualB1o_, symObjAddr: 0x3B58, symBinAddr: 0x100056004, symSize: 0x48 }
  - { offset: 0xA37FB, size: 0x8, addend: 0x0, symName: __RNvXsq_NtCsaNl6UpbT7bw_4core6resultINtB5_6ResultNtNtCsiTraAjBDcu4_5alloc6string6StringNtCsfpvTL5dBvDY_2cc5ErrorEINtNtNtB7_3ops9try_trait12FromResidualIBy_NtNtB7_7convert10InfallibleB1m_EE13from_residualB1o_, symObjAddr: 0x3BA0, symBinAddr: 0x10005604C, symSize: 0x3C }
  - { offset: 0xA3880, size: 0x8, addend: 0x0, symName: __RNvXsq_NtCsaNl6UpbT7bw_4core6resultINtB5_6ResultNtNtNtCsfpvTL5dBvDY_2cc6target6parser21TargetInfoParserInnerNtBQ_5ErrorEINtNtNtB7_3ops9try_trait12FromResidualIBy_NtNtB7_7convert10InfallibleB1I_EE13from_residualBQ_, symObjAddr: 0x3BDC, symBinAddr: 0x100056088, symSize: 0x40 }
  - { offset: 0xA3905, size: 0x8, addend: 0x0, symName: __RNvXsq_NtCsaNl6UpbT7bw_4core6resultINtB5_6ResultTNtNtCsht3nMU9UgFu_3std7process7CommandNtNtBP_4path7PathBufENtCsfpvTL5dBvDY_2cc5ErrorEINtNtNtB7_3ops9try_trait12FromResidualIBy_NtNtB7_7convert10InfallibleB1I_EE13from_residualB1K_, symObjAddr: 0x3C58, symBinAddr: 0x1000560C8, symSize: 0x48 }
  - { offset: 0xA398A, size: 0x8, addend: 0x0, symName: __RNvXsq_NtCsaNl6UpbT7bw_4core6resultINtB5_6ResultTNtNtCsht3nMU9UgFu_3std7process7CommandNtNtBP_4path7PathBufbENtCsfpvTL5dBvDY_2cc5ErrorEINtNtNtB7_3ops9try_trait12FromResidualIBy_NtNtB7_7convert10InfallibleB1J_EE13from_residualB1L_, symObjAddr: 0x3CA0, symBinAddr: 0x100056110, symSize: 0x48 }
  - { offset: 0xA3A0F, size: 0x8, addend: 0x0, symName: __RNvXsq_NtCsaNl6UpbT7bw_4core6resultINtB5_6ResultbNtCsfpvTL5dBvDY_2cc5ErrorEINtNtNtB7_3ops9try_trait12FromResidualIBy_NtNtB7_7convert10InfallibleBL_EE13from_residualBN_, symObjAddr: 0x3CE8, symBinAddr: 0x100056158, symSize: 0x3C }
  - { offset: 0xA3A94, size: 0x8, addend: 0x0, symName: __RNvXsq_NtCsaNl6UpbT7bw_4core6resultINtB5_6ResultbNtCsfpvTL5dBvDY_2cc5ErrorEINtNtNtB7_3ops9try_trait12FromResidualIBy_NtNtB7_7convert10InfallibleNtNtNtCsht3nMU9UgFu_3std2io5error5ErrorEE13from_residualBN_, symObjAddr: 0x3D24, symBinAddr: 0x100056194, symSize: 0x44 }
  - { offset: 0xA3AFB, size: 0x8, addend: 0x0, symName: __RNvXsq_NtCsaNl6UpbT7bw_4core6resultINtB5_6ResultuNtCsfpvTL5dBvDY_2cc5ErrorEINtNtNtB7_3ops9try_trait12FromResidualIBy_NtNtB7_7convert10InfallibleBL_EE13from_residualBN_, symObjAddr: 0x3D68, symBinAddr: 0x1000561D8, symSize: 0x3C }
  - { offset: 0xA3B80, size: 0x8, addend: 0x0, symName: __RNvXsq_NtCsaNl6UpbT7bw_4core6resultINtB5_6ResultuNtNtB7_3fmt5ErrorEINtNtNtB7_3ops9try_trait12FromResidualIBy_NtNtB7_7convert10InfallibleBL_EE13from_residualCsfpvTL5dBvDY_2cc, symObjAddr: 0x3DA4, symBinAddr: 0x100056214, symSize: 0x1C }
  - { offset: 0xA494B, size: 0x8, addend: 0x0, symName: __RNvYINtNtCsiTraAjBDcu4_5alloc6borrow3CoweENtNtCsaNl6UpbT7bw_4core3cmp9PartialEq2neCsfpvTL5dBvDY_2cc, symObjAddr: 0x3DC0, symBinAddr: 0x100056230, symSize: 0x30 }
  - { offset: 0xA499A, size: 0x8, addend: 0x0, symName: __RNvYeNtNtCsaNl6UpbT7bw_4core3cmp9PartialEq2neCsfpvTL5dBvDY_2cc, symObjAddr: 0x3DF0, symBinAddr: 0x100056260, symSize: 0x38 }
  - { offset: 0xA49EF, size: 0x8, addend: 0x0, symName: __RNvYjNtNtCsaNl6UpbT7bw_4core3cmp3Ord3minCsfpvTL5dBvDY_2cc, symObjAddr: 0x3E28, symBinAddr: 0x100056298, symSize: 0x80 }
  - { offset: 0xA4BF0, size: 0x8, addend: 0x0, symName: __RINvNtNtNtNtCsaNl6UpbT7bw_4core9core_arch10arm_shared4neon9generated13vget_lane_u64Kl0_ECsfpvTL5dBvDY_2cc, symObjAddr: 0xAA8, symBinAddr: 0x10005309C, symSize: 0x18 }
  - { offset: 0xA4C1F, size: 0x8, addend: 0x0, symName: __RNvNtNtNtNtCsaNl6UpbT7bw_4core9core_arch10arm_shared4neon9generated18vreinterpret_s8_u8CsfpvTL5dBvDY_2cc, symObjAddr: 0x1754, symBinAddr: 0x100053D48, symSize: 0xC }
  - { offset: 0xA4C4D, size: 0x8, addend: 0x0, symName: __RNvNtNtNtNtCsaNl6UpbT7bw_4core9core_arch10arm_shared4neon9generated19vreinterpret_u64_u8CsfpvTL5dBvDY_2cc, symObjAddr: 0x1760, symBinAddr: 0x100053D54, symSize: 0xC }
  - { offset: 0xA4C7B, size: 0x8, addend: 0x0, symName: __RNvNtNtNtNtCsaNl6UpbT7bw_4core9core_arch10arm_shared4neon9generated7vceq_u8CsfpvTL5dBvDY_2cc, symObjAddr: 0x176C, symBinAddr: 0x100053D60, symSize: 0x14 }
  - { offset: 0xA4CB8, size: 0x8, addend: 0x0, symName: __RNvNtNtNtNtCsaNl6UpbT7bw_4core9core_arch10arm_shared4neon9generated7vorr_u8CsfpvTL5dBvDY_2cc, symObjAddr: 0x1780, symBinAddr: 0x100053D74, symSize: 0x14 }
  - { offset: 0xA4CF5, size: 0x8, addend: 0x0, symName: __RNvNtNtNtNtCsaNl6UpbT7bw_4core9core_arch10arm_shared4neon9generated9vdup_n_u8CsfpvTL5dBvDY_2cc, symObjAddr: 0x1794, symBinAddr: 0x100053D88, symSize: 0x34 }
  - { offset: 0xA4DE4, size: 0x8, addend: 0x0, symName: __RINvXs_NtNtNtCsaNl6UpbT7bw_4core4iter8adapters3revINtB5_3RevNtNtCsht3nMU9UgFu_3std4path10ComponentsENtNtNtB9_6traits8iterator8Iterator8try_folduNCINvNvB1A_12try_for_each4callNtBY_9ComponentINtNtNtBb_3ops12control_flow11ControlFlowIB32_uNtNtBb_3cmp8OrderingEENCINvNvB1C_12iter_compare7compareBM_B2M_uNCINvNvB1A_5eq_by7compareB2M_B2M_NCINvYBM_B1A_2eqBM_E0E0E0E0B31_ECsfpvTL5dBvDY_2cc, symObjAddr: 0xAC0, symBinAddr: 0x1000530B4, symSize: 0x2C }
  - { offset: 0xA4E50, size: 0x8, addend: 0x0, symName: __RNvXs_NtNtNtCsaNl6UpbT7bw_4core4iter8adapters3revINtB4_3RevINtNtNtBa_5slice4iter4IterNtNtCsiTraAjBDcu4_5alloc6string6StringEENtNtNtB8_6traits8iterator8Iterator4nextCsfpvTL5dBvDY_2cc, symObjAddr: 0x2078, symBinAddr: 0x10005466C, symSize: 0x24 }
  - { offset: 0xA4E85, size: 0x8, addend: 0x0, symName: __RNvXs_NtNtNtCsaNl6UpbT7bw_4core4iter8adapters3revINtB4_3RevNtNtCsht3nMU9UgFu_3std4path10ComponentsENtNtNtB8_6traits8iterator8Iterator4nextCsfpvTL5dBvDY_2cc, symObjAddr: 0x209C, symBinAddr: 0x100054690, symSize: 0x24 }
  - { offset: 0xA4F08, size: 0x8, addend: 0x0, symName: __RINvYINtNtNtNtCsaNl6UpbT7bw_4core4iter8adapters3rev3RevNtNtCsht3nMU9UgFu_3std4path10ComponentsENtNtNtBa_6traits8iterator8Iterator12try_for_eachNCINvNvB1x_12iter_compare7compareB3_NtBT_9ComponentuNCINvNvB1v_5eq_by7compareB2R_B2R_NCINvYB3_B1v_2eqB3_E0E0E0INtNtNtBc_3ops12control_flow11ControlFlowIB44_uNtNtBc_3cmp8OrderingEEECsfpvTL5dBvDY_2cc, symObjAddr: 0xAEC, symBinAddr: 0x1000530E0, symSize: 0x2C }
  - { offset: 0xA4F60, size: 0x8, addend: 0x0, symName: __RINvYINtNtNtNtCsaNl6UpbT7bw_4core4iter8adapters3rev3RevNtNtCsht3nMU9UgFu_3std4path10ComponentsENtNtNtBa_6traits8iterator8Iterator5eq_byB3_NCINvYB3_B1v_2eqB3_E0ECsfpvTL5dBvDY_2cc, symObjAddr: 0xB18, symBinAddr: 0x10005310C, symSize: 0x124 }
  - { offset: 0xA508E, size: 0x8, addend: 0x0, symName: __RNvXNtNtNtCsaNl6UpbT7bw_4core4iter6traits7collectINtNtNtB6_8adapters3rev3RevINtNtNtB8_5slice4iter4IterNtNtCsiTraAjBDcu4_5alloc6string6StringEENtB2_12IntoIterator9into_iterCsfpvTL5dBvDY_2cc, symObjAddr: 0x1C08, symBinAddr: 0x1000541FC, symSize: 0x1C }
  - { offset: 0xA50C5, size: 0x8, addend: 0x0, symName: __RNvXNtNtNtCsaNl6UpbT7bw_4core4iter6traits7collectINtNtNtB6_8adapters3rev3RevNtNtCsht3nMU9UgFu_3std4path10ComponentsENtB2_12IntoIterator9into_iterCsfpvTL5dBvDY_2cc, symObjAddr: 0x1C24, symBinAddr: 0x100054218, symSize: 0x30 }
  - { offset: 0xA533A, size: 0x8, addend: 0x0, symName: __RNvNvNtNtCsaNl6UpbT7bw_4core5slice3raw14from_raw_parts18precondition_checkCsfpvTL5dBvDY_2cc, symObjAddr: 0x17C8, symBinAddr: 0x100053DBC, symSize: 0x1DC }
  - { offset: 0xA54BE, size: 0x8, addend: 0x0, symName: __RNvNvNtNtCsaNl6UpbT7bw_4core5slice3raw18from_raw_parts_mut18precondition_checkCsfpvTL5dBvDY_2cc, symObjAddr: 0x19A4, symBinAddr: 0x100053F98, symSize: 0x1DC }
  - { offset: 0xA576F, size: 0x8, addend: 0x0, symName: __RNvXNtCsaNl6UpbT7bw_4core7convertRINtNtCsiTraAjBDcu4_5alloc6borrow3CowNtNtCsht3nMU9UgFu_3std4path4PathEINtB2_5AsRefB16_E6as_refCsfpvTL5dBvDY_2cc, symObjAddr: 0x1BE0, symBinAddr: 0x1000541D4, symSize: 0x28 }
  - { offset: 0xA57B5, size: 0x8, addend: 0x0, symName: __RNvXs1_NtCsaNl6UpbT7bw_4core7convertINtNtCsiTraAjBDcu4_5alloc6borrow3CowNtNtCsht3nMU9UgFu_3std4path4PathEINtB5_4IntoNtB1a_7PathBufE4intoCsfpvTL5dBvDY_2cc, symObjAddr: 0x1D2C, symBinAddr: 0x100054320, symSize: 0x14 }
  - { offset: 0xA6D55, size: 0x8, addend: 0x0, symName: __RNvXCsg4dki62PTrg_9hashbrowneINtB2_10EquivalentINtNtCsiTraAjBDcu4_5alloc5boxed3BoxeEE10equivalentCsfpvTL5dBvDY_2cc, symObjAddr: 0x1B80, symBinAddr: 0x100054174, symSize: 0x60 }
  - { offset: 0xA71B3, size: 0x8, addend: 0x0, symName: __RNCNvMs_NtCsfpvTL5dBvDY_2cc15command_helpersNtB6_15StderrForwarder3new0B8_, symObjAddr: 0x4478, symBinAddr: 0x1000568E8, symSize: 0x94 }
  - { offset: 0xA71F6, size: 0x8, addend: 0x0, symName: __RNCNvMs_NtCsfpvTL5dBvDY_2cc15command_helpersNtB6_15StderrForwarder17forward_available0B8_, symObjAddr: 0x4DD8, symBinAddr: 0x100057248, symSize: 0x38 }
  - { offset: 0xA724E, size: 0x8, addend: 0x0, symName: __RNvNtCsfpvTL5dBvDY_2cc15command_helpers13write_warning, symObjAddr: 0x4E80, symBinAddr: 0x1000572F0, symSize: 0x2B8 }
  - { offset: 0xA7348, size: 0x8, addend: 0x0, symName: __RNvNtCsfpvTL5dBvDY_2cc15command_helpers13wait_on_child, symObjAddr: 0x5138, symBinAddr: 0x1000575A8, symSize: 0x2C8 }
  - { offset: 0xA7496, size: 0x8, addend: 0x0, symName: __RNvNtCsfpvTL5dBvDY_2cc15command_helpers18objects_from_files, symObjAddr: 0x5400, symBinAddr: 0x100057870, symSize: 0xA7C }
  - { offset: 0xA76CB, size: 0x8, addend: 0x0, symName: __RNCNvNtCsfpvTL5dBvDY_2cc15command_helpers18objects_from_files0B5_, symObjAddr: 0x5E7C, symBinAddr: 0x1000582EC, symSize: 0x48 }
  - { offset: 0xA76F5, size: 0x8, addend: 0x0, symName: __RNCNvNtCsfpvTL5dBvDY_2cc15command_helpers18objects_from_filess_0B5_, symObjAddr: 0x5EC4, symBinAddr: 0x100058334, symSize: 0x48 }
  - { offset: 0xA772E, size: 0x8, addend: 0x0, symName: __RNvNtCsfpvTL5dBvDY_2cc15command_helpers3run, symObjAddr: 0x5F0C, symBinAddr: 0x10005837C, symSize: 0x120 }
  - { offset: 0xA77C6, size: 0x8, addend: 0x0, symName: __RNvNtCsfpvTL5dBvDY_2cc15command_helpers10run_output, symObjAddr: 0x602C, symBinAddr: 0x10005849C, symSize: 0x3B4 }
  - { offset: 0xA78F2, size: 0x8, addend: 0x0, symName: __RNvNtCsfpvTL5dBvDY_2cc15command_helpers5spawn, symObjAddr: 0x63E0, symBinAddr: 0x100058850, symSize: 0x478 }
  - { offset: 0xA7AAD, size: 0x8, addend: 0x0, symName: __RNvXNvNtCsfpvTL5dBvDY_2cc15command_helpers5spawnNtB2_11ResetStderrNtNtNtCsaNl6UpbT7bw_4core3ops4drop4Drop4drop, symObjAddr: 0x6858, symBinAddr: 0x100058CC8, symSize: 0x54 }
  - { offset: 0xA7AEE, size: 0x8, addend: 0x0, symName: __RNvNtCsfpvTL5dBvDY_2cc15command_helpers23command_add_output_file, symObjAddr: 0x68AC, symBinAddr: 0x100058D1C, symSize: 0x21C }
  - { offset: 0xA7B51, size: 0x8, addend: 0x0, symName: __RNvXs0_NtCsfpvTL5dBvDY_2cc15command_helpersNtB5_11CargoOutputNtNtCsaNl6UpbT7bw_4core5clone5Clone5cloneB7_, symObjAddr: 0x6AC8, symBinAddr: 0x100058F38, symSize: 0x90 }
  - { offset: 0xA7B83, size: 0x8, addend: 0x0, symName: __RNvXs2_NtCsfpvTL5dBvDY_2cc15command_helpersNtB5_10OutputKindNtNtCsaNl6UpbT7bw_4core5clone5Clone5cloneB7_, symObjAddr: 0x6B58, symBinAddr: 0x100058FC8, symSize: 0x5C }
  - { offset: 0xA8069, size: 0x8, addend: 0x0, symName: __RINvMNtCsaNl6UpbT7bw_4core6resultINtB3_6ResultINtNtCsiTraAjBDcu4_5alloc3vec3VechENtCsfpvTL5dBvDY_2cc5ErrorE3mapbNCNvNvMNtB1j_4toolNtB1T_4Tool13with_features9is_zig_cc0EB1j_, symObjAddr: 0x0, symBinAddr: 0x1000525F4, symSize: 0xA4 }
  - { offset: 0xA8127, size: 0x8, addend: 0x0, symName: __RINvMNtCsaNl6UpbT7bw_4core6resultINtB3_6ResultINtNtCsiTraAjBDcu4_5alloc5boxed3BoxeENtCsfpvTL5dBvDY_2cc5ErrorE14unwrap_or_elseNCNvMNtNtB1l_6target6parserNtB24_21TargetInfoParserInner32from_cargo_environment_variabless5_0EB1l_, symObjAddr: 0xA4, symBinAddr: 0x100052698, symSize: 0x94 }
  - { offset: 0xA81F2, size: 0x8, addend: 0x0, symName: __RINvMNtCsaNl6UpbT7bw_4core6resultINtB3_6ResultNtNtCsfpvTL5dBvDY_2cc4tool10ToolFamilyNtBM_5ErrorE14unwrap_or_elseNCNvMBK_NtBK_4Tool13with_featuress_0EBM_, symObjAddr: 0x138, symBinAddr: 0x10005272C, symSize: 0xB0 }
  - { offset: 0xA82B1, size: 0x8, addend: 0x0, symName: __RINvMNtCsaNl6UpbT7bw_4core6resultINtB3_6ResultNtNtCsfpvTL5dBvDY_2cc8tempfile13NamedTempfileNtNtNtCsht3nMU9UgFu_3std2io5error5ErrorE7map_errNtBM_5ErrorNCNvNvMNtBM_4toolNtB2v_4Tool13with_features19detect_family_inners0_0EBM_, symObjAddr: 0x1E8, symBinAddr: 0x1000527DC, symSize: 0xAC }
  - { offset: 0xA8344, size: 0x8, addend: 0x0, symName: __RINvMNtCsaNl6UpbT7bw_4core6resultINtB3_6ResultNtNtCsgGwrKXH7Od_15find_msvc_tools10find_tools6VsVersNtNtCsiTraAjBDcu4_5alloc6string6StringE3mapNtNtCsfpvTL5dBvDY_2cc16windows_registry6VsVersNCNvB2i_15find_vs_version0EB2k_, symObjAddr: 0x294, symBinAddr: 0x100052888, symSize: 0x88 }
  - { offset: 0xA83EF, size: 0x8, addend: 0x0, symName: __RINvMNtCsaNl6UpbT7bw_4core6resultINtB3_6ResultNtNtCsiTraAjBDcu4_5alloc6string6StringNtCsfpvTL5dBvDY_2cc5ErrorE3mapINtNtBM_6borrow3CoweENcNtB1O_5Owned0EB1m_, symObjAddr: 0x31C, symBinAddr: 0x100052910, symSize: 0xB4 }
  - { offset: 0xA8482, size: 0x8, addend: 0x0, symName: __RINvMNtCsaNl6UpbT7bw_4core6resultINtB3_6ResultNtNtCsiTraAjBDcu4_5alloc6string6StringNtNtCsht3nMU9UgFu_3std3env8VarErrorE7map_errNtCsfpvTL5dBvDY_2cc5ErrorNCNvMNtNtB24_6target6parserNtB2w_21TargetInfoParserInner32from_cargo_environment_variables0EB24_, symObjAddr: 0x3D0, symBinAddr: 0x1000529C4, symSize: 0xA8 }
  - { offset: 0xA8515, size: 0x8, addend: 0x0, symName: __RINvMNtCsaNl6UpbT7bw_4core6resultINtB3_6ResultuNtNtNtCsht3nMU9UgFu_3std2io5error5ErrorE7map_errNtCsfpvTL5dBvDY_2cc5ErrorNCNvNvMNtB1x_4toolNtB21_4Tool13with_features19detect_family_inners_0EB1x_, symObjAddr: 0x478, symBinAddr: 0x100052A6C, symSize: 0x78 }
  - { offset: 0xA85B4, size: 0x8, addend: 0x0, symName: __RINvMNtCsaNl6UpbT7bw_4core6resultINtB3_6ResultuNtNtNtCsht3nMU9UgFu_3std2io5error5ErrorE7or_elseBJ_NCNvMs4_CsfpvTL5dBvDY_2ccNtB1G_5Build8assembles_0EB1G_, symObjAddr: 0x4F0, symBinAddr: 0x100052AE4, symSize: 0x68 }
  - { offset: 0xA8646, size: 0x8, addend: 0x0, symName: __RINvMNtCsaNl6UpbT7bw_4core6resultINtB3_6ResultyNtNtNtCsht3nMU9UgFu_3std2io5error5ErrorE3mapuNCNCNvMs4_CsfpvTL5dBvDY_2ccNtB1C_5Build8assembles_00EB1C_, symObjAddr: 0x558, symBinAddr: 0x100052B4C, symSize: 0x54 }
  - { offset: 0xA8713, size: 0x8, addend: 0x0, symName: __RINvMNtNtCsaNl6UpbT7bw_4core3fmt2rtNtB3_8Argument11new_displayINtNtCsfpvTL5dBvDY_2cc9utilities10JoinOsStrsINtNtCsiTraAjBDcu4_5alloc4sync3ArcNtNtNtCsht3nMU9UgFu_3std3ffi6os_str5OsStrEEEB13_, symObjAddr: 0x5AC, symBinAddr: 0x100052BA0, symSize: 0x2C }
  - { offset: 0xA8772, size: 0x8, addend: 0x0, symName: __RINvMNtNtCsaNl6UpbT7bw_4core3fmt2rtNtB3_8Argument11new_displayINtNtCsfpvTL5dBvDY_2cc9utilities18OptionOsStrDisplayRNtNtNtCsht3nMU9UgFu_3std3ffi6os_str5OsStrEEB13_, symObjAddr: 0x5D8, symBinAddr: 0x100052BCC, symSize: 0x2C }
  - { offset: 0xA87AA, size: 0x8, addend: 0x0, symName: __RINvMNtNtCsaNl6UpbT7bw_4core3fmt2rtNtB3_8Argument11new_displayINtNtCsiTraAjBDcu4_5alloc4sync3ArceEECsfpvTL5dBvDY_2cc, symObjAddr: 0x604, symBinAddr: 0x100052BF8, symSize: 0x2C }
  - { offset: 0xA87E2, size: 0x8, addend: 0x0, symName: __RINvMNtNtCsaNl6UpbT7bw_4core3fmt2rtNtB3_8Argument11new_displayINtNtCsiTraAjBDcu4_5alloc6borrow3CoweEECsfpvTL5dBvDY_2cc, symObjAddr: 0x630, symBinAddr: 0x100052C24, symSize: 0x2C }
  - { offset: 0xA881A, size: 0x8, addend: 0x0, symName: __RINvMNtNtCsaNl6UpbT7bw_4core3fmt2rtNtB3_8Argument11new_displayNtCsfpvTL5dBvDY_2cc5ErrorEB10_, symObjAddr: 0x65C, symBinAddr: 0x100052C50, symSize: 0x2C }
  - { offset: 0xA8852, size: 0x8, addend: 0x0, symName: __RINvMNtNtCsaNl6UpbT7bw_4core3fmt2rtNtB3_8Argument11new_displayNtNtCsht3nMU9UgFu_3std3env8VarErrorECsfpvTL5dBvDY_2cc, symObjAddr: 0x688, symBinAddr: 0x100052C7C, symSize: 0x2C }
  - { offset: 0xA888A, size: 0x8, addend: 0x0, symName: __RINvMNtNtCsaNl6UpbT7bw_4core3fmt2rtNtB3_8Argument11new_displayNtNtCsht3nMU9UgFu_3std4path7DisplayECsfpvTL5dBvDY_2cc, symObjAddr: 0x6B4, symBinAddr: 0x100052CA8, symSize: 0x2C }
  - { offset: 0xA88C2, size: 0x8, addend: 0x0, symName: __RINvMNtNtCsaNl6UpbT7bw_4core3fmt2rtNtB3_8Argument11new_displayNtNtCsht3nMU9UgFu_3std7process10ExitStatusECsfpvTL5dBvDY_2cc, symObjAddr: 0x6E0, symBinAddr: 0x100052CD4, symSize: 0x2C }
  - { offset: 0xA88FA, size: 0x8, addend: 0x0, symName: __RINvMNtNtCsaNl6UpbT7bw_4core3fmt2rtNtB3_8Argument11new_displayNtNtCsiTraAjBDcu4_5alloc6string6StringECsfpvTL5dBvDY_2cc, symObjAddr: 0x70C, symBinAddr: 0x100052D00, symSize: 0x2C }
  - { offset: 0xA8932, size: 0x8, addend: 0x0, symName: __RINvMNtNtCsaNl6UpbT7bw_4core3fmt2rtNtB3_8Argument11new_displayNtNtNtCsht3nMU9UgFu_3std2io5error5ErrorECsfpvTL5dBvDY_2cc, symObjAddr: 0x738, symBinAddr: 0x100052D2C, symSize: 0x2C }
  - { offset: 0xA89B2, size: 0x8, addend: 0x0, symName: __RINvMNtNtCsaNl6UpbT7bw_4core3fmt2rtNtB3_8Argument11new_displayRDNtB5_7DisplayEL_ECsfpvTL5dBvDY_2cc, symObjAddr: 0x764, symBinAddr: 0x100052D58, symSize: 0x2C }
  - { offset: 0xA89EA, size: 0x8, addend: 0x0, symName: __RINvMNtNtCsaNl6UpbT7bw_4core3fmt2rtNtB3_8Argument11new_displayRINtNtCsiTraAjBDcu4_5alloc4sync3ArceEECsfpvTL5dBvDY_2cc, symObjAddr: 0x790, symBinAddr: 0x100052D84, symSize: 0x2C }
  - { offset: 0xA8A22, size: 0x8, addend: 0x0, symName: __RINvMNtNtCsaNl6UpbT7bw_4core3fmt2rtNtB3_8Argument11new_displayRNtNtNtCsht3nMU9UgFu_3std2io5error5ErrorECsfpvTL5dBvDY_2cc, symObjAddr: 0x7BC, symBinAddr: 0x100052DB0, symSize: 0x2C }
  - { offset: 0xA8A67, size: 0x8, addend: 0x0, symName: __RINvMNtNtCsaNl6UpbT7bw_4core3fmt2rtNtB3_8Argument11new_displayRReECsfpvTL5dBvDY_2cc, symObjAddr: 0x7E8, symBinAddr: 0x100052DDC, symSize: 0x2C }
  - { offset: 0xA8A9F, size: 0x8, addend: 0x0, symName: __RINvMNtNtCsaNl6UpbT7bw_4core3fmt2rtNtB3_8Argument11new_displaycECsfpvTL5dBvDY_2cc, symObjAddr: 0x814, symBinAddr: 0x100052E08, symSize: 0x2C }
  - { offset: 0xA8AD7, size: 0x8, addend: 0x0, symName: __RINvMNtNtCsaNl6UpbT7bw_4core3fmt2rtNtB3_8Argument11new_displaylECsfpvTL5dBvDY_2cc, symObjAddr: 0x840, symBinAddr: 0x100052E34, symSize: 0x2C }
  - { offset: 0xA8B0F, size: 0x8, addend: 0x0, symName: __RINvMNtNtCsaNl6UpbT7bw_4core3fmt2rtNtB3_8Argument11new_displaymECsfpvTL5dBvDY_2cc, symObjAddr: 0x86C, symBinAddr: 0x100052E60, symSize: 0x2C }
  - { offset: 0xA8B47, size: 0x8, addend: 0x0, symName: __RINvMNtNtCsaNl6UpbT7bw_4core3fmt2rtNtB3_8Argument11new_displayyECsfpvTL5dBvDY_2cc, symObjAddr: 0x898, symBinAddr: 0x100052E8C, symSize: 0x2C }
  - { offset: 0xA8B72, size: 0x8, addend: 0x0, symName: __RINvMNtNtCsaNl6UpbT7bw_4core3fmt2rtNtB3_8Argument13new_lower_hexyECsfpvTL5dBvDY_2cc, symObjAddr: 0x8C4, symBinAddr: 0x100052EB8, symSize: 0x2C }
  - { offset: 0xA8BAA, size: 0x8, addend: 0x0, symName: __RINvMNtNtCsaNl6UpbT7bw_4core3fmt2rtNtB3_8Argument9new_debugINtNtCsiTraAjBDcu4_5alloc5boxed3BoxeEECsfpvTL5dBvDY_2cc, symObjAddr: 0x8F0, symBinAddr: 0x100052EE4, symSize: 0x2C }
  - { offset: 0xA8BE2, size: 0x8, addend: 0x0, symName: __RINvMNtNtCsaNl6UpbT7bw_4core3fmt2rtNtB3_8Argument9new_debugNtCsfpvTL5dBvDY_2cc9ErrorKindEBX_, symObjAddr: 0x91C, symBinAddr: 0x100052F10, symSize: 0x2C }
  - { offset: 0xA8C1A, size: 0x8, addend: 0x0, symName: __RINvMNtNtCsaNl6UpbT7bw_4core3fmt2rtNtB3_8Argument9new_debugNtNtCsfpvTL5dBvDY_2cc4tool10ToolFamilyEBZ_, symObjAddr: 0x948, symBinAddr: 0x100052F3C, symSize: 0x2C }
  - { offset: 0xA8D83, size: 0x8, addend: 0x0, symName: __RINvMNtNtCsaNl6UpbT7bw_4core3fmt2rtNtB3_8Argument9new_debugNtNtCsht3nMU9UgFu_3std7process7CommandECsfpvTL5dBvDY_2cc, symObjAddr: 0x974, symBinAddr: 0x100052F68, symSize: 0x2C }
  - { offset: 0xA8DBB, size: 0x8, addend: 0x0, symName: __RINvMNtNtCsaNl6UpbT7bw_4core3fmt2rtNtB3_8Argument9new_debugNtNtNtCsht3nMU9UgFu_3std3ffi6os_str8OsStringECsfpvTL5dBvDY_2cc, symObjAddr: 0x9A0, symBinAddr: 0x100052F94, symSize: 0x2C }
  - { offset: 0xA8E00, size: 0x8, addend: 0x0, symName: __RINvMNtNtCsaNl6UpbT7bw_4core3fmt2rtNtB3_8Argument9new_debugQNtNtCsht3nMU9UgFu_3std7process7CommandECsfpvTL5dBvDY_2cc, symObjAddr: 0x9CC, symBinAddr: 0x100052FC0, symSize: 0x2C }
  - { offset: 0xA8E38, size: 0x8, addend: 0x0, symName: __RINvMNtNtCsaNl6UpbT7bw_4core3fmt2rtNtB3_8Argument9new_debugRNtNtCsht3nMU9UgFu_3std7process7CommandECsfpvTL5dBvDY_2cc, symObjAddr: 0x9F8, symBinAddr: 0x100052FEC, symSize: 0x2C }
  - { offset: 0xA8E70, size: 0x8, addend: 0x0, symName: __RINvMNtNtCsaNl6UpbT7bw_4core3fmt2rtNtB3_8Argument9new_debugRNtNtNtCsht3nMU9UgFu_3std3ffi6os_str5OsStrECsfpvTL5dBvDY_2cc, symObjAddr: 0xA24, symBinAddr: 0x100053018, symSize: 0x2C }
  - { offset: 0xA8EA8, size: 0x8, addend: 0x0, symName: __RINvMNtNtCsaNl6UpbT7bw_4core3fmt2rtNtB3_8Argument9new_debugRNtNtNtCsht3nMU9UgFu_3std3ffi6os_str8OsStringECsfpvTL5dBvDY_2cc, symObjAddr: 0xA50, symBinAddr: 0x100053044, symSize: 0x2C }
  - { offset: 0xA8ED3, size: 0x8, addend: 0x0, symName: __RINvMNtNtCsaNl6UpbT7bw_4core3fmt2rtNtB3_8Argument9new_debugReECsfpvTL5dBvDY_2cc, symObjAddr: 0xA7C, symBinAddr: 0x100053070, symSize: 0x2C }
  - { offset: 0xA8F0B, size: 0x8, addend: 0x0, symName: __RNvMNtCsaNl6UpbT7bw_4core6resultINtB2_6ResultINtNtCsiTraAjBDcu4_5alloc3vec3VechENtCsfpvTL5dBvDY_2cc5ErrorE2okB1i_, symObjAddr: 0xCDC, symBinAddr: 0x1000532D0, symSize: 0x9C }
  - { offset: 0xA8F5F, size: 0x8, addend: 0x0, symName: __RNvMNtCsaNl6UpbT7bw_4core6resultINtB2_6ResultINtNtCsiTraAjBDcu4_5alloc4sync3ArcNtNtNtCsht3nMU9UgFu_3std3ffi6os_str5OsStrENtCsfpvTL5dBvDY_2cc5ErrorE2okB1X_, symObjAddr: 0xD78, symBinAddr: 0x10005336C, symSize: 0x8C }
  - { offset: 0xA8FB3, size: 0x8, addend: 0x0, symName: __RNvMNtCsaNl6UpbT7bw_4core6resultINtB2_6ResultINtNtCsiTraAjBDcu4_5alloc6borrow3CowNtNtCsht3nMU9UgFu_3std4path4PathENtCsfpvTL5dBvDY_2cc5ErrorE2okB1Q_, symObjAddr: 0xE04, symBinAddr: 0x1000533F8, symSize: 0x9C }
  - { offset: 0xA9007, size: 0x8, addend: 0x0, symName: __RNvMNtCsaNl6UpbT7bw_4core6resultINtB2_6ResultINtNtNtNtCsht3nMU9UgFu_3std4sync6poison6rwlock15RwLockReadGuardINtNtNtNtBQ_11collections4hash3map7HashMapINtNtCsiTraAjBDcu4_5alloc5boxed3BoxeEINtNtB2t_4sync3ArcNtNtNtBQ_3ffi6os_str5OsStrEEEINtBM_11PoisonErrorBH_EE6expectCsfpvTL5dBvDY_2cc, symObjAddr: 0xEA0, symBinAddr: 0x100053494, symSize: 0xB0 }
  - { offset: 0xA906A, size: 0x8, addend: 0x0, symName: __RNvMNtCsaNl6UpbT7bw_4core6resultINtB2_6ResultINtNtNtNtCsht3nMU9UgFu_3std4sync6poison6rwlock15RwLockReadGuardINtNtNtNtBQ_11collections4hash3map7HashMapINtNtCsiTraAjBDcu4_5alloc5boxed3BoxeEINtNtB2t_4sync3ArceEEEINtBM_11PoisonErrorBH_EE6expectCsfpvTL5dBvDY_2cc, symObjAddr: 0xF50, symBinAddr: 0x100053544, symSize: 0xB0 }
  - { offset: 0xA90CD, size: 0x8, addend: 0x0, symName: __RNvMNtCsaNl6UpbT7bw_4core6resultINtB2_6ResultINtNtNtNtCsht3nMU9UgFu_3std4sync6poison6rwlock16RwLockWriteGuardINtNtNtNtBQ_11collections4hash3map7HashMapINtNtCsiTraAjBDcu4_5alloc5boxed3BoxeEINtNtB2u_4sync3ArcNtNtNtBQ_3ffi6os_str5OsStrEEEINtBM_11PoisonErrorBH_EE6expectCsfpvTL5dBvDY_2cc, symObjAddr: 0x1000, symBinAddr: 0x1000535F4, symSize: 0xC0 }
  - { offset: 0xA9130, size: 0x8, addend: 0x0, symName: __RNvMNtCsaNl6UpbT7bw_4core6resultINtB2_6ResultINtNtNtNtCsht3nMU9UgFu_3std4sync6poison6rwlock16RwLockWriteGuardINtNtNtNtBQ_11collections4hash3map7HashMapINtNtCsiTraAjBDcu4_5alloc5boxed3BoxeEINtNtB2u_4sync3ArceEEEINtBM_11PoisonErrorBH_EE6expectCsfpvTL5dBvDY_2cc, symObjAddr: 0x10C0, symBinAddr: 0x1000536B4, symSize: 0xC0 }
  - { offset: 0xA91B1, size: 0x8, addend: 0x0, symName: __RNvMNtCsaNl6UpbT7bw_4core6resultINtB2_6ResultNtNtCsfpvTL5dBvDY_2cc4tool4ToolNtBL_5ErrorE2okBL_, symObjAddr: 0x1180, symBinAddr: 0x100053774, symSize: 0xA8 }
  - { offset: 0xA9205, size: 0x8, addend: 0x0, symName: __RNvMNtCsaNl6UpbT7bw_4core6resultINtB2_6ResultNtNtCsfpvTL5dBvDY_2cc6target10TargetInfoNtBL_5ErrorE2okBL_, symObjAddr: 0x1228, symBinAddr: 0x10005381C, symSize: 0x9C }
  - { offset: 0xA9259, size: 0x8, addend: 0x0, symName: __RNvMNtCsaNl6UpbT7bw_4core6resultINtB2_6ResultNtNtCsht3nMU9UgFu_3std7process10ExitStatusNtNtNtBL_2io5error5ErrorE2okCsfpvTL5dBvDY_2cc, symObjAddr: 0x12C4, symBinAddr: 0x1000538B8, symSize: 0x80 }
  - { offset: 0xA92BA, size: 0x8, addend: 0x0, symName: __RNvMNtCsaNl6UpbT7bw_4core6resultINtB2_6ResultNtNtCsht3nMU9UgFu_3std7process6OutputNtNtNtBL_2io5error5ErrorE5is_okCsfpvTL5dBvDY_2cc, symObjAddr: 0x1344, symBinAddr: 0x100053938, symSize: 0x30 }
  - { offset: 0xA92EF, size: 0x8, addend: 0x0, symName: __RNvMNtCsaNl6UpbT7bw_4core6resultINtB2_6ResultNtNtCsiTraAjBDcu4_5alloc6string6StringNtCsfpvTL5dBvDY_2cc5ErrorE2okB1l_, symObjAddr: 0x1374, symBinAddr: 0x100053968, symSize: 0x9C }
  - { offset: 0xA9343, size: 0x8, addend: 0x0, symName: __RNvMNtCsaNl6UpbT7bw_4core6resultINtB2_6ResultReNtNtNtB4_3str5error9Utf8ErrorE2okCsfpvTL5dBvDY_2cc, symObjAddr: 0x1410, symBinAddr: 0x100053A04, symSize: 0x60 }
  - { offset: 0xA9397, size: 0x8, addend: 0x0, symName: __RNvMNtCsaNl6UpbT7bw_4core6resultINtB2_6ResultbNtCsfpvTL5dBvDY_2cc5ErrorE17unwrap_or_defaultBK_, symObjAddr: 0x1470, symBinAddr: 0x100053A64, symSize: 0x90 }
  - { offset: 0xA9400, size: 0x8, addend: 0x0, symName: __RNvMNtCsaNl6UpbT7bw_4core6resultINtB2_6ResultbNtCsfpvTL5dBvDY_2cc5ErrorE9unwrap_orBK_, symObjAddr: 0x1500, symBinAddr: 0x100053AF4, symSize: 0x98 }
  - { offset: 0xA9470, size: 0x8, addend: 0x0, symName: __RNvMNtCsaNl6UpbT7bw_4core6resultINtB2_6ResultbbE5is_okCsfpvTL5dBvDY_2cc, symObjAddr: 0x1598, symBinAddr: 0x100053B8C, symSize: 0x20 }
  - { offset: 0xA94A5, size: 0x8, addend: 0x0, symName: __RNvMNtCsaNl6UpbT7bw_4core6resultINtB2_6ResulthNtNtNtB4_3num5error15TryFromIntErrorE6expectCsfpvTL5dBvDY_2cc, symObjAddr: 0x15B8, symBinAddr: 0x100053BAC, symSize: 0x84 }
  - { offset: 0xA9507, size: 0x8, addend: 0x0, symName: __RNvMNtCsaNl6UpbT7bw_4core6resultINtB2_6ResultmNtNtNtB4_3num5error13ParseIntErrorE2okCsfpvTL5dBvDY_2cc, symObjAddr: 0x163C, symBinAddr: 0x100053C30, symSize: 0x5C }
  - { offset: 0xA955A, size: 0x8, addend: 0x0, symName: __RNvMNtCsaNl6UpbT7bw_4core6resultINtB2_6ResultmNtNtNtB4_3num5error13ParseIntErrorE6expectCsfpvTL5dBvDY_2cc, symObjAddr: 0x1698, symBinAddr: 0x100053C8C, symSize: 0x90 }
  - { offset: 0xA95C9, size: 0x8, addend: 0x0, symName: __RNvMNtCsaNl6UpbT7bw_4core6resultINtB2_6ResultuNtCsfpvTL5dBvDY_2cc5ErrorE5is_okBK_, symObjAddr: 0x1728, symBinAddr: 0x100053D1C, symSize: 0x2C }
  - { offset: 0xA97A9, size: 0x8, addend: 0x0, symName: __RNvMNtCsfpvTL5dBvDY_2cc15command_helpersNtB2_11CargoOutput3new, symObjAddr: 0x3EA8, symBinAddr: 0x100056318, symSize: 0x1DC }
  - { offset: 0xA97D2, size: 0x8, addend: 0x0, symName: __RNvMNtCsfpvTL5dBvDY_2cc15command_helpersNtB2_11CargoOutput14print_metadata, symObjAddr: 0x4084, symBinAddr: 0x1000564F4, symSize: 0x94 }
  - { offset: 0xA981F, size: 0x8, addend: 0x0, symName: __RNvMNtCsfpvTL5dBvDY_2cc15command_helpersNtB2_11CargoOutput13print_warning, symObjAddr: 0x4118, symBinAddr: 0x100056588, symSize: 0x94 }
  - { offset: 0xA986C, size: 0x8, addend: 0x0, symName: __RNvMNtCsfpvTL5dBvDY_2cc15command_helpersNtB2_11CargoOutput11print_debug, symObjAddr: 0x41AC, symBinAddr: 0x10005661C, symSize: 0x148 }
  - { offset: 0xA98B9, size: 0x8, addend: 0x0, symName: __RNvMNtCsfpvTL5dBvDY_2cc15command_helpersNtB2_11CargoOutput18stdio_for_warnings, symObjAddr: 0x42F4, symBinAddr: 0x100056764, symSize: 0x78 }
  - { offset: 0xA98DB, size: 0x8, addend: 0x0, symName: __RNvMNtCsfpvTL5dBvDY_2cc15command_helpersNtB2_11CargoOutput16stdio_for_output, symObjAddr: 0x436C, symBinAddr: 0x1000567DC, symSize: 0xB4 }
  - { offset: 0xA9928, size: 0x8, addend: 0x0, symName: __RNvMs_NtCsfpvTL5dBvDY_2cc15command_helpersNtB4_15StderrForwarder3new, symObjAddr: 0x4420, symBinAddr: 0x100056890, symSize: 0x58 }
  - { offset: 0xA9957, size: 0x8, addend: 0x0, symName: __RNvMs_NtCsfpvTL5dBvDY_2cc15command_helpersNtB4_15StderrForwarder17forward_available, symObjAddr: 0x450C, symBinAddr: 0x10005697C, symSize: 0x8CC }
  - { offset: 0xA9AC7, size: 0x8, addend: 0x0, symName: __RNvMs_NtCsfpvTL5dBvDY_2cc15command_helpersNtB4_15StderrForwarder11forward_all, symObjAddr: 0x4E10, symBinAddr: 0x100057280, symSize: 0x70 }
  - { offset: 0xA9E8E, size: 0x8, addend: 0x0, symName: __RINvMNtCsaNl6UpbT7bw_4core3stre10split_oncecECsfpvTL5dBvDY_2cc, symObjAddr: 0x0, symBinAddr: 0x100059024, symSize: 0x1C4 }
  - { offset: 0xA9EF4, size: 0x8, addend: 0x0, symName: __RNvXNvNtCsht3nMU9UgFu_3std2io17default_write_fmtINtB2_7AdapterNtNtB6_2fs4FileENtNtCsaNl6UpbT7bw_4core3fmt5Write9write_strCsfpvTL5dBvDY_2cc, symObjAddr: 0x24F4, symBinAddr: 0x10005B518, symSize: 0xB4 }
  - { offset: 0xAA2BD, size: 0x8, addend: 0x0, symName: __RNvXsi_NtNtCsht3nMU9UgFu_3std2io5errorNtB5_9ErrorKindNtNtCsaNl6UpbT7bw_4core3cmp9PartialEq2eqCsfpvTL5dBvDY_2cc, symObjAddr: 0x28C4, symBinAddr: 0x10005B8E8, symSize: 0x2C }
  - { offset: 0xAA2F9, size: 0x8, addend: 0x0, symName: __RINvNtCsht3nMU9UgFu_3std2io17default_write_fmtNtNtB4_2fs4FileECsfpvTL5dBvDY_2cc, symObjAddr: 0x18D0, symBinAddr: 0x10005A8F4, symSize: 0x120 }
  - { offset: 0xAB1FE, size: 0x8, addend: 0x0, symName: __RNvNvMNtNtCsaNl6UpbT7bw_4core3ptr9alignmentNtB4_9Alignment13new_unchecked18precondition_checkCsfpvTL5dBvDY_2cc, symObjAddr: 0x2148, symBinAddr: 0x10005B16C, symSize: 0xBC }
  - { offset: 0xAB8CA, size: 0x8, addend: 0x0, symName: __RINvMNtCsaNl6UpbT7bw_4core3stre10split_oncecECsfpvTL5dBvDY_2cc, symObjAddr: 0x0, symBinAddr: 0x100059024, symSize: 0x1C4 }
  - { offset: 0xABBAA, size: 0x8, addend: 0x0, symName: __RINvMNtCsaNl6UpbT7bw_4core3stre11starts_withReECsfpvTL5dBvDY_2cc, symObjAddr: 0x1C4, symBinAddr: 0x1000591E8, symSize: 0x4C }
  - { offset: 0xABBF0, size: 0x8, addend: 0x0, symName: __RINvMNtCsaNl6UpbT7bw_4core3stre11starts_withcECsfpvTL5dBvDY_2cc, symObjAddr: 0x210, symBinAddr: 0x100059234, symSize: 0x44 }
  - { offset: 0xABC36, size: 0x8, addend: 0x0, symName: __RINvMNtCsaNl6UpbT7bw_4core3stre12strip_prefixReECsfpvTL5dBvDY_2cc, symObjAddr: 0x254, symBinAddr: 0x100059278, symSize: 0x4C }
  - { offset: 0xABC7C, size: 0x8, addend: 0x0, symName: __RINvMNtCsaNl6UpbT7bw_4core3stre12strip_suffixReECsfpvTL5dBvDY_2cc, symObjAddr: 0x2A0, symBinAddr: 0x1000592C4, symSize: 0x4C }
  - { offset: 0xABCF6, size: 0x8, addend: 0x0, symName: __RINvMNtCsaNl6UpbT7bw_4core3stre12trim_matchesNvMNtNtB5_4char7methodsc13is_whitespaceECsfpvTL5dBvDY_2cc, symObjAddr: 0x2EC, symBinAddr: 0x100059310, symSize: 0x130 }
  - { offset: 0xABEC7, size: 0x8, addend: 0x0, symName: __RINvMNtCsaNl6UpbT7bw_4core3stre16trim_end_matchescECsfpvTL5dBvDY_2cc, symObjAddr: 0x41C, symBinAddr: 0x100059440, symSize: 0xF0 }
  - { offset: 0xABFFB, size: 0x8, addend: 0x0, symName: __RINvMNtCsaNl6UpbT7bw_4core3stre5parselECsfpvTL5dBvDY_2cc, symObjAddr: 0x50C, symBinAddr: 0x100059530, symSize: 0x38 }
  - { offset: 0xAC032, size: 0x8, addend: 0x0, symName: __RINvMNtCsaNl6UpbT7bw_4core3stre5parsemECsfpvTL5dBvDY_2cc, symObjAddr: 0x544, symBinAddr: 0x100059568, symSize: 0x38 }
  - { offset: 0xAC076, size: 0x8, addend: 0x0, symName: __RINvMNtCsaNl6UpbT7bw_4core3stre5rfindcECsfpvTL5dBvDY_2cc, symObjAddr: 0x57C, symBinAddr: 0x1000595A0, symSize: 0xC8 }
  - { offset: 0xAC0FE, size: 0x8, addend: 0x0, symName: __RINvMNtCsaNl6UpbT7bw_4core3stre5splitAcj2_ECsfpvTL5dBvDY_2cc, symObjAddr: 0x644, symBinAddr: 0x100059668, symSize: 0xA8 }
  - { offset: 0xAC144, size: 0x8, addend: 0x0, symName: __RINvMNtCsaNl6UpbT7bw_4core3stre5splitReECsfpvTL5dBvDY_2cc, symObjAddr: 0x6EC, symBinAddr: 0x100059710, symSize: 0xA4 }
  - { offset: 0xAC18A, size: 0x8, addend: 0x0, symName: __RINvMNtCsaNl6UpbT7bw_4core3stre5splitcECsfpvTL5dBvDY_2cc, symObjAddr: 0x790, symBinAddr: 0x1000597B4, symSize: 0x98 }
  - { offset: 0xAC1D0, size: 0x8, addend: 0x0, symName: __RINvMNtCsaNl6UpbT7bw_4core3stre8containsRReECsfpvTL5dBvDY_2cc, symObjAddr: 0x828, symBinAddr: 0x10005984C, symSize: 0x48 }
  - { offset: 0xAC216, size: 0x8, addend: 0x0, symName: __RINvMNtCsaNl6UpbT7bw_4core3stre9ends_withReECsfpvTL5dBvDY_2cc, symObjAddr: 0x870, symBinAddr: 0x100059894, symSize: 0x4C }
  - { offset: 0xAC25C, size: 0x8, addend: 0x0, symName: __RINvMNtCsaNl6UpbT7bw_4core3stre9ends_withcECsfpvTL5dBvDY_2cc, symObjAddr: 0x8BC, symBinAddr: 0x1000598E0, symSize: 0x44 }
  - { offset: 0xAC40E, size: 0x8, addend: 0x0, symName: __RNvMNtCsaNl6UpbT7bw_4core3stre16split_at_checkedCsfpvTL5dBvDY_2cc, symObjAddr: 0x1D60, symBinAddr: 0x10005AD84, symSize: 0x100 }
  - { offset: 0xAC4BB, size: 0x8, addend: 0x0, symName: __RNvMNtCsaNl6UpbT7bw_4core3stre16split_whitespaceCsfpvTL5dBvDY_2cc, symObjAddr: 0x1E60, symBinAddr: 0x10005AE84, symSize: 0xCC }
  - { offset: 0xAC571, size: 0x8, addend: 0x0, symName: __RNvMNtCsaNl6UpbT7bw_4core3stre22split_ascii_whitespaceCsfpvTL5dBvDY_2cc, symObjAddr: 0x1F2C, symBinAddr: 0x10005AF50, symSize: 0x58 }
  - { offset: 0xAC621, size: 0x8, addend: 0x0, symName: __RNvMNtCsaNl6UpbT7bw_4core3stre3lenCsfpvTL5dBvDY_2cc, symObjAddr: 0x1F84, symBinAddr: 0x10005AFA8, symSize: 0x1C }
  - { offset: 0xAC64D, size: 0x8, addend: 0x0, symName: __RNvMNtCsaNl6UpbT7bw_4core3stre4trimCsfpvTL5dBvDY_2cc, symObjAddr: 0x1FA0, symBinAddr: 0x10005AFC4, symSize: 0x28 }
  - { offset: 0xAC67B, size: 0x8, addend: 0x0, symName: __RNvMNtCsaNl6UpbT7bw_4core3stre5charsCsfpvTL5dBvDY_2cc, symObjAddr: 0x1FC8, symBinAddr: 0x10005AFEC, symSize: 0x20 }
  - { offset: 0xAC6E9, size: 0x8, addend: 0x0, symName: __RNvMNtCsaNl6UpbT7bw_4core3stre8is_emptyCsfpvTL5dBvDY_2cc, symObjAddr: 0x1FE8, symBinAddr: 0x10005B00C, symSize: 0x1C }
  - { offset: 0xAC715, size: 0x8, addend: 0x0, symName: __RNvMNtCsaNl6UpbT7bw_4core3stre8split_atCsfpvTL5dBvDY_2cc, symObjAddr: 0x2004, symBinAddr: 0x10005B028, symSize: 0x84 }
  - { offset: 0xACD00, size: 0x8, addend: 0x0, symName: __RNvXs3_NtNtCsaNl6UpbT7bw_4core3str7patternNtB7_12IsWhitespaceNtB5_11MultiCharEq7matchesCsfpvTL5dBvDY_2cc, symObjAddr: 0x2688, symBinAddr: 0x10005B6AC, symSize: 0x28 }
  - { offset: 0xACE4A, size: 0x8, addend: 0x0, symName: __RNvXsg_NtCsaNl6UpbT7bw_4core3strNtB5_12IsWhitespaceINtNtNtB7_3ops8function5FnMutTcEE8call_mutCsfpvTL5dBvDY_2cc, symObjAddr: 0x2810, symBinAddr: 0x10005B834, symSize: 0x2C }
  - { offset: 0xACED6, size: 0x8, addend: 0x0, symName: __RNvXsi_NtCsaNl6UpbT7bw_4core3strNtB5_17IsAsciiWhitespaceINtNtNtB7_3ops8function2FnTRhEE4callCsfpvTL5dBvDY_2cc, symObjAddr: 0x283C, symBinAddr: 0x10005B860, symSize: 0x88 }
  - { offset: 0xACF4D, size: 0x8, addend: 0x0, symName: __RNvXsj_NtCsaNl6UpbT7bw_4core3strNtB5_17IsAsciiWhitespaceINtNtNtB7_3ops8function5FnMutTRhEE8call_mutCsfpvTL5dBvDY_2cc, symObjAddr: 0x28F0, symBinAddr: 0x10005B914, symSize: 0x30 }
  - { offset: 0xACFC8, size: 0x8, addend: 0x0, symName: __RNvXsm_NtCsaNl6UpbT7bw_4core3strNtB5_10IsNotEmptyINtNtNtB7_3ops8function5FnMutTRReEE8call_mutCsfpvTL5dBvDY_2cc, symObjAddr: 0x2920, symBinAddr: 0x10005B944, symSize: 0x24 }
  - { offset: 0xAD058, size: 0x8, addend: 0x0, symName: __RNvXsp_NtCsaNl6UpbT7bw_4core3strNtB5_15BytesIsNotEmptyINtNtNtB7_3ops8function5FnMutTRRShEE8call_mutCsfpvTL5dBvDY_2cc, symObjAddr: 0x2944, symBinAddr: 0x10005B968, symSize: 0x24 }
  - { offset: 0xAD0C6, size: 0x8, addend: 0x0, symName: __RNvXss_NtCsaNl6UpbT7bw_4core3strNtB5_16UnsafeBytesToStrINtNtNtB7_3ops8function5FnMutTRShEE8call_mutCsfpvTL5dBvDY_2cc, symObjAddr: 0x2968, symBinAddr: 0x10005B98C, symSize: 0x20 }
  - { offset: 0xAD283, size: 0x8, addend: 0x0, symName: __RNvXs1_NtNtNtCsaNl6UpbT7bw_4core3ops8function5implsQNtNtBb_3str10IsNotEmptyINtB7_5FnMutTRReEE8call_mutCsfpvTL5dBvDY_2cc, symObjAddr: 0x25A8, symBinAddr: 0x10005B5CC, symSize: 0x30 }
  - { offset: 0xAD2D2, size: 0x8, addend: 0x0, symName: __RNvXs1_NtNtNtCsaNl6UpbT7bw_4core3ops8function5implsQNtNtBb_3str15BytesIsNotEmptyINtB7_5FnMutTRRShEE8call_mutCsfpvTL5dBvDY_2cc, symObjAddr: 0x25D8, symBinAddr: 0x10005B5FC, symSize: 0x30 }
  - { offset: 0xADE8D, size: 0x8, addend: 0x0, symName: __RINvNtNtCsaNl6UpbT7bw_4core5slice5index5rangeINtNtNtB6_3ops5range9RangeFromjEECsfpvTL5dBvDY_2cc, symObjAddr: 0x19F0, symBinAddr: 0x10005AA14, symSize: 0x27C }
  - { offset: 0xAE0A2, size: 0x8, addend: 0x0, symName: __RNvNvXs0_NtNtCsaNl6UpbT7bw_4core5slice5indexjINtB7_10SliceIndexSpE13get_unchecked18precondition_checkCsfpvTL5dBvDY_2cc, symObjAddr: 0x2204, symBinAddr: 0x10005B228, symSize: 0xAC }
  - { offset: 0xAE116, size: 0x8, addend: 0x0, symName: __RNvNvXs1_NtNtCsaNl6UpbT7bw_4core5slice5indexNtNtNtBb_3ops11index_range10IndexRangeINtB7_10SliceIndexSpE17get_unchecked_mut18precondition_checkCsfpvTL5dBvDY_2cc, symObjAddr: 0x22B0, symBinAddr: 0x10005B2D4, symSize: 0xAC }
  - { offset: 0xAE18A, size: 0x8, addend: 0x0, symName: __RNvNvXs2_NtNtCsaNl6UpbT7bw_4core5slice5indexINtNtNtBb_3ops5range5RangejEINtB7_10SliceIndexSpE13get_unchecked18precondition_checkCsfpvTL5dBvDY_2cc, symObjAddr: 0x235C, symBinAddr: 0x10005B380, symSize: 0xCC }
  - { offset: 0xAE206, size: 0x8, addend: 0x0, symName: __RNvNvXs2_NtNtCsaNl6UpbT7bw_4core5slice5indexINtNtNtBb_3ops5range5RangejEINtB7_10SliceIndexSpE17get_unchecked_mut18precondition_checkCsfpvTL5dBvDY_2cc, symObjAddr: 0x2428, symBinAddr: 0x10005B44C, symSize: 0xCC }
  - { offset: 0xAE5D6, size: 0x8, addend: 0x0, symName: __RNCINvXsK_NtNtNtCsaNl6UpbT7bw_4core4iter6traits5accumjNtB8_3Sum3sumINtNtNtBc_8adapters3map3MapINtNtNtBe_5slice4iter4IterINtNtCsiTraAjBDcu4_5alloc4sync3ArcNtNtCsht3nMU9UgFu_3std4path4PathEENCINvNvXs1_NtB18_6filterINtB3b_6FilterppENtNtBa_8iterator8Iterator5count8to_usizeRB1U_NCNvMs4_CsfpvTL5dBvDY_2ccNtB4w_5Build15cuda_file_count0E0EE0B4w_, symObjAddr: 0x1C6C, symBinAddr: 0x10005AC90, symSize: 0x48 }
  - { offset: 0xAE636, size: 0x8, addend: 0x0, symName: __RNCINvXsq_NtNtNtCsaNl6UpbT7bw_4core4iter6traits5accumhNtB8_3Sum3sumINtNtNtBc_8adapters3map3MapINtNtNtBe_5array4iter8IntoIterbKj20_ENCNvXNtNtBe_3str4iterNtB2a_5CharsNtNtBa_8iterator8Iterator10advance_by0EE0CsfpvTL5dBvDY_2cc, symObjAddr: 0x1CB4, symBinAddr: 0x10005ACD8, symSize: 0x4C }
  - { offset: 0xAE8CF, size: 0x8, addend: 0x0, symName: __RNvXs1b_NtCsaNl6UpbT7bw_4core3fmtRNtNtNtCsht3nMU9UgFu_3std2io5error5ErrorNtB6_7Display3fmtCsfpvTL5dBvDY_2cc, symObjAddr: 0x2608, symBinAddr: 0x10005B62C, symSize: 0x30 }
  - { offset: 0xAE925, size: 0x8, addend: 0x0, symName: __RNvXs_NvNtNtCsaNl6UpbT7bw_4core3fmt5Write9write_fmtQINtNvNtCsht3nMU9UgFu_3std2io17default_write_fmt7AdapterNtNtBV_2fs4FileENtB4_12SpecWriteFmt14spec_write_fmtCsfpvTL5dBvDY_2cc, symObjAddr: 0x26B0, symBinAddr: 0x10005B6D4, symSize: 0x160 }
  - { offset: 0xAE9D4, size: 0x8, addend: 0x0, symName: __RNvYINtNvNtCsht3nMU9UgFu_3std2io17default_write_fmt7AdapterNtNtB9_2fs4FileENtNtCsaNl6UpbT7bw_4core3fmt5Write10write_charCsfpvTL5dBvDY_2cc, symObjAddr: 0x2988, symBinAddr: 0x10005B9AC, symSize: 0x70 }
  - { offset: 0xAEA3C, size: 0x8, addend: 0x0, symName: __RNvYINtNvNtCsht3nMU9UgFu_3std2io17default_write_fmt7AdapterNtNtB9_2fs4FileENtNtCsaNl6UpbT7bw_4core3fmt5Write9write_fmtCsfpvTL5dBvDY_2cc, symObjAddr: 0x29F8, symBinAddr: 0x10005BA1C, symSize: 0x24 }
  - { offset: 0xAED7C, size: 0x8, addend: 0x0, symName: __RNCNvMNtNtCsfpvTL5dBvDY_2cc6target6parserNtB4_21TargetInfoParserInner32from_cargo_environment_variables0B8_, symObjAddr: 0x34F4, symBinAddr: 0x10005C518, symSize: 0xDC }
  - { offset: 0xAEDED, size: 0x8, addend: 0x0, symName: __RNCNvMNtNtCsfpvTL5dBvDY_2cc6target6parserNtB4_21TargetInfoParserInner32from_cargo_environment_variabless_0B8_, symObjAddr: 0x35D0, symBinAddr: 0x10005C5F4, symSize: 0x254 }
  - { offset: 0xAEED4, size: 0x8, addend: 0x0, symName: __RNCNvMNtNtCsfpvTL5dBvDY_2cc6target6parserNtB4_21TargetInfoParserInner32from_cargo_environment_variabless0_0B8_, symObjAddr: 0x3824, symBinAddr: 0x10005C848, symSize: 0x30 }
  - { offset: 0xAEF0A, size: 0x8, addend: 0x0, symName: __RNCNvMNtNtCsfpvTL5dBvDY_2cc6target6parserNtB4_21TargetInfoParserInner32from_cargo_environment_variabless1_0B8_, symObjAddr: 0x3854, symBinAddr: 0x10005C878, symSize: 0x30 }
  - { offset: 0xAEF40, size: 0x8, addend: 0x0, symName: __RNCNvMNtNtCsfpvTL5dBvDY_2cc6target6parserNtB4_21TargetInfoParserInner32from_cargo_environment_variabless2_0B8_, symObjAddr: 0x3884, symBinAddr: 0x10005C8A8, symSize: 0x30 }
  - { offset: 0xAEF76, size: 0x8, addend: 0x0, symName: __RNCNvMNtNtCsfpvTL5dBvDY_2cc6target6parserNtB4_21TargetInfoParserInner32from_cargo_environment_variabless3_0B8_, symObjAddr: 0x38B4, symBinAddr: 0x10005C8D8, symSize: 0x30 }
  - { offset: 0xAEFAC, size: 0x8, addend: 0x0, symName: __RNCNvMNtNtCsfpvTL5dBvDY_2cc6target6parserNtB4_21TargetInfoParserInner32from_cargo_environment_variabless4_0B8_, symObjAddr: 0x38E4, symBinAddr: 0x10005C908, symSize: 0x30 }
  - { offset: 0xAEFE2, size: 0x8, addend: 0x0, symName: __RNCNvMNtNtCsfpvTL5dBvDY_2cc6target6parserNtB4_21TargetInfoParserInner32from_cargo_environment_variabless5_0B8_, symObjAddr: 0x3914, symBinAddr: 0x10005C938, symSize: 0x8C }
  - { offset: 0xAF085, size: 0x8, addend: 0x0, symName: __RNvNtNtCsfpvTL5dBvDY_2cc6target6parser10parse_arch, symObjAddr: 0x3AE8, symBinAddr: 0x10005CB0C, symSize: 0x1104 }
  - { offset: 0xAF5B4, size: 0x8, addend: 0x0, symName: __RNvNtNtCsfpvTL5dBvDY_2cc6target6parser12parse_envabi, symObjAddr: 0x4BEC, symBinAddr: 0x10005DC10, symSize: 0xA90 }
  - { offset: 0xAF763, size: 0x8, addend: 0x0, symName: __RNCNvMs0_NtNtCsfpvTL5dBvDY_2cc6target6parserNtB9_10TargetInfo17from_rustc_target0Bb_, symObjAddr: 0x567C, symBinAddr: 0x10005E6A0, symSize: 0x90 }
  - { offset: 0xAF7CF, size: 0x8, addend: 0x0, symName: __RNCNvMs0_NtNtCsfpvTL5dBvDY_2cc6target6parserNtB9_10TargetInfo17from_rustc_targets_0Bb_, symObjAddr: 0x570C, symBinAddr: 0x10005E730, symSize: 0xC4 }
  - { offset: 0xAF86D, size: 0x8, addend: 0x0, symName: __RNvXs2_NtNtCsfpvTL5dBvDY_2cc6target6parserNtB5_16TargetInfoParserNtNtCsaNl6UpbT7bw_4core7default7Default7defaultB9_, symObjAddr: 0x57D0, symBinAddr: 0x10005E7F4, symSize: 0x3C }
  - { offset: 0xAFA7B, size: 0x8, addend: 0x0, symName: __RINvMs2_NtNtCsht3nMU9UgFu_3std6thread5localINtB6_8LocalKeyINtNtCsaNl6UpbT7bw_4core4cell4CellTyyEEE4withNCNvMNtNtBa_4hash6randomNtB1I_11RandomState3new0B21_ECsfpvTL5dBvDY_2cc, symObjAddr: 0x900, symBinAddr: 0x100059924, symSize: 0x50 }
  - { offset: 0xAFB34, size: 0x8, addend: 0x0, symName: __RINvMs2_NtNtCsht3nMU9UgFu_3std6thread5localINtB6_8LocalKeyINtNtCsaNl6UpbT7bw_4core4cell4CellTyyEEE8try_withNCNvMNtNtBa_4hash6randomNtB1M_11RandomState3new0B25_ECsfpvTL5dBvDY_2cc, symObjAddr: 0x950, symBinAddr: 0x100059974, symSize: 0xE8 }
  - { offset: 0xAFCA7, size: 0x8, addend: 0x0, symName: __RINvMs3_NtCsiTraAjBDcu4_5alloc3stre7replaceAcj2_ECsfpvTL5dBvDY_2cc, symObjAddr: 0xA38, symBinAddr: 0x100059A5C, symSize: 0x724 }
  - { offset: 0xB07AA, size: 0x8, addend: 0x0, symName: __RINvMs3_NtCsiTraAjBDcu4_5alloc3stre7replaceReECsfpvTL5dBvDY_2cc, symObjAddr: 0x115C, symBinAddr: 0x10005A180, symSize: 0x728 }
  - { offset: 0xB1316, size: 0x8, addend: 0x0, symName: __RNCNvNtCsiTraAjBDcu4_5alloc3str13replace_ascii0CsfpvTL5dBvDY_2cc, symObjAddr: 0x1D00, symBinAddr: 0x10005AD24, symSize: 0x60 }
  - { offset: 0xB13B5, size: 0x8, addend: 0x0, symName: __RNvXs2_NtCsiTraAjBDcu4_5alloc3streNtNtB7_6borrow7ToOwned8to_ownedCsfpvTL5dBvDY_2cc, symObjAddr: 0x2638, symBinAddr: 0x10005B65C, symSize: 0x50 }
  - { offset: 0xB1E76, size: 0x8, addend: 0x0, symName: __RINvMs5_NtNtCsht3nMU9UgFu_3std2io5errorNtB6_5Error3newNtNtCsiTraAjBDcu4_5alloc6string6StringECsfpvTL5dBvDY_2cc, symObjAddr: 0x1884, symBinAddr: 0x10005A8A8, symSize: 0x4C }
  - { offset: 0xB2160, size: 0x8, addend: 0x0, symName: __RNvMs5_NtNtCsht3nMU9UgFu_3std2io5errorNtB5_5Error4kindCsfpvTL5dBvDY_2cc, symObjAddr: 0x2088, symBinAddr: 0x10005B0AC, symSize: 0xC0 }
  - { offset: 0xB2365, size: 0x8, addend: 0x0, symName: __RNvMNtNtCsfpvTL5dBvDY_2cc6target6parserNtB2_21TargetInfoParserInner32from_cargo_environment_variables, symObjAddr: 0x2A1C, symBinAddr: 0x10005BA40, symSize: 0xAD8 }
  - { offset: 0xB2616, size: 0x8, addend: 0x0, symName: __RNvMs_NtNtCsfpvTL5dBvDY_2cc6target6parserNtB4_16TargetInfoParser38parse_from_cargo_environment_variables, symObjAddr: 0x39A0, symBinAddr: 0x10005C9C4, symSize: 0x148 }
  - { offset: 0xB2946, size: 0x8, addend: 0x0, symName: __RINvMs2_NtCsht3nMU9UgFu_3std2fsNtB6_4File6createRNtNtB8_4path7PathBufECsfpvTL5dBvDY_2cc, symObjAddr: 0x0, symBinAddr: 0x10005E830, symSize: 0xC0 }
  - { offset: 0xB2EE7, size: 0x8, addend: 0x0, symName: __RNvNvNtNtNtNtCsht3nMU9UgFu_3std3sys3pal4unix2os11split_paths12is_separatorCsfpvTL5dBvDY_2cc, symObjAddr: 0xFA0, symBinAddr: 0x10005F340, symSize: 0x20 }
  - { offset: 0xB32F7, size: 0x8, addend: 0x0, symName: __RNvYNtNtCsht3nMU9UgFu_3std2fs4FileNtNtB6_2io5Write9write_allCsfpvTL5dBvDY_2cc, symObjAddr: 0x1DBC, symBinAddr: 0x10005FDC8, symSize: 0x270 }
  - { offset: 0xB348F, size: 0x8, addend: 0x0, symName: __RNvYNtNtCsht3nMU9UgFu_3std2fs4FileNtNtB6_2io5Write9write_fmtCsfpvTL5dBvDY_2cc, symObjAddr: 0x202C, symBinAddr: 0x100060038, symSize: 0x154 }
  - { offset: 0xB36BC, size: 0x8, addend: 0x0, symName: __RINvNtCsht3nMU9UgFu_3std2fs11remove_fileRNtNtB4_4path4PathECsfpvTL5dBvDY_2cc, symObjAddr: 0x1A8, symBinAddr: 0x10005E9D8, symSize: 0x68 }
  - { offset: 0xB36F3, size: 0x8, addend: 0x0, symName: __RINvNtCsht3nMU9UgFu_3std2fs11remove_fileRNtNtB4_4path7PathBufECsfpvTL5dBvDY_2cc, symObjAddr: 0x210, symBinAddr: 0x10005EA40, symSize: 0x64 }
  - { offset: 0xB372A, size: 0x8, addend: 0x0, symName: __RINvNtCsht3nMU9UgFu_3std2fs14create_dir_allRINtNtCsiTraAjBDcu4_5alloc6borrow3CowNtNtB4_4path4PathEECsfpvTL5dBvDY_2cc, symObjAddr: 0x274, symBinAddr: 0x10005EAA4, symSize: 0x88 }
  - { offset: 0xB3794, size: 0x8, addend: 0x0, symName: __RINvNtCsht3nMU9UgFu_3std2fs14create_dir_allRNtNtB4_4path4PathECsfpvTL5dBvDY_2cc, symObjAddr: 0x2FC, symBinAddr: 0x10005EB2C, symSize: 0x8C }
  - { offset: 0xB37FE, size: 0x8, addend: 0x0, symName: __RINvNtCsht3nMU9UgFu_3std2fs4copyRNtNtB4_4path4PathRNtBx_7PathBufECsfpvTL5dBvDY_2cc, symObjAddr: 0x388, symBinAddr: 0x10005EBB8, symSize: 0x98 }
  - { offset: 0xB384D, size: 0x8, addend: 0x0, symName: __RINvNtCsht3nMU9UgFu_3std2fs9hard_linkRNtNtB4_4path4PathRNtBC_7PathBufECsfpvTL5dBvDY_2cc, symObjAddr: 0x420, symBinAddr: 0x10005EC50, symSize: 0x90 }
  - { offset: 0xB38A1, size: 0x8, addend: 0x0, symName: __RNvXsb_NtCsht3nMU9UgFu_3std2fsNtB5_4FileNtNtB7_2io5Write5flushCsfpvTL5dBvDY_2cc, symObjAddr: 0x1AC8, symBinAddr: 0x10005FC58, symSize: 0x14 }
  - { offset: 0xB3927, size: 0x8, addend: 0x0, symName: __RNvXs0_NtNtNtCsht3nMU9UgFu_3std2os4unix2fsNtNtBb_2fs11OpenOptionsNtB5_14OpenOptionsExt4modeCsfpvTL5dBvDY_2cc, symObjAddr: 0x1344, symBinAddr: 0x10005F5B0, symSize: 0x1C }
  - { offset: 0xB3E58, size: 0x8, addend: 0x0, symName: __RNCNvMNtCsfpvTL5dBvDY_2cc4toolNtB4_4Tool20from_find_msvc_tools0B6_, symObjAddr: 0x2360, symBinAddr: 0x10006036C, symSize: 0xB4 }
  - { offset: 0xB3EBB, size: 0x8, addend: 0x0, symName: __RNvNvMNtCsfpvTL5dBvDY_2cc4toolNtB4_4Tool13with_features9is_zig_cc, symObjAddr: 0x29C4, symBinAddr: 0x1000609D0, symSize: 0x240 }
  - { offset: 0xB3F10, size: 0x8, addend: 0x0, symName: __RNCNvNvMNtCsfpvTL5dBvDY_2cc4toolNtB6_4Tool13with_features9is_zig_cc0B8_, symObjAddr: 0x2C04, symBinAddr: 0x100060C10, symSize: 0xE4 }
  - { offset: 0xB3F4F, size: 0x8, addend: 0x0, symName: __RNvNvMNtCsfpvTL5dBvDY_2cc4toolNtB4_4Tool13with_features24guess_family_from_stdout, symObjAddr: 0x2CE8, symBinAddr: 0x100060CF4, symSize: 0x47C }
  - { offset: 0xB404B, size: 0x8, addend: 0x0, symName: __RNvNvMNtCsfpvTL5dBvDY_2cc4toolNtB4_4Tool13with_features19detect_family_inner, symObjAddr: 0x3164, symBinAddr: 0x100061170, symSize: 0xD6C }
  - { offset: 0xB43C5, size: 0x8, addend: 0x0, symName: __RNCNvNvMNtCsfpvTL5dBvDY_2cc4toolNtB6_4Tool13with_features19detect_family_inner0B8_, symObjAddr: 0x3ED0, symBinAddr: 0x100061EDC, symSize: 0x48 }
  - { offset: 0xB43ED, size: 0x8, addend: 0x0, symName: __RNCNvNvMNtCsfpvTL5dBvDY_2cc4toolNtB6_4Tool13with_features19detect_family_inners_0B8_, symObjAddr: 0x3F18, symBinAddr: 0x100061F24, symSize: 0x15C }
  - { offset: 0xB4483, size: 0x8, addend: 0x0, symName: __RNCNvNvMNtCsfpvTL5dBvDY_2cc4toolNtB6_4Tool13with_features19detect_family_inners0_0B8_, symObjAddr: 0x4074, symBinAddr: 0x100062080, symSize: 0x15C }
  - { offset: 0xB4519, size: 0x8, addend: 0x0, symName: __RNCNvNvMNtCsfpvTL5dBvDY_2cc4toolNtB6_4Tool13with_features19detect_family_inners1_0B8_, symObjAddr: 0x41D0, symBinAddr: 0x1000621DC, symSize: 0xB4 }
  - { offset: 0xB455E, size: 0x8, addend: 0x0, symName: __RNCNvMNtCsfpvTL5dBvDY_2cc4toolNtB4_4Tool13with_features0B6_, symObjAddr: 0x4284, symBinAddr: 0x100062290, symSize: 0x4D8 }
  - { offset: 0xB46A6, size: 0x8, addend: 0x0, symName: __RNCNvMNtCsfpvTL5dBvDY_2cc4toolNtB4_4Tool13with_featuress_0B6_, symObjAddr: 0x475C, symBinAddr: 0x100062768, symSize: 0x560 }
  - { offset: 0xB47FB, size: 0x8, addend: 0x0, symName: __RNCNCNvMNtCsfpvTL5dBvDY_2cc4toolNtB6_4Tool13with_featuress_00B8_, symObjAddr: 0x4CBC, symBinAddr: 0x100062CC8, symSize: 0x70 }
  - { offset: 0xB486B, size: 0x8, addend: 0x0, symName: __RNCNvMNtCsfpvTL5dBvDY_2cc4toolNtB4_4Tool20is_duplicate_opt_arg0B6_, symObjAddr: 0x50A4, symBinAddr: 0x1000630B0, symSize: 0x8C }
  - { offset: 0xB48B1, size: 0x8, addend: 0x0, symName: __RNCNvMNtCsfpvTL5dBvDY_2cc4toolNtB4_4Tool10to_command0B6_, symObjAddr: 0x54C8, symBinAddr: 0x1000634D4, symSize: 0x58 }
  - { offset: 0xB4910, size: 0x8, addend: 0x0, symName: __RNCNvMs_NtCsfpvTL5dBvDY_2cc4toolNtB6_10ToolFamily15add_debug_flags0B8_, symObjAddr: 0x5D8C, symBinAddr: 0x100063918, symSize: 0x44 }
  - { offset: 0xB493A, size: 0x8, addend: 0x0, symName: __RNCNvMs_NtCsfpvTL5dBvDY_2cc4toolNtB6_10ToolFamily15add_debug_flagss_0B8_, symObjAddr: 0x5DD0, symBinAddr: 0x10006395C, symSize: 0x80 }
  - { offset: 0xB49C4, size: 0x8, addend: 0x0, symName: __RNvXs0_NtCsfpvTL5dBvDY_2cc4toolNtB5_4ToolNtNtCsaNl6UpbT7bw_4core5clone5Clone5cloneB7_, symObjAddr: 0x60D8, symBinAddr: 0x100063C64, symSize: 0x200 }
  - { offset: 0xB49F6, size: 0x8, addend: 0x0, symName: __RNvXs3_NtCsfpvTL5dBvDY_2cc4toolNtB5_10ToolFamilyNtNtCsaNl6UpbT7bw_4core5clone5Clone5cloneB7_, symObjAddr: 0x62D8, symBinAddr: 0x100063E64, symSize: 0x20 }
  - { offset: 0xB4A2A, size: 0x8, addend: 0x0, symName: __RNvXs4_NtCsfpvTL5dBvDY_2cc4toolNtB5_10ToolFamilyNtNtCsaNl6UpbT7bw_4core3fmt5Debug3fmtB7_, symObjAddr: 0x62F8, symBinAddr: 0x100063E84, symSize: 0x108 }
  - { offset: 0xB4AA9, size: 0x8, addend: 0x0, symName: __RNvXs6_NtCsfpvTL5dBvDY_2cc4toolNtB5_10ToolFamilyNtNtCsaNl6UpbT7bw_4core3cmp9PartialEq2eqB7_, symObjAddr: 0x6400, symBinAddr: 0x100063F8C, symSize: 0x120 }
  - { offset: 0xB4DD0, size: 0x8, addend: 0x0, symName: __RNvXs3_NtNtCsiTraAjBDcu4_5alloc3vec9into_iterINtB5_8IntoIterNtNtB9_6string6StringENtNtNtNtCsaNl6UpbT7bw_4core4iter6traits8iterator8Iterator4nextCsfpvTL5dBvDY_2cc, symObjAddr: 0x1488, symBinAddr: 0x10005F688, symSize: 0xD0 }
  - { offset: 0xB4F4B, size: 0x8, addend: 0x0, symName: __RNvXs3_NtNtCsiTraAjBDcu4_5alloc3vec9into_iterINtB5_8IntoIterNtNtB9_6string6StringENtNtNtNtCsaNl6UpbT7bw_4core4iter6traits8iterator8Iterator9size_hintCsfpvTL5dBvDY_2cc, symObjAddr: 0x1558, symBinAddr: 0x10005F758, symSize: 0x6C }
  - { offset: 0xB5040, size: 0x8, addend: 0x0, symName: __RNvXNvXsd_NtNtCsiTraAjBDcu4_5alloc3vec9into_iterINtB8_8IntoIterppENtNtNtCsaNl6UpbT7bw_4core3ops4drop4Drop4dropINtB2_9DropGuardNtNtBc_6string6StringNtNtBc_5alloc6GlobalEB12_4dropCsfpvTL5dBvDY_2cc, symObjAddr: 0x1210, symBinAddr: 0x10005F534, symSize: 0x7C }
  - { offset: 0xB5176, size: 0x8, addend: 0x0, symName: __RNvXsd_NtNtCsiTraAjBDcu4_5alloc3vec9into_iterINtB5_8IntoIterNtNtB9_6string6StringENtNtNtCsaNl6UpbT7bw_4core3ops4drop4Drop4dropCsfpvTL5dBvDY_2cc, symObjAddr: 0x1B74, symBinAddr: 0x10005FC6C, symSize: 0x98 }
  - { offset: 0xB55F4, size: 0x8, addend: 0x0, symName: __RNvNtCsiTraAjBDcu4_5alloc3fmt6formatCsfpvTL5dBvDY_2cc, symObjAddr: 0xE20, symBinAddr: 0x10005F1C0, symSize: 0xD4 }
  - { offset: 0xB5CD9, size: 0x8, addend: 0x0, symName: __RNvNvMNtNtCsaNl6UpbT7bw_4core3ptr9const_ptrPp20offset_from_unsigned18precondition_checkCsfpvTL5dBvDY_2cc, symObjAddr: 0xEF4, symBinAddr: 0x10005F294, symSize: 0xAC }
  - { offset: 0xB7320, size: 0x8, addend: 0x0, symName: __RINvXs_NtNtNtCsaNl6UpbT7bw_4core4iter8adapters5chainINtB5_5ChainINtNtB7_3map3MapINtNtNtBb_5slice4iter4IterNtCsfpvTL5dBvDY_2cc6ObjectENCNvMs4_B1I_NtB1I_5Build8assemble0EIB11_IB1h_INtNtCsiTraAjBDcu4_5alloc4sync3ArcNtNtCsht3nMU9UgFu_3std4path4PathEENvYB2Q_NtNtNtBb_3ops5deref5Deref5derefEENtNtNtB9_6traits8iterator8Iterator4folduNCINvNvB4A_8for_each4callRB3o_NCINvMsi_NtB2V_3vecINtB5R_3VecB5D_E14extend_trustedBO_E0E0EB1I_, symObjAddr: 0x7D8, symBinAddr: 0x10005ECE0, symSize: 0x1C8 }
  - { offset: 0xB73BC, size: 0x8, addend: 0x0, symName: __RINvXs_NtNtNtCsaNl6UpbT7bw_4core4iter8adapters5chainINtB5_5ChainINtNtB7_6cloned6ClonedINtNtNtBb_5slice4iter4IterRNtNtNtCsht3nMU9UgFu_3std3ffi6os_str5OsStrEEINtNtB7_3map3MapIB1n_NtNtCsiTraAjBDcu4_5alloc6string6StringEINvMsl_B1P_B1N_3newB2P_EEENtNtNtB9_6traits8iterator8Iterator4folduNCINvB2x_8map_foldB1M_INtNtB2T_5boxed3BoxB1N_EuNvYB1M_INtNtBb_7convert4IntoB4S_E4intoNCINvNvB3S_8for_each4callB4S_NCINvMsi_NtB2T_3vecINtB6v_3VecB4S_E14extend_trustedIB2v_BO_B5h_EE0E0E0ECsfpvTL5dBvDY_2cc, symObjAddr: 0x9A0, symBinAddr: 0x10005EEA8, symSize: 0x1C8 }
  - { offset: 0xB7458, size: 0x8, addend: 0x0, symName: __RNvXs_NtNtNtCsaNl6UpbT7bw_4core4iter8adapters5chainINtB4_5ChainINtNtB6_3map3MapINtNtNtBa_5slice4iter4IterNtCsfpvTL5dBvDY_2cc6ObjectENCNvMs4_B1H_NtB1H_5Build8assemble0EIB10_IB1g_INtNtCsiTraAjBDcu4_5alloc4sync3ArcNtNtCsht3nMU9UgFu_3std4path4PathEENvYB2P_NtNtNtBa_3ops5deref5Deref5derefEENtNtNtB8_6traits8iterator8Iterator9size_hintB1H_, symObjAddr: 0x1698, symBinAddr: 0x10005F828, symSize: 0x218 }
  - { offset: 0xB760C, size: 0x8, addend: 0x0, symName: __RNvXs_NtNtNtCsaNl6UpbT7bw_4core4iter8adapters5chainINtB4_5ChainINtNtB6_6cloned6ClonedINtNtNtBa_5slice4iter4IterRNtNtNtCsht3nMU9UgFu_3std3ffi6os_str5OsStrEEINtNtB6_3map3MapIB1m_NtNtCsiTraAjBDcu4_5alloc6string6StringEINvMsl_B1O_B1M_3newB2O_EEENtNtNtB8_6traits8iterator8Iterator9size_hintCsfpvTL5dBvDY_2cc, symObjAddr: 0x18B0, symBinAddr: 0x10005FA40, symSize: 0x218 }
  - { offset: 0xB797E, size: 0x8, addend: 0x0, symName: __RINvYINtNtNtNtCsaNl6UpbT7bw_4core4iter8adapters5chain5ChainINtNtB8_3map3MapINtNtNtBc_5slice4iter4IterNtCsfpvTL5dBvDY_2cc6ObjectENCNvMs4_B1D_NtB1D_5Build8assemble0EIBW_IB1c_INtNtCsiTraAjBDcu4_5alloc4sync3ArcNtNtCsht3nMU9UgFu_3std4path4PathEENvYB2K_NtNtNtBc_3ops5deref5Deref5derefEENtNtNtBa_6traits8iterator8Iterator7collectINtNtB2P_3vec3VecRB3i_EEB1D_, symObjAddr: 0xBA0, symBinAddr: 0x10005F070, symSize: 0x68 }
  - { offset: 0xB7A76, size: 0x8, addend: 0x0, symName: __RINvYINtNtNtNtCsaNl6UpbT7bw_4core4iter8adapters5chain5ChainINtNtB8_3map3MapINtNtNtBc_5slice4iter4IterNtCsfpvTL5dBvDY_2cc6ObjectENCNvMs4_B1D_NtB1D_5Build8assemble0EIBW_IB1c_INtNtCsiTraAjBDcu4_5alloc4sync3ArcNtNtCsht3nMU9UgFu_3std4path4PathEENvYB2K_NtNtNtBc_3ops5deref5Deref5derefEENtNtNtBa_6traits8iterator8Iterator8for_eachNCINvMsi_NtB2P_3vecINtB5k_3VecRB3i_E14extend_trustedB3_E0EB1D_, symObjAddr: 0xC08, symBinAddr: 0x10005F0D8, symSize: 0x34 }
  - { offset: 0xB7AE2, size: 0x8, addend: 0x0, symName: __RINvYINtNtNtNtCsaNl6UpbT7bw_4core4iter8adapters5chain5ChainINtNtB8_6cloned6ClonedINtNtNtBc_5slice4iter4IterRNtNtNtCsht3nMU9UgFu_3std3ffi6os_str5OsStrEEINtNtB8_3map3MapIB1i_NtNtCsiTraAjBDcu4_5alloc6string6StringEINvMsl_B1K_B1I_3newB2K_EEENtNtNtBa_6traits8iterator8Iterator3mapINtNtB2O_5boxed3BoxB1I_ENvYB1H_INtNtBc_7convert4IntoB4p_E4intoECsfpvTL5dBvDY_2cc, symObjAddr: 0xC3C, symBinAddr: 0x10005F10C, symSize: 0x1C }
  - { offset: 0xB7B86, size: 0x8, addend: 0x0, symName: __RNvYINtNtNtCsiTraAjBDcu4_5alloc3vec9into_iter8IntoIterNtNtB9_6string6StringENtNtNtNtCsaNl6UpbT7bw_4core4iter6traits10exact_size17ExactSizeIterator3lenCsfpvTL5dBvDY_2cc, symObjAddr: 0x1CF8, symBinAddr: 0x10005FD04, symSize: 0xC4 }
  - { offset: 0xB7C8D, size: 0x8, addend: 0x0, symName: __RNvXNtNtNtCsaNl6UpbT7bw_4core4iter6traits7collectINtNtNtB6_8adapters5chain5ChainINtNtBQ_3map3MapINtNtNtB8_5slice4iter4IterNtCsfpvTL5dBvDY_2cc6ObjectENCNvMs4_B1Y_NtB1Y_5Build8assemble0EIB1h_IB1x_INtNtCsiTraAjBDcu4_5alloc4sync3ArcNtNtCsht3nMU9UgFu_3std4path4PathEENvYB36_NtNtNtB8_3ops5deref5Deref5derefEENtB2_12IntoIterator9into_iterB1Y_, symObjAddr: 0x1180, symBinAddr: 0x10005F520, symSize: 0x14 }
  - { offset: 0xB80E1, size: 0x8, addend: 0x0, symName: __RNvNvXs5_NtNtCsaNl6UpbT7bw_4core3str6traitsINtNtNtBb_3ops5range5RangejEINtNtNtBb_5slice5index10SliceIndexeE13get_unchecked18precondition_checkCsfpvTL5dBvDY_2cc, symObjAddr: 0xFC0, symBinAddr: 0x10005F360, symSize: 0xCC }
  - { offset: 0xB815E, size: 0x8, addend: 0x0, symName: __RNvXNtNtCsaNl6UpbT7bw_4core3str6traitseNtNtB6_3cmp3Ord3cmpCsfpvTL5dBvDY_2cc, symObjAddr: 0x108C, symBinAddr: 0x10005F42C, symSize: 0xF4 }
  - { offset: 0xB82BA, size: 0x8, addend: 0x0, symName: __RNvXs2_NtNtCsaNl6UpbT7bw_4core3str6traitseINtNtNtB9_3ops5index5IndexINtNtBJ_5range5RangejEE5indexCsfpvTL5dBvDY_2cc, symObjAddr: 0x1390, symBinAddr: 0x10005F5FC, symSize: 0x48 }
  - { offset: 0xB82FD, size: 0x8, addend: 0x0, symName: __RNvXs2_NtNtCsaNl6UpbT7bw_4core3str6traitseINtNtNtB9_3ops5index5IndexINtNtBJ_5range9RangeFromjEE5indexCsfpvTL5dBvDY_2cc, symObjAddr: 0x13D8, symBinAddr: 0x10005F644, symSize: 0x44 }
  - { offset: 0xB8346, size: 0x8, addend: 0x0, symName: __RNvXs_NtNtCsaNl6UpbT7bw_4core3str6traitseNtNtB8_3cmp9PartialEq2eqCsfpvTL5dBvDY_2cc, symObjAddr: 0x15C4, symBinAddr: 0x10005F7C4, symSize: 0x64 }
  - { offset: 0xB8479, size: 0x8, addend: 0x0, symName: __RNvXs1_NtNtNtCsaNl6UpbT7bw_4core3ops8function5implsQNCNvMNtCsfpvTL5dBvDY_2cc4toolNtBT_4Tool10to_command0INtB7_5FnMutTRRNtNtNtCsht3nMU9UgFu_3std3ffi6os_str8OsStringEE8call_mutBV_, symObjAddr: 0x1360, symBinAddr: 0x10005F5CC, symSize: 0x30 }
  - { offset: 0xB8866, size: 0x8, addend: 0x0, symName: __RINvMs2_NtCsht3nMU9UgFu_3std2fsNtB6_4File6createRNtNtB8_4path7PathBufECsfpvTL5dBvDY_2cc, symObjAddr: 0x0, symBinAddr: 0x10005E830, symSize: 0xC0 }
  - { offset: 0xB898A, size: 0x8, addend: 0x0, symName: __RINvMsA_NtCsht3nMU9UgFu_3std2fsNtB6_10DirBuilder6createRNtNtB8_4path4PathECsfpvTL5dBvDY_2cc, symObjAddr: 0xC0, symBinAddr: 0x10005E8F0, symSize: 0x74 }
  - { offset: 0xB89D2, size: 0x8, addend: 0x0, symName: __RINvMsg_NtCsht3nMU9UgFu_3std2fsNtB6_11OpenOptions4openRNtNtB8_4path4PathECsfpvTL5dBvDY_2cc, symObjAddr: 0x134, symBinAddr: 0x10005E964, symSize: 0x74 }
  - { offset: 0xB8BBB, size: 0x8, addend: 0x0, symName: __RNvMsg_NtCsht3nMU9UgFu_3std2fsNtB5_11OpenOptions10create_newCsfpvTL5dBvDY_2cc, symObjAddr: 0xD88, symBinAddr: 0x10005F128, symSize: 0x1C }
  - { offset: 0xB8C08, size: 0x8, addend: 0x0, symName: __RNvMsg_NtCsht3nMU9UgFu_3std2fsNtB5_11OpenOptions3newCsfpvTL5dBvDY_2cc, symObjAddr: 0xDA4, symBinAddr: 0x10005F144, symSize: 0x44 }
  - { offset: 0xB8C37, size: 0x8, addend: 0x0, symName: __RNvMsg_NtCsht3nMU9UgFu_3std2fsNtB5_11OpenOptions4readCsfpvTL5dBvDY_2cc, symObjAddr: 0xDE8, symBinAddr: 0x10005F188, symSize: 0x1C }
  - { offset: 0xB8C84, size: 0x8, addend: 0x0, symName: __RNvMsg_NtCsht3nMU9UgFu_3std2fsNtB5_11OpenOptions5writeCsfpvTL5dBvDY_2cc, symObjAddr: 0xE04, symBinAddr: 0x10005F1A4, symSize: 0x1C }
  - { offset: 0xB9027, size: 0x8, addend: 0x0, symName: __RNvMNtCsfpvTL5dBvDY_2cc4toolNtB2_4Tool20from_find_msvc_tools, symObjAddr: 0x2180, symBinAddr: 0x10006018C, symSize: 0x1E0 }
  - { offset: 0xB907A, size: 0x8, addend: 0x0, symName: __RNvMNtCsfpvTL5dBvDY_2cc4toolNtB2_4Tool3new, symObjAddr: 0x2414, symBinAddr: 0x100060420, symSize: 0xDC }
  - { offset: 0xB90C7, size: 0x8, addend: 0x0, symName: __RNvMNtCsfpvTL5dBvDY_2cc4toolNtB2_4Tool9with_args, symObjAddr: 0x24F0, symBinAddr: 0x1000604FC, symSize: 0x74 }
  - { offset: 0xB9123, size: 0x8, addend: 0x0, symName: __RNvMNtCsfpvTL5dBvDY_2cc4toolNtB2_4Tool11with_family, symObjAddr: 0x2564, symBinAddr: 0x100060570, symSize: 0x188 }
  - { offset: 0xB9154, size: 0x8, addend: 0x0, symName: __RNvMNtCsfpvTL5dBvDY_2cc4toolNtB2_4Tool13with_features, symObjAddr: 0x26EC, symBinAddr: 0x1000606F8, symSize: 0x2D8 }
  - { offset: 0xB930F, size: 0x8, addend: 0x0, symName: __RNvMNtCsfpvTL5dBvDY_2cc4toolNtB2_4Tool10remove_arg, symObjAddr: 0x4D2C, symBinAddr: 0x100062D38, symSize: 0x3C }
  - { offset: 0xB9342, size: 0x8, addend: 0x0, symName: __RNvMNtCsfpvTL5dBvDY_2cc4toolNtB2_4Tool11push_cc_arg, symObjAddr: 0x4D68, symBinAddr: 0x100062D74, symSize: 0x11C }
  - { offset: 0xB93BA, size: 0x8, addend: 0x0, symName: __RNvMNtCsfpvTL5dBvDY_2cc4toolNtB2_4Tool20is_duplicate_opt_arg, symObjAddr: 0x4E84, symBinAddr: 0x100062E90, symSize: 0x220 }
  - { offset: 0xB9437, size: 0x8, addend: 0x0, symName: __RNvMNtCsfpvTL5dBvDY_2cc4toolNtB2_4Tool25push_opt_unless_duplicate, symObjAddr: 0x5130, symBinAddr: 0x10006313C, symSize: 0x130 }
  - { offset: 0xB95BA, size: 0x8, addend: 0x0, symName: __RNvMNtCsfpvTL5dBvDY_2cc4toolNtB2_4Tool10to_command, symObjAddr: 0x5260, symBinAddr: 0x10006326C, symSize: 0x268 }
  - { offset: 0xB965F, size: 0x8, addend: 0x0, symName: __RNvMNtCsfpvTL5dBvDY_2cc4toolNtB2_4Tool4path, symObjAddr: 0x5520, symBinAddr: 0x10006352C, symSize: 0x34 }
  - { offset: 0xB96A9, size: 0x8, addend: 0x0, symName: __RNvMNtCsfpvTL5dBvDY_2cc4toolNtB2_4Tool4args, symObjAddr: 0x5554, symBinAddr: 0x100063560, symSize: 0x34 }
  - { offset: 0xB96F3, size: 0x8, addend: 0x0, symName: __RNvMNtCsfpvTL5dBvDY_2cc4toolNtB2_4Tool3env, symObjAddr: 0x5588, symBinAddr: 0x100063594, symSize: 0x34 }
  - { offset: 0xB9716, size: 0x8, addend: 0x0, symName: __RNvMNtCsfpvTL5dBvDY_2cc4toolNtB2_4Tool11is_like_gnu, symObjAddr: 0x59C4, symBinAddr: 0x1000635C8, symSize: 0x3C }
  - { offset: 0xB9739, size: 0x8, addend: 0x0, symName: __RNvMNtCsfpvTL5dBvDY_2cc4toolNtB2_4Tool13is_like_clang, symObjAddr: 0x5A00, symBinAddr: 0x100063604, symSize: 0x64 }
  - { offset: 0xB975C, size: 0x8, addend: 0x0, symName: __RNvMNtCsfpvTL5dBvDY_2cc4toolNtB2_4Tool20is_xctoolchain_clang, symObjAddr: 0x5A64, symBinAddr: 0x100063668, symSize: 0xAC }
  - { offset: 0xB9795, size: 0x8, addend: 0x0, symName: __RNvMNtCsfpvTL5dBvDY_2cc4toolNtB2_4Tool12is_like_msvc, symObjAddr: 0x5B10, symBinAddr: 0x100063714, symSize: 0x64 }
  - { offset: 0xB97B8, size: 0x8, addend: 0x0, symName: __RNvMNtCsfpvTL5dBvDY_2cc4toolNtB2_4Tool23supports_path_delimiter, symObjAddr: 0x5BEC, symBinAddr: 0x100063778, symSize: 0xBC }
  - { offset: 0xB97E8, size: 0x8, addend: 0x0, symName: __RNvMs_NtCsfpvTL5dBvDY_2cc4toolNtB4_10ToolFamily15add_debug_flags, symObjAddr: 0x5CA8, symBinAddr: 0x100063834, symSize: 0xE4 }
  - { offset: 0xB9829, size: 0x8, addend: 0x0, symName: __RNvMs_NtCsfpvTL5dBvDY_2cc4toolNtB4_10ToolFamily23add_force_frame_pointer, symObjAddr: 0x5E50, symBinAddr: 0x1000639DC, symSize: 0x9C }
  - { offset: 0xB985B, size: 0x8, addend: 0x0, symName: __RNvMs_NtCsfpvTL5dBvDY_2cc4toolNtB4_10ToolFamily14warnings_flags, symObjAddr: 0x5EEC, symBinAddr: 0x100063A78, symSize: 0x88 }
  - { offset: 0xB987E, size: 0x8, addend: 0x0, symName: __RNvMs_NtCsfpvTL5dBvDY_2cc4toolNtB4_10ToolFamily20extra_warnings_flags, symObjAddr: 0x5F74, symBinAddr: 0x100063B00, symSize: 0x78 }
  - { offset: 0xB98A1, size: 0x8, addend: 0x0, symName: __RNvMs_NtCsfpvTL5dBvDY_2cc4toolNtB4_10ToolFamily23warnings_to_errors_flag, symObjAddr: 0x5FEC, symBinAddr: 0x100063B78, symSize: 0x88 }
  - { offset: 0xB98C4, size: 0x8, addend: 0x0, symName: __RNvMs_NtCsfpvTL5dBvDY_2cc4toolNtB4_10ToolFamily14verbose_stderr, symObjAddr: 0x6074, symBinAddr: 0x100063C00, symSize: 0x64 }
  - { offset: 0xB9B9D, size: 0x8, addend: 0x0, symName: __RINvMs12_NtCsht3nMU9UgFu_3std4pathNtB7_4Path14with_extensionReECsfpvTL5dBvDY_2cc, symObjAddr: 0x0, symBinAddr: 0x1000640AC, symSize: 0x80 }
  - { offset: 0xB9D26, size: 0x8, addend: 0x0, symName: __RNvXs7_NtNtCsaNl6UpbT7bw_4core3cmp5implsRNtNtCsht3nMU9UgFu_3std4path4PathNtB7_9PartialEq2eqCsfpvTL5dBvDY_2cc, symObjAddr: 0x3EBC, symBinAddr: 0x100067D58, symSize: 0x44 }
  - { offset: 0xB9FF9, size: 0x8, addend: 0x0, symName: __RINvNtCsaNl6UpbT7bw_4core3ptr10swap_chunkKj1_ECsfpvTL5dBvDY_2cc, symObjAddr: 0x6F0, symBinAddr: 0x10006479C, symSize: 0x3C }
  - { offset: 0xBA032, size: 0x8, addend: 0x0, symName: __RINvNtCsaNl6UpbT7bw_4core3ptr10swap_chunkKj2_ECsfpvTL5dBvDY_2cc, symObjAddr: 0x72C, symBinAddr: 0x1000647D8, symSize: 0x3C }
  - { offset: 0xBA06B, size: 0x8, addend: 0x0, symName: __RINvNtCsaNl6UpbT7bw_4core3ptr10swap_chunkKj4_ECsfpvTL5dBvDY_2cc, symObjAddr: 0x768, symBinAddr: 0x100064814, symSize: 0x3C }
  - { offset: 0xBA0A4, size: 0x8, addend: 0x0, symName: __RINvNtCsaNl6UpbT7bw_4core3ptr10swap_chunkKj8_ECsfpvTL5dBvDY_2cc, symObjAddr: 0x7A4, symBinAddr: 0x100064850, symSize: 0x3C }
  - { offset: 0xBA118, size: 0x8, addend: 0x0, symName: __RINvNtCsaNl6UpbT7bw_4core3ptr14read_unalignedNtNtNtNtB4_9core_arch10arm_shared4neon9uint8x8_tECsfpvTL5dBvDY_2cc, symObjAddr: 0x7E0, symBinAddr: 0x10006488C, symSize: 0x94 }
  - { offset: 0xBA227, size: 0x8, addend: 0x0, symName: __RINvNtCsaNl6UpbT7bw_4core3ptr15write_unalignedNtNtNtNtB4_9core_arch10arm_shared4neon9uint8x8_tECsfpvTL5dBvDY_2cc, symObjAddr: 0x874, symBinAddr: 0x100064920, symSize: 0x78 }
  - { offset: 0xBA371, size: 0x8, addend: 0x0, symName: __RNvNvNtCsaNl6UpbT7bw_4core3ptr19swap_nonoverlapping18precondition_checkCsfpvTL5dBvDY_2cc, symObjAddr: 0x2D10, symBinAddr: 0x100066BAC, symSize: 0x38C }
  - { offset: 0xBA651, size: 0x8, addend: 0x0, symName: __RINvNtCsaNl6UpbT7bw_4core3ptr19swap_nonoverlappinghECsfpvTL5dBvDY_2cc, symObjAddr: 0x9AC, symBinAddr: 0x100064998, symSize: 0xBC }
  - { offset: 0xBA8CF, size: 0x8, addend: 0x0, symName: __RINvNvNtCsaNl6UpbT7bw_4core3ptr25swap_nonoverlapping_bytes26swap_nonoverlapping_chunksKj8_ECsfpvTL5dBvDY_2cc, symObjAddr: 0xC54, symBinAddr: 0x100064C40, symSize: 0xE4 }
  - { offset: 0xBAA6D, size: 0x8, addend: 0x0, symName: __RNvNvNtCsaNl6UpbT7bw_4core3ptr25swap_nonoverlapping_bytes25swap_nonoverlapping_shortCsfpvTL5dBvDY_2cc, symObjAddr: 0x309C, symBinAddr: 0x100066F38, symSize: 0x120 }
  - { offset: 0xBAE29, size: 0x8, addend: 0x0, symName: __RNvNtCsaNl6UpbT7bw_4core3ptr25swap_nonoverlapping_bytesCsfpvTL5dBvDY_2cc, symObjAddr: 0x2780, symBinAddr: 0x10006661C, symSize: 0xD8 }
  - { offset: 0xBAFD2, size: 0x8, addend: 0x0, symName: __RNvNvNtCsaNl6UpbT7bw_4core3ptr19copy_nonoverlapping18precondition_checkCsfpvTL5dBvDY_2cc, symObjAddr: 0x29A4, symBinAddr: 0x100066840, symSize: 0x36C }
  - { offset: 0xBB285, size: 0x8, addend: 0x0, symName: __RNvNvNtCsaNl6UpbT7bw_4core3ptr4copy18precondition_checkCsfpvTL5dBvDY_2cc, symObjAddr: 0x31BC, symBinAddr: 0x100067058, symSize: 0x240 }
  - { offset: 0xBB4A0, size: 0x8, addend: 0x0, symName: __RNvNvNtCsaNl6UpbT7bw_4core3ptr7replace18precondition_checkCsfpvTL5dBvDY_2cc, symObjAddr: 0x33FC, symBinAddr: 0x100067298, symSize: 0x16C }
  - { offset: 0xBBC7C, size: 0x8, addend: 0x0, symName: __RNvXs19_NtCsaNl6UpbT7bw_4core3fmtRbNtB6_5Debug3fmtCsfpvTL5dBvDY_2cc, symObjAddr: 0x37B4, symBinAddr: 0x100067650, symSize: 0x30 }
  - { offset: 0xBBCC8, size: 0x8, addend: 0x0, symName: __RNvXs1b_NtCsaNl6UpbT7bw_4core3fmtRDNtB6_7DisplayEL_Bx_3fmtCsfpvTL5dBvDY_2cc, symObjAddr: 0x3B2C, symBinAddr: 0x1000679C8, symSize: 0x3C }
  - { offset: 0xBBD0E, size: 0x8, addend: 0x0, symName: __RNvXs1b_NtCsaNl6UpbT7bw_4core3fmtRReNtB6_7Display3fmtCsfpvTL5dBvDY_2cc, symObjAddr: 0x3B68, symBinAddr: 0x100067A04, symSize: 0x30 }
  - { offset: 0xBBD5A, size: 0x8, addend: 0x0, symName: __RNvXse_NtCsaNl6UpbT7bw_4core3fmtbNtB5_5Debug3fmtCsfpvTL5dBvDY_2cc, symObjAddr: 0x40B4, symBinAddr: 0x100067F50, symSize: 0x2C }
  - { offset: 0xBC940, size: 0x8, addend: 0x0, symName: __RNvXs_NtNtCsaNl6UpbT7bw_4core5slice4iterRSRNtNtCsht3nMU9UgFu_3std4path4PathNtNtNtNtB8_4iter6traits7collect12IntoIterator9into_iterCsfpvTL5dBvDY_2cc, symObjAddr: 0x4064, symBinAddr: 0x100067F00, symSize: 0x50 }
  - { offset: 0xBCB5C, size: 0x8, addend: 0x0, symName: __RNvMNtCsaNl6UpbT7bw_4core5sliceSRNtNtCsht3nMU9UgFu_3std4path4Path18split_at_uncheckedCsfpvTL5dBvDY_2cc, symObjAddr: 0x2214, symBinAddr: 0x10006615C, symSize: 0xF4 }
  - { offset: 0xBCCB5, size: 0x8, addend: 0x0, symName: __RNvMNtCsaNl6UpbT7bw_4core5sliceSRNtNtCsht3nMU9UgFu_3std4path4Path6chunksCsfpvTL5dBvDY_2cc, symObjAddr: 0x2308, symBinAddr: 0x100066250, symSize: 0xB0 }
  - { offset: 0xBD047, size: 0x8, addend: 0x0, symName: __RNCINvNvXs1_NtNtNtCsaNl6UpbT7bw_4core4iter8adapters6filterINtBa_6FilterppENtNtNtBe_6traits8iterator8Iterator5count8to_usizeRINtNtCsiTraAjBDcu4_5alloc4sync3ArcNtNtCsht3nMU9UgFu_3std4path4PathENCNvMs4_CsfpvTL5dBvDY_2ccNtB3b_5Build15cuda_file_count0E0B3b_, symObjAddr: 0x20FC, symBinAddr: 0x100066044, symSize: 0x5C }
  - { offset: 0xBD0AA, size: 0x8, addend: 0x0, symName: __RNvXs1_NtNtNtCsaNl6UpbT7bw_4core4iter8adapters6filterINtB5_6FilterINtNtNtBb_5slice4iter4IterINtNtCsiTraAjBDcu4_5alloc4sync3ArcNtNtCsht3nMU9UgFu_3std4path4PathEENCNvMs4_CsfpvTL5dBvDY_2ccNtB2G_5Build15cuda_file_count0ENtNtNtB9_6traits8iterator8Iterator5countB2G_, symObjAddr: 0x3A84, symBinAddr: 0x100067920, symSize: 0x50 }
  - { offset: 0xBD138, size: 0x8, addend: 0x0, symName: __RNvXs1_NtNtNtCsaNl6UpbT7bw_4core4iter8adapters6filterINtB5_6FilterINtNtNtBb_5slice4iter4IterNtNtNtCsht3nMU9UgFu_3std3ffi6os_str8OsStringENCNvMNtCsfpvTL5dBvDY_2cc4toolNtB2g_4Tool10to_command0ENtNtNtB9_6traits8iterator8Iterator4nextB2i_, symObjAddr: 0x3AD4, symBinAddr: 0x100067970, symSize: 0x2C }
  - { offset: 0xBD176, size: 0x8, addend: 0x0, symName: __RNvXs1_NtNtNtCsaNl6UpbT7bw_4core4iter8adapters6filterINtB5_6FilterINtNtNtBb_5slice4iter5SplithNtNtBb_3str17IsAsciiWhitespaceENtB1w_15BytesIsNotEmptyENtNtNtB9_6traits8iterator8Iterator4nextCsfpvTL5dBvDY_2cc, symObjAddr: 0x3B00, symBinAddr: 0x10006799C, symSize: 0x2C }
  - { offset: 0xBD2FB, size: 0x8, addend: 0x0, symName: __RINvYNtNtCsht3nMU9UgFu_3std3env10SplitPathsNtNtNtNtCsaNl6UpbT7bw_4core4iter6traits8iterator8Iterator4findNCNCNvMs4_CsfpvTL5dBvDY_2ccNtB1P_5Build11try_compiles_00EB1P_, symObjAddr: 0x11E0, symBinAddr: 0x1000651CC, symSize: 0xA0 }
  - { offset: 0xBD376, size: 0x8, addend: 0x0, symName: __RINvYNtNtCsht3nMU9UgFu_3std3env10SplitPathsNtNtNtNtCsaNl6UpbT7bw_4core4iter6traits8iterator8Iterator8find_mapNtNtB7_4path7PathBufNCNCNvMs4_CsfpvTL5dBvDY_2ccNtB2d_5Build5which00EB2d_, symObjAddr: 0x1280, symBinAddr: 0x10006526C, symSize: 0xA8 }
  - { offset: 0xBD450, size: 0x8, addend: 0x0, symName: __RNCINvNvNtNtNtNtCsaNl6UpbT7bw_4core4iter6traits8iterator8Iterator8find_map5checkNtNtCsht3nMU9UgFu_3std4path7PathBufB1g_NCNCNvMs4_CsfpvTL5dBvDY_2ccNtB23_5Build5which00E0B23_, symObjAddr: 0x1E50, symBinAddr: 0x100065E3C, symSize: 0x94 }
  - { offset: 0xBD4D4, size: 0x8, addend: 0x0, symName: __RNCINvNvNtNtNtNtCsaNl6UpbT7bw_4core4iter6traits8iterator8Iterator8find_map5checkNtNtCsht3nMU9UgFu_3std4path7PathBufRReNCNCNvMs4_CsfpvTL5dBvDY_2ccNtB22_5Build23find_working_gnu_prefix00E0B22_, symObjAddr: 0x1EE4, symBinAddr: 0x100065ED0, symSize: 0x70 }
  - { offset: 0xBD56D, size: 0x8, addend: 0x0, symName: __RINvYNtNtCsht3nMU9UgFu_3std3env10SplitPathsNtNtNtNtCsaNl6UpbT7bw_4core4iter6traits8iterator8Iterator8find_mapRReNCNCNvMs4_CsfpvTL5dBvDY_2ccNtB1W_5Build23find_working_gnu_prefix00EB1W_, symObjAddr: 0x1328, symBinAddr: 0x100065314, symSize: 0x88 }
  - { offset: 0xBD611, size: 0x8, addend: 0x0, symName: __RINvYNtNtCsht3nMU9UgFu_3std3env10SplitPathsNtNtNtNtCsaNl6UpbT7bw_4core4iter6traits8iterator8Iterator8try_folduNCINvNvBF_4find5checkNtNtB7_4path7PathBufNCNCNvMs4_CsfpvTL5dBvDY_2ccNtB2z_5Build11try_compiles_00E0INtNtNtBN_3ops12control_flow11ControlFlowB25_EEB2z_, symObjAddr: 0x13B0, symBinAddr: 0x10006539C, symSize: 0x178 }
  - { offset: 0xBD6CD, size: 0x8, addend: 0x0, symName: __RINvYNtNtCsht3nMU9UgFu_3std3env10SplitPathsNtNtNtNtCsaNl6UpbT7bw_4core4iter6traits8iterator8Iterator8try_folduNCINvNvBF_8find_map5checkNtNtB7_4path7PathBufB29_NCNCNvMs4_CsfpvTL5dBvDY_2ccNtB2H_5Build5which00E0INtNtNtBN_3ops12control_flow11ControlFlowB29_EEB2H_, symObjAddr: 0x1528, symBinAddr: 0x100065514, symSize: 0x160 }
  - { offset: 0xBD789, size: 0x8, addend: 0x0, symName: __RINvYNtNtCsht3nMU9UgFu_3std3env10SplitPathsNtNtNtNtCsaNl6UpbT7bw_4core4iter6traits8iterator8Iterator8try_folduNCINvNvBF_8find_map5checkNtNtB7_4path7PathBufRReNCNCNvMs4_CsfpvTL5dBvDY_2ccNtB2G_5Build23find_working_gnu_prefix00E0INtNtNtBN_3ops12control_flow11ControlFlowB2t_EEB2G_, symObjAddr: 0x1688, symBinAddr: 0x100065674, symSize: 0x160 }
  - { offset: 0xBD83D, size: 0x8, addend: 0x0, symName: __RINvYNtNtCsht3nMU9UgFu_3std4path10ComponentsNtNtNtNtCsaNl6UpbT7bw_4core4iter6traits8iterator8Iterator4foldjNCNvYB3_BG_5count0ECsfpvTL5dBvDY_2cc, symObjAddr: 0x1954, symBinAddr: 0x100065940, symSize: 0x11C }
  - { offset: 0xBD8DE, size: 0x8, addend: 0x0, symName: __RNCINvNvNtNtNtNtCsaNl6UpbT7bw_4core4iter6traits8iterator8Iterator12try_for_each4callNtNtCsht3nMU9UgFu_3std4path9ComponentINtNtNtBe_3ops12control_flow11ControlFlowIB1W_uNtNtBe_3cmp8OrderingEENCINvNvB8_12iter_compare7compareINtNtNtBc_8adapters3rev3RevNtB1m_10ComponentsEB1k_uNCINvNvB6_5eq_by7compareB1k_B1k_NCINvYB3y_B6_2eqB3y_E0E0E0E0CsfpvTL5dBvDY_2cc, symObjAddr: 0x1BD4, symBinAddr: 0x100065BC0, symSize: 0x40 }
  - { offset: 0xBD963, size: 0x8, addend: 0x0, symName: __RNCINvNvNtNtNtNtCsaNl6UpbT7bw_4core4iter6traits8iterator8Iterator4find5checkNtNtCsht3nMU9UgFu_3std4path7PathBufNCNCNvMs4_CsfpvTL5dBvDY_2ccNtB1V_5Build11try_compiles_00E0B1V_, symObjAddr: 0x1C14, symBinAddr: 0x100065C00, symSize: 0xAC }
  - { offset: 0xBD9C0, size: 0x8, addend: 0x0, symName: __RNCINvNvNtNtNtNtCsaNl6UpbT7bw_4core4iter6traits8iterator8Iterator4find5checkRShQNtNtBe_3str15BytesIsNotEmptyE0CsfpvTL5dBvDY_2cc, symObjAddr: 0x1CC0, symBinAddr: 0x100065CAC, symSize: 0x84 }
  - { offset: 0xBDA1C, size: 0x8, addend: 0x0, symName: __RNCINvNvNtNtNtNtCsaNl6UpbT7bw_4core4iter6traits8iterator8Iterator4find5checkReQNtNtBe_3str10IsNotEmptyE0CsfpvTL5dBvDY_2cc, symObjAddr: 0x1D44, symBinAddr: 0x100065D30, symSize: 0x84 }
  - { offset: 0xBDA97, size: 0x8, addend: 0x0, symName: __RNCINvNvNtNtNtNtCsaNl6UpbT7bw_4core4iter6traits8iterator8Iterator5eq_by7compareNtNtCsht3nMU9UgFu_3std4path9ComponentB1f_NCINvYINtNtNtBc_8adapters3rev3RevNtB1h_10ComponentsEB6_2eqB20_E0E0CsfpvTL5dBvDY_2cc, symObjAddr: 0x1DC8, symBinAddr: 0x100065DB4, symSize: 0x88 }
  - { offset: 0xBDB21, size: 0x8, addend: 0x0, symName: __RNCINvNvNtNtNtNtCsaNl6UpbT7bw_4core4iter6traits8iterator8Iterator8for_each4callINtNtCsiTraAjBDcu4_5alloc5boxed3BoxNtNtNtCsht3nMU9UgFu_3std3ffi6os_str5OsStrENCINvMsi_NtB1k_3vecINtB2D_3VecB1f_E14extend_trustedINtNtNtBc_8adapters3map3MapINtNtB3o_5chain5ChainINtNtB3o_6cloned6ClonedINtNtNtBe_5slice4iter4IterRB1O_EEIB3k_IB4t_NtNtB1k_6string6StringEINvMsl_B1Q_B1O_3newB59_EEENvYB4S_INtNtBe_7convert4IntoB1f_E4intoEE0E0CsfpvTL5dBvDY_2cc, symObjAddr: 0x1FF8, symBinAddr: 0x100065F40, symSize: 0x30 }
  - { offset: 0xBDB79, size: 0x8, addend: 0x0, symName: __RNCINvNvNtNtNtNtCsaNl6UpbT7bw_4core4iter6traits8iterator8Iterator8for_each4callNtNtNtCsht3nMU9UgFu_3std3ffi6os_str8OsStringNCINvMsi_NtCsiTraAjBDcu4_5alloc3vecINtB26_3VecB1f_E14extend_trustedINtNtNtBe_5array4iter8IntoIterB1f_Kj6_EE0E0CsfpvTL5dBvDY_2cc, symObjAddr: 0x2028, symBinAddr: 0x100065F70, symSize: 0x3C }
  - { offset: 0xBDBD2, size: 0x8, addend: 0x0, symName: __RNCINvNvNtNtNtNtCsaNl6UpbT7bw_4core4iter6traits8iterator8Iterator8for_each4callRNtNtCsht3nMU9UgFu_3std4path4PathNCINvMsi_NtCsiTraAjBDcu4_5alloc3vecINtB1V_3VecB1f_E14extend_trustedINtNtNtBc_8adapters5chain5ChainINtNtB2W_3map3MapINtNtNtBe_5slice4iter4IterNtCsfpvTL5dBvDY_2cc6ObjectENCNvMs4_B45_NtB45_5Build8assemble0EIB3n_IB3E_INtNtB1X_4sync3ArcB1g_EENvYB5d_NtNtNtBe_3ops5deref5Deref5derefEEE0E0B45_, symObjAddr: 0x2064, symBinAddr: 0x100065FAC, symSize: 0x30 }
  - { offset: 0xBDC2A, size: 0x8, addend: 0x0, symName: __RNCINvNvNtNtNtNtCsaNl6UpbT7bw_4core4iter6traits8iterator8Iterator8for_each4callTNtNtNtCsht3nMU9UgFu_3std3ffi6os_str8OsStringB1g_ENCINvMsi_NtCsiTraAjBDcu4_5alloc3vecINtB2c_3VecB1f_E14extend_trustedINtNtNtBc_8adapters3map3MapINtNtNtBe_5slice4iter4IterB1f_ENCNvMNtCsfpvTL5dBvDY_2cc4toolNtB49_4Tool20from_find_msvc_tools0EE0E0B4b_, symObjAddr: 0x2094, symBinAddr: 0x100065FDC, symSize: 0x40 }
  - { offset: 0xBDC83, size: 0x8, addend: 0x0, symName: __RNCINvNvNtNtNtNtCsaNl6UpbT7bw_4core4iter6traits8iterator8Iterator8for_each4callhNCINvMsi_NtCsiTraAjBDcu4_5alloc3vecINtB1p_3VechE14extend_trustedINtNtNtBc_8adapters3map3MapINtNtNtBe_5slice4iter4IterhENCNvNtB1r_3str13replace_ascii0EE0E0CsfpvTL5dBvDY_2cc, symObjAddr: 0x20D4, symBinAddr: 0x10006601C, symSize: 0x28 }
  - { offset: 0xBDCF5, size: 0x8, addend: 0x0, symName: __RNCINvYINtNtNtNtCsaNl6UpbT7bw_4core4iter8adapters3rev3RevNtNtCsht3nMU9UgFu_3std4path10ComponentsENtNtNtBc_6traits8iterator8Iterator2eqB5_E0CsfpvTL5dBvDY_2cc, symObjAddr: 0x2158, symBinAddr: 0x1000660A0, symSize: 0x58 }
  - { offset: 0xBDD5E, size: 0x8, addend: 0x0, symName: __RNCNvYNtNtCsht3nMU9UgFu_3std4path10ComponentsNtNtNtNtCsaNl6UpbT7bw_4core4iter6traits8iterator8Iterator5count0CsfpvTL5dBvDY_2cc, symObjAddr: 0x21B0, symBinAddr: 0x1000660F8, symSize: 0x64 }
  - { offset: 0xBDE3F, size: 0x8, addend: 0x0, symName: __RNvYNtNtCsht3nMU9UgFu_3std4path10ComponentsNtNtNtNtCsaNl6UpbT7bw_4core4iter6traits8iterator8Iterator5countCsfpvTL5dBvDY_2cc, symObjAddr: 0x47A8, symBinAddr: 0x100068644, symSize: 0x18 }
  - { offset: 0xBDE76, size: 0x8, addend: 0x0, symName: __RINvNtNtNtCsaNl6UpbT7bw_4core4iter6traits8iterator12iter_compareINtNtNtB6_8adapters3rev3RevNtNtCsht3nMU9UgFu_3std4path10ComponentsEB10_NCINvNvNtB2_8Iterator5eq_by7compareNtB1t_9ComponentB2I_NCINvYB10_B2g_2eqB10_E0E0uECsfpvTL5dBvDY_2cc, symObjAddr: 0xB90, symBinAddr: 0x100064B7C, symSize: 0xC4 }
  - { offset: 0xBDF10, size: 0x8, addend: 0x0, symName: __RNCINvNvNtNtNtCsaNl6UpbT7bw_4core4iter6traits8iterator12iter_compare7compareINtNtNtBa_8adapters3rev3RevNtNtCsht3nMU9UgFu_3std4path10ComponentsENtB1F_9ComponentuNCINvNvNtB6_8Iterator5eq_by7compareB2h_B2h_NCINvYB1c_B2F_2eqB1c_E0E0E0CsfpvTL5dBvDY_2cc, symObjAddr: 0x1A70, symBinAddr: 0x100065A5C, symSize: 0x164 }
  - { offset: 0xBE03C, size: 0x8, addend: 0x0, symName: __RINvYNtNtCsht3nMU9UgFu_3std4path10ComponentsNtNtNtNtCsaNl6UpbT7bw_4core4iter6traits12double_ended19DoubleEndedIterator9try_rfolduNCINvNvNtNtBK_8iterator8Iterator12try_for_each4callNtB5_9ComponentINtNtNtBO_3ops12control_flow11ControlFlowIB38_uNtNtBO_3cmp8OrderingEENCINvNvB2c_12iter_compare7compareINtNtNtBM_8adapters3rev3RevB3_EB2S_uNCINvNvB2a_5eq_by7compareB2S_B2S_NCINvYB4L_B2a_2eqB4L_E0E0E0E0B37_ECsfpvTL5dBvDY_2cc, symObjAddr: 0x17E8, symBinAddr: 0x1000657D4, symSize: 0x16C }
  - { offset: 0xBE0F5, size: 0x8, addend: 0x0, symName: __RNvXNtNtNtCsaNl6UpbT7bw_4core4iter6traits7collectINtNtNtB6_8adapters6filter6FilterINtNtNtB8_5slice4iter4IterNtNtNtCsht3nMU9UgFu_3std3ffi6os_str8OsStringENCNvMNtCsfpvTL5dBvDY_2cc4toolNtB2w_4Tool10to_command0ENtB2_12IntoIterator9into_iterB2y_, symObjAddr: 0x35E8, symBinAddr: 0x100067484, symSize: 0x18 }
  - { offset: 0xBE8D9, size: 0x8, addend: 0x0, symName: __RNvXs1_NtNtNtCsaNl6UpbT7bw_4core3ops8function5implsQNCINvNvNtNtNtNtBb_4iter6traits8iterator8Iterator8for_each4callRNtNtCsht3nMU9UgFu_3std4path4PathNCINvMsi_NtCsiTraAjBDcu4_5alloc3vecINtB2u_3VecB1O_E14extend_trustedINtNtNtB11_8adapters5chain5ChainINtNtB3v_3map3MapINtNtNtBb_5slice4iter4IterNtCsfpvTL5dBvDY_2cc6ObjectENCNvMs4_B4F_NtB4F_5Build8assemble0EIB3X_IB4e_INtNtB2w_4sync3ArcB1P_EENvYB5N_NtNtB9_5deref5Deref5derefEEE0E0INtB7_5FnMutTuB1O_EE8call_mutB4F_, symObjAddr: 0x3A4C, symBinAddr: 0x1000678E8, symSize: 0x38 }
  - { offset: 0xBE937, size: 0x8, addend: 0x0, symName: __RINvXs0_NtNtCsaNl6UpbT7bw_4core4hash5implseNtB8_4Hash4hashNtNtNtCsht3nMU9UgFu_3std4hash6random13DefaultHasherECsfpvTL5dBvDY_2cc, symObjAddr: 0xD38, symBinAddr: 0x100064D24, symSize: 0x48 }
  - { offset: 0xBE97F, size: 0x8, addend: 0x0, symName: __RINvXs3_NtNtCsaNl6UpbT7bw_4core4hash5implsReNtB8_4Hash4hashNtNtNtCsht3nMU9UgFu_3std4hash6random13DefaultHasherECsfpvTL5dBvDY_2cc, symObjAddr: 0x11A4, symBinAddr: 0x100065190, symSize: 0x3C }
  - { offset: 0xBEAE3, size: 0x8, addend: 0x0, symName: __RNvNtNtNtCsaNl6UpbT7bw_4core7unicode12unicode_data11white_space6lookupCsfpvTL5dBvDY_2cc, symObjAddr: 0x2858, symBinAddr: 0x1000666F4, symSize: 0x14C }
  - { offset: 0xBED44, size: 0x8, addend: 0x0, symName: __RNvXNtCsaNl6UpbT7bw_4core7convertRNtNtCsht3nMU9UgFu_3std4path4PathINtB2_5AsRefNtNtNtBA_3ffi6os_str5OsStrE6as_refCsfpvTL5dBvDY_2cc, symObjAddr: 0x3568, symBinAddr: 0x100067404, symSize: 0x30 }
  - { offset: 0xBED84, size: 0x8, addend: 0x0, symName: __RNvXNtCsaNl6UpbT7bw_4core7convertRNtNtCsht3nMU9UgFu_3std4path7PathBufINtB2_5AsRefNtBy_4PathE6as_refCsfpvTL5dBvDY_2cc, symObjAddr: 0x3598, symBinAddr: 0x100067434, symSize: 0x28 }
  - { offset: 0xBEDC4, size: 0x8, addend: 0x0, symName: __RNvXNtCsaNl6UpbT7bw_4core7convertRRNtNtCsht3nMU9UgFu_3std4path4PathINtB2_5AsRefNtNtNtBB_3ffi6os_str5OsStrE6as_refCsfpvTL5dBvDY_2cc, symObjAddr: 0x35C0, symBinAddr: 0x10006745C, symSize: 0x28 }
  - { offset: 0xBEE0A, size: 0x8, addend: 0x0, symName: __RNvXs1_NtCsaNl6UpbT7bw_4core7convertNtNtCsht3nMU9UgFu_3std4path7PathBufINtB5_4IntoNtNtNtBC_3ffi6os_str8OsStringE4intoCsfpvTL5dBvDY_2cc, symObjAddr: 0x3968, symBinAddr: 0x100067804, symSize: 0x14 }
  - { offset: 0xBEE4B, size: 0x8, addend: 0x0, symName: __RNvXs1_NtCsaNl6UpbT7bw_4core7convertRNtNtCsht3nMU9UgFu_3std4path4PathINtB5_4IntoINtNtCsiTraAjBDcu4_5alloc4sync3ArcBz_EE4intoCsfpvTL5dBvDY_2cc, symObjAddr: 0x397C, symBinAddr: 0x100067818, symSize: 0x28 }
  - { offset: 0xBEE8B, size: 0x8, addend: 0x0, symName: __RNvXs1_NtCsaNl6UpbT7bw_4core7convertRNtNtCsht3nMU9UgFu_3std4path4PathINtB5_4IntoINtNtCsiTraAjBDcu4_5alloc5boxed3BoxBz_EE4intoCsfpvTL5dBvDY_2cc, symObjAddr: 0x39A4, symBinAddr: 0x100067840, symSize: 0x28 }
  - { offset: 0xBEECB, size: 0x8, addend: 0x0, symName: __RNvXs1_NtCsaNl6UpbT7bw_4core7convertRNtNtCsht3nMU9UgFu_3std4path4PathINtB5_4IntoNtBB_7PathBufE4intoCsfpvTL5dBvDY_2cc, symObjAddr: 0x39CC, symBinAddr: 0x100067868, symSize: 0x28 }
  - { offset: 0xBF1D4, size: 0x8, addend: 0x0, symName: __RINvXs19_NtCsht3nMU9UgFu_3std4pathNtB7_4PathNtNtCsaNl6UpbT7bw_4core4hash4Hash4hashNtNtNtB9_4hash6random13DefaultHasherECsfpvTL5dBvDY_2cc, symObjAddr: 0xD80, symBinAddr: 0x100064D6C, symSize: 0x424 }
  - { offset: 0xBF67B, size: 0x8, addend: 0x0, symName: __RNvXsH_NtCsht3nMU9UgFu_3std4pathNtB5_7PathBufNtNtNtCsaNl6UpbT7bw_4core3ops5deref5Deref5derefCsfpvTL5dBvDY_2cc, symObjAddr: 0x3F50, symBinAddr: 0x100067DEC, symSize: 0x34 }
  - { offset: 0xBF727, size: 0x8, addend: 0x0, symName: __RNvXs11_NtCsht3nMU9UgFu_3std4pathNtB6_7PathBufINtNtCsaNl6UpbT7bw_4core7convert5AsRefNtNtNtB8_3ffi6os_str5OsStrE6as_refCsfpvTL5dBvDY_2cc, symObjAddr: 0x3710, symBinAddr: 0x1000675AC, symSize: 0x2C }
  - { offset: 0xBF75B, size: 0x8, addend: 0x0, symName: __RNvXs14_NtCsht3nMU9UgFu_3std4pathNtB6_4PathINtNtCsaNl6UpbT7bw_4core7convert5AsRefNtNtNtB8_3ffi6os_str5OsStrE6as_refCsfpvTL5dBvDY_2cc, symObjAddr: 0x373C, symBinAddr: 0x1000675D8, symSize: 0x18 }
  - { offset: 0xBF78F, size: 0x8, addend: 0x0, symName: __RNvXs18_NtCsht3nMU9UgFu_3std4pathNtB6_4PathNtNtCsaNl6UpbT7bw_4core3cmp9PartialEq2eqCsfpvTL5dBvDY_2cc, symObjAddr: 0x3754, symBinAddr: 0x1000675F0, symSize: 0x60 }
  - { offset: 0xBF938, size: 0x8, addend: 0x0, symName: __RNvXs1M_NtCsht3nMU9UgFu_3std4pathNtB6_9ComponentNtNtCsaNl6UpbT7bw_4core3cmp9PartialEq2eqCsfpvTL5dBvDY_2cc, symObjAddr: 0x37E4, symBinAddr: 0x100067680, symSize: 0x184 }
  - { offset: 0xBFA79, size: 0x8, addend: 0x0, symName: __RNvXs1j_NtCsht3nMU9UgFu_3std4pathNtB6_7PathBufINtNtCsaNl6UpbT7bw_4core7convert5AsRefNtB6_4PathE6as_refCsfpvTL5dBvDY_2cc, symObjAddr: 0x3B98, symBinAddr: 0x100067A34, symSize: 0x34 }
  - { offset: 0xBFB25, size: 0x8, addend: 0x0, symName: __RNvXs1x_NtCsht3nMU9UgFu_3std4pathNtB6_6PrefixNtNtCsaNl6UpbT7bw_4core3cmp9PartialEq2eqCsfpvTL5dBvDY_2cc, symObjAddr: 0x3BCC, symBinAddr: 0x100067A68, symSize: 0x2F0 }
  - { offset: 0xBFEAB, size: 0x8, addend: 0x0, symName: __RNvXsC_NtCsht3nMU9UgFu_3std4pathNtB5_7PathBufINtNtCsaNl6UpbT7bw_4core7convert4FromNtNtCsiTraAjBDcu4_5alloc6string6StringE4fromCsfpvTL5dBvDY_2cc, symObjAddr: 0x3F00, symBinAddr: 0x100067D9C, symSize: 0x50 }
  - { offset: 0xBFF34, size: 0x8, addend: 0x0, symName: __RNvXsJ_NtCsht3nMU9UgFu_3std4pathNtB5_7PathBufINtNtCsaNl6UpbT7bw_4core6borrow6BorrowNtB5_4PathE6borrowCsfpvTL5dBvDY_2cc, symObjAddr: 0x3F84, symBinAddr: 0x100067E20, symSize: 0x34 }
  - { offset: 0xBFFFE, size: 0x8, addend: 0x0, symName: __RNvXsV_NtCsht3nMU9UgFu_3std4pathNtB5_4PathNtNtCsiTraAjBDcu4_5alloc6borrow7ToOwned8to_ownedCsfpvTL5dBvDY_2cc, symObjAddr: 0x403C, symBinAddr: 0x100067ED8, symSize: 0x28 }
  - { offset: 0xC0032, size: 0x8, addend: 0x0, symName: __RNvXsO_NtCsht3nMU9UgFu_3std4pathNtB5_7PathBufINtNtCsaNl6UpbT7bw_4core7convert4FromINtNtCsiTraAjBDcu4_5alloc6borrow3CowNtB5_4PathEE4fromCsfpvTL5dBvDY_2cc, symObjAddr: 0x3FB8, symBinAddr: 0x100067E54, symSize: 0x84 }
  - { offset: 0xC01B0, size: 0x8, addend: 0x0, symName: __RNvXsl_NtCsht3nMU9UgFu_3std4pathNtB5_10ComponentsNtNtCsaNl6UpbT7bw_4core3cmp9PartialEq2eqCsfpvTL5dBvDY_2cc, symObjAddr: 0x40E0, symBinAddr: 0x100067F7C, symSize: 0x4E4 }
  - { offset: 0xC05F6, size: 0x8, addend: 0x0, symName: __RNvXss_NtCsht3nMU9UgFu_3std4pathNtB5_7PathBufNtNtCsaNl6UpbT7bw_4core5clone5Clone10clone_fromCsfpvTL5dBvDY_2cc, symObjAddr: 0x45C4, symBinAddr: 0x100068460, symSize: 0x54 }
  - { offset: 0xC067B, size: 0x8, addend: 0x0, symName: __RNvXss_NtCsht3nMU9UgFu_3std4pathNtB5_7PathBufNtNtCsaNl6UpbT7bw_4core5clone5Clone5cloneCsfpvTL5dBvDY_2cc, symObjAddr: 0x4618, symBinAddr: 0x1000684B4, symSize: 0x78 }
  - { offset: 0xC06EB, size: 0x8, addend: 0x0, symName: __RNvXsz_NtCsht3nMU9UgFu_3std4pathNtB5_7PathBufINtNtCsaNl6UpbT7bw_4core7convert4FromRNtB5_4PathE4fromCsfpvTL5dBvDY_2cc, symObjAddr: 0x4690, symBinAddr: 0x10006852C, symSize: 0x8C }
  - { offset: 0xC07C1, size: 0x8, addend: 0x0, symName: __RNvXsz_NtCsht3nMU9UgFu_3std4pathNtB5_7PathBufINtNtCsaNl6UpbT7bw_4core7convert4FromReE4fromCsfpvTL5dBvDY_2cc, symObjAddr: 0x471C, symBinAddr: 0x1000685B8, symSize: 0x8C }
  - { offset: 0xC0D49, size: 0x8, addend: 0x0, symName: __RNvXNvMs0_NtNtCsht3nMU9UgFu_3std3ffi6os_strNtB8_8OsString4pushNtNtBc_4path7PathBufNtB2_10SpecPushTo12spec_push_toCsfpvTL5dBvDY_2cc, symObjAddr: 0x3600, symBinAddr: 0x10006749C, symSize: 0x88 }
  - { offset: 0xC0EBE, size: 0x8, addend: 0x0, symName: __RNvXNvMs0_NtNtCsht3nMU9UgFu_3std3ffi6os_strNtB8_8OsString4pushRNtNtBc_4path4PathNtB2_10SpecPushTo12spec_push_toCsfpvTL5dBvDY_2cc, symObjAddr: 0x3688, symBinAddr: 0x100067524, symSize: 0x88 }
  - { offset: 0xC1249, size: 0x8, addend: 0x0, symName: __RINvNtCsht3nMU9UgFu_3std3env11split_pathsINtNtCsiTraAjBDcu4_5alloc4sync3ArcNtNtNtB4_3ffi6os_str5OsStrEECsfpvTL5dBvDY_2cc, symObjAddr: 0xA68, symBinAddr: 0x100064A54, symSize: 0x94 }
  - { offset: 0xC12F2, size: 0x8, addend: 0x0, symName: __RINvNtCsht3nMU9UgFu_3std3env11split_pathsNtNtNtB4_3ffi6os_str8OsStringECsfpvTL5dBvDY_2cc, symObjAddr: 0xAFC, symBinAddr: 0x100064AE8, symSize: 0x94 }
  - { offset: 0xC1B95, size: 0x8, addend: 0x0, symName: __RINvMs12_NtCsht3nMU9UgFu_3std4pathNtB7_4Path14with_extensionReECsfpvTL5dBvDY_2cc, symObjAddr: 0x0, symBinAddr: 0x1000640AC, symSize: 0x80 }
  - { offset: 0xC1BD0, size: 0x8, addend: 0x0, symName: __RINvMs12_NtCsht3nMU9UgFu_3std4pathNtB7_4Path14with_file_nameNtNtCsiTraAjBDcu4_5alloc6string6StringECsfpvTL5dBvDY_2cc, symObjAddr: 0x80, symBinAddr: 0x10006412C, symSize: 0x94 }
  - { offset: 0xC1C40, size: 0x8, addend: 0x0, symName: __RINvMs12_NtCsht3nMU9UgFu_3std4pathNtB7_4Path3newINtNtCsiTraAjBDcu4_5alloc4sync3ArcNtNtNtB9_3ffi6os_str5OsStrEECsfpvTL5dBvDY_2cc, symObjAddr: 0x114, symBinAddr: 0x1000641C0, symSize: 0x24 }
  - { offset: 0xC1CA0, size: 0x8, addend: 0x0, symName: __RINvMs12_NtCsht3nMU9UgFu_3std4pathNtB7_4Path3newRNtNtNtB9_3ffi6os_str5OsStrECsfpvTL5dBvDY_2cc, symObjAddr: 0x138, symBinAddr: 0x1000641E4, symSize: 0x24 }
  - { offset: 0xC1CCC, size: 0x8, addend: 0x0, symName: __RINvMs12_NtCsht3nMU9UgFu_3std4pathNtB7_4Path3neweECsfpvTL5dBvDY_2cc, symObjAddr: 0x15C, symBinAddr: 0x100064208, symSize: 0x28 }
  - { offset: 0xC1CF8, size: 0x8, addend: 0x0, symName: __RINvMs12_NtCsht3nMU9UgFu_3std4pathNtB7_4Path4joinNtNtCsiTraAjBDcu4_5alloc6string6StringECsfpvTL5dBvDY_2cc, symObjAddr: 0x184, symBinAddr: 0x100064230, symSize: 0x94 }
  - { offset: 0xC1D34, size: 0x8, addend: 0x0, symName: __RINvMs12_NtCsht3nMU9UgFu_3std4pathNtB7_4Path4joinRBw_ECsfpvTL5dBvDY_2cc, symObjAddr: 0x218, symBinAddr: 0x1000642C4, symSize: 0x80 }
  - { offset: 0xC1D7C, size: 0x8, addend: 0x0, symName: __RINvMs12_NtCsht3nMU9UgFu_3std4pathNtB7_4Path4joinRNtNtCsiTraAjBDcu4_5alloc6string6StringECsfpvTL5dBvDY_2cc, symObjAddr: 0x298, symBinAddr: 0x100064344, symSize: 0x7C }
  - { offset: 0xC1DBE, size: 0x8, addend: 0x0, symName: __RINvMs12_NtCsht3nMU9UgFu_3std4pathNtB7_4Path9ends_withRBw_ECsfpvTL5dBvDY_2cc, symObjAddr: 0x314, symBinAddr: 0x1000643C0, symSize: 0x80 }
  - { offset: 0xC1F4A, size: 0x8, addend: 0x0, symName: __RINvMs_NtNtCsaNl6UpbT7bw_4core3fmt2rtNtB7_9Arguments6new_v1Kj1_KBW_ECsfpvTL5dBvDY_2cc, symObjAddr: 0x394, symBinAddr: 0x100064440, symSize: 0x50 }
  - { offset: 0xC1FAE, size: 0x8, addend: 0x0, symName: __RINvMs_NtNtCsaNl6UpbT7bw_4core3fmt2rtNtB7_9Arguments6new_v1Kj2_KBW_ECsfpvTL5dBvDY_2cc, symObjAddr: 0x3E4, symBinAddr: 0x100064490, symSize: 0x50 }
  - { offset: 0xC2012, size: 0x8, addend: 0x0, symName: __RINvMs_NtNtCsaNl6UpbT7bw_4core3fmt2rtNtB7_9Arguments6new_v1Kj3_KBW_ECsfpvTL5dBvDY_2cc, symObjAddr: 0x434, symBinAddr: 0x1000644E0, symSize: 0x50 }
  - { offset: 0xC2042, size: 0x8, addend: 0x0, symName: __RINvMs_NtNtCsaNl6UpbT7bw_4core3fmt2rtNtB7_9Arguments6new_v1Kj3_Kj2_ECsfpvTL5dBvDY_2cc, symObjAddr: 0x484, symBinAddr: 0x100064530, symSize: 0x54 }
  - { offset: 0xC20A6, size: 0x8, addend: 0x0, symName: __RINvMs_NtNtCsaNl6UpbT7bw_4core3fmt2rtNtB7_9Arguments6new_v1Kj4_KBW_ECsfpvTL5dBvDY_2cc, symObjAddr: 0x4D8, symBinAddr: 0x100064584, symSize: 0x50 }
  - { offset: 0xC210A, size: 0x8, addend: 0x0, symName: __RINvMs_NtNtCsaNl6UpbT7bw_4core3fmt2rtNtB7_9Arguments6new_v1Kj5_KBW_ECsfpvTL5dBvDY_2cc, symObjAddr: 0x528, symBinAddr: 0x1000645D4, symSize: 0x50 }
  - { offset: 0xC216E, size: 0x8, addend: 0x0, symName: __RINvMs_NtNtCsaNl6UpbT7bw_4core3fmt2rtNtB7_9Arguments6new_v1Kj6_KBW_ECsfpvTL5dBvDY_2cc, symObjAddr: 0x578, symBinAddr: 0x100064624, symSize: 0x50 }
  - { offset: 0xC219E, size: 0x8, addend: 0x0, symName: __RINvMs_NtNtCsaNl6UpbT7bw_4core3fmt2rtNtB7_9Arguments9new_constKj1_ECsfpvTL5dBvDY_2cc, symObjAddr: 0x5C8, symBinAddr: 0x100064674, symSize: 0x48 }
  - { offset: 0xC21CD, size: 0x8, addend: 0x0, symName: __RINvMsr_NtCsht3nMU9UgFu_3std4pathNtB6_7PathBuf13set_extensionReECsfpvTL5dBvDY_2cc, symObjAddr: 0x610, symBinAddr: 0x1000646BC, symSize: 0x74 }
  - { offset: 0xC2208, size: 0x8, addend: 0x0, symName: __RINvMsr_NtCsht3nMU9UgFu_3std4pathNtB6_7PathBuf4pushReECsfpvTL5dBvDY_2cc, symObjAddr: 0x684, symBinAddr: 0x100064730, symSize: 0x6C }
  - { offset: 0xC237C, size: 0x8, addend: 0x0, symName: __RNvXs1_NtCsg4dki62PTrg_9hashbrown10scopeguardINtB5_10ScopeGuardNtNtB7_3raw13RawTableInnerNCINvMsa_B11_BZ_14prepare_resizeNtNtCsiTraAjBDcu4_5alloc5alloc6GlobalE0ENtNtNtCsaNl6UpbT7bw_4core3ops4drop4Drop4dropCsfpvTL5dBvDY_2cc, symObjAddr: 0x39F4, symBinAddr: 0x100067890, symSize: 0x2C }
  - { offset: 0xC23B6, size: 0x8, addend: 0x0, symName: __RNvXs1_NtCsg4dki62PTrg_9hashbrown10scopeguardINtB5_10ScopeGuardQNtNtB7_3raw13RawTableInnerNCNvMsa_B12_B10_15rehash_in_place0ENtNtNtCsaNl6UpbT7bw_4core3ops4drop4Drop4dropCsfpvTL5dBvDY_2cc, symObjAddr: 0x3A20, symBinAddr: 0x1000678BC, symSize: 0x2C }
  - { offset: 0xC27C7, size: 0x8, addend: 0x0, symName: __RNvMs12_NtCsht3nMU9UgFu_3std4pathNtB6_4Path15to_string_lossyCsfpvTL5dBvDY_2cc, symObjAddr: 0x23B8, symBinAddr: 0x100066300, symSize: 0x40 }
  - { offset: 0xC29FE, size: 0x8, addend: 0x0, symName: __RNvMs12_NtCsht3nMU9UgFu_3std4pathNtB6_4Path6existsCsfpvTL5dBvDY_2cc, symObjAddr: 0x23F8, symBinAddr: 0x100066340, symSize: 0x54 }
  - { offset: 0xC2A3F, size: 0x8, addend: 0x0, symName: __RNvMs12_NtCsht3nMU9UgFu_3std4pathNtB6_4Path7displayCsfpvTL5dBvDY_2cc, symObjAddr: 0x24E0, symBinAddr: 0x100066394, symSize: 0x18 }
  - { offset: 0xC2A62, size: 0x8, addend: 0x0, symName: __RNvMs12_NtCsht3nMU9UgFu_3std4pathNtB6_4Path9as_os_strCsfpvTL5dBvDY_2cc, symObjAddr: 0x24F8, symBinAddr: 0x1000663AC, symSize: 0x18 }
  - { offset: 0xC2AD6, size: 0x8, addend: 0x0, symName: __RNvMs9_NtCsaNl6UpbT7bw_4core3fmtNtB5_9Formatter9write_fmtCsfpvTL5dBvDY_2cc, symObjAddr: 0x2510, symBinAddr: 0x1000663C4, symSize: 0x17C }
  - { offset: 0xC2B74, size: 0x8, addend: 0x0, symName: __RNvMs_NtNtCsaNl6UpbT7bw_4core3fmt2rtNtB6_9Arguments16new_v1_formattedCsfpvTL5dBvDY_2cc, symObjAddr: 0x268C, symBinAddr: 0x100066540, symSize: 0x58 }
  - { offset: 0xC2BD4, size: 0x8, addend: 0x0, symName: __RNvMsr_NtCsht3nMU9UgFu_3std4pathNtB5_7PathBuf3newCsfpvTL5dBvDY_2cc, symObjAddr: 0x26FC, symBinAddr: 0x100066598, symSize: 0x50 }
  - { offset: 0xC2C72, size: 0x8, addend: 0x0, symName: __RNvMsr_NtCsht3nMU9UgFu_3std4pathNtB5_7PathBuf7as_pathCsfpvTL5dBvDY_2cc, symObjAddr: 0x274C, symBinAddr: 0x1000665E8, symSize: 0x34 }
  - { offset: 0xC36A5, size: 0x8, addend: 0x0, symName: __RINvMs4_NtNtCsaNl6UpbT7bw_4core4sync6atomicINtB6_9AtomicPtruE12fetch_updateNCNvMs1_NtNtNtNtCsht3nMU9UgFu_3std3sys4sync6rwlock5queueNtB1j_6RwLock11read_unlock0ECsfpvTL5dBvDY_2cc, symObjAddr: 0x0, symBinAddr: 0x10006865C, symSize: 0x15C }
  - { offset: 0xC3718, size: 0x8, addend: 0x0, symName: __RNvXs5_NtNtCsaNl6UpbT7bw_4core3num5errorNtB5_15TryFromIntErrorNtNtB9_3fmt5Debug3fmtCsfpvTL5dBvDY_2cc, symObjAddr: 0x2648, symBinAddr: 0x10006ACA4, symSize: 0x54 }
  - { offset: 0xC3758, size: 0x8, addend: 0x0, symName: __RNvXsb_NtNtCsaNl6UpbT7bw_4core3num5errorNtB5_13ParseIntErrorNtNtB9_3fmt5Debug3fmtCsfpvTL5dBvDY_2cc, symObjAddr: 0x2D1C, symBinAddr: 0x10006B378, symSize: 0x64 }
  - { offset: 0xC39E7, size: 0x8, addend: 0x0, symName: __RINvNtNtCsaNl6UpbT7bw_4core4sync6atomic11atomic_loadONtNtNtNtNtNtCsht3nMU9UgFu_3std3sys3pal4unix4sync5mutex5MutexECsfpvTL5dBvDY_2cc, symObjAddr: 0x2B8, symBinAddr: 0x100068914, symSize: 0x150 }
  - { offset: 0xC3A59, size: 0x8, addend: 0x0, symName: __RINvNtNtCsaNl6UpbT7bw_4core4sync6atomic11atomic_loadOuECsfpvTL5dBvDY_2cc, symObjAddr: 0x408, symBinAddr: 0x100068A64, symSize: 0x150 }
  - { offset: 0xC3ACB, size: 0x8, addend: 0x0, symName: __RINvNtNtCsaNl6UpbT7bw_4core4sync6atomic11atomic_loadhECsfpvTL5dBvDY_2cc, symObjAddr: 0x558, symBinAddr: 0x100068BB4, symSize: 0x150 }
  - { offset: 0xC3B3D, size: 0x8, addend: 0x0, symName: __RINvNtNtCsaNl6UpbT7bw_4core4sync6atomic11atomic_loadjECsfpvTL5dBvDY_2cc, symObjAddr: 0x6A8, symBinAddr: 0x100068D04, symSize: 0x150 }
  - { offset: 0xC3BAF, size: 0x8, addend: 0x0, symName: __RINvNtNtCsaNl6UpbT7bw_4core4sync6atomic12atomic_storehECsfpvTL5dBvDY_2cc, symObjAddr: 0x7F8, symBinAddr: 0x100068E54, symSize: 0x154 }
  - { offset: 0xC3C2C, size: 0x8, addend: 0x0, symName: __RINvNtNtCsaNl6UpbT7bw_4core4sync6atomic12atomic_storeyECsfpvTL5dBvDY_2cc, symObjAddr: 0x94C, symBinAddr: 0x100068FA8, symSize: 0x154 }
  - { offset: 0xC3CA9, size: 0x8, addend: 0x0, symName: __RINvNtNtCsaNl6UpbT7bw_4core4sync6atomic23atomic_compare_exchangeOuECsfpvTL5dBvDY_2cc, symObjAddr: 0xAA0, symBinAddr: 0x1000690FC, symSize: 0x514 }
  - { offset: 0xC3D70, size: 0x8, addend: 0x0, symName: __RINvNtNtCsaNl6UpbT7bw_4core4sync6atomic23atomic_compare_exchangehECsfpvTL5dBvDY_2cc, symObjAddr: 0xFB4, symBinAddr: 0x100069610, symSize: 0x54C }
  - { offset: 0xC3E35, size: 0x8, addend: 0x0, symName: __RINvNtNtCsaNl6UpbT7bw_4core4sync6atomic28atomic_compare_exchange_weakOuECsfpvTL5dBvDY_2cc, symObjAddr: 0x1500, symBinAddr: 0x100069B5C, symSize: 0x514 }
  - { offset: 0xC4FBD, size: 0x8, addend: 0x0, symName: __RINvXs_NtNtNtCsaNl6UpbT7bw_4core4iter8adapters6clonedINtB5_6ClonedINtNtNtBb_5slice4iter4IterRNtNtNtCsht3nMU9UgFu_3std3ffi6os_str5OsStrEENtNtNtB9_6traits8iterator8Iterator4folduQNCINvNtB7_3map8map_foldB1s_INtNtCsiTraAjBDcu4_5alloc5boxed3BoxB1t_EuNvYB1s_INtNtBb_7convert4IntoB3g_E4intoNCINvNvB2a_8for_each4callB3g_NCINvMsi_NtB3l_3vecINtB59_3VecB3g_E14extend_trustedINtB2U_3MapINtNtB7_5chain5ChainBP_IB5Q_IB13_NtNtB3l_6string6StringEINvMsl_B1v_B1t_3newB6x_EEEB3V_EE0E0E0ECsfpvTL5dBvDY_2cc, symObjAddr: 0x1A14, symBinAddr: 0x10006A070, symSize: 0xB8 }
  - { offset: 0xC5052, size: 0x8, addend: 0x0, symName: __RNvXs_NtNtNtCsaNl6UpbT7bw_4core4iter8adapters6clonedINtB4_6ClonedINtNtNtBa_5slice4iter4IterRNtNtNtCsht3nMU9UgFu_3std3ffi6os_str5OsStrEENtNtNtB8_6traits8iterator8Iterator9size_hintCsfpvTL5dBvDY_2cc, symObjAddr: 0x2C14, symBinAddr: 0x10006B270, symSize: 0x24 }
  - { offset: 0xC5174, size: 0x8, addend: 0x0, symName: __RINvYINtNtNtNtCsaNl6UpbT7bw_4core4iter8adapters6cloned6ClonedINtNtNtBc_5slice4iter4IterRNtNtNtCsht3nMU9UgFu_3std3ffi6os_str5OsStrEENtNtNtBa_6traits8iterator8Iterator5chainINtNtB8_3map3MapIBY_NtNtCsiTraAjBDcu4_5alloc6string6StringEINvMsl_B1q_B1o_3newB33_EEECsfpvTL5dBvDY_2cc, symObjAddr: 0x1ACC, symBinAddr: 0x10006A128, symSize: 0xD8 }
  - { offset: 0xC5848, size: 0x8, addend: 0x0, symName: __RNvNtNtCsaNl6UpbT7bw_4core4hash3sip9u8to64_leCsfpvTL5dBvDY_2cc, symObjAddr: 0x1DB0, symBinAddr: 0x10006A40C, symSize: 0x240 }
  - { offset: 0xC5A05, size: 0x8, addend: 0x0, symName: __RNvXs3_NtNtCsaNl6UpbT7bw_4core4hash3sipINtB5_6HasherNtB5_11Sip13RoundsENtB7_6Hasher5writeCsfpvTL5dBvDY_2cc, symObjAddr: 0x2314, symBinAddr: 0x10006A970, symSize: 0x238 }
  - { offset: 0xC5B7B, size: 0x8, addend: 0x0, symName: __RNvXs3_NtNtCsaNl6UpbT7bw_4core4hash3sipINtB5_6HasherNtB5_11Sip13RoundsENtB7_6Hasher6finishCsfpvTL5dBvDY_2cc, symObjAddr: 0x254C, symBinAddr: 0x10006ABA8, symSize: 0xA0 }
  - { offset: 0xC5BEE, size: 0x8, addend: 0x0, symName: __RNvXs3_NtNtCsaNl6UpbT7bw_4core4hash3sipINtB5_6HasherNtB5_11Sip13RoundsENtB7_6Hasher9write_strCsfpvTL5dBvDY_2cc, symObjAddr: 0x25EC, symBinAddr: 0x10006AC48, symSize: 0x5C }
  - { offset: 0xC5C54, size: 0x8, addend: 0x0, symName: __RNvXs6_NtNtCsaNl6UpbT7bw_4core4hash3sipNtB5_11Sip13RoundsNtB5_3Sip8c_roundsCsfpvTL5dBvDY_2cc, symObjAddr: 0x269C, symBinAddr: 0x10006ACF8, symSize: 0x170 }
  - { offset: 0xC5DCA, size: 0x8, addend: 0x0, symName: __RNvXs6_NtNtCsaNl6UpbT7bw_4core4hash3sipNtB5_11Sip13RoundsNtB5_3Sip8d_roundsCsfpvTL5dBvDY_2cc, symObjAddr: 0x280C, symBinAddr: 0x10006AE68, symSize: 0x408 }
  - { offset: 0xC6275, size: 0x8, addend: 0x0, symName: __RNvNvNtNtCsaNl6UpbT7bw_4core4char7convert18from_u32_unchecked18precondition_checkCsfpvTL5dBvDY_2cc, symObjAddr: 0x1FF0, symBinAddr: 0x10006A64C, symSize: 0x104 }
  - { offset: 0xC63C4, size: 0x8, addend: 0x0, symName: __RNvXNtNtNtCsaNl6UpbT7bw_4core5array4iter10iter_innerSINtNtNtB8_3mem12maybe_uninit11MaybeUninitNtNtNtCsht3nMU9UgFu_3std3ffi6os_str8OsStringENtB2_11PartialDrop12partial_dropCsfpvTL5dBvDY_2cc, symObjAddr: 0x20F4, symBinAddr: 0x10006A750, symSize: 0xC8 }
  - { offset: 0xC64D2, size: 0x8, addend: 0x0, symName: __RNvXNtNtNtCsaNl6UpbT7bw_4core5array4iter10iter_innerSINtNtNtB8_3mem12maybe_uninit11MaybeUninitReENtB2_11PartialDrop12partial_dropCsfpvTL5dBvDY_2cc, symObjAddr: 0x21BC, symBinAddr: 0x10006A818, symSize: 0xAC }
  - { offset: 0xC65DE, size: 0x8, addend: 0x0, symName: __RNvXNtNtNtCsaNl6UpbT7bw_4core5array4iter10iter_innerSINtNtNtB8_3mem12maybe_uninit11MaybeUninitbENtB2_11PartialDrop12partial_dropCsfpvTL5dBvDY_2cc, symObjAddr: 0x2268, symBinAddr: 0x10006A8C4, symSize: 0xAC }
  - { offset: 0xC66F0, size: 0x8, addend: 0x0, symName: __RNvXs_NtNtNtCsaNl6UpbT7bw_4core5array4iter10iter_innerAINtNtNtBa_3mem12maybe_uninit11MaybeUninitNtNtNtCsht3nMU9UgFu_3std3ffi6os_str8OsStringEj6_NtB4_11PartialDrop12partial_dropCsfpvTL5dBvDY_2cc, symObjAddr: 0x2C38, symBinAddr: 0x10006B294, symSize: 0x4C }
  - { offset: 0xC674C, size: 0x8, addend: 0x0, symName: __RNvXs_NtNtNtCsaNl6UpbT7bw_4core5array4iter10iter_innerAINtNtNtBa_3mem12maybe_uninit11MaybeUninitReEj2_NtB4_11PartialDrop12partial_dropCsfpvTL5dBvDY_2cc, symObjAddr: 0x2C84, symBinAddr: 0x10006B2E0, symSize: 0x4C }
  - { offset: 0xC67A8, size: 0x8, addend: 0x0, symName: __RNvXs_NtNtNtCsaNl6UpbT7bw_4core5array4iter10iter_innerAINtNtNtBa_3mem12maybe_uninit11MaybeUninitbEj20_NtB4_11PartialDrop12partial_dropCsfpvTL5dBvDY_2cc, symObjAddr: 0x2CD0, symBinAddr: 0x10006B32C, symSize: 0x4C }
  - { offset: 0xC6AFB, size: 0x8, addend: 0x0, symName: __RNCNvMNtNtCsfpvTL5dBvDY_2cc6target4llvmNtB6_10TargetInfo11llvm_target0B8_, symObjAddr: 0x4C54, symBinAddr: 0x10006D2B0, symSize: 0x38 }
  - { offset: 0xC6B7B, size: 0x8, addend: 0x0, symName: __RNvNtCsfpvTL5dBvDY_2cc8tempfile4rand, symObjAddr: 0x6050, symBinAddr: 0x10006E6AC, symSize: 0x50 }
  - { offset: 0xC6B98, size: 0x8, addend: 0x0, symName: __RNvNtCsfpvTL5dBvDY_2cc8tempfile7tmpname, symObjAddr: 0x60A0, symBinAddr: 0x10006E6FC, symSize: 0xB4 }
  - { offset: 0xC6C1C, size: 0x8, addend: 0x0, symName: __RNvNtCsfpvTL5dBvDY_2cc8tempfile12create_named, symObjAddr: 0x6154, symBinAddr: 0x10006E7B0, symSize: 0x94 }
  - { offset: 0xC6CCF, size: 0x8, addend: 0x0, symName: __RNvXs_NtCsfpvTL5dBvDY_2cc8tempfileNtB4_13NamedTempfileNtNtNtCsaNl6UpbT7bw_4core3ops4drop4Drop4drop, symObjAddr: 0x65B0, symBinAddr: 0x10006EC0C, symSize: 0x60 }
  - { offset: 0xC6D03, size: 0x8, addend: 0x0, symName: __RNvXNtCsfpvTL5dBvDY_2cc9utilitiesINtB2_10JoinOsStrsINtNtCsiTraAjBDcu4_5alloc4sync3ArcNtNtNtCsht3nMU9UgFu_3std3ffi6os_str5OsStrEENtNtCsaNl6UpbT7bw_4core3fmt7Display3fmtB4_, symObjAddr: 0x6610, symBinAddr: 0x10006EC6C, symSize: 0x21C }
  - { offset: 0xC6DF3, size: 0x8, addend: 0x0, symName: __RNvXs_NtCsfpvTL5dBvDY_2cc9utilitiesINtB4_18OptionOsStrDisplayRNtNtNtCsht3nMU9UgFu_3std3ffi6os_str5OsStrENtNtCsaNl6UpbT7bw_4core3fmt7Display3fmtB6_, symObjAddr: 0x682C, symBinAddr: 0x10006EE88, symSize: 0xEC }
  - { offset: 0xC6E77, size: 0x8, addend: 0x0, symName: __RNvXs0_NtCsfpvTL5dBvDY_2cc9utilitiesINtB5_8OnceLockINtNtCsaNl6UpbT7bw_4core6result6ResultNtNtNtB7_6target6parser21TargetInfoParserInnerNtB7_5ErrorEENtNtBS_7default7Default7defaultB7_, symObjAddr: 0x6918, symBinAddr: 0x10006EF74, symSize: 0x24 }
  - { offset: 0xC6F60, size: 0x8, addend: 0x0, symName: __RNCINvMs1_NtCsfpvTL5dBvDY_2cc9utilitiesINtB8_8OnceLockINtNtCsaNl6UpbT7bw_4core6result6ResultNtNtNtBa_6target6parser21TargetInfoParserInnerNtBa_5ErrorEE11get_or_initNvMB1u_B1s_32from_cargo_environment_variablesE0Ba_, symObjAddr: 0x6AF4, symBinAddr: 0x10006F150, symSize: 0x120 }
  - { offset: 0xC7029, size: 0x8, addend: 0x0, symName: __RNvXs7_NtCsfpvTL5dBvDY_2cc9utilitiesINtB5_8OnceLockINtNtCsaNl6UpbT7bw_4core6result6ResultNtNtNtB7_6target6parser21TargetInfoParserInnerNtB7_5ErrorEENtNtNtBS_3ops4drop4Drop4dropB7_, symObjAddr: 0x6C14, symBinAddr: 0x10006F270, symSize: 0x68 }
  - { offset: 0xC7600, size: 0x8, addend: 0x0, symName: __RINvMs4_NtNtCsaNl6UpbT7bw_4core4sync6atomicINtB6_9AtomicPtruE12fetch_updateNCNvMs1_NtNtNtNtCsht3nMU9UgFu_3std3sys4sync6rwlock5queueNtB1j_6RwLock11read_unlock0ECsfpvTL5dBvDY_2cc, symObjAddr: 0x0, symBinAddr: 0x10006865C, symSize: 0x15C }
  - { offset: 0xC77B0, size: 0x8, addend: 0x0, symName: __RINvMs4_NtNtCsaNl6UpbT7bw_4core4sync6atomicINtB6_9AtomicPtruE12fetch_updateNvNtNtNtNtCsht3nMU9UgFu_3std3sys4sync6rwlock5queue9read_lockECsfpvTL5dBvDY_2cc, symObjAddr: 0x15C, symBinAddr: 0x1000687B8, symSize: 0x15C }
  - { offset: 0xC7E8E, size: 0x8, addend: 0x0, symName: __RNvMs0_NtNtCsaNl6UpbT7bw_4core3mem12maybe_uninitINtB5_11MaybeUninitINtNtB9_6result6ResultNtNtNtCsfpvTL5dBvDY_2cc6target6parser21TargetInfoParserInnerNtB1v_5ErrorEE16assume_init_dropB1v_, symObjAddr: 0x1BA4, symBinAddr: 0x10006A200, symSize: 0x24 }
  - { offset: 0xC7EC7, size: 0x8, addend: 0x0, symName: __RNvMs0_NtNtCsaNl6UpbT7bw_4core4hash3sipINtB5_6HasherNtB5_11Sip13RoundsE5resetCsfpvTL5dBvDY_2cc, symObjAddr: 0x1BC8, symBinAddr: 0x10006A224, symSize: 0x8C }
  - { offset: 0xC7FA9, size: 0x8, addend: 0x0, symName: __RNvMs3_NtNtCsaNl6UpbT7bw_4core4sync6atomicNtB5_10AtomicBool16compare_exchangeCsfpvTL5dBvDY_2cc, symObjAddr: 0x1C54, symBinAddr: 0x10006A2B0, symSize: 0xD4 }
  - { offset: 0xC8186, size: 0x8, addend: 0x0, symName: __RNvMs3_NtNtCsaNl6UpbT7bw_4core4sync6atomicNtB5_10AtomicBool3newCsfpvTL5dBvDY_2cc, symObjAddr: 0x1D28, symBinAddr: 0x10006A384, symSize: 0x18 }
  - { offset: 0xC81B6, size: 0x8, addend: 0x0, symName: __RNvMsS_NtNtCsaNl6UpbT7bw_4core4sync6atomicNtB5_8AtomicU816compare_exchangeCsfpvTL5dBvDY_2cc, symObjAddr: 0x1D40, symBinAddr: 0x10006A39C, symSize: 0x40 }
  - { offset: 0xC8215, size: 0x8, addend: 0x0, symName: __RNvMsS_NtNtCsaNl6UpbT7bw_4core4sync6atomicNtB5_8AtomicU84loadCsfpvTL5dBvDY_2cc, symObjAddr: 0x1D80, symBinAddr: 0x10006A3DC, symSize: 0x30 }
  - { offset: 0xC8412, size: 0x8, addend: 0x0, symName: __RNvMNtNtCsfpvTL5dBvDY_2cc6target5appleNtB4_10TargetInfo14apple_sdk_name, symObjAddr: 0x2D80, symBinAddr: 0x10006B3DC, symSize: 0x4B4 }
  - { offset: 0xC846F, size: 0x8, addend: 0x0, symName: __RNvMNtNtCsfpvTL5dBvDY_2cc6target5appleNtB4_10TargetInfo18apple_version_flag, symObjAddr: 0x3234, symBinAddr: 0x10006B890, symSize: 0x760 }
  - { offset: 0xC8733, size: 0x8, addend: 0x0, symName: __RNvMNtNtCsfpvTL5dBvDY_2cc6target4llvmNtB4_10TargetInfo11llvm_target, symObjAddr: 0x3994, symBinAddr: 0x10006BFF0, symSize: 0x12C0 }
  - { offset: 0xC8B81, size: 0x8, addend: 0x0, symName: __RNvMs0_NtNtCsfpvTL5dBvDY_2cc6target6parserNtB7_10TargetInfo17from_rustc_target, symObjAddr: 0x4C8C, symBinAddr: 0x10006D2E8, symSize: 0x13C4 }
  - { offset: 0xC8FB4, size: 0x8, addend: 0x0, symName: __RNvMNtCsfpvTL5dBvDY_2cc8tempfileNtB2_13NamedTempfile3new, symObjAddr: 0x61E8, symBinAddr: 0x10006E844, symSize: 0x360 }
  - { offset: 0xC90B3, size: 0x8, addend: 0x0, symName: __RNvMNtCsfpvTL5dBvDY_2cc8tempfileNtB2_13NamedTempfile4path, symObjAddr: 0x6548, symBinAddr: 0x10006EBA4, symSize: 0x34 }
  - { offset: 0xC90E2, size: 0x8, addend: 0x0, symName: __RNvMNtCsfpvTL5dBvDY_2cc8tempfileNtB2_13NamedTempfile9take_file, symObjAddr: 0x657C, symBinAddr: 0x10006EBD8, symSize: 0x34 }
  - { offset: 0xC9120, size: 0x8, addend: 0x0, symName: __RNvMs1_NtCsfpvTL5dBvDY_2cc9utilitiesINtB5_8OnceLockINtNtCsaNl6UpbT7bw_4core6result6ResultNtNtNtB7_6target6parser21TargetInfoParserInnerNtB7_5ErrorEE3newB7_, symObjAddr: 0x693C, symBinAddr: 0x10006EF98, symSize: 0x78 }
  - { offset: 0xC9168, size: 0x8, addend: 0x0, symName: __RNvMs1_NtCsfpvTL5dBvDY_2cc9utilitiesINtB5_8OnceLockINtNtCsaNl6UpbT7bw_4core6result6ResultNtNtNtB7_6target6parser21TargetInfoParserInnerNtB7_5ErrorEE14is_initializedB7_, symObjAddr: 0x69B4, symBinAddr: 0x10006F010, symSize: 0x34 }
  - { offset: 0xC91A0, size: 0x8, addend: 0x0, symName: __RNvMs1_NtCsfpvTL5dBvDY_2cc9utilitiesINtB5_8OnceLockINtNtCsaNl6UpbT7bw_4core6result6ResultNtNtNtB7_6target6parser21TargetInfoParserInnerNtB7_5ErrorEE13get_uncheckedB7_, symObjAddr: 0x69E8, symBinAddr: 0x10006F044, symSize: 0xC0 }
  - { offset: 0xC91DD, size: 0x8, addend: 0x0, symName: __RINvMs1_NtCsfpvTL5dBvDY_2cc9utilitiesINtB6_8OnceLockINtNtCsaNl6UpbT7bw_4core6result6ResultNtNtNtB8_6target6parser21TargetInfoParserInnerNtB8_5ErrorEE11get_or_initNvMB1s_B1q_32from_cargo_environment_variablesEB8_, symObjAddr: 0x6AA8, symBinAddr: 0x10006F104, symSize: 0x4C }
  - { offset: 0xCA503, size: 0x8, addend: 0x0, symName: __RINvXNtNtNtNtCsht3nMU9UgFu_3std3sys12thread_local6native4lazyzNtB3_14DestroyedState13register_dtorINtNtCsaNl6UpbT7bw_4core4cell4CellTyyEEECsfpvTL5dBvDY_2cc, symObjAddr: 0x2AA8, symBinAddr: 0x1000719CC, symSize: 0x10 }
  - { offset: 0xCA735, size: 0x8, addend: 0x0, symName: __RNCNvMsd_NtNtCsht3nMU9UgFu_3std4sync14reentrant_lockNtB7_3Tid3set0CsfpvTL5dBvDY_2cc, symObjAddr: 0x2AB8, symBinAddr: 0x1000719DC, symSize: 0x10 }
  - { offset: 0xCA79D, size: 0x8, addend: 0x0, symName: __RNvXsc_NtNtCsht3nMU9UgFu_3std4sync14reentrant_lockINtB5_18ReentrantLockGuardINtNtCsaNl6UpbT7bw_4core4cell7RefCellINtNtNtNtB9_2io8buffered10linewriter10LineWriterNtNtB1U_5stdio9StdoutRawEEENtNtNtB1h_3ops4drop4Drop4dropCsfpvTL5dBvDY_2cc, symObjAddr: 0x47BC, symBinAddr: 0x1000736DC, symSize: 0xE8 }
  - { offset: 0xCB342, size: 0x8, addend: 0x0, symName: __RNvXs7_NtNtCsaNl6UpbT7bw_4core3cmp5implsRbNtB7_9PartialEq2eqCsfpvTL5dBvDY_2cc, symObjAddr: 0x3DF4, symBinAddr: 0x100072D14, symSize: 0x34 }
  - { offset: 0xCB391, size: 0x8, addend: 0x0, symName: __RNvXs7_NtNtCsaNl6UpbT7bw_4core3cmp5implsReNtB7_9PartialEq2eqCsfpvTL5dBvDY_2cc, symObjAddr: 0x3E28, symBinAddr: 0x100072D48, symSize: 0x44 }
  - { offset: 0xCB3E0, size: 0x8, addend: 0x0, symName: __RNvXs7_NtNtCsaNl6UpbT7bw_4core3cmp5implsReNtB7_9PartialEq2neCsfpvTL5dBvDY_2cc, symObjAddr: 0x3E6C, symBinAddr: 0x100072D8C, symSize: 0x44 }
  - { offset: 0xCB435, size: 0x8, addend: 0x0, symName: __RNvXs9_NtNtCsaNl6UpbT7bw_4core3cmp5implsReNtB7_3Ord3cmpCsfpvTL5dBvDY_2cc, symObjAddr: 0x3EB0, symBinAddr: 0x100072DD0, symSize: 0x44 }
  - { offset: 0xCB481, size: 0x8, addend: 0x0, symName: __RNvXsh_NtNtCsaNl6UpbT7bw_4core3cmp5implsbNtB7_9PartialEq2eqCsfpvTL5dBvDY_2cc, symObjAddr: 0x4B54, symBinAddr: 0x100073A74, symSize: 0x34 }
  - { offset: 0xCB4C4, size: 0x8, addend: 0x0, symName: __RNvXsi_NtNtCsaNl6UpbT7bw_4core3cmp5implscNtB7_9PartialEq2eqCsfpvTL5dBvDY_2cc, symObjAddr: 0x4B88, symBinAddr: 0x100073AA8, symSize: 0x2C }
  - { offset: 0xCB508, size: 0x8, addend: 0x0, symName: __RNvYINtNtCsaNl6UpbT7bw_4core6option6OptionReENtNtB7_3cmp9PartialEq2neCsfpvTL5dBvDY_2cc, symObjAddr: 0x4BFC, symBinAddr: 0x100073B1C, symSize: 0x30 }
  - { offset: 0xCB557, size: 0x8, addend: 0x0, symName: __RNvYINtNtCsaNl6UpbT7bw_4core6option6OptioncENtNtB7_3cmp9PartialEq2neCsfpvTL5dBvDY_2cc, symObjAddr: 0x4C2C, symBinAddr: 0x100073B4C, symSize: 0x30 }
  - { offset: 0xCE08C, size: 0x8, addend: 0x0, symName: __RNvXs3_NtCsaNl6UpbT7bw_4core6optionINtB5_6OptionINtNtCsiTraAjBDcu4_5alloc4sync3ArcNtNtNtCsht3nMU9UgFu_3std3ffi6os_str5OsStrEENtNtB7_5clone5Clone5cloneCsfpvTL5dBvDY_2cc, symObjAddr: 0x3C24, symBinAddr: 0x100072B44, symSize: 0x64 }
  - { offset: 0xCE0E1, size: 0x8, addend: 0x0, symName: __RNvXs3_NtCsaNl6UpbT7bw_4core6optionINtB5_6OptionNtNtCsfpvTL5dBvDY_2cc4tool4ToolENtNtB7_5clone5Clone5cloneBO_, symObjAddr: 0x3C88, symBinAddr: 0x100072BA8, symSize: 0x80 }
  - { offset: 0xCE136, size: 0x8, addend: 0x0, symName: __RNvXs3_NtCsaNl6UpbT7bw_4core6optionINtB5_6OptionNtNtCsht3nMU9UgFu_3std4path7PathBufENtNtB7_5clone5Clone5cloneCsfpvTL5dBvDY_2cc, symObjAddr: 0x3D08, symBinAddr: 0x100072C28, symSize: 0x7C }
  - { offset: 0xCE191, size: 0x8, addend: 0x0, symName: __RNvXs5_NtCsaNl6UpbT7bw_4core6optionINtB5_6OptionReENtNtB7_7default7Default7defaultCsfpvTL5dBvDY_2cc, symObjAddr: 0x3DAC, symBinAddr: 0x100072CCC, symSize: 0x18 }
  - { offset: 0xCE1B9, size: 0x8, addend: 0x0, symName: __RNvXs5_NtCsaNl6UpbT7bw_4core6optionINtB5_6OptionbENtNtB7_7default7Default7defaultCsfpvTL5dBvDY_2cc, symObjAddr: 0x3DC4, symBinAddr: 0x100072CE4, symSize: 0x18 }
  - { offset: 0xCE1E1, size: 0x8, addend: 0x0, symName: __RNvXs5_NtCsaNl6UpbT7bw_4core6optionINtB5_6OptionmENtNtB7_7default7Default7defaultCsfpvTL5dBvDY_2cc, symObjAddr: 0x3DDC, symBinAddr: 0x100072CFC, symSize: 0x18 }
  - { offset: 0xCE20F, size: 0x8, addend: 0x0, symName: __RNvXsC_NtCsaNl6UpbT7bw_4core6optionINtB5_6OptionINtNtCsiTraAjBDcu4_5alloc3vec3VechEENtNtNtB7_3ops9try_trait3Try6branchCsfpvTL5dBvDY_2cc, symObjAddr: 0x3EF4, symBinAddr: 0x100072E14, symSize: 0x68 }
  - { offset: 0xCE265, size: 0x8, addend: 0x0, symName: __RNvXsC_NtCsaNl6UpbT7bw_4core6optionINtB5_6OptionINtNtCsiTraAjBDcu4_5alloc4sync3ArcNtNtNtCsht3nMU9UgFu_3std3ffi6os_str5OsStrEENtNtNtB7_3ops9try_trait3Try6branchCsfpvTL5dBvDY_2cc, symObjAddr: 0x3F5C, symBinAddr: 0x100072E7C, symSize: 0x54 }
  - { offset: 0xCE2BA, size: 0x8, addend: 0x0, symName: __RNvXsC_NtCsaNl6UpbT7bw_4core6optionINtB5_6OptionNtNtCsfpvTL5dBvDY_2cc4tool4ToolENtNtNtB7_3ops9try_trait3Try6branchBO_, symObjAddr: 0x3FB0, symBinAddr: 0x100072ED0, symSize: 0x78 }
  - { offset: 0xCE310, size: 0x8, addend: 0x0, symName: __RNvXsC_NtCsaNl6UpbT7bw_4core6optionINtB5_6OptionNtNtCsfpvTL5dBvDY_2cc6target10TargetInfoENtNtNtB7_3ops9try_trait3Try6branchBO_, symObjAddr: 0x4028, symBinAddr: 0x100072F48, symSize: 0x70 }
  - { offset: 0xCE366, size: 0x8, addend: 0x0, symName: __RNvXsC_NtCsaNl6UpbT7bw_4core6optionINtB5_6OptionNtNtCsht3nMU9UgFu_3std7process10ExitStatusENtNtNtB7_3ops9try_trait3Try6branchCsfpvTL5dBvDY_2cc, symObjAddr: 0x4098, symBinAddr: 0x100072FB8, symSize: 0x50 }
  - { offset: 0xCE3BB, size: 0x8, addend: 0x0, symName: __RNvXsC_NtCsaNl6UpbT7bw_4core6optionINtB5_6OptionRNtNtNtCsht3nMU9UgFu_3std3ffi6os_str5OsStrENtNtNtB7_3ops9try_trait3Try6branchCsfpvTL5dBvDY_2cc, symObjAddr: 0x40E8, symBinAddr: 0x100073008, symSize: 0x54 }
  - { offset: 0xCE410, size: 0x8, addend: 0x0, symName: __RNvXsC_NtCsaNl6UpbT7bw_4core6optionINtB5_6OptionReENtNtNtB7_3ops9try_trait3Try6branchCsfpvTL5dBvDY_2cc, symObjAddr: 0x413C, symBinAddr: 0x10007305C, symSize: 0x54 }
  - { offset: 0xCE46B, size: 0x8, addend: 0x0, symName: __RNvXsD_NtCsaNl6UpbT7bw_4core6optionINtB5_6OptionINtNtCsiTraAjBDcu4_5alloc4sync3ArcNtNtNtCsht3nMU9UgFu_3std3ffi6os_str5OsStrEEINtNtNtB7_3ops9try_trait12FromResidualIBy_NtNtB7_7convert10InfallibleEE13from_residualCsfpvTL5dBvDY_2cc, symObjAddr: 0x4190, symBinAddr: 0x1000730B0, symSize: 0x18 }
  - { offset: 0xCE49E, size: 0x8, addend: 0x0, symName: __RNvXsD_NtCsaNl6UpbT7bw_4core6optionINtB5_6OptionINtNtCsiTraAjBDcu4_5alloc4sync3ArceEEINtNtNtB7_3ops9try_trait12FromResidualIBy_NtNtB7_7convert10InfallibleEE13from_residualCsfpvTL5dBvDY_2cc, symObjAddr: 0x41A8, symBinAddr: 0x1000730C8, symSize: 0x18 }
  - { offset: 0xCE4D1, size: 0x8, addend: 0x0, symName: __RNvXsD_NtCsaNl6UpbT7bw_4core6optionINtB5_6OptionNtNtCsht3nMU9UgFu_3std4path7PathBufEINtNtNtB7_3ops9try_trait12FromResidualIBy_NtNtB7_7convert10InfallibleEE13from_residualCsfpvTL5dBvDY_2cc, symObjAddr: 0x41C0, symBinAddr: 0x1000730E0, symSize: 0x18 }
  - { offset: 0xCE504, size: 0x8, addend: 0x0, symName: __RNvXsD_NtCsaNl6UpbT7bw_4core6optionINtB5_6OptionNtNtCsht3nMU9UgFu_3std7process7CommandEINtNtNtB7_3ops9try_trait12FromResidualIBy_NtNtB7_7convert10InfallibleEE13from_residualCsfpvTL5dBvDY_2cc, symObjAddr: 0x41D8, symBinAddr: 0x1000730F8, symSize: 0x18 }
  - { offset: 0xCE537, size: 0x8, addend: 0x0, symName: __RNvXsD_NtCsaNl6UpbT7bw_4core6optionINtB5_6OptionNtNtCsiTraAjBDcu4_5alloc6string6StringEINtNtNtB7_3ops9try_trait12FromResidualIBy_NtNtB7_7convert10InfallibleEE13from_residualCsfpvTL5dBvDY_2cc, symObjAddr: 0x41F0, symBinAddr: 0x100073110, symSize: 0x18 }
  - { offset: 0xCE56A, size: 0x8, addend: 0x0, symName: __RNvXsD_NtCsaNl6UpbT7bw_4core6optionINtB5_6OptionTNtNtCsht3nMU9UgFu_3std4path7PathBufIBy_INtNtCsiTraAjBDcu4_5alloc4sync3ArcNtNtNtBP_3ffi6os_str5OsStrEEINtNtB1t_3vec3VecNtNtB1t_6string6StringEEEINtNtNtB7_3ops9try_trait12FromResidualIBy_NtNtB7_7convert10InfallibleEE13from_residualCsfpvTL5dBvDY_2cc, symObjAddr: 0x4208, symBinAddr: 0x100073128, symSize: 0x18 }
  - { offset: 0xCE59D, size: 0x8, addend: 0x0, symName: __RNvXsD_NtCsaNl6UpbT7bw_4core6optionINtB5_6OptionmEINtNtNtB7_3ops9try_trait12FromResidualIBy_NtNtB7_7convert10InfallibleEE13from_residualCsfpvTL5dBvDY_2cc, symObjAddr: 0x4220, symBinAddr: 0x100073140, symSize: 0x18 }
  - { offset: 0xCE5D6, size: 0x8, addend: 0x0, symName: __RNvXsd_NtCsaNl6UpbT7bw_4core6optionINtB5_6OptionNtCsfpvTL5dBvDY_2cc10AsmFileExtENtNtB7_3cmp9PartialEq2eqBM_, symObjAddr: 0x48A4, symBinAddr: 0x1000737C4, symSize: 0xAC }
  - { offset: 0xCE64A, size: 0x8, addend: 0x0, symName: __RNvXsd_NtCsaNl6UpbT7bw_4core6optionINtB5_6OptionRNtNtNtCsht3nMU9UgFu_3std3ffi6os_str5OsStrENtNtB7_3cmp9PartialEq2eqCsfpvTL5dBvDY_2cc, symObjAddr: 0x4950, symBinAddr: 0x100073870, symSize: 0xAC }
  - { offset: 0xCE6BE, size: 0x8, addend: 0x0, symName: __RNvXsd_NtCsaNl6UpbT7bw_4core6optionINtB5_6OptionReENtNtB7_3cmp9PartialEq2eqCsfpvTL5dBvDY_2cc, symObjAddr: 0x49FC, symBinAddr: 0x10007391C, symSize: 0xAC }
  - { offset: 0xCE732, size: 0x8, addend: 0x0, symName: __RNvXsd_NtCsaNl6UpbT7bw_4core6optionINtB5_6OptioncENtNtB7_3cmp9PartialEq2eqCsfpvTL5dBvDY_2cc, symObjAddr: 0x4AA8, symBinAddr: 0x1000739C8, symSize: 0xAC }
  - { offset: 0xD0000, size: 0x8, addend: 0x0, symName: __RNvMNtNtCsaNl6UpbT7bw_4core4char7methodsc13is_whitespaceCsfpvTL5dBvDY_2cc, symObjAddr: 0x356C, symBinAddr: 0x100072490, symSize: 0x90 }
  - { offset: 0xD0044, size: 0x8, addend: 0x0, symName: __RNvMNtNtCsaNl6UpbT7bw_4core4char7methodsc8to_digitCsfpvTL5dBvDY_2cc, symObjAddr: 0x35FC, symBinAddr: 0x100072520, symSize: 0x14C }
  - { offset: 0xD0144, size: 0x8, addend: 0x0, symName: __RNvNtNtCsaNl6UpbT7bw_4core4char7methods15encode_utf8_rawCsfpvTL5dBvDY_2cc, symObjAddr: 0x39B8, symBinAddr: 0x1000728D8, symSize: 0x110 }
  - { offset: 0xD0244, size: 0x8, addend: 0x0, symName: __RNvNtNtCsaNl6UpbT7bw_4core4char7methods25encode_utf8_raw_uncheckedCsfpvTL5dBvDY_2cc, symObjAddr: 0x3AC8, symBinAddr: 0x1000729E8, symSize: 0x14C }
  - { offset: 0xD064E, size: 0x8, addend: 0x0, symName: __RNvXs3_NtNtCsaNl6UpbT7bw_4core3str7patternNvMNtNtB9_4char7methodsc13is_whitespaceNtB5_11MultiCharEq7matchesCsfpvTL5dBvDY_2cc, symObjAddr: 0x3D84, symBinAddr: 0x100072CA4, symSize: 0x28 }
  - { offset: 0xD069A, size: 0x8, addend: 0x0, symName: __RNvXsr_NtNtCsaNl6UpbT7bw_4core3str7patternNvMNtNtB9_4char7methodsc13is_whitespaceNtB5_7Pattern13into_searcherCsfpvTL5dBvDY_2cc, symObjAddr: 0x4BB4, symBinAddr: 0x100073AD4, symSize: 0x48 }
  - { offset: 0xD0A7A, size: 0x8, addend: 0x0, symName: __RNvXs_NtCsiTraAjBDcu4_5alloc5allocNtB4_6GlobalNtNtCsaNl6UpbT7bw_4core5alloc9Allocator10deallocateCsfpvTL5dBvDY_2cc, symObjAddr: 0x4238, symBinAddr: 0x100073158, symSize: 0x80 }
  - { offset: 0xD0B9A, size: 0x8, addend: 0x0, symName: __RNvXs_NtCsiTraAjBDcu4_5alloc5allocNtB4_6GlobalNtNtCsaNl6UpbT7bw_4core5alloc9Allocator6shrinkCsfpvTL5dBvDY_2cc, symObjAddr: 0x42B8, symBinAddr: 0x1000731D8, symSize: 0x4D0 }
  - { offset: 0xD12C7, size: 0x8, addend: 0x0, symName: __RNvXs_NtCsiTraAjBDcu4_5alloc5allocNtB4_6GlobalNtNtCsaNl6UpbT7bw_4core5alloc9Allocator8allocateCsfpvTL5dBvDY_2cc, symObjAddr: 0x4788, symBinAddr: 0x1000736A8, symSize: 0x34 }
  - { offset: 0xD1302, size: 0x8, addend: 0x0, symName: __RNvNtCsiTraAjBDcu4_5alloc5alloc15exchange_mallocCsfpvTL5dBvDY_2cc, symObjAddr: 0x390C, symBinAddr: 0x10007282C, symSize: 0xAC }
  - { offset: 0xD139E, size: 0x8, addend: 0x0, symName: __RNvXs1_NtCsiTraAjBDcu4_5alloc5allocNtB5_6GlobalNtNtCsaNl6UpbT7bw_4core5clone5Clone5cloneCsfpvTL5dBvDY_2cc, symObjAddr: 0x3C14, symBinAddr: 0x100072B34, symSize: 0x10 }
  - { offset: 0xD1C69, size: 0x8, addend: 0x0, symName: __RINvMNtCsaNl6UpbT7bw_4core6optionINtB3_6OptionINtNtCsiTraAjBDcu4_5alloc4sync3ArcNtNtNtCsht3nMU9UgFu_3std3ffi6os_str5OsStrEE3mapNtNtCsgGwrKXH7Od_15find_msvc_tools10find_tools3EnvNcNtB21_5Arced0ECsfpvTL5dBvDY_2cc, symObjAddr: 0x98, symBinAddr: 0x10006F2D8, symSize: 0x78 }
  - { offset: 0xD21B5, size: 0x8, addend: 0x0, symName: __RINvMNtCsaNl6UpbT7bw_4core6optionINtB3_6OptionINtNtCsiTraAjBDcu4_5alloc4sync3ArcNtNtNtCsht3nMU9UgFu_3std3ffi6os_str5OsStrEE7or_elseNCNCNvMs4_CsfpvTL5dBvDY_2ccNtB2f_5Build23apple_deployment_targets_0s0_0EB2f_, symObjAddr: 0x110, symBinAddr: 0x10006F350, symSize: 0xE8 }
  - { offset: 0xD2217, size: 0x8, addend: 0x0, symName: __RINvMNtCsaNl6UpbT7bw_4core6optionINtB3_6OptionINtNtCsiTraAjBDcu4_5alloc4sync3ArcNtNtNtCsht3nMU9UgFu_3std3ffi6os_str5OsStrEE7or_elseNCNvMs4_CsfpvTL5dBvDY_2ccNtB2d_5Build6getenvs0_0EB2d_, symObjAddr: 0x1F8, symBinAddr: 0x10006F438, symSize: 0xDC }
  - { offset: 0xD2279, size: 0x8, addend: 0x0, symName: __RINvMNtCsaNl6UpbT7bw_4core6optionINtB3_6OptionINtNtCsiTraAjBDcu4_5alloc4sync3ArcNtNtNtCsht3nMU9UgFu_3std3ffi6os_str5OsStrEE8and_thenINtNtBN_6borrow3CoweENCNCNvMs4_CsfpvTL5dBvDY_2ccNtB2B_5Build17prefix_for_targets_00EB2B_, symObjAddr: 0x2D4, symBinAddr: 0x10006F514, symSize: 0x64 }
  - { offset: 0xD233D, size: 0x8, addend: 0x0, symName: __RINvMNtCsaNl6UpbT7bw_4core6optionINtB3_6OptionINtNtCsiTraAjBDcu4_5alloc4sync3ArceEE14unwrap_or_elseNCNvMs4_CsfpvTL5dBvDY_2ccNtB1H_5Build23apple_deployment_targets1_0EB1H_, symObjAddr: 0x338, symBinAddr: 0x10006F578, symSize: 0x80 }
  - { offset: 0xD239F, size: 0x8, addend: 0x0, symName: __RINvMNtCsaNl6UpbT7bw_4core6optionINtB3_6OptionINtNtCsiTraAjBDcu4_5alloc4sync3ArceEE14unwrap_or_elseNCNvMs4_CsfpvTL5dBvDY_2ccNtB1H_5Build23apple_deployment_targets2_0EB1H_, symObjAddr: 0x3B8, symBinAddr: 0x10006F5F8, symSize: 0x68 }
  - { offset: 0xD2401, size: 0x8, addend: 0x0, symName: __RINvMNtCsaNl6UpbT7bw_4core6optionINtB3_6OptionINtNtCsiTraAjBDcu4_5alloc4sync3ArceEE14unwrap_or_elseNCNvMs4_CsfpvTL5dBvDY_2ccNtB1H_5Build23apple_deployment_targets3_0EB1H_, symObjAddr: 0x420, symBinAddr: 0x10006F660, symSize: 0x68 }
  - { offset: 0xD2463, size: 0x8, addend: 0x0, symName: __RINvMNtCsaNl6UpbT7bw_4core6optionINtB3_6OptionINtNtCsiTraAjBDcu4_5alloc4sync3ArceEE14unwrap_or_elseNCNvMs4_CsfpvTL5dBvDY_2ccNtB1H_5Build23apple_deployment_targets4_0EB1H_, symObjAddr: 0x488, symBinAddr: 0x10006F6C8, symSize: 0x68 }
  - { offset: 0xD24C5, size: 0x8, addend: 0x0, symName: __RINvMNtCsaNl6UpbT7bw_4core6optionINtB3_6OptionINtNtCsiTraAjBDcu4_5alloc4sync3ArceEE14unwrap_or_elseNCNvMs4_CsfpvTL5dBvDY_2ccNtB1H_5Build23apple_deployment_targets5_0EB1H_, symObjAddr: 0x4F0, symBinAddr: 0x10006F730, symSize: 0x68 }
  - { offset: 0xD2527, size: 0x8, addend: 0x0, symName: __RINvMNtCsaNl6UpbT7bw_4core6optionINtB3_6OptionINtNtCsiTraAjBDcu4_5alloc4sync3ArceEE7or_elseNCNvMs4_CsfpvTL5dBvDY_2ccNtB1z_5Build23apple_deployment_target0EB1z_, symObjAddr: 0x558, symBinAddr: 0x10006F798, symSize: 0xE8 }
  - { offset: 0xD2589, size: 0x8, addend: 0x0, symName: __RINvMNtCsaNl6UpbT7bw_4core6optionINtB3_6OptionINtNtCsiTraAjBDcu4_5alloc4sync3ArceEE8and_thenBI_NCNvMs4_CsfpvTL5dBvDY_2ccNtB1D_5Build23apple_deployment_targets0_0EB1D_, symObjAddr: 0x640, symBinAddr: 0x10006F880, symSize: 0x7C }
  - { offset: 0xD2612, size: 0x8, addend: 0x0, symName: __RINvMNtCsaNl6UpbT7bw_4core6optionINtB3_6OptionINtNtCsiTraAjBDcu4_5alloc6borrow3CowNtNtCsht3nMU9UgFu_3std4path4PathEE10ok_or_elseNtCsfpvTL5dBvDY_2cc5ErrorNCNvMs4_B24_NtB24_5Build11get_out_dir0EB24_, symObjAddr: 0x6BC, symBinAddr: 0x10006F8FC, symSize: 0x8C }
  - { offset: 0xD267E, size: 0x8, addend: 0x0, symName: __RINvMNtCsaNl6UpbT7bw_4core6optionINtB3_6OptionINtNtCsiTraAjBDcu4_5alloc6borrow3CowNtNtCsht3nMU9UgFu_3std4path4PathEE14unwrap_or_elseNCNvNvMNtCsfpvTL5dBvDY_2cc4toolNtB2d_4Tool13with_features19detect_family_inner0EB2f_, symObjAddr: 0x748, symBinAddr: 0x10006F988, symSize: 0x70 }
  - { offset: 0xD26E1, size: 0x8, addend: 0x0, symName: __RINvMNtCsaNl6UpbT7bw_4core6optionINtB3_6OptionINtNtCsiTraAjBDcu4_5alloc6borrow3CoweEE7or_elseNCNvMs4_CsfpvTL5dBvDY_2ccNtB1B_5Build17prefix_for_targets0_0EB1B_, symObjAddr: 0x7B8, symBinAddr: 0x10006F9F8, symSize: 0xE0 }
  - { offset: 0xD2744, size: 0x8, addend: 0x0, symName: __RINvMNtCsaNl6UpbT7bw_4core6optionINtB3_6OptionINtNtCsiTraAjBDcu4_5alloc6borrow3CoweEE7or_elseNCNvMs4_CsfpvTL5dBvDY_2ccNtB1B_5Build17prefix_for_targets_0EB1B_, symObjAddr: 0x898, symBinAddr: 0x10006FAD8, symSize: 0xD4 }
  - { offset: 0xD27BF, size: 0x8, addend: 0x0, symName: __RINvMNtCsaNl6UpbT7bw_4core6optionINtB3_6OptionINtNtNtB5_3num7nonzero7NonZerojEE6map_orINtNtB5_6result6ResultuBI_ENcNtB1m_3Err0ECsfpvTL5dBvDY_2cc, symObjAddr: 0x96C, symBinAddr: 0x10006FBAC, symSize: 0xA8 }
  - { offset: 0xD2995, size: 0x8, addend: 0x0, symName: __RINvMNtCsaNl6UpbT7bw_4core6optionINtB3_6OptionNtNtCsfpvTL5dBvDY_2cc4tool4ToolE3mapNtNtCsht3nMU9UgFu_3std7process7CommandNCNvMs4_BM_NtBM_5Build20find_msvc_tools_find0EBM_, symObjAddr: 0xA14, symBinAddr: 0x10006FC54, symSize: 0xA8 }
  - { offset: 0xD2A0E, size: 0x8, addend: 0x0, symName: __RINvMNtCsaNl6UpbT7bw_4core6optionINtB3_6OptionNtNtCsfpvTL5dBvDY_2cc4tool4ToolE7or_elseNCNvMs4_BM_NtBM_5Build17get_base_compilers0_0EBM_, symObjAddr: 0xABC, symBinAddr: 0x10006FCFC, symSize: 0xD8 }
  - { offset: 0xD2A7E, size: 0x8, addend: 0x0, symName: __RINvMNtCsaNl6UpbT7bw_4core6optionINtB3_6OptionNtNtCsfpvTL5dBvDY_2cc4tool4ToolE7or_elseNCNvMs4_BM_NtBM_5Build17get_base_compilers_0EBM_, symObjAddr: 0xB94, symBinAddr: 0x10006FDD4, symSize: 0xF0 }
  - { offset: 0xD2AFA, size: 0x8, addend: 0x0, symName: __RINvMNtCsaNl6UpbT7bw_4core6optionINtB3_6OptionNtNtCsgGwrKXH7Od_15find_msvc_tools4tool4ToolE3mapNtNtCsfpvTL5dBvDY_2cc4tool4ToolNvMB1x_B1v_20from_find_msvc_toolsEB1z_, symObjAddr: 0xC84, symBinAddr: 0x10006FEC4, symSize: 0xA8 }
  - { offset: 0xD2B7E, size: 0x8, addend: 0x0, symName: __RINvMNtCsaNl6UpbT7bw_4core6optionINtB3_6OptionNtNtCsht3nMU9UgFu_3std4path7PathBufE3mapINtNtCsiTraAjBDcu4_5alloc6borrow3CowNtBK_4PathENcNtB1m_5Owned0ECsfpvTL5dBvDY_2cc, symObjAddr: 0xD2C, symBinAddr: 0x10006FF6C, symSize: 0x90 }
  - { offset: 0xD2BEA, size: 0x8, addend: 0x0, symName: __RINvMNtCsaNl6UpbT7bw_4core6optionINtB3_6OptionNtNtCsht3nMU9UgFu_3std4path7PathBufE3mapNtNtBM_7process7CommandNCNCNvMs4_CsfpvTL5dBvDY_2ccNtB1T_5Build25get_base_archiver_variants_00EB1T_, symObjAddr: 0xDBC, symBinAddr: 0x10006FFFC, symSize: 0xA8 }
  - { offset: 0xD2C63, size: 0x8, addend: 0x0, symName: __RINvMNtCsaNl6UpbT7bw_4core6optionINtB3_6OptionNtNtCsht3nMU9UgFu_3std4path7PathBufE7or_elseNCNvMs4_CsfpvTL5dBvDY_2ccNtB1y_5Build25get_base_archiver_variants0_0EB1y_, symObjAddr: 0xE64, symBinAddr: 0x1000700A4, symSize: 0xE0 }
  - { offset: 0xD2CE0, size: 0x8, addend: 0x0, symName: __RINvMNtCsaNl6UpbT7bw_4core6optionINtB3_6OptionNtNtCsht3nMU9UgFu_3std4path7PathBufE7or_elseNCNvMs4_CsfpvTL5dBvDY_2ccNtB1y_5Build5whichs_0EB1y_, symObjAddr: 0xF44, symBinAddr: 0x100070184, symSize: 0xE0 }
  - { offset: 0xD2D43, size: 0x8, addend: 0x0, symName: __RINvMNtCsaNl6UpbT7bw_4core6optionINtB3_6OptionNtNtCsht3nMU9UgFu_3std6thread8ThreadIdE6map_oryNCNvMsd_NtNtBM_4sync14reentrant_lockNtB1B_3Tid3set0ECsfpvTL5dBvDY_2cc, symObjAddr: 0x1024, symBinAddr: 0x100070264, symSize: 0xA8 }
  - { offset: 0xD2DD3, size: 0x8, addend: 0x0, symName: __RINvMNtCsaNl6UpbT7bw_4core6optionINtB3_6OptionNtNtCsht3nMU9UgFu_3std7process11ChildStderrE3mapTBI_INtNtCsiTraAjBDcu4_5alloc3vec3VechEENCNvMs_NtCsfpvTL5dBvDY_2cc15command_helpersNtB2f_15StderrForwarder3new0EB2h_, symObjAddr: 0x10CC, symBinAddr: 0x10007030C, symSize: 0x6C }
  - { offset: 0xD2E3E, size: 0x8, addend: 0x0, symName: __RINvMNtCsaNl6UpbT7bw_4core6optionINtB3_6OptionNtNtCsht3nMU9UgFu_3std7process7CommandE14unwrap_or_elseNCNvMs4_CsfpvTL5dBvDY_2ccNtB1J_5Build20msvc_macro_assembler0EB1J_, symObjAddr: 0x1138, symBinAddr: 0x100070378, symSize: 0x94 }
  - { offset: 0xD2EAE, size: 0x8, addend: 0x0, symName: __RINvMNtCsaNl6UpbT7bw_4core6optionINtB3_6OptionNtNtCsht3nMU9UgFu_3std7process7CommandE7or_elseNCNvMs4_CsfpvTL5dBvDY_2ccNtB1B_5Build25get_base_archiver_variants_0EB1B_, symObjAddr: 0x11CC, symBinAddr: 0x10007040C, symSize: 0xFC }
  - { offset: 0xD2F12, size: 0x8, addend: 0x0, symName: __RINvMNtCsaNl6UpbT7bw_4core6optionINtB3_6OptionNtNtCsiTraAjBDcu4_5alloc6string6StringE10ok_or_elseNtCsfpvTL5dBvDY_2cc5ErrorNCNvMs4_B1z_NtB1z_5Build17getenv_unwrap_str0EB1z_, symObjAddr: 0x12C8, symBinAddr: 0x100070508, symSize: 0x98 }
  - { offset: 0xD2F7E, size: 0x8, addend: 0x0, symName: __RINvMNtCsaNl6UpbT7bw_4core6optionINtB3_6OptionNtNtCsiTraAjBDcu4_5alloc6string6StringE14unwrap_or_elseNCNvMs4_CsfpvTL5dBvDY_2ccNtB1J_5Build25get_base_archiver_variants2_0EB1J_, symObjAddr: 0x1360, symBinAddr: 0x1000705A0, symSize: 0x7C }
  - { offset: 0xD2FF9, size: 0x8, addend: 0x0, symName: __RINvMNtCsaNl6UpbT7bw_4core6optionINtB3_6OptionNtNtCsiTraAjBDcu4_5alloc6string6StringE3mapINtNtBM_6borrow3CoweENcNtB1p_5Owned0ECsfpvTL5dBvDY_2cc, symObjAddr: 0x13DC, symBinAddr: 0x10007061C, symSize: 0x90 }
  - { offset: 0xD307D, size: 0x8, addend: 0x0, symName: __RINvMNtCsaNl6UpbT7bw_4core6optionINtB3_6OptionNtNtNtCsht3nMU9UgFu_3std3ffi6os_str8OsStringE3mapINtNtCsiTraAjBDcu4_5alloc4sync3ArcNtBK_5OsStrENvYB1v_INtNtB5_7convert4FromBI_E4fromECsfpvTL5dBvDY_2cc, symObjAddr: 0x146C, symBinAddr: 0x1000706AC, symSize: 0x7C }
  - { offset: 0xD312A, size: 0x8, addend: 0x0, symName: __RINvMNtCsaNl6UpbT7bw_4core6optionINtB3_6OptionRINtNtCsiTraAjBDcu4_5alloc4sync3ArcNtNtNtCsht3nMU9UgFu_3std3ffi6os_str5OsStrEE8and_thenRReNCNvMs4_CsfpvTL5dBvDY_2ccNtB2i_5Build23find_working_gnu_prefix0EB2i_, symObjAddr: 0x14E8, symBinAddr: 0x100070728, symSize: 0x6C }
  - { offset: 0xD3196, size: 0x8, addend: 0x0, symName: __RINvMNtCsaNl6UpbT7bw_4core6optionINtB3_6OptionRNtNtCsfpvTL5dBvDY_2cc6target10TargetInfoE3mapReNCNvMNtBL_6parserNtB1z_21TargetInfoParserInner32from_cargo_environment_variabless0_0EBN_, symObjAddr: 0x1554, symBinAddr: 0x100070794, symSize: 0x58 }
  - { offset: 0xD3201, size: 0x8, addend: 0x0, symName: __RINvMNtCsaNl6UpbT7bw_4core6optionINtB3_6OptionRNtNtCsfpvTL5dBvDY_2cc6target10TargetInfoE3mapReNCNvMNtBL_6parserNtB1z_21TargetInfoParserInner32from_cargo_environment_variabless1_0EBN_, symObjAddr: 0x15AC, symBinAddr: 0x1000707EC, symSize: 0x58 }
  - { offset: 0xD326C, size: 0x8, addend: 0x0, symName: __RINvMNtCsaNl6UpbT7bw_4core6optionINtB3_6OptionRNtNtCsfpvTL5dBvDY_2cc6target10TargetInfoE3mapReNCNvMNtBL_6parserNtB1z_21TargetInfoParserInner32from_cargo_environment_variabless2_0EBN_, symObjAddr: 0x1604, symBinAddr: 0x100070844, symSize: 0x58 }
  - { offset: 0xD32D7, size: 0x8, addend: 0x0, symName: __RINvMNtCsaNl6UpbT7bw_4core6optionINtB3_6OptionRNtNtCsfpvTL5dBvDY_2cc6target10TargetInfoE3mapReNCNvMNtBL_6parserNtB1z_21TargetInfoParserInner32from_cargo_environment_variabless3_0EBN_, symObjAddr: 0x165C, symBinAddr: 0x10007089C, symSize: 0x58 }
  - { offset: 0xD3342, size: 0x8, addend: 0x0, symName: __RINvMNtCsaNl6UpbT7bw_4core6optionINtB3_6OptionRNtNtCsfpvTL5dBvDY_2cc6target10TargetInfoE3mapReNCNvMNtBL_6parserNtB1z_21TargetInfoParserInner32from_cargo_environment_variabless4_0EBN_, symObjAddr: 0x16B4, symBinAddr: 0x1000708F4, symSize: 0x58 }
  - { offset: 0xD33AD, size: 0x8, addend: 0x0, symName: __RINvMNtCsaNl6UpbT7bw_4core6optionINtB3_6OptionRNtNtCsht3nMU9UgFu_3std4path4PathE10ok_or_elseNtCsfpvTL5dBvDY_2cc5ErrorNCNvNtB1u_15command_helpers18objects_from_filess_0EB1u_, symObjAddr: 0x170C, symBinAddr: 0x10007094C, symSize: 0x80 }
  - { offset: 0xD3430, size: 0x8, addend: 0x0, symName: __RINvMNtCsaNl6UpbT7bw_4core6optionINtB3_6OptionRNtNtCsht3nMU9UgFu_3std4path4PathE3mapINtNtCsiTraAjBDcu4_5alloc6borrow3CowBJ_ENcNtB1k_8Borrowed0ECsfpvTL5dBvDY_2cc, symObjAddr: 0x178C, symBinAddr: 0x1000709CC, symSize: 0x78 }
  - { offset: 0xD349B, size: 0x8, addend: 0x0, symName: __RINvMNtCsaNl6UpbT7bw_4core6optionINtB3_6OptionRNtNtCsht3nMU9UgFu_3std4path4PathE6map_orbNCNCNCNvMs4_CsfpvTL5dBvDY_2ccNtB1A_5Build11try_compiles_000EB1A_, symObjAddr: 0x1804, symBinAddr: 0x100070A44, symSize: 0xC4 }
  - { offset: 0xD352B, size: 0x8, addend: 0x0, symName: __RINvMNtCsaNl6UpbT7bw_4core6optionINtB3_6OptionRNtNtNtCsht3nMU9UgFu_3std3ffi6os_str5OsStrE10ok_or_elseNtCsfpvTL5dBvDY_2cc5ErrorNCNvNtB1D_15command_helpers18objects_from_files0EB1D_, symObjAddr: 0x18C8, symBinAddr: 0x100070B08, symSize: 0x80 }
  - { offset: 0xD35AE, size: 0x8, addend: 0x0, symName: __RINvMNtCsaNl6UpbT7bw_4core6optionINtB3_6OptionRNtNtNtCsht3nMU9UgFu_3std3ffi6os_str5OsStrE3mapINtNtCsiTraAjBDcu4_5alloc6borrow3CoweENvMsl_BL_BJ_15to_string_lossyECsfpvTL5dBvDY_2cc, symObjAddr: 0x1948, symBinAddr: 0x100070B88, symSize: 0x78 }
  - { offset: 0xD3631, size: 0x8, addend: 0x0, symName: __RINvMNtCsaNl6UpbT7bw_4core6optionINtB3_6OptionRNtNtNtCsht3nMU9UgFu_3std3ffi6os_str5OsStrE3mapNtNtBP_4path7PathBufNvYB1t_INtNtB5_7convert4FromBI_E4fromECsfpvTL5dBvDY_2cc, symObjAddr: 0x19C0, symBinAddr: 0x100070C00, symSize: 0x78 }
  - { offset: 0xD369C, size: 0x8, addend: 0x0, symName: __RINvMNtCsaNl6UpbT7bw_4core6optionINtB3_6OptionRNtNtNtCsht3nMU9UgFu_3std3ffi6os_str5OsStrE3mapNtNtCsiTraAjBDcu4_5alloc6string6StringNCNvMs4_CsfpvTL5dBvDY_2ccNtB2d_5Build17prefix_for_target0EB2d_, symObjAddr: 0x1A38, symBinAddr: 0x100070C78, symSize: 0x78 }
  - { offset: 0xD3707, size: 0x8, addend: 0x0, symName: __RINvMNtCsaNl6UpbT7bw_4core6optionINtB3_6OptionRNtNtNtCsht3nMU9UgFu_3std3ffi6os_str5OsStrE8and_thenNtNtBP_4path7PathBufNCNvMs4_CsfpvTL5dBvDY_2ccNtB20_5Build5which0EB20_, symObjAddr: 0x1AB0, symBinAddr: 0x100070CF0, symSize: 0x70 }
  - { offset: 0xD3772, size: 0x8, addend: 0x0, symName: __RINvMNtCsaNl6UpbT7bw_4core6optionINtB3_6OptionRNtNtNtCsht3nMU9UgFu_3std3ffi6os_str5OsStrE8and_thenReNCNvCsfpvTL5dBvDY_2cc21is_llvm_mingw_wrapper0EB1E_, symObjAddr: 0x1B20, symBinAddr: 0x100070D60, symSize: 0x64 }
  - { offset: 0xD37EA, size: 0x8, addend: 0x0, symName: __RINvMNtCsaNl6UpbT7bw_4core6optionINtB3_6OptionRTINtNtCsiTraAjBDcu4_5alloc4sync3ArcNtNtNtCsht3nMU9UgFu_3std3ffi6os_str5OsStrEBK_EE3mapBK_NCNvMs4_CsfpvTL5dBvDY_2ccNtB2i_5Build6getenvs_0EB2i_, symObjAddr: 0x1B84, symBinAddr: 0x100070DC4, symSize: 0x58 }
  - { offset: 0xD3855, size: 0x8, addend: 0x0, symName: __RINvMNtCsaNl6UpbT7bw_4core6optionINtB3_6OptionRTINtNtCsiTraAjBDcu4_5alloc4sync3ArcNtNtNtCsht3nMU9UgFu_3std3ffi6os_str5OsStrEBK_EE3mapRBK_NCNCNvMs4_CsfpvTL5dBvDY_2ccNtB2l_5Build23apple_deployment_targets_0s_0EB2l_, symObjAddr: 0x1BDC, symBinAddr: 0x100070E1C, symSize: 0x50 }
  - { offset: 0xD38CD, size: 0x8, addend: 0x0, symName: __RINvMNtCsaNl6UpbT7bw_4core6optionINtB3_6OptionRTNtNtNtCsht3nMU9UgFu_3std3ffi6os_str8OsStringBK_EE8and_thenNtNtBQ_4path7PathBufNCNvMs4_CsfpvTL5dBvDY_2ccNtB28_5Build11try_compiles_0EB28_, symObjAddr: 0x1C2C, symBinAddr: 0x100070E6C, symSize: 0x58 }
  - { offset: 0xD3938, size: 0x8, addend: 0x0, symName: __RINvMNtCsaNl6UpbT7bw_4core6optionINtB3_6OptionReE10ok_or_elseNtCsfpvTL5dBvDY_2cc5ErrorNCNvMs0_NtNtBZ_6target6parserNtB1w_10TargetInfo17from_rustc_target0EBZ_, symObjAddr: 0x1C84, symBinAddr: 0x100070EC4, symSize: 0x8C }
  - { offset: 0xD39A3, size: 0x8, addend: 0x0, symName: __RINvMNtCsaNl6UpbT7bw_4core6optionINtB3_6OptionReE3mapIBw_RBI_ENCNvCsfpvTL5dBvDY_2cc27autodetect_android_compiler0EB12_, symObjAddr: 0x1D10, symBinAddr: 0x100070F50, symSize: 0x68 }
  - { offset: 0xD3A26, size: 0x8, addend: 0x0, symName: __RINvMNtCsaNl6UpbT7bw_4core6optionINtB3_6OptionReE3mapINtNtCsiTraAjBDcu4_5alloc4sync3ArceENvYBP_INtNtB5_7convert4FromBI_E4fromECsfpvTL5dBvDY_2cc, symObjAddr: 0x1D78, symBinAddr: 0x100070FB8, symSize: 0x64 }
  - { offset: 0xD3AA9, size: 0x8, addend: 0x0, symName: __RINvMNtCsaNl6UpbT7bw_4core6optionINtB3_6OptionReE3mapINtNtCsiTraAjBDcu4_5alloc6borrow3CoweENcNtBP_8Borrowed0ECsfpvTL5dBvDY_2cc, symObjAddr: 0x1DDC, symBinAddr: 0x10007101C, symSize: 0x78 }
  - { offset: 0xD3B2C, size: 0x8, addend: 0x0, symName: __RINvMNtCsaNl6UpbT7bw_4core6optionINtB3_6OptionReE3mapNtNtCsiTraAjBDcu4_5alloc6string6StringNvYBP_INtNtB5_7convert4FromBI_E4fromECsfpvTL5dBvDY_2cc, symObjAddr: 0x1E54, symBinAddr: 0x100071094, symSize: 0x78 }
  - { offset: 0xD3B97, size: 0x8, addend: 0x0, symName: __RINvMNtCsaNl6UpbT7bw_4core6optionINtB3_6OptionReE3mapNtNtCsiTraAjBDcu4_5alloc6string6StringNvYeNtBR_8ToString9to_stringECsfpvTL5dBvDY_2cc, symObjAddr: 0x1ECC, symBinAddr: 0x10007110C, symSize: 0x78 }
  - { offset: 0xD3C1A, size: 0x8, addend: 0x0, symName: __RINvMNtCsaNl6UpbT7bw_4core6optionINtB3_6OptionReE3mapRNtNtCsht3nMU9UgFu_3std4path4PathINvMs12_BS_BQ_3neweEECsfpvTL5dBvDY_2cc, symObjAddr: 0x1F44, symBinAddr: 0x100071184, symSize: 0x64 }
  - { offset: 0xD3C85, size: 0x8, addend: 0x0, symName: __RINvMNtCsaNl6UpbT7bw_4core6optionINtB3_6OptionReE5ok_orNtCsfpvTL5dBvDY_2cc5ErrorEBT_, symObjAddr: 0x1FA8, symBinAddr: 0x1000711E8, symSize: 0x98 }
  - { offset: 0xD3D00, size: 0x8, addend: 0x0, symName: __RINvMNtCsaNl6UpbT7bw_4core6optionINtB3_6OptionReE6map_orIBw_bEINvNvMNtCsfpvTL5dBvDY_2cc5flagsNtB14_17RustcCodegenFlags14set_rustc_flag11arg_to_boolBI_EEB16_, symObjAddr: 0x2040, symBinAddr: 0x100071280, symSize: 0xB4 }
  - { offset: 0xD3D72, size: 0x8, addend: 0x0, symName: __RINvMNtCsaNl6UpbT7bw_4core6optionINtB3_6OptionReE7or_elseNCNvMs4_CsfpvTL5dBvDY_2ccNtB11_5Build23find_working_gnu_prefixs_0EB11_, symObjAddr: 0x20F4, symBinAddr: 0x100071334, symSize: 0xCC }
  - { offset: 0xD3DEC, size: 0x8, addend: 0x0, symName: __RINvMNtCsaNl6UpbT7bw_4core6optionINtB3_6OptionReE8and_thenmINvNvMNtCsfpvTL5dBvDY_2cc5flagsNtB11_17RustcCodegenFlags14set_rustc_flag10arg_to_u32BI_EEB13_, symObjAddr: 0x21C0, symBinAddr: 0x100071400, symSize: 0x64 }
