---
triple:          'arm64-apple-darwin'
binary-path:     '/Users/tyler/fall25/cse380/final_project/final_project_sqlite/target/debug/deps/libzerovec_derive-30feaac0b55cff79.dylib'
relocations:
  - { offset: 0x1E, size: 0x8, addend: 0x0, symName: __RNvMNtCsaNl6UpbT7bw_4core5sliceSNtNtCs7IQ6Ulc8Ywk_14zerovec_derive11make_varule12UnsizedField4iterBy_, symObjAddr: 0x0, symBinAddr: 0xC58, symSize: 0x28 }
  - { offset: 0x4D, size: 0x8, addend: 0x0, symName: __RNvNvMs0_NtCs7IQ6Ulc8Ywk_14zerovec_derive11make_varuleNtB7_16UnsizedFieldKind3new24PATH_TYPE_IDENTITY_ERROR, symObjAddr: 0x125A0, symBinAddr: 0x254550, symSize: 0x0 }
  - { offset: 0x68, size: 0x8, addend: 0x0, symName: __RNvNvMs0_NtCs7IQ6Ulc8Ywk_14zerovec_derive11make_varuleNtB7_16UnsizedFieldKind3new24PATH_TYPE_GENERICS_ERROR, symObjAddr: 0x125B0, symBinAddr: 0x254560, symSize: 0x0 }
  - { offset: 0x31E, size: 0x8, addend: 0x0, symName: __RNvNtCs7IQ6Ulc8Ywk_14zerovec_derive11make_varule16make_varule_impl, symObjAddr: 0x9C, symBinAddr: 0xCF4, symSize: 0x751C }
  - { offset: 0xFFD, size: 0x8, addend: 0x0, symName: __RNCNvNtCs7IQ6Ulc8Ywk_14zerovec_derive11make_varule16make_varule_impl0B5_, symObjAddr: 0x75B8, symBinAddr: 0x8210, symSize: 0x24 }
  - { offset: 0x1033, size: 0x8, addend: 0x0, symName: __RNCNvNtCs7IQ6Ulc8Ywk_14zerovec_derive11make_varule16make_varule_impls_0B5_, symObjAddr: 0x75DC, symBinAddr: 0x8234, symSize: 0xA0 }
  - { offset: 0x108D, size: 0x8, addend: 0x0, symName: __RNvNtCs7IQ6Ulc8Ywk_14zerovec_derive11make_varule21make_zf_and_from_impl, symObjAddr: 0x767C, symBinAddr: 0x82D4, symSize: 0xA60 }
  - { offset: 0x129C, size: 0x8, addend: 0x0, symName: __RNCNvNtCs7IQ6Ulc8Ywk_14zerovec_derive11make_varule21make_zf_and_from_impl0B5_, symObjAddr: 0x80DC, symBinAddr: 0x8D34, symSize: 0x234 }
  - { offset: 0x134B, size: 0x8, addend: 0x0, symName: __RNvNtCs7IQ6Ulc8Ywk_14zerovec_derive11make_varule16make_encode_impl, symObjAddr: 0x8310, symBinAddr: 0x8F68, symSize: 0x1C0C }
  - { offset: 0x1805, size: 0x8, addend: 0x0, symName: __RNCNvNtCs7IQ6Ulc8Ywk_14zerovec_derive11make_varule16make_encode_impl0B5_, symObjAddr: 0x9F1C, symBinAddr: 0xAB74, symSize: 0x850 }
  - { offset: 0x1A74, size: 0x8, addend: 0x0, symName: __RNCNvMNtCs7IQ6Ulc8Ywk_14zerovec_derive11make_varuleNtB4_13UnsizedFields3new0B6_, symObjAddr: 0xA8AC, symBinAddr: 0xB504, symSize: 0xE0 }
  - { offset: 0x1AC1, size: 0x8, addend: 0x0, symName: __RNCNvMNtCs7IQ6Ulc8Ywk_14zerovec_derive11make_varuleNtB4_13UnsizedFields6has_zf0B6_, symObjAddr: 0xAE84, symBinAddr: 0xBADC, symSize: 0x38 }
  - { offset: 0x1B07, size: 0x8, addend: 0x0, symName: __RNCNvMNtCs7IQ6Ulc8Ywk_14zerovec_derive11make_varuleNtB4_13UnsizedFields19maybe_multi_getters0B6_, symObjAddr: 0xC974, symBinAddr: 0xD5CC, symSize: 0x584 }
  - { offset: 0x1CA6, size: 0x8, addend: 0x0, symName: __RNvXs4_NtCs7IQ6Ulc8Ywk_14zerovec_derive11make_varuleNtB5_8OwnULETyNtNtCsaNl6UpbT7bw_4core3fmt5Debug3fmtB7_, symObjAddr: 0xF640, symBinAddr: 0x10298, symSize: 0xA0 }
  - { offset: 0x1D0C, size: 0x8, addend: 0x0, symName: __RNcNtNtNtCs7IQ6Ulc8Ywk_14zerovec_derive11make_varule16UnsizedFieldKind3Cow0B7_, symObjAddr: 0xF6E0, symBinAddr: 0x10338, symSize: 0x24 }
  - { offset: 0x1D3C, size: 0x8, addend: 0x0, symName: __RNcNtNtNtCs7IQ6Ulc8Ywk_14zerovec_derive11make_varule16UnsizedFieldKind10VarZeroCow0B7_, symObjAddr: 0xF704, symBinAddr: 0x1035C, symSize: 0x24 }
  - { offset: 0x1D6C, size: 0x8, addend: 0x0, symName: __RNcNtNtNtCs7IQ6Ulc8Ywk_14zerovec_derive11make_varule16UnsizedFieldKind5Boxed0B7_, symObjAddr: 0xF728, symBinAddr: 0x10380, symSize: 0x24 }
  - { offset: 0x1D9C, size: 0x8, addend: 0x0, symName: __RNcNtNtNtCs7IQ6Ulc8Ywk_14zerovec_derive11make_varule16UnsizedFieldKind3Ref0B7_, symObjAddr: 0xF74C, symBinAddr: 0x103A4, symSize: 0x24 }
  - { offset: 0x1DCD, size: 0x8, addend: 0x0, symName: __RNvXs6_NtCs7IQ6Ulc8Ywk_14zerovec_derive11make_varuleNtB5_16UnsizedFieldKindNtNtCsaNl6UpbT7bw_4core3fmt5Debug3fmtB7_, symObjAddr: 0xF770, symBinAddr: 0x103C8, symSize: 0x27C }
  - { offset: 0x1F11, size: 0x8, addend: 0x0, symName: __RNvXs8_NtCs7IQ6Ulc8Ywk_14zerovec_derive11make_varuleNtB5_12UnsizedFieldNtNtCsaNl6UpbT7bw_4core3fmt5Debug3fmtB7_, symObjAddr: 0xF9EC, symBinAddr: 0x10644, symSize: 0x88 }
  - { offset: 0x9B0D, size: 0x8, addend: 0x0, symName: __RNvMNtCsaNl6UpbT7bw_4core5sliceSNtNtCs7IQ6Ulc8Ywk_14zerovec_derive11make_varule12UnsizedField4iterBy_, symObjAddr: 0x0, symBinAddr: 0xC58, symSize: 0x28 }
  - { offset: 0x9B44, size: 0x8, addend: 0x0, symName: __RNvMNtCsaNl6UpbT7bw_4core5sliceSNtNtCs7IQ6Ulc8Ywk_14zerovec_derive11make_varule12UnsizedField5firstBy_, symObjAddr: 0x28, symBinAddr: 0xC80, symSize: 0x44 }
  - { offset: 0x9C42, size: 0x8, addend: 0x0, symName: __RNvXs19_NtCsaNl6UpbT7bw_4core3fmtRNtNtCs7IQ6Ulc8Ywk_14zerovec_derive11make_varule8OwnULETyNtB6_5Debug3fmtBA_, symObjAddr: 0x6C, symBinAddr: 0xCC4, symSize: 0x30 }
  - { offset: 0xB5ED, size: 0x8, addend: 0x0, symName: __RNvMNtCs7IQ6Ulc8Ywk_14zerovec_derive11make_varuleNtB2_13UnsizedFields3new, symObjAddr: 0xA76C, symBinAddr: 0xB3C4, symSize: 0x140 }
  - { offset: 0xB64D, size: 0x8, addend: 0x0, symName: __RNvMNtCs7IQ6Ulc8Ywk_14zerovec_derive11make_varuleNtB2_13UnsizedFields9varule_ty, symObjAddr: 0xA98C, symBinAddr: 0xB5E4, symSize: 0x19C }
  - { offset: 0xB6B2, size: 0x8, addend: 0x0, symName: __RNvMNtCs7IQ6Ulc8Ywk_14zerovec_derive11make_varuleNtB2_13UnsizedFields15varule_accessor, symObjAddr: 0xAB28, symBinAddr: 0xB780, symSize: 0x144 }
  - { offset: 0xB6EB, size: 0x8, addend: 0x0, symName: __RNvMNtCs7IQ6Ulc8Ywk_14zerovec_derive11make_varuleNtB2_13UnsizedFields13varule_setter, symObjAddr: 0xAC6C, symBinAddr: 0xB8C4, symSize: 0x13C }
  - { offset: 0xB724, size: 0x8, addend: 0x0, symName: __RNvMNtCs7IQ6Ulc8Ywk_14zerovec_derive11make_varuleNtB2_13UnsizedFields10varule_vis, symObjAddr: 0xADA8, symBinAddr: 0xBA00, symSize: 0x90 }
  - { offset: 0xB747, size: 0x8, addend: 0x0, symName: __RNvMNtCs7IQ6Ulc8Ywk_14zerovec_derive11make_varuleNtB2_13UnsizedFields6has_zf, symObjAddr: 0xAE38, symBinAddr: 0xBA90, symSize: 0x4C }
  - { offset: 0xB76A, size: 0x8, addend: 0x0, symName: __RNvMNtCs7IQ6Ulc8Ywk_14zerovec_derive11make_varuleNtB2_13UnsizedFields12encode_write, symObjAddr: 0xAEBC, symBinAddr: 0xBB14, symSize: 0xAF8 }
  - { offset: 0xBA6D, size: 0x8, addend: 0x0, symName: __RNvMNtCs7IQ6Ulc8Ywk_14zerovec_derive11make_varuleNtB2_13UnsizedFields10encode_len, symObjAddr: 0xB9B4, symBinAddr: 0xC60C, symSize: 0x5F8 }
  - { offset: 0xBC2E, size: 0x8, addend: 0x0, symName: __RNvMNtCs7IQ6Ulc8Ywk_14zerovec_derive11make_varuleNtB2_13UnsizedFields15push_zf_setters, symObjAddr: 0xBFAC, symBinAddr: 0xCC04, symSize: 0x788 }
  - { offset: 0xBDE7, size: 0x8, addend: 0x0, symName: __RNvMNtCs7IQ6Ulc8Ywk_14zerovec_derive11make_varuleNtB2_13UnsizedFields19maybe_multi_getters, symObjAddr: 0xC734, symBinAddr: 0xD38C, symSize: 0x240 }
  - { offset: 0xBEE0, size: 0x8, addend: 0x0, symName: __RNvMNtCs7IQ6Ulc8Ywk_14zerovec_derive11make_varuleNtB2_13UnsizedFields16varule_validator, symObjAddr: 0xCEF8, symBinAddr: 0xDB50, symSize: 0x65C }
  - { offset: 0xC098, size: 0x8, addend: 0x0, symName: __RNvMs_NtCs7IQ6Ulc8Ywk_14zerovec_derive11make_varuleNtB4_12UnsizedField3new, symObjAddr: 0xD554, symBinAddr: 0xE1AC, symSize: 0x158 }
  - { offset: 0xC118, size: 0x8, addend: 0x0, symName: __RNvMs_NtCs7IQ6Ulc8Ywk_14zerovec_derive11make_varuleNtB4_12UnsizedField11encode_func, symObjAddr: 0xD6AC, symBinAddr: 0xE304, symSize: 0x37C }
  - { offset: 0xC213, size: 0x8, addend: 0x0, symName: __RNvMs_NtCs7IQ6Ulc8Ywk_14zerovec_derive11make_varuleNtB4_12UnsizedField17encodeable_tokens, symObjAddr: 0xDA28, symBinAddr: 0xE680, symSize: 0x160 }
  - { offset: 0xC2EF, size: 0x8, addend: 0x0, symName: __RNvMs0_NtCs7IQ6Ulc8Ywk_14zerovec_derive11make_varuleNtB5_16UnsizedFieldKind3new, symObjAddr: 0xDB88, symBinAddr: 0xE7E0, symSize: 0xB6C }
  - { offset: 0xC4C6, size: 0x8, addend: 0x0, symName: __RNvMs0_NtCs7IQ6Ulc8Ywk_14zerovec_derive11make_varuleNtB5_16UnsizedFieldKind9varule_ty, symObjAddr: 0xE6F4, symBinAddr: 0xF34C, symSize: 0x3F4 }
  - { offset: 0xC5B7, size: 0x8, addend: 0x0, symName: __RNvMs0_NtCs7IQ6Ulc8Ywk_14zerovec_derive11make_varuleNtB5_16UnsizedFieldKind16encodeable_value, symObjAddr: 0xEAE8, symBinAddr: 0xF740, symSize: 0x2D0 }
  - { offset: 0xC62C, size: 0x8, addend: 0x0, symName: __RNvMs0_NtCs7IQ6Ulc8Ywk_14zerovec_derive11make_varuleNtB5_16UnsizedFieldKind13encodeable_ty, symObjAddr: 0xEDB8, symBinAddr: 0xFA10, symSize: 0x378 }
  - { offset: 0xC6F5, size: 0x8, addend: 0x0, symName: __RNvMs0_NtCs7IQ6Ulc8Ywk_14zerovec_derive11make_varuleNtB5_16UnsizedFieldKind6has_zf, symObjAddr: 0xF130, symBinAddr: 0xFD88, symSize: 0x150 }
  - { offset: 0xC718, size: 0x8, addend: 0x0, symName: __RNvMs1_NtCs7IQ6Ulc8Ywk_14zerovec_derive11make_varuleNtB5_8OwnULETy3new, symObjAddr: 0xF280, symBinAddr: 0xFED8, symSize: 0x248 }
  - { offset: 0xC7F3, size: 0x8, addend: 0x0, symName: __RNvMs1_NtCs7IQ6Ulc8Ywk_14zerovec_derive11make_varuleNtB5_8OwnULETy9varule_ty, symObjAddr: 0xF4C8, symBinAddr: 0x10120, symSize: 0x178 }
  - { offset: 0xCBDC, size: 0x8, addend: 0x0, symName: __RINvMs6_NtCsg4dki62PTrg_9hashbrown3rawINtB6_8RawTableThuEE12remove_entryNCINvNtB8_3map14equivalent_keyhhuE0ECs7IQ6Ulc8Ywk_14zerovec_derive, symObjAddr: 0x0, symBinAddr: 0x106CC, symSize: 0x80 }
  - { offset: 0xCC18, size: 0x8, addend: 0x0, symName: __RNCINvMs6_NtCsg4dki62PTrg_9hashbrown3rawINtB8_8RawTableThuEE14reserve_rehashNCINvNtBa_3map11make_hasherhuNtNtNtCsht3nMU9UgFu_3std4hash6random11RandomStateE0E0Cs7IQ6Ulc8Ywk_14zerovec_derive, symObjAddr: 0x14F8, symBinAddr: 0x113A4, symSize: 0xC0 }
  - { offset: 0xCDDB, size: 0x8, addend: 0x0, symName: __RNCINvMs6_NtCsg4dki62PTrg_9hashbrown3rawINtB8_8RawTableThuEE24find_or_find_insert_slotNCINvNtBa_3map14equivalent_keyhhuE0NCINvB1r_11make_hasherhuNtNtNtCsht3nMU9UgFu_3std4hash6random11RandomStateE0E0Cs7IQ6Ulc8Ywk_14zerovec_derive, symObjAddr: 0x15B8, symBinAddr: 0x11464, symSize: 0xC4 }
  - { offset: 0xCFAE, size: 0x8, addend: 0x0, symName: __RNCINvMs6_NtCsg4dki62PTrg_9hashbrown3rawINtB8_8RawTableThuEE4findNCINvNtBa_3map14equivalent_keyhhuE0E0Cs7IQ6Ulc8Ywk_14zerovec_derive, symObjAddr: 0x167C, symBinAddr: 0x11528, symSize: 0xC4 }
  - { offset: 0xD99D, size: 0x8, addend: 0x0, symName: __RNCINvMsa_NtCsg4dki62PTrg_9hashbrown3rawNtB8_13RawTableInner14prepare_resizeNtNtCsiTraAjBDcu4_5alloc5alloc6GlobalE0Cs7IQ6Ulc8Ywk_14zerovec_derive, symObjAddr: 0x1740, symBinAddr: 0x115EC, symSize: 0xBC }
  - { offset: 0xDB80, size: 0x8, addend: 0x0, symName: __RNCNvMsa_NtCsg4dki62PTrg_9hashbrown3rawNtB7_13RawTableInner15rehash_in_place0Cs7IQ6Ulc8Ywk_14zerovec_derive, symObjAddr: 0x17FC, symBinAddr: 0x116A8, symSize: 0x22C }
  - { offset: 0xE1F0, size: 0x8, addend: 0x0, symName: __RNvNtCsg4dki62PTrg_9hashbrown3raw19capacity_to_bucketsCs7IQ6Ulc8Ywk_14zerovec_derive, symObjAddr: 0x2F00, symBinAddr: 0x12DAC, symSize: 0x218 }
  - { offset: 0xE3F9, size: 0x8, addend: 0x0, symName: __RNvXsg_NtCsg4dki62PTrg_9hashbrown3rawINtB5_8RawTableThuEENtNtNtCsaNl6UpbT7bw_4core3ops4drop4Drop4dropCs7IQ6Ulc8Ywk_14zerovec_derive, symObjAddr: 0x3118, symBinAddr: 0x12FC4, symSize: 0x3C }
  - { offset: 0x11614, size: 0x8, addend: 0x0, symName: __RINvMs6_NtCsg4dki62PTrg_9hashbrown3rawINtB6_8RawTableThuEE12remove_entryNCINvNtB8_3map14equivalent_keyhhuE0ECs7IQ6Ulc8Ywk_14zerovec_derive, symObjAddr: 0x0, symBinAddr: 0x106CC, symSize: 0x80 }
  - { offset: 0x11CCE, size: 0x8, addend: 0x0, symName: __RINvMs6_NtCsg4dki62PTrg_9hashbrown3rawINtB6_8RawTableThuEE14reserve_rehashNCINvNtB8_3map11make_hasherhuNtNtNtCsht3nMU9UgFu_3std4hash6random11RandomStateE0ECs7IQ6Ulc8Ywk_14zerovec_derive, symObjAddr: 0x80, symBinAddr: 0x1B2DB0, symSize: 0x820 }
  - { offset: 0x126BE, size: 0x8, addend: 0x0, symName: __RINvMs6_NtCsg4dki62PTrg_9hashbrown3rawINtB6_8RawTableThuEE24find_or_find_insert_slotNCINvNtB8_3map14equivalent_keyhhuE0NCINvB1p_11make_hasherhuNtNtNtCsht3nMU9UgFu_3std4hash6random11RandomStateE0ECs7IQ6Ulc8Ywk_14zerovec_derive, symObjAddr: 0x8A0, symBinAddr: 0x1074C, symSize: 0x138 }
  - { offset: 0x12B40, size: 0x8, addend: 0x0, symName: __RINvMs6_NtCsg4dki62PTrg_9hashbrown3rawINtB6_8RawTableThuEE4findNCINvNtB8_3map14equivalent_keyhhuE0ECs7IQ6Ulc8Ywk_14zerovec_derive, symObjAddr: 0x9D8, symBinAddr: 0x10884, symSize: 0x328 }
  - { offset: 0x12FFB, size: 0x8, addend: 0x0, symName: __RINvMs6_NtCsg4dki62PTrg_9hashbrown3rawINtB6_8RawTableThuEE7reserveNCINvNtB8_3map11make_hasherhuNtNtNtCsht3nMU9UgFu_3std4hash6random11RandomStateE0ECs7IQ6Ulc8Ywk_14zerovec_derive, symObjAddr: 0xD00, symBinAddr: 0x10BAC, symSize: 0xCC }
  - { offset: 0x1316E, size: 0x8, addend: 0x0, symName: __RINvMsa_NtCsg4dki62PTrg_9hashbrown3rawNtB6_13RawTableInner13drop_elementsThuEECs7IQ6Ulc8Ywk_14zerovec_derive, symObjAddr: 0xDCC, symBinAddr: 0x10C78, symSize: 0x28 }
  - { offset: 0x133D8, size: 0x8, addend: 0x0, symName: __RINvMsa_NtCsg4dki62PTrg_9hashbrown3rawNtB6_13RawTableInner16drop_inner_tableThuENtNtCsiTraAjBDcu4_5alloc5alloc6GlobalECs7IQ6Ulc8Ywk_14zerovec_derive, symObjAddr: 0xDF4, symBinAddr: 0x10CA0, symSize: 0xBC }
  - { offset: 0x135EB, size: 0x8, addend: 0x0, symName: __RINvMsa_NtCsg4dki62PTrg_9hashbrown3rawNtB6_13RawTableInner17new_uninitializedNtNtCsiTraAjBDcu4_5alloc5alloc6GlobalECs7IQ6Ulc8Ywk_14zerovec_derive, symObjAddr: 0xEB0, symBinAddr: 0x10D5C, symSize: 0x1B0 }
  - { offset: 0x1383C, size: 0x8, addend: 0x0, symName: __RINvMsa_NtCsg4dki62PTrg_9hashbrown3rawNtB6_13RawTableInner22fallible_with_capacityNtNtCsiTraAjBDcu4_5alloc5alloc6GlobalECs7IQ6Ulc8Ywk_14zerovec_derive, symObjAddr: 0x1060, symBinAddr: 0x10F0C, symSize: 0x2B0 }
  - { offset: 0x13CB2, size: 0x8, addend: 0x0, symName: __RINvMsi_NtCsg4dki62PTrg_9hashbrown3rawINtB6_12RawIterRangeThuEE9next_implKb0_ECs7IQ6Ulc8Ywk_14zerovec_derive, symObjAddr: 0x1310, symBinAddr: 0x111BC, symSize: 0x1E8 }
  - { offset: 0x1458A, size: 0x8, addend: 0x0, symName: __RNvMs1_NtCsg4dki62PTrg_9hashbrown3rawNtB5_11TableLayout20calculate_layout_forCs7IQ6Ulc8Ywk_14zerovec_derive, symObjAddr: 0x1A28, symBinAddr: 0x118D4, symSize: 0x210 }
  - { offset: 0x148E0, size: 0x8, addend: 0x0, symName: __RNvMs6_NtCsg4dki62PTrg_9hashbrown3rawINtB5_8RawTableThuEE13erase_no_dropCs7IQ6Ulc8Ywk_14zerovec_derive, symObjAddr: 0x1C38, symBinAddr: 0x11AE4, symSize: 0x94 }
  - { offset: 0x14C0C, size: 0x8, addend: 0x0, symName: __RNvMs6_NtCsg4dki62PTrg_9hashbrown3rawINtB5_8RawTableThuEE14insert_in_slotCs7IQ6Ulc8Ywk_14zerovec_derive, symObjAddr: 0x1CCC, symBinAddr: 0x11B78, symSize: 0x130 }
  - { offset: 0x1509A, size: 0x8, addend: 0x0, symName: __RNvMs6_NtCsg4dki62PTrg_9hashbrown3rawINtB5_8RawTableThuEE6removeCs7IQ6Ulc8Ywk_14zerovec_derive, symObjAddr: 0x1DFC, symBinAddr: 0x11CA8, symSize: 0xEC }
  - { offset: 0x153A5, size: 0x8, addend: 0x0, symName: __RNvMsa_NtCsg4dki62PTrg_9hashbrown3rawNtB5_13RawTableInner15fix_insert_slotCs7IQ6Ulc8Ywk_14zerovec_derive, symObjAddr: 0x1EE8, symBinAddr: 0x11D94, symSize: 0x12C }
  - { offset: 0x15725, size: 0x8, addend: 0x0, symName: __RNvMsa_NtCsg4dki62PTrg_9hashbrown3rawNtB5_13RawTableInner15rehash_in_placeCs7IQ6Ulc8Ywk_14zerovec_derive, symObjAddr: 0x2014, symBinAddr: 0x11EC0, symSize: 0x4AC }
  - { offset: 0x15F2D, size: 0x8, addend: 0x0, symName: __RNvMsa_NtCsg4dki62PTrg_9hashbrown3rawNtB5_13RawTableInner16find_insert_slotCs7IQ6Ulc8Ywk_14zerovec_derive, symObjAddr: 0x24C0, symBinAddr: 0x1236C, symSize: 0x11C }
  - { offset: 0x16128, size: 0x8, addend: 0x0, symName: __RNvMsa_NtCsg4dki62PTrg_9hashbrown3rawNtB5_13RawTableInner19prepare_insert_slotCs7IQ6Ulc8Ywk_14zerovec_derive, symObjAddr: 0x25DC, symBinAddr: 0x12488, symSize: 0x74 }
  - { offset: 0x16419, size: 0x8, addend: 0x0, symName: __RNvMsa_NtCsg4dki62PTrg_9hashbrown3rawNtB5_13RawTableInner23prepare_rehash_in_placeCs7IQ6Ulc8Ywk_14zerovec_derive, symObjAddr: 0x2650, symBinAddr: 0x124FC, symSize: 0x258 }
  - { offset: 0x16B25, size: 0x8, addend: 0x0, symName: __RNvMsa_NtCsg4dki62PTrg_9hashbrown3rawNtB5_13RawTableInner25find_insert_slot_in_groupCs7IQ6Ulc8Ywk_14zerovec_derive, symObjAddr: 0x28A8, symBinAddr: 0x12754, symSize: 0x15C }
  - { offset: 0x16DC3, size: 0x8, addend: 0x0, symName: __RNvMsa_NtCsg4dki62PTrg_9hashbrown3rawNtB5_13RawTableInner30find_or_find_insert_slot_innerCs7IQ6Ulc8Ywk_14zerovec_derive, symObjAddr: 0x2A04, symBinAddr: 0x128B0, symSize: 0x2C0 }
  - { offset: 0x17203, size: 0x8, addend: 0x0, symName: __RNvMsa_NtCsg4dki62PTrg_9hashbrown3rawNtB5_13RawTableInner5eraseCs7IQ6Ulc8Ywk_14zerovec_derive, symObjAddr: 0x2CC4, symBinAddr: 0x12B70, symSize: 0x174 }
  - { offset: 0x17540, size: 0x8, addend: 0x0, symName: __RNvMsi_NtCsg4dki62PTrg_9hashbrown3rawINtB5_12RawIterRangeThuEE3newCs7IQ6Ulc8Ywk_14zerovec_derive, symObjAddr: 0x2E38, symBinAddr: 0x12CE4, symSize: 0xC8 }
  - { offset: 0x177BF, size: 0x8, addend: 0x0, symName: __RINvMNtCsaNl6UpbT7bw_4core6resultINtB3_6ResultNtNtCs7IQ6Ulc8Ywk_14zerovec_derive11make_varule8OwnULETyNtNtCsiTraAjBDcu4_5alloc6string6StringE3mapNtBK_16UnsizedFieldKindNcNtB2j_10VarZeroCow0EBM_, symObjAddr: 0x0, symBinAddr: 0x13000, symSize: 0x98 }
  - { offset: 0x17ADB, size: 0x8, addend: 0x0, symName: __RNCNvMNtCs7IQ6Ulc8Ywk_14zerovec_derive5utilsNtB4_8ReprInfo7compute0B6_, symObjAddr: 0x266C, symBinAddr: 0x1566C, symSize: 0x50 }
  - { offset: 0x17B1F, size: 0x8, addend: 0x0, symName: __RNvXs_NtCs7IQ6Ulc8Ywk_14zerovec_derive5utilsNtB4_18IdentListAttributeNtNtCsc29TF2YcYso_3syn5parse5Parse5parse, symObjAddr: 0x2748, symBinAddr: 0x15748, symSize: 0xE8 }
  - { offset: 0x17B6A, size: 0x8, addend: 0x0, symName: __RNvNtCs7IQ6Ulc8Ywk_14zerovec_derive5utils16wrap_field_inits, symObjAddr: 0x2830, symBinAddr: 0x15830, symSize: 0x40C }
  - { offset: 0x17D2D, size: 0x8, addend: 0x0, symName: __RNvNtCs7IQ6Ulc8Ywk_14zerovec_derive5utils8semi_for, symObjAddr: 0x2C3C, symBinAddr: 0x15C3C, symSize: 0xBC }
  - { offset: 0x17D6E, size: 0x8, addend: 0x0, symName: __RNvNtCs7IQ6Ulc8Ywk_14zerovec_derive5utils8repr_for, symObjAddr: 0x2CF8, symBinAddr: 0x15CF8, symSize: 0x144 }
  - { offset: 0x17DC4, size: 0x8, addend: 0x0, symName: __RNvNtCs7IQ6Ulc8Ywk_14zerovec_derive5utils14suffixed_ident, symObjAddr: 0x2E3C, symBinAddr: 0x15E3C, symSize: 0x124 }
  - { offset: 0x17E5F, size: 0x8, addend: 0x0, symName: __RINvNtCs7IQ6Ulc8Ywk_14zerovec_derive5utils26generate_per_field_offsetsNCNvNtB4_11make_varule16make_encode_impl0EB4_, symObjAddr: 0x2F60, symBinAddr: 0x15F60, symSize: 0x904 }
  - { offset: 0x17FF3, size: 0x8, addend: 0x0, symName: __RINvNtCs7IQ6Ulc8Ywk_14zerovec_derive5utils26generate_per_field_offsetsNCNvNtB4_3ule23generate_ule_validators0EB4_, symObjAddr: 0x3864, symBinAddr: 0x16864, symSize: 0x904 }
  - { offset: 0x18191, size: 0x8, addend: 0x0, symName: __RNCINvMs0_NtCs7IQ6Ulc8Ywk_14zerovec_derive5utilsNtB8_9FieldInfo9make_listINtNtCsc29TF2YcYso_3syn10punctuated4IterNtNtB1e_4data5FieldEE0Ba_, symObjAddr: 0x4220, symBinAddr: 0x17220, symSize: 0x50 }
  - { offset: 0x181F0, size: 0x8, addend: 0x0, symName: __RNCINvMs0_NtCs7IQ6Ulc8Ywk_14zerovec_derive5utilsNtB8_9FieldInfo9make_listINtNtNtNtCsaNl6UpbT7bw_4core4iter8adapters4take4TakeINtNtCsc29TF2YcYso_3syn10punctuated4IterNtNtB24_4data5FieldEEE0Ba_, symObjAddr: 0x4270, symBinAddr: 0x17270, symSize: 0x50 }
  - { offset: 0x1825F, size: 0x8, addend: 0x0, symName: __RNvNtCs7IQ6Ulc8Ywk_14zerovec_derive5utils35extract_parenthetical_zerovec_attrs, symObjAddr: 0x4778, symBinAddr: 0x17778, symSize: 0x184 }
  - { offset: 0x182E7, size: 0x8, addend: 0x0, symName: __RNCNvNtCs7IQ6Ulc8Ywk_14zerovec_derive5utils35extract_parenthetical_zerovec_attrs0B5_, symObjAddr: 0x48FC, symBinAddr: 0x178FC, symSize: 0x3AC }
  - { offset: 0x183E6, size: 0x8, addend: 0x0, symName: __RNvNtCs7IQ6Ulc8Ywk_14zerovec_derive5utils22extract_single_tt_attr, symObjAddr: 0x4CA8, symBinAddr: 0x17CA8, symSize: 0x174 }
  - { offset: 0x1846F, size: 0x8, addend: 0x0, symName: __RNCNvNtCs7IQ6Ulc8Ywk_14zerovec_derive5utils22extract_single_tt_attr0B5_, symObjAddr: 0x4E1C, symBinAddr: 0x17E1C, symSize: 0x444 }
  - { offset: 0x18559, size: 0x8, addend: 0x0, symName: __RNvNtCs7IQ6Ulc8Ywk_14zerovec_derive5utils26extract_zerovec_attributes, symObjAddr: 0x5260, symBinAddr: 0x18260, symSize: 0x8C }
  - { offset: 0x185A2, size: 0x8, addend: 0x0, symName: __RNCNvNtCs7IQ6Ulc8Ywk_14zerovec_derive5utils26extract_zerovec_attributes0B5_, symObjAddr: 0x52EC, symBinAddr: 0x182EC, symSize: 0x110 }
  - { offset: 0x185E3, size: 0x8, addend: 0x0, symName: __RNvNtCs7IQ6Ulc8Ywk_14zerovec_derive5utils24extract_field_attributes, symObjAddr: 0x53FC, symBinAddr: 0x183FC, symSize: 0x304 }
  - { offset: 0x18675, size: 0x8, addend: 0x0, symName: __RNvNtCs7IQ6Ulc8Ywk_14zerovec_derive5utils25extract_attributes_common, symObjAddr: 0x5700, symBinAddr: 0x18700, symSize: 0xE30 }
  - { offset: 0x189D0, size: 0x8, addend: 0x0, symName: __RNvXs1_NtCs7IQ6Ulc8Ywk_14zerovec_derive5utilsNtB5_8ReprInfoNtNtCsaNl6UpbT7bw_4core7default7Default7defaultB7_, symObjAddr: 0x6530, symBinAddr: 0x19530, symSize: 0x20 }
  - { offset: 0x189F3, size: 0x8, addend: 0x0, symName: __RNvXs3_NtCs7IQ6Ulc8Ywk_14zerovec_derive5utilsNtB5_9FieldInfoNtNtCsaNl6UpbT7bw_4core3fmt5Debug3fmtB7_, symObjAddr: 0x6550, symBinAddr: 0x19550, symSize: 0xB4 }
  - { offset: 0x18A33, size: 0x8, addend: 0x0, symName: __RNvXs4_NtCs7IQ6Ulc8Ywk_14zerovec_derive5utilsNtB5_12ZeroVecAttrsNtNtCsaNl6UpbT7bw_4core7default7Default7defaultB7_, symObjAddr: 0x6604, symBinAddr: 0x19604, symSize: 0x58 }
  - { offset: 0x1D84F, size: 0x8, addend: 0x0, symName: __RNvXNtCsc29TF2YcYso_3syn7spannedNtNtB4_4expr4ExprNtB2_7Spanned4spanCs7IQ6Ulc8Ywk_14zerovec_derive, symObjAddr: 0x14EC, symBinAddr: 0x144EC, symSize: 0x34 }
  - { offset: 0x1E54C, size: 0x8, addend: 0x0, symName: __RNvXs5_NtNtCs7yrEGia95Wz_10proc_macro6bridge6bufferNtB5_6BufferNtNtNtCsaNl6UpbT7bw_4core3ops4drop4Drop4dropCs7IQ6Ulc8Ywk_14zerovec_derive, symObjAddr: 0x16DC, symBinAddr: 0x146DC, symSize: 0x8C }
  - { offset: 0x1E6FF, size: 0x8, addend: 0x0, symName: __RNvXsV_NtCs7yrEGia95Wz_10proc_macro6bridgeINtNtCsaNl6UpbT7bw_4core6result6ResultINtNtBJ_6option6OptionNtNtB5_6client11TokenStreamEuEINtNtB5_3rpc6EncodeuE6encodeCs7IQ6Ulc8Ywk_14zerovec_derive, symObjAddr: 0x1768, symBinAddr: 0x14768, symSize: 0x110 }
  - { offset: 0x1E7C3, size: 0x8, addend: 0x0, symName: __RNvXsV_NtCs7yrEGia95Wz_10proc_macro6bridgeINtNtCsaNl6UpbT7bw_4core6result6ResultuNtNtB5_3rpc12PanicMessageEINtB1j_6EncodeuE6encodeCs7IQ6Ulc8Ywk_14zerovec_derive, symObjAddr: 0x1878, symBinAddr: 0x14878, symSize: 0x12C }
  - { offset: 0x21A3F, size: 0x8, addend: 0x0, symName: __RNvXsp_NtCsaNl6UpbT7bw_4core6resultINtB5_6ResultINtNtB7_6option6OptionNtCshnvkK9b4wzu_11proc_macro211TokenStreamENtNtCsc29TF2YcYso_3syn5error5ErrorENtNtNtB7_3ops9try_trait3Try6branchCs7IQ6Ulc8Ywk_14zerovec_derive, symObjAddr: 0x1C68, symBinAddr: 0x14C68, symSize: 0xA8 }
  - { offset: 0x21ABC, size: 0x8, addend: 0x0, symName: __RNvXsp_NtCsaNl6UpbT7bw_4core6resultINtB5_6ResultINtNtCsc29TF2YcYso_3syn10punctuated10PunctuatedNtCshnvkK9b4wzu_11proc_macro25IdentNtNtBP_5token5CommaENtNtBP_5error5ErrorENtNtNtB7_3ops9try_trait3Try6branchCs7IQ6Ulc8Ywk_14zerovec_derive, symObjAddr: 0x1D10, symBinAddr: 0x14D10, symSize: 0xA0 }
  - { offset: 0x21B39, size: 0x8, addend: 0x0, symName: __RNvXsp_NtCsaNl6UpbT7bw_4core6resultINtB5_6ResultINtNtCsiTraAjBDcu4_5alloc3vec3VecNtCshnvkK9b4wzu_11proc_macro25IdentENtNtCsc29TF2YcYso_3syn5error5ErrorENtNtNtB7_3ops9try_trait3Try6branchCs7IQ6Ulc8Ywk_14zerovec_derive, symObjAddr: 0x1DB0, symBinAddr: 0x14DB0, symSize: 0x94 }
  - { offset: 0x21BB6, size: 0x8, addend: 0x0, symName: __RNvXsp_NtCsaNl6UpbT7bw_4core6resultINtB5_6ResultNtNtCs7IQ6Ulc8Ywk_14zerovec_derive11make_varule16UnsizedFieldKindNtNtCsiTraAjBDcu4_5alloc6string6StringENtNtNtB7_3ops9try_trait3Try6branchBO_, symObjAddr: 0x1E44, symBinAddr: 0x14E44, symSize: 0x9C }
  - { offset: 0x21C33, size: 0x8, addend: 0x0, symName: __RNvXsp_NtCsaNl6UpbT7bw_4core6resultINtB5_6ResultNtNtCs7IQ6Ulc8Ywk_14zerovec_derive5utils18IdentListAttributeNtNtCsc29TF2YcYso_3syn5error5ErrorENtNtNtB7_3ops9try_trait3Try6branchBO_, symObjAddr: 0x1EE0, symBinAddr: 0x14EE0, symSize: 0xA0 }
  - { offset: 0x21CB0, size: 0x8, addend: 0x0, symName: __RNvXsp_NtCsaNl6UpbT7bw_4core6resultINtB5_6ResultNtNtCsc29TF2YcYso_3syn6derive11DeriveInputNtNtBO_5error5ErrorENtNtNtB7_3ops9try_trait3Try6branchCs7IQ6Ulc8Ywk_14zerovec_derive, symObjAddr: 0x1F80, symBinAddr: 0x14F80, symSize: 0xB4 }
  - { offset: 0x21D34, size: 0x8, addend: 0x0, symName: __RNvXsq_NtCsaNl6UpbT7bw_4core6resultINtB5_6ResultINtNtCsc29TF2YcYso_3syn10punctuated10PunctuatedNtCshnvkK9b4wzu_11proc_macro25IdentNtNtBP_5token5CommaENtNtBP_5error5ErrorEINtNtNtB7_3ops9try_trait12FromResidualIBy_NtNtB7_7convert10InfallibleB2o_EE13from_residualCs7IQ6Ulc8Ywk_14zerovec_derive, symObjAddr: 0x2034, symBinAddr: 0x15034, symSize: 0x48 }
  - { offset: 0x21DB9, size: 0x8, addend: 0x0, symName: __RNvXsq_NtCsaNl6UpbT7bw_4core6resultINtB5_6ResultNtNtCs7IQ6Ulc8Ywk_14zerovec_derive11make_varule12UnsizedFieldNtNtCsiTraAjBDcu4_5alloc6string6StringEINtNtNtB7_3ops9try_trait12FromResidualIBy_NtNtB7_7convert10InfallibleB1J_EE13from_residualBO_, symObjAddr: 0x207C, symBinAddr: 0x1507C, symSize: 0x48 }
  - { offset: 0x21E3E, size: 0x8, addend: 0x0, symName: __RNvXsq_NtCsaNl6UpbT7bw_4core6resultINtB5_6ResultNtNtCs7IQ6Ulc8Ywk_14zerovec_derive5utils12ZeroVecAttrsNtNtCsc29TF2YcYso_3syn5error5ErrorEINtNtNtB7_3ops9try_trait12FromResidualIBy_NtNtB7_7convert10InfallibleB1C_EE13from_residualBO_, symObjAddr: 0x20C4, symBinAddr: 0x150C4, symSize: 0x4C }
  - { offset: 0x21EC3, size: 0x8, addend: 0x0, symName: __RNvXsq_NtCsaNl6UpbT7bw_4core6resultINtB5_6ResultNtNtCs7IQ6Ulc8Ywk_14zerovec_derive5utils18IdentListAttributeNtNtCsc29TF2YcYso_3syn5error5ErrorEINtNtNtB7_3ops9try_trait12FromResidualIBy_NtNtB7_7convert10InfallibleB1I_EE13from_residualBO_, symObjAddr: 0x2110, symBinAddr: 0x15110, symSize: 0x48 }
  - { offset: 0x227AC, size: 0x8, addend: 0x0, symName: __RNvMNtCsaNl6UpbT7bw_4core5sliceSNtNtCs7IQ6Ulc8Ywk_14zerovec_derive5utils9FieldInfo4iterBy_, symObjAddr: 0x8B8, symBinAddr: 0x138B8, symSize: 0x28 }
  - { offset: 0x22831, size: 0x8, addend: 0x0, symName: __RNvMNtCsaNl6UpbT7bw_4core5sliceSh15copy_from_sliceCs7IQ6Ulc8Ywk_14zerovec_derive, symObjAddr: 0x8E0, symBinAddr: 0x138E0, symSize: 0xAC }
  - { offset: 0x22982, size: 0x8, addend: 0x0, symName: __RNvXs_NtNtCsaNl6UpbT7bw_4core5slice4iterRSNtNtCs7IQ6Ulc8Ywk_14zerovec_derive5utils9FieldInfoNtNtNtNtB8_4iter6traits7collect12IntoIterator9into_iterBI_, symObjAddr: 0x19A4, symBinAddr: 0x149A4, symSize: 0x58 }
  - { offset: 0x22C82, size: 0x8, addend: 0x0, symName: __RNvXs19_NtCsaNl6UpbT7bw_4core3fmtRNtNtCs7IQ6Ulc8Ywk_14zerovec_derive5utils9FieldInfoNtB6_5Debug3fmtBA_, symObjAddr: 0x1564, symBinAddr: 0x14564, symSize: 0x30 }
  - { offset: 0x22CD4, size: 0x8, addend: 0x0, symName: __RINvYNtNtNtCsht3nMU9UgFu_3std4hash6random11RandomStateNtNtCsaNl6UpbT7bw_4core4hash11BuildHasher8hash_oneRhECs7IQ6Ulc8Ywk_14zerovec_derive, symObjAddr: 0x798, symBinAddr: 0x13798, symSize: 0x84 }
  - { offset: 0x22E83, size: 0x8, addend: 0x0, symName: __RNvYNtNtNtCsht3nMU9UgFu_3std4hash6random13DefaultHasherNtNtCsaNl6UpbT7bw_4core4hash6Hasher8write_u8Cs7IQ6Ulc8Ywk_14zerovec_derive, symObjAddr: 0x2170, symBinAddr: 0x15170, symSize: 0x3C }
  - { offset: 0x22EDB, size: 0x8, addend: 0x0, symName: __RNvXs1_NtNtNtCsaNl6UpbT7bw_4core3ops8function5implsQNCNvMNtCs7IQ6Ulc8Ywk_14zerovec_derive5utilsNtBT_8ReprInfo7compute0INtB7_5FnMutTRRNtNtCsc29TF2YcYso_3syn4attr9AttributeEE8call_mutBV_, symObjAddr: 0x1594, symBinAddr: 0x14594, symSize: 0x30 }
  - { offset: 0x23253, size: 0x8, addend: 0x0, symName: __RNvXs23_NtNtCsaNl6UpbT7bw_4core7convert3numhINtB8_7TryFromyE8try_fromCs7IQ6Ulc8Ywk_14zerovec_derive, symObjAddr: 0x15FC, symBinAddr: 0x145FC, symSize: 0x60 }
  - { offset: 0x232F6, size: 0x8, addend: 0x0, symName: __RNvXs_NtNtNtCsaNl6UpbT7bw_4core4iter8adapters4takeINtB4_4TakeINtNtCsc29TF2YcYso_3syn10punctuated4IterNtNtB12_4data5FieldEENtNtNtB8_6traits8iterator8Iterator4nextCs7IQ6Ulc8Ywk_14zerovec_derive, symObjAddr: 0x1AC8, symBinAddr: 0x14AC8, symSize: 0x58 }
  - { offset: 0x2332B, size: 0x8, addend: 0x0, symName: __RNvXs_NtNtNtCsaNl6UpbT7bw_4core4iter8adapters4takeINtB4_4TakeINtNtCsc29TF2YcYso_3syn10punctuated4IterNtNtB12_4data5FieldEENtNtNtB8_6traits8iterator8Iterator9size_hintCs7IQ6Ulc8Ywk_14zerovec_derive, symObjAddr: 0x1B20, symBinAddr: 0x14B20, symSize: 0x11C }
  - { offset: 0x234F5, size: 0x8, addend: 0x0, symName: __RNvYINtNtNtNtCsaNl6UpbT7bw_4core4iter8adapters4take4TakeINtNtCsc29TF2YcYso_3syn10punctuated4IterNtNtBX_4data5FieldEENtNtNtB9_6traits8iterator8Iterator9enumerateCs7IQ6Ulc8Ywk_14zerovec_derive, symObjAddr: 0x2158, symBinAddr: 0x15158, symSize: 0x18 }
  - { offset: 0x23526, size: 0x8, addend: 0x0, symName: __RNvYINtNtNtNtCsaNl6UpbT7bw_4core4iter8adapters4take4TakeINtNtCsc29TF2YcYso_3syn10punctuated4IterNtNtBX_4data5FieldEENtNtNtB9_6traits8iterator8Iterator9enumerateCs7IQ6Ulc8Ywk_14zerovec_derive, symObjAddr: 0x2158, symBinAddr: 0x15158, symSize: 0x18 }
  - { offset: 0x23587, size: 0x8, addend: 0x0, symName: __RNvXsk_NtNtCsaNl6UpbT7bw_4core3cmp5implshNtB7_9PartialEq2eqCs7IQ6Ulc8Ywk_14zerovec_derive, symObjAddr: 0x1C3C, symBinAddr: 0x14C3C, symSize: 0x2C }
  - { offset: 0x24C5E, size: 0x8, addend: 0x0, symName: __RNCNvXs1_NtNtNtCsht3nMU9UgFu_3std2io5error14repr_bitpackedNtB7_4ReprNtNtNtCsaNl6UpbT7bw_4core3ops4drop4Drop4drop0Cs7IQ6Ulc8Ywk_14zerovec_derive, symObjAddr: 0x87C, symBinAddr: 0x1387C, symSize: 0x3C }
  - { offset: 0x24D13, size: 0x8, addend: 0x0, symName: __RNvXs1_NtNtNtCsht3nMU9UgFu_3std2io5error14repr_bitpackedNtB5_4ReprNtNtNtCsaNl6UpbT7bw_4core3ops4drop4Drop4dropCs7IQ6Ulc8Ywk_14zerovec_derive, symObjAddr: 0x15C4, symBinAddr: 0x145C4, symSize: 0x38 }
  - { offset: 0x24D3C, size: 0x8, addend: 0x0, symName: __RINvNtNtNtCsht3nMU9UgFu_3std2io5error14repr_bitpacked11decode_reprINtNtCsiTraAjBDcu4_5alloc5boxed3BoxNtB4_6CustomENCNvXs1_B2_NtB2_4ReprNtNtNtCsaNl6UpbT7bw_4core3ops4drop4Drop4drop0ECs7IQ6Ulc8Ywk_14zerovec_derive, symObjAddr: 0x5BC, symBinAddr: 0x135BC, symSize: 0x1DC }
  - { offset: 0x24F98, size: 0x8, addend: 0x0, symName: __RNvNtNtNtCsht3nMU9UgFu_3std2io5error14repr_bitpacked14kind_from_primCs7IQ6Ulc8Ywk_14zerovec_derive, symObjAddr: 0xD70, symBinAddr: 0x13D70, symSize: 0x758 }
  - { offset: 0x258C3, size: 0x8, addend: 0x0, symName: __RNCNkNvNvMNtNtCsht3nMU9UgFu_3std4hash6randomNtB8_11RandomState3new4KEYS0s_0Cs7IQ6Ulc8Ywk_14zerovec_derive, symObjAddr: 0x81C, symBinAddr: 0x1381C, symSize: 0x34 }
  - { offset: 0x25901, size: 0x8, addend: 0x0, symName: __RNvNvNvMNtNtCsht3nMU9UgFu_3std4hash6randomNtB6_11RandomState3new4KEYS6___initCs7IQ6Ulc8Ywk_14zerovec_derive, symObjAddr: 0x14C8, symBinAddr: 0x144C8, symSize: 0x24 }
  - { offset: 0x2591F, size: 0x8, addend: 0x0, symName: __RNCNvMNtNtCsht3nMU9UgFu_3std4hash6randomNtB4_11RandomState3new0Cs7IQ6Ulc8Ywk_14zerovec_derive, symObjAddr: 0x850, symBinAddr: 0x13850, symSize: 0x2C }
  - { offset: 0x259E4, size: 0x8, addend: 0x0, symName: __RNvXs2_NtNtCsht3nMU9UgFu_3std4hash6randomNtB5_13DefaultHasherNtNtCsaNl6UpbT7bw_4core4hash6Hasher5writeCs7IQ6Ulc8Ywk_14zerovec_derive, symObjAddr: 0x165C, symBinAddr: 0x1465C, symSize: 0x38 }
  - { offset: 0x25A3F, size: 0x8, addend: 0x0, symName: __RNvXs2_NtNtCsht3nMU9UgFu_3std4hash6randomNtB5_13DefaultHasherNtNtCsaNl6UpbT7bw_4core4hash6Hasher6finishCs7IQ6Ulc8Ywk_14zerovec_derive, symObjAddr: 0x1694, symBinAddr: 0x14694, symSize: 0x2C }
  - { offset: 0x25ABE, size: 0x8, addend: 0x0, symName: __RNvXs3_NtNtCsht3nMU9UgFu_3std4hash6randomNtB5_11RandomStateNtNtCsaNl6UpbT7bw_4core7default7Default7defaultCs7IQ6Ulc8Ywk_14zerovec_derive, symObjAddr: 0x16C0, symBinAddr: 0x146C0, symSize: 0x1C }
  - { offset: 0x25AF6, size: 0x8, addend: 0x0, symName: __RNvXs_NtNtCsht3nMU9UgFu_3std4hash6randomNtB4_11RandomStateNtNtCsaNl6UpbT7bw_4core4hash11BuildHasher12build_hasherCs7IQ6Ulc8Ywk_14zerovec_derive, symObjAddr: 0x19FC, symBinAddr: 0x149FC, symSize: 0xCC }
  - { offset: 0x25BB4, size: 0x8, addend: 0x0, symName: __RINvMNtCsaNl6UpbT7bw_4core6resultINtB3_6ResultNtNtCs7IQ6Ulc8Ywk_14zerovec_derive11make_varule8OwnULETyNtNtCsiTraAjBDcu4_5alloc6string6StringE3mapNtBK_16UnsizedFieldKindNcNtB2j_10VarZeroCow0EBM_, symObjAddr: 0x0, symBinAddr: 0x13000, symSize: 0x98 }
  - { offset: 0x25C47, size: 0x8, addend: 0x0, symName: __RINvMNtCsaNl6UpbT7bw_4core6resultINtB3_6ResultNtNtCs7IQ6Ulc8Ywk_14zerovec_derive11make_varule8OwnULETyNtNtCsiTraAjBDcu4_5alloc6string6StringE3mapNtBK_16UnsizedFieldKindNcNtB2j_3Cow0EBM_, symObjAddr: 0x98, symBinAddr: 0x13098, symSize: 0x98 }
  - { offset: 0x25CDA, size: 0x8, addend: 0x0, symName: __RINvMNtCsaNl6UpbT7bw_4core6resultINtB3_6ResultNtNtCs7IQ6Ulc8Ywk_14zerovec_derive11make_varule8OwnULETyNtNtCsiTraAjBDcu4_5alloc6string6StringE3mapNtBK_16UnsizedFieldKindNcNtB2j_3Ref0EBM_, symObjAddr: 0x130, symBinAddr: 0x13130, symSize: 0x98 }
  - { offset: 0x25D6D, size: 0x8, addend: 0x0, symName: __RINvMNtCsaNl6UpbT7bw_4core6resultINtB3_6ResultNtNtCs7IQ6Ulc8Ywk_14zerovec_derive11make_varule8OwnULETyNtNtCsiTraAjBDcu4_5alloc6string6StringE3mapNtBK_16UnsizedFieldKindNcNtB2j_5Boxed0EBM_, symObjAddr: 0x1C8, symBinAddr: 0x131C8, symSize: 0x98 }
  - { offset: 0x25E0D, size: 0x8, addend: 0x0, symName: __RINvMNtCsaNl6UpbT7bw_4core6resultINtB3_6ResultyNtNtNtB5_3num5error13ParseIntErrorE7map_errNtNtCsc29TF2YcYso_3syn5error5ErrorNCINvMs3_NtB1u_3litNtB27_6LitInt12base10_parseyE0ECs7IQ6Ulc8Ywk_14zerovec_derive, symObjAddr: 0x260, symBinAddr: 0x13260, symSize: 0x84 }
  - { offset: 0x25F35, size: 0x8, addend: 0x0, symName: __RINvMs3_NtNtCs7yrEGia95Wz_10proc_macro6bridge6bufferNtB6_6Buffer17extend_from_arrayKj4_ECs7IQ6Ulc8Ywk_14zerovec_derive, symObjAddr: 0x2E4, symBinAddr: 0x132E4, symSize: 0x16C }
  - { offset: 0x260BD, size: 0x8, addend: 0x0, symName: __RINvMs3_NtNtCs7yrEGia95Wz_10proc_macro6bridge6bufferNtB6_6Buffer17extend_from_arrayKj8_ECs7IQ6Ulc8Ywk_14zerovec_derive, symObjAddr: 0x450, symBinAddr: 0x13450, symSize: 0x16C }
  - { offset: 0x264AF, size: 0x8, addend: 0x0, symName: __RNvMNtCsaNl6UpbT7bw_4core6resultINtB2_6ResultNtNtCs7IQ6Ulc8Ywk_14zerovec_derive11make_varule12UnsizedFieldNtNtCsiTraAjBDcu4_5alloc6string6StringE10unwrap_errBL_, symObjAddr: 0x98C, symBinAddr: 0x1398C, symSize: 0xC4 }
  - { offset: 0x26503, size: 0x8, addend: 0x0, symName: __RNvMNtCsaNl6UpbT7bw_4core6resultINtB2_6ResultyNtNtCsc29TF2YcYso_3syn5error5ErrorE2okCs7IQ6Ulc8Ywk_14zerovec_derive, symObjAddr: 0xA50, symBinAddr: 0x13A50, symSize: 0x88 }
  - { offset: 0x26569, size: 0x8, addend: 0x0, symName: __RNvMs3_NtNtCs7yrEGia95Wz_10proc_macro6bridge6bufferNtB5_6Buffer17extend_from_sliceCs7IQ6Ulc8Ywk_14zerovec_derive, symObjAddr: 0xAD8, symBinAddr: 0x13AD8, symSize: 0x164 }
  - { offset: 0x266E7, size: 0x8, addend: 0x0, symName: __RNvMs3_NtNtCs7yrEGia95Wz_10proc_macro6bridge6bufferNtB5_6Buffer4pushCs7IQ6Ulc8Ywk_14zerovec_derive, symObjAddr: 0xC3C, symBinAddr: 0x13C3C, symSize: 0x134 }
  - { offset: 0x267BD, size: 0x8, addend: 0x0, symName: __RNvXs0_NtCs4EAaWzSXu1l_5quote7spannedNtNtCsc29TF2YcYso_3syn4expr4ExprNtB5_7Spanned6___spanCs7IQ6Ulc8Ywk_14zerovec_derive, symObjAddr: 0x1520, symBinAddr: 0x14520, symSize: 0x44 }
  - { offset: 0x267FE, size: 0x8, addend: 0x0, symName: __RNvYRNtNtCsc29TF2YcYso_3syn4expr4ExprNtNtCs4EAaWzSXu1l_5quote9to_tokens8ToTokens15to_token_streamCs7IQ6Ulc8Ywk_14zerovec_derive, symObjAddr: 0x21AC, symBinAddr: 0x151AC, symSize: 0x8C }
  - { offset: 0x26848, size: 0x8, addend: 0x0, symName: __RNvYRNtNtCsc29TF2YcYso_3syn4expr4ExprNtNtCs4EAaWzSXu1l_5quote9to_tokens8ToTokens17into_token_streamCs7IQ6Ulc8Ywk_14zerovec_derive, symObjAddr: 0x2238, symBinAddr: 0x15238, symSize: 0x54 }
  - { offset: 0x26AC4, size: 0x8, addend: 0x0, symName: __RNvMNtCs7IQ6Ulc8Ywk_14zerovec_derive5utilsNtB2_8ReprInfo7compute, symObjAddr: 0x228C, symBinAddr: 0x1528C, symSize: 0x3E0 }
  - { offset: 0x26B69, size: 0x8, addend: 0x0, symName: __RNvMNtCs7IQ6Ulc8Ywk_14zerovec_derive5utilsNtB2_8ReprInfo22cpacked_or_transparent, symObjAddr: 0x26BC, symBinAddr: 0x156BC, symSize: 0x8C }
  - { offset: 0x26B8B, size: 0x8, addend: 0x0, symName: __RINvMs0_NtCs7IQ6Ulc8Ywk_14zerovec_derive5utilsNtB6_9FieldInfo9make_listINtNtCsc29TF2YcYso_3syn10punctuated4IterNtNtB1c_4data5FieldEEB8_, symObjAddr: 0x4168, symBinAddr: 0x17168, symSize: 0x64 }
  - { offset: 0x26BB6, size: 0x8, addend: 0x0, symName: __RINvMs0_NtCs7IQ6Ulc8Ywk_14zerovec_derive5utilsNtB6_9FieldInfo9make_listINtNtNtNtCsaNl6UpbT7bw_4core4iter8adapters4take4TakeINtNtCsc29TF2YcYso_3syn10punctuated4IterNtNtB22_4data5FieldEEEB8_, symObjAddr: 0x41CC, symBinAddr: 0x171CC, symSize: 0x54 }
  - { offset: 0x26BE2, size: 0x8, addend: 0x0, symName: __RNvMs0_NtCs7IQ6Ulc8Ywk_14zerovec_derive5utilsNtB5_9FieldInfo13new_for_field, symObjAddr: 0x42C0, symBinAddr: 0x172C0, symSize: 0x188 }
  - { offset: 0x26C69, size: 0x8, addend: 0x0, symName: __RNvMs0_NtCs7IQ6Ulc8Ywk_14zerovec_derive5utilsNtB5_9FieldInfo6setter, symObjAddr: 0x4448, symBinAddr: 0x17448, symSize: 0xF0 }
  - { offset: 0x26CB5, size: 0x8, addend: 0x0, symName: __RNvMs0_NtCs7IQ6Ulc8Ywk_14zerovec_derive5utilsNtB5_9FieldInfo6getter, symObjAddr: 0x4538, symBinAddr: 0x17538, symSize: 0x120 }
  - { offset: 0x26D02, size: 0x8, addend: 0x0, symName: __RNvMs0_NtCs7IQ6Ulc8Ywk_14zerovec_derive5utilsNtB5_9FieldInfo15getter_doc_name, symObjAddr: 0x4658, symBinAddr: 0x17658, symSize: 0x120 }
  - { offset: 0x27111, size: 0x8, addend: 0x0, symName: __RINvMs_NtCsiTraAjBDcu4_5alloc3vecINtB5_3VecNtNtCsc29TF2YcYso_3syn4attr9AttributeE10retain_mutNCINvB2_6retainNCNvNtCs7IQ6Ulc8Ywk_14zerovec_derive5utils22extract_single_tt_attr0E0EB1O_, symObjAddr: 0x0, symBinAddr: 0x1965C, symSize: 0xE4 }
  - { offset: 0x2BEE7, size: 0x8, addend: 0x0, symName: __RINvNvMs_NtCsiTraAjBDcu4_5alloc3vecINtB7_3VecppE10retain_mut12process_loopNCINvMs_B7_IBy_NtNtCsc29TF2YcYso_3syn4attr9AttributeE6retainNCNvNtCs7IQ6Ulc8Ywk_14zerovec_derive5utils22extract_single_tt_attr0E0B1p_NtNtB9_5alloc6GlobalKb0_EB2e_, symObjAddr: 0xD8C, symBinAddr: 0x1A3E8, symSize: 0xE0 }
  - { offset: 0x2C03B, size: 0x8, addend: 0x0, symName: __RINvNvMs_NtCsiTraAjBDcu4_5alloc3vecINtB7_3VecppE10retain_mut12process_loopNCINvMs_B7_IBy_NtNtCsc29TF2YcYso_3syn4attr9AttributeE6retainNCNvNtCs7IQ6Ulc8Ywk_14zerovec_derive5utils22extract_single_tt_attr0E0B1p_NtNtB9_5alloc6GlobalKb1_EB2e_, symObjAddr: 0xE6C, symBinAddr: 0x1A4C8, symSize: 0x15C }
  - { offset: 0x2C22A, size: 0x8, addend: 0x0, symName: __RINvNvMs_NtCsiTraAjBDcu4_5alloc3vecINtB7_3VecppE10retain_mut12process_loopNCINvMs_B7_IBy_NtNtCsc29TF2YcYso_3syn4attr9AttributeE6retainNCNvNtCs7IQ6Ulc8Ywk_14zerovec_derive5utils26extract_zerovec_attributes0E0B1p_NtNtB9_5alloc6GlobalKb0_EB2e_, symObjAddr: 0xFC8, symBinAddr: 0x1A624, symSize: 0xE0 }
  - { offset: 0x2C37E, size: 0x8, addend: 0x0, symName: __RINvNvMs_NtCsiTraAjBDcu4_5alloc3vecINtB7_3VecppE10retain_mut12process_loopNCINvMs_B7_IBy_NtNtCsc29TF2YcYso_3syn4attr9AttributeE6retainNCNvNtCs7IQ6Ulc8Ywk_14zerovec_derive5utils26extract_zerovec_attributes0E0B1p_NtNtB9_5alloc6GlobalKb1_EB2e_, symObjAddr: 0x10A8, symBinAddr: 0x1A704, symSize: 0x15C }
  - { offset: 0x2C56D, size: 0x8, addend: 0x0, symName: __RINvNvMs_NtCsiTraAjBDcu4_5alloc3vecINtB7_3VecppE10retain_mut12process_loopNCINvMs_B7_IBy_NtNtCsc29TF2YcYso_3syn4attr9AttributeE6retainNCNvNtCs7IQ6Ulc8Ywk_14zerovec_derive5utils35extract_parenthetical_zerovec_attrs0E0B1p_NtNtB9_5alloc6GlobalKb0_EB2e_, symObjAddr: 0x1204, symBinAddr: 0x1A860, symSize: 0xE0 }
  - { offset: 0x2C6C1, size: 0x8, addend: 0x0, symName: __RINvNvMs_NtCsiTraAjBDcu4_5alloc3vecINtB7_3VecppE10retain_mut12process_loopNCINvMs_B7_IBy_NtNtCsc29TF2YcYso_3syn4attr9AttributeE6retainNCNvNtCs7IQ6Ulc8Ywk_14zerovec_derive5utils35extract_parenthetical_zerovec_attrs0E0B1p_NtNtB9_5alloc6GlobalKb1_EB2e_, symObjAddr: 0x12E4, symBinAddr: 0x1A940, symSize: 0x15C }
  - { offset: 0x2C8B5, size: 0x8, addend: 0x0, symName: __RNvXNvMs_NtCsiTraAjBDcu4_5alloc3vecINtB7_3VecppE10retain_mutINtB2_15BackshiftOnDropNtNtCsc29TF2YcYso_3syn4attr9AttributeNtNtB9_5alloc6GlobalENtNtNtCsaNl6UpbT7bw_4core3ops4drop4Drop4dropCs7IQ6Ulc8Ywk_14zerovec_derive, symObjAddr: 0x29EC, symBinAddr: 0x1C048, symSize: 0x12C }
  - { offset: 0x2CAA1, size: 0x8, addend: 0x0, symName: __RNCINvMs_NtCsiTraAjBDcu4_5alloc3vecINtB7_3VecNtNtCsc29TF2YcYso_3syn4attr9AttributeE6retainNCNvNtCs7IQ6Ulc8Ywk_14zerovec_derive5utils22extract_single_tt_attr0E0B1w_, symObjAddr: 0x15D4, symBinAddr: 0x1AC30, symSize: 0x30 }
  - { offset: 0x2CAFC, size: 0x8, addend: 0x0, symName: __RNCINvMs_NtCsiTraAjBDcu4_5alloc3vecINtB7_3VecNtNtCsc29TF2YcYso_3syn4attr9AttributeE6retainNCNvNtCs7IQ6Ulc8Ywk_14zerovec_derive5utils26extract_zerovec_attributes0E0B1w_, symObjAddr: 0x1604, symBinAddr: 0x1AC60, symSize: 0x30 }
  - { offset: 0x2CB57, size: 0x8, addend: 0x0, symName: __RNCINvMs_NtCsiTraAjBDcu4_5alloc3vecINtB7_3VecNtNtCsc29TF2YcYso_3syn4attr9AttributeE6retainNCNvNtCs7IQ6Ulc8Ywk_14zerovec_derive5utils35extract_parenthetical_zerovec_attrs0E0B1w_, symObjAddr: 0x1634, symBinAddr: 0x1AC90, symSize: 0x30 }
  - { offset: 0x2D432, size: 0x8, addend: 0x0, symName: __RINvXsd_NtCsiTraAjBDcu4_5alloc3vecINtB6_3VecNtCshnvkK9b4wzu_11proc_macro211TokenStreamEINtNtNtNtCsaNl6UpbT7bw_4core4iter6traits7collect12FromIteratorBG_E9from_iterINtNtNtB1u_8adapters3map3MapINtNtNtB1w_5slice4iter4IterNtNtCs7IQ6Ulc8Ywk_14zerovec_derive5utils9FieldInfoENCNvNtB3y_11make_varule21make_zf_and_from_impl0EEB3y_, symObjAddr: 0x1440, symBinAddr: 0x1AA9C, symSize: 0x40 }
  - { offset: 0x2D472, size: 0x8, addend: 0x0, symName: __RINvXsd_NtCsiTraAjBDcu4_5alloc3vecINtB6_3VecNtCshnvkK9b4wzu_11proc_macro211TokenStreamEINtNtNtNtCsaNl6UpbT7bw_4core4iter6traits7collect12FromIteratorBG_E9from_iterINtNtNtB1u_8adapters3map3MapINtNtNtB1w_5slice4iter4IterNtNtCs7IQ6Ulc8Ywk_14zerovec_derive5utils9FieldInfoENCNvNtB3y_3ule15make_ule_fields0EEB3y_, symObjAddr: 0x1480, symBinAddr: 0x1AADC, symSize: 0x40 }
  - { offset: 0x2D4B2, size: 0x8, addend: 0x0, symName: __RINvXsd_NtCsiTraAjBDcu4_5alloc3vecINtB6_3VecNtNtCs7IQ6Ulc8Ywk_14zerovec_derive5utils9FieldInfoEINtNtNtNtCsaNl6UpbT7bw_4core4iter6traits7collect12FromIteratorBG_E9from_iterINtNtNtB1C_8adapters3map3MapINtNtB2O_9enumerate9EnumerateINtNtB2O_4take4TakeINtNtCsc29TF2YcYso_3syn10punctuated4IterNtNtB42_4data5FieldEEENCINvMs0_BI_BG_9make_listB3E_E0EEBK_, symObjAddr: 0x14C0, symBinAddr: 0x1AB1C, symSize: 0x3C }
  - { offset: 0x2D4F3, size: 0x8, addend: 0x0, symName: __RINvXsd_NtCsiTraAjBDcu4_5alloc3vecINtB6_3VecNtNtCs7IQ6Ulc8Ywk_14zerovec_derive5utils9FieldInfoEINtNtNtNtCsaNl6UpbT7bw_4core4iter6traits7collect12FromIteratorBG_E9from_iterINtNtNtB1C_8adapters3map3MapINtNtB2O_9enumerate9EnumerateINtNtCsc29TF2YcYso_3syn10punctuated4IterNtNtB3J_4data5FieldEENCINvMs0_BI_BG_9make_listB3E_E0EEBK_, symObjAddr: 0x14FC, symBinAddr: 0x1AB58, symSize: 0x3C }
  - { offset: 0x2D534, size: 0x8, addend: 0x0, symName: __RINvXsd_NtCsiTraAjBDcu4_5alloc3vecINtB6_3VecRhEINtNtNtNtCsaNl6UpbT7bw_4core4iter6traits7collect12FromIteratorBG_E9from_iterINtNtNtNtCsht3nMU9UgFu_3std11collections4hash3set4IterhEECs7IQ6Ulc8Ywk_14zerovec_derive, symObjAddr: 0x1538, symBinAddr: 0x1AB94, symSize: 0x3C }
  - { offset: 0x2D57B, size: 0x8, addend: 0x0, symName: __RINvXsh_NtCsiTraAjBDcu4_5alloc3vecINtB6_3VecNtCshnvkK9b4wzu_11proc_macro25IdentEINtNtNtNtCsaNl6UpbT7bw_4core4iter6traits7collect6ExtendBG_E6extendINtNtNtB1n_8adapters6cloned6ClonedINtNtCsc29TF2YcYso_3syn10punctuated4IterBG_EEECs7IQ6Ulc8Ywk_14zerovec_derive, symObjAddr: 0x1574, symBinAddr: 0x1ABD0, symSize: 0x60 }
  - { offset: 0x2D5DA, size: 0x8, addend: 0x0, symName: __RNCINvMsi_NtCsiTraAjBDcu4_5alloc3vecINtB8_3VecNtCshnvkK9b4wzu_11proc_macro211TokenStreamE14extend_trustedINtNtNtNtCsaNl6UpbT7bw_4core4iter8adapters3map3MapINtNtNtB1O_5slice4iter4IterNtNtCs7IQ6Ulc8Ywk_14zerovec_derive5utils9FieldInfoENCNvNtB2Y_11make_varule21make_zf_and_from_impl0EE0B2Y_, symObjAddr: 0x1664, symBinAddr: 0x1ACC0, symSize: 0x3C }
  - { offset: 0x2D68F, size: 0x8, addend: 0x0, symName: __RNCINvMsi_NtCsiTraAjBDcu4_5alloc3vecINtB8_3VecNtCshnvkK9b4wzu_11proc_macro211TokenStreamE14extend_trustedINtNtNtNtCsaNl6UpbT7bw_4core4iter8adapters3map3MapINtNtNtB1O_5slice4iter4IterNtNtCs7IQ6Ulc8Ywk_14zerovec_derive5utils9FieldInfoENCNvNtB2Y_3ule15make_ule_fields0EE0B2Y_, symObjAddr: 0x16A0, symBinAddr: 0x1ACFC, symSize: 0x3C }
  - { offset: 0x2DA79, size: 0x8, addend: 0x0, symName: __RNvXNtNtCsiTraAjBDcu4_5alloc3vec11spec_extendINtB4_3VecNtCshnvkK9b4wzu_11proc_macro25IdentEINtB2_10SpecExtendBR_INtNtNtNtCsaNl6UpbT7bw_4core4iter8adapters6cloned6ClonedINtNtCsc29TF2YcYso_3syn10punctuated4IterBR_EEE11spec_extendCs7IQ6Ulc8Ywk_14zerovec_derive, symObjAddr: 0x223C, symBinAddr: 0x1B898, symSize: 0x34 }
  - { offset: 0x2DACA, size: 0x8, addend: 0x0, symName: __RNvXNtNtCsiTraAjBDcu4_5alloc3vec11spec_extendINtB4_3VecNtNtCs7IQ6Ulc8Ywk_14zerovec_derive5utils9FieldInfoEINtB2_10SpecExtendBR_INtNtNtNtCsaNl6UpbT7bw_4core4iter8adapters3map3MapINtNtB26_9enumerate9EnumerateINtNtB26_4take4TakeINtNtCsc29TF2YcYso_3syn10punctuated4IterNtNtB3G_4data5FieldEEENCINvMs0_BT_BR_9make_listB3i_E0EE11spec_extendBV_, symObjAddr: 0x2270, symBinAddr: 0x1B8CC, symSize: 0x24 }
  - { offset: 0x2DB1C, size: 0x8, addend: 0x0, symName: __RNvXNtNtCsiTraAjBDcu4_5alloc3vec11spec_extendINtB4_3VecNtNtCs7IQ6Ulc8Ywk_14zerovec_derive5utils9FieldInfoEINtB2_10SpecExtendBR_INtNtNtNtCsaNl6UpbT7bw_4core4iter8adapters3map3MapINtNtB26_9enumerate9EnumerateINtNtCsc29TF2YcYso_3syn10punctuated4IterNtNtB3n_4data5FieldEENCINvMs0_BT_BR_9make_listB3i_E0EE11spec_extendBV_, symObjAddr: 0x2294, symBinAddr: 0x1B8F0, symSize: 0x24 }
  - { offset: 0x2DB6E, size: 0x8, addend: 0x0, symName: __RNvXNtNtCsiTraAjBDcu4_5alloc3vec11spec_extendINtB4_3VecRhEINtB2_10SpecExtendBR_INtNtNtNtCsht3nMU9UgFu_3std11collections4hash3set4IterhEE11spec_extendCs7IQ6Ulc8Ywk_14zerovec_derive, symObjAddr: 0x22B8, symBinAddr: 0x1B914, symSize: 0x24 }
  - { offset: 0x2DBC6, size: 0x8, addend: 0x0, symName: __RNvXs_NtNtCsiTraAjBDcu4_5alloc3vec11spec_extendINtB6_3VecNtCshnvkK9b4wzu_11proc_macro211TokenStreamEINtB4_10SpecExtendBT_INtNtNtNtCsaNl6UpbT7bw_4core4iter8adapters3map3MapINtNtNtB24_5slice4iter4IterNtNtCs7IQ6Ulc8Ywk_14zerovec_derive5utils9FieldInfoENCNvNtB3e_11make_varule21make_zf_and_from_impl0EE11spec_extendB3e_, symObjAddr: 0x2C04, symBinAddr: 0x1C260, symSize: 0x34 }
  - { offset: 0x2DC17, size: 0x8, addend: 0x0, symName: __RNvXs_NtNtCsiTraAjBDcu4_5alloc3vec11spec_extendINtB6_3VecNtCshnvkK9b4wzu_11proc_macro211TokenStreamEINtB4_10SpecExtendBT_INtNtNtNtCsaNl6UpbT7bw_4core4iter8adapters3map3MapINtNtNtB24_5slice4iter4IterNtNtCs7IQ6Ulc8Ywk_14zerovec_derive5utils9FieldInfoENCNvNtB3e_3ule15make_ule_fields0EE11spec_extendB3e_, symObjAddr: 0x2C38, symBinAddr: 0x1C294, symSize: 0x34 }
  - { offset: 0x2DC74, size: 0x8, addend: 0x0, symName: __RNvXNtNtCsiTraAjBDcu4_5alloc3vec14spec_from_iterINtB4_3VecNtCshnvkK9b4wzu_11proc_macro211TokenStreamEINtB2_12SpecFromIterBU_INtNtNtNtCsaNl6UpbT7bw_4core4iter8adapters3map3MapINtNtNtB27_5slice4iter4IterNtNtCs7IQ6Ulc8Ywk_14zerovec_derive5utils9FieldInfoENCNvNtB3h_11make_varule21make_zf_and_from_impl0EE9from_iterB3h_, symObjAddr: 0x22DC, symBinAddr: 0x1B938, symSize: 0x2C }
  - { offset: 0x2DCB2, size: 0x8, addend: 0x0, symName: __RNvXNtNtCsiTraAjBDcu4_5alloc3vec14spec_from_iterINtB4_3VecNtCshnvkK9b4wzu_11proc_macro211TokenStreamEINtB2_12SpecFromIterBU_INtNtNtNtCsaNl6UpbT7bw_4core4iter8adapters3map3MapINtNtNtB27_5slice4iter4IterNtNtCs7IQ6Ulc8Ywk_14zerovec_derive5utils9FieldInfoENCNvNtB3h_3ule15make_ule_fields0EE9from_iterB3h_, symObjAddr: 0x2308, symBinAddr: 0x1B964, symSize: 0x2C }
  - { offset: 0x2DCF0, size: 0x8, addend: 0x0, symName: __RNvXNtNtCsiTraAjBDcu4_5alloc3vec14spec_from_iterINtB4_3VecNtNtCs7IQ6Ulc8Ywk_14zerovec_derive5utils9FieldInfoEINtB2_12SpecFromIterBU_INtNtNtNtCsaNl6UpbT7bw_4core4iter8adapters3map3MapINtNtB2b_9enumerate9EnumerateINtNtB2b_4take4TakeINtNtCsc29TF2YcYso_3syn10punctuated4IterNtNtB3L_4data5FieldEEENCINvMs0_BW_BU_9make_listB3n_E0EE9from_iterBY_, symObjAddr: 0x2334, symBinAddr: 0x1B990, symSize: 0x14 }
  - { offset: 0x2DD2F, size: 0x8, addend: 0x0, symName: __RNvXNtNtCsiTraAjBDcu4_5alloc3vec14spec_from_iterINtB4_3VecNtNtCs7IQ6Ulc8Ywk_14zerovec_derive5utils9FieldInfoEINtB2_12SpecFromIterBU_INtNtNtNtCsaNl6UpbT7bw_4core4iter8adapters3map3MapINtNtB2b_9enumerate9EnumerateINtNtCsc29TF2YcYso_3syn10punctuated4IterNtNtB3s_4data5FieldEENCINvMs0_BW_BU_9make_listB3n_E0EE9from_iterBY_, symObjAddr: 0x2348, symBinAddr: 0x1B9A4, symSize: 0x14 }
  - { offset: 0x2DD6E, size: 0x8, addend: 0x0, symName: __RNvXNtNtCsiTraAjBDcu4_5alloc3vec14spec_from_iterINtB4_3VecRhEINtB2_12SpecFromIterBU_INtNtNtNtCsht3nMU9UgFu_3std11collections4hash3set4IterhEE9from_iterCs7IQ6Ulc8Ywk_14zerovec_derive, symObjAddr: 0x235C, symBinAddr: 0x1B9B8, symSize: 0x14 }
  - { offset: 0x2DDB9, size: 0x8, addend: 0x0, symName: __RNvXNtNtCsiTraAjBDcu4_5alloc3vec21spec_from_iter_nestedINtB4_3VecNtNtCs7IQ6Ulc8Ywk_14zerovec_derive5utils9FieldInfoEINtB2_18SpecFromIterNestedB11_INtNtNtNtCsaNl6UpbT7bw_4core4iter8adapters3map3MapINtNtB2p_9enumerate9EnumerateINtNtB2p_4take4TakeINtNtCsc29TF2YcYso_3syn10punctuated4IterNtNtB3Z_4data5FieldEEENCINvMs0_B13_B11_9make_listB3B_E0EE9from_iterB15_, symObjAddr: 0x2370, symBinAddr: 0x1B9CC, symSize: 0x23C }
  - { offset: 0x2DFD8, size: 0x8, addend: 0x0, symName: __RNvXNtNtCsiTraAjBDcu4_5alloc3vec21spec_from_iter_nestedINtB4_3VecNtNtCs7IQ6Ulc8Ywk_14zerovec_derive5utils9FieldInfoEINtB2_18SpecFromIterNestedB11_INtNtNtNtCsaNl6UpbT7bw_4core4iter8adapters3map3MapINtNtB2p_9enumerate9EnumerateINtNtCsc29TF2YcYso_3syn10punctuated4IterNtNtB3G_4data5FieldEENCINvMs0_B13_B11_9make_listB3B_E0EE9from_iterB15_, symObjAddr: 0x25AC, symBinAddr: 0x1BC08, symSize: 0x23C }
  - { offset: 0x2E1F7, size: 0x8, addend: 0x0, symName: __RNvXNtNtCsiTraAjBDcu4_5alloc3vec21spec_from_iter_nestedINtB4_3VecRhEINtB2_18SpecFromIterNestedB11_INtNtNtNtCsht3nMU9UgFu_3std11collections4hash3set4IterhEE9from_iterCs7IQ6Ulc8Ywk_14zerovec_derive, symObjAddr: 0x27E8, symBinAddr: 0x1BE44, symSize: 0x204 }
  - { offset: 0x2E41B, size: 0x8, addend: 0x0, symName: __RNvXs_NtNtCsiTraAjBDcu4_5alloc3vec21spec_from_iter_nestedINtB6_3VecNtCshnvkK9b4wzu_11proc_macro211TokenStreamEINtB4_18SpecFromIterNestedB13_INtNtNtNtCsaNl6UpbT7bw_4core4iter8adapters3map3MapINtNtNtB2n_5slice4iter4IterNtNtCs7IQ6Ulc8Ywk_14zerovec_derive5utils9FieldInfoENCNvNtB3x_11make_varule21make_zf_and_from_impl0EE9from_iterB3x_, symObjAddr: 0x2C6C, symBinAddr: 0x1C2C8, symSize: 0x164 }
  - { offset: 0x2E4F1, size: 0x8, addend: 0x0, symName: __RNvXs_NtNtCsiTraAjBDcu4_5alloc3vec21spec_from_iter_nestedINtB6_3VecNtCshnvkK9b4wzu_11proc_macro211TokenStreamEINtB4_18SpecFromIterNestedB13_INtNtNtNtCsaNl6UpbT7bw_4core4iter8adapters3map3MapINtNtNtB2n_5slice4iter4IterNtNtCs7IQ6Ulc8Ywk_14zerovec_derive5utils9FieldInfoENCNvNtB3x_3ule15make_ule_fields0EE9from_iterB3x_, symObjAddr: 0x2DD0, symBinAddr: 0x1C42C, symSize: 0x164 }
  - { offset: 0x2E5CE, size: 0x8, addend: 0x0, symName: __RNvXs6_NtCsiTraAjBDcu4_5alloc3vecINtB5_3VecNtCshnvkK9b4wzu_11proc_macro211TokenStreamENtNtNtCsaNl6UpbT7bw_4core3ops5deref5Deref5derefCs7IQ6Ulc8Ywk_14zerovec_derive, symObjAddr: 0x2B50, symBinAddr: 0x1C1AC, symSize: 0x24 }
  - { offset: 0x2E60E, size: 0x8, addend: 0x0, symName: __RNvXs6_NtCsiTraAjBDcu4_5alloc3vecINtB5_3VecNtCshnvkK9b4wzu_11proc_macro25IdentENtNtNtCsaNl6UpbT7bw_4core3ops5deref5Deref5derefCs7IQ6Ulc8Ywk_14zerovec_derive, symObjAddr: 0x2B74, symBinAddr: 0x1C1D0, symSize: 0x24 }
  - { offset: 0x2E64E, size: 0x8, addend: 0x0, symName: __RNvXs6_NtCsiTraAjBDcu4_5alloc3vecINtB5_3VecNtNtCs7IQ6Ulc8Ywk_14zerovec_derive11make_varule12UnsizedFieldENtNtNtCsaNl6UpbT7bw_4core3ops5deref5Deref5derefBJ_, symObjAddr: 0x2B98, symBinAddr: 0x1C1F4, symSize: 0x24 }
  - { offset: 0x2E68E, size: 0x8, addend: 0x0, symName: __RNvXs6_NtCsiTraAjBDcu4_5alloc3vecINtB5_3VecNtNtCs7IQ6Ulc8Ywk_14zerovec_derive5utils9FieldInfoENtNtNtCsaNl6UpbT7bw_4core3ops5deref5Deref5derefBJ_, symObjAddr: 0x2BBC, symBinAddr: 0x1C218, symSize: 0x24 }
  - { offset: 0x2E6CE, size: 0x8, addend: 0x0, symName: __RNvXs6_NtCsiTraAjBDcu4_5alloc3vecINtB5_3VecTNtCshnvkK9b4wzu_11proc_macro25IdentNtNtCsc29TF2YcYso_3syn5token5CommaEENtNtNtCsaNl6UpbT7bw_4core3ops5deref5Deref5derefCs7IQ6Ulc8Ywk_14zerovec_derive, symObjAddr: 0x2BE0, symBinAddr: 0x1C23C, symSize: 0x24 }
  - { offset: 0x2E804, size: 0x8, addend: 0x0, symName: __RNvXsb_NtCsiTraAjBDcu4_5alloc3vecINtB5_3VecINtNtCsaNl6UpbT7bw_4core6option6OptionNtCshnvkK9b4wzu_11proc_macro25IdentEEINtNtNtBK_3ops5index5IndexjE5indexCs7IQ6Ulc8Ywk_14zerovec_derive, symObjAddr: 0x2F34, symBinAddr: 0x1C590, symSize: 0x8C }
  - { offset: 0x2E986, size: 0x8, addend: 0x0, symName: __RNvXsb_NtCsiTraAjBDcu4_5alloc3vecINtB5_3VecNtCshnvkK9b4wzu_11proc_macro25IdentEINtNtNtCsaNl6UpbT7bw_4core3ops5index5IndexjE5indexCs7IQ6Ulc8Ywk_14zerovec_derive, symObjAddr: 0x2FC0, symBinAddr: 0x1C61C, symSize: 0x8C }
  - { offset: 0x2EB08, size: 0x8, addend: 0x0, symName: __RNvXsb_NtCsiTraAjBDcu4_5alloc3vecINtB5_3VecNtNtCs7IQ6Ulc8Ywk_14zerovec_derive11make_varule12UnsizedFieldEINtNtNtCsaNl6UpbT7bw_4core3ops5index5IndexjE5indexBJ_, symObjAddr: 0x304C, symBinAddr: 0x1C6A8, symSize: 0x8C }
  - { offset: 0x2EC8A, size: 0x8, addend: 0x0, symName: __RNvXsb_NtCsiTraAjBDcu4_5alloc3vecINtB5_3VecNtNtCsc29TF2YcYso_3syn4attr9AttributeEINtNtNtCsaNl6UpbT7bw_4core3ops5index5IndexjE5indexCs7IQ6Ulc8Ywk_14zerovec_derive, symObjAddr: 0x30D8, symBinAddr: 0x1C734, symSize: 0x8C }
  - { offset: 0x2EE12, size: 0x8, addend: 0x0, symName: __RNvXse_NtCsiTraAjBDcu4_5alloc3vecINtB5_3VecNtCshnvkK9b4wzu_11proc_macro25IdentENtNtNtNtCsaNl6UpbT7bw_4core4iter6traits7collect12IntoIterator9into_iterCs7IQ6Ulc8Ywk_14zerovec_derive, symObjAddr: 0x3164, symBinAddr: 0x1C7C0, symSize: 0xE4 }
  - { offset: 0x2F0AA, size: 0x8, addend: 0x0, symName: __RNvXsn_NtCsiTraAjBDcu4_5alloc3vecINtB5_3VecINtNtCsaNl6UpbT7bw_4core6option6OptionNtCshnvkK9b4wzu_11proc_macro25IdentEENtNtNtBK_3ops4drop4Drop4dropCs7IQ6Ulc8Ywk_14zerovec_derive, symObjAddr: 0x3248, symBinAddr: 0x1C8A4, symSize: 0x38 }
  - { offset: 0x2F15A, size: 0x8, addend: 0x0, symName: __RNvXsn_NtCsiTraAjBDcu4_5alloc3vecINtB5_3VecNtCshnvkK9b4wzu_11proc_macro211TokenStreamENtNtNtCsaNl6UpbT7bw_4core3ops4drop4Drop4dropCs7IQ6Ulc8Ywk_14zerovec_derive, symObjAddr: 0x3280, symBinAddr: 0x1C8DC, symSize: 0x38 }
  - { offset: 0x2F20A, size: 0x8, addend: 0x0, symName: __RNvXsn_NtCsiTraAjBDcu4_5alloc3vecINtB5_3VecNtCshnvkK9b4wzu_11proc_macro25IdentENtNtNtCsaNl6UpbT7bw_4core3ops4drop4Drop4dropCs7IQ6Ulc8Ywk_14zerovec_derive, symObjAddr: 0x32B8, symBinAddr: 0x1C914, symSize: 0x38 }
  - { offset: 0x2F2BA, size: 0x8, addend: 0x0, symName: __RNvXsn_NtCsiTraAjBDcu4_5alloc3vecINtB5_3VecNtNtCs7IQ6Ulc8Ywk_14zerovec_derive11make_varule12UnsizedFieldENtNtNtCsaNl6UpbT7bw_4core3ops4drop4Drop4dropBJ_, symObjAddr: 0x32F0, symBinAddr: 0x1C94C, symSize: 0x38 }
  - { offset: 0x2F36A, size: 0x8, addend: 0x0, symName: __RNvXsn_NtCsiTraAjBDcu4_5alloc3vecINtB5_3VecNtNtCs7IQ6Ulc8Ywk_14zerovec_derive5utils9FieldInfoENtNtNtCsaNl6UpbT7bw_4core3ops4drop4Drop4dropBJ_, symObjAddr: 0x3328, symBinAddr: 0x1C984, symSize: 0x38 }
  - { offset: 0x2F41A, size: 0x8, addend: 0x0, symName: __RNvXsn_NtCsiTraAjBDcu4_5alloc3vecINtB5_3VecRhENtNtNtCsaNl6UpbT7bw_4core3ops4drop4Drop4dropCs7IQ6Ulc8Ywk_14zerovec_derive, symObjAddr: 0x3360, symBinAddr: 0x1C9BC, symSize: 0x24 }
  - { offset: 0x2F4CA, size: 0x8, addend: 0x0, symName: __RNvXsn_NtCsiTraAjBDcu4_5alloc3vecINtB5_3VecTNtCshnvkK9b4wzu_11proc_macro25IdentNtNtCsc29TF2YcYso_3syn5token5CommaEENtNtNtCsaNl6UpbT7bw_4core3ops4drop4Drop4dropCs7IQ6Ulc8Ywk_14zerovec_derive, symObjAddr: 0x3384, symBinAddr: 0x1C9E0, symSize: 0x38 }
  - { offset: 0x2F580, size: 0x8, addend: 0x0, symName: __RNvXsp_NtCsiTraAjBDcu4_5alloc3vecINtB5_3VecRhENtNtCsaNl6UpbT7bw_4core3fmt5Debug3fmtCs7IQ6Ulc8Ywk_14zerovec_derive, symObjAddr: 0x33BC, symBinAddr: 0x1CA18, symSize: 0x78 }
  - { offset: 0x35C7A, size: 0x8, addend: 0x0, symName: __RINvMs_NtCsiTraAjBDcu4_5alloc3vecINtB5_3VecNtNtCsc29TF2YcYso_3syn4attr9AttributeE10retain_mutNCINvB2_6retainNCNvNtCs7IQ6Ulc8Ywk_14zerovec_derive5utils22extract_single_tt_attr0E0EB1O_, symObjAddr: 0x0, symBinAddr: 0x1965C, symSize: 0xE4 }
  - { offset: 0x35DB2, size: 0x8, addend: 0x0, symName: __RINvMs_NtCsiTraAjBDcu4_5alloc3vecINtB5_3VecNtNtCsc29TF2YcYso_3syn4attr9AttributeE10retain_mutNCINvB2_6retainNCNvNtCs7IQ6Ulc8Ywk_14zerovec_derive5utils26extract_zerovec_attributes0E0EB1O_, symObjAddr: 0xE4, symBinAddr: 0x19740, symSize: 0xE4 }
  - { offset: 0x35EF7, size: 0x8, addend: 0x0, symName: __RINvMs_NtCsiTraAjBDcu4_5alloc3vecINtB5_3VecNtNtCsc29TF2YcYso_3syn4attr9AttributeE10retain_mutNCINvB2_6retainNCNvNtCs7IQ6Ulc8Ywk_14zerovec_derive5utils35extract_parenthetical_zerovec_attrs0E0EB1O_, symObjAddr: 0x1C8, symBinAddr: 0x19824, symSize: 0xE4 }
  - { offset: 0x35FCB, size: 0x8, addend: 0x0, symName: __RINvMs_NtCsiTraAjBDcu4_5alloc3vecINtB5_3VecNtNtCsc29TF2YcYso_3syn4attr9AttributeE6retainNCNvNtCs7IQ6Ulc8Ywk_14zerovec_derive5utils22extract_single_tt_attr0EB1u_, symObjAddr: 0x2AC, symBinAddr: 0x19908, symSize: 0x40 }
  - { offset: 0x36019, size: 0x8, addend: 0x0, symName: __RINvMs_NtCsiTraAjBDcu4_5alloc3vecINtB5_3VecNtNtCsc29TF2YcYso_3syn4attr9AttributeE6retainNCNvNtCs7IQ6Ulc8Ywk_14zerovec_derive5utils26extract_zerovec_attributes0EB1u_, symObjAddr: 0x2EC, symBinAddr: 0x19948, symSize: 0x4C }
  - { offset: 0x36066, size: 0x8, addend: 0x0, symName: __RINvMs_NtCsiTraAjBDcu4_5alloc3vecINtB5_3VecNtNtCsc29TF2YcYso_3syn4attr9AttributeE6retainNCNvNtCs7IQ6Ulc8Ywk_14zerovec_derive5utils35extract_parenthetical_zerovec_attrs0EB1u_, symObjAddr: 0x338, symBinAddr: 0x19994, symSize: 0x40 }
  - { offset: 0x36353, size: 0x8, addend: 0x0, symName: __RINvMsi_NtCsiTraAjBDcu4_5alloc3vecINtB6_3VecNtCshnvkK9b4wzu_11proc_macro211TokenStreamE14extend_trustedINtNtNtNtCsaNl6UpbT7bw_4core4iter8adapters3map3MapINtNtNtB1M_5slice4iter4IterNtNtCs7IQ6Ulc8Ywk_14zerovec_derive5utils9FieldInfoENCNvNtB2W_11make_varule21make_zf_and_from_impl0EEB2W_, symObjAddr: 0x378, symBinAddr: 0x199D4, symSize: 0x16C }
  - { offset: 0x36608, size: 0x8, addend: 0x0, symName: __RINvMsi_NtCsiTraAjBDcu4_5alloc3vecINtB6_3VecNtCshnvkK9b4wzu_11proc_macro211TokenStreamE14extend_trustedINtNtNtNtCsaNl6UpbT7bw_4core4iter8adapters3map3MapINtNtNtB1M_5slice4iter4IterNtNtCs7IQ6Ulc8Ywk_14zerovec_derive5utils9FieldInfoENCNvNtB2W_3ule15make_ule_fields0EEB2W_, symObjAddr: 0x4E4, symBinAddr: 0x19B40, symSize: 0x16C }
  - { offset: 0x369D0, size: 0x8, addend: 0x0, symName: __RINvMsi_NtCsiTraAjBDcu4_5alloc3vecINtB6_3VecNtCshnvkK9b4wzu_11proc_macro25IdentE16extend_desugaredINtNtNtNtCsaNl6UpbT7bw_4core4iter8adapters6cloned6ClonedINtNtCsc29TF2YcYso_3syn10punctuated4IterBG_EEECs7IQ6Ulc8Ywk_14zerovec_derive, symObjAddr: 0x650, symBinAddr: 0x19CAC, symSize: 0x1DC }
  - { offset: 0x36DC7, size: 0x8, addend: 0x0, symName: __RINvMsi_NtCsiTraAjBDcu4_5alloc3vecINtB6_3VecNtNtCs7IQ6Ulc8Ywk_14zerovec_derive5utils9FieldInfoE16extend_desugaredINtNtNtNtCsaNl6UpbT7bw_4core4iter8adapters3map3MapINtNtB1S_9enumerate9EnumerateINtNtB1S_4take4TakeINtNtCsc29TF2YcYso_3syn10punctuated4IterNtNtB3s_4data5FieldEEENCINvMs0_BI_BG_9make_listB34_E0EEBK_, symObjAddr: 0x82C, symBinAddr: 0x19E88, symSize: 0x1F8 }
  - { offset: 0x3715D, size: 0x8, addend: 0x0, symName: __RINvMsi_NtCsiTraAjBDcu4_5alloc3vecINtB6_3VecNtNtCs7IQ6Ulc8Ywk_14zerovec_derive5utils9FieldInfoE16extend_desugaredINtNtNtNtCsaNl6UpbT7bw_4core4iter8adapters3map3MapINtNtB1S_9enumerate9EnumerateINtNtCsc29TF2YcYso_3syn10punctuated4IterNtNtB39_4data5FieldEENCINvMs0_BI_BG_9make_listB34_E0EEBK_, symObjAddr: 0xA24, symBinAddr: 0x1A080, symSize: 0x1F8 }
  - { offset: 0x376DA, size: 0x8, addend: 0x0, symName: __RINvMsi_NtCsiTraAjBDcu4_5alloc3vecINtB6_3VecRhE16extend_desugaredINtNtNtNtCsht3nMU9UgFu_3std11collections4hash3set4IterhEECs7IQ6Ulc8Ywk_14zerovec_derive, symObjAddr: 0xC1C, symBinAddr: 0x1A278, symSize: 0x170 }
  - { offset: 0x37C7A, size: 0x8, addend: 0x0, symName: __RNvMNtCsiTraAjBDcu4_5alloc3vecINtB2_3VecINtNtCsaNl6UpbT7bw_4core6option6OptionNtCshnvkK9b4wzu_11proc_macro25IdentEE3newCs7IQ6Ulc8Ywk_14zerovec_derive, symObjAddr: 0x16DC, symBinAddr: 0x1AD38, symSize: 0x14 }
  - { offset: 0x37C97, size: 0x8, addend: 0x0, symName: __RNvMNtCsiTraAjBDcu4_5alloc3vecINtB2_3VecNtCshnvkK9b4wzu_11proc_macro211TokenStreamE3newCs7IQ6Ulc8Ywk_14zerovec_derive, symObjAddr: 0x16F0, symBinAddr: 0x1AD4C, symSize: 0x14 }
  - { offset: 0x37CB4, size: 0x8, addend: 0x0, symName: __RNvMNtCsiTraAjBDcu4_5alloc3vecINtB2_3VecNtCshnvkK9b4wzu_11proc_macro25IdentE3newCs7IQ6Ulc8Ywk_14zerovec_derive, symObjAddr: 0x1704, symBinAddr: 0x1AD60, symSize: 0x14 }
  - { offset: 0x37CEB, size: 0x8, addend: 0x0, symName: __RNvMNtCsiTraAjBDcu4_5alloc3vecINtB2_3VecNtNtCs7IQ6Ulc8Ywk_14zerovec_derive11make_varule12UnsizedFieldE3newBG_, symObjAddr: 0x1718, symBinAddr: 0x1AD74, symSize: 0x14 }
  - { offset: 0x37D08, size: 0x8, addend: 0x0, symName: __RNvMNtCsiTraAjBDcu4_5alloc3vecINtB2_3VecNtNtCs7IQ6Ulc8Ywk_14zerovec_derive5utils9FieldInfoE3newBG_, symObjAddr: 0x172C, symBinAddr: 0x1AD88, symSize: 0x14 }
  - { offset: 0x37D43, size: 0x8, addend: 0x0, symName: __RNvMNtCsiTraAjBDcu4_5alloc3vecINtB2_3VecTNtCshnvkK9b4wzu_11proc_macro25IdentNtNtCsc29TF2YcYso_3syn5token5CommaEE3newCs7IQ6Ulc8Ywk_14zerovec_derive, symObjAddr: 0x1740, symBinAddr: 0x1AD9C, symSize: 0x14 }
  - { offset: 0x37E73, size: 0x8, addend: 0x0, symName: __RNvMs_NtCsiTraAjBDcu4_5alloc3vecINtB4_3VecINtNtCsaNl6UpbT7bw_4core6option6OptionNtCshnvkK9b4wzu_11proc_macro25IdentEE4pushCs7IQ6Ulc8Ywk_14zerovec_derive, symObjAddr: 0x1754, symBinAddr: 0x1ADB0, symSize: 0x108 }
  - { offset: 0x38106, size: 0x8, addend: 0x0, symName: __RNvMs_NtCsiTraAjBDcu4_5alloc3vecINtB4_3VecNtCshnvkK9b4wzu_11proc_macro211TokenStreamE4pushCs7IQ6Ulc8Ywk_14zerovec_derive, symObjAddr: 0x185C, symBinAddr: 0x1AEB8, symSize: 0x100 }
  - { offset: 0x383EA, size: 0x8, addend: 0x0, symName: __RNvMs_NtCsiTraAjBDcu4_5alloc3vecINtB4_3VecNtCshnvkK9b4wzu_11proc_macro211TokenStreamE7reserveCs7IQ6Ulc8Ywk_14zerovec_derive, symObjAddr: 0x195C, symBinAddr: 0x1AFB8, symSize: 0xC8 }
  - { offset: 0x385F5, size: 0x8, addend: 0x0, symName: __RNvMs_NtCsiTraAjBDcu4_5alloc3vecINtB4_3VecNtCshnvkK9b4wzu_11proc_macro211TokenStreamE8as_sliceCs7IQ6Ulc8Ywk_14zerovec_derive, symObjAddr: 0x1A24, symBinAddr: 0x1B080, symSize: 0x6C }
  - { offset: 0x386AF, size: 0x8, addend: 0x0, symName: __RNvMs_NtCsiTraAjBDcu4_5alloc3vecINtB4_3VecNtCshnvkK9b4wzu_11proc_macro25IdentE3lenCs7IQ6Ulc8Ywk_14zerovec_derive, symObjAddr: 0x1A90, symBinAddr: 0x1B0EC, symSize: 0x18 }
  - { offset: 0x387FA, size: 0x8, addend: 0x0, symName: __RNvMs_NtCsiTraAjBDcu4_5alloc3vecINtB4_3VecNtCshnvkK9b4wzu_11proc_macro25IdentE7reserveCs7IQ6Ulc8Ywk_14zerovec_derive, symObjAddr: 0x1AA8, symBinAddr: 0x1B104, symSize: 0xC8 }
  - { offset: 0x389F8, size: 0x8, addend: 0x0, symName: __RNvMs_NtCsiTraAjBDcu4_5alloc3vecINtB4_3VecNtCshnvkK9b4wzu_11proc_macro25IdentE8as_sliceCs7IQ6Ulc8Ywk_14zerovec_derive, symObjAddr: 0x1B70, symBinAddr: 0x1B1CC, symSize: 0x6C }
  - { offset: 0x38ABF, size: 0x8, addend: 0x0, symName: __RNvMs_NtCsiTraAjBDcu4_5alloc3vecINtB4_3VecNtNtCs7IQ6Ulc8Ywk_14zerovec_derive11make_varule12UnsizedFieldE3lenBI_, symObjAddr: 0x1BDC, symBinAddr: 0x1B238, symSize: 0x18 }
  - { offset: 0x38C07, size: 0x8, addend: 0x0, symName: __RNvMs_NtCsiTraAjBDcu4_5alloc3vecINtB4_3VecNtNtCs7IQ6Ulc8Ywk_14zerovec_derive11make_varule12UnsizedFieldE4pushBI_, symObjAddr: 0x1BF4, symBinAddr: 0x1B250, symSize: 0x118 }
  - { offset: 0x38E53, size: 0x8, addend: 0x0, symName: __RNvMs_NtCsiTraAjBDcu4_5alloc3vecINtB4_3VecNtNtCs7IQ6Ulc8Ywk_14zerovec_derive11make_varule12UnsizedFieldE8as_sliceBI_, symObjAddr: 0x1D0C, symBinAddr: 0x1B368, symSize: 0x6C }
  - { offset: 0x38F32, size: 0x8, addend: 0x0, symName: __RNvMs_NtCsiTraAjBDcu4_5alloc3vecINtB4_3VecNtNtCs7IQ6Ulc8Ywk_14zerovec_derive11make_varule12UnsizedFieldE8is_emptyBI_, symObjAddr: 0x1D78, symBinAddr: 0x1B3D4, symSize: 0x20 }
  - { offset: 0x39064, size: 0x8, addend: 0x0, symName: __RNvMs_NtCsiTraAjBDcu4_5alloc3vecINtB4_3VecNtNtCs7IQ6Ulc8Ywk_14zerovec_derive5utils9FieldInfoE4pushBI_, symObjAddr: 0x1D98, symBinAddr: 0x1B3F4, symSize: 0x118 }
  - { offset: 0x3932F, size: 0x8, addend: 0x0, symName: __RNvMs_NtCsiTraAjBDcu4_5alloc3vecINtB4_3VecNtNtCs7IQ6Ulc8Ywk_14zerovec_derive5utils9FieldInfoE7reserveBI_, symObjAddr: 0x1EB0, symBinAddr: 0x1B50C, symSize: 0xC8 }
  - { offset: 0x3952D, size: 0x8, addend: 0x0, symName: __RNvMs_NtCsiTraAjBDcu4_5alloc3vecINtB4_3VecNtNtCs7IQ6Ulc8Ywk_14zerovec_derive5utils9FieldInfoE8as_sliceBI_, symObjAddr: 0x1F78, symBinAddr: 0x1B5D4, symSize: 0x6C }
  - { offset: 0x395E7, size: 0x8, addend: 0x0, symName: __RNvMs_NtCsiTraAjBDcu4_5alloc3vecINtB4_3VecRhE3lenCs7IQ6Ulc8Ywk_14zerovec_derive, symObjAddr: 0x1FE4, symBinAddr: 0x1B640, symSize: 0x18 }
  - { offset: 0x39732, size: 0x8, addend: 0x0, symName: __RNvMs_NtCsiTraAjBDcu4_5alloc3vecINtB4_3VecRhE7reserveCs7IQ6Ulc8Ywk_14zerovec_derive, symObjAddr: 0x1FFC, symBinAddr: 0x1B658, symSize: 0xBC }
  - { offset: 0x399AC, size: 0x8, addend: 0x0, symName: __RNvMs_NtCsiTraAjBDcu4_5alloc3vecINtB4_3VecTNtCshnvkK9b4wzu_11proc_macro25IdentNtNtCsc29TF2YcYso_3syn5token5CommaEE4pushCs7IQ6Ulc8Ywk_14zerovec_derive, symObjAddr: 0x20B8, symBinAddr: 0x1B714, symSize: 0x100 }
  - { offset: 0x39C04, size: 0x8, addend: 0x0, symName: __RNvMs_NtCsiTraAjBDcu4_5alloc3vecINtB4_3VecTNtCshnvkK9b4wzu_11proc_macro25IdentNtNtCsc29TF2YcYso_3syn5token5CommaEE8as_sliceCs7IQ6Ulc8Ywk_14zerovec_derive, symObjAddr: 0x21B8, symBinAddr: 0x1B814, symSize: 0x6C }
  - { offset: 0x39CCB, size: 0x8, addend: 0x0, symName: __RNvMs_NtCsiTraAjBDcu4_5alloc3vecINtB4_3VecTNtNtCsc29TF2YcYso_3syn4data7VariantNtNtBJ_5token5CommaEE3lenCs7IQ6Ulc8Ywk_14zerovec_derive, symObjAddr: 0x2224, symBinAddr: 0x1B880, symSize: 0x18 }
  - { offset: 0x3A1AA, size: 0x8, addend: 0x0, symName: __RNvXs4_NtNtCs4EAaWzSXu1l_5quote9___private3extINtNtCsiTraAjBDcu4_5alloc3vec3VecNtCshnvkK9b4wzu_11proc_macro211TokenStreamENtB5_16RepAsIteratorExt15quote_into_iterCs7IQ6Ulc8Ywk_14zerovec_derive, symObjAddr: 0x2B18, symBinAddr: 0x1C174, symSize: 0x38 }
  - { offset: 0x3AC66, size: 0x8, addend: 0x0, symName: __RINvMs0_NtNtNtCsht3nMU9UgFu_3std11collections4hash3setINtB6_7HashSethE6removehECs7IQ6Ulc8Ywk_14zerovec_derive, symObjAddr: 0x0, symBinAddr: 0x1CA90, symSize: 0x50 }
  - { offset: 0x3AF82, size: 0x8, addend: 0x0, symName: __RNvXs1J_NtCs7yrEGia95Wz_10proc_macro6bridgeINtB6_11ExpnGlobalsNtNtB6_6client4SpanEINtNtB6_3rpc9DecodeMutuE6decodeCs7IQ6Ulc8Ywk_14zerovec_derive, symObjAddr: 0x1144, symBinAddr: 0x1DB64, symSize: 0xB0 }
  - { offset: 0x3AFD9, size: 0x8, addend: 0x0, symName: __RNvXs9_NtNtCs7yrEGia95Wz_10proc_macro6bridge3rpcTINtB7_11ExpnGlobalsNtNtB7_6client4SpanENtB16_11TokenStreamEINtB5_9DecodeMutuE6decodeCs7IQ6Ulc8Ywk_14zerovec_derive, symObjAddr: 0x1A1C, symBinAddr: 0x1E43C, symSize: 0x84 }
  - { offset: 0x3B02E, size: 0x8, addend: 0x0, symName: __RNvXs9_NtNtCs7yrEGia95Wz_10proc_macro6bridge3rpcTINtB7_11ExpnGlobalsNtNtB7_6client4SpanETNtB16_11TokenStreamB1p_EEINtB5_9DecodeMutuE6decodeCs7IQ6Ulc8Ywk_14zerovec_derive, symObjAddr: 0x1AA0, symBinAddr: 0x1E4C0, symSize: 0x90 }
  - { offset: 0x3B1CB, size: 0x8, addend: 0x0, symName: __RNvXs1e_Cs7yrEGia95Wz_10proc_macroNtB6_5IdentNtNtCsaNl6UpbT7bw_4core5clone5Clone5cloneCs7IQ6Ulc8Ywk_14zerovec_derive, symObjAddr: 0x11F4, symBinAddr: 0x1DC14, symSize: 0x40 }
  - { offset: 0x3B1FF, size: 0x8, addend: 0x0, symName: __RNvXsU_Cs7yrEGia95Wz_10proc_macroNtB5_11TokenStreamNtNtCsaNl6UpbT7bw_4core5clone5Clone5cloneCs7IQ6Ulc8Ywk_14zerovec_derive, symObjAddr: 0x1C14, symBinAddr: 0x1E634, symSize: 0x64 }
  - { offset: 0x3B568, size: 0x8, addend: 0x0, symName: __RNvXsA_NtCshnvkK9b4wzu_11proc_macro28fallbackNtB5_5IdentNtNtCsaNl6UpbT7bw_4core5clone5Clone5cloneCs7IQ6Ulc8Ywk_14zerovec_derive, symObjAddr: 0x1B30, symBinAddr: 0x1E550, symSize: 0x94 }
  - { offset: 0x3B59C, size: 0x8, addend: 0x0, symName: __RNvXss_NtCshnvkK9b4wzu_11proc_macro28fallbackNtB5_11TokenStreamNtNtCsaNl6UpbT7bw_4core5clone5Clone5cloneCs7IQ6Ulc8Ywk_14zerovec_derive, symObjAddr: 0x2074, symBinAddr: 0x1EA94, symSize: 0x24 }
  - { offset: 0x3B5CE, size: 0x8, addend: 0x0, symName: __RNvXsu_NtCshnvkK9b4wzu_11proc_macro28fallbackNtB5_4SpanNtNtCsaNl6UpbT7bw_4core5clone5Clone5cloneCs7IQ6Ulc8Ywk_14zerovec_derive, symObjAddr: 0x20BC, symBinAddr: 0x1EADC, symSize: 0x10 }
  - { offset: 0x3BC6B, size: 0x8, addend: 0x0, symName: __RNvXCsg4dki62PTrg_9hashbrownhINtB2_10EquivalenthE10equivalentCs7IQ6Ulc8Ywk_14zerovec_derive, symObjAddr: 0xF94, symBinAddr: 0x1D9B4, symSize: 0x50 }
  - { offset: 0x3BE36, size: 0x8, addend: 0x0, symName: __RNvXsj_NtNtNtCsht3nMU9UgFu_3std11collections4hash3setINtB5_4IterhENtNtNtNtCsaNl6UpbT7bw_4core4iter6traits8iterator8Iterator4nextCs7IQ6Ulc8Ywk_14zerovec_derive, symObjAddr: 0x1FCC, symBinAddr: 0x1E9EC, symSize: 0x6C }
  - { offset: 0x3BEBF, size: 0x8, addend: 0x0, symName: __RNvXsj_NtNtNtCsht3nMU9UgFu_3std11collections4hash3setINtB5_4IterhENtNtNtNtCsaNl6UpbT7bw_4core4iter6traits8iterator8Iterator9size_hintCs7IQ6Ulc8Ywk_14zerovec_derive, symObjAddr: 0x2038, symBinAddr: 0x1EA58, symSize: 0x3C }
  - { offset: 0x3CF0A, size: 0x8, addend: 0x0, symName: __RNvXsH_NtCsiTraAjBDcu4_5alloc6stringNtB5_6StringINtNtCsaNl6UpbT7bw_4core7convert4FromReE4fromCs7IQ6Ulc8Ywk_14zerovec_derive, symObjAddr: 0x1BC4, symBinAddr: 0x1E5E4, symSize: 0x50 }
  - { offset: 0x3CFF7, size: 0x8, addend: 0x0, symName: __RNvXss_NtCsiTraAjBDcu4_5alloc6stringNtB5_6StringNtNtNtCsaNl6UpbT7bw_4core3ops5deref5Deref5derefCs7IQ6Ulc8Ywk_14zerovec_derive, symObjAddr: 0x2098, symBinAddr: 0x1EAB8, symSize: 0x24 }
  - { offset: 0x3D9E1, size: 0x8, addend: 0x0, symName: __RNvNvMs1_NtNtCsaNl6UpbT7bw_4core3ptr8non_nullINtB7_7NonNullpE13new_unchecked18precondition_checkCs7IQ6Ulc8Ywk_14zerovec_derive, symObjAddr: 0xEF0, symBinAddr: 0x1D910, symSize: 0xA4 }
  - { offset: 0x40632, size: 0x8, addend: 0x0, symName: __RINvXs2V_NtNtCsaNl6UpbT7bw_4core5slice4iterINtB7_4IterNtNtCs7IQ6Ulc8Ywk_14zerovec_derive11make_varule12UnsizedFieldENtNtNtNtBb_4iter6traits8iterator8Iterator3allNCNvMBS_NtBS_13UnsizedFields6has_zf0EBU_, symObjAddr: 0x18C, symBinAddr: 0x1CBB0, symSize: 0xAC }
  - { offset: 0x40697, size: 0x8, addend: 0x0, symName: __RINvXs2V_NtNtCsaNl6UpbT7bw_4core5slice4iterINtB7_4IterNtNtCs7IQ6Ulc8Ywk_14zerovec_derive5utils9FieldInfoENtNtNtNtBb_4iter6traits8iterator8Iterator4folduNCINvNtNtB1L_8adapters3map8map_foldRBQ_NtCshnvkK9b4wzu_11proc_macro211TokenStreamuNCNvNtBU_11make_varule21make_zf_and_from_impl0NCINvNvB1F_8for_each4callB33_NCINvMsi_NtCsiTraAjBDcu4_5alloc3vecINtB56_3VecB33_E14extend_trustedINtB2v_3MapBF_B3K_EE0E0E0EBU_, symObjAddr: 0x238, symBinAddr: 0x1CC5C, symSize: 0x1C0 }
  - { offset: 0x407EC, size: 0x8, addend: 0x0, symName: __RINvXs2V_NtNtCsaNl6UpbT7bw_4core5slice4iterINtB7_4IterNtNtCs7IQ6Ulc8Ywk_14zerovec_derive5utils9FieldInfoENtNtNtNtBb_4iter6traits8iterator8Iterator4folduNCINvNtNtB1L_8adapters3map8map_foldRBQ_NtCshnvkK9b4wzu_11proc_macro211TokenStreamuNCNvNtBU_3ule15make_ule_fields0NCINvNvB1F_8for_each4callB33_NCINvMsi_NtCsiTraAjBDcu4_5alloc3vecINtB4R_3VecB33_E14extend_trustedINtB2v_3MapBF_B3K_EE0E0E0EBU_, symObjAddr: 0x3F8, symBinAddr: 0x1CE1C, symSize: 0x1C0 }
  - { offset: 0x40941, size: 0x8, addend: 0x0, symName: __RINvXs2V_NtNtCsaNl6UpbT7bw_4core5slice4iterINtB7_4IterNtNtCsc29TF2YcYso_3syn4attr9AttributeENtNtNtNtBb_4iter6traits8iterator8Iterator4findQNCNvMNtCs7IQ6Ulc8Ywk_14zerovec_derive5utilsNtB2i_8ReprInfo7compute0EB2k_, symObjAddr: 0x5B8, symBinAddr: 0x1CFDC, symSize: 0xB0 }
  - { offset: 0x409A6, size: 0x8, addend: 0x0, symName: __RNvXs2V_NtNtCsaNl6UpbT7bw_4core5slice4iterINtB6_4IterNtCshnvkK9b4wzu_11proc_macro211TokenStreamENtNtNtNtBa_4iter6traits8iterator8Iterator4nextCs7IQ6Ulc8Ywk_14zerovec_derive, symObjAddr: 0x12C4, symBinAddr: 0x1DCE4, symSize: 0xB0 }
  - { offset: 0x40AE0, size: 0x8, addend: 0x0, symName: __RNvXs2V_NtNtCsaNl6UpbT7bw_4core5slice4iterINtB6_4IterNtNtCs7IQ6Ulc8Ywk_14zerovec_derive11make_varule12UnsizedFieldENtNtNtNtBa_4iter6traits8iterator8Iterator4nextBT_, symObjAddr: 0x1374, symBinAddr: 0x1DD94, symSize: 0xB0 }
  - { offset: 0x40C1A, size: 0x8, addend: 0x0, symName: __RNvXs2V_NtNtCsaNl6UpbT7bw_4core5slice4iterINtB6_4IterNtNtCs7IQ6Ulc8Ywk_14zerovec_derive5utils9FieldInfoENtNtNtNtBa_4iter6traits8iterator8Iterator4nextBT_, symObjAddr: 0x1424, symBinAddr: 0x1DE44, symSize: 0xB0 }
  - { offset: 0x40D54, size: 0x8, addend: 0x0, symName: __RNvXs2V_NtNtCsaNl6UpbT7bw_4core5slice4iterINtB6_4IterNtNtCs7IQ6Ulc8Ywk_14zerovec_derive5utils9FieldInfoENtNtNtNtBa_4iter6traits8iterator8Iterator9size_hintBT_, symObjAddr: 0x14D4, symBinAddr: 0x1DEF4, symSize: 0x70 }
  - { offset: 0x40DC3, size: 0x8, addend: 0x0, symName: __RNvXs2V_NtNtCsaNl6UpbT7bw_4core5slice4iterINtB6_4IterRhENtNtNtNtBa_4iter6traits8iterator8Iterator4nextCs7IQ6Ulc8Ywk_14zerovec_derive, symObjAddr: 0x1544, symBinAddr: 0x1DF64, symSize: 0xB0 }
  - { offset: 0x40EFD, size: 0x8, addend: 0x0, symName: __RNvXs2V_NtNtCsaNl6UpbT7bw_4core5slice4iterINtB6_4IterTNtCshnvkK9b4wzu_11proc_macro25IdentNtNtCsc29TF2YcYso_3syn5token5CommaEENtNtNtNtBa_4iter6traits8iterator8Iterator4nextCs7IQ6Ulc8Ywk_14zerovec_derive, symObjAddr: 0x15F4, symBinAddr: 0x1E014, symSize: 0xB0 }
  - { offset: 0x411CE, size: 0x8, addend: 0x0, symName: __RNvXs2W_NtNtCsaNl6UpbT7bw_4core5slice4iterINtB6_4IterTNtCshnvkK9b4wzu_11proc_macro25IdentNtNtCsc29TF2YcYso_3syn5token5CommaEENtNtNtNtBa_4iter6traits12double_ended19DoubleEndedIterator9next_backCs7IQ6Ulc8Ywk_14zerovec_derive, symObjAddr: 0x16A4, symBinAddr: 0x1E0C4, symSize: 0x108 }
  - { offset: 0x4132A, size: 0x8, addend: 0x0, symName: __RNvXs2W_NtNtCsaNl6UpbT7bw_4core5slice4iterINtB6_4IterTNtNtCsc29TF2YcYso_3syn4data7VariantNtNtBU_5token5CommaEENtNtNtNtBa_4iter6traits12double_ended19DoubleEndedIterator9next_backCs7IQ6Ulc8Ywk_14zerovec_derive, symObjAddr: 0x17AC, symBinAddr: 0x1E1CC, symSize: 0x108 }
  - { offset: 0x41486, size: 0x8, addend: 0x0, symName: __RNvXs2W_NtNtCsaNl6UpbT7bw_4core5slice4iterINtB6_4IterTNtNtCsc29TF2YcYso_3syn4path15GenericArgumentNtNtBU_5token5CommaEENtNtNtNtBa_4iter6traits12double_ended19DoubleEndedIterator9next_backCs7IQ6Ulc8Ywk_14zerovec_derive, symObjAddr: 0x18B4, symBinAddr: 0x1E2D4, symSize: 0x108 }
  - { offset: 0x416D6, size: 0x8, addend: 0x0, symName: __RNvXs5_NtNtCsaNl6UpbT7bw_4core5slice4iterINtB5_4IterTNtCshnvkK9b4wzu_11proc_macro25IdentNtNtCsc29TF2YcYso_3syn5token5CommaEENtNtB9_5clone5Clone5cloneCs7IQ6Ulc8Ywk_14zerovec_derive, symObjAddr: 0x19BC, symBinAddr: 0x1E3DC, symSize: 0x20 }
  - { offset: 0x4170B, size: 0x8, addend: 0x0, symName: __RNvXs5_NtNtCsaNl6UpbT7bw_4core5slice4iterINtB5_4IterTNtNtCsc29TF2YcYso_3syn4data7VariantNtNtBT_5token5CommaEENtNtB9_5clone5Clone5cloneCs7IQ6Ulc8Ywk_14zerovec_derive, symObjAddr: 0x19DC, symBinAddr: 0x1E3FC, symSize: 0x20 }
  - { offset: 0x41740, size: 0x8, addend: 0x0, symName: __RNvXs5_NtNtCsaNl6UpbT7bw_4core5slice4iterINtB5_4IterTNtNtCsc29TF2YcYso_3syn4path15GenericArgumentNtNtBT_5token5CommaEENtNtB9_5clone5Clone5cloneCs7IQ6Ulc8Ywk_14zerovec_derive, symObjAddr: 0x19FC, symBinAddr: 0x1E41C, symSize: 0x20 }
  - { offset: 0x41B7A, size: 0x8, addend: 0x0, symName: __RINvYINtNtNtCsaNl6UpbT7bw_4core5slice4iter4IterNtNtCs7IQ6Ulc8Ywk_14zerovec_derive5utils9FieldInfoENtNtNtNtBa_4iter6traits8iterator8Iterator3mapNtCshnvkK9b4wzu_11proc_macro211TokenStreamNCNvNtBN_11make_varule21make_zf_and_from_impl0EBN_, symObjAddr: 0x668, symBinAddr: 0x1D08C, symSize: 0x1C }
  - { offset: 0x41BD2, size: 0x8, addend: 0x0, symName: __RINvYINtNtNtCsaNl6UpbT7bw_4core5slice4iter4IterNtNtCs7IQ6Ulc8Ywk_14zerovec_derive5utils9FieldInfoENtNtNtNtBa_4iter6traits8iterator8Iterator3mapNtCshnvkK9b4wzu_11proc_macro211TokenStreamNCNvNtBN_3ule15make_ule_fields0EBN_, symObjAddr: 0x684, symBinAddr: 0x1D0A8, symSize: 0x1C }
  - { offset: 0x41C2A, size: 0x8, addend: 0x0, symName: __RINvYINtNtNtCsaNl6UpbT7bw_4core5slice4iter4IterNtNtCs7IQ6Ulc8Ywk_14zerovec_derive5utils9FieldInfoENtNtNtNtBa_4iter6traits8iterator8Iterator3mapNtCshnvkK9b4wzu_11proc_macro211TokenStreamNCNvNtBN_6varule11derive_impl0EBN_, symObjAddr: 0x6A0, symBinAddr: 0x1D0C4, symSize: 0x1C }
  - { offset: 0x41C82, size: 0x8, addend: 0x0, symName: __RINvYINtNtNtCsaNl6UpbT7bw_4core5slice4iter4IterNtNtCsc29TF2YcYso_3syn4attr9AttributeENtNtNtNtBa_4iter6traits8iterator8Iterator6filterNCNvMNtCs7IQ6Ulc8Ywk_14zerovec_derive5utilsNtB2c_8ReprInfo7compute0EB2e_, symObjAddr: 0x6BC, symBinAddr: 0x1D0E0, symSize: 0x1C }
  - { offset: 0x41CD1, size: 0x8, addend: 0x0, symName: __RINvYINtNtNtNtCsht3nMU9UgFu_3std11collections4hash3set4IterhENtNtNtNtCsaNl6UpbT7bw_4core4iter6traits8iterator8Iterator7collectINtNtCsiTraAjBDcu4_5alloc3vec3VecRhEECs7IQ6Ulc8Ywk_14zerovec_derive, symObjAddr: 0x6D8, symBinAddr: 0x1D0FC, symSize: 0x74 }
  - { offset: 0x41D67, size: 0x8, addend: 0x0, symName: __RINvYNtNtCsc29TF2YcYso_3syn8generics9LifetimesNtNtNtNtCsaNl6UpbT7bw_4core4iter6traits8iterator8Iterator4foldjNCNvYB3_BI_5count0ECs7IQ6Ulc8Ywk_14zerovec_derive, symObjAddr: 0x74C, symBinAddr: 0x1D170, symSize: 0xEC }
  - { offset: 0x41E04, size: 0x8, addend: 0x0, symName: __RNCINvNvNtNtNtNtCsaNl6UpbT7bw_4core4iter6traits8iterator8Iterator8for_each4callNtCshnvkK9b4wzu_11proc_macro211TokenStreamNCINvMsi_NtCsiTraAjBDcu4_5alloc3vecINtB24_3VecB1f_E14extend_trustedINtNtNtBc_8adapters3map3MapINtNtNtBe_5slice4iter4IterNtNtCs7IQ6Ulc8Ywk_14zerovec_derive5utils9FieldInfoENCNvNtB3V_11make_varule21make_zf_and_from_impl0EE0E0B3V_, symObjAddr: 0x838, symBinAddr: 0x1D25C, symSize: 0x3C }
  - { offset: 0x41E5D, size: 0x8, addend: 0x0, symName: __RNCINvNvNtNtNtNtCsaNl6UpbT7bw_4core4iter6traits8iterator8Iterator8for_each4callNtCshnvkK9b4wzu_11proc_macro211TokenStreamNCINvMsi_NtCsiTraAjBDcu4_5alloc3vecINtB24_3VecB1f_E14extend_trustedINtNtNtBc_8adapters3map3MapINtNtNtBe_5slice4iter4IterNtNtCs7IQ6Ulc8Ywk_14zerovec_derive5utils9FieldInfoENCNvNtB3V_3ule15make_ule_fields0EE0E0B3V_, symObjAddr: 0x874, symBinAddr: 0x1D298, symSize: 0x3C }
  - { offset: 0x41EED, size: 0x8, addend: 0x0, symName: __RNCNvXs_NvNtNtNtNtCsaNl6UpbT7bw_4core4iter6traits8iterator8Iterator10advance_byINtNtCsc29TF2YcYso_3syn10punctuated11PrivateIterNtCshnvkK9b4wzu_11proc_macro25IdentNtNtB1k_5token5CommaENtB6_13SpecAdvanceBy15spec_advance_by0Cs7IQ6Ulc8Ywk_14zerovec_derive, symObjAddr: 0x8B0, symBinAddr: 0x1D2D4, symSize: 0x20 }
  - { offset: 0x41F3A, size: 0x8, addend: 0x0, symName: __RNCNvXs_NvNtNtNtNtCsaNl6UpbT7bw_4core4iter6traits8iterator8Iterator10advance_byINtNtCsc29TF2YcYso_3syn10punctuated11PrivateIterNtNtB1k_4data7VariantNtNtB1k_5token5CommaENtB6_13SpecAdvanceBy15spec_advance_by0Cs7IQ6Ulc8Ywk_14zerovec_derive, symObjAddr: 0x8D0, symBinAddr: 0x1D2F4, symSize: 0x20 }
  - { offset: 0x41F87, size: 0x8, addend: 0x0, symName: __RNCNvXs_NvNtNtNtNtCsaNl6UpbT7bw_4core4iter6traits8iterator8Iterator10advance_byINtNtCsc29TF2YcYso_3syn10punctuated11PrivateIterNtNtB1k_4path15GenericArgumentNtNtB1k_5token5CommaENtB6_13SpecAdvanceBy15spec_advance_by0Cs7IQ6Ulc8Ywk_14zerovec_derive, symObjAddr: 0x8F0, symBinAddr: 0x1D314, symSize: 0x20 }
  - { offset: 0x41FD4, size: 0x8, addend: 0x0, symName: __RNCNvXs_NvNtNtNtNtCsaNl6UpbT7bw_4core4iter6traits8iterator8Iterator10advance_byINtNtCsc29TF2YcYso_3syn10punctuated4IterNtNtB1k_4path11PathSegmentENtB6_13SpecAdvanceBy15spec_advance_by0Cs7IQ6Ulc8Ywk_14zerovec_derive, symObjAddr: 0x910, symBinAddr: 0x1D334, symSize: 0x20 }
  - { offset: 0x42045, size: 0x8, addend: 0x0, symName: __RNCNvYNtNtCsc29TF2YcYso_3syn8generics9LifetimesNtNtNtNtCsaNl6UpbT7bw_4core4iter6traits8iterator8Iterator5count0Cs7IQ6Ulc8Ywk_14zerovec_derive, symObjAddr: 0x930, symBinAddr: 0x1D354, symSize: 0x68 }
  - { offset: 0x42096, size: 0x8, addend: 0x0, symName: __RNvYINtNtNtCsaNl6UpbT7bw_4core5slice4iter4IterNtNtCs7IQ6Ulc8Ywk_14zerovec_derive11make_varule12UnsizedFieldENtNtNtNtB9_4iter6traits8iterator8Iterator9enumerateBM_, symObjAddr: 0x20CC, symBinAddr: 0x1EAEC, symSize: 0x28 }
  - { offset: 0x420E2, size: 0x8, addend: 0x0, symName: __RNvYINtNtNtCsaNl6UpbT7bw_4core5slice4iter4IterNtNtCs7IQ6Ulc8Ywk_14zerovec_derive5utils9FieldInfoENtNtNtNtB9_4iter6traits8iterator8Iterator9enumerateBM_, symObjAddr: 0x20F4, symBinAddr: 0x1EB14, symSize: 0x28 }
  - { offset: 0x4212E, size: 0x8, addend: 0x0, symName: __RNvYNtNtCsc29TF2YcYso_3syn8generics9LifetimesNtNtNtNtCsaNl6UpbT7bw_4core4iter6traits8iterator8Iterator5countCs7IQ6Ulc8Ywk_14zerovec_derive, symObjAddr: 0x211C, symBinAddr: 0x1EB3C, symSize: 0x30 }
  - { offset: 0x4216F, size: 0x8, addend: 0x0, symName: __RNvXNtNtNtCsaNl6UpbT7bw_4core4iter6traits7collectINtNtNtB8_5slice4iter4IterNtNtCs7IQ6Ulc8Ywk_14zerovec_derive11make_varule12UnsizedFieldENtB2_12IntoIterator9into_iterB1f_, symObjAddr: 0x1098, symBinAddr: 0x1DAB8, symSize: 0x1C }
  - { offset: 0x421A6, size: 0x8, addend: 0x0, symName: __RNvXNtNtNtCsaNl6UpbT7bw_4core4iter6traits7collectINtNtNtB8_5slice4iter4IterRhENtB2_12IntoIterator9into_iterCs7IQ6Ulc8Ywk_14zerovec_derive, symObjAddr: 0x10B4, symBinAddr: 0x1DAD4, symSize: 0x1C }
  - { offset: 0x421DD, size: 0x8, addend: 0x0, symName: __RNvXNtNtNtCsaNl6UpbT7bw_4core4iter6traits7collectINtNtNtNtCsht3nMU9UgFu_3std11collections4hash3set4IterhENtB2_12IntoIterator9into_iterCs7IQ6Ulc8Ywk_14zerovec_derive, symObjAddr: 0x10D0, symBinAddr: 0x1DAF0, symSize: 0x30 }
  - { offset: 0x425F5, size: 0x8, addend: 0x0, symName: __RNvXs1q_NtNtCsaNl6UpbT7bw_4core3fmt3numjNtB8_5Debug3fmtCs7IQ6Ulc8Ywk_14zerovec_derive, symObjAddr: 0x1234, symBinAddr: 0x1DC54, symSize: 0x90 }
  - { offset: 0x42A10, size: 0x8, addend: 0x0, symName: __RINvMs0_NtNtNtCsht3nMU9UgFu_3std11collections4hash3setINtB6_7HashSethE6removehECs7IQ6Ulc8Ywk_14zerovec_derive, symObjAddr: 0x0, symBinAddr: 0x1CA90, symSize: 0x50 }
  - { offset: 0x42AAB, size: 0x8, addend: 0x0, symName: __RINvNtCsc29TF2YcYso_3syn11parse_quote5parseNtNtB4_6derive11DeriveInputECs7IQ6Ulc8Ywk_14zerovec_derive, symObjAddr: 0x94, symBinAddr: 0x1CAE0, symSize: 0xD0 }
  - { offset: 0x42B10, size: 0x8, addend: 0x0, symName: __RINvNvNtCsc29TF2YcYso_3syn11parse_quote5parse18panic_cold_displayNtNtB6_5error5ErrorECs7IQ6Ulc8Ywk_14zerovec_derive, symObjAddr: 0x164, symBinAddr: 0x1B35D0, symSize: 0x28 }
  - { offset: 0x47850, size: 0x8, addend: 0x0, symName: __RNvXNtCsc29TF2YcYso_3syn7spannedNtNtB4_8generics8GenericsNtB2_7Spanned4spanCs7IQ6Ulc8Ywk_14zerovec_derive, symObjAddr: 0x1064, symBinAddr: 0x1DA84, symSize: 0x34 }
  - { offset: 0x47891, size: 0x8, addend: 0x0, symName: __RNvXsh_NtCsc29TF2YcYso_3syn5parseNvYNtNtB7_6derive11DeriveInputNtNtB7_11parse_quote10ParseQuote5parseNtB5_6Parser6parse2Cs7IQ6Ulc8Ywk_14zerovec_derive, symObjAddr: 0x1C78, symBinAddr: 0x1E698, symSize: 0x354 }
  - { offset: 0x47FB0, size: 0x8, addend: 0x0, symName: __RNvNtCs7IQ6Ulc8Ywk_14zerovec_derive6varule11derive_impl, symObjAddr: 0x222C, symBinAddr: 0x1EC4C, symSize: 0x2340 }
  - { offset: 0x4840B, size: 0x8, addend: 0x0, symName: __RNCNvNtCs7IQ6Ulc8Ywk_14zerovec_derive6varule11derive_impl0B5_, symObjAddr: 0x456C, symBinAddr: 0x20F8C, symSize: 0x158 }
  - { offset: 0x48CF3, size: 0x8, addend: 0x0, symName: __RNvMNtCsiTraAjBDcu4_5alloc6stringNtB2_6String6as_strCs7IQ6Ulc8Ywk_14zerovec_derive, symObjAddr: 0x998, symBinAddr: 0x1D3BC, symSize: 0x78 }
  - { offset: 0x48DFC, size: 0x8, addend: 0x0, symName: __RNvMNtNtNtCsht3nMU9UgFu_3std11collections4hash3setINtB2_7HashSethE3newCs7IQ6Ulc8Ywk_14zerovec_derive, symObjAddr: 0xA10, symBinAddr: 0x1D434, symSize: 0x54 }
  - { offset: 0x48EB5, size: 0x8, addend: 0x0, symName: __RNvMs0_NtNtNtCsht3nMU9UgFu_3std11collections4hash3setINtB5_7HashSethE6insertCs7IQ6Ulc8Ywk_14zerovec_derive, symObjAddr: 0xA64, symBinAddr: 0x1D488, symSize: 0x4C }
  - { offset: 0x48F91, size: 0x8, addend: 0x0, symName: __RNvMs1_NtNtCsaNl6UpbT7bw_4core3ptr8non_nullINtB5_7NonNullNtCshnvkK9b4wzu_11proc_macro25IdentE20offset_from_unsignedCs7IQ6Ulc8Ywk_14zerovec_derive, symObjAddr: 0xAB0, symBinAddr: 0x1D4D4, symSize: 0x7C }
  - { offset: 0x4907D, size: 0x8, addend: 0x0, symName: __RNvMs1_NtNtCsaNl6UpbT7bw_4core3ptr8non_nullINtB5_7NonNullNtNtCs7IQ6Ulc8Ywk_14zerovec_derive5utils9FieldInfoE20offset_from_unsignedBX_, symObjAddr: 0xB2C, symBinAddr: 0x1D550, symSize: 0x7C }
  - { offset: 0x491A1, size: 0x8, addend: 0x0, symName: __RNvMs1_NtNtCsaNl6UpbT7bw_4core3ptr8non_nullINtB5_7NonNullTNtCshnvkK9b4wzu_11proc_macro25IdentNtNtCsc29TF2YcYso_3syn5token5CommaEE20offset_from_unsignedCs7IQ6Ulc8Ywk_14zerovec_derive, symObjAddr: 0xBA8, symBinAddr: 0x1D5CC, symSize: 0x7C }
  - { offset: 0x492A7, size: 0x8, addend: 0x0, symName: __RNvMs1_NtNtCsaNl6UpbT7bw_4core3ptr8non_nullINtB5_7NonNullTNtNtCsc29TF2YcYso_3syn4data7VariantNtNtBY_5token5CommaEE20offset_from_unsignedCs7IQ6Ulc8Ywk_14zerovec_derive, symObjAddr: 0xC24, symBinAddr: 0x1D648, symSize: 0x7C }
  - { offset: 0x493AD, size: 0x8, addend: 0x0, symName: __RNvMs1_NtNtCsaNl6UpbT7bw_4core3ptr8non_nullINtB5_7NonNullTNtNtCsc29TF2YcYso_3syn4path15GenericArgumentNtNtBY_5token5CommaEE20offset_from_unsignedCs7IQ6Ulc8Ywk_14zerovec_derive, symObjAddr: 0xCA0, symBinAddr: 0x1D6C4, symSize: 0x7C }
  - { offset: 0x49546, size: 0x8, addend: 0x0, symName: __RNvMs4_NtNtCsaNl6UpbT7bw_4core5slice4iterINtB5_4IterNtCshnvkK9b4wzu_11proc_macro211TokenStreamE3newCs7IQ6Ulc8Ywk_14zerovec_derive, symObjAddr: 0xD1C, symBinAddr: 0x1D740, symSize: 0x50 }
  - { offset: 0x4972A, size: 0x8, addend: 0x0, symName: __RNvMs4_NtNtCsaNl6UpbT7bw_4core5slice4iterINtB5_4IterNtNtCs7IQ6Ulc8Ywk_14zerovec_derive11make_varule12UnsizedFieldE3newBS_, symObjAddr: 0xD6C, symBinAddr: 0x1D790, symSize: 0x58 }
  - { offset: 0x498DA, size: 0x8, addend: 0x0, symName: __RNvMs4_NtNtCsaNl6UpbT7bw_4core5slice4iterINtB5_4IterNtNtCs7IQ6Ulc8Ywk_14zerovec_derive5utils9FieldInfoE3newBS_, symObjAddr: 0xDC4, symBinAddr: 0x1D7E8, symSize: 0x58 }
  - { offset: 0x49A8A, size: 0x8, addend: 0x0, symName: __RNvMs4_NtNtCsaNl6UpbT7bw_4core5slice4iterINtB5_4IterTNtCshnvkK9b4wzu_11proc_macro25IdentNtNtCsc29TF2YcYso_3syn5token5CommaEE3newCs7IQ6Ulc8Ywk_14zerovec_derive, symObjAddr: 0xE1C, symBinAddr: 0x1D840, symSize: 0x50 }
  - { offset: 0x49C42, size: 0x8, addend: 0x0, symName: __RNvMs_NtNtNtCsht3nMU9UgFu_3std11collections4hash3setINtB4_7HashSethE4iterCs7IQ6Ulc8Ywk_14zerovec_derive, symObjAddr: 0xE6C, symBinAddr: 0x1D890, symSize: 0x80 }
  - { offset: 0x49CDF, size: 0x8, addend: 0x0, symName: __RNvXNtCs4EAaWzSXu1l_5quote9to_tokensRNtNtCsc29TF2YcYso_3syn8generics8GenericsNtB2_8ToTokens9to_tokensCs7IQ6Ulc8Ywk_14zerovec_derive, symObjAddr: 0xFE4, symBinAddr: 0x1DA04, symSize: 0x40 }
  - { offset: 0x49D1E, size: 0x8, addend: 0x0, symName: __RNvXNtCs4EAaWzSXu1l_5quote9to_tokensRRNtNtCsc29TF2YcYso_3syn8lifetime8LifetimeNtB2_8ToTokens9to_tokensCs7IQ6Ulc8Ywk_14zerovec_derive, symObjAddr: 0x1024, symBinAddr: 0x1DA44, symSize: 0x40 }
  - { offset: 0x49D63, size: 0x8, addend: 0x0, symName: __RNvYRNtNtCsc29TF2YcYso_3syn8generics8GenericsNtNtCs4EAaWzSXu1l_5quote9to_tokens8ToTokens15to_token_streamCs7IQ6Ulc8Ywk_14zerovec_derive, symObjAddr: 0x214C, symBinAddr: 0x1EB6C, symSize: 0x8C }
  - { offset: 0x49DAD, size: 0x8, addend: 0x0, symName: __RNvYRNtNtCsc29TF2YcYso_3syn8generics8GenericsNtNtCs4EAaWzSXu1l_5quote9to_tokens8ToTokens17into_token_streamCs7IQ6Ulc8Ywk_14zerovec_derive, symObjAddr: 0x21D8, symBinAddr: 0x1EBF8, symSize: 0x54 }
  - { offset: 0x49DEE, size: 0x8, addend: 0x0, symName: __RNvXs0_NtCs4EAaWzSXu1l_5quote7spannedNtNtCsc29TF2YcYso_3syn8generics8GenericsNtB5_7Spanned6___spanCs7IQ6Ulc8Ywk_14zerovec_derive, symObjAddr: 0x1100, symBinAddr: 0x1DB20, symSize: 0x44 }
  - { offset: 0x4A7EA, size: 0x8, addend: 0x0, symName: __RINvMNtCsaNl6UpbT7bw_4core3stre5parseyECs7IQ6Ulc8Ywk_14zerovec_derive, symObjAddr: 0x0, symBinAddr: 0x210E4, symSize: 0x28 }
  - { offset: 0x4A8B1, size: 0x8, addend: 0x0, symName: __RNvNvMsd_NtNtCsaNl6UpbT7bw_4core3num7nonzeroINtB7_7NonZeropE13new_unchecked18precondition_checkCs7IQ6Ulc8Ywk_14zerovec_derive, symObjAddr: 0x3820, symBinAddr: 0x248BC, symSize: 0x84 }
  - { offset: 0x4AE02, size: 0x8, addend: 0x0, symName: __RINvNtCsaNl6UpbT7bw_4core3ptr13drop_in_placeINtNtB4_4cell10UnsafeCellNtNtNtCs7yrEGia95Wz_10proc_macro6bridge6client6BridgeEECs7IQ6Ulc8Ywk_14zerovec_derive, symObjAddr: 0x2E0, symBinAddr: 0x2137C, symSize: 0x24 }
  - { offset: 0x4AE31, size: 0x8, addend: 0x0, symName: __RINvNtCsaNl6UpbT7bw_4core3ptr13drop_in_placeINtNtB4_4cell7RefCellNtNtNtCs7yrEGia95Wz_10proc_macro6bridge6client6BridgeEECs7IQ6Ulc8Ywk_14zerovec_derive, symObjAddr: 0x304, symBinAddr: 0x213A0, symSize: 0x24 }
  - { offset: 0x4AE60, size: 0x8, addend: 0x0, symName: __RINvNtCsaNl6UpbT7bw_4core3ptr13drop_in_placeINtNtB4_6option6OptionINtNtCsiTraAjBDcu4_5alloc5boxed3BoxNtCshnvkK9b4wzu_11proc_macro25IdentEEECs7IQ6Ulc8Ywk_14zerovec_derive, symObjAddr: 0x328, symBinAddr: 0x213C4, symSize: 0x44 }
  - { offset: 0x4AE8F, size: 0x8, addend: 0x0, symName: __RINvNtCsaNl6UpbT7bw_4core3ptr13drop_in_placeINtNtB4_6option6OptionNtNtCs7IQ6Ulc8Ywk_14zerovec_derive5utils9FieldInfoEEB16_, symObjAddr: 0x36C, symBinAddr: 0x21408, symSize: 0x48 }
  - { offset: 0x4AEBE, size: 0x8, addend: 0x0, symName: __RINvNtCsaNl6UpbT7bw_4core3ptr13drop_in_placeINtNtB4_6option6OptionNtNtCsc29TF2YcYso_3syn5error5ErrorEECs7IQ6Ulc8Ywk_14zerovec_derive, symObjAddr: 0x3B4, symBinAddr: 0x21450, symSize: 0x48 }
  - { offset: 0x4AEED, size: 0x8, addend: 0x0, symName: __RINvNtCsaNl6UpbT7bw_4core3ptr13drop_in_placeINtNtB4_6result6ResultNtCshnvkK9b4wzu_11proc_macro211TokenStreamNtNtCsc29TF2YcYso_3syn5error5ErrorEECs7IQ6Ulc8Ywk_14zerovec_derive, symObjAddr: 0x3FC, symBinAddr: 0x21498, symSize: 0x5C }
  - { offset: 0x4AF1C, size: 0x8, addend: 0x0, symName: __RINvNtCsaNl6UpbT7bw_4core3ptr13drop_in_placeINtNtB4_6result6ResultNtNtCs7IQ6Ulc8Ywk_14zerovec_derive11make_varule12UnsizedFieldNtNtCsiTraAjBDcu4_5alloc6string6StringEEB16_, symObjAddr: 0x458, symBinAddr: 0x214F4, symSize: 0x5C }
  - { offset: 0x4AF4B, size: 0x8, addend: 0x0, symName: __RINvNtCsaNl6UpbT7bw_4core3ptr13drop_in_placeINtNtB4_6result6ResultNtNtCs7IQ6Ulc8Ywk_14zerovec_derive5utils18IdentListAttributeNtNtCsc29TF2YcYso_3syn5error5ErrorEEB16_, symObjAddr: 0x4B4, symBinAddr: 0x21550, symSize: 0x5C }
  - { offset: 0x4AF7A, size: 0x8, addend: 0x0, symName: __RINvNtCsaNl6UpbT7bw_4core3ptr13drop_in_placeINtNtB4_6result6ResultyNtNtCsc29TF2YcYso_3syn5error5ErrorEECs7IQ6Ulc8Ywk_14zerovec_derive, symObjAddr: 0x510, symBinAddr: 0x215AC, symSize: 0x48 }
  - { offset: 0x4AFA9, size: 0x8, addend: 0x0, symName: __RINvNtCsaNl6UpbT7bw_4core3ptr13drop_in_placeINtNtCs4EAaWzSXu1l_5quote9___private9RepInterpNtCshnvkK9b4wzu_11proc_macro211TokenStreamEECs7IQ6Ulc8Ywk_14zerovec_derive, symObjAddr: 0x558, symBinAddr: 0x215F4, symSize: 0x24 }
  - { offset: 0x4AFD8, size: 0x8, addend: 0x0, symName: __RINvNtCsaNl6UpbT7bw_4core3ptr13drop_in_placeINtNtCsc29TF2YcYso_3syn10punctuated10PunctuatedNtCshnvkK9b4wzu_11proc_macro25IdentNtNtBL_5token5CommaEECs7IQ6Ulc8Ywk_14zerovec_derive, symObjAddr: 0x57C, symBinAddr: 0x21618, symSize: 0x60 }
  - { offset: 0x4B007, size: 0x8, addend: 0x0, symName: __RINvNtCsaNl6UpbT7bw_4core3ptr13drop_in_placeINtNtCsc29TF2YcYso_3syn10punctuated4IterNtCshnvkK9b4wzu_11proc_macro25IdentEECs7IQ6Ulc8Ywk_14zerovec_derive, symObjAddr: 0x5DC, symBinAddr: 0x21678, symSize: 0x24 }
  - { offset: 0x4B036, size: 0x8, addend: 0x0, symName: __RINvNtCsaNl6UpbT7bw_4core3ptr13drop_in_placeINtNtCsc29TF2YcYso_3syn10punctuated4IterNtNtBL_4data5FieldEECs7IQ6Ulc8Ywk_14zerovec_derive, symObjAddr: 0x600, symBinAddr: 0x2169C, symSize: 0x24 }
  - { offset: 0x4B065, size: 0x8, addend: 0x0, symName: __RINvNtCsaNl6UpbT7bw_4core3ptr13drop_in_placeINtNtCsc29TF2YcYso_3syn10punctuated4IterNtNtBL_4data7VariantEECs7IQ6Ulc8Ywk_14zerovec_derive, symObjAddr: 0x624, symBinAddr: 0x216C0, symSize: 0x24 }
  - { offset: 0x4B094, size: 0x8, addend: 0x0, symName: __RINvNtCsaNl6UpbT7bw_4core3ptr13drop_in_placeINtNtCsc29TF2YcYso_3syn10punctuated4IterNtNtBL_4path15GenericArgumentEECs7IQ6Ulc8Ywk_14zerovec_derive, symObjAddr: 0x648, symBinAddr: 0x216E4, symSize: 0x24 }
  - { offset: 0x4B0C3, size: 0x8, addend: 0x0, symName: __RINvNtCsaNl6UpbT7bw_4core3ptr13drop_in_placeINtNtCsc29TF2YcYso_3syn10punctuated4IterNtNtBL_8generics12GenericParamEECs7IQ6Ulc8Ywk_14zerovec_derive, symObjAddr: 0x66C, symBinAddr: 0x21708, symSize: 0x24 }
  - { offset: 0x4B0F2, size: 0x8, addend: 0x0, symName: __RINvNtCsaNl6UpbT7bw_4core3ptr13drop_in_placeINtNtCsc29TF2YcYso_3syn10punctuated7IterMutNtNtBL_4data5FieldEECs7IQ6Ulc8Ywk_14zerovec_derive, symObjAddr: 0x690, symBinAddr: 0x2172C, symSize: 0x24 }
  - { offset: 0x4B121, size: 0x8, addend: 0x0, symName: __RINvNtCsaNl6UpbT7bw_4core3ptr13drop_in_placeINtNtCsg4dki62PTrg_9hashbrown10scopeguard10ScopeGuardNtNtBL_3raw13RawTableInnerNCINvMsa_B1z_B1x_14prepare_resizeNtNtCsiTraAjBDcu4_5alloc5alloc6GlobalE0EECs7IQ6Ulc8Ywk_14zerovec_derive, symObjAddr: 0x6B4, symBinAddr: 0x21750, symSize: 0x24 }
  - { offset: 0x4B150, size: 0x8, addend: 0x0, symName: __RINvNtCsaNl6UpbT7bw_4core3ptr13drop_in_placeINtNtCsg4dki62PTrg_9hashbrown10scopeguard10ScopeGuardQNtNtBL_3raw13RawTableInnerNCNvMsa_B1A_B1y_15rehash_in_place0EECs7IQ6Ulc8Ywk_14zerovec_derive, symObjAddr: 0x6D8, symBinAddr: 0x21774, symSize: 0x24 }
  - { offset: 0x4B17F, size: 0x8, addend: 0x0, symName: __RINvNtCsaNl6UpbT7bw_4core3ptr13drop_in_placeINtNtCsg4dki62PTrg_9hashbrown3map7HashMaphuNtNtNtCsht3nMU9UgFu_3std4hash6random11RandomStateEECs7IQ6Ulc8Ywk_14zerovec_derive, symObjAddr: 0x6FC, symBinAddr: 0x21798, symSize: 0x24 }
  - { offset: 0x4B1AE, size: 0x8, addend: 0x0, symName: __RINvNtCsaNl6UpbT7bw_4core3ptr13drop_in_placeINtNtCsg4dki62PTrg_9hashbrown3raw8RawTableThuEEECs7IQ6Ulc8Ywk_14zerovec_derive, symObjAddr: 0x720, symBinAddr: 0x217BC, symSize: 0x24 }
  - { offset: 0x4B1DD, size: 0x8, addend: 0x0, symName: __RINvNtCsaNl6UpbT7bw_4core3ptr13drop_in_placeINtNtCsg4dki62PTrg_9hashbrown3set7HashSethNtNtNtCsht3nMU9UgFu_3std4hash6random11RandomStateEECs7IQ6Ulc8Ywk_14zerovec_derive, symObjAddr: 0x744, symBinAddr: 0x217E0, symSize: 0x24 }
  - { offset: 0x4B20C, size: 0x8, addend: 0x0, symName: __RINvNtCsaNl6UpbT7bw_4core3ptr13drop_in_placeINtNtCsiTraAjBDcu4_5alloc3vec3VecINtNtB4_6option6OptionNtCshnvkK9b4wzu_11proc_macro25IdentEEECs7IQ6Ulc8Ywk_14zerovec_derive, symObjAddr: 0x768, symBinAddr: 0x21804, symSize: 0x5C }
  - { offset: 0x4B23B, size: 0x8, addend: 0x0, symName: __RINvNtCsaNl6UpbT7bw_4core3ptr13drop_in_placeINtNtCsiTraAjBDcu4_5alloc3vec3VecNtCshnvkK9b4wzu_11proc_macro211TokenStreamEECs7IQ6Ulc8Ywk_14zerovec_derive, symObjAddr: 0x7C4, symBinAddr: 0x21860, symSize: 0x5C }
  - { offset: 0x4B26A, size: 0x8, addend: 0x0, symName: __RINvNtCsaNl6UpbT7bw_4core3ptr13drop_in_placeINtNtCsiTraAjBDcu4_5alloc3vec3VecNtCshnvkK9b4wzu_11proc_macro25IdentEECs7IQ6Ulc8Ywk_14zerovec_derive, symObjAddr: 0x820, symBinAddr: 0x218BC, symSize: 0x5C }
  - { offset: 0x4B299, size: 0x8, addend: 0x0, symName: __RINvNtCsaNl6UpbT7bw_4core3ptr13drop_in_placeINtNtCsiTraAjBDcu4_5alloc3vec3VecNtNtCs7IQ6Ulc8Ywk_14zerovec_derive11make_varule12UnsizedFieldEEB1h_, symObjAddr: 0x87C, symBinAddr: 0x21918, symSize: 0x5C }
  - { offset: 0x4B2C8, size: 0x8, addend: 0x0, symName: __RINvNtCsaNl6UpbT7bw_4core3ptr13drop_in_placeINtNtCsiTraAjBDcu4_5alloc3vec3VecNtNtCs7IQ6Ulc8Ywk_14zerovec_derive5utils9FieldInfoEEB1h_, symObjAddr: 0x8D8, symBinAddr: 0x21974, symSize: 0x5C }
  - { offset: 0x4B2F7, size: 0x8, addend: 0x0, symName: __RINvNtCsaNl6UpbT7bw_4core3ptr13drop_in_placeINtNtCsiTraAjBDcu4_5alloc3vec3VecRhEECs7IQ6Ulc8Ywk_14zerovec_derive, symObjAddr: 0x934, symBinAddr: 0x219D0, symSize: 0x5C }
  - { offset: 0x4B326, size: 0x8, addend: 0x0, symName: __RINvNtCsaNl6UpbT7bw_4core3ptr13drop_in_placeINtNtCsiTraAjBDcu4_5alloc3vec3VecTNtCshnvkK9b4wzu_11proc_macro25IdentNtNtCsc29TF2YcYso_3syn5token5CommaEEECs7IQ6Ulc8Ywk_14zerovec_derive, symObjAddr: 0x990, symBinAddr: 0x21A2C, symSize: 0x5C }
  - { offset: 0x4B355, size: 0x8, addend: 0x0, symName: __RINvNtCsaNl6UpbT7bw_4core3ptr13drop_in_placeINtNtCsiTraAjBDcu4_5alloc5boxed3BoxDNtNtB4_5error5ErrorNtNtB4_6marker4SyncNtB1B_4SendEL_EECs7IQ6Ulc8Ywk_14zerovec_derive, symObjAddr: 0x9EC, symBinAddr: 0x21A88, symSize: 0x80 }
  - { offset: 0x4B384, size: 0x8, addend: 0x0, symName: __RINvNtCsaNl6UpbT7bw_4core3ptr13drop_in_placeINtNtCsiTraAjBDcu4_5alloc5boxed3BoxINtNtCsc29TF2YcYso_3syn5drops6NoDropDINtNtB1k_10punctuated12IterMutTraitNtNtB1k_4data5FieldEp4ItemQB2p_EL_EEECs7IQ6Ulc8Ywk_14zerovec_derive, symObjAddr: 0xA6C, symBinAddr: 0x21B08, symSize: 0x2C }
  - { offset: 0x4B3B3, size: 0x8, addend: 0x0, symName: __RINvNtCsaNl6UpbT7bw_4core3ptr13drop_in_placeINtNtCsiTraAjBDcu4_5alloc5boxed3BoxINtNtCsc29TF2YcYso_3syn5drops6NoDropDINtNtB1k_10punctuated9IterTraitNtCshnvkK9b4wzu_11proc_macro25IdentEp4ItemRB2l_EL_EEECs7IQ6Ulc8Ywk_14zerovec_derive, symObjAddr: 0xA98, symBinAddr: 0x21B34, symSize: 0x2C }
  - { offset: 0x4B3E2, size: 0x8, addend: 0x0, symName: __RINvNtCsaNl6UpbT7bw_4core3ptr13drop_in_placeINtNtCsiTraAjBDcu4_5alloc5boxed3BoxINtNtCsc29TF2YcYso_3syn5drops6NoDropDINtNtB1k_10punctuated9IterTraitNtNtB1k_4data5FieldEp4ItemRB2l_EL_EEECs7IQ6Ulc8Ywk_14zerovec_derive, symObjAddr: 0xAC4, symBinAddr: 0x21B60, symSize: 0x2C }
  - { offset: 0x4B411, size: 0x8, addend: 0x0, symName: __RINvNtCsaNl6UpbT7bw_4core3ptr13drop_in_placeINtNtCsiTraAjBDcu4_5alloc5boxed3BoxINtNtCsc29TF2YcYso_3syn5drops6NoDropDINtNtB1k_10punctuated9IterTraitNtNtB1k_4data7VariantEp4ItemRB2l_EL_EEECs7IQ6Ulc8Ywk_14zerovec_derive, symObjAddr: 0xAF0, symBinAddr: 0x21B8C, symSize: 0x2C }
  - { offset: 0x4B440, size: 0x8, addend: 0x0, symName: __RINvNtCsaNl6UpbT7bw_4core3ptr13drop_in_placeINtNtCsiTraAjBDcu4_5alloc5boxed3BoxINtNtCsc29TF2YcYso_3syn5drops6NoDropDINtNtB1k_10punctuated9IterTraitNtNtB1k_4path15GenericArgumentEp4ItemRB2l_EL_EEECs7IQ6Ulc8Ywk_14zerovec_derive, symObjAddr: 0xB1C, symBinAddr: 0x21BB8, symSize: 0x2C }
  - { offset: 0x4B46F, size: 0x8, addend: 0x0, symName: __RINvNtCsaNl6UpbT7bw_4core3ptr13drop_in_placeINtNtCsiTraAjBDcu4_5alloc5boxed3BoxINtNtCsc29TF2YcYso_3syn5drops6NoDropDINtNtB1k_10punctuated9IterTraitNtNtB1k_8generics12GenericParamEp4ItemRB2l_EL_EEECs7IQ6Ulc8Ywk_14zerovec_derive, symObjAddr: 0xB48, symBinAddr: 0x21BE4, symSize: 0x2C }
  - { offset: 0x4B49E, size: 0x8, addend: 0x0, symName: __RINvNtCsaNl6UpbT7bw_4core3ptr13drop_in_placeINtNtCsiTraAjBDcu4_5alloc5boxed3BoxNtCshnvkK9b4wzu_11proc_macro25IdentEECs7IQ6Ulc8Ywk_14zerovec_derive, symObjAddr: 0xB74, symBinAddr: 0x21C10, symSize: 0x60 }
  - { offset: 0x4B4CD, size: 0x8, addend: 0x0, symName: __RINvNtCsaNl6UpbT7bw_4core3ptr13drop_in_placeINtNtCsiTraAjBDcu4_5alloc5boxed3BoxNtNtNtCsht3nMU9UgFu_3std2io5error6CustomEECs7IQ6Ulc8Ywk_14zerovec_derive, symObjAddr: 0xBD4, symBinAddr: 0x21C70, symSize: 0x60 }
  - { offset: 0x4B4FC, size: 0x8, addend: 0x0, symName: __RINvNtCsaNl6UpbT7bw_4core3ptr13drop_in_placeINtNtCsiTraAjBDcu4_5alloc7raw_vec6RawVecINtNtB4_6option6OptionNtCshnvkK9b4wzu_11proc_macro25IdentEEECs7IQ6Ulc8Ywk_14zerovec_derive, symObjAddr: 0xC34, symBinAddr: 0x21CD0, symSize: 0x24 }
  - { offset: 0x4B52B, size: 0x8, addend: 0x0, symName: __RINvNtCsaNl6UpbT7bw_4core3ptr13drop_in_placeINtNtCsiTraAjBDcu4_5alloc7raw_vec6RawVecNtCshnvkK9b4wzu_11proc_macro211TokenStreamEECs7IQ6Ulc8Ywk_14zerovec_derive, symObjAddr: 0xC58, symBinAddr: 0x21CF4, symSize: 0x24 }
  - { offset: 0x4B55A, size: 0x8, addend: 0x0, symName: __RINvNtCsaNl6UpbT7bw_4core3ptr13drop_in_placeINtNtCsiTraAjBDcu4_5alloc7raw_vec6RawVecNtCshnvkK9b4wzu_11proc_macro25IdentEECs7IQ6Ulc8Ywk_14zerovec_derive, symObjAddr: 0xC7C, symBinAddr: 0x21D18, symSize: 0x24 }
  - { offset: 0x4B589, size: 0x8, addend: 0x0, symName: __RINvNtCsaNl6UpbT7bw_4core3ptr13drop_in_placeINtNtCsiTraAjBDcu4_5alloc7raw_vec6RawVecNtNtCs7IQ6Ulc8Ywk_14zerovec_derive11make_varule12UnsizedFieldEEB1o_, symObjAddr: 0xCA0, symBinAddr: 0x21D3C, symSize: 0x24 }
  - { offset: 0x4B5B8, size: 0x8, addend: 0x0, symName: __RINvNtCsaNl6UpbT7bw_4core3ptr13drop_in_placeINtNtCsiTraAjBDcu4_5alloc7raw_vec6RawVecNtNtCs7IQ6Ulc8Ywk_14zerovec_derive5utils9FieldInfoEEB1o_, symObjAddr: 0xCC4, symBinAddr: 0x21D60, symSize: 0x24 }
  - { offset: 0x4B5E7, size: 0x8, addend: 0x0, symName: __RINvNtCsaNl6UpbT7bw_4core3ptr13drop_in_placeINtNtCsiTraAjBDcu4_5alloc7raw_vec6RawVecRhEECs7IQ6Ulc8Ywk_14zerovec_derive, symObjAddr: 0xCE8, symBinAddr: 0x21D84, symSize: 0x24 }
  - { offset: 0x4B616, size: 0x8, addend: 0x0, symName: __RINvNtCsaNl6UpbT7bw_4core3ptr13drop_in_placeINtNtCsiTraAjBDcu4_5alloc7raw_vec6RawVecTNtCshnvkK9b4wzu_11proc_macro25IdentNtNtCsc29TF2YcYso_3syn5token5CommaEEECs7IQ6Ulc8Ywk_14zerovec_derive, symObjAddr: 0xD0C, symBinAddr: 0x21DA8, symSize: 0x24 }
  - { offset: 0x4B645, size: 0x8, addend: 0x0, symName: __RINvNtCsaNl6UpbT7bw_4core3ptr13drop_in_placeINtNtNtCsht3nMU9UgFu_3std2io5error9ErrorDataINtNtCsiTraAjBDcu4_5alloc5boxed3BoxNtBJ_6CustomEEECs7IQ6Ulc8Ywk_14zerovec_derive, symObjAddr: 0xD30, symBinAddr: 0x21DCC, symSize: 0x48 }
  - { offset: 0x4B674, size: 0x8, addend: 0x0, symName: __RINvNtCsaNl6UpbT7bw_4core3ptr13drop_in_placeINtNtNtCsiTraAjBDcu4_5alloc3vec9into_iter8IntoIterNtCshnvkK9b4wzu_11proc_macro25IdentEECs7IQ6Ulc8Ywk_14zerovec_derive, symObjAddr: 0xD78, symBinAddr: 0x21E14, symSize: 0x24 }
  - { offset: 0x4B6A3, size: 0x8, addend: 0x0, symName: __RINvNtCsaNl6UpbT7bw_4core3ptr13drop_in_placeINtNtNtNtB4_4iter8adapters3map3MapINtNtBL_9enumerate9EnumerateINtNtBL_4take4TakeINtNtCsc29TF2YcYso_3syn10punctuated4IterNtNtB23_4data5FieldEEENCINvMs0_NtCs7IQ6Ulc8Ywk_14zerovec_derive5utilsNtB37_9FieldInfo9make_listB1G_E0EEB39_, symObjAddr: 0xD9C, symBinAddr: 0x21E38, symSize: 0x24 }
  - { offset: 0x4B6D2, size: 0x8, addend: 0x0, symName: __RINvNtCsaNl6UpbT7bw_4core3ptr13drop_in_placeINtNtNtNtB4_4iter8adapters3map3MapINtNtBL_9enumerate9EnumerateINtNtCsc29TF2YcYso_3syn10punctuated4IterNtNtB1L_4data5FieldEENCINvMs0_NtCs7IQ6Ulc8Ywk_14zerovec_derive5utilsNtB2O_9FieldInfo9make_listB1G_E0EEB2Q_, symObjAddr: 0xDC0, symBinAddr: 0x21E5C, symSize: 0x24 }
  - { offset: 0x4B701, size: 0x8, addend: 0x0, symName: __RINvNtCsaNl6UpbT7bw_4core3ptr13drop_in_placeINtNtNtNtB4_4iter8adapters4take4TakeINtNtCsc29TF2YcYso_3syn10punctuated4IterNtNtB1l_4data5FieldEEECs7IQ6Ulc8Ywk_14zerovec_derive, symObjAddr: 0xDE4, symBinAddr: 0x21E80, symSize: 0x24 }
  - { offset: 0x4B730, size: 0x8, addend: 0x0, symName: __RINvNtCsaNl6UpbT7bw_4core3ptr13drop_in_placeINtNtNtNtB4_4iter8adapters6cloned6ClonedINtNtCsc29TF2YcYso_3syn10punctuated4IterNtCshnvkK9b4wzu_11proc_macro25IdentEEECs7IQ6Ulc8Ywk_14zerovec_derive, symObjAddr: 0xE08, symBinAddr: 0x21EA4, symSize: 0x24 }
  - { offset: 0x4B75F, size: 0x8, addend: 0x0, symName: __RINvNtCsaNl6UpbT7bw_4core3ptr13drop_in_placeINtNtNtNtB4_4iter8adapters9enumerate9EnumerateINtNtBL_4take4TakeINtNtCsc29TF2YcYso_3syn10punctuated4IterNtNtB1N_4data5FieldEEEECs7IQ6Ulc8Ywk_14zerovec_derive, symObjAddr: 0xE2C, symBinAddr: 0x21EC8, symSize: 0x24 }
  - { offset: 0x4B78E, size: 0x8, addend: 0x0, symName: __RINvNtCsaNl6UpbT7bw_4core3ptr13drop_in_placeINtNtNtNtB4_4iter8adapters9enumerate9EnumerateINtNtCsc29TF2YcYso_3syn10punctuated4IterNtNtB1v_4data5FieldEEECs7IQ6Ulc8Ywk_14zerovec_derive, symObjAddr: 0xE50, symBinAddr: 0x21EEC, symSize: 0x24 }
  - { offset: 0x4B7BD, size: 0x8, addend: 0x0, symName: __RINvNtCsaNl6UpbT7bw_4core3ptr13drop_in_placeINtNtNtNtB4_4iter8adapters9enumerate9EnumerateINtNtCsc29TF2YcYso_3syn10punctuated4IterNtNtB1v_4data7VariantEEECs7IQ6Ulc8Ywk_14zerovec_derive, symObjAddr: 0xE74, symBinAddr: 0x21F10, symSize: 0x24 }
  - { offset: 0x4B7EC, size: 0x8, addend: 0x0, symName: __RINvNtCsaNl6UpbT7bw_4core3ptr13drop_in_placeINtNtNtNtCsht3nMU9UgFu_3std11collections4hash3set7HashSethEECs7IQ6Ulc8Ywk_14zerovec_derive, symObjAddr: 0xE98, symBinAddr: 0x21F34, symSize: 0x24 }
  - { offset: 0x4B81B, size: 0x8, addend: 0x0, symName: __RINvNtCsaNl6UpbT7bw_4core3ptr13drop_in_placeINtNvMs_NtCsiTraAjBDcu4_5alloc3vecINtBO_3VecppE10retain_mut15BackshiftOnDropNtNtCsc29TF2YcYso_3syn4attr9AttributeNtNtBQ_5alloc6GlobalEECs7IQ6Ulc8Ywk_14zerovec_derive, symObjAddr: 0xEBC, symBinAddr: 0x21F58, symSize: 0x24 }
  - { offset: 0x4B84A, size: 0x8, addend: 0x0, symName: __RINvNtCsaNl6UpbT7bw_4core3ptr13drop_in_placeINtNvXsd_NtNtCsiTraAjBDcu4_5alloc3vec9into_iterINtBP_8IntoIterppENtNtNtB4_3ops4drop4Drop4drop9DropGuardNtCshnvkK9b4wzu_11proc_macro25IdentNtNtBT_5alloc6GlobalEECs7IQ6Ulc8Ywk_14zerovec_derive, symObjAddr: 0xEE0, symBinAddr: 0x21F7C, symSize: 0x24 }
  - { offset: 0x4B879, size: 0x8, addend: 0x0, symName: __RINvNtCsaNl6UpbT7bw_4core3ptr13drop_in_placeNCINvMsi_NtCsiTraAjBDcu4_5alloc3vecINtBP_3VecNtCshnvkK9b4wzu_11proc_macro211TokenStreamE14extend_trustedINtNtNtNtB4_4iter8adapters3map3MapINtNtNtB4_5slice4iter4IterNtNtCs7IQ6Ulc8Ywk_14zerovec_derive5utils9FieldInfoENCNvNtB3o_11make_varule21make_zf_and_from_impl0EE0EB3o_, symObjAddr: 0xF04, symBinAddr: 0x21FA0, symSize: 0x24 }
  - { offset: 0x4B8A8, size: 0x8, addend: 0x0, symName: __RINvNtCsaNl6UpbT7bw_4core3ptr13drop_in_placeNCINvMsi_NtCsiTraAjBDcu4_5alloc3vecINtBP_3VecNtCshnvkK9b4wzu_11proc_macro211TokenStreamE14extend_trustedINtNtNtNtB4_4iter8adapters3map3MapINtNtNtB4_5slice4iter4IterNtNtCs7IQ6Ulc8Ywk_14zerovec_derive5utils9FieldInfoENCNvNtB3o_3ule15make_ule_fields0EE0EB3o_, symObjAddr: 0xF28, symBinAddr: 0x21FC4, symSize: 0x24 }
  - { offset: 0x4B8D7, size: 0x8, addend: 0x0, symName: __RINvNtCsaNl6UpbT7bw_4core3ptr13drop_in_placeNCINvNtNtNtB4_4iter8adapters3map8map_foldRNtNtCs7IQ6Ulc8Ywk_14zerovec_derive5utils9FieldInfoNtCshnvkK9b4wzu_11proc_macro211TokenStreamuNCNvNtB1q_11make_varule21make_zf_and_from_impl0NCINvNvNtNtNtBP_6traits8iterator8Iterator8for_each4callB2a_NCINvMsi_NtCsiTraAjBDcu4_5alloc3vecINtB4I_3VecB2a_E14extend_trustedINtBL_3MapINtNtNtB4_5slice4iter4IterB1m_EB2R_EE0E0E0EB1q_, symObjAddr: 0xF4C, symBinAddr: 0x21FE8, symSize: 0x24 }
  - { offset: 0x4B906, size: 0x8, addend: 0x0, symName: __RINvNtCsaNl6UpbT7bw_4core3ptr13drop_in_placeNCINvNtNtNtB4_4iter8adapters3map8map_foldRNtNtCs7IQ6Ulc8Ywk_14zerovec_derive5utils9FieldInfoNtCshnvkK9b4wzu_11proc_macro211TokenStreamuNCNvNtB1q_3ule15make_ule_fields0NCINvNvNtNtNtBP_6traits8iterator8Iterator8for_each4callB2a_NCINvMsi_NtCsiTraAjBDcu4_5alloc3vecINtB4t_3VecB2a_E14extend_trustedINtBL_3MapINtNtNtB4_5slice4iter4IterB1m_EB2R_EE0E0E0EB1q_, symObjAddr: 0xF70, symBinAddr: 0x2200C, symSize: 0x24 }
  - { offset: 0x4B935, size: 0x8, addend: 0x0, symName: __RINvNtCsaNl6UpbT7bw_4core3ptr13drop_in_placeNCINvNvNtNtNtNtB4_4iter6traits8iterator8Iterator8for_each4callNtCshnvkK9b4wzu_11proc_macro211TokenStreamNCINvMsi_NtCsiTraAjBDcu4_5alloc3vecINtB2v_3VecB1G_E14extend_trustedINtNtNtBT_8adapters3map3MapINtNtNtB4_5slice4iter4IterNtNtCs7IQ6Ulc8Ywk_14zerovec_derive5utils9FieldInfoENCNvNtB4m_11make_varule21make_zf_and_from_impl0EE0E0EB4m_, symObjAddr: 0xF94, symBinAddr: 0x22030, symSize: 0x24 }
  - { offset: 0x4B964, size: 0x8, addend: 0x0, symName: __RINvNtCsaNl6UpbT7bw_4core3ptr13drop_in_placeNCINvNvNtNtNtNtB4_4iter6traits8iterator8Iterator8for_each4callNtCshnvkK9b4wzu_11proc_macro211TokenStreamNCINvMsi_NtCsiTraAjBDcu4_5alloc3vecINtB2v_3VecB1G_E14extend_trustedINtNtNtBT_8adapters3map3MapINtNtNtB4_5slice4iter4IterNtNtCs7IQ6Ulc8Ywk_14zerovec_derive5utils9FieldInfoENCNvNtB4m_3ule15make_ule_fields0EE0E0EB4m_, symObjAddr: 0xFB8, symBinAddr: 0x22054, symSize: 0x24 }
  - { offset: 0x4B993, size: 0x8, addend: 0x0, symName: __RINvNtCsaNl6UpbT7bw_4core3ptr13drop_in_placeNCNCINvNtNtCs7yrEGia95Wz_10proc_macro6bridge6client10run_clientNtBN_11TokenStreamINtNtB4_6option6OptionB1H_ENCNCINvMs6_BN_INtBN_6ClientNtBR_11TokenStreamB2R_E7expand1NvCs7IQ6Ulc8Ywk_14zerovec_derive10ule_deriveE00E00EB3o_, symObjAddr: 0xFDC, symBinAddr: 0x22078, symSize: 0x24 }
  - { offset: 0x4B9C2, size: 0x8, addend: 0x0, symName: __RINvNtCsaNl6UpbT7bw_4core3ptr13drop_in_placeNCNCINvNtNtCs7yrEGia95Wz_10proc_macro6bridge6client10run_clientNtBN_11TokenStreamINtNtB4_6option6OptionB1H_ENCNCINvMs6_BN_INtBN_6ClientNtBR_11TokenStreamB2R_E7expand1NvCs7IQ6Ulc8Ywk_14zerovec_derive13varule_deriveE00E00EB3o_, symObjAddr: 0x1000, symBinAddr: 0x2209C, symSize: 0x24 }
  - { offset: 0x4B9F1, size: 0x8, addend: 0x0, symName: __RINvNtCsaNl6UpbT7bw_4core3ptr13drop_in_placeNCNCINvNtNtCs7yrEGia95Wz_10proc_macro6bridge6client10run_clientTNtBN_11TokenStreamB1I_EINtNtB4_6option6OptionB1I_ENCNCINvMs7_BN_INtBN_6ClientTNtBR_11TokenStreamB2Y_EB2Y_E7expand2NvCs7IQ6Ulc8Ywk_14zerovec_derive11make_varuleE00E00EB3A_, symObjAddr: 0x1024, symBinAddr: 0x220C0, symSize: 0x24 }
  - { offset: 0x4BA20, size: 0x8, addend: 0x0, symName: __RINvNtCsaNl6UpbT7bw_4core3ptr13drop_in_placeNCNCINvNtNtCs7yrEGia95Wz_10proc_macro6bridge6client10run_clientTNtBN_11TokenStreamB1I_EINtNtB4_6option6OptionB1I_ENCNCINvMs7_BN_INtBN_6ClientTNtBR_11TokenStreamB2Y_EB2Y_E7expand2NvCs7IQ6Ulc8Ywk_14zerovec_derive8make_uleE00E00EB3A_, symObjAddr: 0x1048, symBinAddr: 0x220E4, symSize: 0x24 }
  - { offset: 0x4BA4F, size: 0x8, addend: 0x0, symName: __RINvNtCsaNl6UpbT7bw_4core3ptr13drop_in_placeNtNtCs7IQ6Ulc8Ywk_14zerovec_derive11make_varule12UnsizedFieldEBK_, symObjAddr: 0x106C, symBinAddr: 0x22108, symSize: 0x5C }
  - { offset: 0x4BA7E, size: 0x8, addend: 0x0, symName: __RINvNtCsaNl6UpbT7bw_4core3ptr13drop_in_placeNtNtCs7IQ6Ulc8Ywk_14zerovec_derive11make_varule13UnsizedFieldsEBK_, symObjAddr: 0x10C8, symBinAddr: 0x22164, symSize: 0x60 }
  - { offset: 0x4BAAD, size: 0x8, addend: 0x0, symName: __RINvNtCsaNl6UpbT7bw_4core3ptr13drop_in_placeNtNtCs7IQ6Ulc8Ywk_14zerovec_derive11make_varule16UnsizedFieldKindEBK_, symObjAddr: 0x1128, symBinAddr: 0x221C4, symSize: 0x64 }
  - { offset: 0x4BADC, size: 0x8, addend: 0x0, symName: __RINvNtCsaNl6UpbT7bw_4core3ptr13drop_in_placeNtNtCs7IQ6Ulc8Ywk_14zerovec_derive5utils12ZeroVecAttrsEBK_, symObjAddr: 0x118C, symBinAddr: 0x22228, symSize: 0x24 }
  - { offset: 0x4BB0B, size: 0x8, addend: 0x0, symName: __RINvNtCsaNl6UpbT7bw_4core3ptr13drop_in_placeNtNtCs7IQ6Ulc8Ywk_14zerovec_derive5utils18IdentListAttributeEBK_, symObjAddr: 0x11B0, symBinAddr: 0x2224C, symSize: 0x24 }
  - { offset: 0x4BB3A, size: 0x8, addend: 0x0, symName: __RINvNtCsaNl6UpbT7bw_4core3ptr13drop_in_placeNtNtCs7IQ6Ulc8Ywk_14zerovec_derive5utils9FieldInfoEBK_, symObjAddr: 0x11D4, symBinAddr: 0x22270, symSize: 0x24 }
  - { offset: 0x4BB69, size: 0x8, addend: 0x0, symName: __RINvNtCsaNl6UpbT7bw_4core3ptr13drop_in_placeNtNtCsc29TF2YcYso_3syn6derive11DeriveInputECs7IQ6Ulc8Ywk_14zerovec_derive, symObjAddr: 0x11F8, symBinAddr: 0x22294, symSize: 0xEC }
  - { offset: 0x4BB98, size: 0x8, addend: 0x0, symName: __RINvNtCsaNl6UpbT7bw_4core3ptr13drop_in_placeNtNtCsc29TF2YcYso_3syn8generics10TypeParamsECs7IQ6Ulc8Ywk_14zerovec_derive, symObjAddr: 0x12E4, symBinAddr: 0x22380, symSize: 0x24 }
  - { offset: 0x4BBC7, size: 0x8, addend: 0x0, symName: __RINvNtCsaNl6UpbT7bw_4core3ptr13drop_in_placeNtNtCsc29TF2YcYso_3syn8generics11ConstParamsECs7IQ6Ulc8Ywk_14zerovec_derive, symObjAddr: 0x1308, symBinAddr: 0x223A4, symSize: 0x24 }
  - { offset: 0x4BBF6, size: 0x8, addend: 0x0, symName: __RINvNtCsaNl6UpbT7bw_4core3ptr13drop_in_placeNtNtCsc29TF2YcYso_3syn8generics9LifetimesECs7IQ6Ulc8Ywk_14zerovec_derive, symObjAddr: 0x132C, symBinAddr: 0x223C8, symSize: 0x24 }
  - { offset: 0x4BC25, size: 0x8, addend: 0x0, symName: __RINvNtCsaNl6UpbT7bw_4core3ptr13drop_in_placeNtNtNtCs7yrEGia95Wz_10proc_macro6bridge3rpc12PanicMessageECs7IQ6Ulc8Ywk_14zerovec_derive, symObjAddr: 0x1350, symBinAddr: 0x223EC, symSize: 0x50 }
  - { offset: 0x4BC54, size: 0x8, addend: 0x0, symName: __RINvNtCsaNl6UpbT7bw_4core3ptr13drop_in_placeNtNtNtCs7yrEGia95Wz_10proc_macro6bridge6buffer6BufferECs7IQ6Ulc8Ywk_14zerovec_derive, symObjAddr: 0x13A0, symBinAddr: 0x2243C, symSize: 0x24 }
  - { offset: 0x4BC83, size: 0x8, addend: 0x0, symName: __RINvNtCsaNl6UpbT7bw_4core3ptr13drop_in_placeNtNtNtCs7yrEGia95Wz_10proc_macro6bridge6client6BridgeECs7IQ6Ulc8Ywk_14zerovec_derive, symObjAddr: 0x13C4, symBinAddr: 0x22460, symSize: 0x24 }
  - { offset: 0x4BCB2, size: 0x8, addend: 0x0, symName: __RINvNtCsaNl6UpbT7bw_4core3ptr13drop_in_placeNtNtNtCsht3nMU9UgFu_3std2io5error5ErrorECs7IQ6Ulc8Ywk_14zerovec_derive, symObjAddr: 0x13E8, symBinAddr: 0x22484, symSize: 0x24 }
  - { offset: 0x4BCE1, size: 0x8, addend: 0x0, symName: __RINvNtCsaNl6UpbT7bw_4core3ptr13drop_in_placeNtNtNtCsht3nMU9UgFu_3std2io5error6CustomECs7IQ6Ulc8Ywk_14zerovec_derive, symObjAddr: 0x140C, symBinAddr: 0x224A8, symSize: 0x24 }
  - { offset: 0x4BD10, size: 0x8, addend: 0x0, symName: __RINvNtCsaNl6UpbT7bw_4core3ptr13drop_in_placeNtNtNtNtCsht3nMU9UgFu_3std2io5error14repr_bitpacked4ReprECs7IQ6Ulc8Ywk_14zerovec_derive, symObjAddr: 0x1430, symBinAddr: 0x224CC, symSize: 0x24 }
  - { offset: 0x4BD3F, size: 0x8, addend: 0x0, symName: __RINvNtCsaNl6UpbT7bw_4core3ptr13drop_in_placeNtNvNtNtNtCs7yrEGia95Wz_10proc_macro6bridge6client5state3set13RestoreOnDropECs7IQ6Ulc8Ywk_14zerovec_derive, symObjAddr: 0x1454, symBinAddr: 0x224F0, symSize: 0x24 }
  - { offset: 0x4BD6E, size: 0x8, addend: 0x0, symName: __RINvNtCsaNl6UpbT7bw_4core3ptr13drop_in_placeSINtNtB4_6option6OptionNtCshnvkK9b4wzu_11proc_macro25IdentEECs7IQ6Ulc8Ywk_14zerovec_derive, symObjAddr: 0x1478, symBinAddr: 0x22514, symSize: 0xC4 }
  - { offset: 0x4BD9D, size: 0x8, addend: 0x0, symName: __RINvNtCsaNl6UpbT7bw_4core3ptr13drop_in_placeSNtCshnvkK9b4wzu_11proc_macro211TokenStreamECs7IQ6Ulc8Ywk_14zerovec_derive, symObjAddr: 0x153C, symBinAddr: 0x225D8, symSize: 0xB4 }
  - { offset: 0x4BDCC, size: 0x8, addend: 0x0, symName: __RINvNtCsaNl6UpbT7bw_4core3ptr13drop_in_placeSNtCshnvkK9b4wzu_11proc_macro25IdentECs7IQ6Ulc8Ywk_14zerovec_derive, symObjAddr: 0x15F0, symBinAddr: 0x2268C, symSize: 0xC4 }
  - { offset: 0x4BDFB, size: 0x8, addend: 0x0, symName: __RINvNtCsaNl6UpbT7bw_4core3ptr13drop_in_placeSNtNtCs7IQ6Ulc8Ywk_14zerovec_derive11make_varule12UnsizedFieldEBL_, symObjAddr: 0x16B4, symBinAddr: 0x22750, symSize: 0xC4 }
  - { offset: 0x4BE2A, size: 0x8, addend: 0x0, symName: __RINvNtCsaNl6UpbT7bw_4core3ptr13drop_in_placeSNtNtCs7IQ6Ulc8Ywk_14zerovec_derive5utils9FieldInfoEBL_, symObjAddr: 0x1778, symBinAddr: 0x22814, symSize: 0xC4 }
  - { offset: 0x4BE59, size: 0x8, addend: 0x0, symName: __RINvNtCsaNl6UpbT7bw_4core3ptr13drop_in_placeSTNtCshnvkK9b4wzu_11proc_macro25IdentNtNtCsc29TF2YcYso_3syn5token5CommaEECs7IQ6Ulc8Ywk_14zerovec_derive, symObjAddr: 0x183C, symBinAddr: 0x228D8, symSize: 0xB4 }
  - { offset: 0x4BE88, size: 0x8, addend: 0x0, symName: __RINvNtCsaNl6UpbT7bw_4core3ptr13drop_in_placeTNtCshnvkK9b4wzu_11proc_macro25IdentNtNtCsc29TF2YcYso_3syn5token5CommaEECs7IQ6Ulc8Ywk_14zerovec_derive, symObjAddr: 0x18F0, symBinAddr: 0x2298C, symSize: 0x24 }
  - { offset: 0x4BEB7, size: 0x8, addend: 0x0, symName: __RINvNtCsaNl6UpbT7bw_4core3ptr13drop_in_placeTNtNtNtCs7yrEGia95Wz_10proc_macro6bridge6client11TokenStreamBH_EECs7IQ6Ulc8Ywk_14zerovec_derive, symObjAddr: 0x1914, symBinAddr: 0x229B0, symSize: 0x60 }
  - { offset: 0x4C664, size: 0x8, addend: 0x0, symName: __RINvMNtCsaNl6UpbT7bw_4core3stre5parseyECs7IQ6Ulc8Ywk_14zerovec_derive, symObjAddr: 0x0, symBinAddr: 0x210E4, symSize: 0x28 }
  - { offset: 0x4C6C4, size: 0x8, addend: 0x0, symName: __RNvXs_NtNtCsaNl6UpbT7bw_4core3str6traitseNtNtB8_3cmp9PartialEq2eqCs7IQ6Ulc8Ywk_14zerovec_derive, symObjAddr: 0x46C0, symBinAddr: 0x2575C, symSize: 0x64 }
  - { offset: 0x4FFAB, size: 0x8, addend: 0x0, symName: __RNSNvYNCINvMs6_NtCsg4dki62PTrg_9hashbrown3rawINtBd_8RawTableThuEE14reserve_rehashNCINvNtBf_3map11make_hasherhuNtNtNtCsht3nMU9UgFu_3std4hash6random11RandomStateE0E0INtNtNtCsaNl6UpbT7bw_4core3ops8function6FnOnceTQNtBd_13RawTableInnerjEE9call_once6vtableCs7IQ6Ulc8Ywk_14zerovec_derive, symObjAddr: 0x3558, symBinAddr: 0x245F4, symSize: 0x38 }
  - { offset: 0x4FFEF, size: 0x8, addend: 0x0, symName: __RNSNvYNCINvMs6_NtCsg4dki62PTrg_9hashbrown3rawINtBd_8RawTableThuEE24find_or_find_insert_slotNCINvNtBf_3map14equivalent_keyhhuE0NCINvB1w_11make_hasherhuNtNtNtCsht3nMU9UgFu_3std4hash6random11RandomStateE0E0INtNtNtCsaNl6UpbT7bw_4core3ops8function6FnOnceTjEE9call_once6vtableCs7IQ6Ulc8Ywk_14zerovec_derive, symObjAddr: 0x3590, symBinAddr: 0x2462C, symSize: 0x38 }
  - { offset: 0x50033, size: 0x8, addend: 0x0, symName: __RNSNvYNCINvMs6_NtCsg4dki62PTrg_9hashbrown3rawINtBd_8RawTableThuEE4findNCINvNtBf_3map14equivalent_keyhhuE0E0INtNtNtCsaNl6UpbT7bw_4core3ops8function6FnOnceTjEE9call_once6vtableCs7IQ6Ulc8Ywk_14zerovec_derive, symObjAddr: 0x35C8, symBinAddr: 0x24664, symSize: 0x38 }
  - { offset: 0x50077, size: 0x8, addend: 0x0, symName: __RNvYNCINvMs6_NtCsg4dki62PTrg_9hashbrown3rawINtBb_8RawTableThuEE14reserve_rehashNCINvNtBd_3map11make_hasherhuNtNtNtCsht3nMU9UgFu_3std4hash6random11RandomStateE0E0INtNtNtCsaNl6UpbT7bw_4core3ops8function6FnOnceTQNtBb_13RawTableInnerjEE9call_onceCs7IQ6Ulc8Ywk_14zerovec_derive, symObjAddr: 0x4D10, symBinAddr: 0x25DAC, symSize: 0x5C }
  - { offset: 0x500BB, size: 0x8, addend: 0x0, symName: __RNvYNCINvMs6_NtCsg4dki62PTrg_9hashbrown3rawINtBb_8RawTableThuEE24find_or_find_insert_slotNCINvNtBd_3map14equivalent_keyhhuE0NCINvB1u_11make_hasherhuNtNtNtCsht3nMU9UgFu_3std4hash6random11RandomStateE0E0INtNtNtCsaNl6UpbT7bw_4core3ops8function6FnOnceTjEE9call_onceCs7IQ6Ulc8Ywk_14zerovec_derive, symObjAddr: 0x4D6C, symBinAddr: 0x25E08, symSize: 0x58 }
  - { offset: 0x500FF, size: 0x8, addend: 0x0, symName: __RNvYNCINvMs6_NtCsg4dki62PTrg_9hashbrown3rawINtBb_8RawTableThuEE4findNCINvNtBd_3map14equivalent_keyhhuE0E0INtNtNtCsaNl6UpbT7bw_4core3ops8function6FnOnceTjEE9call_onceCs7IQ6Ulc8Ywk_14zerovec_derive, symObjAddr: 0x4DC4, symBinAddr: 0x25E60, symSize: 0x58 }
  - { offset: 0x50143, size: 0x8, addend: 0x0, symName: __RNvYNCNkNvNtNtNtCs7yrEGia95Wz_10proc_macro6bridge6client5state12BRIDGE_STATE0s_0INtNtNtCsaNl6UpbT7bw_4core3ops8function6FnOnceTINtNtB1n_6option6OptionQIB22_INtNtB1n_4cell4CellPuEEEEE9call_onceCs7IQ6Ulc8Ywk_14zerovec_derive, symObjAddr: 0x4E1C, symBinAddr: 0x25EB8, symSize: 0x4C }
  - { offset: 0x50187, size: 0x8, addend: 0x0, symName: __RNvYNCNkNvNvMNtNtCsht3nMU9UgFu_3std4hash6randomNtBb_11RandomState3new4KEYS0s_0INtNtNtCsaNl6UpbT7bw_4core3ops8function6FnOnceTINtNtB1l_6option6OptionQIB20_INtNtB1l_4cell4CellTyyEEEEEE9call_onceCs7IQ6Ulc8Ywk_14zerovec_derive, symObjAddr: 0x4E68, symBinAddr: 0x25F04, symSize: 0x4C }
  - { offset: 0x501CB, size: 0x8, addend: 0x0, symName: __RNvYNcNtNtNtCs7IQ6Ulc8Ywk_14zerovec_derive11make_varule16UnsizedFieldKind10VarZeroCow0INtNtNtCsaNl6UpbT7bw_4core3ops8function6FnOnceTNtB8_8OwnULETyEE9call_onceBa_, symObjAddr: 0x4EB4, symBinAddr: 0x25F50, symSize: 0x24 }
  - { offset: 0x5020F, size: 0x8, addend: 0x0, symName: __RNvYNcNtNtNtCs7IQ6Ulc8Ywk_14zerovec_derive11make_varule16UnsizedFieldKind3Cow0INtNtNtCsaNl6UpbT7bw_4core3ops8function6FnOnceTNtB8_8OwnULETyEE9call_onceBa_, symObjAddr: 0x4ED8, symBinAddr: 0x25F74, symSize: 0x24 }
  - { offset: 0x50253, size: 0x8, addend: 0x0, symName: __RNvYNcNtNtNtCs7IQ6Ulc8Ywk_14zerovec_derive11make_varule16UnsizedFieldKind3Ref0INtNtNtCsaNl6UpbT7bw_4core3ops8function6FnOnceTNtB8_8OwnULETyEE9call_onceBa_, symObjAddr: 0x4EFC, symBinAddr: 0x25F98, symSize: 0x24 }
  - { offset: 0x50297, size: 0x8, addend: 0x0, symName: __RNvYNcNtNtNtCs7IQ6Ulc8Ywk_14zerovec_derive11make_varule16UnsizedFieldKind5Boxed0INtNtNtCsaNl6UpbT7bw_4core3ops8function6FnOnceTNtB8_8OwnULETyEE9call_onceBa_, symObjAddr: 0x4F20, symBinAddr: 0x25FBC, symSize: 0x24 }
  - { offset: 0x502DB, size: 0x8, addend: 0x0, symName: __RNvYNvNvNvMNtNtCsht3nMU9UgFu_3std4hash6randomNtB9_11RandomState3new4KEYS6___initINtNtNtCsaNl6UpbT7bw_4core3ops8function6FnOnceuE9call_onceCs7IQ6Ulc8Ywk_14zerovec_derive, symObjAddr: 0x4FF4, symBinAddr: 0x26090, symSize: 0x1C }
  - { offset: 0x5031F, size: 0x8, addend: 0x0, symName: __RNvYNvYINtNtCsiTraAjBDcu4_5alloc5boxed3BoxNtCshnvkK9b4wzu_11proc_macro25IdentEINtNtCsaNl6UpbT7bw_4core7convert5AsRefBE_E6as_refINtNtNtB1j_3ops8function6FnOnceTRB5_EE9call_onceCs7IQ6Ulc8Ywk_14zerovec_derive, symObjAddr: 0x5010, symBinAddr: 0x260AC, symSize: 0x24 }
  - { offset: 0x50363, size: 0x8, addend: 0x0, symName: __RNvYNvYNtCshnvkK9b4wzu_11proc_macro211TokenStreamNtNtCsc29TF2YcYso_3syn5parse5Parse5parseINtNtNtCsaNl6UpbT7bw_4core3ops8function6FnOnceTRNtBN_11ParseBufferEE9call_onceCs7IQ6Ulc8Ywk_14zerovec_derive, symObjAddr: 0x5034, symBinAddr: 0x260D0, symSize: 0x24 }
  - { offset: 0x503A7, size: 0x8, addend: 0x0, symName: __RNvYNvYNtCshnvkK9b4wzu_11proc_macro25IdentNtNtCsc29TF2YcYso_3syn5parse5Parse5parseINtNtNtCsaNl6UpbT7bw_4core3ops8function6FnOnceTRNtBG_11ParseBufferEE9call_onceCs7IQ6Ulc8Ywk_14zerovec_derive, symObjAddr: 0x5058, symBinAddr: 0x260F4, symSize: 0x24 }
  - { offset: 0x503EB, size: 0x8, addend: 0x0, symName: __RNvYNvYNtNtCs7IQ6Ulc8Ywk_14zerovec_derive5utils18IdentListAttributeNtNtCsc29TF2YcYso_3syn5parse5Parse5parseINtNtNtCsaNl6UpbT7bw_4core3ops8function6FnOnceTRNtB15_11ParseBufferEE9call_onceB9_, symObjAddr: 0x507C, symBinAddr: 0x26118, symSize: 0x24 }
  - { offset: 0x5042F, size: 0x8, addend: 0x0, symName: __RNvYNvYNtNtCsc29TF2YcYso_3syn3lit3LitNtNtB9_5parse5Parse5parseINtNtNtCsaNl6UpbT7bw_4core3ops8function6FnOnceTRNtBB_11ParseBufferEE9call_onceCs7IQ6Ulc8Ywk_14zerovec_derive, symObjAddr: 0x50A0, symBinAddr: 0x2613C, symSize: 0x24 }
  - { offset: 0x50473, size: 0x8, addend: 0x0, symName: __RNvYNvYNtNtCsc29TF2YcYso_3syn6derive11DeriveInputNtNtB9_11parse_quote10ParseQuote5parseINtNtNtCsaNl6UpbT7bw_4core3ops8function6FnOnceTRNtNtB9_5parse11ParseBufferEE9call_onceCs7IQ6Ulc8Ywk_14zerovec_derive, symObjAddr: 0x50C4, symBinAddr: 0x26160, symSize: 0x24 }
  - { offset: 0x504B7, size: 0x8, addend: 0x0, symName: __RNvYNvYNtNtCsc29TF2YcYso_3syn6derive11DeriveInputNtNtB9_5parse5Parse5parseINtNtNtCsaNl6UpbT7bw_4core3ops8function6FnOnceTRNtBN_11ParseBufferEE9call_onceCs7IQ6Ulc8Ywk_14zerovec_derive, symObjAddr: 0x50E8, symBinAddr: 0x26184, symSize: 0x24 }
  - { offset: 0x50501, size: 0x8, addend: 0x0, symName: __RNvYNvCs7IQ6Ulc8Ywk_14zerovec_derive10ule_deriveINtNtNtCsaNl6UpbT7bw_4core3ops8function2FnTNtCs7yrEGia95Wz_10proc_macro11TokenStreamEE4callB4_, symObjAddr: 0x4F44, symBinAddr: 0x25FE0, symSize: 0x28 }
  - { offset: 0x50545, size: 0x8, addend: 0x0, symName: __RNvYNvCs7IQ6Ulc8Ywk_14zerovec_derive11make_varuleINtNtNtCsaNl6UpbT7bw_4core3ops8function2FnTNtCs7yrEGia95Wz_10proc_macro11TokenStreamB1s_EE4callB4_, symObjAddr: 0x4F6C, symBinAddr: 0x26008, symSize: 0x30 }
  - { offset: 0x50589, size: 0x8, addend: 0x0, symName: __RNvYNvCs7IQ6Ulc8Ywk_14zerovec_derive13varule_deriveINtNtNtCsaNl6UpbT7bw_4core3ops8function2FnTNtCs7yrEGia95Wz_10proc_macro11TokenStreamEE4callB4_, symObjAddr: 0x4F9C, symBinAddr: 0x26038, symSize: 0x28 }
  - { offset: 0x505CD, size: 0x8, addend: 0x0, symName: __RNvYNvCs7IQ6Ulc8Ywk_14zerovec_derive8make_uleINtNtNtCsaNl6UpbT7bw_4core3ops8function2FnTNtCs7yrEGia95Wz_10proc_macro11TokenStreamB1o_EE4callB4_, symObjAddr: 0x4FC4, symBinAddr: 0x26060, symSize: 0x30 }
  - { offset: 0x51333, size: 0x8, addend: 0x0, symName: __RNvXs_NtNtNtCsaNl6UpbT7bw_4core4iter8adapters9enumerateINtB4_9EnumerateINtNtB6_4take4TakeINtNtCsc29TF2YcYso_3syn10punctuated4IterNtNtB1u_4data5FieldEEENtNtNtB8_6traits8iterator8Iterator4nextCs7IQ6Ulc8Ywk_14zerovec_derive, symObjAddr: 0x47C0, symBinAddr: 0x2585C, symSize: 0xE0 }
  - { offset: 0x51415, size: 0x8, addend: 0x0, symName: __RNvXs_NtNtNtCsaNl6UpbT7bw_4core4iter8adapters9enumerateINtB4_9EnumerateINtNtB6_4take4TakeINtNtCsc29TF2YcYso_3syn10punctuated4IterNtNtB1u_4data5FieldEEENtNtNtB8_6traits8iterator8Iterator9size_hintCs7IQ6Ulc8Ywk_14zerovec_derive, symObjAddr: 0x48A0, symBinAddr: 0x2593C, symSize: 0x24 }
  - { offset: 0x5144A, size: 0x8, addend: 0x0, symName: __RNvXs_NtNtNtCsaNl6UpbT7bw_4core4iter8adapters9enumerateINtB4_9EnumerateINtNtCsc29TF2YcYso_3syn10punctuated4IterNtNtB1c_4data5FieldEENtNtNtB8_6traits8iterator8Iterator4nextCs7IQ6Ulc8Ywk_14zerovec_derive, symObjAddr: 0x48C4, symBinAddr: 0x25960, symSize: 0xE0 }
  - { offset: 0x5152C, size: 0x8, addend: 0x0, symName: __RNvXs_NtNtNtCsaNl6UpbT7bw_4core4iter8adapters9enumerateINtB4_9EnumerateINtNtCsc29TF2YcYso_3syn10punctuated4IterNtNtB1c_4data5FieldEENtNtNtB8_6traits8iterator8Iterator9size_hintCs7IQ6Ulc8Ywk_14zerovec_derive, symObjAddr: 0x49A4, symBinAddr: 0x25A40, symSize: 0x24 }
  - { offset: 0x51561, size: 0x8, addend: 0x0, symName: __RNvXs_NtNtNtCsaNl6UpbT7bw_4core4iter8adapters9enumerateINtB4_9EnumerateINtNtCsc29TF2YcYso_3syn10punctuated4IterNtNtB1c_4data7VariantEENtNtNtB8_6traits8iterator8Iterator4nextCs7IQ6Ulc8Ywk_14zerovec_derive, symObjAddr: 0x49C8, symBinAddr: 0x25A64, symSize: 0xE0 }
  - { offset: 0x51643, size: 0x8, addend: 0x0, symName: __RNvXs_NtNtNtCsaNl6UpbT7bw_4core4iter8adapters9enumerateINtB4_9EnumerateINtNtNtBa_5slice4iter4IterNtNtCs7IQ6Ulc8Ywk_14zerovec_derive11make_varule12UnsizedFieldEENtNtNtB8_6traits8iterator8Iterator4nextB1B_, symObjAddr: 0x4AA8, symBinAddr: 0x25B44, symSize: 0xE0 }
  - { offset: 0x51725, size: 0x8, addend: 0x0, symName: __RNvXs_NtNtNtCsaNl6UpbT7bw_4core4iter8adapters9enumerateINtB4_9EnumerateINtNtNtBa_5slice4iter4IterNtNtCs7IQ6Ulc8Ywk_14zerovec_derive5utils9FieldInfoEENtNtNtB8_6traits8iterator8Iterator4nextB1B_, symObjAddr: 0x4B88, symBinAddr: 0x25C24, symSize: 0xE0 }
  - { offset: 0x51897, size: 0x8, addend: 0x0, symName: __RNvXs1_NtNtNtCsaNl6UpbT7bw_4core4iter8adapters6filterINtB5_6FilterINtNtNtBb_5slice4iter4IterNtNtCsc29TF2YcYso_3syn4attr9AttributeENCNvMNtCs7IQ6Ulc8Ywk_14zerovec_derive5utilsNtB29_8ReprInfo7compute0ENtNtNtB9_6traits8iterator8Iterator4nextB2b_, symObjAddr: 0x3CA4, symBinAddr: 0x24D40, symSize: 0x2C }
  - { offset: 0x51914, size: 0x8, addend: 0x0, symName: __RNvXs_NtNtNtCsaNl6UpbT7bw_4core4iter8adapters6clonedINtB4_6ClonedINtNtCsc29TF2YcYso_3syn10punctuated4IterNtCshnvkK9b4wzu_11proc_macro25IdentEENtNtNtB8_6traits8iterator8Iterator4nextCs7IQ6Ulc8Ywk_14zerovec_derive, symObjAddr: 0x4724, symBinAddr: 0x257C0, symSize: 0x78 }
  - { offset: 0x51985, size: 0x8, addend: 0x0, symName: __RNvXs_NtNtNtCsaNl6UpbT7bw_4core4iter8adapters6clonedINtB4_6ClonedINtNtCsc29TF2YcYso_3syn10punctuated4IterNtCshnvkK9b4wzu_11proc_macro25IdentEENtNtNtB8_6traits8iterator8Iterator9size_hintCs7IQ6Ulc8Ywk_14zerovec_derive, symObjAddr: 0x479C, symBinAddr: 0x25838, symSize: 0x24 }
  - { offset: 0x519F3, size: 0x8, addend: 0x0, symName: __RINvYINtNtNtNtCsaNl6UpbT7bw_4core4iter8adapters9enumerate9EnumerateINtNtB8_4take4TakeINtNtCsc29TF2YcYso_3syn10punctuated4IterNtNtB1q_4data5FieldEEENtNtNtBa_6traits8iterator8Iterator3mapNtNtCs7IQ6Ulc8Ywk_14zerovec_derive5utils9FieldInfoNCINvMs0_B2Z_B2X_9make_listB13_E0EB31_, symObjAddr: 0x258C, symBinAddr: 0x23628, symSize: 0x1C }
  - { offset: 0x51A60, size: 0x8, addend: 0x0, symName: __RINvYINtNtNtNtCsaNl6UpbT7bw_4core4iter8adapters9enumerate9EnumerateINtNtCsc29TF2YcYso_3syn10punctuated4IterNtNtB18_4data5FieldEENtNtNtBa_6traits8iterator8Iterator3mapNtNtCs7IQ6Ulc8Ywk_14zerovec_derive5utils9FieldInfoNCINvMs0_B2G_B2E_9make_listB13_E0EB2I_, symObjAddr: 0x25A8, symBinAddr: 0x23644, symSize: 0x20 }
  - { offset: 0x51ACD, size: 0x8, addend: 0x0, symName: __RINvYINtNtNtNtCsaNl6UpbT7bw_4core4iter8adapters9enumerate9EnumerateINtNtNtBc_5slice4iter4IterNtNtCs7IQ6Ulc8Ywk_14zerovec_derive11make_varule12UnsizedFieldEENtNtNtBa_6traits8iterator8Iterator3mapNtCshnvkK9b4wzu_11proc_macro211TokenStreamNCNvMB1v_NtB1v_13UnsizedFields19maybe_multi_getters0EB1x_, symObjAddr: 0x25C8, symBinAddr: 0x23664, symSize: 0x28 }
  - { offset: 0x51B78, size: 0x8, addend: 0x0, symName: __RNvXNtNtNtCsaNl6UpbT7bw_4core4iter6traits7collectINtNtNtB6_8adapters6cloned6ClonedINtNtCsc29TF2YcYso_3syn10punctuated4IterNtCshnvkK9b4wzu_11proc_macro25IdentEENtB2_12IntoIterator9into_iterCs7IQ6Ulc8Ywk_14zerovec_derive, symObjAddr: 0x3B54, symBinAddr: 0x24BF0, symSize: 0x1C }
  - { offset: 0x51BAF, size: 0x8, addend: 0x0, symName: __RNvXNtNtNtCsaNl6UpbT7bw_4core4iter6traits7collectINtNtNtB6_8adapters6filter6FilterINtNtNtB8_5slice4iter4IterNtNtCsc29TF2YcYso_3syn4attr9AttributeENCNvMNtCs7IQ6Ulc8Ywk_14zerovec_derive5utilsNtB2p_8ReprInfo7compute0ENtB2_12IntoIterator9into_iterB2r_, symObjAddr: 0x3B70, symBinAddr: 0x24C0C, symSize: 0x1C }
  - { offset: 0x51BE6, size: 0x8, addend: 0x0, symName: __RNvXNtNtNtCsaNl6UpbT7bw_4core4iter6traits7collectINtNtNtB6_8adapters9enumerate9EnumerateINtNtCsc29TF2YcYso_3syn10punctuated4IterNtNtB1t_4data5FieldEENtB2_12IntoIterator9into_iterCs7IQ6Ulc8Ywk_14zerovec_derive, symObjAddr: 0x3B8C, symBinAddr: 0x24C28, symSize: 0x18 }
  - { offset: 0x51C1D, size: 0x8, addend: 0x0, symName: __RNvXNtNtNtCsaNl6UpbT7bw_4core4iter6traits7collectINtNtNtB6_8adapters9enumerate9EnumerateINtNtCsc29TF2YcYso_3syn10punctuated4IterNtNtB1t_4data7VariantEENtB2_12IntoIterator9into_iterCs7IQ6Ulc8Ywk_14zerovec_derive, symObjAddr: 0x3BA4, symBinAddr: 0x24C40, symSize: 0x18 }
  - { offset: 0x51C54, size: 0x8, addend: 0x0, symName: __RNvXNtNtNtCsaNl6UpbT7bw_4core4iter6traits7collectINtNtNtB6_8adapters9enumerate9EnumerateINtNtNtB8_5slice4iter4IterNtNtCs7IQ6Ulc8Ywk_14zerovec_derive11make_varule12UnsizedFieldEENtB2_12IntoIterator9into_iterB1S_, symObjAddr: 0x3BBC, symBinAddr: 0x24C58, symSize: 0x18 }
  - { offset: 0x51C8B, size: 0x8, addend: 0x0, symName: __RNvXNtNtNtCsaNl6UpbT7bw_4core4iter6traits7collectINtNtNtB6_8adapters9enumerate9EnumerateINtNtNtB8_5slice4iter4IterNtNtCs7IQ6Ulc8Ywk_14zerovec_derive5utils9FieldInfoEENtB2_12IntoIterator9into_iterB1S_, symObjAddr: 0x3BD4, symBinAddr: 0x24C70, symSize: 0x18 }
  - { offset: 0x51DE5, size: 0x8, addend: 0x0, symName: __RNvNvNtNtCsaNl6UpbT7bw_4core5slice3raw14from_raw_parts18precondition_checkCs7IQ6Ulc8Ywk_14zerovec_derive, symObjAddr: 0x38A4, symBinAddr: 0x24940, symSize: 0x1DC }
  - { offset: 0x5219C, size: 0x8, addend: 0x0, symName: __RNvXs19_NtCsaNl6UpbT7bw_4core3fmtRNtNtCsc29TF2YcYso_3syn2ty8TypePathNtB6_5Debug3fmtCs7IQ6Ulc8Ywk_14zerovec_derive, symObjAddr: 0x3BEC, symBinAddr: 0x24C88, symSize: 0x30 }
  - { offset: 0x521E2, size: 0x8, addend: 0x0, symName: __RNvXs19_NtCsaNl6UpbT7bw_4core3fmtRRNtNtCsc29TF2YcYso_3syn2ty4TypeNtB6_5Debug3fmtCs7IQ6Ulc8Ywk_14zerovec_derive, symObjAddr: 0x3C1C, symBinAddr: 0x24CB8, symSize: 0x30 }
  - { offset: 0x52239, size: 0x8, addend: 0x0, symName: __RNvMNtNtCsaNl6UpbT7bw_4core4char7methodsc8to_digitCs7IQ6Ulc8Ywk_14zerovec_derive, symObjAddr: 0x3600, symBinAddr: 0x2469C, symSize: 0x14C }
  - { offset: 0x5239E, size: 0x8, addend: 0x0, symName: __RNvXNtCsaNl6UpbT7bw_4core6borrowhINtB2_6BorrowhE6borrowCs7IQ6Ulc8Ywk_14zerovec_derive, symObjAddr: 0x3B40, symBinAddr: 0x24BDC, symSize: 0x14 }
  - { offset: 0x527E1, size: 0x8, addend: 0x0, symName: __RNCINvNtNtCs7yrEGia95Wz_10proc_macro6bridge6client10run_clientNtB4_11TokenStreamINtNtCsaNl6UpbT7bw_4core6option6OptionBY_ENCNCINvMs6_B4_INtB4_6ClientNtB8_11TokenStreamB2n_E7expand1NvCs7IQ6Ulc8Ywk_14zerovec_derive10ule_deriveE00E0B2U_, symObjAddr: 0x26B0, symBinAddr: 0x2374C, symSize: 0x324 }
  - { offset: 0x52A06, size: 0x8, addend: 0x0, symName: __RNCINvNtNtCs7yrEGia95Wz_10proc_macro6bridge6client10run_clientNtB4_11TokenStreamINtNtCsaNl6UpbT7bw_4core6option6OptionBY_ENCNCINvMs6_B4_INtB4_6ClientNtB8_11TokenStreamB2n_E7expand1NvCs7IQ6Ulc8Ywk_14zerovec_derive13varule_deriveE00E0B2U_, symObjAddr: 0x29D4, symBinAddr: 0x23A70, symSize: 0x324 }
  - { offset: 0x52C2B, size: 0x8, addend: 0x0, symName: __RNCINvNtNtCs7yrEGia95Wz_10proc_macro6bridge6client10run_clientTNtB4_11TokenStreamBZ_EINtNtCsaNl6UpbT7bw_4core6option6OptionBZ_ENCNCINvMs7_B4_INtB4_6ClientTNtB8_11TokenStreamB2t_EB2t_E7expand2NvCs7IQ6Ulc8Ywk_14zerovec_derive11make_varuleE00E0B35_, symObjAddr: 0x2CF8, symBinAddr: 0x23D94, symSize: 0x344 }
  - { offset: 0x52E50, size: 0x8, addend: 0x0, symName: __RNCINvNtNtCs7yrEGia95Wz_10proc_macro6bridge6client10run_clientTNtB4_11TokenStreamBZ_EINtNtCsaNl6UpbT7bw_4core6option6OptionBZ_ENCNCINvMs7_B4_INtB4_6ClientTNtB8_11TokenStreamB2t_EB2t_E7expand2NvCs7IQ6Ulc8Ywk_14zerovec_derive8make_uleE00E0B35_, symObjAddr: 0x303C, symBinAddr: 0x240D8, symSize: 0x344 }
  - { offset: 0x5307A, size: 0x8, addend: 0x0, symName: __RNCNCINvNtNtCs7yrEGia95Wz_10proc_macro6bridge6client10run_clientNtB6_11TokenStreamINtNtCsaNl6UpbT7bw_4core6option6OptionB10_ENCNCINvMs6_B6_INtB6_6ClientNtBa_11TokenStreamB2q_E7expand1NvCs7IQ6Ulc8Ywk_14zerovec_derive10ule_deriveE00E00B2X_, symObjAddr: 0x3468, symBinAddr: 0x24504, symSize: 0x28 }
  - { offset: 0x530D4, size: 0x8, addend: 0x0, symName: __RNCNCINvNtNtCs7yrEGia95Wz_10proc_macro6bridge6client10run_clientNtB6_11TokenStreamINtNtCsaNl6UpbT7bw_4core6option6OptionB10_ENCNCINvMs6_B6_INtB6_6ClientNtBa_11TokenStreamB2q_E7expand1NvCs7IQ6Ulc8Ywk_14zerovec_derive13varule_deriveE00E00B2X_, symObjAddr: 0x3490, symBinAddr: 0x2452C, symSize: 0x28 }
  - { offset: 0x5312E, size: 0x8, addend: 0x0, symName: __RNCNCINvNtNtCs7yrEGia95Wz_10proc_macro6bridge6client10run_clientTNtB6_11TokenStreamB11_EINtNtCsaNl6UpbT7bw_4core6option6OptionB11_ENCNCINvMs7_B6_INtB6_6ClientTNtBa_11TokenStreamB2x_EB2x_E7expand2NvCs7IQ6Ulc8Ywk_14zerovec_derive11make_varuleE00E00B39_, symObjAddr: 0x34B8, symBinAddr: 0x24554, symSize: 0x24 }
  - { offset: 0x5318A, size: 0x8, addend: 0x0, symName: __RNCNCINvNtNtCs7yrEGia95Wz_10proc_macro6bridge6client10run_clientTNtB6_11TokenStreamB11_EINtNtCsaNl6UpbT7bw_4core6option6OptionB11_ENCNCINvMs7_B6_INtB6_6ClientTNtBa_11TokenStreamB2x_EB2x_E7expand2NvCs7IQ6Ulc8Ywk_14zerovec_derive8make_uleE00E00B39_, symObjAddr: 0x34DC, symBinAddr: 0x24578, symSize: 0x24 }
  - { offset: 0x53295, size: 0x8, addend: 0x0, symName: __RNCNCINvMs6_NtNtCs7yrEGia95Wz_10proc_macro6bridge6clientINtBa_6ClientNtBe_11TokenStreamB15_E7expand1NvCs7IQ6Ulc8Ywk_14zerovec_derive10ule_deriveE00B1C_, symObjAddr: 0x3380, symBinAddr: 0x2441C, symSize: 0x30 }
  - { offset: 0x532DD, size: 0x8, addend: 0x0, symName: __RNCNCINvMs6_NtNtCs7yrEGia95Wz_10proc_macro6bridge6clientINtBa_6ClientNtBe_11TokenStreamB15_E7expand1NvCs7IQ6Ulc8Ywk_14zerovec_derive13varule_deriveE00B1C_, symObjAddr: 0x33B0, symBinAddr: 0x2444C, symSize: 0x30 }
  - { offset: 0x53326, size: 0x8, addend: 0x0, symName: __RNCINvMs6_NtNtCs7yrEGia95Wz_10proc_macro6bridge6clientINtB8_6ClientNtBc_11TokenStreamB13_E7expand1NvCs7IQ6Ulc8Ywk_14zerovec_derive10ule_deriveE0B1A_, symObjAddr: 0x25F0, symBinAddr: 0x2368C, symSize: 0x30 }
  - { offset: 0x5336F, size: 0x8, addend: 0x0, symName: __RNCINvMs6_NtNtCs7yrEGia95Wz_10proc_macro6bridge6clientINtB8_6ClientNtBc_11TokenStreamB13_E7expand1NvCs7IQ6Ulc8Ywk_14zerovec_derive13varule_deriveE0B1A_, symObjAddr: 0x2620, symBinAddr: 0x236BC, symSize: 0x30 }
  - { offset: 0x533DB, size: 0x8, addend: 0x0, symName: __RINvNtNtCs7yrEGia95Wz_10proc_macro6bridge6client10run_clientNtB2_11TokenStreamINtNtCsaNl6UpbT7bw_4core6option6OptionBW_ENCNCINvMs6_B2_INtB2_6ClientNtB6_11TokenStreamB2l_E7expand1NvCs7IQ6Ulc8Ywk_14zerovec_derive10ule_deriveE00EB2S_, symObjAddr: 0x1974, symBinAddr: 0x22A10, symSize: 0x21C }
  - { offset: 0x535B0, size: 0x8, addend: 0x0, symName: __RINvNtNtCs7yrEGia95Wz_10proc_macro6bridge6client10run_clientNtB2_11TokenStreamINtNtCsaNl6UpbT7bw_4core6option6OptionBW_ENCNCINvMs6_B2_INtB2_6ClientNtB6_11TokenStreamB2l_E7expand1NvCs7IQ6Ulc8Ywk_14zerovec_derive13varule_deriveE00EB2S_, symObjAddr: 0x1B90, symBinAddr: 0x22C2C, symSize: 0x21C }
  - { offset: 0x537BA, size: 0x8, addend: 0x0, symName: __RNCNCINvMs7_NtNtCs7yrEGia95Wz_10proc_macro6bridge6clientINtBa_6ClientTNtBe_11TokenStreamB16_EB16_E7expand2NvCs7IQ6Ulc8Ywk_14zerovec_derive11make_varuleE00B1I_, symObjAddr: 0x33E0, symBinAddr: 0x2447C, symSize: 0x44 }
  - { offset: 0x5382C, size: 0x8, addend: 0x0, symName: __RNCNCINvMs7_NtNtCs7yrEGia95Wz_10proc_macro6bridge6clientINtBa_6ClientTNtBe_11TokenStreamB16_EB16_E7expand2NvCs7IQ6Ulc8Ywk_14zerovec_derive8make_uleE00B1I_, symObjAddr: 0x3424, symBinAddr: 0x244C0, symSize: 0x44 }
  - { offset: 0x5389F, size: 0x8, addend: 0x0, symName: __RNCINvMs7_NtNtCs7yrEGia95Wz_10proc_macro6bridge6clientINtB8_6ClientTNtBc_11TokenStreamB14_EB14_E7expand2NvCs7IQ6Ulc8Ywk_14zerovec_derive11make_varuleE0B1G_, symObjAddr: 0x2650, symBinAddr: 0x236EC, symSize: 0x30 }
  - { offset: 0x538E8, size: 0x8, addend: 0x0, symName: __RNCINvMs7_NtNtCs7yrEGia95Wz_10proc_macro6bridge6clientINtB8_6ClientTNtBc_11TokenStreamB14_EB14_E7expand2NvCs7IQ6Ulc8Ywk_14zerovec_derive8make_uleE0B1G_, symObjAddr: 0x2680, symBinAddr: 0x2371C, symSize: 0x30 }
  - { offset: 0x53933, size: 0x8, addend: 0x0, symName: __RINvNtNtCs7yrEGia95Wz_10proc_macro6bridge6client10run_clientTNtB2_11TokenStreamBX_EINtNtCsaNl6UpbT7bw_4core6option6OptionBX_ENCNCINvMs7_B2_INtB2_6ClientTNtB6_11TokenStreamB2r_EB2r_E7expand2NvCs7IQ6Ulc8Ywk_14zerovec_derive11make_varuleE00EB33_, symObjAddr: 0x1DAC, symBinAddr: 0x22E48, symSize: 0x21C }
  - { offset: 0x53B08, size: 0x8, addend: 0x0, symName: __RINvNtNtCs7yrEGia95Wz_10proc_macro6bridge6client10run_clientTNtB2_11TokenStreamBX_EINtNtCsaNl6UpbT7bw_4core6option6OptionBX_ENCNCINvMs7_B2_INtB2_6ClientTNtB6_11TokenStreamB2r_EB2r_E7expand2NvCs7IQ6Ulc8Ywk_14zerovec_derive8make_uleE00EB33_, symObjAddr: 0x1FC8, symBinAddr: 0x23064, symSize: 0x21C }
  - { offset: 0x53D30, size: 0x8, addend: 0x0, symName: __RINvNtNtNtCs7yrEGia95Wz_10proc_macro6bridge6client5state3setINtNtCsaNl6UpbT7bw_4core6option6OptionNtB4_11TokenStreamENCNCINvB4_10run_clientB1y_BW_NCNCINvMs6_B4_INtB4_6ClientNtB8_11TokenStreamB2L_E7expand1NvCs7IQ6Ulc8Ywk_14zerovec_derive10ule_deriveE00E00EB3i_, symObjAddr: 0x21E4, symBinAddr: 0x23280, symSize: 0xE8 }
  - { offset: 0x53E05, size: 0x8, addend: 0x0, symName: __RINvNtNtNtCs7yrEGia95Wz_10proc_macro6bridge6client5state3setINtNtCsaNl6UpbT7bw_4core6option6OptionNtB4_11TokenStreamENCNCINvB4_10run_clientB1y_BW_NCNCINvMs6_B4_INtB4_6ClientNtB8_11TokenStreamB2L_E7expand1NvCs7IQ6Ulc8Ywk_14zerovec_derive13varule_deriveE00E00EB3i_, symObjAddr: 0x22CC, symBinAddr: 0x23368, symSize: 0xE8 }
  - { offset: 0x53EDA, size: 0x8, addend: 0x0, symName: __RINvNtNtNtCs7yrEGia95Wz_10proc_macro6bridge6client5state3setINtNtCsaNl6UpbT7bw_4core6option6OptionNtB4_11TokenStreamENCNCINvB4_10run_clientTB1y_B1y_EBW_NCNCINvMs7_B4_INtB4_6ClientTNtB8_11TokenStreamB2S_EB2S_E7expand2NvCs7IQ6Ulc8Ywk_14zerovec_derive11make_varuleE00E00EB3u_, symObjAddr: 0x23B4, symBinAddr: 0x23450, symSize: 0xEC }
  - { offset: 0x53FB0, size: 0x8, addend: 0x0, symName: __RINvNtNtNtCs7yrEGia95Wz_10proc_macro6bridge6client5state3setINtNtCsaNl6UpbT7bw_4core6option6OptionNtB4_11TokenStreamENCNCINvB4_10run_clientTB1y_B1y_EBW_NCNCINvMs7_B4_INtB4_6ClientTNtB8_11TokenStreamB2S_EB2S_E7expand2NvCs7IQ6Ulc8Ywk_14zerovec_derive8make_uleE00E00EB3u_, symObjAddr: 0x24A0, symBinAddr: 0x2353C, symSize: 0xEC }
  - { offset: 0x54090, size: 0x8, addend: 0x0, symName: __RNCNkNvNtNtNtCs7yrEGia95Wz_10proc_macro6bridge6client5state12BRIDGE_STATE0s_0Cs7IQ6Ulc8Ywk_14zerovec_derive, symObjAddr: 0x3500, symBinAddr: 0x2459C, symSize: 0x30 }
  - { offset: 0x540EC, size: 0x8, addend: 0x0, symName: __RNvXsf_NtNtCs7yrEGia95Wz_10proc_macro6bridge6clientNtB5_11TokenStreamINtNtB7_3rpc6EncodeuE6encodeCs7IQ6Ulc8Ywk_14zerovec_derive, symObjAddr: 0x4C68, symBinAddr: 0x25D04, symSize: 0x50 }
  - { offset: 0x541FD, size: 0x8, addend: 0x0, symName: __RNvXsi_NtNtCs7yrEGia95Wz_10proc_macro6bridge6clientNtB5_11TokenStreamINtNtB7_3rpc9DecodeMutuE6decodeCs7IQ6Ulc8Ywk_14zerovec_derive, symObjAddr: 0x4CB8, symBinAddr: 0x25D54, symSize: 0x2C }
  - { offset: 0x54246, size: 0x8, addend: 0x0, symName: __RNvXsk_NtNtCs7yrEGia95Wz_10proc_macro6bridge6clientNtB5_4SpanINtNtB7_3rpc9DecodeMutuE6decodeCs7IQ6Ulc8Ywk_14zerovec_derive, symObjAddr: 0x4CE4, symBinAddr: 0x25D80, symSize: 0x2C }
  - { offset: 0x544D4, size: 0x8, addend: 0x0, symName: __RNvXs7_NtNtCs7yrEGia95Wz_10proc_macro6bridge3rpcINtNtNtCsaNl6UpbT7bw_4core3num7nonzero7NonZeromEINtB5_9DecodeMutuE6decodeCs7IQ6Ulc8Ywk_14zerovec_derive, symObjAddr: 0x45CC, symBinAddr: 0x25668, symSize: 0x5C }
  - { offset: 0x5454F, size: 0x8, addend: 0x0, symName: __RNvXs9_NtNtCs7yrEGia95Wz_10proc_macro6bridge3rpcTNtNtB7_6client11TokenStreamBL_EINtB5_9DecodeMutuE6decodeCs7IQ6Ulc8Ywk_14zerovec_derive, symObjAddr: 0x4628, symBinAddr: 0x256C4, symSize: 0x80 }
  - { offset: 0x55274, size: 0x8, addend: 0x0, symName: __RNCNvMs3_NtNtCsht3nMU9UgFu_3std6thread5localINtB7_8LocalKeyINtNtCsaNl6UpbT7bw_4core4cell4CellPuEE7replace0Cs7IQ6Ulc8Ywk_14zerovec_derive, symObjAddr: 0x3530, symBinAddr: 0x245CC, symSize: 0x28 }
  - { offset: 0x55776, size: 0x8, addend: 0x0, symName: __RINvMs2_NtNtCsht3nMU9UgFu_3std6thread5localINtB6_8LocalKeyINtNtCsaNl6UpbT7bw_4core4cell4CellPuEE4withNCNvMs3_B6_BF_7replace0B1s_ECs7IQ6Ulc8Ywk_14zerovec_derive, symObjAddr: 0x28, symBinAddr: 0x2110C, symSize: 0x54 }
  - { offset: 0x5582F, size: 0x8, addend: 0x0, symName: __RINvMs2_NtNtCsht3nMU9UgFu_3std6thread5localINtB6_8LocalKeyINtNtCsaNl6UpbT7bw_4core4cell4CellPuEE8try_withNCNvMs3_B6_BF_7replace0B1s_ECs7IQ6Ulc8Ywk_14zerovec_derive, symObjAddr: 0x7C, symBinAddr: 0x21160, symSize: 0xE4 }
  - { offset: 0x559C1, size: 0x8, addend: 0x0, symName: __RINvMs2_NtNtCsht3nMU9UgFu_3std6thread5localINtB6_8LocalKeyINtNtCsaNl6UpbT7bw_4core4cell4CellTyyEEE4withNCNvMNtNtBa_4hash6randomNtB1I_11RandomState3new0B21_ECs7IQ6Ulc8Ywk_14zerovec_derive, symObjAddr: 0x160, symBinAddr: 0x21244, symSize: 0x50 }
  - { offset: 0x55A7A, size: 0x8, addend: 0x0, symName: __RINvMs2_NtNtCsht3nMU9UgFu_3std6thread5localINtB6_8LocalKeyINtNtCsaNl6UpbT7bw_4core4cell4CellTyyEEE8try_withNCNvMNtNtBa_4hash6randomNtB1M_11RandomState3new0B25_ECs7IQ6Ulc8Ywk_14zerovec_derive, symObjAddr: 0x1B0, symBinAddr: 0x21294, symSize: 0xE8 }
  - { offset: 0x56EB7, size: 0x8, addend: 0x0, symName: __RNvNtCsiTraAjBDcu4_5alloc3fmt6formatCs7IQ6Ulc8Ywk_14zerovec_derive, symObjAddr: 0x374C, symBinAddr: 0x247E8, symSize: 0xD4 }
  - { offset: 0x56F1D, size: 0x8, addend: 0x0, symName: __RNvXs6_NtCsiTraAjBDcu4_5alloc5boxedINtB5_3BoxDNtNtCsaNl6UpbT7bw_4core5error5ErrorNtNtBM_6marker4SyncNtB1j_4SendEL_ENtNtNtBM_3ops4drop4Drop4dropCs7IQ6Ulc8Ywk_14zerovec_derive, symObjAddr: 0x3CD0, symBinAddr: 0x24D6C, symSize: 0xCC }
  - { offset: 0x57054, size: 0x8, addend: 0x0, symName: __RNvXs6_NtCsiTraAjBDcu4_5alloc5boxedINtB5_3BoxINtNtCsc29TF2YcYso_3syn5drops6NoDropDINtNtBM_10punctuated12IterMutTraitNtNtBM_4data5FieldEp4ItemQB1Q_EL_EENtNtNtCsaNl6UpbT7bw_4core3ops4drop4Drop4dropCs7IQ6Ulc8Ywk_14zerovec_derive, symObjAddr: 0x3D9C, symBinAddr: 0x24E38, symSize: 0x120 }
  - { offset: 0x5718B, size: 0x8, addend: 0x0, symName: __RNvXs6_NtCsiTraAjBDcu4_5alloc5boxedINtB5_3BoxINtNtCsc29TF2YcYso_3syn5drops6NoDropDINtNtBM_10punctuated9IterTraitNtCshnvkK9b4wzu_11proc_macro25IdentEp4ItemRB1M_EL_EENtNtNtCsaNl6UpbT7bw_4core3ops4drop4Drop4dropCs7IQ6Ulc8Ywk_14zerovec_derive, symObjAddr: 0x3EBC, symBinAddr: 0x24F58, symSize: 0x120 }
  - { offset: 0x572C2, size: 0x8, addend: 0x0, symName: __RNvXs6_NtCsiTraAjBDcu4_5alloc5boxedINtB5_3BoxINtNtCsc29TF2YcYso_3syn5drops6NoDropDINtNtBM_10punctuated9IterTraitNtNtBM_4data5FieldEp4ItemRB1M_EL_EENtNtNtCsaNl6UpbT7bw_4core3ops4drop4Drop4dropCs7IQ6Ulc8Ywk_14zerovec_derive, symObjAddr: 0x3FDC, symBinAddr: 0x25078, symSize: 0x120 }
  - { offset: 0x573F9, size: 0x8, addend: 0x0, symName: __RNvXs6_NtCsiTraAjBDcu4_5alloc5boxedINtB5_3BoxINtNtCsc29TF2YcYso_3syn5drops6NoDropDINtNtBM_10punctuated9IterTraitNtNtBM_4data7VariantEp4ItemRB1M_EL_EENtNtNtCsaNl6UpbT7bw_4core3ops4drop4Drop4dropCs7IQ6Ulc8Ywk_14zerovec_derive, symObjAddr: 0x40FC, symBinAddr: 0x25198, symSize: 0x120 }
  - { offset: 0x57530, size: 0x8, addend: 0x0, symName: __RNvXs6_NtCsiTraAjBDcu4_5alloc5boxedINtB5_3BoxINtNtCsc29TF2YcYso_3syn5drops6NoDropDINtNtBM_10punctuated9IterTraitNtNtBM_4path15GenericArgumentEp4ItemRB1M_EL_EENtNtNtCsaNl6UpbT7bw_4core3ops4drop4Drop4dropCs7IQ6Ulc8Ywk_14zerovec_derive, symObjAddr: 0x421C, symBinAddr: 0x252B8, symSize: 0x120 }
  - { offset: 0x57667, size: 0x8, addend: 0x0, symName: __RNvXs6_NtCsiTraAjBDcu4_5alloc5boxedINtB5_3BoxINtNtCsc29TF2YcYso_3syn5drops6NoDropDINtNtBM_10punctuated9IterTraitNtNtBM_8generics12GenericParamEp4ItemRB1M_EL_EENtNtNtCsaNl6UpbT7bw_4core3ops4drop4Drop4dropCs7IQ6Ulc8Ywk_14zerovec_derive, symObjAddr: 0x433C, symBinAddr: 0x253D8, symSize: 0x120 }
  - { offset: 0x5779E, size: 0x8, addend: 0x0, symName: __RNvXs6_NtCsiTraAjBDcu4_5alloc5boxedINtB5_3BoxNtCshnvkK9b4wzu_11proc_macro25IdentENtNtNtCsaNl6UpbT7bw_4core3ops4drop4Drop4dropCs7IQ6Ulc8Ywk_14zerovec_derive, symObjAddr: 0x445C, symBinAddr: 0x254F8, symSize: 0xB8 }
  - { offset: 0x578D5, size: 0x8, addend: 0x0, symName: __RNvXs6_NtCsiTraAjBDcu4_5alloc5boxedINtB5_3BoxNtNtNtCsht3nMU9UgFu_3std2io5error6CustomENtNtNtCsaNl6UpbT7bw_4core3ops4drop4Drop4dropCs7IQ6Ulc8Ywk_14zerovec_derive, symObjAddr: 0x4514, symBinAddr: 0x255B0, symSize: 0xB8 }
  - { offset: 0x57A12, size: 0x8, addend: 0x0, symName: __RNvXsB_NtCsiTraAjBDcu4_5alloc5boxedINtB5_3BoxNtCshnvkK9b4wzu_11proc_macro25IdentEINtNtCsaNl6UpbT7bw_4core7convert5AsRefBH_E6as_refCs7IQ6Ulc8Ywk_14zerovec_derive, symObjAddr: 0x46A8, symBinAddr: 0x25744, symSize: 0x18 }
  - { offset: 0x5DCD6, size: 0x8, addend: 0x0, symName: __RNvXNtCs4EAaWzSXu1l_5quote9to_tokensRNtNtCsc29TF2YcYso_3syn2ty8TypePathNtB2_8ToTokens9to_tokensCs7IQ6Ulc8Ywk_14zerovec_derive, symObjAddr: 0x3A80, symBinAddr: 0x24B1C, symSize: 0x40 }
  - { offset: 0x5DD15, size: 0x8, addend: 0x0, symName: __RNvXNtCs4EAaWzSXu1l_5quote9to_tokensRRNtNtCsc29TF2YcYso_3syn2ty4TypeNtB2_8ToTokens9to_tokensCs7IQ6Ulc8Ywk_14zerovec_derive, symObjAddr: 0x3AC0, symBinAddr: 0x24B5C, symSize: 0x40 }
  - { offset: 0x5DD54, size: 0x8, addend: 0x0, symName: __RNvXNtCs4EAaWzSXu1l_5quote9to_tokensRRNtNtCsc29TF2YcYso_3syn2ty8TypePathNtB2_8ToTokens9to_tokensCs7IQ6Ulc8Ywk_14zerovec_derive, symObjAddr: 0x3B00, symBinAddr: 0x24B9C, symSize: 0x40 }
  - { offset: 0x5DDC9, size: 0x8, addend: 0x0, symName: __RNvXs1_NtCsg4dki62PTrg_9hashbrown10scopeguardINtB5_10ScopeGuardNtNtB7_3raw13RawTableInnerNCINvMsa_B11_BZ_14prepare_resizeNtNtCsiTraAjBDcu4_5alloc5alloc6GlobalE0ENtNtNtCsaNl6UpbT7bw_4core3ops4drop4Drop4dropCs7IQ6Ulc8Ywk_14zerovec_derive, symObjAddr: 0x3C4C, symBinAddr: 0x24CE8, symSize: 0x2C }
  - { offset: 0x5DE03, size: 0x8, addend: 0x0, symName: __RNvXs1_NtCsg4dki62PTrg_9hashbrown10scopeguardINtB5_10ScopeGuardQNtNtB7_3raw13RawTableInnerNCNvMsa_B12_B10_15rehash_in_place0ENtNtNtCsaNl6UpbT7bw_4core3ops4drop4Drop4dropCs7IQ6Ulc8Ywk_14zerovec_derive, symObjAddr: 0x3C78, symBinAddr: 0x24D14, symSize: 0x2C }
  - { offset: 0x5F35A, size: 0x8, addend: 0x0, symName: __RINvCsc29TF2YcYso_3syn5parseNtCshnvkK9b4wzu_11proc_macro25IdentECs7IQ6Ulc8Ywk_14zerovec_derive, symObjAddr: 0x0, symBinAddr: 0x261FC, symSize: 0x30 }
  - { offset: 0x5F83F, size: 0x8, addend: 0x0, symName: __RNCNCNvXsx_NtCsc29TF2YcYso_3syn10punctuatedINtB9_11PrivateIterNtCshnvkK9b4wzu_11proc_macro25IdentNtNtBb_5token5CommaENtNtNtNtCsaNl6UpbT7bw_4core4iter6traits12double_ended19DoubleEndedIterator9next_back00Cs7IQ6Ulc8Ywk_14zerovec_derive, symObjAddr: 0xD30, symBinAddr: 0x26E6C, symSize: 0x24 }
  - { offset: 0x5F88A, size: 0x8, addend: 0x0, symName: __RNCNCNvXsx_NtCsc29TF2YcYso_3syn10punctuatedINtB9_11PrivateIterNtNtBb_4data7VariantNtNtBb_5token5CommaENtNtNtNtCsaNl6UpbT7bw_4core4iter6traits12double_ended19DoubleEndedIterator9next_back00Cs7IQ6Ulc8Ywk_14zerovec_derive, symObjAddr: 0xD54, symBinAddr: 0x26E90, symSize: 0x24 }
  - { offset: 0x5F8D5, size: 0x8, addend: 0x0, symName: __RNCNCNvXsx_NtCsc29TF2YcYso_3syn10punctuatedINtB9_11PrivateIterNtNtBb_4path15GenericArgumentNtNtBb_5token5CommaENtNtNtNtCsaNl6UpbT7bw_4core4iter6traits12double_ended19DoubleEndedIterator9next_back00Cs7IQ6Ulc8Ywk_14zerovec_derive, symObjAddr: 0xD78, symBinAddr: 0x26EB4, symSize: 0x24 }
  - { offset: 0x5F936, size: 0x8, addend: 0x0, symName: __RNCNvXsx_NtCsc29TF2YcYso_3syn10punctuatedINtB7_11PrivateIterNtCshnvkK9b4wzu_11proc_macro25IdentNtNtB9_5token5CommaENtNtNtNtCsaNl6UpbT7bw_4core4iter6traits12double_ended19DoubleEndedIterator9next_back0Cs7IQ6Ulc8Ywk_14zerovec_derive, symObjAddr: 0xEA4, symBinAddr: 0x26FE0, symSize: 0x38 }
  - { offset: 0x5F978, size: 0x8, addend: 0x0, symName: __RNCNvXsx_NtCsc29TF2YcYso_3syn10punctuatedINtB7_11PrivateIterNtNtB9_4data7VariantNtNtB9_5token5CommaENtNtNtNtCsaNl6UpbT7bw_4core4iter6traits12double_ended19DoubleEndedIterator9next_back0Cs7IQ6Ulc8Ywk_14zerovec_derive, symObjAddr: 0xEDC, symBinAddr: 0x27018, symSize: 0x38 }
  - { offset: 0x5F9BA, size: 0x8, addend: 0x0, symName: __RNCNvXsx_NtCsc29TF2YcYso_3syn10punctuatedINtB7_11PrivateIterNtNtB9_4path15GenericArgumentNtNtB9_5token5CommaENtNtNtNtCsaNl6UpbT7bw_4core4iter6traits12double_ended19DoubleEndedIterator9next_back0Cs7IQ6Ulc8Ywk_14zerovec_derive, symObjAddr: 0xF14, symBinAddr: 0x27050, symSize: 0x38 }
  - { offset: 0x5F9FD, size: 0x8, addend: 0x0, symName: __RNvXsx_NtCsc29TF2YcYso_3syn10punctuatedINtB5_11PrivateIterNtCshnvkK9b4wzu_11proc_macro25IdentNtNtB7_5token5CommaENtNtNtNtCsaNl6UpbT7bw_4core4iter6traits12double_ended19DoubleEndedIterator9next_backCs7IQ6Ulc8Ywk_14zerovec_derive, symObjAddr: 0x3480, symBinAddr: 0x295BC, symSize: 0x40 }
  - { offset: 0x5FA3D, size: 0x8, addend: 0x0, symName: __RNvXsx_NtCsc29TF2YcYso_3syn10punctuatedINtB5_11PrivateIterNtNtB7_4data7VariantNtNtB7_5token5CommaENtNtNtNtCsaNl6UpbT7bw_4core4iter6traits12double_ended19DoubleEndedIterator9next_backCs7IQ6Ulc8Ywk_14zerovec_derive, symObjAddr: 0x34C0, symBinAddr: 0x295FC, symSize: 0x40 }
  - { offset: 0x5FA7D, size: 0x8, addend: 0x0, symName: __RNvXsx_NtCsc29TF2YcYso_3syn10punctuatedINtB5_11PrivateIterNtNtB7_4path15GenericArgumentNtNtB7_5token5CommaENtNtNtNtCsaNl6UpbT7bw_4core4iter6traits12double_ended19DoubleEndedIterator9next_backCs7IQ6Ulc8Ywk_14zerovec_derive, symObjAddr: 0x3500, symBinAddr: 0x2963C, symSize: 0x40 }
  - { offset: 0x5FAC8, size: 0x8, addend: 0x0, symName: __RNCNvXsw_NtCsc29TF2YcYso_3syn10punctuatedINtB7_11PrivateIterNtCshnvkK9b4wzu_11proc_macro25IdentNtNtB9_5token5CommaENtNtNtNtCsaNl6UpbT7bw_4core4iter6traits8iterator8Iterator4next0Cs7IQ6Ulc8Ywk_14zerovec_derive, symObjAddr: 0xD9C, symBinAddr: 0x26ED8, symSize: 0x24 }
  - { offset: 0x5FB13, size: 0x8, addend: 0x0, symName: __RNCNvXsw_NtCsc29TF2YcYso_3syn10punctuatedINtB7_11PrivateIterNtCshnvkK9b4wzu_11proc_macro25IdentNtNtB9_5token5CommaENtNtNtNtCsaNl6UpbT7bw_4core4iter6traits8iterator8Iterator4nexts_0Cs7IQ6Ulc8Ywk_14zerovec_derive, symObjAddr: 0xDC0, symBinAddr: 0x26EFC, symSize: 0x34 }
  - { offset: 0x5FB55, size: 0x8, addend: 0x0, symName: __RNCNvXsw_NtCsc29TF2YcYso_3syn10punctuatedINtB7_11PrivateIterNtNtB9_4data7VariantNtNtB9_5token5CommaENtNtNtNtCsaNl6UpbT7bw_4core4iter6traits8iterator8Iterator4next0Cs7IQ6Ulc8Ywk_14zerovec_derive, symObjAddr: 0xDF4, symBinAddr: 0x26F30, symSize: 0x24 }
  - { offset: 0x5FBA0, size: 0x8, addend: 0x0, symName: __RNCNvXsw_NtCsc29TF2YcYso_3syn10punctuatedINtB7_11PrivateIterNtNtB9_4data7VariantNtNtB9_5token5CommaENtNtNtNtCsaNl6UpbT7bw_4core4iter6traits8iterator8Iterator4nexts_0Cs7IQ6Ulc8Ywk_14zerovec_derive, symObjAddr: 0xE18, symBinAddr: 0x26F54, symSize: 0x34 }
  - { offset: 0x5FBE2, size: 0x8, addend: 0x0, symName: __RNCNvXsw_NtCsc29TF2YcYso_3syn10punctuatedINtB7_11PrivateIterNtNtB9_4path15GenericArgumentNtNtB9_5token5CommaENtNtNtNtCsaNl6UpbT7bw_4core4iter6traits8iterator8Iterator4next0Cs7IQ6Ulc8Ywk_14zerovec_derive, symObjAddr: 0xE4C, symBinAddr: 0x26F88, symSize: 0x24 }
  - { offset: 0x5FC2D, size: 0x8, addend: 0x0, symName: __RNCNvXsw_NtCsc29TF2YcYso_3syn10punctuatedINtB7_11PrivateIterNtNtB9_4path15GenericArgumentNtNtB9_5token5CommaENtNtNtNtCsaNl6UpbT7bw_4core4iter6traits8iterator8Iterator4nexts_0Cs7IQ6Ulc8Ywk_14zerovec_derive, symObjAddr: 0xE70, symBinAddr: 0x26FAC, symSize: 0x34 }
  - { offset: 0x5FC85, size: 0x8, addend: 0x0, symName: __RNvXsw_NtCsc29TF2YcYso_3syn10punctuatedINtB5_11PrivateIterNtCshnvkK9b4wzu_11proc_macro25IdentNtNtB7_5token5CommaENtNtNtNtCsaNl6UpbT7bw_4core4iter6traits8iterator8Iterator4nextCs7IQ6Ulc8Ywk_14zerovec_derive, symObjAddr: 0x33B4, symBinAddr: 0x294F0, symSize: 0x44 }
  - { offset: 0x5FCC5, size: 0x8, addend: 0x0, symName: __RNvXsw_NtCsc29TF2YcYso_3syn10punctuatedINtB5_11PrivateIterNtNtB7_4data7VariantNtNtB7_5token5CommaENtNtNtNtCsaNl6UpbT7bw_4core4iter6traits8iterator8Iterator4nextCs7IQ6Ulc8Ywk_14zerovec_derive, symObjAddr: 0x33F8, symBinAddr: 0x29534, symSize: 0x44 }
  - { offset: 0x5FD05, size: 0x8, addend: 0x0, symName: __RNvXsw_NtCsc29TF2YcYso_3syn10punctuatedINtB5_11PrivateIterNtNtB7_4path15GenericArgumentNtNtB7_5token5CommaENtNtNtNtCsaNl6UpbT7bw_4core4iter6traits8iterator8Iterator4nextCs7IQ6Ulc8Ywk_14zerovec_derive, symObjAddr: 0x343C, symBinAddr: 0x29578, symSize: 0x44 }
  - { offset: 0x5FEC5, size: 0x8, addend: 0x0, symName: __RNvXs9_NtCsc29TF2YcYso_3syn10punctuatedRINtB5_10PunctuatedNtNtB7_4path15GenericArgumentNtNtB7_5token5CommaENtNtNtNtCsaNl6UpbT7bw_4core4iter6traits7collect12IntoIterator9into_iterCs7IQ6Ulc8Ywk_14zerovec_derive, symObjAddr: 0x29DC, symBinAddr: 0x28B18, symSize: 0x34 }
  - { offset: 0x5FF0B, size: 0x8, addend: 0x0, symName: __RNvXsA_NtCsc29TF2YcYso_3syn10punctuatedINtB5_11PrivateIterNtCshnvkK9b4wzu_11proc_macro25IdentNtNtB7_5token5CommaEINtB5_9IterTraitBU_E9clone_boxCs7IQ6Ulc8Ywk_14zerovec_derive, symObjAddr: 0x2A10, symBinAddr: 0x28B4C, symSize: 0x94 }
  - { offset: 0x5FF69, size: 0x8, addend: 0x0, symName: __RNvXsA_NtCsc29TF2YcYso_3syn10punctuatedINtB5_11PrivateIterNtNtB7_4data7VariantNtNtB7_5token5CommaEINtB5_9IterTraitBU_E9clone_boxCs7IQ6Ulc8Ywk_14zerovec_derive, symObjAddr: 0x2AA4, symBinAddr: 0x28BE0, symSize: 0x94 }
  - { offset: 0x5FFC7, size: 0x8, addend: 0x0, symName: __RNvXsA_NtCsc29TF2YcYso_3syn10punctuatedINtB5_11PrivateIterNtNtB7_4path15GenericArgumentNtNtB7_5token5CommaEINtB5_9IterTraitBU_E9clone_boxCs7IQ6Ulc8Ywk_14zerovec_derive, symObjAddr: 0x2B38, symBinAddr: 0x28C74, symSize: 0x94 }
  - { offset: 0x6002B, size: 0x8, addend: 0x0, symName: __RNvXsC_NtCsc29TF2YcYso_3syn10punctuatedINtB5_7IterMutNtNtB7_4data5FieldENtNtNtNtCsaNl6UpbT7bw_4core4iter6traits8iterator8Iterator4nextCs7IQ6Ulc8Ywk_14zerovec_derive, symObjAddr: 0x2BCC, symBinAddr: 0x28D08, symSize: 0x48 }
  - { offset: 0x60068, size: 0x8, addend: 0x0, symName: __RNvXst_NtCsc29TF2YcYso_3syn10punctuatedINtB5_4IterNtCshnvkK9b4wzu_11proc_macro25IdentENtNtNtNtCsaNl6UpbT7bw_4core4iter6traits8iterator8Iterator4nextCs7IQ6Ulc8Ywk_14zerovec_derive, symObjAddr: 0x310C, symBinAddr: 0x29248, symSize: 0x48 }
  - { offset: 0x6009F, size: 0x8, addend: 0x0, symName: __RNvXst_NtCsc29TF2YcYso_3syn10punctuatedINtB5_4IterNtCshnvkK9b4wzu_11proc_macro25IdentENtNtNtNtCsaNl6UpbT7bw_4core4iter6traits8iterator8Iterator9size_hintCs7IQ6Ulc8Ywk_14zerovec_derive, symObjAddr: 0x3154, symBinAddr: 0x29290, symSize: 0x7C }
  - { offset: 0x600D6, size: 0x8, addend: 0x0, symName: __RNvXst_NtCsc29TF2YcYso_3syn10punctuatedINtB5_4IterNtNtB7_4data5FieldENtNtNtNtCsaNl6UpbT7bw_4core4iter6traits8iterator8Iterator9size_hintCs7IQ6Ulc8Ywk_14zerovec_derive, symObjAddr: 0x31D0, symBinAddr: 0x2930C, symSize: 0x7C }
  - { offset: 0x6010D, size: 0x8, addend: 0x0, symName: __RNvXst_NtCsc29TF2YcYso_3syn10punctuatedINtB5_4IterNtNtB7_4data7VariantENtNtNtNtCsaNl6UpbT7bw_4core4iter6traits8iterator8Iterator4nextCs7IQ6Ulc8Ywk_14zerovec_derive, symObjAddr: 0x324C, symBinAddr: 0x29388, symSize: 0x48 }
  - { offset: 0x60144, size: 0x8, addend: 0x0, symName: __RNvXst_NtCsc29TF2YcYso_3syn10punctuatedINtB5_4IterNtNtB7_4path15GenericArgumentENtNtNtNtCsaNl6UpbT7bw_4core4iter6traits8iterator8Iterator4nextCs7IQ6Ulc8Ywk_14zerovec_derive, symObjAddr: 0x3294, symBinAddr: 0x293D0, symSize: 0x48 }
  - { offset: 0x60181, size: 0x8, addend: 0x0, symName: __RNvXsu_NtCsc29TF2YcYso_3syn10punctuatedINtB5_4IterNtNtB7_4data5FieldENtNtNtNtCsaNl6UpbT7bw_4core4iter6traits12double_ended19DoubleEndedIterator9next_backCs7IQ6Ulc8Ywk_14zerovec_derive, symObjAddr: 0x32DC, symBinAddr: 0x29418, symSize: 0x48 }
  - { offset: 0x601BE, size: 0x8, addend: 0x0, symName: __RNvXsv_NtCsc29TF2YcYso_3syn10punctuatedINtB5_4IterNtCshnvkK9b4wzu_11proc_macro25IdentENtNtNtNtCsaNl6UpbT7bw_4core4iter6traits10exact_size17ExactSizeIterator3lenCs7IQ6Ulc8Ywk_14zerovec_derive, symObjAddr: 0x3324, symBinAddr: 0x29460, symSize: 0x48 }
  - { offset: 0x601F5, size: 0x8, addend: 0x0, symName: __RNvXsv_NtCsc29TF2YcYso_3syn10punctuatedINtB5_4IterNtNtB7_4data5FieldENtNtNtNtCsaNl6UpbT7bw_4core4iter6traits10exact_size17ExactSizeIterator3lenCs7IQ6Ulc8Ywk_14zerovec_derive, symObjAddr: 0x336C, symBinAddr: 0x294A8, symSize: 0x48 }
  - { offset: 0x60232, size: 0x8, addend: 0x0, symName: __RNvXsy_NtCsc29TF2YcYso_3syn10punctuatedINtB5_11PrivateIterNtCshnvkK9b4wzu_11proc_macro25IdentNtNtB7_5token5CommaENtNtNtNtCsaNl6UpbT7bw_4core4iter6traits10exact_size17ExactSizeIterator3lenCs7IQ6Ulc8Ywk_14zerovec_derive, symObjAddr: 0x3540, symBinAddr: 0x2967C, symSize: 0x94 }
  - { offset: 0x602A6, size: 0x8, addend: 0x0, symName: __RNvXsy_NtCsc29TF2YcYso_3syn10punctuatedINtB5_11PrivateIterNtNtB7_4data7VariantNtNtB7_5token5CommaENtNtNtNtCsaNl6UpbT7bw_4core4iter6traits10exact_size17ExactSizeIterator3lenCs7IQ6Ulc8Ywk_14zerovec_derive, symObjAddr: 0x35D4, symBinAddr: 0x29710, symSize: 0x94 }
  - { offset: 0x6031A, size: 0x8, addend: 0x0, symName: __RNvXsy_NtCsc29TF2YcYso_3syn10punctuatedINtB5_11PrivateIterNtNtB7_4path15GenericArgumentNtNtB7_5token5CommaENtNtNtNtCsaNl6UpbT7bw_4core4iter6traits10exact_size17ExactSizeIterator3lenCs7IQ6Ulc8Ywk_14zerovec_derive, symObjAddr: 0x3668, symBinAddr: 0x297A4, symSize: 0x94 }
  - { offset: 0x60394, size: 0x8, addend: 0x0, symName: __RNvXsz_NtCsc29TF2YcYso_3syn10punctuatedINtB5_11PrivateIterNtCshnvkK9b4wzu_11proc_macro25IdentNtNtB7_5token5CommaENtNtCsaNl6UpbT7bw_4core5clone5Clone5cloneCs7IQ6Ulc8Ywk_14zerovec_derive, symObjAddr: 0x36FC, symBinAddr: 0x29838, symSize: 0x68 }
  - { offset: 0x603D4, size: 0x8, addend: 0x0, symName: __RNvXsz_NtCsc29TF2YcYso_3syn10punctuatedINtB5_11PrivateIterNtNtB7_4data7VariantNtNtB7_5token5CommaENtNtCsaNl6UpbT7bw_4core5clone5Clone5cloneCs7IQ6Ulc8Ywk_14zerovec_derive, symObjAddr: 0x3764, symBinAddr: 0x298A0, symSize: 0x68 }
  - { offset: 0x60414, size: 0x8, addend: 0x0, symName: __RNvXsz_NtCsc29TF2YcYso_3syn10punctuatedINtB5_11PrivateIterNtNtB7_4path15GenericArgumentNtNtB7_5token5CommaENtNtCsaNl6UpbT7bw_4core5clone5Clone5cloneCs7IQ6Ulc8Ywk_14zerovec_derive, symObjAddr: 0x37CC, symBinAddr: 0x29908, symSize: 0x68 }
  - { offset: 0x64D48, size: 0x8, addend: 0x0, symName: __RINvCsc29TF2YcYso_3syn5parseNtCshnvkK9b4wzu_11proc_macro25IdentECs7IQ6Ulc8Ywk_14zerovec_derive, symObjAddr: 0x0, symBinAddr: 0x261FC, symSize: 0x30 }
  - { offset: 0x64D7F, size: 0x8, addend: 0x0, symName: __RINvCsc29TF2YcYso_3syn5parseNtNtB2_6derive11DeriveInputECs7IQ6Ulc8Ywk_14zerovec_derive, symObjAddr: 0x30, symBinAddr: 0x2622C, symSize: 0x30 }
  - { offset: 0x64DB6, size: 0x8, addend: 0x0, symName: __RINvCsc29TF2YcYso_3syn6parse2NtNtB2_3lit3LitECs7IQ6Ulc8Ywk_14zerovec_derive, symObjAddr: 0x60, symBinAddr: 0x2625C, symSize: 0x24 }
  - { offset: 0x65C47, size: 0x8, addend: 0x0, symName: __RINvNvNtNtCs7yrEGia95Wz_10proc_macro6bridge14selfless_reify31reify_to_extern_c_fn_hrt_bridge7wrapperNtNtB6_6buffer6BufferNCINvMs6_NtB6_6clientINtB24_6ClientNtB8_11TokenStreamB2u_E7expand1NvCs7IQ6Ulc8Ywk_14zerovec_derive10ule_deriveE0EB31_, symObjAddr: 0x5EC, symBinAddr: 0x26728, symSize: 0x5C }
  - { offset: 0x65CA3, size: 0x8, addend: 0x0, symName: __RINvNvNtNtCs7yrEGia95Wz_10proc_macro6bridge14selfless_reify31reify_to_extern_c_fn_hrt_bridge7wrapperNtNtB6_6buffer6BufferNCINvMs6_NtB6_6clientINtB24_6ClientNtB8_11TokenStreamB2u_E7expand1NvCs7IQ6Ulc8Ywk_14zerovec_derive13varule_deriveE0EB31_, symObjAddr: 0x648, symBinAddr: 0x26784, symSize: 0x5C }
  - { offset: 0x65CFF, size: 0x8, addend: 0x0, symName: __RINvNvNtNtCs7yrEGia95Wz_10proc_macro6bridge14selfless_reify31reify_to_extern_c_fn_hrt_bridge7wrapperNtNtB6_6buffer6BufferNCINvMs7_NtB6_6clientINtB24_6ClientTNtB8_11TokenStreamB2v_EB2v_E7expand2NvCs7IQ6Ulc8Ywk_14zerovec_derive11make_varuleE0EB37_, symObjAddr: 0x6A4, symBinAddr: 0x267E0, symSize: 0x5C }
  - { offset: 0x65D5B, size: 0x8, addend: 0x0, symName: __RINvNvNtNtCs7yrEGia95Wz_10proc_macro6bridge14selfless_reify31reify_to_extern_c_fn_hrt_bridge7wrapperNtNtB6_6buffer6BufferNCINvMs7_NtB6_6clientINtB24_6ClientTNtB8_11TokenStreamB2v_EB2v_E7expand2NvCs7IQ6Ulc8Ywk_14zerovec_derive8make_uleE0EB37_, symObjAddr: 0x700, symBinAddr: 0x2683C, symSize: 0x5C }
  - { offset: 0x66839, size: 0x8, addend: 0x0, symName: __RINvNtCsaNl6UpbT7bw_4core3ptr10swap_chunkKj1_ECs7IQ6Ulc8Ywk_14zerovec_derive, symObjAddr: 0x108, symBinAddr: 0x26304, symSize: 0x3C }
  - { offset: 0x66872, size: 0x8, addend: 0x0, symName: __RINvNtCsaNl6UpbT7bw_4core3ptr10swap_chunkKj2_ECs7IQ6Ulc8Ywk_14zerovec_derive, symObjAddr: 0x144, symBinAddr: 0x26340, symSize: 0x3C }
  - { offset: 0x668AB, size: 0x8, addend: 0x0, symName: __RINvNtCsaNl6UpbT7bw_4core3ptr10swap_chunkKj4_ECs7IQ6Ulc8Ywk_14zerovec_derive, symObjAddr: 0x180, symBinAddr: 0x2637C, symSize: 0x3C }
  - { offset: 0x668E4, size: 0x8, addend: 0x0, symName: __RINvNtCsaNl6UpbT7bw_4core3ptr10swap_chunkKj8_ECs7IQ6Ulc8Ywk_14zerovec_derive, symObjAddr: 0x1BC, symBinAddr: 0x263B8, symSize: 0x3C }
  - { offset: 0x66958, size: 0x8, addend: 0x0, symName: __RINvNtCsaNl6UpbT7bw_4core3ptr14read_unalignedNtNtNtNtB4_9core_arch10arm_shared4neon9uint8x8_tECs7IQ6Ulc8Ywk_14zerovec_derive, symObjAddr: 0x1F8, symBinAddr: 0x263F4, symSize: 0x94 }
  - { offset: 0x66A67, size: 0x8, addend: 0x0, symName: __RINvNtCsaNl6UpbT7bw_4core3ptr15write_unalignedNtNtNtNtB4_9core_arch10arm_shared4neon9uint8x8_tECs7IQ6Ulc8Ywk_14zerovec_derive, symObjAddr: 0x28C, symBinAddr: 0x26488, symSize: 0x78 }
  - { offset: 0x66B83, size: 0x8, addend: 0x0, symName: __RNvNvNtCsaNl6UpbT7bw_4core3ptr19swap_nonoverlapping18precondition_checkCs7IQ6Ulc8Ywk_14zerovec_derive, symObjAddr: 0x1E9C, symBinAddr: 0x27FD8, symSize: 0x38C }
  - { offset: 0x66E63, size: 0x8, addend: 0x0, symName: __RINvNtCsaNl6UpbT7bw_4core3ptr19swap_nonoverlappinghECs7IQ6Ulc8Ywk_14zerovec_derive, symObjAddr: 0x3C4, symBinAddr: 0x26500, symSize: 0xBC }
  - { offset: 0x67048, size: 0x8, addend: 0x0, symName: __RINvNvNtCsaNl6UpbT7bw_4core3ptr25swap_nonoverlapping_bytes26swap_nonoverlapping_chunksKj8_ECs7IQ6Ulc8Ywk_14zerovec_derive, symObjAddr: 0x508, symBinAddr: 0x26644, symSize: 0xE4 }
  - { offset: 0x671E6, size: 0x8, addend: 0x0, symName: __RNvNvNtCsaNl6UpbT7bw_4core3ptr25swap_nonoverlapping_bytes25swap_nonoverlapping_shortCs7IQ6Ulc8Ywk_14zerovec_derive, symObjAddr: 0x2228, symBinAddr: 0x28364, symSize: 0x120 }
  - { offset: 0x673A8, size: 0x8, addend: 0x0, symName: __RNvNtCsaNl6UpbT7bw_4core3ptr25swap_nonoverlapping_bytesCs7IQ6Ulc8Ywk_14zerovec_derive, symObjAddr: 0x1A58, symBinAddr: 0x27B94, symSize: 0xD8 }
  - { offset: 0x67781, size: 0x8, addend: 0x0, symName: __RNvNvNtCsaNl6UpbT7bw_4core3ptr19copy_nonoverlapping18precondition_checkCs7IQ6Ulc8Ywk_14zerovec_derive, symObjAddr: 0x1B30, symBinAddr: 0x27C6C, symSize: 0x36C }
  - { offset: 0x67A34, size: 0x8, addend: 0x0, symName: __RNvNvNtCsaNl6UpbT7bw_4core3ptr4copy18precondition_checkCs7IQ6Ulc8Ywk_14zerovec_derive, symObjAddr: 0x2348, symBinAddr: 0x28484, symSize: 0x240 }
  - { offset: 0x67C4F, size: 0x8, addend: 0x0, symName: __RNvNvNtCsaNl6UpbT7bw_4core3ptr7replace18precondition_checkCs7IQ6Ulc8Ywk_14zerovec_derive, symObjAddr: 0x2588, symBinAddr: 0x286C4, symSize: 0x16C }
  - { offset: 0x6A390, size: 0x8, addend: 0x0, symName: __RINvNtCsaNl6UpbT7bw_4core9panicking13panic_displayNtNtCsc29TF2YcYso_3syn5error5ErrorECs7IQ6Ulc8Ywk_14zerovec_derive, symObjAddr: 0x480, symBinAddr: 0x265BC, symSize: 0x88 }
  - { offset: 0x6AE14, size: 0x8, addend: 0x0, symName: __RNvXsn_NtNtCsaNl6UpbT7bw_4core5panic11unwind_safeINtB5_16AssertUnwindSafeNCINvNtNtCs7yrEGia95Wz_10proc_macro6bridge6client10run_clientNtB1e_11TokenStreamINtNtB9_6option6OptionB28_ENCNCINvMs6_B1e_INtB1e_6ClientNtB1i_11TokenStreamB3l_E7expand1NvCs7IQ6Ulc8Ywk_14zerovec_derive10ule_deriveE00E0EINtNtNtB9_3ops8function6FnOnceuE9call_onceB3T_, symObjAddr: 0x302C, symBinAddr: 0x29168, symSize: 0x38 }
  - { offset: 0x6AE6C, size: 0x8, addend: 0x0, symName: __RNvXsn_NtNtCsaNl6UpbT7bw_4core5panic11unwind_safeINtB5_16AssertUnwindSafeNCINvNtNtCs7yrEGia95Wz_10proc_macro6bridge6client10run_clientNtB1e_11TokenStreamINtNtB9_6option6OptionB28_ENCNCINvMs6_B1e_INtB1e_6ClientNtB1i_11TokenStreamB3l_E7expand1NvCs7IQ6Ulc8Ywk_14zerovec_derive13varule_deriveE00E0EINtNtNtB9_3ops8function6FnOnceuE9call_onceB3T_, symObjAddr: 0x3064, symBinAddr: 0x291A0, symSize: 0x38 }
  - { offset: 0x6AEC4, size: 0x8, addend: 0x0, symName: __RNvXsn_NtNtCsaNl6UpbT7bw_4core5panic11unwind_safeINtB5_16AssertUnwindSafeNCINvNtNtCs7yrEGia95Wz_10proc_macro6bridge6client10run_clientTNtB1e_11TokenStreamB29_EINtNtB9_6option6OptionB29_ENCNCINvMs7_B1e_INtB1e_6ClientTNtB1i_11TokenStreamB3s_EB3s_E7expand2NvCs7IQ6Ulc8Ywk_14zerovec_derive11make_varuleE00E0EINtNtNtB9_3ops8function6FnOnceuE9call_onceB45_, symObjAddr: 0x309C, symBinAddr: 0x291D8, symSize: 0x38 }
  - { offset: 0x6AF1C, size: 0x8, addend: 0x0, symName: __RNvXsn_NtNtCsaNl6UpbT7bw_4core5panic11unwind_safeINtB5_16AssertUnwindSafeNCINvNtNtCs7yrEGia95Wz_10proc_macro6bridge6client10run_clientTNtB1e_11TokenStreamB29_EINtNtB9_6option6OptionB29_ENCNCINvMs7_B1e_INtB1e_6ClientTNtB1i_11TokenStreamB3s_EB3s_E7expand2NvCs7IQ6Ulc8Ywk_14zerovec_derive8make_uleE00E0EINtNtNtB9_3ops8function6FnOnceuE9call_onceB45_, symObjAddr: 0x30D4, symBinAddr: 0x29210, symSize: 0x38 }
  - { offset: 0x6B113, size: 0x8, addend: 0x0, symName: __RNvXs3_NtNtCsaNl6UpbT7bw_4core4iter5rangeINtNtNtB9_3ops5range5RangehENtB5_17RangeIteratorImpl9spec_nextCs7IQ6Ulc8Ywk_14zerovec_derive, symObjAddr: 0x27E4, symBinAddr: 0x28920, symSize: 0x94 }
  - { offset: 0x6B25D, size: 0x8, addend: 0x0, symName: __RNvXs4_NtNtCsaNl6UpbT7bw_4core4iter5rangeINtNtNtB9_3ops5range5RangehENtNtNtB7_6traits8iterator8Iterator4nextCs7IQ6Ulc8Ywk_14zerovec_derive, symObjAddr: 0x29B4, symBinAddr: 0x28AF0, symSize: 0x28 }
  - { offset: 0x6B341, size: 0x8, addend: 0x0, symName: __RINvYINtNtCsc29TF2YcYso_3syn10punctuated11PrivateIterNtCshnvkK9b4wzu_11proc_macro25IdentNtNtB8_5token5CommaENtNtNtNtCsaNl6UpbT7bw_4core4iter6traits8iterator8Iterator8try_foldINtNtNtB1Q_3num7nonzero7NonZerojENCNvXs_NvB1I_10advance_byB3_NtB3q_13SpecAdvanceBy15spec_advance_by0INtNtB1Q_6option6OptionB2M_EECs7IQ6Ulc8Ywk_14zerovec_derive, symObjAddr: 0x7C4, symBinAddr: 0x26900, symSize: 0x154 }
  - { offset: 0x6B3F5, size: 0x8, addend: 0x0, symName: __RINvYINtNtCsc29TF2YcYso_3syn10punctuated11PrivateIterNtNtB8_4data7VariantNtNtB8_5token5CommaENtNtNtNtCsaNl6UpbT7bw_4core4iter6traits8iterator8Iterator8try_foldINtNtNtB1B_3num7nonzero7NonZerojENCNvXs_NvB1t_10advance_byB3_NtB3b_13SpecAdvanceBy15spec_advance_by0INtNtB1B_6option6OptionB2x_EECs7IQ6Ulc8Ywk_14zerovec_derive, symObjAddr: 0x918, symBinAddr: 0x26A54, symSize: 0x154 }
  - { offset: 0x6B4A9, size: 0x8, addend: 0x0, symName: __RINvYINtNtCsc29TF2YcYso_3syn10punctuated11PrivateIterNtNtB8_4path15GenericArgumentNtNtB8_5token5CommaENtNtNtNtCsaNl6UpbT7bw_4core4iter6traits8iterator8Iterator8try_foldINtNtNtB1K_3num7nonzero7NonZerojENCNvXs_NvB1C_10advance_byB3_NtB3k_13SpecAdvanceBy15spec_advance_by0INtNtB1K_6option6OptionB2G_EECs7IQ6Ulc8Ywk_14zerovec_derive, symObjAddr: 0xA6C, symBinAddr: 0x26BA8, symSize: 0x154 }
  - { offset: 0x6B55D, size: 0x8, addend: 0x0, symName: __RINvYINtNtCsc29TF2YcYso_3syn10punctuated4IterNtCshnvkK9b4wzu_11proc_macro25IdentENtNtNtNtCsaNl6UpbT7bw_4core4iter6traits8iterator8Iterator6clonedBH_ECs7IQ6Ulc8Ywk_14zerovec_derive, symObjAddr: 0xBC0, symBinAddr: 0x26CFC, symSize: 0x1C }
  - { offset: 0x6B59D, size: 0x8, addend: 0x0, symName: __RINvYINtNtCsc29TF2YcYso_3syn10punctuated4IterNtNtB8_4path11PathSegmentENtNtNtNtCsaNl6UpbT7bw_4core4iter6traits8iterator8Iterator8try_foldINtNtNtB1f_3num7nonzero7NonZerojENCNvXs_NvB17_10advance_byB3_NtB2P_13SpecAdvanceBy15spec_advance_by0INtNtB1f_6option6OptionB2b_EECs7IQ6Ulc8Ywk_14zerovec_derive, symObjAddr: 0xBDC, symBinAddr: 0x26D18, symSize: 0x154 }
  - { offset: 0x6B65B, size: 0x8, addend: 0x0, symName: __RNvXs_NvNtNtNtNtCsaNl6UpbT7bw_4core4iter6traits8iterator8Iterator10advance_byINtNtCsc29TF2YcYso_3syn10punctuated11PrivateIterNtCshnvkK9b4wzu_11proc_macro25IdentNtNtB1i_5token5CommaENtB4_13SpecAdvanceBy15spec_advance_byCs7IQ6Ulc8Ywk_14zerovec_derive, symObjAddr: 0x2C14, symBinAddr: 0x28D50, symSize: 0x8C }
  - { offset: 0x6B709, size: 0x8, addend: 0x0, symName: __RNvXs_NvNtNtNtNtCsaNl6UpbT7bw_4core4iter6traits8iterator8Iterator10advance_byINtNtCsc29TF2YcYso_3syn10punctuated11PrivateIterNtNtB1i_4data7VariantNtNtB1i_5token5CommaENtB4_13SpecAdvanceBy15spec_advance_byCs7IQ6Ulc8Ywk_14zerovec_derive, symObjAddr: 0x2CA0, symBinAddr: 0x28DDC, symSize: 0x8C }
  - { offset: 0x6B7B7, size: 0x8, addend: 0x0, symName: __RNvXs_NvNtNtNtNtCsaNl6UpbT7bw_4core4iter6traits8iterator8Iterator10advance_byINtNtCsc29TF2YcYso_3syn10punctuated11PrivateIterNtNtB1i_4path15GenericArgumentNtNtB1i_5token5CommaENtB4_13SpecAdvanceBy15spec_advance_byCs7IQ6Ulc8Ywk_14zerovec_derive, symObjAddr: 0x2D2C, symBinAddr: 0x28E68, symSize: 0x8C }
  - { offset: 0x6B865, size: 0x8, addend: 0x0, symName: __RNvXs_NvNtNtNtNtCsaNl6UpbT7bw_4core4iter6traits8iterator8Iterator10advance_byINtNtCsc29TF2YcYso_3syn10punctuated4IterNtNtB1i_4path11PathSegmentENtB4_13SpecAdvanceBy15spec_advance_byCs7IQ6Ulc8Ywk_14zerovec_derive, symObjAddr: 0x2DB8, symBinAddr: 0x28EF4, symSize: 0x8C }
  - { offset: 0x6B937, size: 0x8, addend: 0x0, symName: __RNvYINtNtCsc29TF2YcYso_3syn10punctuated11PrivateIterNtCshnvkK9b4wzu_11proc_macro25IdentNtNtB7_5token5CommaENtNtNtNtCsaNl6UpbT7bw_4core4iter6traits8iterator8Iterator10advance_byCs7IQ6Ulc8Ywk_14zerovec_derive, symObjAddr: 0x3A20, symBinAddr: 0x29B5C, symSize: 0x28 }
  - { offset: 0x6B97D, size: 0x8, addend: 0x0, symName: __RNvYINtNtCsc29TF2YcYso_3syn10punctuated11PrivateIterNtCshnvkK9b4wzu_11proc_macro25IdentNtNtB7_5token5CommaENtNtNtNtCsaNl6UpbT7bw_4core4iter6traits8iterator8Iterator3nthCs7IQ6Ulc8Ywk_14zerovec_derive, symObjAddr: 0x3A48, symBinAddr: 0x29B84, symSize: 0x7C }
  - { offset: 0x6BA49, size: 0x8, addend: 0x0, symName: __RNvYINtNtCsc29TF2YcYso_3syn10punctuated11PrivateIterNtCshnvkK9b4wzu_11proc_macro25IdentNtNtB7_5token5CommaENtNtNtNtCsaNl6UpbT7bw_4core4iter6traits8iterator8Iterator9size_hintCs7IQ6Ulc8Ywk_14zerovec_derive, symObjAddr: 0x3AC4, symBinAddr: 0x29C00, symSize: 0x34 }
  - { offset: 0x6BA7E, size: 0x8, addend: 0x0, symName: __RNvYINtNtCsc29TF2YcYso_3syn10punctuated11PrivateIterNtNtB7_4data7VariantNtNtB7_5token5CommaENtNtNtNtCsaNl6UpbT7bw_4core4iter6traits8iterator8Iterator10advance_byCs7IQ6Ulc8Ywk_14zerovec_derive, symObjAddr: 0x3CE4, symBinAddr: 0x29E20, symSize: 0x28 }
  - { offset: 0x6BAC4, size: 0x8, addend: 0x0, symName: __RNvYINtNtCsc29TF2YcYso_3syn10punctuated11PrivateIterNtNtB7_4data7VariantNtNtB7_5token5CommaENtNtNtNtCsaNl6UpbT7bw_4core4iter6traits8iterator8Iterator3nthCs7IQ6Ulc8Ywk_14zerovec_derive, symObjAddr: 0x3D0C, symBinAddr: 0x29E48, symSize: 0x7C }
  - { offset: 0x6BB90, size: 0x8, addend: 0x0, symName: __RNvYINtNtCsc29TF2YcYso_3syn10punctuated11PrivateIterNtNtB7_4data7VariantNtNtB7_5token5CommaENtNtNtNtCsaNl6UpbT7bw_4core4iter6traits8iterator8Iterator9size_hintCs7IQ6Ulc8Ywk_14zerovec_derive, symObjAddr: 0x3D88, symBinAddr: 0x29EC4, symSize: 0x34 }
  - { offset: 0x6BBC5, size: 0x8, addend: 0x0, symName: __RNvYINtNtCsc29TF2YcYso_3syn10punctuated11PrivateIterNtNtB7_4path15GenericArgumentNtNtB7_5token5CommaENtNtNtNtCsaNl6UpbT7bw_4core4iter6traits8iterator8Iterator10advance_byCs7IQ6Ulc8Ywk_14zerovec_derive, symObjAddr: 0x3FA8, symBinAddr: 0x2A0E4, symSize: 0x28 }
  - { offset: 0x6BC0B, size: 0x8, addend: 0x0, symName: __RNvYINtNtCsc29TF2YcYso_3syn10punctuated11PrivateIterNtNtB7_4path15GenericArgumentNtNtB7_5token5CommaENtNtNtNtCsaNl6UpbT7bw_4core4iter6traits8iterator8Iterator3nthCs7IQ6Ulc8Ywk_14zerovec_derive, symObjAddr: 0x3FD0, symBinAddr: 0x2A10C, symSize: 0x7C }
  - { offset: 0x6BCD7, size: 0x8, addend: 0x0, symName: __RNvYINtNtCsc29TF2YcYso_3syn10punctuated11PrivateIterNtNtB7_4path15GenericArgumentNtNtB7_5token5CommaENtNtNtNtCsaNl6UpbT7bw_4core4iter6traits8iterator8Iterator9size_hintCs7IQ6Ulc8Ywk_14zerovec_derive, symObjAddr: 0x404C, symBinAddr: 0x2A188, symSize: 0x34 }
  - { offset: 0x6BD0C, size: 0x8, addend: 0x0, symName: __RNvYINtNtCsc29TF2YcYso_3syn10punctuated4IterNtNtB7_4data5FieldENtNtNtNtCsaNl6UpbT7bw_4core4iter6traits8iterator8Iterator4takeCs7IQ6Ulc8Ywk_14zerovec_derive, symObjAddr: 0x4080, symBinAddr: 0x2A1BC, symSize: 0x2C }
  - { offset: 0x6BD67, size: 0x8, addend: 0x0, symName: __RNvYINtNtCsc29TF2YcYso_3syn10punctuated4IterNtNtB7_4data5FieldENtNtNtNtCsaNl6UpbT7bw_4core4iter6traits8iterator8Iterator9enumerateCs7IQ6Ulc8Ywk_14zerovec_derive, symObjAddr: 0x40AC, symBinAddr: 0x2A1E8, symSize: 0x28 }
  - { offset: 0x6BDB3, size: 0x8, addend: 0x0, symName: __RNvYINtNtCsc29TF2YcYso_3syn10punctuated4IterNtNtB7_4data7VariantENtNtNtNtCsaNl6UpbT7bw_4core4iter6traits8iterator8Iterator9enumerateCs7IQ6Ulc8Ywk_14zerovec_derive, symObjAddr: 0x40D4, symBinAddr: 0x2A210, symSize: 0x28 }
  - { offset: 0x6BDFF, size: 0x8, addend: 0x0, symName: __RNvYINtNtCsc29TF2YcYso_3syn10punctuated4IterNtNtB7_4path11PathSegmentENtNtNtNtCsaNl6UpbT7bw_4core4iter6traits8iterator8Iterator10advance_byCs7IQ6Ulc8Ywk_14zerovec_derive, symObjAddr: 0x40FC, symBinAddr: 0x2A238, symSize: 0x28 }
  - { offset: 0x6BE45, size: 0x8, addend: 0x0, symName: __RNvYINtNtCsc29TF2YcYso_3syn10punctuated4IterNtNtB7_4path11PathSegmentENtNtNtNtCsaNl6UpbT7bw_4core4iter6traits8iterator8Iterator3nthCs7IQ6Ulc8Ywk_14zerovec_derive, symObjAddr: 0x4124, symBinAddr: 0x2A260, symSize: 0x7C }
  - { offset: 0x6BF1D, size: 0x8, addend: 0x0, symName: __RNvXNtNtNtCsaNl6UpbT7bw_4core4iter6traits7collectINtNtCsc29TF2YcYso_3syn10punctuated4IterNtCshnvkK9b4wzu_11proc_macro25IdentENtB2_12IntoIterator9into_iterCs7IQ6Ulc8Ywk_14zerovec_derive, symObjAddr: 0x26F4, symBinAddr: 0x28830, symSize: 0x1C }
  - { offset: 0x6BF54, size: 0x8, addend: 0x0, symName: __RNvXNtNtNtCsaNl6UpbT7bw_4core4iter6traits7collectINtNtCsc29TF2YcYso_3syn10punctuated7IterMutNtNtBQ_4data5FieldENtB2_12IntoIterator9into_iterCs7IQ6Ulc8Ywk_14zerovec_derive, symObjAddr: 0x2710, symBinAddr: 0x2884C, symSize: 0x1C }
  - { offset: 0x6BF8B, size: 0x8, addend: 0x0, symName: __RNvXNtNtNtCsaNl6UpbT7bw_4core4iter6traits7collectINtNtNtB8_3ops5range5RangehENtB2_12IntoIterator9into_iterCs7IQ6Ulc8Ywk_14zerovec_derive, symObjAddr: 0x272C, symBinAddr: 0x28868, symSize: 0x14 }
  - { offset: 0x6BFF9, size: 0x8, addend: 0x0, symName: __RNvYINtNtCsc29TF2YcYso_3syn10punctuated11PrivateIterNtCshnvkK9b4wzu_11proc_macro25IdentNtNtB7_5token5CommaENtNtNtNtCsaNl6UpbT7bw_4core4iter6traits10exact_size17ExactSizeIterator8is_emptyCs7IQ6Ulc8Ywk_14zerovec_derive, symObjAddr: 0x3834, symBinAddr: 0x29970, symSize: 0x2C }
  - { offset: 0x6C02E, size: 0x8, addend: 0x0, symName: __RNvYINtNtCsc29TF2YcYso_3syn10punctuated11PrivateIterNtNtB7_4data7VariantNtNtB7_5token5CommaENtNtNtNtCsaNl6UpbT7bw_4core4iter6traits10exact_size17ExactSizeIterator8is_emptyCs7IQ6Ulc8Ywk_14zerovec_derive, symObjAddr: 0x3AF8, symBinAddr: 0x29C34, symSize: 0x2C }
  - { offset: 0x6C063, size: 0x8, addend: 0x0, symName: __RNvYINtNtCsc29TF2YcYso_3syn10punctuated11PrivateIterNtNtB7_4path15GenericArgumentNtNtB7_5token5CommaENtNtNtNtCsaNl6UpbT7bw_4core4iter6traits10exact_size17ExactSizeIterator8is_emptyCs7IQ6Ulc8Ywk_14zerovec_derive, symObjAddr: 0x3DBC, symBinAddr: 0x29EF8, symSize: 0x2C }
  - { offset: 0x6C098, size: 0x8, addend: 0x0, symName: __RNvYINtNtNtCsiTraAjBDcu4_5alloc3vec9into_iter8IntoIterNtCshnvkK9b4wzu_11proc_macro25IdentENtNtNtNtCsaNl6UpbT7bw_4core4iter6traits10exact_size17ExactSizeIterator3lenCs7IQ6Ulc8Ywk_14zerovec_derive, symObjAddr: 0x41A0, symBinAddr: 0x2A2DC, symSize: 0xC4 }
  - { offset: 0x6C19F, size: 0x8, addend: 0x0, symName: __RNvYINtNtCsc29TF2YcYso_3syn10punctuated11PrivateIterNtCshnvkK9b4wzu_11proc_macro25IdentNtNtB7_5token5CommaENtNtNtNtCsaNl6UpbT7bw_4core4iter6traits12double_ended19DoubleEndedIterator15advance_back_byCs7IQ6Ulc8Ywk_14zerovec_derive, symObjAddr: 0x3860, symBinAddr: 0x2999C, symSize: 0x158 }
  - { offset: 0x6C319, size: 0x8, addend: 0x0, symName: __RNvYINtNtCsc29TF2YcYso_3syn10punctuated11PrivateIterNtCshnvkK9b4wzu_11proc_macro25IdentNtNtB7_5token5CommaENtNtNtNtCsaNl6UpbT7bw_4core4iter6traits12double_ended19DoubleEndedIterator8nth_backCs7IQ6Ulc8Ywk_14zerovec_derive, symObjAddr: 0x39B8, symBinAddr: 0x29AF4, symSize: 0x68 }
  - { offset: 0x6C397, size: 0x8, addend: 0x0, symName: __RNvYINtNtCsc29TF2YcYso_3syn10punctuated11PrivateIterNtNtB7_4data7VariantNtNtB7_5token5CommaENtNtNtNtCsaNl6UpbT7bw_4core4iter6traits12double_ended19DoubleEndedIterator15advance_back_byCs7IQ6Ulc8Ywk_14zerovec_derive, symObjAddr: 0x3B24, symBinAddr: 0x29C60, symSize: 0x158 }
  - { offset: 0x6C511, size: 0x8, addend: 0x0, symName: __RNvYINtNtCsc29TF2YcYso_3syn10punctuated11PrivateIterNtNtB7_4data7VariantNtNtB7_5token5CommaENtNtNtNtCsaNl6UpbT7bw_4core4iter6traits12double_ended19DoubleEndedIterator8nth_backCs7IQ6Ulc8Ywk_14zerovec_derive, symObjAddr: 0x3C7C, symBinAddr: 0x29DB8, symSize: 0x68 }
  - { offset: 0x6C58F, size: 0x8, addend: 0x0, symName: __RNvYINtNtCsc29TF2YcYso_3syn10punctuated11PrivateIterNtNtB7_4path15GenericArgumentNtNtB7_5token5CommaENtNtNtNtCsaNl6UpbT7bw_4core4iter6traits12double_ended19DoubleEndedIterator15advance_back_byCs7IQ6Ulc8Ywk_14zerovec_derive, symObjAddr: 0x3DE8, symBinAddr: 0x29F24, symSize: 0x158 }
  - { offset: 0x6C709, size: 0x8, addend: 0x0, symName: __RNvYINtNtCsc29TF2YcYso_3syn10punctuated11PrivateIterNtNtB7_4path15GenericArgumentNtNtB7_5token5CommaENtNtNtNtCsaNl6UpbT7bw_4core4iter6traits12double_ended19DoubleEndedIterator8nth_backCs7IQ6Ulc8Ywk_14zerovec_derive, symObjAddr: 0x3F40, symBinAddr: 0x2A07C, symSize: 0x68 }
  - { offset: 0x6C7F2, size: 0x8, addend: 0x0, symName: __RNvXsh_NtNtNtCsaNl6UpbT7bw_4core4iter8adapters7step_byINtNtNtBb_3ops5range5RangejEINtB5_14SpecRangeSetupBQ_E5setupCs7IQ6Ulc8Ywk_14zerovec_derive, symObjAddr: 0x2EDC, symBinAddr: 0x29018, symSize: 0x150 }
  - { offset: 0x6CC5B, size: 0x8, addend: 0x0, symName: __RINvXs3_NtNtCsaNl6UpbT7bw_4core4hash5implsRhNtB8_4Hash4hashNtNtNtCsht3nMU9UgFu_3std4hash6random13DefaultHasherECs7IQ6Ulc8Ywk_14zerovec_derive, symObjAddr: 0x75C, symBinAddr: 0x26898, symSize: 0x30 }
  - { offset: 0x6CCAC, size: 0x8, addend: 0x0, symName: __RINvXs7_NtNtCsaNl6UpbT7bw_4core4hash5implshNtB8_4Hash4hashNtNtNtCsht3nMU9UgFu_3std4hash6random13DefaultHasherECs7IQ6Ulc8Ywk_14zerovec_derive, symObjAddr: 0x78C, symBinAddr: 0x268C8, symSize: 0x38 }
  - { offset: 0x6CFE3, size: 0x8, addend: 0x0, symName: __RNvXs1_NtCsaNl6UpbT7bw_4core7convertReINtB5_4IntoNtNtCsiTraAjBDcu4_5alloc6string6StringE4intoCs7IQ6Ulc8Ywk_14zerovec_derive, symObjAddr: 0x27BC, symBinAddr: 0x288F8, symSize: 0x28 }
  - { offset: 0x6D830, size: 0x8, addend: 0x0, symName: __RNvXNvXsd_NtNtCsiTraAjBDcu4_5alloc3vec9into_iterINtB8_8IntoIterppENtNtNtCsaNl6UpbT7bw_4core3ops4drop4Drop4dropINtB2_9DropGuardNtCshnvkK9b4wzu_11proc_macro25IdentNtNtBc_5alloc6GlobalEB12_4dropCs7IQ6Ulc8Ywk_14zerovec_derive, symObjAddr: 0x2740, symBinAddr: 0x2887C, symSize: 0x7C }
  - { offset: 0x6D966, size: 0x8, addend: 0x0, symName: __RNvXsd_NtNtCsiTraAjBDcu4_5alloc3vec9into_iterINtB5_8IntoIterNtCshnvkK9b4wzu_11proc_macro25IdentENtNtNtCsaNl6UpbT7bw_4core3ops4drop4Drop4dropCs7IQ6Ulc8Ywk_14zerovec_derive, symObjAddr: 0x2E44, symBinAddr: 0x28F80, symSize: 0x98 }
  - { offset: 0x6DA06, size: 0x8, addend: 0x0, symName: __RNvXs3_NtNtCsiTraAjBDcu4_5alloc3vec9into_iterINtB5_8IntoIterNtCshnvkK9b4wzu_11proc_macro25IdentENtNtNtNtCsaNl6UpbT7bw_4core4iter6traits8iterator8Iterator4nextCs7IQ6Ulc8Ywk_14zerovec_derive, symObjAddr: 0x2878, symBinAddr: 0x289B4, symSize: 0xD0 }
  - { offset: 0x6DB81, size: 0x8, addend: 0x0, symName: __RNvXs3_NtNtCsiTraAjBDcu4_5alloc3vec9into_iterINtB5_8IntoIterNtCshnvkK9b4wzu_11proc_macro25IdentENtNtNtNtCsaNl6UpbT7bw_4core4iter6traits8iterator8Iterator9size_hintCs7IQ6Ulc8Ywk_14zerovec_derive, symObjAddr: 0x2948, symBinAddr: 0x28A84, symSize: 0x6C }
  - { offset: 0x6EA51, size: 0x8, addend: 0x0, symName: __RINvMNtNtCsaNl6UpbT7bw_4core3fmt2rtNtB3_8Argument11new_displayNtNtNtCsc29TF2YcYso_3syn4attr7parsing16DisplayAttrStyleECs7IQ6Ulc8Ywk_14zerovec_derive, symObjAddr: 0x84, symBinAddr: 0x26280, symSize: 0x2C }
  - { offset: 0x6EA96, size: 0x8, addend: 0x0, symName: __RINvMNtNtCsaNl6UpbT7bw_4core3fmt2rtNtB3_8Argument11new_displayRNtCshnvkK9b4wzu_11proc_macro211TokenStreamECs7IQ6Ulc8Ywk_14zerovec_derive, symObjAddr: 0xB0, symBinAddr: 0x262AC, symSize: 0x2C }
  - { offset: 0x6EADB, size: 0x8, addend: 0x0, symName: __RINvMNtNtCsaNl6UpbT7bw_4core3fmt2rtNtB3_8Argument9new_debugINtNtCsiTraAjBDcu4_5alloc3vec3VecRhEECs7IQ6Ulc8Ywk_14zerovec_derive, symObjAddr: 0xDC, symBinAddr: 0x262D8, symSize: 0x2C }
  - { offset: 0x6EDB1, size: 0x8, addend: 0x0, symName: __RNvMNtCsc29TF2YcYso_3syn10punctuatedINtB2_10PunctuatedNtCshnvkK9b4wzu_11proc_macro25IdentNtNtB4_5token5CommaE10push_punctCs7IQ6Ulc8Ywk_14zerovec_derive, symObjAddr: 0xF4C, symBinAddr: 0x27088, symSize: 0x1F8 }
  - { offset: 0x6EE2E, size: 0x8, addend: 0x0, symName: __RNvMNtCsc29TF2YcYso_3syn10punctuatedINtB2_10PunctuatedNtCshnvkK9b4wzu_11proc_macro25IdentNtNtB4_5token5CommaE10push_valueCs7IQ6Ulc8Ywk_14zerovec_derive, symObjAddr: 0x1144, symBinAddr: 0x27280, symSize: 0x1A4 }
  - { offset: 0x6EE9C, size: 0x8, addend: 0x0, symName: __RNvMNtCsc29TF2YcYso_3syn10punctuatedINtB2_10PunctuatedNtCshnvkK9b4wzu_11proc_macro25IdentNtNtB4_5token5CommaE17empty_or_trailingCs7IQ6Ulc8Ywk_14zerovec_derive, symObjAddr: 0x12E8, symBinAddr: 0x27424, symSize: 0x34 }
  - { offset: 0x6EF23, size: 0x8, addend: 0x0, symName: __RNvMNtCsc29TF2YcYso_3syn10punctuatedINtB2_10PunctuatedNtCshnvkK9b4wzu_11proc_macro25IdentNtNtB4_5token5CommaE21parse_terminated_withCs7IQ6Ulc8Ywk_14zerovec_derive, symObjAddr: 0x131C, symBinAddr: 0x27458, symSize: 0x33C }
  - { offset: 0x6F028, size: 0x8, addend: 0x0, symName: __RNvMNtCsc29TF2YcYso_3syn10punctuatedINtB2_10PunctuatedNtCshnvkK9b4wzu_11proc_macro25IdentNtNtB4_5token5CommaE3newCs7IQ6Ulc8Ywk_14zerovec_derive, symObjAddr: 0x1658, symBinAddr: 0x27794, symSize: 0x54 }
  - { offset: 0x6F0A3, size: 0x8, addend: 0x0, symName: __RNvMNtCsc29TF2YcYso_3syn10punctuatedINtB2_10PunctuatedNtCshnvkK9b4wzu_11proc_macro25IdentNtNtB4_5token5CommaE4iterCs7IQ6Ulc8Ywk_14zerovec_derive, symObjAddr: 0x16AC, symBinAddr: 0x277E8, symSize: 0xC8 }
  - { offset: 0x6F13C, size: 0x8, addend: 0x0, symName: __RNvMNtCsc29TF2YcYso_3syn10punctuatedINtB2_10PunctuatedNtNtB4_4data7VariantNtNtB4_5token5CommaE4iterCs7IQ6Ulc8Ywk_14zerovec_derive, symObjAddr: 0x1774, symBinAddr: 0x278B0, symSize: 0xC8 }
  - { offset: 0x6F18D, size: 0x8, addend: 0x0, symName: __RNvMNtCsc29TF2YcYso_3syn10punctuatedINtB2_10PunctuatedNtNtB4_4data7VariantNtNtB4_5token5CommaE8is_emptyCs7IQ6Ulc8Ywk_14zerovec_derive, symObjAddr: 0x183C, symBinAddr: 0x27978, symSize: 0x74 }
  - { offset: 0x6F209, size: 0x8, addend: 0x0, symName: __RNvMNtCsc29TF2YcYso_3syn10punctuatedINtB2_10PunctuatedNtNtB4_4path15GenericArgumentNtNtB4_5token5CommaE4iterCs7IQ6Ulc8Ywk_14zerovec_derive, symObjAddr: 0x18B0, symBinAddr: 0x279EC, symSize: 0xC8 }
  - { offset: 0x6F25A, size: 0x8, addend: 0x0, symName: __RNvMNtNtNtCsaNl6UpbT7bw_4core4iter8adapters7step_byINtB2_6StepByINtNtNtB8_3ops5range5RangejEE3newCs7IQ6Ulc8Ywk_14zerovec_derive, symObjAddr: 0x1978, symBinAddr: 0x27AB4, symSize: 0xE0 }
  - { offset: 0x6FCA8, size: 0x8, addend: 0x0, symName: __RINvMNtCsc29TF2YcYso_3syn4attrNtB3_9Attribute10parse_argsNtCshnvkK9b4wzu_11proc_macro211TokenStreamECs7IQ6Ulc8Ywk_14zerovec_derive, symObjAddr: 0x0, symBinAddr: 0x2A3A0, symSize: 0x34 }
  - { offset: 0x7309C, size: 0x8, addend: 0x0, symName: __RNvXs19_NtCsaNl6UpbT7bw_4core3fmtRNtNtCsc29TF2YcYso_3syn4data5FieldNtB6_5Debug3fmtCs7IQ6Ulc8Ywk_14zerovec_derive, symObjAddr: 0x19D8, symBinAddr: 0x2BD78, symSize: 0x30 }
  - { offset: 0x730E2, size: 0x8, addend: 0x0, symName: __RNvXs19_NtCsaNl6UpbT7bw_4core3fmtRRhNtB6_5Debug3fmtCs7IQ6Ulc8Ywk_14zerovec_derive, symObjAddr: 0x1A08, symBinAddr: 0x2BDA8, symSize: 0x30 }
  - { offset: 0x73128, size: 0x8, addend: 0x0, symName: __RNvXs19_NtCsaNl6UpbT7bw_4core3fmtRjNtB6_5Debug3fmtCs7IQ6Ulc8Ywk_14zerovec_derive, symObjAddr: 0x1A38, symBinAddr: 0x2BDD8, symSize: 0x30 }
  - { offset: 0x73174, size: 0x8, addend: 0x0, symName: __RNvXsq_NtCsaNl6UpbT7bw_4core3fmtSRhNtB5_5Debug3fmtCs7IQ6Ulc8Ywk_14zerovec_derive, symObjAddr: 0x2808, symBinAddr: 0x2CBA8, symSize: 0x88 }
  - { offset: 0x732CA, size: 0x8, addend: 0x0, symName: __RINvNtNtNtNtCsaNl6UpbT7bw_4core9core_arch10arm_shared4neon9generated13vget_lane_u64Kl0_ECs7IQ6Ulc8Ywk_14zerovec_derive, symObjAddr: 0xB18, symBinAddr: 0x2AEB8, symSize: 0x18 }
  - { offset: 0x732F9, size: 0x8, addend: 0x0, symName: __RNvNtNtNtNtCsaNl6UpbT7bw_4core9core_arch10arm_shared4neon9generated18vreinterpret_s8_u8Cs7IQ6Ulc8Ywk_14zerovec_derive, symObjAddr: 0x11F4, symBinAddr: 0x2B594, symSize: 0xC }
  - { offset: 0x73327, size: 0x8, addend: 0x0, symName: __RNvNtNtNtNtCsaNl6UpbT7bw_4core9core_arch10arm_shared4neon9generated19vreinterpret_u64_u8Cs7IQ6Ulc8Ywk_14zerovec_derive, symObjAddr: 0x1200, symBinAddr: 0x2B5A0, symSize: 0xC }
  - { offset: 0x73355, size: 0x8, addend: 0x0, symName: __RNvNtNtNtNtCsaNl6UpbT7bw_4core9core_arch10arm_shared4neon9generated7vceq_u8Cs7IQ6Ulc8Ywk_14zerovec_derive, symObjAddr: 0x120C, symBinAddr: 0x2B5AC, symSize: 0x14 }
  - { offset: 0x73392, size: 0x8, addend: 0x0, symName: __RNvNtNtNtNtCsaNl6UpbT7bw_4core9core_arch10arm_shared4neon9generated7vorr_u8Cs7IQ6Ulc8Ywk_14zerovec_derive, symObjAddr: 0x1220, symBinAddr: 0x2B5C0, symSize: 0x14 }
  - { offset: 0x733CF, size: 0x8, addend: 0x0, symName: __RNvNtNtNtNtCsaNl6UpbT7bw_4core9core_arch10arm_shared4neon9generated9vdup_n_u8Cs7IQ6Ulc8Ywk_14zerovec_derive, symObjAddr: 0x1234, symBinAddr: 0x2B5D4, symSize: 0x34 }
  - { offset: 0x734B8, size: 0x8, addend: 0x0, symName: __RNvNtNtNtNtCsaNl6UpbT7bw_4core9core_arch7aarch644neon9generated7vld1_u8Cs7IQ6Ulc8Ywk_14zerovec_derive, symObjAddr: 0x1268, symBinAddr: 0x2B608, symSize: 0x34 }
  - { offset: 0x734E6, size: 0x8, addend: 0x0, symName: __RNvNtNtNtNtCsaNl6UpbT7bw_4core9core_arch7aarch644neon9generated7vst1_u8Cs7IQ6Ulc8Ywk_14zerovec_derive, symObjAddr: 0x129C, symBinAddr: 0x2B63C, symSize: 0x40 }
  - { offset: 0x73520, size: 0x8, addend: 0x0, symName: __RNvNtNtNtNtCsaNl6UpbT7bw_4core9core_arch7aarch644neon9generated8vcgez_s8Cs7IQ6Ulc8Ywk_14zerovec_derive, symObjAddr: 0x12DC, symBinAddr: 0x2B67C, symSize: 0x68 }
  - { offset: 0x735C2, size: 0x8, addend: 0x0, symName: __RNvNtNtNtNtCsaNl6UpbT7bw_4core9core_arch7aarch644neon9generated8vcltz_s8Cs7IQ6Ulc8Ywk_14zerovec_derive, symObjAddr: 0x1344, symBinAddr: 0x2B6E4, symSize: 0x68 }
  - { offset: 0x736C5, size: 0x8, addend: 0x0, symName: __RNvMNtCsaNl6UpbT7bw_4core5sliceSNtNtCsc29TF2YcYso_3syn4attr9Attribute5firstCs7IQ6Ulc8Ywk_14zerovec_derive, symObjAddr: 0xC30, symBinAddr: 0x2AFD0, symSize: 0x44 }
  - { offset: 0x73800, size: 0x8, addend: 0x0, symName: __RNvNvXs0_NtNtCsaNl6UpbT7bw_4core5slice5indexjINtB7_10SliceIndexSpE13get_unchecked18precondition_checkCs7IQ6Ulc8Ywk_14zerovec_derive, symObjAddr: 0x1484, symBinAddr: 0x2B824, symSize: 0xAC }
  - { offset: 0x73869, size: 0x8, addend: 0x0, symName: __RNvXs0_NtNtCsaNl6UpbT7bw_4core5slice5indexjINtB5_10SliceIndexSINtNtB9_6option6OptionNtCshnvkK9b4wzu_11proc_macro25IdentEE5indexCs7IQ6Ulc8Ywk_14zerovec_derive, symObjAddr: 0x1850, symBinAddr: 0x2BBF0, symSize: 0x64 }
  - { offset: 0x738AF, size: 0x8, addend: 0x0, symName: __RNvXs0_NtNtCsaNl6UpbT7bw_4core5slice5indexjINtB5_10SliceIndexSNtCshnvkK9b4wzu_11proc_macro25IdentE5indexCs7IQ6Ulc8Ywk_14zerovec_derive, symObjAddr: 0x18B4, symBinAddr: 0x2BC54, symSize: 0x64 }
  - { offset: 0x738F5, size: 0x8, addend: 0x0, symName: __RNvXs0_NtNtCsaNl6UpbT7bw_4core5slice5indexjINtB5_10SliceIndexSNtNtCs7IQ6Ulc8Ywk_14zerovec_derive11make_varule12UnsizedFieldE5indexB12_, symObjAddr: 0x1918, symBinAddr: 0x2BCB8, symSize: 0x64 }
  - { offset: 0x7393B, size: 0x8, addend: 0x0, symName: __RNvXs0_NtNtCsaNl6UpbT7bw_4core5slice5indexjINtB5_10SliceIndexSNtNtCsc29TF2YcYso_3syn4attr9AttributeE5indexCs7IQ6Ulc8Ywk_14zerovec_derive, symObjAddr: 0x197C, symBinAddr: 0x2BD1C, symSize: 0x5C }
  - { offset: 0x73BDB, size: 0x8, addend: 0x0, symName: __RNvNtNtCsaNl6UpbT7bw_4core4hash3sip9u8to64_leCs7IQ6Ulc8Ywk_14zerovec_derive, symObjAddr: 0xFB4, symBinAddr: 0x2B354, symSize: 0x240 }
  - { offset: 0x73D98, size: 0x8, addend: 0x0, symName: __RNvXs3_NtNtCsaNl6UpbT7bw_4core4hash3sipINtB5_6HasherNtB5_11Sip13RoundsENtB7_6Hasher5writeCs7IQ6Ulc8Ywk_14zerovec_derive, symObjAddr: 0x1A78, symBinAddr: 0x2BE18, symSize: 0x238 }
  - { offset: 0x73F0E, size: 0x8, addend: 0x0, symName: __RNvXs3_NtNtCsaNl6UpbT7bw_4core4hash3sipINtB5_6HasherNtB5_11Sip13RoundsENtB7_6Hasher6finishCs7IQ6Ulc8Ywk_14zerovec_derive, symObjAddr: 0x1CB0, symBinAddr: 0x2C050, symSize: 0xA0 }
  - { offset: 0x73F87, size: 0x8, addend: 0x0, symName: __RNvXs6_NtNtCsaNl6UpbT7bw_4core4hash3sipNtB5_11Sip13RoundsNtB5_3Sip8c_roundsCs7IQ6Ulc8Ywk_14zerovec_derive, symObjAddr: 0x1E54, symBinAddr: 0x2C1F4, symSize: 0x170 }
  - { offset: 0x740FD, size: 0x8, addend: 0x0, symName: __RNvXs6_NtNtCsaNl6UpbT7bw_4core4hash3sipNtB5_11Sip13RoundsNtB5_3Sip8d_roundsCs7IQ6Ulc8Ywk_14zerovec_derive, symObjAddr: 0x1FC4, symBinAddr: 0x2C364, symSize: 0x408 }
  - { offset: 0x74560, size: 0x8, addend: 0x0, symName: __RNvNvNtCsaNl6UpbT7bw_4core9ub_checks23maybe_is_nonoverlapping7runtimeCs7IQ6Ulc8Ywk_14zerovec_derive, symObjAddr: 0x13AC, symBinAddr: 0x2B74C, symSize: 0xD8 }
  - { offset: 0x747C3, size: 0x8, addend: 0x0, symName: __RNvXsx_NtNtCsaNl6UpbT7bw_4core4iter5rangehNtB5_4Step17forward_uncheckedCs7IQ6Ulc8Ywk_14zerovec_derive, symObjAddr: 0x2890, symBinAddr: 0x2CC30, symSize: 0x5C }
  - { offset: 0x748D9, size: 0x8, addend: 0x0, symName: ___rustc_proc_macro_decls_59f51080e92b09a6__, symObjAddr: 0x5E38, symBinAddr: 0x255578, symSize: 0x0 }
  - { offset: 0x74934, size: 0x8, addend: 0x0, symName: __RNvNtCs7IQ6Ulc8Ywk_14zerovec_derive3ule11derive_impl, symObjAddr: 0x2D68, symBinAddr: 0x2D108, symSize: 0x13F4 }
  - { offset: 0x74B52, size: 0x8, addend: 0x0, symName: __RNvNtCs7IQ6Ulc8Ywk_14zerovec_derive3ule23generate_ule_validators, symObjAddr: 0x415C, symBinAddr: 0x2E4FC, symSize: 0x40 }
  - { offset: 0x74B83, size: 0x8, addend: 0x0, symName: __RNCNvNtCs7IQ6Ulc8Ywk_14zerovec_derive3ule23generate_ule_validators0B5_, symObjAddr: 0x419C, symBinAddr: 0x2E53C, symSize: 0x608 }
  - { offset: 0x74C8B, size: 0x8, addend: 0x0, symName: __RNvNtCs7IQ6Ulc8Ywk_14zerovec_derive3ule15make_ule_fields, symObjAddr: 0x47A4, symBinAddr: 0x2EB44, symSize: 0x48 }
  - { offset: 0x74CBC, size: 0x8, addend: 0x0, symName: __RNCNvNtCs7IQ6Ulc8Ywk_14zerovec_derive3ule15make_ule_fields0B5_, symObjAddr: 0x47EC, symBinAddr: 0x2EB8C, symSize: 0x238 }
  - { offset: 0x74D7C, size: 0x8, addend: 0x0, symName: __RNvCs7IQ6Ulc8Ywk_14zerovec_derive10ule_derive, symObjAddr: 0x4A24, symBinAddr: 0x2EDC4, symSize: 0x178 }
  - { offset: 0x74DF1, size: 0x8, addend: 0x0, symName: __RNvCs7IQ6Ulc8Ywk_14zerovec_derive13varule_derive, symObjAddr: 0x4B9C, symBinAddr: 0x2EF3C, symSize: 0x188 }
  - { offset: 0x74E66, size: 0x8, addend: 0x0, symName: __RNvCs7IQ6Ulc8Ywk_14zerovec_derive8make_ule, symObjAddr: 0x4D24, symBinAddr: 0x2F0C4, symSize: 0x324 }
  - { offset: 0x74F34, size: 0x8, addend: 0x0, symName: __RNvCs7IQ6Ulc8Ywk_14zerovec_derive11make_varule, symObjAddr: 0x5048, symBinAddr: 0x2F3E8, symSize: 0x324 }
  - { offset: 0x7570B, size: 0x8, addend: 0x0, symName: __RNvXNtNtCs7yrEGia95Wz_10proc_macro6bridge3rpcuINtB2_6EncodeuE6encodeCs7IQ6Ulc8Ywk_14zerovec_derive, symObjAddr: 0x16E8, symBinAddr: 0x2BA88, symSize: 0x14 }
  - { offset: 0x75784, size: 0x8, addend: 0x0, symName: __RNvXsa_NtNtCs7yrEGia95Wz_10proc_macro6bridge3rpcRShINtB5_6EncodeuE6encodeCs7IQ6Ulc8Ywk_14zerovec_derive, symObjAddr: 0x24C8, symBinAddr: 0x2C868, symSize: 0xD8 }
  - { offset: 0x75886, size: 0x8, addend: 0x0, symName: __RNvXsc_NtNtCs7yrEGia95Wz_10proc_macro6bridge3rpcReINtB5_6EncodeuE6encodeCs7IQ6Ulc8Ywk_14zerovec_derive, symObjAddr: 0x25A0, symBinAddr: 0x2C940, symSize: 0x38 }
  - { offset: 0x7596E, size: 0x8, addend: 0x0, symName: __RNvXsl_NtNtCs7yrEGia95Wz_10proc_macro6bridge3rpcNtB5_12PanicMessageINtB5_6EncodeuE6encodeCs7IQ6Ulc8Ywk_14zerovec_derive, symObjAddr: 0x25D8, symBinAddr: 0x2C978, symSize: 0x128 }
  - { offset: 0x75B34, size: 0x8, addend: 0x0, symName: __RNvXso_NtNtCs7yrEGia95Wz_10proc_macro6bridge3rpcmINtB5_9DecodeMutuE6decodeCs7IQ6Ulc8Ywk_14zerovec_derive, symObjAddr: 0x2700, symBinAddr: 0x2CAA0, symSize: 0x108 }
  - { offset: 0x76215, size: 0x8, addend: 0x0, symName: __RNvXs1_NtCshnvkK9b4wzu_11proc_macro26markerNtB5_19ProcMacroAutoTraitsNtNtCsaNl6UpbT7bw_4core5clone5Clone5cloneCs7IQ6Ulc8Ywk_14zerovec_derive, symObjAddr: 0x1A68, symBinAddr: 0x2BE08, symSize: 0x10 }
  - { offset: 0x79424, size: 0x8, addend: 0x0, symName: __RNCINvMs3_NtCsc29TF2YcYso_3syn3litNtB8_6LitInt12base10_parseyE0Cs7IQ6Ulc8Ywk_14zerovec_derive, symObjAddr: 0xB30, symBinAddr: 0x2AED0, symSize: 0x94 }
  - { offset: 0x7B466, size: 0x8, addend: 0x0, symName: __RNvXNtCsc29TF2YcYso_3syn11parse_quoteNtNtB4_6derive11DeriveInputNtB2_10ParseQuote5parseCs7IQ6Ulc8Ywk_14zerovec_derive, symObjAddr: 0x15B0, symBinAddr: 0x2B950, symSize: 0x34 }
  - { offset: 0x7B4A7, size: 0x8, addend: 0x0, symName: __RNvXNtCsc29TF2YcYso_3syn7spannedNtNtB4_4attr9AttributeNtB2_7Spanned4spanCs7IQ6Ulc8Ywk_14zerovec_derive, symObjAddr: 0x15E4, symBinAddr: 0x2B984, symSize: 0x34 }
  - { offset: 0x7B4DC, size: 0x8, addend: 0x0, symName: __RNvXNtCsc29TF2YcYso_3syn7spannedNtNtB4_4data5FieldNtB2_7Spanned4spanCs7IQ6Ulc8Ywk_14zerovec_derive, symObjAddr: 0x1618, symBinAddr: 0x2B9B8, symSize: 0x34 }
  - { offset: 0x7B511, size: 0x8, addend: 0x0, symName: __RNvXNtCsc29TF2YcYso_3syn7spannedNtNtB4_4data7VariantNtB2_7Spanned4spanCs7IQ6Ulc8Ywk_14zerovec_derive, symObjAddr: 0x164C, symBinAddr: 0x2B9EC, symSize: 0x34 }
  - { offset: 0x7B546, size: 0x8, addend: 0x0, symName: __RNvXNtCsc29TF2YcYso_3syn7spannedNtNtB4_6derive11DeriveInputNtB2_7Spanned4spanCs7IQ6Ulc8Ywk_14zerovec_derive, symObjAddr: 0x1680, symBinAddr: 0x2BA20, symSize: 0x34 }
  - { offset: 0x7B57B, size: 0x8, addend: 0x0, symName: __RNvXNtCsc29TF2YcYso_3syn7spannedRNtNtB4_4data5FieldNtB2_7Spanned4spanCs7IQ6Ulc8Ywk_14zerovec_derive, symObjAddr: 0x16B4, symBinAddr: 0x2BA54, symSize: 0x34 }
  - { offset: 0x7CBB1, size: 0x8, addend: 0x0, symName: __RINvMNtCsc29TF2YcYso_3syn4attrNtB3_9Attribute10parse_argsNtCshnvkK9b4wzu_11proc_macro211TokenStreamECs7IQ6Ulc8Ywk_14zerovec_derive, symObjAddr: 0x0, symBinAddr: 0x2A3A0, symSize: 0x34 }
  - { offset: 0x7CC07, size: 0x8, addend: 0x0, symName: __RINvMNtCsc29TF2YcYso_3syn4attrNtB3_9Attribute10parse_argsNtNtCs7IQ6Ulc8Ywk_14zerovec_derive5utils18IdentListAttributeEBX_, symObjAddr: 0x34, symBinAddr: 0x2A3D4, symSize: 0x34 }
  - { offset: 0x7CCE8, size: 0x8, addend: 0x0, symName: __RINvMNtCsc29TF2YcYso_3syn4attrNtB3_9Attribute15parse_args_withNvYNtCshnvkK9b4wzu_11proc_macro211TokenStreamNtNtB5_5parse5Parse5parseECs7IQ6Ulc8Ywk_14zerovec_derive, symObjAddr: 0x68, symBinAddr: 0x2A408, symSize: 0x388 }
  - { offset: 0x7CE4F, size: 0x8, addend: 0x0, symName: __RINvMNtCsc29TF2YcYso_3syn4attrNtB3_9Attribute15parse_args_withNvYNtNtCs7IQ6Ulc8Ywk_14zerovec_derive5utils18IdentListAttributeNtNtB5_5parse5Parse5parseEB15_, symObjAddr: 0x3F0, symBinAddr: 0x2A790, symSize: 0x388 }
  - { offset: 0x7CFAB, size: 0x8, addend: 0x0, symName: __RINvMs0_NtCsc29TF2YcYso_3syn4attrNtB6_8MetaList15parse_args_withNvYNtCshnvkK9b4wzu_11proc_macro211TokenStreamNtNtB8_5parse5Parse5parseECs7IQ6Ulc8Ywk_14zerovec_derive, symObjAddr: 0x778, symBinAddr: 0x2AB18, symSize: 0xF0 }
  - { offset: 0x7CFFC, size: 0x8, addend: 0x0, symName: __RINvMs0_NtCsc29TF2YcYso_3syn4attrNtB6_8MetaList15parse_args_withNvYNtNtCs7IQ6Ulc8Ywk_14zerovec_derive5utils18IdentListAttributeNtNtB8_5parse5Parse5parseEB17_, symObjAddr: 0x868, symBinAddr: 0x2AC08, symSize: 0xF0 }
  - { offset: 0x7D2AD, size: 0x8, addend: 0x0, symName: __RNCINvNtCsg4dki62PTrg_9hashbrown3map11make_hasherhuNtNtNtCsht3nMU9UgFu_3std4hash6random11RandomStateE0Cs7IQ6Ulc8Ywk_14zerovec_derive, symObjAddr: 0xBC4, symBinAddr: 0x2AF64, symSize: 0x3C }
  - { offset: 0x7D32F, size: 0x8, addend: 0x0, symName: __RNCINvNtCsg4dki62PTrg_9hashbrown3map14equivalent_keyhhuE0Cs7IQ6Ulc8Ywk_14zerovec_derive, symObjAddr: 0xC00, symBinAddr: 0x2AFA0, symSize: 0x30 }
  - { offset: 0x7D3F8, size: 0x8, addend: 0x0, symName: __RNvXs5_NtCsg4dki62PTrg_9hashbrown3mapINtB5_7HashMaphuNtNtNtCsht3nMU9UgFu_3std4hash6random11RandomStateENtNtCsaNl6UpbT7bw_4core7default7Default7defaultCs7IQ6Ulc8Ywk_14zerovec_derive, symObjAddr: 0x1DC8, symBinAddr: 0x2C168, symSize: 0x8C }
  - { offset: 0x7D47C, size: 0x8, addend: 0x0, symName: __RNvXsG_NtCsg4dki62PTrg_9hashbrown3mapINtB5_4IterhuENtNtNtNtCsaNl6UpbT7bw_4core4iter6traits8iterator8Iterator4nextCs7IQ6Ulc8Ywk_14zerovec_derive, symObjAddr: 0x23CC, symBinAddr: 0x2C76C, symSize: 0xFC }
  - { offset: 0x7D8AD, size: 0x8, addend: 0x0, symName: __RINvMs1_NtCsg4dki62PTrg_9hashbrown3mapINtB6_7HashMaphuNtNtNtCsht3nMU9UgFu_3std4hash6random11RandomStateE12remove_entryhECs7IQ6Ulc8Ywk_14zerovec_derive, symObjAddr: 0x958, symBinAddr: 0x2ACF8, symSize: 0x54 }
  - { offset: 0x7D950, size: 0x8, addend: 0x0, symName: __RINvMs1_NtCsg4dki62PTrg_9hashbrown3mapINtB6_7HashMaphuNtNtNtCsht3nMU9UgFu_3std4hash6random11RandomStateE6removehECs7IQ6Ulc8Ywk_14zerovec_derive, symObjAddr: 0x9AC, symBinAddr: 0x2AD4C, symSize: 0x74 }
  - { offset: 0x7D9DA, size: 0x8, addend: 0x0, symName: __RINvMs3_NtCsc29TF2YcYso_3syn3litNtB6_6LitInt12base10_parseyECs7IQ6Ulc8Ywk_14zerovec_derive, symObjAddr: 0xA20, symBinAddr: 0x2ADC0, symSize: 0x58 }
  - { offset: 0x7DB0E, size: 0x8, addend: 0x0, symName: __RINvMs_NtNtCsaNl6UpbT7bw_4core3fmt2rtNtB7_9Arguments6new_v1Kj1_Kj0_ECs7IQ6Ulc8Ywk_14zerovec_derive, symObjAddr: 0xA78, symBinAddr: 0x2AE18, symSize: 0x4C }
  - { offset: 0x7DB72, size: 0x8, addend: 0x0, symName: __RINvMs_NtNtCsaNl6UpbT7bw_4core3fmt2rtNtB7_9Arguments6new_v1Kj3_Kj2_ECs7IQ6Ulc8Ywk_14zerovec_derive, symObjAddr: 0xAC4, symBinAddr: 0x2AE64, symSize: 0x54 }
  - { offset: 0x7DCED, size: 0x8, addend: 0x0, symName: __RNvMs0_NtCsg4dki62PTrg_9hashbrown3mapINtB5_7HashMaphuNtNtNtCsht3nMU9UgFu_3std4hash6random11RandomStateE4iterCs7IQ6Ulc8Ywk_14zerovec_derive, symObjAddr: 0xC74, symBinAddr: 0x2B014, symSize: 0xC8 }
  - { offset: 0x7DE66, size: 0x8, addend: 0x0, symName: __RNvMs0_NtNtCsaNl6UpbT7bw_4core4hash3sipINtB5_6HasherNtB5_11Sip13RoundsE5resetCs7IQ6Ulc8Ywk_14zerovec_derive, symObjAddr: 0xD3C, symBinAddr: 0x2B0DC, symSize: 0x8C }
  - { offset: 0x7DF57, size: 0x8, addend: 0x0, symName: __RNvMs1_NtCsg4dki62PTrg_9hashbrown3mapINtB5_7HashMaphuNtNtNtCsht3nMU9UgFu_3std4hash6random11RandomStateE6insertCs7IQ6Ulc8Ywk_14zerovec_derive, symObjAddr: 0xDC8, symBinAddr: 0x2B168, symSize: 0x194 }
  - { offset: 0x7E0B9, size: 0x8, addend: 0x0, symName: __RNvMs_NtNtCsaNl6UpbT7bw_4core3fmt2rtNtB6_9Arguments16new_v1_formattedCs7IQ6Ulc8Ywk_14zerovec_derive, symObjAddr: 0xF5C, symBinAddr: 0x2B2FC, symSize: 0x58 }
  - { offset: 0x7E1E3, size: 0x8, addend: 0x0, symName: __RNvXNtCs4EAaWzSXu1l_5quote9to_tokensRNtNtCsc29TF2YcYso_3syn6derive11DeriveInputNtB2_8ToTokens9to_tokensCs7IQ6Ulc8Ywk_14zerovec_derive, symObjAddr: 0x1530, symBinAddr: 0x2B8D0, symSize: 0x40 }
  - { offset: 0x7E222, size: 0x8, addend: 0x0, symName: __RNvXNtCs4EAaWzSXu1l_5quote9to_tokensRRNtNtCsc29TF2YcYso_3syn4data5FieldNtB2_8ToTokens9to_tokensCs7IQ6Ulc8Ywk_14zerovec_derive, symObjAddr: 0x1570, symBinAddr: 0x2B910, symSize: 0x40 }
  - { offset: 0x7E267, size: 0x8, addend: 0x0, symName: __RNvYRNtNtCsc29TF2YcYso_3syn4attr9AttributeNtNtCs4EAaWzSXu1l_5quote9to_tokens8ToTokens15to_token_streamCs7IQ6Ulc8Ywk_14zerovec_derive, symObjAddr: 0x2908, symBinAddr: 0x2CCA8, symSize: 0x8C }
  - { offset: 0x7E2B1, size: 0x8, addend: 0x0, symName: __RNvYRNtNtCsc29TF2YcYso_3syn4attr9AttributeNtNtCs4EAaWzSXu1l_5quote9to_tokens8ToTokens17into_token_streamCs7IQ6Ulc8Ywk_14zerovec_derive, symObjAddr: 0x2994, symBinAddr: 0x2CD34, symSize: 0x54 }
  - { offset: 0x7E2E6, size: 0x8, addend: 0x0, symName: __RNvYRNtNtCsc29TF2YcYso_3syn4data5FieldNtNtCs4EAaWzSXu1l_5quote9to_tokens8ToTokens15to_token_streamCs7IQ6Ulc8Ywk_14zerovec_derive, symObjAddr: 0x29E8, symBinAddr: 0x2CD88, symSize: 0x8C }
  - { offset: 0x7E330, size: 0x8, addend: 0x0, symName: __RNvYRNtNtCsc29TF2YcYso_3syn4data5FieldNtNtCs4EAaWzSXu1l_5quote9to_tokens8ToTokens17into_token_streamCs7IQ6Ulc8Ywk_14zerovec_derive, symObjAddr: 0x2A74, symBinAddr: 0x2CE14, symSize: 0x54 }
  - { offset: 0x7E365, size: 0x8, addend: 0x0, symName: __RNvYRNtNtCsc29TF2YcYso_3syn4data7VariantNtNtCs4EAaWzSXu1l_5quote9to_tokens8ToTokens15to_token_streamCs7IQ6Ulc8Ywk_14zerovec_derive, symObjAddr: 0x2AC8, symBinAddr: 0x2CE68, symSize: 0x8C }
  - { offset: 0x7E3AF, size: 0x8, addend: 0x0, symName: __RNvYRNtNtCsc29TF2YcYso_3syn4data7VariantNtNtCs4EAaWzSXu1l_5quote9to_tokens8ToTokens17into_token_streamCs7IQ6Ulc8Ywk_14zerovec_derive, symObjAddr: 0x2B54, symBinAddr: 0x2CEF4, symSize: 0x54 }
  - { offset: 0x7E3E4, size: 0x8, addend: 0x0, symName: __RNvYRNtNtCsc29TF2YcYso_3syn6derive11DeriveInputNtNtCs4EAaWzSXu1l_5quote9to_tokens8ToTokens15to_token_streamCs7IQ6Ulc8Ywk_14zerovec_derive, symObjAddr: 0x2BA8, symBinAddr: 0x2CF48, symSize: 0x8C }
  - { offset: 0x7E42E, size: 0x8, addend: 0x0, symName: __RNvYRNtNtCsc29TF2YcYso_3syn6derive11DeriveInputNtNtCs4EAaWzSXu1l_5quote9to_tokens8ToTokens17into_token_streamCs7IQ6Ulc8Ywk_14zerovec_derive, symObjAddr: 0x2C34, symBinAddr: 0x2CFD4, symSize: 0x54 }
  - { offset: 0x7E463, size: 0x8, addend: 0x0, symName: __RNvYRRNtNtCsc29TF2YcYso_3syn4data5FieldNtNtCs4EAaWzSXu1l_5quote9to_tokens8ToTokens15to_token_streamCs7IQ6Ulc8Ywk_14zerovec_derive, symObjAddr: 0x2C88, symBinAddr: 0x2D028, symSize: 0x8C }
  - { offset: 0x7E4AD, size: 0x8, addend: 0x0, symName: __RNvYRRNtNtCsc29TF2YcYso_3syn4data5FieldNtNtCs4EAaWzSXu1l_5quote9to_tokens8ToTokens17into_token_streamCs7IQ6Ulc8Ywk_14zerovec_derive, symObjAddr: 0x2D14, symBinAddr: 0x2D0B4, symSize: 0x54 }
  - { offset: 0x7E4EE, size: 0x8, addend: 0x0, symName: __RNvXs0_NtCs4EAaWzSXu1l_5quote7spannedNtNtCsc29TF2YcYso_3syn4attr9AttributeNtB5_7Spanned6___spanCs7IQ6Ulc8Ywk_14zerovec_derive, symObjAddr: 0x16FC, symBinAddr: 0x2BA9C, symSize: 0x44 }
  - { offset: 0x7E523, size: 0x8, addend: 0x0, symName: __RNvXs0_NtCs4EAaWzSXu1l_5quote7spannedNtNtCsc29TF2YcYso_3syn4data5FieldNtB5_7Spanned6___spanCs7IQ6Ulc8Ywk_14zerovec_derive, symObjAddr: 0x1740, symBinAddr: 0x2BAE0, symSize: 0x44 }
  - { offset: 0x7E558, size: 0x8, addend: 0x0, symName: __RNvXs0_NtCs4EAaWzSXu1l_5quote7spannedNtNtCsc29TF2YcYso_3syn4data7VariantNtB5_7Spanned6___spanCs7IQ6Ulc8Ywk_14zerovec_derive, symObjAddr: 0x1784, symBinAddr: 0x2BB24, symSize: 0x44 }
  - { offset: 0x7E58D, size: 0x8, addend: 0x0, symName: __RNvXs0_NtCs4EAaWzSXu1l_5quote7spannedNtNtCsc29TF2YcYso_3syn6derive11DeriveInputNtB5_7Spanned6___spanCs7IQ6Ulc8Ywk_14zerovec_derive, symObjAddr: 0x17C8, symBinAddr: 0x2BB68, symSize: 0x44 }
  - { offset: 0x7E5C2, size: 0x8, addend: 0x0, symName: __RNvXs0_NtCs4EAaWzSXu1l_5quote7spannedRNtNtCsc29TF2YcYso_3syn4data5FieldNtB5_7Spanned6___spanCs7IQ6Ulc8Ywk_14zerovec_derive, symObjAddr: 0x180C, symBinAddr: 0x2BBAC, symSize: 0x44 }
  - { offset: 0x7E603, size: 0x8, addend: 0x0, symName: __RNvXs5_NtCs4EAaWzSXu1l_5quote9___privateINtB5_9RepInterpNtCshnvkK9b4wzu_11proc_macro211TokenStreamENtNtB7_9to_tokens8ToTokens9to_tokensCs7IQ6Ulc8Ywk_14zerovec_derive, symObjAddr: 0x1D50, symBinAddr: 0x2C0F0, symSize: 0x3C }
  - { offset: 0x7E642, size: 0x8, addend: 0x0, symName: __RNvXs5_NtCs4EAaWzSXu1l_5quote9___privateINtB5_9RepInterpRNtCshnvkK9b4wzu_11proc_macro211TokenStreamENtNtB7_9to_tokens8ToTokens9to_tokensCs7IQ6Ulc8Ywk_14zerovec_derive, symObjAddr: 0x1D8C, symBinAddr: 0x2C12C, symSize: 0x3C }
  - { offset: 0x7E687, size: 0x8, addend: 0x0, symName: __RNvYINtNtCs4EAaWzSXu1l_5quote9___private11HasIteratorKb1_EINtB5_16CheckHasIteratorKBQ_E5checkCs7IQ6Ulc8Ywk_14zerovec_derive, symObjAddr: 0x28EC, symBinAddr: 0x2CC8C, symSize: 0x1C }
  - { offset: 0x7ED6A, size: 0x8, addend: 0x0, symName: __RINvMNtCsaNl6UpbT7bw_4core6optionINtB3_6OptionNtCshnvkK9b4wzu_11proc_macro211TokenStreamE14unwrap_or_elseNCNvMNtCs7IQ6Ulc8Ywk_14zerovec_derive11make_varuleNtB1K_13UnsizedFields3new0EB1M_, symObjAddr: 0x0, symBinAddr: 0x2F70C, symSize: 0x70 }
  - { offset: 0x7F306, size: 0x8, addend: 0x0, symName: __RNvXsR_NtCs7yrEGia95Wz_10proc_macro6bridgeINtNtCsaNl6UpbT7bw_4core6option6OptionNtNtB5_6client11TokenStreamEINtNtB5_3rpc6EncodeuE6encodeCs7IQ6Ulc8Ywk_14zerovec_derive, symObjAddr: 0x3388, symBinAddr: 0x32874, symSize: 0xCC }
  - { offset: 0x7F3AC, size: 0x8, addend: 0x0, symName: __RNvXsR_NtCs7yrEGia95Wz_10proc_macro6bridgeINtNtCsaNl6UpbT7bw_4core6option6OptionReEINtNtB5_3rpc6EncodeuE6encodeCs7IQ6Ulc8Ywk_14zerovec_derive, symObjAddr: 0x3454, symBinAddr: 0x32940, symSize: 0xD8 }
  - { offset: 0x7F7C2, size: 0x8, addend: 0x0, symName: __RNvXsA_NtCshnvkK9b4wzu_11proc_macro23impNtB5_19DeferredTokenStreamNtNtCsaNl6UpbT7bw_4core5clone5Clone5cloneCs7IQ6Ulc8Ywk_14zerovec_derive, symObjAddr: 0x307C, symBinAddr: 0x32568, symSize: 0x90 }
  - { offset: 0x7F7F4, size: 0x8, addend: 0x0, symName: __RNvXsF_NtCshnvkK9b4wzu_11proc_macro23impNtB5_5IdentNtNtCsaNl6UpbT7bw_4core5clone5Clone5cloneCs7IQ6Ulc8Ywk_14zerovec_derive, symObjAddr: 0x313C, symBinAddr: 0x32628, symSize: 0x9C }
  - { offset: 0x7F864, size: 0x8, addend: 0x0, symName: __RNvXsz_NtCshnvkK9b4wzu_11proc_macro23impNtB5_11TokenStreamNtNtCsaNl6UpbT7bw_4core5clone5Clone5cloneCs7IQ6Ulc8Ywk_14zerovec_derive, symObjAddr: 0x4894, symBinAddr: 0x33D80, symSize: 0x98 }
  - { offset: 0x7FB8F, size: 0x8, addend: 0x0, symName: __RNvXsG_CshnvkK9b4wzu_11proc_macro2NtB5_11TokenStreamNtNtCsaNl6UpbT7bw_4core5clone5Clone5cloneCs7IQ6Ulc8Ywk_14zerovec_derive, symObjAddr: 0x31D8, symBinAddr: 0x326C4, symSize: 0x78 }
  - { offset: 0x7FBC1, size: 0x8, addend: 0x0, symName: __RNvXsY_CshnvkK9b4wzu_11proc_macro2NtB5_5IdentNtNtCsaNl6UpbT7bw_4core5clone5Clone5cloneCs7IQ6Ulc8Ywk_14zerovec_derive, symObjAddr: 0x352C, symBinAddr: 0x32A18, symSize: 0x78 }
  - { offset: 0x802D8, size: 0x8, addend: 0x0, symName: __RNvNvMNtNtCsaNl6UpbT7bw_4core3ptr9const_ptrPp20offset_from_unsigned18precondition_checkCs7IQ6Ulc8Ywk_14zerovec_derive, symObjAddr: 0x2414, symBinAddr: 0x31900, symSize: 0xAC }
  - { offset: 0x80549, size: 0x8, addend: 0x0, symName: __RNvMsC_NtCsaNl6UpbT7bw_4core3numy16from_ascii_radixCs7IQ6Ulc8Ywk_14zerovec_derive, symObjAddr: 0x1DF4, symBinAddr: 0x312E0, symSize: 0x574 }
  - { offset: 0x807E1, size: 0x8, addend: 0x0, symName: __RNvNvMs3_NtCsaNl6UpbT7bw_4core3numi13unchecked_neg18precondition_checkCs7IQ6Ulc8Ywk_14zerovec_derive, symObjAddr: 0x257C, symBinAddr: 0x31A68, symSize: 0xB8 }
  - { offset: 0x808AD, size: 0x8, addend: 0x0, symName: __RNvNvMs4_NtCsaNl6UpbT7bw_4core3numh13unchecked_add18precondition_checkCs7IQ6Ulc8Ywk_14zerovec_derive, symObjAddr: 0x2634, symBinAddr: 0x31B20, symSize: 0xB4 }
  - { offset: 0x80971, size: 0x8, addend: 0x0, symName: __RNvNvMs9_NtCsaNl6UpbT7bw_4core3numj13unchecked_add18precondition_checkCs7IQ6Ulc8Ywk_14zerovec_derive, symObjAddr: 0x26E8, symBinAddr: 0x31BD4, symSize: 0xB0 }
  - { offset: 0x80A06, size: 0x8, addend: 0x0, symName: __RNvXsB_NtCsaNl6UpbT7bw_4core3numyNtNtNtB7_3str6traits7FromStr8from_strCs7IQ6Ulc8Ywk_14zerovec_derive, symObjAddr: 0x310C, symBinAddr: 0x325F8, symSize: 0x30 }
  - { offset: 0x83804, size: 0x8, addend: 0x0, symName: __RNvXs5_NtCsaNl6UpbT7bw_4core6optionINtB5_6OptionNtCshnvkK9b4wzu_11proc_macro211TokenStreamENtNtB7_7default7Default7defaultCs7IQ6Ulc8Ywk_14zerovec_derive, symObjAddr: 0x3058, symBinAddr: 0x32544, symSize: 0x10 }
  - { offset: 0x83832, size: 0x8, addend: 0x0, symName: __RNvXs6_NtCsaNl6UpbT7bw_4core6optionINtB5_6OptionRNtCshnvkK9b4wzu_11proc_macro25IdentENtNtNtNtB7_4iter6traits7collect12IntoIterator9into_iterCs7IQ6Ulc8Ywk_14zerovec_derive, symObjAddr: 0x3068, symBinAddr: 0x32554, symSize: 0x14 }
  - { offset: 0x83992, size: 0x8, addend: 0x0, symName: __RNvXsP_NtCsaNl6UpbT7bw_4core6optionINtB5_8IntoIterRNtCshnvkK9b4wzu_11proc_macro25IdentENtNtB7_5clone5Clone5cloneCs7IQ6Ulc8Ywk_14zerovec_derive, symObjAddr: 0x3250, symBinAddr: 0x3273C, symSize: 0x68 }
  - { offset: 0x83A39, size: 0x8, addend: 0x0, symName: __RNvXsP_NtCsaNl6UpbT7bw_4core6optionINtB5_8IntoIterRNtNtCsc29TF2YcYso_3syn4data7VariantENtNtB7_5clone5Clone5cloneCs7IQ6Ulc8Ywk_14zerovec_derive, symObjAddr: 0x32B8, symBinAddr: 0x327A4, symSize: 0x68 }
  - { offset: 0x83AE0, size: 0x8, addend: 0x0, symName: __RNvXsP_NtCsaNl6UpbT7bw_4core6optionINtB5_8IntoIterRNtNtCsc29TF2YcYso_3syn4path15GenericArgumentENtNtB7_5clone5Clone5cloneCs7IQ6Ulc8Ywk_14zerovec_derive, symObjAddr: 0x3320, symBinAddr: 0x3280C, symSize: 0x68 }
  - { offset: 0x83BFF, size: 0x8, addend: 0x0, symName: __RNvXsw_NtCsaNl6UpbT7bw_4core6optionINtB5_8IntoIterRNtCshnvkK9b4wzu_11proc_macro25IdentENtNtNtNtB7_4iter6traits8iterator8Iterator4nextCs7IQ6Ulc8Ywk_14zerovec_derive, symObjAddr: 0x47A0, symBinAddr: 0x33C8C, symSize: 0x28 }
  - { offset: 0x83C77, size: 0x8, addend: 0x0, symName: __RNvXsw_NtCsaNl6UpbT7bw_4core6optionINtB5_8IntoIterRNtCshnvkK9b4wzu_11proc_macro25IdentENtNtNtNtB7_4iter6traits8iterator8Iterator9size_hintCs7IQ6Ulc8Ywk_14zerovec_derive, symObjAddr: 0x47C8, symBinAddr: 0x33CB4, symSize: 0x44 }
  - { offset: 0x83CEF, size: 0x8, addend: 0x0, symName: __RNvXsw_NtCsaNl6UpbT7bw_4core6optionINtB5_8IntoIterRNtNtCsc29TF2YcYso_3syn4data7VariantENtNtNtNtB7_4iter6traits8iterator8Iterator9size_hintCs7IQ6Ulc8Ywk_14zerovec_derive, symObjAddr: 0x480C, symBinAddr: 0x33CF8, symSize: 0x44 }
  - { offset: 0x83D67, size: 0x8, addend: 0x0, symName: __RNvXsw_NtCsaNl6UpbT7bw_4core6optionINtB5_8IntoIterRNtNtCsc29TF2YcYso_3syn4path15GenericArgumentENtNtNtNtB7_4iter6traits8iterator8Iterator9size_hintCs7IQ6Ulc8Ywk_14zerovec_derive, symObjAddr: 0x4850, symBinAddr: 0x33D3C, symSize: 0x44 }
  - { offset: 0x847CB, size: 0x8, addend: 0x0, symName: __RNvMNtCsaNl6UpbT7bw_4core5sliceSNtCshnvkK9b4wzu_11proc_macro211TokenStream4iterCs7IQ6Ulc8Ywk_14zerovec_derive, symObjAddr: 0x1244, symBinAddr: 0x30730, symSize: 0x28 }
  - { offset: 0x84802, size: 0x8, addend: 0x0, symName: __RNvMNtCsaNl6UpbT7bw_4core5sliceSNtCshnvkK9b4wzu_11proc_macro25Ident5firstCs7IQ6Ulc8Ywk_14zerovec_derive, symObjAddr: 0x126C, symBinAddr: 0x30758, symSize: 0x44 }
  - { offset: 0x8484C, size: 0x8, addend: 0x0, symName: __RNvMNtCsaNl6UpbT7bw_4core5sliceSTNtCshnvkK9b4wzu_11proc_macro25IdentNtNtCsc29TF2YcYso_3syn5token5CommaE4iterCs7IQ6Ulc8Ywk_14zerovec_derive, symObjAddr: 0x12B0, symBinAddr: 0x3079C, symSize: 0x28 }
  - { offset: 0x85048, size: 0x8, addend: 0x0, symName: __RNvXs1b_NtCsaNl6UpbT7bw_4core3fmtRNtCshnvkK9b4wzu_11proc_macro211TokenStreamNtB6_7Display3fmtCs7IQ6Ulc8Ywk_14zerovec_derive, symObjAddr: 0x2F68, symBinAddr: 0x32454, symSize: 0x30 }
  - { offset: 0x857D2, size: 0x8, addend: 0x0, symName: __RNCINvNtNtNtCsaNl6UpbT7bw_4core4iter8adapters3map8map_foldRNtNtCs7IQ6Ulc8Ywk_14zerovec_derive5utils9FieldInfoNtCshnvkK9b4wzu_11proc_macro211TokenStreamuNCNvNtBZ_11make_varule21make_zf_and_from_impl0NCINvNvNtNtNtB8_6traits8iterator8Iterator8for_each4callB1J_NCINvMsi_NtCsiTraAjBDcu4_5alloc3vecINtB4g_3VecB1J_E14extend_trustedINtB4_3MapINtNtNtBa_5slice4iter4IterBV_EB2q_EE0E0E0BZ_, symObjAddr: 0x112C, symBinAddr: 0x30618, symSize: 0x8C }
  - { offset: 0x85857, size: 0x8, addend: 0x0, symName: __RNCINvNtNtNtCsaNl6UpbT7bw_4core4iter8adapters3map8map_foldRNtNtCs7IQ6Ulc8Ywk_14zerovec_derive5utils9FieldInfoNtCshnvkK9b4wzu_11proc_macro211TokenStreamuNCNvNtBZ_3ule15make_ule_fields0NCINvNvNtNtNtB8_6traits8iterator8Iterator8for_each4callB1J_NCINvMsi_NtCsiTraAjBDcu4_5alloc3vecINtB41_3VecB1J_E14extend_trustedINtB4_3MapINtNtNtBa_5slice4iter4IterBV_EB2q_EE0E0E0BZ_, symObjAddr: 0x11B8, symBinAddr: 0x306A4, symSize: 0x8C }
  - { offset: 0x858E2, size: 0x8, addend: 0x0, symName: __RINvXs0_NtNtNtCsaNl6UpbT7bw_4core4iter8adapters3mapINtB6_3MapINtNtNtBc_5slice4iter4IterNtNtCs7IQ6Ulc8Ywk_14zerovec_derive5utils9FieldInfoENCNvNtB1r_11make_varule21make_zf_and_from_impl0ENtNtNtBa_6traits8iterator8Iterator4folduNCINvNvB2Y_8for_each4callNtCshnvkK9b4wzu_11proc_macro211TokenStreamNCINvMsi_NtCsiTraAjBDcu4_5alloc3vecINtB4Q_3VecB41_E14extend_trustedBN_E0E0EB1r_, symObjAddr: 0xE8C, symBinAddr: 0x30378, symSize: 0x44 }
  - { offset: 0x8597A, size: 0x8, addend: 0x0, symName: __RINvXs0_NtNtNtCsaNl6UpbT7bw_4core4iter8adapters3mapINtB6_3MapINtNtNtBc_5slice4iter4IterNtNtCs7IQ6Ulc8Ywk_14zerovec_derive5utils9FieldInfoENCNvNtB1r_3ule15make_ule_fields0ENtNtNtBa_6traits8iterator8Iterator4folduNCINvNvB2J_8for_each4callNtCshnvkK9b4wzu_11proc_macro211TokenStreamNCINvMsi_NtCsiTraAjBDcu4_5alloc3vecINtB4B_3VecB3M_E14extend_trustedBN_E0E0EB1r_, symObjAddr: 0xED0, symBinAddr: 0x303BC, symSize: 0x44 }
  - { offset: 0x85A12, size: 0x8, addend: 0x0, symName: __RNvXs0_NtNtNtCsaNl6UpbT7bw_4core4iter8adapters3mapINtB5_3MapINtNtB7_9enumerate9EnumerateINtNtB7_4take4TakeINtNtCsc29TF2YcYso_3syn10punctuated4IterNtNtB1L_4data5FieldEEENCINvMs0_NtCs7IQ6Ulc8Ywk_14zerovec_derive5utilsNtB2P_9FieldInfo9make_listB1o_E0ENtNtNtB9_6traits8iterator8Iterator4nextB2R_, symObjAddr: 0x2AE8, symBinAddr: 0x31FD4, symSize: 0xA8 }
  - { offset: 0x85AAA, size: 0x8, addend: 0x0, symName: __RNvXs0_NtNtNtCsaNl6UpbT7bw_4core4iter8adapters3mapINtB5_3MapINtNtB7_9enumerate9EnumerateINtNtB7_4take4TakeINtNtCsc29TF2YcYso_3syn10punctuated4IterNtNtB1L_4data5FieldEEENCINvMs0_NtCs7IQ6Ulc8Ywk_14zerovec_derive5utilsNtB2P_9FieldInfo9make_listB1o_E0ENtNtNtB9_6traits8iterator8Iterator9size_hintB2R_, symObjAddr: 0x2B90, symBinAddr: 0x3207C, symSize: 0x24 }
  - { offset: 0x85AF1, size: 0x8, addend: 0x0, symName: __RNvXs0_NtNtNtCsaNl6UpbT7bw_4core4iter8adapters3mapINtB5_3MapINtNtB7_9enumerate9EnumerateINtNtCsc29TF2YcYso_3syn10punctuated4IterNtNtB1t_4data5FieldEENCINvMs0_NtCs7IQ6Ulc8Ywk_14zerovec_derive5utilsNtB2w_9FieldInfo9make_listB1o_E0ENtNtNtB9_6traits8iterator8Iterator4nextB2y_, symObjAddr: 0x2BB4, symBinAddr: 0x320A0, symSize: 0xA8 }
  - { offset: 0x85B89, size: 0x8, addend: 0x0, symName: __RNvXs0_NtNtNtCsaNl6UpbT7bw_4core4iter8adapters3mapINtB5_3MapINtNtB7_9enumerate9EnumerateINtNtCsc29TF2YcYso_3syn10punctuated4IterNtNtB1t_4data5FieldEENCINvMs0_NtCs7IQ6Ulc8Ywk_14zerovec_derive5utilsNtB2w_9FieldInfo9make_listB1o_E0ENtNtNtB9_6traits8iterator8Iterator9size_hintB2y_, symObjAddr: 0x2C5C, symBinAddr: 0x32148, symSize: 0x24 }
  - { offset: 0x85BD0, size: 0x8, addend: 0x0, symName: __RNvXs0_NtNtNtCsaNl6UpbT7bw_4core4iter8adapters3mapINtB5_3MapINtNtB7_9enumerate9EnumerateINtNtNtBb_5slice4iter4IterNtNtCs7IQ6Ulc8Ywk_14zerovec_derive11make_varule12UnsizedFieldEENCNvMB1Q_NtB1Q_13UnsizedFields19maybe_multi_getters0ENtNtNtB9_6traits8iterator8Iterator4nextB1S_, symObjAddr: 0x2C80, symBinAddr: 0x3216C, symSize: 0xA4 }
  - { offset: 0x85C68, size: 0x8, addend: 0x0, symName: __RNvXs0_NtNtNtCsaNl6UpbT7bw_4core4iter8adapters3mapINtB5_3MapINtNtNtBb_5slice4iter4IterNtNtCs7IQ6Ulc8Ywk_14zerovec_derive5utils9FieldInfoENCNvNtB1q_11make_varule21make_zf_and_from_impl0ENtNtNtB9_6traits8iterator8Iterator9size_hintB1q_, symObjAddr: 0x2D24, symBinAddr: 0x32210, symSize: 0x24 }
  - { offset: 0x85CAF, size: 0x8, addend: 0x0, symName: __RNvXs0_NtNtNtCsaNl6UpbT7bw_4core4iter8adapters3mapINtB5_3MapINtNtNtBb_5slice4iter4IterNtNtCs7IQ6Ulc8Ywk_14zerovec_derive5utils9FieldInfoENCNvNtB1q_3ule15make_ule_fields0ENtNtNtB9_6traits8iterator8Iterator9size_hintB1q_, symObjAddr: 0x2D48, symBinAddr: 0x32234, symSize: 0x24 }
  - { offset: 0x85CF6, size: 0x8, addend: 0x0, symName: __RNvXs0_NtNtNtCsaNl6UpbT7bw_4core4iter8adapters3mapINtB5_3MapINtNtNtBb_5slice4iter4IterNtNtCs7IQ6Ulc8Ywk_14zerovec_derive5utils9FieldInfoENCNvNtB1q_6varule11derive_impl0ENtNtNtB9_6traits8iterator8Iterator4nextB1q_, symObjAddr: 0x2D6C, symBinAddr: 0x32258, symSize: 0x94 }
  - { offset: 0x8606C, size: 0x8, addend: 0x0, symName: __RINvYINtNtNtNtCsaNl6UpbT7bw_4core4iter8adapters3map3MapINtNtB8_9enumerate9EnumerateINtNtB8_4take4TakeINtNtCsc29TF2YcYso_3syn10punctuated4IterNtNtB1G_4data5FieldEEENCINvMs0_NtCs7IQ6Ulc8Ywk_14zerovec_derive5utilsNtB2K_9FieldInfo9make_listB1j_E0ENtNtNtBa_6traits8iterator8Iterator7collectINtNtCsiTraAjBDcu4_5alloc3vec3VecB3m_EEB2M_, symObjAddr: 0xF14, symBinAddr: 0x30400, symSize: 0x68 }
  - { offset: 0x86102, size: 0x8, addend: 0x0, symName: __RINvYINtNtNtNtCsaNl6UpbT7bw_4core4iter8adapters3map3MapINtNtB8_9enumerate9EnumerateINtNtCsc29TF2YcYso_3syn10punctuated4IterNtNtB1o_4data5FieldEENCINvMs0_NtCs7IQ6Ulc8Ywk_14zerovec_derive5utilsNtB2r_9FieldInfo9make_listB1j_E0ENtNtNtBa_6traits8iterator8Iterator7collectINtNtCsiTraAjBDcu4_5alloc3vec3VecB33_EEB2t_, symObjAddr: 0xF7C, symBinAddr: 0x30468, symSize: 0x68 }
  - { offset: 0x86198, size: 0x8, addend: 0x0, symName: __RINvYINtNtNtNtCsaNl6UpbT7bw_4core4iter8adapters3map3MapINtNtNtBc_5slice4iter4IterNtNtCs7IQ6Ulc8Ywk_14zerovec_derive5utils9FieldInfoENCNvNtB1l_11make_varule21make_zf_and_from_impl0ENtNtNtBa_6traits8iterator8Iterator7collectINtNtCsiTraAjBDcu4_5alloc3vec3VecNtCshnvkK9b4wzu_11proc_macro211TokenStreamEEB1l_, symObjAddr: 0xFE4, symBinAddr: 0x304D0, symSize: 0x60 }
  - { offset: 0x8622D, size: 0x8, addend: 0x0, symName: __RINvYINtNtNtNtCsaNl6UpbT7bw_4core4iter8adapters3map3MapINtNtNtBc_5slice4iter4IterNtNtCs7IQ6Ulc8Ywk_14zerovec_derive5utils9FieldInfoENCNvNtB1l_11make_varule21make_zf_and_from_impl0ENtNtNtBa_6traits8iterator8Iterator8for_eachNCINvMsi_NtCsiTraAjBDcu4_5alloc3vecINtB3I_3VecNtCshnvkK9b4wzu_11proc_macro211TokenStreamE14extend_trustedB3_E0EB1l_, symObjAddr: 0x1044, symBinAddr: 0x30530, symSize: 0x44 }
  - { offset: 0x86298, size: 0x8, addend: 0x0, symName: __RINvYINtNtNtNtCsaNl6UpbT7bw_4core4iter8adapters3map3MapINtNtNtBc_5slice4iter4IterNtNtCs7IQ6Ulc8Ywk_14zerovec_derive5utils9FieldInfoENCNvNtB1l_3ule15make_ule_fields0ENtNtNtBa_6traits8iterator8Iterator7collectINtNtCsiTraAjBDcu4_5alloc3vec3VecNtCshnvkK9b4wzu_11proc_macro211TokenStreamEEB1l_, symObjAddr: 0x1088, symBinAddr: 0x30574, symSize: 0x60 }
  - { offset: 0x8632D, size: 0x8, addend: 0x0, symName: __RINvYINtNtNtNtCsaNl6UpbT7bw_4core4iter8adapters3map3MapINtNtNtBc_5slice4iter4IterNtNtCs7IQ6Ulc8Ywk_14zerovec_derive5utils9FieldInfoENCNvNtB1l_3ule15make_ule_fields0ENtNtNtBa_6traits8iterator8Iterator8for_eachNCINvMsi_NtCsiTraAjBDcu4_5alloc3vecINtB3t_3VecNtCshnvkK9b4wzu_11proc_macro211TokenStreamE14extend_trustedB3_E0EB1l_, symObjAddr: 0x10E8, symBinAddr: 0x305D4, symSize: 0x44 }
  - { offset: 0x863A4, size: 0x8, addend: 0x0, symName: __RNvXNtNtNtCsaNl6UpbT7bw_4core4iter6traits7collectINtNtNtB6_8adapters3map3MapINtNtBQ_9enumerate9EnumerateINtNtBQ_4take4TakeINtNtCsc29TF2YcYso_3syn10punctuated4IterNtNtB21_4data5FieldEEENCINvMs0_NtCs7IQ6Ulc8Ywk_14zerovec_derive5utilsNtB35_9FieldInfo9make_listB1E_E0ENtB2_12IntoIterator9into_iterB37_, symObjAddr: 0x2950, symBinAddr: 0x31E3C, symSize: 0x14 }
  - { offset: 0x863DB, size: 0x8, addend: 0x0, symName: __RNvXNtNtNtCsaNl6UpbT7bw_4core4iter6traits7collectINtNtNtB6_8adapters3map3MapINtNtBQ_9enumerate9EnumerateINtNtCsc29TF2YcYso_3syn10punctuated4IterNtNtB1J_4data5FieldEENCINvMs0_NtCs7IQ6Ulc8Ywk_14zerovec_derive5utilsNtB2M_9FieldInfo9make_listB1E_E0ENtB2_12IntoIterator9into_iterB2O_, symObjAddr: 0x2964, symBinAddr: 0x31E50, symSize: 0x18 }
  - { offset: 0x86412, size: 0x8, addend: 0x0, symName: __RNvXNtNtNtCsaNl6UpbT7bw_4core4iter6traits7collectINtNtNtB6_8adapters3map3MapINtNtNtB8_5slice4iter4IterNtNtCs7IQ6Ulc8Ywk_14zerovec_derive5utils9FieldInfoENCNvNtB1G_11make_varule21make_zf_and_from_impl0ENtB2_12IntoIterator9into_iterB1G_, symObjAddr: 0x297C, symBinAddr: 0x31E68, symSize: 0x1C }
  - { offset: 0x86449, size: 0x8, addend: 0x0, symName: __RNvXNtNtNtCsaNl6UpbT7bw_4core4iter6traits7collectINtNtNtB6_8adapters3map3MapINtNtNtB8_5slice4iter4IterNtNtCs7IQ6Ulc8Ywk_14zerovec_derive5utils9FieldInfoENCNvNtB1G_3ule15make_ule_fields0ENtB2_12IntoIterator9into_iterB1G_, symObjAddr: 0x2998, symBinAddr: 0x31E84, symSize: 0x1C }
  - { offset: 0x8648C, size: 0x8, addend: 0x0, symName: __RNvYINtNtCsaNl6UpbT7bw_4core6option8IntoIterRNtCshnvkK9b4wzu_11proc_macro25IdentENtNtNtNtB7_4iter6traits10exact_size17ExactSizeIterator3lenCs7IQ6Ulc8Ywk_14zerovec_derive, symObjAddr: 0x492C, symBinAddr: 0x33E18, symSize: 0xC4 }
  - { offset: 0x86587, size: 0x8, addend: 0x0, symName: __RNvYINtNtCsaNl6UpbT7bw_4core6option8IntoIterRNtNtCsc29TF2YcYso_3syn4data7VariantENtNtNtNtB7_4iter6traits10exact_size17ExactSizeIterator3lenCs7IQ6Ulc8Ywk_14zerovec_derive, symObjAddr: 0x49F0, symBinAddr: 0x33EDC, symSize: 0xC4 }
  - { offset: 0x86682, size: 0x8, addend: 0x0, symName: __RNvYINtNtCsaNl6UpbT7bw_4core6option8IntoIterRNtNtCsc29TF2YcYso_3syn4path15GenericArgumentENtNtNtNtB7_4iter6traits10exact_size17ExactSizeIterator3lenCs7IQ6Ulc8Ywk_14zerovec_derive, symObjAddr: 0x4AB4, symBinAddr: 0x33FA0, symSize: 0xC4 }
  - { offset: 0x86814, size: 0x8, addend: 0x0, symName: __RNvNvMNtNtCsaNl6UpbT7bw_4core5alloc6layoutNtB4_6Layout25from_size_align_unchecked18precondition_checkCs7IQ6Ulc8Ywk_14zerovec_derive, symObjAddr: 0x24C0, symBinAddr: 0x319AC, symSize: 0xBC }
  - { offset: 0x8690B, size: 0x8, addend: 0x0, symName: __RNvNvNtCsaNl6UpbT7bw_4core4hint21unreachable_unchecked18precondition_checkCs7IQ6Ulc8Ywk_14zerovec_derive, symObjAddr: 0x2798, symBinAddr: 0x31C84, symSize: 0x84 }
  - { offset: 0x87200, size: 0x8, addend: 0x0, symName: __RNvXs_NtCsiTraAjBDcu4_5alloc5allocNtB4_6GlobalNtNtCsaNl6UpbT7bw_4core5alloc9Allocator10deallocateCs7IQ6Ulc8Ywk_14zerovec_derive, symObjAddr: 0x35E0, symBinAddr: 0x32ACC, symSize: 0x80 }
  - { offset: 0x872C7, size: 0x8, addend: 0x0, symName: __RNvXs_NtCsiTraAjBDcu4_5alloc5allocNtB4_6GlobalNtNtCsaNl6UpbT7bw_4core5alloc9Allocator8allocateCs7IQ6Ulc8Ywk_14zerovec_derive, symObjAddr: 0x3660, symBinAddr: 0x32B4C, symSize: 0x34 }
  - { offset: 0x87302, size: 0x8, addend: 0x0, symName: __RNvNtCsiTraAjBDcu4_5alloc5alloc15exchange_mallocCs7IQ6Ulc8Ywk_14zerovec_derive, symObjAddr: 0x2368, symBinAddr: 0x31854, symSize: 0xAC }
  - { offset: 0x8739E, size: 0x8, addend: 0x0, symName: __RNvXs2_NtCsiTraAjBDcu4_5alloc5allocNtB5_6GlobalNtNtCsaNl6UpbT7bw_4core7default7Default7defaultCs7IQ6Ulc8Ywk_14zerovec_derive, symObjAddr: 0x2F98, symBinAddr: 0x32484, symSize: 0x4 }
  - { offset: 0x87BD4, size: 0x8, addend: 0x0, symName: __RNvXs1_NtCsiTraAjBDcu4_5alloc7raw_vecINtB5_6RawVecINtNtCsaNl6UpbT7bw_4core6option6OptionNtCshnvkK9b4wzu_11proc_macro25IdentEENtNtNtBR_3ops4drop4Drop4dropCs7IQ6Ulc8Ywk_14zerovec_derive, symObjAddr: 0x2E00, symBinAddr: 0x322EC, symSize: 0x34 }
  - { offset: 0x87C10, size: 0x8, addend: 0x0, symName: __RNvXs1_NtCsiTraAjBDcu4_5alloc7raw_vecINtB5_6RawVecNtCshnvkK9b4wzu_11proc_macro211TokenStreamENtNtNtCsaNl6UpbT7bw_4core3ops4drop4Drop4dropCs7IQ6Ulc8Ywk_14zerovec_derive, symObjAddr: 0x2E34, symBinAddr: 0x32320, symSize: 0x34 }
  - { offset: 0x87C4C, size: 0x8, addend: 0x0, symName: __RNvXs1_NtCsiTraAjBDcu4_5alloc7raw_vecINtB5_6RawVecNtCshnvkK9b4wzu_11proc_macro25IdentENtNtNtCsaNl6UpbT7bw_4core3ops4drop4Drop4dropCs7IQ6Ulc8Ywk_14zerovec_derive, symObjAddr: 0x2E68, symBinAddr: 0x32354, symSize: 0x34 }
  - { offset: 0x87C88, size: 0x8, addend: 0x0, symName: __RNvXs1_NtCsiTraAjBDcu4_5alloc7raw_vecINtB5_6RawVecNtNtCs7IQ6Ulc8Ywk_14zerovec_derive11make_varule12UnsizedFieldENtNtNtCsaNl6UpbT7bw_4core3ops4drop4Drop4dropBQ_, symObjAddr: 0x2E9C, symBinAddr: 0x32388, symSize: 0x34 }
  - { offset: 0x87CC4, size: 0x8, addend: 0x0, symName: __RNvXs1_NtCsiTraAjBDcu4_5alloc7raw_vecINtB5_6RawVecNtNtCs7IQ6Ulc8Ywk_14zerovec_derive5utils9FieldInfoENtNtNtCsaNl6UpbT7bw_4core3ops4drop4Drop4dropBQ_, symObjAddr: 0x2ED0, symBinAddr: 0x323BC, symSize: 0x34 }
  - { offset: 0x87D00, size: 0x8, addend: 0x0, symName: __RNvXs1_NtCsiTraAjBDcu4_5alloc7raw_vecINtB5_6RawVecRhENtNtNtCsaNl6UpbT7bw_4core3ops4drop4Drop4dropCs7IQ6Ulc8Ywk_14zerovec_derive, symObjAddr: 0x2F04, symBinAddr: 0x323F0, symSize: 0x30 }
  - { offset: 0x87D3C, size: 0x8, addend: 0x0, symName: __RNvXs1_NtCsiTraAjBDcu4_5alloc7raw_vecINtB5_6RawVecTNtCshnvkK9b4wzu_11proc_macro25IdentNtNtCsc29TF2YcYso_3syn5token5CommaEENtNtNtCsaNl6UpbT7bw_4core3ops4drop4Drop4dropCs7IQ6Ulc8Ywk_14zerovec_derive, symObjAddr: 0x2F34, symBinAddr: 0x32420, symSize: 0x34 }
  - { offset: 0x882E6, size: 0x8, addend: 0x0, symName: __RINvMNtCsaNl6UpbT7bw_4core6optionINtB3_6OptionNtCshnvkK9b4wzu_11proc_macro211TokenStreamE14unwrap_or_elseNCNvMNtCs7IQ6Ulc8Ywk_14zerovec_derive11make_varuleNtB1K_13UnsizedFields3new0EB1M_, symObjAddr: 0x0, symBinAddr: 0x2F70C, symSize: 0x70 }
  - { offset: 0x88388, size: 0x8, addend: 0x0, symName: __RINvMNtCsaNl6UpbT7bw_4core6optionINtB3_6OptionRINtNtCsiTraAjBDcu4_5alloc5boxed3BoxNtCshnvkK9b4wzu_11proc_macro25IdentEE3mapRB1i_NvYBJ_INtNtB5_7convert5AsRefB1i_E6as_refECs7IQ6Ulc8Ywk_14zerovec_derive, symObjAddr: 0x70, symBinAddr: 0x2F77C, symSize: 0x50 }
  - { offset: 0x8D2A3, size: 0x8, addend: 0x0, symName: __RINvNtCsc29TF2YcYso_3syn5parse12parse_scopedNvYNtCshnvkK9b4wzu_11proc_macro211TokenStreamNtB2_5Parse5parseECs7IQ6Ulc8Ywk_14zerovec_derive, symObjAddr: 0xB1C, symBinAddr: 0x30008, symSize: 0x30 }
  - { offset: 0x8D2F9, size: 0x8, addend: 0x0, symName: __RINvNtCsc29TF2YcYso_3syn5parse12parse_scopedNvYNtNtCs7IQ6Ulc8Ywk_14zerovec_derive5utils18IdentListAttributeNtB2_5Parse5parseEBN_, symObjAddr: 0xB4C, symBinAddr: 0x30038, symSize: 0x30 }
  - { offset: 0x8D354, size: 0x8, addend: 0x0, symName: __RNvXsh_NtCsc29TF2YcYso_3syn5parseNvYNtCshnvkK9b4wzu_11proc_macro211TokenStreamNtB5_5Parse5parseNtB5_6Parser14___parse_scopedCs7IQ6Ulc8Ywk_14zerovec_derive, symObjAddr: 0x3694, symBinAddr: 0x32B80, symSize: 0x3A8 }
  - { offset: 0x8D4A1, size: 0x8, addend: 0x0, symName: __RNvXsh_NtCsc29TF2YcYso_3syn5parseNvYNtCshnvkK9b4wzu_11proc_macro25IdentNtB5_5Parse5parseNtB5_6Parser6parse2Cs7IQ6Ulc8Ywk_14zerovec_derive, symObjAddr: 0x3A3C, symBinAddr: 0x32F28, symSize: 0x334 }
  - { offset: 0x8D5B0, size: 0x8, addend: 0x0, symName: __RNvXsh_NtCsc29TF2YcYso_3syn5parseNvYNtNtB7_3lit3LitNtB5_5Parse5parseNtB5_6Parser6parse2Cs7IQ6Ulc8Ywk_14zerovec_derive, symObjAddr: 0x3D70, symBinAddr: 0x3325C, symSize: 0x334 }
  - { offset: 0x8D6BF, size: 0x8, addend: 0x0, symName: __RNvXsh_NtCsc29TF2YcYso_3syn5parseNvYNtNtB7_6derive11DeriveInputNtB5_5Parse5parseNtB5_6Parser6parse2Cs7IQ6Ulc8Ywk_14zerovec_derive, symObjAddr: 0x40A4, symBinAddr: 0x33590, symSize: 0x354 }
  - { offset: 0x8D7CF, size: 0x8, addend: 0x0, symName: __RNvXsh_NtCsc29TF2YcYso_3syn5parseNvYNtNtCs7IQ6Ulc8Ywk_14zerovec_derive5utils18IdentListAttributeNtB5_5Parse5parseNtB5_6Parser14___parse_scopedBC_, symObjAddr: 0x43F8, symBinAddr: 0x338E4, symSize: 0x3A8 }
  - { offset: 0x8D922, size: 0x8, addend: 0x0, symName: __RNvYNvYNtCshnvkK9b4wzu_11proc_macro25IdentNtNtCsc29TF2YcYso_3syn5parse5Parse5parseNtBG_6Parser5parseCs7IQ6Ulc8Ywk_14zerovec_derive, symObjAddr: 0x4D44, symBinAddr: 0x34230, symSize: 0x88 }
  - { offset: 0x8D968, size: 0x8, addend: 0x0, symName: __RNvYNvYNtNtCsc29TF2YcYso_3syn6derive11DeriveInputNtNtB9_5parse5Parse5parseNtBN_6Parser5parseCs7IQ6Ulc8Ywk_14zerovec_derive, symObjAddr: 0x4DCC, symBinAddr: 0x342B8, symSize: 0x88 }
  - { offset: 0x8DC2F, size: 0x8, addend: 0x0, symName: __RNvXs0_NtCsc29TF2YcYso_3syn5dropsINtB5_6NoDropDINtNtB7_10punctuated12IterMutTraitNtNtB7_4data5FieldEp4ItemQB1h_EL_ENtNtNtCsaNl6UpbT7bw_4core3ops5deref8DerefMut9deref_mutCs7IQ6Ulc8Ywk_14zerovec_derive, symObjAddr: 0x29F8, symBinAddr: 0x31EE4, symSize: 0x3C }
  - { offset: 0x8DC64, size: 0x8, addend: 0x0, symName: __RNvXs0_NtCsc29TF2YcYso_3syn5dropsINtB5_6NoDropDINtNtB7_10punctuated9IterTraitNtCshnvkK9b4wzu_11proc_macro25IdentEp4ItemRB1d_EL_ENtNtNtCsaNl6UpbT7bw_4core3ops5deref8DerefMut9deref_mutCs7IQ6Ulc8Ywk_14zerovec_derive, symObjAddr: 0x2A34, symBinAddr: 0x31F20, symSize: 0x3C }
  - { offset: 0x8DC99, size: 0x8, addend: 0x0, symName: __RNvXs0_NtCsc29TF2YcYso_3syn5dropsINtB5_6NoDropDINtNtB7_10punctuated9IterTraitNtNtB7_4data7VariantEp4ItemRB1d_EL_ENtNtNtCsaNl6UpbT7bw_4core3ops5deref8DerefMut9deref_mutCs7IQ6Ulc8Ywk_14zerovec_derive, symObjAddr: 0x2A70, symBinAddr: 0x31F5C, symSize: 0x3C }
  - { offset: 0x8DCCE, size: 0x8, addend: 0x0, symName: __RNvXs0_NtCsc29TF2YcYso_3syn5dropsINtB5_6NoDropDINtNtB7_10punctuated9IterTraitNtNtB7_4path15GenericArgumentEp4ItemRB1d_EL_ENtNtNtCsaNl6UpbT7bw_4core3ops5deref8DerefMut9deref_mutCs7IQ6Ulc8Ywk_14zerovec_derive, symObjAddr: 0x2AAC, symBinAddr: 0x31F98, symSize: 0x3C }
  - { offset: 0x8DD09, size: 0x8, addend: 0x0, symName: __RNvXs_NtCsc29TF2YcYso_3syn5dropsINtB4_6NoDropDINtNtB6_10punctuated9IterTraitNtCshnvkK9b4wzu_11proc_macro25IdentEp4ItemRB1c_EL_ENtNtNtCsaNl6UpbT7bw_4core3ops5deref5Deref5derefCs7IQ6Ulc8Ywk_14zerovec_derive, symObjAddr: 0x35A4, symBinAddr: 0x32A90, symSize: 0x3C }
  - { offset: 0x8DDE0, size: 0x8, addend: 0x0, symName: __RNvXNtCsc29TF2YcYso_3syn7spannedNtCshnvkK9b4wzu_11proc_macro211TokenStreamNtB2_7Spanned4spanCs7IQ6Ulc8Ywk_14zerovec_derive, symObjAddr: 0x291C, symBinAddr: 0x31E08, symSize: 0x34 }
  - { offset: 0x8DF69, size: 0x8, addend: 0x0, symName: __RINvMNtCsaNl6UpbT7bw_4core6optionINtB3_6OptionRNtCshnvkK9b4wzu_11proc_macro25IdentE7or_elseNCNvXsw_NtCsc29TF2YcYso_3syn10punctuatedINtB1z_11PrivateIterBJ_NtNtB1B_5token5CommaENtNtNtNtB5_4iter6traits8iterator8Iterator4nexts_0ECs7IQ6Ulc8Ywk_14zerovec_derive, symObjAddr: 0xC0, symBinAddr: 0x2F7CC, symSize: 0xA8 }
  - { offset: 0x8E024, size: 0x8, addend: 0x0, symName: __RINvMNtCsaNl6UpbT7bw_4core6optionINtB3_6OptionRNtCshnvkK9b4wzu_11proc_macro25IdentE7or_elseNCNvXsx_NtCsc29TF2YcYso_3syn10punctuatedINtB1z_11PrivateIterBJ_NtNtB1B_5token5CommaENtNtNtNtB5_4iter6traits12double_ended19DoubleEndedIterator9next_back0ECs7IQ6Ulc8Ywk_14zerovec_derive, symObjAddr: 0x168, symBinAddr: 0x2F874, symSize: 0xA8 }
  - { offset: 0x8E555, size: 0x8, addend: 0x0, symName: __RINvMNtCsaNl6UpbT7bw_4core6optionINtB3_6OptionRNtNtCsc29TF2YcYso_3syn4data7VariantE7or_elseNCNvXsw_NtBN_10punctuatedINtB1z_11PrivateIterBJ_NtNtBN_5token5CommaENtNtNtNtB5_4iter6traits8iterator8Iterator4nexts_0ECs7IQ6Ulc8Ywk_14zerovec_derive, symObjAddr: 0x210, symBinAddr: 0x2F91C, symSize: 0xA8 }
  - { offset: 0x8E5DE, size: 0x8, addend: 0x0, symName: __RINvMNtCsaNl6UpbT7bw_4core6optionINtB3_6OptionRNtNtCsc29TF2YcYso_3syn4data7VariantE7or_elseNCNvXsx_NtBN_10punctuatedINtB1z_11PrivateIterBJ_NtNtBN_5token5CommaENtNtNtNtB5_4iter6traits12double_ended19DoubleEndedIterator9next_back0ECs7IQ6Ulc8Ywk_14zerovec_derive, symObjAddr: 0x2B8, symBinAddr: 0x2F9C4, symSize: 0xA8 }
  - { offset: 0x8E65A, size: 0x8, addend: 0x0, symName: __RINvMNtCsaNl6UpbT7bw_4core6optionINtB3_6OptionRNtNtCsc29TF2YcYso_3syn4path15GenericArgumentE7or_elseNCNvXsw_NtBN_10punctuatedINtB1I_11PrivateIterBJ_NtNtBN_5token5CommaENtNtNtNtB5_4iter6traits8iterator8Iterator4nexts_0ECs7IQ6Ulc8Ywk_14zerovec_derive, symObjAddr: 0x360, symBinAddr: 0x2FA6C, symSize: 0xA8 }
  - { offset: 0x8E6E3, size: 0x8, addend: 0x0, symName: __RINvMNtCsaNl6UpbT7bw_4core6optionINtB3_6OptionRNtNtCsc29TF2YcYso_3syn4path15GenericArgumentE7or_elseNCNvXsx_NtBN_10punctuatedINtB1I_11PrivateIterBJ_NtNtBN_5token5CommaENtNtNtNtB5_4iter6traits12double_ended19DoubleEndedIterator9next_back0ECs7IQ6Ulc8Ywk_14zerovec_derive, symObjAddr: 0x408, symBinAddr: 0x2FB14, symSize: 0xA8 }
  - { offset: 0x8E75F, size: 0x8, addend: 0x0, symName: __RINvMNtCsaNl6UpbT7bw_4core6optionINtB3_6OptionRNtNtCsc29TF2YcYso_3syn8generics13LifetimeParamE3mapRNtNtBN_8lifetime8LifetimeNCNvNtCs7IQ6Ulc8Ywk_14zerovec_derive11make_varule16make_varule_impl0EB24_, symObjAddr: 0x4B0, symBinAddr: 0x2FBBC, symSize: 0x50 }
  - { offset: 0x8E7D7, size: 0x8, addend: 0x0, symName: __RINvMNtCsaNl6UpbT7bw_4core6optionINtB3_6OptionRRNtNtCsc29TF2YcYso_3syn8lifetime8LifetimeE3mapNtCshnvkK9b4wzu_11proc_macro211TokenStreamNCNvNtCs7IQ6Ulc8Ywk_14zerovec_derive11make_varule16make_varule_impls_0EB2f_, symObjAddr: 0x500, symBinAddr: 0x2FC0C, symSize: 0x6C }
  - { offset: 0x8E842, size: 0x8, addend: 0x0, symName: __RINvMNtCsaNl6UpbT7bw_4core6optionINtB3_6OptionRTNtCshnvkK9b4wzu_11proc_macro25IdentNtNtCsc29TF2YcYso_3syn5token5CommaEE3mapRBK_NCNCNvXsx_NtB1n_10punctuatedINtB2b_11PrivateIterBK_B1j_ENtNtNtNtB5_4iter6traits12double_ended19DoubleEndedIterator9next_back00ECs7IQ6Ulc8Ywk_14zerovec_derive, symObjAddr: 0x56C, symBinAddr: 0x2FC78, symSize: 0x50 }
  - { offset: 0x8E8AD, size: 0x8, addend: 0x0, symName: __RINvMNtCsaNl6UpbT7bw_4core6optionINtB3_6OptionRTNtCshnvkK9b4wzu_11proc_macro25IdentNtNtCsc29TF2YcYso_3syn5token5CommaEE3mapRBK_NCNvXsw_NtB1n_10punctuatedINtB29_11PrivateIterBK_B1j_ENtNtNtNtB5_4iter6traits8iterator8Iterator4next0ECs7IQ6Ulc8Ywk_14zerovec_derive, symObjAddr: 0x5BC, symBinAddr: 0x2FCC8, symSize: 0x50 }
  - { offset: 0x8E918, size: 0x8, addend: 0x0, symName: __RINvMNtCsaNl6UpbT7bw_4core6optionINtB3_6OptionRTNtNtCsc29TF2YcYso_3syn4data7VariantNtNtBO_5token5CommaEE3mapRBK_NCNCNvXsx_NtBO_10punctuatedINtB1W_11PrivateIterBK_B1j_ENtNtNtNtB5_4iter6traits12double_ended19DoubleEndedIterator9next_back00ECs7IQ6Ulc8Ywk_14zerovec_derive, symObjAddr: 0x60C, symBinAddr: 0x2FD18, symSize: 0x50 }
  - { offset: 0x8E983, size: 0x8, addend: 0x0, symName: __RINvMNtCsaNl6UpbT7bw_4core6optionINtB3_6OptionRTNtNtCsc29TF2YcYso_3syn4data7VariantNtNtBO_5token5CommaEE3mapRBK_NCNvXsw_NtBO_10punctuatedINtB1U_11PrivateIterBK_B1j_ENtNtNtNtB5_4iter6traits8iterator8Iterator4next0ECs7IQ6Ulc8Ywk_14zerovec_derive, symObjAddr: 0x65C, symBinAddr: 0x2FD68, symSize: 0x50 }
  - { offset: 0x8E9EE, size: 0x8, addend: 0x0, symName: __RINvMNtCsaNl6UpbT7bw_4core6optionINtB3_6OptionRTNtNtCsc29TF2YcYso_3syn4path15GenericArgumentNtNtBO_5token5CommaEE3mapRBK_NCNCNvXsx_NtBO_10punctuatedINtB25_11PrivateIterBK_B1s_ENtNtNtNtB5_4iter6traits12double_ended19DoubleEndedIterator9next_back00ECs7IQ6Ulc8Ywk_14zerovec_derive, symObjAddr: 0x6AC, symBinAddr: 0x2FDB8, symSize: 0x50 }
  - { offset: 0x8EA59, size: 0x8, addend: 0x0, symName: __RINvMNtCsaNl6UpbT7bw_4core6optionINtB3_6OptionRTNtNtCsc29TF2YcYso_3syn4path15GenericArgumentNtNtBO_5token5CommaEE3mapRBK_NCNvXsw_NtBO_10punctuatedINtB23_11PrivateIterBK_B1s_ENtNtNtNtB5_4iter6traits8iterator8Iterator4next0ECs7IQ6Ulc8Ywk_14zerovec_derive, symObjAddr: 0x6FC, symBinAddr: 0x2FE08, symSize: 0x50 }
  - { offset: 0x8EC0B, size: 0x8, addend: 0x0, symName: __RINvXNtNtNtNtCsht3nMU9UgFu_3std3sys12thread_local6native4lazyzNtB3_14DestroyedState13register_dtorINtNtCsaNl6UpbT7bw_4core4cell4CellTyyEEECs7IQ6Ulc8Ywk_14zerovec_derive, symObjAddr: 0xE7C, symBinAddr: 0x30368, symSize: 0x10 }
  - { offset: 0x8EC62, size: 0x8, addend: 0x0, symName: __RINvNvNtCsht3nMU9UgFu_3std9panicking12catch_unwind7do_callINtNtNtCsaNl6UpbT7bw_4core5panic11unwind_safe16AssertUnwindSafeNCINvNtNtCs7yrEGia95Wz_10proc_macro6bridge6client10run_clientNtB20_11TokenStreamINtNtB11_6option6OptionB2U_ENCNCINvMs6_B20_INtB20_6ClientNtB24_11TokenStreamB48_E7expand1NvCs7IQ6Ulc8Ywk_14zerovec_derive10ule_deriveE00E0EuEB4G_, symObjAddr: 0xB7C, symBinAddr: 0x30068, symSize: 0x50 }
  - { offset: 0x8ED2A, size: 0x8, addend: 0x0, symName: __RINvNvNtCsht3nMU9UgFu_3std9panicking12catch_unwind7do_callINtNtNtCsaNl6UpbT7bw_4core5panic11unwind_safe16AssertUnwindSafeNCINvNtNtCs7yrEGia95Wz_10proc_macro6bridge6client10run_clientNtB20_11TokenStreamINtNtB11_6option6OptionB2U_ENCNCINvMs6_B20_INtB20_6ClientNtB24_11TokenStreamB48_E7expand1NvCs7IQ6Ulc8Ywk_14zerovec_derive13varule_deriveE00E0EuEB4G_, symObjAddr: 0xBCC, symBinAddr: 0x300B8, symSize: 0x50 }
  - { offset: 0x8EDF2, size: 0x8, addend: 0x0, symName: __RINvNvNtCsht3nMU9UgFu_3std9panicking12catch_unwind7do_callINtNtNtCsaNl6UpbT7bw_4core5panic11unwind_safe16AssertUnwindSafeNCINvNtNtCs7yrEGia95Wz_10proc_macro6bridge6client10run_clientTNtB20_11TokenStreamB2V_EINtNtB11_6option6OptionB2V_ENCNCINvMs7_B20_INtB20_6ClientTNtB24_11TokenStreamB4f_EB4f_E7expand2NvCs7IQ6Ulc8Ywk_14zerovec_derive11make_varuleE00E0EuEB4S_, symObjAddr: 0xC1C, symBinAddr: 0x30108, symSize: 0x50 }
  - { offset: 0x8EEBA, size: 0x8, addend: 0x0, symName: __RINvNvNtCsht3nMU9UgFu_3std9panicking12catch_unwind7do_callINtNtNtCsaNl6UpbT7bw_4core5panic11unwind_safe16AssertUnwindSafeNCINvNtNtCs7yrEGia95Wz_10proc_macro6bridge6client10run_clientTNtB20_11TokenStreamB2V_EINtNtB11_6option6OptionB2V_ENCNCINvMs7_B20_INtB20_6ClientTNtB24_11TokenStreamB4f_EB4f_E7expand2NvCs7IQ6Ulc8Ywk_14zerovec_derive8make_uleE00E0EuEB4S_, symObjAddr: 0xC6C, symBinAddr: 0x30158, symSize: 0x50 }
  - { offset: 0x8EF82, size: 0x8, addend: 0x0, symName: __RINvNvNtCsht3nMU9UgFu_3std9panicking12catch_unwind8do_catchINtNtNtCsaNl6UpbT7bw_4core5panic11unwind_safe16AssertUnwindSafeNCINvNtNtCs7yrEGia95Wz_10proc_macro6bridge6client10run_clientNtB21_11TokenStreamINtNtB12_6option6OptionB2V_ENCNCINvMs6_B21_INtB21_6ClientNtB25_11TokenStreamB49_E7expand1NvCs7IQ6Ulc8Ywk_14zerovec_derive10ule_deriveE00E0EuEB4H_, symObjAddr: 0xCBC, symBinAddr: 0x301A8, symSize: 0x70 }
  - { offset: 0x8F017, size: 0x8, addend: 0x0, symName: __RINvNvNtCsht3nMU9UgFu_3std9panicking12catch_unwind8do_catchINtNtNtCsaNl6UpbT7bw_4core5panic11unwind_safe16AssertUnwindSafeNCINvNtNtCs7yrEGia95Wz_10proc_macro6bridge6client10run_clientNtB21_11TokenStreamINtNtB12_6option6OptionB2V_ENCNCINvMs6_B21_INtB21_6ClientNtB25_11TokenStreamB49_E7expand1NvCs7IQ6Ulc8Ywk_14zerovec_derive13varule_deriveE00E0EuEB4H_, symObjAddr: 0xD2C, symBinAddr: 0x30218, symSize: 0x70 }
  - { offset: 0x8F0AC, size: 0x8, addend: 0x0, symName: __RINvNvNtCsht3nMU9UgFu_3std9panicking12catch_unwind8do_catchINtNtNtCsaNl6UpbT7bw_4core5panic11unwind_safe16AssertUnwindSafeNCINvNtNtCs7yrEGia95Wz_10proc_macro6bridge6client10run_clientTNtB21_11TokenStreamB2W_EINtNtB12_6option6OptionB2W_ENCNCINvMs7_B21_INtB21_6ClientTNtB25_11TokenStreamB4g_EB4g_E7expand2NvCs7IQ6Ulc8Ywk_14zerovec_derive11make_varuleE00E0EuEB4T_, symObjAddr: 0xD9C, symBinAddr: 0x30288, symSize: 0x70 }
  - { offset: 0x8F141, size: 0x8, addend: 0x0, symName: __RINvNvNtCsht3nMU9UgFu_3std9panicking12catch_unwind8do_catchINtNtNtCsaNl6UpbT7bw_4core5panic11unwind_safe16AssertUnwindSafeNCINvNtNtCs7yrEGia95Wz_10proc_macro6bridge6client10run_clientTNtB21_11TokenStreamB2W_EINtNtB12_6option6OptionB2W_ENCNCINvMs7_B21_INtB21_6ClientTNtB25_11TokenStreamB4g_EB4g_E7expand2NvCs7IQ6Ulc8Ywk_14zerovec_derive8make_uleE00E0EuEB4T_, symObjAddr: 0xE0C, symBinAddr: 0x302F8, symSize: 0x70 }
  - { offset: 0x8F382, size: 0x8, addend: 0x0, symName: __RINvMs0_NtNtNtNtCsht3nMU9UgFu_3std3sys12thread_local6native4lazyINtB6_7StorageINtNtCsaNl6UpbT7bw_4core4cell4CellTyyEEzE11get_or_initNvNvNvMNtNtBe_4hash6randomNtB2d_11RandomState3new4KEYS6___initECs7IQ6Ulc8Ywk_14zerovec_derive, symObjAddr: 0x74C, symBinAddr: 0x2FE58, symSize: 0xA4 }
  - { offset: 0x8F562, size: 0x8, addend: 0x0, symName: __RINvMs0_NtNtNtNtCsht3nMU9UgFu_3std3sys12thread_local6native4lazyINtB6_7StorageINtNtCsaNl6UpbT7bw_4core4cell4CellTyyEEzE16get_or_init_slowNvNvNvMNtNtBe_4hash6randomNtB2i_11RandomState3new4KEYS6___initECs7IQ6Ulc8Ywk_14zerovec_derive, symObjAddr: 0x7F0, symBinAddr: 0x1B35F8, symSize: 0x220 }
  - { offset: 0x8F89C, size: 0x8, addend: 0x0, symName: __RINvMs5_NtNtCsaNl6UpbT7bw_4core3fmt8buildersNtB6_9DebugList7entriesRRhINtNtNtBa_5slice4iter4IterB14_EECs7IQ6Ulc8Ywk_14zerovec_derive, symObjAddr: 0xA10, symBinAddr: 0x2FEFC, symSize: 0xD0 }
  - { offset: 0x8F97F, size: 0x8, addend: 0x0, symName: __RINvMs9_NtCsc29TF2YcYso_3syn5parseNtB6_11ParseBuffer16parse_terminatedNtCshnvkK9b4wzu_11proc_macro25IdentINvNtB8_5token5CommaNtNtB8_9lookahead11TokenMarkerEECs7IQ6Ulc8Ywk_14zerovec_derive, symObjAddr: 0xAE0, symBinAddr: 0x2FFCC, symSize: 0x3C }
  - { offset: 0x8FD07, size: 0x8, addend: 0x0, symName: __RNvMNtCsaNl6UpbT7bw_4core6optionINtB2_6OptionINtNtCsiTraAjBDcu4_5alloc5boxed3BoxNtCshnvkK9b4wzu_11proc_macro25IdentEE4takeCs7IQ6Ulc8Ywk_14zerovec_derive, symObjAddr: 0x12D8, symBinAddr: 0x307C4, symSize: 0x28 }
  - { offset: 0x8FD5E, size: 0x8, addend: 0x0, symName: __RNvMNtCsaNl6UpbT7bw_4core6optionINtB2_6OptionINtNtCsiTraAjBDcu4_5alloc5boxed3BoxNtCshnvkK9b4wzu_11proc_macro25IdentEE6as_refCs7IQ6Ulc8Ywk_14zerovec_derive, symObjAddr: 0x1300, symBinAddr: 0x307EC, symSize: 0x4C }
  - { offset: 0x8FDC4, size: 0x8, addend: 0x0, symName: __RNvMNtCsaNl6UpbT7bw_4core6optionINtB2_6OptionINtNtCsiTraAjBDcu4_5alloc5boxed3BoxNtCshnvkK9b4wzu_11proc_macro25IdentEE7is_noneCs7IQ6Ulc8Ywk_14zerovec_derive, symObjAddr: 0x134C, symBinAddr: 0x30838, symSize: 0x28 }
  - { offset: 0x8FE0E, size: 0x8, addend: 0x0, symName: __RNvMNtCsaNl6UpbT7bw_4core6optionINtB2_6OptionINtNtCsiTraAjBDcu4_5alloc5boxed3BoxNtCshnvkK9b4wzu_11proc_macro25IdentEE7is_someCs7IQ6Ulc8Ywk_14zerovec_derive, symObjAddr: 0x1374, symBinAddr: 0x30860, symSize: 0x28 }
  - { offset: 0x8FE47, size: 0x8, addend: 0x0, symName: __RNvMNtCsaNl6UpbT7bw_4core6optionINtB2_6OptionNtCshnvkK9b4wzu_11proc_macro211TokenStreamE7is_someCs7IQ6Ulc8Ywk_14zerovec_derive, symObjAddr: 0x139C, symBinAddr: 0x30888, symSize: 0x2C }
  - { offset: 0x8FE9C, size: 0x8, addend: 0x0, symName: __RNvMNtCsaNl6UpbT7bw_4core6optionINtB2_6OptionNtCshnvkK9b4wzu_11proc_macro25IdentE7is_noneCs7IQ6Ulc8Ywk_14zerovec_derive, symObjAddr: 0x13C8, symBinAddr: 0x308B4, symSize: 0x28 }
  - { offset: 0x8FEE6, size: 0x8, addend: 0x0, symName: __RNvMNtCsaNl6UpbT7bw_4core6optionINtB2_6OptionNtCshnvkK9b4wzu_11proc_macro25IdentE7is_someCs7IQ6Ulc8Ywk_14zerovec_derive, symObjAddr: 0x13F0, symBinAddr: 0x308DC, symSize: 0x28 }
  - { offset: 0x8FF48, size: 0x8, addend: 0x0, symName: __RNvMNtCsaNl6UpbT7bw_4core6optionINtB2_6OptionRNtNtCsc29TF2YcYso_3syn2ty4TypeE7is_noneCs7IQ6Ulc8Ywk_14zerovec_derive, symObjAddr: 0x1418, symBinAddr: 0x30904, symSize: 0x28 }
  - { offset: 0x8FF92, size: 0x8, addend: 0x0, symName: __RNvMNtCsaNl6UpbT7bw_4core6optionINtB2_6OptionRNtNtCsc29TF2YcYso_3syn4data5FieldE6expectCs7IQ6Ulc8Ywk_14zerovec_derive, symObjAddr: 0x1440, symBinAddr: 0x3092C, symSize: 0x5C }
  - { offset: 0x8FFF6, size: 0x8, addend: 0x0, symName: __RNvMNtCsaNl6UpbT7bw_4core6optionINtB2_6OptionRNtNtCsc29TF2YcYso_3syn4data5FieldE7is_noneCs7IQ6Ulc8Ywk_14zerovec_derive, symObjAddr: 0x149C, symBinAddr: 0x30988, symSize: 0x28 }
  - { offset: 0x9005A, size: 0x8, addend: 0x0, symName: __RNvMNtCsaNl6UpbT7bw_4core6optionINtB2_6OptionRNtNtCsc29TF2YcYso_3syn8generics10ConstParamE7is_someCs7IQ6Ulc8Ywk_14zerovec_derive, symObjAddr: 0x14C4, symBinAddr: 0x309B0, symSize: 0x28 }
  - { offset: 0x90093, size: 0x8, addend: 0x0, symName: __RNvMNtCsaNl6UpbT7bw_4core6optionINtB2_6OptionRNtNtCsc29TF2YcYso_3syn8generics13LifetimeParamE7is_someCs7IQ6Ulc8Ywk_14zerovec_derive, symObjAddr: 0x14EC, symBinAddr: 0x309D8, symSize: 0x28 }
  - { offset: 0x900D9, size: 0x8, addend: 0x0, symName: __RNvMNtCsaNl6UpbT7bw_4core6optionINtB2_6OptionRNtNtCsc29TF2YcYso_3syn8generics9TypeParamE7is_someCs7IQ6Ulc8Ywk_14zerovec_derive, symObjAddr: 0x1514, symBinAddr: 0x30A00, symSize: 0x28 }
  - { offset: 0x90112, size: 0x8, addend: 0x0, symName: __RNvMNtCsaNl6UpbT7bw_4core6optionINtB2_6OptionRNtNtCsc29TF2YcYso_3syn8lifetime8LifetimeE6as_refCs7IQ6Ulc8Ywk_14zerovec_derive, symObjAddr: 0x153C, symBinAddr: 0x30A28, symSize: 0x4C }
  - { offset: 0x90178, size: 0x8, addend: 0x0, symName: __RNvMNtCsaNl6UpbT7bw_4core6optionINtB2_6OptionRNtNtCsc29TF2YcYso_3syn8lifetime8LifetimeE7is_noneCs7IQ6Ulc8Ywk_14zerovec_derive, symObjAddr: 0x1588, symBinAddr: 0x30A74, symSize: 0x28 }
  - { offset: 0x901C2, size: 0x8, addend: 0x0, symName: __RNvMNtCsaNl6UpbT7bw_4core6optionINtB2_6OptionRNtNtCsc29TF2YcYso_3syn8lifetime8LifetimeE7is_someCs7IQ6Ulc8Ywk_14zerovec_derive, symObjAddr: 0x15B0, symBinAddr: 0x30A9C, symSize: 0x28 }
  - { offset: 0x901EE, size: 0x8, addend: 0x0, symName: __RNvMNtCsaNl6UpbT7bw_4core6optionINtB2_6OptionhE9unwrap_orCs7IQ6Ulc8Ywk_14zerovec_derive, symObjAddr: 0x15D8, symBinAddr: 0x30AC4, symSize: 0x48 }
  - { offset: 0x90262, size: 0x8, addend: 0x0, symName: __RNvMNtCsc29TF2YcYso_3syn5dropsINtB2_6NoDropINtNtB4_10punctuated11PrivateIterNtCshnvkK9b4wzu_11proc_macro25IdentNtNtB4_5token5CommaEE3newCs7IQ6Ulc8Ywk_14zerovec_derive, symObjAddr: 0x1620, symBinAddr: 0x30B0C, symSize: 0x40 }
  - { offset: 0x902C5, size: 0x8, addend: 0x0, symName: __RNvMNtCsc29TF2YcYso_3syn5dropsINtB2_6NoDropINtNtB4_10punctuated11PrivateIterNtNtB4_4data7VariantNtNtB4_5token5CommaEE3newCs7IQ6Ulc8Ywk_14zerovec_derive, symObjAddr: 0x1660, symBinAddr: 0x30B4C, symSize: 0x40 }
  - { offset: 0x90328, size: 0x8, addend: 0x0, symName: __RNvMNtCsc29TF2YcYso_3syn5dropsINtB2_6NoDropINtNtB4_10punctuated11PrivateIterNtNtB4_4path15GenericArgumentNtNtB4_5token5CommaEE3newCs7IQ6Ulc8Ywk_14zerovec_derive, symObjAddr: 0x16A0, symBinAddr: 0x30B8C, symSize: 0x40 }
  - { offset: 0x904F0, size: 0x8, addend: 0x0, symName: __RNvMNtCsiTraAjBDcu4_5alloc5allocNtB2_6Global10alloc_implCs7IQ6Ulc8Ywk_14zerovec_derive, symObjAddr: 0x16E0, symBinAddr: 0x30BCC, symSize: 0x204 }
  - { offset: 0x9093F, size: 0x8, addend: 0x0, symName: __RNvMNtNtNtCsg4dki62PTrg_9hashbrown7control5group4neonNtB2_5Group10match_fullCs7IQ6Ulc8Ywk_14zerovec_derive, symObjAddr: 0x18E4, symBinAddr: 0x30DD0, symSize: 0x68 }
  - { offset: 0x90977, size: 0x8, addend: 0x0, symName: __RNvMNtNtNtCsg4dki62PTrg_9hashbrown7control5group4neonNtB2_5Group22match_empty_or_deletedCs7IQ6Ulc8Ywk_14zerovec_derive, symObjAddr: 0x194C, symBinAddr: 0x30E38, symSize: 0x68 }
  - { offset: 0x909AF, size: 0x8, addend: 0x0, symName: __RNvMNtNtNtCsg4dki62PTrg_9hashbrown7control5group4neonNtB2_5Group44convert_special_to_empty_and_full_to_deletedCs7IQ6Ulc8Ywk_14zerovec_derive, symObjAddr: 0x19B4, symBinAddr: 0x30EA0, symSize: 0x88 }
  - { offset: 0x909E7, size: 0x8, addend: 0x0, symName: __RNvMNtNtNtCsg4dki62PTrg_9hashbrown7control5group4neonNtB2_5Group9match_tagCs7IQ6Ulc8Ywk_14zerovec_derive, symObjAddr: 0x1A3C, symBinAddr: 0x30F28, symSize: 0x7C }
  - { offset: 0x90A35, size: 0x8, addend: 0x0, symName: __RNvMs0_NtCsaNl6UpbT7bw_4core6optionINtB5_6OptionRNtCshnvkK9b4wzu_11proc_macro25IdentE6clonedCs7IQ6Ulc8Ywk_14zerovec_derive, symObjAddr: 0x1AB8, symBinAddr: 0x30FA4, symSize: 0x6C }
  - { offset: 0x90AD1, size: 0x8, addend: 0x0, symName: __RNvMs0_NtCsiTraAjBDcu4_5alloc7raw_vecINtB5_6RawVecINtNtCsaNl6UpbT7bw_4core6option6OptionNtCshnvkK9b4wzu_11proc_macro25IdentEE8grow_oneCs7IQ6Ulc8Ywk_14zerovec_derive, symObjAddr: 0x1B24, symBinAddr: 0x31010, symSize: 0x90 }
  - { offset: 0x90B7F, size: 0x8, addend: 0x0, symName: __RNvMs0_NtCsiTraAjBDcu4_5alloc7raw_vecINtB5_6RawVecNtCshnvkK9b4wzu_11proc_macro211TokenStreamE8grow_oneCs7IQ6Ulc8Ywk_14zerovec_derive, symObjAddr: 0x1BB4, symBinAddr: 0x310A0, symSize: 0x90 }
  - { offset: 0x90C3A, size: 0x8, addend: 0x0, symName: __RNvMs0_NtCsiTraAjBDcu4_5alloc7raw_vecINtB5_6RawVecNtNtCs7IQ6Ulc8Ywk_14zerovec_derive11make_varule12UnsizedFieldE8grow_oneBQ_, symObjAddr: 0x1C44, symBinAddr: 0x31130, symSize: 0x90 }
  - { offset: 0x90CE8, size: 0x8, addend: 0x0, symName: __RNvMs0_NtCsiTraAjBDcu4_5alloc7raw_vecINtB5_6RawVecNtNtCs7IQ6Ulc8Ywk_14zerovec_derive5utils9FieldInfoE8grow_oneBQ_, symObjAddr: 0x1CD4, symBinAddr: 0x311C0, symSize: 0x90 }
  - { offset: 0x90D96, size: 0x8, addend: 0x0, symName: __RNvMs0_NtCsiTraAjBDcu4_5alloc7raw_vecINtB5_6RawVecTNtCshnvkK9b4wzu_11proc_macro25IdentNtNtCsc29TF2YcYso_3syn5token5CommaEE8grow_oneCs7IQ6Ulc8Ywk_14zerovec_derive, symObjAddr: 0x1D64, symBinAddr: 0x31250, symSize: 0x90 }
  - { offset: 0x90F0F, size: 0x8, addend: 0x0, symName: __RNvXNtCs4EAaWzSXu1l_5quote9to_tokensRINtNtCsaNl6UpbT7bw_4core6option6OptionNtCshnvkK9b4wzu_11proc_macro211TokenStreamENtB2_8ToTokens9to_tokensCs7IQ6Ulc8Ywk_14zerovec_derive, symObjAddr: 0x281C, symBinAddr: 0x31D08, symSize: 0x40 }
  - { offset: 0x90F4E, size: 0x8, addend: 0x0, symName: __RNvXNtCs4EAaWzSXu1l_5quote9to_tokensRNtCshnvkK9b4wzu_11proc_macro211TokenStreamNtB2_8ToTokens9to_tokensCs7IQ6Ulc8Ywk_14zerovec_derive, symObjAddr: 0x285C, symBinAddr: 0x31D48, symSize: 0x40 }
  - { offset: 0x90F8D, size: 0x8, addend: 0x0, symName: __RNvXNtCs4EAaWzSXu1l_5quote9to_tokensRNtCshnvkK9b4wzu_11proc_macro25IdentNtB2_8ToTokens9to_tokensCs7IQ6Ulc8Ywk_14zerovec_derive, symObjAddr: 0x289C, symBinAddr: 0x31D88, symSize: 0x40 }
  - { offset: 0x90FCC, size: 0x8, addend: 0x0, symName: __RNvXNtCs4EAaWzSXu1l_5quote9to_tokensRNtNtCsc29TF2YcYso_3syn11restriction10VisibilityNtB2_8ToTokens9to_tokensCs7IQ6Ulc8Ywk_14zerovec_derive, symObjAddr: 0x28DC, symBinAddr: 0x31DC8, symSize: 0x40 }
  - { offset: 0x91011, size: 0x8, addend: 0x0, symName: __RNvXs3_NtCs4EAaWzSXu1l_5quote9to_tokensINtNtCsaNl6UpbT7bw_4core6option6OptionNtCshnvkK9b4wzu_11proc_macro211TokenStreamENtB5_8ToTokens9to_tokensCs7IQ6Ulc8Ywk_14zerovec_derive, symObjAddr: 0x2FD4, symBinAddr: 0x324C0, symSize: 0x84 }
  - { offset: 0x91073, size: 0x8, addend: 0x0, symName: __RNvYNtCshnvkK9b4wzu_11proc_macro25IdentNtNtCs4EAaWzSXu1l_5quote9to_tokens8ToTokens15to_token_streamCs7IQ6Ulc8Ywk_14zerovec_derive, symObjAddr: 0x4BC8, symBinAddr: 0x340B4, symSize: 0x8C }
  - { offset: 0x910BD, size: 0x8, addend: 0x0, symName: __RNvYNtCshnvkK9b4wzu_11proc_macro25IdentNtNtCs4EAaWzSXu1l_5quote9to_tokens8ToTokens17into_token_streamCs7IQ6Ulc8Ywk_14zerovec_derive, symObjAddr: 0x4C54, symBinAddr: 0x34140, symSize: 0x64 }
  - { offset: 0x910F3, size: 0x8, addend: 0x0, symName: __RNvYNtNtCsc29TF2YcYso_3syn11restriction10VisibilityNtNtCs4EAaWzSXu1l_5quote9to_tokens8ToTokens15to_token_streamCs7IQ6Ulc8Ywk_14zerovec_derive, symObjAddr: 0x4CB8, symBinAddr: 0x341A4, symSize: 0x8C }
  - { offset: 0x9113D, size: 0x8, addend: 0x0, symName: __RNvYRNtCshnvkK9b4wzu_11proc_macro211TokenStreamNtNtCs4EAaWzSXu1l_5quote9to_tokens8ToTokens15to_token_streamCs7IQ6Ulc8Ywk_14zerovec_derive, symObjAddr: 0x4E54, symBinAddr: 0x34340, symSize: 0x8C }
  - { offset: 0x91187, size: 0x8, addend: 0x0, symName: __RNvYRNtCshnvkK9b4wzu_11proc_macro211TokenStreamNtNtCs4EAaWzSXu1l_5quote9to_tokens8ToTokens17into_token_streamCs7IQ6Ulc8Ywk_14zerovec_derive, symObjAddr: 0x4EE0, symBinAddr: 0x343CC, symSize: 0x54 }
  - { offset: 0x911C8, size: 0x8, addend: 0x0, symName: __RNvXs0_NtCs4EAaWzSXu1l_5quote7spannedNtCshnvkK9b4wzu_11proc_macro211TokenStreamNtB5_7Spanned6___spanCs7IQ6Ulc8Ywk_14zerovec_derive, symObjAddr: 0x29B4, symBinAddr: 0x31EA0, symSize: 0x44 }
  - { offset: 0x9120E, size: 0x8, addend: 0x0, symName: __RNvXs2_NtNtCs4EAaWzSXu1l_5quote9___private3extSNtCshnvkK9b4wzu_11proc_macro211TokenStreamNtB5_16RepAsIteratorExt15quote_into_iterCs7IQ6Ulc8Ywk_14zerovec_derive, symObjAddr: 0x2F9C, symBinAddr: 0x32488, symSize: 0x38 }
  - { offset: 0x91249, size: 0x8, addend: 0x0, symName: __RNvYINtNtNtNtCsaNl6UpbT7bw_4core4iter8adapters3map3MapINtNtB7_9enumerate9EnumerateINtNtNtBb_5slice4iter4IterNtNtCs7IQ6Ulc8Ywk_14zerovec_derive11make_varule12UnsizedFieldEENCNvMB1K_NtB1K_13UnsizedFields19maybe_multi_getters0ENtNtNtCs4EAaWzSXu1l_5quote9___private3ext14RepIteratorExt15quote_into_iterB1M_, symObjAddr: 0x4B78, symBinAddr: 0x34064, symSize: 0x24 }
  - { offset: 0x9127E, size: 0x8, addend: 0x0, symName: __RNvYINtNtNtNtCsaNl6UpbT7bw_4core4iter8adapters3map3MapINtNtNtBb_5slice4iter4IterNtNtCs7IQ6Ulc8Ywk_14zerovec_derive5utils9FieldInfoENCNvNtB1k_6varule11derive_impl0ENtNtNtCs4EAaWzSXu1l_5quote9___private3ext14RepIteratorExt15quote_into_iterB1k_, symObjAddr: 0x4B9C, symBinAddr: 0x34088, symSize: 0x2C }
  - { offset: 0x91B2E, size: 0x8, addend: 0x0, symName: __RNvNtCs7IQ6Ulc8Ywk_14zerovec_derive8make_ule13make_ule_impl, symObjAddr: 0x0, symBinAddr: 0x34420, symSize: 0x119C }
  - { offset: 0x92480, size: 0x8, addend: 0x0, symName: __RNvNtCs7IQ6Ulc8Ywk_14zerovec_derive8make_ule13make_ule_impl, symObjAddr: 0x0, symBinAddr: 0x34420, symSize: 0x119C }
  - { offset: 0x92663, size: 0x8, addend: 0x0, symName: __RNvNtCs7IQ6Ulc8Ywk_14zerovec_derive8make_ule18make_ule_enum_impl, symObjAddr: 0x119C, symBinAddr: 0x355BC, symSize: 0x262C }
  - { offset: 0x92C79, size: 0x8, addend: 0x0, symName: __RNvNtCs7IQ6Ulc8Ywk_14zerovec_derive8make_ule12get_expr_int, symObjAddr: 0x37C8, symBinAddr: 0x37BE8, symSize: 0x158 }
  - { offset: 0x92CD0, size: 0x8, addend: 0x0, symName: __RNvNtCs7IQ6Ulc8Ywk_14zerovec_derive8make_ule20make_ule_struct_impl, symObjAddr: 0x3920, symBinAddr: 0x37D40, symSize: 0x2C84 }
  - { offset: 0x9BCD4, size: 0x8, addend: 0x0, symName: __RINvXNvMNtCsiTraAjBDcu4_5alloc5sliceSp9to_vec_inNtNtCsc29TF2YcYso_3syn4item11ForeignItemNtB3_10ConvertVec6to_vecNtNtB8_5alloc6GlobalEBO_, symObjAddr: 0x0, symBinAddr: 0x3A9DC, symSize: 0x374 }
  - { offset: 0x9D24B, size: 0x8, addend: 0x0, symName: __RNvXNtNtCsc29TF2YcYso_3syn4item7parsingNtB4_4ItemNtNtB6_5parse5Parse5parse, symObjAddr: 0x35A4, symBinAddr: 0x3C744, symSize: 0x1B4 }
  - { offset: 0x9D2F1, size: 0x8, addend: 0x0, symName: __RNvXs0_NtNtCsc29TF2YcYso_3syn4item7parsingNtB7_9ItemMacroNtNtB9_5parse5Parse5parse, symObjAddr: 0x3758, symBinAddr: 0x3C8F8, symSize: 0x628 }
  - { offset: 0x9D4BF, size: 0x8, addend: 0x0, symName: __RNvXs1_NtNtCsc29TF2YcYso_3syn4item7parsingNtB7_15ItemExternCrateNtNtB9_5parse5Parse5parse, symObjAddr: 0x3D80, symBinAddr: 0x3CF20, symSize: 0x93C }
  - { offset: 0x9D6C9, size: 0x8, addend: 0x0, symName: __RNvXs3_NtNtCsc29TF2YcYso_3syn4item7parsingNtB7_7UseTreeNtNtB9_5parse5Parse5parse, symObjAddr: 0x4714, symBinAddr: 0x3D85C, symSize: 0x58 }
  - { offset: 0x9D71B, size: 0x8, addend: 0x0, symName: __RNvXs6_NtNtCsc29TF2YcYso_3syn4item7parsingNtB7_9SignatureNtNtB9_5parse5Parse5parse, symObjAddr: 0x5C94, symBinAddr: 0x3D8B4, symSize: 0x60 }
  - { offset: 0x9D76D, size: 0x8, addend: 0x0, symName: __RNvXs9_NtNtCsc29TF2YcYso_3syn4item7parsingNtB7_8ReceiverNtNtB9_5parse5Parse5parse, symObjAddr: 0x6324, symBinAddr: 0x3D914, symSize: 0x94C }
  - { offset: 0x9D9CE, size: 0x8, addend: 0x0, symName: __RNvXsa_NtNtCsc29TF2YcYso_3syn4item7parsingNtB7_7ItemModNtNtB9_5parse5Parse5parse, symObjAddr: 0x6C70, symBinAddr: 0x3E260, symSize: 0xC34 }
  - { offset: 0x9DC31, size: 0x8, addend: 0x0, symName: __RNvXsb_NtNtCsc29TF2YcYso_3syn4item7parsingNtB7_14ItemForeignModNtNtB9_5parse5Parse5parse, symObjAddr: 0x78A4, symBinAddr: 0x3EE94, symSize: 0x610 }
  - { offset: 0x9DDE2, size: 0x8, addend: 0x0, symName: __RNvXsc_NtNtCsc29TF2YcYso_3syn4item7parsingNtB7_11ForeignItemNtNtB9_5parse5Parse5parse, symObjAddr: 0x7EB4, symBinAddr: 0x3F4A4, symSize: 0x1D8C }
  - { offset: 0x9E452, size: 0x8, addend: 0x0, symName: __RNvXsg_NtNtCsc29TF2YcYso_3syn4item7parsingNtB7_16ForeignItemMacroNtNtB9_5parse5Parse5parse, symObjAddr: 0xAF68, symBinAddr: 0x41230, symSize: 0x32C }
  - { offset: 0x9E566, size: 0x8, addend: 0x0, symName: __RNvXsi_NtNtCsc29TF2YcYso_3syn4item7parsingNtB7_10ItemStructNtNtB9_5parse5Parse5parse, symObjAddr: 0xBC6C, symBinAddr: 0x4155C, symSize: 0x638 }
  - { offset: 0x9E763, size: 0x8, addend: 0x0, symName: __RNvXsj_NtNtCsc29TF2YcYso_3syn4item7parsingNtB7_8ItemEnumNtNtB9_5parse5Parse5parse, symObjAddr: 0xC2A4, symBinAddr: 0x41B94, symSize: 0x63C }
  - { offset: 0x9E960, size: 0x8, addend: 0x0, symName: __RNvXsk_NtNtCsc29TF2YcYso_3syn4item7parsingNtB7_9ItemUnionNtNtB9_5parse5Parse5parse, symObjAddr: 0xC8E0, symBinAddr: 0x421D0, symSize: 0x62C }
  - { offset: 0x9EB4C, size: 0x8, addend: 0x0, symName: __RNvXsl_NtNtCsc29TF2YcYso_3syn4item7parsingNtB7_9ItemTraitNtNtB9_5parse5Parse5parse, symObjAddr: 0xCF0C, symBinAddr: 0x427FC, symSize: 0x634 }
  - { offset: 0x9ED53, size: 0x8, addend: 0x0, symName: __RNvXsn_NtNtCsc29TF2YcYso_3syn4item7parsingNtB7_9TraitItemNtNtB9_5parse5Parse5parse, symObjAddr: 0xD7B0, symBinAddr: 0x42E30, symSize: 0x1648 }
  - { offset: 0x9F1C7, size: 0x8, addend: 0x0, symName: __RNvXsp_NtNtCsc29TF2YcYso_3syn4item7parsingNtB7_11TraitItemFnNtNtB9_5parse5Parse5parse, symObjAddr: 0xF66C, symBinAddr: 0x44478, symSize: 0x7DC }
  - { offset: 0x9F3D3, size: 0x8, addend: 0x0, symName: __RNvXsr_NtNtCsc29TF2YcYso_3syn4item7parsingNtB7_14TraitItemMacroNtNtB9_5parse5Parse5parse, symObjAddr: 0x1056C, symBinAddr: 0x44C54, symSize: 0x32C }
  - { offset: 0x9F4E7, size: 0x8, addend: 0x0, symName: __RNvXst_NtNtCsc29TF2YcYso_3syn4item7parsingNtB7_8ImplItemNtNtB9_5parse5Parse5parse, symObjAddr: 0x108F8, symBinAddr: 0x44F80, symSize: 0x1A6C }
  - { offset: 0x9FA11, size: 0x8, addend: 0x0, symName: __RNvXsx_NtNtCsc29TF2YcYso_3syn4item7parsingNtB7_13ImplItemMacroNtNtB9_5parse5Parse5parse, symObjAddr: 0x135D4, symBinAddr: 0x469EC, symSize: 0x32C }
  - { offset: 0x9FB25, size: 0x8, addend: 0x0, symName: __RNvXsz_NtNtCsc29TF2YcYso_3syn4item7parsingNtB7_16StaticMutabilityNtNtB9_5parse5Parse5parse, symObjAddr: 0x13900, symBinAddr: 0x46D18, symSize: 0xDC }
  - { offset: 0x9FB9B, size: 0x8, addend: 0x0, symName: __RNvXNtNtCsc29TF2YcYso_3syn4item8printingNtB4_15ItemExternCrateNtNtCs4EAaWzSXu1l_5quote9to_tokens8ToTokens9to_tokens, symObjAddr: 0x139DC, symBinAddr: 0x46DF4, symSize: 0x10C }
  - { offset: 0x9FC08, size: 0x8, addend: 0x0, symName: __RNvXs_NtNtCsc29TF2YcYso_3syn4item8printingNtB6_7ItemUseNtNtCs4EAaWzSXu1l_5quote9to_tokens8ToTokens9to_tokens, symObjAddr: 0x13AE8, symBinAddr: 0x46F00, symSize: 0xA4 }
  - { offset: 0x9FC47, size: 0x8, addend: 0x0, symName: __RNvXs0_NtNtCsc29TF2YcYso_3syn4item8printingNtB7_10ItemStaticNtNtCs4EAaWzSXu1l_5quote9to_tokens8ToTokens9to_tokens, symObjAddr: 0x13B8C, symBinAddr: 0x46FA4, symSize: 0xE4 }
  - { offset: 0x9FC86, size: 0x8, addend: 0x0, symName: __RNvXs1_NtNtCsc29TF2YcYso_3syn4item8printingNtB7_9ItemConstNtNtCs4EAaWzSXu1l_5quote9to_tokens8ToTokens9to_tokens, symObjAddr: 0x13C70, symBinAddr: 0x47088, symSize: 0xD4 }
  - { offset: 0x9FCC5, size: 0x8, addend: 0x0, symName: __RNvXs2_NtNtCsc29TF2YcYso_3syn4item8printingNtB7_6ItemFnNtNtCs4EAaWzSXu1l_5quote9to_tokens8ToTokens9to_tokens, symObjAddr: 0x13D44, symBinAddr: 0x4715C, symSize: 0xDC }
  - { offset: 0x9FD04, size: 0x8, addend: 0x0, symName: __RNvXs3_NtNtCsc29TF2YcYso_3syn4item8printingNtB7_7ItemModNtNtCs4EAaWzSXu1l_5quote9to_tokens8ToTokens9to_tokens, symObjAddr: 0x13E20, symBinAddr: 0x47238, symSize: 0x10C }
  - { offset: 0x9FD71, size: 0x8, addend: 0x0, symName: __RNvXs4_NtNtCsc29TF2YcYso_3syn4item8printingNtB7_14ItemForeignModNtNtCs4EAaWzSXu1l_5quote9to_tokens8ToTokens9to_tokens, symObjAddr: 0x13F2C, symBinAddr: 0x47344, symSize: 0x88 }
  - { offset: 0x9FDB0, size: 0x8, addend: 0x0, symName: __RNvXs5_NtNtCsc29TF2YcYso_3syn4item8printingNtB7_8ItemTypeNtNtCs4EAaWzSXu1l_5quote9to_tokens8ToTokens9to_tokens, symObjAddr: 0x13FB4, symBinAddr: 0x473CC, symSize: 0xD4 }
  - { offset: 0x9FDEF, size: 0x8, addend: 0x0, symName: __RNvXs6_NtNtCsc29TF2YcYso_3syn4item8printingNtB7_8ItemEnumNtNtCs4EAaWzSXu1l_5quote9to_tokens8ToTokens9to_tokens, symObjAddr: 0x14088, symBinAddr: 0x474A0, symSize: 0xB8 }
  - { offset: 0x9FE2E, size: 0x8, addend: 0x0, symName: __RNvXs7_NtNtCsc29TF2YcYso_3syn4item8printingNtB7_10ItemStructNtNtCs4EAaWzSXu1l_5quote9to_tokens8ToTokens9to_tokens, symObjAddr: 0x14140, symBinAddr: 0x47558, symSize: 0x188 }
  - { offset: 0x9FEA9, size: 0x8, addend: 0x0, symName: __RNvXs8_NtNtCsc29TF2YcYso_3syn4item8printingNtB7_9ItemUnionNtNtCs4EAaWzSXu1l_5quote9to_tokens8ToTokens9to_tokens, symObjAddr: 0x142C8, symBinAddr: 0x476E0, symSize: 0xB4 }
  - { offset: 0x9FEE8, size: 0x8, addend: 0x0, symName: __RNvXs9_NtNtCsc29TF2YcYso_3syn4item8printingNtB7_9ItemTraitNtNtCs4EAaWzSXu1l_5quote9to_tokens8ToTokens9to_tokens, symObjAddr: 0x1437C, symBinAddr: 0x47794, symSize: 0x130 }
  - { offset: 0x9FF27, size: 0x8, addend: 0x0, symName: __RNvXsa_NtNtCsc29TF2YcYso_3syn4item8printingNtB7_14ItemTraitAliasNtNtCs4EAaWzSXu1l_5quote9to_tokens8ToTokens9to_tokens, symObjAddr: 0x144AC, symBinAddr: 0x478C4, symSize: 0xD4 }
  - { offset: 0x9FF66, size: 0x8, addend: 0x0, symName: __RNvXsb_NtNtCsc29TF2YcYso_3syn4item8printingNtB7_8ItemImplNtNtCs4EAaWzSXu1l_5quote9to_tokens8ToTokens9to_tokens, symObjAddr: 0x14580, symBinAddr: 0x47998, symSize: 0x148 }
  - { offset: 0x9FFE3, size: 0x8, addend: 0x0, symName: __RNvXsc_NtNtCsc29TF2YcYso_3syn4item8printingNtB7_9ItemMacroNtNtCs4EAaWzSXu1l_5quote9to_tokens8ToTokens9to_tokens, symObjAddr: 0x146C8, symBinAddr: 0x47AE0, symSize: 0x148 }
  - { offset: 0xA0074, size: 0x8, addend: 0x0, symName: __RNvXsd_NtNtCsc29TF2YcYso_3syn4item8printingNtB7_7UsePathNtNtCs4EAaWzSXu1l_5quote9to_tokens8ToTokens9to_tokens, symObjAddr: 0x14810, symBinAddr: 0x47C28, symSize: 0x60 }
  - { offset: 0xA00B3, size: 0x8, addend: 0x0, symName: __RNvXse_NtNtCsc29TF2YcYso_3syn4item8printingNtB7_7UseNameNtNtCs4EAaWzSXu1l_5quote9to_tokens8ToTokens9to_tokens, symObjAddr: 0x14870, symBinAddr: 0x47C88, symSize: 0x3C }
  - { offset: 0xA00F2, size: 0x8, addend: 0x0, symName: __RNvXsf_NtNtCsc29TF2YcYso_3syn4item8printingNtB7_9UseRenameNtNtCs4EAaWzSXu1l_5quote9to_tokens8ToTokens9to_tokens, symObjAddr: 0x148AC, symBinAddr: 0x47CC4, symSize: 0x60 }
  - { offset: 0xA0131, size: 0x8, addend: 0x0, symName: __RNvXsg_NtNtCsc29TF2YcYso_3syn4item8printingNtB7_7UseGlobNtNtCs4EAaWzSXu1l_5quote9to_tokens8ToTokens9to_tokens, symObjAddr: 0x1490C, symBinAddr: 0x47D24, symSize: 0x3C }
  - { offset: 0xA0170, size: 0x8, addend: 0x0, symName: __RNvXsh_NtNtCsc29TF2YcYso_3syn4item8printingNtB7_8UseGroupNtNtCs4EAaWzSXu1l_5quote9to_tokens8ToTokens9to_tokens, symObjAddr: 0x14948, symBinAddr: 0x47D60, symSize: 0x44 }
  - { offset: 0xA01AF, size: 0x8, addend: 0x0, symName: __RNvXsi_NtNtCsc29TF2YcYso_3syn4item8printingNtB7_14TraitItemConstNtNtCs4EAaWzSXu1l_5quote9to_tokens8ToTokens9to_tokens, symObjAddr: 0x1498C, symBinAddr: 0x47DA4, symSize: 0x10C }
  - { offset: 0xA021C, size: 0x8, addend: 0x0, symName: __RNvXsj_NtNtCsc29TF2YcYso_3syn4item8printingNtB7_11TraitItemFnNtNtCs4EAaWzSXu1l_5quote9to_tokens8ToTokens9to_tokens, symObjAddr: 0x14A98, symBinAddr: 0x47EB0, symSize: 0xD4 }
  - { offset: 0xA0279, size: 0x8, addend: 0x0, symName: __RNvXsk_NtNtCsc29TF2YcYso_3syn4item8printingNtB7_13TraitItemTypeNtNtCs4EAaWzSXu1l_5quote9to_tokens8ToTokens9to_tokens, symObjAddr: 0x14B6C, symBinAddr: 0x47F84, symSize: 0x164 }
  - { offset: 0xA02E6, size: 0x8, addend: 0x0, symName: __RNvXsl_NtNtCsc29TF2YcYso_3syn4item8printingNtB7_14TraitItemMacroNtNtCs4EAaWzSXu1l_5quote9to_tokens8ToTokens9to_tokens, symObjAddr: 0x14CD0, symBinAddr: 0x480E8, symSize: 0x74 }
  - { offset: 0xA0325, size: 0x8, addend: 0x0, symName: __RNvXsm_NtNtCsc29TF2YcYso_3syn4item8printingNtB7_13ImplItemConstNtNtCs4EAaWzSXu1l_5quote9to_tokens8ToTokens9to_tokens, symObjAddr: 0x14D44, symBinAddr: 0x4815C, symSize: 0xE4 }
  - { offset: 0xA0364, size: 0x8, addend: 0x0, symName: __RNvXsn_NtNtCsc29TF2YcYso_3syn4item8printingNtB7_10ImplItemFnNtNtCs4EAaWzSXu1l_5quote9to_tokens8ToTokens9to_tokens, symObjAddr: 0x14E28, symBinAddr: 0x48240, symSize: 0x98 }
  - { offset: 0xA03A3, size: 0x8, addend: 0x0, symName: __RNvXso_NtNtCsc29TF2YcYso_3syn4item8printingNtB7_12ImplItemTypeNtNtCs4EAaWzSXu1l_5quote9to_tokens8ToTokens9to_tokens, symObjAddr: 0x14EC0, symBinAddr: 0x482D8, symSize: 0xE4 }
  - { offset: 0xA03E2, size: 0x8, addend: 0x0, symName: __RNvXsp_NtNtCsc29TF2YcYso_3syn4item8printingNtB7_13ImplItemMacroNtNtCs4EAaWzSXu1l_5quote9to_tokens8ToTokens9to_tokens, symObjAddr: 0x14FA4, symBinAddr: 0x483BC, symSize: 0x74 }
  - { offset: 0xA0421, size: 0x8, addend: 0x0, symName: __RNvXsq_NtNtCsc29TF2YcYso_3syn4item8printingNtB7_13ForeignItemFnNtNtCs4EAaWzSXu1l_5quote9to_tokens8ToTokens9to_tokens, symObjAddr: 0x15018, symBinAddr: 0x48430, symSize: 0x84 }
  - { offset: 0xA0460, size: 0x8, addend: 0x0, symName: __RNvXsr_NtNtCsc29TF2YcYso_3syn4item8printingNtB7_17ForeignItemStaticNtNtCs4EAaWzSXu1l_5quote9to_tokens8ToTokens9to_tokens, symObjAddr: 0x1509C, symBinAddr: 0x484B4, symSize: 0xC4 }
  - { offset: 0xA049F, size: 0x8, addend: 0x0, symName: __RNvXss_NtNtCsc29TF2YcYso_3syn4item8printingNtB7_15ForeignItemTypeNtNtCs4EAaWzSXu1l_5quote9to_tokens8ToTokens9to_tokens, symObjAddr: 0x15160, symBinAddr: 0x48578, symSize: 0xB4 }
  - { offset: 0xA04DE, size: 0x8, addend: 0x0, symName: __RNvXst_NtNtCsc29TF2YcYso_3syn4item8printingNtB7_16ForeignItemMacroNtNtCs4EAaWzSXu1l_5quote9to_tokens8ToTokens9to_tokens, symObjAddr: 0x15214, symBinAddr: 0x4862C, symSize: 0x74 }
  - { offset: 0xA051D, size: 0x8, addend: 0x0, symName: __RNvXsu_NtNtCsc29TF2YcYso_3syn4item8printingNtB7_9SignatureNtNtCs4EAaWzSXu1l_5quote9to_tokens8ToTokens9to_tokens, symObjAddr: 0x15288, symBinAddr: 0x486A0, symSize: 0xD4 }
  - { offset: 0xA055C, size: 0x8, addend: 0x0, symName: __RNvXsv_NtNtCsc29TF2YcYso_3syn4item8printingNtB7_8ReceiverNtNtCs4EAaWzSXu1l_5quote9to_tokens8ToTokens9to_tokens, symObjAddr: 0x1535C, symBinAddr: 0x48774, symSize: 0x450 }
  - { offset: 0xA0654, size: 0x8, addend: 0x0, symName: __RNvXsw_NtNtCsc29TF2YcYso_3syn4item8printingNtB7_8VariadicNtNtCs4EAaWzSXu1l_5quote9to_tokens8ToTokens9to_tokens, symObjAddr: 0x157AC, symBinAddr: 0x48BC4, symSize: 0xDC }
  - { offset: 0xA06C1, size: 0x8, addend: 0x0, symName: __RNvXsx_NtNtCsc29TF2YcYso_3syn4item8printingNtB7_16StaticMutabilityNtNtCs4EAaWzSXu1l_5quote9to_tokens8ToTokens9to_tokens, symObjAddr: 0x15888, symBinAddr: 0x48CA0, symSize: 0x84 }
  - { offset: 0xA0724, size: 0x8, addend: 0x0, symName: __RNcNtNtNtCsc29TF2YcYso_3syn4item4Item4Enum0B7_, symObjAddr: 0x1590C, symBinAddr: 0x48D24, symSize: 0x3C }
  - { offset: 0xA0753, size: 0x8, addend: 0x0, symName: __RNcNtNtNtCsc29TF2YcYso_3syn4item4Item11ExternCrate0B7_, symObjAddr: 0x15948, symBinAddr: 0x48D60, symSize: 0x3C }
  - { offset: 0xA0782, size: 0x8, addend: 0x0, symName: __RNcNtNtNtCsc29TF2YcYso_3syn4item4Item2Fn0B7_, symObjAddr: 0x15984, symBinAddr: 0x48D9C, symSize: 0x30 }
  - { offset: 0xA07B1, size: 0x8, addend: 0x0, symName: __RNcNtNtNtCsc29TF2YcYso_3syn4item4Item10ForeignMod0B7_, symObjAddr: 0x159B4, symBinAddr: 0x48DCC, symSize: 0x3C }
  - { offset: 0xA07E0, size: 0x8, addend: 0x0, symName: __RNcNtNtNtCsc29TF2YcYso_3syn4item4Item5Macro0B7_, symObjAddr: 0x159F0, symBinAddr: 0x48E08, symSize: 0x3C }
  - { offset: 0xA080F, size: 0x8, addend: 0x0, symName: __RNcNtNtNtCsc29TF2YcYso_3syn4item4Item3Mod0B7_, symObjAddr: 0x15A2C, symBinAddr: 0x48E44, symSize: 0x3C }
  - { offset: 0xA083E, size: 0x8, addend: 0x0, symName: __RNcNtNtNtCsc29TF2YcYso_3syn4item4Item6Struct0B7_, symObjAddr: 0x15A68, symBinAddr: 0x48E80, symSize: 0x3C }
  - { offset: 0xA086D, size: 0x8, addend: 0x0, symName: __RNcNtNtNtCsc29TF2YcYso_3syn4item4Item5Trait0B7_, symObjAddr: 0x15AA4, symBinAddr: 0x48EBC, symSize: 0x3C }
  - { offset: 0xA089C, size: 0x8, addend: 0x0, symName: __RNcNtNtNtCsc29TF2YcYso_3syn4item4Item10TraitAlias0B7_, symObjAddr: 0x15AE0, symBinAddr: 0x48EF8, symSize: 0x3C }
  - { offset: 0xA08CB, size: 0x8, addend: 0x0, symName: __RNcNtNtNtCsc29TF2YcYso_3syn4item4Item5Union0B7_, symObjAddr: 0x15B1C, symBinAddr: 0x48F34, symSize: 0x3C }
  - { offset: 0xA08FB, size: 0x8, addend: 0x0, symName: __RNvXsk_NtCsc29TF2YcYso_3syn4itemNtB5_4ItemNtNtCs4EAaWzSXu1l_5quote9to_tokens8ToTokens9to_tokens, symObjAddr: 0x15FC0, symBinAddr: 0x48F70, symSize: 0x230 }
  - { offset: 0xA0B0D, size: 0x8, addend: 0x0, symName: __RNvXsq_NtCsc29TF2YcYso_3syn4itemNtB5_7UseTreeNtNtCs4EAaWzSXu1l_5quote9to_tokens8ToTokens9to_tokens, symObjAddr: 0x1633C, symBinAddr: 0x491A0, symSize: 0x10C }
  - { offset: 0xA0BDF, size: 0x8, addend: 0x0, symName: __RNcNtNtNtCsc29TF2YcYso_3syn4item11ForeignItem5Macro0B7_, symObjAddr: 0x16448, symBinAddr: 0x492AC, symSize: 0x3C }
  - { offset: 0xA0C11, size: 0x8, addend: 0x0, symName: __RNvXsv_NtCsc29TF2YcYso_3syn4itemNtB5_11ForeignItemNtNtCs4EAaWzSXu1l_5quote9to_tokens8ToTokens9to_tokens, symObjAddr: 0x165A8, symBinAddr: 0x492E8, symSize: 0x118 }
  - { offset: 0xA0CE3, size: 0x8, addend: 0x0, symName: __RNcNtNtNtCsc29TF2YcYso_3syn4item9TraitItem2Fn0B7_, symObjAddr: 0x166C0, symBinAddr: 0x49400, symSize: 0x3C }
  - { offset: 0xA0D14, size: 0x8, addend: 0x0, symName: __RNcNtNtNtCsc29TF2YcYso_3syn4item9TraitItem5Macro0B7_, symObjAddr: 0x166FC, symBinAddr: 0x4943C, symSize: 0x3C }
  - { offset: 0xA0D46, size: 0x8, addend: 0x0, symName: __RNvXsA_NtCsc29TF2YcYso_3syn4itemNtB5_9TraitItemNtNtCs4EAaWzSXu1l_5quote9to_tokens8ToTokens9to_tokens, symObjAddr: 0x1685C, symBinAddr: 0x49478, symSize: 0x118 }
  - { offset: 0xA0E18, size: 0x8, addend: 0x0, symName: __RNcNtNtNtCsc29TF2YcYso_3syn4item8ImplItem5Macro0B7_, symObjAddr: 0x16974, symBinAddr: 0x49590, symSize: 0x3C }
  - { offset: 0xA0E4A, size: 0x8, addend: 0x0, symName: __RNvXsF_NtCsc29TF2YcYso_3syn4itemNtB5_8ImplItemNtNtCs4EAaWzSXu1l_5quote9to_tokens8ToTokens9to_tokens, symObjAddr: 0x16AD4, symBinAddr: 0x495CC, symSize: 0x118 }
  - { offset: 0xA0F17, size: 0x8, addend: 0x0, symName: __RNvXsI_NtCsc29TF2YcYso_3syn4itemNtB5_5FnArgNtNtCs4EAaWzSXu1l_5quote9to_tokens8ToTokens9to_tokens, symObjAddr: 0x16C78, symBinAddr: 0x496E4, symSize: 0x8C }
  - { offset: 0xA0F92, size: 0x8, addend: 0x0, symName: __RNcNtNtNtCsc29TF2YcYso_3syn4item16StaticMutability3Mut0B7_, symObjAddr: 0x16D04, symBinAddr: 0x49770, symSize: 0x20 }
  - { offset: 0xA4A40, size: 0x8, addend: 0x0, symName: __RNvXs16_NtNtCsc29TF2YcYso_3syn3gen5cloneNtNtBa_4item5FnArgNtNtCsaNl6UpbT7bw_4core5clone5Clone5clone, symObjAddr: 0x16D24, symBinAddr: 0x49790, symSize: 0xDC }
  - { offset: 0xA4AA8, size: 0x8, addend: 0x0, symName: __RNvXs17_NtNtCsc29TF2YcYso_3syn3gen5cloneNtNtBa_4item11ForeignItemNtNtCsaNl6UpbT7bw_4core5clone5Clone5clone, symObjAddr: 0x16E00, symBinAddr: 0x4986C, symSize: 0x224 }
  - { offset: 0xA4B6A, size: 0x8, addend: 0x0, symName: __RNvXs18_NtNtCsc29TF2YcYso_3syn3gen5cloneNtNtBa_4item13ForeignItemFnNtNtCsaNl6UpbT7bw_4core5clone5Clone5clone, symObjAddr: 0x17024, symBinAddr: 0x49A90, symSize: 0x13C }
  - { offset: 0xA4B9E, size: 0x8, addend: 0x0, symName: __RNvXs19_NtNtCsc29TF2YcYso_3syn3gen5cloneNtNtBa_4item16ForeignItemMacroNtNtCsaNl6UpbT7bw_4core5clone5Clone5clone, symObjAddr: 0x17160, symBinAddr: 0x49BCC, symSize: 0xF4 }
  - { offset: 0xA4BD2, size: 0x8, addend: 0x0, symName: __RNvXs1a_NtNtCsc29TF2YcYso_3syn3gen5cloneNtNtBa_4item17ForeignItemStaticNtNtCsaNl6UpbT7bw_4core5clone5Clone5clone, symObjAddr: 0x17254, symBinAddr: 0x49CC0, symSize: 0x1DC }
  - { offset: 0xA4C06, size: 0x8, addend: 0x0, symName: __RNvXs1b_NtNtCsc29TF2YcYso_3syn3gen5cloneNtNtBa_4item15ForeignItemTypeNtNtCsaNl6UpbT7bw_4core5clone5Clone5clone, symObjAddr: 0x17430, symBinAddr: 0x49E9C, symSize: 0x198 }
  - { offset: 0xA4C3A, size: 0x8, addend: 0x0, symName: __RNvXs1f_NtNtCsc29TF2YcYso_3syn3gen5cloneNtNtBa_4item8ImplItemNtNtCsaNl6UpbT7bw_4core5clone5Clone5clone, symObjAddr: 0x175C8, symBinAddr: 0x4A034, symSize: 0x21C }
  - { offset: 0xA4CFC, size: 0x8, addend: 0x0, symName: __RNvXs1g_NtNtCsc29TF2YcYso_3syn3gen5cloneNtNtBa_4item13ImplItemConstNtNtCsaNl6UpbT7bw_4core5clone5Clone5clone, symObjAddr: 0x177E4, symBinAddr: 0x4A250, symSize: 0x2AC }
  - { offset: 0xA4D30, size: 0x8, addend: 0x0, symName: __RNvXs1h_NtNtCsc29TF2YcYso_3syn3gen5cloneNtNtBa_4item10ImplItemFnNtNtCsaNl6UpbT7bw_4core5clone5Clone5clone, symObjAddr: 0x17A90, symBinAddr: 0x4A4FC, symSize: 0x160 }
  - { offset: 0xA4D64, size: 0x8, addend: 0x0, symName: __RNvXs1i_NtNtCsc29TF2YcYso_3syn3gen5cloneNtNtBa_4item13ImplItemMacroNtNtCsaNl6UpbT7bw_4core5clone5Clone5clone, symObjAddr: 0x17BF0, symBinAddr: 0x4A65C, symSize: 0xF4 }
  - { offset: 0xA4D98, size: 0x8, addend: 0x0, symName: __RNvXs1j_NtNtCsc29TF2YcYso_3syn3gen5cloneNtNtBa_4item12ImplItemTypeNtNtCsaNl6UpbT7bw_4core5clone5Clone5clone, symObjAddr: 0x17CE4, symBinAddr: 0x4A750, symSize: 0x238 }
  - { offset: 0xA4DCC, size: 0x8, addend: 0x0, symName: __RNvXs1m_NtNtCsc29TF2YcYso_3syn3gen5cloneNtNtBa_4item4ItemNtNtCsaNl6UpbT7bw_4core5clone5Clone5clone, symObjAddr: 0x17F28, symBinAddr: 0x4A988, symSize: 0x5D0 }
  - { offset: 0xA4FE3, size: 0x8, addend: 0x0, symName: __RNvXs1n_NtNtCsc29TF2YcYso_3syn3gen5cloneNtNtBa_4item9ItemConstNtNtCsaNl6UpbT7bw_4core5clone5Clone5clone, symObjAddr: 0x184F8, symBinAddr: 0x4AF58, symSize: 0x270 }
  - { offset: 0xA5017, size: 0x8, addend: 0x0, symName: __RNvXs1o_NtNtCsc29TF2YcYso_3syn3gen5cloneNtNtBa_4item8ItemEnumNtNtCsaNl6UpbT7bw_4core5clone5Clone5clone, symObjAddr: 0x18768, symBinAddr: 0x4B1C8, symSize: 0x1C0 }
  - { offset: 0xA504B, size: 0x8, addend: 0x0, symName: __RNvXs1p_NtNtCsc29TF2YcYso_3syn3gen5cloneNtNtBa_4item15ItemExternCrateNtNtCsaNl6UpbT7bw_4core5clone5Clone5clone, symObjAddr: 0x18928, symBinAddr: 0x4B388, symSize: 0x1A4 }
  - { offset: 0xA507F, size: 0x8, addend: 0x0, symName: __RNvXs1q_NtNtCsc29TF2YcYso_3syn3gen5cloneNtNtBa_4item6ItemFnNtNtCsaNl6UpbT7bw_4core5clone5Clone5clone, symObjAddr: 0x18ACC, symBinAddr: 0x4B52C, symSize: 0x12C }
  - { offset: 0xA50B3, size: 0x8, addend: 0x0, symName: __RNvXs1r_NtNtCsc29TF2YcYso_3syn3gen5cloneNtNtBa_4item14ItemForeignModNtNtCsaNl6UpbT7bw_4core5clone5Clone5clone, symObjAddr: 0x18BF8, symBinAddr: 0x4B658, symSize: 0x14C }
  - { offset: 0xA50E7, size: 0x8, addend: 0x0, symName: __RNvXs1s_NtNtCsc29TF2YcYso_3syn3gen5cloneNtNtBa_4item8ItemImplNtNtCsaNl6UpbT7bw_4core5clone5Clone5clone, symObjAddr: 0x18D44, symBinAddr: 0x4B7A4, symSize: 0x220 }
  - { offset: 0xA511B, size: 0x8, addend: 0x0, symName: __RNvXs1t_NtNtCsc29TF2YcYso_3syn3gen5cloneNtNtBa_4item9ItemMacroNtNtCsaNl6UpbT7bw_4core5clone5Clone5clone, symObjAddr: 0x18F64, symBinAddr: 0x4B9C4, symSize: 0x134 }
  - { offset: 0xA514F, size: 0x8, addend: 0x0, symName: __RNvXs1u_NtNtCsc29TF2YcYso_3syn3gen5cloneNtNtBa_4item7ItemModNtNtCsaNl6UpbT7bw_4core5clone5Clone5clone, symObjAddr: 0x19098, symBinAddr: 0x4BAF8, symSize: 0x1B8 }
  - { offset: 0xA5183, size: 0x8, addend: 0x0, symName: __RNvXs1v_NtNtCsc29TF2YcYso_3syn3gen5cloneNtNtBa_4item10ItemStaticNtNtCsaNl6UpbT7bw_4core5clone5Clone5clone, symObjAddr: 0x19250, symBinAddr: 0x4BCB0, symSize: 0x248 }
  - { offset: 0xA51B7, size: 0x8, addend: 0x0, symName: __RNvXs1w_NtNtCsc29TF2YcYso_3syn3gen5cloneNtNtBa_4item10ItemStructNtNtCsaNl6UpbT7bw_4core5clone5Clone5clone, symObjAddr: 0x19498, symBinAddr: 0x4BEF8, symSize: 0x1DC }
  - { offset: 0xA51EB, size: 0x8, addend: 0x0, symName: __RNvXs1x_NtNtCsc29TF2YcYso_3syn3gen5cloneNtNtBa_4item9ItemTraitNtNtCsaNl6UpbT7bw_4core5clone5Clone5clone, symObjAddr: 0x19674, symBinAddr: 0x4C0D4, symSize: 0x288 }
  - { offset: 0xA521F, size: 0x8, addend: 0x0, symName: __RNvXs1y_NtNtCsc29TF2YcYso_3syn3gen5cloneNtNtBa_4item14ItemTraitAliasNtNtCsaNl6UpbT7bw_4core5clone5Clone5clone, symObjAddr: 0x198FC, symBinAddr: 0x4C35C, symSize: 0x204 }
  - { offset: 0xA5253, size: 0x8, addend: 0x0, symName: __RNvXs1z_NtNtCsc29TF2YcYso_3syn3gen5cloneNtNtBa_4item8ItemTypeNtNtCsaNl6UpbT7bw_4core5clone5Clone5clone, symObjAddr: 0x19B00, symBinAddr: 0x4C560, symSize: 0x204 }
  - { offset: 0xA5287, size: 0x8, addend: 0x0, symName: __RNvXs1A_NtNtCsc29TF2YcYso_3syn3gen5cloneNtNtBa_4item9ItemUnionNtNtCsaNl6UpbT7bw_4core5clone5Clone5clone, symObjAddr: 0x19D04, symBinAddr: 0x4C764, symSize: 0x194 }
  - { offset: 0xA52BB, size: 0x8, addend: 0x0, symName: __RNvXs1B_NtNtCsc29TF2YcYso_3syn3gen5cloneNtNtBa_4item7ItemUseNtNtCsaNl6UpbT7bw_4core5clone5Clone5clone, symObjAddr: 0x19E98, symBinAddr: 0x4C8F8, symSize: 0x174 }
  - { offset: 0xA52EF, size: 0x8, addend: 0x0, symName: __RNvXs2b_NtNtCsc29TF2YcYso_3syn3gen5cloneNtNtBa_4item8ReceiverNtNtCsaNl6UpbT7bw_4core5clone5Clone5clone, symObjAddr: 0x1A00C, symBinAddr: 0x4CA6C, symSize: 0x154 }
  - { offset: 0xA5323, size: 0x8, addend: 0x0, symName: __RNvXs2d_NtNtCsc29TF2YcYso_3syn3gen5cloneNtNtBa_4item9SignatureNtNtCsaNl6UpbT7bw_4core5clone5Clone5clone, symObjAddr: 0x1A160, symBinAddr: 0x4CBC0, symSize: 0x278 }
  - { offset: 0xA5357, size: 0x8, addend: 0x0, symName: __RNvXs2e_NtNtCsc29TF2YcYso_3syn3gen5cloneNtNtBa_4item16StaticMutabilityNtNtCsaNl6UpbT7bw_4core5clone5Clone5clone, symObjAddr: 0x1A3D8, symBinAddr: 0x4CE38, symSize: 0x90 }
  - { offset: 0xA53A9, size: 0x8, addend: 0x0, symName: __RNvXs2k_NtNtCsc29TF2YcYso_3syn3gen5cloneNtNtBa_4item9TraitItemNtNtCsaNl6UpbT7bw_4core5clone5Clone5clone, symObjAddr: 0x1A468, symBinAddr: 0x4CEC8, symSize: 0x21C }
  - { offset: 0xA546B, size: 0x8, addend: 0x0, symName: __RNvXs2l_NtNtCsc29TF2YcYso_3syn3gen5cloneNtNtBa_4item14TraitItemConstNtNtCsaNl6UpbT7bw_4core5clone5Clone5clone, symObjAddr: 0x1A684, symBinAddr: 0x4D0E4, symSize: 0x218 }
  - { offset: 0xA549F, size: 0x8, addend: 0x0, symName: __RNvXs2m_NtNtCsc29TF2YcYso_3syn3gen5cloneNtNtBa_4item11TraitItemFnNtNtCsaNl6UpbT7bw_4core5clone5Clone5clone, symObjAddr: 0x1A89C, symBinAddr: 0x4D2FC, symSize: 0x140 }
  - { offset: 0xA54D3, size: 0x8, addend: 0x0, symName: __RNvXs2n_NtNtCsc29TF2YcYso_3syn3gen5cloneNtNtBa_4item14TraitItemMacroNtNtCsaNl6UpbT7bw_4core5clone5Clone5clone, symObjAddr: 0x1A9DC, symBinAddr: 0x4D43C, symSize: 0xF4 }
  - { offset: 0xA5507, size: 0x8, addend: 0x0, symName: __RNvXs2o_NtNtCsc29TF2YcYso_3syn3gen5cloneNtNtBa_4item13TraitItemTypeNtNtCsaNl6UpbT7bw_4core5clone5Clone5clone, symObjAddr: 0x1AAD0, symBinAddr: 0x4D530, symSize: 0x20C }
  - { offset: 0xA553B, size: 0x8, addend: 0x0, symName: __RNvXs2I_NtNtCsc29TF2YcYso_3syn3gen5cloneNtNtBa_4item7UseGlobNtNtCsaNl6UpbT7bw_4core5clone5Clone5clone, symObjAddr: 0x1ACDC, symBinAddr: 0x4D73C, symSize: 0x4C }
  - { offset: 0xA556F, size: 0x8, addend: 0x0, symName: __RNvXs2J_NtNtCsc29TF2YcYso_3syn3gen5cloneNtNtBa_4item8UseGroupNtNtCsaNl6UpbT7bw_4core5clone5Clone5clone, symObjAddr: 0x1AD28, symBinAddr: 0x4D788, symSize: 0x70 }
  - { offset: 0xA55A3, size: 0x8, addend: 0x0, symName: __RNvXs2K_NtNtCsc29TF2YcYso_3syn3gen5cloneNtNtBa_4item7UseNameNtNtCsaNl6UpbT7bw_4core5clone5Clone5clone, symObjAddr: 0x1AD98, symBinAddr: 0x4D7F8, symSize: 0x50 }
  - { offset: 0xA55D7, size: 0x8, addend: 0x0, symName: __RNvXs2L_NtNtCsc29TF2YcYso_3syn3gen5cloneNtNtBa_4item7UsePathNtNtCsaNl6UpbT7bw_4core5clone5Clone5clone, symObjAddr: 0x1ADE8, symBinAddr: 0x4D848, symSize: 0xC0 }
  - { offset: 0xA560B, size: 0x8, addend: 0x0, symName: __RNvXs2M_NtNtCsc29TF2YcYso_3syn3gen5cloneNtNtBa_4item9UseRenameNtNtCsaNl6UpbT7bw_4core5clone5Clone5clone, symObjAddr: 0x1AEA8, symBinAddr: 0x4D908, symSize: 0xB8 }
  - { offset: 0xA563F, size: 0x8, addend: 0x0, symName: __RNvXs2N_NtNtCsc29TF2YcYso_3syn3gen5cloneNtNtBa_4item7UseTreeNtNtCsaNl6UpbT7bw_4core5clone5Clone5clone, symObjAddr: 0x1AF60, symBinAddr: 0x4D9C0, symSize: 0x20C }
  - { offset: 0xA5702, size: 0x8, addend: 0x0, symName: __RNvXs2O_NtNtCsc29TF2YcYso_3syn3gen5cloneNtNtBa_4item8VariadicNtNtCsaNl6UpbT7bw_4core5clone5Clone5clone, symObjAddr: 0x1B16C, symBinAddr: 0x4DBCC, symSize: 0x108 }
  - { offset: 0xA573C, size: 0x8, addend: 0x0, symName: __RNvXs1N_NtNtCsc29TF2YcYso_3syn3gen5debugNtNtBa_4item5FnArgNtNtCsaNl6UpbT7bw_4core3fmt5Debug3fmt, symObjAddr: 0x1B274, symBinAddr: 0x4DCD4, symSize: 0x168 }
  - { offset: 0xA580D, size: 0x8, addend: 0x0, symName: __RNvXs1O_NtNtCsc29TF2YcYso_3syn3gen5debugNtNtBa_4item11ForeignItemNtNtCsaNl6UpbT7bw_4core3fmt5Debug3fmt, symObjAddr: 0x1B3DC, symBinAddr: 0x4DE3C, symSize: 0x24C }
  - { offset: 0xA591A, size: 0x8, addend: 0x0, symName: __RNvXs20_NtNtCsc29TF2YcYso_3syn3gen5debugNtNtBa_4item8ImplItemNtNtCsaNl6UpbT7bw_4core3fmt5Debug3fmt, symObjAddr: 0x1BC30, symBinAddr: 0x4E560, symSize: 0x24C }
  - { offset: 0xA5A27, size: 0x8, addend: 0x0, symName: __RNvXs2b_NtNtCsc29TF2YcYso_3syn3gen5debugNtNtBa_4item4ItemNtNtCsaNl6UpbT7bw_4core3fmt5Debug3fmt, symObjAddr: 0x1C5A8, symBinAddr: 0x4ED98, symSize: 0x544 }
  - { offset: 0xA5C8C, size: 0x8, addend: 0x0, symName: __RNvXs3v_NtNtCsc29TF2YcYso_3syn3gen5debugNtNtBa_4item8ReceiverNtNtCsaNl6UpbT7bw_4core3fmt5Debug3fmt, symObjAddr: 0x1E65C, symBinAddr: 0x509D8, symSize: 0x150 }
  - { offset: 0xA5CED, size: 0x8, addend: 0x0, symName: __RNvXs3x_NtNtCsc29TF2YcYso_3syn3gen5debugNtNtBa_4item9SignatureNtNtCsaNl6UpbT7bw_4core3fmt5Debug3fmt, symObjAddr: 0x1E7AC, symBinAddr: 0x50B28, symSize: 0x20C }
  - { offset: 0xA5D4E, size: 0x8, addend: 0x0, symName: __RNvXs3y_NtNtCsc29TF2YcYso_3syn3gen5debugNtNtBa_4item16StaticMutabilityNtNtCsaNl6UpbT7bw_4core3fmt5Debug3fmt, symObjAddr: 0x1E9B8, symBinAddr: 0x50D34, symSize: 0x134 }
  - { offset: 0xA5DEB, size: 0x8, addend: 0x0, symName: __RNvXs3E_NtNtCsc29TF2YcYso_3syn3gen5debugNtNtBa_4item9TraitItemNtNtCsaNl6UpbT7bw_4core3fmt5Debug3fmt, symObjAddr: 0x1EAEC, symBinAddr: 0x50E68, symSize: 0x24C }
  - { offset: 0xA5EF8, size: 0x8, addend: 0x0, symName: __RNvXs4j_NtNtCsc29TF2YcYso_3syn3gen5debugNtNtBa_4item7UseGlobNtNtCsaNl6UpbT7bw_4core3fmt5Debug3fmt, symObjAddr: 0x1F390, symBinAddr: 0x515DC, symSize: 0x88 }
  - { offset: 0xA5F59, size: 0x8, addend: 0x0, symName: __RNvXs4k_NtNtCsc29TF2YcYso_3syn3gen5debugNtNtBa_4item8UseGroupNtNtCsaNl6UpbT7bw_4core3fmt5Debug3fmt, symObjAddr: 0x1F418, symBinAddr: 0x51664, symSize: 0xB0 }
  - { offset: 0xA5FBA, size: 0x8, addend: 0x0, symName: __RNvXs4l_NtNtCsc29TF2YcYso_3syn3gen5debugNtNtBa_4item7UseNameNtNtCsaNl6UpbT7bw_4core3fmt5Debug3fmt, symObjAddr: 0x1F4C8, symBinAddr: 0x51714, symSize: 0x88 }
  - { offset: 0xA601B, size: 0x8, addend: 0x0, symName: __RNvXs4m_NtNtCsc29TF2YcYso_3syn3gen5debugNtNtBa_4item7UsePathNtNtCsaNl6UpbT7bw_4core3fmt5Debug3fmt, symObjAddr: 0x1F550, symBinAddr: 0x5179C, symSize: 0xD8 }
  - { offset: 0xA607C, size: 0x8, addend: 0x0, symName: __RNvXs4n_NtNtCsc29TF2YcYso_3syn3gen5debugNtNtBa_4item9UseRenameNtNtCsaNl6UpbT7bw_4core3fmt5Debug3fmt, symObjAddr: 0x1F628, symBinAddr: 0x51874, symSize: 0xD8 }
  - { offset: 0xA60DD, size: 0x8, addend: 0x0, symName: __RNvXs4o_NtNtCsc29TF2YcYso_3syn3gen5debugNtNtBa_4item7UseTreeNtNtCsaNl6UpbT7bw_4core3fmt5Debug3fmt, symObjAddr: 0x1F700, symBinAddr: 0x5194C, symSize: 0x2F4 }
  - { offset: 0xA6269, size: 0x8, addend: 0x0, symName: __RNvXs4p_NtNtCsc29TF2YcYso_3syn3gen5debugNtNtBa_4item8VariadicNtNtCsaNl6UpbT7bw_4core3fmt5Debug3fmt, symObjAddr: 0x1F9F4, symBinAddr: 0x51C40, symSize: 0x100 }
  - { offset: 0xA7C64, size: 0x8, addend: 0x0, symName: __RINvXNvMNtCsiTraAjBDcu4_5alloc5sliceSp9to_vec_inNtNtCsc29TF2YcYso_3syn4item11ForeignItemNtB3_10ConvertVec6to_vecNtNtB8_5alloc6GlobalEBO_, symObjAddr: 0x0, symBinAddr: 0x3A9DC, symSize: 0x374 }
  - { offset: 0xA8119, size: 0x8, addend: 0x0, symName: __RINvXNvMNtCsiTraAjBDcu4_5alloc5sliceSp9to_vec_inNtNtCsc29TF2YcYso_3syn4item4ItemNtB3_10ConvertVec6to_vecNtNtB8_5alloc6GlobalEBO_, symObjAddr: 0x374, symBinAddr: 0x3AD50, symSize: 0x374 }
  - { offset: 0xA85CE, size: 0x8, addend: 0x0, symName: __RINvXNvMNtCsiTraAjBDcu4_5alloc5sliceSp9to_vec_inNtNtCsc29TF2YcYso_3syn4item8ImplItemNtB3_10ConvertVec6to_vecNtNtB8_5alloc6GlobalEBO_, symObjAddr: 0x6E8, symBinAddr: 0x3B0C4, symSize: 0x374 }
  - { offset: 0xA8A83, size: 0x8, addend: 0x0, symName: __RINvXNvMNtCsiTraAjBDcu4_5alloc5sliceSp9to_vec_inNtNtCsc29TF2YcYso_3syn4item9TraitItemNtB3_10ConvertVec6to_vecNtNtB8_5alloc6GlobalEBO_, symObjAddr: 0xA5C, symBinAddr: 0x3B438, symSize: 0x374 }
  - { offset: 0xA8F38, size: 0x8, addend: 0x0, symName: __RINvXNvMNtCsiTraAjBDcu4_5alloc5sliceSp9to_vec_inTNtNtCsc29TF2YcYso_3syn4item5FnArgNtNtBP_5token5CommaENtB3_10ConvertVec6to_vecNtNtB8_5alloc6GlobalEBP_, symObjAddr: 0xDD0, symBinAddr: 0x3B7AC, symSize: 0x370 }
  - { offset: 0xA93ED, size: 0x8, addend: 0x0, symName: __RINvXNvMNtCsiTraAjBDcu4_5alloc5sliceSp9to_vec_inTNtNtCsc29TF2YcYso_3syn4item7UseTreeNtNtBP_5token5CommaENtB3_10ConvertVec6to_vecNtNtB8_5alloc6GlobalEBP_, symObjAddr: 0x1140, symBinAddr: 0x3BB1C, symSize: 0x370 }
  - { offset: 0xADA1C, size: 0x8, addend: 0x0, symName: __RNvMNtCsaNl6UpbT7bw_4core5sliceSTNtNtCsc29TF2YcYso_3syn4item5FnArgNtNtBz_5token5CommaE4iterBz_, symObjAddr: 0x14B0, symBinAddr: 0x3BE8C, symSize: 0x28 }
  - { offset: 0xADA53, size: 0x8, addend: 0x0, symName: __RNvMNtCsaNl6UpbT7bw_4core5sliceSTNtNtCsc29TF2YcYso_3syn4item7UseTreeNtNtBz_5token5CommaE4iterBz_, symObjAddr: 0x14D8, symBinAddr: 0x3BEB4, symSize: 0x28 }
  - { offset: 0xAE1DF, size: 0x8, addend: 0x0, symName: __RNvXNtNtCsaNl6UpbT7bw_4core5clone6uninitNtNtCsc29TF2YcYso_3syn4item5FnArgNtB2_8CopySpec9clone_oneBG_, symObjAddr: 0x1680, symBinAddr: 0x3C05C, symSize: 0x48 }
  - { offset: 0xAE243, size: 0x8, addend: 0x0, symName: __RNvXNtNtCsaNl6UpbT7bw_4core5clone6uninitNtNtCsc29TF2YcYso_3syn4item7UseTreeNtB2_8CopySpec9clone_oneBG_, symObjAddr: 0x16C8, symBinAddr: 0x3C0A4, symSize: 0x48 }
  - { offset: 0xAE2B4, size: 0x8, addend: 0x0, symName: __RNvXs19_NtCsaNl6UpbT7bw_4core3fmtRNtNtCsc29TF2YcYso_3syn4item11ForeignItemNtB6_5Debug3fmtBA_, symObjAddr: 0x1710, symBinAddr: 0x3C0EC, symSize: 0x30 }
  - { offset: 0xAE2FA, size: 0x8, addend: 0x0, symName: __RNvXs19_NtCsaNl6UpbT7bw_4core3fmtRNtNtCsc29TF2YcYso_3syn4item4ItemNtB6_5Debug3fmtBA_, symObjAddr: 0x1770, symBinAddr: 0x3C11C, symSize: 0x30 }
  - { offset: 0xAE340, size: 0x8, addend: 0x0, symName: __RNvXs19_NtCsaNl6UpbT7bw_4core3fmtRNtNtCsc29TF2YcYso_3syn4item8ImplItemNtB6_5Debug3fmtBA_, symObjAddr: 0x17A0, symBinAddr: 0x3C14C, symSize: 0x30 }
  - { offset: 0xAE386, size: 0x8, addend: 0x0, symName: __RNvXs19_NtCsaNl6UpbT7bw_4core3fmtRNtNtCsc29TF2YcYso_3syn4item8VariadicNtB6_5Debug3fmtBA_, symObjAddr: 0x17D0, symBinAddr: 0x3C17C, symSize: 0x30 }
  - { offset: 0xAE3CC, size: 0x8, addend: 0x0, symName: __RNvXs19_NtCsaNl6UpbT7bw_4core3fmtRNtNtCsc29TF2YcYso_3syn4item9TraitItemNtB6_5Debug3fmtBA_, symObjAddr: 0x1800, symBinAddr: 0x3C1AC, symSize: 0x30 }
  - { offset: 0xAE418, size: 0x8, addend: 0x0, symName: __RNvXsq_NtCsaNl6UpbT7bw_4core3fmtSNtNtCsc29TF2YcYso_3syn4item11ForeignItemNtB5_5Debug3fmtBz_, symObjAddr: 0x2988, symBinAddr: 0x3C1DC, symSize: 0x90 }
  - { offset: 0xAE558, size: 0x8, addend: 0x0, symName: __RNvXsq_NtCsaNl6UpbT7bw_4core3fmtSNtNtCsc29TF2YcYso_3syn4item4ItemNtB5_5Debug3fmtBz_, symObjAddr: 0x2A18, symBinAddr: 0x3C26C, symSize: 0x90 }
  - { offset: 0xAE698, size: 0x8, addend: 0x0, symName: __RNvXsq_NtCsaNl6UpbT7bw_4core3fmtSNtNtCsc29TF2YcYso_3syn4item8ImplItemNtB5_5Debug3fmtBz_, symObjAddr: 0x2AA8, symBinAddr: 0x3C2FC, symSize: 0x90 }
  - { offset: 0xAE7D8, size: 0x8, addend: 0x0, symName: __RNvXsq_NtCsaNl6UpbT7bw_4core3fmtSNtNtCsc29TF2YcYso_3syn4item9TraitItemNtB5_5Debug3fmtBz_, symObjAddr: 0x2B38, symBinAddr: 0x3C38C, symSize: 0x90 }
  - { offset: 0xB1178, size: 0x8, addend: 0x0, symName: __RNvXNtCs4EAaWzSXu1l_5quote9to_tokensRNtNtCsc29TF2YcYso_3syn4item11ForeignItemNtB2_8ToTokens9to_tokensBD_, symObjAddr: 0x1500, symBinAddr: 0x3BEDC, symSize: 0x40 }
  - { offset: 0xB11B7, size: 0x8, addend: 0x0, symName: __RNvXNtCs4EAaWzSXu1l_5quote9to_tokensRNtNtCsc29TF2YcYso_3syn4item4ItemNtB2_8ToTokens9to_tokensBD_, symObjAddr: 0x1540, symBinAddr: 0x3BF1C, symSize: 0x40 }
  - { offset: 0xB11F6, size: 0x8, addend: 0x0, symName: __RNvXNtCs4EAaWzSXu1l_5quote9to_tokensRNtNtCsc29TF2YcYso_3syn4item5FnArgNtB2_8ToTokens9to_tokensBD_, symObjAddr: 0x1580, symBinAddr: 0x3BF5C, symSize: 0x40 }
  - { offset: 0xB1235, size: 0x8, addend: 0x0, symName: __RNvXNtCs4EAaWzSXu1l_5quote9to_tokensRNtNtCsc29TF2YcYso_3syn4item7UseTreeNtB2_8ToTokens9to_tokensBD_, symObjAddr: 0x15C0, symBinAddr: 0x3BF9C, symSize: 0x40 }
  - { offset: 0xB1274, size: 0x8, addend: 0x0, symName: __RNvXNtCs4EAaWzSXu1l_5quote9to_tokensRNtNtCsc29TF2YcYso_3syn4item8ImplItemNtB2_8ToTokens9to_tokensBD_, symObjAddr: 0x1600, symBinAddr: 0x3BFDC, symSize: 0x40 }
  - { offset: 0xB12B3, size: 0x8, addend: 0x0, symName: __RNvXNtCs4EAaWzSXu1l_5quote9to_tokensRNtNtCsc29TF2YcYso_3syn4item9TraitItemNtB2_8ToTokens9to_tokensBD_, symObjAddr: 0x1640, symBinAddr: 0x3C01C, symSize: 0x40 }
  - { offset: 0xB1597, size: 0x8, addend: 0x0, symName: __RNvMNtCsc29TF2YcYso_3syn4itemNtB2_4Item13replace_attrs, symObjAddr: 0x2CE8, symBinAddr: 0x3C41C, symSize: 0x328 }
  - { offset: 0xB16E4, size: 0x8, addend: 0x0, symName: __RNvMs1Q_NtNtCsc29TF2YcYso_3syn3gen5debugNtNtBa_4item13ForeignItemFn5debug, symObjAddr: 0x1B674, symBinAddr: 0x4E088, symSize: 0x104 }
  - { offset: 0xB1750, size: 0x8, addend: 0x0, symName: __RNvMs1S_NtNtCsc29TF2YcYso_3syn3gen5debugNtNtBa_4item16ForeignItemMacro5debug, symObjAddr: 0x1B7C4, symBinAddr: 0x4E18C, symSize: 0xDC }
  - { offset: 0xB17BC, size: 0x8, addend: 0x0, symName: __RNvMs1U_NtNtCsc29TF2YcYso_3syn3gen5debugNtNtBa_4item17ForeignItemStatic5debug, symObjAddr: 0x1B8EC, symBinAddr: 0x4E268, symSize: 0x1A4 }
  - { offset: 0xB1828, size: 0x8, addend: 0x0, symName: __RNvMs1W_NtNtCsc29TF2YcYso_3syn3gen5debugNtNtBa_4item15ForeignItemType5debug, symObjAddr: 0x1BADC, symBinAddr: 0x4E40C, symSize: 0x154 }
  - { offset: 0xB1894, size: 0x8, addend: 0x0, symName: __RNvMs22_NtNtCsc29TF2YcYso_3syn3gen5debugNtNtBa_4item13ImplItemConst5debug, symObjAddr: 0x1BEC8, symBinAddr: 0x4E7AC, symSize: 0x218 }
  - { offset: 0xB1900, size: 0x8, addend: 0x0, symName: __RNvMs24_NtNtCsc29TF2YcYso_3syn3gen5debugNtNtBa_4item10ImplItemFn5debug, symObjAddr: 0x1C12C, symBinAddr: 0x4E9C4, symSize: 0x12C }
  - { offset: 0xB196C, size: 0x8, addend: 0x0, symName: __RNvMs26_NtNtCsc29TF2YcYso_3syn3gen5debugNtNtBa_4item13ImplItemMacro5debug, symObjAddr: 0x1C2A4, symBinAddr: 0x4EAF0, symSize: 0xDC }
  - { offset: 0xB19D8, size: 0x8, addend: 0x0, symName: __RNvMs28_NtNtCsc29TF2YcYso_3syn3gen5debugNtNtBa_4item12ImplItemType5debug, symObjAddr: 0x1C3CC, symBinAddr: 0x4EBCC, symSize: 0x1CC }
  - { offset: 0xB1A44, size: 0x8, addend: 0x0, symName: __RNvMs2d_NtNtCsc29TF2YcYso_3syn3gen5debugNtNtBa_4item9ItemConst5debug, symObjAddr: 0x1CB38, symBinAddr: 0x4F2DC, symSize: 0x1F4 }
  - { offset: 0xB1AB0, size: 0x8, addend: 0x0, symName: __RNvMs2f_NtNtCsc29TF2YcYso_3syn3gen5debugNtNtBa_4item8ItemEnum5debug, symObjAddr: 0x1CD78, symBinAddr: 0x4F4D0, symSize: 0x17C }
  - { offset: 0xB1B1C, size: 0x8, addend: 0x0, symName: __RNvMs2h_NtNtCsc29TF2YcYso_3syn3gen5debugNtNtBa_4item15ItemExternCrate5debug, symObjAddr: 0x1CF40, symBinAddr: 0x4F64C, symSize: 0x17C }
  - { offset: 0xB1B88, size: 0x8, addend: 0x0, symName: __RNvMs2j_NtNtCsc29TF2YcYso_3syn3gen5debugNtNtBa_4item6ItemFn5debug, symObjAddr: 0x1D108, symBinAddr: 0x4F7C8, symSize: 0x104 }
  - { offset: 0xB1BF4, size: 0x8, addend: 0x0, symName: __RNvMs2l_NtNtCsc29TF2YcYso_3syn3gen5debugNtNtBa_4item14ItemForeignMod5debug, symObjAddr: 0x1D258, symBinAddr: 0x4F8CC, symSize: 0x12C }
  - { offset: 0xB1C60, size: 0x8, addend: 0x0, symName: __RNvMs2n_NtNtCsc29TF2YcYso_3syn3gen5debugNtNtBa_4item8ItemImpl5debug, symObjAddr: 0x1D3D0, symBinAddr: 0x4F9F8, symSize: 0x1CC }
  - { offset: 0xB1CCC, size: 0x8, addend: 0x0, symName: __RNvMs2p_NtNtCsc29TF2YcYso_3syn3gen5debugNtNtBa_4item9ItemMacro5debug, symObjAddr: 0x1D5E8, symBinAddr: 0x4FBC4, symSize: 0x104 }
  - { offset: 0xB1D38, size: 0x8, addend: 0x0, symName: __RNvMs2r_NtNtCsc29TF2YcYso_3syn3gen5debugNtNtBa_4item7ItemMod5debug, symObjAddr: 0x1D738, symBinAddr: 0x4FCC8, symSize: 0x17C }
  - { offset: 0xB1DA4, size: 0x8, addend: 0x0, symName: __RNvMs2t_NtNtCsc29TF2YcYso_3syn3gen5debugNtNtBa_4item10ItemStatic5debug, symObjAddr: 0x1D900, symBinAddr: 0x4FE44, symSize: 0x1F4 }
  - { offset: 0xB1E10, size: 0x8, addend: 0x0, symName: __RNvMs2v_NtNtCsc29TF2YcYso_3syn3gen5debugNtNtBa_4item10ItemStruct5debug, symObjAddr: 0x1DB40, symBinAddr: 0x50038, symSize: 0x17C }
  - { offset: 0xB1E7C, size: 0x8, addend: 0x0, symName: __RNvMs2x_NtNtCsc29TF2YcYso_3syn3gen5debugNtNtBa_4item9ItemTrait5debug, symObjAddr: 0x1DD08, symBinAddr: 0x501B4, symSize: 0x234 }
  - { offset: 0xB1EE8, size: 0x8, addend: 0x0, symName: __RNvMs2z_NtNtCsc29TF2YcYso_3syn3gen5debugNtNtBa_4item14ItemTraitAlias5debug, symObjAddr: 0x1DF88, symBinAddr: 0x503E8, symSize: 0x1A4 }
  - { offset: 0xB1F54, size: 0x8, addend: 0x0, symName: __RNvMs2B_NtNtCsc29TF2YcYso_3syn3gen5debugNtNtBa_4item8ItemType5debug, symObjAddr: 0x1E178, symBinAddr: 0x5058C, symSize: 0x1A4 }
  - { offset: 0xB1FC0, size: 0x8, addend: 0x0, symName: __RNvMs2D_NtNtCsc29TF2YcYso_3syn3gen5debugNtNtBa_4item9ItemUnion5debug, symObjAddr: 0x1E368, symBinAddr: 0x50730, symSize: 0x154 }
  - { offset: 0xB202C, size: 0x8, addend: 0x0, symName: __RNvMs2F_NtNtCsc29TF2YcYso_3syn3gen5debugNtNtBa_4item7ItemUse5debug, symObjAddr: 0x1E508, symBinAddr: 0x50884, symSize: 0x154 }
  - { offset: 0xB2098, size: 0x8, addend: 0x0, symName: __RNvMs3G_NtNtCsc29TF2YcYso_3syn3gen5debugNtNtBa_4item14TraitItemConst5debug, symObjAddr: 0x1ED84, symBinAddr: 0x510B4, symSize: 0x1A4 }
  - { offset: 0xB2104, size: 0x8, addend: 0x0, symName: __RNvMs3I_NtNtCsc29TF2YcYso_3syn3gen5debugNtNtBa_4item11TraitItemFn5debug, symObjAddr: 0x1EF74, symBinAddr: 0x51258, symSize: 0x104 }
  - { offset: 0xB2170, size: 0x8, addend: 0x0, symName: __RNvMs3K_NtNtCsc29TF2YcYso_3syn3gen5debugNtNtBa_4item14TraitItemMacro5debug, symObjAddr: 0x1F0C4, symBinAddr: 0x5135C, symSize: 0xDC }
  - { offset: 0xB21DC, size: 0x8, addend: 0x0, symName: __RNvMs3M_NtNtCsc29TF2YcYso_3syn3gen5debugNtNtBa_4item13TraitItemType5debug, symObjAddr: 0x1F1EC, symBinAddr: 0x51438, symSize: 0x1A4 }
  - { offset: 0xB2580, size: 0x8, addend: 0x0, symName: __RINvMs_NtCsiTraAjBDcu4_5alloc3vecINtB5_3VecReE10retain_mutNCNvMNtCsc29TF2YcYso_3syn9lookaheadNtBZ_10Lookahead15error0EB11_, symObjAddr: 0x0, symBinAddr: 0x51D40, symSize: 0xE4 }
  - { offset: 0xBC69D, size: 0x8, addend: 0x0, symName: __RNvXs19_NtCsaNl6UpbT7bw_4core3fmtRINtNtCsiTraAjBDcu4_5alloc3vec3VecNtNtCsc29TF2YcYso_3syn4item4ItemENtB6_5Debug3fmtB17_, symObjAddr: 0x6F54, symBinAddr: 0x56724, symSize: 0x30 }
  - { offset: 0xBC960, size: 0x8, addend: 0x0, symName: __RNvXs1_NtCsaNl6UpbT7bw_4core7convertINtNtCsiTraAjBDcu4_5alloc3vec3VechEINtB5_4IntoBy_E4intoCsc29TF2YcYso_3syn, symObjAddr: 0x6F84, symBinAddr: 0x56754, symSize: 0x18 }
  - { offset: 0xBCB9D, size: 0x8, addend: 0x0, symName: __RINvNvMs_NtCsiTraAjBDcu4_5alloc3vecINtB7_3VecppE10retain_mut12process_loopNCNvMNtCsc29TF2YcYso_3syn9lookaheadNtB1f_10Lookahead15error0ReNtNtB9_5alloc6GlobalKb0_EB1h_, symObjAddr: 0xC48, symBinAddr: 0x52314, symSize: 0xCC }
  - { offset: 0xBCCF1, size: 0x8, addend: 0x0, symName: __RINvNvMs_NtCsiTraAjBDcu4_5alloc3vecINtB7_3VecppE10retain_mut12process_loopNCNvMNtCsc29TF2YcYso_3syn9lookaheadNtB1f_10Lookahead15error0ReNtNtB9_5alloc6GlobalKb1_EB1h_, symObjAddr: 0xD14, symBinAddr: 0x523E0, symSize: 0x170 }
  - { offset: 0xBCEE7, size: 0x8, addend: 0x0, symName: __RNvXNvMs_NtCsiTraAjBDcu4_5alloc3vecINtB7_3VecppE10retain_mutINtB2_15BackshiftOnDropReNtNtB9_5alloc6GlobalENtNtNtCsaNl6UpbT7bw_4core3ops4drop4Drop4dropCsc29TF2YcYso_3syn, symObjAddr: 0x6B78, symBinAddr: 0x563E0, symSize: 0x12C }
  - { offset: 0xBF956, size: 0x8, addend: 0x0, symName: __RINvXsh_NtCsiTraAjBDcu4_5alloc3vecINtB6_3VecNtCshnvkK9b4wzu_11proc_macro29TokenTreeEINtNtNtNtCsaNl6UpbT7bw_4core4iter6traits7collect6ExtendBG_E6extendINtNtNtB1r_8adapters7flatten7FlattenINtNtB2t_3map3MapIB2Z_IB2Z_INtNtNtB1t_5slice4iter4IterNtNtCsc29TF2YcYso_3syn5error12ErrorMessageENvMs_B3S_B3Q_16to_compile_errorENCINvXs7_BI_NtBI_11TokenStreamINtB1n_12FromIteratorB5f_E9from_iterB3k_E0ENCINvXs6_NtBI_3impNtB6n_11TokenStreamIB5y_B6w_E9from_iterB3f_Es_0EEEB3U_, symObjAddr: 0xEC0, symBinAddr: 0x52550, symSize: 0x48 }
  - { offset: 0xBF9AB, size: 0x8, addend: 0x0, symName: __RINvXsh_NtCsiTraAjBDcu4_5alloc3vecINtB6_3VecNtNtCsc29TF2YcYso_3syn4attr9AttributeEINtNtNtNtCsaNl6UpbT7bw_4core4iter6traits7collect6ExtendBG_E6extendBw_EBK_, symObjAddr: 0xF08, symBinAddr: 0x52598, symSize: 0x48 }
  - { offset: 0xBFA00, size: 0x8, addend: 0x0, symName: __RINvXsh_NtCsiTraAjBDcu4_5alloc3vecINtB6_3VecNtNtCsc29TF2YcYso_3syn8generics14TypeParamBoundEINtNtNtNtCsaNl6UpbT7bw_4core4iter6traits7collect6ExtendBG_E6extendINtNtB1B_6option6OptionBG_EEBK_, symObjAddr: 0x1078, symBinAddr: 0x525E0, symSize: 0x48 }
  - { offset: 0xBFA55, size: 0x8, addend: 0x0, symName: __RINvXsh_NtCsiTraAjBDcu4_5alloc3vecINtB6_3VecNtNtCsc29TF2YcYso_3syn8generics14TypeParamBoundEINtNtNtNtCsaNl6UpbT7bw_4core4iter6traits7collect6ExtendBG_E6extendINtNtNtB1z_8adapters3map3MapINtNtB6_9into_iter8IntoIterTBG_NtNtBK_5token4PlusEENCNvXs8_NtBK_10punctuatedINtB3V_10PunctuatedBG_B3t_ENtB1v_12IntoIterator9into_iter0EEBK_, symObjAddr: 0x10C0, symBinAddr: 0x52628, symSize: 0x48 }
  - { offset: 0xBFAB5, size: 0x8, addend: 0x0, symName: __RNCINvMsi_NtCsiTraAjBDcu4_5alloc3vecINtB8_3VecNtNtCsc29TF2YcYso_3syn8generics14TypeParamBoundE14extend_trustedINtNtCsaNl6UpbT7bw_4core6option8IntoIterBI_EE0BM_, symObjAddr: 0x1204, symBinAddr: 0x52670, symSize: 0x54 }
  - { offset: 0xBFB73, size: 0x8, addend: 0x0, symName: __RNCINvMsi_NtCsiTraAjBDcu4_5alloc3vecINtB8_3VecNtNtCsc29TF2YcYso_3syn8generics14TypeParamBoundE14extend_trustedINtNtNtNtCsaNl6UpbT7bw_4core4iter8adapters3map3MapINtNtB8_9into_iter8IntoIterTBI_NtNtBM_5token4PlusEENCNvXs8_NtBM_10punctuatedINtB3v_10PunctuatedBI_B33_ENtNtNtB1R_6traits7collect12IntoIterator9into_iter0EE0BM_, symObjAddr: 0x1258, symBinAddr: 0x526C4, symSize: 0x54 }
  - { offset: 0xC0073, size: 0x8, addend: 0x0, symName: __RNvXs6_NtCsiTraAjBDcu4_5alloc3vecINtB5_3VecNtNtCsc29TF2YcYso_3syn4attr9AttributeENtNtNtCsaNl6UpbT7bw_4core3ops5deref5Deref5derefBJ_, symObjAddr: 0x6F9C, symBinAddr: 0x5676C, symSize: 0x24 }
  - { offset: 0xC00B3, size: 0x8, addend: 0x0, symName: __RNvXs6_NtCsiTraAjBDcu4_5alloc3vecINtB5_3VecNtNtCsc29TF2YcYso_3syn4expr3ArmENtNtNtCsaNl6UpbT7bw_4core3ops5deref5Deref5derefBJ_, symObjAddr: 0x6FC0, symBinAddr: 0x56790, symSize: 0x24 }
  - { offset: 0xC00F3, size: 0x8, addend: 0x0, symName: __RNvXs6_NtCsiTraAjBDcu4_5alloc3vecINtB5_3VecNtNtCsc29TF2YcYso_3syn5error12ErrorMessageENtNtNtCsaNl6UpbT7bw_4core3ops5deref5Deref5derefBJ_, symObjAddr: 0x6FE4, symBinAddr: 0x567B4, symSize: 0x24 }
  - { offset: 0xC0133, size: 0x8, addend: 0x0, symName: __RNvXs6_NtCsiTraAjBDcu4_5alloc3vecINtB5_3VecReENtNtNtCsaNl6UpbT7bw_4core3ops5deref5Deref5derefCsc29TF2YcYso_3syn, symObjAddr: 0x7008, symBinAddr: 0x567D8, symSize: 0x24 }
  - { offset: 0xC0173, size: 0x8, addend: 0x0, symName: __RNvXs6_NtCsiTraAjBDcu4_5alloc3vecINtB5_3VecTNtNtCsc29TF2YcYso_3syn2ty4TypeNtNtBK_5token5CommaEENtNtNtCsaNl6UpbT7bw_4core3ops5deref5Deref5derefBK_, symObjAddr: 0x702C, symBinAddr: 0x567FC, symSize: 0x24 }
  - { offset: 0xC01B3, size: 0x8, addend: 0x0, symName: __RNvXs6_NtCsiTraAjBDcu4_5alloc3vecINtB5_3VecTNtNtCsc29TF2YcYso_3syn2ty9BareFnArgNtNtBK_5token5CommaEENtNtNtCsaNl6UpbT7bw_4core3ops5deref5Deref5derefBK_, symObjAddr: 0x7050, symBinAddr: 0x56820, symSize: 0x24 }
  - { offset: 0xC01F3, size: 0x8, addend: 0x0, symName: __RNvXs6_NtCsiTraAjBDcu4_5alloc3vecINtB5_3VecTNtNtCsc29TF2YcYso_3syn3pat3PatNtNtBK_5token2OrEENtNtNtCsaNl6UpbT7bw_4core3ops5deref5Deref5derefBK_, symObjAddr: 0x7074, symBinAddr: 0x56844, symSize: 0x24 }
  - { offset: 0xC0233, size: 0x8, addend: 0x0, symName: __RNvXs6_NtCsiTraAjBDcu4_5alloc3vecINtB5_3VecTNtNtCsc29TF2YcYso_3syn3pat3PatNtNtBK_5token5CommaEENtNtNtCsaNl6UpbT7bw_4core3ops5deref5Deref5derefBK_, symObjAddr: 0x7098, symBinAddr: 0x56868, symSize: 0x24 }
  - { offset: 0xC0273, size: 0x8, addend: 0x0, symName: __RNvXs6_NtCsiTraAjBDcu4_5alloc3vecINtB5_3VecTNtNtCsc29TF2YcYso_3syn3pat8FieldPatNtNtBK_5token5CommaEENtNtNtCsaNl6UpbT7bw_4core3ops5deref5Deref5derefBK_, symObjAddr: 0x70BC, symBinAddr: 0x5688C, symSize: 0x24 }
  - { offset: 0xC02B3, size: 0x8, addend: 0x0, symName: __RNvXs6_NtCsiTraAjBDcu4_5alloc3vecINtB5_3VecTNtNtCsc29TF2YcYso_3syn4data5FieldNtNtBK_5token5CommaEENtNtNtCsaNl6UpbT7bw_4core3ops5deref5Deref5derefBK_, symObjAddr: 0x70E0, symBinAddr: 0x568B0, symSize: 0x24 }
  - { offset: 0xC02F3, size: 0x8, addend: 0x0, symName: __RNvXs6_NtCsiTraAjBDcu4_5alloc3vecINtB5_3VecTNtNtCsc29TF2YcYso_3syn4data7VariantNtNtBK_5token5CommaEENtNtNtCsaNl6UpbT7bw_4core3ops5deref5Deref5derefBK_, symObjAddr: 0x7104, symBinAddr: 0x568D4, symSize: 0x24 }
  - { offset: 0xC0333, size: 0x8, addend: 0x0, symName: __RNvXs6_NtCsiTraAjBDcu4_5alloc3vecINtB5_3VecTNtNtCsc29TF2YcYso_3syn4expr10FieldValueNtNtBK_5token5CommaEENtNtNtCsaNl6UpbT7bw_4core3ops5deref5Deref5derefBK_, symObjAddr: 0x7128, symBinAddr: 0x568F8, symSize: 0x24 }
  - { offset: 0xC0373, size: 0x8, addend: 0x0, symName: __RNvXs6_NtCsiTraAjBDcu4_5alloc3vecINtB5_3VecTNtNtCsc29TF2YcYso_3syn4expr4ExprNtNtBK_5token5CommaEENtNtNtCsaNl6UpbT7bw_4core3ops5deref5Deref5derefBK_, symObjAddr: 0x714C, symBinAddr: 0x5691C, symSize: 0x24 }
  - { offset: 0xC03B3, size: 0x8, addend: 0x0, symName: __RNvXs6_NtCsiTraAjBDcu4_5alloc3vecINtB5_3VecTNtNtCsc29TF2YcYso_3syn4item5FnArgNtNtBK_5token5CommaEENtNtNtCsaNl6UpbT7bw_4core3ops5deref5Deref5derefBK_, symObjAddr: 0x7170, symBinAddr: 0x56940, symSize: 0x24 }
  - { offset: 0xC03F3, size: 0x8, addend: 0x0, symName: __RNvXs6_NtCsiTraAjBDcu4_5alloc3vecINtB5_3VecTNtNtCsc29TF2YcYso_3syn4item7UseTreeNtNtBK_5token5CommaEENtNtNtCsaNl6UpbT7bw_4core3ops5deref5Deref5derefBK_, symObjAddr: 0x7194, symBinAddr: 0x56964, symSize: 0x24 }
  - { offset: 0xC0433, size: 0x8, addend: 0x0, symName: __RNvXs6_NtCsiTraAjBDcu4_5alloc3vecINtB5_3VecTNtNtCsc29TF2YcYso_3syn4path11PathSegmentNtNtBK_5token7PathSepEENtNtNtCsaNl6UpbT7bw_4core3ops5deref5Deref5derefBK_, symObjAddr: 0x71B8, symBinAddr: 0x56988, symSize: 0x24 }
  - { offset: 0xC0473, size: 0x8, addend: 0x0, symName: __RNvXs6_NtCsiTraAjBDcu4_5alloc3vecINtB5_3VecTNtNtCsc29TF2YcYso_3syn4path15GenericArgumentNtNtBK_5token5CommaEENtNtNtCsaNl6UpbT7bw_4core3ops5deref5Deref5derefBK_, symObjAddr: 0x71DC, symBinAddr: 0x569AC, symSize: 0x24 }
  - { offset: 0xC04B3, size: 0x8, addend: 0x0, symName: __RNvXs6_NtCsiTraAjBDcu4_5alloc3vecINtB5_3VecTNtNtCsc29TF2YcYso_3syn8generics12GenericParamNtNtBK_5token5CommaEENtNtNtCsaNl6UpbT7bw_4core3ops5deref5Deref5derefBK_, symObjAddr: 0x7200, symBinAddr: 0x569D0, symSize: 0x24 }
  - { offset: 0xC04F3, size: 0x8, addend: 0x0, symName: __RNvXs6_NtCsiTraAjBDcu4_5alloc3vecINtB5_3VecTNtNtCsc29TF2YcYso_3syn8generics13CapturedParamNtNtBK_5token5CommaEENtNtNtCsaNl6UpbT7bw_4core3ops5deref5Deref5derefBK_, symObjAddr: 0x7224, symBinAddr: 0x569F4, symSize: 0x24 }
  - { offset: 0xC0533, size: 0x8, addend: 0x0, symName: __RNvXs6_NtCsiTraAjBDcu4_5alloc3vecINtB5_3VecTNtNtCsc29TF2YcYso_3syn8generics14TypeParamBoundNtNtBK_5token4PlusEENtNtNtCsaNl6UpbT7bw_4core3ops5deref5Deref5derefBK_, symObjAddr: 0x7248, symBinAddr: 0x56A18, symSize: 0x24 }
  - { offset: 0xC0573, size: 0x8, addend: 0x0, symName: __RNvXs6_NtCsiTraAjBDcu4_5alloc3vecINtB5_3VecTNtNtCsc29TF2YcYso_3syn8generics14WherePredicateNtNtBK_5token5CommaEENtNtNtCsaNl6UpbT7bw_4core3ops5deref5Deref5derefBK_, symObjAddr: 0x726C, symBinAddr: 0x56A3C, symSize: 0x24 }
  - { offset: 0xC05B3, size: 0x8, addend: 0x0, symName: __RNvXs6_NtCsiTraAjBDcu4_5alloc3vecINtB5_3VecTNtNtCsc29TF2YcYso_3syn8lifetime8LifetimeNtNtBK_5token4PlusEENtNtNtCsaNl6UpbT7bw_4core3ops5deref5Deref5derefBK_, symObjAddr: 0x7290, symBinAddr: 0x56A60, symSize: 0x24 }
  - { offset: 0xC05F3, size: 0x8, addend: 0x0, symName: __RNvXs6_NtCsiTraAjBDcu4_5alloc3vecINtB5_3VechENtNtNtCsaNl6UpbT7bw_4core3ops5deref5Deref5derefCsc29TF2YcYso_3syn, symObjAddr: 0x72B4, symBinAddr: 0x56A84, symSize: 0x24 }
  - { offset: 0xC1239, size: 0x8, addend: 0x0, symName: __RNvXsb_NtCsiTraAjBDcu4_5alloc3vecINtB5_3VecNtNtCsc29TF2YcYso_3syn5error12ErrorMessageEINtNtNtCsaNl6UpbT7bw_4core3ops5index5IndexjE5indexBJ_, symObjAddr: 0x82B0, symBinAddr: 0x57960, symSize: 0x8C }
  - { offset: 0xC13BB, size: 0x8, addend: 0x0, symName: __RNvXsb_NtCsiTraAjBDcu4_5alloc3vecINtB5_3VecReEINtNtNtCsaNl6UpbT7bw_4core3ops5index5IndexjE5indexCsc29TF2YcYso_3syn, symObjAddr: 0x833C, symBinAddr: 0x579EC, symSize: 0x8C }
  - { offset: 0xC153D, size: 0x8, addend: 0x0, symName: __RNvXsb_NtCsiTraAjBDcu4_5alloc3vecINtB5_3VecTNtNtCsc29TF2YcYso_3syn3pat3PatNtNtBK_5token5CommaEEINtNtNtCsaNl6UpbT7bw_4core3ops5index5IndexjE5indexBK_, symObjAddr: 0x83C8, symBinAddr: 0x57A78, symSize: 0x8C }
  - { offset: 0xC16BF, size: 0x8, addend: 0x0, symName: __RNvXsb_NtCsiTraAjBDcu4_5alloc3vecINtB5_3VecTNtNtCsc29TF2YcYso_3syn4path11PathSegmentNtNtBK_5token7PathSepEEINtNtNtCsaNl6UpbT7bw_4core3ops5index5IndexjE5indexBK_, symObjAddr: 0x8454, symBinAddr: 0x57B04, symSize: 0x8C }
  - { offset: 0xC1841, size: 0x8, addend: 0x0, symName: __RNvXsb_NtCsiTraAjBDcu4_5alloc3vecINtB5_3VechEINtNtNtCsaNl6UpbT7bw_4core3ops5index5IndexINtNtBM_5range9RangeFromjEE5indexCsc29TF2YcYso_3syn, symObjAddr: 0x84E0, symBinAddr: 0x57B90, symSize: 0x88 }
  - { offset: 0xC19C3, size: 0x8, addend: 0x0, symName: __RNvXsb_NtCsiTraAjBDcu4_5alloc3vecINtB5_3VechEINtNtNtCsaNl6UpbT7bw_4core3ops5index5IndexjE5indexCsc29TF2YcYso_3syn, symObjAddr: 0x8568, symBinAddr: 0x57C18, symSize: 0x88 }
  - { offset: 0xC1B50, size: 0x8, addend: 0x0, symName: __RNvXNtNtCsiTraAjBDcu4_5alloc3vec11spec_extendINtB4_3VecNtCshnvkK9b4wzu_11proc_macro29TokenTreeEINtB2_10SpecExtendBR_INtNtNtNtCsaNl6UpbT7bw_4core4iter8adapters7flatten7FlattenINtNtB1V_3map3MapIB2N_IB2N_INtNtNtB1Z_5slice4iter4IterNtNtCsc29TF2YcYso_3syn5error12ErrorMessageENvMs_B3G_B3E_16to_compile_errorENCINvXs7_BT_NtBT_11TokenStreamINtNtNtB1X_6traits7collect12FromIteratorB53_E9from_iterB38_E0ENCINvXs6_NtBT_3impNtB6u_11TokenStreamIB5m_B6D_E9from_iterB33_Es_0EEE11spec_extendB3I_, symObjAddr: 0x68EC, symBinAddr: 0x563BC, symSize: 0x24 }
  - { offset: 0xC1BA8, size: 0x8, addend: 0x0, symName: __RNvXs0_NtNtCsiTraAjBDcu4_5alloc3vec11spec_extendINtB7_3VecNtNtCsc29TF2YcYso_3syn4attr9AttributeEINtB5_10SpecExtendBU_INtNtB7_9into_iter8IntoIterBU_EE11spec_extendBY_, symObjAddr: 0x6E24, symBinAddr: 0x5668C, symSize: 0x98 }
  - { offset: 0xC1C14, size: 0x8, addend: 0x0, symName: __RNvXs_NtNtCsiTraAjBDcu4_5alloc3vec11spec_extendINtB6_3VecNtNtCsc29TF2YcYso_3syn8generics14TypeParamBoundEINtB4_10SpecExtendBT_INtNtCsaNl6UpbT7bw_4core6option8IntoIterBT_EE11spec_extendBX_, symObjAddr: 0x8268, symBinAddr: 0x57918, symSize: 0x24 }
  - { offset: 0xC1C66, size: 0x8, addend: 0x0, symName: __RNvXs_NtNtCsiTraAjBDcu4_5alloc3vec11spec_extendINtB6_3VecNtNtCsc29TF2YcYso_3syn8generics14TypeParamBoundEINtB4_10SpecExtendBT_INtNtNtNtCsaNl6UpbT7bw_4core4iter8adapters3map3MapINtNtB6_9into_iter8IntoIterTBT_NtNtBX_5token4PlusEENCNvXs8_NtBX_10punctuatedINtB3L_10PunctuatedBT_B3j_ENtNtNtB27_6traits7collect12IntoIterator9into_iter0EE11spec_extendBX_, symObjAddr: 0x828C, symBinAddr: 0x5793C, symSize: 0x24 }
  - { offset: 0xC1CBF, size: 0x8, addend: 0x0, symName: __RNvXs7_NtCsiTraAjBDcu4_5alloc3vecINtB5_3VecTNtNtCsc29TF2YcYso_3syn4data5FieldNtNtBK_5token5CommaEENtNtNtCsaNl6UpbT7bw_4core3ops5deref8DerefMut9deref_mutBK_, symObjAddr: 0x72D8, symBinAddr: 0x56AA8, symSize: 0x24 }
  - { offset: 0xC1CFF, size: 0x8, addend: 0x0, symName: __RNvXs7_NtCsiTraAjBDcu4_5alloc3vecINtB5_3VecTNtNtCsc29TF2YcYso_3syn4path11PathSegmentNtNtBK_5token7PathSepEENtNtNtCsaNl6UpbT7bw_4core3ops5deref8DerefMut9deref_mutBK_, symObjAddr: 0x72FC, symBinAddr: 0x56ACC, symSize: 0x24 }
  - { offset: 0xC1DD5, size: 0x8, addend: 0x0, symName: __RNvXs9_NtCsiTraAjBDcu4_5alloc3vecINtB5_3VecNtNtCsc29TF2YcYso_3syn4attr9AttributeENtNtCsaNl6UpbT7bw_4core5clone5Clone5cloneBJ_, symObjAddr: 0x7344, symBinAddr: 0x56AF0, symSize: 0x90 }
  - { offset: 0xC1FA6, size: 0x8, addend: 0x0, symName: __RNvXs9_NtCsiTraAjBDcu4_5alloc3vecINtB5_3VecNtNtCsc29TF2YcYso_3syn4expr3ArmENtNtCsaNl6UpbT7bw_4core5clone5Clone5cloneBJ_, symObjAddr: 0x73D4, symBinAddr: 0x56B80, symSize: 0x90 }
  - { offset: 0xC2177, size: 0x8, addend: 0x0, symName: __RNvXs9_NtCsiTraAjBDcu4_5alloc3vecINtB5_3VecNtNtCsc29TF2YcYso_3syn4item11ForeignItemENtNtCsaNl6UpbT7bw_4core5clone5Clone5cloneBJ_, symObjAddr: 0x7464, symBinAddr: 0x56C10, symSize: 0x90 }
  - { offset: 0xC2348, size: 0x8, addend: 0x0, symName: __RNvXs9_NtCsiTraAjBDcu4_5alloc3vecINtB5_3VecNtNtCsc29TF2YcYso_3syn4item4ItemENtNtCsaNl6UpbT7bw_4core5clone5Clone5cloneBJ_, symObjAddr: 0x74F4, symBinAddr: 0x56CA0, symSize: 0x90 }
  - { offset: 0xC2519, size: 0x8, addend: 0x0, symName: __RNvXs9_NtCsiTraAjBDcu4_5alloc3vecINtB5_3VecNtNtCsc29TF2YcYso_3syn4item8ImplItemENtNtCsaNl6UpbT7bw_4core5clone5Clone5cloneBJ_, symObjAddr: 0x7584, symBinAddr: 0x56D30, symSize: 0x90 }
  - { offset: 0xC26EA, size: 0x8, addend: 0x0, symName: __RNvXs9_NtCsiTraAjBDcu4_5alloc3vecINtB5_3VecNtNtCsc29TF2YcYso_3syn4item9TraitItemENtNtCsaNl6UpbT7bw_4core5clone5Clone5cloneBJ_, symObjAddr: 0x7614, symBinAddr: 0x56DC0, symSize: 0x90 }
  - { offset: 0xC28BB, size: 0x8, addend: 0x0, symName: __RNvXs9_NtCsiTraAjBDcu4_5alloc3vecINtB5_3VecNtNtCsc29TF2YcYso_3syn4stmt4StmtENtNtCsaNl6UpbT7bw_4core5clone5Clone5cloneBJ_, symObjAddr: 0x76A4, symBinAddr: 0x56E50, symSize: 0x90 }
  - { offset: 0xC2A8C, size: 0x8, addend: 0x0, symName: __RNvXs9_NtCsiTraAjBDcu4_5alloc3vecINtB5_3VecTNtNtCsc29TF2YcYso_3syn2ty4TypeNtNtBK_5token5CommaEENtNtCsaNl6UpbT7bw_4core5clone5Clone5cloneBK_, symObjAddr: 0x77C4, symBinAddr: 0x56EE0, symSize: 0x90 }
  - { offset: 0xC2C5D, size: 0x8, addend: 0x0, symName: __RNvXs9_NtCsiTraAjBDcu4_5alloc3vecINtB5_3VecTNtNtCsc29TF2YcYso_3syn2ty9BareFnArgNtNtBK_5token5CommaEENtNtCsaNl6UpbT7bw_4core5clone5Clone5cloneBK_, symObjAddr: 0x7854, symBinAddr: 0x56F70, symSize: 0x90 }
  - { offset: 0xC2E2E, size: 0x8, addend: 0x0, symName: __RNvXs9_NtCsiTraAjBDcu4_5alloc3vecINtB5_3VecTNtNtCsc29TF2YcYso_3syn3pat3PatNtNtBK_5token2OrEENtNtCsaNl6UpbT7bw_4core5clone5Clone5cloneBK_, symObjAddr: 0x78E4, symBinAddr: 0x57000, symSize: 0x90 }
  - { offset: 0xC2FFF, size: 0x8, addend: 0x0, symName: __RNvXs9_NtCsiTraAjBDcu4_5alloc3vecINtB5_3VecTNtNtCsc29TF2YcYso_3syn3pat3PatNtNtBK_5token5CommaEENtNtCsaNl6UpbT7bw_4core5clone5Clone5cloneBK_, symObjAddr: 0x7974, symBinAddr: 0x57090, symSize: 0x90 }
  - { offset: 0xC31D0, size: 0x8, addend: 0x0, symName: __RNvXs9_NtCsiTraAjBDcu4_5alloc3vecINtB5_3VecTNtNtCsc29TF2YcYso_3syn3pat8FieldPatNtNtBK_5token5CommaEENtNtCsaNl6UpbT7bw_4core5clone5Clone5cloneBK_, symObjAddr: 0x7A04, symBinAddr: 0x57120, symSize: 0x90 }
  - { offset: 0xC33A1, size: 0x8, addend: 0x0, symName: __RNvXs9_NtCsiTraAjBDcu4_5alloc3vecINtB5_3VecTNtNtCsc29TF2YcYso_3syn4data5FieldNtNtBK_5token5CommaEENtNtCsaNl6UpbT7bw_4core5clone5Clone5cloneBK_, symObjAddr: 0x7A94, symBinAddr: 0x571B0, symSize: 0x90 }
  - { offset: 0xC3572, size: 0x8, addend: 0x0, symName: __RNvXs9_NtCsiTraAjBDcu4_5alloc3vecINtB5_3VecTNtNtCsc29TF2YcYso_3syn4data7VariantNtNtBK_5token5CommaEENtNtCsaNl6UpbT7bw_4core5clone5Clone5cloneBK_, symObjAddr: 0x7B24, symBinAddr: 0x57240, symSize: 0x90 }
  - { offset: 0xC3743, size: 0x8, addend: 0x0, symName: __RNvXs9_NtCsiTraAjBDcu4_5alloc3vecINtB5_3VecTNtNtCsc29TF2YcYso_3syn4expr10FieldValueNtNtBK_5token5CommaEENtNtCsaNl6UpbT7bw_4core5clone5Clone5cloneBK_, symObjAddr: 0x7BB4, symBinAddr: 0x572D0, symSize: 0x90 }
  - { offset: 0xC3914, size: 0x8, addend: 0x0, symName: __RNvXs9_NtCsiTraAjBDcu4_5alloc3vecINtB5_3VecTNtNtCsc29TF2YcYso_3syn4expr4ExprNtNtBK_5token5CommaEENtNtCsaNl6UpbT7bw_4core5clone5Clone5cloneBK_, symObjAddr: 0x7C44, symBinAddr: 0x57360, symSize: 0x90 }
  - { offset: 0xC3AE5, size: 0x8, addend: 0x0, symName: __RNvXs9_NtCsiTraAjBDcu4_5alloc3vecINtB5_3VecTNtNtCsc29TF2YcYso_3syn4item5FnArgNtNtBK_5token5CommaEENtNtCsaNl6UpbT7bw_4core5clone5Clone5cloneBK_, symObjAddr: 0x7CD4, symBinAddr: 0x573F0, symSize: 0x90 }
  - { offset: 0xC3CB6, size: 0x8, addend: 0x0, symName: __RNvXs9_NtCsiTraAjBDcu4_5alloc3vecINtB5_3VecTNtNtCsc29TF2YcYso_3syn4item7UseTreeNtNtBK_5token5CommaEENtNtCsaNl6UpbT7bw_4core5clone5Clone5cloneBK_, symObjAddr: 0x7D64, symBinAddr: 0x57480, symSize: 0x90 }
  - { offset: 0xC3E87, size: 0x8, addend: 0x0, symName: __RNvXs9_NtCsiTraAjBDcu4_5alloc3vecINtB5_3VecTNtNtCsc29TF2YcYso_3syn4path11PathSegmentNtNtBK_5token7PathSepEENtNtCsaNl6UpbT7bw_4core5clone5Clone5cloneBK_, symObjAddr: 0x7DF4, symBinAddr: 0x57510, symSize: 0x90 }
  - { offset: 0xC4058, size: 0x8, addend: 0x0, symName: __RNvXs9_NtCsiTraAjBDcu4_5alloc3vecINtB5_3VecTNtNtCsc29TF2YcYso_3syn4path15GenericArgumentNtNtBK_5token5CommaEENtNtCsaNl6UpbT7bw_4core5clone5Clone5cloneBK_, symObjAddr: 0x7E84, symBinAddr: 0x575A0, symSize: 0x90 }
  - { offset: 0xC4229, size: 0x8, addend: 0x0, symName: __RNvXs9_NtCsiTraAjBDcu4_5alloc3vecINtB5_3VecTNtNtCsc29TF2YcYso_3syn8generics12GenericParamNtNtBK_5token5CommaEENtNtCsaNl6UpbT7bw_4core5clone5Clone5cloneBK_, symObjAddr: 0x7F14, symBinAddr: 0x57630, symSize: 0x90 }
  - { offset: 0xC43FA, size: 0x8, addend: 0x0, symName: __RNvXs9_NtCsiTraAjBDcu4_5alloc3vecINtB5_3VecTNtNtCsc29TF2YcYso_3syn8generics13CapturedParamNtNtBK_5token5CommaEENtNtCsaNl6UpbT7bw_4core5clone5Clone5cloneBK_, symObjAddr: 0x7FA4, symBinAddr: 0x576C0, symSize: 0x90 }
  - { offset: 0xC45CB, size: 0x8, addend: 0x0, symName: __RNvXs9_NtCsiTraAjBDcu4_5alloc3vecINtB5_3VecTNtNtCsc29TF2YcYso_3syn8generics14TypeParamBoundNtNtBK_5token4PlusEENtNtCsaNl6UpbT7bw_4core5clone5Clone5cloneBK_, symObjAddr: 0x8034, symBinAddr: 0x57750, symSize: 0x90 }
  - { offset: 0xC479C, size: 0x8, addend: 0x0, symName: __RNvXs9_NtCsiTraAjBDcu4_5alloc3vecINtB5_3VecTNtNtCsc29TF2YcYso_3syn8generics14WherePredicateNtNtBK_5token5CommaEENtNtCsaNl6UpbT7bw_4core5clone5Clone5cloneBK_, symObjAddr: 0x80C4, symBinAddr: 0x577E0, symSize: 0x90 }
  - { offset: 0xC496D, size: 0x8, addend: 0x0, symName: __RNvXs9_NtCsiTraAjBDcu4_5alloc3vecINtB5_3VecTNtNtCsc29TF2YcYso_3syn8lifetime8LifetimeNtNtBK_5token4PlusEENtNtCsaNl6UpbT7bw_4core5clone5Clone5cloneBK_, symObjAddr: 0x8154, symBinAddr: 0x57870, symSize: 0x90 }
  - { offset: 0xC4B44, size: 0x8, addend: 0x0, symName: __RNvXsc_NtCsiTraAjBDcu4_5alloc3vecINtB5_3VecNtNtCsc29TF2YcYso_3syn6buffer5EntryEINtNtNtCsaNl6UpbT7bw_4core3ops5index8IndexMutjE9index_mutBJ_, symObjAddr: 0x85F0, symBinAddr: 0x57CA0, symSize: 0x8C }
  - { offset: 0xC4C98, size: 0x8, addend: 0x0, symName: __RNvXsc_NtCsiTraAjBDcu4_5alloc3vecINtB5_3VechEINtNtNtCsaNl6UpbT7bw_4core3ops5index8IndexMutjE9index_mutCsc29TF2YcYso_3syn, symObjAddr: 0x867C, symBinAddr: 0x57D2C, symSize: 0x88 }
  - { offset: 0xC4DF2, size: 0x8, addend: 0x0, symName: __RNvXse_NtCsiTraAjBDcu4_5alloc3vecINtB5_3VecNtNtCsc29TF2YcYso_3syn4attr9AttributeENtNtNtNtCsaNl6UpbT7bw_4core4iter6traits7collect12IntoIterator9into_iterBJ_, symObjAddr: 0x8704, symBinAddr: 0x57DB4, symSize: 0xDC }
  - { offset: 0xC5084, size: 0x8, addend: 0x0, symName: __RNvXse_NtCsiTraAjBDcu4_5alloc3vecINtB5_3VecNtNtCsc29TF2YcYso_3syn8generics14TypeParamBoundENtNtNtNtCsaNl6UpbT7bw_4core4iter6traits7collect12IntoIterator9into_iterBJ_, symObjAddr: 0x89A8, symBinAddr: 0x57E90, symSize: 0xE4 }
  - { offset: 0xC5316, size: 0x8, addend: 0x0, symName: __RNvXse_NtCsiTraAjBDcu4_5alloc3vecINtB5_3VecTNtNtCsc29TF2YcYso_3syn4path11PathSegmentNtNtBK_5token7PathSepEENtNtNtNtCsaNl6UpbT7bw_4core4iter6traits7collect12IntoIterator9into_iterBK_, symObjAddr: 0x8C54, symBinAddr: 0x57F74, symSize: 0xE4 }
  - { offset: 0xC55A8, size: 0x8, addend: 0x0, symName: __RNvXse_NtCsiTraAjBDcu4_5alloc3vecINtB5_3VecTNtNtCsc29TF2YcYso_3syn8generics14TypeParamBoundNtNtBK_5token4PlusEENtNtNtNtCsaNl6UpbT7bw_4core4iter6traits7collect12IntoIterator9into_iterBK_, symObjAddr: 0x8D38, symBinAddr: 0x58058, symSize: 0xDC }
  - { offset: 0xC5840, size: 0x8, addend: 0x0, symName: __RNvXsf_NtCsiTraAjBDcu4_5alloc3vecRINtB5_3VecNtNtCsc29TF2YcYso_3syn4attr9AttributeENtNtNtNtCsaNl6UpbT7bw_4core4iter6traits7collect12IntoIterator9into_iterBK_, symObjAddr: 0x8E14, symBinAddr: 0x58134, symSize: 0xA4 }
  - { offset: 0xC5A7E, size: 0x8, addend: 0x0, symName: __RNvXsf_NtCsiTraAjBDcu4_5alloc3vecRINtB5_3VecNtNtCsc29TF2YcYso_3syn4item11ForeignItemENtNtNtNtCsaNl6UpbT7bw_4core4iter6traits7collect12IntoIterator9into_iterBK_, symObjAddr: 0x8EB8, symBinAddr: 0x581D8, symSize: 0xAC }
  - { offset: 0xC5CBC, size: 0x8, addend: 0x0, symName: __RNvXsf_NtCsiTraAjBDcu4_5alloc3vecRINtB5_3VecNtNtCsc29TF2YcYso_3syn4item4ItemENtNtNtNtCsaNl6UpbT7bw_4core4iter6traits7collect12IntoIterator9into_iterBK_, symObjAddr: 0x8F64, symBinAddr: 0x58284, symSize: 0xAC }
  - { offset: 0xC5EFA, size: 0x8, addend: 0x0, symName: __RNvXsf_NtCsiTraAjBDcu4_5alloc3vecRINtB5_3VecNtNtCsc29TF2YcYso_3syn4item8ImplItemENtNtNtNtCsaNl6UpbT7bw_4core4iter6traits7collect12IntoIterator9into_iterBK_, symObjAddr: 0x9010, symBinAddr: 0x58330, symSize: 0xAC }
  - { offset: 0xC6138, size: 0x8, addend: 0x0, symName: __RNvXsf_NtCsiTraAjBDcu4_5alloc3vecRINtB5_3VecNtNtCsc29TF2YcYso_3syn4item9TraitItemENtNtNtNtCsaNl6UpbT7bw_4core4iter6traits7collect12IntoIterator9into_iterBK_, symObjAddr: 0x90BC, symBinAddr: 0x583DC, symSize: 0xAC }
  - { offset: 0xC6376, size: 0x8, addend: 0x0, symName: __RNvXsf_NtCsiTraAjBDcu4_5alloc3vecRINtB5_3VecNtNtCsc29TF2YcYso_3syn4stmt4StmtENtNtNtNtCsaNl6UpbT7bw_4core4iter6traits7collect12IntoIterator9into_iterBK_, symObjAddr: 0x9168, symBinAddr: 0x58488, symSize: 0xAC }
  - { offset: 0xC65B4, size: 0x8, addend: 0x0, symName: __RNvXsf_NtCsiTraAjBDcu4_5alloc3vecRINtB5_3VecTNtNtCsc29TF2YcYso_3syn2ty4TypeNtNtBL_5token5CommaEENtNtNtNtCsaNl6UpbT7bw_4core4iter6traits7collect12IntoIterator9into_iterBL_, symObjAddr: 0x9214, symBinAddr: 0x58534, symSize: 0xAC }
  - { offset: 0xC67F2, size: 0x8, addend: 0x0, symName: __RNvXsf_NtCsiTraAjBDcu4_5alloc3vecRINtB5_3VecTNtNtCsc29TF2YcYso_3syn2ty9BareFnArgNtNtBL_5token5CommaEENtNtNtNtCsaNl6UpbT7bw_4core4iter6traits7collect12IntoIterator9into_iterBL_, symObjAddr: 0x92C0, symBinAddr: 0x585E0, symSize: 0xAC }
  - { offset: 0xC6A30, size: 0x8, addend: 0x0, symName: __RNvXsf_NtCsiTraAjBDcu4_5alloc3vecRINtB5_3VecTNtNtCsc29TF2YcYso_3syn3pat3PatNtNtBL_5token2OrEENtNtNtNtCsaNl6UpbT7bw_4core4iter6traits7collect12IntoIterator9into_iterBL_, symObjAddr: 0x936C, symBinAddr: 0x5868C, symSize: 0xAC }
  - { offset: 0xC6C6E, size: 0x8, addend: 0x0, symName: __RNvXsf_NtCsiTraAjBDcu4_5alloc3vecRINtB5_3VecTNtNtCsc29TF2YcYso_3syn3pat3PatNtNtBL_5token5CommaEENtNtNtNtCsaNl6UpbT7bw_4core4iter6traits7collect12IntoIterator9into_iterBL_, symObjAddr: 0x9418, symBinAddr: 0x58738, symSize: 0xAC }
  - { offset: 0xC6EAC, size: 0x8, addend: 0x0, symName: __RNvXsf_NtCsiTraAjBDcu4_5alloc3vecRINtB5_3VecTNtNtCsc29TF2YcYso_3syn3pat8FieldPatNtNtBL_5token5CommaEENtNtNtNtCsaNl6UpbT7bw_4core4iter6traits7collect12IntoIterator9into_iterBL_, symObjAddr: 0x94C4, symBinAddr: 0x587E4, symSize: 0xAC }
  - { offset: 0xC70EA, size: 0x8, addend: 0x0, symName: __RNvXsf_NtCsiTraAjBDcu4_5alloc3vecRINtB5_3VecTNtNtCsc29TF2YcYso_3syn4data5FieldNtNtBL_5token5CommaEENtNtNtNtCsaNl6UpbT7bw_4core4iter6traits7collect12IntoIterator9into_iterBL_, symObjAddr: 0x9570, symBinAddr: 0x58890, symSize: 0xAC }
  - { offset: 0xC7328, size: 0x8, addend: 0x0, symName: __RNvXsf_NtCsiTraAjBDcu4_5alloc3vecRINtB5_3VecTNtNtCsc29TF2YcYso_3syn4data7VariantNtNtBL_5token5CommaEENtNtNtNtCsaNl6UpbT7bw_4core4iter6traits7collect12IntoIterator9into_iterBL_, symObjAddr: 0x961C, symBinAddr: 0x5893C, symSize: 0xAC }
  - { offset: 0xC7566, size: 0x8, addend: 0x0, symName: __RNvXsf_NtCsiTraAjBDcu4_5alloc3vecRINtB5_3VecTNtNtCsc29TF2YcYso_3syn4expr10FieldValueNtNtBL_5token5CommaEENtNtNtNtCsaNl6UpbT7bw_4core4iter6traits7collect12IntoIterator9into_iterBL_, symObjAddr: 0x96C8, symBinAddr: 0x589E8, symSize: 0xAC }
  - { offset: 0xC77A4, size: 0x8, addend: 0x0, symName: __RNvXsf_NtCsiTraAjBDcu4_5alloc3vecRINtB5_3VecTNtNtCsc29TF2YcYso_3syn4expr4ExprNtNtBL_5token5CommaEENtNtNtNtCsaNl6UpbT7bw_4core4iter6traits7collect12IntoIterator9into_iterBL_, symObjAddr: 0x9774, symBinAddr: 0x58A94, symSize: 0xAC }
  - { offset: 0xC79E2, size: 0x8, addend: 0x0, symName: __RNvXsf_NtCsiTraAjBDcu4_5alloc3vecRINtB5_3VecTNtNtCsc29TF2YcYso_3syn4item5FnArgNtNtBL_5token5CommaEENtNtNtNtCsaNl6UpbT7bw_4core4iter6traits7collect12IntoIterator9into_iterBL_, symObjAddr: 0x9820, symBinAddr: 0x58B40, symSize: 0xAC }
  - { offset: 0xC7C20, size: 0x8, addend: 0x0, symName: __RNvXsf_NtCsiTraAjBDcu4_5alloc3vecRINtB5_3VecTNtNtCsc29TF2YcYso_3syn4item7UseTreeNtNtBL_5token5CommaEENtNtNtNtCsaNl6UpbT7bw_4core4iter6traits7collect12IntoIterator9into_iterBL_, symObjAddr: 0x98CC, symBinAddr: 0x58BEC, symSize: 0xAC }
  - { offset: 0xC7E5E, size: 0x8, addend: 0x0, symName: __RNvXsf_NtCsiTraAjBDcu4_5alloc3vecRINtB5_3VecTNtNtCsc29TF2YcYso_3syn4path11PathSegmentNtNtBL_5token7PathSepEENtNtNtNtCsaNl6UpbT7bw_4core4iter6traits7collect12IntoIterator9into_iterBL_, symObjAddr: 0x9978, symBinAddr: 0x58C98, symSize: 0xAC }
  - { offset: 0xC809C, size: 0x8, addend: 0x0, symName: __RNvXsf_NtCsiTraAjBDcu4_5alloc3vecRINtB5_3VecTNtNtCsc29TF2YcYso_3syn4path15GenericArgumentNtNtBL_5token5CommaEENtNtNtNtCsaNl6UpbT7bw_4core4iter6traits7collect12IntoIterator9into_iterBL_, symObjAddr: 0x9A24, symBinAddr: 0x58D44, symSize: 0xAC }
  - { offset: 0xC82DA, size: 0x8, addend: 0x0, symName: __RNvXsf_NtCsiTraAjBDcu4_5alloc3vecRINtB5_3VecTNtNtCsc29TF2YcYso_3syn8generics12GenericParamNtNtBL_5token5CommaEENtNtNtNtCsaNl6UpbT7bw_4core4iter6traits7collect12IntoIterator9into_iterBL_, symObjAddr: 0x9AD0, symBinAddr: 0x58DF0, symSize: 0xAC }
  - { offset: 0xC8518, size: 0x8, addend: 0x0, symName: __RNvXsf_NtCsiTraAjBDcu4_5alloc3vecRINtB5_3VecTNtNtCsc29TF2YcYso_3syn8generics13CapturedParamNtNtBL_5token5CommaEENtNtNtNtCsaNl6UpbT7bw_4core4iter6traits7collect12IntoIterator9into_iterBL_, symObjAddr: 0x9B7C, symBinAddr: 0x58E9C, symSize: 0xAC }
  - { offset: 0xC8756, size: 0x8, addend: 0x0, symName: __RNvXsf_NtCsiTraAjBDcu4_5alloc3vecRINtB5_3VecTNtNtCsc29TF2YcYso_3syn8generics14TypeParamBoundNtNtBL_5token4PlusEENtNtNtNtCsaNl6UpbT7bw_4core4iter6traits7collect12IntoIterator9into_iterBL_, symObjAddr: 0x9C28, symBinAddr: 0x58F48, symSize: 0xA4 }
  - { offset: 0xC8994, size: 0x8, addend: 0x0, symName: __RNvXsf_NtCsiTraAjBDcu4_5alloc3vecRINtB5_3VecTNtNtCsc29TF2YcYso_3syn8generics14WherePredicateNtNtBL_5token5CommaEENtNtNtNtCsaNl6UpbT7bw_4core4iter6traits7collect12IntoIterator9into_iterBL_, symObjAddr: 0x9CCC, symBinAddr: 0x58FEC, symSize: 0xAC }
  - { offset: 0xC8BD2, size: 0x8, addend: 0x0, symName: __RNvXsf_NtCsiTraAjBDcu4_5alloc3vecRINtB5_3VecTNtNtCsc29TF2YcYso_3syn8lifetime8LifetimeNtNtBL_5token4PlusEENtNtNtNtCsaNl6UpbT7bw_4core4iter6traits7collect12IntoIterator9into_iterBL_, symObjAddr: 0x9D78, symBinAddr: 0x59098, symSize: 0xAC }
  - { offset: 0xC8E16, size: 0x8, addend: 0x0, symName: __RNvXsg_NtCsiTraAjBDcu4_5alloc3vecQINtB5_3VechENtNtNtNtCsaNl6UpbT7bw_4core4iter6traits7collect12IntoIterator9into_iterCsc29TF2YcYso_3syn, symObjAddr: 0x9E24, symBinAddr: 0x59144, symSize: 0xA0 }
  - { offset: 0xC902C, size: 0x8, addend: 0x0, symName: __RNvXsn_NtCsiTraAjBDcu4_5alloc3vecINtB5_3VecNtNtCsc29TF2YcYso_3syn4attr9AttributeENtNtNtCsaNl6UpbT7bw_4core3ops4drop4Drop4dropBJ_, symObjAddr: 0x9EC4, symBinAddr: 0x591E4, symSize: 0x38 }
  - { offset: 0xC90DC, size: 0x8, addend: 0x0, symName: __RNvXsn_NtCsiTraAjBDcu4_5alloc3vecINtB5_3VecNtNtCsc29TF2YcYso_3syn4expr3ArmENtNtNtCsaNl6UpbT7bw_4core3ops4drop4Drop4dropBJ_, symObjAddr: 0x9F34, symBinAddr: 0x5921C, symSize: 0x38 }
  - { offset: 0xC918C, size: 0x8, addend: 0x0, symName: __RNvXsn_NtCsiTraAjBDcu4_5alloc3vecINtB5_3VecNtNtCsc29TF2YcYso_3syn4expr6ExprIfENtNtNtCsaNl6UpbT7bw_4core3ops4drop4Drop4dropBJ_, symObjAddr: 0x9F6C, symBinAddr: 0x59254, symSize: 0x38 }
  - { offset: 0xC923C, size: 0x8, addend: 0x0, symName: __RNvXsn_NtCsiTraAjBDcu4_5alloc3vecINtB5_3VecNtNtCsc29TF2YcYso_3syn4item11ForeignItemENtNtNtCsaNl6UpbT7bw_4core3ops4drop4Drop4dropBJ_, symObjAddr: 0x9FA4, symBinAddr: 0x5928C, symSize: 0x38 }
  - { offset: 0xC92EC, size: 0x8, addend: 0x0, symName: __RNvXsn_NtCsiTraAjBDcu4_5alloc3vecINtB5_3VecNtNtCsc29TF2YcYso_3syn4item4ItemENtNtNtCsaNl6UpbT7bw_4core3ops4drop4Drop4dropBJ_, symObjAddr: 0x9FDC, symBinAddr: 0x592C4, symSize: 0x38 }
  - { offset: 0xC939C, size: 0x8, addend: 0x0, symName: __RNvXsn_NtCsiTraAjBDcu4_5alloc3vecINtB5_3VecNtNtCsc29TF2YcYso_3syn4item8ImplItemENtNtNtCsaNl6UpbT7bw_4core3ops4drop4Drop4dropBJ_, symObjAddr: 0xA014, symBinAddr: 0x592FC, symSize: 0x38 }
  - { offset: 0xC944C, size: 0x8, addend: 0x0, symName: __RNvXsn_NtCsiTraAjBDcu4_5alloc3vecINtB5_3VecNtNtCsc29TF2YcYso_3syn4item9TraitItemENtNtNtCsaNl6UpbT7bw_4core3ops4drop4Drop4dropBJ_, symObjAddr: 0xA04C, symBinAddr: 0x59334, symSize: 0x38 }
  - { offset: 0xC94FC, size: 0x8, addend: 0x0, symName: __RNvXsn_NtCsiTraAjBDcu4_5alloc3vecINtB5_3VecNtNtCsc29TF2YcYso_3syn4stmt4StmtENtNtNtCsaNl6UpbT7bw_4core3ops4drop4Drop4dropBJ_, symObjAddr: 0xA084, symBinAddr: 0x5936C, symSize: 0x38 }
  - { offset: 0xC95AC, size: 0x8, addend: 0x0, symName: __RNvXsn_NtCsiTraAjBDcu4_5alloc3vecINtB5_3VecNtNtCsc29TF2YcYso_3syn5error12ErrorMessageENtNtNtCsaNl6UpbT7bw_4core3ops4drop4Drop4dropBJ_, symObjAddr: 0xA0BC, symBinAddr: 0x593A4, symSize: 0x38 }
  - { offset: 0xC965C, size: 0x8, addend: 0x0, symName: __RNvXsn_NtCsiTraAjBDcu4_5alloc3vecINtB5_3VecNtNtCsc29TF2YcYso_3syn6buffer5EntryENtNtNtCsaNl6UpbT7bw_4core3ops4drop4Drop4dropBJ_, symObjAddr: 0xA0F4, symBinAddr: 0x593DC, symSize: 0x38 }
  - { offset: 0xC970C, size: 0x8, addend: 0x0, symName: __RNvXsn_NtCsiTraAjBDcu4_5alloc3vecINtB5_3VecNtNtCsc29TF2YcYso_3syn8generics14TypeParamBoundENtNtNtCsaNl6UpbT7bw_4core3ops4drop4Drop4dropBJ_, symObjAddr: 0xA12C, symBinAddr: 0x59414, symSize: 0x38 }
  - { offset: 0xC97BC, size: 0x8, addend: 0x0, symName: __RNvXsn_NtCsiTraAjBDcu4_5alloc3vecINtB5_3VecReENtNtNtCsaNl6UpbT7bw_4core3ops4drop4Drop4dropCsc29TF2YcYso_3syn, symObjAddr: 0xA164, symBinAddr: 0x5944C, symSize: 0x24 }
  - { offset: 0xC986C, size: 0x8, addend: 0x0, symName: __RNvXsn_NtCsiTraAjBDcu4_5alloc3vecINtB5_3VecTNtNtCsc29TF2YcYso_3syn2ty4TypeNtNtBK_5token5CommaEENtNtNtCsaNl6UpbT7bw_4core3ops4drop4Drop4dropBK_, symObjAddr: 0xA188, symBinAddr: 0x59470, symSize: 0x38 }
  - { offset: 0xC991C, size: 0x8, addend: 0x0, symName: __RNvXsn_NtCsiTraAjBDcu4_5alloc3vecINtB5_3VecTNtNtCsc29TF2YcYso_3syn2ty9BareFnArgNtNtBK_5token5CommaEENtNtNtCsaNl6UpbT7bw_4core3ops4drop4Drop4dropBK_, symObjAddr: 0xA1C0, symBinAddr: 0x594A8, symSize: 0x38 }
  - { offset: 0xC99CC, size: 0x8, addend: 0x0, symName: __RNvXsn_NtCsiTraAjBDcu4_5alloc3vecINtB5_3VecTNtNtCsc29TF2YcYso_3syn3pat3PatNtNtBK_5token2OrEENtNtNtCsaNl6UpbT7bw_4core3ops4drop4Drop4dropBK_, symObjAddr: 0xA1F8, symBinAddr: 0x594E0, symSize: 0x38 }
  - { offset: 0xC9A7C, size: 0x8, addend: 0x0, symName: __RNvXsn_NtCsiTraAjBDcu4_5alloc3vecINtB5_3VecTNtNtCsc29TF2YcYso_3syn3pat3PatNtNtBK_5token5CommaEENtNtNtCsaNl6UpbT7bw_4core3ops4drop4Drop4dropBK_, symObjAddr: 0xA230, symBinAddr: 0x59518, symSize: 0x38 }
  - { offset: 0xC9B2C, size: 0x8, addend: 0x0, symName: __RNvXsn_NtCsiTraAjBDcu4_5alloc3vecINtB5_3VecTNtNtCsc29TF2YcYso_3syn3pat8FieldPatNtNtBK_5token5CommaEENtNtNtCsaNl6UpbT7bw_4core3ops4drop4Drop4dropBK_, symObjAddr: 0xA268, symBinAddr: 0x59550, symSize: 0x38 }
  - { offset: 0xC9BDC, size: 0x8, addend: 0x0, symName: __RNvXsn_NtCsiTraAjBDcu4_5alloc3vecINtB5_3VecTNtNtCsc29TF2YcYso_3syn4data5FieldNtNtBK_5token5CommaEENtNtNtCsaNl6UpbT7bw_4core3ops4drop4Drop4dropBK_, symObjAddr: 0xA2A0, symBinAddr: 0x59588, symSize: 0x38 }
  - { offset: 0xC9C8C, size: 0x8, addend: 0x0, symName: __RNvXsn_NtCsiTraAjBDcu4_5alloc3vecINtB5_3VecTNtNtCsc29TF2YcYso_3syn4data7VariantNtNtBK_5token5CommaEENtNtNtCsaNl6UpbT7bw_4core3ops4drop4Drop4dropBK_, symObjAddr: 0xA310, symBinAddr: 0x595C0, symSize: 0x38 }
  - { offset: 0xC9D3C, size: 0x8, addend: 0x0, symName: __RNvXsn_NtCsiTraAjBDcu4_5alloc3vecINtB5_3VecTNtNtCsc29TF2YcYso_3syn4expr10FieldValueNtNtBK_5token5CommaEENtNtNtCsaNl6UpbT7bw_4core3ops4drop4Drop4dropBK_, symObjAddr: 0xA348, symBinAddr: 0x595F8, symSize: 0x38 }
  - { offset: 0xC9DEC, size: 0x8, addend: 0x0, symName: __RNvXsn_NtCsiTraAjBDcu4_5alloc3vecINtB5_3VecTNtNtCsc29TF2YcYso_3syn4expr4ExprNtNtBK_5token5CommaEENtNtNtCsaNl6UpbT7bw_4core3ops4drop4Drop4dropBK_, symObjAddr: 0xA380, symBinAddr: 0x59630, symSize: 0x38 }
  - { offset: 0xC9E9C, size: 0x8, addend: 0x0, symName: __RNvXsn_NtCsiTraAjBDcu4_5alloc3vecINtB5_3VecTNtNtCsc29TF2YcYso_3syn4item5FnArgNtNtBK_5token5CommaEENtNtNtCsaNl6UpbT7bw_4core3ops4drop4Drop4dropBK_, symObjAddr: 0xA3B8, symBinAddr: 0x59668, symSize: 0x38 }
  - { offset: 0xC9F4C, size: 0x8, addend: 0x0, symName: __RNvXsn_NtCsiTraAjBDcu4_5alloc3vecINtB5_3VecTNtNtCsc29TF2YcYso_3syn4item7UseTreeNtNtBK_5token5CommaEENtNtNtCsaNl6UpbT7bw_4core3ops4drop4Drop4dropBK_, symObjAddr: 0xA3F0, symBinAddr: 0x596A0, symSize: 0x38 }
  - { offset: 0xC9FFC, size: 0x8, addend: 0x0, symName: __RNvXsn_NtCsiTraAjBDcu4_5alloc3vecINtB5_3VecTNtNtCsc29TF2YcYso_3syn4path11PathSegmentNtNtBK_5token7PathSepEENtNtNtCsaNl6UpbT7bw_4core3ops4drop4Drop4dropBK_, symObjAddr: 0xA428, symBinAddr: 0x596D8, symSize: 0x38 }
  - { offset: 0xCA0AC, size: 0x8, addend: 0x0, symName: __RNvXsn_NtCsiTraAjBDcu4_5alloc3vecINtB5_3VecTNtNtCsc29TF2YcYso_3syn4path15GenericArgumentNtNtBK_5token5CommaEENtNtNtCsaNl6UpbT7bw_4core3ops4drop4Drop4dropBK_, symObjAddr: 0xA460, symBinAddr: 0x59710, symSize: 0x38 }
  - { offset: 0xCA15C, size: 0x8, addend: 0x0, symName: __RNvXsn_NtCsiTraAjBDcu4_5alloc3vecINtB5_3VecTNtNtCsc29TF2YcYso_3syn8generics12GenericParamNtNtBK_5token5CommaEENtNtNtCsaNl6UpbT7bw_4core3ops4drop4Drop4dropBK_, symObjAddr: 0xA498, symBinAddr: 0x59748, symSize: 0x38 }
  - { offset: 0xCA20C, size: 0x8, addend: 0x0, symName: __RNvXsn_NtCsiTraAjBDcu4_5alloc3vecINtB5_3VecTNtNtCsc29TF2YcYso_3syn8generics13CapturedParamNtNtBK_5token5CommaEENtNtNtCsaNl6UpbT7bw_4core3ops4drop4Drop4dropBK_, symObjAddr: 0xA4D0, symBinAddr: 0x59780, symSize: 0x38 }
  - { offset: 0xCA2BC, size: 0x8, addend: 0x0, symName: __RNvXsn_NtCsiTraAjBDcu4_5alloc3vecINtB5_3VecTNtNtCsc29TF2YcYso_3syn8generics14TypeParamBoundNtNtBK_5token4PlusEENtNtNtCsaNl6UpbT7bw_4core3ops4drop4Drop4dropBK_, symObjAddr: 0xA508, symBinAddr: 0x597B8, symSize: 0x38 }
  - { offset: 0xCA36C, size: 0x8, addend: 0x0, symName: __RNvXsn_NtCsiTraAjBDcu4_5alloc3vecINtB5_3VecTNtNtCsc29TF2YcYso_3syn8generics14WherePredicateNtNtBK_5token5CommaEENtNtNtCsaNl6UpbT7bw_4core3ops4drop4Drop4dropBK_, symObjAddr: 0xA540, symBinAddr: 0x597F0, symSize: 0x38 }
  - { offset: 0xCA41C, size: 0x8, addend: 0x0, symName: __RNvXsn_NtCsiTraAjBDcu4_5alloc3vecINtB5_3VecTNtNtCsc29TF2YcYso_3syn8lifetime8LifetimeNtNtBK_5token4PlusEENtNtNtCsaNl6UpbT7bw_4core3ops4drop4Drop4dropBK_, symObjAddr: 0xA578, symBinAddr: 0x59828, symSize: 0x38 }
  - { offset: 0xCA4D2, size: 0x8, addend: 0x0, symName: __RNvXsp_NtCsiTraAjBDcu4_5alloc3vecINtB5_3VecNtNtCsc29TF2YcYso_3syn4attr9AttributeENtNtCsaNl6UpbT7bw_4core3fmt5Debug3fmtBJ_, symObjAddr: 0xA5B0, symBinAddr: 0x59860, symSize: 0x7C }
  - { offset: 0xCA5E2, size: 0x8, addend: 0x0, symName: __RNvXsp_NtCsiTraAjBDcu4_5alloc3vecINtB5_3VecNtNtCsc29TF2YcYso_3syn4expr3ArmENtNtCsaNl6UpbT7bw_4core3fmt5Debug3fmtBJ_, symObjAddr: 0xA62C, symBinAddr: 0x598DC, symSize: 0x7C }
  - { offset: 0xCA6F2, size: 0x8, addend: 0x0, symName: __RNvXsp_NtCsiTraAjBDcu4_5alloc3vecINtB5_3VecNtNtCsc29TF2YcYso_3syn4item11ForeignItemENtNtCsaNl6UpbT7bw_4core3fmt5Debug3fmtBJ_, symObjAddr: 0xA6A8, symBinAddr: 0x59958, symSize: 0x7C }
  - { offset: 0xCA802, size: 0x8, addend: 0x0, symName: __RNvXsp_NtCsiTraAjBDcu4_5alloc3vecINtB5_3VecNtNtCsc29TF2YcYso_3syn4item4ItemENtNtCsaNl6UpbT7bw_4core3fmt5Debug3fmtBJ_, symObjAddr: 0xA724, symBinAddr: 0x599D4, symSize: 0x7C }
  - { offset: 0xCA912, size: 0x8, addend: 0x0, symName: __RNvXsp_NtCsiTraAjBDcu4_5alloc3vecINtB5_3VecNtNtCsc29TF2YcYso_3syn4item8ImplItemENtNtCsaNl6UpbT7bw_4core3fmt5Debug3fmtBJ_, symObjAddr: 0xA7A0, symBinAddr: 0x59A50, symSize: 0x7C }
  - { offset: 0xCAA22, size: 0x8, addend: 0x0, symName: __RNvXsp_NtCsiTraAjBDcu4_5alloc3vecINtB5_3VecNtNtCsc29TF2YcYso_3syn4item9TraitItemENtNtCsaNl6UpbT7bw_4core3fmt5Debug3fmtBJ_, symObjAddr: 0xA81C, symBinAddr: 0x59ACC, symSize: 0x7C }
  - { offset: 0xCAB32, size: 0x8, addend: 0x0, symName: __RNvXsp_NtCsiTraAjBDcu4_5alloc3vecINtB5_3VecNtNtCsc29TF2YcYso_3syn4stmt4StmtENtNtCsaNl6UpbT7bw_4core3fmt5Debug3fmtBJ_, symObjAddr: 0xA898, symBinAddr: 0x59B48, symSize: 0x7C }
  - { offset: 0xCAC42, size: 0x8, addend: 0x0, symName: __RNvXsp_NtCsiTraAjBDcu4_5alloc3vecINtB5_3VecNtNtCsc29TF2YcYso_3syn5error12ErrorMessageENtNtCsaNl6UpbT7bw_4core3fmt5Debug3fmtBJ_, symObjAddr: 0xA914, symBinAddr: 0x59BC4, symSize: 0x7C }
  - { offset: 0xCAD52, size: 0x8, addend: 0x0, symName: __RNvXsp_NtCsiTraAjBDcu4_5alloc3vecINtB5_3VechENtNtCsaNl6UpbT7bw_4core3fmt5Debug3fmtCsc29TF2YcYso_3syn, symObjAddr: 0xA990, symBinAddr: 0x59C40, symSize: 0x78 }
  - { offset: 0xCD280, size: 0x8, addend: 0x0, symName: __RNvXsT_NtCsiTraAjBDcu4_5alloc6stringINtNtB7_3vec3VechEINtNtCsaNl6UpbT7bw_4core7convert4FromNtB5_6StringE4fromCsc29TF2YcYso_3syn, symObjAddr: 0x81E4, symBinAddr: 0x57900, symSize: 0x18 }
  - { offset: 0xCD4D5, size: 0x8, addend: 0x0, symName: __RNvXNvMs_NtNtCsiTraAjBDcu4_5alloc3ffi5c_strNtB7_7CString3newINtNtBb_3vec3VechENtB2_11SpecNewImpl13spec_new_implCsc29TF2YcYso_3syn, symObjAddr: 0x6CA4, symBinAddr: 0x5650C, symSize: 0x180 }
  - { offset: 0xD2B40, size: 0x8, addend: 0x0, symName: __RINvMs_NtCsiTraAjBDcu4_5alloc3vecINtB5_3VecReE10retain_mutNCNvMNtCsc29TF2YcYso_3syn9lookaheadNtBZ_10Lookahead15error0EB11_, symObjAddr: 0x0, symBinAddr: 0x51D40, symSize: 0xE4 }
  - { offset: 0xD2E3A, size: 0x8, addend: 0x0, symName: __RINvMsi_NtCsiTraAjBDcu4_5alloc3vecINtB6_3VecNtCshnvkK9b4wzu_11proc_macro29TokenTreeE16extend_desugaredINtNtNtNtCsaNl6UpbT7bw_4core4iter8adapters7flatten7FlattenINtNtB1H_3map3MapIB2z_IB2z_INtNtNtB1L_5slice4iter4IterNtNtCsc29TF2YcYso_3syn5error12ErrorMessageENvMs_B3s_B3q_16to_compile_errorENCINvXs7_BI_NtBI_11TokenStreamINtNtNtB1J_6traits7collect12FromIteratorB4P_E9from_iterB2U_E0ENCINvXs6_NtBI_3impNtB6g_11TokenStreamIB58_B6p_E9from_iterB2P_Es_0EEEB3u_, symObjAddr: 0xE4, symBinAddr: 0x51E24, symSize: 0x1D0 }
  - { offset: 0xD37E0, size: 0x8, addend: 0x0, symName: __RINvMsi_NtCsiTraAjBDcu4_5alloc3vecINtB6_3VecNtNtCsc29TF2YcYso_3syn8generics14TypeParamBoundE14extend_trustedINtNtCsaNl6UpbT7bw_4core6option8IntoIterBG_EEBK_, symObjAddr: 0x928, symBinAddr: 0x51FF4, symSize: 0x19C }
  - { offset: 0xD3AA4, size: 0x8, addend: 0x0, symName: __RINvMsi_NtCsiTraAjBDcu4_5alloc3vecINtB6_3VecNtNtCsc29TF2YcYso_3syn8generics14TypeParamBoundE14extend_trustedINtNtNtNtCsaNl6UpbT7bw_4core4iter8adapters3map3MapINtNtB6_9into_iter8IntoIterTBG_NtNtBK_5token4PlusEENCNvXs8_NtBK_10punctuatedINtB3t_10PunctuatedBG_B31_ENtNtNtB1P_6traits7collect12IntoIterator9into_iter0EEBK_, symObjAddr: 0xAC4, symBinAddr: 0x52190, symSize: 0x184 }
  - { offset: 0xD3DFD, size: 0x8, addend: 0x0, symName: __RNvMNtCsiTraAjBDcu4_5alloc3vecINtB2_3VecNtNtCsc29TF2YcYso_3syn4attr9AttributeE3newBG_, symObjAddr: 0x12AC, symBinAddr: 0x52718, symSize: 0x14 }
  - { offset: 0xD3E1A, size: 0x8, addend: 0x0, symName: __RNvMNtCsiTraAjBDcu4_5alloc3vecINtB2_3VecNtNtCsc29TF2YcYso_3syn4expr3ArmE3newBG_, symObjAddr: 0x1308, symBinAddr: 0x5272C, symSize: 0x14 }
  - { offset: 0xD3E37, size: 0x8, addend: 0x0, symName: __RNvMNtCsiTraAjBDcu4_5alloc3vecINtB2_3VecNtNtCsc29TF2YcYso_3syn4expr6ExprIfE3newBG_, symObjAddr: 0x131C, symBinAddr: 0x52740, symSize: 0x14 }
  - { offset: 0xD3E54, size: 0x8, addend: 0x0, symName: __RNvMNtCsiTraAjBDcu4_5alloc3vecINtB2_3VecNtNtCsc29TF2YcYso_3syn4item11ForeignItemE3newBG_, symObjAddr: 0x1330, symBinAddr: 0x52754, symSize: 0x14 }
  - { offset: 0xD3E71, size: 0x8, addend: 0x0, symName: __RNvMNtCsiTraAjBDcu4_5alloc3vecINtB2_3VecNtNtCsc29TF2YcYso_3syn4item4ItemE3newBG_, symObjAddr: 0x1344, symBinAddr: 0x52768, symSize: 0x14 }
  - { offset: 0xD3E8E, size: 0x8, addend: 0x0, symName: __RNvMNtCsiTraAjBDcu4_5alloc3vecINtB2_3VecNtNtCsc29TF2YcYso_3syn4item8ImplItemE3newBG_, symObjAddr: 0x1358, symBinAddr: 0x5277C, symSize: 0x14 }
  - { offset: 0xD3EAB, size: 0x8, addend: 0x0, symName: __RNvMNtCsiTraAjBDcu4_5alloc3vecINtB2_3VecNtNtCsc29TF2YcYso_3syn4item9TraitItemE3newBG_, symObjAddr: 0x136C, symBinAddr: 0x52790, symSize: 0x14 }
  - { offset: 0xD3EC8, size: 0x8, addend: 0x0, symName: __RNvMNtCsiTraAjBDcu4_5alloc3vecINtB2_3VecNtNtCsc29TF2YcYso_3syn4stmt4StmtE3newBG_, symObjAddr: 0x1380, symBinAddr: 0x527A4, symSize: 0x14 }
  - { offset: 0xD3EE5, size: 0x8, addend: 0x0, symName: __RNvMNtCsiTraAjBDcu4_5alloc3vecINtB2_3VecNtNtCsc29TF2YcYso_3syn6buffer5EntryE3newBG_, symObjAddr: 0x1394, symBinAddr: 0x527B8, symSize: 0x14 }
  - { offset: 0xD3F64, size: 0x8, addend: 0x0, symName: __RNvMNtCsiTraAjBDcu4_5alloc3vecINtB2_3VecNtNtCsc29TF2YcYso_3syn8generics14TypeParamBoundE13with_capacityBG_, symObjAddr: 0x13A8, symBinAddr: 0x527CC, symSize: 0x48 }
  - { offset: 0xD3FDC, size: 0x8, addend: 0x0, symName: __RNvMNtCsiTraAjBDcu4_5alloc3vecINtB2_3VecReE3newCsc29TF2YcYso_3syn, symObjAddr: 0x13F0, symBinAddr: 0x52814, symSize: 0x14 }
  - { offset: 0xD3FF9, size: 0x8, addend: 0x0, symName: __RNvMNtCsiTraAjBDcu4_5alloc3vecINtB2_3VecTNtNtCsc29TF2YcYso_3syn2ty4TypeNtNtBH_5token5CommaEE3newBH_, symObjAddr: 0x1404, symBinAddr: 0x52828, symSize: 0x14 }
  - { offset: 0xD4016, size: 0x8, addend: 0x0, symName: __RNvMNtCsiTraAjBDcu4_5alloc3vecINtB2_3VecTNtNtCsc29TF2YcYso_3syn2ty9BareFnArgNtNtBH_5token5CommaEE3newBH_, symObjAddr: 0x1418, symBinAddr: 0x5283C, symSize: 0x14 }
  - { offset: 0xD4033, size: 0x8, addend: 0x0, symName: __RNvMNtCsiTraAjBDcu4_5alloc3vecINtB2_3VecTNtNtCsc29TF2YcYso_3syn3pat3PatNtNtBH_5token2OrEE3newBH_, symObjAddr: 0x142C, symBinAddr: 0x52850, symSize: 0x14 }
  - { offset: 0xD4050, size: 0x8, addend: 0x0, symName: __RNvMNtCsiTraAjBDcu4_5alloc3vecINtB2_3VecTNtNtCsc29TF2YcYso_3syn3pat3PatNtNtBH_5token5CommaEE3newBH_, symObjAddr: 0x1440, symBinAddr: 0x52864, symSize: 0x14 }
  - { offset: 0xD406D, size: 0x8, addend: 0x0, symName: __RNvMNtCsiTraAjBDcu4_5alloc3vecINtB2_3VecTNtNtCsc29TF2YcYso_3syn3pat8FieldPatNtNtBH_5token5CommaEE3newBH_, symObjAddr: 0x1454, symBinAddr: 0x52878, symSize: 0x14 }
  - { offset: 0xD408A, size: 0x8, addend: 0x0, symName: __RNvMNtCsiTraAjBDcu4_5alloc3vecINtB2_3VecTNtNtCsc29TF2YcYso_3syn4data5FieldNtNtBH_5token5CommaEE3newBH_, symObjAddr: 0x1468, symBinAddr: 0x5288C, symSize: 0x14 }
  - { offset: 0xD40A7, size: 0x8, addend: 0x0, symName: __RNvMNtCsiTraAjBDcu4_5alloc3vecINtB2_3VecTNtNtCsc29TF2YcYso_3syn4data7VariantNtNtBH_5token5CommaEE3newBH_, symObjAddr: 0x1490, symBinAddr: 0x528A0, symSize: 0x14 }
  - { offset: 0xD40C4, size: 0x8, addend: 0x0, symName: __RNvMNtCsiTraAjBDcu4_5alloc3vecINtB2_3VecTNtNtCsc29TF2YcYso_3syn4expr10FieldValueNtNtBH_5token5CommaEE3newBH_, symObjAddr: 0x14A4, symBinAddr: 0x528B4, symSize: 0x14 }
  - { offset: 0xD40E1, size: 0x8, addend: 0x0, symName: __RNvMNtCsiTraAjBDcu4_5alloc3vecINtB2_3VecTNtNtCsc29TF2YcYso_3syn4expr4ExprNtNtBH_5token5CommaEE3newBH_, symObjAddr: 0x14B8, symBinAddr: 0x528C8, symSize: 0x14 }
  - { offset: 0xD40FE, size: 0x8, addend: 0x0, symName: __RNvMNtCsiTraAjBDcu4_5alloc3vecINtB2_3VecTNtNtCsc29TF2YcYso_3syn4item5FnArgNtNtBH_5token5CommaEE3newBH_, symObjAddr: 0x14CC, symBinAddr: 0x528DC, symSize: 0x14 }
  - { offset: 0xD411B, size: 0x8, addend: 0x0, symName: __RNvMNtCsiTraAjBDcu4_5alloc3vecINtB2_3VecTNtNtCsc29TF2YcYso_3syn4item7UseTreeNtNtBH_5token5CommaEE3newBH_, symObjAddr: 0x14E0, symBinAddr: 0x528F0, symSize: 0x14 }
  - { offset: 0xD4138, size: 0x8, addend: 0x0, symName: __RNvMNtCsiTraAjBDcu4_5alloc3vecINtB2_3VecTNtNtCsc29TF2YcYso_3syn4path11PathSegmentNtNtBH_5token7PathSepEE3newBH_, symObjAddr: 0x14F4, symBinAddr: 0x52904, symSize: 0x14 }
  - { offset: 0xD4155, size: 0x8, addend: 0x0, symName: __RNvMNtCsiTraAjBDcu4_5alloc3vecINtB2_3VecTNtNtCsc29TF2YcYso_3syn4path15GenericArgumentNtNtBH_5token5CommaEE3newBH_, symObjAddr: 0x1508, symBinAddr: 0x52918, symSize: 0x14 }
  - { offset: 0xD4172, size: 0x8, addend: 0x0, symName: __RNvMNtCsiTraAjBDcu4_5alloc3vecINtB2_3VecTNtNtCsc29TF2YcYso_3syn8generics12GenericParamNtNtBH_5token5CommaEE3newBH_, symObjAddr: 0x151C, symBinAddr: 0x5292C, symSize: 0x14 }
  - { offset: 0xD418F, size: 0x8, addend: 0x0, symName: __RNvMNtCsiTraAjBDcu4_5alloc3vecINtB2_3VecTNtNtCsc29TF2YcYso_3syn8generics13CapturedParamNtNtBH_5token5CommaEE3newBH_, symObjAddr: 0x1530, symBinAddr: 0x52940, symSize: 0x14 }
  - { offset: 0xD41AC, size: 0x8, addend: 0x0, symName: __RNvMNtCsiTraAjBDcu4_5alloc3vecINtB2_3VecTNtNtCsc29TF2YcYso_3syn8generics14TypeParamBoundNtNtBH_5token4PlusEE3newBH_, symObjAddr: 0x1544, symBinAddr: 0x52954, symSize: 0x14 }
  - { offset: 0xD41C9, size: 0x8, addend: 0x0, symName: __RNvMNtCsiTraAjBDcu4_5alloc3vecINtB2_3VecTNtNtCsc29TF2YcYso_3syn8generics14WherePredicateNtNtBH_5token5CommaEE3newBH_, symObjAddr: 0x1558, symBinAddr: 0x52968, symSize: 0x14 }
  - { offset: 0xD41E6, size: 0x8, addend: 0x0, symName: __RNvMNtCsiTraAjBDcu4_5alloc3vecINtB2_3VecTNtNtCsc29TF2YcYso_3syn8lifetime8LifetimeNtNtBH_5token4PlusEE3newBH_, symObjAddr: 0x156C, symBinAddr: 0x5297C, symSize: 0x14 }
  - { offset: 0xD4203, size: 0x8, addend: 0x0, symName: __RNvMNtCsiTraAjBDcu4_5alloc3vecINtB2_3VechE3newCsc29TF2YcYso_3syn, symObjAddr: 0x1580, symBinAddr: 0x52990, symSize: 0x14 }
  - { offset: 0xD4307, size: 0x8, addend: 0x0, symName: __RNvMs0_NtCsiTraAjBDcu4_5alloc3vecINtB5_3VechE17extend_from_sliceCsc29TF2YcYso_3syn, symObjAddr: 0x1594, symBinAddr: 0x529A4, symSize: 0x74 }
  - { offset: 0xD4571, size: 0x8, addend: 0x0, symName: __RNvMs0_NtCsiTraAjBDcu4_5alloc3vecINtB5_3VechE6resizeCsc29TF2YcYso_3syn, symObjAddr: 0x1608, symBinAddr: 0x52A18, symSize: 0x100 }
  - { offset: 0xD4812, size: 0x8, addend: 0x0, symName: __RNvMs2_NtCsiTraAjBDcu4_5alloc3vecINtB5_3VechE11extend_withCsc29TF2YcYso_3syn, symObjAddr: 0x1708, symBinAddr: 0x52B18, symSize: 0x22C }
  - { offset: 0xD4C00, size: 0x8, addend: 0x0, symName: __RNvMs_NtCsiTraAjBDcu4_5alloc3vecINtB4_3VecNtNtCsc29TF2YcYso_3syn4attr9AttributeE15append_elementsBI_, symObjAddr: 0x1934, symBinAddr: 0x52D44, symSize: 0xE0 }
  - { offset: 0xD4E71, size: 0x8, addend: 0x0, symName: __RNvMs_NtCsiTraAjBDcu4_5alloc3vecINtB4_3VecNtNtCsc29TF2YcYso_3syn4attr9AttributeE4pushBI_, symObjAddr: 0x1A14, symBinAddr: 0x52E24, symSize: 0x118 }
  - { offset: 0xD510D, size: 0x8, addend: 0x0, symName: __RNvMs_NtCsiTraAjBDcu4_5alloc3vecINtB4_3VecNtNtCsc29TF2YcYso_3syn4attr9AttributeE6appendBI_, symObjAddr: 0x1B2C, symBinAddr: 0x52F3C, symSize: 0x94 }
  - { offset: 0xD5342, size: 0x8, addend: 0x0, symName: __RNvMs_NtCsiTraAjBDcu4_5alloc3vecINtB4_3VecNtNtCsc29TF2YcYso_3syn4attr9AttributeE7reserveBI_, symObjAddr: 0x1BC0, symBinAddr: 0x52FD0, symSize: 0xC8 }
  - { offset: 0xD5519, size: 0x8, addend: 0x0, symName: __RNvMs_NtCsiTraAjBDcu4_5alloc3vecINtB4_3VecNtNtCsc29TF2YcYso_3syn4attr9AttributeE8as_sliceBI_, symObjAddr: 0x1C88, symBinAddr: 0x53098, symSize: 0x6C }
  - { offset: 0xD55F8, size: 0x8, addend: 0x0, symName: __RNvMs_NtCsiTraAjBDcu4_5alloc3vecINtB4_3VecNtNtCsc29TF2YcYso_3syn4attr9AttributeE8is_emptyBI_, symObjAddr: 0x1CF4, symBinAddr: 0x53104, symSize: 0x20 }
  - { offset: 0xD5658, size: 0x8, addend: 0x0, symName: __RNvMs_NtCsiTraAjBDcu4_5alloc3vecINtB4_3VecNtNtCsc29TF2YcYso_3syn4expr3ArmE3lenBI_, symObjAddr: 0x1DDC, symBinAddr: 0x53124, symSize: 0x18 }
  - { offset: 0xD57A0, size: 0x8, addend: 0x0, symName: __RNvMs_NtCsiTraAjBDcu4_5alloc3vecINtB4_3VecNtNtCsc29TF2YcYso_3syn4expr3ArmE4pushBI_, symObjAddr: 0x1DF4, symBinAddr: 0x5313C, symSize: 0x120 }
  - { offset: 0xD59EE, size: 0x8, addend: 0x0, symName: __RNvMs_NtCsiTraAjBDcu4_5alloc3vecINtB4_3VecNtNtCsc29TF2YcYso_3syn4expr3ArmE8as_sliceBI_, symObjAddr: 0x1F14, symBinAddr: 0x5325C, symSize: 0x6C }
  - { offset: 0xD5C02, size: 0x8, addend: 0x0, symName: __RNvMs_NtCsiTraAjBDcu4_5alloc3vecINtB4_3VecNtNtCsc29TF2YcYso_3syn4expr6ExprIfE3popBI_, symObjAddr: 0x1F80, symBinAddr: 0x532C8, symSize: 0x108 }
  - { offset: 0xD5E76, size: 0x8, addend: 0x0, symName: __RNvMs_NtCsiTraAjBDcu4_5alloc3vecINtB4_3VecNtNtCsc29TF2YcYso_3syn4expr6ExprIfE4pushBI_, symObjAddr: 0x2088, symBinAddr: 0x533D0, symSize: 0x120 }
  - { offset: 0xD6140, size: 0x8, addend: 0x0, symName: __RNvMs_NtCsiTraAjBDcu4_5alloc3vecINtB4_3VecNtNtCsc29TF2YcYso_3syn4item11ForeignItemE4pushBI_, symObjAddr: 0x21A8, symBinAddr: 0x534F0, symSize: 0x120 }
  - { offset: 0xD640A, size: 0x8, addend: 0x0, symName: __RNvMs_NtCsiTraAjBDcu4_5alloc3vecINtB4_3VecNtNtCsc29TF2YcYso_3syn4item4ItemE4pushBI_, symObjAddr: 0x22C8, symBinAddr: 0x53610, symSize: 0x120 }
  - { offset: 0xD66D4, size: 0x8, addend: 0x0, symName: __RNvMs_NtCsiTraAjBDcu4_5alloc3vecINtB4_3VecNtNtCsc29TF2YcYso_3syn4item8ImplItemE4pushBI_, symObjAddr: 0x23E8, symBinAddr: 0x53730, symSize: 0x120 }
  - { offset: 0xD699E, size: 0x8, addend: 0x0, symName: __RNvMs_NtCsiTraAjBDcu4_5alloc3vecINtB4_3VecNtNtCsc29TF2YcYso_3syn4item9TraitItemE4pushBI_, symObjAddr: 0x2508, symBinAddr: 0x53850, symSize: 0x120 }
  - { offset: 0xD6C68, size: 0x8, addend: 0x0, symName: __RNvMs_NtCsiTraAjBDcu4_5alloc3vecINtB4_3VecNtNtCsc29TF2YcYso_3syn4stmt4StmtE4pushBI_, symObjAddr: 0x2628, symBinAddr: 0x53970, symSize: 0x120 }
  - { offset: 0xD6E7A, size: 0x8, addend: 0x0, symName: __RNvMs_NtCsiTraAjBDcu4_5alloc3vecINtB4_3VecNtNtCsc29TF2YcYso_3syn5error12ErrorMessageE3lenBI_, symObjAddr: 0x2830, symBinAddr: 0x53A90, symSize: 0x18 }
  - { offset: 0xD6F4A, size: 0x8, addend: 0x0, symName: __RNvMs_NtCsiTraAjBDcu4_5alloc3vecINtB4_3VecNtNtCsc29TF2YcYso_3syn5error12ErrorMessageE8as_sliceBI_, symObjAddr: 0x2910, symBinAddr: 0x53AA8, symSize: 0x6C }
  - { offset: 0xD7131, size: 0x8, addend: 0x0, symName: __RNvMs_NtCsiTraAjBDcu4_5alloc3vecINtB4_3VecNtNtCsc29TF2YcYso_3syn6buffer5EntryE13shrink_to_fitBI_, symObjAddr: 0x297C, symBinAddr: 0x53B14, symSize: 0xE8 }
  - { offset: 0xD73A4, size: 0x8, addend: 0x0, symName: __RNvMs_NtCsiTraAjBDcu4_5alloc3vecINtB4_3VecNtNtCsc29TF2YcYso_3syn6buffer5EntryE16into_boxed_sliceBI_, symObjAddr: 0x2A64, symBinAddr: 0x53BFC, symSize: 0x118 }
  - { offset: 0xD756D, size: 0x8, addend: 0x0, symName: __RNvMs_NtCsiTraAjBDcu4_5alloc3vecINtB4_3VecNtNtCsc29TF2YcYso_3syn6buffer5EntryE3lenBI_, symObjAddr: 0x2B7C, symBinAddr: 0x53D14, symSize: 0x18 }
  - { offset: 0xD768E, size: 0x8, addend: 0x0, symName: __RNvMs_NtCsiTraAjBDcu4_5alloc3vecINtB4_3VecNtNtCsc29TF2YcYso_3syn6buffer5EntryE4pushBI_, symObjAddr: 0x2B94, symBinAddr: 0x53D2C, symSize: 0x100 }
  - { offset: 0xD7958, size: 0x8, addend: 0x0, symName: __RNvMs_NtCsiTraAjBDcu4_5alloc3vecINtB4_3VecNtNtCsc29TF2YcYso_3syn8generics14TypeParamBoundE7reserveBI_, symObjAddr: 0x2C94, symBinAddr: 0x53E2C, symSize: 0xC8 }
  - { offset: 0xD7ABF, size: 0x8, addend: 0x0, symName: __RNvMs_NtCsiTraAjBDcu4_5alloc3vecINtB4_3VecReE3lenCsc29TF2YcYso_3syn, symObjAddr: 0x2D5C, symBinAddr: 0x53EF4, symSize: 0x18 }
  - { offset: 0xD7BD3, size: 0x8, addend: 0x0, symName: __RNvMs_NtCsiTraAjBDcu4_5alloc3vecINtB4_3VecReE4pushCsc29TF2YcYso_3syn, symObjAddr: 0x2D74, symBinAddr: 0x53F0C, symSize: 0xF4 }
  - { offset: 0xD7DF6, size: 0x8, addend: 0x0, symName: __RNvMs_NtCsiTraAjBDcu4_5alloc3vecINtB4_3VecReE8as_sliceCsc29TF2YcYso_3syn, symObjAddr: 0x2E68, symBinAddr: 0x54000, symSize: 0x6C }
  - { offset: 0xD7EBD, size: 0x8, addend: 0x0, symName: __RNvMs_NtCsiTraAjBDcu4_5alloc3vecINtB4_3VecTNtNtCsc29TF2YcYso_3syn2ty4TypeNtNtBJ_5token5CommaEE3lenBJ_, symObjAddr: 0x2ED4, symBinAddr: 0x5406C, symSize: 0x18 }
  - { offset: 0xD8005, size: 0x8, addend: 0x0, symName: __RNvMs_NtCsiTraAjBDcu4_5alloc3vecINtB4_3VecTNtNtCsc29TF2YcYso_3syn2ty4TypeNtNtBJ_5token5CommaEE4pushBJ_, symObjAddr: 0x2EEC, symBinAddr: 0x54084, symSize: 0x120 }
  - { offset: 0xD8253, size: 0x8, addend: 0x0, symName: __RNvMs_NtCsiTraAjBDcu4_5alloc3vecINtB4_3VecTNtNtCsc29TF2YcYso_3syn2ty4TypeNtNtBJ_5token5CommaEE8as_sliceBJ_, symObjAddr: 0x300C, symBinAddr: 0x541A4, symSize: 0x6C }
  - { offset: 0xD831A, size: 0x8, addend: 0x0, symName: __RNvMs_NtCsiTraAjBDcu4_5alloc3vecINtB4_3VecTNtNtCsc29TF2YcYso_3syn2ty9BareFnArgNtNtBJ_5token5CommaEE3lenBJ_, symObjAddr: 0x3078, symBinAddr: 0x54210, symSize: 0x18 }
  - { offset: 0xD8462, size: 0x8, addend: 0x0, symName: __RNvMs_NtCsiTraAjBDcu4_5alloc3vecINtB4_3VecTNtNtCsc29TF2YcYso_3syn2ty9BareFnArgNtNtBJ_5token5CommaEE4pushBJ_, symObjAddr: 0x3090, symBinAddr: 0x54228, symSize: 0x120 }
  - { offset: 0xD86B0, size: 0x8, addend: 0x0, symName: __RNvMs_NtCsiTraAjBDcu4_5alloc3vecINtB4_3VecTNtNtCsc29TF2YcYso_3syn2ty9BareFnArgNtNtBJ_5token5CommaEE8as_sliceBJ_, symObjAddr: 0x31B0, symBinAddr: 0x54348, symSize: 0x6C }
  - { offset: 0xD887D, size: 0x8, addend: 0x0, symName: __RNvMs_NtCsiTraAjBDcu4_5alloc3vecINtB4_3VecTNtNtCsc29TF2YcYso_3syn3pat3PatNtNtBJ_5token2OrEE4pushBJ_, symObjAddr: 0x321C, symBinAddr: 0x543B4, symSize: 0x120 }
  - { offset: 0xD8AD8, size: 0x8, addend: 0x0, symName: __RNvMs_NtCsiTraAjBDcu4_5alloc3vecINtB4_3VecTNtNtCsc29TF2YcYso_3syn3pat3PatNtNtBJ_5token2OrEE8as_sliceBJ_, symObjAddr: 0x333C, symBinAddr: 0x544D4, symSize: 0x6C }
  - { offset: 0xD8B9F, size: 0x8, addend: 0x0, symName: __RNvMs_NtCsiTraAjBDcu4_5alloc3vecINtB4_3VecTNtNtCsc29TF2YcYso_3syn3pat3PatNtNtBJ_5token5CommaEE3lenBJ_, symObjAddr: 0x33A8, symBinAddr: 0x54540, symSize: 0x18 }
  - { offset: 0xD8CE7, size: 0x8, addend: 0x0, symName: __RNvMs_NtCsiTraAjBDcu4_5alloc3vecINtB4_3VecTNtNtCsc29TF2YcYso_3syn3pat3PatNtNtBJ_5token5CommaEE4pushBJ_, symObjAddr: 0x33C0, symBinAddr: 0x54558, symSize: 0x120 }
  - { offset: 0xD8F35, size: 0x8, addend: 0x0, symName: __RNvMs_NtCsiTraAjBDcu4_5alloc3vecINtB4_3VecTNtNtCsc29TF2YcYso_3syn3pat3PatNtNtBJ_5token5CommaEE8as_sliceBJ_, symObjAddr: 0x34E0, symBinAddr: 0x54678, symSize: 0x6C }
  - { offset: 0xD9102, size: 0x8, addend: 0x0, symName: __RNvMs_NtCsiTraAjBDcu4_5alloc3vecINtB4_3VecTNtNtCsc29TF2YcYso_3syn3pat8FieldPatNtNtBJ_5token5CommaEE4pushBJ_, symObjAddr: 0x354C, symBinAddr: 0x546E4, symSize: 0x118 }
  - { offset: 0xD935B, size: 0x8, addend: 0x0, symName: __RNvMs_NtCsiTraAjBDcu4_5alloc3vecINtB4_3VecTNtNtCsc29TF2YcYso_3syn3pat8FieldPatNtNtBJ_5token5CommaEE8as_sliceBJ_, symObjAddr: 0x3664, symBinAddr: 0x547FC, symSize: 0x6C }
  - { offset: 0xD94E3, size: 0x8, addend: 0x0, symName: __RNvMs_NtCsiTraAjBDcu4_5alloc3vecINtB4_3VecTNtNtCsc29TF2YcYso_3syn4data5FieldNtNtBJ_5token5CommaEE12as_mut_sliceBJ_, symObjAddr: 0x36D0, symBinAddr: 0x54868, symSize: 0x6C }
  - { offset: 0xD95BF, size: 0x8, addend: 0x0, symName: __RNvMs_NtCsiTraAjBDcu4_5alloc3vecINtB4_3VecTNtNtCsc29TF2YcYso_3syn4data5FieldNtNtBJ_5token5CommaEE3lenBJ_, symObjAddr: 0x373C, symBinAddr: 0x548D4, symSize: 0x18 }
  - { offset: 0xD96D3, size: 0x8, addend: 0x0, symName: __RNvMs_NtCsiTraAjBDcu4_5alloc3vecINtB4_3VecTNtNtCsc29TF2YcYso_3syn4data5FieldNtNtBJ_5token5CommaEE4pushBJ_, symObjAddr: 0x3754, symBinAddr: 0x548EC, symSize: 0x120 }
  - { offset: 0xD9918, size: 0x8, addend: 0x0, symName: __RNvMs_NtCsiTraAjBDcu4_5alloc3vecINtB4_3VecTNtNtCsc29TF2YcYso_3syn4data5FieldNtNtBJ_5token5CommaEE8as_sliceBJ_, symObjAddr: 0x3874, symBinAddr: 0x54A0C, symSize: 0x6C }
  - { offset: 0xD9AE5, size: 0x8, addend: 0x0, symName: __RNvMs_NtCsiTraAjBDcu4_5alloc3vecINtB4_3VecTNtNtCsc29TF2YcYso_3syn4data7VariantNtNtBJ_5token5CommaEE4pushBJ_, symObjAddr: 0x38F8, symBinAddr: 0x54A78, symSize: 0x120 }
  - { offset: 0xD9D40, size: 0x8, addend: 0x0, symName: __RNvMs_NtCsiTraAjBDcu4_5alloc3vecINtB4_3VecTNtNtCsc29TF2YcYso_3syn4data7VariantNtNtBJ_5token5CommaEE8as_sliceBJ_, symObjAddr: 0x3A18, symBinAddr: 0x54B98, symSize: 0x6C }
  - { offset: 0xD9F0D, size: 0x8, addend: 0x0, symName: __RNvMs_NtCsiTraAjBDcu4_5alloc3vecINtB4_3VecTNtNtCsc29TF2YcYso_3syn4expr10FieldValueNtNtBJ_5token5CommaEE4pushBJ_, symObjAddr: 0x3A84, symBinAddr: 0x54C04, symSize: 0x120 }
  - { offset: 0xDA168, size: 0x8, addend: 0x0, symName: __RNvMs_NtCsiTraAjBDcu4_5alloc3vecINtB4_3VecTNtNtCsc29TF2YcYso_3syn4expr10FieldValueNtNtBJ_5token5CommaEE8as_sliceBJ_, symObjAddr: 0x3BA4, symBinAddr: 0x54D24, symSize: 0x6C }
  - { offset: 0xDA22F, size: 0x8, addend: 0x0, symName: __RNvMs_NtCsiTraAjBDcu4_5alloc3vecINtB4_3VecTNtNtCsc29TF2YcYso_3syn4expr4ExprNtNtBJ_5token5CommaEE3lenBJ_, symObjAddr: 0x3C10, symBinAddr: 0x54D90, symSize: 0x18 }
  - { offset: 0xDA377, size: 0x8, addend: 0x0, symName: __RNvMs_NtCsiTraAjBDcu4_5alloc3vecINtB4_3VecTNtNtCsc29TF2YcYso_3syn4expr4ExprNtNtBJ_5token5CommaEE4pushBJ_, symObjAddr: 0x3C28, symBinAddr: 0x54DA8, symSize: 0x120 }
  - { offset: 0xDA5C5, size: 0x8, addend: 0x0, symName: __RNvMs_NtCsiTraAjBDcu4_5alloc3vecINtB4_3VecTNtNtCsc29TF2YcYso_3syn4expr4ExprNtNtBJ_5token5CommaEE8as_sliceBJ_, symObjAddr: 0x3D48, symBinAddr: 0x54EC8, symSize: 0x6C }
  - { offset: 0xDA68C, size: 0x8, addend: 0x0, symName: __RNvMs_NtCsiTraAjBDcu4_5alloc3vecINtB4_3VecTNtNtCsc29TF2YcYso_3syn4item5FnArgNtNtBJ_5token5CommaEE3lenBJ_, symObjAddr: 0x3DB4, symBinAddr: 0x54F34, symSize: 0x18 }
  - { offset: 0xDA7D4, size: 0x8, addend: 0x0, symName: __RNvMs_NtCsiTraAjBDcu4_5alloc3vecINtB4_3VecTNtNtCsc29TF2YcYso_3syn4item5FnArgNtNtBJ_5token5CommaEE4pushBJ_, symObjAddr: 0x3DCC, symBinAddr: 0x54F4C, symSize: 0x120 }
  - { offset: 0xDAA22, size: 0x8, addend: 0x0, symName: __RNvMs_NtCsiTraAjBDcu4_5alloc3vecINtB4_3VecTNtNtCsc29TF2YcYso_3syn4item5FnArgNtNtBJ_5token5CommaEE8as_sliceBJ_, symObjAddr: 0x3EEC, symBinAddr: 0x5506C, symSize: 0x6C }
  - { offset: 0xDABEF, size: 0x8, addend: 0x0, symName: __RNvMs_NtCsiTraAjBDcu4_5alloc3vecINtB4_3VecTNtNtCsc29TF2YcYso_3syn4item7UseTreeNtNtBJ_5token5CommaEE4pushBJ_, symObjAddr: 0x3F58, symBinAddr: 0x550D8, symSize: 0x118 }
  - { offset: 0xDAE48, size: 0x8, addend: 0x0, symName: __RNvMs_NtCsiTraAjBDcu4_5alloc3vecINtB4_3VecTNtNtCsc29TF2YcYso_3syn4item7UseTreeNtNtBJ_5token5CommaEE8as_sliceBJ_, symObjAddr: 0x4070, symBinAddr: 0x551F0, symSize: 0x6C }
  - { offset: 0xDAFDD, size: 0x8, addend: 0x0, symName: __RNvMs_NtCsiTraAjBDcu4_5alloc3vecINtB4_3VecTNtNtCsc29TF2YcYso_3syn4path11PathSegmentNtNtBJ_5token7PathSepEE12as_mut_sliceBJ_, symObjAddr: 0x40DC, symBinAddr: 0x5525C, symSize: 0x6C }
  - { offset: 0xDB0B9, size: 0x8, addend: 0x0, symName: __RNvMs_NtCsiTraAjBDcu4_5alloc3vecINtB4_3VecTNtNtCsc29TF2YcYso_3syn4path11PathSegmentNtNtBJ_5token7PathSepEE3lenBJ_, symObjAddr: 0x4148, symBinAddr: 0x552C8, symSize: 0x18 }
  - { offset: 0xDB207, size: 0x8, addend: 0x0, symName: __RNvMs_NtCsiTraAjBDcu4_5alloc3vecINtB4_3VecTNtNtCsc29TF2YcYso_3syn4path11PathSegmentNtNtBJ_5token7PathSepEE3popBJ_, symObjAddr: 0x4160, symBinAddr: 0x552E0, symSize: 0x10C }
  - { offset: 0xDB47B, size: 0x8, addend: 0x0, symName: __RNvMs_NtCsiTraAjBDcu4_5alloc3vecINtB4_3VecTNtNtCsc29TF2YcYso_3syn4path11PathSegmentNtNtBJ_5token7PathSepEE4pushBJ_, symObjAddr: 0x426C, symBinAddr: 0x553EC, symSize: 0x120 }
  - { offset: 0xDB6C0, size: 0x8, addend: 0x0, symName: __RNvMs_NtCsiTraAjBDcu4_5alloc3vecINtB4_3VecTNtNtCsc29TF2YcYso_3syn4path11PathSegmentNtNtBJ_5token7PathSepEE8as_sliceBJ_, symObjAddr: 0x438C, symBinAddr: 0x5550C, symSize: 0x6C }
  - { offset: 0xDB787, size: 0x8, addend: 0x0, symName: __RNvMs_NtCsiTraAjBDcu4_5alloc3vecINtB4_3VecTNtNtCsc29TF2YcYso_3syn4path15GenericArgumentNtNtBJ_5token5CommaEE3lenBJ_, symObjAddr: 0x43F8, symBinAddr: 0x55578, symSize: 0x18 }
  - { offset: 0xDB8CF, size: 0x8, addend: 0x0, symName: __RNvMs_NtCsiTraAjBDcu4_5alloc3vecINtB4_3VecTNtNtCsc29TF2YcYso_3syn4path15GenericArgumentNtNtBJ_5token5CommaEE4pushBJ_, symObjAddr: 0x4410, symBinAddr: 0x55590, symSize: 0x120 }
  - { offset: 0xDBB1D, size: 0x8, addend: 0x0, symName: __RNvMs_NtCsiTraAjBDcu4_5alloc3vecINtB4_3VecTNtNtCsc29TF2YcYso_3syn4path15GenericArgumentNtNtBJ_5token5CommaEE8as_sliceBJ_, symObjAddr: 0x4530, symBinAddr: 0x556B0, symSize: 0x6C }
  - { offset: 0xDBC3F, size: 0x8, addend: 0x0, symName: __RNvMs_NtCsiTraAjBDcu4_5alloc3vecINtB4_3VecTNtNtCsc29TF2YcYso_3syn8generics12GenericParamNtNtBJ_5token5CommaEE3lenBJ_, symObjAddr: 0x4608, symBinAddr: 0x5571C, symSize: 0x18 }
  - { offset: 0xDBD53, size: 0x8, addend: 0x0, symName: __RNvMs_NtCsiTraAjBDcu4_5alloc3vecINtB4_3VecTNtNtCsc29TF2YcYso_3syn8generics12GenericParamNtNtBJ_5token5CommaEE4pushBJ_, symObjAddr: 0x4620, symBinAddr: 0x55734, symSize: 0x120 }
  - { offset: 0xDBF98, size: 0x8, addend: 0x0, symName: __RNvMs_NtCsiTraAjBDcu4_5alloc3vecINtB4_3VecTNtNtCsc29TF2YcYso_3syn8generics12GenericParamNtNtBJ_5token5CommaEE8as_sliceBJ_, symObjAddr: 0x4740, symBinAddr: 0x55854, symSize: 0x6C }
  - { offset: 0xDC165, size: 0x8, addend: 0x0, symName: __RNvMs_NtCsiTraAjBDcu4_5alloc3vecINtB4_3VecTNtNtCsc29TF2YcYso_3syn8generics13CapturedParamNtNtBJ_5token5CommaEE4pushBJ_, symObjAddr: 0x47AC, symBinAddr: 0x558C0, symSize: 0x118 }
  - { offset: 0xDC3BE, size: 0x8, addend: 0x0, symName: __RNvMs_NtCsiTraAjBDcu4_5alloc3vecINtB4_3VecTNtNtCsc29TF2YcYso_3syn8generics13CapturedParamNtNtBJ_5token5CommaEE8as_sliceBJ_, symObjAddr: 0x48C4, symBinAddr: 0x559D8, symSize: 0x6C }
  - { offset: 0xDC485, size: 0x8, addend: 0x0, symName: __RNvMs_NtCsiTraAjBDcu4_5alloc3vecINtB4_3VecTNtNtCsc29TF2YcYso_3syn8generics14TypeParamBoundNtNtBJ_5token4PlusEE3lenBJ_, symObjAddr: 0x4930, symBinAddr: 0x55A44, symSize: 0x18 }
  - { offset: 0xDC5C0, size: 0x8, addend: 0x0, symName: __RNvMs_NtCsiTraAjBDcu4_5alloc3vecINtB4_3VecTNtNtCsc29TF2YcYso_3syn8generics14TypeParamBoundNtNtBJ_5token4PlusEE4pushBJ_, symObjAddr: 0x4948, symBinAddr: 0x55A5C, symSize: 0x118 }
  - { offset: 0xDC80E, size: 0x8, addend: 0x0, symName: __RNvMs_NtCsiTraAjBDcu4_5alloc3vecINtB4_3VecTNtNtCsc29TF2YcYso_3syn8generics14TypeParamBoundNtNtBJ_5token4PlusEE8as_sliceBJ_, symObjAddr: 0x4A60, symBinAddr: 0x55B74, symSize: 0x6C }
  - { offset: 0xDC8D5, size: 0x8, addend: 0x0, symName: __RNvMs_NtCsiTraAjBDcu4_5alloc3vecINtB4_3VecTNtNtCsc29TF2YcYso_3syn8generics14WherePredicateNtNtBJ_5token5CommaEE3lenBJ_, symObjAddr: 0x4ACC, symBinAddr: 0x55BE0, symSize: 0x18 }
  - { offset: 0xDCA1D, size: 0x8, addend: 0x0, symName: __RNvMs_NtCsiTraAjBDcu4_5alloc3vecINtB4_3VecTNtNtCsc29TF2YcYso_3syn8generics14WherePredicateNtNtBJ_5token5CommaEE4pushBJ_, symObjAddr: 0x4AE4, symBinAddr: 0x55BF8, symSize: 0x120 }
  - { offset: 0xDCC6B, size: 0x8, addend: 0x0, symName: __RNvMs_NtCsiTraAjBDcu4_5alloc3vecINtB4_3VecTNtNtCsc29TF2YcYso_3syn8generics14WherePredicateNtNtBJ_5token5CommaEE8as_sliceBJ_, symObjAddr: 0x4C04, symBinAddr: 0x55D18, symSize: 0x6C }
  - { offset: 0xDCD32, size: 0x8, addend: 0x0, symName: __RNvMs_NtCsiTraAjBDcu4_5alloc3vecINtB4_3VecTNtNtCsc29TF2YcYso_3syn8lifetime8LifetimeNtNtBJ_5token4PlusEE3lenBJ_, symObjAddr: 0x4C70, symBinAddr: 0x55D84, symSize: 0x18 }
  - { offset: 0xDCE7A, size: 0x8, addend: 0x0, symName: __RNvMs_NtCsiTraAjBDcu4_5alloc3vecINtB4_3VecTNtNtCsc29TF2YcYso_3syn8lifetime8LifetimeNtNtBJ_5token4PlusEE4pushBJ_, symObjAddr: 0x4C88, symBinAddr: 0x55D9C, symSize: 0x118 }
  - { offset: 0xDD0C6, size: 0x8, addend: 0x0, symName: __RNvMs_NtCsiTraAjBDcu4_5alloc3vecINtB4_3VecTNtNtCsc29TF2YcYso_3syn8lifetime8LifetimeNtNtBJ_5token4PlusEE8as_sliceBJ_, symObjAddr: 0x4DA0, symBinAddr: 0x55EB4, symSize: 0x6C }
  - { offset: 0xDD286, size: 0x8, addend: 0x0, symName: __RNvMs_NtCsiTraAjBDcu4_5alloc3vecINtB4_3VechE13shrink_to_fitCsc29TF2YcYso_3syn, symObjAddr: 0x4E0C, symBinAddr: 0x55F20, symSize: 0xE0 }
  - { offset: 0xDD4B4, size: 0x8, addend: 0x0, symName: __RNvMs_NtCsiTraAjBDcu4_5alloc3vecINtB4_3VechE16into_boxed_sliceCsc29TF2YcYso_3syn, symObjAddr: 0x4EEC, symBinAddr: 0x56000, symSize: 0x118 }
  - { offset: 0xDD67D, size: 0x8, addend: 0x0, symName: __RNvMs_NtCsiTraAjBDcu4_5alloc3vecINtB4_3VechE3lenCsc29TF2YcYso_3syn, symObjAddr: 0x5004, symBinAddr: 0x56118, symSize: 0x18 }
  - { offset: 0xDD791, size: 0x8, addend: 0x0, symName: __RNvMs_NtCsiTraAjBDcu4_5alloc3vecINtB4_3VechE4pushCsc29TF2YcYso_3syn, symObjAddr: 0x501C, symBinAddr: 0x56130, symSize: 0xDC }
  - { offset: 0xDD9B3, size: 0x8, addend: 0x0, symName: __RNvMs_NtCsiTraAjBDcu4_5alloc3vecINtB4_3VechE8as_sliceCsc29TF2YcYso_3syn, symObjAddr: 0x50F8, symBinAddr: 0x5620C, symSize: 0x68 }
  - { offset: 0xDDC23, size: 0x8, addend: 0x0, symName: __RNvMs_NtCsiTraAjBDcu4_5alloc3vecINtB4_3VechE9split_offCsc29TF2YcYso_3syn, symObjAddr: 0x5160, symBinAddr: 0x56274, symSize: 0x148 }
  - { offset: 0xE38F9, size: 0x8, addend: 0x0, symName: __RINvXNvMNtCsiTraAjBDcu4_5alloc5sliceSp9to_vec_inNtNtCsc29TF2YcYso_3syn4expr3ArmNtB3_10ConvertVec6to_vecNtNtB8_5alloc6GlobalEBO_, symObjAddr: 0x0, symBinAddr: 0x59CB8, symSize: 0x374 }
  - { offset: 0xE4BEF, size: 0x8, addend: 0x0, symName: __RINvXNvMNtCsiTraAjBDcu4_5alloc5sliceSp9to_vec_inNtNtCsc29TF2YcYso_3syn4expr3ArmNtB3_10ConvertVec6to_vecNtNtB8_5alloc6GlobalEBO_, symObjAddr: 0x0, symBinAddr: 0x59CB8, symSize: 0x374 }
  - { offset: 0xE50A4, size: 0x8, addend: 0x0, symName: __RINvXNvMNtCsiTraAjBDcu4_5alloc5sliceSp9to_vec_inTNtNtCsc29TF2YcYso_3syn4expr10FieldValueNtNtBP_5token5CommaENtB3_10ConvertVec6to_vecNtNtB8_5alloc6GlobalEBP_, symObjAddr: 0x374, symBinAddr: 0x5A02C, symSize: 0x374 }
  - { offset: 0xE5559, size: 0x8, addend: 0x0, symName: __RINvXNvMNtCsiTraAjBDcu4_5alloc5sliceSp9to_vec_inTNtNtCsc29TF2YcYso_3syn4expr4ExprNtNtBP_5token5CommaENtB3_10ConvertVec6to_vecNtNtB8_5alloc6GlobalEBP_, symObjAddr: 0x6E8, symBinAddr: 0x5A3A0, symSize: 0x374 }
  - { offset: 0xE858A, size: 0x8, addend: 0x0, symName: __RNvXs7_NtCsc29TF2YcYso_3syn4exprNtB5_5IndexINtNtCsaNl6UpbT7bw_4core7convert4FromjE4from, symObjAddr: 0x2AE4, symBinAddr: 0x5B520, symSize: 0x84 }
  - { offset: 0xE85C3, size: 0x8, addend: 0x0, symName: __RNvXNtNtCsc29TF2YcYso_3syn4expr7parsingNtB4_4ExprNtNtB6_5parse5Parse5parse, symObjAddr: 0x2C1C, symBinAddr: 0x5B5A4, symSize: 0x3C }
  - { offset: 0xE85F7, size: 0x8, addend: 0x0, symName: __RNvXs4_NtNtCsc29TF2YcYso_3syn4expr7parsingNtB7_7ExprLitNtNtB9_5parse5Parse5parse, symObjAddr: 0x36BC, symBinAddr: 0x5B5E0, symSize: 0x14C }
  - { offset: 0xE864A, size: 0x8, addend: 0x0, symName: __RNvXs7_NtNtCsc29TF2YcYso_3syn4expr7parsingNtB7_6ExprIfNtNtB9_5parse5Parse5parse, symObjAddr: 0x3AF0, symBinAddr: 0x5B72C, symSize: 0x1040 }
  - { offset: 0xE88C1, size: 0x8, addend: 0x0, symName: __RNvXs8_NtNtCsc29TF2YcYso_3syn4expr7parsingNtB7_9ExprInferNtNtB9_5parse5Parse5parse, symObjAddr: 0x4B30, symBinAddr: 0x5C76C, symSize: 0x1D0 }
  - { offset: 0xE8952, size: 0x8, addend: 0x0, symName: __RNvXs9_NtNtCsc29TF2YcYso_3syn4expr7parsingNtB7_11ExprForLoopNtNtB9_5parse5Parse5parse, symObjAddr: 0x4D00, symBinAddr: 0x5C93C, symSize: 0x9A4 }
  - { offset: 0xE8C21, size: 0x8, addend: 0x0, symName: __RNvXsa_NtNtCsc29TF2YcYso_3syn4expr7parsingNtB7_8ExprLoopNtNtB9_5parse5Parse5parse, symObjAddr: 0x56A4, symBinAddr: 0x5D2E0, symSize: 0x590 }
  - { offset: 0xE8DD4, size: 0x8, addend: 0x0, symName: __RNvXsb_NtNtCsc29TF2YcYso_3syn4expr7parsingNtB7_9ExprMatchNtNtB9_5parse5Parse5parse, symObjAddr: 0x5C34, symBinAddr: 0x5D870, symSize: 0x60C }
  - { offset: 0xE8FC5, size: 0x8, addend: 0x0, symName: __RNvXsh_NtNtCsc29TF2YcYso_3syn4expr7parsingNtB7_10ExprReturnNtNtB9_5parse5Parse5parse, symObjAddr: 0x6A7C, symBinAddr: 0x5DE7C, symSize: 0x210 }
  - { offset: 0xE9027, size: 0x8, addend: 0x0, symName: __RNvXsi_NtNtCsc29TF2YcYso_3syn4expr7parsingNtB7_12ExprTryBlockNtNtB9_5parse5Parse5parse, symObjAddr: 0x6C8C, symBinAddr: 0x5E08C, symSize: 0x220 }
  - { offset: 0xE9099, size: 0x8, addend: 0x0, symName: __RNvXsj_NtNtCsc29TF2YcYso_3syn4expr7parsingNtB7_9ExprYieldNtNtB9_5parse5Parse5parse, symObjAddr: 0x6EAC, symBinAddr: 0x5E2AC, symSize: 0x210 }
  - { offset: 0xE90FB, size: 0x8, addend: 0x0, symName: __RNvXsk_NtNtCsc29TF2YcYso_3syn4expr7parsingNtB7_9ExprAsyncNtNtB9_5parse5Parse5parse, symObjAddr: 0x70BC, symBinAddr: 0x5E4BC, symSize: 0x2E8 }
  - { offset: 0xE918C, size: 0x8, addend: 0x0, symName: __RNvXsl_NtNtCsc29TF2YcYso_3syn4expr7parsingNtB7_9ExprWhileNtNtB9_5parse5Parse5parse, symObjAddr: 0x73A4, symBinAddr: 0x5E7A4, symSize: 0x760 }
  - { offset: 0xE93C2, size: 0x8, addend: 0x0, symName: __RNvXsm_NtNtCsc29TF2YcYso_3syn4expr7parsingNtB7_9ExprConstNtNtB9_5parse5Parse5parse, symObjAddr: 0x7B04, symBinAddr: 0x5EF04, symSize: 0x3BC }
  - { offset: 0xE9518, size: 0x8, addend: 0x0, symName: __RNvXsn_NtNtCsc29TF2YcYso_3syn4expr7parsingNtB7_5LabelNtNtB9_5parse5Parse5parse, symObjAddr: 0x7EC0, symBinAddr: 0x5F2C0, symSize: 0x1D4 }
  - { offset: 0xE95A9, size: 0x8, addend: 0x0, symName: __RNvXsp_NtNtCsc29TF2YcYso_3syn4expr7parsingNtB7_12ExprContinueNtNtB9_5parse5Parse5parse, symObjAddr: 0x8094, symBinAddr: 0x5F494, symSize: 0x200 }
  - { offset: 0xE961B, size: 0x8, addend: 0x0, symName: __RNvXsq_NtNtCsc29TF2YcYso_3syn4expr7parsingNtB7_10FieldValueNtNtB9_5parse5Parse5parse, symObjAddr: 0x8294, symBinAddr: 0x5F694, symSize: 0x560 }
  - { offset: 0xE97BA, size: 0x8, addend: 0x0, symName: __RNvXss_NtNtCsc29TF2YcYso_3syn4expr7parsingNtB7_10ExprUnsafeNtNtB9_5parse5Parse5parse, symObjAddr: 0x89B4, symBinAddr: 0x5FBF4, symSize: 0x3BC }
  - { offset: 0xE9910, size: 0x8, addend: 0x0, symName: __RNvXst_NtNtCsc29TF2YcYso_3syn4expr7parsingNtB7_9ExprBlockNtNtB9_5parse5Parse5parse, symObjAddr: 0x8D70, symBinAddr: 0x5FFB0, symSize: 0x4FC }
  - { offset: 0xE9A96, size: 0x8, addend: 0x0, symName: __RNvXsu_NtNtCsc29TF2YcYso_3syn4expr7parsingNtB7_11RangeLimitsNtNtB9_5parse5Parse5parse, symObjAddr: 0x926C, symBinAddr: 0x604AC, symSize: 0x234 }
  - { offset: 0xE9B24, size: 0x8, addend: 0x0, symName: __RNvXsw_NtNtCsc29TF2YcYso_3syn4expr7parsingNtB7_8ExprPathNtNtB9_5parse5Parse5parse, symObjAddr: 0x97D4, symBinAddr: 0x60A14, symSize: 0x238 }
  - { offset: 0xE9C12, size: 0x8, addend: 0x0, symName: __RNvXsx_NtNtCsc29TF2YcYso_3syn4expr7parsingNtB7_6MemberNtNtB9_5parse5Parse5parse, symObjAddr: 0x9A0C, symBinAddr: 0x60C4C, symSize: 0xFC }
  - { offset: 0xE9C46, size: 0x8, addend: 0x0, symName: __RNvXsz_NtNtCsc29TF2YcYso_3syn4expr7parsingNtB7_3ArmNtNtB9_5parse5Parse5parse, symObjAddr: 0x9CCC, symBinAddr: 0x60F0C, symSize: 0x8EC }
  - { offset: 0xE9E7E, size: 0x8, addend: 0x0, symName: __RNvXsA_NtNtCsc29TF2YcYso_3syn4expr7parsingNtB7_5IndexNtNtB9_5parse5Parse5parse, symObjAddr: 0xA5B8, symBinAddr: 0x617F8, symSize: 0x28C }
  - { offset: 0xE9F2C, size: 0x8, addend: 0x0, symName: __RNvXNtNtCsc29TF2YcYso_3syn4expr8printingNtB4_9ExprArrayNtNtCs4EAaWzSXu1l_5quote9to_tokens8ToTokens9to_tokens, symObjAddr: 0xAAFC, symBinAddr: 0x61A84, symSize: 0x58 }
  - { offset: 0xE9F6B, size: 0x8, addend: 0x0, symName: __RNvXs_NtNtCsc29TF2YcYso_3syn4expr8printingNtB6_10ExprAssignNtNtCs4EAaWzSXu1l_5quote9to_tokens8ToTokens9to_tokens, symObjAddr: 0xAB54, symBinAddr: 0x61ADC, symSize: 0x58 }
  - { offset: 0xE9FAA, size: 0x8, addend: 0x0, symName: __RNvXs0_NtNtCsc29TF2YcYso_3syn4expr8printingNtB7_9ExprAsyncNtNtCs4EAaWzSXu1l_5quote9to_tokens8ToTokens9to_tokens, symObjAddr: 0xABAC, symBinAddr: 0x61B34, symSize: 0x74 }
  - { offset: 0xE9FE9, size: 0x8, addend: 0x0, symName: __RNvXs1_NtNtCsc29TF2YcYso_3syn4expr8printingNtB7_9ExprAwaitNtNtCs4EAaWzSXu1l_5quote9to_tokens8ToTokens9to_tokens, symObjAddr: 0xAC20, symBinAddr: 0x61BA8, symSize: 0x58 }
  - { offset: 0xEA028, size: 0x8, addend: 0x0, symName: __RNvXs2_NtNtCsc29TF2YcYso_3syn4expr8printingNtB7_10ExprBinaryNtNtCs4EAaWzSXu1l_5quote9to_tokens8ToTokens9to_tokens, symObjAddr: 0xAC78, symBinAddr: 0x61C00, symSize: 0x58 }
  - { offset: 0xEA067, size: 0x8, addend: 0x0, symName: __RNvXs3_NtNtCsc29TF2YcYso_3syn4expr8printingNtB7_9ExprBlockNtNtCs4EAaWzSXu1l_5quote9to_tokens8ToTokens9to_tokens, symObjAddr: 0xACD0, symBinAddr: 0x61C58, symSize: 0x68 }
  - { offset: 0xEA0A6, size: 0x8, addend: 0x0, symName: __RNvXs4_NtNtCsc29TF2YcYso_3syn4expr8printingNtB7_9ExprBreakNtNtCs4EAaWzSXu1l_5quote9to_tokens8ToTokens9to_tokens, symObjAddr: 0xAD38, symBinAddr: 0x61CC0, symSize: 0x58 }
  - { offset: 0xEA0E5, size: 0x8, addend: 0x0, symName: __RNvXs5_NtNtCsc29TF2YcYso_3syn4expr8printingNtB7_8ExprCallNtNtCs4EAaWzSXu1l_5quote9to_tokens8ToTokens9to_tokens, symObjAddr: 0xAD90, symBinAddr: 0x61D18, symSize: 0x58 }
  - { offset: 0xEA124, size: 0x8, addend: 0x0, symName: __RNvXs6_NtNtCsc29TF2YcYso_3syn4expr8printingNtB7_8ExprCastNtNtCs4EAaWzSXu1l_5quote9to_tokens8ToTokens9to_tokens, symObjAddr: 0xADE8, symBinAddr: 0x61D70, symSize: 0x58 }
  - { offset: 0xEA163, size: 0x8, addend: 0x0, symName: __RNvXs7_NtNtCsc29TF2YcYso_3syn4expr8printingNtB7_11ExprClosureNtNtCs4EAaWzSXu1l_5quote9to_tokens8ToTokens9to_tokens, symObjAddr: 0xAE40, symBinAddr: 0x61DC8, symSize: 0x58 }
  - { offset: 0xEA1A2, size: 0x8, addend: 0x0, symName: __RNvXs8_NtNtCsc29TF2YcYso_3syn4expr8printingNtB7_9ExprConstNtNtCs4EAaWzSXu1l_5quote9to_tokens8ToTokens9to_tokens, symObjAddr: 0xAE98, symBinAddr: 0x61E20, symSize: 0x68 }
  - { offset: 0xEA1E1, size: 0x8, addend: 0x0, symName: __RNvXs9_NtNtCsc29TF2YcYso_3syn4expr8printingNtB7_12ExprContinueNtNtCs4EAaWzSXu1l_5quote9to_tokens8ToTokens9to_tokens, symObjAddr: 0xAF00, symBinAddr: 0x61E88, symSize: 0x64 }
  - { offset: 0xEA220, size: 0x8, addend: 0x0, symName: __RNvXsa_NtNtCsc29TF2YcYso_3syn4expr8printingNtB7_9ExprFieldNtNtCs4EAaWzSXu1l_5quote9to_tokens8ToTokens9to_tokens, symObjAddr: 0xAF64, symBinAddr: 0x61EEC, symSize: 0x58 }
  - { offset: 0xEA25F, size: 0x8, addend: 0x0, symName: __RNvXsb_NtNtCsc29TF2YcYso_3syn4expr8printingNtB7_11ExprForLoopNtNtCs4EAaWzSXu1l_5quote9to_tokens8ToTokens9to_tokens, symObjAddr: 0xAFBC, symBinAddr: 0x61F44, symSize: 0x104 }
  - { offset: 0xEA29E, size: 0x8, addend: 0x0, symName: __RNvXsc_NtNtCsc29TF2YcYso_3syn4expr8printingNtB7_9ExprGroupNtNtCs4EAaWzSXu1l_5quote9to_tokens8ToTokens9to_tokens, symObjAddr: 0xB0C0, symBinAddr: 0x62048, symSize: 0x58 }
  - { offset: 0xEA2DD, size: 0x8, addend: 0x0, symName: __RNvXsd_NtNtCsc29TF2YcYso_3syn4expr8printingNtB7_6ExprIfNtNtCs4EAaWzSXu1l_5quote9to_tokens8ToTokens9to_tokens, symObjAddr: 0xB118, symBinAddr: 0x620A0, symSize: 0x260 }
  - { offset: 0xEA3B3, size: 0x8, addend: 0x0, symName: __RNvXse_NtNtCsc29TF2YcYso_3syn4expr8printingNtB7_9ExprIndexNtNtCs4EAaWzSXu1l_5quote9to_tokens8ToTokens9to_tokens, symObjAddr: 0xB378, symBinAddr: 0x62300, symSize: 0x58 }
  - { offset: 0xEA3F2, size: 0x8, addend: 0x0, symName: __RNvXsf_NtNtCsc29TF2YcYso_3syn4expr8printingNtB7_9ExprInferNtNtCs4EAaWzSXu1l_5quote9to_tokens8ToTokens9to_tokens, symObjAddr: 0xB3D0, symBinAddr: 0x62358, symSize: 0x54 }
  - { offset: 0xEA431, size: 0x8, addend: 0x0, symName: __RNvXsg_NtNtCsc29TF2YcYso_3syn4expr8printingNtB7_7ExprLetNtNtCs4EAaWzSXu1l_5quote9to_tokens8ToTokens9to_tokens, symObjAddr: 0xB424, symBinAddr: 0x623AC, symSize: 0x58 }
  - { offset: 0xEA470, size: 0x8, addend: 0x0, symName: __RNvXsh_NtNtCsc29TF2YcYso_3syn4expr8printingNtB7_7ExprLitNtNtCs4EAaWzSXu1l_5quote9to_tokens8ToTokens9to_tokens, symObjAddr: 0xB47C, symBinAddr: 0x62404, symSize: 0x54 }
  - { offset: 0xEA4AF, size: 0x8, addend: 0x0, symName: __RNvXsi_NtNtCsc29TF2YcYso_3syn4expr8printingNtB7_8ExprLoopNtNtCs4EAaWzSXu1l_5quote9to_tokens8ToTokens9to_tokens, symObjAddr: 0xB4D0, symBinAddr: 0x62458, symSize: 0x78 }
  - { offset: 0xEA4EE, size: 0x8, addend: 0x0, symName: __RNvXsj_NtNtCsc29TF2YcYso_3syn4expr8printingNtB7_9ExprMacroNtNtCs4EAaWzSXu1l_5quote9to_tokens8ToTokens9to_tokens, symObjAddr: 0xB548, symBinAddr: 0x624D0, symSize: 0x54 }
  - { offset: 0xEA52D, size: 0x8, addend: 0x0, symName: __RNvXsk_NtNtCsc29TF2YcYso_3syn4expr8printingNtB7_9ExprMatchNtNtCs4EAaWzSXu1l_5quote9to_tokens8ToTokens9to_tokens, symObjAddr: 0xB59C, symBinAddr: 0x62524, symSize: 0xD4 }
  - { offset: 0xEA56C, size: 0x8, addend: 0x0, symName: __RNvXsl_NtNtCsc29TF2YcYso_3syn4expr8printingNtB7_14ExprMethodCallNtNtCs4EAaWzSXu1l_5quote9to_tokens8ToTokens9to_tokens, symObjAddr: 0xB670, symBinAddr: 0x625F8, symSize: 0x58 }
  - { offset: 0xEA5AB, size: 0x8, addend: 0x0, symName: __RNvXsm_NtNtCsc29TF2YcYso_3syn4expr8printingNtB7_9ExprParenNtNtCs4EAaWzSXu1l_5quote9to_tokens8ToTokens9to_tokens, symObjAddr: 0xB6C8, symBinAddr: 0x62650, symSize: 0x58 }
  - { offset: 0xEA5EA, size: 0x8, addend: 0x0, symName: __RNvXsn_NtNtCsc29TF2YcYso_3syn4expr8printingNtB7_8ExprPathNtNtCs4EAaWzSXu1l_5quote9to_tokens8ToTokens9to_tokens, symObjAddr: 0xB720, symBinAddr: 0x626A8, symSize: 0x64 }
  - { offset: 0xEA629, size: 0x8, addend: 0x0, symName: __RNvXso_NtNtCsc29TF2YcYso_3syn4expr8printingNtB7_9ExprRangeNtNtCs4EAaWzSXu1l_5quote9to_tokens8ToTokens9to_tokens, symObjAddr: 0xB784, symBinAddr: 0x6270C, symSize: 0x58 }
  - { offset: 0xEA668, size: 0x8, addend: 0x0, symName: __RNvXsp_NtNtCsc29TF2YcYso_3syn4expr8printingNtB7_11ExprRawAddrNtNtCs4EAaWzSXu1l_5quote9to_tokens8ToTokens9to_tokens, symObjAddr: 0xB7DC, symBinAddr: 0x62764, symSize: 0x58 }
  - { offset: 0xEA6A7, size: 0x8, addend: 0x0, symName: __RNvXsq_NtNtCsc29TF2YcYso_3syn4expr8printingNtB7_13ExprReferenceNtNtCs4EAaWzSXu1l_5quote9to_tokens8ToTokens9to_tokens, symObjAddr: 0xB834, symBinAddr: 0x627BC, symSize: 0x58 }
  - { offset: 0xEA6E6, size: 0x8, addend: 0x0, symName: __RNvXsr_NtNtCsc29TF2YcYso_3syn4expr8printingNtB7_10ExprRepeatNtNtCs4EAaWzSXu1l_5quote9to_tokens8ToTokens9to_tokens, symObjAddr: 0xB88C, symBinAddr: 0x62814, symSize: 0x58 }
  - { offset: 0xEA725, size: 0x8, addend: 0x0, symName: __RNvXss_NtNtCsc29TF2YcYso_3syn4expr8printingNtB7_10ExprReturnNtNtCs4EAaWzSXu1l_5quote9to_tokens8ToTokens9to_tokens, symObjAddr: 0xB8E4, symBinAddr: 0x6286C, symSize: 0x58 }
  - { offset: 0xEA764, size: 0x8, addend: 0x0, symName: __RNvXst_NtNtCsc29TF2YcYso_3syn4expr8printingNtB7_10ExprStructNtNtCs4EAaWzSXu1l_5quote9to_tokens8ToTokens9to_tokens, symObjAddr: 0xB93C, symBinAddr: 0x628C4, symSize: 0x78 }
  - { offset: 0xEA7A3, size: 0x8, addend: 0x0, symName: __RNvXsu_NtNtCsc29TF2YcYso_3syn4expr8printingNtB7_7ExprTryNtNtCs4EAaWzSXu1l_5quote9to_tokens8ToTokens9to_tokens, symObjAddr: 0xB9B4, symBinAddr: 0x6293C, symSize: 0x58 }
  - { offset: 0xEA7E2, size: 0x8, addend: 0x0, symName: __RNvXsv_NtNtCsc29TF2YcYso_3syn4expr8printingNtB7_12ExprTryBlockNtNtCs4EAaWzSXu1l_5quote9to_tokens8ToTokens9to_tokens, symObjAddr: 0xBA0C, symBinAddr: 0x62994, symSize: 0x64 }
  - { offset: 0xEA821, size: 0x8, addend: 0x0, symName: __RNvXsw_NtNtCsc29TF2YcYso_3syn4expr8printingNtB7_9ExprTupleNtNtCs4EAaWzSXu1l_5quote9to_tokens8ToTokens9to_tokens, symObjAddr: 0xBA70, symBinAddr: 0x629F8, symSize: 0x58 }
  - { offset: 0xEA860, size: 0x8, addend: 0x0, symName: __RNvXsx_NtNtCsc29TF2YcYso_3syn4expr8printingNtB7_9ExprUnaryNtNtCs4EAaWzSXu1l_5quote9to_tokens8ToTokens9to_tokens, symObjAddr: 0xBAC8, symBinAddr: 0x62A50, symSize: 0x58 }
  - { offset: 0xEA89F, size: 0x8, addend: 0x0, symName: __RNvXsy_NtNtCsc29TF2YcYso_3syn4expr8printingNtB7_10ExprUnsafeNtNtCs4EAaWzSXu1l_5quote9to_tokens8ToTokens9to_tokens, symObjAddr: 0xBB20, symBinAddr: 0x62AA8, symSize: 0x68 }
  - { offset: 0xEA8DE, size: 0x8, addend: 0x0, symName: __RNvXsz_NtNtCsc29TF2YcYso_3syn4expr8printingNtB7_9ExprWhileNtNtCs4EAaWzSXu1l_5quote9to_tokens8ToTokens9to_tokens, symObjAddr: 0xBB88, symBinAddr: 0x62B10, symSize: 0xE4 }
  - { offset: 0xEA91D, size: 0x8, addend: 0x0, symName: __RNvXsA_NtNtCsc29TF2YcYso_3syn4expr8printingNtB7_9ExprYieldNtNtCs4EAaWzSXu1l_5quote9to_tokens8ToTokens9to_tokens, symObjAddr: 0xBC6C, symBinAddr: 0x62BF4, symSize: 0x58 }
  - { offset: 0xEA95C, size: 0x8, addend: 0x0, symName: __RNvXsB_NtNtCsc29TF2YcYso_3syn4expr8printingNtB7_3ArmNtNtCs4EAaWzSXu1l_5quote9to_tokens8ToTokens9to_tokens, symObjAddr: 0xBCC4, symBinAddr: 0x62C4C, symSize: 0x14C }
  - { offset: 0xEA9C9, size: 0x8, addend: 0x0, symName: __RNvXsC_NtNtCsc29TF2YcYso_3syn4expr8printingNtB7_10FieldValueNtNtCs4EAaWzSXu1l_5quote9to_tokens8ToTokens9to_tokens, symObjAddr: 0xBE10, symBinAddr: 0x62D98, symSize: 0xB4 }
  - { offset: 0xEAA26, size: 0x8, addend: 0x0, symName: __RNvXsD_NtNtCsc29TF2YcYso_3syn4expr8printingNtB7_5IndexNtNtCs4EAaWzSXu1l_5quote9to_tokens8ToTokens9to_tokens, symObjAddr: 0xBEC4, symBinAddr: 0x62E4C, symSize: 0xD4 }
  - { offset: 0xEAA7B, size: 0x8, addend: 0x0, symName: __RNvXsE_NtNtCsc29TF2YcYso_3syn4expr8printingNtB7_5LabelNtNtCs4EAaWzSXu1l_5quote9to_tokens8ToTokens9to_tokens, symObjAddr: 0xBF98, symBinAddr: 0x62F20, symSize: 0x50 }
  - { offset: 0xEAABA, size: 0x8, addend: 0x0, symName: __RNvXsF_NtNtCsc29TF2YcYso_3syn4expr8printingNtB7_6MemberNtNtCs4EAaWzSXu1l_5quote9to_tokens8ToTokens9to_tokens, symObjAddr: 0xBFE8, symBinAddr: 0x62F70, symSize: 0x98 }
  - { offset: 0xEAB2D, size: 0x8, addend: 0x0, symName: __RNvXsG_NtNtCsc29TF2YcYso_3syn4expr8printingNtB7_11RangeLimitsNtNtCs4EAaWzSXu1l_5quote9to_tokens8ToTokens9to_tokens, symObjAddr: 0xC080, symBinAddr: 0x63008, symSize: 0x9C }
  - { offset: 0xEABA0, size: 0x8, addend: 0x0, symName: __RNvXsH_NtNtCsc29TF2YcYso_3syn4expr8printingNtB7_17PointerMutabilityNtNtCs4EAaWzSXu1l_5quote9to_tokens8ToTokens9to_tokens, symObjAddr: 0xC11C, symBinAddr: 0x630A4, symSize: 0x9C }
  - { offset: 0xEAC19, size: 0x8, addend: 0x0, symName: __RNcNtNtNtCsc29TF2YcYso_3syn4expr4Expr5Async0B7_, symObjAddr: 0xC1B8, symBinAddr: 0x63140, symSize: 0x3C }
  - { offset: 0xEAC48, size: 0x8, addend: 0x0, symName: __RNcNtNtNtCsc29TF2YcYso_3syn4expr4Expr5Block0B7_, symObjAddr: 0xC1F4, symBinAddr: 0x6317C, symSize: 0x3C }
  - { offset: 0xEAC77, size: 0x8, addend: 0x0, symName: __RNcNtNtNtCsc29TF2YcYso_3syn4expr4Expr5Break0B7_, symObjAddr: 0xC230, symBinAddr: 0x631B8, symSize: 0x3C }
  - { offset: 0xEACA6, size: 0x8, addend: 0x0, symName: __RNcNtNtNtCsc29TF2YcYso_3syn4expr4Expr7Closure0B7_, symObjAddr: 0xC26C, symBinAddr: 0x631F4, symSize: 0x3C }
  - { offset: 0xEACD5, size: 0x8, addend: 0x0, symName: __RNcNtNtNtCsc29TF2YcYso_3syn4expr4Expr5Const0B7_, symObjAddr: 0xC2A8, symBinAddr: 0x63230, symSize: 0x3C }
  - { offset: 0xEAD04, size: 0x8, addend: 0x0, symName: __RNcNtNtNtCsc29TF2YcYso_3syn4expr4Expr8Continue0B7_, symObjAddr: 0xC2E4, symBinAddr: 0x6326C, symSize: 0x3C }
  - { offset: 0xEAD33, size: 0x8, addend: 0x0, symName: __RNcNtNtNtCsc29TF2YcYso_3syn4expr4Expr7ForLoop0B7_, symObjAddr: 0xC320, symBinAddr: 0x632A8, symSize: 0x3C }
  - { offset: 0xEAD62, size: 0x8, addend: 0x0, symName: __RNcNtNtNtCsc29TF2YcYso_3syn4expr4Expr2If0B7_, symObjAddr: 0xC35C, symBinAddr: 0x632E4, symSize: 0x3C }
  - { offset: 0xEAD91, size: 0x8, addend: 0x0, symName: __RNcNtNtNtCsc29TF2YcYso_3syn4expr4Expr5Infer0B7_, symObjAddr: 0xC398, symBinAddr: 0x63320, symSize: 0x20 }
  - { offset: 0xEADBF, size: 0x8, addend: 0x0, symName: __RNcNtNtNtCsc29TF2YcYso_3syn4expr4Expr3Let0B7_, symObjAddr: 0xC3B8, symBinAddr: 0x63340, symSize: 0x3C }
  - { offset: 0xEADEE, size: 0x8, addend: 0x0, symName: __RNcNtNtNtCsc29TF2YcYso_3syn4expr4Expr3Lit0B7_, symObjAddr: 0xC3F4, symBinAddr: 0x6337C, symSize: 0x3C }
  - { offset: 0xEAE1D, size: 0x8, addend: 0x0, symName: __RNcNtNtNtCsc29TF2YcYso_3syn4expr4Expr4Loop0B7_, symObjAddr: 0xC430, symBinAddr: 0x633B8, symSize: 0x3C }
  - { offset: 0xEAE4C, size: 0x8, addend: 0x0, symName: __RNcNtNtNtCsc29TF2YcYso_3syn4expr4Expr5Match0B7_, symObjAddr: 0xC46C, symBinAddr: 0x633F4, symSize: 0x3C }
  - { offset: 0xEAE7B, size: 0x8, addend: 0x0, symName: __RNcNtNtNtCsc29TF2YcYso_3syn4expr4Expr5Range0B7_, symObjAddr: 0xC4A8, symBinAddr: 0x63430, symSize: 0x3C }
  - { offset: 0xEAEAA, size: 0x8, addend: 0x0, symName: __RNcNtNtNtCsc29TF2YcYso_3syn4expr4Expr6Return0B7_, symObjAddr: 0xC4E4, symBinAddr: 0x6346C, symSize: 0x3C }
  - { offset: 0xEAED9, size: 0x8, addend: 0x0, symName: __RNcNtNtNtCsc29TF2YcYso_3syn4expr4Expr6Struct0B7_, symObjAddr: 0xC520, symBinAddr: 0x634A8, symSize: 0x3C }
  - { offset: 0xEAF08, size: 0x8, addend: 0x0, symName: __RNcNtNtNtCsc29TF2YcYso_3syn4expr4Expr8TryBlock0B7_, symObjAddr: 0xC55C, symBinAddr: 0x634E4, symSize: 0x3C }
  - { offset: 0xEAF37, size: 0x8, addend: 0x0, symName: __RNcNtNtNtCsc29TF2YcYso_3syn4expr4Expr5Unary0B7_, symObjAddr: 0xC598, symBinAddr: 0x63520, symSize: 0x3C }
  - { offset: 0xEAF66, size: 0x8, addend: 0x0, symName: __RNcNtNtNtCsc29TF2YcYso_3syn4expr4Expr6Unsafe0B7_, symObjAddr: 0xC5D4, symBinAddr: 0x6355C, symSize: 0x3C }
  - { offset: 0xEAF95, size: 0x8, addend: 0x0, symName: __RNcNtNtNtCsc29TF2YcYso_3syn4expr4Expr5While0B7_, symObjAddr: 0xC610, symBinAddr: 0x63598, symSize: 0x3C }
  - { offset: 0xEAFC4, size: 0x8, addend: 0x0, symName: __RNcNtNtNtCsc29TF2YcYso_3syn4expr4Expr5Yield0B7_, symObjAddr: 0xC64C, symBinAddr: 0x635D4, symSize: 0x3C }
  - { offset: 0xEAFF4, size: 0x8, addend: 0x0, symName: __RNvXsP_NtCsc29TF2YcYso_3syn4exprNtB5_4ExprNtNtCs4EAaWzSXu1l_5quote9to_tokens8ToTokens9to_tokens, symObjAddr: 0xD200, symBinAddr: 0x63610, symSize: 0x4CC }
  - { offset: 0xEB4DD, size: 0x8, addend: 0x0, symName: __RNcNtNtNtCsc29TF2YcYso_3syn4expr6Member5Named0B7_, symObjAddr: 0xD6CC, symBinAddr: 0x63ADC, symSize: 0x18 }
  - { offset: 0xEB50D, size: 0x8, addend: 0x0, symName: __RNcNtNtNtCsc29TF2YcYso_3syn4expr6Member7Unnamed0B7_, symObjAddr: 0xD6E4, symBinAddr: 0x63AF4, symSize: 0x28 }
  - { offset: 0xEB543, size: 0x8, addend: 0x0, symName: __RNcNtNtNtCsc29TF2YcYso_3syn4expr11RangeLimits8HalfOpen0B7_, symObjAddr: 0xD70C, symBinAddr: 0x63B1C, symSize: 0x24 }
  - { offset: 0xEB573, size: 0x8, addend: 0x0, symName: __RNcNtNtNtCsc29TF2YcYso_3syn4expr11RangeLimits6Closed0B7_, symObjAddr: 0xD730, symBinAddr: 0x63B40, symSize: 0x20 }
  - { offset: 0xEDF2B, size: 0x8, addend: 0x0, symName: __RNvXs0_NtNtCsc29TF2YcYso_3syn3gen5cloneNtNtB9_4expr3ArmNtNtCsaNl6UpbT7bw_4core5clone5Clone5clone, symObjAddr: 0x10720, symBinAddr: 0x63B60, symSize: 0x1BC }
  - { offset: 0xEDF5D, size: 0x8, addend: 0x0, symName: __RNvXsk_NtNtCsc29TF2YcYso_3syn3gen5cloneNtNtB9_4expr4ExprNtNtCsaNl6UpbT7bw_4core5clone5Clone5clone, symObjAddr: 0x108DC, symBinAddr: 0x63D1C, symSize: 0xE1C }
  - { offset: 0xEE452, size: 0x8, addend: 0x0, symName: __RNvXsl_NtNtCsc29TF2YcYso_3syn3gen5cloneNtNtB9_4expr9ExprArrayNtNtCsaNl6UpbT7bw_4core5clone5Clone5clone, symObjAddr: 0x116F8, symBinAddr: 0x64B38, symSize: 0xC8 }
  - { offset: 0xEE486, size: 0x8, addend: 0x0, symName: __RNvXsm_NtNtCsc29TF2YcYso_3syn3gen5cloneNtNtB9_4expr10ExprAssignNtNtCsaNl6UpbT7bw_4core5clone5Clone5clone, symObjAddr: 0x117C0, symBinAddr: 0x64C00, symSize: 0x108 }
  - { offset: 0xEE4BA, size: 0x8, addend: 0x0, symName: __RNvXsn_NtNtCsc29TF2YcYso_3syn3gen5cloneNtNtB9_4expr9ExprAsyncNtNtCsaNl6UpbT7bw_4core5clone5Clone5clone, symObjAddr: 0x118C8, symBinAddr: 0x64D08, symSize: 0xEC }
  - { offset: 0xEE4EE, size: 0x8, addend: 0x0, symName: __RNvXso_NtNtCsc29TF2YcYso_3syn3gen5cloneNtNtB9_4expr9ExprAwaitNtNtCsaNl6UpbT7bw_4core5clone5Clone5clone, symObjAddr: 0x119B4, symBinAddr: 0x64DF4, symSize: 0x108 }
  - { offset: 0xEE522, size: 0x8, addend: 0x0, symName: __RNvXsp_NtNtCsc29TF2YcYso_3syn3gen5cloneNtNtB9_4expr10ExprBinaryNtNtCsaNl6UpbT7bw_4core5clone5Clone5clone, symObjAddr: 0x11ABC, symBinAddr: 0x64EFC, symSize: 0xF8 }
  - { offset: 0xEE556, size: 0x8, addend: 0x0, symName: __RNvXsq_NtNtCsc29TF2YcYso_3syn3gen5cloneNtNtB9_4expr9ExprBlockNtNtCsaNl6UpbT7bw_4core5clone5Clone5clone, symObjAddr: 0x11BB4, symBinAddr: 0x64FF4, symSize: 0xF0 }
  - { offset: 0xEE58A, size: 0x8, addend: 0x0, symName: __RNvXsr_NtNtCsc29TF2YcYso_3syn3gen5cloneNtNtB9_4expr9ExprBreakNtNtCsaNl6UpbT7bw_4core5clone5Clone5clone, symObjAddr: 0x11CA4, symBinAddr: 0x650E4, symSize: 0xF8 }
  - { offset: 0xEE5BE, size: 0x8, addend: 0x0, symName: __RNvXss_NtNtCsc29TF2YcYso_3syn3gen5cloneNtNtB9_4expr8ExprCallNtNtCsaNl6UpbT7bw_4core5clone5Clone5clone, symObjAddr: 0x11D9C, symBinAddr: 0x651DC, symSize: 0x108 }
  - { offset: 0xEE5F2, size: 0x8, addend: 0x0, symName: __RNvXst_NtNtCsc29TF2YcYso_3syn3gen5cloneNtNtB9_4expr8ExprCastNtNtCsaNl6UpbT7bw_4core5clone5Clone5clone, symObjAddr: 0x11EA4, symBinAddr: 0x652E4, symSize: 0xF8 }
  - { offset: 0xEE626, size: 0x8, addend: 0x0, symName: __RNvXsu_NtNtCsc29TF2YcYso_3syn3gen5cloneNtNtB9_4expr11ExprClosureNtNtCsaNl6UpbT7bw_4core5clone5Clone5clone, symObjAddr: 0x11F9C, symBinAddr: 0x653DC, symSize: 0x25C }
  - { offset: 0xEE65A, size: 0x8, addend: 0x0, symName: __RNvXsv_NtNtCsc29TF2YcYso_3syn3gen5cloneNtNtB9_4expr9ExprConstNtNtCsaNl6UpbT7bw_4core5clone5Clone5clone, symObjAddr: 0x121F8, symBinAddr: 0x65638, symSize: 0xC4 }
  - { offset: 0xEE68E, size: 0x8, addend: 0x0, symName: __RNvXsw_NtNtCsc29TF2YcYso_3syn3gen5cloneNtNtB9_4expr12ExprContinueNtNtCsaNl6UpbT7bw_4core5clone5Clone5clone, symObjAddr: 0x122BC, symBinAddr: 0x656FC, symSize: 0xC0 }
  - { offset: 0xEE6C2, size: 0x8, addend: 0x0, symName: __RNvXsx_NtNtCsc29TF2YcYso_3syn3gen5cloneNtNtB9_4expr9ExprFieldNtNtCsaNl6UpbT7bw_4core5clone5Clone5clone, symObjAddr: 0x1237C, symBinAddr: 0x657BC, symSize: 0x110 }
  - { offset: 0xEE6F6, size: 0x8, addend: 0x0, symName: __RNvXsy_NtNtCsc29TF2YcYso_3syn3gen5cloneNtNtB9_4expr11ExprForLoopNtNtCsaNl6UpbT7bw_4core5clone5Clone5clone, symObjAddr: 0x1248C, symBinAddr: 0x658CC, symSize: 0x1A8 }
  - { offset: 0xEE72A, size: 0x8, addend: 0x0, symName: __RNvXsz_NtNtCsc29TF2YcYso_3syn3gen5cloneNtNtB9_4expr9ExprGroupNtNtCsaNl6UpbT7bw_4core5clone5Clone5clone, symObjAddr: 0x12634, symBinAddr: 0x65A74, symSize: 0xB8 }
  - { offset: 0xEE75E, size: 0x8, addend: 0x0, symName: __RNvXsA_NtNtCsc29TF2YcYso_3syn3gen5cloneNtNtB9_4expr6ExprIfNtNtCsaNl6UpbT7bw_4core5clone5Clone5clone, symObjAddr: 0x126EC, symBinAddr: 0x65B2C, symSize: 0x14C }
  - { offset: 0xEE792, size: 0x8, addend: 0x0, symName: __RNvXsB_NtNtCsc29TF2YcYso_3syn3gen5cloneNtNtB9_4expr9ExprIndexNtNtCsaNl6UpbT7bw_4core5clone5Clone5clone, symObjAddr: 0x12838, symBinAddr: 0x65C78, symSize: 0x100 }
  - { offset: 0xEE7C6, size: 0x8, addend: 0x0, symName: __RNvXsC_NtNtCsc29TF2YcYso_3syn3gen5cloneNtNtB9_4expr9ExprInferNtNtCsaNl6UpbT7bw_4core5clone5Clone5clone, symObjAddr: 0x12938, symBinAddr: 0x65D78, symSize: 0xAC }
  - { offset: 0xEE7FA, size: 0x8, addend: 0x0, symName: __RNvXsD_NtNtCsc29TF2YcYso_3syn3gen5cloneNtNtB9_4expr7ExprLetNtNtCsaNl6UpbT7bw_4core5clone5Clone5clone, symObjAddr: 0x129E4, symBinAddr: 0x65E24, symSize: 0x124 }
  - { offset: 0xEE82E, size: 0x8, addend: 0x0, symName: __RNvXsE_NtNtCsc29TF2YcYso_3syn3gen5cloneNtNtB9_4expr7ExprLitNtNtCsaNl6UpbT7bw_4core5clone5Clone5clone, symObjAddr: 0x12B08, symBinAddr: 0x65F48, symSize: 0xA4 }
  - { offset: 0xEE862, size: 0x8, addend: 0x0, symName: __RNvXsF_NtNtCsc29TF2YcYso_3syn3gen5cloneNtNtB9_4expr8ExprLoopNtNtCsaNl6UpbT7bw_4core5clone5Clone5clone, symObjAddr: 0x12BAC, symBinAddr: 0x65FEC, symSize: 0x10C }
  - { offset: 0xEE896, size: 0x8, addend: 0x0, symName: __RNvXsG_NtNtCsc29TF2YcYso_3syn3gen5cloneNtNtB9_4expr9ExprMacroNtNtCsaNl6UpbT7bw_4core5clone5Clone5clone, symObjAddr: 0x12CB8, symBinAddr: 0x660F8, symSize: 0xA8 }
  - { offset: 0xEE8CA, size: 0x8, addend: 0x0, symName: __RNvXsH_NtNtCsc29TF2YcYso_3syn3gen5cloneNtNtB9_4expr9ExprMatchNtNtCsaNl6UpbT7bw_4core5clone5Clone5clone, symObjAddr: 0x12D60, symBinAddr: 0x661A0, symSize: 0x12C }
  - { offset: 0xEE8FE, size: 0x8, addend: 0x0, symName: __RNvXsI_NtNtCsc29TF2YcYso_3syn3gen5cloneNtNtB9_4expr14ExprMethodCallNtNtCsaNl6UpbT7bw_4core5clone5Clone5clone, symObjAddr: 0x12E8C, symBinAddr: 0x662CC, symSize: 0x1D0 }
  - { offset: 0xEE932, size: 0x8, addend: 0x0, symName: __RNvXsJ_NtNtCsc29TF2YcYso_3syn3gen5cloneNtNtB9_4expr9ExprParenNtNtCsaNl6UpbT7bw_4core5clone5Clone5clone, symObjAddr: 0x1305C, symBinAddr: 0x6649C, symSize: 0xC0 }
  - { offset: 0xEE966, size: 0x8, addend: 0x0, symName: __RNvXsK_NtNtCsc29TF2YcYso_3syn3gen5cloneNtNtB9_4expr8ExprPathNtNtCsaNl6UpbT7bw_4core5clone5Clone5clone, symObjAddr: 0x1311C, symBinAddr: 0x6655C, symSize: 0xE8 }
  - { offset: 0xEE99A, size: 0x8, addend: 0x0, symName: __RNvXsL_NtNtCsc29TF2YcYso_3syn3gen5cloneNtNtB9_4expr9ExprRangeNtNtCsaNl6UpbT7bw_4core5clone5Clone5clone, symObjAddr: 0x13204, symBinAddr: 0x66644, symSize: 0xF8 }
  - { offset: 0xEE9CE, size: 0x8, addend: 0x0, symName: __RNvXsM_NtNtCsc29TF2YcYso_3syn3gen5cloneNtNtB9_4expr11ExprRawAddrNtNtCsaNl6UpbT7bw_4core5clone5Clone5clone, symObjAddr: 0x132FC, symBinAddr: 0x6673C, symSize: 0x10C }
  - { offset: 0xEEA02, size: 0x8, addend: 0x0, symName: __RNvXsN_NtNtCsc29TF2YcYso_3syn3gen5cloneNtNtB9_4expr13ExprReferenceNtNtCsaNl6UpbT7bw_4core5clone5Clone5clone, symObjAddr: 0x13408, symBinAddr: 0x66848, symSize: 0xF0 }
  - { offset: 0xEEA36, size: 0x8, addend: 0x0, symName: __RNvXsO_NtNtCsc29TF2YcYso_3syn3gen5cloneNtNtB9_4expr10ExprRepeatNtNtCsaNl6UpbT7bw_4core5clone5Clone5clone, symObjAddr: 0x134F8, symBinAddr: 0x66938, symSize: 0x12C }
  - { offset: 0xEEA6A, size: 0x8, addend: 0x0, symName: __RNvXsP_NtNtCsc29TF2YcYso_3syn3gen5cloneNtNtB9_4expr10ExprReturnNtNtCsaNl6UpbT7bw_4core5clone5Clone5clone, symObjAddr: 0x13624, symBinAddr: 0x66A64, symSize: 0xB8 }
  - { offset: 0xEEA9E, size: 0x8, addend: 0x0, symName: __RNvXsQ_NtNtCsc29TF2YcYso_3syn3gen5cloneNtNtB9_4expr10ExprStructNtNtCsaNl6UpbT7bw_4core5clone5Clone5clone, symObjAddr: 0x136DC, symBinAddr: 0x66B1C, symSize: 0x1B8 }
  - { offset: 0xEEAD2, size: 0x8, addend: 0x0, symName: __RNvXsR_NtNtCsc29TF2YcYso_3syn3gen5cloneNtNtB9_4expr7ExprTryNtNtCsaNl6UpbT7bw_4core5clone5Clone5clone, symObjAddr: 0x13894, symBinAddr: 0x66CD4, symSize: 0xEC }
  - { offset: 0xEEB06, size: 0x8, addend: 0x0, symName: __RNvXsS_NtNtCsc29TF2YcYso_3syn3gen5cloneNtNtB9_4expr12ExprTryBlockNtNtCsaNl6UpbT7bw_4core5clone5Clone5clone, symObjAddr: 0x13980, symBinAddr: 0x66DC0, symSize: 0xC4 }
  - { offset: 0xEEB3A, size: 0x8, addend: 0x0, symName: __RNvXsT_NtNtCsc29TF2YcYso_3syn3gen5cloneNtNtB9_4expr9ExprTupleNtNtCsaNl6UpbT7bw_4core5clone5Clone5clone, symObjAddr: 0x13A44, symBinAddr: 0x66E84, symSize: 0xC8 }
  - { offset: 0xEEB6E, size: 0x8, addend: 0x0, symName: __RNvXsU_NtNtCsc29TF2YcYso_3syn3gen5cloneNtNtB9_4expr9ExprUnaryNtNtCsaNl6UpbT7bw_4core5clone5Clone5clone, symObjAddr: 0x13B0C, symBinAddr: 0x66F4C, symSize: 0xC8 }
  - { offset: 0xEEBA2, size: 0x8, addend: 0x0, symName: __RNvXsV_NtNtCsc29TF2YcYso_3syn3gen5cloneNtNtB9_4expr10ExprUnsafeNtNtCsaNl6UpbT7bw_4core5clone5Clone5clone, symObjAddr: 0x13BD4, symBinAddr: 0x67014, symSize: 0xC4 }
  - { offset: 0xEEBD6, size: 0x8, addend: 0x0, symName: __RNvXsW_NtNtCsc29TF2YcYso_3syn3gen5cloneNtNtB9_4expr9ExprWhileNtNtCsaNl6UpbT7bw_4core5clone5Clone5clone, symObjAddr: 0x13C98, symBinAddr: 0x670D8, symSize: 0x14C }
  - { offset: 0xEEC0A, size: 0x8, addend: 0x0, symName: __RNvXsX_NtNtCsc29TF2YcYso_3syn3gen5cloneNtNtB9_4expr9ExprYieldNtNtCsaNl6UpbT7bw_4core5clone5Clone5clone, symObjAddr: 0x13DE4, symBinAddr: 0x67224, symSize: 0xB8 }
  - { offset: 0xEEC3E, size: 0x8, addend: 0x0, symName: __RNvXs11_NtNtCsc29TF2YcYso_3syn3gen5cloneNtNtBa_4expr10FieldValueNtNtCsaNl6UpbT7bw_4core5clone5Clone5clone, symObjAddr: 0x13E9C, symBinAddr: 0x672DC, symSize: 0x118 }
  - { offset: 0xEEC72, size: 0x8, addend: 0x0, symName: __RNvXs1l_NtNtCsc29TF2YcYso_3syn3gen5cloneNtNtBa_4expr5IndexNtNtCsaNl6UpbT7bw_4core5clone5Clone5clone, symObjAddr: 0x13FB4, symBinAddr: 0x673F4, symSize: 0x48 }
  - { offset: 0xEECA6, size: 0x8, addend: 0x0, symName: __RNvXs1C_NtNtCsc29TF2YcYso_3syn3gen5cloneNtNtBa_4expr5LabelNtNtCsaNl6UpbT7bw_4core5clone5Clone5clone, symObjAddr: 0x13FFC, symBinAddr: 0x6743C, symSize: 0xA4 }
  - { offset: 0xEECDA, size: 0x8, addend: 0x0, symName: __RNvXs1K_NtNtCsc29TF2YcYso_3syn3gen5cloneNtNtBa_4expr6MemberNtNtCsaNl6UpbT7bw_4core5clone5Clone5clone, symObjAddr: 0x140A0, symBinAddr: 0x674E0, symSize: 0xB8 }
  - { offset: 0xEED42, size: 0x8, addend: 0x0, symName: __RNvXs24_NtNtCsc29TF2YcYso_3syn3gen5cloneNtNtBa_4expr17PointerMutabilityNtNtCsaNl6UpbT7bw_4core5clone5Clone5clone, symObjAddr: 0x14158, symBinAddr: 0x67598, symSize: 0xA8 }
  - { offset: 0xEEDAA, size: 0x8, addend: 0x0, symName: __RNvXs2a_NtNtCsc29TF2YcYso_3syn3gen5cloneNtNtBa_4expr11RangeLimitsNtNtCsaNl6UpbT7bw_4core5clone5Clone5clone, symObjAddr: 0x14200, symBinAddr: 0x67640, symSize: 0x2C }
  - { offset: 0xEEDE4, size: 0x8, addend: 0x0, symName: __RNvXs1_NtNtCsc29TF2YcYso_3syn3gen5debugNtNtB9_4expr3ArmNtNtCsaNl6UpbT7bw_4core3fmt5Debug3fmt, symObjAddr: 0x1422C, symBinAddr: 0x6766C, symSize: 0x14C }
  - { offset: 0xEEE41, size: 0x8, addend: 0x0, symName: __RNvXsm_NtNtCsc29TF2YcYso_3syn3gen5debugNtNtB9_4expr4ExprNtNtCsaNl6UpbT7bw_4core3fmt5Debug3fmt, symObjAddr: 0x14378, symBinAddr: 0x677B8, symSize: 0xBF8 }
  - { offset: 0xEF38E, size: 0x8, addend: 0x0, symName: __RNvXs1G_NtNtCsc29TF2YcYso_3syn3gen5debugNtNtBa_4expr10FieldValueNtNtCsaNl6UpbT7bw_4core3fmt5Debug3fmt, symObjAddr: 0x182E0, symBinAddr: 0x6AB8C, symSize: 0x100 }
  - { offset: 0xEF3EF, size: 0x8, addend: 0x0, symName: __RNvXs2a_NtNtCsc29TF2YcYso_3syn3gen5debugNtNtBa_4expr5IndexNtNtCsaNl6UpbT7bw_4core3fmt5Debug3fmt, symObjAddr: 0x183E0, symBinAddr: 0x6AC8C, symSize: 0xB0 }
  - { offset: 0xEF450, size: 0x8, addend: 0x0, symName: __RNvXs2G_NtNtCsc29TF2YcYso_3syn3gen5debugNtNtBa_4expr5LabelNtNtCsaNl6UpbT7bw_4core3fmt5Debug3fmt, symObjAddr: 0x18490, symBinAddr: 0x6AD3C, symSize: 0xB0 }
  - { offset: 0xEF4B1, size: 0x8, addend: 0x0, symName: __RNvXs2Q_NtNtCsc29TF2YcYso_3syn3gen5debugNtNtBa_4expr6MemberNtNtCsaNl6UpbT7bw_4core3fmt5Debug3fmt, symObjAddr: 0x18540, symBinAddr: 0x6ADEC, symSize: 0x15C }
  - { offset: 0xEF583, size: 0x8, addend: 0x0, symName: __RNvXs3p_NtNtCsc29TF2YcYso_3syn3gen5debugNtNtBa_4expr17PointerMutabilityNtNtCsaNl6UpbT7bw_4core3fmt5Debug3fmt, symObjAddr: 0x1869C, symBinAddr: 0x6AF48, symSize: 0x168 }
  - { offset: 0xEF654, size: 0x8, addend: 0x0, symName: __RNvXs3u_NtNtCsc29TF2YcYso_3syn3gen5debugNtNtBa_4expr11RangeLimitsNtNtCsaNl6UpbT7bw_4core3fmt5Debug3fmt, symObjAddr: 0x18804, symBinAddr: 0x6B0B0, symSize: 0x168 }
  - { offset: 0xF2C2B, size: 0x8, addend: 0x0, symName: __RNvMNtCsaNl6UpbT7bw_4core5sliceSNtNtCsc29TF2YcYso_3syn4expr3Arm4iterBy_, symObjAddr: 0xA5C, symBinAddr: 0x5A714, symSize: 0x28 }
  - { offset: 0xF2C62, size: 0x8, addend: 0x0, symName: __RNvMNtCsaNl6UpbT7bw_4core5sliceSTNtNtCsc29TF2YcYso_3syn4expr10FieldValueNtNtBz_5token5CommaE4iterBz_, symObjAddr: 0xA84, symBinAddr: 0x5A73C, symSize: 0x28 }
  - { offset: 0xF2C99, size: 0x8, addend: 0x0, symName: __RNvMNtCsaNl6UpbT7bw_4core5sliceSTNtNtCsc29TF2YcYso_3syn4expr4ExprNtNtBz_5token5CommaE4iterBz_, symObjAddr: 0xAAC, symBinAddr: 0x5A764, symSize: 0x28 }
  - { offset: 0xF3074, size: 0x8, addend: 0x0, symName: __RNvXNtNtCsaNl6UpbT7bw_4core5clone6uninitNtNtCsc29TF2YcYso_3syn4expr10FieldValueNtB2_8CopySpec9clone_oneBG_, symObjAddr: 0xB54, symBinAddr: 0x5A80C, symSize: 0x50 }
  - { offset: 0xF30D8, size: 0x8, addend: 0x0, symName: __RNvXNtNtCsaNl6UpbT7bw_4core5clone6uninitNtNtCsc29TF2YcYso_3syn4expr4ExprNtB2_8CopySpec9clone_oneBG_, symObjAddr: 0xBA4, symBinAddr: 0x5A85C, symSize: 0x48 }
  - { offset: 0xF3149, size: 0x8, addend: 0x0, symName: __RNvXs19_NtCsaNl6UpbT7bw_4core3fmtRNtNtCsc29TF2YcYso_3syn4expr3ArmNtB6_5Debug3fmtBA_, symObjAddr: 0xBEC, symBinAddr: 0x5A8A4, symSize: 0x30 }
  - { offset: 0xF318F, size: 0x8, addend: 0x0, symName: __RNvXs19_NtCsaNl6UpbT7bw_4core3fmtRNtNtCsc29TF2YcYso_3syn4expr4ExprNtB6_5Debug3fmtBA_, symObjAddr: 0xC1C, symBinAddr: 0x5A8D4, symSize: 0x30 }
  - { offset: 0xF31D5, size: 0x8, addend: 0x0, symName: __RNvXs19_NtCsaNl6UpbT7bw_4core3fmtRNtNtCsc29TF2YcYso_3syn4expr5LabelNtB6_5Debug3fmtBA_, symObjAddr: 0xC4C, symBinAddr: 0x5A904, symSize: 0x30 }
  - { offset: 0xF3221, size: 0x8, addend: 0x0, symName: __RNvXsq_NtCsaNl6UpbT7bw_4core3fmtSNtNtCsc29TF2YcYso_3syn4expr3ArmNtB5_5Debug3fmtBz_, symObjAddr: 0x1A6C, symBinAddr: 0x5A934, symSize: 0x90 }
  - { offset: 0xF52B4, size: 0x8, addend: 0x0, symName: __RNvXNtCs4EAaWzSXu1l_5quote9to_tokensRNtNtCsc29TF2YcYso_3syn4expr10FieldValueNtB2_8ToTokens9to_tokensBD_, symObjAddr: 0xAD4, symBinAddr: 0x5A78C, symSize: 0x40 }
  - { offset: 0xF52F3, size: 0x8, addend: 0x0, symName: __RNvXNtCs4EAaWzSXu1l_5quote9to_tokensRNtNtCsc29TF2YcYso_3syn4expr4ExprNtB2_8ToTokens9to_tokensBD_, symObjAddr: 0xB14, symBinAddr: 0x5A7CC, symSize: 0x40 }
  - { offset: 0xF544D, size: 0x8, addend: 0x0, symName: __RNvMNtCsc29TF2YcYso_3syn4exprNtB2_4Expr25parse_without_eager_brace, symObjAddr: 0x1C7C, symBinAddr: 0x5A9C4, symSize: 0x3C }
  - { offset: 0xF5470, size: 0x8, addend: 0x0, symName: __RNvMNtCsc29TF2YcYso_3syn4exprNtB2_4Expr32parse_with_earlier_boundary_rule, symObjAddr: 0x1CB8, symBinAddr: 0x5AA00, symSize: 0x34 }
  - { offset: 0xF5493, size: 0x8, addend: 0x0, symName: __RNvMNtCsc29TF2YcYso_3syn4exprNtB2_4Expr4peek, symObjAddr: 0x1CEC, symBinAddr: 0x5AA34, symSize: 0x408 }
  - { offset: 0xF54C3, size: 0x8, addend: 0x0, symName: __RNvMNtCsc29TF2YcYso_3syn4exprNtB2_4Expr13replace_attrs, symObjAddr: 0x20F4, symBinAddr: 0x5AE3C, symSize: 0x678 }
  - { offset: 0xF5519, size: 0x8, addend: 0x0, symName: __RNvMs6_NtCsc29TF2YcYso_3syn4exprNtB5_6Member8is_named, symObjAddr: 0x2A78, symBinAddr: 0x5B4B4, symSize: 0x6C }
  - { offset: 0xF5574, size: 0x8, addend: 0x0, symName: __RNvMsv_NtNtCsc29TF2YcYso_3syn4expr7parsingNtB7_11RangeLimits14parse_obsolete, symObjAddr: 0x94A0, symBinAddr: 0x606E0, symSize: 0x334 }
  - { offset: 0xF562F, size: 0x8, addend: 0x0, symName: __RNvMsy_NtNtCsc29TF2YcYso_3syn4expr7parsingNtB7_3Arm14parse_multiple, symObjAddr: 0x9B08, symBinAddr: 0x60D48, symSize: 0x1C4 }
  - { offset: 0xF570E, size: 0x8, addend: 0x0, symName: __RNvMso_NtNtCsc29TF2YcYso_3syn3gen5debugNtNtB9_4expr9ExprArray5debug, symObjAddr: 0x14FBC, symBinAddr: 0x683B0, symSize: 0xDC }
  - { offset: 0xF577A, size: 0x8, addend: 0x0, symName: __RNvMsq_NtNtCsc29TF2YcYso_3syn3gen5debugNtNtB9_4expr10ExprAssign5debug, symObjAddr: 0x150E4, symBinAddr: 0x6848C, symSize: 0x104 }
  - { offset: 0xF57E6, size: 0x8, addend: 0x0, symName: __RNvMss_NtNtCsc29TF2YcYso_3syn3gen5debugNtNtB9_4expr9ExprAsync5debug, symObjAddr: 0x15234, symBinAddr: 0x68590, symSize: 0x104 }
  - { offset: 0xF5852, size: 0x8, addend: 0x0, symName: __RNvMsu_NtNtCsc29TF2YcYso_3syn3gen5debugNtNtB9_4expr9ExprAwait5debug, symObjAddr: 0x15384, symBinAddr: 0x68694, symSize: 0x104 }
  - { offset: 0xF58BE, size: 0x8, addend: 0x0, symName: __RNvMsw_NtNtCsc29TF2YcYso_3syn3gen5debugNtNtB9_4expr10ExprBinary5debug, symObjAddr: 0x154D4, symBinAddr: 0x68798, symSize: 0x104 }
  - { offset: 0xF592A, size: 0x8, addend: 0x0, symName: __RNvMsy_NtNtCsc29TF2YcYso_3syn3gen5debugNtNtB9_4expr9ExprBlock5debug, symObjAddr: 0x15624, symBinAddr: 0x6889C, symSize: 0xD8 }
  - { offset: 0xF5996, size: 0x8, addend: 0x0, symName: __RNvMsA_NtNtCsc29TF2YcYso_3syn3gen5debugNtNtB9_4expr9ExprBreak5debug, symObjAddr: 0x15748, symBinAddr: 0x68974, symSize: 0x104 }
  - { offset: 0xF5A02, size: 0x8, addend: 0x0, symName: __RNvMsC_NtNtCsc29TF2YcYso_3syn3gen5debugNtNtB9_4expr8ExprCall5debug, symObjAddr: 0x15898, symBinAddr: 0x68A78, symSize: 0x104 }
  - { offset: 0xF5A6E, size: 0x8, addend: 0x0, symName: __RNvMsE_NtNtCsc29TF2YcYso_3syn3gen5debugNtNtB9_4expr8ExprCast5debug, symObjAddr: 0x159E8, symBinAddr: 0x68B7C, symSize: 0x104 }
  - { offset: 0xF5ADA, size: 0x8, addend: 0x0, symName: __RNvMsG_NtNtCsc29TF2YcYso_3syn3gen5debugNtNtB9_4expr11ExprClosure5debug, symObjAddr: 0x15B38, symBinAddr: 0x68C80, symSize: 0x210 }
  - { offset: 0xF5B46, size: 0x8, addend: 0x0, symName: __RNvMsI_NtNtCsc29TF2YcYso_3syn3gen5debugNtNtB9_4expr9ExprConst5debug, symObjAddr: 0x15D94, symBinAddr: 0x68E90, symSize: 0xDC }
  - { offset: 0xF5BB2, size: 0x8, addend: 0x0, symName: __RNvMsK_NtNtCsc29TF2YcYso_3syn3gen5debugNtNtB9_4expr12ExprContinue5debug, symObjAddr: 0x15EBC, symBinAddr: 0x68F6C, symSize: 0xDC }
  - { offset: 0xF5C1E, size: 0x8, addend: 0x0, symName: __RNvMsM_NtNtCsc29TF2YcYso_3syn3gen5debugNtNtB9_4expr9ExprField5debug, symObjAddr: 0x15FE4, symBinAddr: 0x69048, symSize: 0x104 }
  - { offset: 0xF5C8A, size: 0x8, addend: 0x0, symName: __RNvMsO_NtNtCsc29TF2YcYso_3syn3gen5debugNtNtB9_4expr11ExprForLoop5debug, symObjAddr: 0x16134, symBinAddr: 0x6914C, symSize: 0x17C }
  - { offset: 0xF5CF6, size: 0x8, addend: 0x0, symName: __RNvMsQ_NtNtCsc29TF2YcYso_3syn3gen5debugNtNtB9_4expr9ExprGroup5debug, symObjAddr: 0x162FC, symBinAddr: 0x692C8, symSize: 0xDC }
  - { offset: 0xF5D62, size: 0x8, addend: 0x0, symName: __RNvMsS_NtNtCsc29TF2YcYso_3syn3gen5debugNtNtB9_4expr6ExprIf5debug, symObjAddr: 0x16424, symBinAddr: 0x693A4, symSize: 0x12C }
  - { offset: 0xF5DCE, size: 0x8, addend: 0x0, symName: __RNvMsU_NtNtCsc29TF2YcYso_3syn3gen5debugNtNtB9_4expr9ExprIndex5debug, symObjAddr: 0x1659C, symBinAddr: 0x694D0, symSize: 0x104 }
  - { offset: 0xF5E3A, size: 0x8, addend: 0x0, symName: __RNvMsW_NtNtCsc29TF2YcYso_3syn3gen5debugNtNtB9_4expr9ExprInfer5debug, symObjAddr: 0x166EC, symBinAddr: 0x695D4, symSize: 0xB4 }
  - { offset: 0xF5EA6, size: 0x8, addend: 0x0, symName: __RNvMsY_NtNtCsc29TF2YcYso_3syn3gen5debugNtNtB9_4expr7ExprLet5debug, symObjAddr: 0x167EC, symBinAddr: 0x69688, symSize: 0x12C }
  - { offset: 0xF5F12, size: 0x8, addend: 0x0, symName: __RNvMs10_NtNtCsc29TF2YcYso_3syn3gen5debugNtNtBa_4expr7ExprLit5debug, symObjAddr: 0x16964, symBinAddr: 0x697B4, symSize: 0xB4 }
  - { offset: 0xF5F7E, size: 0x8, addend: 0x0, symName: __RNvMs12_NtNtCsc29TF2YcYso_3syn3gen5debugNtNtBa_4expr8ExprLoop5debug, symObjAddr: 0x16A64, symBinAddr: 0x69868, symSize: 0x104 }
  - { offset: 0xF5FEA, size: 0x8, addend: 0x0, symName: __RNvMs14_NtNtCsc29TF2YcYso_3syn3gen5debugNtNtBa_4expr9ExprMacro5debug, symObjAddr: 0x16BB4, symBinAddr: 0x6996C, symSize: 0xB4 }
  - { offset: 0xF6056, size: 0x8, addend: 0x0, symName: __RNvMs16_NtNtCsc29TF2YcYso_3syn3gen5debugNtNtBa_4expr9ExprMatch5debug, symObjAddr: 0x16CB4, symBinAddr: 0x69A20, symSize: 0x12C }
  - { offset: 0xF60C2, size: 0x8, addend: 0x0, symName: __RNvMs18_NtNtCsc29TF2YcYso_3syn3gen5debugNtNtBa_4expr14ExprMethodCall5debug, symObjAddr: 0x16E2C, symBinAddr: 0x69B4C, symSize: 0x17C }
  - { offset: 0xF612E, size: 0x8, addend: 0x0, symName: __RNvMs1a_NtNtCsc29TF2YcYso_3syn3gen5debugNtNtBa_4expr9ExprParen5debug, symObjAddr: 0x16FF4, symBinAddr: 0x69CC8, symSize: 0xDC }
  - { offset: 0xF619A, size: 0x8, addend: 0x0, symName: __RNvMs1c_NtNtCsc29TF2YcYso_3syn3gen5debugNtNtBa_4expr8ExprPath5debug, symObjAddr: 0x1711C, symBinAddr: 0x69DA4, symSize: 0xDC }
  - { offset: 0xF6206, size: 0x8, addend: 0x0, symName: __RNvMs1e_NtNtCsc29TF2YcYso_3syn3gen5debugNtNtBa_4expr9ExprRange5debug, symObjAddr: 0x17244, symBinAddr: 0x69E80, symSize: 0x104 }
  - { offset: 0xF6272, size: 0x8, addend: 0x0, symName: __RNvMs1g_NtNtCsc29TF2YcYso_3syn3gen5debugNtNtBa_4expr11ExprRawAddr5debug, symObjAddr: 0x17394, symBinAddr: 0x69F84, symSize: 0x12C }
  - { offset: 0xF62DE, size: 0x8, addend: 0x0, symName: __RNvMs1i_NtNtCsc29TF2YcYso_3syn3gen5debugNtNtBa_4expr13ExprReference5debug, symObjAddr: 0x1750C, symBinAddr: 0x6A0B0, symSize: 0x104 }
  - { offset: 0xF634A, size: 0x8, addend: 0x0, symName: __RNvMs1k_NtNtCsc29TF2YcYso_3syn3gen5debugNtNtBa_4expr10ExprRepeat5debug, symObjAddr: 0x1765C, symBinAddr: 0x6A1B4, symSize: 0x12C }
  - { offset: 0xF63B6, size: 0x8, addend: 0x0, symName: __RNvMs1m_NtNtCsc29TF2YcYso_3syn3gen5debugNtNtBa_4expr10ExprReturn5debug, symObjAddr: 0x177D4, symBinAddr: 0x6A2E0, symSize: 0xDC }
  - { offset: 0xF6422, size: 0x8, addend: 0x0, symName: __RNvMs1o_NtNtCsc29TF2YcYso_3syn3gen5debugNtNtBa_4expr10ExprStruct5debug, symObjAddr: 0x178FC, symBinAddr: 0x6A3BC, symSize: 0x17C }
  - { offset: 0xF648E, size: 0x8, addend: 0x0, symName: __RNvMs1q_NtNtCsc29TF2YcYso_3syn3gen5debugNtNtBa_4expr7ExprTry5debug, symObjAddr: 0x17AC4, symBinAddr: 0x6A538, symSize: 0xDC }
  - { offset: 0xF64FA, size: 0x8, addend: 0x0, symName: __RNvMs1s_NtNtCsc29TF2YcYso_3syn3gen5debugNtNtBa_4expr12ExprTryBlock5debug, symObjAddr: 0x17BEC, symBinAddr: 0x6A614, symSize: 0xDC }
  - { offset: 0xF6566, size: 0x8, addend: 0x0, symName: __RNvMs1u_NtNtCsc29TF2YcYso_3syn3gen5debugNtNtBa_4expr9ExprTuple5debug, symObjAddr: 0x17D14, symBinAddr: 0x6A6F0, symSize: 0xDC }
  - { offset: 0xF65D2, size: 0x8, addend: 0x0, symName: __RNvMs1w_NtNtCsc29TF2YcYso_3syn3gen5debugNtNtBa_4expr9ExprUnary5debug, symObjAddr: 0x17E3C, symBinAddr: 0x6A7CC, symSize: 0xDC }
  - { offset: 0xF663E, size: 0x8, addend: 0x0, symName: __RNvMs1y_NtNtCsc29TF2YcYso_3syn3gen5debugNtNtBa_4expr10ExprUnsafe5debug, symObjAddr: 0x17F64, symBinAddr: 0x6A8A8, symSize: 0xDC }
  - { offset: 0xF66AA, size: 0x8, addend: 0x0, symName: __RNvMs1A_NtNtCsc29TF2YcYso_3syn3gen5debugNtNtBa_4expr9ExprWhile5debug, symObjAddr: 0x1808C, symBinAddr: 0x6A984, symSize: 0x12C }
  - { offset: 0xF6716, size: 0x8, addend: 0x0, symName: __RNvMs1C_NtNtCsc29TF2YcYso_3syn3gen5debugNtNtBa_4expr9ExprYield5debug, symObjAddr: 0x18204, symBinAddr: 0x6AAB0, symSize: 0xDC }
  - { offset: 0xF68B1, size: 0x8, addend: 0x0, symName: __RINvMsv_NtCshnvkK9b4wzu_11proc_macro23impNtB6_7Literal7subspanINtNtNtCsaNl6UpbT7bw_4core3ops5range5RangejEECsc29TF2YcYso_3syn, symObjAddr: 0x0, symBinAddr: 0x6B218, symSize: 0xD4 }
  - { offset: 0xF70AD, size: 0x8, addend: 0x0, symName: __RNvXs0_NtCsc29TF2YcYso_3syn5tokenNtNtNtB7_3ext7private8IdentAnyNtB5_5Token4peekB7_, symObjAddr: 0x5D64, symBinAddr: 0x70540, symSize: 0x3C }
  - { offset: 0xF79AF, size: 0x8, addend: 0x0, symName: __RNvXNtCsc29TF2YcYso_3syn4pathNtB2_4PathINtNtCsaNl6UpbT7bw_4core7convert4FromNtCshnvkK9b4wzu_11proc_macro25IdentE4fromB4_, symObjAddr: 0x7394, symBinAddr: 0x71B2C, symSize: 0x118 }
  - { offset: 0xF7A00, size: 0x8, addend: 0x0, symName: __RNvXs0_NtCsc29TF2YcYso_3syn4pathNtB5_11PathSegmentINtNtCsaNl6UpbT7bw_4core7convert4FromNtCshnvkK9b4wzu_11proc_macro25IdentE4fromB7_, symObjAddr: 0x773C, symBinAddr: 0x71DC0, symSize: 0x68 }
  - { offset: 0xF7A41, size: 0x8, addend: 0x0, symName: __RNvXNtNtCsc29TF2YcYso_3syn4path7parsingNtB4_4PathNtNtB6_5parse5Parse5parse, symObjAddr: 0x7908, symBinAddr: 0x71F6C, symSize: 0x3C }
  - { offset: 0xF7A75, size: 0x8, addend: 0x0, symName: __RNvXs_NtNtCsc29TF2YcYso_3syn4path7parsingNtB6_15GenericArgumentNtNtB8_5parse5Parse5parse, symObjAddr: 0x7944, symBinAddr: 0x71FA8, symSize: 0x13C0 }
  - { offset: 0xF7D46, size: 0x8, addend: 0x0, symName: __RNvXs1_NtNtCsc29TF2YcYso_3syn4path7parsingNtB7_30AngleBracketedGenericArgumentsNtNtB9_5parse5Parse5parse, symObjAddr: 0x926C, symBinAddr: 0x738D0, symSize: 0xD8 }
  - { offset: 0xF7DB6, size: 0x8, addend: 0x0, symName: __RNvXs2_NtNtCsc29TF2YcYso_3syn4path7parsingNtB7_29ParenthesizedGenericArgumentsNtNtB9_5parse5Parse5parse, symObjAddr: 0x9344, symBinAddr: 0x739A8, symSize: 0x338 }
  - { offset: 0xF7E97, size: 0x8, addend: 0x0, symName: __RNvXs0_NtNtCsc29TF2YcYso_3syn4path8printingNtB7_4PathNtNtCs4EAaWzSXu1l_5quote9to_tokens8ToTokens9to_tokens, symObjAddr: 0xA8AC, symBinAddr: 0x74ED4, symSize: 0x54 }
  - { offset: 0xF7ED6, size: 0x8, addend: 0x0, symName: __RNvXs3_NtNtCsc29TF2YcYso_3syn4path8printingNtB7_15GenericArgumentNtNtCs4EAaWzSXu1l_5quote9to_tokens8ToTokens9to_tokens, symObjAddr: 0xA9A8, symBinAddr: 0x74F28, symSize: 0x1A8 }
  - { offset: 0xF7FC1, size: 0x8, addend: 0x0, symName: __RNvXs4_NtNtCsc29TF2YcYso_3syn4path8printingNtB7_30AngleBracketedGenericArgumentsNtNtCs4EAaWzSXu1l_5quote9to_tokens8ToTokens9to_tokens, symObjAddr: 0xAB50, symBinAddr: 0x750D0, symSize: 0x54 }
  - { offset: 0xF8000, size: 0x8, addend: 0x0, symName: __RNvXs5_NtNtCsc29TF2YcYso_3syn4path8printingNtB7_9AssocTypeNtNtCs4EAaWzSXu1l_5quote9to_tokens8ToTokens9to_tokens, symObjAddr: 0xABA4, symBinAddr: 0x75124, symSize: 0x70 }
  - { offset: 0xF803F, size: 0x8, addend: 0x0, symName: __RNvXs6_NtNtCsc29TF2YcYso_3syn4path8printingNtB7_10AssocConstNtNtCs4EAaWzSXu1l_5quote9to_tokens8ToTokens9to_tokens, symObjAddr: 0xAC14, symBinAddr: 0x75194, symSize: 0x70 }
  - { offset: 0xF807E, size: 0x8, addend: 0x0, symName: __RNvXs7_NtNtCsc29TF2YcYso_3syn4path8printingNtB7_10ConstraintNtNtCs4EAaWzSXu1l_5quote9to_tokens8ToTokens9to_tokens, symObjAddr: 0xAC84, symBinAddr: 0x75204, symSize: 0x70 }
  - { offset: 0xF80C3, size: 0x8, addend: 0x0, symName: __RNcNtNtNtCsc29TF2YcYso_3syn4path15GenericArgument5Const0B7_, symObjAddr: 0xB2B8, symBinAddr: 0x757A4, symSize: 0x3C }
  - { offset: 0xFB97C, size: 0x8, addend: 0x0, symName: __RNvNtNtCsc29TF2YcYso_3syn8generics7parsing26choose_generics_over_qpath, symObjAddr: 0x5F9C, symBinAddr: 0x70734, symSize: 0x1F8 }
  - { offset: 0xFB9AA, size: 0x8, addend: 0x0, symName: __RNvNtNtCsc29TF2YcYso_3syn8generics7parsing40choose_generics_over_qpath_after_keyword, symObjAddr: 0x6194, symBinAddr: 0x7092C, symSize: 0x150 }
  - { offset: 0xFBFE8, size: 0x8, addend: 0x0, symName: __RNvXNtNtCsc29TF2YcYso_3syn2op7parsingNtB4_5BinOpNtNtB6_5parse5Parse5parse, symObjAddr: 0x62E4, symBinAddr: 0x70A7C, symSize: 0x84C }
  - { offset: 0xFC01A, size: 0x8, addend: 0x0, symName: __RNvXs_NtNtCsc29TF2YcYso_3syn2op7parsingNtB6_4UnOpNtNtB8_5parse5Parse5parse, symObjAddr: 0x6B30, symBinAddr: 0x712C8, symSize: 0x1F0 }
  - { offset: 0xFC067, size: 0x8, addend: 0x0, symName: __RNvXNtNtCsc29TF2YcYso_3syn2op8printingNtB4_5BinOpNtNtCs4EAaWzSXu1l_5quote9to_tokens8ToTokens9to_tokens, symObjAddr: 0x6D20, symBinAddr: 0x714B8, symSize: 0x598 }
  - { offset: 0xFC3DB, size: 0x8, addend: 0x0, symName: __RNvXs_NtNtCsc29TF2YcYso_3syn2op8printingNtB6_4UnOpNtNtCs4EAaWzSXu1l_5quote9to_tokens8ToTokens9to_tokens, symObjAddr: 0x72B8, symBinAddr: 0x71A50, symSize: 0xDC }
  - { offset: 0xFC46C, size: 0x8, addend: 0x0, symName: __RNcNtNtNtCsc29TF2YcYso_3syn2op5BinOp3Add0B7_, symObjAddr: 0xAD88, symBinAddr: 0x75274, symSize: 0x24 }
  - { offset: 0xFC49A, size: 0x8, addend: 0x0, symName: __RNcNtNtNtCsc29TF2YcYso_3syn2op5BinOp3Sub0B7_, symObjAddr: 0xADAC, symBinAddr: 0x75298, symSize: 0x2C }
  - { offset: 0xFC4C8, size: 0x8, addend: 0x0, symName: __RNcNtNtNtCsc29TF2YcYso_3syn2op5BinOp3Mul0B7_, symObjAddr: 0xADD8, symBinAddr: 0x752C4, symSize: 0x2C }
  - { offset: 0xFC4F6, size: 0x8, addend: 0x0, symName: __RNcNtNtNtCsc29TF2YcYso_3syn2op5BinOp3Div0B7_, symObjAddr: 0xAE04, symBinAddr: 0x752F0, symSize: 0x2C }
  - { offset: 0xFC524, size: 0x8, addend: 0x0, symName: __RNcNtNtNtCsc29TF2YcYso_3syn2op5BinOp3Rem0B7_, symObjAddr: 0xAE30, symBinAddr: 0x7531C, symSize: 0x2C }
  - { offset: 0xFC552, size: 0x8, addend: 0x0, symName: __RNcNtNtNtCsc29TF2YcYso_3syn2op5BinOp3And0B7_, symObjAddr: 0xAE5C, symBinAddr: 0x75348, symSize: 0x2C }
  - { offset: 0xFC580, size: 0x8, addend: 0x0, symName: __RNcNtNtNtCsc29TF2YcYso_3syn2op5BinOp2Or0B7_, symObjAddr: 0xAE88, symBinAddr: 0x75374, symSize: 0x2C }
  - { offset: 0xFC5AE, size: 0x8, addend: 0x0, symName: __RNcNtNtNtCsc29TF2YcYso_3syn2op5BinOp6BitXor0B7_, symObjAddr: 0xAEB4, symBinAddr: 0x753A0, symSize: 0x2C }
  - { offset: 0xFC5DC, size: 0x8, addend: 0x0, symName: __RNcNtNtNtCsc29TF2YcYso_3syn2op5BinOp6BitAnd0B7_, symObjAddr: 0xAEE0, symBinAddr: 0x753CC, symSize: 0x2C }
  - { offset: 0xFC60A, size: 0x8, addend: 0x0, symName: __RNcNtNtNtCsc29TF2YcYso_3syn2op5BinOp5BitOr0B7_, symObjAddr: 0xAF0C, symBinAddr: 0x753F8, symSize: 0x2C }
  - { offset: 0xFC638, size: 0x8, addend: 0x0, symName: __RNcNtNtNtCsc29TF2YcYso_3syn2op5BinOp3Shl0B7_, symObjAddr: 0xAF38, symBinAddr: 0x75424, symSize: 0x2C }
  - { offset: 0xFC666, size: 0x8, addend: 0x0, symName: __RNcNtNtNtCsc29TF2YcYso_3syn2op5BinOp3Shr0B7_, symObjAddr: 0xAF64, symBinAddr: 0x75450, symSize: 0x2C }
  - { offset: 0xFC694, size: 0x8, addend: 0x0, symName: __RNcNtNtNtCsc29TF2YcYso_3syn2op5BinOp2Eq0B7_, symObjAddr: 0xAF90, symBinAddr: 0x7547C, symSize: 0x2C }
  - { offset: 0xFC6C2, size: 0x8, addend: 0x0, symName: __RNcNtNtNtCsc29TF2YcYso_3syn2op5BinOp2Lt0B7_, symObjAddr: 0xAFBC, symBinAddr: 0x754A8, symSize: 0x2C }
  - { offset: 0xFC6F0, size: 0x8, addend: 0x0, symName: __RNcNtNtNtCsc29TF2YcYso_3syn2op5BinOp2Le0B7_, symObjAddr: 0xAFE8, symBinAddr: 0x754D4, symSize: 0x2C }
  - { offset: 0xFC71E, size: 0x8, addend: 0x0, symName: __RNcNtNtNtCsc29TF2YcYso_3syn2op5BinOp2Ne0B7_, symObjAddr: 0xB014, symBinAddr: 0x75500, symSize: 0x2C }
  - { offset: 0xFC74C, size: 0x8, addend: 0x0, symName: __RNcNtNtNtCsc29TF2YcYso_3syn2op5BinOp2Ge0B7_, symObjAddr: 0xB040, symBinAddr: 0x7552C, symSize: 0x2C }
  - { offset: 0xFC77A, size: 0x8, addend: 0x0, symName: __RNcNtNtNtCsc29TF2YcYso_3syn2op5BinOp2Gt0B7_, symObjAddr: 0xB06C, symBinAddr: 0x75558, symSize: 0x2C }
  - { offset: 0xFC7A8, size: 0x8, addend: 0x0, symName: __RNcNtNtNtCsc29TF2YcYso_3syn2op5BinOp9AddAssign0B7_, symObjAddr: 0xB098, symBinAddr: 0x75584, symSize: 0x2C }
  - { offset: 0xFC7D6, size: 0x8, addend: 0x0, symName: __RNcNtNtNtCsc29TF2YcYso_3syn2op5BinOp9SubAssign0B7_, symObjAddr: 0xB0C4, symBinAddr: 0x755B0, symSize: 0x2C }
  - { offset: 0xFC804, size: 0x8, addend: 0x0, symName: __RNcNtNtNtCsc29TF2YcYso_3syn2op5BinOp9MulAssign0B7_, symObjAddr: 0xB0F0, symBinAddr: 0x755DC, symSize: 0x2C }
  - { offset: 0xFC832, size: 0x8, addend: 0x0, symName: __RNcNtNtNtCsc29TF2YcYso_3syn2op5BinOp9DivAssign0B7_, symObjAddr: 0xB11C, symBinAddr: 0x75608, symSize: 0x2C }
  - { offset: 0xFC860, size: 0x8, addend: 0x0, symName: __RNcNtNtNtCsc29TF2YcYso_3syn2op5BinOp9RemAssign0B7_, symObjAddr: 0xB148, symBinAddr: 0x75634, symSize: 0x2C }
  - { offset: 0xFC88E, size: 0x8, addend: 0x0, symName: __RNcNtNtNtCsc29TF2YcYso_3syn2op5BinOp12BitXorAssign0B7_, symObjAddr: 0xB174, symBinAddr: 0x75660, symSize: 0x2C }
  - { offset: 0xFC8BC, size: 0x8, addend: 0x0, symName: __RNcNtNtNtCsc29TF2YcYso_3syn2op5BinOp12BitAndAssign0B7_, symObjAddr: 0xB1A0, symBinAddr: 0x7568C, symSize: 0x2C }
  - { offset: 0xFC8EA, size: 0x8, addend: 0x0, symName: __RNcNtNtNtCsc29TF2YcYso_3syn2op5BinOp11BitOrAssign0B7_, symObjAddr: 0xB1CC, symBinAddr: 0x756B8, symSize: 0x2C }
  - { offset: 0xFC918, size: 0x8, addend: 0x0, symName: __RNcNtNtNtCsc29TF2YcYso_3syn2op5BinOp9ShlAssign0B7_, symObjAddr: 0xB1F8, symBinAddr: 0x756E4, symSize: 0x20 }
  - { offset: 0xFC946, size: 0x8, addend: 0x0, symName: __RNcNtNtNtCsc29TF2YcYso_3syn2op5BinOp9ShrAssign0B7_, symObjAddr: 0xB218, symBinAddr: 0x75704, symSize: 0x20 }
  - { offset: 0xFC97A, size: 0x8, addend: 0x0, symName: __RNcNtNtNtCsc29TF2YcYso_3syn2op4UnOp5Deref0B7_, symObjAddr: 0xB238, symBinAddr: 0x75724, symSize: 0x28 }
  - { offset: 0xFC9A8, size: 0x8, addend: 0x0, symName: __RNcNtNtNtCsc29TF2YcYso_3syn2op4UnOp3Not0B7_, symObjAddr: 0xB260, symBinAddr: 0x7574C, symSize: 0x2C }
  - { offset: 0xFC9D6, size: 0x8, addend: 0x0, symName: __RNcNtNtNtCsc29TF2YcYso_3syn2op4UnOp3Neg0B7_, symObjAddr: 0xB28C, symBinAddr: 0x75778, symSize: 0x2C }
  - { offset: 0xFCA10, size: 0x8, addend: 0x0, symName: __RNCNvXNtCsc29TF2YcYso_3syn3extNtCshnvkK9b4wzu_11proc_macro25IdentNtB4_8IdentExt9parse_any0B6_, symObjAddr: 0x5DA0, symBinAddr: 0x7057C, symSize: 0x130 }
  - { offset: 0xFCA82, size: 0x8, addend: 0x0, symName: __RNvXs0_NtCsc29TF2YcYso_3syn3extNtNtB5_7private8IdentAnyNtNtNtB7_5token7private11CustomToken4peek, symObjAddr: 0x5ED0, symBinAddr: 0x706AC, symSize: 0x88 }
  - { offset: 0xFCCC6, size: 0x8, addend: 0x0, symName: __RNvXs_NtNtCsc29TF2YcYso_3syn3gen5cloneNtNtB8_4path30AngleBracketedGenericArgumentsNtNtCsaNl6UpbT7bw_4core5clone5Clone5clone, symObjAddr: 0xB2F4, symBinAddr: 0x757E0, symSize: 0xE8 }
  - { offset: 0xFCCF8, size: 0x8, addend: 0x0, symName: __RNvXs1_NtNtCsc29TF2YcYso_3syn3gen5cloneNtNtB9_4path10AssocConstNtNtCsaNl6UpbT7bw_4core5clone5Clone5clone, symObjAddr: 0xB3DC, symBinAddr: 0x758C8, symSize: 0x118 }
  - { offset: 0xFCD2A, size: 0x8, addend: 0x0, symName: __RNvXs2_NtNtCsc29TF2YcYso_3syn3gen5cloneNtNtB9_4path9AssocTypeNtNtCsaNl6UpbT7bw_4core5clone5Clone5clone, symObjAddr: 0xB4F4, symBinAddr: 0x759E0, symSize: 0x11C }
  - { offset: 0xFCD5C, size: 0x8, addend: 0x0, symName: __RNvXs9_NtNtCsc29TF2YcYso_3syn3gen5cloneNtNtB9_2op5BinOpNtNtCsaNl6UpbT7bw_4core5clone5Clone5clone, symObjAddr: 0xB610, symBinAddr: 0x75AFC, symSize: 0x2C }
  - { offset: 0xFCD8E, size: 0x8, addend: 0x0, symName: __RNvXse_NtNtCsc29TF2YcYso_3syn3gen5cloneNtNtB9_4path10ConstraintNtNtCsaNl6UpbT7bw_4core5clone5Clone5clone, symObjAddr: 0xB63C, symBinAddr: 0x75B28, symSize: 0x110 }
  - { offset: 0xFCDC0, size: 0x8, addend: 0x0, symName: __RNvXs1c_NtNtCsc29TF2YcYso_3syn3gen5cloneNtNtBa_4path15GenericArgumentNtNtCsaNl6UpbT7bw_4core5clone5Clone5clone, symObjAddr: 0xB74C, symBinAddr: 0x75C38, symSize: 0x284 }
  - { offset: 0xFCEA1, size: 0x8, addend: 0x0, symName: __RNvXs1O_NtNtCsc29TF2YcYso_3syn3gen5cloneNtNtBa_4path29ParenthesizedGenericArgumentsNtNtCsaNl6UpbT7bw_4core5clone5Clone5clone, symObjAddr: 0xB9D0, symBinAddr: 0x75EBC, symSize: 0xB4 }
  - { offset: 0xFCED5, size: 0x8, addend: 0x0, symName: __RNvXs21_NtNtCsc29TF2YcYso_3syn3gen5cloneNtNtBa_4path4PathNtNtCsaNl6UpbT7bw_4core5clone5Clone5clone, symObjAddr: 0xBA84, symBinAddr: 0x75F70, symSize: 0x70 }
  - { offset: 0xFCF09, size: 0x8, addend: 0x0, symName: __RNvXs22_NtNtCsc29TF2YcYso_3syn3gen5cloneNtNtBa_4path13PathArgumentsNtNtCsaNl6UpbT7bw_4core5clone5Clone5clone, symObjAddr: 0xBAF4, symBinAddr: 0x75FE0, symSize: 0x11C }
  - { offset: 0xFCF71, size: 0x8, addend: 0x0, symName: __RNvXs23_NtNtCsc29TF2YcYso_3syn3gen5cloneNtNtBa_4path11PathSegmentNtNtCsaNl6UpbT7bw_4core5clone5Clone5clone, symObjAddr: 0xBC10, symBinAddr: 0x760FC, symSize: 0x9C }
  - { offset: 0xFCFA5, size: 0x8, addend: 0x0, symName: __RNvXs28_NtNtCsc29TF2YcYso_3syn3gen5cloneNtNtBa_4path5QSelfNtNtCsaNl6UpbT7bw_4core5clone5Clone5clone, symObjAddr: 0xBCAC, symBinAddr: 0x76198, symSize: 0x100 }
  - { offset: 0xFCFD9, size: 0x8, addend: 0x0, symName: __RNvXs2H_NtNtCsc29TF2YcYso_3syn3gen5cloneNtNtBa_2op4UnOpNtNtCsaNl6UpbT7bw_4core5clone5Clone5clone, symObjAddr: 0xBDAC, symBinAddr: 0x76298, symSize: 0x30 }
  - { offset: 0xFD013, size: 0x8, addend: 0x0, symName: __RNvXs_NtNtCsc29TF2YcYso_3syn3gen5debugNtNtB8_4path30AngleBracketedGenericArgumentsNtNtCsaNl6UpbT7bw_4core3fmt5Debug3fmt, symObjAddr: 0xBDDC, symBinAddr: 0x762C8, symSize: 0x4C }
  - { offset: 0xFD053, size: 0x8, addend: 0x0, symName: __RNvXs2_NtNtCsc29TF2YcYso_3syn3gen5debugNtNtB9_4path10AssocConstNtNtCsaNl6UpbT7bw_4core3fmt5Debug3fmt, symObjAddr: 0xBF2C, symBinAddr: 0x76418, symSize: 0x100 }
  - { offset: 0xFD0B0, size: 0x8, addend: 0x0, symName: __RNvXs3_NtNtCsc29TF2YcYso_3syn3gen5debugNtNtB9_4path9AssocTypeNtNtCsaNl6UpbT7bw_4core3fmt5Debug3fmt, symObjAddr: 0xC02C, symBinAddr: 0x76518, symSize: 0x100 }
  - { offset: 0xFD10D, size: 0x8, addend: 0x0, symName: __RNvXs8_NtNtCsc29TF2YcYso_3syn3gen5debugNtNtB9_2op5BinOpNtNtCsaNl6UpbT7bw_4core3fmt5Debug3fmt, symObjAddr: 0xC12C, symBinAddr: 0x76618, symSize: 0xC90 }
  - { offset: 0xFD7F3, size: 0x8, addend: 0x0, symName: __RNvXsd_NtNtCsc29TF2YcYso_3syn3gen5debugNtNtB9_4path10ConstraintNtNtCsaNl6UpbT7bw_4core3fmt5Debug3fmt, symObjAddr: 0xCDBC, symBinAddr: 0x772A8, symSize: 0x100 }
  - { offset: 0xFD854, size: 0x8, addend: 0x0, symName: __RNvXs1X_NtNtCsc29TF2YcYso_3syn3gen5debugNtNtBa_4path15GenericArgumentNtNtCsaNl6UpbT7bw_4core3fmt5Debug3fmt, symObjAddr: 0xCEBC, symBinAddr: 0x773A8, symSize: 0x378 }
  - { offset: 0xFDA1E, size: 0x8, addend: 0x0, symName: __RNvXs3l_NtNtCsc29TF2YcYso_3syn3gen5debugNtNtBa_4path4PathNtNtCsaNl6UpbT7bw_4core3fmt5Debug3fmt, symObjAddr: 0xD35C, symBinAddr: 0x777FC, symSize: 0x4C }
  - { offset: 0xFDA61, size: 0x8, addend: 0x0, symName: __RNvXs3n_NtNtCsc29TF2YcYso_3syn3gen5debugNtNtBa_4path13PathArgumentsNtNtCsaNl6UpbT7bw_4core3fmt5Debug3fmt, symObjAddr: 0xD45C, symBinAddr: 0x778FC, symSize: 0x174 }
  - { offset: 0xFDAF6, size: 0x8, addend: 0x0, symName: __RNvXs3o_NtNtCsc29TF2YcYso_3syn3gen5debugNtNtBa_4path11PathSegmentNtNtCsaNl6UpbT7bw_4core3fmt5Debug3fmt, symObjAddr: 0xD5D0, symBinAddr: 0x77A70, symSize: 0xB0 }
  - { offset: 0xFDB57, size: 0x8, addend: 0x0, symName: __RNvXs3t_NtNtCsc29TF2YcYso_3syn3gen5debugNtNtBa_4path5QSelfNtNtCsaNl6UpbT7bw_4core3fmt5Debug3fmt, symObjAddr: 0xD680, symBinAddr: 0x77B20, symSize: 0x120 }
  - { offset: 0xFDBB8, size: 0x8, addend: 0x0, symName: __RNvXs4i_NtNtCsc29TF2YcYso_3syn3gen5debugNtNtBa_2op4UnOpNtNtCsaNl6UpbT7bw_4core3fmt5Debug3fmt, symObjAddr: 0xD7A0, symBinAddr: 0x77C40, symSize: 0x1E0 }
  - { offset: 0xFEF4E, size: 0x8, addend: 0x0, symName: __RINvXNvMNtCsiTraAjBDcu4_5alloc5sliceSp9to_vec_inTNtNtCsc29TF2YcYso_3syn4path11PathSegmentNtNtBP_5token7PathSepENtB3_10ConvertVec6to_vecNtNtB8_5alloc6GlobalEBP_, symObjAddr: 0xD4, symBinAddr: 0x6B2EC, symSize: 0x370 }
  - { offset: 0xFF403, size: 0x8, addend: 0x0, symName: __RINvXNvMNtCsiTraAjBDcu4_5alloc5sliceSp9to_vec_inTNtNtCsc29TF2YcYso_3syn4path15GenericArgumentNtNtBP_5token5CommaENtB3_10ConvertVec6to_vecNtNtB8_5alloc6GlobalEBP_, symObjAddr: 0x444, symBinAddr: 0x6B65C, symSize: 0x374 }
  - { offset: 0xFFB8D, size: 0x8, addend: 0x0, symName: __RINvXs5_NtCshnvkK9b4wzu_11proc_macro23impNtB6_11TokenStreamINtNtNtNtCsaNl6UpbT7bw_4core4iter6traits7collect12FromIteratorNtB8_9TokenTreeE9from_iterINtNtNtB14_5array4iter8IntoIterB1V_Kj1_EECsc29TF2YcYso_3syn, symObjAddr: 0xE84, symBinAddr: 0x6BF30, symSize: 0x16C }
  - { offset: 0xFFBC3, size: 0x8, addend: 0x0, symName: __RINvXs5_NtCshnvkK9b4wzu_11proc_macro23impNtB6_11TokenStreamINtNtNtNtCsaNl6UpbT7bw_4core4iter6traits7collect12FromIteratorNtB8_9TokenTreeE9from_iterINtNtNtB14_5array4iter8IntoIterB1V_Kj8_EECsc29TF2YcYso_3syn, symObjAddr: 0xFF0, symBinAddr: 0x6C09C, symSize: 0x170 }
  - { offset: 0xFFBF9, size: 0x8, addend: 0x0, symName: __RINvXs5_NtCshnvkK9b4wzu_11proc_macro23impNtB6_11TokenStreamINtNtNtNtCsaNl6UpbT7bw_4core4iter6traits7collect12FromIteratorNtB8_9TokenTreeE9from_iterINtNtNtCsiTraAjBDcu4_5alloc3vec9into_iter8IntoIterB1V_EECsc29TF2YcYso_3syn, symObjAddr: 0x1160, symBinAddr: 0x6C20C, symSize: 0x164 }
  - { offset: 0xFFC35, size: 0x8, addend: 0x0, symName: __RINvXs6_NtCshnvkK9b4wzu_11proc_macro23impNtB6_11TokenStreamINtNtNtNtCsaNl6UpbT7bw_4core4iter6traits7collect12FromIteratorBD_E9from_iterINtNtNtB12_8adapters3map3MapIB2a_INtNtNtB14_5slice4iter4IterNtNtCsc29TF2YcYso_3syn5error12ErrorMessageENvMs_B39_B37_16to_compile_errorENCINvXs7_B8_NtB8_11TokenStreamIBW_B4w_E9from_iterB2B_E0EEB3b_, symObjAddr: 0x12C4, symBinAddr: 0x6C370, symSize: 0x24C }
  - { offset: 0xFFCAF, size: 0x8, addend: 0x0, symName: __RNCINvXs6_NtCshnvkK9b4wzu_11proc_macro23impNtB8_11TokenStreamINtNtNtNtCsaNl6UpbT7bw_4core4iter6traits7collect12FromIteratorBF_E9from_iterINtNtNtB14_8adapters3map3MapIB2c_INtNtNtB16_5slice4iter4IterNtNtCsc29TF2YcYso_3syn5error12ErrorMessageENvMs_B3b_B39_16to_compile_errorENCINvXs7_Ba_NtBa_11TokenStreamIBY_B4y_E9from_iterB2D_E0EE0B3d_, symObjAddr: 0x1940, symBinAddr: 0x6C9EC, symSize: 0x10C }
  - { offset: 0xFFD0C, size: 0x8, addend: 0x0, symName: __RNCINvXs6_NtCshnvkK9b4wzu_11proc_macro23impNtB8_11TokenStreamINtNtNtNtCsaNl6UpbT7bw_4core4iter6traits7collect12FromIteratorBF_E9from_iterINtNtNtB14_8adapters3map3MapIB2c_INtNtNtB16_5slice4iter4IterNtNtCsc29TF2YcYso_3syn5error12ErrorMessageENvMs_B3b_B39_16to_compile_errorENCINvXs7_Ba_NtBa_11TokenStreamIBY_B4y_E9from_iterB2D_E0EEs_0B3d_, symObjAddr: 0x1A4C, symBinAddr: 0x6CAF8, symSize: 0xF8 }
  - { offset: 0xFFD66, size: 0x8, addend: 0x0, symName: __RNcNtNtNtCshnvkK9b4wzu_11proc_macro23imp4Span8Fallback0Csc29TF2YcYso_3syn, symObjAddr: 0x1B44, symBinAddr: 0x6CBF0, symSize: 0x14 }
  - { offset: 0xFFD97, size: 0x8, addend: 0x0, symName: __RNvXsA_NtCshnvkK9b4wzu_11proc_macro23impNtB5_19DeferredTokenStreamNtNtCsaNl6UpbT7bw_4core5clone5Clone5cloneCsc29TF2YcYso_3syn, symObjAddr: 0x5414, symBinAddr: 0x6FC50, symSize: 0x90 }
  - { offset: 0xFFDC9, size: 0x8, addend: 0x0, symName: __RNvXsE_NtCshnvkK9b4wzu_11proc_macro23impNtB5_5GroupNtNtCsaNl6UpbT7bw_4core5clone5Clone5cloneCsc29TF2YcYso_3syn, symObjAddr: 0x54A4, symBinAddr: 0x6FCE0, symSize: 0x9C }
  - { offset: 0xFFE39, size: 0x8, addend: 0x0, symName: __RNvXsF_NtCshnvkK9b4wzu_11proc_macro23impNtB5_5IdentNtNtCsaNl6UpbT7bw_4core5clone5Clone5cloneCsc29TF2YcYso_3syn, symObjAddr: 0x5540, symBinAddr: 0x6FD7C, symSize: 0x9C }
  - { offset: 0xFFEA9, size: 0x8, addend: 0x0, symName: __RNvXsG_NtCshnvkK9b4wzu_11proc_macro23impNtB5_7LiteralNtNtCsaNl6UpbT7bw_4core5clone5Clone5cloneCsc29TF2YcYso_3syn, symObjAddr: 0x55DC, symBinAddr: 0x6FE18, symSize: 0x9C }
  - { offset: 0xFFF19, size: 0x8, addend: 0x0, symName: __RNvXss_NtCshnvkK9b4wzu_11proc_macro23impNtB5_5IdentINtNtCsaNl6UpbT7bw_4core3cmp9PartialEqRReE2eqCsc29TF2YcYso_3syn, symObjAddr: 0x5A18, symBinAddr: 0x70254, symSize: 0x108 }
  - { offset: 0xFFFA9, size: 0x8, addend: 0x0, symName: __RNvXss_NtCshnvkK9b4wzu_11proc_macro23impNtB5_5IdentINtNtCsaNl6UpbT7bw_4core3cmp9PartialEqReE2eqCsc29TF2YcYso_3syn, symObjAddr: 0x5B20, symBinAddr: 0x7035C, symSize: 0x108 }
  - { offset: 0x10003F, size: 0x8, addend: 0x0, symName: __RNvXsz_NtCshnvkK9b4wzu_11proc_macro23impNtB5_11TokenStreamNtNtCsaNl6UpbT7bw_4core5clone5Clone5cloneCsc29TF2YcYso_3syn, symObjAddr: 0x5C28, symBinAddr: 0x70464, symSize: 0x98 }
  - { offset: 0x107622, size: 0x8, addend: 0x0, symName: __RINvXs2V_NtNtCsaNl6UpbT7bw_4core5slice4iterINtB7_4IterNtNtCsc29TF2YcYso_3syn4attr9AttributeENtNtNtNtBb_4iter6traits8iterator8Iterator4findQFG0_RL1_RL0_BQ_EbEBU_, symObjAddr: 0x7B8, symBinAddr: 0x6B9D0, symSize: 0xB0 }
  - { offset: 0x107687, size: 0x8, addend: 0x0, symName: __RINvXs2V_NtNtCsaNl6UpbT7bw_4core5slice4iterINtB7_4IterNtNtCsc29TF2YcYso_3syn5error12ErrorMessageENtNtNtNtBb_4iter6traits8iterator8Iterator4folduNCINvNtNtB1D_8adapters3map8map_foldRBQ_NtCshnvkK9b4wzu_11proc_macro211TokenStreamuNvMs_BS_BQ_16to_compile_errorNCIB2l_B2V_NtNtB2X_3imp11TokenStreamuNCINvXs7_B2X_B2V_INtNtB1B_7collect12FromIteratorB2V_E9from_iterINtB2n_3MapBF_B3C_EE0NCIB2l_B4g_NtCs7yrEGia95Wz_10proc_macro11TokenStreamuNCINvXs6_B4i_B4g_IB4Y_B4g_E9from_iterIB5I_B5H_B4G_EE0NCINvNvB1x_8for_each4callB6d_NCINvXsj_B6f_B6d_INtB50_6ExtendB6d_E6extendIB5I_B7u_B6T_EE0E0E0E0E0EBU_, symObjAddr: 0x868, symBinAddr: 0x6BA80, symSize: 0x194 }
  - { offset: 0x1077DB, size: 0x8, addend: 0x0, symName: __RINvXs2V_NtNtCsaNl6UpbT7bw_4core5slice4iterINtB7_4IterhENtNtNtNtBb_4iter6traits8iterator8Iterator4findNCNvNtNtCsc29TF2YcYso_3syn3lit5value15parse_lit_float0EB1K_, symObjAddr: 0x9FC, symBinAddr: 0x6BC14, symSize: 0xAC }
  - { offset: 0x107840, size: 0x8, addend: 0x0, symName: __RNvXs2V_NtNtCsaNl6UpbT7bw_4core5slice4iterINtB6_4IterNtCshnvkK9b4wzu_11proc_macro24SpanENtNtNtNtBa_4iter6traits8iterator8Iterator4nextCsc29TF2YcYso_3syn, symObjAddr: 0x2BF8, symBinAddr: 0x6DC4C, symSize: 0xB0 }
  - { offset: 0x10797A, size: 0x8, addend: 0x0, symName: __RNvXs2V_NtNtCsaNl6UpbT7bw_4core5slice4iterINtB6_4IterNtNtCsc29TF2YcYso_3syn4attr9AttributeENtNtNtNtBa_4iter6traits8iterator8Iterator4nextBT_, symObjAddr: 0x2CA8, symBinAddr: 0x6DCFC, symSize: 0xB0 }
  - { offset: 0x107AB4, size: 0x8, addend: 0x0, symName: __RNvXs2V_NtNtCsaNl6UpbT7bw_4core5slice4iterINtB6_4IterNtNtCsc29TF2YcYso_3syn4expr3ArmENtNtNtNtBa_4iter6traits8iterator8Iterator4nextBT_, symObjAddr: 0x2D58, symBinAddr: 0x6DDAC, symSize: 0xB0 }
  - { offset: 0x107BEE, size: 0x8, addend: 0x0, symName: __RNvXs2V_NtNtCsaNl6UpbT7bw_4core5slice4iterINtB6_4IterNtNtCsc29TF2YcYso_3syn4item11ForeignItemENtNtNtNtBa_4iter6traits8iterator8Iterator4nextBT_, symObjAddr: 0x2E08, symBinAddr: 0x6DE5C, symSize: 0xB0 }
  - { offset: 0x107D28, size: 0x8, addend: 0x0, symName: __RNvXs2V_NtNtCsaNl6UpbT7bw_4core5slice4iterINtB6_4IterNtNtCsc29TF2YcYso_3syn4item4ItemENtNtNtNtBa_4iter6traits8iterator8Iterator4nextBT_, symObjAddr: 0x2EB8, symBinAddr: 0x6DF0C, symSize: 0xB0 }
  - { offset: 0x107E62, size: 0x8, addend: 0x0, symName: __RNvXs2V_NtNtCsaNl6UpbT7bw_4core5slice4iterINtB6_4IterNtNtCsc29TF2YcYso_3syn4item8ImplItemENtNtNtNtBa_4iter6traits8iterator8Iterator4nextBT_, symObjAddr: 0x2F68, symBinAddr: 0x6DFBC, symSize: 0xB0 }
  - { offset: 0x107F9C, size: 0x8, addend: 0x0, symName: __RNvXs2V_NtNtCsaNl6UpbT7bw_4core5slice4iterINtB6_4IterNtNtCsc29TF2YcYso_3syn4item9TraitItemENtNtNtNtBa_4iter6traits8iterator8Iterator4nextBT_, symObjAddr: 0x3018, symBinAddr: 0x6E06C, symSize: 0xB0 }
  - { offset: 0x1080D6, size: 0x8, addend: 0x0, symName: __RNvXs2V_NtNtCsaNl6UpbT7bw_4core5slice4iterINtB6_4IterNtNtCsc29TF2YcYso_3syn4stmt4StmtENtNtNtNtBa_4iter6traits8iterator8Iterator4nextBT_, symObjAddr: 0x30C8, symBinAddr: 0x6E11C, symSize: 0xB0 }
  - { offset: 0x108210, size: 0x8, addend: 0x0, symName: __RNvXs2V_NtNtCsaNl6UpbT7bw_4core5slice4iterINtB6_4IterNtNtCsc29TF2YcYso_3syn5error12ErrorMessageENtNtNtNtBa_4iter6traits8iterator8Iterator4nextBT_, symObjAddr: 0x3178, symBinAddr: 0x6E1CC, symSize: 0xB0 }
  - { offset: 0x10834A, size: 0x8, addend: 0x0, symName: __RNvXs2V_NtNtCsaNl6UpbT7bw_4core5slice4iterINtB6_4IterNtNtCsc29TF2YcYso_3syn5error12ErrorMessageENtNtNtNtBa_4iter6traits8iterator8Iterator9size_hintBT_, symObjAddr: 0x3228, symBinAddr: 0x6E27C, symSize: 0x70 }
  - { offset: 0x1083B9, size: 0x8, addend: 0x0, symName: __RNvXs2V_NtNtCsaNl6UpbT7bw_4core5slice4iterINtB6_4IterTNtNtCsc29TF2YcYso_3syn2ty4TypeNtNtBU_5token5CommaEENtNtNtNtBa_4iter6traits8iterator8Iterator4nextBU_, symObjAddr: 0x3298, symBinAddr: 0x6E2EC, symSize: 0xB0 }
  - { offset: 0x1084F3, size: 0x8, addend: 0x0, symName: __RNvXs2V_NtNtCsaNl6UpbT7bw_4core5slice4iterINtB6_4IterTNtNtCsc29TF2YcYso_3syn2ty9BareFnArgNtNtBU_5token5CommaEENtNtNtNtBa_4iter6traits8iterator8Iterator4nextBU_, symObjAddr: 0x3348, symBinAddr: 0x6E39C, symSize: 0xB0 }
  - { offset: 0x10862D, size: 0x8, addend: 0x0, symName: __RNvXs2V_NtNtCsaNl6UpbT7bw_4core5slice4iterINtB6_4IterTNtNtCsc29TF2YcYso_3syn3pat3PatNtNtBU_5token2OrEENtNtNtNtBa_4iter6traits8iterator8Iterator4nextBU_, symObjAddr: 0x33F8, symBinAddr: 0x6E44C, symSize: 0xB0 }
  - { offset: 0x108767, size: 0x8, addend: 0x0, symName: __RNvXs2V_NtNtCsaNl6UpbT7bw_4core5slice4iterINtB6_4IterTNtNtCsc29TF2YcYso_3syn3pat3PatNtNtBU_5token5CommaEENtNtNtNtBa_4iter6traits8iterator8Iterator4nextBU_, symObjAddr: 0x34A8, symBinAddr: 0x6E4FC, symSize: 0xB0 }
  - { offset: 0x1088A1, size: 0x8, addend: 0x0, symName: __RNvXs2V_NtNtCsaNl6UpbT7bw_4core5slice4iterINtB6_4IterTNtNtCsc29TF2YcYso_3syn3pat8FieldPatNtNtBU_5token5CommaEENtNtNtNtBa_4iter6traits8iterator8Iterator4nextBU_, symObjAddr: 0x3558, symBinAddr: 0x6E5AC, symSize: 0xB0 }
  - { offset: 0x1089DB, size: 0x8, addend: 0x0, symName: __RNvXs2V_NtNtCsaNl6UpbT7bw_4core5slice4iterINtB6_4IterTNtNtCsc29TF2YcYso_3syn4data5FieldNtNtBU_5token5CommaEENtNtNtNtBa_4iter6traits8iterator8Iterator4nextBU_, symObjAddr: 0x3608, symBinAddr: 0x6E65C, symSize: 0xB0 }
  - { offset: 0x108B15, size: 0x8, addend: 0x0, symName: __RNvXs2V_NtNtCsaNl6UpbT7bw_4core5slice4iterINtB6_4IterTNtNtCsc29TF2YcYso_3syn4data7VariantNtNtBU_5token5CommaEENtNtNtNtBa_4iter6traits8iterator8Iterator4nextBU_, symObjAddr: 0x36B8, symBinAddr: 0x6E70C, symSize: 0xB0 }
  - { offset: 0x108C4F, size: 0x8, addend: 0x0, symName: __RNvXs2V_NtNtCsaNl6UpbT7bw_4core5slice4iterINtB6_4IterTNtNtCsc29TF2YcYso_3syn4expr10FieldValueNtNtBU_5token5CommaEENtNtNtNtBa_4iter6traits8iterator8Iterator4nextBU_, symObjAddr: 0x3768, symBinAddr: 0x6E7BC, symSize: 0xB0 }
  - { offset: 0x108D89, size: 0x8, addend: 0x0, symName: __RNvXs2V_NtNtCsaNl6UpbT7bw_4core5slice4iterINtB6_4IterTNtNtCsc29TF2YcYso_3syn4expr4ExprNtNtBU_5token5CommaEENtNtNtNtBa_4iter6traits8iterator8Iterator4nextBU_, symObjAddr: 0x3818, symBinAddr: 0x6E86C, symSize: 0xB0 }
  - { offset: 0x108EC3, size: 0x8, addend: 0x0, symName: __RNvXs2V_NtNtCsaNl6UpbT7bw_4core5slice4iterINtB6_4IterTNtNtCsc29TF2YcYso_3syn4item5FnArgNtNtBU_5token5CommaEENtNtNtNtBa_4iter6traits8iterator8Iterator4nextBU_, symObjAddr: 0x38C8, symBinAddr: 0x6E91C, symSize: 0xB0 }
  - { offset: 0x108FFD, size: 0x8, addend: 0x0, symName: __RNvXs2V_NtNtCsaNl6UpbT7bw_4core5slice4iterINtB6_4IterTNtNtCsc29TF2YcYso_3syn4item7UseTreeNtNtBU_5token5CommaEENtNtNtNtBa_4iter6traits8iterator8Iterator4nextBU_, symObjAddr: 0x3978, symBinAddr: 0x6E9CC, symSize: 0xB0 }
  - { offset: 0x109137, size: 0x8, addend: 0x0, symName: __RNvXs2V_NtNtCsaNl6UpbT7bw_4core5slice4iterINtB6_4IterTNtNtCsc29TF2YcYso_3syn4path11PathSegmentNtNtBU_5token7PathSepEENtNtNtNtBa_4iter6traits8iterator8Iterator4nextBU_, symObjAddr: 0x3A28, symBinAddr: 0x6EA7C, symSize: 0xB0 }
  - { offset: 0x109271, size: 0x8, addend: 0x0, symName: __RNvXs2V_NtNtCsaNl6UpbT7bw_4core5slice4iterINtB6_4IterTNtNtCsc29TF2YcYso_3syn4path15GenericArgumentNtNtBU_5token5CommaEENtNtNtNtBa_4iter6traits8iterator8Iterator4nextBU_, symObjAddr: 0x3AD8, symBinAddr: 0x6EB2C, symSize: 0xB0 }
  - { offset: 0x1093AB, size: 0x8, addend: 0x0, symName: __RNvXs2V_NtNtCsaNl6UpbT7bw_4core5slice4iterINtB6_4IterTNtNtCsc29TF2YcYso_3syn8generics12GenericParamNtNtBU_5token5CommaEENtNtNtNtBa_4iter6traits8iterator8Iterator4nextBU_, symObjAddr: 0x3B88, symBinAddr: 0x6EBDC, symSize: 0xB0 }
  - { offset: 0x1094E5, size: 0x8, addend: 0x0, symName: __RNvXs2V_NtNtCsaNl6UpbT7bw_4core5slice4iterINtB6_4IterTNtNtCsc29TF2YcYso_3syn8generics13CapturedParamNtNtBU_5token5CommaEENtNtNtNtBa_4iter6traits8iterator8Iterator4nextBU_, symObjAddr: 0x3C38, symBinAddr: 0x6EC8C, symSize: 0xB0 }
  - { offset: 0x10961F, size: 0x8, addend: 0x0, symName: __RNvXs2V_NtNtCsaNl6UpbT7bw_4core5slice4iterINtB6_4IterTNtNtCsc29TF2YcYso_3syn8generics14TypeParamBoundNtNtBU_5token4PlusEENtNtNtNtBa_4iter6traits8iterator8Iterator4nextBU_, symObjAddr: 0x3CE8, symBinAddr: 0x6ED3C, symSize: 0xB0 }
  - { offset: 0x109759, size: 0x8, addend: 0x0, symName: __RNvXs2V_NtNtCsaNl6UpbT7bw_4core5slice4iterINtB6_4IterTNtNtCsc29TF2YcYso_3syn8generics14WherePredicateNtNtBU_5token5CommaEENtNtNtNtBa_4iter6traits8iterator8Iterator4nextBU_, symObjAddr: 0x3D98, symBinAddr: 0x6EDEC, symSize: 0xB0 }
  - { offset: 0x109893, size: 0x8, addend: 0x0, symName: __RNvXs2V_NtNtCsaNl6UpbT7bw_4core5slice4iterINtB6_4IterTNtNtCsc29TF2YcYso_3syn8lifetime8LifetimeNtNtBU_5token4PlusEENtNtNtNtBa_4iter6traits8iterator8Iterator4nextBU_, symObjAddr: 0x3E48, symBinAddr: 0x6EE9C, symSize: 0xB0 }
  - { offset: 0x10A2D2, size: 0x8, addend: 0x0, symName: __RNvXs2W_NtNtCsaNl6UpbT7bw_4core5slice4iterINtB6_4IterNtCshnvkK9b4wzu_11proc_macro24SpanENtNtNtNtBa_4iter6traits12double_ended19DoubleEndedIterator9next_backCsc29TF2YcYso_3syn, symObjAddr: 0x3EF8, symBinAddr: 0x6EF4C, symSize: 0x108 }
  - { offset: 0x10A42E, size: 0x8, addend: 0x0, symName: __RNvXs2W_NtNtCsaNl6UpbT7bw_4core5slice4iterINtB6_4IterTNtNtCsc29TF2YcYso_3syn4data5FieldNtNtBU_5token5CommaEENtNtNtNtBa_4iter6traits12double_ended19DoubleEndedIterator9next_backBU_, symObjAddr: 0x4000, symBinAddr: 0x6F054, symSize: 0x108 }
  - { offset: 0x10A58A, size: 0x8, addend: 0x0, symName: __RNvXs2W_NtNtCsaNl6UpbT7bw_4core5slice4iterINtB6_4IterTNtNtCsc29TF2YcYso_3syn4path11PathSegmentNtNtBU_5token7PathSepEENtNtNtNtBa_4iter6traits12double_ended19DoubleEndedIterator9next_backBU_, symObjAddr: 0x4210, symBinAddr: 0x6F15C, symSize: 0x108 }
  - { offset: 0x10A6E6, size: 0x8, addend: 0x0, symName: __RNvXs2W_NtNtCsaNl6UpbT7bw_4core5slice4iterINtB6_4IterTNtNtCsc29TF2YcYso_3syn8generics12GenericParamNtNtBU_5token5CommaEENtNtNtNtBa_4iter6traits12double_ended19DoubleEndedIterator9next_backBU_, symObjAddr: 0x4318, symBinAddr: 0x6F264, symSize: 0x108 }
  - { offset: 0x10A842, size: 0x8, addend: 0x0, symName: __RNvXs2W_NtNtCsaNl6UpbT7bw_4core5slice4iterINtB6_4IterTNtNtCsc29TF2YcYso_3syn8generics14TypeParamBoundNtNtBU_5token4PlusEENtNtNtNtBa_4iter6traits12double_ended19DoubleEndedIterator9next_backBU_, symObjAddr: 0x4420, symBinAddr: 0x6F36C, symSize: 0x108 }
  - { offset: 0x10A99E, size: 0x8, addend: 0x0, symName: __RNvXs2W_NtNtCsaNl6UpbT7bw_4core5slice4iterINtB6_4IterhENtNtNtNtBa_4iter6traits12double_ended19DoubleEndedIterator9next_backCsc29TF2YcYso_3syn, symObjAddr: 0x4528, symBinAddr: 0x6F474, symSize: 0x108 }
  - { offset: 0x10AB77, size: 0x8, addend: 0x0, symName: __RNvXs33_NtNtCsaNl6UpbT7bw_4core5slice4iterINtB6_7IterMutTNtNtCsc29TF2YcYso_3syn4data5FieldNtNtBX_5token5CommaEENtNtNtNtBa_4iter6traits8iterator8Iterator4nextBX_, symObjAddr: 0x4B7C, symBinAddr: 0x6F790, symSize: 0xB0 }
  - { offset: 0x10AC9C, size: 0x8, addend: 0x0, symName: __RNvXs33_NtNtCsaNl6UpbT7bw_4core5slice4iterINtB6_7IterMutTNtNtCsc29TF2YcYso_3syn4path11PathSegmentNtNtBX_5token7PathSepEENtNtNtNtBa_4iter6traits8iterator8Iterator4nextBX_, symObjAddr: 0x4C2C, symBinAddr: 0x6F840, symSize: 0xB0 }
  - { offset: 0x10ADC1, size: 0x8, addend: 0x0, symName: __RNvXs33_NtNtCsaNl6UpbT7bw_4core5slice4iterINtB6_7IterMuthENtNtNtNtBa_4iter6traits8iterator8Iterator4nextCsc29TF2YcYso_3syn, symObjAddr: 0x4D8C, symBinAddr: 0x6F8F0, symSize: 0xB0 }
  - { offset: 0x10AEEC, size: 0x8, addend: 0x0, symName: __RNvXs34_NtNtCsaNl6UpbT7bw_4core5slice4iterINtB6_7IterMutTNtNtCsc29TF2YcYso_3syn4data5FieldNtNtBX_5token5CommaEENtNtNtNtBa_4iter6traits12double_ended19DoubleEndedIterator9next_backBX_, symObjAddr: 0x4E3C, symBinAddr: 0x6F9A0, symSize: 0x108 }
  - { offset: 0x10B048, size: 0x8, addend: 0x0, symName: __RNvXs34_NtNtCsaNl6UpbT7bw_4core5slice4iterINtB6_7IterMutTNtNtCsc29TF2YcYso_3syn4path11PathSegmentNtNtBX_5token7PathSepEENtNtNtNtBa_4iter6traits12double_ended19DoubleEndedIterator9next_backBX_, symObjAddr: 0x4F44, symBinAddr: 0x6FAA8, symSize: 0x108 }
  - { offset: 0x10B1AA, size: 0x8, addend: 0x0, symName: __RNvXs5_NtNtCsaNl6UpbT7bw_4core5slice4iterINtB5_4IterTNtNtCsc29TF2YcYso_3syn4data5FieldNtNtBT_5token5CommaEENtNtB9_5clone5Clone5cloneBT_, symObjAddr: 0x5174, symBinAddr: 0x6FBD0, symSize: 0x20 }
  - { offset: 0x10B1DF, size: 0x8, addend: 0x0, symName: __RNvXs5_NtNtCsaNl6UpbT7bw_4core5slice4iterINtB5_4IterTNtNtCsc29TF2YcYso_3syn4path11PathSegmentNtNtBT_5token7PathSepEENtNtB9_5clone5Clone5cloneBT_, symObjAddr: 0x51B4, symBinAddr: 0x6FBF0, symSize: 0x20 }
  - { offset: 0x10B214, size: 0x8, addend: 0x0, symName: __RNvXs5_NtNtCsaNl6UpbT7bw_4core5slice4iterINtB5_4IterTNtNtCsc29TF2YcYso_3syn8generics12GenericParamNtNtBT_5token5CommaEENtNtB9_5clone5Clone5cloneBT_, symObjAddr: 0x51D4, symBinAddr: 0x6FC10, symSize: 0x20 }
  - { offset: 0x10B249, size: 0x8, addend: 0x0, symName: __RNvXs5_NtNtCsaNl6UpbT7bw_4core5slice4iterINtB5_4IterTNtNtCsc29TF2YcYso_3syn8generics14TypeParamBoundNtNtBT_5token4PlusEENtNtB9_5clone5Clone5cloneBT_, symObjAddr: 0x51F4, symBinAddr: 0x6FC30, symSize: 0x20 }
  - { offset: 0x10B44D, size: 0x8, addend: 0x0, symName: __RNvMNtCsaNl6UpbT7bw_4core5sliceSTNtNtCsc29TF2YcYso_3syn4path11PathSegmentNtNtBz_5token7PathSepE4iterBz_, symObjAddr: 0x1B58, symBinAddr: 0x6CC04, symSize: 0x28 }
  - { offset: 0x10B484, size: 0x8, addend: 0x0, symName: __RNvMNtCsaNl6UpbT7bw_4core5sliceSTNtNtCsc29TF2YcYso_3syn4path11PathSegmentNtNtBz_5token7PathSepE8iter_mutBz_, symObjAddr: 0x1B80, symBinAddr: 0x6CC2C, symSize: 0x28 }
  - { offset: 0x10B4BB, size: 0x8, addend: 0x0, symName: __RNvMNtCsaNl6UpbT7bw_4core5sliceSTNtNtCsc29TF2YcYso_3syn4path15GenericArgumentNtNtBz_5token5CommaE4iterBz_, symObjAddr: 0x1BA8, symBinAddr: 0x6CC54, symSize: 0x28 }
  - { offset: 0x10B61F, size: 0x8, addend: 0x0, symName: __RNvNtNtCsaNl6UpbT7bw_4core5slice6memchr6memchrCsc29TF2YcYso_3syn, symObjAddr: 0x2450, symBinAddr: 0x6D4A4, symSize: 0x114 }
  - { offset: 0x10BEA4, size: 0x8, addend: 0x0, symName: __RINvYINtNtNtCsaNl6UpbT7bw_4core5array4iter8IntoIterNtCshnvkK9b4wzu_11proc_macro29TokenTreeKj1_ENtNtNtNtBa_4iter6traits8iterator8Iterator3mapNtCs7yrEGia95Wz_10proc_macro9TokenTreeNvNtBP_3imp19into_compiler_tokenECsc29TF2YcYso_3syn, symObjAddr: 0x1510, symBinAddr: 0x6C5BC, symSize: 0x30 }
  - { offset: 0x10BF12, size: 0x8, addend: 0x0, symName: __RINvYINtNtNtCsaNl6UpbT7bw_4core5array4iter8IntoIterNtCshnvkK9b4wzu_11proc_macro29TokenTreeKj1_ENtNtNtNtBa_4iter6traits8iterator8Iterator7collectNtNtBP_3imp11TokenStreamECsc29TF2YcYso_3syn, symObjAddr: 0x1540, symBinAddr: 0x6C5EC, symSize: 0x6C }
  - { offset: 0x10BFA8, size: 0x8, addend: 0x0, symName: __RINvYINtNtNtCsaNl6UpbT7bw_4core5array4iter8IntoIterNtCshnvkK9b4wzu_11proc_macro29TokenTreeKj1_ENtNtNtNtBa_4iter6traits8iterator8Iterator7collectNtNtBP_8fallback11TokenStreamECsc29TF2YcYso_3syn, symObjAddr: 0x15AC, symBinAddr: 0x6C658, symSize: 0x6C }
  - { offset: 0x10C03E, size: 0x8, addend: 0x0, symName: __RINvYINtNtNtCsaNl6UpbT7bw_4core5array4iter8IntoIterNtCshnvkK9b4wzu_11proc_macro29TokenTreeKj1_ENtNtNtNtBa_4iter6traits8iterator8Iterator8for_eachNCINvXsa_NtBP_8fallbackNtB2s_11TokenStreamINtNtB1z_7collect6ExtendBN_E6extendB3_E0ECsc29TF2YcYso_3syn, symObjAddr: 0x1618, symBinAddr: 0x6C6C4, symSize: 0x24 }
  - { offset: 0x10C08A, size: 0x8, addend: 0x0, symName: __RINvYINtNtNtCsaNl6UpbT7bw_4core5array4iter8IntoIterNtCshnvkK9b4wzu_11proc_macro29TokenTreeKj8_ENtNtNtNtBa_4iter6traits8iterator8Iterator3mapNtCs7yrEGia95Wz_10proc_macro9TokenTreeNvNtBP_3imp19into_compiler_tokenECsc29TF2YcYso_3syn, symObjAddr: 0x163C, symBinAddr: 0x6C6E8, symSize: 0x30 }
  - { offset: 0x10C0F8, size: 0x8, addend: 0x0, symName: __RINvYINtNtNtCsaNl6UpbT7bw_4core5array4iter8IntoIterNtCshnvkK9b4wzu_11proc_macro29TokenTreeKj8_ENtNtNtNtBa_4iter6traits8iterator8Iterator7collectNtNtBP_3imp11TokenStreamECsc29TF2YcYso_3syn, symObjAddr: 0x166C, symBinAddr: 0x6C718, symSize: 0x74 }
  - { offset: 0x10C18E, size: 0x8, addend: 0x0, symName: __RINvYINtNtNtCsaNl6UpbT7bw_4core5array4iter8IntoIterNtCshnvkK9b4wzu_11proc_macro29TokenTreeKj8_ENtNtNtNtBa_4iter6traits8iterator8Iterator7collectNtNtBP_8fallback11TokenStreamECsc29TF2YcYso_3syn, symObjAddr: 0x16E0, symBinAddr: 0x6C78C, symSize: 0x74 }
  - { offset: 0x10C224, size: 0x8, addend: 0x0, symName: __RINvYINtNtNtCsaNl6UpbT7bw_4core5array4iter8IntoIterNtCshnvkK9b4wzu_11proc_macro29TokenTreeKj8_ENtNtNtNtBa_4iter6traits8iterator8Iterator8for_eachNCINvXsa_NtBP_8fallbackNtB2s_11TokenStreamINtNtB1z_7collect6ExtendBN_E6extendB3_E0ECsc29TF2YcYso_3syn, symObjAddr: 0x1754, symBinAddr: 0x6C800, symSize: 0x24 }
  - { offset: 0x10C270, size: 0x8, addend: 0x0, symName: __RINvYINtNtNtCsaNl6UpbT7bw_4core5slice4iter4IterNtNtCsc29TF2YcYso_3syn4attr9AttributeENtNtNtNtBa_4iter6traits8iterator8Iterator6filterFG0_RL1_RL0_BJ_EbEBN_, symObjAddr: 0x1778, symBinAddr: 0x6C824, symSize: 0x30 }
  - { offset: 0x10C2D4, size: 0x8, addend: 0x0, symName: __RINvYINtNtNtCsaNl6UpbT7bw_4core5slice4iter4IterNtNtCsc29TF2YcYso_3syn5error12ErrorMessageENtNtNtNtBa_4iter6traits8iterator8Iterator3mapNtCshnvkK9b4wzu_11proc_macro211TokenStreamNvMs_BL_BJ_16to_compile_errorEBN_, symObjAddr: 0x17A8, symBinAddr: 0x6C854, symSize: 0x1C }
  - { offset: 0x10C32C, size: 0x8, addend: 0x0, symName: __RINvYINtNtNtCsaNl6UpbT7bw_4core5slice4iter4IterReENtNtNtNtBa_4iter6traits8iterator8Iterator8try_foldjNCINvNtNtBS_8adapters3map12map_try_foldRBJ_jjINtNtBa_6option6OptionjENCNCINvNtCsiTraAjBDcu4_5alloc3str17join_generic_copyehBJ_E00NvMs9_NtBa_3numj11checked_addE0B2k_ECsc29TF2YcYso_3syn, symObjAddr: 0x17C4, symBinAddr: 0x6C870, symSize: 0x17C }
  - { offset: 0x10C3E0, size: 0x8, addend: 0x0, symName: __RNvYINtNtNtCsaNl6UpbT7bw_4core5slice4iter4IterNtNtCsc29TF2YcYso_3syn4expr3ArmENtNtNtNtB9_4iter6traits8iterator8Iterator9enumerateBM_, symObjAddr: 0x5CC0, symBinAddr: 0x704FC, symSize: 0x28 }
  - { offset: 0x10C42C, size: 0x8, addend: 0x0, symName: __RNvYINtNtNtCsaNl6UpbT7bw_4core5slice4iter4IterhENtNtNtNtB9_4iter6traits8iterator8Iterator3revCsc29TF2YcYso_3syn, symObjAddr: 0x5CE8, symBinAddr: 0x70524, symSize: 0x1C }
  - { offset: 0x10C46F, size: 0x8, addend: 0x0, symName: __RNvXNtNtNtCsaNl6UpbT7bw_4core4iter6traits7collectINtNtNtB8_5array4iter8IntoIterNtCshnvkK9b4wzu_11proc_macro29TokenTreeKj1_ENtB2_12IntoIterator9into_iterCsc29TF2YcYso_3syn, symObjAddr: 0x2684, symBinAddr: 0x6D6D8, symSize: 0x30 }
  - { offset: 0x10C4A7, size: 0x8, addend: 0x0, symName: __RNvXNtNtNtCsaNl6UpbT7bw_4core4iter6traits7collectINtNtNtB8_5array4iter8IntoIterNtCshnvkK9b4wzu_11proc_macro29TokenTreeKj8_ENtB2_12IntoIterator9into_iterCsc29TF2YcYso_3syn, symObjAddr: 0x26B4, symBinAddr: 0x6D708, symSize: 0x30 }
  - { offset: 0x10C4DF, size: 0x8, addend: 0x0, symName: __RNvXNtNtNtCsaNl6UpbT7bw_4core4iter6traits7collectINtNtNtB8_5slice4iter4IterNtCshnvkK9b4wzu_11proc_macro24SpanENtB2_12IntoIterator9into_iterCsc29TF2YcYso_3syn, symObjAddr: 0x26E4, symBinAddr: 0x6D738, symSize: 0x1C }
  - { offset: 0x10C516, size: 0x8, addend: 0x0, symName: __RNvXNtNtNtCsaNl6UpbT7bw_4core4iter6traits7collectINtNtNtB8_5slice4iter4IterNtNtCsc29TF2YcYso_3syn4attr9AttributeENtB2_12IntoIterator9into_iterB1f_, symObjAddr: 0x2700, symBinAddr: 0x6D754, symSize: 0x1C }
  - { offset: 0x10C54D, size: 0x8, addend: 0x0, symName: __RNvXNtNtNtCsaNl6UpbT7bw_4core4iter6traits7collectINtNtNtB8_5slice4iter4IterNtNtCsc29TF2YcYso_3syn4expr3ArmENtB2_12IntoIterator9into_iterB1f_, symObjAddr: 0x271C, symBinAddr: 0x6D770, symSize: 0x1C }
  - { offset: 0x10C584, size: 0x8, addend: 0x0, symName: __RNvXNtNtNtCsaNl6UpbT7bw_4core4iter6traits7collectINtNtNtB8_5slice4iter4IterNtNtCsc29TF2YcYso_3syn4item11ForeignItemENtB2_12IntoIterator9into_iterB1f_, symObjAddr: 0x2738, symBinAddr: 0x6D78C, symSize: 0x1C }
  - { offset: 0x10C5BB, size: 0x8, addend: 0x0, symName: __RNvXNtNtNtCsaNl6UpbT7bw_4core4iter6traits7collectINtNtNtB8_5slice4iter4IterNtNtCsc29TF2YcYso_3syn4item4ItemENtB2_12IntoIterator9into_iterB1f_, symObjAddr: 0x2754, symBinAddr: 0x6D7A8, symSize: 0x1C }
  - { offset: 0x10C5F2, size: 0x8, addend: 0x0, symName: __RNvXNtNtNtCsaNl6UpbT7bw_4core4iter6traits7collectINtNtNtB8_5slice4iter4IterNtNtCsc29TF2YcYso_3syn4item8ImplItemENtB2_12IntoIterator9into_iterB1f_, symObjAddr: 0x2770, symBinAddr: 0x6D7C4, symSize: 0x1C }
  - { offset: 0x10C629, size: 0x8, addend: 0x0, symName: __RNvXNtNtNtCsaNl6UpbT7bw_4core4iter6traits7collectINtNtNtB8_5slice4iter4IterNtNtCsc29TF2YcYso_3syn4item9TraitItemENtB2_12IntoIterator9into_iterB1f_, symObjAddr: 0x278C, symBinAddr: 0x6D7E0, symSize: 0x1C }
  - { offset: 0x10C660, size: 0x8, addend: 0x0, symName: __RNvXNtNtNtCsaNl6UpbT7bw_4core4iter6traits7collectINtNtNtB8_5slice4iter4IterNtNtCsc29TF2YcYso_3syn4stmt4StmtENtB2_12IntoIterator9into_iterB1f_, symObjAddr: 0x27A8, symBinAddr: 0x6D7FC, symSize: 0x1C }
  - { offset: 0x10C697, size: 0x8, addend: 0x0, symName: __RNvXNtNtNtCsaNl6UpbT7bw_4core4iter6traits7collectINtNtNtB8_5slice4iter4IterNtNtCsc29TF2YcYso_3syn5error12ErrorMessageENtB2_12IntoIterator9into_iterB1f_, symObjAddr: 0x27C4, symBinAddr: 0x6D818, symSize: 0x1C }
  - { offset: 0x10C9B2, size: 0x8, addend: 0x0, symName: __RINvXs2_NtNtCsaNl6UpbT7bw_4core5array4iterINtB6_8IntoIterNtCshnvkK9b4wzu_11proc_macro29TokenTreeKj1_ENtNtNtNtBa_4iter6traits8iterator8Iterator4folduNCINvNtNtB1H_8adapters3map8map_foldBT_NtCs7yrEGia95Wz_10proc_macro9TokenTreeuNvNtBV_3imp19into_compiler_tokenNCINvNvB1B_8for_each4callB2Y_NCINvXsg_B30_NtB30_11TokenStreamINtNtB1F_7collect12FromIteratorB2Y_E9from_iterINtB2r_3MapBE_B3B_EE0E0E0ECsc29TF2YcYso_3syn, symObjAddr: 0xAA8, symBinAddr: 0x6BCC0, symSize: 0x9C }
  - { offset: 0x10CABC, size: 0x8, addend: 0x0, symName: __RINvXs2_NtNtCsaNl6UpbT7bw_4core5array4iterINtB6_8IntoIterNtCshnvkK9b4wzu_11proc_macro29TokenTreeKj1_ENtNtNtNtBa_4iter6traits8iterator8Iterator4folduNCINvNvB1B_8for_each4callBT_NCINvXsa_NtBV_8fallbackNtB2X_11TokenStreamINtNtB1F_7collect6ExtendBT_E6extendBE_E0E0ECsc29TF2YcYso_3syn, symObjAddr: 0xB44, symBinAddr: 0x6BD5C, symSize: 0x9C }
  - { offset: 0x10CBC6, size: 0x8, addend: 0x0, symName: __RINvXs2_NtNtCsaNl6UpbT7bw_4core5array4iterINtB6_8IntoIterNtCshnvkK9b4wzu_11proc_macro29TokenTreeKj8_ENtNtNtNtBa_4iter6traits8iterator8Iterator4folduNCINvNtNtB1H_8adapters3map8map_foldBT_NtCs7yrEGia95Wz_10proc_macro9TokenTreeuNvNtBV_3imp19into_compiler_tokenNCINvNvB1B_8for_each4callB2Y_NCINvXsg_B30_NtB30_11TokenStreamINtNtB1F_7collect12FromIteratorB2Y_E9from_iterINtB2r_3MapBE_B3B_EE0E0E0ECsc29TF2YcYso_3syn, symObjAddr: 0xBE0, symBinAddr: 0x6BDF8, symSize: 0x9C }
  - { offset: 0x10CCD0, size: 0x8, addend: 0x0, symName: __RINvXs2_NtNtCsaNl6UpbT7bw_4core5array4iterINtB6_8IntoIterNtCshnvkK9b4wzu_11proc_macro29TokenTreeKj8_ENtNtNtNtBa_4iter6traits8iterator8Iterator4folduNCINvNvB1B_8for_each4callBT_NCINvXsa_NtBV_8fallbackNtB2X_11TokenStreamINtNtB1F_7collect6ExtendBT_E6extendBE_E0E0ECsc29TF2YcYso_3syn, symObjAddr: 0xC7C, symBinAddr: 0x6BE94, symSize: 0x9C }
  - { offset: 0x10CDDA, size: 0x8, addend: 0x0, symName: __RNvXs2_NtNtCsaNl6UpbT7bw_4core5array4iterINtB5_8IntoIterNtCshnvkK9b4wzu_11proc_macro29TokenTreeKj1_ENtNtNtNtB9_4iter6traits8iterator8Iterator9size_hintCsc29TF2YcYso_3syn, symObjAddr: 0x47BC, symBinAddr: 0x6F708, symSize: 0x44 }
  - { offset: 0x10CE4D, size: 0x8, addend: 0x0, symName: __RNvXs2_NtNtCsaNl6UpbT7bw_4core5array4iterINtB5_8IntoIterNtCshnvkK9b4wzu_11proc_macro29TokenTreeKj8_ENtNtNtNtB9_4iter6traits8iterator8Iterator9size_hintCsc29TF2YcYso_3syn, symObjAddr: 0x4800, symBinAddr: 0x6F74C, symSize: 0x44 }
  - { offset: 0x10CF03, size: 0x8, addend: 0x0, symName: __RNvXs4_NtNtCsaNl6UpbT7bw_4core5array4iterINtB5_8IntoIterNtCshnvkK9b4wzu_11proc_macro29TokenTreeKj1_ENtNtNtB9_3ops4drop4Drop4dropCsc29TF2YcYso_3syn, symObjAddr: 0x5154, symBinAddr: 0x6FBB0, symSize: 0x10 }
  - { offset: 0x10CF36, size: 0x8, addend: 0x0, symName: __RNvXs4_NtNtCsaNl6UpbT7bw_4core5array4iterINtB5_8IntoIterNtCshnvkK9b4wzu_11proc_macro29TokenTreeKj8_ENtNtNtB9_3ops4drop4Drop4dropCsc29TF2YcYso_3syn, symObjAddr: 0x5164, symBinAddr: 0x6FBC0, symSize: 0x10 }
  - { offset: 0x10D1CA, size: 0x8, addend: 0x0, symName: __RNvXs19_NtCsaNl6UpbT7bw_4core3fmtRNtNtCsc29TF2YcYso_3syn4path30AngleBracketedGenericArgumentsNtB6_5Debug3fmtBA_, symObjAddr: 0x2B68, symBinAddr: 0x6DBBC, symSize: 0x30 }
  - { offset: 0x10D210, size: 0x8, addend: 0x0, symName: __RNvXs19_NtCsaNl6UpbT7bw_4core3fmtRNtNtCsc29TF2YcYso_3syn4path4PathNtB6_5Debug3fmtBA_, symObjAddr: 0x2B98, symBinAddr: 0x6DBEC, symSize: 0x30 }
  - { offset: 0x10D256, size: 0x8, addend: 0x0, symName: __RNvXs19_NtCsaNl6UpbT7bw_4core3fmtRNtNtCsc29TF2YcYso_3syn4path5QSelfNtB6_5Debug3fmtBA_, symObjAddr: 0x2BC8, symBinAddr: 0x6DC1C, symSize: 0x30 }
  - { offset: 0x10DAE4, size: 0x8, addend: 0x0, symName: __RNvXNtNtCsaNl6UpbT7bw_4core5clone6uninitNtNtCsc29TF2YcYso_3syn4path11PathSegmentNtB2_8CopySpec9clone_oneBG_, symObjAddr: 0x25A4, symBinAddr: 0x6D5F8, symSize: 0x48 }
  - { offset: 0x10DB48, size: 0x8, addend: 0x0, symName: __RNvXNtNtCsaNl6UpbT7bw_4core5clone6uninitNtNtCsc29TF2YcYso_3syn4path15GenericArgumentNtB2_8CopySpec9clone_oneBG_, symObjAddr: 0x25EC, symBinAddr: 0x6D640, symSize: 0x50 }
  - { offset: 0x10DBAC, size: 0x8, addend: 0x0, symName: __RNvXNtNtCsaNl6UpbT7bw_4core5clone6uninitNtNtCsc29TF2YcYso_3syn4path4PathNtB2_8CopySpec9clone_oneBG_, symObjAddr: 0x263C, symBinAddr: 0x6D690, symSize: 0x48 }
  - { offset: 0x10DCE7, size: 0x8, addend: 0x0, symName: __RNvXs0_NtNtCsaNl6UpbT7bw_4core3str7patternNtB5_12CharSearcherNtB5_15ReverseSearcher15next_match_backCsc29TF2YcYso_3syn, symObjAddr: 0x27E0, symBinAddr: 0x6D834, symSize: 0x388 }
  - { offset: 0x10E1EE, size: 0x8, addend: 0x0, symName: __RNvXs2_NtNtCsaNl6UpbT7bw_4core3str7patterncNtB5_7Pattern12is_suffix_ofCsc29TF2YcYso_3syn, symObjAddr: 0x4630, symBinAddr: 0x6F57C, symSize: 0x78 }
  - { offset: 0x10E295, size: 0x8, addend: 0x0, symName: __RNvXs2_NtNtCsaNl6UpbT7bw_4core3str7patterncNtB5_7Pattern13into_searcherCsc29TF2YcYso_3syn, symObjAddr: 0x46A8, symBinAddr: 0x6F5F4, symSize: 0x114 }
  - { offset: 0x10E3B3, size: 0x8, addend: 0x0, symName: __RNvXs_NtNtCsaNl6UpbT7bw_4core3str7patternNtB4_12CharSearcherNtB4_8Searcher10next_matchCsc29TF2YcYso_3syn, symObjAddr: 0x5678, symBinAddr: 0x6FEB4, symSize: 0x380 }
  - { offset: 0x10E817, size: 0x8, addend: 0x0, symName: __RNvXs_NtNtCsaNl6UpbT7bw_4core3str7patternNtB4_12CharSearcherNtB4_8Searcher8haystackCsc29TF2YcYso_3syn, symObjAddr: 0x59F8, symBinAddr: 0x70234, symSize: 0x20 }
  - { offset: 0x10EF5B, size: 0x8, addend: 0x0, symName: __RINvMsv_NtCshnvkK9b4wzu_11proc_macro23impNtB6_7Literal7subspanINtNtNtCsaNl6UpbT7bw_4core3ops5range5RangejEECsc29TF2YcYso_3syn, symObjAddr: 0x0, symBinAddr: 0x6B218, symSize: 0xD4 }
  - { offset: 0x10FF72, size: 0x8, addend: 0x0, symName: __RNvMs4_NtNtCsaNl6UpbT7bw_4core5slice4iterINtB5_4IterNtCshnvkK9b4wzu_11proc_macro24SpanE3newCsc29TF2YcYso_3syn, symObjAddr: 0x1BD0, symBinAddr: 0x6CC7C, symSize: 0x50 }
  - { offset: 0x110122, size: 0x8, addend: 0x0, symName: __RNvMs4_NtNtCsaNl6UpbT7bw_4core5slice4iterINtB5_4IterNtNtCsc29TF2YcYso_3syn4attr9AttributeE3newBS_, symObjAddr: 0x1C20, symBinAddr: 0x6CCCC, symSize: 0x50 }
  - { offset: 0x1102EC, size: 0x8, addend: 0x0, symName: __RNvMs4_NtNtCsaNl6UpbT7bw_4core5slice4iterINtB5_4IterNtNtCsc29TF2YcYso_3syn4expr3ArmE3newBS_, symObjAddr: 0x1C70, symBinAddr: 0x6CD1C, symSize: 0x58 }
  - { offset: 0x11049C, size: 0x8, addend: 0x0, symName: __RNvMs4_NtNtCsaNl6UpbT7bw_4core5slice4iterINtB5_4IterNtNtCsc29TF2YcYso_3syn5error12ErrorMessageE3newBS_, symObjAddr: 0x1CC8, symBinAddr: 0x6CD74, symSize: 0x58 }
  - { offset: 0x110666, size: 0x8, addend: 0x0, symName: __RNvMs4_NtNtCsaNl6UpbT7bw_4core5slice4iterINtB5_4IterTNtNtCsc29TF2YcYso_3syn2ty4TypeNtNtBT_5token5CommaEE3newBT_, symObjAddr: 0x1D20, symBinAddr: 0x6CDCC, symSize: 0x58 }
  - { offset: 0x110830, size: 0x8, addend: 0x0, symName: __RNvMs4_NtNtCsaNl6UpbT7bw_4core5slice4iterINtB5_4IterTNtNtCsc29TF2YcYso_3syn2ty9BareFnArgNtNtBT_5token5CommaEE3newBT_, symObjAddr: 0x1D78, symBinAddr: 0x6CE24, symSize: 0x58 }
  - { offset: 0x1109FA, size: 0x8, addend: 0x0, symName: __RNvMs4_NtNtCsaNl6UpbT7bw_4core5slice4iterINtB5_4IterTNtNtCsc29TF2YcYso_3syn3pat3PatNtNtBT_5token2OrEE3newBT_, symObjAddr: 0x1DD0, symBinAddr: 0x6CE7C, symSize: 0x58 }
  - { offset: 0x110BC4, size: 0x8, addend: 0x0, symName: __RNvMs4_NtNtCsaNl6UpbT7bw_4core5slice4iterINtB5_4IterTNtNtCsc29TF2YcYso_3syn3pat3PatNtNtBT_5token5CommaEE3newBT_, symObjAddr: 0x1E28, symBinAddr: 0x6CED4, symSize: 0x58 }
  - { offset: 0x110D8E, size: 0x8, addend: 0x0, symName: __RNvMs4_NtNtCsaNl6UpbT7bw_4core5slice4iterINtB5_4IterTNtNtCsc29TF2YcYso_3syn3pat8FieldPatNtNtBT_5token5CommaEE3newBT_, symObjAddr: 0x1E80, symBinAddr: 0x6CF2C, symSize: 0x58 }
  - { offset: 0x110F58, size: 0x8, addend: 0x0, symName: __RNvMs4_NtNtCsaNl6UpbT7bw_4core5slice4iterINtB5_4IterTNtNtCsc29TF2YcYso_3syn4data5FieldNtNtBT_5token5CommaEE3newBT_, symObjAddr: 0x1ED8, symBinAddr: 0x6CF84, symSize: 0x58 }
  - { offset: 0x111122, size: 0x8, addend: 0x0, symName: __RNvMs4_NtNtCsaNl6UpbT7bw_4core5slice4iterINtB5_4IterTNtNtCsc29TF2YcYso_3syn4data7VariantNtNtBT_5token5CommaEE3newBT_, symObjAddr: 0x1F30, symBinAddr: 0x6CFDC, symSize: 0x58 }
  - { offset: 0x1112EC, size: 0x8, addend: 0x0, symName: __RNvMs4_NtNtCsaNl6UpbT7bw_4core5slice4iterINtB5_4IterTNtNtCsc29TF2YcYso_3syn4expr10FieldValueNtNtBT_5token5CommaEE3newBT_, symObjAddr: 0x1F88, symBinAddr: 0x6D034, symSize: 0x58 }
  - { offset: 0x1114B6, size: 0x8, addend: 0x0, symName: __RNvMs4_NtNtCsaNl6UpbT7bw_4core5slice4iterINtB5_4IterTNtNtCsc29TF2YcYso_3syn4expr4ExprNtNtBT_5token5CommaEE3newBT_, symObjAddr: 0x1FE0, symBinAddr: 0x6D08C, symSize: 0x58 }
  - { offset: 0x111680, size: 0x8, addend: 0x0, symName: __RNvMs4_NtNtCsaNl6UpbT7bw_4core5slice4iterINtB5_4IterTNtNtCsc29TF2YcYso_3syn4item5FnArgNtNtBT_5token5CommaEE3newBT_, symObjAddr: 0x2038, symBinAddr: 0x6D0E4, symSize: 0x58 }
  - { offset: 0x11184A, size: 0x8, addend: 0x0, symName: __RNvMs4_NtNtCsaNl6UpbT7bw_4core5slice4iterINtB5_4IterTNtNtCsc29TF2YcYso_3syn4item7UseTreeNtNtBT_5token5CommaEE3newBT_, symObjAddr: 0x2090, symBinAddr: 0x6D13C, symSize: 0x58 }
  - { offset: 0x1119A8, size: 0x8, addend: 0x0, symName: __RNvMs4_NtNtCsaNl6UpbT7bw_4core5slice4iterINtB5_4IterTNtNtCsc29TF2YcYso_3syn4path11PathSegmentNtNtBT_5token7PathSepEE3newBT_, symObjAddr: 0x20E8, symBinAddr: 0x6D194, symSize: 0x58 }
  - { offset: 0x111B06, size: 0x8, addend: 0x0, symName: __RNvMs4_NtNtCsaNl6UpbT7bw_4core5slice4iterINtB5_4IterTNtNtCsc29TF2YcYso_3syn4path15GenericArgumentNtNtBT_5token5CommaEE3newBT_, symObjAddr: 0x2140, symBinAddr: 0x6D1EC, symSize: 0x58 }
  - { offset: 0x111CD0, size: 0x8, addend: 0x0, symName: __RNvMs4_NtNtCsaNl6UpbT7bw_4core5slice4iterINtB5_4IterTNtNtCsc29TF2YcYso_3syn8generics12GenericParamNtNtBT_5token5CommaEE3newBT_, symObjAddr: 0x2198, symBinAddr: 0x6D244, symSize: 0x58 }
  - { offset: 0x111E9A, size: 0x8, addend: 0x0, symName: __RNvMs4_NtNtCsaNl6UpbT7bw_4core5slice4iterINtB5_4IterTNtNtCsc29TF2YcYso_3syn8generics13CapturedParamNtNtBT_5token5CommaEE3newBT_, symObjAddr: 0x21F0, symBinAddr: 0x6D29C, symSize: 0x58 }
  - { offset: 0x112064, size: 0x8, addend: 0x0, symName: __RNvMs4_NtNtCsaNl6UpbT7bw_4core5slice4iterINtB5_4IterTNtNtCsc29TF2YcYso_3syn8generics14TypeParamBoundNtNtBT_5token4PlusEE3newBT_, symObjAddr: 0x2248, symBinAddr: 0x6D2F4, symSize: 0x50 }
  - { offset: 0x11222E, size: 0x8, addend: 0x0, symName: __RNvMs4_NtNtCsaNl6UpbT7bw_4core5slice4iterINtB5_4IterTNtNtCsc29TF2YcYso_3syn8generics14WherePredicateNtNtBT_5token5CommaEE3newBT_, symObjAddr: 0x2298, symBinAddr: 0x6D344, symSize: 0x58 }
  - { offset: 0x1123F8, size: 0x8, addend: 0x0, symName: __RNvMs4_NtNtCsaNl6UpbT7bw_4core5slice4iterINtB5_4IterTNtNtCsc29TF2YcYso_3syn8lifetime8LifetimeNtNtBT_5token4PlusEE3newBT_, symObjAddr: 0x22F0, symBinAddr: 0x6D39C, symSize: 0x58 }
  - { offset: 0x112581, size: 0x8, addend: 0x0, symName: __RNvMsa_NtNtCsaNl6UpbT7bw_4core5slice4iterINtB5_7IterMutTNtNtCsc29TF2YcYso_3syn4data5FieldNtNtBW_5token5CommaEE3newBW_, symObjAddr: 0x2348, symBinAddr: 0x6D3F4, symSize: 0x58 }
  - { offset: 0x1126FD, size: 0x8, addend: 0x0, symName: __RNvMsa_NtNtCsaNl6UpbT7bw_4core5slice4iterINtB5_7IterMutTNtNtCsc29TF2YcYso_3syn4path11PathSegmentNtNtBW_5token7PathSepEE3newBW_, symObjAddr: 0x23A0, symBinAddr: 0x6D44C, symSize: 0x58 }
  - { offset: 0x112838, size: 0x8, addend: 0x0, symName: __RNvXNtCs4EAaWzSXu1l_5quote9to_tokensRNtNtCsc29TF2YcYso_3syn4path15GenericArgumentNtB2_8ToTokens9to_tokensBD_, symObjAddr: 0x2564, symBinAddr: 0x6D5B8, symSize: 0x40 }
  - { offset: 0x113F25, size: 0x8, addend: 0x0, symName: __RINvMs_NtCsc29TF2YcYso_3syn4pathNtB5_4Path8is_identeEB7_, symObjAddr: 0x74AC, symBinAddr: 0x71C44, symSize: 0x94 }
  - { offset: 0x113F88, size: 0x8, addend: 0x0, symName: __RNvMs_NtCsc29TF2YcYso_3syn4pathNtB4_4Path9get_ident, symObjAddr: 0x7540, symBinAddr: 0x71CD8, symSize: 0xE8 }
  - { offset: 0x113FC4, size: 0x8, addend: 0x0, symName: __RNvMs2_NtCsc29TF2YcYso_3syn4pathNtB5_13PathArguments8is_empty, symObjAddr: 0x77C4, symBinAddr: 0x71E28, symSize: 0xCC }
  - { offset: 0x114003, size: 0x8, addend: 0x0, symName: __RNvMs2_NtCsc29TF2YcYso_3syn4pathNtB5_13PathArguments7is_none, symObjAddr: 0x7890, symBinAddr: 0x71EF4, symSize: 0x78 }
  - { offset: 0x114084, size: 0x8, addend: 0x0, symName: __RNvMs0_NtNtCsc29TF2YcYso_3syn4path7parsingNtB7_30AngleBracketedGenericArguments15parse_turbofish, symObjAddr: 0x8D04, symBinAddr: 0x73368, symSize: 0xD0 }
  - { offset: 0x1140E3, size: 0x8, addend: 0x0, symName: __RNvMs0_NtNtCsc29TF2YcYso_3syn4path7parsingNtB7_30AngleBracketedGenericArguments8do_parse, symObjAddr: 0x8DD4, symBinAddr: 0x73438, symSize: 0x498 }
  - { offset: 0x1141EE, size: 0x8, addend: 0x0, symName: __RNvMs4_NtNtCsc29TF2YcYso_3syn4path7parsingNtB7_11PathSegment12parse_helper, symObjAddr: 0x96B8, symBinAddr: 0x73CE0, symSize: 0x66C }
  - { offset: 0x114327, size: 0x8, addend: 0x0, symName: __RNvMs5_NtNtCsc29TF2YcYso_3syn4path7parsingNtB7_4Path15parse_mod_style, symObjAddr: 0x9D24, symBinAddr: 0x7434C, symSize: 0x568 }
  - { offset: 0x114403, size: 0x8, addend: 0x0, symName: __RNvMs5_NtNtCsc29TF2YcYso_3syn4path7parsingNtB7_4Path12parse_helper, symObjAddr: 0xA28C, symBinAddr: 0x748B4, symSize: 0x330 }
  - { offset: 0x114503, size: 0x8, addend: 0x0, symName: __RNvMs5_NtNtCsc29TF2YcYso_3syn4path7parsingNtB7_4Path10parse_rest, symObjAddr: 0xA5BC, symBinAddr: 0x74BE4, symSize: 0x26C }
  - { offset: 0x1145D8, size: 0x8, addend: 0x0, symName: __RNvMs5_NtNtCsc29TF2YcYso_3syn4path7parsingNtB7_4Path12is_mod_style, symObjAddr: 0xA828, symBinAddr: 0x74E50, symSize: 0x84 }
  - { offset: 0x114608, size: 0x8, addend: 0x0, symName: __RNvMs0_NtNtCsc29TF2YcYso_3syn3gen5debugNtNtB9_4path30AngleBracketedGenericArguments5debug, symObjAddr: 0xBE28, symBinAddr: 0x76314, symSize: 0x104 }
  - { offset: 0x114670, size: 0x8, addend: 0x0, symName: __RNvMs2X_NtNtCsc29TF2YcYso_3syn3gen5debugNtNtBa_4path29ParenthesizedGenericArguments5debug, symObjAddr: 0xD280, symBinAddr: 0x77720, symSize: 0xDC }
  - { offset: 0x1146CF, size: 0x8, addend: 0x0, symName: __RNvMs3m_NtNtCsc29TF2YcYso_3syn3gen5debugNtNtBa_4path4Path5debug, symObjAddr: 0xD3A8, symBinAddr: 0x77848, symSize: 0xB4 }
  - { offset: 0x1157F8, size: 0x8, addend: 0x0, symName: __RNvMs9_NtCsaNl6UpbT7bw_4core3numj11checked_addCsc29TF2YcYso_3syn, symObjAddr: 0x6190, symBinAddr: 0x7DBA4, symSize: 0x74 }
  - { offset: 0x115882, size: 0x8, addend: 0x0, symName: __RNvNvMs9_NtCsaNl6UpbT7bw_4core3numj13unchecked_add18precondition_checkCsc29TF2YcYso_3syn, symObjAddr: 0x699C, symBinAddr: 0x7E264, symSize: 0xB0 }
  - { offset: 0x115940, size: 0x8, addend: 0x0, symName: __RNvNvMs9_NtCsaNl6UpbT7bw_4core3numj13unchecked_mul18precondition_checkCsc29TF2YcYso_3syn, symObjAddr: 0x6A4C, symBinAddr: 0x7E314, symSize: 0xAC }
  - { offset: 0x115AD1, size: 0x8, addend: 0x0, symName: __RNvMsA_NtCsaNl6UpbT7bw_4core3numm16from_ascii_radixCsc29TF2YcYso_3syn, symObjAddr: 0x6204, symBinAddr: 0x7DC18, symSize: 0x594 }
  - { offset: 0x115D6E, size: 0x8, addend: 0x0, symName: __RNvNvMs3_NtCsaNl6UpbT7bw_4core3numi13unchecked_neg18precondition_checkCsc29TF2YcYso_3syn, symObjAddr: 0x68E4, symBinAddr: 0x7E1AC, symSize: 0xB8 }
  - { offset: 0x115E0B, size: 0x8, addend: 0x0, symName: __RNvXsz_NtCsaNl6UpbT7bw_4core3nummNtNtNtB7_3str6traits7FromStr8from_strCsc29TF2YcYso_3syn, symObjAddr: 0x14A54, symBinAddr: 0x8AF30, symSize: 0x40 }
  - { offset: 0x11F78F, size: 0x8, addend: 0x0, symName: __RNvXsp_NtCsaNl6UpbT7bw_4core6resultINtB5_6ResultANtCshnvkK9b4wzu_11proc_macro24Spanj1_NtNtCsc29TF2YcYso_3syn5error5ErrorENtNtNtB7_3ops9try_trait3Try6branchB1q_, symObjAddr: 0x709C, symBinAddr: 0x7E908, symSize: 0x8C }
  - { offset: 0x11F80C, size: 0x8, addend: 0x0, symName: __RNvXsp_NtCsaNl6UpbT7bw_4core6resultINtB5_6ResultANtCshnvkK9b4wzu_11proc_macro24Spanj2_NtNtCsc29TF2YcYso_3syn5error5ErrorENtNtNtB7_3ops9try_trait3Try6branchB1q_, symObjAddr: 0x7128, symBinAddr: 0x7E994, symSize: 0x8C }
  - { offset: 0x11F889, size: 0x8, addend: 0x0, symName: __RNvXsp_NtCsaNl6UpbT7bw_4core6resultINtB5_6ResultANtCshnvkK9b4wzu_11proc_macro24Spanj3_NtNtCsc29TF2YcYso_3syn5error5ErrorENtNtNtB7_3ops9try_trait3Try6branchB1q_, symObjAddr: 0x71B4, symBinAddr: 0x7EA20, symSize: 0x9C }
  - { offset: 0x11F906, size: 0x8, addend: 0x0, symName: __RNvXsp_NtCsaNl6UpbT7bw_4core6resultINtB5_6ResultINtNtB7_6option6OptionINtNtCsiTraAjBDcu4_5alloc5boxed3BoxNtNtCsc29TF2YcYso_3syn4expr4ExprEENtNtB1J_5error5ErrorENtNtNtB7_3ops9try_trait3Try6branchB1J_, symObjAddr: 0x7250, symBinAddr: 0x7EABC, symSize: 0x88 }
  - { offset: 0x11F984, size: 0x8, addend: 0x0, symName: __RNvXsp_NtCsaNl6UpbT7bw_4core6resultINtB5_6ResultINtNtB7_6option6OptionNtCshnvkK9b4wzu_11proc_macro25IdentENtNtCsc29TF2YcYso_3syn5error5ErrorENtNtNtB7_3ops9try_trait3Try6branchB1K_, symObjAddr: 0x72D8, symBinAddr: 0x7EB44, symSize: 0x94 }
  - { offset: 0x11FA01, size: 0x8, addend: 0x0, symName: __RNvXsp_NtCsaNl6UpbT7bw_4core6resultINtB5_6ResultINtNtB7_6option6OptionNtNtCsc29TF2YcYso_3syn2ty3AbiENtNtB1a_5error5ErrorENtNtNtB7_3ops9try_trait3Try6branchB1a_, symObjAddr: 0x736C, symBinAddr: 0x7EBD8, symSize: 0x94 }
  - { offset: 0x11FA7E, size: 0x8, addend: 0x0, symName: __RNvXsp_NtCsaNl6UpbT7bw_4core6resultINtB5_6ResultINtNtB7_6option6OptionNtNtCsc29TF2YcYso_3syn3lit3LitENtNtB1a_5error5ErrorENtNtNtB7_3ops9try_trait3Try6branchB1a_, symObjAddr: 0x7400, symBinAddr: 0x7EC6C, symSize: 0x94 }
  - { offset: 0x11FAFB, size: 0x8, addend: 0x0, symName: __RNvXsp_NtCsaNl6UpbT7bw_4core6resultINtB5_6ResultINtNtB7_6option6OptionNtNtCsc29TF2YcYso_3syn3lit6LitStrENtNtB1a_5error5ErrorENtNtNtB7_3ops9try_trait3Try6branchB1a_, symObjAddr: 0x7494, symBinAddr: 0x7ED00, symSize: 0x88 }
  - { offset: 0x11FB79, size: 0x8, addend: 0x0, symName: __RNvXsp_NtCsaNl6UpbT7bw_4core6resultINtB5_6ResultINtNtB7_6option6OptionNtNtCsc29TF2YcYso_3syn3lit8LitFloatENtNtB1a_5error5ErrorENtNtNtB7_3ops9try_trait3Try6branchB1a_, symObjAddr: 0x751C, symBinAddr: 0x7ED88, symSize: 0x88 }
  - { offset: 0x11FBF7, size: 0x8, addend: 0x0, symName: __RNvXsp_NtCsaNl6UpbT7bw_4core6resultINtB5_6ResultINtNtB7_6option6OptionNtNtCsc29TF2YcYso_3syn4expr5LabelENtNtB1a_5error5ErrorENtNtNtB7_3ops9try_trait3Try6branchB1a_, symObjAddr: 0x75A4, symBinAddr: 0x7EE10, symSize: 0xB0 }
  - { offset: 0x11FC74, size: 0x8, addend: 0x0, symName: __RNvXsp_NtCsaNl6UpbT7bw_4core6resultINtB5_6ResultINtNtB7_6option6OptionNtNtCsc29TF2YcYso_3syn4item10ImplItemFnENtNtB1a_5error5ErrorENtNtNtB7_3ops9try_trait3Try6branchB1a_, symObjAddr: 0x7654, symBinAddr: 0x7EEC0, symSize: 0xC0 }
  - { offset: 0x11FCF2, size: 0x8, addend: 0x0, symName: __RNvXsp_NtCsaNl6UpbT7bw_4core6resultINtB5_6ResultINtNtB7_6option6OptionNtNtCsc29TF2YcYso_3syn4item7ItemUseENtNtB1a_5error5ErrorENtNtNtB7_3ops9try_trait3Try6branchB1a_, symObjAddr: 0x7714, symBinAddr: 0x7EF80, symSize: 0xB8 }
  - { offset: 0x11FD70, size: 0x8, addend: 0x0, symName: __RNvXsp_NtCsaNl6UpbT7bw_4core6resultINtB5_6ResultINtNtB7_6option6OptionNtNtCsc29TF2YcYso_3syn4item7UseTreeENtNtB1a_5error5ErrorENtNtNtB7_3ops9try_trait3Try6branchB1a_, symObjAddr: 0x77CC, symBinAddr: 0x7F038, symSize: 0xAC }
  - { offset: 0x11FDED, size: 0x8, addend: 0x0, symName: __RNvXsp_NtCsaNl6UpbT7bw_4core6resultINtB5_6ResultINtNtB7_6option6OptionNtNtCsc29TF2YcYso_3syn4item8ItemImplENtNtB1a_5error5ErrorENtNtNtB7_3ops9try_trait3Try6branchB1a_, symObjAddr: 0x7878, symBinAddr: 0x7F0E4, symSize: 0xB8 }
  - { offset: 0x11FE6B, size: 0x8, addend: 0x0, symName: __RNvXsp_NtCsaNl6UpbT7bw_4core6resultINtB5_6ResultINtNtB7_6option6OptionNtNtCsc29TF2YcYso_3syn4item9SignatureENtNtB1a_5error5ErrorENtNtNtB7_3ops9try_trait3Try6branchB1a_, symObjAddr: 0x7930, symBinAddr: 0x7F19C, symSize: 0xB4 }
  - { offset: 0x11FEE9, size: 0x8, addend: 0x0, symName: __RNvXsp_NtCsaNl6UpbT7bw_4core6resultINtB5_6ResultINtNtB7_6option6OptionNtNtCsc29TF2YcYso_3syn5token2EqENtNtB1a_5error5ErrorENtNtNtB7_3ops9try_trait3Try6branchB1a_, symObjAddr: 0x79E4, symBinAddr: 0x7F250, symSize: 0x8C }
  - { offset: 0x11FF66, size: 0x8, addend: 0x0, symName: __RNvXsp_NtCsaNl6UpbT7bw_4core6resultINtB5_6ResultINtNtB7_6option6OptionNtNtCsc29TF2YcYso_3syn5token2OrENtNtB1a_5error5ErrorENtNtNtB7_3ops9try_trait3Try6branchB1a_, symObjAddr: 0x7A70, symBinAddr: 0x7F2DC, symSize: 0x8C }
  - { offset: 0x11FFE3, size: 0x8, addend: 0x0, symName: __RNvXsp_NtCsaNl6UpbT7bw_4core6resultINtB5_6ResultINtNtB7_6option6OptionNtNtCsc29TF2YcYso_3syn5token3BoxENtNtB1a_5error5ErrorENtNtNtB7_3ops9try_trait3Try6branchB1a_, symObjAddr: 0x7AFC, symBinAddr: 0x7F368, symSize: 0x94 }
  - { offset: 0x120061, size: 0x8, addend: 0x0, symName: __RNvXsp_NtCsaNl6UpbT7bw_4core6resultINtB5_6ResultINtNtB7_6option6OptionNtNtCsc29TF2YcYso_3syn5token3DynENtNtB1a_5error5ErrorENtNtNtB7_3ops9try_trait3Try6branchB1a_, symObjAddr: 0x7B90, symBinAddr: 0x7F3FC, symSize: 0x94 }
  - { offset: 0x1200DF, size: 0x8, addend: 0x0, symName: __RNvXsp_NtCsaNl6UpbT7bw_4core6resultINtB5_6ResultINtNtB7_6option6OptionNtNtCsc29TF2YcYso_3syn5token3MutENtNtB1a_5error5ErrorENtNtNtB7_3ops9try_trait3Try6branchB1a_, symObjAddr: 0x7C24, symBinAddr: 0x7F490, symSize: 0x94 }
  - { offset: 0x12015D, size: 0x8, addend: 0x0, symName: __RNvXsp_NtCsaNl6UpbT7bw_4core6resultINtB5_6ResultINtNtB7_6option6OptionNtNtCsc29TF2YcYso_3syn5token3RefENtNtB1a_5error5ErrorENtNtNtB7_3ops9try_trait3Try6branchB1a_, symObjAddr: 0x7CB8, symBinAddr: 0x7F524, symSize: 0x94 }
  - { offset: 0x1201DB, size: 0x8, addend: 0x0, symName: __RNvXsp_NtCsaNl6UpbT7bw_4core6resultINtB5_6ResultINtNtB7_6option6OptionNtNtCsc29TF2YcYso_3syn5token4AutoENtNtB1a_5error5ErrorENtNtNtB7_3ops9try_trait3Try6branchB1a_, symObjAddr: 0x7D4C, symBinAddr: 0x7F5B8, symSize: 0x94 }
  - { offset: 0x120259, size: 0x8, addend: 0x0, symName: __RNvXsp_NtCsaNl6UpbT7bw_4core6resultINtB5_6ResultINtNtB7_6option6OptionNtNtCsc29TF2YcYso_3syn5token4MoveENtNtB1a_5error5ErrorENtNtNtB7_3ops9try_trait3Try6branchB1a_, symObjAddr: 0x7DE0, symBinAddr: 0x7F64C, symSize: 0x94 }
  - { offset: 0x1202D7, size: 0x8, addend: 0x0, symName: __RNvXsp_NtCsaNl6UpbT7bw_4core6resultINtB5_6ResultINtNtB7_6option6OptionNtNtCsc29TF2YcYso_3syn5token4PlusENtNtB1a_5error5ErrorENtNtNtB7_3ops9try_trait3Try6branchB1a_, symObjAddr: 0x7E74, symBinAddr: 0x7F6E0, symSize: 0x8C }
  - { offset: 0x120354, size: 0x8, addend: 0x0, symName: __RNvXsp_NtCsaNl6UpbT7bw_4core6resultINtB5_6ResultINtNtB7_6option6OptionNtNtCsc29TF2YcYso_3syn5token4SemiENtNtB1a_5error5ErrorENtNtNtB7_3ops9try_trait3Try6branchB1a_, symObjAddr: 0x7F00, symBinAddr: 0x7F76C, symSize: 0x8C }
  - { offset: 0x1203D1, size: 0x8, addend: 0x0, symName: __RNvXsp_NtCsaNl6UpbT7bw_4core6resultINtB5_6ResultINtNtB7_6option6OptionNtNtCsc29TF2YcYso_3syn5token4StarENtNtB1a_5error5ErrorENtNtNtB7_3ops9try_trait3Try6branchB1a_, symObjAddr: 0x7F8C, symBinAddr: 0x7F7F8, symSize: 0x8C }
  - { offset: 0x12044E, size: 0x8, addend: 0x0, symName: __RNvXsp_NtCsaNl6UpbT7bw_4core6resultINtB5_6ResultINtNtB7_6option6OptionNtNtCsc29TF2YcYso_3syn5token5AsyncENtNtB1a_5error5ErrorENtNtNtB7_3ops9try_trait3Try6branchB1a_, symObjAddr: 0x8018, symBinAddr: 0x7F884, symSize: 0x94 }
  - { offset: 0x1204CC, size: 0x8, addend: 0x0, symName: __RNvXsp_NtCsaNl6UpbT7bw_4core6resultINtB5_6ResultINtNtB7_6option6OptionNtNtCsc29TF2YcYso_3syn5token5AwaitENtNtB1a_5error5ErrorENtNtNtB7_3ops9try_trait3Try6branchB1a_, symObjAddr: 0x80AC, symBinAddr: 0x7F918, symSize: 0x94 }
  - { offset: 0x12054A, size: 0x8, addend: 0x0, symName: __RNvXsp_NtCsaNl6UpbT7bw_4core6resultINtB5_6ResultINtNtB7_6option6OptionNtNtCsc29TF2YcYso_3syn5token5ColonENtNtB1a_5error5ErrorENtNtNtB7_3ops9try_trait3Try6branchB1a_, symObjAddr: 0x8140, symBinAddr: 0x7F9AC, symSize: 0x8C }
  - { offset: 0x1205C7, size: 0x8, addend: 0x0, symName: __RNvXsp_NtCsaNl6UpbT7bw_4core6resultINtB5_6ResultINtNtB7_6option6OptionNtNtCsc29TF2YcYso_3syn5token5CommaENtNtB1a_5error5ErrorENtNtNtB7_3ops9try_trait3Try6branchB1a_, symObjAddr: 0x81CC, symBinAddr: 0x7FA38, symSize: 0x8C }
  - { offset: 0x120644, size: 0x8, addend: 0x0, symName: __RNvXsp_NtCsaNl6UpbT7bw_4core6resultINtB5_6ResultINtNtB7_6option6OptionNtNtCsc29TF2YcYso_3syn5token5ConstENtNtB1a_5error5ErrorENtNtNtB7_3ops9try_trait3Try6branchB1a_, symObjAddr: 0x8258, symBinAddr: 0x7FAC4, symSize: 0x94 }
  - { offset: 0x1206C2, size: 0x8, addend: 0x0, symName: __RNvXsp_NtCsaNl6UpbT7bw_4core6resultINtB5_6ResultINtNtB7_6option6OptionNtNtCsc29TF2YcYso_3syn5token6StaticENtNtB1a_5error5ErrorENtNtNtB7_3ops9try_trait3Try6branchB1a_, symObjAddr: 0x82EC, symBinAddr: 0x7FB58, symSize: 0x94 }
  - { offset: 0x120740, size: 0x8, addend: 0x0, symName: __RNvXsp_NtCsaNl6UpbT7bw_4core6resultINtB5_6ResultINtNtB7_6option6OptionNtNtCsc29TF2YcYso_3syn5token6UnsafeENtNtB1a_5error5ErrorENtNtNtB7_3ops9try_trait3Try6branchB1a_, symObjAddr: 0x8380, symBinAddr: 0x7FBEC, symSize: 0x94 }
  - { offset: 0x1207BE, size: 0x8, addend: 0x0, symName: __RNvXsp_NtCsaNl6UpbT7bw_4core6resultINtB5_6ResultINtNtB7_6option6OptionNtNtCsc29TF2YcYso_3syn5token7DefaultENtNtB1a_5error5ErrorENtNtNtB7_3ops9try_trait3Try6branchB1a_, symObjAddr: 0x8414, symBinAddr: 0x7FC80, symSize: 0x94 }
  - { offset: 0x12083C, size: 0x8, addend: 0x0, symName: __RNvXsp_NtCsaNl6UpbT7bw_4core6resultINtB5_6ResultINtNtB7_6option6OptionNtNtCsc29TF2YcYso_3syn5token7PathSepENtNtB1a_5error5ErrorENtNtNtB7_3ops9try_trait3Try6branchB1a_, symObjAddr: 0x84A8, symBinAddr: 0x7FD14, symSize: 0x9C }
  - { offset: 0x1208B9, size: 0x8, addend: 0x0, symName: __RNvXsp_NtCsaNl6UpbT7bw_4core6resultINtB5_6ResultINtNtB7_6option6OptionNtNtCsc29TF2YcYso_3syn5token8QuestionENtNtB1a_5error5ErrorENtNtNtB7_3ops9try_trait3Try6branchB1a_, symObjAddr: 0x8544, symBinAddr: 0x7FDB0, symSize: 0x8C }
  - { offset: 0x120936, size: 0x8, addend: 0x0, symName: __RNvXsp_NtCsaNl6UpbT7bw_4core6resultINtB5_6ResultINtNtB7_6option6OptionNtNtCsc29TF2YcYso_3syn5token9DotDotDotENtNtB1a_5error5ErrorENtNtNtB7_3ops9try_trait3Try6branchB1a_, symObjAddr: 0x85D0, symBinAddr: 0x7FE3C, symSize: 0x8C }
  - { offset: 0x1209B3, size: 0x8, addend: 0x0, symName: __RNvXsp_NtCsaNl6UpbT7bw_4core6resultINtB5_6ResultINtNtB7_6option6OptionNtNtCsc29TF2YcYso_3syn8generics10TraitBoundENtNtB1a_5error5ErrorENtNtNtB7_3ops9try_trait3Try6branchB1a_, symObjAddr: 0x865C, symBinAddr: 0x7FEC8, symSize: 0xBC }
  - { offset: 0x120A30, size: 0x8, addend: 0x0, symName: __RNvXsp_NtCsaNl6UpbT7bw_4core6resultINtB5_6ResultINtNtB7_6option6OptionNtNtCsc29TF2YcYso_3syn8generics11WhereClauseENtNtB1a_5error5ErrorENtNtNtB7_3ops9try_trait3Try6branchB1a_, symObjAddr: 0x8718, symBinAddr: 0x7FF84, symSize: 0xB0 }
  - { offset: 0x120AAD, size: 0x8, addend: 0x0, symName: __RNvXsp_NtCsaNl6UpbT7bw_4core6resultINtB5_6ResultINtNtB7_6option6OptionNtNtCsc29TF2YcYso_3syn8generics14BoundLifetimesENtNtB1a_5error5ErrorENtNtNtB7_3ops9try_trait3Try6branchB1a_, symObjAddr: 0x87C8, symBinAddr: 0x80034, symSize: 0xB0 }
  - { offset: 0x120B2A, size: 0x8, addend: 0x0, symName: __RNvXsp_NtCsaNl6UpbT7bw_4core6resultINtB5_6ResultINtNtB7_6option6OptionNtNtCsc29TF2YcYso_3syn8lifetime8LifetimeENtNtB1a_5error5ErrorENtNtNtB7_3ops9try_trait3Try6branchB1a_, symObjAddr: 0x8878, symBinAddr: 0x800E4, symSize: 0x94 }
  - { offset: 0x120BA7, size: 0x8, addend: 0x0, symName: __RNvXsp_NtCsaNl6UpbT7bw_4core6resultINtB5_6ResultINtNtB7_6option6OptionNtNtNtCsc29TF2YcYso_3syn3pat7parsing13PatRangeBoundENtNtB1c_5error5ErrorENtNtNtB7_3ops9try_trait3Try6branchB1c_, symObjAddr: 0x890C, symBinAddr: 0x80178, symSize: 0xBC }
  - { offset: 0x120C24, size: 0x8, addend: 0x0, symName: __RNvXsp_NtCsaNl6UpbT7bw_4core6resultINtB5_6ResultINtNtB7_6option6OptionTNtNtCsc29TF2YcYso_3syn5token2EqNtNtB1b_2ty4TypeEENtNtB1b_5error5ErrorENtNtNtB7_3ops9try_trait3Try6branchB1b_, symObjAddr: 0x89C8, symBinAddr: 0x80234, symSize: 0xC0 }
  - { offset: 0x120CA2, size: 0x8, addend: 0x0, symName: __RNvXsp_NtCsaNl6UpbT7bw_4core6resultINtB5_6ResultINtNtCsc29TF2YcYso_3syn10punctuated10PunctuatedNtNtBP_2ty4TypeNtNtBP_5token5CommaENtNtBP_5error5ErrorENtNtNtB7_3ops9try_trait3Try6branchBP_, symObjAddr: 0x8A88, symBinAddr: 0x802F4, symSize: 0xA0 }
  - { offset: 0x120D1F, size: 0x8, addend: 0x0, symName: __RNvXsp_NtCsaNl6UpbT7bw_4core6resultINtB5_6ResultINtNtCsc29TF2YcYso_3syn10punctuated10PunctuatedNtNtBP_4data5FieldNtNtBP_5token5CommaENtNtBP_5error5ErrorENtNtNtB7_3ops9try_trait3Try6branchBP_, symObjAddr: 0x8B28, symBinAddr: 0x80394, symSize: 0xA0 }
  - { offset: 0x120D9C, size: 0x8, addend: 0x0, symName: __RNvXsp_NtCsaNl6UpbT7bw_4core6resultINtB5_6ResultINtNtCsc29TF2YcYso_3syn10punctuated10PunctuatedNtNtBP_4data7VariantNtNtBP_5token5CommaENtNtBP_5error5ErrorENtNtNtB7_3ops9try_trait3Try6branchBP_, symObjAddr: 0x8BC8, symBinAddr: 0x80434, symSize: 0xA0 }
  - { offset: 0x120E19, size: 0x8, addend: 0x0, symName: __RNvXsp_NtCsaNl6UpbT7bw_4core6resultINtB5_6ResultINtNtCsc29TF2YcYso_3syn10punctuated10PunctuatedNtNtBP_4expr4ExprNtNtBP_5token5CommaENtNtBP_5error5ErrorENtNtNtB7_3ops9try_trait3Try6branchBP_, symObjAddr: 0x8C68, symBinAddr: 0x804D4, symSize: 0xA0 }
  - { offset: 0x120E96, size: 0x8, addend: 0x0, symName: __RNvXsp_NtCsaNl6UpbT7bw_4core6resultINtB5_6ResultINtNtCsc29TF2YcYso_3syn10punctuated10PunctuatedNtNtBP_8generics14TypeParamBoundNtNtBP_5token4PlusENtNtBP_5error5ErrorENtNtNtB7_3ops9try_trait3Try6branchBP_, symObjAddr: 0x8D08, symBinAddr: 0x80574, symSize: 0xA0 }
  - { offset: 0x120F13, size: 0x8, addend: 0x0, symName: __RNvXsp_NtCsaNl6UpbT7bw_4core6resultINtB5_6ResultINtNtCsiTraAjBDcu4_5alloc3vec3VecNtNtCsc29TF2YcYso_3syn4attr9AttributeENtNtB1l_5error5ErrorENtNtNtB7_3ops9try_trait3Try6branchB1l_, symObjAddr: 0x8DA8, symBinAddr: 0x80614, symSize: 0x94 }
  - { offset: 0x120F90, size: 0x8, addend: 0x0, symName: __RNvXsp_NtCsaNl6UpbT7bw_4core6resultINtB5_6ResultINtNtCsiTraAjBDcu4_5alloc3vec3VecNtNtCsc29TF2YcYso_3syn4expr3ArmENtNtB1l_5error5ErrorENtNtNtB7_3ops9try_trait3Try6branchB1l_, symObjAddr: 0x8E3C, symBinAddr: 0x806A8, symSize: 0x94 }
  - { offset: 0x12100D, size: 0x8, addend: 0x0, symName: __RNvXsp_NtCsaNl6UpbT7bw_4core6resultINtB5_6ResultINtNtCsiTraAjBDcu4_5alloc3vec3VecNtNtCsc29TF2YcYso_3syn4stmt4StmtENtNtB1l_5error5ErrorENtNtNtB7_3ops9try_trait3Try6branchB1l_, symObjAddr: 0x8ED0, symBinAddr: 0x8073C, symSize: 0x94 }
  - { offset: 0x12108A, size: 0x8, addend: 0x0, symName: __RNvXsp_NtCsaNl6UpbT7bw_4core6resultINtB5_6ResultINtNtCsiTraAjBDcu4_5alloc5boxed3BoxNtNtCsc29TF2YcYso_3syn2ty4TypeENtNtB1n_5error5ErrorENtNtNtB7_3ops9try_trait3Try6branchB1n_, symObjAddr: 0x8F64, symBinAddr: 0x807D0, symSize: 0x88 }
  - { offset: 0x121108, size: 0x8, addend: 0x0, symName: __RNvXsp_NtCsaNl6UpbT7bw_4core6resultINtB5_6ResultINtNtCsiTraAjBDcu4_5alloc5boxed3BoxNtNtCsc29TF2YcYso_3syn4expr4ExprENtNtB1n_5error5ErrorENtNtNtB7_3ops9try_trait3Try6branchB1n_, symObjAddr: 0x8FEC, symBinAddr: 0x80858, symSize: 0x88 }
  - { offset: 0x121186, size: 0x8, addend: 0x0, symName: __RNvXsp_NtCsaNl6UpbT7bw_4core6resultINtB5_6ResultNtCshnvkK9b4wzu_11proc_macro211TokenStreamNtBM_8LexErrorENtNtNtB7_3ops9try_trait3Try6branchCsc29TF2YcYso_3syn, symObjAddr: 0x9074, symBinAddr: 0x808E0, symSize: 0x84 }
  - { offset: 0x121203, size: 0x8, addend: 0x0, symName: __RNvXsp_NtCsaNl6UpbT7bw_4core6resultINtB5_6ResultNtCshnvkK9b4wzu_11proc_macro211TokenStreamNtNtCsc29TF2YcYso_3syn5error5ErrorENtNtNtB7_3ops9try_trait3Try6branchB1u_, symObjAddr: 0x90F8, symBinAddr: 0x80964, symSize: 0xA0 }
  - { offset: 0x121280, size: 0x8, addend: 0x0, symName: __RNvXsp_NtCsaNl6UpbT7bw_4core6resultINtB5_6ResultNtCshnvkK9b4wzu_11proc_macro24SpanNtNtCsc29TF2YcYso_3syn5error5ErrorENtNtNtB7_3ops9try_trait3Try6branchB1m_, symObjAddr: 0x9198, symBinAddr: 0x80A04, symSize: 0x88 }
  - { offset: 0x1212FE, size: 0x8, addend: 0x0, symName: __RNvXsp_NtCsaNl6UpbT7bw_4core6resultINtB5_6ResultNtCshnvkK9b4wzu_11proc_macro25IdentNtNtCsc29TF2YcYso_3syn5error5ErrorENtNtNtB7_3ops9try_trait3Try6branchB1n_, symObjAddr: 0x9220, symBinAddr: 0x80A8C, symSize: 0x94 }
  - { offset: 0x12137B, size: 0x8, addend: 0x0, symName: __RNvXsp_NtCsaNl6UpbT7bw_4core6resultINtB5_6ResultNtNtCsc29TF2YcYso_3syn11restriction10VisibilityNtNtBO_5error5ErrorENtNtNtB7_3ops9try_trait3Try6branchBO_, symObjAddr: 0x92B4, symBinAddr: 0x80B20, symSize: 0x9C }
  - { offset: 0x1213F8, size: 0x8, addend: 0x0, symName: __RNvXsp_NtCsaNl6UpbT7bw_4core6resultINtB5_6ResultNtNtCsc29TF2YcYso_3syn2op4UnOpNtNtBO_5error5ErrorENtNtNtB7_3ops9try_trait3Try6branchBO_, symObjAddr: 0x9350, symBinAddr: 0x80BBC, symSize: 0x8C }
  - { offset: 0x121475, size: 0x8, addend: 0x0, symName: __RNvXsp_NtCsaNl6UpbT7bw_4core6resultINtB5_6ResultNtNtCsc29TF2YcYso_3syn2ty10ReturnTypeNtNtBO_5error5ErrorENtNtNtB7_3ops9try_trait3Try6branchBO_, symObjAddr: 0x93DC, symBinAddr: 0x80C48, symSize: 0x8C }
  - { offset: 0x1214F2, size: 0x8, addend: 0x0, symName: __RNvXsp_NtCsaNl6UpbT7bw_4core6resultINtB5_6ResultNtNtCsc29TF2YcYso_3syn2ty10TypeBareFnNtNtBO_5error5ErrorENtNtNtB7_3ops9try_trait3Try6branchBO_, symObjAddr: 0x9468, symBinAddr: 0x80CD4, symSize: 0xB4 }
  - { offset: 0x121570, size: 0x8, addend: 0x0, symName: __RNvXsp_NtCsaNl6UpbT7bw_4core6resultINtB5_6ResultNtNtCsc29TF2YcYso_3syn2ty12BareVariadicNtNtBO_5error5ErrorENtNtNtB7_3ops9try_trait3Try6branchBO_, symObjAddr: 0x951C, symBinAddr: 0x80D88, symSize: 0xB0 }
  - { offset: 0x1215ED, size: 0x8, addend: 0x0, symName: __RNvXsp_NtCsaNl6UpbT7bw_4core6resultINtB5_6ResultNtNtCsc29TF2YcYso_3syn2ty15TypeTraitObjectNtNtBO_5error5ErrorENtNtNtB7_3ops9try_trait3Try6branchBO_, symObjAddr: 0x95CC, symBinAddr: 0x80E38, symSize: 0xB0 }
  - { offset: 0x12166A, size: 0x8, addend: 0x0, symName: __RNvXsp_NtCsaNl6UpbT7bw_4core6resultINtB5_6ResultNtNtCsc29TF2YcYso_3syn2ty3AbiNtNtBO_5error5ErrorENtNtNtB7_3ops9try_trait3Try6branchBO_, symObjAddr: 0x967C, symBinAddr: 0x80EE8, symSize: 0x94 }
  - { offset: 0x1216E8, size: 0x8, addend: 0x0, symName: __RNvXsp_NtCsaNl6UpbT7bw_4core6resultINtB5_6ResultNtNtCsc29TF2YcYso_3syn2ty4TypeNtNtBO_5error5ErrorENtNtNtB7_3ops9try_trait3Try6branchBO_, symObjAddr: 0x9710, symBinAddr: 0x80F7C, symSize: 0xB4 }
  - { offset: 0x121766, size: 0x8, addend: 0x0, symName: __RNvXsp_NtCsaNl6UpbT7bw_4core6resultINtB5_6ResultNtNtCsc29TF2YcYso_3syn2ty8TypePathNtNtBO_5error5ErrorENtNtNtB7_3ops9try_trait3Try6branchBO_, symObjAddr: 0x97C4, symBinAddr: 0x81030, symSize: 0xB0 }
  - { offset: 0x1217E3, size: 0x8, addend: 0x0, symName: __RNvXsp_NtCsaNl6UpbT7bw_4core6resultINtB5_6ResultNtNtCsc29TF2YcYso_3syn2ty9BareFnArgNtNtBO_5error5ErrorENtNtNtB7_3ops9try_trait3Try6branchBO_, symObjAddr: 0x9874, symBinAddr: 0x810E0, symSize: 0xC0 }
  - { offset: 0x121861, size: 0x8, addend: 0x0, symName: __RNvXsp_NtCsaNl6UpbT7bw_4core6resultINtB5_6ResultNtNtCsc29TF2YcYso_3syn2ty9TypeGroupNtNtBO_5error5ErrorENtNtNtB7_3ops9try_trait3Try6branchBO_, symObjAddr: 0x9934, symBinAddr: 0x811A0, symSize: 0x94 }
  - { offset: 0x1218DF, size: 0x8, addend: 0x0, symName: __RNvXsp_NtCsaNl6UpbT7bw_4core6resultINtB5_6ResultNtNtCsc29TF2YcYso_3syn3lit3LitNtNtBO_5error5ErrorENtNtNtB7_3ops9try_trait3Try6branchBO_, symObjAddr: 0x99C8, symBinAddr: 0x81234, symSize: 0x94 }
  - { offset: 0x12195C, size: 0x8, addend: 0x0, symName: __RNvXsp_NtCsaNl6UpbT7bw_4core6resultINtB5_6ResultNtNtCsc29TF2YcYso_3syn3lit6LitIntNtNtBO_5error5ErrorENtNtNtB7_3ops9try_trait3Try6branchBO_, symObjAddr: 0x9A5C, symBinAddr: 0x812C8, symSize: 0x88 }
  - { offset: 0x1219DA, size: 0x8, addend: 0x0, symName: __RNvXsp_NtCsaNl6UpbT7bw_4core6resultINtB5_6ResultNtNtCsc29TF2YcYso_3syn3lit6LitStrNtNtBO_5error5ErrorENtNtNtB7_3ops9try_trait3Try6branchBO_, symObjAddr: 0x9AE4, symBinAddr: 0x81350, symSize: 0x88 }
  - { offset: 0x121A58, size: 0x8, addend: 0x0, symName: __RNvXsp_NtCsaNl6UpbT7bw_4core6resultINtB5_6ResultNtNtCsc29TF2YcYso_3syn3lit8LitFloatNtNtBO_5error5ErrorENtNtNtB7_3ops9try_trait3Try6branchBO_, symObjAddr: 0x9B6C, symBinAddr: 0x813D8, symSize: 0x88 }
  - { offset: 0x121AD6, size: 0x8, addend: 0x0, symName: __RNvXsp_NtCsaNl6UpbT7bw_4core6resultINtB5_6ResultNtNtCsc29TF2YcYso_3syn3mac5MacroNtNtBO_5error5ErrorENtNtNtB7_3ops9try_trait3Try6branchBO_, symObjAddr: 0x9BF4, symBinAddr: 0x81460, symSize: 0xBC }
  - { offset: 0x121B53, size: 0x8, addend: 0x0, symName: __RNvXsp_NtCsaNl6UpbT7bw_4core6resultINtB5_6ResultNtNtCsc29TF2YcYso_3syn3pat3PatNtNtBO_5error5ErrorENtNtNtB7_3ops9try_trait3Try6branchBO_, symObjAddr: 0x9CB0, symBinAddr: 0x8151C, symSize: 0xCC }
  - { offset: 0x121BD1, size: 0x8, addend: 0x0, symName: __RNvXsp_NtCsaNl6UpbT7bw_4core6resultINtB5_6ResultNtNtCsc29TF2YcYso_3syn3pat8FieldPatNtNtBO_5error5ErrorENtNtNtB7_3ops9try_trait3Try6branchBO_, symObjAddr: 0x9D7C, symBinAddr: 0x815E8, symSize: 0xB0 }
  - { offset: 0x121C4E, size: 0x8, addend: 0x0, symName: __RNvXsp_NtCsaNl6UpbT7bw_4core6resultINtB5_6ResultNtNtCsc29TF2YcYso_3syn4attr4MetaNtNtBO_5error5ErrorENtNtNtB7_3ops9try_trait3Try6branchBO_, symObjAddr: 0x9E2C, symBinAddr: 0x81698, symSize: 0xC0 }
  - { offset: 0x121CCC, size: 0x8, addend: 0x0, symName: __RNvXsp_NtCsaNl6UpbT7bw_4core6resultINtB5_6ResultNtNtCsc29TF2YcYso_3syn4attr9AttributeNtNtBO_5error5ErrorENtNtNtB7_3ops9try_trait3Try6branchBO_, symObjAddr: 0x9EEC, symBinAddr: 0x81758, symSize: 0xB4 }
  - { offset: 0x121D4A, size: 0x8, addend: 0x0, symName: __RNvXsp_NtCsaNl6UpbT7bw_4core6resultINtB5_6ResultNtNtCsc29TF2YcYso_3syn4data11FieldsNamedNtNtBO_5error5ErrorENtNtNtB7_3ops9try_trait3Try6branchBO_, symObjAddr: 0x9FA0, symBinAddr: 0x8180C, symSize: 0xB0 }
  - { offset: 0x121DC7, size: 0x8, addend: 0x0, symName: __RNvXsp_NtCsaNl6UpbT7bw_4core6resultINtB5_6ResultNtNtCsc29TF2YcYso_3syn4data13FieldsUnnamedNtNtBO_5error5ErrorENtNtNtB7_3ops9try_trait3Try6branchBO_, symObjAddr: 0xA050, symBinAddr: 0x818BC, symSize: 0xB0 }
  - { offset: 0x121E44, size: 0x8, addend: 0x0, symName: __RNvXsp_NtCsaNl6UpbT7bw_4core6resultINtB5_6ResultNtNtCsc29TF2YcYso_3syn4data5FieldNtNtBO_5error5ErrorENtNtNtB7_3ops9try_trait3Try6branchBO_, symObjAddr: 0xA100, symBinAddr: 0x8196C, symSize: 0xC0 }
  - { offset: 0x121EC2, size: 0x8, addend: 0x0, symName: __RNvXsp_NtCsaNl6UpbT7bw_4core6resultINtB5_6ResultNtNtCsc29TF2YcYso_3syn4data7VariantNtNtBO_5error5ErrorENtNtNtB7_3ops9try_trait3Try6branchBO_, symObjAddr: 0xA1C0, symBinAddr: 0x81A2C, symSize: 0xB4 }
  - { offset: 0x121F40, size: 0x8, addend: 0x0, symName: __RNvXsp_NtCsaNl6UpbT7bw_4core6resultINtB5_6ResultNtNtCsc29TF2YcYso_3syn4expr10ExprUnsafeNtNtBO_5error5ErrorENtNtNtB7_3ops9try_trait3Try6branchBO_, symObjAddr: 0xA274, symBinAddr: 0x81AE0, symSize: 0xB0 }
  - { offset: 0x121FBD, size: 0x8, addend: 0x0, symName: __RNvXsp_NtCsaNl6UpbT7bw_4core6resultINtB5_6ResultNtNtCsc29TF2YcYso_3syn4expr10FieldValueNtNtBO_5error5ErrorENtNtNtB7_3ops9try_trait3Try6branchBO_, symObjAddr: 0xA324, symBinAddr: 0x81B90, symSize: 0xC0 }
  - { offset: 0x12203B, size: 0x8, addend: 0x0, symName: __RNvXsp_NtCsaNl6UpbT7bw_4core6resultINtB5_6ResultNtNtCsc29TF2YcYso_3syn4expr11ExprForLoopNtNtBO_5error5ErrorENtNtNtB7_3ops9try_trait3Try6branchBO_, symObjAddr: 0xA3E4, symBinAddr: 0x81C50, symSize: 0xB0 }
  - { offset: 0x1220B8, size: 0x8, addend: 0x0, symName: __RNvXsp_NtCsaNl6UpbT7bw_4core6resultINtB5_6ResultNtNtCsc29TF2YcYso_3syn4expr11RangeLimitsNtNtBO_5error5ErrorENtNtNtB7_3ops9try_trait3Try6branchBO_, symObjAddr: 0xA494, symBinAddr: 0x81D00, symSize: 0x8C }
  - { offset: 0x122135, size: 0x8, addend: 0x0, symName: __RNvXsp_NtCsaNl6UpbT7bw_4core6resultINtB5_6ResultNtNtCsc29TF2YcYso_3syn4expr12ExprTryBlockNtNtBO_5error5ErrorENtNtNtB7_3ops9try_trait3Try6branchBO_, symObjAddr: 0xA520, symBinAddr: 0x81D8C, symSize: 0xB0 }
  - { offset: 0x1221B2, size: 0x8, addend: 0x0, symName: __RNvXsp_NtCsaNl6UpbT7bw_4core6resultINtB5_6ResultNtNtCsc29TF2YcYso_3syn4expr3ArmNtNtBO_5error5ErrorENtNtNtB7_3ops9try_trait3Try6branchBO_, symObjAddr: 0xA664, symBinAddr: 0x81E3C, symSize: 0xC4 }
  - { offset: 0x122230, size: 0x8, addend: 0x0, symName: __RNvXsp_NtCsaNl6UpbT7bw_4core6resultINtB5_6ResultNtNtCsc29TF2YcYso_3syn4expr4ExprNtNtBO_5error5ErrorENtNtNtB7_3ops9try_trait3Try6branchBO_, symObjAddr: 0xA728, symBinAddr: 0x81F00, symSize: 0xB4 }
  - { offset: 0x1222AE, size: 0x8, addend: 0x0, symName: __RNvXsp_NtCsaNl6UpbT7bw_4core6resultINtB5_6ResultNtNtCsc29TF2YcYso_3syn4expr5IndexNtNtBO_5error5ErrorENtNtNtB7_3ops9try_trait3Try6branchBO_, symObjAddr: 0xA7DC, symBinAddr: 0x81FB4, symSize: 0x94 }
  - { offset: 0x12232C, size: 0x8, addend: 0x0, symName: __RNvXsp_NtCsaNl6UpbT7bw_4core6resultINtB5_6ResultNtNtCsc29TF2YcYso_3syn4expr5LabelNtNtBO_5error5ErrorENtNtNtB7_3ops9try_trait3Try6branchBO_, symObjAddr: 0xA870, symBinAddr: 0x82048, symSize: 0xB0 }
  - { offset: 0x1223A9, size: 0x8, addend: 0x0, symName: __RNvXsp_NtCsaNl6UpbT7bw_4core6resultINtB5_6ResultNtNtCsc29TF2YcYso_3syn4expr6ExprIfNtNtBO_5error5ErrorENtNtNtB7_3ops9try_trait3Try6branchBO_, symObjAddr: 0xA920, symBinAddr: 0x820F8, symSize: 0xB0 }
  - { offset: 0x122426, size: 0x8, addend: 0x0, symName: __RNvXsp_NtCsaNl6UpbT7bw_4core6resultINtB5_6ResultNtNtCsc29TF2YcYso_3syn4expr6MemberNtNtBO_5error5ErrorENtNtNtB7_3ops9try_trait3Try6branchBO_, symObjAddr: 0xA9D0, symBinAddr: 0x821A8, symSize: 0x94 }
  - { offset: 0x1224A3, size: 0x8, addend: 0x0, symName: __RNvXsp_NtCsaNl6UpbT7bw_4core6resultINtB5_6ResultNtNtCsc29TF2YcYso_3syn4expr7ExprLitNtNtBO_5error5ErrorENtNtNtB7_3ops9try_trait3Try6branchBO_, symObjAddr: 0xAA64, symBinAddr: 0x8223C, symSize: 0xB0 }
  - { offset: 0x122520, size: 0x8, addend: 0x0, symName: __RNvXsp_NtCsaNl6UpbT7bw_4core6resultINtB5_6ResultNtNtCsc29TF2YcYso_3syn4expr8ExprLoopNtNtBO_5error5ErrorENtNtNtB7_3ops9try_trait3Try6branchBO_, symObjAddr: 0xAB14, symBinAddr: 0x822EC, symSize: 0xB0 }
  - { offset: 0x12259D, size: 0x8, addend: 0x0, symName: __RNvXsp_NtCsaNl6UpbT7bw_4core6resultINtB5_6ResultNtNtCsc29TF2YcYso_3syn4expr8ExprPathNtNtBO_5error5ErrorENtNtNtB7_3ops9try_trait3Try6branchBO_, symObjAddr: 0xABC4, symBinAddr: 0x8239C, symSize: 0xBC }
  - { offset: 0x12261A, size: 0x8, addend: 0x0, symName: __RNvXsp_NtCsaNl6UpbT7bw_4core6resultINtB5_6ResultNtNtCsc29TF2YcYso_3syn4expr9ExprBlockNtNtBO_5error5ErrorENtNtNtB7_3ops9try_trait3Try6branchBO_, symObjAddr: 0xAC80, symBinAddr: 0x82458, symSize: 0xBC }
  - { offset: 0x122697, size: 0x8, addend: 0x0, symName: __RNvXsp_NtCsaNl6UpbT7bw_4core6resultINtB5_6ResultNtNtCsc29TF2YcYso_3syn4expr9ExprConstNtNtBO_5error5ErrorENtNtNtB7_3ops9try_trait3Try6branchBO_, symObjAddr: 0xAD3C, symBinAddr: 0x82514, symSize: 0xB0 }
  - { offset: 0x122714, size: 0x8, addend: 0x0, symName: __RNvXsp_NtCsaNl6UpbT7bw_4core6resultINtB5_6ResultNtNtCsc29TF2YcYso_3syn4expr9ExprMatchNtNtBO_5error5ErrorENtNtNtB7_3ops9try_trait3Try6branchBO_, symObjAddr: 0xADEC, symBinAddr: 0x825C4, symSize: 0xB0 }
  - { offset: 0x122791, size: 0x8, addend: 0x0, symName: __RNvXsp_NtCsaNl6UpbT7bw_4core6resultINtB5_6ResultNtNtCsc29TF2YcYso_3syn4expr9ExprWhileNtNtBO_5error5ErrorENtNtNtB7_3ops9try_trait3Try6branchBO_, symObjAddr: 0xAE9C, symBinAddr: 0x82674, symSize: 0xBC }
  - { offset: 0x12280E, size: 0x8, addend: 0x0, symName: __RNvXsp_NtCsaNl6UpbT7bw_4core6resultINtB5_6ResultNtNtCsc29TF2YcYso_3syn4item11ForeignItemNtNtBO_5error5ErrorENtNtNtB7_3ops9try_trait3Try6branchBO_, symObjAddr: 0xB008, symBinAddr: 0x82730, symSize: 0xB4 }
  - { offset: 0x12288C, size: 0x8, addend: 0x0, symName: __RNvXsp_NtCsaNl6UpbT7bw_4core6resultINtB5_6ResultNtNtCsc29TF2YcYso_3syn4item16StaticMutabilityNtNtBO_5error5ErrorENtNtNtB7_3ops9try_trait3Try6branchBO_, symObjAddr: 0xB0BC, symBinAddr: 0x827E4, symSize: 0x94 }
  - { offset: 0x12290A, size: 0x8, addend: 0x0, symName: __RNvXsp_NtCsaNl6UpbT7bw_4core6resultINtB5_6ResultNtNtCsc29TF2YcYso_3syn4item4ItemNtNtBO_5error5ErrorENtNtNtB7_3ops9try_trait3Try6branchBO_, symObjAddr: 0xB150, symBinAddr: 0x82878, symSize: 0xB4 }
  - { offset: 0x122988, size: 0x8, addend: 0x0, symName: __RNvXsp_NtCsaNl6UpbT7bw_4core6resultINtB5_6ResultNtNtCsc29TF2YcYso_3syn4item7UseTreeNtNtBO_5error5ErrorENtNtNtB7_3ops9try_trait3Try6branchBO_, symObjAddr: 0xB204, symBinAddr: 0x8292C, symSize: 0xAC }
  - { offset: 0x122A05, size: 0x8, addend: 0x0, symName: __RNvXsp_NtCsaNl6UpbT7bw_4core6resultINtB5_6ResultNtNtCsc29TF2YcYso_3syn4item8ImplItemNtNtBO_5error5ErrorENtNtNtB7_3ops9try_trait3Try6branchBO_, symObjAddr: 0xB2B0, symBinAddr: 0x829D8, symSize: 0xB4 }
  - { offset: 0x122A83, size: 0x8, addend: 0x0, symName: __RNvXsp_NtCsaNl6UpbT7bw_4core6resultINtB5_6ResultNtNtCsc29TF2YcYso_3syn4item9SignatureNtNtBO_5error5ErrorENtNtNtB7_3ops9try_trait3Try6branchBO_, symObjAddr: 0xB364, symBinAddr: 0x82A8C, symSize: 0xB4 }
  - { offset: 0x122B01, size: 0x8, addend: 0x0, symName: __RNvXsp_NtCsaNl6UpbT7bw_4core6resultINtB5_6ResultNtNtCsc29TF2YcYso_3syn4item9TraitItemNtNtBO_5error5ErrorENtNtNtB7_3ops9try_trait3Try6branchBO_, symObjAddr: 0xB418, symBinAddr: 0x82B40, symSize: 0xB4 }
  - { offset: 0x122B7F, size: 0x8, addend: 0x0, symName: __RNvXsp_NtCsaNl6UpbT7bw_4core6resultINtB5_6ResultNtNtCsc29TF2YcYso_3syn4path11PathSegmentNtNtBO_5error5ErrorENtNtNtB7_3ops9try_trait3Try6branchBO_, symObjAddr: 0xB4CC, symBinAddr: 0x82BF4, symSize: 0xB8 }
  - { offset: 0x122BFC, size: 0x8, addend: 0x0, symName: __RNvXsp_NtCsaNl6UpbT7bw_4core6resultINtB5_6ResultNtNtCsc29TF2YcYso_3syn4path15GenericArgumentNtNtBO_5error5ErrorENtNtNtB7_3ops9try_trait3Try6branchBO_, symObjAddr: 0xB584, symBinAddr: 0x82CAC, symSize: 0xC0 }
  - { offset: 0x122C7A, size: 0x8, addend: 0x0, symName: __RNvXsp_NtCsaNl6UpbT7bw_4core6resultINtB5_6ResultNtNtCsc29TF2YcYso_3syn4path29ParenthesizedGenericArgumentsNtNtBO_5error5ErrorENtNtNtB7_3ops9try_trait3Try6branchBO_, symObjAddr: 0xB644, symBinAddr: 0x82D6C, symSize: 0xB0 }
  - { offset: 0x122CF7, size: 0x8, addend: 0x0, symName: __RNvXsp_NtCsaNl6UpbT7bw_4core6resultINtB5_6ResultNtNtCsc29TF2YcYso_3syn4path30AngleBracketedGenericArgumentsNtNtBO_5error5ErrorENtNtNtB7_3ops9try_trait3Try6branchBO_, symObjAddr: 0xB6F4, symBinAddr: 0x82E1C, symSize: 0xB0 }
  - { offset: 0x122D74, size: 0x8, addend: 0x0, symName: __RNvXsp_NtCsaNl6UpbT7bw_4core6resultINtB5_6ResultNtNtCsc29TF2YcYso_3syn4path4PathNtNtBO_5error5ErrorENtNtNtB7_3ops9try_trait3Try6branchBO_, symObjAddr: 0xB7A4, symBinAddr: 0x82ECC, symSize: 0xB0 }
  - { offset: 0x122DF1, size: 0x8, addend: 0x0, symName: __RNvXsp_NtCsaNl6UpbT7bw_4core6resultINtB5_6ResultNtNtCsc29TF2YcYso_3syn4stmt4StmtNtNtBO_5error5ErrorENtNtNtB7_3ops9try_trait3Try6branchBO_, symObjAddr: 0xB854, symBinAddr: 0x82F7C, symSize: 0xB4 }
  - { offset: 0x122E6F, size: 0x8, addend: 0x0, symName: __RNvXsp_NtCsaNl6UpbT7bw_4core6resultINtB5_6ResultNtNtCsc29TF2YcYso_3syn4stmt5BlockNtNtBO_5error5ErrorENtNtNtB7_3ops9try_trait3Try6branchBO_, symObjAddr: 0xB908, symBinAddr: 0x83030, symSize: 0xB0 }
  - { offset: 0x122EEC, size: 0x8, addend: 0x0, symName: __RNvXsp_NtCsaNl6UpbT7bw_4core6resultINtB5_6ResultNtNtCsc29TF2YcYso_3syn5group5GroupNtNtBO_5error5ErrorENtNtNtB7_3ops9try_trait3Try6branchBO_, symObjAddr: 0xB9B8, symBinAddr: 0x830E0, symSize: 0xB0 }
  - { offset: 0x122F69, size: 0x8, addend: 0x0, symName: __RNvXsp_NtCsaNl6UpbT7bw_4core6resultINtB5_6ResultNtNtCsc29TF2YcYso_3syn5token10UnderscoreNtNtBO_5error5ErrorENtNtNtB7_3ops9try_trait3Try6branchBO_, symObjAddr: 0xBA68, symBinAddr: 0x83190, symSize: 0x8C }
  - { offset: 0x122FE6, size: 0x8, addend: 0x0, symName: __RNvXsp_NtCsaNl6UpbT7bw_4core6resultINtB5_6ResultNtNtCsc29TF2YcYso_3syn5token2AsNtNtBO_5error5ErrorENtNtNtB7_3ops9try_trait3Try6branchBO_, symObjAddr: 0xBAF4, symBinAddr: 0x8321C, symSize: 0x88 }
  - { offset: 0x123064, size: 0x8, addend: 0x0, symName: __RNvXsp_NtCsaNl6UpbT7bw_4core6resultINtB5_6ResultNtNtCsc29TF2YcYso_3syn5token2AtNtNtBO_5error5ErrorENtNtNtB7_3ops9try_trait3Try6branchBO_, symObjAddr: 0xBB7C, symBinAddr: 0x832A4, symSize: 0x8C }
  - { offset: 0x1230E1, size: 0x8, addend: 0x0, symName: __RNvXsp_NtCsaNl6UpbT7bw_4core6resultINtB5_6ResultNtNtCsc29TF2YcYso_3syn5token2EqNtNtBO_5error5ErrorENtNtNtB7_3ops9try_trait3Try6branchBO_, symObjAddr: 0xBC08, symBinAddr: 0x83330, symSize: 0x8C }
  - { offset: 0x12315E, size: 0x8, addend: 0x0, symName: __RNvXsp_NtCsaNl6UpbT7bw_4core6resultINtB5_6ResultNtNtCsc29TF2YcYso_3syn5token2FnNtNtBO_5error5ErrorENtNtNtB7_3ops9try_trait3Try6branchBO_, symObjAddr: 0xBC94, symBinAddr: 0x833BC, symSize: 0x88 }
  - { offset: 0x1231DC, size: 0x8, addend: 0x0, symName: __RNvXsp_NtCsaNl6UpbT7bw_4core6resultINtB5_6ResultNtNtCsc29TF2YcYso_3syn5token2GtNtNtBO_5error5ErrorENtNtNtB7_3ops9try_trait3Try6branchBO_, symObjAddr: 0xBD1C, symBinAddr: 0x83444, symSize: 0x8C }
  - { offset: 0x123259, size: 0x8, addend: 0x0, symName: __RNvXsp_NtCsaNl6UpbT7bw_4core6resultINtB5_6ResultNtNtCsc29TF2YcYso_3syn5token2IfNtNtBO_5error5ErrorENtNtNtB7_3ops9try_trait3Try6branchBO_, symObjAddr: 0xBDA8, symBinAddr: 0x834D0, symSize: 0x88 }
  - { offset: 0x1232D7, size: 0x8, addend: 0x0, symName: __RNvXsp_NtCsaNl6UpbT7bw_4core6resultINtB5_6ResultNtNtCsc29TF2YcYso_3syn5token2InNtNtBO_5error5ErrorENtNtNtB7_3ops9try_trait3Try6branchBO_, symObjAddr: 0xBE30, symBinAddr: 0x83558, symSize: 0x88 }
  - { offset: 0x123355, size: 0x8, addend: 0x0, symName: __RNvXsp_NtCsaNl6UpbT7bw_4core6resultINtB5_6ResultNtNtCsc29TF2YcYso_3syn5token2LtNtNtBO_5error5ErrorENtNtNtB7_3ops9try_trait3Try6branchBO_, symObjAddr: 0xBEB8, symBinAddr: 0x835E0, symSize: 0x8C }
  - { offset: 0x1233D2, size: 0x8, addend: 0x0, symName: __RNvXsp_NtCsaNl6UpbT7bw_4core6resultINtB5_6ResultNtNtCsc29TF2YcYso_3syn5token2OrNtNtBO_5error5ErrorENtNtNtB7_3ops9try_trait3Try6branchBO_, symObjAddr: 0xBF44, symBinAddr: 0x8366C, symSize: 0x8C }
  - { offset: 0x12344F, size: 0x8, addend: 0x0, symName: __RNvXsp_NtCsaNl6UpbT7bw_4core6resultINtB5_6ResultNtNtCsc29TF2YcYso_3syn5token3AndNtNtBO_5error5ErrorENtNtNtB7_3ops9try_trait3Try6branchBO_, symObjAddr: 0xBFD0, symBinAddr: 0x836F8, symSize: 0x8C }
  - { offset: 0x1234CC, size: 0x8, addend: 0x0, symName: __RNvXsp_NtCsaNl6UpbT7bw_4core6resultINtB5_6ResultNtNtCsc29TF2YcYso_3syn5token3BoxNtNtBO_5error5ErrorENtNtNtB7_3ops9try_trait3Try6branchBO_, symObjAddr: 0xC05C, symBinAddr: 0x83784, symSize: 0x88 }
  - { offset: 0x12354A, size: 0x8, addend: 0x0, symName: __RNvXsp_NtCsaNl6UpbT7bw_4core6resultINtB5_6ResultNtNtCsc29TF2YcYso_3syn5token3DotNtNtBO_5error5ErrorENtNtNtB7_3ops9try_trait3Try6branchBO_, symObjAddr: 0xC0E4, symBinAddr: 0x8380C, symSize: 0x8C }
  - { offset: 0x1235C7, size: 0x8, addend: 0x0, symName: __RNvXsp_NtCsaNl6UpbT7bw_4core6resultINtB5_6ResultNtNtCsc29TF2YcYso_3syn5token3DynNtNtBO_5error5ErrorENtNtNtB7_3ops9try_trait3Try6branchBO_, symObjAddr: 0xC170, symBinAddr: 0x83898, symSize: 0x88 }
  - { offset: 0x123645, size: 0x8, addend: 0x0, symName: __RNvXsp_NtCsaNl6UpbT7bw_4core6resultINtB5_6ResultNtNtCsc29TF2YcYso_3syn5token3ForNtNtBO_5error5ErrorENtNtNtB7_3ops9try_trait3Try6branchBO_, symObjAddr: 0xC1F8, symBinAddr: 0x83920, symSize: 0x88 }
  - { offset: 0x1236C3, size: 0x8, addend: 0x0, symName: __RNvXsp_NtCsaNl6UpbT7bw_4core6resultINtB5_6ResultNtNtCsc29TF2YcYso_3syn5token3LetNtNtBO_5error5ErrorENtNtNtB7_3ops9try_trait3Try6branchBO_, symObjAddr: 0xC280, symBinAddr: 0x839A8, symSize: 0x88 }
  - { offset: 0x123741, size: 0x8, addend: 0x0, symName: __RNvXsp_NtCsaNl6UpbT7bw_4core6resultINtB5_6ResultNtNtCsc29TF2YcYso_3syn5token3ModNtNtBO_5error5ErrorENtNtNtB7_3ops9try_trait3Try6branchBO_, symObjAddr: 0xC308, symBinAddr: 0x83A30, symSize: 0x88 }
  - { offset: 0x1237BF, size: 0x8, addend: 0x0, symName: __RNvXsp_NtCsaNl6UpbT7bw_4core6resultINtB5_6ResultNtNtCsc29TF2YcYso_3syn5token3MutNtNtBO_5error5ErrorENtNtNtB7_3ops9try_trait3Try6branchBO_, symObjAddr: 0xC390, symBinAddr: 0x83AB8, symSize: 0x88 }
  - { offset: 0x12383D, size: 0x8, addend: 0x0, symName: __RNvXsp_NtCsaNl6UpbT7bw_4core6resultINtB5_6ResultNtNtCsc29TF2YcYso_3syn5token3NotNtNtBO_5error5ErrorENtNtNtB7_3ops9try_trait3Try6branchBO_, symObjAddr: 0xC418, symBinAddr: 0x83B40, symSize: 0x8C }
  - { offset: 0x1238BA, size: 0x8, addend: 0x0, symName: __RNvXsp_NtCsaNl6UpbT7bw_4core6resultINtB5_6ResultNtNtCsc29TF2YcYso_3syn5token3PubNtNtBO_5error5ErrorENtNtNtB7_3ops9try_trait3Try6branchBO_, symObjAddr: 0xC4A4, symBinAddr: 0x83BCC, symSize: 0x88 }
  - { offset: 0x123938, size: 0x8, addend: 0x0, symName: __RNvXsp_NtCsaNl6UpbT7bw_4core6resultINtB5_6ResultNtNtCsc29TF2YcYso_3syn5token3RawNtNtBO_5error5ErrorENtNtNtB7_3ops9try_trait3Try6branchBO_, symObjAddr: 0xC52C, symBinAddr: 0x83C54, symSize: 0x88 }
  - { offset: 0x1239B6, size: 0x8, addend: 0x0, symName: __RNvXsp_NtCsaNl6UpbT7bw_4core6resultINtB5_6ResultNtNtCsc29TF2YcYso_3syn5token3RefNtNtBO_5error5ErrorENtNtNtB7_3ops9try_trait3Try6branchBO_, symObjAddr: 0xC5B4, symBinAddr: 0x83CDC, symSize: 0x88 }
  - { offset: 0x123A34, size: 0x8, addend: 0x0, symName: __RNvXsp_NtCsaNl6UpbT7bw_4core6resultINtB5_6ResultNtNtCsc29TF2YcYso_3syn5token3TryNtNtBO_5error5ErrorENtNtNtB7_3ops9try_trait3Try6branchBO_, symObjAddr: 0xC63C, symBinAddr: 0x83D64, symSize: 0x88 }
  - { offset: 0x123AB2, size: 0x8, addend: 0x0, symName: __RNvXsp_NtCsaNl6UpbT7bw_4core6resultINtB5_6ResultNtNtCsc29TF2YcYso_3syn5token3UseNtNtBO_5error5ErrorENtNtNtB7_3ops9try_trait3Try6branchBO_, symObjAddr: 0xC6C4, symBinAddr: 0x83DEC, symSize: 0x88 }
  - { offset: 0x123B30, size: 0x8, addend: 0x0, symName: __RNvXsp_NtCsaNl6UpbT7bw_4core6resultINtB5_6ResultNtNtCsc29TF2YcYso_3syn5token4AutoNtNtBO_5error5ErrorENtNtNtB7_3ops9try_trait3Try6branchBO_, symObjAddr: 0xC74C, symBinAddr: 0x83E74, symSize: 0x88 }
  - { offset: 0x123BAE, size: 0x8, addend: 0x0, symName: __RNvXsp_NtCsaNl6UpbT7bw_4core6resultINtB5_6ResultNtNtCsc29TF2YcYso_3syn5token4ElseNtNtBO_5error5ErrorENtNtNtB7_3ops9try_trait3Try6branchBO_, symObjAddr: 0xC7D4, symBinAddr: 0x83EFC, symSize: 0x88 }
  - { offset: 0x123C2C, size: 0x8, addend: 0x0, symName: __RNvXsp_NtCsaNl6UpbT7bw_4core6resultINtB5_6ResultNtNtCsc29TF2YcYso_3syn5token4EnumNtNtBO_5error5ErrorENtNtNtB7_3ops9try_trait3Try6branchBO_, symObjAddr: 0xC85C, symBinAddr: 0x83F84, symSize: 0x88 }
  - { offset: 0x123CAA, size: 0x8, addend: 0x0, symName: __RNvXsp_NtCsaNl6UpbT7bw_4core6resultINtB5_6ResultNtNtCsc29TF2YcYso_3syn5token4ImplNtNtBO_5error5ErrorENtNtNtB7_3ops9try_trait3Try6branchBO_, symObjAddr: 0xC8E4, symBinAddr: 0x8400C, symSize: 0x88 }
  - { offset: 0x123D28, size: 0x8, addend: 0x0, symName: __RNvXsp_NtCsaNl6UpbT7bw_4core6resultINtB5_6ResultNtNtCsc29TF2YcYso_3syn5token4LoopNtNtBO_5error5ErrorENtNtNtB7_3ops9try_trait3Try6branchBO_, symObjAddr: 0xC96C, symBinAddr: 0x84094, symSize: 0x88 }
  - { offset: 0x123DA6, size: 0x8, addend: 0x0, symName: __RNvXsp_NtCsaNl6UpbT7bw_4core6resultINtB5_6ResultNtNtCsc29TF2YcYso_3syn5token4MoveNtNtBO_5error5ErrorENtNtNtB7_3ops9try_trait3Try6branchBO_, symObjAddr: 0xC9F4, symBinAddr: 0x8411C, symSize: 0x88 }
  - { offset: 0x123E24, size: 0x8, addend: 0x0, symName: __RNvXsp_NtCsaNl6UpbT7bw_4core6resultINtB5_6ResultNtNtCsc29TF2YcYso_3syn5token4PlusNtNtBO_5error5ErrorENtNtNtB7_3ops9try_trait3Try6branchBO_, symObjAddr: 0xCA7C, symBinAddr: 0x841A4, symSize: 0x8C }
  - { offset: 0x123EA1, size: 0x8, addend: 0x0, symName: __RNvXsp_NtCsaNl6UpbT7bw_4core6resultINtB5_6ResultNtNtCsc29TF2YcYso_3syn5token4SemiNtNtBO_5error5ErrorENtNtNtB7_3ops9try_trait3Try6branchBO_, symObjAddr: 0xCB08, symBinAddr: 0x84230, symSize: 0x8C }
  - { offset: 0x123F1E, size: 0x8, addend: 0x0, symName: __RNvXsp_NtCsaNl6UpbT7bw_4core6resultINtB5_6ResultNtNtCsc29TF2YcYso_3syn5token4StarNtNtBO_5error5ErrorENtNtNtB7_3ops9try_trait3Try6branchBO_, symObjAddr: 0xCB94, symBinAddr: 0x842BC, symSize: 0x8C }
  - { offset: 0x123F9B, size: 0x8, addend: 0x0, symName: __RNvXsp_NtCsaNl6UpbT7bw_4core6resultINtB5_6ResultNtNtCsc29TF2YcYso_3syn5token4TypeNtNtBO_5error5ErrorENtNtNtB7_3ops9try_trait3Try6branchBO_, symObjAddr: 0xCC20, symBinAddr: 0x84348, symSize: 0x88 }
  - { offset: 0x124019, size: 0x8, addend: 0x0, symName: __RNvXsp_NtCsaNl6UpbT7bw_4core6resultINtB5_6ResultNtNtCsc29TF2YcYso_3syn5token5AsyncNtNtBO_5error5ErrorENtNtNtB7_3ops9try_trait3Try6branchBO_, symObjAddr: 0xCCA8, symBinAddr: 0x843D0, symSize: 0x88 }
  - { offset: 0x124097, size: 0x8, addend: 0x0, symName: __RNvXsp_NtCsaNl6UpbT7bw_4core6resultINtB5_6ResultNtNtCsc29TF2YcYso_3syn5token5AwaitNtNtBO_5error5ErrorENtNtNtB7_3ops9try_trait3Try6branchBO_, symObjAddr: 0xCD30, symBinAddr: 0x84458, symSize: 0x88 }
  - { offset: 0x124115, size: 0x8, addend: 0x0, symName: __RNvXsp_NtCsaNl6UpbT7bw_4core6resultINtB5_6ResultNtNtCsc29TF2YcYso_3syn5token5BreakNtNtBO_5error5ErrorENtNtNtB7_3ops9try_trait3Try6branchBO_, symObjAddr: 0xCDB8, symBinAddr: 0x844E0, symSize: 0x88 }
  - { offset: 0x124193, size: 0x8, addend: 0x0, symName: __RNvXsp_NtCsaNl6UpbT7bw_4core6resultINtB5_6ResultNtNtCsc29TF2YcYso_3syn5token5ColonNtNtBO_5error5ErrorENtNtNtB7_3ops9try_trait3Try6branchBO_, symObjAddr: 0xCE40, symBinAddr: 0x84568, symSize: 0x8C }
  - { offset: 0x124210, size: 0x8, addend: 0x0, symName: __RNvXsp_NtCsaNl6UpbT7bw_4core6resultINtB5_6ResultNtNtCsc29TF2YcYso_3syn5token5CommaNtNtBO_5error5ErrorENtNtNtB7_3ops9try_trait3Try6branchBO_, symObjAddr: 0xCECC, symBinAddr: 0x845F4, symSize: 0x8C }
  - { offset: 0x12428D, size: 0x8, addend: 0x0, symName: __RNvXsp_NtCsaNl6UpbT7bw_4core6resultINtB5_6ResultNtNtCsc29TF2YcYso_3syn5token5ConstNtNtBO_5error5ErrorENtNtNtB7_3ops9try_trait3Try6branchBO_, symObjAddr: 0xCF58, symBinAddr: 0x84680, symSize: 0x88 }
  - { offset: 0x12430B, size: 0x8, addend: 0x0, symName: __RNvXsp_NtCsaNl6UpbT7bw_4core6resultINtB5_6ResultNtNtCsc29TF2YcYso_3syn5token5CrateNtNtBO_5error5ErrorENtNtNtB7_3ops9try_trait3Try6branchBO_, symObjAddr: 0xCFE0, symBinAddr: 0x84708, symSize: 0x88 }
  - { offset: 0x124389, size: 0x8, addend: 0x0, symName: __RNvXsp_NtCsaNl6UpbT7bw_4core6resultINtB5_6ResultNtNtCsc29TF2YcYso_3syn5token5MacroNtNtBO_5error5ErrorENtNtNtB7_3ops9try_trait3Try6branchBO_, symObjAddr: 0xD068, symBinAddr: 0x84790, symSize: 0x88 }
  - { offset: 0x124407, size: 0x8, addend: 0x0, symName: __RNvXsp_NtCsaNl6UpbT7bw_4core6resultINtB5_6ResultNtNtCsc29TF2YcYso_3syn5token5MatchNtNtBO_5error5ErrorENtNtNtB7_3ops9try_trait3Try6branchBO_, symObjAddr: 0xD0F0, symBinAddr: 0x84818, symSize: 0x88 }
  - { offset: 0x124485, size: 0x8, addend: 0x0, symName: __RNvXsp_NtCsaNl6UpbT7bw_4core6resultINtB5_6ResultNtNtCsc29TF2YcYso_3syn5token5PoundNtNtBO_5error5ErrorENtNtNtB7_3ops9try_trait3Try6branchBO_, symObjAddr: 0xD178, symBinAddr: 0x848A0, symSize: 0x8C }
  - { offset: 0x124502, size: 0x8, addend: 0x0, symName: __RNvXsp_NtCsaNl6UpbT7bw_4core6resultINtB5_6ResultNtNtCsc29TF2YcYso_3syn5token5TraitNtNtBO_5error5ErrorENtNtNtB7_3ops9try_trait3Try6branchBO_, symObjAddr: 0xD204, symBinAddr: 0x8492C, symSize: 0x88 }
  - { offset: 0x124580, size: 0x8, addend: 0x0, symName: __RNvXsp_NtCsaNl6UpbT7bw_4core6resultINtB5_6ResultNtNtCsc29TF2YcYso_3syn5token5UnionNtNtBO_5error5ErrorENtNtNtB7_3ops9try_trait3Try6branchBO_, symObjAddr: 0xD28C, symBinAddr: 0x849B4, symSize: 0x88 }
  - { offset: 0x1245FE, size: 0x8, addend: 0x0, symName: __RNvXsp_NtCsaNl6UpbT7bw_4core6resultINtB5_6ResultNtNtCsc29TF2YcYso_3syn5token5WhereNtNtBO_5error5ErrorENtNtNtB7_3ops9try_trait3Try6branchBO_, symObjAddr: 0xD314, symBinAddr: 0x84A3C, symSize: 0x88 }
  - { offset: 0x12467C, size: 0x8, addend: 0x0, symName: __RNvXsp_NtCsaNl6UpbT7bw_4core6resultINtB5_6ResultNtNtCsc29TF2YcYso_3syn5token5WhileNtNtBO_5error5ErrorENtNtNtB7_3ops9try_trait3Try6branchBO_, symObjAddr: 0xD39C, symBinAddr: 0x84AC4, symSize: 0x88 }
  - { offset: 0x1246FA, size: 0x8, addend: 0x0, symName: __RNvXsp_NtCsaNl6UpbT7bw_4core6resultINtB5_6ResultNtNtCsc29TF2YcYso_3syn5token5YieldNtNtBO_5error5ErrorENtNtNtB7_3ops9try_trait3Try6branchBO_, symObjAddr: 0xD424, symBinAddr: 0x84B4C, symSize: 0x88 }
  - { offset: 0x124778, size: 0x8, addend: 0x0, symName: __RNvXsp_NtCsaNl6UpbT7bw_4core6resultINtB5_6ResultNtNtCsc29TF2YcYso_3syn5token6BecomeNtNtBO_5error5ErrorENtNtNtB7_3ops9try_trait3Try6branchBO_, symObjAddr: 0xD4AC, symBinAddr: 0x84BD4, symSize: 0x88 }
  - { offset: 0x1247F6, size: 0x8, addend: 0x0, symName: __RNvXsp_NtCsaNl6UpbT7bw_4core6resultINtB5_6ResultNtNtCsc29TF2YcYso_3syn5token6DotDotNtNtBO_5error5ErrorENtNtNtB7_3ops9try_trait3Try6branchBO_, symObjAddr: 0xD534, symBinAddr: 0x84C5C, symSize: 0x8C }
