---
triple:          'arm64-apple-darwin'
binary-path:     '/Users/tyler/fall25/cse380/final_project/final_project_sqlite/target/debug/deps/libthiserror_impl-3149d450dc7a9e08.dylib'
relocations:
  - { offset: 0x1E, size: 0x8, addend: 0x0, symName: __RINvMNtNtNtCsiTraAjBDcu4_5alloc11collections5btree4nodeINtB3_8LeafNodeNtNtB9_6string6StringNtNtB5_7set_val9SetValZSTE3newNtNtB9_5alloc6GlobalECsfWotccrMQ3I_14thiserror_impl, symObjAddr: 0x0, symBinAddr: 0xC58, symSize: 0x70 }
  - { offset: 0xF88A, size: 0x8, addend: 0x0, symName: __RNCINvMss_NtNtNtCsiTraAjBDcu4_5alloc11collections5btree4nodeINtB8_7NodeRefNtNtB8_6marker5OwnedNtNtBe_6string6StringNtNtBa_7set_val9SetValZSTNtB1c_14LeafOrInternalE19push_internal_levelNtNtBe_5alloc6GlobalE0CsfWotccrMQ3I_14thiserror_impl, symObjAddr: 0xA9D0, symBinAddr: 0xB628, symSize: 0x34 }
  - { offset: 0xF8E3, size: 0x8, addend: 0x0, symName: __RNCINvMss_NtNtNtCsiTraAjBDcu4_5alloc11collections5btree4nodeINtB8_7NodeRefNtNtB8_6marker5OwnedNtNtBe_6string6StringTINtNtBa_3set8BTreeSetB1u_EINtNtCsc29TF2YcYso_3syn10punctuated10PunctuatedNtCshnvkK9b4wzu_11proc_macro211TokenStreamNtNtB2l_5token4PlusEENtB1c_14LeafOrInternalE19push_internal_levelNtNtBe_5alloc6GlobalE0CsfWotccrMQ3I_14thiserror_impl, symObjAddr: 0xAA04, symBinAddr: 0xB65C, symSize: 0x34 }
  - { offset: 0xF93C, size: 0x8, addend: 0x0, symName: __RNCINvMss_NtNtNtCsiTraAjBDcu4_5alloc11collections5btree4nodeINtB8_7NodeRefNtNtB8_6marker5OwnedNtNtCsfWotccrMQ3I_14thiserror_impl5unraw10IdentUnrawNtNtBa_7set_val9SetValZSTNtB1c_14LeafOrInternalE19push_internal_levelNtNtBe_5alloc6GlobalE0B1y_, symObjAddr: 0xAA38, symBinAddr: 0xB690, symSize: 0x34 }
  - { offset: 0xF995, size: 0x8, addend: 0x0, symName: __RNCINvMss_NtNtNtCsiTraAjBDcu4_5alloc11collections5btree4nodeINtB8_7NodeRefNtNtB8_6marker5OwnedRNtCshnvkK9b4wzu_11proc_macro25IdentNtNtBa_7set_val9SetValZSTNtB1c_14LeafOrInternalE19push_internal_levelNtNtBe_5alloc6GlobalE0CsfWotccrMQ3I_14thiserror_impl, symObjAddr: 0xAA6C, symBinAddr: 0xB6C4, symSize: 0x34 }
  - { offset: 0xF9EE, size: 0x8, addend: 0x0, symName: __RNCINvMss_NtNtNtCsiTraAjBDcu4_5alloc11collections5btree4nodeINtB8_7NodeRefNtNtB8_6marker5OwnedTjNtNtCsfWotccrMQ3I_14thiserror_impl4attr5TraitENtNtBa_7set_val9SetValZSTNtB1c_14LeafOrInternalE19push_internal_levelNtNtBe_5alloc6GlobalE0B1A_, symObjAddr: 0xAAA0, symBinAddr: 0xB6F8, symSize: 0x34 }
  - { offset: 0x18BDD, size: 0x8, addend: 0x0, symName: __RINvNtNtNtCsiTraAjBDcu4_5alloc11collections5btree4node12slice_insertINtNtNtCsaNl6UpbT7bw_4core3ptr8non_null7NonNullINtB2_8LeafNodeNtNtB8_6string6StringNtNtB4_7set_val9SetValZSTEEECsfWotccrMQ3I_14thiserror_impl, symObjAddr: 0x9588, symBinAddr: 0xA1E0, symSize: 0x11C }
  - { offset: 0x18D61, size: 0x8, addend: 0x0, symName: __RINvNtNtNtCsiTraAjBDcu4_5alloc11collections5btree4node12slice_insertINtNtNtCsaNl6UpbT7bw_4core3ptr8non_null7NonNullINtB2_8LeafNodeNtNtB8_6string6StringTINtNtB4_3set8BTreeSetB24_EINtNtCsc29TF2YcYso_3syn10punctuated10PunctuatedNtCshnvkK9b4wzu_11proc_macro211TokenStreamNtNtB2V_5token4PlusEEEEECsfWotccrMQ3I_14thiserror_impl, symObjAddr: 0x96A4, symBinAddr: 0xA2FC, symSize: 0x11C }
  - { offset: 0x18EE5, size: 0x8, addend: 0x0, symName: __RINvNtNtNtCsiTraAjBDcu4_5alloc11collections5btree4node12slice_insertINtNtNtCsaNl6UpbT7bw_4core3ptr8non_null7NonNullINtB2_8LeafNodeNtNtCsfWotccrMQ3I_14thiserror_impl5unraw10IdentUnrawNtNtB4_7set_val9SetValZSTEEEB28_, symObjAddr: 0x97C0, symBinAddr: 0xA418, symSize: 0x11C }
  - { offset: 0x19069, size: 0x8, addend: 0x0, symName: __RINvNtNtNtCsiTraAjBDcu4_5alloc11collections5btree4node12slice_insertINtNtNtCsaNl6UpbT7bw_4core3ptr8non_null7NonNullINtB2_8LeafNodeTjNtNtCsfWotccrMQ3I_14thiserror_impl4attr5TraitENtNtB4_7set_val9SetValZSTEEEB2a_, symObjAddr: 0x98DC, symBinAddr: 0xA534, symSize: 0x11C }
  - { offset: 0x191ED, size: 0x8, addend: 0x0, symName: __RINvNtNtNtCsiTraAjBDcu4_5alloc11collections5btree4node12slice_insertNtNtB4_7set_val9SetValZSTECsfWotccrMQ3I_14thiserror_impl, symObjAddr: 0x99F8, symBinAddr: 0xA650, symSize: 0xD8 }
  - { offset: 0x19302, size: 0x8, addend: 0x0, symName: __RINvNtNtNtCsiTraAjBDcu4_5alloc11collections5btree4node12slice_insertNtNtB8_6string6StringECsfWotccrMQ3I_14thiserror_impl, symObjAddr: 0x9AD0, symBinAddr: 0xA728, symSize: 0x158 }
  - { offset: 0x19489, size: 0x8, addend: 0x0, symName: __RINvNtNtNtCsiTraAjBDcu4_5alloc11collections5btree4node12slice_insertNtNtCsfWotccrMQ3I_14thiserror_impl5unraw10IdentUnrawEB18_, symObjAddr: 0x9C28, symBinAddr: 0xA880, symSize: 0x158 }
  - { offset: 0x19610, size: 0x8, addend: 0x0, symName: __RINvNtNtNtCsiTraAjBDcu4_5alloc11collections5btree4node12slice_insertTINtNtB4_3set8BTreeSetNtNtB8_6string6StringEINtNtCsc29TF2YcYso_3syn10punctuated10PunctuatedNtCshnvkK9b4wzu_11proc_macro211TokenStreamNtNtB1R_5token4PlusEEECsfWotccrMQ3I_14thiserror_impl, symObjAddr: 0x9D80, symBinAddr: 0xA9D8, symSize: 0x16C }
  - { offset: 0x1979B, size: 0x8, addend: 0x0, symName: __RINvNtNtNtCsiTraAjBDcu4_5alloc11collections5btree4node12slice_insertTjNtNtCsfWotccrMQ3I_14thiserror_impl4attr5TraitEEB1a_, symObjAddr: 0x9EEC, symBinAddr: 0xAB44, symSize: 0x12C }
  - { offset: 0x19922, size: 0x8, addend: 0x0, symName: __RINvNtNtNtCsiTraAjBDcu4_5alloc11collections5btree4node13move_to_sliceINtNtNtCsaNl6UpbT7bw_4core3ptr8non_null7NonNullINtB2_8LeafNodeNtNtB8_6string6StringNtNtB4_7set_val9SetValZSTEEECsfWotccrMQ3I_14thiserror_impl, symObjAddr: 0xA018, symBinAddr: 0xAC70, symSize: 0xB0 }
  - { offset: 0x199CE, size: 0x8, addend: 0x0, symName: __RINvNtNtNtCsiTraAjBDcu4_5alloc11collections5btree4node13move_to_sliceINtNtNtCsaNl6UpbT7bw_4core3ptr8non_null7NonNullINtB2_8LeafNodeNtNtB8_6string6StringTINtNtB4_3set8BTreeSetB25_EINtNtCsc29TF2YcYso_3syn10punctuated10PunctuatedNtCshnvkK9b4wzu_11proc_macro211TokenStreamNtNtB2W_5token4PlusEEEEECsfWotccrMQ3I_14thiserror_impl, symObjAddr: 0xA0C8, symBinAddr: 0xAD20, symSize: 0xB0 }
  - { offset: 0x19A7A, size: 0x8, addend: 0x0, symName: __RINvNtNtNtCsiTraAjBDcu4_5alloc11collections5btree4node13move_to_sliceINtNtNtCsaNl6UpbT7bw_4core3ptr8non_null7NonNullINtB2_8LeafNodeNtNtCsfWotccrMQ3I_14thiserror_impl5unraw10IdentUnrawNtNtB4_7set_val9SetValZSTEEEB29_, symObjAddr: 0xA178, symBinAddr: 0xADD0, symSize: 0xB0 }
  - { offset: 0x19B26, size: 0x8, addend: 0x0, symName: __RINvNtNtNtCsiTraAjBDcu4_5alloc11collections5btree4node13move_to_sliceINtNtNtCsaNl6UpbT7bw_4core3ptr8non_null7NonNullINtB2_8LeafNodeRNtCshnvkK9b4wzu_11proc_macro25IdentNtNtB4_7set_val9SetValZSTEEECsfWotccrMQ3I_14thiserror_impl, symObjAddr: 0xA228, symBinAddr: 0xAE80, symSize: 0xB0 }
  - { offset: 0x19BD2, size: 0x8, addend: 0x0, symName: __RINvNtNtNtCsiTraAjBDcu4_5alloc11collections5btree4node13move_to_sliceINtNtNtCsaNl6UpbT7bw_4core3ptr8non_null7NonNullINtB2_8LeafNodeTjNtNtCsfWotccrMQ3I_14thiserror_impl4attr5TraitENtNtB4_7set_val9SetValZSTEEEB2b_, symObjAddr: 0xA2D8, symBinAddr: 0xAF30, symSize: 0xB0 }
  - { offset: 0x19C7E, size: 0x8, addend: 0x0, symName: __RINvNtNtNtCsiTraAjBDcu4_5alloc11collections5btree4node13move_to_sliceNtNtB4_7set_val9SetValZSTECsfWotccrMQ3I_14thiserror_impl, symObjAddr: 0xA388, symBinAddr: 0xAFE0, symSize: 0xB4 }
  - { offset: 0x19D2A, size: 0x8, addend: 0x0, symName: __RINvNtNtNtCsiTraAjBDcu4_5alloc11collections5btree4node13move_to_sliceNtNtB8_6string6StringECsfWotccrMQ3I_14thiserror_impl, symObjAddr: 0xA43C, symBinAddr: 0xB094, symSize: 0xB8 }
  - { offset: 0x19DD6, size: 0x8, addend: 0x0, symName: __RINvNtNtNtCsiTraAjBDcu4_5alloc11collections5btree4node13move_to_sliceNtNtCsfWotccrMQ3I_14thiserror_impl5unraw10IdentUnrawEB19_, symObjAddr: 0xA4F4, symBinAddr: 0xB14C, symSize: 0xB8 }
  - { offset: 0x19E82, size: 0x8, addend: 0x0, symName: __RINvNtNtNtCsiTraAjBDcu4_5alloc11collections5btree4node13move_to_sliceRNtCshnvkK9b4wzu_11proc_macro25IdentECsfWotccrMQ3I_14thiserror_impl, symObjAddr: 0xA5AC, symBinAddr: 0xB204, symSize: 0xB0 }
  - { offset: 0x19F2E, size: 0x8, addend: 0x0, symName: __RINvNtNtNtCsiTraAjBDcu4_5alloc11collections5btree4node13move_to_sliceTINtNtB4_3set8BTreeSetNtNtB8_6string6StringEINtNtCsc29TF2YcYso_3syn10punctuated10PunctuatedNtCshnvkK9b4wzu_11proc_macro211TokenStreamNtNtB1S_5token4PlusEEECsfWotccrMQ3I_14thiserror_impl, symObjAddr: 0xA65C, symBinAddr: 0xB2B4, symSize: 0xB8 }
  - { offset: 0x19FDA, size: 0x8, addend: 0x0, symName: __RINvNtNtNtCsiTraAjBDcu4_5alloc11collections5btree4node13move_to_sliceTjNtNtCsfWotccrMQ3I_14thiserror_impl4attr5TraitEEB1b_, symObjAddr: 0xA714, symBinAddr: 0xB36C, symSize: 0xB4 }
  - { offset: 0x1A086, size: 0x8, addend: 0x0, symName: __RINvNtNtNtCsiTraAjBDcu4_5alloc11collections5btree4node9slice_shrINtNtNtCsaNl6UpbT7bw_4core3ptr8non_null7NonNullINtB2_8LeafNodeRNtCshnvkK9b4wzu_11proc_macro25IdentNtNtB4_7set_val9SetValZSTEEECsfWotccrMQ3I_14thiserror_impl, symObjAddr: 0xA7C8, symBinAddr: 0xB420, symSize: 0xB4 }
  - { offset: 0x1A148, size: 0x8, addend: 0x0, symName: __RINvNtNtNtCsiTraAjBDcu4_5alloc11collections5btree4node9slice_shrNtNtB4_7set_val9SetValZSTECsfWotccrMQ3I_14thiserror_impl, symObjAddr: 0xA87C, symBinAddr: 0xB4D4, symSize: 0xA0 }
  - { offset: 0x1A21A, size: 0x8, addend: 0x0, symName: __RINvNtNtNtCsiTraAjBDcu4_5alloc11collections5btree4node9slice_shrRNtCshnvkK9b4wzu_11proc_macro25IdentECsfWotccrMQ3I_14thiserror_impl, symObjAddr: 0xA91C, symBinAddr: 0xB574, symSize: 0xB4 }
  - { offset: 0x1B7B3, size: 0x8, addend: 0x0, symName: __RNvXNvMsT_NtNtNtCsiTraAjBDcu4_5alloc11collections5btree4nodeINtB8_6HandleINtB8_7NodeRefNtNtB8_6marker5DyingpppENtB1p_2KVE12drop_key_valINtB2_7DropperNtNtBa_7set_val9SetValZSTENtNtNtCsaNl6UpbT7bw_4core3ops4drop4Drop4dropCsfWotccrMQ3I_14thiserror_impl, symObjAddr: 0x13C58, symBinAddr: 0x148B0, symSize: 0x1C }
  - { offset: 0x1B7E6, size: 0x8, addend: 0x0, symName: __RNvXNvMsT_NtNtNtCsiTraAjBDcu4_5alloc11collections5btree4nodeINtB8_6HandleINtB8_7NodeRefNtNtB8_6marker5DyingpppENtB1p_2KVE12drop_key_valINtB2_7DropperTINtNtBa_3set8BTreeSetNtNtBe_6string6StringEINtNtCsc29TF2YcYso_3syn10punctuated10PunctuatedNtCshnvkK9b4wzu_11proc_macro211TokenStreamNtNtB3a_5token4PlusEEENtNtNtCsaNl6UpbT7bw_4core3ops4drop4Drop4dropCsfWotccrMQ3I_14thiserror_impl, symObjAddr: 0x13C74, symBinAddr: 0x148CC, symSize: 0x2C }
  - { offset: 0x1D7B2, size: 0x8, addend: 0x0, symName: __RINvMNtNtNtCsiTraAjBDcu4_5alloc11collections5btree4nodeINtB3_8LeafNodeNtNtB9_6string6StringNtNtB5_7set_val9SetValZSTE3newNtNtB9_5alloc6GlobalECsfWotccrMQ3I_14thiserror_impl, symObjAddr: 0x0, symBinAddr: 0xC58, symSize: 0x70 }
  - { offset: 0x1DBB7, size: 0x8, addend: 0x0, symName: __RINvMNtNtNtCsiTraAjBDcu4_5alloc11collections5btree4nodeINtB3_8LeafNodeNtNtB9_6string6StringTINtNtB5_3set8BTreeSetB16_EINtNtCsc29TF2YcYso_3syn10punctuated10PunctuatedNtCshnvkK9b4wzu_11proc_macro211TokenStreamNtNtB1X_5token4PlusEEE3newNtNtB9_5alloc6GlobalECsfWotccrMQ3I_14thiserror_impl, symObjAddr: 0x70, symBinAddr: 0xCC8, symSize: 0x70 }
  - { offset: 0x1DE70, size: 0x8, addend: 0x0, symName: __RINvMNtNtNtCsiTraAjBDcu4_5alloc11collections5btree4nodeINtB3_8LeafNodeNtNtCsfWotccrMQ3I_14thiserror_impl5unraw10IdentUnrawNtNtB5_7set_val9SetValZSTE3newNtNtB9_5alloc6GlobalEB1a_, symObjAddr: 0xE0, symBinAddr: 0xD38, symSize: 0x70 }
  - { offset: 0x1E136, size: 0x8, addend: 0x0, symName: __RINvMNtNtNtCsiTraAjBDcu4_5alloc11collections5btree4nodeINtB3_8LeafNodeRNtCshnvkK9b4wzu_11proc_macro25IdentNtNtB5_7set_val9SetValZSTE3newNtNtB9_5alloc6GlobalECsfWotccrMQ3I_14thiserror_impl, symObjAddr: 0x150, symBinAddr: 0xDA8, symSize: 0x70 }
  - { offset: 0x1E40D, size: 0x8, addend: 0x0, symName: __RINvMNtNtNtCsiTraAjBDcu4_5alloc11collections5btree4nodeINtB3_8LeafNodeTjNtNtCsfWotccrMQ3I_14thiserror_impl4attr5TraitENtNtB5_7set_val9SetValZSTE3newNtNtB9_5alloc6GlobalEB1c_, symObjAddr: 0x1C0, symBinAddr: 0xE18, symSize: 0x70 }
  - { offset: 0x1E956, size: 0x8, addend: 0x0, symName: __RINvMNtNtNtCsiTraAjBDcu4_5alloc11collections5btree6appendINtNtB5_4node7NodeRefNtNtBW_6marker5OwnedRNtCshnvkK9b4wzu_11proc_macro25IdentNtNtB5_7set_val9SetValZSTNtB1g_14LeafOrInternalE9bulk_pushINtNtB5_17dedup_sorted_iter15DedupSortedIterB1y_B28_INtNtNtNtCsaNl6UpbT7bw_4core4iter8adapters3map3MapINtNtNtB9_3vec9into_iter8IntoIterB1y_ENCINvMse_NtB5_3setINtB5t_8BTreeSetB1y_E16from_sorted_iterB4I_E0EENtNtB9_5alloc6GlobalECsfWotccrMQ3I_14thiserror_impl, symObjAddr: 0x230, symBinAddr: 0xE88, symSize: 0x4D8 }
  - { offset: 0x1EF28, size: 0x8, addend: 0x0, symName: __RINvMs0_NtNtNtCsiTraAjBDcu4_5alloc11collections5btree6searchINtNtB8_4node7NodeRefNtNtBZ_6marker3MutNtNtBc_6string6StringNtNtB8_7set_val9SetValZSTNtB1j_14LeafOrInternalE14find_key_indexB1z_ECsfWotccrMQ3I_14thiserror_impl, symObjAddr: 0x708, symBinAddr: 0x1360, symSize: 0x1EC }
  - { offset: 0x1F346, size: 0x8, addend: 0x0, symName: __RINvMs0_NtNtNtCsiTraAjBDcu4_5alloc11collections5btree6searchINtNtB8_4node7NodeRefNtNtBZ_6marker3MutNtNtBc_6string6StringTINtNtB8_3set8BTreeSetB1z_EINtNtCsc29TF2YcYso_3syn10punctuated10PunctuatedNtCshnvkK9b4wzu_11proc_macro211TokenStreamNtNtB2q_5token4PlusEENtB1j_14LeafOrInternalE14find_key_indexB1z_ECsfWotccrMQ3I_14thiserror_impl, symObjAddr: 0x8F4, symBinAddr: 0x154C, symSize: 0x1EC }
  - { offset: 0x1F7D0, size: 0x8, addend: 0x0, symName: __RINvMs0_NtNtNtCsiTraAjBDcu4_5alloc11collections5btree6searchINtNtB8_4node7NodeRefNtNtBZ_6marker3MutNtNtCsfWotccrMQ3I_14thiserror_impl5unraw10IdentUnrawNtNtB8_7set_val9SetValZSTNtB1j_14LeafOrInternalE14find_key_indexB1z_EB1D_, symObjAddr: 0xAE0, symBinAddr: 0x1738, symSize: 0x1EC }
  - { offset: 0x1FC5A, size: 0x8, addend: 0x0, symName: __RINvMs0_NtNtNtCsiTraAjBDcu4_5alloc11collections5btree6searchINtNtB8_4node7NodeRefNtNtBZ_6marker3MutTjNtNtCsfWotccrMQ3I_14thiserror_impl4attr5TraitENtNtB8_7set_val9SetValZSTNtB1j_14LeafOrInternalE14find_key_indexB1z_EB1F_, symObjAddr: 0xCCC, symBinAddr: 0x1924, symSize: 0x1DC }
  - { offset: 0x20078, size: 0x8, addend: 0x0, symName: __RINvMs0_NtNtNtCsiTraAjBDcu4_5alloc11collections5btree6searchINtNtB8_4node7NodeRefNtNtBZ_6marker5ImmutNtNtBc_6string6StringTINtNtB8_3set8BTreeSetB1B_EINtNtCsc29TF2YcYso_3syn10punctuated10PunctuatedNtCshnvkK9b4wzu_11proc_macro211TokenStreamNtNtB2s_5token4PlusEENtB1j_14LeafOrInternalE14find_key_indexB1B_ECsfWotccrMQ3I_14thiserror_impl, symObjAddr: 0xEA8, symBinAddr: 0x1B00, symSize: 0x1EC }
  - { offset: 0x20496, size: 0x8, addend: 0x0, symName: __RINvMs0_NtNtNtCsiTraAjBDcu4_5alloc11collections5btree6searchINtNtB8_4node7NodeRefNtNtBZ_6marker5ImmutNtNtCsfWotccrMQ3I_14thiserror_impl5unraw10IdentUnrawNtNtB8_7set_val9SetValZSTNtB1j_14LeafOrInternalE14find_key_indexB1B_EB1F_, symObjAddr: 0x1094, symBinAddr: 0x1CEC, symSize: 0x1EC }
  - { offset: 0x20913, size: 0x8, addend: 0x0, symName: __RINvMs0_NtNtNtCsiTraAjBDcu4_5alloc11collections5btree6searchINtNtB8_4node7NodeRefNtNtBZ_6marker5ImmutRNtCshnvkK9b4wzu_11proc_macro25IdentNtNtB8_7set_val9SetValZSTNtB1j_14LeafOrInternalE14find_key_indexB1C_ECsfWotccrMQ3I_14thiserror_impl, symObjAddr: 0x1280, symBinAddr: 0x1ED8, symSize: 0x1DC }
  - { offset: 0x20C75, size: 0x8, addend: 0x0, symName: __RINvMs8_NtNtNtCsiTraAjBDcu4_5alloc11collections5btree4nodeINtB6_7NodeRefNtNtB6_6marker5OwnedNtNtBc_6string6StringNtNtB8_7set_val9SetValZSTNtB1a_4LeafE8new_leafNtNtBc_5alloc6GlobalECsfWotccrMQ3I_14thiserror_impl, symObjAddr: 0x145C, symBinAddr: 0x20B4, symSize: 0x38 }
  - { offset: 0x20D44, size: 0x8, addend: 0x0, symName: __RINvMs8_NtNtNtCsiTraAjBDcu4_5alloc11collections5btree4nodeINtB6_7NodeRefNtNtB6_6marker5OwnedNtNtBc_6string6StringTINtNtB8_3set8BTreeSetB1s_EINtNtCsc29TF2YcYso_3syn10punctuated10PunctuatedNtCshnvkK9b4wzu_11proc_macro211TokenStreamNtNtB2j_5token4PlusEENtB1a_4LeafE8new_leafNtNtBc_5alloc6GlobalECsfWotccrMQ3I_14thiserror_impl, symObjAddr: 0x1494, symBinAddr: 0x20EC, symSize: 0x38 }
  - { offset: 0x20E13, size: 0x8, addend: 0x0, symName: __RINvMs8_NtNtNtCsiTraAjBDcu4_5alloc11collections5btree4nodeINtB6_7NodeRefNtNtB6_6marker5OwnedNtNtCsfWotccrMQ3I_14thiserror_impl5unraw10IdentUnrawNtNtB8_7set_val9SetValZSTNtB1a_4LeafE8new_leafNtNtBc_5alloc6GlobalEB1w_, symObjAddr: 0x14CC, symBinAddr: 0x2124, symSize: 0x38 }
  - { offset: 0x20EE2, size: 0x8, addend: 0x0, symName: __RINvMs8_NtNtNtCsiTraAjBDcu4_5alloc11collections5btree4nodeINtB6_7NodeRefNtNtB6_6marker5OwnedRNtCshnvkK9b4wzu_11proc_macro25IdentNtNtB8_7set_val9SetValZSTNtB1a_4LeafE8new_leafNtNtBc_5alloc6GlobalECsfWotccrMQ3I_14thiserror_impl, symObjAddr: 0x1504, symBinAddr: 0x215C, symSize: 0x38 }
  - { offset: 0x20FB1, size: 0x8, addend: 0x0, symName: __RINvMs8_NtNtNtCsiTraAjBDcu4_5alloc11collections5btree4nodeINtB6_7NodeRefNtNtB6_6marker5OwnedTjNtNtCsfWotccrMQ3I_14thiserror_impl4attr5TraitENtNtB8_7set_val9SetValZSTNtB1a_4LeafE8new_leafNtNtBc_5alloc6GlobalEB1y_, symObjAddr: 0x153C, symBinAddr: 0x2194, symSize: 0x38 }
  - { offset: 0x210C2, size: 0x8, addend: 0x0, symName: __RINvMs9_NtNtNtCsiTraAjBDcu4_5alloc11collections5btree4nodeINtB6_7NodeRefNtNtB6_6marker5OwnedNtNtBc_6string6StringNtNtB8_7set_val9SetValZSTNtB1a_8InternalE12new_internalNtNtBc_5alloc6GlobalECsfWotccrMQ3I_14thiserror_impl, symObjAddr: 0x1574, symBinAddr: 0x21CC, symSize: 0x98 }
  - { offset: 0x212F5, size: 0x8, addend: 0x0, symName: __RINvMs9_NtNtNtCsiTraAjBDcu4_5alloc11collections5btree4nodeINtB6_7NodeRefNtNtB6_6marker5OwnedNtNtBc_6string6StringNtNtB8_7set_val9SetValZSTNtB1a_8InternalE17from_new_internalNtNtBc_5alloc6GlobalECsfWotccrMQ3I_14thiserror_impl, symObjAddr: 0x160C, symBinAddr: 0x2264, symSize: 0xC0 }
  - { offset: 0x2150E, size: 0x8, addend: 0x0, symName: __RINvMs9_NtNtNtCsiTraAjBDcu4_5alloc11collections5btree4nodeINtB6_7NodeRefNtNtB6_6marker5OwnedNtNtBc_6string6StringTINtNtB8_3set8BTreeSetB1s_EINtNtCsc29TF2YcYso_3syn10punctuated10PunctuatedNtCshnvkK9b4wzu_11proc_macro211TokenStreamNtNtB2j_5token4PlusEENtB1a_8InternalE12new_internalNtNtBc_5alloc6GlobalECsfWotccrMQ3I_14thiserror_impl, symObjAddr: 0x16CC, symBinAddr: 0x2324, symSize: 0x98 }
  - { offset: 0x21741, size: 0x8, addend: 0x0, symName: __RINvMs9_NtNtNtCsiTraAjBDcu4_5alloc11collections5btree4nodeINtB6_7NodeRefNtNtB6_6marker5OwnedNtNtBc_6string6StringTINtNtB8_3set8BTreeSetB1s_EINtNtCsc29TF2YcYso_3syn10punctuated10PunctuatedNtCshnvkK9b4wzu_11proc_macro211TokenStreamNtNtB2j_5token4PlusEENtB1a_8InternalE17from_new_internalNtNtBc_5alloc6GlobalECsfWotccrMQ3I_14thiserror_impl, symObjAddr: 0x1764, symBinAddr: 0x23BC, symSize: 0xC0 }
  - { offset: 0x2195A, size: 0x8, addend: 0x0, symName: __RINvMs9_NtNtNtCsiTraAjBDcu4_5alloc11collections5btree4nodeINtB6_7NodeRefNtNtB6_6marker5OwnedNtNtCsfWotccrMQ3I_14thiserror_impl5unraw10IdentUnrawNtNtB8_7set_val9SetValZSTNtB1a_8InternalE12new_internalNtNtBc_5alloc6GlobalEB1w_, symObjAddr: 0x1824, symBinAddr: 0x247C, symSize: 0x98 }
  - { offset: 0x21B8D, size: 0x8, addend: 0x0, symName: __RINvMs9_NtNtNtCsiTraAjBDcu4_5alloc11collections5btree4nodeINtB6_7NodeRefNtNtB6_6marker5OwnedNtNtCsfWotccrMQ3I_14thiserror_impl5unraw10IdentUnrawNtNtB8_7set_val9SetValZSTNtB1a_8InternalE17from_new_internalNtNtBc_5alloc6GlobalEB1w_, symObjAddr: 0x18BC, symBinAddr: 0x2514, symSize: 0xC0 }
  - { offset: 0x21DA6, size: 0x8, addend: 0x0, symName: __RINvMs9_NtNtNtCsiTraAjBDcu4_5alloc11collections5btree4nodeINtB6_7NodeRefNtNtB6_6marker5OwnedRNtCshnvkK9b4wzu_11proc_macro25IdentNtNtB8_7set_val9SetValZSTNtB1a_8InternalE12new_internalNtNtBc_5alloc6GlobalECsfWotccrMQ3I_14thiserror_impl, symObjAddr: 0x197C, symBinAddr: 0x25D4, symSize: 0x98 }
  - { offset: 0x21FCC, size: 0x8, addend: 0x0, symName: __RINvMs9_NtNtNtCsiTraAjBDcu4_5alloc11collections5btree4nodeINtB6_7NodeRefNtNtB6_6marker5OwnedRNtCshnvkK9b4wzu_11proc_macro25IdentNtNtB8_7set_val9SetValZSTNtB1a_8InternalE17from_new_internalNtNtBc_5alloc6GlobalECsfWotccrMQ3I_14thiserror_impl, symObjAddr: 0x1A14, symBinAddr: 0x266C, symSize: 0xC0 }
  - { offset: 0x221E5, size: 0x8, addend: 0x0, symName: __RINvMs9_NtNtNtCsiTraAjBDcu4_5alloc11collections5btree4nodeINtB6_7NodeRefNtNtB6_6marker5OwnedTjNtNtCsfWotccrMQ3I_14thiserror_impl4attr5TraitENtNtB8_7set_val9SetValZSTNtB1a_8InternalE12new_internalNtNtBc_5alloc6GlobalEB1y_, symObjAddr: 0x1AD4, symBinAddr: 0x272C, symSize: 0x98 }
  - { offset: 0x22418, size: 0x8, addend: 0x0, symName: __RINvMs9_NtNtNtCsiTraAjBDcu4_5alloc11collections5btree4nodeINtB6_7NodeRefNtNtB6_6marker5OwnedTjNtNtCsfWotccrMQ3I_14thiserror_impl4attr5TraitENtNtB8_7set_val9SetValZSTNtB1a_8InternalE17from_new_internalNtNtBc_5alloc6GlobalEB1y_, symObjAddr: 0x1B6C, symBinAddr: 0x27C4, symSize: 0xC0 }
  - { offset: 0x2280A, size: 0x8, addend: 0x0, symName: __RINvMsK_NtNtNtCsiTraAjBDcu4_5alloc11collections5btree4nodeINtB6_6HandleINtB6_7NodeRefNtNtB6_6marker3MutNtNtBc_6string6StringNtNtB8_7set_val9SetValZSTNtB1n_4LeafENtB1n_4EdgeE6insertNtNtBc_5alloc6GlobalECsfWotccrMQ3I_14thiserror_impl, symObjAddr: 0x1C2C, symBinAddr: 0x2884, symSize: 0x50C }
  - { offset: 0x22CE5, size: 0x8, addend: 0x0, symName: __RINvMsK_NtNtNtCsiTraAjBDcu4_5alloc11collections5btree4nodeINtB6_6HandleINtB6_7NodeRefNtNtB6_6marker3MutNtNtBc_6string6StringTINtNtB8_3set8BTreeSetB1D_EINtNtCsc29TF2YcYso_3syn10punctuated10PunctuatedNtCshnvkK9b4wzu_11proc_macro211TokenStreamNtNtB2u_5token4PlusEENtB1n_4LeafENtB1n_4EdgeE6insertNtNtBc_5alloc6GlobalECsfWotccrMQ3I_14thiserror_impl, symObjAddr: 0x2138, symBinAddr: 0x2D90, symSize: 0x570 }
  - { offset: 0x231C0, size: 0x8, addend: 0x0, symName: __RINvMsK_NtNtNtCsiTraAjBDcu4_5alloc11collections5btree4nodeINtB6_6HandleINtB6_7NodeRefNtNtB6_6marker3MutNtNtCsfWotccrMQ3I_14thiserror_impl5unraw10IdentUnrawNtNtB8_7set_val9SetValZSTNtB1n_4LeafENtB1n_4EdgeE6insertNtNtBc_5alloc6GlobalEB1H_, symObjAddr: 0x26A8, symBinAddr: 0x3300, symSize: 0x508 }
  - { offset: 0x2369B, size: 0x8, addend: 0x0, symName: __RINvMsK_NtNtNtCsiTraAjBDcu4_5alloc11collections5btree4nodeINtB6_6HandleINtB6_7NodeRefNtNtB6_6marker3MutTjNtNtCsfWotccrMQ3I_14thiserror_impl4attr5TraitENtNtB8_7set_val9SetValZSTNtB1n_4LeafENtB1n_4EdgeE6insertNtNtBc_5alloc6GlobalEB1J_, symObjAddr: 0x2BB0, symBinAddr: 0x3808, symSize: 0x4CC }
  - { offset: 0x23AAD, size: 0x8, addend: 0x0, symName: __RINvMsM_NtNtNtCsiTraAjBDcu4_5alloc11collections5btree4nodeINtB6_6HandleINtB6_7NodeRefNtNtB6_6marker3MutNtNtBc_6string6StringNtNtB8_7set_val9SetValZSTNtB1n_8InternalENtB1n_4EdgeE6insertNtNtBc_5alloc6GlobalECsfWotccrMQ3I_14thiserror_impl, symObjAddr: 0x307C, symBinAddr: 0x3CD4, symSize: 0x4F8 }
  - { offset: 0x23E25, size: 0x8, addend: 0x0, symName: __RINvMsM_NtNtNtCsiTraAjBDcu4_5alloc11collections5btree4nodeINtB6_6HandleINtB6_7NodeRefNtNtB6_6marker3MutNtNtBc_6string6StringTINtNtB8_3set8BTreeSetB1D_EINtNtCsc29TF2YcYso_3syn10punctuated10PunctuatedNtCshnvkK9b4wzu_11proc_macro211TokenStreamNtNtB2u_5token4PlusEENtB1n_8InternalENtB1n_4EdgeE6insertNtNtBc_5alloc6GlobalECsfWotccrMQ3I_14thiserror_impl, symObjAddr: 0x3574, symBinAddr: 0x41CC, symSize: 0x570 }
  - { offset: 0x2419D, size: 0x8, addend: 0x0, symName: __RINvMsM_NtNtNtCsiTraAjBDcu4_5alloc11collections5btree4nodeINtB6_6HandleINtB6_7NodeRefNtNtB6_6marker3MutNtNtCsfWotccrMQ3I_14thiserror_impl5unraw10IdentUnrawNtNtB8_7set_val9SetValZSTNtB1n_8InternalENtB1n_4EdgeE6insertNtNtBc_5alloc6GlobalEB1H_, symObjAddr: 0x3AE4, symBinAddr: 0x473C, symSize: 0x4F4 }
  - { offset: 0x24515, size: 0x8, addend: 0x0, symName: __RINvMsM_NtNtNtCsiTraAjBDcu4_5alloc11collections5btree4nodeINtB6_6HandleINtB6_7NodeRefNtNtB6_6marker3MutTjNtNtCsfWotccrMQ3I_14thiserror_impl4attr5TraitENtNtB8_7set_val9SetValZSTNtB1n_8InternalENtB1n_4EdgeE6insertNtNtBc_5alloc6GlobalEB1J_, symObjAddr: 0x3FD8, symBinAddr: 0x4C30, symSize: 0x4DC }
  - { offset: 0x247F5, size: 0x8, addend: 0x0, symName: __RINvMsN_NtNtNtCsiTraAjBDcu4_5alloc11collections5btree4nodeINtB6_6HandleINtB6_7NodeRefNtNtB6_6marker3MutNtNtBc_6string6StringNtNtB8_7set_val9SetValZSTNtB1n_4LeafENtB1n_4EdgeE16insert_recursingNtNtBc_5alloc6GlobalNCNvMs6_NtNtB8_3map5entryINtB3v_11VacantEntryB1D_B1Y_E12insert_entry0ECsfWotccrMQ3I_14thiserror_impl, symObjAddr: 0x44B4, symBinAddr: 0x510C, symSize: 0x488 }
  - { offset: 0x24B2B, size: 0x8, addend: 0x0, symName: __RINvMsN_NtNtNtCsiTraAjBDcu4_5alloc11collections5btree4nodeINtB6_6HandleINtB6_7NodeRefNtNtB6_6marker3MutNtNtBc_6string6StringTINtNtB8_3set8BTreeSetB1D_EINtNtCsc29TF2YcYso_3syn10punctuated10PunctuatedNtCshnvkK9b4wzu_11proc_macro211TokenStreamNtNtB2u_5token4PlusEENtB1n_4LeafENtB1n_4EdgeE16insert_recursingNtNtBc_5alloc6GlobalNCNvMs6_NtNtB8_3map5entryINtB5j_11VacantEntryB1D_B1Y_E12insert_entry0ECsfWotccrMQ3I_14thiserror_impl, symObjAddr: 0x493C, symBinAddr: 0x5594, symSize: 0x560 }
  - { offset: 0x24E61, size: 0x8, addend: 0x0, symName: __RINvMsN_NtNtNtCsiTraAjBDcu4_5alloc11collections5btree4nodeINtB6_6HandleINtB6_7NodeRefNtNtB6_6marker3MutNtNtCsfWotccrMQ3I_14thiserror_impl5unraw10IdentUnrawNtNtB8_7set_val9SetValZSTNtB1n_4LeafENtB1n_4EdgeE16insert_recursingNtNtBc_5alloc6GlobalNCNvMs6_NtNtB8_3map5entryINtB40_11VacantEntryB1D_B2t_E12insert_entry0EB1H_, symObjAddr: 0x4E9C, symBinAddr: 0x5AF4, symSize: 0x480 }
  - { offset: 0x25197, size: 0x8, addend: 0x0, symName: __RINvMsN_NtNtNtCsiTraAjBDcu4_5alloc11collections5btree4nodeINtB6_6HandleINtB6_7NodeRefNtNtB6_6marker3MutTjNtNtCsfWotccrMQ3I_14thiserror_impl4attr5TraitENtNtB8_7set_val9SetValZSTNtB1n_4LeafENtB1n_4EdgeE16insert_recursingNtNtBc_5alloc6GlobalNCNvMs6_NtNtB8_3map5entryINtB3W_11VacantEntryB1D_B2p_E12insert_entry0EB1J_, symObjAddr: 0x531C, symBinAddr: 0x5F74, symSize: 0x43C }
  - { offset: 0x25445, size: 0x8, addend: 0x0, symName: __RINvMsV_NtNtNtCsiTraAjBDcu4_5alloc11collections5btree4nodeINtB6_6HandleINtB6_7NodeRefNtNtB6_6marker3MutNtNtBc_6string6StringNtNtB8_7set_val9SetValZSTNtB1n_4LeafENtB1n_2KVE5splitNtNtBc_5alloc6GlobalECsfWotccrMQ3I_14thiserror_impl, symObjAddr: 0x5758, symBinAddr: 0x63B0, symSize: 0xE0 }
  - { offset: 0x2556C, size: 0x8, addend: 0x0, symName: __RINvMsV_NtNtNtCsiTraAjBDcu4_5alloc11collections5btree4nodeINtB6_6HandleINtB6_7NodeRefNtNtB6_6marker3MutNtNtBc_6string6StringTINtNtB8_3set8BTreeSetB1D_EINtNtCsc29TF2YcYso_3syn10punctuated10PunctuatedNtCshnvkK9b4wzu_11proc_macro211TokenStreamNtNtB2u_5token4PlusEENtB1n_4LeafENtB1n_2KVE5splitNtNtBc_5alloc6GlobalECsfWotccrMQ3I_14thiserror_impl, symObjAddr: 0x5838, symBinAddr: 0x6490, symSize: 0x108 }
  - { offset: 0x25696, size: 0x8, addend: 0x0, symName: __RINvMsV_NtNtNtCsiTraAjBDcu4_5alloc11collections5btree4nodeINtB6_6HandleINtB6_7NodeRefNtNtB6_6marker3MutNtNtCsfWotccrMQ3I_14thiserror_impl5unraw10IdentUnrawNtNtB8_7set_val9SetValZSTNtB1n_4LeafENtB1n_2KVE5splitNtNtBc_5alloc6GlobalEB1H_, symObjAddr: 0x5940, symBinAddr: 0x6598, symSize: 0xE0 }
  - { offset: 0x257BD, size: 0x8, addend: 0x0, symName: __RINvMsV_NtNtNtCsiTraAjBDcu4_5alloc11collections5btree4nodeINtB6_6HandleINtB6_7NodeRefNtNtB6_6marker3MutTjNtNtCsfWotccrMQ3I_14thiserror_impl4attr5TraitENtNtB8_7set_val9SetValZSTNtB1n_4LeafENtB1n_2KVE5splitNtNtBc_5alloc6GlobalEB1J_, symObjAddr: 0x5A20, symBinAddr: 0x6678, symSize: 0xE4 }
  - { offset: 0x25A0D, size: 0x8, addend: 0x0, symName: __RINvMsW_NtNtNtCsiTraAjBDcu4_5alloc11collections5btree4nodeINtB6_6HandleINtB6_7NodeRefNtNtB6_6marker3MutNtNtBc_6string6StringNtNtB8_7set_val9SetValZSTNtB1n_8InternalENtB1n_2KVE5splitNtNtBc_5alloc6GlobalECsfWotccrMQ3I_14thiserror_impl, symObjAddr: 0x5B04, symBinAddr: 0x675C, symSize: 0x248 }
  - { offset: 0x25E61, size: 0x8, addend: 0x0, symName: __RINvMsW_NtNtNtCsiTraAjBDcu4_5alloc11collections5btree4nodeINtB6_6HandleINtB6_7NodeRefNtNtB6_6marker3MutNtNtBc_6string6StringTINtNtB8_3set8BTreeSetB1D_EINtNtCsc29TF2YcYso_3syn10punctuated10PunctuatedNtCshnvkK9b4wzu_11proc_macro211TokenStreamNtNtB2u_5token4PlusEENtB1n_8InternalENtB1n_2KVE5splitNtNtBc_5alloc6GlobalECsfWotccrMQ3I_14thiserror_impl, symObjAddr: 0x5D4C, symBinAddr: 0x69A4, symSize: 0x268 }
  - { offset: 0x262B5, size: 0x8, addend: 0x0, symName: __RINvMsW_NtNtNtCsiTraAjBDcu4_5alloc11collections5btree4nodeINtB6_6HandleINtB6_7NodeRefNtNtB6_6marker3MutNtNtCsfWotccrMQ3I_14thiserror_impl5unraw10IdentUnrawNtNtB8_7set_val9SetValZSTNtB1n_8InternalENtB1n_2KVE5splitNtNtBc_5alloc6GlobalEB1H_, symObjAddr: 0x5FB4, symBinAddr: 0x6C0C, symSize: 0x248 }
  - { offset: 0x26709, size: 0x8, addend: 0x0, symName: __RINvMsW_NtNtNtCsiTraAjBDcu4_5alloc11collections5btree4nodeINtB6_6HandleINtB6_7NodeRefNtNtB6_6marker3MutTjNtNtCsfWotccrMQ3I_14thiserror_impl4attr5TraitENtNtB8_7set_val9SetValZSTNtB1n_8InternalENtB1n_2KVE5splitNtNtBc_5alloc6GlobalEB1J_, symObjAddr: 0x61FC, symBinAddr: 0x6E54, symSize: 0x244 }
  - { offset: 0x26A98, size: 0x8, addend: 0x0, symName: __RINvMs_NtNtNtCsiTraAjBDcu4_5alloc11collections5btree4nodeINtB5_12InternalNodeNtNtBb_6string6StringNtNtB7_7set_val9SetValZSTE3newNtNtBb_5alloc6GlobalECsfWotccrMQ3I_14thiserror_impl, symObjAddr: 0x6440, symBinAddr: 0x7098, symSize: 0x70 }
  - { offset: 0x26CB0, size: 0x8, addend: 0x0, symName: __RINvMs_NtNtNtCsiTraAjBDcu4_5alloc11collections5btree4nodeINtB5_12InternalNodeNtNtBb_6string6StringTINtNtB7_3set8BTreeSetB1d_EINtNtCsc29TF2YcYso_3syn10punctuated10PunctuatedNtCshnvkK9b4wzu_11proc_macro211TokenStreamNtNtB24_5token4PlusEEE3newNtNtBb_5alloc6GlobalECsfWotccrMQ3I_14thiserror_impl, symObjAddr: 0x64B0, symBinAddr: 0x7108, symSize: 0x70 }
  - { offset: 0x26EC8, size: 0x8, addend: 0x0, symName: __RINvMs_NtNtNtCsiTraAjBDcu4_5alloc11collections5btree4nodeINtB5_12InternalNodeNtNtCsfWotccrMQ3I_14thiserror_impl5unraw10IdentUnrawNtNtB7_7set_val9SetValZSTE3newNtNtBb_5alloc6GlobalEB1h_, symObjAddr: 0x6520, symBinAddr: 0x7178, symSize: 0x70 }
  - { offset: 0x270E0, size: 0x8, addend: 0x0, symName: __RINvMs_NtNtNtCsiTraAjBDcu4_5alloc11collections5btree4nodeINtB5_12InternalNodeRNtCshnvkK9b4wzu_11proc_macro25IdentNtNtB7_7set_val9SetValZSTE3newNtNtBb_5alloc6GlobalECsfWotccrMQ3I_14thiserror_impl, symObjAddr: 0x6590, symBinAddr: 0x71E8, symSize: 0x70 }
  - { offset: 0x272F8, size: 0x8, addend: 0x0, symName: __RINvMs_NtNtNtCsiTraAjBDcu4_5alloc11collections5btree4nodeINtB5_12InternalNodeTjNtNtCsfWotccrMQ3I_14thiserror_impl4attr5TraitENtNtB7_7set_val9SetValZSTE3newNtNtBb_5alloc6GlobalEB1j_, symObjAddr: 0x6600, symBinAddr: 0x7258, symSize: 0x70 }
  - { offset: 0x275F1, size: 0x8, addend: 0x0, symName: __RINvMs_NtNtNtCsiTraAjBDcu4_5alloc11collections5btree6searchINtNtB7_4node7NodeRefNtNtBY_6marker3MutNtNtBb_6string6StringNtNtB7_7set_val9SetValZSTNtB1i_14LeafOrInternalE11search_treeB1y_ECsfWotccrMQ3I_14thiserror_impl, symObjAddr: 0x6670, symBinAddr: 0x72C8, symSize: 0x260 }
  - { offset: 0x27946, size: 0x8, addend: 0x0, symName: __RINvMs_NtNtNtCsiTraAjBDcu4_5alloc11collections5btree6searchINtNtB7_4node7NodeRefNtNtBY_6marker3MutNtNtBb_6string6StringTINtNtB7_3set8BTreeSetB1y_EINtNtCsc29TF2YcYso_3syn10punctuated10PunctuatedNtCshnvkK9b4wzu_11proc_macro211TokenStreamNtNtB2p_5token4PlusEENtB1i_14LeafOrInternalE11search_treeB1y_ECsfWotccrMQ3I_14thiserror_impl, symObjAddr: 0x68D0, symBinAddr: 0x7528, symSize: 0x260 }
  - { offset: 0x27C9B, size: 0x8, addend: 0x0, symName: __RINvMs_NtNtNtCsiTraAjBDcu4_5alloc11collections5btree6searchINtNtB7_4node7NodeRefNtNtBY_6marker3MutNtNtCsfWotccrMQ3I_14thiserror_impl5unraw10IdentUnrawNtNtB7_7set_val9SetValZSTNtB1i_14LeafOrInternalE11search_treeB1y_EB1C_, symObjAddr: 0x6B30, symBinAddr: 0x7788, symSize: 0x260 }
  - { offset: 0x27FF0, size: 0x8, addend: 0x0, symName: __RINvMs_NtNtNtCsiTraAjBDcu4_5alloc11collections5btree6searchINtNtB7_4node7NodeRefNtNtBY_6marker3MutTjNtNtCsfWotccrMQ3I_14thiserror_impl4attr5TraitENtNtB7_7set_val9SetValZSTNtB1i_14LeafOrInternalE11search_treeB1y_EB1E_, symObjAddr: 0x6D90, symBinAddr: 0x79E8, symSize: 0x260 }
  - { offset: 0x28381, size: 0x8, addend: 0x0, symName: __RINvMs_NtNtNtCsiTraAjBDcu4_5alloc11collections5btree6searchINtNtB7_4node7NodeRefNtNtBY_6marker5ImmutNtNtBb_6string6StringTINtNtB7_3set8BTreeSetB1A_EINtNtCsc29TF2YcYso_3syn10punctuated10PunctuatedNtCshnvkK9b4wzu_11proc_macro211TokenStreamNtNtB2r_5token4PlusEENtB1i_14LeafOrInternalE11search_treeB1A_ECsfWotccrMQ3I_14thiserror_impl, symObjAddr: 0x6FF0, symBinAddr: 0x7C48, symSize: 0x260 }
  - { offset: 0x286D6, size: 0x8, addend: 0x0, symName: __RINvMs_NtNtNtCsiTraAjBDcu4_5alloc11collections5btree6searchINtNtB7_4node7NodeRefNtNtBY_6marker5ImmutNtNtCsfWotccrMQ3I_14thiserror_impl5unraw10IdentUnrawNtNtB7_7set_val9SetValZSTNtB1i_14LeafOrInternalE11search_treeB1A_EB1E_, symObjAddr: 0x7250, symBinAddr: 0x7EA8, symSize: 0x260 }
  - { offset: 0x28A2B, size: 0x8, addend: 0x0, symName: __RINvMs_NtNtNtCsiTraAjBDcu4_5alloc11collections5btree6searchINtNtB7_4node7NodeRefNtNtBY_6marker5ImmutRNtCshnvkK9b4wzu_11proc_macro25IdentNtNtB7_7set_val9SetValZSTNtB1i_14LeafOrInternalE11search_treeB1B_ECsfWotccrMQ3I_14thiserror_impl, symObjAddr: 0x74B0, symBinAddr: 0x8108, symSize: 0x260 }
  - { offset: 0x28D0C, size: 0x8, addend: 0x0, symName: __RINvMsh_NtNtNtCsiTraAjBDcu4_5alloc11collections5btree4nodeINtB6_7NodeRefNtNtB6_6marker5DyingNtNtBc_6string6StringNtNtB8_7set_val9SetValZSTNtB1a_14LeafOrInternalE21deallocate_and_ascendNtNtBc_5alloc6GlobalECsfWotccrMQ3I_14thiserror_impl, symObjAddr: 0x7710, symBinAddr: 0x8368, symSize: 0x188 }
  - { offset: 0x28F7F, size: 0x8, addend: 0x0, symName: __RINvMsh_NtNtNtCsiTraAjBDcu4_5alloc11collections5btree4nodeINtB6_7NodeRefNtNtB6_6marker5DyingNtNtBc_6string6StringTINtNtB8_3set8BTreeSetB1s_EINtNtCsc29TF2YcYso_3syn10punctuated10PunctuatedNtCshnvkK9b4wzu_11proc_macro211TokenStreamNtNtB2j_5token4PlusEENtB1a_14LeafOrInternalE21deallocate_and_ascendNtNtBc_5alloc6GlobalECsfWotccrMQ3I_14thiserror_impl, symObjAddr: 0x7898, symBinAddr: 0x84F0, symSize: 0x188 }
  - { offset: 0x291F2, size: 0x8, addend: 0x0, symName: __RINvMsh_NtNtNtCsiTraAjBDcu4_5alloc11collections5btree4nodeINtB6_7NodeRefNtNtB6_6marker5DyingNtNtCsfWotccrMQ3I_14thiserror_impl5unraw10IdentUnrawNtNtB8_7set_val9SetValZSTNtB1a_14LeafOrInternalE21deallocate_and_ascendNtNtBc_5alloc6GlobalEB1w_, symObjAddr: 0x7A20, symBinAddr: 0x8678, symSize: 0x188 }
  - { offset: 0x29465, size: 0x8, addend: 0x0, symName: __RINvMsh_NtNtNtCsiTraAjBDcu4_5alloc11collections5btree4nodeINtB6_7NodeRefNtNtB6_6marker5DyingRNtCshnvkK9b4wzu_11proc_macro25IdentNtNtB8_7set_val9SetValZSTNtB1a_14LeafOrInternalE21deallocate_and_ascendNtNtBc_5alloc6GlobalECsfWotccrMQ3I_14thiserror_impl, symObjAddr: 0x7BA8, symBinAddr: 0x8800, symSize: 0x188 }
  - { offset: 0x296D8, size: 0x8, addend: 0x0, symName: __RINvMsh_NtNtNtCsiTraAjBDcu4_5alloc11collections5btree4nodeINtB6_7NodeRefNtNtB6_6marker5DyingTjNtNtCsfWotccrMQ3I_14thiserror_impl4attr5TraitENtNtB8_7set_val9SetValZSTNtB1a_14LeafOrInternalE21deallocate_and_ascendNtNtBc_5alloc6GlobalEB1y_, symObjAddr: 0x7D30, symBinAddr: 0x8988, symSize: 0x188 }
  - { offset: 0x2991E, size: 0x8, addend: 0x0, symName: __RINvMsj_NtNtNtCsiTraAjBDcu4_5alloc11collections5btree8navigateINtNtB8_4node6HandleINtB11_7NodeRefNtNtB11_6marker5DyingNtNtBc_6string6StringNtNtB8_7set_val9SetValZSTNtB1z_4LeafENtB1z_4EdgeE16deallocating_endNtNtBc_5alloc6GlobalECsfWotccrMQ3I_14thiserror_impl, symObjAddr: 0x7EB8, symBinAddr: 0x8B10, symSize: 0xD4 }
  - { offset: 0x29B92, size: 0x8, addend: 0x0, symName: __RINvMsj_NtNtNtCsiTraAjBDcu4_5alloc11collections5btree8navigateINtNtB8_4node6HandleINtB11_7NodeRefNtNtB11_6marker5DyingNtNtBc_6string6StringNtNtB8_7set_val9SetValZSTNtB1z_4LeafENtB1z_4EdgeE17deallocating_nextNtNtBc_5alloc6GlobalECsfWotccrMQ3I_14thiserror_impl, symObjAddr: 0x7F8C, symBinAddr: 0x8BE4, symSize: 0x254 }
  - { offset: 0x29DC6, size: 0x8, addend: 0x0, symName: __RINvMsj_NtNtNtCsiTraAjBDcu4_5alloc11collections5btree8navigateINtNtB8_4node6HandleINtB11_7NodeRefNtNtB11_6marker5DyingNtNtBc_6string6StringTINtNtB8_3set8BTreeSetB1S_EINtNtCsc29TF2YcYso_3syn10punctuated10PunctuatedNtCshnvkK9b4wzu_11proc_macro211TokenStreamNtNtB2J_5token4PlusEENtB1z_4LeafENtB1z_4EdgeE16deallocating_endNtNtBc_5alloc6GlobalECsfWotccrMQ3I_14thiserror_impl, symObjAddr: 0x81E0, symBinAddr: 0x8E38, symSize: 0xD4 }
  - { offset: 0x2A03A, size: 0x8, addend: 0x0, symName: __RINvMsj_NtNtNtCsiTraAjBDcu4_5alloc11collections5btree8navigateINtNtB8_4node6HandleINtB11_7NodeRefNtNtB11_6marker5DyingNtNtBc_6string6StringTINtNtB8_3set8BTreeSetB1S_EINtNtCsc29TF2YcYso_3syn10punctuated10PunctuatedNtCshnvkK9b4wzu_11proc_macro211TokenStreamNtNtB2J_5token4PlusEENtB1z_4LeafENtB1z_4EdgeE17deallocating_nextNtNtBc_5alloc6GlobalECsfWotccrMQ3I_14thiserror_impl, symObjAddr: 0x82B4, symBinAddr: 0x8F0C, symSize: 0x254 }
  - { offset: 0x2A26E, size: 0x8, addend: 0x0, symName: __RINvMsj_NtNtNtCsiTraAjBDcu4_5alloc11collections5btree8navigateINtNtB8_4node6HandleINtB11_7NodeRefNtNtB11_6marker5DyingNtNtCsfWotccrMQ3I_14thiserror_impl5unraw10IdentUnrawNtNtB8_7set_val9SetValZSTNtB1z_4LeafENtB1z_4EdgeE16deallocating_endNtNtBc_5alloc6GlobalEB1W_, symObjAddr: 0x8508, symBinAddr: 0x9160, symSize: 0xD4 }
  - { offset: 0x2A4E2, size: 0x8, addend: 0x0, symName: __RINvMsj_NtNtNtCsiTraAjBDcu4_5alloc11collections5btree8navigateINtNtB8_4node6HandleINtB11_7NodeRefNtNtB11_6marker5DyingNtNtCsfWotccrMQ3I_14thiserror_impl5unraw10IdentUnrawNtNtB8_7set_val9SetValZSTNtB1z_4LeafENtB1z_4EdgeE17deallocating_nextNtNtBc_5alloc6GlobalEB1W_, symObjAddr: 0x85DC, symBinAddr: 0x9234, symSize: 0x254 }
  - { offset: 0x2A716, size: 0x8, addend: 0x0, symName: __RINvMsj_NtNtNtCsiTraAjBDcu4_5alloc11collections5btree8navigateINtNtB8_4node6HandleINtB11_7NodeRefNtNtB11_6marker5DyingRNtCshnvkK9b4wzu_11proc_macro25IdentNtNtB8_7set_val9SetValZSTNtB1z_4LeafENtB1z_4EdgeE16deallocating_endNtNtBc_5alloc6GlobalECsfWotccrMQ3I_14thiserror_impl, symObjAddr: 0x8830, symBinAddr: 0x9488, symSize: 0xD4 }
  - { offset: 0x2A98A, size: 0x8, addend: 0x0, symName: __RINvMsj_NtNtNtCsiTraAjBDcu4_5alloc11collections5btree8navigateINtNtB8_4node6HandleINtB11_7NodeRefNtNtB11_6marker5DyingRNtCshnvkK9b4wzu_11proc_macro25IdentNtNtB8_7set_val9SetValZSTNtB1z_4LeafENtB1z_4EdgeE17deallocating_nextNtNtBc_5alloc6GlobalECsfWotccrMQ3I_14thiserror_impl, symObjAddr: 0x8904, symBinAddr: 0x955C, symSize: 0x254 }
  - { offset: 0x2ABBE, size: 0x8, addend: 0x0, symName: __RINvMsj_NtNtNtCsiTraAjBDcu4_5alloc11collections5btree8navigateINtNtB8_4node6HandleINtB11_7NodeRefNtNtB11_6marker5DyingTjNtNtCsfWotccrMQ3I_14thiserror_impl4attr5TraitENtNtB8_7set_val9SetValZSTNtB1z_4LeafENtB1z_4EdgeE16deallocating_endNtNtBc_5alloc6GlobalEB1Y_, symObjAddr: 0x8B58, symBinAddr: 0x97B0, symSize: 0xD4 }
  - { offset: 0x2AE32, size: 0x8, addend: 0x0, symName: __RINvMsj_NtNtNtCsiTraAjBDcu4_5alloc11collections5btree8navigateINtNtB8_4node6HandleINtB11_7NodeRefNtNtB11_6marker5DyingTjNtNtCsfWotccrMQ3I_14thiserror_impl4attr5TraitENtNtB8_7set_val9SetValZSTNtB1z_4LeafENtB1z_4EdgeE17deallocating_nextNtNtBc_5alloc6GlobalEB1Y_, symObjAddr: 0x8C2C, symBinAddr: 0x9884, symSize: 0x254 }
  - { offset: 0x2B07D, size: 0x8, addend: 0x0, symName: __RINvMsp_NtNtNtCsiTraAjBDcu4_5alloc11collections5btree4nodeINtB6_7NodeRefNtNtB6_6marker3MutNtNtBc_6string6StringNtNtB8_7set_val9SetValZSTNtB1a_8InternalE30correct_childrens_parent_linksINtNtNtCsaNl6UpbT7bw_4core3ops5range14RangeInclusivejEECsfWotccrMQ3I_14thiserror_impl, symObjAddr: 0x8E80, symBinAddr: 0x9AD8, symSize: 0xB4 }
  - { offset: 0x2B1B4, size: 0x8, addend: 0x0, symName: __RINvMsp_NtNtNtCsiTraAjBDcu4_5alloc11collections5btree4nodeINtB6_7NodeRefNtNtB6_6marker3MutNtNtBc_6string6StringNtNtB8_7set_val9SetValZSTNtB1a_8InternalE30correct_childrens_parent_linksINtNtNtCsaNl6UpbT7bw_4core3ops5range5RangejEECsfWotccrMQ3I_14thiserror_impl, symObjAddr: 0x8F34, symBinAddr: 0x9B8C, symSize: 0xB4 }
  - { offset: 0x2B2EA, size: 0x8, addend: 0x0, symName: __RINvMsp_NtNtNtCsiTraAjBDcu4_5alloc11collections5btree4nodeINtB6_7NodeRefNtNtB6_6marker3MutNtNtBc_6string6StringTINtNtB8_3set8BTreeSetB1q_EINtNtCsc29TF2YcYso_3syn10punctuated10PunctuatedNtCshnvkK9b4wzu_11proc_macro211TokenStreamNtNtB2h_5token4PlusEENtB1a_8InternalE30correct_childrens_parent_linksINtNtNtCsaNl6UpbT7bw_4core3ops5range14RangeInclusivejEECsfWotccrMQ3I_14thiserror_impl, symObjAddr: 0x8FE8, symBinAddr: 0x9C40, symSize: 0xB4 }
  - { offset: 0x2B421, size: 0x8, addend: 0x0, symName: __RINvMsp_NtNtNtCsiTraAjBDcu4_5alloc11collections5btree4nodeINtB6_7NodeRefNtNtB6_6marker3MutNtNtBc_6string6StringTINtNtB8_3set8BTreeSetB1q_EINtNtCsc29TF2YcYso_3syn10punctuated10PunctuatedNtCshnvkK9b4wzu_11proc_macro211TokenStreamNtNtB2h_5token4PlusEENtB1a_8InternalE30correct_childrens_parent_linksINtNtNtCsaNl6UpbT7bw_4core3ops5range5RangejEECsfWotccrMQ3I_14thiserror_impl, symObjAddr: 0x909C, symBinAddr: 0x9CF4, symSize: 0xB4 }
  - { offset: 0x2B557, size: 0x8, addend: 0x0, symName: __RINvMsp_NtNtNtCsiTraAjBDcu4_5alloc11collections5btree4nodeINtB6_7NodeRefNtNtB6_6marker3MutNtNtCsfWotccrMQ3I_14thiserror_impl5unraw10IdentUnrawNtNtB8_7set_val9SetValZSTNtB1a_8InternalE30correct_childrens_parent_linksINtNtNtCsaNl6UpbT7bw_4core3ops5range14RangeInclusivejEEB1u_, symObjAddr: 0x9150, symBinAddr: 0x9DA8, symSize: 0xB4 }
  - { offset: 0x2B68E, size: 0x8, addend: 0x0, symName: __RINvMsp_NtNtNtCsiTraAjBDcu4_5alloc11collections5btree4nodeINtB6_7NodeRefNtNtB6_6marker3MutNtNtCsfWotccrMQ3I_14thiserror_impl5unraw10IdentUnrawNtNtB8_7set_val9SetValZSTNtB1a_8InternalE30correct_childrens_parent_linksINtNtNtCsaNl6UpbT7bw_4core3ops5range5RangejEEB1u_, symObjAddr: 0x9204, symBinAddr: 0x9E5C, symSize: 0xB4 }
  - { offset: 0x2B7C4, size: 0x8, addend: 0x0, symName: __RINvMsp_NtNtNtCsiTraAjBDcu4_5alloc11collections5btree4nodeINtB6_7NodeRefNtNtB6_6marker3MutRNtCshnvkK9b4wzu_11proc_macro25IdentNtNtB8_7set_val9SetValZSTNtB1a_8InternalE30correct_childrens_parent_linksINtNtNtCsaNl6UpbT7bw_4core3ops5range14RangeInclusivejEECsfWotccrMQ3I_14thiserror_impl, symObjAddr: 0x92B8, symBinAddr: 0x9F10, symSize: 0xB4 }
  - { offset: 0x2B8FB, size: 0x8, addend: 0x0, symName: __RINvMsp_NtNtNtCsiTraAjBDcu4_5alloc11collections5btree4nodeINtB6_7NodeRefNtNtB6_6marker3MutRNtCshnvkK9b4wzu_11proc_macro25IdentNtNtB8_7set_val9SetValZSTNtB1a_8InternalE30correct_childrens_parent_linksINtNtNtCsaNl6UpbT7bw_4core3ops5range5RangejEECsfWotccrMQ3I_14thiserror_impl, symObjAddr: 0x936C, symBinAddr: 0x9FC4, symSize: 0xB4 }
  - { offset: 0x2BA31, size: 0x8, addend: 0x0, symName: __RINvMsp_NtNtNtCsiTraAjBDcu4_5alloc11collections5btree4nodeINtB6_7NodeRefNtNtB6_6marker3MutTjNtNtCsfWotccrMQ3I_14thiserror_impl4attr5TraitENtNtB8_7set_val9SetValZSTNtB1a_8InternalE30correct_childrens_parent_linksINtNtNtCsaNl6UpbT7bw_4core3ops5range14RangeInclusivejEEB1w_, symObjAddr: 0x9420, symBinAddr: 0xA078, symSize: 0xB4 }
  - { offset: 0x2BB68, size: 0x8, addend: 0x0, symName: __RINvMsp_NtNtNtCsiTraAjBDcu4_5alloc11collections5btree4nodeINtB6_7NodeRefNtNtB6_6marker3MutTjNtNtCsfWotccrMQ3I_14thiserror_impl4attr5TraitENtNtB8_7set_val9SetValZSTNtB1a_8InternalE30correct_childrens_parent_linksINtNtNtCsaNl6UpbT7bw_4core3ops5range5RangejEEB1w_, symObjAddr: 0x94D4, symBinAddr: 0xA12C, symSize: 0xB4 }
  - { offset: 0x2C2FE, size: 0x8, addend: 0x0, symName: __RNvMs0_NtNtNtCsiTraAjBDcu4_5alloc11collections5btree3fixINtNtB7_4node7NodeRefNtNtBV_6marker5OwnedRNtCshnvkK9b4wzu_11proc_macro25IdentNtNtB7_7set_val9SetValZSTNtB1f_14LeafOrInternalE29fix_right_border_of_plentifulCsfWotccrMQ3I_14thiserror_impl, symObjAddr: 0xAAD4, symBinAddr: 0xB72C, symSize: 0x194 }
  - { offset: 0x2CA6C, size: 0x8, addend: 0x0, symName: __RNvMs10_NtNtNtCsiTraAjBDcu4_5alloc11collections5btree4nodeINtB6_16BalancingContextRNtCshnvkK9b4wzu_11proc_macro25IdentNtNtB8_7set_val9SetValZSTE15bulk_steal_leftCsfWotccrMQ3I_14thiserror_impl, symObjAddr: 0xAC68, symBinAddr: 0xB8C0, symSize: 0x968 }
  - { offset: 0x2DE85, size: 0x8, addend: 0x0, symName: __RNvMsJ_NtNtNtCsiTraAjBDcu4_5alloc11collections5btree4nodeINtB5_6HandleINtB5_7NodeRefNtNtB5_6marker3MutNtNtBb_6string6StringNtNtB7_7set_val9SetValZSTNtB1m_4LeafENtB1m_4EdgeE10insert_fitCsfWotccrMQ3I_14thiserror_impl, symObjAddr: 0xB5D0, symBinAddr: 0xC228, symSize: 0x1F4 }
  - { offset: 0x2E3CF, size: 0x8, addend: 0x0, symName: __RNvMsJ_NtNtNtCsiTraAjBDcu4_5alloc11collections5btree4nodeINtB5_6HandleINtB5_7NodeRefNtNtB5_6marker3MutNtNtBb_6string6StringTINtNtB7_3set8BTreeSetB1C_EINtNtCsc29TF2YcYso_3syn10punctuated10PunctuatedNtCshnvkK9b4wzu_11proc_macro211TokenStreamNtNtB2t_5token4PlusEENtB1m_4LeafENtB1m_4EdgeE10insert_fitCsfWotccrMQ3I_14thiserror_impl, symObjAddr: 0xB7C4, symBinAddr: 0xC41C, symSize: 0x22C }
  - { offset: 0x2E919, size: 0x8, addend: 0x0, symName: __RNvMsJ_NtNtNtCsiTraAjBDcu4_5alloc11collections5btree4nodeINtB5_6HandleINtB5_7NodeRefNtNtB5_6marker3MutNtNtCsfWotccrMQ3I_14thiserror_impl5unraw10IdentUnrawNtNtB7_7set_val9SetValZSTNtB1m_4LeafENtB1m_4EdgeE10insert_fitB1G_, symObjAddr: 0xB9F0, symBinAddr: 0xC648, symSize: 0x1F4 }
  - { offset: 0x2EE63, size: 0x8, addend: 0x0, symName: __RNvMsJ_NtNtNtCsiTraAjBDcu4_5alloc11collections5btree4nodeINtB5_6HandleINtB5_7NodeRefNtNtB5_6marker3MutTjNtNtCsfWotccrMQ3I_14thiserror_impl4attr5TraitENtNtB7_7set_val9SetValZSTNtB1m_4LeafENtB1m_4EdgeE10insert_fitB1I_, symObjAddr: 0xBBE4, symBinAddr: 0xC83C, symSize: 0x1F0 }
  - { offset: 0x2F2D2, size: 0x8, addend: 0x0, symName: __RNvMsL_NtNtNtCsiTraAjBDcu4_5alloc11collections5btree4nodeINtB5_6HandleINtB5_7NodeRefNtNtB5_6marker3MutNtNtBb_6string6StringNtNtB7_7set_val9SetValZSTNtB1m_8InternalENtB1m_4EdgeE19correct_parent_linkCsfWotccrMQ3I_14thiserror_impl, symObjAddr: 0xBDD4, symBinAddr: 0xCA2C, symSize: 0xAC }
  - { offset: 0x2F500, size: 0x8, addend: 0x0, symName: __RNvMsL_NtNtNtCsiTraAjBDcu4_5alloc11collections5btree4nodeINtB5_6HandleINtB5_7NodeRefNtNtB5_6marker3MutNtNtBb_6string6StringTINtNtB7_3set8BTreeSetB1C_EINtNtCsc29TF2YcYso_3syn10punctuated10PunctuatedNtCshnvkK9b4wzu_11proc_macro211TokenStreamNtNtB2t_5token4PlusEENtB1m_8InternalENtB1m_4EdgeE19correct_parent_linkCsfWotccrMQ3I_14thiserror_impl, symObjAddr: 0xBE80, symBinAddr: 0xCAD8, symSize: 0xAC }
  - { offset: 0x2F72E, size: 0x8, addend: 0x0, symName: __RNvMsL_NtNtNtCsiTraAjBDcu4_5alloc11collections5btree4nodeINtB5_6HandleINtB5_7NodeRefNtNtB5_6marker3MutNtNtCsfWotccrMQ3I_14thiserror_impl5unraw10IdentUnrawNtNtB7_7set_val9SetValZSTNtB1m_8InternalENtB1m_4EdgeE19correct_parent_linkB1G_, symObjAddr: 0xBF2C, symBinAddr: 0xCB84, symSize: 0xAC }
  - { offset: 0x2F94F, size: 0x8, addend: 0x0, symName: __RNvMsL_NtNtNtCsiTraAjBDcu4_5alloc11collections5btree4nodeINtB5_6HandleINtB5_7NodeRefNtNtB5_6marker3MutRNtCshnvkK9b4wzu_11proc_macro25IdentNtNtB7_7set_val9SetValZSTNtB1m_8InternalENtB1m_4EdgeE19correct_parent_linkCsfWotccrMQ3I_14thiserror_impl, symObjAddr: 0xBFD8, symBinAddr: 0xCC30, symSize: 0xAC }
  - { offset: 0x2FB7D, size: 0x8, addend: 0x0, symName: __RNvMsL_NtNtNtCsiTraAjBDcu4_5alloc11collections5btree4nodeINtB5_6HandleINtB5_7NodeRefNtNtB5_6marker3MutTjNtNtCsfWotccrMQ3I_14thiserror_impl4attr5TraitENtNtB7_7set_val9SetValZSTNtB1m_8InternalENtB1m_4EdgeE19correct_parent_linkB1I_, symObjAddr: 0xC084, symBinAddr: 0xCCDC, symSize: 0xAC }
  - { offset: 0x2FEC9, size: 0x8, addend: 0x0, symName: __RNvMsM_NtNtNtCsiTraAjBDcu4_5alloc11collections5btree4nodeINtB5_6HandleINtB5_7NodeRefNtNtB5_6marker3MutNtNtBb_6string6StringNtNtB7_7set_val9SetValZSTNtB1m_8InternalENtB1m_4EdgeE10insert_fitCsfWotccrMQ3I_14thiserror_impl, symObjAddr: 0xC130, symBinAddr: 0xCD88, symSize: 0x294 }
  - { offset: 0x3054E, size: 0x8, addend: 0x0, symName: __RNvMsM_NtNtNtCsiTraAjBDcu4_5alloc11collections5btree4nodeINtB5_6HandleINtB5_7NodeRefNtNtB5_6marker3MutNtNtBb_6string6StringTINtNtB7_3set8BTreeSetB1C_EINtNtCsc29TF2YcYso_3syn10punctuated10PunctuatedNtCshnvkK9b4wzu_11proc_macro211TokenStreamNtNtB2t_5token4PlusEENtB1m_8InternalENtB1m_4EdgeE10insert_fitCsfWotccrMQ3I_14thiserror_impl, symObjAddr: 0xC3C4, symBinAddr: 0xD01C, symSize: 0x2D0 }
  - { offset: 0x30BD3, size: 0x8, addend: 0x0, symName: __RNvMsM_NtNtNtCsiTraAjBDcu4_5alloc11collections5btree4nodeINtB5_6HandleINtB5_7NodeRefNtNtB5_6marker3MutNtNtCsfWotccrMQ3I_14thiserror_impl5unraw10IdentUnrawNtNtB7_7set_val9SetValZSTNtB1m_8InternalENtB1m_4EdgeE10insert_fitB1G_, symObjAddr: 0xC694, symBinAddr: 0xD2EC, symSize: 0x294 }
  - { offset: 0x31258, size: 0x8, addend: 0x0, symName: __RNvMsM_NtNtNtCsiTraAjBDcu4_5alloc11collections5btree4nodeINtB5_6HandleINtB5_7NodeRefNtNtB5_6marker3MutTjNtNtCsfWotccrMQ3I_14thiserror_impl4attr5TraitENtNtB7_7set_val9SetValZSTNtB1m_8InternalENtB1m_4EdgeE10insert_fitB1I_, symObjAddr: 0xC928, symBinAddr: 0xD580, symSize: 0x274 }
  - { offset: 0x31773, size: 0x8, addend: 0x0, symName: __RNvMsO_NtNtNtCsiTraAjBDcu4_5alloc11collections5btree4nodeINtB5_6HandleINtB5_7NodeRefNtNtB5_6marker3MutNtNtBb_6string6StringNtNtB7_7set_val9SetValZSTNtB1m_8InternalENtB1m_4EdgeE7descendCsfWotccrMQ3I_14thiserror_impl, symObjAddr: 0xCB9C, symBinAddr: 0xD7F4, symSize: 0x9C }
  - { offset: 0x3195E, size: 0x8, addend: 0x0, symName: __RNvMsO_NtNtNtCsiTraAjBDcu4_5alloc11collections5btree4nodeINtB5_6HandleINtB5_7NodeRefNtNtB5_6marker3MutNtNtBb_6string6StringTINtNtB7_3set8BTreeSetB1C_EINtNtCsc29TF2YcYso_3syn10punctuated10PunctuatedNtCshnvkK9b4wzu_11proc_macro211TokenStreamNtNtB2t_5token4PlusEENtB1m_8InternalENtB1m_4EdgeE7descendCsfWotccrMQ3I_14thiserror_impl, symObjAddr: 0xCC38, symBinAddr: 0xD890, symSize: 0x9C }
  - { offset: 0x31B49, size: 0x8, addend: 0x0, symName: __RNvMsO_NtNtNtCsiTraAjBDcu4_5alloc11collections5btree4nodeINtB5_6HandleINtB5_7NodeRefNtNtB5_6marker3MutNtNtCsfWotccrMQ3I_14thiserror_impl5unraw10IdentUnrawNtNtB7_7set_val9SetValZSTNtB1m_8InternalENtB1m_4EdgeE7descendB1G_, symObjAddr: 0xCCD4, symBinAddr: 0xD92C, symSize: 0x9C }
  - { offset: 0x31D34, size: 0x8, addend: 0x0, symName: __RNvMsO_NtNtNtCsiTraAjBDcu4_5alloc11collections5btree4nodeINtB5_6HandleINtB5_7NodeRefNtNtB5_6marker3MutRNtCshnvkK9b4wzu_11proc_macro25IdentNtNtB7_7set_val9SetValZSTNtB1m_8InternalENtB1m_4EdgeE7descendCsfWotccrMQ3I_14thiserror_impl, symObjAddr: 0xCD70, symBinAddr: 0xD9C8, symSize: 0x9C }
  - { offset: 0x31F1F, size: 0x8, addend: 0x0, symName: __RNvMsO_NtNtNtCsiTraAjBDcu4_5alloc11collections5btree4nodeINtB5_6HandleINtB5_7NodeRefNtNtB5_6marker3MutTjNtNtCsfWotccrMQ3I_14thiserror_impl4attr5TraitENtNtB7_7set_val9SetValZSTNtB1m_8InternalENtB1m_4EdgeE7descendB1I_, symObjAddr: 0xCE0C, symBinAddr: 0xDA64, symSize: 0x9C }
  - { offset: 0x320DF, size: 0x8, addend: 0x0, symName: __RNvMsO_NtNtNtCsiTraAjBDcu4_5alloc11collections5btree4nodeINtB5_6HandleINtB5_7NodeRefNtNtB5_6marker5DyingNtNtBb_6string6StringNtNtB7_7set_val9SetValZSTNtB1m_8InternalENtB1m_4EdgeE7descendCsfWotccrMQ3I_14thiserror_impl, symObjAddr: 0xCEA8, symBinAddr: 0xDB00, symSize: 0x9C }
  - { offset: 0x3229F, size: 0x8, addend: 0x0, symName: __RNvMsO_NtNtNtCsiTraAjBDcu4_5alloc11collections5btree4nodeINtB5_6HandleINtB5_7NodeRefNtNtB5_6marker5DyingNtNtBb_6string6StringTINtNtB7_3set8BTreeSetB1E_EINtNtCsc29TF2YcYso_3syn10punctuated10PunctuatedNtCshnvkK9b4wzu_11proc_macro211TokenStreamNtNtB2v_5token4PlusEENtB1m_8InternalENtB1m_4EdgeE7descendCsfWotccrMQ3I_14thiserror_impl, symObjAddr: 0xCF44, symBinAddr: 0xDB9C, symSize: 0x9C }
  - { offset: 0x3245F, size: 0x8, addend: 0x0, symName: __RNvMsO_NtNtNtCsiTraAjBDcu4_5alloc11collections5btree4nodeINtB5_6HandleINtB5_7NodeRefNtNtB5_6marker5DyingNtNtCsfWotccrMQ3I_14thiserror_impl5unraw10IdentUnrawNtNtB7_7set_val9SetValZSTNtB1m_8InternalENtB1m_4EdgeE7descendB1I_, symObjAddr: 0xCFE0, symBinAddr: 0xDC38, symSize: 0x9C }
  - { offset: 0x3261F, size: 0x8, addend: 0x0, symName: __RNvMsO_NtNtNtCsiTraAjBDcu4_5alloc11collections5btree4nodeINtB5_6HandleINtB5_7NodeRefNtNtB5_6marker5DyingRNtCshnvkK9b4wzu_11proc_macro25IdentNtNtB7_7set_val9SetValZSTNtB1m_8InternalENtB1m_4EdgeE7descendCsfWotccrMQ3I_14thiserror_impl, symObjAddr: 0xD07C, symBinAddr: 0xDCD4, symSize: 0x9C }
  - { offset: 0x327DF, size: 0x8, addend: 0x0, symName: __RNvMsO_NtNtNtCsiTraAjBDcu4_5alloc11collections5btree4nodeINtB5_6HandleINtB5_7NodeRefNtNtB5_6marker5DyingTjNtNtCsfWotccrMQ3I_14thiserror_impl4attr5TraitENtNtB7_7set_val9SetValZSTNtB1m_8InternalENtB1m_4EdgeE7descendB1K_, symObjAddr: 0xD118, symBinAddr: 0xDD70, symSize: 0x9C }
  - { offset: 0x3299F, size: 0x8, addend: 0x0, symName: __RNvMsO_NtNtNtCsiTraAjBDcu4_5alloc11collections5btree4nodeINtB5_6HandleINtB5_7NodeRefNtNtB5_6marker5ImmutNtNtBb_6string6StringTINtNtB7_3set8BTreeSetB1E_EINtNtCsc29TF2YcYso_3syn10punctuated10PunctuatedNtCshnvkK9b4wzu_11proc_macro211TokenStreamNtNtB2v_5token4PlusEENtB1m_8InternalENtB1m_4EdgeE7descendCsfWotccrMQ3I_14thiserror_impl, symObjAddr: 0xD1B4, symBinAddr: 0xDE0C, symSize: 0x9C }
  - { offset: 0x32B5F, size: 0x8, addend: 0x0, symName: __RNvMsO_NtNtNtCsiTraAjBDcu4_5alloc11collections5btree4nodeINtB5_6HandleINtB5_7NodeRefNtNtB5_6marker5ImmutNtNtCsfWotccrMQ3I_14thiserror_impl5unraw10IdentUnrawNtNtB7_7set_val9SetValZSTNtB1m_8InternalENtB1m_4EdgeE7descendB1I_, symObjAddr: 0xD250, symBinAddr: 0xDEA8, symSize: 0x9C }
  - { offset: 0x32D1F, size: 0x8, addend: 0x0, symName: __RNvMsO_NtNtNtCsiTraAjBDcu4_5alloc11collections5btree4nodeINtB5_6HandleINtB5_7NodeRefNtNtB5_6marker5ImmutRNtCshnvkK9b4wzu_11proc_macro25IdentNtNtB7_7set_val9SetValZSTNtB1m_8InternalENtB1m_4EdgeE7descendCsfWotccrMQ3I_14thiserror_impl, symObjAddr: 0xD2EC, symBinAddr: 0xDF44, symSize: 0x9C }
  - { offset: 0x32EDF, size: 0x8, addend: 0x0, symName: __RNvMsO_NtNtNtCsiTraAjBDcu4_5alloc11collections5btree4nodeINtB5_6HandleINtB5_7NodeRefNtNtB5_6marker5ImmutTjNtNtCsfWotccrMQ3I_14thiserror_impl4attr5TraitENtNtB7_7set_val9SetValZSTNtB1m_8InternalENtB1m_4EdgeE7descendB1K_, symObjAddr: 0xD388, symBinAddr: 0xDFE0, symSize: 0x9C }
  - { offset: 0x331AD, size: 0x8, addend: 0x0, symName: __RNvMsP_NtNtNtCsiTraAjBDcu4_5alloc11collections5btree4nodeINtB5_6HandleINtB5_7NodeRefNtNtB5_6marker5ImmutNtNtBb_6string6StringTINtNtB7_3set8BTreeSetB1E_EINtNtCsc29TF2YcYso_3syn10punctuated10PunctuatedNtCshnvkK9b4wzu_11proc_macro211TokenStreamNtNtB2v_5token4PlusEENtB1m_14LeafOrInternalENtB1m_2KVE7into_kvCsfWotccrMQ3I_14thiserror_impl, symObjAddr: 0xD424, symBinAddr: 0xE07C, symSize: 0xF4 }
  - { offset: 0x33501, size: 0x8, addend: 0x0, symName: __RNvMsP_NtNtNtCsiTraAjBDcu4_5alloc11collections5btree4nodeINtB5_6HandleINtB5_7NodeRefNtNtB5_6marker5ImmutNtNtCsfWotccrMQ3I_14thiserror_impl5unraw10IdentUnrawNtNtB7_7set_val9SetValZSTNtB1m_14LeafOrInternalENtB1m_2KVE7into_kvB1I_, symObjAddr: 0xD518, symBinAddr: 0xE170, symSize: 0xF4 }
  - { offset: 0x3381D, size: 0x8, addend: 0x0, symName: __RNvMsP_NtNtNtCsiTraAjBDcu4_5alloc11collections5btree4nodeINtB5_6HandleINtB5_7NodeRefNtNtB5_6marker5ImmutRNtCshnvkK9b4wzu_11proc_macro25IdentNtNtB7_7set_val9SetValZSTNtB1m_14LeafOrInternalENtB1m_2KVE7into_kvCsfWotccrMQ3I_14thiserror_impl, symObjAddr: 0xD60C, symBinAddr: 0xE264, symSize: 0xEC }
  - { offset: 0x33B53, size: 0x8, addend: 0x0, symName: __RNvMsP_NtNtNtCsiTraAjBDcu4_5alloc11collections5btree4nodeINtB5_6HandleINtB5_7NodeRefNtNtB5_6marker5ImmutTjNtNtCsfWotccrMQ3I_14thiserror_impl4attr5TraitENtNtB7_7set_val9SetValZSTNtB1m_4LeafENtB1m_2KVE7into_kvB1K_, symObjAddr: 0xD6F8, symBinAddr: 0xE350, symSize: 0xE0 }
  - { offset: 0x33E36, size: 0x8, addend: 0x0, symName: __RNvMsP_NtNtNtCsiTraAjBDcu4_5alloc11collections5btree4nodeINtB5_6HandleINtB5_7NodeRefNtNtB5_6marker5ImmutTjNtNtCsfWotccrMQ3I_14thiserror_impl4attr5TraitENtNtB7_7set_val9SetValZSTNtB1m_8InternalENtB1m_2KVE7into_kvB1K_, symObjAddr: 0xD7D8, symBinAddr: 0xE430, symSize: 0xE0 }
  - { offset: 0x340B6, size: 0x8, addend: 0x0, symName: __RNvMsQ_NtNtNtCsiTraAjBDcu4_5alloc11collections5btree4nodeINtB5_6HandleINtB5_7NodeRefNtNtB5_6marker3MutNtNtBb_6string6StringNtNtB7_7set_val9SetValZSTNtB1m_14LeafOrInternalENtB1m_2KVE12into_val_mutCsfWotccrMQ3I_14thiserror_impl, symObjAddr: 0xD8B8, symBinAddr: 0xE510, symSize: 0x94 }
  - { offset: 0x34215, size: 0x8, addend: 0x0, symName: __RNvMsQ_NtNtNtCsiTraAjBDcu4_5alloc11collections5btree4nodeINtB5_6HandleINtB5_7NodeRefNtNtB5_6marker3MutNtNtBb_6string6StringTINtNtB7_3set8BTreeSetB1C_EINtNtCsc29TF2YcYso_3syn10punctuated10PunctuatedNtCshnvkK9b4wzu_11proc_macro211TokenStreamNtNtB2t_5token4PlusEENtB1m_14LeafOrInternalENtB1m_2KVE12into_val_mutCsfWotccrMQ3I_14thiserror_impl, symObjAddr: 0xD94C, symBinAddr: 0xE5A4, symSize: 0x94 }
  - { offset: 0x34374, size: 0x8, addend: 0x0, symName: __RNvMsQ_NtNtNtCsiTraAjBDcu4_5alloc11collections5btree4nodeINtB5_6HandleINtB5_7NodeRefNtNtB5_6marker3MutNtNtCsfWotccrMQ3I_14thiserror_impl5unraw10IdentUnrawNtNtB7_7set_val9SetValZSTNtB1m_14LeafOrInternalENtB1m_2KVE12into_val_mutB1G_, symObjAddr: 0xD9E0, symBinAddr: 0xE638, symSize: 0x94 }
  - { offset: 0x344D3, size: 0x8, addend: 0x0, symName: __RNvMsQ_NtNtNtCsiTraAjBDcu4_5alloc11collections5btree4nodeINtB5_6HandleINtB5_7NodeRefNtNtB5_6marker3MutRNtCshnvkK9b4wzu_11proc_macro25IdentNtNtB7_7set_val9SetValZSTNtB1m_4LeafENtB1m_2KVE12into_val_mutCsfWotccrMQ3I_14thiserror_impl, symObjAddr: 0xDA74, symBinAddr: 0xE6CC, symSize: 0x94 }
  - { offset: 0x34632, size: 0x8, addend: 0x0, symName: __RNvMsQ_NtNtNtCsiTraAjBDcu4_5alloc11collections5btree4nodeINtB5_6HandleINtB5_7NodeRefNtNtB5_6marker3MutTjNtNtCsfWotccrMQ3I_14thiserror_impl4attr5TraitENtNtB7_7set_val9SetValZSTNtB1m_14LeafOrInternalENtB1m_2KVE12into_val_mutB1I_, symObjAddr: 0xDB08, symBinAddr: 0xE760, symSize: 0x94 }
  - { offset: 0x34791, size: 0x8, addend: 0x0, symName: __RNvMsQ_NtNtNtCsiTraAjBDcu4_5alloc11collections5btree4nodeINtB5_6HandleINtB5_7NodeRefNtNtB5_6marker3MutTjNtNtCsfWotccrMQ3I_14thiserror_impl4attr5TraitENtNtB7_7set_val9SetValZSTNtB1m_4LeafENtB1m_2KVE12into_val_mutB1I_, symObjAddr: 0xDB9C, symBinAddr: 0xE7F4, symSize: 0x94 }
  - { offset: 0x34952, size: 0x8, addend: 0x0, symName: __RNvMsS_NtNtNtCsiTraAjBDcu4_5alloc11collections5btree4nodeINtB5_6HandleINtB5_7NodeRefNtNtB5_6marker3MutNtNtBb_6string6StringNtNtB7_7set_val9SetValZSTNtB1m_14LeafOrInternalENtB1m_2KVE6kv_mutCsfWotccrMQ3I_14thiserror_impl, symObjAddr: 0xDC30, symBinAddr: 0xE888, symSize: 0x10C }
  - { offset: 0x34BDE, size: 0x8, addend: 0x0, symName: __RNvMsS_NtNtNtCsiTraAjBDcu4_5alloc11collections5btree4nodeINtB5_6HandleINtB5_7NodeRefNtNtB5_6marker3MutNtNtCsfWotccrMQ3I_14thiserror_impl5unraw10IdentUnrawNtNtB7_7set_val9SetValZSTNtB1m_14LeafOrInternalENtB1m_2KVE6kv_mutB1G_, symObjAddr: 0xDD3C, symBinAddr: 0xE994, symSize: 0x10C }
  - { offset: 0x34D9F, size: 0x8, addend: 0x0, symName: __RNvMsS_NtNtNtCsiTraAjBDcu4_5alloc11collections5btree4nodeINtB5_6HandleINtB5_7NodeRefNtNtB5_6marker3MutRNtCshnvkK9b4wzu_11proc_macro25IdentNtNtB7_7set_val9SetValZSTNtB1m_8InternalENtB1m_2KVE10replace_kvCsfWotccrMQ3I_14thiserror_impl, symObjAddr: 0xDE48, symBinAddr: 0xEAA0, symSize: 0x78 }
  - { offset: 0x34F1A, size: 0x8, addend: 0x0, symName: __RNvMsS_NtNtNtCsiTraAjBDcu4_5alloc11collections5btree4nodeINtB5_6HandleINtB5_7NodeRefNtNtB5_6marker3MutRNtCshnvkK9b4wzu_11proc_macro25IdentNtNtB7_7set_val9SetValZSTNtB1m_8InternalENtB1m_2KVE6kv_mutCsfWotccrMQ3I_14thiserror_impl, symObjAddr: 0xDEC0, symBinAddr: 0xEB18, symSize: 0x104 }
  - { offset: 0x351A6, size: 0x8, addend: 0x0, symName: __RNvMsS_NtNtNtCsiTraAjBDcu4_5alloc11collections5btree4nodeINtB5_6HandleINtB5_7NodeRefNtNtB5_6marker3MutTjNtNtCsfWotccrMQ3I_14thiserror_impl4attr5TraitENtNtB7_7set_val9SetValZSTNtB1m_14LeafOrInternalENtB1m_2KVE6kv_mutB1I_, symObjAddr: 0xDFC4, symBinAddr: 0xEC1C, symSize: 0xF4 }
  - { offset: 0x35424, size: 0x8, addend: 0x0, symName: __RNvMsT_NtNtNtCsiTraAjBDcu4_5alloc11collections5btree4nodeINtB5_6HandleINtB5_7NodeRefNtNtB5_6marker5DyingNtNtBb_6string6StringNtNtB7_7set_val9SetValZSTNtB1m_14LeafOrInternalENtB1m_2KVE12drop_key_valCsfWotccrMQ3I_14thiserror_impl, symObjAddr: 0xE0B8, symBinAddr: 0xED10, symSize: 0x138 }
  - { offset: 0x356B1, size: 0x8, addend: 0x0, symName: __RNvMsT_NtNtNtCsiTraAjBDcu4_5alloc11collections5btree4nodeINtB5_6HandleINtB5_7NodeRefNtNtB5_6marker5DyingNtNtBb_6string6StringTINtNtB7_3set8BTreeSetB1E_EINtNtCsc29TF2YcYso_3syn10punctuated10PunctuatedNtCshnvkK9b4wzu_11proc_macro211TokenStreamNtNtB2v_5token4PlusEENtB1m_14LeafOrInternalENtB1m_2KVE12drop_key_valCsfWotccrMQ3I_14thiserror_impl, symObjAddr: 0xE1F0, symBinAddr: 0xEE48, symSize: 0x138 }
  - { offset: 0x3593E, size: 0x8, addend: 0x0, symName: __RNvMsT_NtNtNtCsiTraAjBDcu4_5alloc11collections5btree4nodeINtB5_6HandleINtB5_7NodeRefNtNtB5_6marker5DyingNtNtCsfWotccrMQ3I_14thiserror_impl5unraw10IdentUnrawNtNtB7_7set_val9SetValZSTNtB1m_14LeafOrInternalENtB1m_2KVE12drop_key_valB1I_, symObjAddr: 0xE328, symBinAddr: 0xEF80, symSize: 0x138 }
  - { offset: 0x35BAF, size: 0x8, addend: 0x0, symName: __RNvMsT_NtNtNtCsiTraAjBDcu4_5alloc11collections5btree4nodeINtB5_6HandleINtB5_7NodeRefNtNtB5_6marker5DyingRNtCshnvkK9b4wzu_11proc_macro25IdentNtNtB7_7set_val9SetValZSTNtB1m_14LeafOrInternalENtB1m_2KVE12drop_key_valCsfWotccrMQ3I_14thiserror_impl, symObjAddr: 0xE460, symBinAddr: 0xF0B8, symSize: 0x100 }
  - { offset: 0x35E02, size: 0x8, addend: 0x0, symName: __RNvMsT_NtNtNtCsiTraAjBDcu4_5alloc11collections5btree4nodeINtB5_6HandleINtB5_7NodeRefNtNtB5_6marker5DyingTjNtNtCsfWotccrMQ3I_14thiserror_impl4attr5TraitENtNtB7_7set_val9SetValZSTNtB1m_14LeafOrInternalENtB1m_2KVE12drop_key_valB1K_, symObjAddr: 0xE560, symBinAddr: 0xF1B8, symSize: 0xF0 }
  - { offset: 0x360AC, size: 0x8, addend: 0x0, symName: __RNvMsT_NtNtNtCsiTraAjBDcu4_5alloc11collections5btree4nodeINtB5_6HandleINtB5_7NodeRefNtNtB5_6marker5DyingTjNtNtCsfWotccrMQ3I_14thiserror_impl4attr5TraitENtNtB7_7set_val9SetValZSTNtB1m_14LeafOrInternalENtB1m_2KVE12into_key_valB1K_, symObjAddr: 0xE650, symBinAddr: 0xF2A8, symSize: 0x108 }
  - { offset: 0x36566, size: 0x8, addend: 0x0, symName: __RNvMsU_NtNtNtCsiTraAjBDcu4_5alloc11collections5btree4nodeINtB5_6HandleINtB5_7NodeRefNtNtB5_6marker3MutNtNtBb_6string6StringNtNtB7_7set_val9SetValZSTNtB1m_4LeafENtB1m_2KVE15split_leaf_dataCsfWotccrMQ3I_14thiserror_impl, symObjAddr: 0xE758, symBinAddr: 0xF3B0, symSize: 0x3E4 }
  - { offset: 0x36EFA, size: 0x8, addend: 0x0, symName: __RNvMsU_NtNtNtCsiTraAjBDcu4_5alloc11collections5btree4nodeINtB5_6HandleINtB5_7NodeRefNtNtB5_6marker3MutNtNtBb_6string6StringNtNtB7_7set_val9SetValZSTNtB1m_8InternalENtB1m_2KVE15split_leaf_dataCsfWotccrMQ3I_14thiserror_impl, symObjAddr: 0xEB3C, symBinAddr: 0xF794, symSize: 0x3E4 }
  - { offset: 0x3788E, size: 0x8, addend: 0x0, symName: __RNvMsU_NtNtNtCsiTraAjBDcu4_5alloc11collections5btree4nodeINtB5_6HandleINtB5_7NodeRefNtNtB5_6marker3MutNtNtBb_6string6StringTINtNtB7_3set8BTreeSetB1C_EINtNtCsc29TF2YcYso_3syn10punctuated10PunctuatedNtCshnvkK9b4wzu_11proc_macro211TokenStreamNtNtB2t_5token4PlusEENtB1m_4LeafENtB1m_2KVE15split_leaf_dataCsfWotccrMQ3I_14thiserror_impl, symObjAddr: 0xEF20, symBinAddr: 0xFB78, symSize: 0x43C }
  - { offset: 0x3825A, size: 0x8, addend: 0x0, symName: __RNvMsU_NtNtNtCsiTraAjBDcu4_5alloc11collections5btree4nodeINtB5_6HandleINtB5_7NodeRefNtNtB5_6marker3MutNtNtBb_6string6StringTINtNtB7_3set8BTreeSetB1C_EINtNtCsc29TF2YcYso_3syn10punctuated10PunctuatedNtCshnvkK9b4wzu_11proc_macro211TokenStreamNtNtB2t_5token4PlusEENtB1m_8InternalENtB1m_2KVE15split_leaf_dataCsfWotccrMQ3I_14thiserror_impl, symObjAddr: 0xF35C, symBinAddr: 0xFFB4, symSize: 0x43C }
  - { offset: 0x38C26, size: 0x8, addend: 0x0, symName: __RNvMsU_NtNtNtCsiTraAjBDcu4_5alloc11collections5btree4nodeINtB5_6HandleINtB5_7NodeRefNtNtB5_6marker3MutNtNtCsfWotccrMQ3I_14thiserror_impl5unraw10IdentUnrawNtNtB7_7set_val9SetValZSTNtB1m_4LeafENtB1m_2KVE15split_leaf_dataB1G_, symObjAddr: 0xF798, symBinAddr: 0x103F0, symSize: 0x3E4 }
  - { offset: 0x395BA, size: 0x8, addend: 0x0, symName: __RNvMsU_NtNtNtCsiTraAjBDcu4_5alloc11collections5btree4nodeINtB5_6HandleINtB5_7NodeRefNtNtB5_6marker3MutNtNtCsfWotccrMQ3I_14thiserror_impl5unraw10IdentUnrawNtNtB7_7set_val9SetValZSTNtB1m_8InternalENtB1m_2KVE15split_leaf_dataB1G_, symObjAddr: 0xFB7C, symBinAddr: 0x107D4, symSize: 0x3E4 }
  - { offset: 0x39F4E, size: 0x8, addend: 0x0, symName: __RNvMsU_NtNtNtCsiTraAjBDcu4_5alloc11collections5btree4nodeINtB5_6HandleINtB5_7NodeRefNtNtB5_6marker3MutTjNtNtCsfWotccrMQ3I_14thiserror_impl4attr5TraitENtNtB7_7set_val9SetValZSTNtB1m_4LeafENtB1m_2KVE15split_leaf_dataB1I_, symObjAddr: 0xFF60, symBinAddr: 0x10BB8, symSize: 0x384 }
  - { offset: 0x3A8E2, size: 0x8, addend: 0x0, symName: __RNvMsU_NtNtNtCsiTraAjBDcu4_5alloc11collections5btree4nodeINtB5_6HandleINtB5_7NodeRefNtNtB5_6marker3MutTjNtNtCsfWotccrMQ3I_14thiserror_impl4attr5TraitENtNtB7_7set_val9SetValZSTNtB1m_8InternalENtB1m_2KVE15split_leaf_dataB1I_, symObjAddr: 0x102E4, symBinAddr: 0x10F3C, symSize: 0x384 }
  - { offset: 0x3B0A5, size: 0x8, addend: 0x0, symName: __RNvMsX_NtNtNtCsiTraAjBDcu4_5alloc11collections5btree4nodeINtB5_6HandleINtB5_7NodeRefNtNtB5_6marker3MutRNtCshnvkK9b4wzu_11proc_macro25IdentNtNtB7_7set_val9SetValZSTNtB1m_8InternalENtB1m_2KVE22consider_for_balancingCsfWotccrMQ3I_14thiserror_impl, symObjAddr: 0x10668, symBinAddr: 0x112C0, symSize: 0xE4 }
  - { offset: 0x3B2E4, size: 0x8, addend: 0x0, symName: __RNvMse_NtNtNtCsiTraAjBDcu4_5alloc11collections5btree4nodeINtB5_7NodeRefNtNtB5_6marker3MutNtNtBb_6string6StringNtNtB7_7set_val9SetValZSTNtB19_14LeafOrInternalE6ascendCsfWotccrMQ3I_14thiserror_impl, symObjAddr: 0x1074C, symBinAddr: 0x113A4, symSize: 0x160 }
  - { offset: 0x3B54F, size: 0x8, addend: 0x0, symName: __RNvMse_NtNtNtCsiTraAjBDcu4_5alloc11collections5btree4nodeINtB5_7NodeRefNtNtB5_6marker3MutNtNtBb_6string6StringTINtNtB7_3set8BTreeSetB1p_EINtNtCsc29TF2YcYso_3syn10punctuated10PunctuatedNtCshnvkK9b4wzu_11proc_macro211TokenStreamNtNtB2g_5token4PlusEENtB19_14LeafOrInternalE6ascendCsfWotccrMQ3I_14thiserror_impl, symObjAddr: 0x108AC, symBinAddr: 0x11504, symSize: 0x160 }
  - { offset: 0x3B7BA, size: 0x8, addend: 0x0, symName: __RNvMse_NtNtNtCsiTraAjBDcu4_5alloc11collections5btree4nodeINtB5_7NodeRefNtNtB5_6marker3MutNtNtCsfWotccrMQ3I_14thiserror_impl5unraw10IdentUnrawNtNtB7_7set_val9SetValZSTNtB19_14LeafOrInternalE6ascendB1t_, symObjAddr: 0x10A0C, symBinAddr: 0x11664, symSize: 0x160 }
  - { offset: 0x3BA25, size: 0x8, addend: 0x0, symName: __RNvMse_NtNtNtCsiTraAjBDcu4_5alloc11collections5btree4nodeINtB5_7NodeRefNtNtB5_6marker3MutRNtCshnvkK9b4wzu_11proc_macro25IdentNtNtB7_7set_val9SetValZSTNtB19_14LeafOrInternalE6ascendCsfWotccrMQ3I_14thiserror_impl, symObjAddr: 0x10B6C, symBinAddr: 0x117C4, symSize: 0x160 }
  - { offset: 0x3BC90, size: 0x8, addend: 0x0, symName: __RNvMse_NtNtNtCsiTraAjBDcu4_5alloc11collections5btree4nodeINtB5_7NodeRefNtNtB5_6marker3MutTjNtNtCsfWotccrMQ3I_14thiserror_impl4attr5TraitENtNtB7_7set_val9SetValZSTNtB19_14LeafOrInternalE6ascendB1v_, symObjAddr: 0x10CCC, symBinAddr: 0x11924, symSize: 0x160 }
  - { offset: 0x3BED4, size: 0x8, addend: 0x0, symName: __RNvMse_NtNtNtCsiTraAjBDcu4_5alloc11collections5btree4nodeINtB5_7NodeRefNtNtB5_6marker5DyingNtNtBb_6string6StringNtNtB7_7set_val9SetValZSTNtB19_14LeafOrInternalE6ascendCsfWotccrMQ3I_14thiserror_impl, symObjAddr: 0x10E2C, symBinAddr: 0x11A84, symSize: 0x160 }
  - { offset: 0x3C118, size: 0x8, addend: 0x0, symName: __RNvMse_NtNtNtCsiTraAjBDcu4_5alloc11collections5btree4nodeINtB5_7NodeRefNtNtB5_6marker5DyingNtNtBb_6string6StringTINtNtB7_3set8BTreeSetB1r_EINtNtCsc29TF2YcYso_3syn10punctuated10PunctuatedNtCshnvkK9b4wzu_11proc_macro211TokenStreamNtNtB2i_5token4PlusEENtB19_14LeafOrInternalE6ascendCsfWotccrMQ3I_14thiserror_impl, symObjAddr: 0x10F8C, symBinAddr: 0x11BE4, symSize: 0x160 }
  - { offset: 0x3C35C, size: 0x8, addend: 0x0, symName: __RNvMse_NtNtNtCsiTraAjBDcu4_5alloc11collections5btree4nodeINtB5_7NodeRefNtNtB5_6marker5DyingNtNtCsfWotccrMQ3I_14thiserror_impl5unraw10IdentUnrawNtNtB7_7set_val9SetValZSTNtB19_14LeafOrInternalE6ascendB1v_, symObjAddr: 0x110EC, symBinAddr: 0x11D44, symSize: 0x160 }
  - { offset: 0x3C5A0, size: 0x8, addend: 0x0, symName: __RNvMse_NtNtNtCsiTraAjBDcu4_5alloc11collections5btree4nodeINtB5_7NodeRefNtNtB5_6marker5DyingRNtCshnvkK9b4wzu_11proc_macro25IdentNtNtB7_7set_val9SetValZSTNtB19_14LeafOrInternalE6ascendCsfWotccrMQ3I_14thiserror_impl, symObjAddr: 0x1124C, symBinAddr: 0x11EA4, symSize: 0x160 }
  - { offset: 0x3C7E4, size: 0x8, addend: 0x0, symName: __RNvMse_NtNtNtCsiTraAjBDcu4_5alloc11collections5btree4nodeINtB5_7NodeRefNtNtB5_6marker5DyingTjNtNtCsfWotccrMQ3I_14thiserror_impl4attr5TraitENtNtB7_7set_val9SetValZSTNtB19_14LeafOrInternalE6ascendB1x_, symObjAddr: 0x113AC, symBinAddr: 0x12004, symSize: 0x160 }
  - { offset: 0x3C9DE, size: 0x8, addend: 0x0, symName: __RNvMsg_NtNtNtCsiTraAjBDcu4_5alloc11collections5btree4nodeINtB5_7NodeRefNtNtB5_6marker5ImmutNtNtBb_6string6StringNtNtB7_7set_val9SetValZSTNtB19_14LeafOrInternalE4keysCsfWotccrMQ3I_14thiserror_impl, symObjAddr: 0x1150C, symBinAddr: 0x12164, symSize: 0xA8 }
  - { offset: 0x3CB9D, size: 0x8, addend: 0x0, symName: __RNvMsg_NtNtNtCsiTraAjBDcu4_5alloc11collections5btree4nodeINtB5_7NodeRefNtNtB5_6marker5ImmutNtNtBb_6string6StringTINtNtB7_3set8BTreeSetB1r_EINtNtCsc29TF2YcYso_3syn10punctuated10PunctuatedNtCshnvkK9b4wzu_11proc_macro211TokenStreamNtNtB2i_5token4PlusEENtB19_14LeafOrInternalE4keysCsfWotccrMQ3I_14thiserror_impl, symObjAddr: 0x115B4, symBinAddr: 0x1220C, symSize: 0xA8 }
  - { offset: 0x3CD7A, size: 0x8, addend: 0x0, symName: __RNvMsg_NtNtNtCsiTraAjBDcu4_5alloc11collections5btree4nodeINtB5_7NodeRefNtNtB5_6marker5ImmutNtNtCsfWotccrMQ3I_14thiserror_impl5unraw10IdentUnrawNtNtB7_7set_val9SetValZSTNtB19_14LeafOrInternalE4keysB1v_, symObjAddr: 0x1165C, symBinAddr: 0x122B4, symSize: 0xA8 }
  - { offset: 0x3CF57, size: 0x8, addend: 0x0, symName: __RNvMsg_NtNtNtCsiTraAjBDcu4_5alloc11collections5btree4nodeINtB5_7NodeRefNtNtB5_6marker5ImmutRNtCshnvkK9b4wzu_11proc_macro25IdentNtNtB7_7set_val9SetValZSTNtB19_14LeafOrInternalE4keysCsfWotccrMQ3I_14thiserror_impl, symObjAddr: 0x11704, symBinAddr: 0x1235C, symSize: 0xA8 }
  - { offset: 0x3D141, size: 0x8, addend: 0x0, symName: __RNvMsg_NtNtNtCsiTraAjBDcu4_5alloc11collections5btree4nodeINtB5_7NodeRefNtNtB5_6marker5ImmutTjNtNtCsfWotccrMQ3I_14thiserror_impl4attr5TraitENtNtB7_7set_val9SetValZSTNtB19_14LeafOrInternalE4keysB1x_, symObjAddr: 0x117AC, symBinAddr: 0x12404, symSize: 0xA4 }
  - { offset: 0x3D3DF, size: 0x8, addend: 0x0, symName: __RNvMsn_NtNtNtCsiTraAjBDcu4_5alloc11collections5btree8navigateINtNtB7_4node7NodeRefNtNtB10_6marker3MutRNtCshnvkK9b4wzu_11proc_macro25IdentNtNtB7_7set_val9SetValZSTNtB1k_14LeafOrInternalE14last_leaf_edgeCsfWotccrMQ3I_14thiserror_impl, symObjAddr: 0x11850, symBinAddr: 0x124A8, symSize: 0xEC }
  - { offset: 0x3D739, size: 0x8, addend: 0x0, symName: __RNvMsp_NtNtNtCsiTraAjBDcu4_5alloc11collections5btree8navigateINtNtB7_4node6HandleINtB10_7NodeRefNtNtB10_6marker5DyingNtNtBb_6string6StringNtNtB7_7set_val9SetValZSTNtB1y_14LeafOrInternalENtB1y_2KVE14next_leaf_edgeCsfWotccrMQ3I_14thiserror_impl, symObjAddr: 0x1193C, symBinAddr: 0x12594, symSize: 0x210 }
  - { offset: 0x3DBA9, size: 0x8, addend: 0x0, symName: __RNvMsp_NtNtNtCsiTraAjBDcu4_5alloc11collections5btree8navigateINtNtB7_4node6HandleINtB10_7NodeRefNtNtB10_6marker5DyingNtNtBb_6string6StringTINtNtB7_3set8BTreeSetB1R_EINtNtCsc29TF2YcYso_3syn10punctuated10PunctuatedNtCshnvkK9b4wzu_11proc_macro211TokenStreamNtNtB2I_5token4PlusEENtB1y_14LeafOrInternalENtB1y_2KVE14next_leaf_edgeCsfWotccrMQ3I_14thiserror_impl, symObjAddr: 0x11B4C, symBinAddr: 0x127A4, symSize: 0x210 }
  - { offset: 0x3E019, size: 0x8, addend: 0x0, symName: __RNvMsp_NtNtNtCsiTraAjBDcu4_5alloc11collections5btree8navigateINtNtB7_4node6HandleINtB10_7NodeRefNtNtB10_6marker5DyingNtNtCsfWotccrMQ3I_14thiserror_impl5unraw10IdentUnrawNtNtB7_7set_val9SetValZSTNtB1y_14LeafOrInternalENtB1y_2KVE14next_leaf_edgeB1V_, symObjAddr: 0x11D5C, symBinAddr: 0x129B4, symSize: 0x210 }
  - { offset: 0x3E489, size: 0x8, addend: 0x0, symName: __RNvMsp_NtNtNtCsiTraAjBDcu4_5alloc11collections5btree8navigateINtNtB7_4node6HandleINtB10_7NodeRefNtNtB10_6marker5DyingRNtCshnvkK9b4wzu_11proc_macro25IdentNtNtB7_7set_val9SetValZSTNtB1y_14LeafOrInternalENtB1y_2KVE14next_leaf_edgeCsfWotccrMQ3I_14thiserror_impl, symObjAddr: 0x11F6C, symBinAddr: 0x12BC4, symSize: 0x210 }
  - { offset: 0x3E8F9, size: 0x8, addend: 0x0, symName: __RNvMsp_NtNtNtCsiTraAjBDcu4_5alloc11collections5btree8navigateINtNtB7_4node6HandleINtB10_7NodeRefNtNtB10_6marker5DyingTjNtNtCsfWotccrMQ3I_14thiserror_impl4attr5TraitENtNtB7_7set_val9SetValZSTNtB1y_14LeafOrInternalENtB1y_2KVE14next_leaf_edgeB1X_, symObjAddr: 0x1217C, symBinAddr: 0x12DD4, symSize: 0x210 }
  - { offset: 0x3ED17, size: 0x8, addend: 0x0, symName: __RNvMsu_NtNtNtCsiTraAjBDcu4_5alloc11collections5btree4nodeINtB5_7NodeRefNtNtB5_6marker3MutNtNtBb_6string6StringNtNtB7_7set_val9SetValZSTNtB19_4LeafE16push_with_handleCsfWotccrMQ3I_14thiserror_impl, symObjAddr: 0x1238C, symBinAddr: 0x12FE4, symSize: 0x1FC }
  - { offset: 0x3F243, size: 0x8, addend: 0x0, symName: __RNvMsu_NtNtNtCsiTraAjBDcu4_5alloc11collections5btree4nodeINtB5_7NodeRefNtNtB5_6marker3MutNtNtBb_6string6StringTINtNtB7_3set8BTreeSetB1p_EINtNtCsc29TF2YcYso_3syn10punctuated10PunctuatedNtCshnvkK9b4wzu_11proc_macro211TokenStreamNtNtB2g_5token4PlusEENtB19_4LeafE16push_with_handleCsfWotccrMQ3I_14thiserror_impl, symObjAddr: 0x12588, symBinAddr: 0x131E0, symSize: 0x268 }
  - { offset: 0x3F778, size: 0x8, addend: 0x0, symName: __RNvMsu_NtNtNtCsiTraAjBDcu4_5alloc11collections5btree4nodeINtB5_7NodeRefNtNtB5_6marker3MutNtNtCsfWotccrMQ3I_14thiserror_impl5unraw10IdentUnrawNtNtB7_7set_val9SetValZSTNtB19_4LeafE16push_with_handleB1t_, symObjAddr: 0x127F0, symBinAddr: 0x13448, symSize: 0x1FC }
  - { offset: 0x3FC40, size: 0x8, addend: 0x0, symName: __RNvMsu_NtNtNtCsiTraAjBDcu4_5alloc11collections5btree4nodeINtB5_7NodeRefNtNtB5_6marker3MutRNtCshnvkK9b4wzu_11proc_macro25IdentNtNtB7_7set_val9SetValZSTNtB19_4LeafE16push_with_handleCsfWotccrMQ3I_14thiserror_impl, symObjAddr: 0x129EC, symBinAddr: 0x13644, symSize: 0x1BC }
  - { offset: 0x400F3, size: 0x8, addend: 0x0, symName: __RNvMsu_NtNtNtCsiTraAjBDcu4_5alloc11collections5btree4nodeINtB5_7NodeRefNtNtB5_6marker3MutTjNtNtCsfWotccrMQ3I_14thiserror_impl4attr5TraitENtNtB7_7set_val9SetValZSTNtB19_4LeafE16push_with_handleB1v_, symObjAddr: 0x12BA8, symBinAddr: 0x13800, symSize: 0x1C8 }
  - { offset: 0x406BE, size: 0x8, addend: 0x0, symName: __RNvMsv_NtNtNtCsiTraAjBDcu4_5alloc11collections5btree4nodeINtB5_7NodeRefNtNtB5_6marker3MutNtNtBb_6string6StringNtNtB7_7set_val9SetValZSTNtB19_8InternalE4pushCsfWotccrMQ3I_14thiserror_impl, symObjAddr: 0x12D70, symBinAddr: 0x139C8, symSize: 0x2FC }
  - { offset: 0x40E55, size: 0x8, addend: 0x0, symName: __RNvMsv_NtNtNtCsiTraAjBDcu4_5alloc11collections5btree4nodeINtB5_7NodeRefNtNtB5_6marker3MutNtNtBb_6string6StringTINtNtB7_3set8BTreeSetB1p_EINtNtCsc29TF2YcYso_3syn10punctuated10PunctuatedNtCshnvkK9b4wzu_11proc_macro211TokenStreamNtNtB2g_5token4PlusEENtB19_8InternalE4pushCsfWotccrMQ3I_14thiserror_impl, symObjAddr: 0x1306C, symBinAddr: 0x13CC4, symSize: 0x364 }
  - { offset: 0x415F6, size: 0x8, addend: 0x0, symName: __RNvMsv_NtNtNtCsiTraAjBDcu4_5alloc11collections5btree4nodeINtB5_7NodeRefNtNtB5_6marker3MutNtNtCsfWotccrMQ3I_14thiserror_impl5unraw10IdentUnrawNtNtB7_7set_val9SetValZSTNtB19_8InternalE4pushB1t_, symObjAddr: 0x133D0, symBinAddr: 0x14028, symSize: 0x2FC }
  - { offset: 0x41D29, size: 0x8, addend: 0x0, symName: __RNvMsv_NtNtNtCsiTraAjBDcu4_5alloc11collections5btree4nodeINtB5_7NodeRefNtNtB5_6marker3MutRNtCshnvkK9b4wzu_11proc_macro25IdentNtNtB7_7set_val9SetValZSTNtB19_8InternalE4pushCsfWotccrMQ3I_14thiserror_impl, symObjAddr: 0x136CC, symBinAddr: 0x14324, symSize: 0x2C0 }
  - { offset: 0x42444, size: 0x8, addend: 0x0, symName: __RNvMsv_NtNtNtCsiTraAjBDcu4_5alloc11collections5btree4nodeINtB5_7NodeRefNtNtB5_6marker3MutTjNtNtCsfWotccrMQ3I_14thiserror_impl4attr5TraitENtNtB7_7set_val9SetValZSTNtB19_8InternalE4pushB1v_, symObjAddr: 0x1398C, symBinAddr: 0x145E4, symSize: 0x2CC }
  - { offset: 0x428FC, size: 0x8, addend: 0x0, symName: __RNvXs1_NtNtNtCsaNl6UpbT7bw_4core3ops8function5implsQNCNvNtCsfWotccrMQ3I_14thiserror_impl6expand9impl_enums2_0INtB7_5FnMutTRNtNtBU_3ast7VariantEE8call_mutBU_, symObjAddr: 0x0, symBinAddr: 0x148F8, symSize: 0x30 }
  - { offset: 0x433D6, size: 0x8, addend: 0x0, symName: __RNvNtCsfWotccrMQ3I_14thiserror_impl6expand6derive, symObjAddr: 0x30, symBinAddr: 0x14928, symSize: 0xC0 }
  - { offset: 0x43434, size: 0x8, addend: 0x0, symName: __RNvNtCsfWotccrMQ3I_14thiserror_impl6expand10try_expand, symObjAddr: 0xF0, symBinAddr: 0x149E8, symSize: 0x294 }
  - { offset: 0x43504, size: 0x8, addend: 0x0, symName: __RNvNtCsfWotccrMQ3I_14thiserror_impl6expand11impl_struct, symObjAddr: 0x384, symBinAddr: 0x14C7C, symSize: 0x1680 }
  - { offset: 0x4397A, size: 0x8, addend: 0x0, symName: __RNCNvNtCsfWotccrMQ3I_14thiserror_impl6expand11impl_struct0B5_, symObjAddr: 0x1A04, symBinAddr: 0x162FC, symSize: 0x434 }
  - { offset: 0x43A08, size: 0x8, addend: 0x0, symName: __RNCNvNtCsfWotccrMQ3I_14thiserror_impl6expand11impl_structs_0B5_, symObjAddr: 0x1E38, symBinAddr: 0x16730, symSize: 0x1680 }
  - { offset: 0x43D4C, size: 0x8, addend: 0x0, symName: __RNCNvNtCsfWotccrMQ3I_14thiserror_impl6expand11impl_structs0_0B5_, symObjAddr: 0x34B8, symBinAddr: 0x17DB0, symSize: 0x918 }
  - { offset: 0x43F1A, size: 0x8, addend: 0x0, symName: __RNCNvNtCsfWotccrMQ3I_14thiserror_impl6expand11impl_structs1_0B5_, symObjAddr: 0x3DD0, symBinAddr: 0x186C8, symSize: 0x888 }
  - { offset: 0x44166, size: 0x8, addend: 0x0, symName: __RNvNtCsfWotccrMQ3I_14thiserror_impl6expand9impl_enum, symObjAddr: 0x4658, symBinAddr: 0x18F50, symSize: 0x1F34 }
  - { offset: 0x4485B, size: 0x8, addend: 0x0, symName: __RNCNvNtCsfWotccrMQ3I_14thiserror_impl6expand9impl_enum0B5_, symObjAddr: 0x658C, symBinAddr: 0x1AE84, symSize: 0xDDC }
  - { offset: 0x44B46, size: 0x8, addend: 0x0, symName: __RNCNvNtCsfWotccrMQ3I_14thiserror_impl6expand9impl_enums_0B5_, symObjAddr: 0x7368, symBinAddr: 0x1BC60, symSize: 0x200C }
  - { offset: 0x45186, size: 0x8, addend: 0x0, symName: __RNCNvNtCsfWotccrMQ3I_14thiserror_impl6expand9impl_enums0_0B5_, symObjAddr: 0x9374, symBinAddr: 0x1DC6C, symSize: 0x44 }
  - { offset: 0x451C4, size: 0x8, addend: 0x0, symName: __RNCNCNvNtCsfWotccrMQ3I_14thiserror_impl6expand9impl_enums0_00B7_, symObjAddr: 0x93B8, symBinAddr: 0x1DCB0, symSize: 0x2C }
  - { offset: 0x45205, size: 0x8, addend: 0x0, symName: __RNCNvNtCsfWotccrMQ3I_14thiserror_impl6expand9impl_enums1_0B5_, symObjAddr: 0x93E4, symBinAddr: 0x1DCDC, symSize: 0x8D0 }
  - { offset: 0x45512, size: 0x8, addend: 0x0, symName: __RNCNCNvNtCsfWotccrMQ3I_14thiserror_impl6expand9impl_enums1_00B7_, symObjAddr: 0x9CB4, symBinAddr: 0x1E5AC, symSize: 0x184 }
  - { offset: 0x455DD, size: 0x8, addend: 0x0, symName: __RNCNvNtCsfWotccrMQ3I_14thiserror_impl6expand9impl_enums2_0B5_, symObjAddr: 0x9E38, symBinAddr: 0x1E730, symSize: 0x90C }
  - { offset: 0x45927, size: 0x8, addend: 0x0, symName: __RNvNtCsfWotccrMQ3I_14thiserror_impl6expand15call_site_ident, symObjAddr: 0xA744, symBinAddr: 0x1F03C, symSize: 0xC4 }
  - { offset: 0x4596B, size: 0x8, addend: 0x0, symName: __RNvNtCsfWotccrMQ3I_14thiserror_impl6expand10fields_pat, symObjAddr: 0xA808, symBinAddr: 0x1F100, symSize: 0x4E0 }
  - { offset: 0x45B7E, size: 0x8, addend: 0x0, symName: __RNCNvNtCsfWotccrMQ3I_14thiserror_impl6expand10fields_pat0B5_, symObjAddr: 0xACE8, symBinAddr: 0x1F5E0, symSize: 0x28 }
  - { offset: 0x45BB7, size: 0x8, addend: 0x0, symName: __RNCNvNtCsfWotccrMQ3I_14thiserror_impl6expand10fields_pats_0B5_, symObjAddr: 0xAD10, symBinAddr: 0x1F608, symSize: 0x17C }
  - { offset: 0x45C6B, size: 0x8, addend: 0x0, symName: __RNvNtCsfWotccrMQ3I_14thiserror_impl6expand14use_as_display, symObjAddr: 0xAE8C, symBinAddr: 0x1F784, symSize: 0x178 }
  - { offset: 0x45CAF, size: 0x8, addend: 0x0, symName: __RNvNtCsfWotccrMQ3I_14thiserror_impl6expand16from_initializer, symObjAddr: 0xB004, symBinAddr: 0x1F8FC, symSize: 0x350 }
  - { offset: 0x45DB7, size: 0x8, addend: 0x0, symName: __RNCNvNtCsfWotccrMQ3I_14thiserror_impl6expand16from_initializer0B5_, symObjAddr: 0xB354, symBinAddr: 0x1FC4C, symSize: 0x4AC }
  - { offset: 0x45E69, size: 0x8, addend: 0x0, symName: __RNvNtCsfWotccrMQ3I_14thiserror_impl6expand14type_is_option, symObjAddr: 0xB800, symBinAddr: 0x200F8, symSize: 0x44 }
  - { offset: 0x45E97, size: 0x8, addend: 0x0, symName: __RNvNtCsfWotccrMQ3I_14thiserror_impl6expand15unoptional_type, symObjAddr: 0xB844, symBinAddr: 0x2013C, symSize: 0xA8 }
  - { offset: 0x45EF9, size: 0x8, addend: 0x0, symName: __RNvNtCsfWotccrMQ3I_14thiserror_impl6expand24type_parameter_of_option, symObjAddr: 0xB8EC, symBinAddr: 0x201E4, symSize: 0x1FC }
  - { offset: 0x461DE, size: 0x8, addend: 0x0, symName: __RNvXs1_NtNtNtCsaNl6UpbT7bw_4core3ops8function5implsQNCNvNtCsfWotccrMQ3I_14thiserror_impl6expand9impl_enums2_0INtB7_5FnMutTRNtNtBU_3ast7VariantEE8call_mutBU_, symObjAddr: 0x0, symBinAddr: 0x148F8, symSize: 0x30 }
  - { offset: 0x502F7, size: 0x8, addend: 0x0, symName: __RINvMs6_NtCsg4dki62PTrg_9hashbrown3rawINtB6_8RawTableTRNtNtCsfWotccrMQ3I_14thiserror_impl5unraw11MemberUnrawjEE14reserve_rehashNCINvNtB8_3map11make_hasherBQ_jNtNtNtCsht3nMU9UgFu_3std4hash6random11RandomStateE0EBV_, symObjAddr: 0x0, symBinAddr: 0x1B9DDC, symSize: 0x828 }
  - { offset: 0x50333, size: 0x8, addend: 0x0, symName: __RNCINvMs6_NtCsg4dki62PTrg_9hashbrown3rawINtB8_8RawTableTRNtNtCsfWotccrMQ3I_14thiserror_impl5unraw11MemberUnrawjEE14reserve_rehashNCINvNtBa_3map11make_hasherBS_jNtNtNtCsht3nMU9UgFu_3std4hash6random11RandomStateE0E0BX_, symObjAddr: 0x12A8, symBinAddr: 0x20E60, symSize: 0xC8 }
  - { offset: 0x504F6, size: 0x8, addend: 0x0, symName: __RNCINvMs6_NtCsg4dki62PTrg_9hashbrown3rawINtB8_8RawTableTRNtNtCsfWotccrMQ3I_14thiserror_impl5unraw11MemberUnrawjEE24find_or_find_insert_slotNCINvNtBa_3map14equivalent_keyBS_BS_jE0NCINvB2i_11make_hasherBS_jNtNtNtCsht3nMU9UgFu_3std4hash6random11RandomStateE0E0BX_, symObjAddr: 0x1370, symBinAddr: 0x20F28, symSize: 0xCC }
  - { offset: 0x506C9, size: 0x8, addend: 0x0, symName: __RNCINvMs6_NtCsg4dki62PTrg_9hashbrown3rawINtB8_8RawTableTRNtNtCsfWotccrMQ3I_14thiserror_impl5unraw11MemberUnrawjEE4findNCINvNtBa_3map14equivalent_keyBT_BS_jE0E0BX_, symObjAddr: 0x143C, symBinAddr: 0x20FF4, symSize: 0xCC }
  - { offset: 0x50FE3, size: 0x8, addend: 0x0, symName: __RNCINvMsa_NtCsg4dki62PTrg_9hashbrown3rawNtB8_13RawTableInner14prepare_resizeNtNtCsiTraAjBDcu4_5alloc5alloc6GlobalE0CsfWotccrMQ3I_14thiserror_impl, symObjAddr: 0x1508, symBinAddr: 0x210C0, symSize: 0xBC }
  - { offset: 0x511C6, size: 0x8, addend: 0x0, symName: __RNCNvMsa_NtCsg4dki62PTrg_9hashbrown3rawNtB7_13RawTableInner15rehash_in_place0CsfWotccrMQ3I_14thiserror_impl, symObjAddr: 0x15C4, symBinAddr: 0x2117C, symSize: 0x22C }
  - { offset: 0x51727, size: 0x8, addend: 0x0, symName: __RNvNtCsg4dki62PTrg_9hashbrown3raw19capacity_to_bucketsCsfWotccrMQ3I_14thiserror_impl, symObjAddr: 0x2924, symBinAddr: 0x224DC, symSize: 0x218 }
  - { offset: 0x51930, size: 0x8, addend: 0x0, symName: __RNvXsg_NtCsg4dki62PTrg_9hashbrown3rawINtB5_8RawTableTRNtNtCsfWotccrMQ3I_14thiserror_impl5unraw11MemberUnrawjEENtNtNtCsaNl6UpbT7bw_4core3ops4drop4Drop4dropBU_, symObjAddr: 0x2B3C, symBinAddr: 0x226F4, symSize: 0x3C }
  - { offset: 0x550DE, size: 0x8, addend: 0x0, symName: __RINvMs6_NtCsg4dki62PTrg_9hashbrown3rawINtB6_8RawTableTRNtNtCsfWotccrMQ3I_14thiserror_impl5unraw11MemberUnrawjEE14reserve_rehashNCINvNtB8_3map11make_hasherBQ_jNtNtNtCsht3nMU9UgFu_3std4hash6random11RandomStateE0EBV_, symObjAddr: 0x0, symBinAddr: 0x1B9DDC, symSize: 0x828 }
  - { offset: 0x55ACE, size: 0x8, addend: 0x0, symName: __RINvMs6_NtCsg4dki62PTrg_9hashbrown3rawINtB6_8RawTableTRNtNtCsfWotccrMQ3I_14thiserror_impl5unraw11MemberUnrawjEE24find_or_find_insert_slotNCINvNtB8_3map14equivalent_keyBQ_BQ_jE0NCINvB2g_11make_hasherBQ_jNtNtNtCsht3nMU9UgFu_3std4hash6random11RandomStateE0EBV_, symObjAddr: 0x828, symBinAddr: 0x203E0, symSize: 0x140 }
  - { offset: 0x55F50, size: 0x8, addend: 0x0, symName: __RINvMs6_NtCsg4dki62PTrg_9hashbrown3rawINtB6_8RawTableTRNtNtCsfWotccrMQ3I_14thiserror_impl5unraw11MemberUnrawjEE4findNCINvNtB8_3map14equivalent_keyBR_BQ_jE0EBV_, symObjAddr: 0x968, symBinAddr: 0x20520, symSize: 0x330 }
  - { offset: 0x5640B, size: 0x8, addend: 0x0, symName: __RINvMs6_NtCsg4dki62PTrg_9hashbrown3rawINtB6_8RawTableTRNtNtCsfWotccrMQ3I_14thiserror_impl5unraw11MemberUnrawjEE7reserveNCINvNtB8_3map11make_hasherBQ_jNtNtNtCsht3nMU9UgFu_3std4hash6random11RandomStateE0EBV_, symObjAddr: 0xC98, symBinAddr: 0x20850, symSize: 0xCC }
  - { offset: 0x5657E, size: 0x8, addend: 0x0, symName: __RINvMsa_NtCsg4dki62PTrg_9hashbrown3rawNtB6_13RawTableInner13drop_elementsTRNtNtCsfWotccrMQ3I_14thiserror_impl5unraw11MemberUnrawjEEB1f_, symObjAddr: 0xD64, symBinAddr: 0x2091C, symSize: 0x28 }
  - { offset: 0x567E8, size: 0x8, addend: 0x0, symName: __RINvMsa_NtCsg4dki62PTrg_9hashbrown3rawNtB6_13RawTableInner16drop_inner_tableTRNtNtCsfWotccrMQ3I_14thiserror_impl5unraw11MemberUnrawjENtNtCsiTraAjBDcu4_5alloc5alloc6GlobalEB1i_, symObjAddr: 0xD8C, symBinAddr: 0x20944, symSize: 0xBC }
  - { offset: 0x569FB, size: 0x8, addend: 0x0, symName: __RINvMsa_NtCsg4dki62PTrg_9hashbrown3rawNtB6_13RawTableInner17new_uninitializedNtNtCsiTraAjBDcu4_5alloc5alloc6GlobalECsfWotccrMQ3I_14thiserror_impl, symObjAddr: 0xE48, symBinAddr: 0x20A00, symSize: 0x1B0 }
  - { offset: 0x56C4C, size: 0x8, addend: 0x0, symName: __RINvMsa_NtCsg4dki62PTrg_9hashbrown3rawNtB6_13RawTableInner22fallible_with_capacityNtNtCsiTraAjBDcu4_5alloc5alloc6GlobalECsfWotccrMQ3I_14thiserror_impl, symObjAddr: 0xFF8, symBinAddr: 0x20BB0, symSize: 0x2B0 }
  - { offset: 0x57518, size: 0x8, addend: 0x0, symName: __RNvMs1_NtCsg4dki62PTrg_9hashbrown3rawNtB5_11TableLayout20calculate_layout_forCsfWotccrMQ3I_14thiserror_impl, symObjAddr: 0x17F0, symBinAddr: 0x213A8, symSize: 0x210 }
  - { offset: 0x579A5, size: 0x8, addend: 0x0, symName: __RNvMs6_NtCsg4dki62PTrg_9hashbrown3rawINtB5_8RawTableTRNtNtCsfWotccrMQ3I_14thiserror_impl5unraw11MemberUnrawjEE14insert_in_slotBU_, symObjAddr: 0x1A00, symBinAddr: 0x215B8, symSize: 0x148 }
  - { offset: 0x57E59, size: 0x8, addend: 0x0, symName: __RNvMsa_NtCsg4dki62PTrg_9hashbrown3rawNtB5_13RawTableInner15fix_insert_slotCsfWotccrMQ3I_14thiserror_impl, symObjAddr: 0x1B48, symBinAddr: 0x21700, symSize: 0x12C }
  - { offset: 0x581D9, size: 0x8, addend: 0x0, symName: __RNvMsa_NtCsg4dki62PTrg_9hashbrown3rawNtB5_13RawTableInner15rehash_in_placeCsfWotccrMQ3I_14thiserror_impl, symObjAddr: 0x1C74, symBinAddr: 0x2182C, symSize: 0x4AC }
  - { offset: 0x589E1, size: 0x8, addend: 0x0, symName: __RNvMsa_NtCsg4dki62PTrg_9hashbrown3rawNtB5_13RawTableInner16find_insert_slotCsfWotccrMQ3I_14thiserror_impl, symObjAddr: 0x2120, symBinAddr: 0x21CD8, symSize: 0x11C }
  - { offset: 0x58BDC, size: 0x8, addend: 0x0, symName: __RNvMsa_NtCsg4dki62PTrg_9hashbrown3rawNtB5_13RawTableInner19prepare_insert_slotCsfWotccrMQ3I_14thiserror_impl, symObjAddr: 0x223C, symBinAddr: 0x21DF4, symSize: 0x74 }
  - { offset: 0x58ECD, size: 0x8, addend: 0x0, symName: __RNvMsa_NtCsg4dki62PTrg_9hashbrown3rawNtB5_13RawTableInner23prepare_rehash_in_placeCsfWotccrMQ3I_14thiserror_impl, symObjAddr: 0x22B0, symBinAddr: 0x21E68, symSize: 0x258 }
  - { offset: 0x595D9, size: 0x8, addend: 0x0, symName: __RNvMsa_NtCsg4dki62PTrg_9hashbrown3rawNtB5_13RawTableInner25find_insert_slot_in_groupCsfWotccrMQ3I_14thiserror_impl, symObjAddr: 0x2508, symBinAddr: 0x220C0, symSize: 0x15C }
  - { offset: 0x59877, size: 0x8, addend: 0x0, symName: __RNvMsa_NtCsg4dki62PTrg_9hashbrown3rawNtB5_13RawTableInner30find_or_find_insert_slot_innerCsfWotccrMQ3I_14thiserror_impl, symObjAddr: 0x2664, symBinAddr: 0x2221C, symSize: 0x2C0 }
  - { offset: 0x59C4E, size: 0x8, addend: 0x0, symName: __RINvMNtNtNtNtCsaNl6UpbT7bw_4core5slice4sort6stable5mergeINtB3_10MergeStateRNtCshnvkK9b4wzu_11proc_macro25IdentE10merge_downNvYB1a_NtNtBb_3cmp10PartialOrd2ltECsfWotccrMQ3I_14thiserror_impl, symObjAddr: 0x0, symBinAddr: 0x22730, symSize: 0x1D0 }
  - { offset: 0x5A3B9, size: 0x8, addend: 0x0, symName: __RINvXs7_NtCshnvkK9b4wzu_11proc_macro23impNtB6_11TokenStreamINtNtNtNtCsaNl6UpbT7bw_4core4iter6traits7collect6ExtendNtB8_9TokenTreeE6extendNtB8_11TokenStreamECsfWotccrMQ3I_14thiserror_impl, symObjAddr: 0xCC0, symBinAddr: 0x23274, symSize: 0x164 }
  - { offset: 0x5A596, size: 0x8, addend: 0x0, symName: __RNvXsA_NtCshnvkK9b4wzu_11proc_macro23impNtB5_19DeferredTokenStreamNtNtCsaNl6UpbT7bw_4core5clone5Clone5cloneCsfWotccrMQ3I_14thiserror_impl, symObjAddr: 0x2904, symBinAddr: 0x24EB8, symSize: 0x90 }
  - { offset: 0x5A5C8, size: 0x8, addend: 0x0, symName: __RNvXsF_NtCshnvkK9b4wzu_11proc_macro23impNtB5_5IdentNtNtCsaNl6UpbT7bw_4core5clone5Clone5cloneCsfWotccrMQ3I_14thiserror_impl, symObjAddr: 0x2994, symBinAddr: 0x24F48, symSize: 0x9C }
  - { offset: 0x5A638, size: 0x8, addend: 0x0, symName: __RNvXsz_NtCshnvkK9b4wzu_11proc_macro23impNtB5_11TokenStreamNtNtCsaNl6UpbT7bw_4core5clone5Clone5cloneCsfWotccrMQ3I_14thiserror_impl, symObjAddr: 0x2CB8, symBinAddr: 0x2526C, symSize: 0x98 }
  - { offset: 0x5ACB8, size: 0x8, addend: 0x0, symName: __RINvNtCsaNl6UpbT7bw_4core9panicking13panic_displayNtNtCsc29TF2YcYso_3syn5error5ErrorECsfWotccrMQ3I_14thiserror_impl, symObjAddr: 0x794, symBinAddr: 0x22D48, symSize: 0x88 }
  - { offset: 0x5ADCF, size: 0x8, addend: 0x0, symName: __RNvXs17_NtNtCsaNl6UpbT7bw_4core3cmp5implsiNtB8_3Ord3cmpCsfWotccrMQ3I_14thiserror_impl, symObjAddr: 0x2020, symBinAddr: 0x245D4, symSize: 0x38 }
  - { offset: 0x5AE12, size: 0x8, addend: 0x0, symName: __RNvXsV_NtNtCsaNl6UpbT7bw_4core3cmp5implsjNtB7_3Ord3cmpCsfWotccrMQ3I_14thiserror_impl, symObjAddr: 0x2A30, symBinAddr: 0x24FE4, symSize: 0x38 }
  - { offset: 0x5B34F, size: 0x8, addend: 0x0, symName: __RNvNvMs1_NtNtCsaNl6UpbT7bw_4core3ptr8non_nullINtB7_7NonNullpE13new_unchecked18precondition_checkCsfWotccrMQ3I_14thiserror_impl, symObjAddr: 0x13B8, symBinAddr: 0x2396C, symSize: 0xA4 }
  - { offset: 0x5B7D7, size: 0x8, addend: 0x0, symName: __RINvNtCsaNl6UpbT7bw_4core3ptr10swap_chunkKj1_ECsfWotccrMQ3I_14thiserror_impl, symObjAddr: 0x360, symBinAddr: 0x22A90, symSize: 0x3C }
  - { offset: 0x5B810, size: 0x8, addend: 0x0, symName: __RINvNtCsaNl6UpbT7bw_4core3ptr10swap_chunkKj2_ECsfWotccrMQ3I_14thiserror_impl, symObjAddr: 0x39C, symBinAddr: 0x22ACC, symSize: 0x3C }
  - { offset: 0x5B849, size: 0x8, addend: 0x0, symName: __RINvNtCsaNl6UpbT7bw_4core3ptr10swap_chunkKj4_ECsfWotccrMQ3I_14thiserror_impl, symObjAddr: 0x3D8, symBinAddr: 0x22B08, symSize: 0x3C }
  - { offset: 0x5B882, size: 0x8, addend: 0x0, symName: __RINvNtCsaNl6UpbT7bw_4core3ptr10swap_chunkKj8_ECsfWotccrMQ3I_14thiserror_impl, symObjAddr: 0x414, symBinAddr: 0x22B44, symSize: 0x3C }
  - { offset: 0x5B8F6, size: 0x8, addend: 0x0, symName: __RINvNtCsaNl6UpbT7bw_4core3ptr14read_unalignedNtNtNtNtB4_9core_arch10arm_shared4neon9uint8x8_tECsfWotccrMQ3I_14thiserror_impl, symObjAddr: 0x450, symBinAddr: 0x22B80, symSize: 0x94 }
  - { offset: 0x5BA05, size: 0x8, addend: 0x0, symName: __RINvNtCsaNl6UpbT7bw_4core3ptr15write_unalignedNtNtNtNtB4_9core_arch10arm_shared4neon9uint8x8_tECsfWotccrMQ3I_14thiserror_impl, symObjAddr: 0x4E4, symBinAddr: 0x22C14, symSize: 0x78 }
  - { offset: 0x5BB21, size: 0x8, addend: 0x0, symName: __RNvNvNtCsaNl6UpbT7bw_4core3ptr19swap_nonoverlapping18precondition_checkCsfWotccrMQ3I_14thiserror_impl, symObjAddr: 0x17C8, symBinAddr: 0x23D7C, symSize: 0x38C }
  - { offset: 0x5BE01, size: 0x8, addend: 0x0, symName: __RINvNtCsaNl6UpbT7bw_4core3ptr19swap_nonoverlappinghECsfWotccrMQ3I_14thiserror_impl, symObjAddr: 0x6D8, symBinAddr: 0x22C8C, symSize: 0xBC }
  - { offset: 0x5BFAC, size: 0x8, addend: 0x0, symName: __RINvNvNtCsaNl6UpbT7bw_4core3ptr25swap_nonoverlapping_bytes26swap_nonoverlapping_chunksKj8_ECsfWotccrMQ3I_14thiserror_impl, symObjAddr: 0xB1C, symBinAddr: 0x230D0, symSize: 0xE4 }
  - { offset: 0x5C14A, size: 0x8, addend: 0x0, symName: __RNvNvNtCsaNl6UpbT7bw_4core3ptr25swap_nonoverlapping_bytes25swap_nonoverlapping_shortCsfWotccrMQ3I_14thiserror_impl, symObjAddr: 0x1B54, symBinAddr: 0x24108, symSize: 0x120 }
  - { offset: 0x5C327, size: 0x8, addend: 0x0, symName: __RNvNtCsaNl6UpbT7bw_4core3ptr25swap_nonoverlapping_bytesCsfWotccrMQ3I_14thiserror_impl, symObjAddr: 0x10A0, symBinAddr: 0x23654, symSize: 0xD8 }
  - { offset: 0x5C50C, size: 0x8, addend: 0x0, symName: __RNvNvNtCsaNl6UpbT7bw_4core3ptr19copy_nonoverlapping18precondition_checkCsfWotccrMQ3I_14thiserror_impl, symObjAddr: 0x145C, symBinAddr: 0x23A10, symSize: 0x36C }
  - { offset: 0x5C7BF, size: 0x8, addend: 0x0, symName: __RNvNvNtCsaNl6UpbT7bw_4core3ptr4copy18precondition_checkCsfWotccrMQ3I_14thiserror_impl, symObjAddr: 0x1C74, symBinAddr: 0x24228, symSize: 0x240 }
  - { offset: 0x5C9DA, size: 0x8, addend: 0x0, symName: __RNvNvNtCsaNl6UpbT7bw_4core3ptr7replace18precondition_checkCsfWotccrMQ3I_14thiserror_impl, symObjAddr: 0x1EB4, symBinAddr: 0x24468, symSize: 0x16C }
  - { offset: 0x5D24A, size: 0x8, addend: 0x0, symName: __RINvNtNtNtNtCsaNl6UpbT7bw_4core5slice4sort6stable5merge5mergeRNtCshnvkK9b4wzu_11proc_macro25IdentNvYBX_NtNtBa_3cmp10PartialOrd2ltECsfWotccrMQ3I_14thiserror_impl, symObjAddr: 0x81C, symBinAddr: 0x22DD0, symSize: 0x300 }
  - { offset: 0x5D4C1, size: 0x8, addend: 0x0, symName: __RNvXs_NtNtNtNtCsaNl6UpbT7bw_4core5slice4sort6stable5mergeINtB4_10MergeStateRNtCshnvkK9b4wzu_11proc_macro25IdentENtNtNtBc_3ops4drop4Drop4dropCsfWotccrMQ3I_14thiserror_impl, symObjAddr: 0x2BCC, symBinAddr: 0x25180, symSize: 0xEC }
  - { offset: 0x603D3, size: 0x8, addend: 0x0, symName: __RNvNtNtCsaNl6UpbT7bw_4core4hash3sip9u8to64_leCsfWotccrMQ3I_14thiserror_impl, symObjAddr: 0x1178, symBinAddr: 0x2372C, symSize: 0x240 }
  - { offset: 0x60590, size: 0x8, addend: 0x0, symName: __RNvXs3_NtNtCsaNl6UpbT7bw_4core4hash3sipINtB5_6HasherNtB5_11Sip13RoundsENtB7_6Hasher5writeCsfWotccrMQ3I_14thiserror_impl, symObjAddr: 0x2058, symBinAddr: 0x2460C, symSize: 0x238 }
  - { offset: 0x60706, size: 0x8, addend: 0x0, symName: __RNvXs3_NtNtCsaNl6UpbT7bw_4core4hash3sipINtB5_6HasherNtB5_11Sip13RoundsENtB7_6Hasher6finishCsfWotccrMQ3I_14thiserror_impl, symObjAddr: 0x2290, symBinAddr: 0x24844, symSize: 0xA0 }
  - { offset: 0x60779, size: 0x8, addend: 0x0, symName: __RNvXs3_NtNtCsaNl6UpbT7bw_4core4hash3sipINtB5_6HasherNtB5_11Sip13RoundsENtB7_6Hasher9write_strCsfWotccrMQ3I_14thiserror_impl, symObjAddr: 0x2330, symBinAddr: 0x248E4, symSize: 0x5C }
  - { offset: 0x607DF, size: 0x8, addend: 0x0, symName: __RNvXs6_NtNtCsaNl6UpbT7bw_4core4hash3sipNtB5_11Sip13RoundsNtB5_3Sip8c_roundsCsfWotccrMQ3I_14thiserror_impl, symObjAddr: 0x238C, symBinAddr: 0x24940, symSize: 0x170 }
  - { offset: 0x60955, size: 0x8, addend: 0x0, symName: __RNvXs6_NtNtCsaNl6UpbT7bw_4core4hash3sipNtB5_11Sip13RoundsNtB5_3Sip8d_roundsCsfWotccrMQ3I_14thiserror_impl, symObjAddr: 0x24FC, symBinAddr: 0x24AB0, symSize: 0x408 }
  - { offset: 0x61EC6, size: 0x8, addend: 0x0, symName: __RNvXs_NtNtNtCsiTraAjBDcu4_5alloc11collections5btree17dedup_sorted_iterINtB4_15DedupSortedIterRNtCshnvkK9b4wzu_11proc_macro25IdentNtNtB6_7set_val9SetValZSTINtNtNtNtCsaNl6UpbT7bw_4core4iter8adapters3map3MapINtNtNtBa_3vec9into_iter8IntoIterB1t_ENCINvMse_NtB6_3setINtB41_8BTreeSetB1t_E16from_sorted_iterB3g_E0EENtNtNtB2z_6traits8iterator8Iterator4nextCsfWotccrMQ3I_14thiserror_impl, symObjAddr: 0x2A68, symBinAddr: 0x2501C, symSize: 0x164 }
  - { offset: 0x620BD, size: 0x8, addend: 0x0, symName: __RINvMNtNtNtNtCsaNl6UpbT7bw_4core5slice4sort6stable5mergeINtB3_10MergeStateRNtCshnvkK9b4wzu_11proc_macro25IdentE10merge_downNvYB1a_NtNtBb_3cmp10PartialOrd2ltECsfWotccrMQ3I_14thiserror_impl, symObjAddr: 0x0, symBinAddr: 0x22730, symSize: 0x1D0 }
  - { offset: 0x62253, size: 0x8, addend: 0x0, symName: __RINvMNtNtNtNtCsaNl6UpbT7bw_4core5slice4sort6stable5mergeINtB3_10MergeStateRNtCshnvkK9b4wzu_11proc_macro25IdentE8merge_upNvYB1a_NtNtBb_3cmp10PartialOrd2ltECsfWotccrMQ3I_14thiserror_impl, symObjAddr: 0x1D0, symBinAddr: 0x22900, symSize: 0x190 }
  - { offset: 0x672DF, size: 0x8, addend: 0x0, symName: __RINvNvNtCsht3nMU9UgFu_3std9panicking12catch_unwind7do_callINtNtNtCsaNl6UpbT7bw_4core5panic11unwind_safe16AssertUnwindSafeNCINvNtNtCs7yrEGia95Wz_10proc_macro6bridge6client10run_clientNtB20_11TokenStreamINtNtB11_6option6OptionB2U_ENCNCINvMs6_B20_INtB20_6ClientNtB24_11TokenStreamB48_E7expand1NvCsfWotccrMQ3I_14thiserror_impl12derive_errorE00E0EuEB4G_, symObjAddr: 0xC00, symBinAddr: 0x231B4, symSize: 0x50 }
  - { offset: 0x673A7, size: 0x8, addend: 0x0, symName: __RINvNvNtCsht3nMU9UgFu_3std9panicking12catch_unwind8do_catchINtNtNtCsaNl6UpbT7bw_4core5panic11unwind_safe16AssertUnwindSafeNCINvNtNtCs7yrEGia95Wz_10proc_macro6bridge6client10run_clientNtB21_11TokenStreamINtNtB12_6option6OptionB2V_ENCNCINvMs6_B21_INtB21_6ClientNtB25_11TokenStreamB49_E7expand1NvCsfWotccrMQ3I_14thiserror_impl12derive_errorE00E0EuEB4H_, symObjAddr: 0xC50, symBinAddr: 0x23204, symSize: 0x70 }
  - { offset: 0x6762F, size: 0x8, addend: 0x0, symName: __RNvMs0_NtNtCsaNl6UpbT7bw_4core4hash3sipINtB5_6HasherNtB5_11Sip13RoundsE5resetCsfWotccrMQ3I_14thiserror_impl, symObjAddr: 0xE24, symBinAddr: 0x233D8, symSize: 0x8C }
  - { offset: 0x67C60, size: 0x8, addend: 0x0, symName: __RNvMs1_NtNtCsaNl6UpbT7bw_4core3ptr8non_nullINtB5_7NonNullNtNtCsfWotccrMQ3I_14thiserror_impl3ast7VariantE20offset_from_unsignedBX_, symObjAddr: 0xEB0, symBinAddr: 0x23464, symSize: 0x7C }
  - { offset: 0x67D4C, size: 0x8, addend: 0x0, symName: __RNvMs1_NtNtCsaNl6UpbT7bw_4core3ptr8non_nullINtB5_7NonNullRNtCshnvkK9b4wzu_11proc_macro25IdentE20offset_from_unsignedCsfWotccrMQ3I_14thiserror_impl, symObjAddr: 0xF2C, symBinAddr: 0x234E0, symSize: 0x7C }
  - { offset: 0x67E52, size: 0x8, addend: 0x0, symName: __RNvMs1_NtNtCsaNl6UpbT7bw_4core3ptr8non_nullINtB5_7NonNullTNtNtCsc29TF2YcYso_3syn4data7VariantNtNtBY_5token5CommaEE20offset_from_unsignedCsfWotccrMQ3I_14thiserror_impl, symObjAddr: 0xFA8, symBinAddr: 0x2355C, symSize: 0x7C }
  - { offset: 0x67F58, size: 0x8, addend: 0x0, symName: __RNvMs1_NtNtCsaNl6UpbT7bw_4core3ptr8non_nullINtB5_7NonNullTNtNtCsc29TF2YcYso_3syn4path15GenericArgumentNtNtBY_5token5CommaEE20offset_from_unsignedCsfWotccrMQ3I_14thiserror_impl, symObjAddr: 0x1024, symBinAddr: 0x235D8, symSize: 0x7C }
  - { offset: 0x683AE, size: 0x8, addend: 0x0, symName: __RINvNtNtCsaNl6UpbT7bw_4core4iter8adapters11try_processINtNtB2_3map3MapINtNtB2_9enumerate9EnumerateINtNtCsc29TF2YcYso_3syn10punctuated4IterNtNtB1D_4data5FieldEENCNvMs2_NtCsfWotccrMQ3I_14thiserror_impl3astNtB2F_5Field17multiple_from_syn0EB3f_INtNtB6_6result6ResultNtNtB6_7convert10InfallibleNtNtB1D_5error5ErrorENCINvXso_B3T_IB3R_INtNtCsiTraAjBDcu4_5alloc3vec3VecB3f_EB4D_EINtNtNtB4_6traits7collect12FromIteratorIB3R_B3f_B4D_EE9from_iterBQ_E0B5g_EB2H_, symObjAddr: 0x0, symBinAddr: 0x25304, symSize: 0x18C }
  - { offset: 0x6967E, size: 0x8, addend: 0x0, symName: __RNvXs7_NtNtCsaNl6UpbT7bw_4core3cmp5implsRNtCshnvkK9b4wzu_11proc_macro25IdentNtB7_9PartialEq2neCsfWotccrMQ3I_14thiserror_impl, symObjAddr: 0x2E80, symBinAddr: 0x28184, symSize: 0x34 }
  - { offset: 0x696D3, size: 0x8, addend: 0x0, symName: __RNvXs8_NtNtCsaNl6UpbT7bw_4core3cmp5implsRNtCshnvkK9b4wzu_11proc_macro25IdentNtB7_10PartialOrd2ltCsfWotccrMQ3I_14thiserror_impl, symObjAddr: 0x2EB4, symBinAddr: 0x281B8, symSize: 0x34 }
  - { offset: 0x69729, size: 0x8, addend: 0x0, symName: __RNvYNtCshnvkK9b4wzu_11proc_macro25IdentINtNtCsaNl6UpbT7bw_4core3cmp9PartialEqReE2neCsfWotccrMQ3I_14thiserror_impl, symObjAddr: 0x3610, symBinAddr: 0x28914, symSize: 0x30 }
  - { offset: 0x69778, size: 0x8, addend: 0x0, symName: __RNvYNtCshnvkK9b4wzu_11proc_macro25IdentNtNtCsaNl6UpbT7bw_4core3cmp9PartialEq2neCsfWotccrMQ3I_14thiserror_impl, symObjAddr: 0x37A0, symBinAddr: 0x28AA4, symSize: 0x30 }
  - { offset: 0x697CD, size: 0x8, addend: 0x0, symName: __RNvYNtCshnvkK9b4wzu_11proc_macro25IdentNtNtCsaNl6UpbT7bw_4core3cmp10PartialOrd2ltCsfWotccrMQ3I_14thiserror_impl, symObjAddr: 0x3730, symBinAddr: 0x28A34, symSize: 0x70 }
  - { offset: 0x69897, size: 0x8, addend: 0x0, symName: __RINvNtNtCsaNl6UpbT7bw_4core4iter8adapters11try_processINtNtB2_3map3MapINtNtB2_9enumerate9EnumerateINtNtCsc29TF2YcYso_3syn10punctuated4IterNtNtB1D_4data5FieldEENCNvMs2_NtCsfWotccrMQ3I_14thiserror_impl3astNtB2F_5Field17multiple_from_syn0EB3f_INtNtB6_6result6ResultNtNtB6_7convert10InfallibleNtNtB1D_5error5ErrorENCINvXso_B3T_IB3R_INtNtCsiTraAjBDcu4_5alloc3vec3VecB3f_EB4D_EINtNtNtB4_6traits7collect12FromIteratorIB3R_B3f_B4D_EE9from_iterBQ_E0B5g_EB2H_, symObjAddr: 0x0, symBinAddr: 0x25304, symSize: 0x18C }
  - { offset: 0x6995E, size: 0x8, addend: 0x0, symName: __RINvNtNtCsaNl6UpbT7bw_4core4iter8adapters11try_processINtNtB2_3map3MapINtNtCsc29TF2YcYso_3syn10punctuated4IterNtNtB1b_4data7VariantENCNvMs0_NtCsfWotccrMQ3I_14thiserror_impl3astNtB2e_4Enum8from_syn0ENtB2e_7VariantINtNtB6_6result6ResultNtNtB6_7convert10InfallibleNtNtB1b_5error5ErrorENCINvXso_B3r_IB3p_INtNtCsiTraAjBDcu4_5alloc3vec3VecB3a_EB4b_EINtNtNtB4_6traits7collect12FromIteratorIB3p_B3a_B4b_EE9from_iterBQ_E0B4O_EB2g_, symObjAddr: 0x18C, symBinAddr: 0x25490, symSize: 0x19C }
  - { offset: 0x69A2A, size: 0x8, addend: 0x0, symName: __RINvXNtNtCsaNl6UpbT7bw_4core4iter8adaptersINtB3_12GenericShuntINtNtB3_3map3MapINtNtB3_9enumerate9EnumerateINtNtCsc29TF2YcYso_3syn10punctuated4IterNtNtB1L_4data5FieldEENCNvMs2_NtCsfWotccrMQ3I_14thiserror_impl3astNtB2N_5Field17multiple_from_syn0EINtNtB7_6result6ResultNtNtB7_7convert10InfallibleNtNtB1L_5error5ErrorEENtNtNtB5_6traits8iterator8Iterator8try_folduNCINvNvB53_12try_for_each4callB3n_INtNtNtB7_3ops12control_flow11ControlFlowB3n_ENcNtB6j_5Break0E0B6j_EB2P_, symObjAddr: 0x1AF4, symBinAddr: 0x26DF8, symSize: 0xC4 }
  - { offset: 0x69AE9, size: 0x8, addend: 0x0, symName: __RINvXNtNtCsaNl6UpbT7bw_4core4iter8adaptersINtB3_12GenericShuntINtNtB3_3map3MapINtNtCsc29TF2YcYso_3syn10punctuated4IterNtNtB1j_4data7VariantENCNvMs0_NtCsfWotccrMQ3I_14thiserror_impl3astNtB2m_4Enum8from_syn0EINtNtB7_6result6ResultNtNtB7_7convert10InfallibleNtNtB1j_5error5ErrorEENtNtNtB5_6traits8iterator8Iterator8try_folduNCINvNvB4r_12try_for_each4callNtB2m_7VariantINtNtNtB7_3ops12control_flow11ControlFlowB5D_ENcNtB5R_5Break0E0B5R_EB2o_, symObjAddr: 0x1BB8, symBinAddr: 0x26EBC, symSize: 0xC0 }
  - { offset: 0x69BAD, size: 0x8, addend: 0x0, symName: __RNCINvXNtNtCsaNl6UpbT7bw_4core4iter8adaptersINtB5_12GenericShuntINtNtB5_3map3MapINtNtB5_9enumerate9EnumerateINtNtCsc29TF2YcYso_3syn10punctuated4IterNtNtB1N_4data5FieldEENCNvMs2_NtCsfWotccrMQ3I_14thiserror_impl3astNtB2P_5Field17multiple_from_syn0EINtNtB9_6result6ResultNtNtB9_7convert10InfallibleNtNtB1N_5error5ErrorEENtNtNtB7_6traits8iterator8Iterator8try_folduNCINvNvB55_12try_for_each4callB3p_INtNtNtB9_3ops12control_flow11ControlFlowB3p_ENcNtB6l_5Break0E0B6l_E0B2R_, symObjAddr: 0x2308, symBinAddr: 0x2760C, symSize: 0x204 }
  - { offset: 0x69CA0, size: 0x8, addend: 0x0, symName: __RNCINvXNtNtCsaNl6UpbT7bw_4core4iter8adaptersINtB5_12GenericShuntINtNtB5_3map3MapINtNtCsc29TF2YcYso_3syn10punctuated4IterNtNtB1l_4data7VariantENCNvMs0_NtCsfWotccrMQ3I_14thiserror_impl3astNtB2o_4Enum8from_syn0EINtNtB9_6result6ResultNtNtB9_7convert10InfallibleNtNtB1l_5error5ErrorEENtNtNtB7_6traits8iterator8Iterator8try_folduNCINvNvB4t_12try_for_each4callNtB2o_7VariantINtNtNtB9_3ops12control_flow11ControlFlowB5F_ENcNtB5T_5Break0E0B5T_E0B2q_, symObjAddr: 0x250C, symBinAddr: 0x27810, symSize: 0x200 }
  - { offset: 0x69D94, size: 0x8, addend: 0x0, symName: __RNvXNtNtCsaNl6UpbT7bw_4core4iter8adaptersINtB2_12GenericShuntINtNtB2_3map3MapINtNtB2_9enumerate9EnumerateINtNtCsc29TF2YcYso_3syn10punctuated4IterNtNtB1K_4data5FieldEENCNvMs2_NtCsfWotccrMQ3I_14thiserror_impl3astNtB2M_5Field17multiple_from_syn0EINtNtB6_6result6ResultNtNtB6_7convert10InfallibleNtNtB1K_5error5ErrorEENtNtNtB4_6traits8iterator8Iterator4nextB2O_, symObjAddr: 0x2A5C, symBinAddr: 0x27D60, symSize: 0xB0 }
  - { offset: 0x69E23, size: 0x8, addend: 0x0, symName: __RNvXNtNtCsaNl6UpbT7bw_4core4iter8adaptersINtB2_12GenericShuntINtNtB2_3map3MapINtNtB2_9enumerate9EnumerateINtNtCsc29TF2YcYso_3syn10punctuated4IterNtNtB1K_4data5FieldEENCNvMs2_NtCsfWotccrMQ3I_14thiserror_impl3astNtB2M_5Field17multiple_from_syn0EINtNtB6_6result6ResultNtNtB6_7convert10InfallibleNtNtB1K_5error5ErrorEENtNtNtB4_6traits8iterator8Iterator9size_hintB2O_, symObjAddr: 0x2B0C, symBinAddr: 0x27E10, symSize: 0xA8 }
  - { offset: 0x69E9B, size: 0x8, addend: 0x0, symName: __RNvXNtNtCsaNl6UpbT7bw_4core4iter8adaptersINtB2_12GenericShuntINtNtB2_3map3MapINtNtCsc29TF2YcYso_3syn10punctuated4IterNtNtB1i_4data7VariantENCNvMs0_NtCsfWotccrMQ3I_14thiserror_impl3astNtB2l_4Enum8from_syn0EINtNtB6_6result6ResultNtNtB6_7convert10InfallibleNtNtB1i_5error5ErrorEENtNtNtB4_6traits8iterator8Iterator4nextB2n_, symObjAddr: 0x2BB4, symBinAddr: 0x27EB8, symSize: 0xB0 }
  - { offset: 0x69F2A, size: 0x8, addend: 0x0, symName: __RNvXNtNtCsaNl6UpbT7bw_4core4iter8adaptersINtB2_12GenericShuntINtNtB2_3map3MapINtNtCsc29TF2YcYso_3syn10punctuated4IterNtNtB1i_4data7VariantENCNvMs0_NtCsfWotccrMQ3I_14thiserror_impl3astNtB2l_4Enum8from_syn0EINtNtB6_6result6ResultNtNtB6_7convert10InfallibleNtNtB1i_5error5ErrorEENtNtNtB4_6traits8iterator8Iterator9size_hintB2n_, symObjAddr: 0x2C64, symBinAddr: 0x27F68, symSize: 0xA8 }
  - { offset: 0x6A2F7, size: 0x8, addend: 0x0, symName: __RINvYINtNtNtCsaNl6UpbT7bw_4core4iter8adapters12GenericShuntINtNtB6_3map3MapINtNtB6_9enumerate9EnumerateINtNtCsc29TF2YcYso_3syn10punctuated4IterNtNtB1I_4data5FieldEENCNvMs2_NtCsfWotccrMQ3I_14thiserror_impl3astNtB2K_5Field17multiple_from_syn0EINtNtBa_6result6ResultNtNtBa_7convert10InfallibleNtNtB1I_5error5ErrorEENtNtNtB8_6traits8iterator8Iterator7collectINtNtCsiTraAjBDcu4_5alloc3vec3VecB3k_EEB2M_, symObjAddr: 0x20F4, symBinAddr: 0x273F8, symSize: 0x74 }
  - { offset: 0x6A38D, size: 0x8, addend: 0x0, symName: __RINvYINtNtNtCsaNl6UpbT7bw_4core4iter8adapters12GenericShuntINtNtB6_3map3MapINtNtCsc29TF2YcYso_3syn10punctuated4IterNtNtB1g_4data7VariantENCNvMs0_NtCsfWotccrMQ3I_14thiserror_impl3astNtB2j_4Enum8from_syn0EINtNtBa_6result6ResultNtNtBa_7convert10InfallibleNtNtB1g_5error5ErrorEENtNtNtB8_6traits8iterator8Iterator7collectINtNtCsiTraAjBDcu4_5alloc3vec3VecNtB2j_7VariantEEB2l_, symObjAddr: 0x2168, symBinAddr: 0x2746C, symSize: 0x74 }
  - { offset: 0x6A423, size: 0x8, addend: 0x0, symName: __RINvYNtNtCshnvkK9b4wzu_11proc_macro212token_stream8IntoIterNtNtNtNtCsaNl6UpbT7bw_4core4iter6traits8iterator8Iterator4folduNCINvNvBV_8for_each4callNtB7_9TokenTreeNCINvXsa_NtB7_8fallbackNtB2I_11TokenStreamINtNtBZ_7collect6ExtendB2k_E6extendNtB7_11TokenStreamE0E0ECsfWotccrMQ3I_14thiserror_impl, symObjAddr: 0x21DC, symBinAddr: 0x274E0, symSize: 0x108 }
  - { offset: 0x6A4B4, size: 0x8, addend: 0x0, symName: __RINvYNtNtCshnvkK9b4wzu_11proc_macro212token_stream8IntoIterNtNtNtNtCsaNl6UpbT7bw_4core4iter6traits8iterator8Iterator8for_eachNCINvXsa_NtB7_8fallbackNtB28_11TokenStreamINtNtBZ_7collect6ExtendNtB7_9TokenTreeE6extendNtB7_11TokenStreamE0ECsfWotccrMQ3I_14thiserror_impl, symObjAddr: 0x22E4, symBinAddr: 0x275E8, symSize: 0x24 }
  - { offset: 0x6A5E9, size: 0x8, addend: 0x0, symName: __RNvXNtNtNtCsaNl6UpbT7bw_4core4iter6traits7collectINtNtB6_8adapters12GenericShuntINtNtBO_3map3MapINtNtBO_9enumerate9EnumerateINtNtCsc29TF2YcYso_3syn10punctuated4IterNtNtB23_4data5FieldEENCNvMs2_NtCsfWotccrMQ3I_14thiserror_impl3astNtB35_5Field17multiple_from_syn0EINtNtB8_6result6ResultNtNtB8_7convert10InfallibleNtNtB23_5error5ErrorEENtB2_12IntoIterator9into_iterB37_, symObjAddr: 0x2D0C, symBinAddr: 0x28010, symSize: 0x30 }
  - { offset: 0x6A621, size: 0x8, addend: 0x0, symName: __RNvXNtNtNtCsaNl6UpbT7bw_4core4iter6traits7collectINtNtB6_8adapters12GenericShuntINtNtBO_3map3MapINtNtCsc29TF2YcYso_3syn10punctuated4IterNtNtB1B_4data7VariantENCNvMs0_NtCsfWotccrMQ3I_14thiserror_impl3astNtB2E_4Enum8from_syn0EINtNtB8_6result6ResultNtNtB8_7convert10InfallibleNtNtB1B_5error5ErrorEENtB2_12IntoIterator9into_iterB2G_, symObjAddr: 0x2D3C, symBinAddr: 0x28040, symSize: 0x30 }
  - { offset: 0x6A72C, size: 0x8, addend: 0x0, symName: __RINvNtNtNtNtCsaNl6UpbT7bw_4core5slice4sort6shared5pivot11median3_recRNtCshnvkK9b4wzu_11proc_macro25IdentNvYB14_NtNtBa_3cmp10PartialOrd2ltECsfWotccrMQ3I_14thiserror_impl, symObjAddr: 0x328, symBinAddr: 0x2562C, symSize: 0x1CC }
  - { offset: 0x6A926, size: 0x8, addend: 0x0, symName: __RINvNtNtNtNtCsaNl6UpbT7bw_4core5slice4sort6shared5pivot12choose_pivotRNtCshnvkK9b4wzu_11proc_macro25IdentNvYB15_NtNtBa_3cmp10PartialOrd2ltECsfWotccrMQ3I_14thiserror_impl, symObjAddr: 0x4F4, symBinAddr: 0x257F8, symSize: 0x208 }
  - { offset: 0x6AB78, size: 0x8, addend: 0x0, symName: __RINvNtNtNtNtCsaNl6UpbT7bw_4core5slice4sort6shared9smallsort11insert_tailRNtCshnvkK9b4wzu_11proc_macro25IdentNvYB18_NtNtBa_3cmp10PartialOrd2ltECsfWotccrMQ3I_14thiserror_impl, symObjAddr: 0x6FC, symBinAddr: 0x25A00, symSize: 0x1A8 }
  - { offset: 0x6ACD2, size: 0x8, addend: 0x0, symName: __RINvNtNtNtNtCsaNl6UpbT7bw_4core5slice4sort6shared9smallsort12sort4_stableRNtCshnvkK9b4wzu_11proc_macro25IdentNvYB19_NtNtBa_3cmp10PartialOrd2ltECsfWotccrMQ3I_14thiserror_impl, symObjAddr: 0x8A4, symBinAddr: 0x25BA8, symSize: 0x5B0 }
  - { offset: 0x6B669, size: 0x8, addend: 0x0, symName: __RINvNtNtNtNtCsaNl6UpbT7bw_4core5slice4sort6shared9smallsort12sort8_stableRNtCshnvkK9b4wzu_11proc_macro25IdentNvYB19_NtNtBa_3cmp10PartialOrd2ltECsfWotccrMQ3I_14thiserror_impl, symObjAddr: 0xE54, symBinAddr: 0x26158, symSize: 0x94 }
  - { offset: 0x6B818, size: 0x8, addend: 0x0, symName: __RINvNtNtNtNtCsaNl6UpbT7bw_4core5slice4sort6shared9smallsort19bidirectional_mergeRNtCshnvkK9b4wzu_11proc_macro25IdentNvYB1g_NtNtBa_3cmp10PartialOrd2ltECsfWotccrMQ3I_14thiserror_impl, symObjAddr: 0xEE8, symBinAddr: 0x261EC, symSize: 0x558 }
  - { offset: 0x6BEAC, size: 0x8, addend: 0x0, symName: __RINvNtNtNtNtCsaNl6UpbT7bw_4core5slice4sort6shared9smallsort25insertion_sort_shift_leftRNtCshnvkK9b4wzu_11proc_macro25IdentNvYB1m_NtNtBa_3cmp10PartialOrd2ltECsfWotccrMQ3I_14thiserror_impl, symObjAddr: 0x1440, symBinAddr: 0x26744, symSize: 0xC4 }
  - { offset: 0x6BFE6, size: 0x8, addend: 0x0, symName: __RINvNtNtNtNtCsaNl6UpbT7bw_4core5slice4sort6shared9smallsort31small_sort_general_with_scratchRNtCshnvkK9b4wzu_11proc_macro25IdentNvYB1s_NtNtBa_3cmp10PartialOrd2ltECsfWotccrMQ3I_14thiserror_impl, symObjAddr: 0x1504, symBinAddr: 0x26808, symSize: 0x520 }
  - { offset: 0x6C4C3, size: 0x8, addend: 0x0, symName: __RNvXs5_NtNtNtNtCsaNl6UpbT7bw_4core5slice4sort6shared9smallsortINtB5_10CopyOnDropRNtCshnvkK9b4wzu_11proc_macro25IdentENtNtNtBd_3ops4drop4Drop4dropCsfWotccrMQ3I_14thiserror_impl, symObjAddr: 0x2DFC, symBinAddr: 0x28100, symSize: 0x84 }
  - { offset: 0x6C56C, size: 0x8, addend: 0x0, symName: __RNvXs0_NtNtNtNtCsaNl6UpbT7bw_4core5slice4sort6stable9quicksortRNtCshnvkK9b4wzu_11proc_macro25IdentNtB5_8IsFreeze9is_freezeCsfWotccrMQ3I_14thiserror_impl, symObjAddr: 0x2D84, symBinAddr: 0x28088, symSize: 0xC }
  - { offset: 0x6C65F, size: 0x8, addend: 0x0, symName: __RNvMNtCsaNl6UpbT7bw_4core5sliceSNtCshnvkK9b4wzu_11proc_macro211TokenStream4iterCsfWotccrMQ3I_14thiserror_impl, symObjAddr: 0x270C, symBinAddr: 0x27A10, symSize: 0x28 }
  - { offset: 0x6C6BD, size: 0x8, addend: 0x0, symName: __RNvMNtCsaNl6UpbT7bw_4core5sliceSRNtCshnvkK9b4wzu_11proc_macro25Ident22split_at_mut_uncheckedCsfWotccrMQ3I_14thiserror_impl, symObjAddr: 0x2734, symBinAddr: 0x27A38, symSize: 0xF8 }
  - { offset: 0x6C85D, size: 0x8, addend: 0x0, symName: __RNvMNtCsaNl6UpbT7bw_4core5sliceSRNtCshnvkK9b4wzu_11proc_macro25Ident7reverseCsfWotccrMQ3I_14thiserror_impl, symObjAddr: 0x282C, symBinAddr: 0x27B30, symSize: 0x10C }
  - { offset: 0x6C9ED, size: 0x8, addend: 0x0, symName: __RNvMNtCsaNl6UpbT7bw_4core5sliceSTNtCshnvkK9b4wzu_11proc_macro211TokenStreamNtNtCsc29TF2YcYso_3syn5token4PlusE4iterCsfWotccrMQ3I_14thiserror_impl, symObjAddr: 0x2938, symBinAddr: 0x27C3C, symSize: 0x28 }
  - { offset: 0x6CA24, size: 0x8, addend: 0x0, symName: __RNvMNtCsaNl6UpbT7bw_4core5sliceSTNtCshnvkK9b4wzu_11proc_macro25IdentNtBx_11TokenStreamE4iterCsfWotccrMQ3I_14thiserror_impl, symObjAddr: 0x2960, symBinAddr: 0x27C64, symSize: 0x28 }
  - { offset: 0x70002, size: 0x8, addend: 0x0, symName: __RNvXs1_NtCsaNl6UpbT7bw_4core7convertNtCshnvkK9b4wzu_11proc_macro211TokenStreamINtB5_4IntoNtCs7yrEGia95Wz_10proc_macro11TokenStreamE4intoCsfWotccrMQ3I_14thiserror_impl, symObjAddr: 0x2D90, symBinAddr: 0x28094, symSize: 0x14 }
  - { offset: 0x7004F, size: 0x8, addend: 0x0, symName: __RNvXs0_NtCsaNl6UpbT7bw_4core6borrowRNtCshnvkK9b4wzu_11proc_macro25IdentINtB5_6BorrowBy_E6borrowCsfWotccrMQ3I_14thiserror_impl, symObjAddr: 0x2D6C, symBinAddr: 0x28070, symSize: 0x18 }
  - { offset: 0x7025B, size: 0x8, addend: 0x0, symName: __RNvXsw_NtCsiTraAjBDcu4_5alloc6stringNtCshnvkK9b4wzu_11proc_macro211TokenStreamNtB5_8ToString9to_stringCsfWotccrMQ3I_14thiserror_impl, symObjAddr: 0x3354, symBinAddr: 0x28658, symSize: 0x24 }
  - { offset: 0x70292, size: 0x8, addend: 0x0, symName: __RNvXsw_NtCsiTraAjBDcu4_5alloc6stringNtNtCsc29TF2YcYso_3syn3lit8LitFloatNtB5_8ToString9to_stringCsfWotccrMQ3I_14thiserror_impl, symObjAddr: 0x3378, symBinAddr: 0x2867C, symSize: 0x24 }
  - { offset: 0x702CF, size: 0x8, addend: 0x0, symName: __RNvXsx_NtCsiTraAjBDcu4_5alloc6stringNtCshnvkK9b4wzu_11proc_macro211TokenStreamNtB5_12SpecToString14spec_to_stringCsfWotccrMQ3I_14thiserror_impl, symObjAddr: 0x339C, symBinAddr: 0x286A0, symSize: 0xF4 }
  - { offset: 0x70399, size: 0x8, addend: 0x0, symName: __RNvXsx_NtCsiTraAjBDcu4_5alloc6stringNtNtCsc29TF2YcYso_3syn3lit8LitFloatNtB5_12SpecToString14spec_to_stringCsfWotccrMQ3I_14thiserror_impl, symObjAddr: 0x3490, symBinAddr: 0x28794, symSize: 0xF4 }
  - { offset: 0x718BA, size: 0x8, addend: 0x0, symName: __RINvXNvMNtCsiTraAjBDcu4_5alloc5sliceSp9to_vec_inTNtCshnvkK9b4wzu_11proc_macro25IdentNtBN_11TokenStreamENtB3_10ConvertVec6to_vecNtNtB8_5alloc6GlobalECsfWotccrMQ3I_14thiserror_impl, symObjAddr: 0x1C78, symBinAddr: 0x26F7C, symSize: 0x370 }
  - { offset: 0x720CE, size: 0x8, addend: 0x0, symName: __RNvXNtNtCs7yrEGia95Wz_10proc_macro6bridge3rpcuINtB2_6EncodeuE6encodeCsfWotccrMQ3I_14thiserror_impl, symObjAddr: 0x2A48, symBinAddr: 0x27D4C, symSize: 0x14 }
  - { offset: 0x72147, size: 0x8, addend: 0x0, symName: __RNvXsa_NtNtCs7yrEGia95Wz_10proc_macro6bridge3rpcRShINtB5_6EncodeuE6encodeCsfWotccrMQ3I_14thiserror_impl, symObjAddr: 0x3014, symBinAddr: 0x28318, symSize: 0xD8 }
  - { offset: 0x72249, size: 0x8, addend: 0x0, symName: __RNvXsc_NtNtCs7yrEGia95Wz_10proc_macro6bridge3rpcReINtB5_6EncodeuE6encodeCsfWotccrMQ3I_14thiserror_impl, symObjAddr: 0x30EC, symBinAddr: 0x283F0, symSize: 0x38 }
  - { offset: 0x72331, size: 0x8, addend: 0x0, symName: __RNvXsl_NtNtCs7yrEGia95Wz_10proc_macro6bridge3rpcNtB5_12PanicMessageINtB5_6EncodeuE6encodeCsfWotccrMQ3I_14thiserror_impl, symObjAddr: 0x3124, symBinAddr: 0x28428, symSize: 0x128 }
  - { offset: 0x724F7, size: 0x8, addend: 0x0, symName: __RNvXso_NtNtCs7yrEGia95Wz_10proc_macro6bridge3rpcmINtB5_9DecodeMutuE6decodeCsfWotccrMQ3I_14thiserror_impl, symObjAddr: 0x324C, symBinAddr: 0x28550, symSize: 0x108 }
  - { offset: 0x72EC5, size: 0x8, addend: 0x0, symName: __RINvXs4_CshnvkK9b4wzu_11proc_macro2NtB6_11TokenStreamINtNtNtNtCsaNl6UpbT7bw_4core4iter6traits7collect6ExtendNtB6_9TokenTreeE6extendBx_ECsfWotccrMQ3I_14thiserror_impl, symObjAddr: 0x1FE8, symBinAddr: 0x272EC, symSize: 0x34 }
  - { offset: 0x72F0E, size: 0x8, addend: 0x0, symName: __RINvXs6_CshnvkK9b4wzu_11proc_macro2NtB6_11TokenStreamINtNtNtNtCsaNl6UpbT7bw_4core4iter6traits7collect12FromIteratorNtB6_9TokenTreeE9from_iterINtNtCsiTraAjBDcu4_5alloc3vec3VecB1P_EECsfWotccrMQ3I_14thiserror_impl, symObjAddr: 0x201C, symBinAddr: 0x27320, symSize: 0x54 }
  - { offset: 0x72F4C, size: 0x8, addend: 0x0, symName: __RINvXsz_CshnvkK9b4wzu_11proc_macro2NtB6_5IdentNtNtCsaNl6UpbT7bw_4core4hash4Hash4hashNtNtNtCsht3nMU9UgFu_3std4hash6random13DefaultHasherECsfWotccrMQ3I_14thiserror_impl, symObjAddr: 0x2070, symBinAddr: 0x27374, symSize: 0x84 }
  - { offset: 0x72F94, size: 0x8, addend: 0x0, symName: __RNvXsG_CshnvkK9b4wzu_11proc_macro2NtB5_11TokenStreamNtNtCsaNl6UpbT7bw_4core5clone5Clone5cloneCsfWotccrMQ3I_14thiserror_impl, symObjAddr: 0x2EE8, symBinAddr: 0x281EC, symSize: 0x78 }
  - { offset: 0x72FC6, size: 0x8, addend: 0x0, symName: __RNvXsX_CshnvkK9b4wzu_11proc_macro2NtB5_7SpacingNtNtCsaNl6UpbT7bw_4core3cmp9PartialEq2eqCsfWotccrMQ3I_14thiserror_impl, symObjAddr: 0x2F60, symBinAddr: 0x28264, symSize: 0x3C }
  - { offset: 0x73045, size: 0x8, addend: 0x0, symName: __RNvXsY_CshnvkK9b4wzu_11proc_macro2NtB5_5IdentNtNtCsaNl6UpbT7bw_4core5clone5Clone5cloneCsfWotccrMQ3I_14thiserror_impl, symObjAddr: 0x2F9C, symBinAddr: 0x282A0, symSize: 0x78 }
  - { offset: 0x735C9, size: 0x8, addend: 0x0, symName: __RINvXNtCs4EAaWzSXu1l_5quote3extNtCshnvkK9b4wzu_11proc_macro211TokenStreamNtB3_14TokenStreamExt10append_allINtNtCsc29TF2YcYso_3syn10punctuated5PairsBt_NtNtB1L_5token4PlusEECsfWotccrMQ3I_14thiserror_impl, symObjAddr: 0x1A24, symBinAddr: 0x26D28, symSize: 0xD0 }
  - { offset: 0x73647, size: 0x8, addend: 0x0, symName: __RNvXNtCs4EAaWzSXu1l_5quote9to_tokensRNtCshnvkK9b4wzu_11proc_macro211TokenStreamNtB2_8ToTokens9to_tokensCsfWotccrMQ3I_14thiserror_impl, symObjAddr: 0x2988, symBinAddr: 0x27C8C, symSize: 0x40 }
  - { offset: 0x73686, size: 0x8, addend: 0x0, symName: __RNvXNtCs4EAaWzSXu1l_5quote9to_tokensRNtCshnvkK9b4wzu_11proc_macro25IdentNtB2_8ToTokens9to_tokensCsfWotccrMQ3I_14thiserror_impl, symObjAddr: 0x29C8, symBinAddr: 0x27CCC, symSize: 0x40 }
  - { offset: 0x736C5, size: 0x8, addend: 0x0, symName: __RNvXNtCs4EAaWzSXu1l_5quote9to_tokensRNtNtCsc29TF2YcYso_3syn3lit6LitStrNtB2_8ToTokens9to_tokensCsfWotccrMQ3I_14thiserror_impl, symObjAddr: 0x2A08, symBinAddr: 0x27D0C, symSize: 0x40 }
  - { offset: 0x7370A, size: 0x8, addend: 0x0, symName: __RNvYNtCshnvkK9b4wzu_11proc_macro211TokenStreamNtNtCs4EAaWzSXu1l_5quote9to_tokens8ToTokens15to_token_streamCsfWotccrMQ3I_14thiserror_impl, symObjAddr: 0x3584, symBinAddr: 0x28888, symSize: 0x8C }
  - { offset: 0x73754, size: 0x8, addend: 0x0, symName: __RNvYNtCshnvkK9b4wzu_11proc_macro25IdentNtNtCs4EAaWzSXu1l_5quote9to_tokens8ToTokens15to_token_streamCsfWotccrMQ3I_14thiserror_impl, symObjAddr: 0x3640, symBinAddr: 0x28944, symSize: 0x8C }
  - { offset: 0x7379E, size: 0x8, addend: 0x0, symName: __RNvYNtCshnvkK9b4wzu_11proc_macro25IdentNtNtCs4EAaWzSXu1l_5quote9to_tokens8ToTokens17into_token_streamCsfWotccrMQ3I_14thiserror_impl, symObjAddr: 0x36CC, symBinAddr: 0x289D0, symSize: 0x64 }
  - { offset: 0x737D4, size: 0x8, addend: 0x0, symName: __RNvYRNtCshnvkK9b4wzu_11proc_macro211TokenStreamNtNtCs4EAaWzSXu1l_5quote9to_tokens8ToTokens15to_token_streamCsfWotccrMQ3I_14thiserror_impl, symObjAddr: 0x37D0, symBinAddr: 0x28AD4, symSize: 0x8C }
  - { offset: 0x7381E, size: 0x8, addend: 0x0, symName: __RNvYRNtCshnvkK9b4wzu_11proc_macro211TokenStreamNtNtCs4EAaWzSXu1l_5quote9to_tokens8ToTokens17into_token_streamCsfWotccrMQ3I_14thiserror_impl, symObjAddr: 0x385C, symBinAddr: 0x28B60, symSize: 0x54 }
  - { offset: 0x73853, size: 0x8, addend: 0x0, symName: __RNvYRNtNtCsc29TF2YcYso_3syn4data7VariantNtNtCs4EAaWzSXu1l_5quote9to_tokens8ToTokens15to_token_streamCsfWotccrMQ3I_14thiserror_impl, symObjAddr: 0x38B0, symBinAddr: 0x28BB4, symSize: 0x8C }
  - { offset: 0x7389D, size: 0x8, addend: 0x0, symName: __RNvYRNtNtCsc29TF2YcYso_3syn4data7VariantNtNtCs4EAaWzSXu1l_5quote9to_tokens8ToTokens17into_token_streamCsfWotccrMQ3I_14thiserror_impl, symObjAddr: 0x393C, symBinAddr: 0x28C40, symSize: 0x54 }
  - { offset: 0x794DB, size: 0x8, addend: 0x0, symName: __RNvXs1_NtCsg4dki62PTrg_9hashbrown10scopeguardINtB5_10ScopeGuardNtNtB7_3raw13RawTableInnerNCINvMsa_B11_BZ_14prepare_resizeNtNtCsiTraAjBDcu4_5alloc5alloc6GlobalE0ENtNtNtCsaNl6UpbT7bw_4core3ops4drop4Drop4dropCsfWotccrMQ3I_14thiserror_impl, symObjAddr: 0x2DA4, symBinAddr: 0x280A8, symSize: 0x2C }
  - { offset: 0x79515, size: 0x8, addend: 0x0, symName: __RNvXs1_NtCsg4dki62PTrg_9hashbrown10scopeguardINtB5_10ScopeGuardQNtNtB7_3raw13RawTableInnerNCNvMsa_B12_B10_15rehash_in_place0ENtNtNtCsaNl6UpbT7bw_4core3ops4drop4Drop4dropCsfWotccrMQ3I_14thiserror_impl, symObjAddr: 0x2DD0, symBinAddr: 0x280D4, symSize: 0x2C }
  - { offset: 0x79B8E, size: 0x8, addend: 0x0, symName: __RINvMs9_NtCsc29TF2YcYso_3syn5parseNtB6_11ParseBuffer4stepNCNvNtCsfWotccrMQ3I_14thiserror_impl9scan_expr9scan_expr0bEBZ_, symObjAddr: 0x0, symBinAddr: 0x28C94, symSize: 0x1A0 }
  - { offset: 0x7C447, size: 0x8, addend: 0x0, symName: __RNvNvMNtNtCsaNl6UpbT7bw_4core3ptr9const_ptrPp20offset_from_unsigned18precondition_checkCsfWotccrMQ3I_14thiserror_impl, symObjAddr: 0x1C00, symBinAddr: 0x2A894, symSize: 0xAC }
  - { offset: 0x7F97A, size: 0x8, addend: 0x0, symName: __RINvNvMNtCsaNl6UpbT7bw_4core5sliceSp7reverse7revswapRNtCshnvkK9b4wzu_11proc_macro25IdentECsfWotccrMQ3I_14thiserror_impl, symObjAddr: 0xC64, symBinAddr: 0x298F8, symSize: 0x270 }
  - { offset: 0x7FB37, size: 0x8, addend: 0x0, symName: __RNvMNtCsaNl6UpbT7bw_4core5sliceSh15copy_from_sliceCsfWotccrMQ3I_14thiserror_impl, symObjAddr: 0x1868, symBinAddr: 0x2A4FC, symSize: 0xAC }
  - { offset: 0x7FBE0, size: 0x8, addend: 0x0, symName: __RNvNvMNtCsaNl6UpbT7bw_4core5sliceSp22split_at_mut_unchecked18precondition_checkCsfWotccrMQ3I_14thiserror_impl, symObjAddr: 0x1B54, symBinAddr: 0x2A7E8, symSize: 0xAC }
  - { offset: 0x7FC54, size: 0x8, addend: 0x0, symName: __RINvXs2V_NtNtCsaNl6UpbT7bw_4core5slice4iterINtB7_4IterNtNtCsfWotccrMQ3I_14thiserror_impl3ast5FieldENtNtNtNtBb_4iter6traits8iterator8Iterator8find_mapNtNtBU_4attr6SourceNCNvMs1_NtBU_5validNtBS_7Variant8validate0EBU_, symObjAddr: 0xED4, symBinAddr: 0x29B68, symSize: 0xDC }
  - { offset: 0x7FCD8, size: 0x8, addend: 0x0, symName: __RINvXs2V_NtNtCsaNl6UpbT7bw_4core5slice4iterINtB7_4IterNtNtCsfWotccrMQ3I_14thiserror_impl3ast5FieldENtNtNtNtBb_4iter6traits8iterator8Iterator8find_mapNtNtBU_4attr6SourceNCNvMs_NtBU_5validNtBS_6Struct8validate0EBU_, symObjAddr: 0xFB0, symBinAddr: 0x29C44, symSize: 0xDC }
  - { offset: 0x7FD5C, size: 0x8, addend: 0x0, symName: __RINvXs2V_NtNtCsaNl6UpbT7bw_4core5slice4iterINtB7_4IterNtNtCsfWotccrMQ3I_14thiserror_impl3ast7VariantENtNtNtNtBb_4iter6traits8iterator8Iterator3allNCNvMs_NtBU_4propNtBS_4Enum11has_displays_0EBU_, symObjAddr: 0x108C, symBinAddr: 0x29D20, symSize: 0xAC }
  - { offset: 0x7FDC1, size: 0x8, addend: 0x0, symName: __RINvXs2V_NtNtCsaNl6UpbT7bw_4core5slice4iterINtB7_4IterNtNtCsfWotccrMQ3I_14thiserror_impl3ast7VariantENtNtNtNtBb_4iter6traits8iterator8Iterator3anyNCNvMs_NtBU_4propNtBS_4Enum10has_source0EBU_, symObjAddr: 0x1138, symBinAddr: 0x29DCC, symSize: 0xAC }
  - { offset: 0x7FE26, size: 0x8, addend: 0x0, symName: __RINvXs2V_NtNtCsaNl6UpbT7bw_4core5slice4iterINtB7_4IterNtNtCsfWotccrMQ3I_14thiserror_impl3ast7VariantENtNtNtNtBb_4iter6traits8iterator8Iterator3anyNCNvMs_NtBU_4propNtBS_4Enum11has_display0EBU_, symObjAddr: 0x11E4, symBinAddr: 0x29E78, symSize: 0xAC }
  - { offset: 0x7FE8B, size: 0x8, addend: 0x0, symName: __RINvXs2V_NtNtCsaNl6UpbT7bw_4core5slice4iterINtB7_4IterNtNtCsfWotccrMQ3I_14thiserror_impl3ast7VariantENtNtNtNtBb_4iter6traits8iterator8Iterator3anyNCNvMs_NtBU_4propNtBS_4Enum13has_backtrace0EBU_, symObjAddr: 0x1290, symBinAddr: 0x29F24, symSize: 0xAC }
  - { offset: 0x7FEF0, size: 0x8, addend: 0x0, symName: __RINvXs2V_NtNtCsaNl6UpbT7bw_4core5slice4iterINtB7_4IterNtNtCsfWotccrMQ3I_14thiserror_impl3ast7VariantENtNtNtNtBb_4iter6traits8iterator8Iterator3anyNCNvNtBU_6expand9impl_enums0_0EBU_, symObjAddr: 0x133C, symBinAddr: 0x29FD0, symSize: 0xAC }
  - { offset: 0x7FF55, size: 0x8, addend: 0x0, symName: __RINvXs2V_NtNtCsaNl6UpbT7bw_4core5slice4iterINtB7_4IterNtNtCsfWotccrMQ3I_14thiserror_impl3ast7VariantENtNtNtNtBb_4iter6traits8iterator8Iterator4folduNCINvNtNtB1H_8adapters3map8map_foldRBQ_NtCshnvkK9b4wzu_11proc_macro211TokenStreamuNCNvNtBU_6expand9impl_enums1_0NCINvNvB1B_8for_each4callB2Z_NCINvMsi_NtCsiTraAjBDcu4_5alloc3vecINtB4M_3VecB2Z_E14extend_trustedINtB2r_3MapBF_B3G_EE0E0E0EBU_, symObjAddr: 0x13E8, symBinAddr: 0x2A07C, symSize: 0x1C0 }
  - { offset: 0x800AA, size: 0x8, addend: 0x0, symName: __RINvXs2V_NtNtCsaNl6UpbT7bw_4core5slice4iterINtB7_4IterNtNtCsfWotccrMQ3I_14thiserror_impl3ast7VariantENtNtNtNtBb_4iter6traits8iterator8Iterator8find_mapNtCshnvkK9b4wzu_11proc_macro211TokenStreamQNCNvNtBU_6expand9impl_enums2_0EBU_, symObjAddr: 0x15A8, symBinAddr: 0x2A23C, symSize: 0xE8 }
  - { offset: 0x8012E, size: 0x8, addend: 0x0, symName: __RNvXs2V_NtNtCsaNl6UpbT7bw_4core5slice4iterINtB6_4IterNtCshnvkK9b4wzu_11proc_macro211TokenStreamENtNtNtNtBa_4iter6traits8iterator8Iterator4nextCsfWotccrMQ3I_14thiserror_impl, symObjAddr: 0x1E2C, symBinAddr: 0x2AAC0, symSize: 0xB0 }
  - { offset: 0x80268, size: 0x8, addend: 0x0, symName: __RNvXs2V_NtNtCsaNl6UpbT7bw_4core5slice4iterINtB6_4IterNtNtCsfWotccrMQ3I_14thiserror_impl3ast5FieldENtNtNtNtBa_4iter6traits8iterator8Iterator4nextBT_, symObjAddr: 0x1EDC, symBinAddr: 0x2AB70, symSize: 0xB0 }
  - { offset: 0x803A2, size: 0x8, addend: 0x0, symName: __RNvXs2V_NtNtCsaNl6UpbT7bw_4core5slice4iterINtB6_4IterNtNtCsfWotccrMQ3I_14thiserror_impl3ast7VariantENtNtNtNtBa_4iter6traits8iterator8Iterator4nextBT_, symObjAddr: 0x1F8C, symBinAddr: 0x2AC20, symSize: 0xB0 }
  - { offset: 0x804DC, size: 0x8, addend: 0x0, symName: __RNvXs2V_NtNtCsaNl6UpbT7bw_4core5slice4iterINtB6_4IterNtNtCsfWotccrMQ3I_14thiserror_impl3ast7VariantENtNtNtNtBa_4iter6traits8iterator8Iterator9size_hintBT_, symObjAddr: 0x203C, symBinAddr: 0x2ACD0, symSize: 0x70 }
  - { offset: 0x8054B, size: 0x8, addend: 0x0, symName: __RNvXs2V_NtNtCsaNl6UpbT7bw_4core5slice4iterINtB6_4IterNtNtCsfWotccrMQ3I_14thiserror_impl5unraw10IdentUnrawENtNtNtNtBa_4iter6traits8iterator8Iterator4nextBT_, symObjAddr: 0x20AC, symBinAddr: 0x2AD40, symSize: 0xB0 }
  - { offset: 0x80685, size: 0x8, addend: 0x0, symName: __RNvXs2V_NtNtCsaNl6UpbT7bw_4core5slice4iterINtB6_4IterNtNtCsiTraAjBDcu4_5alloc6string6StringENtNtNtNtBa_4iter6traits8iterator8Iterator4nextCsfWotccrMQ3I_14thiserror_impl, symObjAddr: 0x215C, symBinAddr: 0x2ADF0, symSize: 0xB0 }
  - { offset: 0x807BF, size: 0x8, addend: 0x0, symName: __RNvXs2V_NtNtCsaNl6UpbT7bw_4core5slice4iterINtB6_4IterRNtCshnvkK9b4wzu_11proc_macro25IdentENtNtNtNtBa_4iter6traits8iterator8Iterator4nextCsfWotccrMQ3I_14thiserror_impl, symObjAddr: 0x220C, symBinAddr: 0x2AEA0, symSize: 0xB0 }
  - { offset: 0x808F9, size: 0x8, addend: 0x0, symName: __RNvXs2V_NtNtCsaNl6UpbT7bw_4core5slice4iterINtB6_4IterTNtCshnvkK9b4wzu_11proc_macro211TokenStreamNtNtCsc29TF2YcYso_3syn5token4PlusEENtNtNtNtBa_4iter6traits8iterator8Iterator4nextCsfWotccrMQ3I_14thiserror_impl, symObjAddr: 0x22BC, symBinAddr: 0x2AF50, symSize: 0xB0 }
  - { offset: 0x80A33, size: 0x8, addend: 0x0, symName: __RNvXs2V_NtNtCsaNl6UpbT7bw_4core5slice4iterINtB6_4IterTNtCshnvkK9b4wzu_11proc_macro25IdentNtBS_11TokenStreamEENtNtNtNtBa_4iter6traits8iterator8Iterator4nextCsfWotccrMQ3I_14thiserror_impl, symObjAddr: 0x236C, symBinAddr: 0x2B000, symSize: 0xB0 }
  - { offset: 0x80B6D, size: 0x8, addend: 0x0, symName: __RNvXs2V_NtNtCsaNl6UpbT7bw_4core5slice4iterINtB6_4IterTNtNtCsfWotccrMQ3I_14thiserror_impl9scan_expr5InputNtBS_6ActionEENtNtNtNtBa_4iter6traits8iterator8Iterator4nextBU_, symObjAddr: 0x241C, symBinAddr: 0x2B0B0, symSize: 0xB0 }
  - { offset: 0x80CA7, size: 0x8, addend: 0x0, symName: __RNvXs2V_NtNtCsaNl6UpbT7bw_4core5slice4iterINtB6_4IterTjNtNtCsfWotccrMQ3I_14thiserror_impl4attr5TraitEENtNtNtNtBa_4iter6traits8iterator8Iterator4nextBV_, symObjAddr: 0x24CC, symBinAddr: 0x2B160, symSize: 0xB0 }
  - { offset: 0x81002, size: 0x8, addend: 0x0, symName: __RNvXs2W_NtNtCsaNl6UpbT7bw_4core5slice4iterINtB6_4IterTNtNtCsc29TF2YcYso_3syn4data7VariantNtNtBU_5token5CommaEENtNtNtNtBa_4iter6traits12double_ended19DoubleEndedIterator9next_backCsfWotccrMQ3I_14thiserror_impl, symObjAddr: 0x257C, symBinAddr: 0x2B210, symSize: 0x108 }
  - { offset: 0x8115E, size: 0x8, addend: 0x0, symName: __RNvXs2W_NtNtCsaNl6UpbT7bw_4core5slice4iterINtB6_4IterTNtNtCsc29TF2YcYso_3syn4path15GenericArgumentNtNtBU_5token5CommaEENtNtNtNtBa_4iter6traits12double_ended19DoubleEndedIterator9next_backCsfWotccrMQ3I_14thiserror_impl, symObjAddr: 0x2684, symBinAddr: 0x2B318, symSize: 0x108 }
  - { offset: 0x81337, size: 0x8, addend: 0x0, symName: __RNvXs5_NtNtCsaNl6UpbT7bw_4core5slice4iterINtB5_4IterTNtNtCsc29TF2YcYso_3syn4data7VariantNtNtBT_5token5CommaEENtNtB9_5clone5Clone5cloneCsfWotccrMQ3I_14thiserror_impl, symObjAddr: 0x28A4, symBinAddr: 0x2B538, symSize: 0x20 }
  - { offset: 0x8136C, size: 0x8, addend: 0x0, symName: __RNvXs5_NtNtCsaNl6UpbT7bw_4core5slice4iterINtB5_4IterTNtNtCsc29TF2YcYso_3syn4path15GenericArgumentNtNtBT_5token5CommaEENtNtB9_5clone5Clone5cloneCsfWotccrMQ3I_14thiserror_impl, symObjAddr: 0x28C4, symBinAddr: 0x2B558, symSize: 0x20 }
  - { offset: 0x81774, size: 0x8, addend: 0x0, symName: __RINvYINtNtNtCsaNl6UpbT7bw_4core5slice4iter4IterNtNtCsfWotccrMQ3I_14thiserror_impl3ast5FieldENtNtNtNtBa_4iter6traits8iterator8Iterator3mapNtCshnvkK9b4wzu_11proc_macro25IdentNCNCNvNtBN_6expand9impl_enums1_00EBN_, symObjAddr: 0x1690, symBinAddr: 0x2A324, symSize: 0x1C }
  - { offset: 0x817CC, size: 0x8, addend: 0x0, symName: __RINvYINtNtNtCsaNl6UpbT7bw_4core5slice4iter4IterNtNtCsfWotccrMQ3I_14thiserror_impl3ast5FieldENtNtNtNtBa_4iter6traits8iterator8Iterator3mapRNtNtBN_5unraw11MemberUnrawNCNvNtBN_6expand10fields_pat0EBN_, symObjAddr: 0x16AC, symBinAddr: 0x2A340, symSize: 0x1C }
  - { offset: 0x81824, size: 0x8, addend: 0x0, symName: __RINvYINtNtNtCsaNl6UpbT7bw_4core5slice4iter4IterNtNtCsfWotccrMQ3I_14thiserror_impl3ast7VariantENtNtNtNtBa_4iter6traits8iterator8Iterator10filter_mapNtCshnvkK9b4wzu_11proc_macro211TokenStreamNCNvNtBN_6expand9impl_enums2_0EBN_, symObjAddr: 0x16C8, symBinAddr: 0x2A35C, symSize: 0x34 }
  - { offset: 0x81891, size: 0x8, addend: 0x0, symName: __RINvYINtNtNtCsaNl6UpbT7bw_4core5slice4iter4IterNtNtCsfWotccrMQ3I_14thiserror_impl3ast7VariantENtNtNtNtBa_4iter6traits8iterator8Iterator3mapNtCshnvkK9b4wzu_11proc_macro211TokenStreamNCNvNtBN_6expand9impl_enum0EBN_, symObjAddr: 0x16FC, symBinAddr: 0x2A390, symSize: 0x3C }
  - { offset: 0x818FE, size: 0x8, addend: 0x0, symName: __RINvYINtNtNtCsaNl6UpbT7bw_4core5slice4iter4IterNtNtCsfWotccrMQ3I_14thiserror_impl3ast7VariantENtNtNtNtBa_4iter6traits8iterator8Iterator3mapNtCshnvkK9b4wzu_11proc_macro211TokenStreamNCNvNtBN_6expand9impl_enums1_0EBN_, symObjAddr: 0x1738, symBinAddr: 0x2A3CC, symSize: 0x3C }
  - { offset: 0x8196B, size: 0x8, addend: 0x0, symName: __RINvYINtNtNtCsaNl6UpbT7bw_4core5slice4iter4IterNtNtCsfWotccrMQ3I_14thiserror_impl3ast7VariantENtNtNtNtBa_4iter6traits8iterator8Iterator3mapNtCshnvkK9b4wzu_11proc_macro211TokenStreamNCNvNtBN_6expand9impl_enums_0EBN_, symObjAddr: 0x1774, symBinAddr: 0x2A408, symSize: 0x3C }
  - { offset: 0x819D8, size: 0x8, addend: 0x0, symName: __RINvYINtNtNtCsaNl6UpbT7bw_4core5slice4iter4IterTNtCshnvkK9b4wzu_11proc_macro25IdentNtBM_11TokenStreamEENtNtNtNtBa_4iter6traits8iterator8Iterator3mapRB1j_NCNvXNtCsfWotccrMQ3I_14thiserror_impl4attrNtB2w_7DisplayNtNtCs4EAaWzSXu1l_5quote9to_tokens8ToTokens9to_tokenss_0EB2y_, symObjAddr: 0x17B0, symBinAddr: 0x2A444, symSize: 0x1C }
  - { offset: 0x81A30, size: 0x8, addend: 0x0, symName: __RINvYINtNtNtCsaNl6UpbT7bw_4core5slice4iter4IterTNtCshnvkK9b4wzu_11proc_macro25IdentNtBM_11TokenStreamEENtNtNtNtBa_4iter6traits8iterator8Iterator3mapRBK_NCNvXNtCsfWotccrMQ3I_14thiserror_impl4attrNtB2v_7DisplayNtNtCs4EAaWzSXu1l_5quote9to_tokens8ToTokens9to_tokens0EB2x_, symObjAddr: 0x17CC, symBinAddr: 0x2A460, symSize: 0x1C }
  - { offset: 0x81A88, size: 0x8, addend: 0x0, symName: __RINvYINtNtNtCsiTraAjBDcu4_5alloc3vec9into_iter8IntoIterRNtCshnvkK9b4wzu_11proc_macro25IdentENtNtNtNtCsaNl6UpbT7bw_4core4iter6traits8iterator8Iterator3mapTBR_NtNtNtNtBa_11collections5btree7set_val9SetValZSTENCINvMse_NtB2z_3setINtB3r_8BTreeSetBR_E16from_sorted_iterB3_E0ECsfWotccrMQ3I_14thiserror_impl, symObjAddr: 0x17E8, symBinAddr: 0x2A47C, symSize: 0x1C }
  - { offset: 0x81AF5, size: 0x8, addend: 0x0, symName: __RINvYINtNtNtNtCsaNl6UpbT7bw_4core4iter8adapters8peekable8PeekableINtNtB8_3map3MapINtNtNtBc_5slice4iter4IterNtNtCsfWotccrMQ3I_14thiserror_impl3ast5FieldENCNvNtB1L_6expand10fields_pat0EENtNtNtBa_6traits8iterator8Iterator3mapNtCshnvkK9b4wzu_11proc_macro25IdentNCB2s_s_0EB1L_, symObjAddr: 0x1804, symBinAddr: 0x2A498, symSize: 0x1C }
  - { offset: 0x81B62, size: 0x8, addend: 0x0, symName: __RNvYINtNtNtCsaNl6UpbT7bw_4core5slice4iter4IterNtNtCsfWotccrMQ3I_14thiserror_impl3ast5FieldENtNtNtNtB9_4iter6traits8iterator8Iterator9enumerateBM_, symObjAddr: 0x3404, symBinAddr: 0x2C098, symSize: 0x28 }
  - { offset: 0x81C04, size: 0x8, addend: 0x0, symName: __RNvYINtNtNtCsiTraAjBDcu4_5alloc3vec9into_iter8IntoIterRNtCshnvkK9b4wzu_11proc_macro25IdentENtNtNtNtCsaNl6UpbT7bw_4core4iter6traits10exact_size17ExactSizeIterator3lenCsfWotccrMQ3I_14thiserror_impl, symObjAddr: 0x342C, symBinAddr: 0x2C0C0, symSize: 0xC4 }
  - { offset: 0x82094, size: 0x8, addend: 0x0, symName: __RNCNvMs3_NtNtNtCsaNl6UpbT7bw_4core4iter8adapters8peekableINtB7_8PeekableINtNtB9_3map3MapINtNtNtBd_5slice4iter4IterNtNtCsfWotccrMQ3I_14thiserror_impl3ast5FieldENCNvNtB1S_6expand10fields_pat0EE4peek0B1S_, symObjAddr: 0x1820, symBinAddr: 0x2A4B4, symSize: 0x24 }
  - { offset: 0x820CB, size: 0x8, addend: 0x0, symName: __RNCNvMs3_NtNtNtCsaNl6UpbT7bw_4core4iter8adapters8peekableINtB7_8PeekableINtNtB9_3map3MapINtNtNtCsiTraAjBDcu4_5alloc3vec9into_iter8IntoIterRNtCshnvkK9b4wzu_11proc_macro25IdentENCINvMse_NtNtNtB1v_11collections5btree3setINtB2W_8BTreeSetB2c_E16from_sorted_iterB1o_E0EE4peek0CsfWotccrMQ3I_14thiserror_impl, symObjAddr: 0x1844, symBinAddr: 0x2A4D8, symSize: 0x24 }
  - { offset: 0x82109, size: 0x8, addend: 0x0, symName: __RNvXs_NtNtNtCsaNl6UpbT7bw_4core4iter8adapters8peekableINtB4_8PeekableINtNtB6_3map3MapINtNtNtBa_5slice4iter4IterNtNtCsfWotccrMQ3I_14thiserror_impl3ast5FieldENCNvNtB1P_6expand10fields_pat0EENtNtNtB8_6traits8iterator8Iterator4nextB1P_, symObjAddr: 0x28E4, symBinAddr: 0x2B578, symSize: 0x84 }
  - { offset: 0x82228, size: 0x8, addend: 0x0, symName: __RNvNvNtNtCsaNl6UpbT7bw_4core4char7convert18from_u32_unchecked18precondition_checkCsfWotccrMQ3I_14thiserror_impl, symObjAddr: 0x1CAC, symBinAddr: 0x2A940, symSize: 0x104 }
  - { offset: 0x822EB, size: 0x8, addend: 0x0, symName: __RNvXsn_NtNtCsaNl6UpbT7bw_4core5panic11unwind_safeINtB5_16AssertUnwindSafeNCINvNtNtCs7yrEGia95Wz_10proc_macro6bridge6client10run_clientNtB1e_11TokenStreamINtNtB9_6option6OptionB28_ENCNCINvMs6_B1e_INtB1e_6ClientNtB1i_11TokenStreamB3l_E7expand1NvCsfWotccrMQ3I_14thiserror_impl12derive_errorE00E0EINtNtNtB9_3ops8function6FnOnceuE9call_onceB3T_, symObjAddr: 0x33CC, symBinAddr: 0x2C060, symSize: 0x38 }
  - { offset: 0x82717, size: 0x8, addend: 0x0, symName: __RINvNtCsc29TF2YcYso_3syn5parse12parse_scopedNCNvNtCsfWotccrMQ3I_14thiserror_impl4attr21parse_error_attribute0EBM_, symObjAddr: 0xC34, symBinAddr: 0x298C8, symSize: 0x30 }
  - { offset: 0x82773, size: 0x8, addend: 0x0, symName: __RNvXsh_NtCsc29TF2YcYso_3syn5parseNvYNtCshnvkK9b4wzu_11proc_macro25IdentNtB5_5Parse5parseNtB5_6Parser6parse2CsfWotccrMQ3I_14thiserror_impl, symObjAddr: 0x29F4, symBinAddr: 0x2B688, symSize: 0x334 }
  - { offset: 0x82882, size: 0x8, addend: 0x0, symName: __RNvXsh_NtCsc29TF2YcYso_3syn5parseNvYNtNtB7_4expr4ExprNtB5_5Parse5parseNtB5_6Parser6parse2CsfWotccrMQ3I_14thiserror_impl, symObjAddr: 0x2D28, symBinAddr: 0x2B9BC, symSize: 0x350 }
  - { offset: 0x82992, size: 0x8, addend: 0x0, symName: __RNvXsh_NtCsc29TF2YcYso_3syn5parseNvYNtNtB7_6derive11DeriveInputNtB5_5Parse5parseNtB5_6Parser6parse2CsfWotccrMQ3I_14thiserror_impl, symObjAddr: 0x3078, symBinAddr: 0x2BD0C, symSize: 0x354 }
  - { offset: 0x82AA8, size: 0x8, addend: 0x0, symName: __RNvYNvYNtCshnvkK9b4wzu_11proc_macro25IdentNtNtCsc29TF2YcYso_3syn5parse5Parse5parseNtBG_6Parser9parse_strCsfWotccrMQ3I_14thiserror_impl, symObjAddr: 0x3514, symBinAddr: 0x2C1A8, symSize: 0x11C }
  - { offset: 0x82B0C, size: 0x8, addend: 0x0, symName: __RNvYNvYNtNtCsc29TF2YcYso_3syn6derive11DeriveInputNtNtB9_5parse5Parse5parseNtBN_6Parser5parseCsfWotccrMQ3I_14thiserror_impl, symObjAddr: 0x3630, symBinAddr: 0x2C2C4, symSize: 0x88 }
  - { offset: 0x883D0, size: 0x8, addend: 0x0, symName: __RNvXNvXsd_NtNtCsiTraAjBDcu4_5alloc3vec9into_iterINtB8_8IntoIterppENtNtNtCsaNl6UpbT7bw_4core3ops4drop4Drop4dropINtB2_9DropGuardRNtCshnvkK9b4wzu_11proc_macro25IdentNtNtBc_5alloc6GlobalEB12_4dropCsfWotccrMQ3I_14thiserror_impl, symObjAddr: 0x1DB0, symBinAddr: 0x2AA44, symSize: 0x7C }
  - { offset: 0x88506, size: 0x8, addend: 0x0, symName: __RNvXsd_NtNtCsiTraAjBDcu4_5alloc3vec9into_iterINtB5_8IntoIterRNtCshnvkK9b4wzu_11proc_macro25IdentENtNtNtCsaNl6UpbT7bw_4core3ops4drop4Drop4dropCsfWotccrMQ3I_14thiserror_impl, symObjAddr: 0x2968, symBinAddr: 0x2B5FC, symSize: 0x8C }
  - { offset: 0x885A6, size: 0x8, addend: 0x0, symName: __RNvXs3_NtNtCsiTraAjBDcu4_5alloc3vec9into_iterINtB5_8IntoIterRNtCshnvkK9b4wzu_11proc_macro25IdentENtNtNtNtCsaNl6UpbT7bw_4core4iter6traits8iterator8Iterator4nextCsfWotccrMQ3I_14thiserror_impl, symObjAddr: 0x278C, symBinAddr: 0x2B420, symSize: 0xAC }
  - { offset: 0x8871D, size: 0x8, addend: 0x0, symName: __RNvXs3_NtNtCsiTraAjBDcu4_5alloc3vec9into_iterINtB5_8IntoIterRNtCshnvkK9b4wzu_11proc_macro25IdentENtNtNtNtCsaNl6UpbT7bw_4core4iter6traits8iterator8Iterator9size_hintCsfWotccrMQ3I_14thiserror_impl, symObjAddr: 0x2838, symBinAddr: 0x2B4CC, symSize: 0x6C }
  - { offset: 0x89458, size: 0x8, addend: 0x0, symName: __RINvMs9_NtCsc29TF2YcYso_3syn5parseNtB6_11ParseBuffer4stepNCNvNtCsfWotccrMQ3I_14thiserror_impl9scan_expr9scan_expr0bEBZ_, symObjAddr: 0x0, symBinAddr: 0x28C94, symSize: 0x1A0 }
  - { offset: 0x894E2, size: 0x8, addend: 0x0, symName: __RINvMs9_NtCsc29TF2YcYso_3syn5parseNtB6_11ParseBuffer4stepNCNvNtCsfWotccrMQ3I_14thiserror_impl9scan_expr9scan_exprs0_0bEBZ_, symObjAddr: 0x1A0, symBinAddr: 0x28E34, symSize: 0x194 }
  - { offset: 0x8956C, size: 0x8, addend: 0x0, symName: __RINvMs9_NtCsc29TF2YcYso_3syn5parseNtB6_11ParseBuffer4stepNCNvNtCsfWotccrMQ3I_14thiserror_impl9scan_expr9scan_exprs1_0bEBZ_, symObjAddr: 0x334, symBinAddr: 0x28FC8, symSize: 0x194 }
  - { offset: 0x895F6, size: 0x8, addend: 0x0, symName: __RINvMs9_NtCsc29TF2YcYso_3syn5parseNtB6_11ParseBuffer4stepNCNvNtCsfWotccrMQ3I_14thiserror_impl9scan_expr9scan_exprs_0bEBZ_, symObjAddr: 0x4C8, symBinAddr: 0x2915C, symSize: 0x1AC }
  - { offset: 0x89681, size: 0x8, addend: 0x0, symName: __RINvMs9_NtCsc29TF2YcYso_3syn5parseNtB6_11ParseBuffer4stepNCNvXs0_NvNtNvNtCsfWotccrMQ3I_14thiserror_impl4attr21parse_error_attribute2kw1__NtB13_11transparentNtB6_5Parse5parse0B2b_EB19_, symObjAddr: 0x674, symBinAddr: 0x29308, symSize: 0x18C }
  - { offset: 0x8970B, size: 0x8, addend: 0x0, symName: __RINvMs9_NtCsc29TF2YcYso_3syn5parseNtB6_11ParseBuffer4stepNCNvXs0_NvNtNvNtCsfWotccrMQ3I_14thiserror_impl4attr21parse_error_attribute2kws_1__NtB13_3fmtNtB6_5Parse5parse0B2d_EB19_, symObjAddr: 0x800, symBinAddr: 0x29494, symSize: 0x18C }
  - { offset: 0x89795, size: 0x8, addend: 0x0, symName: __RINvMs9_NtCsc29TF2YcYso_3syn5parseNtB6_11ParseBuffer5parseINtNtCsaNl6UpbT7bw_4core6option6OptionNtCshnvkK9b4wzu_11proc_macro29TokenTreeEECsfWotccrMQ3I_14thiserror_impl, symObjAddr: 0x98C, symBinAddr: 0x29620, symSize: 0x34 }
  - { offset: 0x897C1, size: 0x8, addend: 0x0, symName: __RINvMs9_NtCsc29TF2YcYso_3syn5parseNtB6_11ParseBuffer5parseNtCshnvkK9b4wzu_11proc_macro29TokenTreeECsfWotccrMQ3I_14thiserror_impl, symObjAddr: 0x9C0, symBinAddr: 0x29654, symSize: 0x34 }
  - { offset: 0x897ED, size: 0x8, addend: 0x0, symName: __RINvMs9_NtCsc29TF2YcYso_3syn5parseNtB6_11ParseBuffer5parseNtNtCsfWotccrMQ3I_14thiserror_impl5unraw10IdentUnrawEBY_, symObjAddr: 0x9F4, symBinAddr: 0x29688, symSize: 0x34 }
  - { offset: 0x89819, size: 0x8, addend: 0x0, symName: __RINvMs9_NtCsc29TF2YcYso_3syn5parseNtB6_11ParseBuffer5parseNtNtNvNtCsfWotccrMQ3I_14thiserror_impl4attr21parse_error_attribute2kw11transparentEB12_, symObjAddr: 0xA28, symBinAddr: 0x296BC, symSize: 0x34 }
  - { offset: 0x89845, size: 0x8, addend: 0x0, symName: __RINvMs9_NtCsc29TF2YcYso_3syn5parseNtB6_11ParseBuffer5parseNtNtNvNtCsfWotccrMQ3I_14thiserror_impl4attr21parse_error_attribute2kw3fmtEB12_, symObjAddr: 0xA5C, symBinAddr: 0x296F0, symSize: 0x34 }
  - { offset: 0x8989D, size: 0x8, addend: 0x0, symName: __RINvMs9_NtCsc29TF2YcYso_3syn5parseNtB6_11ParseBuffer5peek2INvNtB8_5token2EqNtNtB8_9lookahead11TokenMarkerEECsfWotccrMQ3I_14thiserror_impl, symObjAddr: 0xA90, symBinAddr: 0x29724, symSize: 0x3C }
  - { offset: 0x898FD, size: 0x8, addend: 0x0, symName: __RINvMs9_NtCsc29TF2YcYso_3syn5parseNtB6_11ParseBuffer5peek2INvNtB8_5token4EqEqNtNtB8_9lookahead11TokenMarkerEECsfWotccrMQ3I_14thiserror_impl, symObjAddr: 0xACC, symBinAddr: 0x29760, symSize: 0x3C }
  - { offset: 0x89938, size: 0x8, addend: 0x0, symName: __RINvMs9_NtCsc29TF2YcYso_3syn5parseNtB6_11ParseBuffer5peek2NtNtB8_9lookahead3EndECsfWotccrMQ3I_14thiserror_impl, symObjAddr: 0xB08, symBinAddr: 0x2979C, symSize: 0x3C }
  - { offset: 0x89973, size: 0x8, addend: 0x0, symName: __RINvMs9_NtCsc29TF2YcYso_3syn5parseNtB6_11ParseBuffer5peek2NtNtNtB8_3ext7private6PeekFnECsfWotccrMQ3I_14thiserror_impl, symObjAddr: 0xB44, symBinAddr: 0x297D8, symSize: 0x3C }
  - { offset: 0x899D3, size: 0x8, addend: 0x0, symName: __RINvMs9_NtCsc29TF2YcYso_3syn5parseNtB6_11ParseBuffer5peek2NvNtB8_3lit6LitIntECsfWotccrMQ3I_14thiserror_impl, symObjAddr: 0xB80, symBinAddr: 0x29814, symSize: 0x3C }
  - { offset: 0x89A33, size: 0x8, addend: 0x0, symName: __RINvMs9_NtCsc29TF2YcYso_3syn5parseNtB6_11ParseBuffer5peek2NvNtB8_3lit8LitFloatECsfWotccrMQ3I_14thiserror_impl, symObjAddr: 0xBBC, symBinAddr: 0x29850, symSize: 0x3C }
  - { offset: 0x89A6E, size: 0x8, addend: 0x0, symName: __RINvMs9_NtCsc29TF2YcYso_3syn5parseNtB6_11ParseBuffer5peek3INvNtB8_5token4EqEqNtNtB8_9lookahead11TokenMarkerEECsfWotccrMQ3I_14thiserror_impl, symObjAddr: 0xBF8, symBinAddr: 0x2988C, symSize: 0x3C }
  - { offset: 0x8A53B, size: 0x8, addend: 0x0, symName: __RNvYINtNtNtNtCsaNl6UpbT7bw_4core4iter8adapters8peekable8PeekableINtNtB7_3map3MapINtNtNtBb_5slice4iter4IterNtNtCsfWotccrMQ3I_14thiserror_impl3ast5FieldENCNvNtB1K_6expand10fields_pat0EENtNtNtCs4EAaWzSXu1l_5quote9___private3ext14RepIteratorExt15quote_into_iterB1K_, symObjAddr: 0x34F0, symBinAddr: 0x2C184, symSize: 0x24 }
  - { offset: 0x8A57C, size: 0x8, addend: 0x0, symName: __RNvMNtNtCs4EAaWzSXu1l_5quote9___private8get_spanINtB2_7GetSpanNtCshnvkK9b4wzu_11proc_macro24SpanE11___into_spanCsfWotccrMQ3I_14thiserror_impl, symObjAddr: 0x1914, symBinAddr: 0x2A5A8, symSize: 0x20 }
  - { offset: 0x8A5FD, size: 0x8, addend: 0x0, symName: __RNvMs3_NtNtNtCsaNl6UpbT7bw_4core4iter8adapters8peekableINtB5_8PeekableINtNtB7_3map3MapINtNtNtBb_5slice4iter4IterNtNtCsfWotccrMQ3I_14thiserror_impl3ast5FieldENCNvNtB1Q_6expand10fields_pat0EE4peekB1Q_, symObjAddr: 0x1934, symBinAddr: 0x2A5C8, symSize: 0x70 }
  - { offset: 0x8A734, size: 0x8, addend: 0x0, symName: __RNvMs4_NtNtCsaNl6UpbT7bw_4core5slice4iterINtB5_4IterNtCshnvkK9b4wzu_11proc_macro211TokenStreamE3newCsfWotccrMQ3I_14thiserror_impl, symObjAddr: 0x19A4, symBinAddr: 0x2A638, symSize: 0x50 }
  - { offset: 0x8A8E4, size: 0x8, addend: 0x0, symName: __RNvMs4_NtNtCsaNl6UpbT7bw_4core5slice4iterINtB5_4IterNtNtCsfWotccrMQ3I_14thiserror_impl3ast5FieldE3newBS_, symObjAddr: 0x19F4, symBinAddr: 0x2A688, symSize: 0x58 }
  - { offset: 0x8AA87, size: 0x8, addend: 0x0, symName: __RNvMs4_NtNtCsaNl6UpbT7bw_4core5slice4iterINtB5_4IterNtNtCsfWotccrMQ3I_14thiserror_impl3ast7VariantE3newBS_, symObjAddr: 0x1A4C, symBinAddr: 0x2A6E0, symSize: 0x58 }
  - { offset: 0x8AC51, size: 0x8, addend: 0x0, symName: __RNvMs4_NtNtCsaNl6UpbT7bw_4core5slice4iterINtB5_4IterTNtCshnvkK9b4wzu_11proc_macro211TokenStreamNtNtCsc29TF2YcYso_3syn5token4PlusEE3newCsfWotccrMQ3I_14thiserror_impl, symObjAddr: 0x1AA4, symBinAddr: 0x2A738, symSize: 0x58 }
  - { offset: 0x8AE1B, size: 0x8, addend: 0x0, symName: __RNvMs4_NtNtCsaNl6UpbT7bw_4core5slice4iterINtB5_4IterTNtCshnvkK9b4wzu_11proc_macro25IdentNtBR_11TokenStreamEE3newCsfWotccrMQ3I_14thiserror_impl, symObjAddr: 0x1AFC, symBinAddr: 0x2A790, symSize: 0x58 }
  - { offset: 0x8BB38, size: 0x8, addend: 0x0, symName: __RINvNtNtNtNtCsaNl6UpbT7bw_4core9core_arch10arm_shared4neon9generated13vget_lane_u64Kl0_ECsfWotccrMQ3I_14thiserror_impl, symObjAddr: 0x0, symBinAddr: 0x2C34C, symSize: 0x18 }
  - { offset: 0x8BBFC, size: 0x8, addend: 0x0, symName: __RNvXs0_NtCsc29TF2YcYso_3syn5tokenNtNtNvNtCsfWotccrMQ3I_14thiserror_impl4attr21parse_error_attribute2kw11transparentNtB5_5Token4peekBD_, symObjAddr: 0x164, symBinAddr: 0x2C4B0, symSize: 0x3C }
  - { offset: 0x8BC31, size: 0x8, addend: 0x0, symName: __RNvXs0_NtCsc29TF2YcYso_3syn5tokenNtNtNvNtCsfWotccrMQ3I_14thiserror_impl4attr21parse_error_attribute2kw11transparentNtB5_5Token7displayBD_, symObjAddr: 0x1A0, symBinAddr: 0x2C4EC, symSize: 0x24 }
  - { offset: 0x8BC58, size: 0x8, addend: 0x0, symName: __RNvXs0_NtCsc29TF2YcYso_3syn5tokenNtNtNvNtCsfWotccrMQ3I_14thiserror_impl4attr21parse_error_attribute2kw3fmtNtB5_5Token4peekBD_, symObjAddr: 0x1C4, symBinAddr: 0x2C510, symSize: 0x3C }
  - { offset: 0x8BC8D, size: 0x8, addend: 0x0, symName: __RNvXs0_NtCsc29TF2YcYso_3syn5tokenNtNtNvNtCsfWotccrMQ3I_14thiserror_impl4attr21parse_error_attribute2kw3fmtNtB5_5Token7displayBD_, symObjAddr: 0x200, symBinAddr: 0x2C54C, symSize: 0x24 }
  - { offset: 0x8C3F8, size: 0x8, addend: 0x0, symName: __RNvXsh_NtCsc29TF2YcYso_3syn5parseNCNvNtCsfWotccrMQ3I_14thiserror_impl4attr21parse_error_attribute0NtB5_6Parser14___parse_scopedBB_, symObjAddr: 0x318, symBinAddr: 0x2C664, symSize: 0x360 }
  - { offset: 0x92416, size: 0x8, addend: 0x0, symName: __RNvXs7_NtNtCs7yrEGia95Wz_10proc_macro6bridge3rpcINtNtNtCsaNl6UpbT7bw_4core3num7nonzero7NonZeromEINtB5_9DecodeMutuE6decodeCsfWotccrMQ3I_14thiserror_impl, symObjAddr: 0x250, symBinAddr: 0x2C59C, symSize: 0x5C }
  - { offset: 0x928B0, size: 0x8, addend: 0x0, symName: __RNvNvMsd_NtNtCsaNl6UpbT7bw_4core3num7nonzeroINtB7_7NonZeropE13new_unchecked18precondition_checkCsfWotccrMQ3I_14thiserror_impl, symObjAddr: 0x8C, symBinAddr: 0x2C3D8, symSize: 0x84 }
  - { offset: 0x93039, size: 0x8, addend: 0x0, symName: __RINvNtNtNtNtCsaNl6UpbT7bw_4core9core_arch10arm_shared4neon9generated13vget_lane_u64Kl0_ECsfWotccrMQ3I_14thiserror_impl, symObjAddr: 0x0, symBinAddr: 0x2C34C, symSize: 0x18 }
  - { offset: 0x93068, size: 0x8, addend: 0x0, symName: __RNvNtNtNtNtCsaNl6UpbT7bw_4core9core_arch10arm_shared4neon9generated18vreinterpret_s8_u8CsfWotccrMQ3I_14thiserror_impl, symObjAddr: 0x18, symBinAddr: 0x2C364, symSize: 0xC }
  - { offset: 0x93096, size: 0x8, addend: 0x0, symName: __RNvNtNtNtNtCsaNl6UpbT7bw_4core9core_arch10arm_shared4neon9generated19vreinterpret_u64_u8CsfWotccrMQ3I_14thiserror_impl, symObjAddr: 0x24, symBinAddr: 0x2C370, symSize: 0xC }
  - { offset: 0x930C4, size: 0x8, addend: 0x0, symName: __RNvNtNtNtNtCsaNl6UpbT7bw_4core9core_arch10arm_shared4neon9generated7vceq_u8CsfWotccrMQ3I_14thiserror_impl, symObjAddr: 0x30, symBinAddr: 0x2C37C, symSize: 0x14 }
  - { offset: 0x93101, size: 0x8, addend: 0x0, symName: __RNvNtNtNtNtCsaNl6UpbT7bw_4core9core_arch10arm_shared4neon9generated7vorr_u8CsfWotccrMQ3I_14thiserror_impl, symObjAddr: 0x44, symBinAddr: 0x2C390, symSize: 0x14 }
  - { offset: 0x9313E, size: 0x8, addend: 0x0, symName: __RNvNtNtNtNtCsaNl6UpbT7bw_4core9core_arch10arm_shared4neon9generated9vdup_n_u8CsfWotccrMQ3I_14thiserror_impl, symObjAddr: 0x58, symBinAddr: 0x2C3A4, symSize: 0x34 }
  - { offset: 0x95B11, size: 0x8, addend: 0x0, symName: __RNvXNtCsaNl6UpbT7bw_4core6borrowTjNtNtCsfWotccrMQ3I_14thiserror_impl4attr5TraitEINtB2_6BorrowBu_E6borrowBA_, symObjAddr: 0x150, symBinAddr: 0x2C49C, symSize: 0x14 }
  - { offset: 0x95B5C, size: 0x8, addend: 0x0, symName: __RNvXs0_NtNtNtCsaNl6UpbT7bw_4core4iter8adapters10filter_mapINtB5_9FilterMapINtNtNtBb_5slice4iter4IterNtNtCsfWotccrMQ3I_14thiserror_impl3ast7VariantENCNvNtB1E_6expand9impl_enums2_0ENtNtNtB9_6traits8iterator8Iterator4nextB1E_, symObjAddr: 0x224, symBinAddr: 0x2C570, symSize: 0x2C }
  - { offset: 0x95CEC, size: 0x8, addend: 0x0, symName: __RNvXse_NtCsaNl6UpbT7bw_4core5tupleTjNtNtCsfWotccrMQ3I_14thiserror_impl4attr5TraitENtNtB7_3cmp3Ord3cmpBC_, symObjAddr: 0x2AC, symBinAddr: 0x2C5F8, symSize: 0x6C }
  - { offset: 0x95D61, size: 0x8, addend: 0x0, symName: __RNvYNtNtCsfWotccrMQ3I_14thiserror_impl4attr3FmtNtNtCsaNl6UpbT7bw_4core5clone5Clone10clone_fromB6_, symObjAddr: 0x6B8, symBinAddr: 0x2CA04, symSize: 0x84 }
  - { offset: 0x95DA0, size: 0x8, addend: 0x0, symName: __RNvYNtNtCsfWotccrMQ3I_14thiserror_impl4attr7DisplayNtNtCsaNl6UpbT7bw_4core5clone5Clone10clone_fromB6_, symObjAddr: 0x854, symBinAddr: 0x2CBA0, symSize: 0x84 }
  - { offset: 0x962B1, size: 0x8, addend: 0x0, symName: __RNvNtCsfWotccrMQ3I_14thiserror_impl4attr3get, symObjAddr: 0x8D8, symBinAddr: 0x2CC24, symSize: 0x878 }
  - { offset: 0x963D7, size: 0x8, addend: 0x0, symName: __RNvNtCsfWotccrMQ3I_14thiserror_impl4attr21parse_error_attribute, symObjAddr: 0x1150, symBinAddr: 0x2D49C, symSize: 0x60 }
  - { offset: 0x96416, size: 0x8, addend: 0x0, symName: __RNCNvNtCsfWotccrMQ3I_14thiserror_impl4attr21parse_error_attribute0B5_, symObjAddr: 0x11B0, symBinAddr: 0x2D4FC, symSize: 0xB88 }
  - { offset: 0x9662A, size: 0x8, addend: 0x0, symName: __RNvXs_NvNtNvNtCsfWotccrMQ3I_14thiserror_impl4attr21parse_error_attribute2kw1__NtB6_11transparentNtNtNtCsc29TF2YcYso_3syn5token7private11CustomToken4peek, symObjAddr: 0x67C4, symBinAddr: 0x32B10, symSize: 0x12C }
  - { offset: 0x9667A, size: 0x8, addend: 0x0, symName: __RNvXs_NvNtNvNtCsfWotccrMQ3I_14thiserror_impl4attr21parse_error_attribute2kw1__NtB6_11transparentNtNtNtCsc29TF2YcYso_3syn5token7private11CustomToken7display, symObjAddr: 0x68F0, symBinAddr: 0x32C3C, symSize: 0x24 }
  - { offset: 0x96697, size: 0x8, addend: 0x0, symName: __RNvXs_NvNtNvNtCsfWotccrMQ3I_14thiserror_impl4attr21parse_error_attribute2kws_1__NtB6_3fmtNtNtNtCsc29TF2YcYso_3syn5token7private11CustomToken4peek, symObjAddr: 0x6B38, symBinAddr: 0x32E84, symSize: 0x12C }
  - { offset: 0x966E7, size: 0x8, addend: 0x0, symName: __RNvXs_NvNtNvNtCsfWotccrMQ3I_14thiserror_impl4attr21parse_error_attribute2kws_1__NtB6_3fmtNtNtNtCsc29TF2YcYso_3syn5token7private11CustomToken7display, symObjAddr: 0x6C64, symBinAddr: 0x32FB0, symSize: 0x24 }
  - { offset: 0x9670A, size: 0x8, addend: 0x0, symName: __RNvXs0_NvNtNvNtCsfWotccrMQ3I_14thiserror_impl4attr21parse_error_attribute2kw1__NtB7_11transparentNtNtCsc29TF2YcYso_3syn5parse5Parse5parse, symObjAddr: 0x6914, symBinAddr: 0x32C60, symSize: 0x34 }
  - { offset: 0x9673B, size: 0x8, addend: 0x0, symName: __RNCNvXs0_NvNtNvNtCsfWotccrMQ3I_14thiserror_impl4attr21parse_error_attribute2kw1__NtB9_11transparentNtNtCsc29TF2YcYso_3syn5parse5Parse5parse0Bf_, symObjAddr: 0x6948, symBinAddr: 0x32C94, symSize: 0x1F0 }
  - { offset: 0x96797, size: 0x8, addend: 0x0, symName: __RNCNvXs0_NvNtNvNtCsfWotccrMQ3I_14thiserror_impl4attr21parse_error_attribute2kws_1__NtB9_3fmtNtNtCsc29TF2YcYso_3syn5parse5Parse5parse0Bf_, symObjAddr: 0x6CBC, symBinAddr: 0x33008, symSize: 0x1F0 }
  - { offset: 0x96802, size: 0x8, addend: 0x0, symName: __RNvXs0_NvNtNvNtCsfWotccrMQ3I_14thiserror_impl4attr21parse_error_attribute2kws_1__NtB7_3fmtNtNtCsc29TF2YcYso_3syn5parse5Parse5parse, symObjAddr: 0x6C88, symBinAddr: 0x32FD4, symSize: 0x34 }
  - { offset: 0x96890, size: 0x8, addend: 0x0, symName: __RNvNtCsfWotccrMQ3I_14thiserror_impl4attr16parse_token_expr, symObjAddr: 0x1D38, symBinAddr: 0x2E084, symSize: 0x1AC4 }
  - { offset: 0x96E4D, size: 0x8, addend: 0x0, symName: __RNvXNtCsfWotccrMQ3I_14thiserror_impl4attrNtB2_7DisplayNtNtCs4EAaWzSXu1l_5quote9to_tokens8ToTokens9to_tokens, symObjAddr: 0x37FC, symBinAddr: 0x2FB48, symSize: 0xA48 }
  - { offset: 0x971BB, size: 0x8, addend: 0x0, symName: __RNCNvXNtCsfWotccrMQ3I_14thiserror_impl4attrNtB4_7DisplayNtNtCs4EAaWzSXu1l_5quote9to_tokens8ToTokens9to_tokens0B6_, symObjAddr: 0x4244, symBinAddr: 0x30590, symSize: 0x3C }
  - { offset: 0x971F0, size: 0x8, addend: 0x0, symName: __RNCNvXNtCsfWotccrMQ3I_14thiserror_impl4attrNtB4_7DisplayNtNtCs4EAaWzSXu1l_5quote9to_tokens8ToTokens9to_tokenss_0B6_, symObjAddr: 0x4280, symBinAddr: 0x305CC, symSize: 0x34 }
  - { offset: 0x9723A, size: 0x8, addend: 0x0, symName: __RNvXs_NtCsfWotccrMQ3I_14thiserror_impl4attrNtB4_5TraitNtNtCs4EAaWzSXu1l_5quote9to_tokens8ToTokens9to_tokens, symObjAddr: 0x42B4, symBinAddr: 0x30600, symSize: 0x348 }
  - { offset: 0x97422, size: 0x8, addend: 0x0, symName: __RNvXs0_NtCsfWotccrMQ3I_14thiserror_impl4attrNtB5_7DisplayNtNtCsaNl6UpbT7bw_4core5clone5Clone5cloneB7_, symObjAddr: 0x657C, symBinAddr: 0x328C8, symSize: 0x164 }
  - { offset: 0x97454, size: 0x8, addend: 0x0, symName: __RNvXs7_NtCsfWotccrMQ3I_14thiserror_impl4attrNtB5_3FmtNtNtCsaNl6UpbT7bw_4core5clone5Clone5cloneB7_, symObjAddr: 0x66E0, symBinAddr: 0x32A2C, symSize: 0x54 }
  - { offset: 0x97486, size: 0x8, addend: 0x0, symName: __RNvXs9_NtCsfWotccrMQ3I_14thiserror_impl4attrNtB5_5TraitNtNtCsaNl6UpbT7bw_4core5clone5Clone5cloneB7_, symObjAddr: 0x6734, symBinAddr: 0x32A80, symSize: 0x18 }
  - { offset: 0x974B8, size: 0x8, addend: 0x0, symName: __RNvXsc_NtCsfWotccrMQ3I_14thiserror_impl4attrNtB5_5TraitNtNtCsaNl6UpbT7bw_4core3cmp9PartialEq2eqB7_, symObjAddr: 0x674C, symBinAddr: 0x32A98, symSize: 0x34 }
  - { offset: 0x97532, size: 0x8, addend: 0x0, symName: __RNvXsd_NtCsfWotccrMQ3I_14thiserror_impl4attrNtB5_5TraitNtNtCsaNl6UpbT7bw_4core3cmp3Ord3cmpB7_, symObjAddr: 0x6780, symBinAddr: 0x32ACC, symSize: 0x44 }
  - { offset: 0x978E7, size: 0x8, addend: 0x0, symName: __RNvXNtCs4EAaWzSXu1l_5quote9to_tokensRNtNtCsfWotccrMQ3I_14thiserror_impl4attr7DisplayNtB2_8ToTokens9to_tokensBD_, symObjAddr: 0x110, symBinAddr: 0x2C45C, symSize: 0x40 }
  - { offset: 0x9792C, size: 0x8, addend: 0x0, symName: __RNvYNtNtCsfWotccrMQ3I_14thiserror_impl4attr5TraitNtNtCs4EAaWzSXu1l_5quote9to_tokens8ToTokens15to_token_streamB6_, symObjAddr: 0x73C, symBinAddr: 0x2CA88, symSize: 0x8C }
  - { offset: 0x97976, size: 0x8, addend: 0x0, symName: __RNvYNtNtCsfWotccrMQ3I_14thiserror_impl4attr7DisplayNtNtCs4EAaWzSXu1l_5quote9to_tokens8ToTokens15to_token_streamB6_, symObjAddr: 0x7C8, symBinAddr: 0x2CB14, symSize: 0x8C }
  - { offset: 0x979D1, size: 0x8, addend: 0x0, symName: __RNvYINtNtNtNtCsaNl6UpbT7bw_4core4iter8adapters10filter_map9FilterMapINtNtNtBb_5slice4iter4IterNtNtCsfWotccrMQ3I_14thiserror_impl3ast7VariantENCNvNtB1y_6expand9impl_enums2_0ENtNtNtCs4EAaWzSXu1l_5quote9___private3ext14RepIteratorExt15quote_into_iterB1y_, symObjAddr: 0x678, symBinAddr: 0x2C9C4, symSize: 0x40 }
  - { offset: 0x98255, size: 0x8, addend: 0x0, symName: __RNvMNtCsfWotccrMQ3I_14thiserror_impl3fmtNtNtB4_4attr7Display16expand_shorthand, symObjAddr: 0x45FC, symBinAddr: 0x30948, symSize: 0x1F80 }
  - { offset: 0x98D1B, size: 0x8, addend: 0x0, symName: __RINvMNtCsaNl6UpbT7bw_4core6optionINtB3_6OptionIBw_RNtNtCsfWotccrMQ3I_14thiserror_impl5unraw11MemberUnrawEE18get_or_insert_withNCNvMs3_NtNtNtB5_4iter8adapters8peekableINtB28_8PeekableINtNtB2a_3map3MapINtNtNtB5_5slice4iter4IterNtNtBR_3ast5FieldENCNvNtBR_6expand10fields_pat0EE4peek0EBR_, symObjAddr: 0x0, symBinAddr: 0x331F8, symSize: 0x104 }
  - { offset: 0x9DC21, size: 0x8, addend: 0x0, symName: __RNvXNtCsc29TF2YcYso_3syn11parse_quoteNtNtB4_8generics14WherePredicateNtB2_10ParseQuote5parseCsfWotccrMQ3I_14thiserror_impl, symObjAddr: 0x1CBC, symBinAddr: 0x34EB4, symSize: 0x34 }
  - { offset: 0x9DC62, size: 0x8, addend: 0x0, symName: __RNvXsb_NtCsc29TF2YcYso_3syn5parseINtNtCsaNl6UpbT7bw_4core6option6OptionNtCshnvkK9b4wzu_11proc_macro29TokenTreeENtB5_5Parse5parseCsfWotccrMQ3I_14thiserror_impl, symObjAddr: 0x2870, symBinAddr: 0x35A68, symSize: 0x140 }
  - { offset: 0x9DCBE, size: 0x8, addend: 0x0, symName: __RNvXsh_NtCsc29TF2YcYso_3syn5parseNvNtCsfWotccrMQ3I_14thiserror_impl3fmt19explicit_named_argsNtB5_6Parser6parse2Bz_, symObjAddr: 0x29B0, symBinAddr: 0x35BA8, symSize: 0x36C }
  - { offset: 0x9F197, size: 0x8, addend: 0x0, symName: __RNvNtCsiTraAjBDcu4_5alloc3fmt6formatCsfWotccrMQ3I_14thiserror_impl, symObjAddr: 0x17B0, symBinAddr: 0x349A8, symSize: 0xD4 }
  - { offset: 0x9FAB5, size: 0x8, addend: 0x0, symName: __RNvXsR_NtCs7yrEGia95Wz_10proc_macro6bridgeINtNtCsaNl6UpbT7bw_4core6option6OptionNtNtB5_6client11TokenStreamEINtNtB5_3rpc6EncodeuE6encodeCsfWotccrMQ3I_14thiserror_impl, symObjAddr: 0x2528, symBinAddr: 0x35720, symSize: 0xCC }
  - { offset: 0x9FB5B, size: 0x8, addend: 0x0, symName: __RNvXsR_NtCs7yrEGia95Wz_10proc_macro6bridgeINtNtCsaNl6UpbT7bw_4core6option6OptionReEINtNtB5_3rpc6EncodeuE6encodeCsfWotccrMQ3I_14thiserror_impl, symObjAddr: 0x25F4, symBinAddr: 0x357EC, symSize: 0xD8 }
  - { offset: 0x9FD36, size: 0x8, addend: 0x0, symName: __RNvXs1e_Cs7yrEGia95Wz_10proc_macroNtB6_5IdentNtNtCsaNl6UpbT7bw_4core5clone5Clone5cloneCsfWotccrMQ3I_14thiserror_impl, symObjAddr: 0x1FAC, symBinAddr: 0x351A4, symSize: 0x40 }
  - { offset: 0x9FD6A, size: 0x8, addend: 0x0, symName: __RNvXsU_Cs7yrEGia95Wz_10proc_macroNtB5_11TokenStreamNtNtCsaNl6UpbT7bw_4core5clone5Clone5cloneCsfWotccrMQ3I_14thiserror_impl, symObjAddr: 0x26CC, symBinAddr: 0x358C4, symSize: 0x64 }
  - { offset: 0xA3970, size: 0x8, addend: 0x0, symName: __RNvXs3_NtCsaNl6UpbT7bw_4core6optionINtB5_6OptionNtNtCsfWotccrMQ3I_14thiserror_impl4attr3FmtENtNtB7_5clone5Clone10clone_fromBO_, symObjAddr: 0x2178, symBinAddr: 0x35370, symSize: 0x130 }
  - { offset: 0xA3A6A, size: 0x8, addend: 0x0, symName: __RNvXs3_NtCsaNl6UpbT7bw_4core6optionINtB5_6OptionNtNtCsfWotccrMQ3I_14thiserror_impl4attr7DisplayENtNtB7_5clone5Clone10clone_fromBO_, symObjAddr: 0x22A8, symBinAddr: 0x354A0, symSize: 0x130 }
  - { offset: 0xA3BD6, size: 0x8, addend: 0x0, symName: __RNvXs6_NtCsaNl6UpbT7bw_4core6optionINtB5_6OptionRNtCshnvkK9b4wzu_11proc_macro211TokenStreamENtNtNtNtB7_4iter6traits7collect12IntoIterator9into_iterCsfWotccrMQ3I_14thiserror_impl, symObjAddr: 0x23D8, symBinAddr: 0x355D0, symSize: 0x14 }
  - { offset: 0xA3C13, size: 0x8, addend: 0x0, symName: __RNvXsC_NtCsaNl6UpbT7bw_4core6optionINtB5_6OptionRNtNtCsfWotccrMQ3I_14thiserror_impl3ast5FieldENtNtNtB7_3ops9try_trait3Try6branchBP_, symObjAddr: 0x23EC, symBinAddr: 0x355E4, symSize: 0x40 }
  - { offset: 0xA3C6E, size: 0x8, addend: 0x0, symName: __RNvXsD_NtCsaNl6UpbT7bw_4core6optionINtB5_6OptionNtCshnvkK9b4wzu_11proc_macro211TokenStreamEINtNtNtB7_3ops9try_trait12FromResidualIBy_NtNtB7_7convert10InfallibleEE13from_residualCsfWotccrMQ3I_14thiserror_impl, symObjAddr: 0x242C, symBinAddr: 0x35624, symSize: 0x18 }
  - { offset: 0xA3CA1, size: 0x8, addend: 0x0, symName: __RNvXsD_NtCsaNl6UpbT7bw_4core6optionINtB5_6OptionRNtNtCsfWotccrMQ3I_14thiserror_impl3ast5FieldEINtNtNtB7_3ops9try_trait12FromResidualIBy_NtNtB7_7convert10InfallibleEE13from_residualBP_, symObjAddr: 0x2444, symBinAddr: 0x3563C, symSize: 0x14 }
  - { offset: 0xA3D2E, size: 0x8, addend: 0x0, symName: __RNvXsP_NtCsaNl6UpbT7bw_4core6optionINtB5_8IntoIterRNtNtCsc29TF2YcYso_3syn4data7VariantENtNtB7_5clone5Clone5cloneCsfWotccrMQ3I_14thiserror_impl, symObjAddr: 0x2458, symBinAddr: 0x35650, symSize: 0x68 }
  - { offset: 0xA3DD5, size: 0x8, addend: 0x0, symName: __RNvXsP_NtCsaNl6UpbT7bw_4core6optionINtB5_8IntoIterRNtNtCsc29TF2YcYso_3syn4path15GenericArgumentENtNtB7_5clone5Clone5cloneCsfWotccrMQ3I_14thiserror_impl, symObjAddr: 0x24C0, symBinAddr: 0x356B8, symSize: 0x68 }
  - { offset: 0xA3ED9, size: 0x8, addend: 0x0, symName: __RNvXsw_NtCsaNl6UpbT7bw_4core6optionINtB5_8IntoIterRNtCshnvkK9b4wzu_11proc_macro211TokenStreamENtNtNtNtB7_4iter6traits8iterator8Iterator4nextCsfWotccrMQ3I_14thiserror_impl, symObjAddr: 0x2D1C, symBinAddr: 0x35F14, symSize: 0x28 }
  - { offset: 0xA3F51, size: 0x8, addend: 0x0, symName: __RNvXsw_NtCsaNl6UpbT7bw_4core6optionINtB5_8IntoIterRNtNtCsc29TF2YcYso_3syn4data7VariantENtNtNtNtB7_4iter6traits8iterator8Iterator9size_hintCsfWotccrMQ3I_14thiserror_impl, symObjAddr: 0x2D44, symBinAddr: 0x35F3C, symSize: 0x44 }
  - { offset: 0xA3FC9, size: 0x8, addend: 0x0, symName: __RNvXsw_NtCsaNl6UpbT7bw_4core6optionINtB5_8IntoIterRNtNtCsc29TF2YcYso_3syn4path15GenericArgumentENtNtNtNtB7_4iter6traits8iterator8Iterator9size_hintCsfWotccrMQ3I_14thiserror_impl, symObjAddr: 0x2D88, symBinAddr: 0x35F80, symSize: 0x44 }
  - { offset: 0xA455F, size: 0x8, addend: 0x0, symName: __RINvYNtNtCsc29TF2YcYso_3syn8generics10TypeParamsNtNtNtNtCsaNl6UpbT7bw_4core4iter6traits8iterator8Iterator3mapRNtCshnvkK9b4wzu_11proc_macro25IdentNCNvMNtCsfWotccrMQ3I_14thiserror_impl8genericsNtB2o_13ParamsInScope3new0EB2q_, symObjAddr: 0x1228, symBinAddr: 0x34420, symSize: 0x1C }
  - { offset: 0xA45B7, size: 0x8, addend: 0x0, symName: __RNvYNtNtCsc29TF2YcYso_3syn8generics10TypeParamsNtNtNtNtCsaNl6UpbT7bw_4core4iter6traits8iterator8Iterator9size_hintCsfWotccrMQ3I_14thiserror_impl, symObjAddr: 0x2F54, symBinAddr: 0x3614C, symSize: 0x34 }
  - { offset: 0xA45F8, size: 0x8, addend: 0x0, symName: __RNvYINtNtCsaNl6UpbT7bw_4core6option8IntoIterRNtNtCsc29TF2YcYso_3syn4data7VariantENtNtNtNtB7_4iter6traits10exact_size17ExactSizeIterator3lenCsfWotccrMQ3I_14thiserror_impl, symObjAddr: 0x2DCC, symBinAddr: 0x35FC4, symSize: 0xC4 }
  - { offset: 0xA46F3, size: 0x8, addend: 0x0, symName: __RNvYINtNtCsaNl6UpbT7bw_4core6option8IntoIterRNtNtCsc29TF2YcYso_3syn4path15GenericArgumentENtNtNtNtB7_4iter6traits10exact_size17ExactSizeIterator3lenCsfWotccrMQ3I_14thiserror_impl, symObjAddr: 0x2E90, symBinAddr: 0x36088, symSize: 0xC4 }
  - { offset: 0xA48DF, size: 0x8, addend: 0x0, symName: __RNvNvNtNtCsaNl6UpbT7bw_4core5slice3raw14from_raw_parts18precondition_checkCsfWotccrMQ3I_14thiserror_impl, symObjAddr: 0x1884, symBinAddr: 0x34A7C, symSize: 0x1DC }
  - { offset: 0xA4A63, size: 0x8, addend: 0x0, symName: __RNvNvNtNtCsaNl6UpbT7bw_4core5slice3raw18from_raw_parts_mut18precondition_checkCsfWotccrMQ3I_14thiserror_impl, symObjAddr: 0x1A60, symBinAddr: 0x34C58, symSize: 0x1DC }
  - { offset: 0xA51FD, size: 0x8, addend: 0x0, symName: __RNcNtINtNtNtCsaNl6UpbT7bw_4core3ops12control_flow11ControlFlowNtNtCsfWotccrMQ3I_14thiserror_impl3ast5FieldE5Break0B12_, symObjAddr: 0x1244, symBinAddr: 0x3443C, symSize: 0x30 }
  - { offset: 0xA5238, size: 0x8, addend: 0x0, symName: __RNcNtINtNtNtCsaNl6UpbT7bw_4core3ops12control_flow11ControlFlowNtNtCsfWotccrMQ3I_14thiserror_impl3ast7VariantE5Break0B12_, symObjAddr: 0x1274, symBinAddr: 0x3446C, symSize: 0x30 }
  - { offset: 0xA527A, size: 0x8, addend: 0x0, symName: __RNvXNtNtCsaNl6UpbT7bw_4core3ops12control_flowINtB2_11ControlFlowIBI_NtNtCsfWotccrMQ3I_14thiserror_impl3ast5FieldEENtNtB4_9try_trait3Try11from_outputB18_, symObjAddr: 0x1CF0, symBinAddr: 0x34EE8, symSize: 0x1C }
  - { offset: 0xA52B8, size: 0x8, addend: 0x0, symName: __RNvXNtNtCsaNl6UpbT7bw_4core3ops12control_flowINtB2_11ControlFlowIBI_NtNtCsfWotccrMQ3I_14thiserror_impl3ast5FieldEENtNtB4_9try_trait3Try6branchB18_, symObjAddr: 0x1D0C, symBinAddr: 0x34F04, symSize: 0x9C }
  - { offset: 0xA5331, size: 0x8, addend: 0x0, symName: __RNvXNtNtCsaNl6UpbT7bw_4core3ops12control_flowINtB2_11ControlFlowIBI_NtNtCsfWotccrMQ3I_14thiserror_impl3ast7VariantEENtNtB4_9try_trait3Try11from_outputB18_, symObjAddr: 0x1DA8, symBinAddr: 0x34FA0, symSize: 0x18 }
  - { offset: 0xA536F, size: 0x8, addend: 0x0, symName: __RNvXNtNtCsaNl6UpbT7bw_4core3ops12control_flowINtB2_11ControlFlowIBI_NtNtCsfWotccrMQ3I_14thiserror_impl3ast7VariantEENtNtB4_9try_trait3Try6branchB18_, symObjAddr: 0x1DC0, symBinAddr: 0x34FB8, symSize: 0x94 }
  - { offset: 0xA53E8, size: 0x8, addend: 0x0, symName: __RNvXNtNtCsaNl6UpbT7bw_4core3ops12control_flowINtB2_11ControlFlowNtNtCsfWotccrMQ3I_14thiserror_impl3ast5FieldENtNtB4_9try_trait3Try11from_outputB14_, symObjAddr: 0x1E54, symBinAddr: 0x3504C, symSize: 0x18 }
  - { offset: 0xA5426, size: 0x8, addend: 0x0, symName: __RNvXNtNtCsaNl6UpbT7bw_4core3ops12control_flowINtB2_11ControlFlowNtNtCsfWotccrMQ3I_14thiserror_impl3ast5FieldENtNtB4_9try_trait3Try6branchB14_, symObjAddr: 0x1E6C, symBinAddr: 0x35064, symSize: 0x94 }
  - { offset: 0xA549F, size: 0x8, addend: 0x0, symName: __RNvXNtNtCsaNl6UpbT7bw_4core3ops12control_flowINtB2_11ControlFlowNtNtCsfWotccrMQ3I_14thiserror_impl3ast7VariantENtNtB4_9try_trait3Try11from_outputB14_, symObjAddr: 0x1F00, symBinAddr: 0x350F8, symSize: 0x18 }
  - { offset: 0xA54DD, size: 0x8, addend: 0x0, symName: __RNvXNtNtCsaNl6UpbT7bw_4core3ops12control_flowINtB2_11ControlFlowNtNtCsfWotccrMQ3I_14thiserror_impl3ast7VariantENtNtB4_9try_trait3Try6branchB14_, symObjAddr: 0x1F18, symBinAddr: 0x35110, symSize: 0x94 }
  - { offset: 0xA555C, size: 0x8, addend: 0x0, symName: __RNvXs_NtNtCsaNl6UpbT7bw_4core3ops12control_flowINtB4_11ControlFlowIBK_NtNtCsfWotccrMQ3I_14thiserror_impl3ast5FieldEEINtNtB6_9try_trait12FromResidualIBK_B12_NtNtB8_7convert10InfallibleEE13from_residualB1a_, symObjAddr: 0x2730, symBinAddr: 0x35928, symSize: 0x50 }
  - { offset: 0xA559B, size: 0x8, addend: 0x0, symName: __RNvXs_NtNtCsaNl6UpbT7bw_4core3ops12control_flowINtB4_11ControlFlowIBK_NtNtCsfWotccrMQ3I_14thiserror_impl3ast7VariantEEINtNtB6_9try_trait12FromResidualIBK_B12_NtNtB8_7convert10InfallibleEE13from_residualB1a_, symObjAddr: 0x2780, symBinAddr: 0x35978, symSize: 0x50 }
  - { offset: 0xA55DA, size: 0x8, addend: 0x0, symName: __RNvXs_NtNtCsaNl6UpbT7bw_4core3ops12control_flowINtB4_11ControlFlowNtNtCsfWotccrMQ3I_14thiserror_impl3ast5FieldEINtNtB6_9try_trait12FromResidualIBK_B12_NtNtB8_7convert10InfallibleEE13from_residualB16_, symObjAddr: 0x27D0, symBinAddr: 0x359C8, symSize: 0x50 }
  - { offset: 0xA5619, size: 0x8, addend: 0x0, symName: __RNvXs_NtNtCsaNl6UpbT7bw_4core3ops12control_flowINtB4_11ControlFlowNtNtCsfWotccrMQ3I_14thiserror_impl3ast7VariantEINtNtB6_9try_trait12FromResidualIBK_B12_NtNtB8_7convert10InfallibleEE13from_residualB16_, symObjAddr: 0x2820, symBinAddr: 0x35A18, symSize: 0x50 }
  - { offset: 0xA6571, size: 0x8, addend: 0x0, symName: __RNCNvNtCsfWotccrMQ3I_14thiserror_impl5valid28contains_non_static_lifetime0B5_, symObjAddr: 0x5914, symBinAddr: 0x38B0C, symSize: 0x3C }
  - { offset: 0xA65B2, size: 0x8, addend: 0x0, symName: __RNCNvMs_NtCsfWotccrMQ3I_14thiserror_impl5validNtNtB8_3ast6Struct8validate0B8_, symObjAddr: 0x4B88, symBinAddr: 0x37D80, symSize: 0x30 }
  - { offset: 0xA65FB, size: 0x8, addend: 0x0, symName: __RNCNvMs1_NtCsfWotccrMQ3I_14thiserror_impl5validNtNtB9_3ast7Variant8validate0B9_, symObjAddr: 0x4BB8, symBinAddr: 0x37DB0, symSize: 0x30 }
  - { offset: 0xA663A, size: 0x8, addend: 0x0, symName: __RNvNtCsfWotccrMQ3I_14thiserror_impl5valid21check_non_field_attrs, symObjAddr: 0x4BE8, symBinAddr: 0x37DE0, symSize: 0x354 }
  - { offset: 0xA66FD, size: 0x8, addend: 0x0, symName: __RNvNtCsfWotccrMQ3I_14thiserror_impl5valid17check_field_attrs, symObjAddr: 0x4F3C, symBinAddr: 0x38134, symSize: 0x6C8 }
  - { offset: 0xA68C7, size: 0x8, addend: 0x0, symName: __RNvNtCsfWotccrMQ3I_14thiserror_impl5valid28contains_non_static_lifetime, symObjAddr: 0x5604, symBinAddr: 0x387FC, symSize: 0x310 }
  - { offset: 0xA6A04, size: 0x8, addend: 0x0, symName: __RNvNtCsfWotccrMQ3I_14thiserror_impl3fmt19explicit_named_args, symObjAddr: 0x3148, symBinAddr: 0x36340, symSize: 0x414 }
  - { offset: 0xA6ABD, size: 0x8, addend: 0x0, symName: __RNvNtCsfWotccrMQ3I_14thiserror_impl3fmt23try_explicit_named_args, symObjAddr: 0x355C, symBinAddr: 0x36754, symSize: 0x890 }
  - { offset: 0xA6BF3, size: 0x8, addend: 0x0, symName: __RNvNtCsfWotccrMQ3I_14thiserror_impl3fmt28fallback_explicit_named_args, symObjAddr: 0x3DEC, symBinAddr: 0x36FE4, symSize: 0x4D0 }
  - { offset: 0xA6CE7, size: 0x8, addend: 0x0, symName: __RNvNtCsfWotccrMQ3I_14thiserror_impl3fmt11is_syn_full, symObjAddr: 0x42BC, symBinAddr: 0x374B4, symSize: 0x21C }
  - { offset: 0xA6D51, size: 0x8, addend: 0x0, symName: __RNvNtCsfWotccrMQ3I_14thiserror_impl3fmt8take_int, symObjAddr: 0x44D8, symBinAddr: 0x376D0, symSize: 0x15C }
  - { offset: 0xA6DEF, size: 0x8, addend: 0x0, symName: __RNvNtCsfWotccrMQ3I_14thiserror_impl3fmt10take_ident, symObjAddr: 0x4634, symBinAddr: 0x3782C, symSize: 0x1DC }
  - { offset: 0xA6E8D, size: 0x8, addend: 0x0, symName: __RNvNtCsfWotccrMQ3I_14thiserror_impl3fmt7between, symObjAddr: 0x4810, symBinAddr: 0x37A08, symSize: 0x378 }
  - { offset: 0xA7699, size: 0x8, addend: 0x0, symName: __RINvMNtCsaNl6UpbT7bw_4core6optionINtB3_6OptionIBw_RNtNtCsfWotccrMQ3I_14thiserror_impl5unraw11MemberUnrawEE18get_or_insert_withNCNvMs3_NtNtNtB5_4iter8adapters8peekableINtB28_8PeekableINtNtB2a_3map3MapINtNtNtB5_5slice4iter4IterNtNtBR_3ast5FieldENCNvNtBR_6expand10fields_pat0EE4peek0EBR_, symObjAddr: 0x0, symBinAddr: 0x331F8, symSize: 0x104 }
  - { offset: 0xA77E9, size: 0x8, addend: 0x0, symName: __RINvMNtCsaNl6UpbT7bw_4core6optionINtB3_6OptionIBw_TRNtCshnvkK9b4wzu_11proc_macro25IdentNtNtNtNtCsiTraAjBDcu4_5alloc11collections5btree7set_val9SetValZSTEEE18get_or_insert_withNCNvMs3_NtNtNtB5_4iter8adapters8peekableINtB2V_8PeekableINtNtB2X_3map3MapINtNtNtB1v_3vec9into_iter8IntoIterBN_ENCINvMse_NtB1r_3setINtB4J_8BTreeSetBN_E16from_sorted_iterB3Y_E0EE4peek0ECsfWotccrMQ3I_14thiserror_impl, symObjAddr: 0x104, symBinAddr: 0x332FC, symSize: 0x104 }
  - { offset: 0xA78AB, size: 0x8, addend: 0x0, symName: __RINvMNtCsaNl6UpbT7bw_4core6optionINtB3_6OptionINtNtCsc29TF2YcYso_3syn10punctuated4PairRNtCshnvkK9b4wzu_11proc_macro211TokenStreamRNtNtBN_5token4PlusEE7or_elseNCNvXsc_BL_INtBL_5PairsB1n_B24_ENtNtNtNtB5_4iter6traits8iterator8Iterator4nexts_0ECsfWotccrMQ3I_14thiserror_impl, symObjAddr: 0x208, symBinAddr: 0x33400, symSize: 0xB4 }
  - { offset: 0xA790E, size: 0x8, addend: 0x0, symName: __RINvMNtCsaNl6UpbT7bw_4core6optionINtB3_6OptionNtCshnvkK9b4wzu_11proc_macro211TokenStreamE3mapBI_NCNvNtCsfWotccrMQ3I_14thiserror_impl6expand11impl_struct0EB1C_, symObjAddr: 0x2BC, symBinAddr: 0x334B4, symSize: 0x90 }
  - { offset: 0xA79AE, size: 0x8, addend: 0x0, symName: __RINvMNtCsaNl6UpbT7bw_4core6optionINtB3_6OptionNtCshnvkK9b4wzu_11proc_macro211TokenStreamE3mapBI_NCNvNtCsfWotccrMQ3I_14thiserror_impl6expand11impl_structs0_0EB1C_, symObjAddr: 0x34C, symBinAddr: 0x33544, symSize: 0xB8 }
  - { offset: 0xA7A4D, size: 0x8, addend: 0x0, symName: __RINvMNtCsaNl6UpbT7bw_4core6optionINtB3_6OptionRINtNtCsiTraAjBDcu4_5alloc5boxed3BoxNtCshnvkK9b4wzu_11proc_macro211TokenStreamEE3mapRB1i_NvYBJ_INtNtB5_7convert5AsRefB1i_E6as_refECsfWotccrMQ3I_14thiserror_impl, symObjAddr: 0x404, symBinAddr: 0x335FC, symSize: 0x50 }
  - { offset: 0xA7AD0, size: 0x8, addend: 0x0, symName: __RINvMNtCsaNl6UpbT7bw_4core6optionINtB3_6OptionRNtCshnvkK9b4wzu_11proc_macro211TokenStreamE3mapINtNtCsc29TF2YcYso_3syn10punctuated4PairBI_RNtNtB1z_5token4PlusENcNtB1u_3End0ECsfWotccrMQ3I_14thiserror_impl, symObjAddr: 0x454, symBinAddr: 0x3364C, symSize: 0x68 }
  - { offset: 0xA7B55, size: 0x8, addend: 0x0, symName: __RINvMNtCsaNl6UpbT7bw_4core6optionINtB3_6OptionRNtNtCsc29TF2YcYso_3syn4data7VariantE7or_elseNCNvXsw_NtBN_10punctuatedINtB1z_11PrivateIterBJ_NtNtBN_5token5CommaENtNtNtNtB5_4iter6traits8iterator8Iterator4nexts_0ECsfWotccrMQ3I_14thiserror_impl, symObjAddr: 0x4BC, symBinAddr: 0x336B4, symSize: 0xA8 }
  - { offset: 0xA7BDE, size: 0x8, addend: 0x0, symName: __RINvMNtCsaNl6UpbT7bw_4core6optionINtB3_6OptionRNtNtCsc29TF2YcYso_3syn4data7VariantE7or_elseNCNvXsx_NtBN_10punctuatedINtB1z_11PrivateIterBJ_NtNtBN_5token5CommaENtNtNtNtB5_4iter6traits12double_ended19DoubleEndedIterator9next_back0ECsfWotccrMQ3I_14thiserror_impl, symObjAddr: 0x564, symBinAddr: 0x3375C, symSize: 0xA8 }
  - { offset: 0xA7C5A, size: 0x8, addend: 0x0, symName: __RINvMNtCsaNl6UpbT7bw_4core6optionINtB3_6OptionRNtNtCsc29TF2YcYso_3syn4path15GenericArgumentE7or_elseNCNvXsw_NtBN_10punctuatedINtB1I_11PrivateIterBJ_NtNtBN_5token5CommaENtNtNtNtB5_4iter6traits8iterator8Iterator4nexts_0ECsfWotccrMQ3I_14thiserror_impl, symObjAddr: 0x60C, symBinAddr: 0x33804, symSize: 0xA8 }
  - { offset: 0xA7CE3, size: 0x8, addend: 0x0, symName: __RINvMNtCsaNl6UpbT7bw_4core6optionINtB3_6OptionRNtNtCsc29TF2YcYso_3syn4path15GenericArgumentE7or_elseNCNvXsx_NtBN_10punctuatedINtB1I_11PrivateIterBJ_NtNtBN_5token5CommaENtNtNtNtB5_4iter6traits12double_ended19DoubleEndedIterator9next_back0ECsfWotccrMQ3I_14thiserror_impl, symObjAddr: 0x6B4, symBinAddr: 0x338AC, symSize: 0xA8 }
  - { offset: 0xA7D52, size: 0x8, addend: 0x0, symName: __RINvMNtCsaNl6UpbT7bw_4core6optionINtB3_6OptionRNtNtCsc29TF2YcYso_3syn8lifetime8LifetimeE6map_orbNCNvNtCsfWotccrMQ3I_14thiserror_impl5valid28contains_non_static_lifetime0EB1C_, symObjAddr: 0x75C, symBinAddr: 0x33954, symSize: 0xAC }
  - { offset: 0xA7DEB, size: 0x8, addend: 0x0, symName: __RINvMNtCsaNl6UpbT7bw_4core6optionINtB3_6OptionRNtNtCsfWotccrMQ3I_14thiserror_impl3ast5FieldE3mapIBw_NtCshnvkK9b4wzu_11proc_macro211TokenStreamENCNvNtBN_6expand11impl_structs1_0EBN_, symObjAddr: 0x808, symBinAddr: 0x33A00, symSize: 0x98 }
  - { offset: 0xA7E57, size: 0x8, addend: 0x0, symName: __RINvMNtCsaNl6UpbT7bw_4core6optionINtB3_6OptionRNtNtCsfWotccrMQ3I_14thiserror_impl3ast5FieldE3mapNtCshnvkK9b4wzu_11proc_macro211TokenStreamNCNvNtBN_6expand11impl_structs_0EBN_, symObjAddr: 0x8A0, symBinAddr: 0x33A98, symSize: 0x78 }
  - { offset: 0xA7EC2, size: 0x8, addend: 0x0, symName: __RINvMNtCsaNl6UpbT7bw_4core6optionINtB3_6OptionRNtNtCsfWotccrMQ3I_14thiserror_impl3ast5FieldE3mapNtCshnvkK9b4wzu_11proc_macro211TokenStreamNCNvNtBN_6expand16from_initializer0EBN_, symObjAddr: 0x918, symBinAddr: 0x33B10, symSize: 0x6C }
  - { offset: 0xA7F2D, size: 0x8, addend: 0x0, symName: __RINvMNtCsaNl6UpbT7bw_4core6optionINtB3_6OptionRNtNtCsfWotccrMQ3I_14thiserror_impl3ast5FieldE6map_orbNCNvNtBN_4prop24distinct_backtrace_field0EBN_, symObjAddr: 0x984, symBinAddr: 0x33B7C, symSize: 0xB8 }
  - { offset: 0xA7FAC, size: 0x8, addend: 0x0, symName: __RINvMNtCsaNl6UpbT7bw_4core6optionINtB3_6OptionRNtNtCsfWotccrMQ3I_14thiserror_impl4attr7DisplayE6map_orbNCNCNvNtBN_6expand9impl_enums0_00EBN_, symObjAddr: 0xA3C, symBinAddr: 0x33C34, symSize: 0xAC }
  - { offset: 0xA8049, size: 0x8, addend: 0x0, symName: __RINvMNtCsaNl6UpbT7bw_4core6optionINtB3_6OptionRTNtCshnvkK9b4wzu_11proc_macro211TokenStreamNtNtCsc29TF2YcYso_3syn5token4PlusEE3mapINtNtB1u_10punctuated4PairRBK_RB1q_ENCNvXsc_B26_INtB26_5PairsBK_B1q_ENtNtNtNtB5_4iter6traits8iterator8Iterator4next0ECsfWotccrMQ3I_14thiserror_impl, symObjAddr: 0xAE8, symBinAddr: 0x33CE0, symSize: 0x68 }
  - { offset: 0xA80B4, size: 0x8, addend: 0x0, symName: __RINvMNtCsaNl6UpbT7bw_4core6optionINtB3_6OptionRTNtNtCsc29TF2YcYso_3syn4data7VariantNtNtBO_5token5CommaEE3mapRBK_NCNCNvXsx_NtBO_10punctuatedINtB1W_11PrivateIterBK_B1j_ENtNtNtNtB5_4iter6traits12double_ended19DoubleEndedIterator9next_back00ECsfWotccrMQ3I_14thiserror_impl, symObjAddr: 0xB50, symBinAddr: 0x33D48, symSize: 0x50 }
  - { offset: 0xA811F, size: 0x8, addend: 0x0, symName: __RINvMNtCsaNl6UpbT7bw_4core6optionINtB3_6OptionRTNtNtCsc29TF2YcYso_3syn4data7VariantNtNtBO_5token5CommaEE3mapRBK_NCNvXsw_NtBO_10punctuatedINtB1U_11PrivateIterBK_B1j_ENtNtNtNtB5_4iter6traits8iterator8Iterator4next0ECsfWotccrMQ3I_14thiserror_impl, symObjAddr: 0xBA0, symBinAddr: 0x33D98, symSize: 0x50 }
  - { offset: 0xA818A, size: 0x8, addend: 0x0, symName: __RINvMNtCsaNl6UpbT7bw_4core6optionINtB3_6OptionRTNtNtCsc29TF2YcYso_3syn4path15GenericArgumentNtNtBO_5token5CommaEE3mapRBK_NCNCNvXsx_NtBO_10punctuatedINtB25_11PrivateIterBK_B1s_ENtNtNtNtB5_4iter6traits12double_ended19DoubleEndedIterator9next_back00ECsfWotccrMQ3I_14thiserror_impl, symObjAddr: 0xBF0, symBinAddr: 0x33DE8, symSize: 0x50 }
  - { offset: 0xA81F5, size: 0x8, addend: 0x0, symName: __RINvMNtCsaNl6UpbT7bw_4core6optionINtB3_6OptionRTNtNtCsc29TF2YcYso_3syn4path15GenericArgumentNtNtBO_5token5CommaEE3mapRBK_NCNvXsw_NtBO_10punctuatedINtB23_11PrivateIterBK_B1s_ENtNtNtNtB5_4iter6traits8iterator8Iterator4next0ECsfWotccrMQ3I_14thiserror_impl, symObjAddr: 0xC40, symBinAddr: 0x33E38, symSize: 0x50 }
  - { offset: 0xA82E2, size: 0x8, addend: 0x0, symName: __RINvMNtCsaNl6UpbT7bw_4core6optionINtB3_6OptionbE18get_or_insert_withNvNtCsfWotccrMQ3I_14thiserror_impl3fmt11is_syn_fullEB18_, symObjAddr: 0xC90, symBinAddr: 0x33E88, symSize: 0xF4 }
  - { offset: 0xA83E9, size: 0x8, addend: 0x0, symName: __RINvMNtCsc29TF2YcYso_3syn4attrNtB3_9Attribute15parse_args_withNCNvNtCsfWotccrMQ3I_14thiserror_impl4attr21parse_error_attribute0EB14_, symObjAddr: 0xD84, symBinAddr: 0x33F7C, symSize: 0x398 }
  - { offset: 0xA8545, size: 0x8, addend: 0x0, symName: __RINvMs0_NtCsc29TF2YcYso_3syn4attrNtB6_8MetaList15parse_args_withNCNvNtCsfWotccrMQ3I_14thiserror_impl4attr21parse_error_attribute0EB16_, symObjAddr: 0x111C, symBinAddr: 0x34314, symSize: 0x10C }
  - { offset: 0xA85A4, size: 0x8, addend: 0x0, symName: __RNvMNtCsaNl6UpbT7bw_4core6optionINtB2_6OptionINtNtCsiTraAjBDcu4_5alloc5boxed3BoxNtCshnvkK9b4wzu_11proc_macro211TokenStreamEE4takeCsfWotccrMQ3I_14thiserror_impl, symObjAddr: 0x12A4, symBinAddr: 0x3449C, symSize: 0x28 }
  - { offset: 0xA85FB, size: 0x8, addend: 0x0, symName: __RNvMNtCsaNl6UpbT7bw_4core6optionINtB2_6OptionINtNtCsiTraAjBDcu4_5alloc5boxed3BoxNtCshnvkK9b4wzu_11proc_macro211TokenStreamEE6as_refCsfWotccrMQ3I_14thiserror_impl, symObjAddr: 0x12CC, symBinAddr: 0x344C4, symSize: 0x4C }
  - { offset: 0xA8661, size: 0x8, addend: 0x0, symName: __RNvMNtCsaNl6UpbT7bw_4core6optionINtB2_6OptionINtNtCsiTraAjBDcu4_5alloc5boxed3BoxNtCshnvkK9b4wzu_11proc_macro211TokenStreamEE7is_noneCsfWotccrMQ3I_14thiserror_impl, symObjAddr: 0x1318, symBinAddr: 0x34510, symSize: 0x28 }
  - { offset: 0xA86AB, size: 0x8, addend: 0x0, symName: __RNvMNtCsaNl6UpbT7bw_4core6optionINtB2_6OptionINtNtCsiTraAjBDcu4_5alloc5boxed3BoxNtCshnvkK9b4wzu_11proc_macro211TokenStreamEE7is_someCsfWotccrMQ3I_14thiserror_impl, symObjAddr: 0x1340, symBinAddr: 0x34538, symSize: 0x28 }
  - { offset: 0xA8700, size: 0x8, addend: 0x0, symName: __RNvMNtCsaNl6UpbT7bw_4core6optionINtB2_6OptionNtCshnvkK9b4wzu_11proc_macro211TokenStreamE7is_noneCsfWotccrMQ3I_14thiserror_impl, symObjAddr: 0x1368, symBinAddr: 0x34560, symSize: 0x2C }
  - { offset: 0xA874A, size: 0x8, addend: 0x0, symName: __RNvMNtCsaNl6UpbT7bw_4core6optionINtB2_6OptionNtCshnvkK9b4wzu_11proc_macro24SpanE2orCsfWotccrMQ3I_14thiserror_impl, symObjAddr: 0x1394, symBinAddr: 0x3458C, symSize: 0x84 }
  - { offset: 0xA87B0, size: 0x8, addend: 0x0, symName: __RNvMNtCsaNl6UpbT7bw_4core6optionINtB2_6OptionNtCshnvkK9b4wzu_11proc_macro25IdentE7is_someCsfWotccrMQ3I_14thiserror_impl, symObjAddr: 0x1418, symBinAddr: 0x34610, symSize: 0x28 }
  - { offset: 0xA87E9, size: 0x8, addend: 0x0, symName: __RNvMNtCsaNl6UpbT7bw_4core6optionINtB2_6OptionNtCshnvkK9b4wzu_11proc_macro29TokenTreeE7is_someCsfWotccrMQ3I_14thiserror_impl, symObjAddr: 0x1440, symBinAddr: 0x34638, symSize: 0x28 }
  - { offset: 0xA8822, size: 0x8, addend: 0x0, symName: __RNvMNtCsaNl6UpbT7bw_4core6optionINtB2_6OptionNtNtCsc29TF2YcYso_3syn3lit3LitE7is_someCsfWotccrMQ3I_14thiserror_impl, symObjAddr: 0x1468, symBinAddr: 0x34660, symSize: 0x30 }
  - { offset: 0xA8877, size: 0x8, addend: 0x0, symName: __RNvMNtCsaNl6UpbT7bw_4core6optionINtB2_6OptionNtNtCsfWotccrMQ3I_14thiserror_impl4attr11TransparentE7is_noneBL_, symObjAddr: 0x1498, symBinAddr: 0x34690, symSize: 0x28 }
  - { offset: 0xA88C1, size: 0x8, addend: 0x0, symName: __RNvMNtCsaNl6UpbT7bw_4core6optionINtB2_6OptionNtNtCsfWotccrMQ3I_14thiserror_impl4attr11TransparentE7is_someBL_, symObjAddr: 0x14C0, symBinAddr: 0x346B8, symSize: 0x28 }
  - { offset: 0xA8916, size: 0x8, addend: 0x0, symName: __RNvMNtCsaNl6UpbT7bw_4core6optionINtB2_6OptionNtNtCsfWotccrMQ3I_14thiserror_impl4attr3FmtE7is_noneBL_, symObjAddr: 0x14E8, symBinAddr: 0x346E0, symSize: 0x2C }
  - { offset: 0xA8960, size: 0x8, addend: 0x0, symName: __RNvMNtCsaNl6UpbT7bw_4core6optionINtB2_6OptionNtNtCsfWotccrMQ3I_14thiserror_impl4attr3FmtE7is_someBL_, symObjAddr: 0x1514, symBinAddr: 0x3470C, symSize: 0x2C }
  - { offset: 0xA8999, size: 0x8, addend: 0x0, symName: __RNvMNtCsaNl6UpbT7bw_4core6optionINtB2_6OptionNtNtCsfWotccrMQ3I_14thiserror_impl4attr4FromE7is_someBL_, symObjAddr: 0x1540, symBinAddr: 0x34738, symSize: 0x28 }
  - { offset: 0xA89D2, size: 0x8, addend: 0x0, symName: __RNvMNtCsaNl6UpbT7bw_4core6optionINtB2_6OptionNtNtCsfWotccrMQ3I_14thiserror_impl4attr6SourceE7is_someBL_, symObjAddr: 0x1568, symBinAddr: 0x34760, symSize: 0x28 }
  - { offset: 0xA8A0B, size: 0x8, addend: 0x0, symName: __RNvMNtCsaNl6UpbT7bw_4core6optionINtB2_6OptionNtNtCsfWotccrMQ3I_14thiserror_impl4attr7DisplayE6as_refBL_, symObjAddr: 0x1590, symBinAddr: 0x34788, symSize: 0x50 }
  - { offset: 0xA8A71, size: 0x8, addend: 0x0, symName: __RNvMNtCsaNl6UpbT7bw_4core6optionINtB2_6OptionNtNtCsfWotccrMQ3I_14thiserror_impl4attr7DisplayE7is_noneBL_, symObjAddr: 0x15E0, symBinAddr: 0x347D8, symSize: 0x2C }
  - { offset: 0xA8ABB, size: 0x8, addend: 0x0, symName: __RNvMNtCsaNl6UpbT7bw_4core6optionINtB2_6OptionNtNtCsfWotccrMQ3I_14thiserror_impl4attr7DisplayE7is_someBL_, symObjAddr: 0x160C, symBinAddr: 0x34804, symSize: 0x2C }
  - { offset: 0xA8AF4, size: 0x8, addend: 0x0, symName: __RNvMNtCsaNl6UpbT7bw_4core6optionINtB2_6OptionRNtNtCsc29TF2YcYso_3syn2ty4TypeE7is_someCsfWotccrMQ3I_14thiserror_impl, symObjAddr: 0x1638, symBinAddr: 0x34830, symSize: 0x28 }
  - { offset: 0xA8B20, size: 0x8, addend: 0x0, symName: __RNvMNtCsaNl6UpbT7bw_4core6optionINtB2_6OptionRNtNtCsc29TF2YcYso_3syn2ty4TypeE9unwrap_orCsfWotccrMQ3I_14thiserror_impl, symObjAddr: 0x1660, symBinAddr: 0x34858, symSize: 0x4C }
  - { offset: 0xA8BA2, size: 0x8, addend: 0x0, symName: __RNvMNtCsaNl6UpbT7bw_4core6optionINtB2_6OptionRNtNtCsc29TF2YcYso_3syn4attr9AttributeE7is_noneCsfWotccrMQ3I_14thiserror_impl, symObjAddr: 0x16AC, symBinAddr: 0x348A4, symSize: 0x28 }
  - { offset: 0xA8BEC, size: 0x8, addend: 0x0, symName: __RNvMNtCsaNl6UpbT7bw_4core6optionINtB2_6OptionRNtNtCsc29TF2YcYso_3syn4attr9AttributeE7is_someCsfWotccrMQ3I_14thiserror_impl, symObjAddr: 0x16D4, symBinAddr: 0x348CC, symSize: 0x28 }
  - { offset: 0xA8C32, size: 0x8, addend: 0x0, symName: __RNvMNtCsaNl6UpbT7bw_4core6optionINtB2_6OptionRNtNtCsc29TF2YcYso_3syn8generics9TypeParamE7is_someCsfWotccrMQ3I_14thiserror_impl, symObjAddr: 0x16FC, symBinAddr: 0x348F4, symSize: 0x28 }
  - { offset: 0xA8C5E, size: 0x8, addend: 0x0, symName: __RNvMNtCsaNl6UpbT7bw_4core6optionINtB2_6OptionRNtNtCsfWotccrMQ3I_14thiserror_impl3ast5FieldE2orBM_, symObjAddr: 0x1724, symBinAddr: 0x3491C, symSize: 0x64 }
  - { offset: 0xA8CC4, size: 0x8, addend: 0x0, symName: __RNvMNtCsaNl6UpbT7bw_4core6optionINtB2_6OptionRNtNtCsfWotccrMQ3I_14thiserror_impl3ast5FieldE7is_someBM_, symObjAddr: 0x1788, symBinAddr: 0x34980, symSize: 0x28 }
  - { offset: 0xA8EA3, size: 0x8, addend: 0x0, symName: __RNvXNtCs4EAaWzSXu1l_5quote9to_tokensRNtNtCsc29TF2YcYso_3syn8generics11WhereClauseNtB2_8ToTokens9to_tokensCsfWotccrMQ3I_14thiserror_impl, symObjAddr: 0x1C3C, symBinAddr: 0x34E34, symSize: 0x40 }
  - { offset: 0xA8EE2, size: 0x8, addend: 0x0, symName: __RNvXNtCs4EAaWzSXu1l_5quote9to_tokensRRNtNtCsc29TF2YcYso_3syn4attr9AttributeNtB2_8ToTokens9to_tokensCsfWotccrMQ3I_14thiserror_impl, symObjAddr: 0x1C7C, symBinAddr: 0x34E74, symSize: 0x40 }
  - { offset: 0xA8F27, size: 0x8, addend: 0x0, symName: __RNvXs3_NtCs4EAaWzSXu1l_5quote9to_tokensINtNtCsaNl6UpbT7bw_4core6option6OptionIBC_NtCshnvkK9b4wzu_11proc_macro211TokenStreamEENtB5_8ToTokens9to_tokensCsfWotccrMQ3I_14thiserror_impl, symObjAddr: 0x1FEC, symBinAddr: 0x351E4, symSize: 0x88 }
  - { offset: 0xA8F83, size: 0x8, addend: 0x0, symName: __RNvXs3_NtCs4EAaWzSXu1l_5quote9to_tokensINtNtCsaNl6UpbT7bw_4core6option6OptionNtCshnvkK9b4wzu_11proc_macro211TokenStreamENtB5_8ToTokens9to_tokensCsfWotccrMQ3I_14thiserror_impl, symObjAddr: 0x2074, symBinAddr: 0x3526C, symSize: 0x84 }
  - { offset: 0xA8FDF, size: 0x8, addend: 0x0, symName: __RNvXs3_NtCs4EAaWzSXu1l_5quote9to_tokensINtNtCsaNl6UpbT7bw_4core6option6OptionRNtNtCsc29TF2YcYso_3syn8generics11WhereClauseENtB5_8ToTokens9to_tokensCsfWotccrMQ3I_14thiserror_impl, symObjAddr: 0x20F8, symBinAddr: 0x352F0, symSize: 0x80 }
  - { offset: 0xA9041, size: 0x8, addend: 0x0, symName: __RNvYRNtNtCsc29TF2YcYso_3syn4attr9AttributeNtNtCs4EAaWzSXu1l_5quote9to_tokens8ToTokens15to_token_streamCsfWotccrMQ3I_14thiserror_impl, symObjAddr: 0x2F88, symBinAddr: 0x36180, symSize: 0x8C }
  - { offset: 0xA908B, size: 0x8, addend: 0x0, symName: __RNvYRNtNtCsc29TF2YcYso_3syn4attr9AttributeNtNtCs4EAaWzSXu1l_5quote9to_tokens8ToTokens17into_token_streamCsfWotccrMQ3I_14thiserror_impl, symObjAddr: 0x3014, symBinAddr: 0x3620C, symSize: 0x54 }
  - { offset: 0xA90C0, size: 0x8, addend: 0x0, symName: __RNvYRRNtNtCsc29TF2YcYso_3syn4attr9AttributeNtNtCs4EAaWzSXu1l_5quote9to_tokens8ToTokens15to_token_streamCsfWotccrMQ3I_14thiserror_impl, symObjAddr: 0x3068, symBinAddr: 0x36260, symSize: 0x8C }
  - { offset: 0xA910A, size: 0x8, addend: 0x0, symName: __RNvYRRNtNtCsc29TF2YcYso_3syn4attr9AttributeNtNtCs4EAaWzSXu1l_5quote9to_tokens8ToTokens17into_token_streamCsfWotccrMQ3I_14thiserror_impl, symObjAddr: 0x30F4, symBinAddr: 0x362EC, symSize: 0x54 }
  - { offset: 0xA9666, size: 0x8, addend: 0x0, symName: __RINvMNtNtCsaNl6UpbT7bw_4core3fmt2rtNtB3_8Argument11new_displayINtNtCs4EAaWzSXu1l_5quote9___private20IdentFragmentAdapterRNtNtCsc29TF2YcYso_3syn4expr5IndexEECsfWotccrMQ3I_14thiserror_impl, symObjAddr: 0x0, symBinAddr: 0x38B48, symSize: 0x2C }
  - { offset: 0xA9B5E, size: 0x8, addend: 0x0, symName: __RNCNCNvXsx_NtCsc29TF2YcYso_3syn10punctuatedINtB9_11PrivateIterNtNtBb_4data7VariantNtNtBb_5token5CommaENtNtNtNtCsaNl6UpbT7bw_4core4iter6traits12double_ended19DoubleEndedIterator9next_back00CsfWotccrMQ3I_14thiserror_impl, symObjAddr: 0xA90, symBinAddr: 0x395D8, symSize: 0x24 }
  - { offset: 0xA9BA9, size: 0x8, addend: 0x0, symName: __RNCNCNvXsx_NtCsc29TF2YcYso_3syn10punctuatedINtB9_11PrivateIterNtNtBb_4path15GenericArgumentNtNtBb_5token5CommaENtNtNtNtCsaNl6UpbT7bw_4core4iter6traits12double_ended19DoubleEndedIterator9next_back00CsfWotccrMQ3I_14thiserror_impl, symObjAddr: 0xAB4, symBinAddr: 0x395FC, symSize: 0x24 }
  - { offset: 0xA9C03, size: 0x8, addend: 0x0, symName: __RNCNvXsx_NtCsc29TF2YcYso_3syn10punctuatedINtB7_11PrivateIterNtNtB9_4data7VariantNtNtB9_5token5CommaENtNtNtNtCsaNl6UpbT7bw_4core4iter6traits12double_ended19DoubleEndedIterator9next_back0CsfWotccrMQ3I_14thiserror_impl, symObjAddr: 0xC44, symBinAddr: 0x3978C, symSize: 0x38 }
  - { offset: 0xA9C45, size: 0x8, addend: 0x0, symName: __RNCNvXsx_NtCsc29TF2YcYso_3syn10punctuatedINtB7_11PrivateIterNtNtB9_4path15GenericArgumentNtNtB9_5token5CommaENtNtNtNtCsaNl6UpbT7bw_4core4iter6traits12double_ended19DoubleEndedIterator9next_back0CsfWotccrMQ3I_14thiserror_impl, symObjAddr: 0xC7C, symBinAddr: 0x397C4, symSize: 0x38 }
  - { offset: 0xA9C88, size: 0x8, addend: 0x0, symName: __RNvXsx_NtCsc29TF2YcYso_3syn10punctuatedINtB5_11PrivateIterNtNtB7_4data7VariantNtNtB7_5token5CommaENtNtNtNtCsaNl6UpbT7bw_4core4iter6traits12double_ended19DoubleEndedIterator9next_backCsfWotccrMQ3I_14thiserror_impl, symObjAddr: 0x2A5C, symBinAddr: 0x3B5A4, symSize: 0x40 }
  - { offset: 0xA9CC8, size: 0x8, addend: 0x0, symName: __RNvXsx_NtCsc29TF2YcYso_3syn10punctuatedINtB5_11PrivateIterNtNtB7_4path15GenericArgumentNtNtB7_5token5CommaENtNtNtNtCsaNl6UpbT7bw_4core4iter6traits12double_ended19DoubleEndedIterator9next_backCsfWotccrMQ3I_14thiserror_impl, symObjAddr: 0x2A9C, symBinAddr: 0x3B5E4, symSize: 0x40 }
  - { offset: 0xA9D13, size: 0x8, addend: 0x0, symName: __RNCNvXsc_NtCsc29TF2YcYso_3syn10punctuatedINtB7_5PairsNtCshnvkK9b4wzu_11proc_macro211TokenStreamNtNtB9_5token4PlusENtNtNtNtCsaNl6UpbT7bw_4core4iter6traits8iterator8Iterator4next0CsfWotccrMQ3I_14thiserror_impl, symObjAddr: 0xB14, symBinAddr: 0x3965C, symSize: 0x40 }
  - { offset: 0xA9D88, size: 0x8, addend: 0x0, symName: __RNCNvXsc_NtCsc29TF2YcYso_3syn10punctuatedINtB7_5PairsNtCshnvkK9b4wzu_11proc_macro211TokenStreamNtNtB9_5token4PlusENtNtNtNtCsaNl6UpbT7bw_4core4iter6traits8iterator8Iterator4nexts_0CsfWotccrMQ3I_14thiserror_impl, symObjAddr: 0xB54, symBinAddr: 0x3969C, symSize: 0x40 }
  - { offset: 0xA9DD2, size: 0x8, addend: 0x0, symName: __RNvXsc_NtCsc29TF2YcYso_3syn10punctuatedINtB5_5PairsNtCshnvkK9b4wzu_11proc_macro211TokenStreamNtNtB7_5token4PlusENtNtNtNtCsaNl6UpbT7bw_4core4iter6traits8iterator8Iterator4nextCsfWotccrMQ3I_14thiserror_impl, symObjAddr: 0x2764, symBinAddr: 0x3B2AC, symSize: 0x58 }
  - { offset: 0xA9E1D, size: 0x8, addend: 0x0, symName: __RNCNvXsw_NtCsc29TF2YcYso_3syn10punctuatedINtB7_11PrivateIterNtNtB9_4data7VariantNtNtB9_5token5CommaENtNtNtNtCsaNl6UpbT7bw_4core4iter6traits8iterator8Iterator4next0CsfWotccrMQ3I_14thiserror_impl, symObjAddr: 0xB94, symBinAddr: 0x396DC, symSize: 0x24 }
  - { offset: 0xA9E68, size: 0x8, addend: 0x0, symName: __RNCNvXsw_NtCsc29TF2YcYso_3syn10punctuatedINtB7_11PrivateIterNtNtB9_4data7VariantNtNtB9_5token5CommaENtNtNtNtCsaNl6UpbT7bw_4core4iter6traits8iterator8Iterator4nexts_0CsfWotccrMQ3I_14thiserror_impl, symObjAddr: 0xBB8, symBinAddr: 0x39700, symSize: 0x34 }
  - { offset: 0xA9EAA, size: 0x8, addend: 0x0, symName: __RNCNvXsw_NtCsc29TF2YcYso_3syn10punctuatedINtB7_11PrivateIterNtNtB9_4path15GenericArgumentNtNtB9_5token5CommaENtNtNtNtCsaNl6UpbT7bw_4core4iter6traits8iterator8Iterator4next0CsfWotccrMQ3I_14thiserror_impl, symObjAddr: 0xBEC, symBinAddr: 0x39734, symSize: 0x24 }
  - { offset: 0xA9EF5, size: 0x8, addend: 0x0, symName: __RNCNvXsw_NtCsc29TF2YcYso_3syn10punctuatedINtB7_11PrivateIterNtNtB9_4path15GenericArgumentNtNtB9_5token5CommaENtNtNtNtCsaNl6UpbT7bw_4core4iter6traits8iterator8Iterator4nexts_0CsfWotccrMQ3I_14thiserror_impl, symObjAddr: 0xC10, symBinAddr: 0x39758, symSize: 0x34 }
  - { offset: 0xA9F46, size: 0x8, addend: 0x0, symName: __RNvXsw_NtCsc29TF2YcYso_3syn10punctuatedINtB5_11PrivateIterNtNtB7_4data7VariantNtNtB7_5token5CommaENtNtNtNtCsaNl6UpbT7bw_4core4iter6traits8iterator8Iterator4nextCsfWotccrMQ3I_14thiserror_impl, symObjAddr: 0x29D4, symBinAddr: 0x3B51C, symSize: 0x44 }
  - { offset: 0xA9F86, size: 0x8, addend: 0x0, symName: __RNvXsw_NtCsc29TF2YcYso_3syn10punctuatedINtB5_11PrivateIterNtNtB7_4path15GenericArgumentNtNtB7_5token5CommaENtNtNtNtCsaNl6UpbT7bw_4core4iter6traits8iterator8Iterator4nextCsfWotccrMQ3I_14thiserror_impl, symObjAddr: 0x2A18, symBinAddr: 0x3B560, symSize: 0x44 }
  - { offset: 0xA9FD1, size: 0x8, addend: 0x0, symName: __RNcNtINtNtCsc29TF2YcYso_3syn10punctuated4PairRNtCshnvkK9b4wzu_11proc_macro211TokenStreamRNtNtB8_5token4PlusE3End0CsfWotccrMQ3I_14thiserror_impl, symObjAddr: 0xCB4, symBinAddr: 0x397FC, symSize: 0x1C }
  - { offset: 0xAA185, size: 0x8, addend: 0x0, symName: __RNvXNtNtCsc29TF2YcYso_3syn10punctuated8printingINtB4_10PunctuatedNtCshnvkK9b4wzu_11proc_macro211TokenStreamNtNtB6_5token4PlusENtNtCs4EAaWzSXu1l_5quote9to_tokens8ToTokens9to_tokensCsfWotccrMQ3I_14thiserror_impl, symObjAddr: 0x2074, symBinAddr: 0x3ABBC, symSize: 0x50 }
  - { offset: 0xAA1D6, size: 0x8, addend: 0x0, symName: __RNvXs_NtNtCsc29TF2YcYso_3syn10punctuated8printingINtB6_4PairRNtCshnvkK9b4wzu_11proc_macro211TokenStreamRNtNtB8_5token4PlusENtNtCs4EAaWzSXu1l_5quote9to_tokens8ToTokens9to_tokensCsfWotccrMQ3I_14thiserror_impl, symObjAddr: 0x2528, symBinAddr: 0x3B070, symSize: 0xB4 }
  - { offset: 0xAA26C, size: 0x8, addend: 0x0, symName: __RNvXs9_NtCsc29TF2YcYso_3syn10punctuatedRINtB5_10PunctuatedNtNtB7_4path11PathSegmentNtNtB7_5token7PathSepENtNtNtNtCsaNl6UpbT7bw_4core4iter6traits7collect12IntoIterator9into_iterCsfWotccrMQ3I_14thiserror_impl, symObjAddr: 0x21C0, symBinAddr: 0x3AD08, symSize: 0x34 }
  - { offset: 0xAA2AC, size: 0x8, addend: 0x0, symName: __RNvXs9_NtCsc29TF2YcYso_3syn10punctuatedRINtB5_10PunctuatedNtNtB7_4path15GenericArgumentNtNtB7_5token5CommaENtNtNtNtCsaNl6UpbT7bw_4core4iter6traits7collect12IntoIterator9into_iterCsfWotccrMQ3I_14thiserror_impl, symObjAddr: 0x21F4, symBinAddr: 0x3AD3C, symSize: 0x34 }
  - { offset: 0xAA2F2, size: 0x8, addend: 0x0, symName: __RNvXsA_NtCsc29TF2YcYso_3syn10punctuatedINtB5_11PrivateIterNtNtB7_4data7VariantNtNtB7_5token5CommaEINtB5_9IterTraitBU_E9clone_boxCsfWotccrMQ3I_14thiserror_impl, symObjAddr: 0x2228, symBinAddr: 0x3AD70, symSize: 0x94 }
  - { offset: 0xAA350, size: 0x8, addend: 0x0, symName: __RNvXsA_NtCsc29TF2YcYso_3syn10punctuatedINtB5_11PrivateIterNtNtB7_4path15GenericArgumentNtNtB7_5token5CommaEINtB5_9IterTraitBU_E9clone_boxCsfWotccrMQ3I_14thiserror_impl, symObjAddr: 0x22BC, symBinAddr: 0x3AE04, symSize: 0x94 }
  - { offset: 0xAA3B4, size: 0x8, addend: 0x0, symName: __RNvXsN_NtCsc29TF2YcYso_3syn10punctuatedINtB5_10PunctuatedNtNtB7_4path15GenericArgumentNtNtB7_5token5CommaEINtNtNtCsaNl6UpbT7bw_4core3ops5index5IndexjE5indexCsfWotccrMQ3I_14thiserror_impl, symObjAddr: 0x2350, symBinAddr: 0x3AE98, symSize: 0x174 }
  - { offset: 0xAA41F, size: 0x8, addend: 0x0, symName: __RNvXsb_NtCsc29TF2YcYso_3syn10punctuatedINtB5_10PunctuatedNtCshnvkK9b4wzu_11proc_macro211TokenStreamNtNtB7_5token4PlusENtNtCsaNl6UpbT7bw_4core7default7Default7defaultCsfWotccrMQ3I_14thiserror_impl, symObjAddr: 0x2740, symBinAddr: 0x3B288, symSize: 0x24 }
  - { offset: 0xAA456, size: 0x8, addend: 0x0, symName: __RNvXst_NtCsc29TF2YcYso_3syn10punctuatedINtB5_4IterNtNtB7_4data5FieldENtNtNtNtCsaNl6UpbT7bw_4core4iter6traits8iterator8Iterator9size_hintCsfWotccrMQ3I_14thiserror_impl, symObjAddr: 0x27BC, symBinAddr: 0x3B304, symSize: 0x7C }
  - { offset: 0xAA48D, size: 0x8, addend: 0x0, symName: __RNvXst_NtCsc29TF2YcYso_3syn10punctuatedINtB5_4IterNtNtB7_4data7VariantENtNtNtNtCsaNl6UpbT7bw_4core4iter6traits8iterator8Iterator4nextCsfWotccrMQ3I_14thiserror_impl, symObjAddr: 0x2838, symBinAddr: 0x3B380, symSize: 0x48 }
  - { offset: 0xAA4C4, size: 0x8, addend: 0x0, symName: __RNvXst_NtCsc29TF2YcYso_3syn10punctuatedINtB5_4IterNtNtB7_4data7VariantENtNtNtNtCsaNl6UpbT7bw_4core4iter6traits8iterator8Iterator9size_hintCsfWotccrMQ3I_14thiserror_impl, symObjAddr: 0x2880, symBinAddr: 0x3B3C8, symSize: 0x7C }
  - { offset: 0xAA4FB, size: 0x8, addend: 0x0, symName: __RNvXst_NtCsc29TF2YcYso_3syn10punctuatedINtB5_4IterNtNtB7_4path15GenericArgumentENtNtNtNtCsaNl6UpbT7bw_4core4iter6traits8iterator8Iterator4nextCsfWotccrMQ3I_14thiserror_impl, symObjAddr: 0x28FC, symBinAddr: 0x3B444, symSize: 0x48 }
  - { offset: 0xAA538, size: 0x8, addend: 0x0, symName: __RNvXsv_NtCsc29TF2YcYso_3syn10punctuatedINtB5_4IterNtNtB7_4data5FieldENtNtNtNtCsaNl6UpbT7bw_4core4iter6traits10exact_size17ExactSizeIterator3lenCsfWotccrMQ3I_14thiserror_impl, symObjAddr: 0x2944, symBinAddr: 0x3B48C, symSize: 0x48 }
  - { offset: 0xAA56F, size: 0x8, addend: 0x0, symName: __RNvXsv_NtCsc29TF2YcYso_3syn10punctuatedINtB5_4IterNtNtB7_4data7VariantENtNtNtNtCsaNl6UpbT7bw_4core4iter6traits10exact_size17ExactSizeIterator3lenCsfWotccrMQ3I_14thiserror_impl, symObjAddr: 0x298C, symBinAddr: 0x3B4D4, symSize: 0x48 }
  - { offset: 0xAA5AC, size: 0x8, addend: 0x0, symName: __RNvXsy_NtCsc29TF2YcYso_3syn10punctuatedINtB5_11PrivateIterNtNtB7_4data7VariantNtNtB7_5token5CommaENtNtNtNtCsaNl6UpbT7bw_4core4iter6traits10exact_size17ExactSizeIterator3lenCsfWotccrMQ3I_14thiserror_impl, symObjAddr: 0x2ADC, symBinAddr: 0x3B624, symSize: 0x94 }
  - { offset: 0xAA620, size: 0x8, addend: 0x0, symName: __RNvXsy_NtCsc29TF2YcYso_3syn10punctuatedINtB5_11PrivateIterNtNtB7_4path15GenericArgumentNtNtB7_5token5CommaENtNtNtNtCsaNl6UpbT7bw_4core4iter6traits10exact_size17ExactSizeIterator3lenCsfWotccrMQ3I_14thiserror_impl, symObjAddr: 0x2B70, symBinAddr: 0x3B6B8, symSize: 0x94 }
  - { offset: 0xAA69A, size: 0x8, addend: 0x0, symName: __RNvXsz_NtCsc29TF2YcYso_3syn10punctuatedINtB5_11PrivateIterNtNtB7_4data7VariantNtNtB7_5token5CommaENtNtCsaNl6UpbT7bw_4core5clone5Clone5cloneCsfWotccrMQ3I_14thiserror_impl, symObjAddr: 0x2C04, symBinAddr: 0x3B74C, symSize: 0x68 }
  - { offset: 0xAA6DA, size: 0x8, addend: 0x0, symName: __RNvXsz_NtCsc29TF2YcYso_3syn10punctuatedINtB5_11PrivateIterNtNtB7_4path15GenericArgumentNtNtB7_5token5CommaENtNtCsaNl6UpbT7bw_4core5clone5Clone5cloneCsfWotccrMQ3I_14thiserror_impl, symObjAddr: 0x2C6C, symBinAddr: 0x3B7B4, symSize: 0x68 }
  - { offset: 0xB4F1E, size: 0x8, addend: 0x0, symName: __RINvYINtNtCsc29TF2YcYso_3syn10punctuated11PrivateIterNtNtB8_4data7VariantNtNtB8_5token5CommaENtNtNtNtCsaNl6UpbT7bw_4core4iter6traits8iterator8Iterator8try_foldINtNtNtB1B_3num7nonzero7NonZerojENCNvXs_NvB1t_10advance_byB3_NtB3b_13SpecAdvanceBy15spec_advance_by0INtNtB1B_6option6OptionB2x_EECsfWotccrMQ3I_14thiserror_impl, symObjAddr: 0x47C, symBinAddr: 0x38FC4, symSize: 0x154 }
  - { offset: 0xB4FD2, size: 0x8, addend: 0x0, symName: __RINvYINtNtCsc29TF2YcYso_3syn10punctuated11PrivateIterNtNtB8_4path15GenericArgumentNtNtB8_5token5CommaENtNtNtNtCsaNl6UpbT7bw_4core4iter6traits8iterator8Iterator8try_foldINtNtNtB1K_3num7nonzero7NonZerojENCNvXs_NvB1C_10advance_byB3_NtB3k_13SpecAdvanceBy15spec_advance_by0INtNtB1K_6option6OptionB2G_EECsfWotccrMQ3I_14thiserror_impl, symObjAddr: 0x5D0, symBinAddr: 0x39118, symSize: 0x154 }
  - { offset: 0xB5086, size: 0x8, addend: 0x0, symName: __RINvYINtNtCsc29TF2YcYso_3syn10punctuated4IterNtNtB8_4data5FieldENtNtNtNtCsaNl6UpbT7bw_4core4iter6traits8iterator8Iterator8try_folduNCINvNvXs_NtNtB16_8adapters9enumerateINtB2f_9EnumeratepEB10_8try_fold9enumerateRBH_uINtNtNtB18_3ops12control_flow11ControlFlowIB3s_NtNtCsfWotccrMQ3I_14thiserror_impl3ast5FieldEENCINvNtB2h_3map12map_try_foldTjB3m_EINtNtB18_6result6ResultB4c_NtNtB8_5error5ErrorEuB3r_NCNvMs2_B4e_B4c_17multiple_from_syn0NCINvXB2h_INtB2h_12GenericShuntINtB51_3MapIB2H_B3_EB6m_EIB5x_NtNtB18_7convert10InfallibleB5X_EEB10_8try_folduNCINvNvB10_12try_for_each4callB4c_B47_NcNtB47_5Break0E0B47_E0E0E0B3r_EB4g_, symObjAddr: 0x724, symBinAddr: 0x3926C, symSize: 0x150 }
  - { offset: 0xB5142, size: 0x8, addend: 0x0, symName: __RINvYINtNtCsc29TF2YcYso_3syn10punctuated4IterNtNtB8_4data7VariantENtNtNtNtCsaNl6UpbT7bw_4core4iter6traits8iterator8Iterator3mapINtNtB1a_6result6ResultNtNtCsfWotccrMQ3I_14thiserror_impl3ast7VariantNtNtB8_5error5ErrorENCNvMs0_B2q_NtB2q_4Enum8from_syn0EB2s_, symObjAddr: 0x874, symBinAddr: 0x393BC, symSize: 0x34 }
  - { offset: 0xB51AF, size: 0x8, addend: 0x0, symName: __RINvYINtNtCsc29TF2YcYso_3syn10punctuated4IterNtNtB8_4data7VariantENtNtNtNtCsaNl6UpbT7bw_4core4iter6traits8iterator8Iterator8try_folduNCINvNtNtB18_8adapters3map12map_try_foldRBH_INtNtB1a_6result6ResultNtNtCsfWotccrMQ3I_14thiserror_impl3ast7VariantNtNtB8_5error5ErrorEuINtNtNtB1a_3ops12control_flow11ControlFlowIB4i_B3c_EENCNvMs0_B3e_NtB3e_4Enum8from_syn0NCINvXB2e_INtB2e_12GenericShuntINtB2c_3MapB3_B58_EIB2Q_NtNtB1a_7convert10InfallibleB3W_EEB12_8try_folduNCINvNvB12_12try_for_each4callB3c_B4X_NcNtB4X_5Break0E0B4X_E0E0B4h_EB3g_, symObjAddr: 0x8A8, symBinAddr: 0x393F0, symSize: 0x14C }
  - { offset: 0xB5275, size: 0x8, addend: 0x0, symName: __RNvXs_NvNtNtNtNtCsaNl6UpbT7bw_4core4iter6traits8iterator8Iterator10advance_byINtNtCsc29TF2YcYso_3syn10punctuated11PrivateIterNtNtB1i_4data7VariantNtNtB1i_5token5CommaENtB4_13SpecAdvanceBy15spec_advance_byCsfWotccrMQ3I_14thiserror_impl, symObjAddr: 0x2628, symBinAddr: 0x3B170, symSize: 0x8C }
  - { offset: 0xB5323, size: 0x8, addend: 0x0, symName: __RNvXs_NvNtNtNtNtCsaNl6UpbT7bw_4core4iter6traits8iterator8Iterator10advance_byINtNtCsc29TF2YcYso_3syn10punctuated11PrivateIterNtNtB1i_4path15GenericArgumentNtNtB1i_5token5CommaENtB4_13SpecAdvanceBy15spec_advance_byCsfWotccrMQ3I_14thiserror_impl, symObjAddr: 0x26B4, symBinAddr: 0x3B1FC, symSize: 0x8C }
  - { offset: 0xB53E7, size: 0x8, addend: 0x0, symName: __RNvYINtNtCsc29TF2YcYso_3syn10punctuated11PrivateIterNtNtB7_4data7VariantNtNtB7_5token5CommaENtNtNtNtCsaNl6UpbT7bw_4core4iter6traits8iterator8Iterator10advance_byCsfWotccrMQ3I_14thiserror_impl, symObjAddr: 0x2EC0, symBinAddr: 0x3BA08, symSize: 0x28 }
  - { offset: 0xB542D, size: 0x8, addend: 0x0, symName: __RNvYINtNtCsc29TF2YcYso_3syn10punctuated11PrivateIterNtNtB7_4data7VariantNtNtB7_5token5CommaENtNtNtNtCsaNl6UpbT7bw_4core4iter6traits8iterator8Iterator3nthCsfWotccrMQ3I_14thiserror_impl, symObjAddr: 0x2EE8, symBinAddr: 0x3BA30, symSize: 0x7C }
  - { offset: 0xB54F9, size: 0x8, addend: 0x0, symName: __RNvYINtNtCsc29TF2YcYso_3syn10punctuated11PrivateIterNtNtB7_4data7VariantNtNtB7_5token5CommaENtNtNtNtCsaNl6UpbT7bw_4core4iter6traits8iterator8Iterator9size_hintCsfWotccrMQ3I_14thiserror_impl, symObjAddr: 0x2F64, symBinAddr: 0x3BAAC, symSize: 0x34 }
  - { offset: 0xB552E, size: 0x8, addend: 0x0, symName: __RNvYINtNtCsc29TF2YcYso_3syn10punctuated11PrivateIterNtNtB7_4path15GenericArgumentNtNtB7_5token5CommaENtNtNtNtCsaNl6UpbT7bw_4core4iter6traits8iterator8Iterator10advance_byCsfWotccrMQ3I_14thiserror_impl, symObjAddr: 0x3184, symBinAddr: 0x3BCCC, symSize: 0x28 }
  - { offset: 0xB5574, size: 0x8, addend: 0x0, symName: __RNvYINtNtCsc29TF2YcYso_3syn10punctuated11PrivateIterNtNtB7_4path15GenericArgumentNtNtB7_5token5CommaENtNtNtNtCsaNl6UpbT7bw_4core4iter6traits8iterator8Iterator3nthCsfWotccrMQ3I_14thiserror_impl, symObjAddr: 0x31AC, symBinAddr: 0x3BCF4, symSize: 0x7C }
  - { offset: 0xB5640, size: 0x8, addend: 0x0, symName: __RNvYINtNtCsc29TF2YcYso_3syn10punctuated11PrivateIterNtNtB7_4path15GenericArgumentNtNtB7_5token5CommaENtNtNtNtCsaNl6UpbT7bw_4core4iter6traits8iterator8Iterator9size_hintCsfWotccrMQ3I_14thiserror_impl, symObjAddr: 0x3228, symBinAddr: 0x3BD70, symSize: 0x34 }
  - { offset: 0xB5675, size: 0x8, addend: 0x0, symName: __RNvYINtNtCsc29TF2YcYso_3syn10punctuated4IterNtNtB7_4data5FieldENtNtNtNtCsaNl6UpbT7bw_4core4iter6traits8iterator8Iterator9enumerateCsfWotccrMQ3I_14thiserror_impl, symObjAddr: 0x325C, symBinAddr: 0x3BDA4, symSize: 0x28 }
  - { offset: 0xB56FF, size: 0x8, addend: 0x0, symName: __RNvXNtNtNtCsaNl6UpbT7bw_4core4iter6traits7collectINtNtCsc29TF2YcYso_3syn10punctuated5PairsNtCshnvkK9b4wzu_11proc_macro211TokenStreamNtNtBQ_5token4PlusENtB2_12IntoIterator9into_iterCsfWotccrMQ3I_14thiserror_impl, symObjAddr: 0x20C4, symBinAddr: 0x3AC0C, symSize: 0x18 }
  - { offset: 0xB5742, size: 0x8, addend: 0x0, symName: __RNvYINtNtCsc29TF2YcYso_3syn10punctuated11PrivateIterNtNtB7_4data7VariantNtNtB7_5token5CommaENtNtNtNtCsaNl6UpbT7bw_4core4iter6traits10exact_size17ExactSizeIterator8is_emptyCsfWotccrMQ3I_14thiserror_impl, symObjAddr: 0x2CD4, symBinAddr: 0x3B81C, symSize: 0x2C }
  - { offset: 0xB5777, size: 0x8, addend: 0x0, symName: __RNvYINtNtCsc29TF2YcYso_3syn10punctuated11PrivateIterNtNtB7_4path15GenericArgumentNtNtB7_5token5CommaENtNtNtNtCsaNl6UpbT7bw_4core4iter6traits10exact_size17ExactSizeIterator8is_emptyCsfWotccrMQ3I_14thiserror_impl, symObjAddr: 0x2F98, symBinAddr: 0x3BAE0, symSize: 0x2C }
  - { offset: 0xB57B8, size: 0x8, addend: 0x0, symName: __RNvYINtNtCsc29TF2YcYso_3syn10punctuated11PrivateIterNtNtB7_4data7VariantNtNtB7_5token5CommaENtNtNtNtCsaNl6UpbT7bw_4core4iter6traits12double_ended19DoubleEndedIterator15advance_back_byCsfWotccrMQ3I_14thiserror_impl, symObjAddr: 0x2D00, symBinAddr: 0x3B848, symSize: 0x158 }
  - { offset: 0xB5932, size: 0x8, addend: 0x0, symName: __RNvYINtNtCsc29TF2YcYso_3syn10punctuated11PrivateIterNtNtB7_4data7VariantNtNtB7_5token5CommaENtNtNtNtCsaNl6UpbT7bw_4core4iter6traits12double_ended19DoubleEndedIterator8nth_backCsfWotccrMQ3I_14thiserror_impl, symObjAddr: 0x2E58, symBinAddr: 0x3B9A0, symSize: 0x68 }
  - { offset: 0xB59B0, size: 0x8, addend: 0x0, symName: __RNvYINtNtCsc29TF2YcYso_3syn10punctuated11PrivateIterNtNtB7_4path15GenericArgumentNtNtB7_5token5CommaENtNtNtNtCsaNl6UpbT7bw_4core4iter6traits12double_ended19DoubleEndedIterator15advance_back_byCsfWotccrMQ3I_14thiserror_impl, symObjAddr: 0x2FC4, symBinAddr: 0x3BB0C, symSize: 0x158 }
  - { offset: 0xB5B2A, size: 0x8, addend: 0x0, symName: __RNvYINtNtCsc29TF2YcYso_3syn10punctuated11PrivateIterNtNtB7_4path15GenericArgumentNtNtB7_5token5CommaENtNtNtNtCsaNl6UpbT7bw_4core4iter6traits12double_ended19DoubleEndedIterator8nth_backCsfWotccrMQ3I_14thiserror_impl, symObjAddr: 0x311C, symBinAddr: 0x3BC64, symSize: 0x68 }
  - { offset: 0xB628C, size: 0x8, addend: 0x0, symName: __RNvNvMNtNtCsaNl6UpbT7bw_4core5alloc6layoutNtB4_6Layout25from_size_align_unchecked18precondition_checkCsfWotccrMQ3I_14thiserror_impl, symObjAddr: 0x1F78, symBinAddr: 0x3AAC0, symSize: 0xBC }
  - { offset: 0xB6729, size: 0x8, addend: 0x0, symName: __RNvXNtNtNtCsaNl6UpbT7bw_4core5array4iter10iter_innerSINtNtNtB8_3mem12maybe_uninit11MaybeUninitjENtB2_11PartialDrop12partial_dropCsfWotccrMQ3I_14thiserror_impl, symObjAddr: 0x20DC, symBinAddr: 0x3AC24, symSize: 0xAC }
  - { offset: 0xB683B, size: 0x8, addend: 0x0, symName: __RNvXs_NtNtNtCsaNl6UpbT7bw_4core5array4iter10iter_innerAINtNtNtBa_3mem12maybe_uninit11MaybeUninitjEj2_NtB4_11PartialDrop12partial_dropCsfWotccrMQ3I_14thiserror_impl, symObjAddr: 0x25DC, symBinAddr: 0x3B124, symSize: 0x4C }
  - { offset: 0xB68CE, size: 0x8, addend: 0x0, symName: __RNvXs_NtNtCsaNl6UpbT7bw_4core3str6traitseNtNtB8_3cmp9PartialEq2eqCsfWotccrMQ3I_14thiserror_impl, symObjAddr: 0x24C4, symBinAddr: 0x3B00C, symSize: 0x64 }
  - { offset: 0xB733B, size: 0x8, addend: 0x0, symName: __RNCNvMNtCsfWotccrMQ3I_14thiserror_impl8genericsNtB4_13ParamsInScope3new0B6_, symObjAddr: 0x32DC, symBinAddr: 0x3BE24, symSize: 0x28 }
  - { offset: 0xB737A, size: 0x8, addend: 0x0, symName: __RNvNtCsfWotccrMQ3I_14thiserror_impl8generics5crawl, symObjAddr: 0x3350, symBinAddr: 0x3BE98, symSize: 0x3B8 }
  - { offset: 0xB7768, size: 0x8, addend: 0x0, symName: __RNCNvXs1_NtNtNtCsht3nMU9UgFu_3std2io5error14repr_bitpackedNtB7_4ReprNtNtNtCsaNl6UpbT7bw_4core3ops4drop4Drop4drop0CsfWotccrMQ3I_14thiserror_impl, symObjAddr: 0xAD8, symBinAddr: 0x39620, symSize: 0x3C }
  - { offset: 0xB781D, size: 0x8, addend: 0x0, symName: __RNvXs1_NtNtNtCsht3nMU9UgFu_3std2io5error14repr_bitpackedNtB5_4ReprNtNtNtCsaNl6UpbT7bw_4core3ops4drop4Drop4dropCsfWotccrMQ3I_14thiserror_impl, symObjAddr: 0x2188, symBinAddr: 0x3ACD0, symSize: 0x38 }
  - { offset: 0xB7846, size: 0x8, addend: 0x0, symName: __RINvNtNtNtCsht3nMU9UgFu_3std2io5error14repr_bitpacked11decode_reprINtNtCsiTraAjBDcu4_5alloc5boxed3BoxNtB4_6CustomENCNvXs1_B2_NtB2_4ReprNtNtNtCsaNl6UpbT7bw_4core3ops4drop4Drop4drop0ECsfWotccrMQ3I_14thiserror_impl, symObjAddr: 0x2A0, symBinAddr: 0x38DE8, symSize: 0x1DC }
  - { offset: 0xB7AA2, size: 0x8, addend: 0x0, symName: __RNvNtNtNtCsht3nMU9UgFu_3std2io5error14repr_bitpacked14kind_from_primCsfWotccrMQ3I_14thiserror_impl, symObjAddr: 0x1820, symBinAddr: 0x3A368, symSize: 0x758 }
  - { offset: 0xB8676, size: 0x8, addend: 0x0, symName: __RNvXNtCs4EAaWzSXu1l_5quote9to_tokensRINtNtCsc29TF2YcYso_3syn10punctuated10PunctuatedNtCshnvkK9b4wzu_11proc_macro211TokenStreamNtNtBE_5token4PlusENtB2_8ToTokens9to_tokensCsfWotccrMQ3I_14thiserror_impl, symObjAddr: 0x2034, symBinAddr: 0x3AB7C, symSize: 0x40 }
  - { offset: 0xB86D2, size: 0x8, addend: 0x0, symName: __RINvMNtNtCsaNl6UpbT7bw_4core3fmt2rtNtB3_8Argument11new_displayINtNtCs4EAaWzSXu1l_5quote9___private20IdentFragmentAdapterRNtNtCsc29TF2YcYso_3syn4expr5IndexEECsfWotccrMQ3I_14thiserror_impl, symObjAddr: 0x0, symBinAddr: 0x38B48, symSize: 0x2C }
  - { offset: 0xB8717, size: 0x8, addend: 0x0, symName: __RINvMNtNtCsaNl6UpbT7bw_4core3fmt2rtNtB3_8Argument11new_displayINtNtCs4EAaWzSXu1l_5quote9___private20IdentFragmentAdapterRNtNtCsiTraAjBDcu4_5alloc6string6StringEECsfWotccrMQ3I_14thiserror_impl, symObjAddr: 0x2C, symBinAddr: 0x38B74, symSize: 0x2C }
  - { offset: 0xB875C, size: 0x8, addend: 0x0, symName: __RINvMNtNtCsaNl6UpbT7bw_4core3fmt2rtNtB3_8Argument11new_displayINtNtCs4EAaWzSXu1l_5quote9___private20IdentFragmentAdapterRRNtNtCsc29TF2YcYso_3syn4expr5IndexEECsfWotccrMQ3I_14thiserror_impl, symObjAddr: 0x58, symBinAddr: 0x38BA0, symSize: 0x2C }
  - { offset: 0xB87BF, size: 0x8, addend: 0x0, symName: __RINvMNtNtCsaNl6UpbT7bw_4core3fmt2rtNtB3_8Argument11new_displayINtNtCs4EAaWzSXu1l_5quote9___private20IdentFragmentAdapterRReEECsfWotccrMQ3I_14thiserror_impl, symObjAddr: 0x84, symBinAddr: 0x38BCC, symSize: 0x2C }
  - { offset: 0xB8804, size: 0x8, addend: 0x0, symName: __RINvMNtNtCsaNl6UpbT7bw_4core3fmt2rtNtB3_8Argument11new_displayINtNtCs4EAaWzSXu1l_5quote9___private20IdentFragmentAdapterRmEECsfWotccrMQ3I_14thiserror_impl, symObjAddr: 0xB0, symBinAddr: 0x38BF8, symSize: 0x2C }
  - { offset: 0xB883C, size: 0x8, addend: 0x0, symName: __RINvMNtNtCsaNl6UpbT7bw_4core3fmt2rtNtB3_8Argument11new_displayNtNtCsfWotccrMQ3I_14thiserror_impl3ast13ContainerKindEB12_, symObjAddr: 0xDC, symBinAddr: 0x38C24, symSize: 0x2C }
  - { offset: 0xB8881, size: 0x8, addend: 0x0, symName: __RINvMNtNtCsaNl6UpbT7bw_4core3fmt2rtNtB3_8Argument11new_displayNtNtNtCsc29TF2YcYso_3syn4attr7parsing16DisplayAttrStyleECsfWotccrMQ3I_14thiserror_impl, symObjAddr: 0x108, symBinAddr: 0x38C50, symSize: 0x2C }
  - { offset: 0xB8A65, size: 0x8, addend: 0x0, symName: __RNCINvNtCsg4dki62PTrg_9hashbrown3map14equivalent_keyNtNtCsfWotccrMQ3I_14thiserror_impl5unraw11MemberUnrawRBO_jE0BS_, symObjAddr: 0xA30, symBinAddr: 0x39578, symSize: 0x30 }
  - { offset: 0xB8ABC, size: 0x8, addend: 0x0, symName: __RNCINvNtCsg4dki62PTrg_9hashbrown3map14equivalent_keyRNtNtCsfWotccrMQ3I_14thiserror_impl5unraw11MemberUnrawBO_jE0BT_, symObjAddr: 0xA60, symBinAddr: 0x395A8, symSize: 0x30 }
  - { offset: 0xB8BC2, size: 0x8, addend: 0x0, symName: __RNCINvNtCsg4dki62PTrg_9hashbrown3map11make_hasherRNtNtCsfWotccrMQ3I_14thiserror_impl5unraw11MemberUnrawjNtNtNtCsht3nMU9UgFu_3std4hash6random11RandomStateE0BQ_, symObjAddr: 0x9F4, symBinAddr: 0x3953C, symSize: 0x3C }
  - { offset: 0xB8EDA, size: 0x8, addend: 0x0, symName: __RINvMs0_NtNtNtCsht3nMU9UgFu_3std11collections4hash3mapINtB6_7HashMapRNtNtCsfWotccrMQ3I_14thiserror_impl5unraw11MemberUnrawjE3getB15_EB19_, symObjAddr: 0x134, symBinAddr: 0x38C7C, symSize: 0x70 }
  - { offset: 0xB90AD, size: 0x8, addend: 0x0, symName: __RINvMs1_NtCsg4dki62PTrg_9hashbrown3mapINtB6_7HashMapRNtNtCsfWotccrMQ3I_14thiserror_impl5unraw11MemberUnrawjNtNtNtCsht3nMU9UgFu_3std4hash6random11RandomStateE9get_innerBP_EBT_, symObjAddr: 0x1A4, symBinAddr: 0x38CEC, symSize: 0xFC }
  - { offset: 0xB9606, size: 0x8, addend: 0x0, symName: __RNvMNtCsc29TF2YcYso_3syn10punctuatedINtB2_10PunctuatedNtCshnvkK9b4wzu_11proc_macro211TokenStreamNtNtB4_5token4PlusE10push_punctCsfWotccrMQ3I_14thiserror_impl, symObjAddr: 0xCD0, symBinAddr: 0x39818, symSize: 0x200 }
  - { offset: 0xB9683, size: 0x8, addend: 0x0, symName: __RNvMNtCsc29TF2YcYso_3syn10punctuatedINtB2_10PunctuatedNtCshnvkK9b4wzu_11proc_macro211TokenStreamNtNtB4_5token4PlusE10push_valueCsfWotccrMQ3I_14thiserror_impl, symObjAddr: 0xED0, symBinAddr: 0x39A18, symSize: 0x1A4 }
  - { offset: 0xB96F1, size: 0x8, addend: 0x0, symName: __RNvMNtCsc29TF2YcYso_3syn10punctuatedINtB2_10PunctuatedNtCshnvkK9b4wzu_11proc_macro211TokenStreamNtNtB4_5token4PlusE17empty_or_trailingCsfWotccrMQ3I_14thiserror_impl, symObjAddr: 0x1074, symBinAddr: 0x39BBC, symSize: 0x34 }
  - { offset: 0xB9725, size: 0x8, addend: 0x0, symName: __RNvMNtCsc29TF2YcYso_3syn10punctuatedINtB2_10PunctuatedNtCshnvkK9b4wzu_11proc_macro211TokenStreamNtNtB4_5token4PlusE3newCsfWotccrMQ3I_14thiserror_impl, symObjAddr: 0x10A8, symBinAddr: 0x39BF0, symSize: 0x54 }
  - { offset: 0xB974B, size: 0x8, addend: 0x0, symName: __RNvMNtCsc29TF2YcYso_3syn10punctuatedINtB2_10PunctuatedNtCshnvkK9b4wzu_11proc_macro211TokenStreamNtNtB4_5token4PlusE4pushCsfWotccrMQ3I_14thiserror_impl, symObjAddr: 0x10FC, symBinAddr: 0x39C44, symSize: 0x108 }
  - { offset: 0xB97B5, size: 0x8, addend: 0x0, symName: __RNvMNtCsc29TF2YcYso_3syn10punctuatedINtB2_10PunctuatedNtCshnvkK9b4wzu_11proc_macro211TokenStreamNtNtB4_5token4PlusE5pairsCsfWotccrMQ3I_14thiserror_impl, symObjAddr: 0x1204, symBinAddr: 0x39D4C, symSize: 0x74 }
  - { offset: 0xB9803, size: 0x8, addend: 0x0, symName: __RNvMNtCsc29TF2YcYso_3syn10punctuatedINtB2_10PunctuatedNtNtB4_4data7VariantNtNtB4_5token5CommaE4iterCsfWotccrMQ3I_14thiserror_impl, symObjAddr: 0x1278, symBinAddr: 0x39DC0, symSize: 0xC8 }
  - { offset: 0xB9861, size: 0x8, addend: 0x0, symName: __RNvMNtCsc29TF2YcYso_3syn10punctuatedINtB2_10PunctuatedNtNtB4_4path15GenericArgumentNtNtB4_5token5CommaE3lenCsfWotccrMQ3I_14thiserror_impl, symObjAddr: 0x1340, symBinAddr: 0x39E88, symSize: 0xA0 }
  - { offset: 0xB98D0, size: 0x8, addend: 0x0, symName: __RNvMNtCsc29TF2YcYso_3syn10punctuatedINtB2_10PunctuatedNtNtB4_4path15GenericArgumentNtNtB4_5token5CommaE4iterCsfWotccrMQ3I_14thiserror_impl, symObjAddr: 0x13E0, symBinAddr: 0x39F28, symSize: 0xC8 }
  - { offset: 0xB992E, size: 0x8, addend: 0x0, symName: __RNvMNtCsc29TF2YcYso_3syn10punctuatedINtB2_10PunctuatedNtNtB4_8generics14WherePredicateNtNtB4_5token5CommaE4pushCsfWotccrMQ3I_14thiserror_impl, symObjAddr: 0x14A8, symBinAddr: 0x39FF0, symSize: 0x124 }
  - { offset: 0xB99D7, size: 0x8, addend: 0x0, symName: __RNvMNtNtNtCsht3nMU9UgFu_3std11collections4hash3mapINtB2_7HashMapRNtNtCsfWotccrMQ3I_14thiserror_impl5unraw11MemberUnrawjE3newB15_, symObjAddr: 0x15CC, symBinAddr: 0x3A114, symSize: 0x7C }
  - { offset: 0xB9A93, size: 0x8, addend: 0x0, symName: __RNvMs0_NtNtNtCsht3nMU9UgFu_3std11collections4hash3mapINtB5_7HashMapRNtNtCsfWotccrMQ3I_14thiserror_impl5unraw11MemberUnrawjE6insertB18_, symObjAddr: 0x1648, symBinAddr: 0x3A190, symSize: 0x30 }
  - { offset: 0xB9BC2, size: 0x8, addend: 0x0, symName: __RNvMs1_NtCsg4dki62PTrg_9hashbrown3mapINtB5_7HashMapRNtNtCsfWotccrMQ3I_14thiserror_impl5unraw11MemberUnrawjNtNtNtCsht3nMU9UgFu_3std4hash6random11RandomStateE6insertBS_, symObjAddr: 0x1678, symBinAddr: 0x3A1C0, symSize: 0x1A8 }
  - { offset: 0xBA13C, size: 0x8, addend: 0x0, symName: __RNvMNtCsfWotccrMQ3I_14thiserror_impl8genericsNtB2_13ParamsInScope3new, symObjAddr: 0x3284, symBinAddr: 0x3BDCC, symSize: 0x58 }
  - { offset: 0xBA16B, size: 0x8, addend: 0x0, symName: __RNvMNtCsfWotccrMQ3I_14thiserror_impl8genericsNtB2_13ParamsInScope10intersects, symObjAddr: 0x3304, symBinAddr: 0x3BE4C, symSize: 0x4C }
  - { offset: 0xBA2C4, size: 0x8, addend: 0x0, symName: __RNvMs_NtCsfWotccrMQ3I_14thiserror_impl8genericsNtB4_14InferredBounds3new, symObjAddr: 0x3708, symBinAddr: 0x3C250, symSize: 0x8C }
  - { offset: 0xBA2E4, size: 0x8, addend: 0x0, symName: __RINvMs_NtCsfWotccrMQ3I_14thiserror_impl8genericsNtB5_14InferredBounds6insertNtCshnvkK9b4wzu_11proc_macro211TokenStreamB1c_EB7_, symObjAddr: 0x3794, symBinAddr: 0x3C2DC, symSize: 0x2D8 }
  - { offset: 0xBA39C, size: 0x8, addend: 0x0, symName: __RINvMs_NtCsfWotccrMQ3I_14thiserror_impl8genericsNtB5_14InferredBounds6insertNtNtCsc29TF2YcYso_3syn5token8SelfTypeNtNtB7_4attr5TraitEB7_, symObjAddr: 0x3A6C, symBinAddr: 0x3C5B4, symSize: 0x2B4 }
  - { offset: 0xBA452, size: 0x8, addend: 0x0, symName: __RINvMs_NtCsfWotccrMQ3I_14thiserror_impl8genericsNtB5_14InferredBounds6insertRNtNtCsc29TF2YcYso_3syn2ty4TypeNtCshnvkK9b4wzu_11proc_macro211TokenStreamEB7_, symObjAddr: 0x3D20, symBinAddr: 0x3C868, symSize: 0x2D4 }
  - { offset: 0xBA50A, size: 0x8, addend: 0x0, symName: __RINvMs_NtCsfWotccrMQ3I_14thiserror_impl8genericsNtB5_14InferredBounds6insertRNtNtCsc29TF2YcYso_3syn2ty4TypeNtNtB7_4attr5TraitEB7_, symObjAddr: 0x3FF4, symBinAddr: 0x3CB3C, symSize: 0x2A4 }
  - { offset: 0xBA5F8, size: 0x8, addend: 0x0, symName: __RNvMs_NtCsfWotccrMQ3I_14thiserror_impl8genericsNtB4_14InferredBounds20augment_where_clause, symObjAddr: 0x4298, symBinAddr: 0x3CDE0, symSize: 0x2C0 }
  - { offset: 0xBA9DF, size: 0x8, addend: 0x0, symName: __RINvMNtCsaNl6UpbT7bw_4core6resultINtB3_6ResultNtCshnvkK9b4wzu_11proc_macro25IdentNtNtCsc29TF2YcYso_3syn5error5ErrorE3mapNtNtCsfWotccrMQ3I_14thiserror_impl5unraw10IdentUnrawNvMB1W_B1U_3newEB1Y_, symObjAddr: 0x0, symBinAddr: 0x3D0A0, symSize: 0xAC }
  - { offset: 0xBAE2B, size: 0x8, addend: 0x0, symName: __RNvXsV_NtCs7yrEGia95Wz_10proc_macro6bridgeINtNtCsaNl6UpbT7bw_4core6result6ResultINtNtBJ_6option6OptionNtNtB5_6client11TokenStreamEuEINtNtB5_3rpc6EncodeuE6encodeCsfWotccrMQ3I_14thiserror_impl, symObjAddr: 0x2AFC, symBinAddr: 0x3F97C, symSize: 0x110 }
  - { offset: 0xBAEEF, size: 0x8, addend: 0x0, symName: __RNvXsV_NtCs7yrEGia95Wz_10proc_macro6bridgeINtNtCsaNl6UpbT7bw_4core6result6ResultuNtNtB5_3rpc12PanicMessageEINtB1j_6EncodeuE6encodeCsfWotccrMQ3I_14thiserror_impl, symObjAddr: 0x2C0C, symBinAddr: 0x3FA8C, symSize: 0x12C }
  - { offset: 0xBBE84, size: 0x8, addend: 0x0, symName: __RINvXso_NtCsaNl6UpbT7bw_4core6resultINtB6_6ResultINtNtCsiTraAjBDcu4_5alloc3vec3VecNtNtCsfWotccrMQ3I_14thiserror_impl3ast5FieldENtNtCsc29TF2YcYso_3syn5error5ErrorEINtNtNtNtB8_4iter6traits7collect12FromIteratorIBz_B1i_B21_EE9from_iterINtNtNtB2H_8adapters3map3MapINtNtB3N_9enumerate9EnumerateINtNtB25_10punctuated4IterNtNtB25_4data5FieldEENCNvMs2_B1k_B1i_17multiple_from_syn0EEB1m_, symObjAddr: 0x674, symBinAddr: 0x3D4F4, symSize: 0x34 }
  - { offset: 0xBBED7, size: 0x8, addend: 0x0, symName: __RINvXso_NtCsaNl6UpbT7bw_4core6resultINtB6_6ResultINtNtCsiTraAjBDcu4_5alloc3vec3VecNtNtCsfWotccrMQ3I_14thiserror_impl3ast7VariantENtNtCsc29TF2YcYso_3syn5error5ErrorEINtNtNtNtB8_4iter6traits7collect12FromIteratorIBz_B1i_B23_EE9from_iterINtNtNtB2J_8adapters3map3MapINtNtB27_10punctuated4IterNtNtB27_4data7VariantENCNvMs0_B1k_NtB1k_4Enum8from_syn0EEB1m_, symObjAddr: 0x6A8, symBinAddr: 0x3D528, symSize: 0x34 }
  - { offset: 0xBBF2F, size: 0x8, addend: 0x0, symName: __RNCINvXso_NtCsaNl6UpbT7bw_4core6resultINtB8_6ResultINtNtCsiTraAjBDcu4_5alloc3vec3VecNtNtCsfWotccrMQ3I_14thiserror_impl3ast5FieldENtNtCsc29TF2YcYso_3syn5error5ErrorEINtNtNtNtBa_4iter6traits7collect12FromIteratorIBB_B1k_B23_EE9from_iterINtNtNtB2J_8adapters3map3MapINtNtB3P_9enumerate9EnumerateINtNtB27_10punctuated4IterNtNtB27_4data5FieldEENCNvMs2_B1m_B1k_17multiple_from_syn0EE0B1o_, symObjAddr: 0x6DC, symBinAddr: 0x3D55C, symSize: 0x28 }
  - { offset: 0xBBF8D, size: 0x8, addend: 0x0, symName: __RNCINvXso_NtCsaNl6UpbT7bw_4core6resultINtB8_6ResultINtNtCsiTraAjBDcu4_5alloc3vec3VecNtNtCsfWotccrMQ3I_14thiserror_impl3ast7VariantENtNtCsc29TF2YcYso_3syn5error5ErrorEINtNtNtNtBa_4iter6traits7collect12FromIteratorIBB_B1k_B25_EE9from_iterINtNtNtB2L_8adapters3map3MapINtNtB29_10punctuated4IterNtNtB29_4data7VariantENCNvMs0_B1m_NtB1m_4Enum8from_syn0EE0B1o_, symObjAddr: 0x704, symBinAddr: 0x3D584, symSize: 0x28 }
  - { offset: 0xBC1D5, size: 0x8, addend: 0x0, symName: __RNvXsp_NtCsaNl6UpbT7bw_4core6resultINtB5_6ResultINtNtB7_6option6OptionNtCshnvkK9b4wzu_11proc_macro29TokenTreeENtNtCsc29TF2YcYso_3syn5error5ErrorENtNtNtB7_3ops9try_trait3Try6branchCsfWotccrMQ3I_14thiserror_impl, symObjAddr: 0x2FAC, symBinAddr: 0x3FE2C, symSize: 0x9C }
  - { offset: 0xBC252, size: 0x8, addend: 0x0, symName: __RNvXsp_NtCsaNl6UpbT7bw_4core6resultINtB5_6ResultINtNtCsiTraAjBDcu4_5alloc3vec3VecNtNtCsfWotccrMQ3I_14thiserror_impl3ast5FieldENtNtCsc29TF2YcYso_3syn5error5ErrorENtNtNtB7_3ops9try_trait3Try11from_outputB1l_, symObjAddr: 0x3048, symBinAddr: 0x3FEC8, symSize: 0x18 }
  - { offset: 0xBC292, size: 0x8, addend: 0x0, symName: __RNvXsp_NtCsaNl6UpbT7bw_4core6resultINtB5_6ResultINtNtCsiTraAjBDcu4_5alloc3vec3VecNtNtCsfWotccrMQ3I_14thiserror_impl3ast5FieldENtNtCsc29TF2YcYso_3syn5error5ErrorENtNtNtB7_3ops9try_trait3Try6branchB1l_, symObjAddr: 0x3060, symBinAddr: 0x3FEE0, symSize: 0x94 }
  - { offset: 0xBC30F, size: 0x8, addend: 0x0, symName: __RNvXsp_NtCsaNl6UpbT7bw_4core6resultINtB5_6ResultINtNtCsiTraAjBDcu4_5alloc3vec3VecNtNtCsfWotccrMQ3I_14thiserror_impl3ast7VariantENtNtCsc29TF2YcYso_3syn5error5ErrorENtNtNtB7_3ops9try_trait3Try11from_outputB1l_, symObjAddr: 0x30F4, symBinAddr: 0x3FF74, symSize: 0x18 }
  - { offset: 0xBC34F, size: 0x8, addend: 0x0, symName: __RNvXsp_NtCsaNl6UpbT7bw_4core6resultINtB5_6ResultINtNtCsiTraAjBDcu4_5alloc3vec3VecNtNtCsfWotccrMQ3I_14thiserror_impl3ast7VariantENtNtCsc29TF2YcYso_3syn5error5ErrorENtNtNtB7_3ops9try_trait3Try6branchB1l_, symObjAddr: 0x310C, symBinAddr: 0x3FF8C, symSize: 0x94 }
  - { offset: 0xBC3CC, size: 0x8, addend: 0x0, symName: __RNvXsp_NtCsaNl6UpbT7bw_4core6resultINtB5_6ResultNtCshnvkK9b4wzu_11proc_macro29TokenTreeNtNtCsc29TF2YcYso_3syn5error5ErrorENtNtNtB7_3ops9try_trait3Try6branchCsfWotccrMQ3I_14thiserror_impl, symObjAddr: 0x31A0, symBinAddr: 0x40020, symSize: 0x9C }
  - { offset: 0xBC449, size: 0x8, addend: 0x0, symName: __RNvXsp_NtCsaNl6UpbT7bw_4core6resultINtB5_6ResultNtNtCsc29TF2YcYso_3syn6derive11DeriveInputNtNtBO_5error5ErrorENtNtNtB7_3ops9try_trait3Try6branchCsfWotccrMQ3I_14thiserror_impl, symObjAddr: 0x323C, symBinAddr: 0x400BC, symSize: 0xB4 }
  - { offset: 0xBC4C7, size: 0x8, addend: 0x0, symName: __RNvXsp_NtCsaNl6UpbT7bw_4core6resultINtB5_6ResultNtNtCsfWotccrMQ3I_14thiserror_impl3ast5FieldNtNtCsc29TF2YcYso_3syn5error5ErrorENtNtNtB7_3ops9try_trait3Try6branchBO_, symObjAddr: 0x32F0, symBinAddr: 0x40170, symSize: 0xB8 }
  - { offset: 0xBC545, size: 0x8, addend: 0x0, symName: __RNvXsp_NtCsaNl6UpbT7bw_4core6resultINtB5_6ResultNtNtCsfWotccrMQ3I_14thiserror_impl3ast5InputNtNtCsc29TF2YcYso_3syn5error5ErrorENtNtNtB7_3ops9try_trait3Try6branchBO_, symObjAddr: 0x33A8, symBinAddr: 0x40228, symSize: 0xB4 }
  - { offset: 0xBC5C3, size: 0x8, addend: 0x0, symName: __RNvXsp_NtCsaNl6UpbT7bw_4core6resultINtB5_6ResultNtNtCsfWotccrMQ3I_14thiserror_impl3ast7VariantNtNtCsc29TF2YcYso_3syn5error5ErrorENtNtNtB7_3ops9try_trait3Try6branchBO_, symObjAddr: 0x345C, symBinAddr: 0x402DC, symSize: 0xC4 }
  - { offset: 0xBC641, size: 0x8, addend: 0x0, symName: __RNvXsp_NtCsaNl6UpbT7bw_4core6resultINtB5_6ResultNtNtCsfWotccrMQ3I_14thiserror_impl3fmt12FmtArgumentsNtNtCsc29TF2YcYso_3syn5error5ErrorENtNtNtB7_3ops9try_trait3Try6branchBO_, symObjAddr: 0x3520, symBinAddr: 0x403A0, symSize: 0xB8 }
  - { offset: 0xBC6BE, size: 0x8, addend: 0x0, symName: __RNvXsp_NtCsaNl6UpbT7bw_4core6resultINtB5_6ResultNtNtCsfWotccrMQ3I_14thiserror_impl4attr5AttrsNtNtCsc29TF2YcYso_3syn5error5ErrorENtNtNtB7_3ops9try_trait3Try6branchBO_, symObjAddr: 0x35D8, symBinAddr: 0x40458, symSize: 0xB8 }
  - { offset: 0xBC73C, size: 0x8, addend: 0x0, symName: __RNvXsp_NtCsaNl6UpbT7bw_4core6resultINtB5_6ResultNtNtCsfWotccrMQ3I_14thiserror_impl5unraw10IdentUnrawNtNtCsc29TF2YcYso_3syn5error5ErrorENtNtNtB7_3ops9try_trait3Try6branchBO_, symObjAddr: 0x3690, symBinAddr: 0x40510, symSize: 0x94 }
  - { offset: 0xBC7B9, size: 0x8, addend: 0x0, symName: __RNvXsp_NtCsaNl6UpbT7bw_4core6resultINtB5_6ResultNtNtNvNtCsfWotccrMQ3I_14thiserror_impl4attr21parse_error_attribute2kw11transparentNtNtCsc29TF2YcYso_3syn5error5ErrorENtNtNtB7_3ops9try_trait3Try6branchBS_, symObjAddr: 0x3724, symBinAddr: 0x405A4, symSize: 0x88 }
  - { offset: 0xBC837, size: 0x8, addend: 0x0, symName: __RNvXsp_NtCsaNl6UpbT7bw_4core6resultINtB5_6ResultNtNtNvNtCsfWotccrMQ3I_14thiserror_impl4attr21parse_error_attribute2kw3fmtNtNtCsc29TF2YcYso_3syn5error5ErrorENtNtNtB7_3ops9try_trait3Try6branchBS_, symObjAddr: 0x37AC, symBinAddr: 0x4062C, symSize: 0x88 }
  - { offset: 0xBC8B5, size: 0x8, addend: 0x0, symName: __RNvXsp_NtCsaNl6UpbT7bw_4core6resultINtB5_6ResultRNtNtCsc29TF2YcYso_3syn4path4PathNtNtBP_5error5ErrorENtNtNtB7_3ops9try_trait3Try6branchCsfWotccrMQ3I_14thiserror_impl, symObjAddr: 0x3834, symBinAddr: 0x406B4, symSize: 0x88 }
  - { offset: 0xBC933, size: 0x8, addend: 0x0, symName: __RNvXsp_NtCsaNl6UpbT7bw_4core6resultINtB5_6ResultTNtNtNvNtCsfWotccrMQ3I_14thiserror_impl4attr21parse_error_attribute2kw11transparentNtNtCsc29TF2YcYso_3syn6buffer6CursorENtNtB29_5error5ErrorENtNtNtB7_3ops9try_trait3Try6branchBT_, symObjAddr: 0x38BC, symBinAddr: 0x4073C, symSize: 0x94 }
  - { offset: 0xBC9B0, size: 0x8, addend: 0x0, symName: __RNvXsp_NtCsaNl6UpbT7bw_4core6resultINtB5_6ResultTNtNtNvNtCsfWotccrMQ3I_14thiserror_impl4attr21parse_error_attribute2kw3fmtNtNtCsc29TF2YcYso_3syn6buffer6CursorENtNtB20_5error5ErrorENtNtNtB7_3ops9try_trait3Try6branchBT_, symObjAddr: 0x3950, symBinAddr: 0x407D0, symSize: 0x94 }
  - { offset: 0xBCA2D, size: 0x8, addend: 0x0, symName: __RNvXsp_NtCsaNl6UpbT7bw_4core6resultINtB5_6ResultTbNtNtCsc29TF2YcYso_3syn6buffer6CursorENtNtBQ_5error5ErrorENtNtNtB7_3ops9try_trait3Try6branchCsfWotccrMQ3I_14thiserror_impl, symObjAddr: 0x39E4, symBinAddr: 0x40864, symSize: 0x94 }
  - { offset: 0xBCAB0, size: 0x8, addend: 0x0, symName: __RNvXsq_NtCsaNl6UpbT7bw_4core6resultINtB5_6ResultINtNtB7_6option6OptionNtCshnvkK9b4wzu_11proc_macro29TokenTreeENtNtCsc29TF2YcYso_3syn5error5ErrorEINtNtNtB7_3ops9try_trait12FromResidualIBy_NtNtB7_7convert10InfallibleB1K_EE13from_residualCsfWotccrMQ3I_14thiserror_impl, symObjAddr: 0x3A78, symBinAddr: 0x408F8, symSize: 0x48 }
  - { offset: 0xBCB35, size: 0x8, addend: 0x0, symName: __RNvXsq_NtCsaNl6UpbT7bw_4core6resultINtB5_6ResultINtNtCsiTraAjBDcu4_5alloc3vec3VecNtNtCsfWotccrMQ3I_14thiserror_impl3ast5FieldENtNtCsc29TF2YcYso_3syn5error5ErrorEINtNtNtB7_3ops9try_trait12FromResidualIBy_NtNtB7_7convert10InfallibleB20_EE13from_residualB1l_, symObjAddr: 0x3AC0, symBinAddr: 0x40940, symSize: 0x48 }
  - { offset: 0xBCBBA, size: 0x8, addend: 0x0, symName: __RNvXsq_NtCsaNl6UpbT7bw_4core6resultINtB5_6ResultINtNtCsiTraAjBDcu4_5alloc3vec3VecNtNtCsfWotccrMQ3I_14thiserror_impl3ast7VariantENtNtCsc29TF2YcYso_3syn5error5ErrorEINtNtNtB7_3ops9try_trait12FromResidualIBy_NtNtB7_7convert10InfallibleB22_EE13from_residualB1l_, symObjAddr: 0x3B08, symBinAddr: 0x40988, symSize: 0x48 }
  - { offset: 0xBCC3F, size: 0x8, addend: 0x0, symName: __RNvXsq_NtCsaNl6UpbT7bw_4core6resultINtB5_6ResultNtCshnvkK9b4wzu_11proc_macro25IdentNtNtCsc29TF2YcYso_3syn5error5ErrorEINtNtNtB7_3ops9try_trait12FromResidualIBy_NtNtB7_7convert10InfallibleNtBM_8LexErrorEE13from_residualCsfWotccrMQ3I_14thiserror_impl, symObjAddr: 0x3B50, symBinAddr: 0x409D0, symSize: 0x4C }
  - { offset: 0xBCCA6, size: 0x8, addend: 0x0, symName: __RNvXsq_NtCsaNl6UpbT7bw_4core6resultINtB5_6ResultNtNtCsfWotccrMQ3I_14thiserror_impl3ast4EnumNtNtCsc29TF2YcYso_3syn5error5ErrorEINtNtNtB7_3ops9try_trait12FromResidualIBy_NtNtB7_7convert10InfallibleB1r_EE13from_residualBO_, symObjAddr: 0x3B9C, symBinAddr: 0x40A1C, symSize: 0x48 }
  - { offset: 0xBCD2B, size: 0x8, addend: 0x0, symName: __RNvXsq_NtCsaNl6UpbT7bw_4core6resultINtB5_6ResultNtNtCsfWotccrMQ3I_14thiserror_impl3ast5FieldNtNtCsc29TF2YcYso_3syn5error5ErrorEINtNtNtB7_3ops9try_trait12FromResidualIBy_NtNtB7_7convert10InfallibleB1s_EE13from_residualBO_, symObjAddr: 0x3BE4, symBinAddr: 0x40A64, symSize: 0x48 }
  - { offset: 0xBCDB0, size: 0x8, addend: 0x0, symName: __RNvXsq_NtCsaNl6UpbT7bw_4core6resultINtB5_6ResultNtNtCsfWotccrMQ3I_14thiserror_impl3ast6StructNtNtCsc29TF2YcYso_3syn5error5ErrorEINtNtNtB7_3ops9try_trait12FromResidualIBy_NtNtB7_7convert10InfallibleB1t_EE13from_residualBO_, symObjAddr: 0x3C2C, symBinAddr: 0x40AAC, symSize: 0x48 }
  - { offset: 0xBCE35, size: 0x8, addend: 0x0, symName: __RNvXsq_NtCsaNl6UpbT7bw_4core6resultINtB5_6ResultNtNtCsfWotccrMQ3I_14thiserror_impl3ast7VariantNtNtCsc29TF2YcYso_3syn5error5ErrorEINtNtNtB7_3ops9try_trait12FromResidualIBy_NtNtB7_7convert10InfallibleB1u_EE13from_residualBO_, symObjAddr: 0x3C74, symBinAddr: 0x40AF4, symSize: 0x48 }
  - { offset: 0xBCEBA, size: 0x8, addend: 0x0, symName: __RNvXsq_NtCsaNl6UpbT7bw_4core6resultINtB5_6ResultNtNtCsfWotccrMQ3I_14thiserror_impl3fmt12FmtArgumentsNtNtCsc29TF2YcYso_3syn5error5ErrorEINtNtNtB7_3ops9try_trait12FromResidualIBy_NtNtB7_7convert10InfallibleB1A_EE13from_residualBO_, symObjAddr: 0x3CBC, symBinAddr: 0x40B3C, symSize: 0x4C }
  - { offset: 0xBCF3F, size: 0x8, addend: 0x0, symName: __RNvXsq_NtCsaNl6UpbT7bw_4core6resultINtB5_6ResultNtNtCsfWotccrMQ3I_14thiserror_impl4attr5AttrsNtNtCsc29TF2YcYso_3syn5error5ErrorEINtNtNtB7_3ops9try_trait12FromResidualIBy_NtNtB7_7convert10InfallibleB1t_EE13from_residualBO_, symObjAddr: 0x3D08, symBinAddr: 0x40B88, symSize: 0x48 }
  - { offset: 0xBCFC4, size: 0x8, addend: 0x0, symName: __RNvXsq_NtCsaNl6UpbT7bw_4core6resultINtB5_6ResultNtNtNvNtCsfWotccrMQ3I_14thiserror_impl4attr21parse_error_attribute2kw11transparentNtNtCsc29TF2YcYso_3syn5error5ErrorEINtNtNtB7_3ops9try_trait12FromResidualIBy_NtNtB7_7convert10InfallibleB24_EE13from_residualBS_, symObjAddr: 0x3D50, symBinAddr: 0x40BD0, symSize: 0x40 }
  - { offset: 0xBD049, size: 0x8, addend: 0x0, symName: __RNvXsq_NtCsaNl6UpbT7bw_4core6resultINtB5_6ResultNtNtNvNtCsfWotccrMQ3I_14thiserror_impl4attr21parse_error_attribute2kw3fmtNtNtCsc29TF2YcYso_3syn5error5ErrorEINtNtNtB7_3ops9try_trait12FromResidualIBy_NtNtB7_7convert10InfallibleB1V_EE13from_residualBS_, symObjAddr: 0x3D90, symBinAddr: 0x40C10, symSize: 0x40 }
  - { offset: 0xC1F46, size: 0x8, addend: 0x0, symName: __RNvNvXs0_NtNtCsaNl6UpbT7bw_4core5slice5indexjINtB7_10SliceIndexSpE13get_unchecked18precondition_checkCsfWotccrMQ3I_14thiserror_impl, symObjAddr: 0x1D10, symBinAddr: 0x3EB90, symSize: 0xAC }
  - { offset: 0xC1FB4, size: 0x8, addend: 0x0, symName: __RNvNvXs0_NtNtCsaNl6UpbT7bw_4core5slice5indexjINtB7_10SliceIndexSpE17get_unchecked_mut18precondition_checkCsfWotccrMQ3I_14thiserror_impl, symObjAddr: 0x1DBC, symBinAddr: 0x3EC3C, symSize: 0xAC }
  - { offset: 0xC201D, size: 0x8, addend: 0x0, symName: __RNvXs0_NtNtCsaNl6UpbT7bw_4core5slice5indexjINtB5_10SliceIndexSNtNtCsfWotccrMQ3I_14thiserror_impl3ast5FieldE5indexB12_, symObjAddr: 0x2148, symBinAddr: 0x3EFC8, symSize: 0x64 }
  - { offset: 0xC2063, size: 0x8, addend: 0x0, symName: __RNvXs0_NtNtCsaNl6UpbT7bw_4core5slice5indexjINtB5_10SliceIndexSTNtNtCsc29TF2YcYso_3syn4path15GenericArgumentNtNtB13_5token5CommaEE5indexCsfWotccrMQ3I_14thiserror_impl, symObjAddr: 0x21AC, symBinAddr: 0x3F02C, symSize: 0x64 }
  - { offset: 0xC20B4, size: 0x8, addend: 0x0, symName: __RNvNvXs1_NtNtCsaNl6UpbT7bw_4core5slice5indexNtNtNtBb_3ops11index_range10IndexRangeINtB7_10SliceIndexSpE17get_unchecked_mut18precondition_checkCsfWotccrMQ3I_14thiserror_impl, symObjAddr: 0x1E68, symBinAddr: 0x3ECE8, symSize: 0xAC }
  - { offset: 0xC2128, size: 0x8, addend: 0x0, symName: __RNvNvXs2_NtNtCsaNl6UpbT7bw_4core5slice5indexINtNtNtBb_3ops5range5RangejEINtB7_10SliceIndexSpE13get_unchecked18precondition_checkCsfWotccrMQ3I_14thiserror_impl, symObjAddr: 0x1F14, symBinAddr: 0x3ED94, symSize: 0xCC }
  - { offset: 0xC21A4, size: 0x8, addend: 0x0, symName: __RNvNvXs2_NtNtCsaNl6UpbT7bw_4core5slice5indexINtNtNtBb_3ops5range5RangejEINtB7_10SliceIndexSpE17get_unchecked_mut18precondition_checkCsfWotccrMQ3I_14thiserror_impl, symObjAddr: 0x1FE0, symBinAddr: 0x3EE60, symSize: 0xCC }
  - { offset: 0xC221B, size: 0x8, addend: 0x0, symName: __RNvXs2_NtNtCsaNl6UpbT7bw_4core5slice5indexINtNtNtB9_3ops5range5RangejEINtB5_10SliceIndexSINtNtNtB9_3mem12maybe_uninit11MaybeUninitINtNtNtB9_3ptr8non_null7NonNullINtNtNtNtCsiTraAjBDcu4_5alloc11collections5btree4node8LeafNodeNtNtB2I_6string6StringNtNtB2E_7set_val9SetValZSTEEEE9index_mutCsfWotccrMQ3I_14thiserror_impl, symObjAddr: 0x2210, symBinAddr: 0x3F090, symSize: 0xC0 }
  - { offset: 0xC22CC, size: 0x8, addend: 0x0, symName: __RNvXs2_NtNtCsaNl6UpbT7bw_4core5slice5indexINtNtNtB9_3ops5range5RangejEINtB5_10SliceIndexSINtNtNtB9_3mem12maybe_uninit11MaybeUninitINtNtNtB9_3ptr8non_null7NonNullINtNtNtNtCsiTraAjBDcu4_5alloc11collections5btree4node8LeafNodeNtNtB2I_6string6StringTINtNtB2E_3set8BTreeSetB3z_EINtNtCsc29TF2YcYso_3syn10punctuated10PunctuatedNtCshnvkK9b4wzu_11proc_macro211TokenStreamNtNtB4s_5token4PlusEEEEEE9index_mutCsfWotccrMQ3I_14thiserror_impl, symObjAddr: 0x22D0, symBinAddr: 0x3F150, symSize: 0xC0 }
  - { offset: 0xC237D, size: 0x8, addend: 0x0, symName: __RNvXs2_NtNtCsaNl6UpbT7bw_4core5slice5indexINtNtNtB9_3ops5range5RangejEINtB5_10SliceIndexSINtNtNtB9_3mem12maybe_uninit11MaybeUninitINtNtNtB9_3ptr8non_null7NonNullINtNtNtNtCsiTraAjBDcu4_5alloc11collections5btree4node8LeafNodeNtNtCsfWotccrMQ3I_14thiserror_impl5unraw10IdentUnrawNtNtB2E_7set_val9SetValZSTEEEE9index_mutB3D_, symObjAddr: 0x2390, symBinAddr: 0x3F210, symSize: 0xC0 }
  - { offset: 0xC242E, size: 0x8, addend: 0x0, symName: __RNvXs2_NtNtCsaNl6UpbT7bw_4core5slice5indexINtNtNtB9_3ops5range5RangejEINtB5_10SliceIndexSINtNtNtB9_3mem12maybe_uninit11MaybeUninitINtNtNtB9_3ptr8non_null7NonNullINtNtNtNtCsiTraAjBDcu4_5alloc11collections5btree4node8LeafNodeTjNtNtCsfWotccrMQ3I_14thiserror_impl4attr5TraitENtNtB2E_7set_val9SetValZSTEEEE9index_mutB3F_, symObjAddr: 0x2450, symBinAddr: 0x3F2D0, symSize: 0xC0 }
  - { offset: 0xC24DF, size: 0x8, addend: 0x0, symName: __RNvXs2_NtNtCsaNl6UpbT7bw_4core5slice5indexINtNtNtB9_3ops5range5RangejEINtB5_10SliceIndexSINtNtNtB9_3mem12maybe_uninit11MaybeUninitNtNtCsfWotccrMQ3I_14thiserror_impl5unraw10IdentUnrawEE9index_mutB28_, symObjAddr: 0x2510, symBinAddr: 0x3F390, symSize: 0xC8 }
  - { offset: 0xC2590, size: 0x8, addend: 0x0, symName: __RNvXs2_NtNtCsaNl6UpbT7bw_4core5slice5indexINtNtNtB9_3ops5range5RangejEINtB5_10SliceIndexSINtNtNtB9_3mem12maybe_uninit11MaybeUninitNtNtCsiTraAjBDcu4_5alloc6string6StringEE9index_mutCsfWotccrMQ3I_14thiserror_impl, symObjAddr: 0x25D8, symBinAddr: 0x3F458, symSize: 0xC8 }
  - { offset: 0xC2641, size: 0x8, addend: 0x0, symName: __RNvXs2_NtNtCsaNl6UpbT7bw_4core5slice5indexINtNtNtB9_3ops5range5RangejEINtB5_10SliceIndexSINtNtNtB9_3mem12maybe_uninit11MaybeUninitNtNtNtNtCsiTraAjBDcu4_5alloc11collections5btree7set_val9SetValZSTEE9index_mutCsfWotccrMQ3I_14thiserror_impl, symObjAddr: 0x26A0, symBinAddr: 0x3F520, symSize: 0xBC }
  - { offset: 0xC26C4, size: 0x8, addend: 0x0, symName: __RNvXs2_NtNtCsaNl6UpbT7bw_4core5slice5indexINtNtNtB9_3ops5range5RangejEINtB5_10SliceIndexSINtNtNtB9_3mem12maybe_uninit11MaybeUninitTINtNtNtNtCsiTraAjBDcu4_5alloc11collections5btree3set8BTreeSetNtNtB2e_6string6StringEINtNtCsc29TF2YcYso_3syn10punctuated10PunctuatedNtCshnvkK9b4wzu_11proc_macro211TokenStreamNtNtB3w_5token4PlusEEEE9index_mutCsfWotccrMQ3I_14thiserror_impl, symObjAddr: 0x275C, symBinAddr: 0x3F5DC, symSize: 0xC8 }
  - { offset: 0xC2775, size: 0x8, addend: 0x0, symName: __RNvXs2_NtNtCsaNl6UpbT7bw_4core5slice5indexINtNtNtB9_3ops5range5RangejEINtB5_10SliceIndexSINtNtNtB9_3mem12maybe_uninit11MaybeUninitTjNtNtCsfWotccrMQ3I_14thiserror_impl4attr5TraitEEE9index_mutB2a_, symObjAddr: 0x2824, symBinAddr: 0x3F6A4, symSize: 0xC0 }
  - { offset: 0xC2826, size: 0x8, addend: 0x0, symName: __RNvXs2_NtNtCsaNl6UpbT7bw_4core5slice5indexINtNtNtB9_3ops5range5RangejEINtB5_10SliceIndexSRNtCshnvkK9b4wzu_11proc_macro25IdentE9index_mutCsfWotccrMQ3I_14thiserror_impl, symObjAddr: 0x28E4, symBinAddr: 0x3F764, symSize: 0xC0 }
  - { offset: 0xC2B67, size: 0x8, addend: 0x0, symName: __RNvXs5_NtNtCsaNl6UpbT7bw_4core5slice5indexINtNtNtB9_3ops5range9RangeFromjEINtB5_10SliceIndexSRNtCshnvkK9b4wzu_11proc_macro25IdentE9index_mutCsfWotccrMQ3I_14thiserror_impl, symObjAddr: 0x2A5C, symBinAddr: 0x3F8DC, symSize: 0xA0 }
  - { offset: 0xC2F68, size: 0x8, addend: 0x0, symName: __RNvXs3_NtNtCsaNl6UpbT7bw_4core4iter5rangeINtNtNtB9_3ops5range5RangejENtB5_17RangeIteratorImpl9spec_nextCsfWotccrMQ3I_14thiserror_impl, symObjAddr: 0x29A4, symBinAddr: 0x3F824, symSize: 0x94 }
  - { offset: 0xC2FE9, size: 0x8, addend: 0x0, symName: __RNvXs4_NtNtCsaNl6UpbT7bw_4core4iter5rangeINtNtNtB9_3ops5range5RangejENtNtNtB7_6traits8iterator8Iterator4nextCsfWotccrMQ3I_14thiserror_impl, symObjAddr: 0x2A38, symBinAddr: 0x3F8B8, symSize: 0x24 }
  - { offset: 0xC304D, size: 0x8, addend: 0x0, symName: __RNvXsc_NtNtCsaNl6UpbT7bw_4core4iter5rangeINtNtNtB9_3ops5range14RangeInclusivejENtB5_26RangeInclusiveIteratorImpl9spec_nextCsfWotccrMQ3I_14thiserror_impl, symObjAddr: 0x2D38, symBinAddr: 0x3FBB8, symSize: 0x100 }
  - { offset: 0xC314E, size: 0x8, addend: 0x0, symName: __RNvXsd_NtNtCsaNl6UpbT7bw_4core4iter5rangeINtNtNtB9_3ops5range14RangeInclusivejENtNtNtB7_6traits8iterator8Iterator4nextCsfWotccrMQ3I_14thiserror_impl, symObjAddr: 0x2E38, symBinAddr: 0x3FCB8, symSize: 0x24 }
  - { offset: 0xC31D5, size: 0x8, addend: 0x0, symName: __RNvXsh_NtNtNtCsaNl6UpbT7bw_4core4iter8adapters7step_byINtNtNtBb_3ops5range5RangejEINtB5_14SpecRangeSetupBQ_E5setupCsfWotccrMQ3I_14thiserror_impl, symObjAddr: 0x2E5C, symBinAddr: 0x3FCDC, symSize: 0x150 }
  - { offset: 0xC4572, size: 0x8, addend: 0x0, symName: __RNCNvMs6_NtNtNtNtCsiTraAjBDcu4_5alloc11collections5btree3map5entryINtB7_11VacantEntryNtNtBf_6string6StringNtNtBb_7set_val9SetValZSTE12insert_entry0CsfWotccrMQ3I_14thiserror_impl, symObjAddr: 0x72C, symBinAddr: 0x3D5AC, symSize: 0x154 }
  - { offset: 0xC46CC, size: 0x8, addend: 0x0, symName: __RNCNvMs6_NtNtNtNtCsiTraAjBDcu4_5alloc11collections5btree3map5entryINtB7_11VacantEntryNtNtBf_6string6StringTINtNtBb_3set8BTreeSetB1l_EINtNtCsc29TF2YcYso_3syn10punctuated10PunctuatedNtCshnvkK9b4wzu_11proc_macro211TokenStreamNtNtB2c_5token4PlusEEE12insert_entry0CsfWotccrMQ3I_14thiserror_impl, symObjAddr: 0x880, symBinAddr: 0x3D700, symSize: 0x198 }
  - { offset: 0xC4827, size: 0x8, addend: 0x0, symName: __RNCNvMs6_NtNtNtNtCsiTraAjBDcu4_5alloc11collections5btree3map5entryINtB7_11VacantEntryNtNtCsfWotccrMQ3I_14thiserror_impl5unraw10IdentUnrawNtNtBb_7set_val9SetValZSTE12insert_entry0B1p_, symObjAddr: 0xA18, symBinAddr: 0x3D898, symSize: 0x158 }
  - { offset: 0xC4981, size: 0x8, addend: 0x0, symName: __RNCNvMs6_NtNtNtNtCsiTraAjBDcu4_5alloc11collections5btree3map5entryINtB7_11VacantEntryTjNtNtCsfWotccrMQ3I_14thiserror_impl4attr5TraitENtNtBb_7set_val9SetValZSTE12insert_entry0B1r_, symObjAddr: 0xB70, symBinAddr: 0x3D9F0, symSize: 0x13C }
  - { offset: 0xC6777, size: 0x8, addend: 0x0, symName: __RINvNtCsiTraAjBDcu4_5alloc5slice11stable_sortRNtCshnvkK9b4wzu_11proc_macro25IdentNvYBH_NtNtCsaNl6UpbT7bw_4core3cmp10PartialOrd2ltECsfWotccrMQ3I_14thiserror_impl, symObjAddr: 0x5A0, symBinAddr: 0x3D420, symSize: 0xC4 }
  - { offset: 0xC6841, size: 0x8, addend: 0x0, symName: __RNvXNvXNvMNtCsiTraAjBDcu4_5alloc5sliceSp9to_vec_inpNtB5_10ConvertVec6to_vecINtB2_9DropGuardTNtCshnvkK9b4wzu_11proc_macro25IdentNtB1u_11TokenStreamENtNtBa_5alloc6GlobalENtNtNtCsaNl6UpbT7bw_4core3ops4drop4Drop4dropCsfWotccrMQ3I_14thiserror_impl, symObjAddr: 0x20EC, symBinAddr: 0x3EF6C, symSize: 0x20 }
  - { offset: 0xC7214, size: 0x8, addend: 0x0, symName: __RNvXs0_NtCsc29TF2YcYso_3syn5tokenNtNtB7_9lookahead3EndNtB5_5Token4peekCsfWotccrMQ3I_14thiserror_impl, symObjAddr: 0x210C, symBinAddr: 0x3EF8C, symSize: 0x3C }
  - { offset: 0xCBAB1, size: 0x8, addend: 0x0, symName: __RINvXNtNtNtNtCsht3nMU9UgFu_3std3sys12thread_local6native4lazyzNtB3_14DestroyedState13register_dtorINtNtCsaNl6UpbT7bw_4core4cell4CellTyyEEECsfWotccrMQ3I_14thiserror_impl, symObjAddr: 0x664, symBinAddr: 0x3D4E4, symSize: 0x10 }
  - { offset: 0xCBB09, size: 0x8, addend: 0x0, symName: __RINvMNtCsaNl6UpbT7bw_4core6resultINtB3_6ResultNtCshnvkK9b4wzu_11proc_macro25IdentNtNtCsc29TF2YcYso_3syn5error5ErrorE3mapNtNtCsfWotccrMQ3I_14thiserror_impl5unraw10IdentUnrawNvMB1W_B1U_3newEB1Y_, symObjAddr: 0x0, symBinAddr: 0x3D0A0, symSize: 0xAC }
  - { offset: 0xCC19F, size: 0x8, addend: 0x0, symName: __RINvMNtCsaNl6UpbT7bw_4core6resultINtB3_6ResultNtNtCsfWotccrMQ3I_14thiserror_impl3ast4EnumNtNtCsc29TF2YcYso_3syn5error5ErrorE3mapNtBK_5InputNcNtB22_4Enum0EBM_, symObjAddr: 0xAC, symBinAddr: 0x3D14C, symSize: 0xD4 }
  - { offset: 0xCC24A, size: 0x8, addend: 0x0, symName: __RINvMNtCsaNl6UpbT7bw_4core6resultINtB3_6ResultNtNtCsfWotccrMQ3I_14thiserror_impl3ast6StructNtNtCsc29TF2YcYso_3syn5error5ErrorE3mapNtBK_5InputNcNtB24_6Struct0EBM_, symObjAddr: 0x180, symBinAddr: 0x3D220, symSize: 0xD4 }
  - { offset: 0xCC341, size: 0x8, addend: 0x0, symName: __RINvMNtCsc29TF2YcYso_3syn9lookaheadNtB3_10Lookahead14peekINvNtNvNtCsfWotccrMQ3I_14thiserror_impl4attr21parse_error_attribute2kw11transparentNtB3_11TokenMarkerEEB12_, symObjAddr: 0x254, symBinAddr: 0x3D2F4, symSize: 0x44 }
  - { offset: 0xCC392, size: 0x8, addend: 0x0, symName: __RINvMNtCsc29TF2YcYso_3syn9lookaheadNtB3_10Lookahead14peekINvNtNvNtCsfWotccrMQ3I_14thiserror_impl4attr21parse_error_attribute2kw3fmtNtB3_11TokenMarkerEEB12_, symObjAddr: 0x298, symBinAddr: 0x3D338, symSize: 0x44 }
  - { offset: 0xCC488, size: 0x8, addend: 0x0, symName: __RINvMs0_NtNtNtNtCsht3nMU9UgFu_3std3sys12thread_local6native4lazyINtB6_7StorageINtNtCsaNl6UpbT7bw_4core4cell4CellTyyEEzE11get_or_initNvNvNvMNtNtBe_4hash6randomNtB2d_11RandomState3new4KEYS6___initECsfWotccrMQ3I_14thiserror_impl, symObjAddr: 0x2DC, symBinAddr: 0x3D37C, symSize: 0xA4 }
  - { offset: 0xCC693, size: 0x8, addend: 0x0, symName: __RINvMs0_NtNtNtNtCsht3nMU9UgFu_3std3sys12thread_local6native4lazyINtB6_7StorageINtNtCsaNl6UpbT7bw_4core4cell4CellTyyEEzE16get_or_init_slowNvNvNvMNtNtBe_4hash6randomNtB2i_11RandomState3new4KEYS6___initECsfWotccrMQ3I_14thiserror_impl, symObjAddr: 0x380, symBinAddr: 0x1BA604, symSize: 0x220 }
  - { offset: 0xCCFA9, size: 0x8, addend: 0x0, symName: __RNvMNtCsaNl6UpbT7bw_4core6resultINtB2_6ResultNtCshnvkK9b4wzu_11proc_macro25IdentNtNtCsc29TF2YcYso_3syn5error5ErrorE6is_errCsfWotccrMQ3I_14thiserror_impl, symObjAddr: 0xCAC, symBinAddr: 0x3DB2C, symSize: 0x20 }
  - { offset: 0xCD009, size: 0x8, addend: 0x0, symName: __RNvMNtCsaNl6UpbT7bw_4core6resultINtB2_6ResultNtNtCsc29TF2YcYso_3syn2op5BinOpNtNtBL_5error5ErrorE5is_okCsfWotccrMQ3I_14thiserror_impl, symObjAddr: 0xCCC, symBinAddr: 0x3DB4C, symSize: 0x2C }
  - { offset: 0xCD04B, size: 0x8, addend: 0x0, symName: __RNvMNtCsaNl6UpbT7bw_4core6resultINtB2_6ResultNtNtCsc29TF2YcYso_3syn4expr4ExprNtNtBL_5error5ErrorE5is_okCsfWotccrMQ3I_14thiserror_impl, symObjAddr: 0xCF8, symBinAddr: 0x3DB78, symSize: 0x2C }
  - { offset: 0xCD149, size: 0x8, addend: 0x0, symName: __RNvMNtNtNtCsg4dki62PTrg_9hashbrown7control5group4neonNtB2_5Group10match_fullCsfWotccrMQ3I_14thiserror_impl, symObjAddr: 0xD24, symBinAddr: 0x3DBA4, symSize: 0x68 }
  - { offset: 0xCD181, size: 0x8, addend: 0x0, symName: __RNvMNtNtNtCsg4dki62PTrg_9hashbrown7control5group4neonNtB2_5Group22match_empty_or_deletedCsfWotccrMQ3I_14thiserror_impl, symObjAddr: 0xD8C, symBinAddr: 0x3DC0C, symSize: 0x68 }
  - { offset: 0xCD1B9, size: 0x8, addend: 0x0, symName: __RNvMNtNtNtCsg4dki62PTrg_9hashbrown7control5group4neonNtB2_5Group44convert_special_to_empty_and_full_to_deletedCsfWotccrMQ3I_14thiserror_impl, symObjAddr: 0xDF4, symBinAddr: 0x3DC74, symSize: 0x88 }
  - { offset: 0xCD1F1, size: 0x8, addend: 0x0, symName: __RNvMNtNtNtCsg4dki62PTrg_9hashbrown7control5group4neonNtB2_5Group9match_tagCsfWotccrMQ3I_14thiserror_impl, symObjAddr: 0xE7C, symBinAddr: 0x3DCFC, symSize: 0x7C }
  - { offset: 0xCD2CF, size: 0x8, addend: 0x0, symName: __RNvMs5_NtNtNtNtCsiTraAjBDcu4_5alloc11collections5btree3map5entryINtB5_5EntryNtNtBd_6string6StringTINtNtB9_3set8BTreeSetB1c_EINtNtCsc29TF2YcYso_3syn10punctuated10PunctuatedNtCshnvkK9b4wzu_11proc_macro211TokenStreamNtNtB23_5token4PlusEEE10or_defaultCsfWotccrMQ3I_14thiserror_impl, symObjAddr: 0xEF8, symBinAddr: 0x3DD78, symSize: 0x110 }
  - { offset: 0xCD51B, size: 0x8, addend: 0x0, symName: __RNvMs6_NtNtNtNtCsiTraAjBDcu4_5alloc11collections5btree3map5entryINtB5_11VacantEntryNtNtBd_6string6StringNtNtB9_7set_val9SetValZSTE12insert_entryCsfWotccrMQ3I_14thiserror_impl, symObjAddr: 0x1008, symBinAddr: 0x3DE88, symSize: 0x29C }
  - { offset: 0xCD8E3, size: 0x8, addend: 0x0, symName: __RNvMs6_NtNtNtNtCsiTraAjBDcu4_5alloc11collections5btree3map5entryINtB5_11VacantEntryNtNtBd_6string6StringTINtNtB9_3set8BTreeSetB1j_EINtNtCsc29TF2YcYso_3syn10punctuated10PunctuatedNtCshnvkK9b4wzu_11proc_macro211TokenStreamNtNtB2a_5token4PlusEEE12insert_entryCsfWotccrMQ3I_14thiserror_impl, symObjAddr: 0x12A4, symBinAddr: 0x3E124, symSize: 0x308 }
  - { offset: 0xCDCB9, size: 0x8, addend: 0x0, symName: __RNvMs6_NtNtNtNtCsiTraAjBDcu4_5alloc11collections5btree3map5entryINtB5_11VacantEntryNtNtCsfWotccrMQ3I_14thiserror_impl5unraw10IdentUnrawNtNtB9_7set_val9SetValZSTE12insert_entryB1n_, symObjAddr: 0x15AC, symBinAddr: 0x3E42C, symSize: 0x2A0 }
  - { offset: 0xCE08E, size: 0x8, addend: 0x0, symName: __RNvMs6_NtNtNtNtCsiTraAjBDcu4_5alloc11collections5btree3map5entryINtB5_11VacantEntryTjNtNtCsfWotccrMQ3I_14thiserror_impl4attr5TraitENtNtB9_7set_val9SetValZSTE12insert_entryB1p_, symObjAddr: 0x184C, symBinAddr: 0x3E6CC, symSize: 0x280 }
  - { offset: 0xCE319, size: 0x8, addend: 0x0, symName: __RNvMs7_NtNtNtNtCsiTraAjBDcu4_5alloc11collections5btree3map5entryINtB5_13OccupiedEntryNtNtBd_6string6StringNtNtB9_7set_val9SetValZSTE6insertCsfWotccrMQ3I_14thiserror_impl, symObjAddr: 0x1ACC, symBinAddr: 0x3E94C, symSize: 0x4C }
  - { offset: 0xCE37C, size: 0x8, addend: 0x0, symName: __RNvMs7_NtNtNtNtCsiTraAjBDcu4_5alloc11collections5btree3map5entryINtB5_13OccupiedEntryNtNtBd_6string6StringNtNtB9_7set_val9SetValZSTE8into_mutCsfWotccrMQ3I_14thiserror_impl, symObjAddr: 0x1B18, symBinAddr: 0x3E998, symSize: 0x58 }
  - { offset: 0xCE3BB, size: 0x8, addend: 0x0, symName: __RNvMs7_NtNtNtNtCsiTraAjBDcu4_5alloc11collections5btree3map5entryINtB5_13OccupiedEntryNtNtBd_6string6StringTINtNtB9_3set8BTreeSetB1l_EINtNtCsc29TF2YcYso_3syn10punctuated10PunctuatedNtCshnvkK9b4wzu_11proc_macro211TokenStreamNtNtB2c_5token4PlusEEE8into_mutCsfWotccrMQ3I_14thiserror_impl, symObjAddr: 0x1B70, symBinAddr: 0x3E9F0, symSize: 0x58 }
  - { offset: 0xCE435, size: 0x8, addend: 0x0, symName: __RNvMs7_NtNtNtNtCsiTraAjBDcu4_5alloc11collections5btree3map5entryINtB5_13OccupiedEntryNtNtCsfWotccrMQ3I_14thiserror_impl5unraw10IdentUnrawNtNtB9_7set_val9SetValZSTE6insertB1p_, symObjAddr: 0x1BC8, symBinAddr: 0x3EA48, symSize: 0x4C }
  - { offset: 0xCE498, size: 0x8, addend: 0x0, symName: __RNvMs7_NtNtNtNtCsiTraAjBDcu4_5alloc11collections5btree3map5entryINtB5_13OccupiedEntryNtNtCsfWotccrMQ3I_14thiserror_impl5unraw10IdentUnrawNtNtB9_7set_val9SetValZSTE8into_mutB1p_, symObjAddr: 0x1C14, symBinAddr: 0x3EA94, symSize: 0x58 }
  - { offset: 0xCE512, size: 0x8, addend: 0x0, symName: __RNvMs7_NtNtNtNtCsiTraAjBDcu4_5alloc11collections5btree3map5entryINtB5_13OccupiedEntryTjNtNtCsfWotccrMQ3I_14thiserror_impl4attr5TraitENtNtB9_7set_val9SetValZSTE6insertB1r_, symObjAddr: 0x1C6C, symBinAddr: 0x3EAEC, symSize: 0x4C }
  - { offset: 0xCE575, size: 0x8, addend: 0x0, symName: __RNvMs7_NtNtNtNtCsiTraAjBDcu4_5alloc11collections5btree3map5entryINtB5_13OccupiedEntryTjNtNtCsfWotccrMQ3I_14thiserror_impl4attr5TraitENtNtB9_7set_val9SetValZSTE8into_mutB1r_, symObjAddr: 0x1CB8, symBinAddr: 0x3EB38, symSize: 0x58 }
  - { offset: 0xCE738, size: 0x8, addend: 0x0, symName: __RNvXNtCs4EAaWzSXu1l_5quote9to_tokensRNtNtCsc29TF2YcYso_3syn6derive11DeriveInputNtB2_8ToTokens9to_tokensCsfWotccrMQ3I_14thiserror_impl, symObjAddr: 0x20AC, symBinAddr: 0x3EF2C, symSize: 0x40 }
  - { offset: 0xCE77D, size: 0x8, addend: 0x0, symName: __RNvYRNtNtCsc29TF2YcYso_3syn6derive11DeriveInputNtNtCs4EAaWzSXu1l_5quote9to_tokens8ToTokens15to_token_streamCsfWotccrMQ3I_14thiserror_impl, symObjAddr: 0x3DD0, symBinAddr: 0x40C50, symSize: 0x8C }
  - { offset: 0xCE7C7, size: 0x8, addend: 0x0, symName: __RNvYRNtNtCsc29TF2YcYso_3syn6derive11DeriveInputNtNtCs4EAaWzSXu1l_5quote9to_tokens8ToTokens17into_token_streamCsfWotccrMQ3I_14thiserror_impl, symObjAddr: 0x3E5C, symBinAddr: 0x40CDC, symSize: 0x54 }
  - { offset: 0xCEDB6, size: 0x8, addend: 0x0, symName: __RINvNtNtCs7yrEGia95Wz_10proc_macro6bridge6client10run_clientNtB2_11TokenStreamINtNtCsaNl6UpbT7bw_4core6option6OptionBW_ENCNCINvMs6_B2_INtB2_6ClientNtB6_11TokenStreamB2l_E7expand1NvCsfWotccrMQ3I_14thiserror_impl12derive_errorE00EB2S_, symObjAddr: 0x0, symBinAddr: 0x40D30, symSize: 0x21C }
  - { offset: 0xCEDD8, size: 0x8, addend: 0x0, symName: ___rustc_proc_macro_decls_b9af4100e709f8e8__, symObjAddr: 0x34C0, symBinAddr: 0x25D808, symSize: 0x0 }
  - { offset: 0xCEE49, size: 0x8, addend: 0x0, symName: __RNvCsfWotccrMQ3I_14thiserror_impl12derive_error, symObjAddr: 0x2DA0, symBinAddr: 0x43A18, symSize: 0x180 }
  - { offset: 0xCEEC3, size: 0x8, addend: 0x0, symName: __RNvXCsfWotccrMQ3I_14thiserror_implNtB2_7privateNtNtCs4EAaWzSXu1l_5quote9to_tokens8ToTokens9to_tokens, symObjAddr: 0x2F20, symBinAddr: 0x43B98, symSize: 0x6C }
  - { offset: 0xCF142, size: 0x8, addend: 0x0, symName: __RNCINvNtNtCs7yrEGia95Wz_10proc_macro6bridge6client10run_clientNtB4_11TokenStreamINtNtCsaNl6UpbT7bw_4core6option6OptionBY_ENCNCINvMs6_B4_INtB4_6ClientNtB8_11TokenStreamB2n_E7expand1NvCsfWotccrMQ3I_14thiserror_impl12derive_errorE00E0B2U_, symObjAddr: 0x368, symBinAddr: 0x41098, symSize: 0x324 }
  - { offset: 0xCF36C, size: 0x8, addend: 0x0, symName: __RNCNCINvNtNtCs7yrEGia95Wz_10proc_macro6bridge6client10run_clientNtB6_11TokenStreamINtNtCsaNl6UpbT7bw_4core6option6OptionB10_ENCNCINvMs6_B6_INtB6_6ClientNtBa_11TokenStreamB2q_E7expand1NvCsfWotccrMQ3I_14thiserror_impl12derive_errorE00E00B2X_, symObjAddr: 0x6BC, symBinAddr: 0x413EC, symSize: 0x28 }
  - { offset: 0xCF3EA, size: 0x8, addend: 0x0, symName: __RNCNCINvMs6_NtNtCs7yrEGia95Wz_10proc_macro6bridge6clientINtBa_6ClientNtBe_11TokenStreamB15_E7expand1NvCsfWotccrMQ3I_14thiserror_impl12derive_errorE00B1C_, symObjAddr: 0x68C, symBinAddr: 0x413BC, symSize: 0x30 }
  - { offset: 0xCF433, size: 0x8, addend: 0x0, symName: __RNCINvMs6_NtNtCs7yrEGia95Wz_10proc_macro6bridge6clientINtB8_6ClientNtBc_11TokenStreamB13_E7expand1NvCsfWotccrMQ3I_14thiserror_impl12derive_errorE0B1A_, symObjAddr: 0x338, symBinAddr: 0x41068, symSize: 0x30 }
  - { offset: 0xCF491, size: 0x8, addend: 0x0, symName: __RINvNtNtCs7yrEGia95Wz_10proc_macro6bridge6client10run_clientNtB2_11TokenStreamINtNtCsaNl6UpbT7bw_4core6option6OptionBW_ENCNCINvMs6_B2_INtB2_6ClientNtB6_11TokenStreamB2l_E7expand1NvCsfWotccrMQ3I_14thiserror_impl12derive_errorE00EB2S_, symObjAddr: 0x0, symBinAddr: 0x40D30, symSize: 0x21C }
  - { offset: 0xCF6B9, size: 0x8, addend: 0x0, symName: __RNvXsf_NtNtCs7yrEGia95Wz_10proc_macro6bridge6clientNtB5_11TokenStreamINtNtB7_3rpc6EncodeuE6encodeCsfWotccrMQ3I_14thiserror_impl, symObjAddr: 0x2C70, symBinAddr: 0x438E8, symSize: 0x50 }
  - { offset: 0xCF7CA, size: 0x8, addend: 0x0, symName: __RNvXsi_NtNtCs7yrEGia95Wz_10proc_macro6bridge6clientNtB5_11TokenStreamINtNtB7_3rpc9DecodeMutuE6decodeCsfWotccrMQ3I_14thiserror_impl, symObjAddr: 0x2CC0, symBinAddr: 0x43938, symSize: 0x2C }
  - { offset: 0xCF813, size: 0x8, addend: 0x0, symName: __RNvXsk_NtNtCs7yrEGia95Wz_10proc_macro6bridge6clientNtB5_4SpanINtNtB7_3rpc9DecodeMutuE6decodeCsfWotccrMQ3I_14thiserror_impl, symObjAddr: 0x2CEC, symBinAddr: 0x43964, symSize: 0x2C }
  - { offset: 0xCFA9B, size: 0x8, addend: 0x0, symName: __RINvNvNtNtCs7yrEGia95Wz_10proc_macro6bridge14selfless_reify31reify_to_extern_c_fn_hrt_bridge7wrapperNtNtB6_6buffer6BufferNCINvMs6_NtB6_6clientINtB24_6ClientNtB8_11TokenStreamB2u_E7expand1NvCsfWotccrMQ3I_14thiserror_impl12derive_errorE0EB31_, symObjAddr: 0x21C, symBinAddr: 0x40F4C, symSize: 0x5C }
  - { offset: 0xD5E7A, size: 0x8, addend: 0x0, symName: __RNvXNtNtCsaNl6UpbT7bw_4core3str4iterNtB2_5CharsNtNtNtNtB6_4iter6traits8iterator8Iterator4nextCsfWotccrMQ3I_14thiserror_impl, symObjAddr: 0x1D80, symBinAddr: 0x42AB0, symSize: 0x80 }
  - { offset: 0xD5F40, size: 0x8, addend: 0x0, symName: __RNvXs0_NtNtCsaNl6UpbT7bw_4core3str4iterNtB5_5CharsNtNtNtNtB9_4iter6traits12double_ended19DoubleEndedIterator9next_backCsfWotccrMQ3I_14thiserror_impl, symObjAddr: 0x1E00, symBinAddr: 0x42B30, symSize: 0x80 }
  - { offset: 0xD61EC, size: 0x8, addend: 0x0, symName: __RINvYINtNtNtCsaNl6UpbT7bw_4core3str4iter5SplitcENtNtNtNtBa_4iter6traits8iterator8Iterator3mapINtNtBa_6result6ResultNtNtCsc29TF2YcYso_3syn4expr5IndexNtNtB1T_5error5ErrorEINvB1T_9parse_strB1P_EECsfWotccrMQ3I_14thiserror_impl, symObjAddr: 0x308, symBinAddr: 0x41038, symSize: 0x30 }
  - { offset: 0xD6300, size: 0x8, addend: 0x0, symName: __RNvNtNtCsaNl6UpbT7bw_4core4char7methods25encode_utf8_raw_uncheckedCsfWotccrMQ3I_14thiserror_impl, symObjAddr: 0x1B24, symBinAddr: 0x42854, symSize: 0x14C }
  - { offset: 0xD6BB4, size: 0x8, addend: 0x0, symName: __RNvNvNtCsaNl6UpbT7bw_4core4hint21unreachable_unchecked18precondition_checkCsfWotccrMQ3I_14thiserror_impl, symObjAddr: 0x1C70, symBinAddr: 0x429A0, symSize: 0x84 }
  - { offset: 0xD6C14, size: 0x8, addend: 0x0, symName: __RNvXNtCsaNl6UpbT7bw_4core6borrowNtNtCsiTraAjBDcu4_5alloc6string6StringINtB2_6BorrowBu_E6borrowCsfWotccrMQ3I_14thiserror_impl, symObjAddr: 0x1D6C, symBinAddr: 0x42A9C, symSize: 0x14 }
  - { offset: 0xD763A, size: 0x8, addend: 0x0, symName: __RNvXss_NtCsiTraAjBDcu4_5alloc6stringNtB5_6StringNtNtNtCsaNl6UpbT7bw_4core3ops5deref5Deref5derefCsfWotccrMQ3I_14thiserror_impl, symObjAddr: 0x2D50, symBinAddr: 0x439C8, symSize: 0x24 }
  - { offset: 0xD766E, size: 0x8, addend: 0x0, symName: __RINvXsn_NtCsiTraAjBDcu4_5alloc6stringNtB6_6StringNtNtCsaNl6UpbT7bw_4core4hash4Hash4hashNtNtNtCsht3nMU9UgFu_3std4hash6random13DefaultHasherECsfWotccrMQ3I_14thiserror_impl, symObjAddr: 0x278, symBinAddr: 0x40FA8, symSize: 0x90 }
  - { offset: 0xD781C, size: 0x8, addend: 0x0, symName: __RNvXs1g_NtCsiTraAjBDcu4_5alloc6stringNtB6_6StringNtNtCsaNl6UpbT7bw_4core3cmp3Ord3cmpCsfWotccrMQ3I_14thiserror_impl, symObjAddr: 0x1E80, symBinAddr: 0x42BB0, symSize: 0x2C }
  - { offset: 0xD785F, size: 0x8, addend: 0x0, symName: __RNvXsV_NtCsiTraAjBDcu4_5alloc6stringNtB5_6StringNtNtCsaNl6UpbT7bw_4core3fmt5Write10write_charCsfWotccrMQ3I_14thiserror_impl, symObjAddr: 0x2BF8, symBinAddr: 0x43870, symSize: 0x38 }
  - { offset: 0xD789C, size: 0x8, addend: 0x0, symName: __RNvXsV_NtCsiTraAjBDcu4_5alloc6stringNtB5_6StringNtNtCsaNl6UpbT7bw_4core3fmt5Write9write_strCsfWotccrMQ3I_14thiserror_impl, symObjAddr: 0x2C30, symBinAddr: 0x438A8, symSize: 0x40 }
  - { offset: 0xD78DF, size: 0x8, addend: 0x0, symName: __RNvXsp_NtCsiTraAjBDcu4_5alloc6stringNtB5_6StringINtNtNtCsaNl6UpbT7bw_4core3ops5arith9AddAssignReE10add_assignCsfWotccrMQ3I_14thiserror_impl, symObjAddr: 0x2D18, symBinAddr: 0x43990, symSize: 0x38 }
  - { offset: 0xD8BB8, size: 0x8, addend: 0x0, symName: __RNvMs_NtCsiTraAjBDcu4_5alloc5boxedINtB4_3BoxINtNtNtNtB6_11collections5btree4node12InternalNodeNtNtB6_6string6StringNtNtBL_7set_val9SetValZSTEE13new_uninit_inCsfWotccrMQ3I_14thiserror_impl, symObjAddr: 0x8DC, symBinAddr: 0x4160C, symSize: 0x98 }
  - { offset: 0xD8CAC, size: 0x8, addend: 0x0, symName: __RNvMs_NtCsiTraAjBDcu4_5alloc5boxedINtB4_3BoxINtNtNtNtB6_11collections5btree4node12InternalNodeNtNtB6_6string6StringNtNtBL_7set_val9SetValZSTEE17try_new_uninit_inCsfWotccrMQ3I_14thiserror_impl, symObjAddr: 0x974, symBinAddr: 0x416A4, symSize: 0x13C }
  - { offset: 0xD8EDC, size: 0x8, addend: 0x0, symName: __RNvMs_NtCsiTraAjBDcu4_5alloc5boxedINtB4_3BoxINtNtNtNtB6_11collections5btree4node12InternalNodeNtNtB6_6string6StringTINtNtBL_3set8BTreeSetB1u_EINtNtCsc29TF2YcYso_3syn10punctuated10PunctuatedNtCshnvkK9b4wzu_11proc_macro211TokenStreamNtNtB2l_5token4PlusEEEE13new_uninit_inCsfWotccrMQ3I_14thiserror_impl, symObjAddr: 0xAB0, symBinAddr: 0x417E0, symSize: 0x98 }
  - { offset: 0xD8FD0, size: 0x8, addend: 0x0, symName: __RNvMs_NtCsiTraAjBDcu4_5alloc5boxedINtB4_3BoxINtNtNtNtB6_11collections5btree4node12InternalNodeNtNtB6_6string6StringTINtNtBL_3set8BTreeSetB1u_EINtNtCsc29TF2YcYso_3syn10punctuated10PunctuatedNtCshnvkK9b4wzu_11proc_macro211TokenStreamNtNtB2l_5token4PlusEEEE17try_new_uninit_inCsfWotccrMQ3I_14thiserror_impl, symObjAddr: 0xB48, symBinAddr: 0x41878, symSize: 0x13C }
  - { offset: 0xD9200, size: 0x8, addend: 0x0, symName: __RNvMs_NtCsiTraAjBDcu4_5alloc5boxedINtB4_3BoxINtNtNtNtB6_11collections5btree4node12InternalNodeNtNtCsfWotccrMQ3I_14thiserror_impl5unraw10IdentUnrawNtNtBL_7set_val9SetValZSTEE13new_uninit_inB1y_, symObjAddr: 0xC84, symBinAddr: 0x419B4, symSize: 0x98 }
  - { offset: 0xD92F4, size: 0x8, addend: 0x0, symName: __RNvMs_NtCsiTraAjBDcu4_5alloc5boxedINtB4_3BoxINtNtNtNtB6_11collections5btree4node12InternalNodeNtNtCsfWotccrMQ3I_14thiserror_impl5unraw10IdentUnrawNtNtBL_7set_val9SetValZSTEE17try_new_uninit_inB1y_, symObjAddr: 0xD1C, symBinAddr: 0x41A4C, symSize: 0x13C }
  - { offset: 0xD9524, size: 0x8, addend: 0x0, symName: __RNvMs_NtCsiTraAjBDcu4_5alloc5boxedINtB4_3BoxINtNtNtNtB6_11collections5btree4node12InternalNodeRNtCshnvkK9b4wzu_11proc_macro25IdentNtNtBL_7set_val9SetValZSTEE13new_uninit_inCsfWotccrMQ3I_14thiserror_impl, symObjAddr: 0xE58, symBinAddr: 0x41B88, symSize: 0x98 }
  - { offset: 0xD9618, size: 0x8, addend: 0x0, symName: __RNvMs_NtCsiTraAjBDcu4_5alloc5boxedINtB4_3BoxINtNtNtNtB6_11collections5btree4node12InternalNodeRNtCshnvkK9b4wzu_11proc_macro25IdentNtNtBL_7set_val9SetValZSTEE17try_new_uninit_inCsfWotccrMQ3I_14thiserror_impl, symObjAddr: 0xEF0, symBinAddr: 0x41C20, symSize: 0x13C }
  - { offset: 0xD9848, size: 0x8, addend: 0x0, symName: __RNvMs_NtCsiTraAjBDcu4_5alloc5boxedINtB4_3BoxINtNtNtNtB6_11collections5btree4node12InternalNodeTjNtNtCsfWotccrMQ3I_14thiserror_impl4attr5TraitENtNtBL_7set_val9SetValZSTEE13new_uninit_inB1A_, symObjAddr: 0x102C, symBinAddr: 0x41D5C, symSize: 0x98 }
  - { offset: 0xD993C, size: 0x8, addend: 0x0, symName: __RNvMs_NtCsiTraAjBDcu4_5alloc5boxedINtB4_3BoxINtNtNtNtB6_11collections5btree4node12InternalNodeTjNtNtCsfWotccrMQ3I_14thiserror_impl4attr5TraitENtNtBL_7set_val9SetValZSTEE17try_new_uninit_inB1A_, symObjAddr: 0x10C4, symBinAddr: 0x41DF4, symSize: 0x13C }
  - { offset: 0xD9B6C, size: 0x8, addend: 0x0, symName: __RNvMs_NtCsiTraAjBDcu4_5alloc5boxedINtB4_3BoxINtNtNtNtB6_11collections5btree4node8LeafNodeNtNtB6_6string6StringNtNtBL_7set_val9SetValZSTEE13new_uninit_inCsfWotccrMQ3I_14thiserror_impl, symObjAddr: 0x1200, symBinAddr: 0x41F30, symSize: 0x98 }
  - { offset: 0xD9C60, size: 0x8, addend: 0x0, symName: __RNvMs_NtCsiTraAjBDcu4_5alloc5boxedINtB4_3BoxINtNtNtNtB6_11collections5btree4node8LeafNodeNtNtB6_6string6StringNtNtBL_7set_val9SetValZSTEE17try_new_uninit_inCsfWotccrMQ3I_14thiserror_impl, symObjAddr: 0x1298, symBinAddr: 0x41FC8, symSize: 0x13C }
  - { offset: 0xD9E90, size: 0x8, addend: 0x0, symName: __RNvMs_NtCsiTraAjBDcu4_5alloc5boxedINtB4_3BoxINtNtNtNtB6_11collections5btree4node8LeafNodeNtNtB6_6string6StringTINtNtBL_3set8BTreeSetB1p_EINtNtCsc29TF2YcYso_3syn10punctuated10PunctuatedNtCshnvkK9b4wzu_11proc_macro211TokenStreamNtNtB2g_5token4PlusEEEE13new_uninit_inCsfWotccrMQ3I_14thiserror_impl, symObjAddr: 0x13D4, symBinAddr: 0x42104, symSize: 0x98 }
  - { offset: 0xD9F84, size: 0x8, addend: 0x0, symName: __RNvMs_NtCsiTraAjBDcu4_5alloc5boxedINtB4_3BoxINtNtNtNtB6_11collections5btree4node8LeafNodeNtNtB6_6string6StringTINtNtBL_3set8BTreeSetB1p_EINtNtCsc29TF2YcYso_3syn10punctuated10PunctuatedNtCshnvkK9b4wzu_11proc_macro211TokenStreamNtNtB2g_5token4PlusEEEE17try_new_uninit_inCsfWotccrMQ3I_14thiserror_impl, symObjAddr: 0x146C, symBinAddr: 0x4219C, symSize: 0x13C }
  - { offset: 0xDA1B4, size: 0x8, addend: 0x0, symName: __RNvMs_NtCsiTraAjBDcu4_5alloc5boxedINtB4_3BoxINtNtNtNtB6_11collections5btree4node8LeafNodeNtNtCsfWotccrMQ3I_14thiserror_impl5unraw10IdentUnrawNtNtBL_7set_val9SetValZSTEE13new_uninit_inB1t_, symObjAddr: 0x15A8, symBinAddr: 0x422D8, symSize: 0x98 }
  - { offset: 0xDA2A8, size: 0x8, addend: 0x0, symName: __RNvMs_NtCsiTraAjBDcu4_5alloc5boxedINtB4_3BoxINtNtNtNtB6_11collections5btree4node8LeafNodeNtNtCsfWotccrMQ3I_14thiserror_impl5unraw10IdentUnrawNtNtBL_7set_val9SetValZSTEE17try_new_uninit_inB1t_, symObjAddr: 0x1640, symBinAddr: 0x42370, symSize: 0x13C }
  - { offset: 0xDA4D8, size: 0x8, addend: 0x0, symName: __RNvMs_NtCsiTraAjBDcu4_5alloc5boxedINtB4_3BoxINtNtNtNtB6_11collections5btree4node8LeafNodeRNtCshnvkK9b4wzu_11proc_macro25IdentNtNtBL_7set_val9SetValZSTEE13new_uninit_inCsfWotccrMQ3I_14thiserror_impl, symObjAddr: 0x177C, symBinAddr: 0x424AC, symSize: 0x98 }
  - { offset: 0xDA5CC, size: 0x8, addend: 0x0, symName: __RNvMs_NtCsiTraAjBDcu4_5alloc5boxedINtB4_3BoxINtNtNtNtB6_11collections5btree4node8LeafNodeRNtCshnvkK9b4wzu_11proc_macro25IdentNtNtBL_7set_val9SetValZSTEE17try_new_uninit_inCsfWotccrMQ3I_14thiserror_impl, symObjAddr: 0x1814, symBinAddr: 0x42544, symSize: 0x13C }
  - { offset: 0xDA7FC, size: 0x8, addend: 0x0, symName: __RNvMs_NtCsiTraAjBDcu4_5alloc5boxedINtB4_3BoxINtNtNtNtB6_11collections5btree4node8LeafNodeTjNtNtCsfWotccrMQ3I_14thiserror_impl4attr5TraitENtNtBL_7set_val9SetValZSTEE13new_uninit_inB1v_, symObjAddr: 0x1950, symBinAddr: 0x42680, symSize: 0x98 }
  - { offset: 0xDA8F0, size: 0x8, addend: 0x0, symName: __RNvMs_NtCsiTraAjBDcu4_5alloc5boxedINtB4_3BoxINtNtNtNtB6_11collections5btree4node8LeafNodeTjNtNtCsfWotccrMQ3I_14thiserror_impl4attr5TraitENtNtBL_7set_val9SetValZSTEE17try_new_uninit_inB1v_, symObjAddr: 0x19E8, symBinAddr: 0x42718, symSize: 0x13C }
  - { offset: 0xDAD84, size: 0x8, addend: 0x0, symName: __RNvXs6_NtCsiTraAjBDcu4_5alloc5boxedINtB5_3BoxDNtNtCsaNl6UpbT7bw_4core5error5ErrorNtNtBM_6marker4SyncNtB1j_4SendEL_ENtNtNtBM_3ops4drop4Drop4dropCsfWotccrMQ3I_14thiserror_impl, symObjAddr: 0x1EAC, symBinAddr: 0x42BDC, symSize: 0xCC }
  - { offset: 0xDAEBB, size: 0x8, addend: 0x0, symName: __RNvXs6_NtCsiTraAjBDcu4_5alloc5boxedINtB5_3BoxINtNtCsc29TF2YcYso_3syn5drops6NoDropDINtNtBM_10punctuated9IterTraitNtNtBM_4data5FieldEp4ItemRB1M_EL_EENtNtNtCsaNl6UpbT7bw_4core3ops4drop4Drop4dropCsfWotccrMQ3I_14thiserror_impl, symObjAddr: 0x1F78, symBinAddr: 0x42CA8, symSize: 0x120 }
  - { offset: 0xDAFF2, size: 0x8, addend: 0x0, symName: __RNvXs6_NtCsiTraAjBDcu4_5alloc5boxedINtB5_3BoxINtNtCsc29TF2YcYso_3syn5drops6NoDropDINtNtBM_10punctuated9IterTraitNtNtBM_4data7VariantEp4ItemRB1M_EL_EENtNtNtCsaNl6UpbT7bw_4core3ops4drop4Drop4dropCsfWotccrMQ3I_14thiserror_impl, symObjAddr: 0x2098, symBinAddr: 0x42DC8, symSize: 0x120 }
  - { offset: 0xDB129, size: 0x8, addend: 0x0, symName: __RNvXs6_NtCsiTraAjBDcu4_5alloc5boxedINtB5_3BoxINtNtCsc29TF2YcYso_3syn5drops6NoDropDINtNtBM_10punctuated9IterTraitNtNtBM_4path15GenericArgumentEp4ItemRB1M_EL_EENtNtNtCsaNl6UpbT7bw_4core3ops4drop4Drop4dropCsfWotccrMQ3I_14thiserror_impl, symObjAddr: 0x21B8, symBinAddr: 0x42EE8, symSize: 0x120 }
  - { offset: 0xDB260, size: 0x8, addend: 0x0, symName: __RNvXs6_NtCsiTraAjBDcu4_5alloc5boxedINtB5_3BoxINtNtCsc29TF2YcYso_3syn5drops6NoDropDINtNtBM_10punctuated9IterTraitNtNtBM_8generics12GenericParamEp4ItemRB1M_EL_EENtNtNtCsaNl6UpbT7bw_4core3ops4drop4Drop4dropCsfWotccrMQ3I_14thiserror_impl, symObjAddr: 0x22D8, symBinAddr: 0x43008, symSize: 0x120 }
  - { offset: 0xDB397, size: 0x8, addend: 0x0, symName: __RNvXs6_NtCsiTraAjBDcu4_5alloc5boxedINtB5_3BoxINtNtNtNtB7_11collections5btree4node12InternalNodeNtNtB7_6string6StringNtNtBM_7set_val9SetValZSTEENtNtNtCsaNl6UpbT7bw_4core3ops4drop4Drop4dropCsfWotccrMQ3I_14thiserror_impl, symObjAddr: 0x23F8, symBinAddr: 0x43128, symSize: 0xB8 }
  - { offset: 0xDB4CE, size: 0x8, addend: 0x0, symName: __RNvXs6_NtCsiTraAjBDcu4_5alloc5boxedINtB5_3BoxINtNtNtNtB7_11collections5btree4node12InternalNodeNtNtB7_6string6StringTINtNtBM_3set8BTreeSetB1v_EINtNtCsc29TF2YcYso_3syn10punctuated10PunctuatedNtCshnvkK9b4wzu_11proc_macro211TokenStreamNtNtB2m_5token4PlusEEEENtNtNtCsaNl6UpbT7bw_4core3ops4drop4Drop4dropCsfWotccrMQ3I_14thiserror_impl, symObjAddr: 0x24B0, symBinAddr: 0x431E0, symSize: 0xB8 }
  - { offset: 0xDB605, size: 0x8, addend: 0x0, symName: __RNvXs6_NtCsiTraAjBDcu4_5alloc5boxedINtB5_3BoxINtNtNtNtB7_11collections5btree4node12InternalNodeNtNtCsfWotccrMQ3I_14thiserror_impl5unraw10IdentUnrawNtNtBM_7set_val9SetValZSTEENtNtNtCsaNl6UpbT7bw_4core3ops4drop4Drop4dropB1z_, symObjAddr: 0x2568, symBinAddr: 0x43298, symSize: 0xB8 }
  - { offset: 0xDB73C, size: 0x8, addend: 0x0, symName: __RNvXs6_NtCsiTraAjBDcu4_5alloc5boxedINtB5_3BoxINtNtNtNtB7_11collections5btree4node12InternalNodeTjNtNtCsfWotccrMQ3I_14thiserror_impl4attr5TraitENtNtBM_7set_val9SetValZSTEENtNtNtCsaNl6UpbT7bw_4core3ops4drop4Drop4dropB1B_, symObjAddr: 0x26D8, symBinAddr: 0x43350, symSize: 0xB8 }
  - { offset: 0xDB873, size: 0x8, addend: 0x0, symName: __RNvXs6_NtCsiTraAjBDcu4_5alloc5boxedINtB5_3BoxINtNtNtNtB7_11collections5btree4node8LeafNodeNtNtB7_6string6StringNtNtBM_7set_val9SetValZSTEENtNtNtCsaNl6UpbT7bw_4core3ops4drop4Drop4dropCsfWotccrMQ3I_14thiserror_impl, symObjAddr: 0x2790, symBinAddr: 0x43408, symSize: 0xB8 }
  - { offset: 0xDB9AA, size: 0x8, addend: 0x0, symName: __RNvXs6_NtCsiTraAjBDcu4_5alloc5boxedINtB5_3BoxINtNtNtNtB7_11collections5btree4node8LeafNodeNtNtB7_6string6StringTINtNtBM_3set8BTreeSetB1q_EINtNtCsc29TF2YcYso_3syn10punctuated10PunctuatedNtCshnvkK9b4wzu_11proc_macro211TokenStreamNtNtB2h_5token4PlusEEEENtNtNtCsaNl6UpbT7bw_4core3ops4drop4Drop4dropCsfWotccrMQ3I_14thiserror_impl, symObjAddr: 0x2848, symBinAddr: 0x434C0, symSize: 0xB8 }
  - { offset: 0xDBAE1, size: 0x8, addend: 0x0, symName: __RNvXs6_NtCsiTraAjBDcu4_5alloc5boxedINtB5_3BoxINtNtNtNtB7_11collections5btree4node8LeafNodeNtNtCsfWotccrMQ3I_14thiserror_impl5unraw10IdentUnrawNtNtBM_7set_val9SetValZSTEENtNtNtCsaNl6UpbT7bw_4core3ops4drop4Drop4dropB1u_, symObjAddr: 0x2900, symBinAddr: 0x43578, symSize: 0xB8 }
  - { offset: 0xDBC18, size: 0x8, addend: 0x0, symName: __RNvXs6_NtCsiTraAjBDcu4_5alloc5boxedINtB5_3BoxINtNtNtNtB7_11collections5btree4node8LeafNodeTjNtNtCsfWotccrMQ3I_14thiserror_impl4attr5TraitENtNtBM_7set_val9SetValZSTEENtNtNtCsaNl6UpbT7bw_4core3ops4drop4Drop4dropB1w_, symObjAddr: 0x29B8, symBinAddr: 0x43630, symSize: 0xB8 }
  - { offset: 0xDBD4F, size: 0x8, addend: 0x0, symName: __RNvXs6_NtCsiTraAjBDcu4_5alloc5boxedINtB5_3BoxNtCshnvkK9b4wzu_11proc_macro211TokenStreamENtNtNtCsaNl6UpbT7bw_4core3ops4drop4Drop4dropCsfWotccrMQ3I_14thiserror_impl, symObjAddr: 0x2A70, symBinAddr: 0x436E8, symSize: 0xB8 }
  - { offset: 0xDBE86, size: 0x8, addend: 0x0, symName: __RNvXs6_NtCsiTraAjBDcu4_5alloc5boxedINtB5_3BoxNtNtNtCsht3nMU9UgFu_3std2io5error6CustomENtNtNtCsaNl6UpbT7bw_4core3ops4drop4Drop4dropCsfWotccrMQ3I_14thiserror_impl, symObjAddr: 0x2B28, symBinAddr: 0x437A0, symSize: 0xB8 }
  - { offset: 0xDBFC3, size: 0x8, addend: 0x0, symName: __RNvXsB_NtCsiTraAjBDcu4_5alloc5boxedINtB5_3BoxNtCshnvkK9b4wzu_11proc_macro211TokenStreamEINtNtCsaNl6UpbT7bw_4core7convert5AsRefBH_E6as_refCsfWotccrMQ3I_14thiserror_impl, symObjAddr: 0x2BE0, symBinAddr: 0x43858, symSize: 0x18 }
  - { offset: 0xE1197, size: 0x8, addend: 0x0, symName: __RNvMNtCsiTraAjBDcu4_5alloc6stringNtB2_6String3newCsfWotccrMQ3I_14thiserror_impl, symObjAddr: 0x6E4, symBinAddr: 0x41414, symSize: 0x30 }
  - { offset: 0xE12D6, size: 0x8, addend: 0x0, symName: __RNvMNtCsiTraAjBDcu4_5alloc6stringNtB2_6String4pushCsfWotccrMQ3I_14thiserror_impl, symObjAddr: 0x714, symBinAddr: 0x41444, symSize: 0xF8 }
  - { offset: 0xE1563, size: 0x8, addend: 0x0, symName: __RNvMNtCsiTraAjBDcu4_5alloc6stringNtB2_6String6as_strCsfWotccrMQ3I_14thiserror_impl, symObjAddr: 0x80C, symBinAddr: 0x4153C, symSize: 0x78 }
  - { offset: 0xE174C, size: 0x8, addend: 0x0, symName: __RNvMNtCsiTraAjBDcu4_5alloc6stringNtB2_6String8push_strCsfWotccrMQ3I_14thiserror_impl, symObjAddr: 0x884, symBinAddr: 0x415B4, symSize: 0x58 }
  - { offset: 0xE279E, size: 0x8, addend: 0x0, symName: __RNvXNtCs4EAaWzSXu1l_5quote14ident_fragmentRNtNtCsiTraAjBDcu4_5alloc6string6StringNtB2_13IdentFragment3fmtCsfWotccrMQ3I_14thiserror_impl, symObjAddr: 0x1CF4, symBinAddr: 0x42A24, symSize: 0x40 }
  - { offset: 0xE27E1, size: 0x8, addend: 0x0, symName: __RNvXNtCs4EAaWzSXu1l_5quote14ident_fragmentRNtNtCsiTraAjBDcu4_5alloc6string6StringNtB2_13IdentFragment4spanCsfWotccrMQ3I_14thiserror_impl, symObjAddr: 0x1D34, symBinAddr: 0x42A64, symSize: 0x38 }
  - { offset: 0xE281C, size: 0x8, addend: 0x0, symName: __RNvYNtNtCsiTraAjBDcu4_5alloc6string6StringNtNtCs4EAaWzSXu1l_5quote14ident_fragment13IdentFragment4spanCsfWotccrMQ3I_14thiserror_impl, symObjAddr: 0x2D74, symBinAddr: 0x439EC, symSize: 0x2C }
  - { offset: 0xE39BF, size: 0x8, addend: 0x0, symName: __RINvCsc29TF2YcYso_3syn5parseNtNtB2_6derive11DeriveInputECsfWotccrMQ3I_14thiserror_impl, symObjAddr: 0x0, symBinAddr: 0x43C58, symSize: 0x30 }
  - { offset: 0xE3A88, size: 0x8, addend: 0x0, symName: __RINvNtNtNtCs7yrEGia95Wz_10proc_macro6bridge6client5state3setINtNtCsaNl6UpbT7bw_4core6option6OptionNtB4_11TokenStreamENCNCINvB4_10run_clientB1y_BW_NCNCINvMs6_B4_INtB4_6ClientNtB8_11TokenStreamB2L_E7expand1NvCsfWotccrMQ3I_14thiserror_impl12derive_errorE00E00EB3i_, symObjAddr: 0x2AD8, symBinAddr: 0x466BC, symSize: 0xE8 }
  - { offset: 0xE3B67, size: 0x8, addend: 0x0, symName: __RNCNkNvNtNtNtCs7yrEGia95Wz_10proc_macro6bridge6client5state12BRIDGE_STATE0s_0CsfWotccrMQ3I_14thiserror_impl, symObjAddr: 0x30E8, symBinAddr: 0x46CA4, symSize: 0x30 }
  - { offset: 0xE3FF5, size: 0x8, addend: 0x0, symName: __RNvXs5_NtNtCs7yrEGia95Wz_10proc_macro6bridge6bufferNtB5_6BufferNtNtNtCsaNl6UpbT7bw_4core3ops4drop4Drop4dropCsfWotccrMQ3I_14thiserror_impl, symObjAddr: 0x3B0C, symBinAddr: 0x476C8, symSize: 0x8C }
  - { offset: 0xE4D50, size: 0x8, addend: 0x0, symName: __RINvNtCsaNl6UpbT7bw_4core3ptr13drop_in_placeINtNtB4_4cell10UnsafeCellNtNtNtCs7yrEGia95Wz_10proc_macro6bridge6client6BridgeEECsfWotccrMQ3I_14thiserror_impl, symObjAddr: 0x790, symBinAddr: 0x443A0, symSize: 0x24 }
  - { offset: 0xE4D7F, size: 0x8, addend: 0x0, symName: __RINvNtCsaNl6UpbT7bw_4core3ptr13drop_in_placeINtNtB4_4cell7RefCellNtNtNtCs7yrEGia95Wz_10proc_macro6bridge6client6BridgeEECsfWotccrMQ3I_14thiserror_impl, symObjAddr: 0x7B4, symBinAddr: 0x443C4, symSize: 0x24 }
  - { offset: 0xE4DAE, size: 0x8, addend: 0x0, symName: __RINvNtCsaNl6UpbT7bw_4core3ptr13drop_in_placeINtNtB4_6option6OptionIBH_NtCshnvkK9b4wzu_11proc_macro211TokenStreamEEECsfWotccrMQ3I_14thiserror_impl, symObjAddr: 0x7D8, symBinAddr: 0x443E8, symSize: 0x4C }
  - { offset: 0xE4DDD, size: 0x8, addend: 0x0, symName: __RINvNtCsaNl6UpbT7bw_4core3ptr13drop_in_placeINtNtB4_6option6OptionINtNtB4_6result6ResultNtNtB4_7convert10InfallibleNtNtCsc29TF2YcYso_3syn5error5ErrorEEECsfWotccrMQ3I_14thiserror_impl, symObjAddr: 0x824, symBinAddr: 0x44434, symSize: 0x48 }
  - { offset: 0xE4E0C, size: 0x8, addend: 0x0, symName: __RINvNtCsaNl6UpbT7bw_4core3ptr13drop_in_placeINtNtB4_6option6OptionINtNtB4_6result6ResultNtNtCsc29TF2YcYso_3syn4expr5IndexNtNtB1s_5error5ErrorEEECsfWotccrMQ3I_14thiserror_impl, symObjAddr: 0x86C, symBinAddr: 0x4447C, symSize: 0x48 }
  - { offset: 0xE4E3B, size: 0x8, addend: 0x0, symName: __RINvNtCsaNl6UpbT7bw_4core3ptr13drop_in_placeINtNtB4_6option6OptionINtNtCsiTraAjBDcu4_5alloc5boxed3BoxNtCshnvkK9b4wzu_11proc_macro211TokenStreamEEECsfWotccrMQ3I_14thiserror_impl, symObjAddr: 0x8B4, symBinAddr: 0x444C4, symSize: 0x44 }
  - { offset: 0xE4E6A, size: 0x8, addend: 0x0, symName: __RINvNtCsaNl6UpbT7bw_4core3ptr13drop_in_placeINtNtB4_6option6OptionNtNtCsc29TF2YcYso_3syn5parse11ParseBufferEECsfWotccrMQ3I_14thiserror_impl, symObjAddr: 0x8F8, symBinAddr: 0x44508, symSize: 0x40 }
  - { offset: 0xE4E99, size: 0x8, addend: 0x0, symName: __RINvNtCsaNl6UpbT7bw_4core3ptr13drop_in_placeINtNtB4_6option6OptionNtNtCsfWotccrMQ3I_14thiserror_impl3ast5FieldEEB16_, symObjAddr: 0x938, symBinAddr: 0x44548, symSize: 0x48 }
  - { offset: 0xE4EC8, size: 0x8, addend: 0x0, symName: __RINvNtCsaNl6UpbT7bw_4core3ptr13drop_in_placeINtNtB4_6option6OptionNtNtCsfWotccrMQ3I_14thiserror_impl3ast7VariantEEB16_, symObjAddr: 0x980, symBinAddr: 0x44590, symSize: 0x48 }
  - { offset: 0xE4EF7, size: 0x8, addend: 0x0, symName: __RINvNtCsaNl6UpbT7bw_4core3ptr13drop_in_placeINtNtB4_6option6OptionNtNtCsfWotccrMQ3I_14thiserror_impl4attr3FmtEEB16_, symObjAddr: 0x9C8, symBinAddr: 0x445D8, symSize: 0x48 }
  - { offset: 0xE4F26, size: 0x8, addend: 0x0, symName: __RINvNtCsaNl6UpbT7bw_4core3ptr13drop_in_placeINtNtB4_6option6OptionNtNtCsfWotccrMQ3I_14thiserror_impl4attr7DisplayEEB16_, symObjAddr: 0xA10, symBinAddr: 0x44620, symSize: 0x48 }
  - { offset: 0xE4F55, size: 0x8, addend: 0x0, symName: __RINvNtCsaNl6UpbT7bw_4core3ptr13drop_in_placeINtNtB4_6result6ResultNtCshnvkK9b4wzu_11proc_macro25IdentNtNtCsc29TF2YcYso_3syn5error5ErrorEECsfWotccrMQ3I_14thiserror_impl, symObjAddr: 0xA58, symBinAddr: 0x44668, symSize: 0x50 }
  - { offset: 0xE4F84, size: 0x8, addend: 0x0, symName: __RINvNtCsaNl6UpbT7bw_4core3ptr13drop_in_placeINtNtB4_6result6ResultNtNtB4_7convert10InfallibleNtNtCsc29TF2YcYso_3syn5error5ErrorEECsfWotccrMQ3I_14thiserror_impl, symObjAddr: 0xAA8, symBinAddr: 0x446B8, symSize: 0x30 }
  - { offset: 0xE4FB3, size: 0x8, addend: 0x0, symName: __RINvNtCsaNl6UpbT7bw_4core3ptr13drop_in_placeINtNtB4_6result6ResultNtNtCsc29TF2YcYso_3syn4expr4ExprNtNtB16_5error5ErrorEECsfWotccrMQ3I_14thiserror_impl, symObjAddr: 0xAD8, symBinAddr: 0x446E8, symSize: 0x58 }
  - { offset: 0xE4FE2, size: 0x8, addend: 0x0, symName: __RINvNtCsaNl6UpbT7bw_4core3ptr13drop_in_placeINtNtB4_6result6ResultNtNtCsc29TF2YcYso_3syn4expr5IndexNtNtB16_5error5ErrorEECsfWotccrMQ3I_14thiserror_impl, symObjAddr: 0xB30, symBinAddr: 0x44740, symSize: 0x48 }
  - { offset: 0xE5011, size: 0x8, addend: 0x0, symName: __RINvNtCsaNl6UpbT7bw_4core3ptr13drop_in_placeINtNtB4_6result6ResultNtNtCsfWotccrMQ3I_14thiserror_impl3fmt12FmtArgumentsNtNtCsc29TF2YcYso_3syn5error5ErrorEEB16_, symObjAddr: 0xB78, symBinAddr: 0x44788, symSize: 0x60 }
  - { offset: 0xE5040, size: 0x8, addend: 0x0, symName: __RINvNtCsaNl6UpbT7bw_4core3ptr13drop_in_placeINtNtCs4EAaWzSXu1l_5quote9___private9RepInterpNtCshnvkK9b4wzu_11proc_macro211TokenStreamEECsfWotccrMQ3I_14thiserror_impl, symObjAddr: 0xBD8, symBinAddr: 0x447E8, symSize: 0x24 }
  - { offset: 0xE506F, size: 0x8, addend: 0x0, symName: __RINvNtCsaNl6UpbT7bw_4core3ptr13drop_in_placeINtNtCs4EAaWzSXu1l_5quote9___private9RepInterpNtCshnvkK9b4wzu_11proc_macro25IdentEECsfWotccrMQ3I_14thiserror_impl, symObjAddr: 0xBFC, symBinAddr: 0x4480C, symSize: 0x24 }
  - { offset: 0xE509E, size: 0x8, addend: 0x0, symName: __RINvNtCsaNl6UpbT7bw_4core3ptr13drop_in_placeINtNtCsc29TF2YcYso_3syn10punctuated10PunctuatedNtCshnvkK9b4wzu_11proc_macro211TokenStreamNtNtBL_5token4PlusEECsfWotccrMQ3I_14thiserror_impl, symObjAddr: 0xC20, symBinAddr: 0x44830, symSize: 0x60 }
  - { offset: 0xE50CD, size: 0x8, addend: 0x0, symName: __RINvNtCsaNl6UpbT7bw_4core3ptr13drop_in_placeINtNtCsc29TF2YcYso_3syn10punctuated4IterNtNtBL_4data5FieldEECsfWotccrMQ3I_14thiserror_impl, symObjAddr: 0xC80, symBinAddr: 0x44890, symSize: 0x24 }
  - { offset: 0xE50FC, size: 0x8, addend: 0x0, symName: __RINvNtCsaNl6UpbT7bw_4core3ptr13drop_in_placeINtNtCsc29TF2YcYso_3syn10punctuated4IterNtNtBL_4data7VariantEECsfWotccrMQ3I_14thiserror_impl, symObjAddr: 0xCA4, symBinAddr: 0x448B4, symSize: 0x24 }
  - { offset: 0xE512B, size: 0x8, addend: 0x0, symName: __RINvNtCsaNl6UpbT7bw_4core3ptr13drop_in_placeINtNtCsc29TF2YcYso_3syn10punctuated4IterNtNtBL_4path15GenericArgumentEECsfWotccrMQ3I_14thiserror_impl, symObjAddr: 0xCC8, symBinAddr: 0x448D8, symSize: 0x24 }
  - { offset: 0xE515A, size: 0x8, addend: 0x0, symName: __RINvNtCsaNl6UpbT7bw_4core3ptr13drop_in_placeINtNtCsc29TF2YcYso_3syn10punctuated4IterNtNtBL_8generics12GenericParamEECsfWotccrMQ3I_14thiserror_impl, symObjAddr: 0xCEC, symBinAddr: 0x448FC, symSize: 0x24 }
  - { offset: 0xE5189, size: 0x8, addend: 0x0, symName: __RINvNtCsaNl6UpbT7bw_4core3ptr13drop_in_placeINtNtCsg4dki62PTrg_9hashbrown10scopeguard10ScopeGuardNtNtBL_3raw13RawTableInnerNCINvMsa_B1z_B1x_14prepare_resizeNtNtCsiTraAjBDcu4_5alloc5alloc6GlobalE0EECsfWotccrMQ3I_14thiserror_impl, symObjAddr: 0xD10, symBinAddr: 0x44920, symSize: 0x24 }
  - { offset: 0xE51B8, size: 0x8, addend: 0x0, symName: __RINvNtCsaNl6UpbT7bw_4core3ptr13drop_in_placeINtNtCsg4dki62PTrg_9hashbrown10scopeguard10ScopeGuardQNtNtBL_3raw13RawTableInnerNCNvMsa_B1A_B1y_15rehash_in_place0EECsfWotccrMQ3I_14thiserror_impl, symObjAddr: 0xD34, symBinAddr: 0x44944, symSize: 0x24 }
  - { offset: 0xE51E7, size: 0x8, addend: 0x0, symName: __RINvNtCsaNl6UpbT7bw_4core3ptr13drop_in_placeINtNtCsg4dki62PTrg_9hashbrown3map7HashMapRNtNtCsfWotccrMQ3I_14thiserror_impl5unraw11MemberUnrawjNtNtNtCsht3nMU9UgFu_3std4hash6random11RandomStateEEB1q_, symObjAddr: 0xD58, symBinAddr: 0x44968, symSize: 0x24 }
  - { offset: 0xE5216, size: 0x8, addend: 0x0, symName: __RINvNtCsaNl6UpbT7bw_4core3ptr13drop_in_placeINtNtCsg4dki62PTrg_9hashbrown3raw8RawTableTRNtNtCsfWotccrMQ3I_14thiserror_impl5unraw11MemberUnrawjEEEB1s_, symObjAddr: 0xD7C, symBinAddr: 0x4498C, symSize: 0x24 }
  - { offset: 0xE5245, size: 0x8, addend: 0x0, symName: __RINvNtCsaNl6UpbT7bw_4core3ptr13drop_in_placeINtNtCsiTraAjBDcu4_5alloc3vec3VecNtCshnvkK9b4wzu_11proc_macro211TokenStreamEECsfWotccrMQ3I_14thiserror_impl, symObjAddr: 0xDA0, symBinAddr: 0x449B0, symSize: 0x5C }
  - { offset: 0xE5274, size: 0x8, addend: 0x0, symName: __RINvNtCsaNl6UpbT7bw_4core3ptr13drop_in_placeINtNtCsiTraAjBDcu4_5alloc3vec3VecNtNtCsfWotccrMQ3I_14thiserror_impl3ast5FieldEEB1h_, symObjAddr: 0xDFC, symBinAddr: 0x44A0C, symSize: 0x5C }
  - { offset: 0xE52A3, size: 0x8, addend: 0x0, symName: __RINvNtCsaNl6UpbT7bw_4core3ptr13drop_in_placeINtNtCsiTraAjBDcu4_5alloc3vec3VecNtNtCsfWotccrMQ3I_14thiserror_impl3ast7VariantEEB1h_, symObjAddr: 0xE58, symBinAddr: 0x44A68, symSize: 0x5C }
  - { offset: 0xE52D2, size: 0x8, addend: 0x0, symName: __RINvNtCsaNl6UpbT7bw_4core3ptr13drop_in_placeINtNtCsiTraAjBDcu4_5alloc3vec3VecRNtCshnvkK9b4wzu_11proc_macro25IdentEECsfWotccrMQ3I_14thiserror_impl, symObjAddr: 0xEB4, symBinAddr: 0x44AC4, symSize: 0x5C }
  - { offset: 0xE5301, size: 0x8, addend: 0x0, symName: __RINvNtCsaNl6UpbT7bw_4core3ptr13drop_in_placeINtNtCsiTraAjBDcu4_5alloc3vec3VecTNtCshnvkK9b4wzu_11proc_macro211TokenStreamNtNtCsc29TF2YcYso_3syn5token4PlusEEECsfWotccrMQ3I_14thiserror_impl, symObjAddr: 0xF10, symBinAddr: 0x44B20, symSize: 0x5C }
  - { offset: 0xE5330, size: 0x8, addend: 0x0, symName: __RINvNtCsaNl6UpbT7bw_4core3ptr13drop_in_placeINtNtCsiTraAjBDcu4_5alloc3vec3VecTNtCshnvkK9b4wzu_11proc_macro25IdentNtB1g_11TokenStreamEEECsfWotccrMQ3I_14thiserror_impl, symObjAddr: 0xF6C, symBinAddr: 0x44B7C, symSize: 0x5C }
  - { offset: 0xE535F, size: 0x8, addend: 0x0, symName: __RINvNtCsaNl6UpbT7bw_4core3ptr13drop_in_placeINtNtCsiTraAjBDcu4_5alloc5boxed3BoxDNtNtB4_5error5ErrorNtNtB4_6marker4SyncNtB1B_4SendEL_EECsfWotccrMQ3I_14thiserror_impl, symObjAddr: 0xFC8, symBinAddr: 0x44BD8, symSize: 0x80 }
  - { offset: 0xE538E, size: 0x8, addend: 0x0, symName: __RINvNtCsaNl6UpbT7bw_4core3ptr13drop_in_placeINtNtCsiTraAjBDcu4_5alloc5boxed3BoxINtNtCsc29TF2YcYso_3syn5drops6NoDropDINtNtB1k_10punctuated9IterTraitNtNtB1k_4data5FieldEp4ItemRB2l_EL_EEECsfWotccrMQ3I_14thiserror_impl, symObjAddr: 0x1048, symBinAddr: 0x44C58, symSize: 0x2C }
  - { offset: 0xE53BD, size: 0x8, addend: 0x0, symName: __RINvNtCsaNl6UpbT7bw_4core3ptr13drop_in_placeINtNtCsiTraAjBDcu4_5alloc5boxed3BoxINtNtCsc29TF2YcYso_3syn5drops6NoDropDINtNtB1k_10punctuated9IterTraitNtNtB1k_4data7VariantEp4ItemRB2l_EL_EEECsfWotccrMQ3I_14thiserror_impl, symObjAddr: 0x1074, symBinAddr: 0x44C84, symSize: 0x2C }
  - { offset: 0xE53EC, size: 0x8, addend: 0x0, symName: __RINvNtCsaNl6UpbT7bw_4core3ptr13drop_in_placeINtNtCsiTraAjBDcu4_5alloc5boxed3BoxINtNtCsc29TF2YcYso_3syn5drops6NoDropDINtNtB1k_10punctuated9IterTraitNtNtB1k_4path15GenericArgumentEp4ItemRB2l_EL_EEECsfWotccrMQ3I_14thiserror_impl, symObjAddr: 0x10A0, symBinAddr: 0x44CB0, symSize: 0x2C }
  - { offset: 0xE541B, size: 0x8, addend: 0x0, symName: __RINvNtCsaNl6UpbT7bw_4core3ptr13drop_in_placeINtNtCsiTraAjBDcu4_5alloc5boxed3BoxINtNtCsc29TF2YcYso_3syn5drops6NoDropDINtNtB1k_10punctuated9IterTraitNtNtB1k_8generics12GenericParamEp4ItemRB2l_EL_EEECsfWotccrMQ3I_14thiserror_impl, symObjAddr: 0x10CC, symBinAddr: 0x44CDC, symSize: 0x2C }
  - { offset: 0xE544A, size: 0x8, addend: 0x0, symName: __RINvNtCsaNl6UpbT7bw_4core3ptr13drop_in_placeINtNtCsiTraAjBDcu4_5alloc5boxed3BoxINtNtNtNtBL_11collections5btree4node12InternalNodeNtNtBL_6string6StringNtNtB1k_7set_val9SetValZSTEEECsfWotccrMQ3I_14thiserror_impl, symObjAddr: 0x10F8, symBinAddr: 0x44D08, symSize: 0x2C }
  - { offset: 0xE5479, size: 0x8, addend: 0x0, symName: __RINvNtCsaNl6UpbT7bw_4core3ptr13drop_in_placeINtNtCsiTraAjBDcu4_5alloc5boxed3BoxINtNtNtNtBL_11collections5btree4node12InternalNodeNtNtBL_6string6StringTINtNtB1k_3set8BTreeSetB23_EINtNtCsc29TF2YcYso_3syn10punctuated10PunctuatedNtCshnvkK9b4wzu_11proc_macro211TokenStreamNtNtB2V_5token4PlusEEEEECsfWotccrMQ3I_14thiserror_impl, symObjAddr: 0x1124, symBinAddr: 0x44D34, symSize: 0x2C }
  - { offset: 0xE54A8, size: 0x8, addend: 0x0, symName: __RINvNtCsaNl6UpbT7bw_4core3ptr13drop_in_placeINtNtCsiTraAjBDcu4_5alloc5boxed3BoxINtNtNtNtBL_11collections5btree4node12InternalNodeNtNtCsfWotccrMQ3I_14thiserror_impl5unraw10IdentUnrawNtNtB1k_7set_val9SetValZSTEEEB27_, symObjAddr: 0x1150, symBinAddr: 0x44D60, symSize: 0x2C }
  - { offset: 0xE54D7, size: 0x8, addend: 0x0, symName: __RINvNtCsaNl6UpbT7bw_4core3ptr13drop_in_placeINtNtCsiTraAjBDcu4_5alloc5boxed3BoxINtNtNtNtBL_11collections5btree4node12InternalNodeTjNtNtCsfWotccrMQ3I_14thiserror_impl4attr5TraitENtNtB1k_7set_val9SetValZSTEEEB29_, symObjAddr: 0x11A8, symBinAddr: 0x44D8C, symSize: 0x2C }
  - { offset: 0xE5506, size: 0x8, addend: 0x0, symName: __RINvNtCsaNl6UpbT7bw_4core3ptr13drop_in_placeINtNtCsiTraAjBDcu4_5alloc5boxed3BoxINtNtNtNtBL_11collections5btree4node8LeafNodeNtNtBL_6string6StringNtNtB1k_7set_val9SetValZSTEEECsfWotccrMQ3I_14thiserror_impl, symObjAddr: 0x11D4, symBinAddr: 0x44DB8, symSize: 0x2C }
  - { offset: 0xE5535, size: 0x8, addend: 0x0, symName: __RINvNtCsaNl6UpbT7bw_4core3ptr13drop_in_placeINtNtCsiTraAjBDcu4_5alloc5boxed3BoxINtNtNtNtBL_11collections5btree4node8LeafNodeNtNtBL_6string6StringTINtNtB1k_3set8BTreeSetB1Y_EINtNtCsc29TF2YcYso_3syn10punctuated10PunctuatedNtCshnvkK9b4wzu_11proc_macro211TokenStreamNtNtB2Q_5token4PlusEEEEECsfWotccrMQ3I_14thiserror_impl, symObjAddr: 0x1200, symBinAddr: 0x44DE4, symSize: 0x2C }
  - { offset: 0xE5564, size: 0x8, addend: 0x0, symName: __RINvNtCsaNl6UpbT7bw_4core3ptr13drop_in_placeINtNtCsiTraAjBDcu4_5alloc5boxed3BoxINtNtNtNtBL_11collections5btree4node8LeafNodeNtNtCsfWotccrMQ3I_14thiserror_impl5unraw10IdentUnrawNtNtB1k_7set_val9SetValZSTEEEB22_, symObjAddr: 0x122C, symBinAddr: 0x44E10, symSize: 0x2C }
  - { offset: 0xE5593, size: 0x8, addend: 0x0, symName: __RINvNtCsaNl6UpbT7bw_4core3ptr13drop_in_placeINtNtCsiTraAjBDcu4_5alloc5boxed3BoxINtNtNtNtBL_11collections5btree4node8LeafNodeTjNtNtCsfWotccrMQ3I_14thiserror_impl4attr5TraitENtNtB1k_7set_val9SetValZSTEEEB24_, symObjAddr: 0x1258, symBinAddr: 0x44E3C, symSize: 0x2C }
  - { offset: 0xE55C2, size: 0x8, addend: 0x0, symName: __RINvNtCsaNl6UpbT7bw_4core3ptr13drop_in_placeINtNtCsiTraAjBDcu4_5alloc5boxed3BoxNtCshnvkK9b4wzu_11proc_macro211TokenStreamEECsfWotccrMQ3I_14thiserror_impl, symObjAddr: 0x1284, symBinAddr: 0x44E68, symSize: 0x60 }
  - { offset: 0xE55F1, size: 0x8, addend: 0x0, symName: __RINvNtCsaNl6UpbT7bw_4core3ptr13drop_in_placeINtNtCsiTraAjBDcu4_5alloc5boxed3BoxNtNtNtCsht3nMU9UgFu_3std2io5error6CustomEECsfWotccrMQ3I_14thiserror_impl, symObjAddr: 0x12E4, symBinAddr: 0x44EC8, symSize: 0x60 }
  - { offset: 0xE5620, size: 0x8, addend: 0x0, symName: __RINvNtCsaNl6UpbT7bw_4core3ptr13drop_in_placeINtNtCsiTraAjBDcu4_5alloc7raw_vec6RawVecNtCshnvkK9b4wzu_11proc_macro211TokenStreamEECsfWotccrMQ3I_14thiserror_impl, symObjAddr: 0x1344, symBinAddr: 0x44F28, symSize: 0x24 }
  - { offset: 0xE564F, size: 0x8, addend: 0x0, symName: __RINvNtCsaNl6UpbT7bw_4core3ptr13drop_in_placeINtNtCsiTraAjBDcu4_5alloc7raw_vec6RawVecNtNtCsfWotccrMQ3I_14thiserror_impl3ast5FieldEEB1o_, symObjAddr: 0x1368, symBinAddr: 0x44F4C, symSize: 0x24 }
  - { offset: 0xE567E, size: 0x8, addend: 0x0, symName: __RINvNtCsaNl6UpbT7bw_4core3ptr13drop_in_placeINtNtCsiTraAjBDcu4_5alloc7raw_vec6RawVecNtNtCsfWotccrMQ3I_14thiserror_impl3ast7VariantEEB1o_, symObjAddr: 0x138C, symBinAddr: 0x44F70, symSize: 0x24 }
  - { offset: 0xE56AD, size: 0x8, addend: 0x0, symName: __RINvNtCsaNl6UpbT7bw_4core3ptr13drop_in_placeINtNtCsiTraAjBDcu4_5alloc7raw_vec6RawVecRNtCshnvkK9b4wzu_11proc_macro25IdentEECsfWotccrMQ3I_14thiserror_impl, symObjAddr: 0x13B0, symBinAddr: 0x44F94, symSize: 0x24 }
  - { offset: 0xE56DC, size: 0x8, addend: 0x0, symName: __RINvNtCsaNl6UpbT7bw_4core3ptr13drop_in_placeINtNtCsiTraAjBDcu4_5alloc7raw_vec6RawVecTNtCshnvkK9b4wzu_11proc_macro211TokenStreamNtNtCsc29TF2YcYso_3syn5token4PlusEEECsfWotccrMQ3I_14thiserror_impl, symObjAddr: 0x13D4, symBinAddr: 0x44FB8, symSize: 0x24 }
  - { offset: 0xE570B, size: 0x8, addend: 0x0, symName: __RINvNtCsaNl6UpbT7bw_4core3ptr13drop_in_placeINtNtCsiTraAjBDcu4_5alloc7raw_vec6RawVecTNtCshnvkK9b4wzu_11proc_macro25IdentNtB1n_11TokenStreamEEECsfWotccrMQ3I_14thiserror_impl, symObjAddr: 0x13F8, symBinAddr: 0x44FDC, symSize: 0x24 }
  - { offset: 0xE573A, size: 0x8, addend: 0x0, symName: __RINvNtCsaNl6UpbT7bw_4core3ptr13drop_in_placeINtNtNtB4_3ops12control_flow11ControlFlowIBH_NtNtCsfWotccrMQ3I_14thiserror_impl3ast5FieldEEEB1t_, symObjAddr: 0x141C, symBinAddr: 0x45000, symSize: 0x4C }
  - { offset: 0xE5769, size: 0x8, addend: 0x0, symName: __RINvNtCsaNl6UpbT7bw_4core3ptr13drop_in_placeINtNtNtB4_3ops12control_flow11ControlFlowNtNtCsfWotccrMQ3I_14thiserror_impl3ast5FieldEEB1p_, symObjAddr: 0x1468, symBinAddr: 0x4504C, symSize: 0x48 }
  - { offset: 0xE5798, size: 0x8, addend: 0x0, symName: __RINvNtCsaNl6UpbT7bw_4core3ptr13drop_in_placeINtNtNtB4_3ops12control_flow11ControlFlowNtNtCsfWotccrMQ3I_14thiserror_impl3ast7VariantEEB1p_, symObjAddr: 0x14B0, symBinAddr: 0x45094, symSize: 0x48 }
  - { offset: 0xE57C7, size: 0x8, addend: 0x0, symName: __RINvNtCsaNl6UpbT7bw_4core3ptr13drop_in_placeINtNtNtB4_4iter8adapters12GenericShuntINtNtBJ_3map3MapINtNtBJ_9enumerate9EnumerateINtNtCsc29TF2YcYso_3syn10punctuated4IterNtNtB25_4data5FieldEENCNvMs2_NtCsfWotccrMQ3I_14thiserror_impl3astNtB37_5Field17multiple_from_syn0EINtNtB4_6result6ResultNtNtB4_7convert10InfallibleNtNtB25_5error5ErrorEEEB39_, symObjAddr: 0x14F8, symBinAddr: 0x450DC, symSize: 0x24 }
  - { offset: 0xE57F6, size: 0x8, addend: 0x0, symName: __RINvNtCsaNl6UpbT7bw_4core3ptr13drop_in_placeINtNtNtB4_4iter8adapters12GenericShuntINtNtBJ_3map3MapINtNtCsc29TF2YcYso_3syn10punctuated4IterNtNtB1D_4data7VariantENCNvMs0_NtCsfWotccrMQ3I_14thiserror_impl3astNtB2G_4Enum8from_syn0EINtNtB4_6result6ResultNtNtB4_7convert10InfallibleNtNtB1D_5error5ErrorEEEB2I_, symObjAddr: 0x151C, symBinAddr: 0x45100, symSize: 0x24 }
  - { offset: 0xE5825, size: 0x8, addend: 0x0, symName: __RINvNtCsaNl6UpbT7bw_4core3ptr13drop_in_placeINtNtNtB4_5array4iter8IntoIterjKj2_EECsfWotccrMQ3I_14thiserror_impl, symObjAddr: 0x1540, symBinAddr: 0x45124, symSize: 0x5C }
  - { offset: 0xE5854, size: 0x8, addend: 0x0, symName: __RINvNtCsaNl6UpbT7bw_4core3ptr13drop_in_placeINtNtNtCsht3nMU9UgFu_3std2io5error9ErrorDataINtNtCsiTraAjBDcu4_5alloc5boxed3BoxNtBJ_6CustomEEECsfWotccrMQ3I_14thiserror_impl, symObjAddr: 0x159C, symBinAddr: 0x45180, symSize: 0x48 }
  - { offset: 0xE5883, size: 0x8, addend: 0x0, symName: __RINvNtCsaNl6UpbT7bw_4core3ptr13drop_in_placeINtNtNtCsiTraAjBDcu4_5alloc3vec9into_iter8IntoIterRNtCshnvkK9b4wzu_11proc_macro25IdentEECsfWotccrMQ3I_14thiserror_impl, symObjAddr: 0x15E4, symBinAddr: 0x451C8, symSize: 0x24 }
  - { offset: 0xE58B2, size: 0x8, addend: 0x0, symName: __RINvNtCsaNl6UpbT7bw_4core3ptr13drop_in_placeINtNtNtNtB4_4iter8adapters3map3MapINtNtBL_9enumerate9EnumerateINtNtCsc29TF2YcYso_3syn10punctuated4IterNtNtB1L_4data5FieldEENCNvMs2_NtCsfWotccrMQ3I_14thiserror_impl3astNtB2N_5Field17multiple_from_syn0EEB2P_, symObjAddr: 0x1608, symBinAddr: 0x451EC, symSize: 0x24 }
  - { offset: 0xE58E1, size: 0x8, addend: 0x0, symName: __RINvNtCsaNl6UpbT7bw_4core3ptr13drop_in_placeINtNtNtNtB4_4iter8adapters3map3MapINtNtCsc29TF2YcYso_3syn10punctuated4IterNtNtB1j_4data7VariantENCNvMs0_NtCsfWotccrMQ3I_14thiserror_impl3astNtB2m_4Enum8from_syn0EEB2o_, symObjAddr: 0x162C, symBinAddr: 0x45210, symSize: 0x24 }
  - { offset: 0xE5910, size: 0x8, addend: 0x0, symName: __RINvNtCsaNl6UpbT7bw_4core3ptr13drop_in_placeINtNtNtNtB4_4iter8adapters3map3MapINtNtNtCsiTraAjBDcu4_5alloc3vec9into_iter8IntoIterRNtCshnvkK9b4wzu_11proc_macro25IdentENCINvMse_NtNtNtB1l_11collections5btree3setINtB2M_8BTreeSetB22_E16from_sorted_iterB1e_E0EECsfWotccrMQ3I_14thiserror_impl, symObjAddr: 0x1650, symBinAddr: 0x45234, symSize: 0x24 }
  - { offset: 0xE593F, size: 0x8, addend: 0x0, symName: __RINvNtCsaNl6UpbT7bw_4core3ptr13drop_in_placeINtNtNtNtB4_4iter8adapters3map3MapNtNtCsc29TF2YcYso_3syn8generics10TypeParamsNCNvMNtCsfWotccrMQ3I_14thiserror_impl8genericsNtB20_13ParamsInScope3new0EEB22_, symObjAddr: 0x1674, symBinAddr: 0x45258, symSize: 0x24 }
  - { offset: 0xE596E, size: 0x8, addend: 0x0, symName: __RINvNtCsaNl6UpbT7bw_4core3ptr13drop_in_placeINtNtNtNtB4_4iter8adapters8peekable8PeekableINtNtBL_3map3MapINtNtNtCsiTraAjBDcu4_5alloc3vec9into_iter8IntoIterRNtCshnvkK9b4wzu_11proc_macro25IdentENCINvMse_NtNtNtB1L_11collections5btree3setINtB3c_8BTreeSetB2s_E16from_sorted_iterB1E_E0EEECsfWotccrMQ3I_14thiserror_impl, symObjAddr: 0x1698, symBinAddr: 0x4527C, symSize: 0x24 }
  - { offset: 0xE599D, size: 0x8, addend: 0x0, symName: __RINvNtCsaNl6UpbT7bw_4core3ptr13drop_in_placeINtNtNtNtB4_4iter8adapters9enumerate9EnumerateINtNtCsc29TF2YcYso_3syn10punctuated4IterNtNtB1v_4data5FieldEEECsfWotccrMQ3I_14thiserror_impl, symObjAddr: 0x16BC, symBinAddr: 0x452A0, symSize: 0x24 }
  - { offset: 0xE59CC, size: 0x8, addend: 0x0, symName: __RINvNtCsaNl6UpbT7bw_4core3ptr13drop_in_placeINtNtNtNtB4_5array4iter10iter_inner15PolymorphicIterAINtNtNtB4_3mem12maybe_uninit11MaybeUninitjEj2_EECsfWotccrMQ3I_14thiserror_impl, symObjAddr: 0x16E0, symBinAddr: 0x452C4, symSize: 0x24 }
  - { offset: 0xE59FB, size: 0x8, addend: 0x0, symName: __RINvNtCsaNl6UpbT7bw_4core3ptr13drop_in_placeINtNtNtNtCsht3nMU9UgFu_3std11collections4hash3map7HashMapRNtNtCsfWotccrMQ3I_14thiserror_impl5unraw11MemberUnrawjEEB1G_, symObjAddr: 0x1704, symBinAddr: 0x452E8, symSize: 0x24 }
  - { offset: 0xE5A2A, size: 0x8, addend: 0x0, symName: __RINvNtCsaNl6UpbT7bw_4core3ptr13drop_in_placeINtNtNtNtCsiTraAjBDcu4_5alloc11collections5btree17dedup_sorted_iter15DedupSortedIterRNtCshnvkK9b4wzu_11proc_macro25IdentNtNtBL_7set_val9SetValZSTINtNtNtNtB4_4iter8adapters3map3MapINtNtNtBP_3vec9into_iter8IntoIterB22_ENCINvMse_NtBL_3setINtB4k_8BTreeSetB22_E16from_sorted_iterB3z_E0EEECsfWotccrMQ3I_14thiserror_impl, symObjAddr: 0x1728, symBinAddr: 0x4530C, symSize: 0x24 }
  - { offset: 0xE5A59, size: 0x8, addend: 0x0, symName: __RINvNtCsaNl6UpbT7bw_4core3ptr13drop_in_placeINtNtNtNtCsiTraAjBDcu4_5alloc11collections5btree3map8BTreeMapNtNtBP_6string6StringNtNtBL_7set_val9SetValZSTEECsfWotccrMQ3I_14thiserror_impl, symObjAddr: 0x174C, symBinAddr: 0x45330, symSize: 0x24 }
  - { offset: 0xE5A88, size: 0x8, addend: 0x0, symName: __RINvNtCsaNl6UpbT7bw_4core3ptr13drop_in_placeINtNtNtNtCsiTraAjBDcu4_5alloc11collections5btree3map8BTreeMapNtNtBP_6string6StringTINtNtBL_3set8BTreeSetB1F_EINtNtCsc29TF2YcYso_3syn10punctuated10PunctuatedNtCshnvkK9b4wzu_11proc_macro211TokenStreamNtNtB2w_5token4PlusEEEECsfWotccrMQ3I_14thiserror_impl, symObjAddr: 0x1770, symBinAddr: 0x45354, symSize: 0x24 }
  - { offset: 0xE5AB7, size: 0x8, addend: 0x0, symName: __RINvNtCsaNl6UpbT7bw_4core3ptr13drop_in_placeINtNtNtNtCsiTraAjBDcu4_5alloc11collections5btree3map8BTreeMapNtNtCsfWotccrMQ3I_14thiserror_impl5unraw10IdentUnrawNtNtBL_7set_val9SetValZSTEEB1J_, symObjAddr: 0x1794, symBinAddr: 0x45378, symSize: 0x24 }
  - { offset: 0xE5AE6, size: 0x8, addend: 0x0, symName: __RINvNtCsaNl6UpbT7bw_4core3ptr13drop_in_placeINtNtNtNtCsiTraAjBDcu4_5alloc11collections5btree3map8BTreeMapRNtCshnvkK9b4wzu_11proc_macro25IdentNtNtBL_7set_val9SetValZSTEECsfWotccrMQ3I_14thiserror_impl, symObjAddr: 0x17B8, symBinAddr: 0x4539C, symSize: 0x24 }
  - { offset: 0xE5B15, size: 0x8, addend: 0x0, symName: __RINvNtCsaNl6UpbT7bw_4core3ptr13drop_in_placeINtNtNtNtCsiTraAjBDcu4_5alloc11collections5btree3map8BTreeMapTjNtNtCsfWotccrMQ3I_14thiserror_impl4attr5TraitENtNtBL_7set_val9SetValZSTEEB1L_, symObjAddr: 0x17DC, symBinAddr: 0x453C0, symSize: 0x24 }
  - { offset: 0xE5B44, size: 0x8, addend: 0x0, symName: __RINvNtCsaNl6UpbT7bw_4core3ptr13drop_in_placeINtNtNtNtCsiTraAjBDcu4_5alloc11collections5btree3map8IntoIterNtNtBP_6string6StringNtNtBL_7set_val9SetValZSTEECsfWotccrMQ3I_14thiserror_impl, symObjAddr: 0x1800, symBinAddr: 0x453E4, symSize: 0x24 }
  - { offset: 0xE5B73, size: 0x8, addend: 0x0, symName: __RINvNtCsaNl6UpbT7bw_4core3ptr13drop_in_placeINtNtNtNtCsiTraAjBDcu4_5alloc11collections5btree3map8IntoIterNtNtBP_6string6StringTINtNtBL_3set8BTreeSetB1F_EINtNtCsc29TF2YcYso_3syn10punctuated10PunctuatedNtCshnvkK9b4wzu_11proc_macro211TokenStreamNtNtB2w_5token4PlusEEEECsfWotccrMQ3I_14thiserror_impl, symObjAddr: 0x1824, symBinAddr: 0x45408, symSize: 0x24 }
  - { offset: 0xE5BA2, size: 0x8, addend: 0x0, symName: __RINvNtCsaNl6UpbT7bw_4core3ptr13drop_in_placeINtNtNtNtCsiTraAjBDcu4_5alloc11collections5btree3map8IntoIterNtNtCsfWotccrMQ3I_14thiserror_impl5unraw10IdentUnrawNtNtBL_7set_val9SetValZSTEEB1J_, symObjAddr: 0x1848, symBinAddr: 0x4542C, symSize: 0x24 }
  - { offset: 0xE5BD1, size: 0x8, addend: 0x0, symName: __RINvNtCsaNl6UpbT7bw_4core3ptr13drop_in_placeINtNtNtNtCsiTraAjBDcu4_5alloc11collections5btree3map8IntoIterRNtCshnvkK9b4wzu_11proc_macro25IdentNtNtBL_7set_val9SetValZSTEECsfWotccrMQ3I_14thiserror_impl, symObjAddr: 0x186C, symBinAddr: 0x45450, symSize: 0x24 }
  - { offset: 0xE5C00, size: 0x8, addend: 0x0, symName: __RINvNtCsaNl6UpbT7bw_4core3ptr13drop_in_placeINtNtNtNtCsiTraAjBDcu4_5alloc11collections5btree3map8IntoIterTjNtNtCsfWotccrMQ3I_14thiserror_impl4attr5TraitENtNtBL_7set_val9SetValZSTEEB1L_, symObjAddr: 0x1890, symBinAddr: 0x45474, symSize: 0x24 }
  - { offset: 0xE5C2F, size: 0x8, addend: 0x0, symName: __RINvNtCsaNl6UpbT7bw_4core3ptr13drop_in_placeINtNtNtNtCsiTraAjBDcu4_5alloc11collections5btree3set8BTreeSetNtNtBP_6string6StringEECsfWotccrMQ3I_14thiserror_impl, symObjAddr: 0x18B4, symBinAddr: 0x45498, symSize: 0x24 }
  - { offset: 0xE5C5E, size: 0x8, addend: 0x0, symName: __RINvNtCsaNl6UpbT7bw_4core3ptr13drop_in_placeINtNtNtNtCsiTraAjBDcu4_5alloc11collections5btree3set8BTreeSetNtNtCsfWotccrMQ3I_14thiserror_impl5unraw10IdentUnrawEEB1J_, symObjAddr: 0x18D8, symBinAddr: 0x454BC, symSize: 0x24 }
  - { offset: 0xE5C8D, size: 0x8, addend: 0x0, symName: __RINvNtCsaNl6UpbT7bw_4core3ptr13drop_in_placeINtNtNtNtCsiTraAjBDcu4_5alloc11collections5btree3set8BTreeSetRNtCshnvkK9b4wzu_11proc_macro25IdentEECsfWotccrMQ3I_14thiserror_impl, symObjAddr: 0x18FC, symBinAddr: 0x454E0, symSize: 0x24 }
  - { offset: 0xE5CBC, size: 0x8, addend: 0x0, symName: __RINvNtCsaNl6UpbT7bw_4core3ptr13drop_in_placeINtNtNtNtCsiTraAjBDcu4_5alloc11collections5btree3set8BTreeSetTjNtNtCsfWotccrMQ3I_14thiserror_impl4attr5TraitEEEB1L_, symObjAddr: 0x1920, symBinAddr: 0x45504, symSize: 0x24 }
  - { offset: 0xE5CEB, size: 0x8, addend: 0x0, symName: __RINvNtCsaNl6UpbT7bw_4core3ptr13drop_in_placeINtNtNtNtCsiTraAjBDcu4_5alloc11collections5btree3set8IntoIterTjNtNtCsfWotccrMQ3I_14thiserror_impl4attr5TraitEEEB1L_, symObjAddr: 0x1944, symBinAddr: 0x45528, symSize: 0x24 }
  - { offset: 0xE5D1A, size: 0x8, addend: 0x0, symName: __RINvNtCsaNl6UpbT7bw_4core3ptr13drop_in_placeINtNtNtNtCsiTraAjBDcu4_5alloc11collections5btree4node11SplitResultNtNtBP_6string6StringNtNtBL_7set_val9SetValZSTNtNtBJ_6marker4LeafEECsfWotccrMQ3I_14thiserror_impl, symObjAddr: 0x1968, symBinAddr: 0x4554C, symSize: 0x24 }
  - { offset: 0xE5D49, size: 0x8, addend: 0x0, symName: __RINvNtCsaNl6UpbT7bw_4core3ptr13drop_in_placeINtNtNtNtCsiTraAjBDcu4_5alloc11collections5btree4node11SplitResultNtNtBP_6string6StringNtNtBL_7set_val9SetValZSTNtNtBJ_6marker8InternalEECsfWotccrMQ3I_14thiserror_impl, symObjAddr: 0x198C, symBinAddr: 0x45570, symSize: 0x24 }
  - { offset: 0xE5D78, size: 0x8, addend: 0x0, symName: __RINvNtCsaNl6UpbT7bw_4core3ptr13drop_in_placeINtNtNtNtCsiTraAjBDcu4_5alloc11collections5btree4node11SplitResultNtNtBP_6string6StringTINtNtBL_3set8BTreeSetB1K_EINtNtCsc29TF2YcYso_3syn10punctuated10PunctuatedNtCshnvkK9b4wzu_11proc_macro211TokenStreamNtNtB2B_5token4PlusEENtNtBJ_6marker4LeafEECsfWotccrMQ3I_14thiserror_impl, symObjAddr: 0x19B0, symBinAddr: 0x45594, symSize: 0x24 }
  - { offset: 0xE5DA7, size: 0x8, addend: 0x0, symName: __RINvNtCsaNl6UpbT7bw_4core3ptr13drop_in_placeINtNtNtNtCsiTraAjBDcu4_5alloc11collections5btree4node11SplitResultNtNtBP_6string6StringTINtNtBL_3set8BTreeSetB1K_EINtNtCsc29TF2YcYso_3syn10punctuated10PunctuatedNtCshnvkK9b4wzu_11proc_macro211TokenStreamNtNtB2B_5token4PlusEENtNtBJ_6marker8InternalEECsfWotccrMQ3I_14thiserror_impl, symObjAddr: 0x19D4, symBinAddr: 0x455B8, symSize: 0x24 }
  - { offset: 0xE5DD6, size: 0x8, addend: 0x0, symName: __RINvNtCsaNl6UpbT7bw_4core3ptr13drop_in_placeINtNtNtNtCsiTraAjBDcu4_5alloc11collections5btree4node11SplitResultNtNtCsfWotccrMQ3I_14thiserror_impl5unraw10IdentUnrawNtNtBL_7set_val9SetValZSTNtNtBJ_6marker4LeafEEB1O_, symObjAddr: 0x19F8, symBinAddr: 0x455DC, symSize: 0x24 }
  - { offset: 0xE5E05, size: 0x8, addend: 0x0, symName: __RINvNtCsaNl6UpbT7bw_4core3ptr13drop_in_placeINtNtNtNtCsiTraAjBDcu4_5alloc11collections5btree4node11SplitResultNtNtCsfWotccrMQ3I_14thiserror_impl5unraw10IdentUnrawNtNtBL_7set_val9SetValZSTNtNtBJ_6marker8InternalEEB1O_, symObjAddr: 0x1A1C, symBinAddr: 0x45600, symSize: 0x24 }
  - { offset: 0xE5E34, size: 0x8, addend: 0x0, symName: __RINvNtCsaNl6UpbT7bw_4core3ptr13drop_in_placeINtNtNtNtNtB4_5slice4sort6shared9smallsort10CopyOnDropRNtCshnvkK9b4wzu_11proc_macro25IdentEECsfWotccrMQ3I_14thiserror_impl, symObjAddr: 0x1A40, symBinAddr: 0x45624, symSize: 0x24 }
  - { offset: 0xE5E63, size: 0x8, addend: 0x0, symName: __RINvNtCsaNl6UpbT7bw_4core3ptr13drop_in_placeINtNtNtNtNtB4_5slice4sort6stable5merge10MergeStateRNtCshnvkK9b4wzu_11proc_macro25IdentEECsfWotccrMQ3I_14thiserror_impl, symObjAddr: 0x1A64, symBinAddr: 0x45648, symSize: 0x24 }
  - { offset: 0xE5E92, size: 0x8, addend: 0x0, symName: __RINvNtCsaNl6UpbT7bw_4core3ptr13drop_in_placeINtNtNtNtNtCsiTraAjBDcu4_5alloc11collections5btree3map5entry11VacantEntryNtNtBR_6string6StringTINtNtBN_3set8BTreeSetB1R_EINtNtCsc29TF2YcYso_3syn10punctuated10PunctuatedNtCshnvkK9b4wzu_11proc_macro211TokenStreamNtNtB2I_5token4PlusEEEECsfWotccrMQ3I_14thiserror_impl, symObjAddr: 0x1A88, symBinAddr: 0x4566C, symSize: 0x24 }
  - { offset: 0xE5EC1, size: 0x8, addend: 0x0, symName: __RINvNtCsaNl6UpbT7bw_4core3ptr13drop_in_placeINtNtNtNtNtCsiTraAjBDcu4_5alloc11collections5btree3map5entry5EntryNtNtBR_6string6StringTINtNtBN_3set8BTreeSetB1K_EINtNtCsc29TF2YcYso_3syn10punctuated10PunctuatedNtCshnvkK9b4wzu_11proc_macro211TokenStreamNtNtB2B_5token4PlusEEEECsfWotccrMQ3I_14thiserror_impl, symObjAddr: 0x1AAC, symBinAddr: 0x45690, symSize: 0x4C }
  - { offset: 0xE5EF0, size: 0x8, addend: 0x0, symName: __RINvNtCsaNl6UpbT7bw_4core3ptr13drop_in_placeINtNvMsT_NtNtNtCsiTraAjBDcu4_5alloc11collections5btree4nodeINtBP_6HandleINtBP_7NodeRefNtNtBP_6marker5DyingpppENtB26_2KVE12drop_key_val7DropperNtNtBR_7set_val9SetValZSTEECsfWotccrMQ3I_14thiserror_impl, symObjAddr: 0x1AF8, symBinAddr: 0x456DC, symSize: 0x24 }
  - { offset: 0xE5F1F, size: 0x8, addend: 0x0, symName: __RINvNtCsaNl6UpbT7bw_4core3ptr13drop_in_placeINtNvMsT_NtNtNtCsiTraAjBDcu4_5alloc11collections5btree4nodeINtBP_6HandleINtBP_7NodeRefNtNtBP_6marker5DyingpppENtB26_2KVE12drop_key_val7DropperTINtNtBR_3set8BTreeSetNtNtBV_6string6StringEINtNtCsc29TF2YcYso_3syn10punctuated10PunctuatedNtCshnvkK9b4wzu_11proc_macro211TokenStreamNtNtB3L_5token4PlusEEEECsfWotccrMQ3I_14thiserror_impl, symObjAddr: 0x1B1C, symBinAddr: 0x45700, symSize: 0x24 }
  - { offset: 0xE5F4E, size: 0x8, addend: 0x0, symName: __RINvNtCsaNl6UpbT7bw_4core3ptr13drop_in_placeINtNvXNvMNtCsiTraAjBDcu4_5alloc5sliceSp9to_vec_inpNtBM_10ConvertVec6to_vec9DropGuardTNtCshnvkK9b4wzu_11proc_macro25IdentNtB25_11TokenStreamENtNtBR_5alloc6GlobalEECsfWotccrMQ3I_14thiserror_impl, symObjAddr: 0x1B40, symBinAddr: 0x45724, symSize: 0x24 }
  - { offset: 0xE5F7D, size: 0x8, addend: 0x0, symName: __RINvNtCsaNl6UpbT7bw_4core3ptr13drop_in_placeINtNvXsd_NtNtCsiTraAjBDcu4_5alloc3vec9into_iterINtBP_8IntoIterppENtNtNtB4_3ops4drop4Drop4drop9DropGuardRNtCshnvkK9b4wzu_11proc_macro25IdentNtNtBT_5alloc6GlobalEECsfWotccrMQ3I_14thiserror_impl, symObjAddr: 0x1B64, symBinAddr: 0x45748, symSize: 0x24 }
  - { offset: 0xE5FAC, size: 0x8, addend: 0x0, symName: __RINvNtCsaNl6UpbT7bw_4core3ptr13drop_in_placeINtNvXsw_NtNtNtCsiTraAjBDcu4_5alloc11collections5btree3mapINtBP_8IntoIterpppENtNtNtB4_3ops4drop4Drop4drop9DropGuardNtNtBV_6string6StringNtNtBR_7set_val9SetValZSTNtNtBV_5alloc6GlobalEECsfWotccrMQ3I_14thiserror_impl, symObjAddr: 0x1B88, symBinAddr: 0x4576C, symSize: 0x24 }
  - { offset: 0xE5FDB, size: 0x8, addend: 0x0, symName: __RINvNtCsaNl6UpbT7bw_4core3ptr13drop_in_placeINtNvXsw_NtNtNtCsiTraAjBDcu4_5alloc11collections5btree3mapINtBP_8IntoIterpppENtNtNtB4_3ops4drop4Drop4drop9DropGuardNtNtBV_6string6StringTINtNtBR_3set8BTreeSetB2x_EINtNtCsc29TF2YcYso_3syn10punctuated10PunctuatedNtCshnvkK9b4wzu_11proc_macro211TokenStreamNtNtB3o_5token4PlusEENtNtBV_5alloc6GlobalEECsfWotccrMQ3I_14thiserror_impl, symObjAddr: 0x1BAC, symBinAddr: 0x45790, symSize: 0x24 }
  - { offset: 0xE600A, size: 0x8, addend: 0x0, symName: __RINvNtCsaNl6UpbT7bw_4core3ptr13drop_in_placeINtNvXsw_NtNtNtCsiTraAjBDcu4_5alloc11collections5btree3mapINtBP_8IntoIterpppENtNtNtB4_3ops4drop4Drop4drop9DropGuardNtNtCsfWotccrMQ3I_14thiserror_impl5unraw10IdentUnrawNtNtBR_7set_val9SetValZSTNtNtBV_5alloc6GlobalEEB2B_, symObjAddr: 0x1BD0, symBinAddr: 0x457B4, symSize: 0x24 }
  - { offset: 0xE6039, size: 0x8, addend: 0x0, symName: __RINvNtCsaNl6UpbT7bw_4core3ptr13drop_in_placeINtNvXsw_NtNtNtCsiTraAjBDcu4_5alloc11collections5btree3mapINtBP_8IntoIterpppENtNtNtB4_3ops4drop4Drop4drop9DropGuardRNtCshnvkK9b4wzu_11proc_macro25IdentNtNtBR_7set_val9SetValZSTNtNtBV_5alloc6GlobalEECsfWotccrMQ3I_14thiserror_impl, symObjAddr: 0x1BF4, symBinAddr: 0x457D8, symSize: 0x24 }
  - { offset: 0xE6068, size: 0x8, addend: 0x0, symName: __RINvNtCsaNl6UpbT7bw_4core3ptr13drop_in_placeINtNvXsw_NtNtNtCsiTraAjBDcu4_5alloc11collections5btree3mapINtBP_8IntoIterpppENtNtNtB4_3ops4drop4Drop4drop9DropGuardTjNtNtCsfWotccrMQ3I_14thiserror_impl4attr5TraitENtNtBR_7set_val9SetValZSTNtNtBV_5alloc6GlobalEEB2D_, symObjAddr: 0x1C18, symBinAddr: 0x457FC, symSize: 0x24 }
  - { offset: 0xE6097, size: 0x8, addend: 0x0, symName: __RINvNtCsaNl6UpbT7bw_4core3ptr13drop_in_placeNCINvMsi_NtCsiTraAjBDcu4_5alloc3vecINtBP_3VecNtCshnvkK9b4wzu_11proc_macro211TokenStreamE14extend_trustedINtNtNtNtB4_4iter8adapters3map3MapINtNtNtB4_5slice4iter4IterNtNtCsfWotccrMQ3I_14thiserror_impl3ast7VariantENCNvNtB3o_6expand9impl_enums1_0EE0EB3o_, symObjAddr: 0x1C3C, symBinAddr: 0x45820, symSize: 0x24 }
  - { offset: 0xE60C6, size: 0x8, addend: 0x0, symName: __RINvNtCsaNl6UpbT7bw_4core3ptr13drop_in_placeNCINvNtNtNtB4_4iter8adapters3map8map_foldRNtNtCsfWotccrMQ3I_14thiserror_impl3ast7VariantNtCshnvkK9b4wzu_11proc_macro211TokenStreamuNCNvNtB1q_6expand9impl_enums1_0NCINvNvNtNtNtBP_6traits8iterator8Iterator8for_each4callB26_NCINvMsi_NtCsiTraAjBDcu4_5alloc3vecINtB4o_3VecB26_E14extend_trustedINtBL_3MapINtNtNtB4_5slice4iter4IterB1m_EB2N_EE0E0E0EB1q_, symObjAddr: 0x1C60, symBinAddr: 0x45844, symSize: 0x24 }
  - { offset: 0xE60F5, size: 0x8, addend: 0x0, symName: __RINvNtCsaNl6UpbT7bw_4core3ptr13drop_in_placeNCINvNvNtNtNtNtB4_4iter6traits8iterator8Iterator8for_each4callNtCshnvkK9b4wzu_11proc_macro211TokenStreamNCINvMsi_NtCsiTraAjBDcu4_5alloc3vecINtB2v_3VecB1G_E14extend_trustedINtNtNtBT_8adapters3map3MapINtNtNtB4_5slice4iter4IterNtNtCsfWotccrMQ3I_14thiserror_impl3ast7VariantENCNvNtB4m_6expand9impl_enums1_0EE0E0EB4m_, symObjAddr: 0x1C84, symBinAddr: 0x45868, symSize: 0x24 }
  - { offset: 0xE6124, size: 0x8, addend: 0x0, symName: __RINvNtCsaNl6UpbT7bw_4core3ptr13drop_in_placeNCNCINvNtNtCs7yrEGia95Wz_10proc_macro6bridge6client10run_clientNtBN_11TokenStreamINtNtB4_6option6OptionB1H_ENCNCINvMs6_BN_INtBN_6ClientNtBR_11TokenStreamB2R_E7expand1NvCsfWotccrMQ3I_14thiserror_impl12derive_errorE00E00EB3o_, symObjAddr: 0x1CA8, symBinAddr: 0x4588C, symSize: 0x24 }
  - { offset: 0xE6153, size: 0x8, addend: 0x0, symName: __RINvNtCsaNl6UpbT7bw_4core3ptr13drop_in_placeNCNvNtCsfWotccrMQ3I_14thiserror_impl6expand11impl_structs0_0EBM_, symObjAddr: 0x1CCC, symBinAddr: 0x458B0, symSize: 0x24 }
  - { offset: 0xE6182, size: 0x8, addend: 0x0, symName: __RINvNtCsaNl6UpbT7bw_4core3ptr13drop_in_placeNtNtCsc29TF2YcYso_3syn6derive11DeriveInputECsfWotccrMQ3I_14thiserror_impl, symObjAddr: 0x1CF0, symBinAddr: 0x458D4, symSize: 0xEC }
  - { offset: 0xE61B1, size: 0x8, addend: 0x0, symName: __RINvNtCsaNl6UpbT7bw_4core3ptr13drop_in_placeNtNtCsc29TF2YcYso_3syn8generics10TypeParamsECsfWotccrMQ3I_14thiserror_impl, symObjAddr: 0x1DDC, symBinAddr: 0x459C0, symSize: 0x24 }
  - { offset: 0xE61E0, size: 0x8, addend: 0x0, symName: __RINvNtCsaNl6UpbT7bw_4core3ptr13drop_in_placeNtNtCsfWotccrMQ3I_14thiserror_impl3ast4EnumEBK_, symObjAddr: 0x1E00, symBinAddr: 0x459E4, symSize: 0x8C }
  - { offset: 0xE620F, size: 0x8, addend: 0x0, symName: __RINvNtCsaNl6UpbT7bw_4core3ptr13drop_in_placeNtNtCsfWotccrMQ3I_14thiserror_impl3ast5FieldEBK_, symObjAddr: 0x1E8C, symBinAddr: 0x45A70, symSize: 0x60 }
  - { offset: 0xE623E, size: 0x8, addend: 0x0, symName: __RINvNtCsaNl6UpbT7bw_4core3ptr13drop_in_placeNtNtCsfWotccrMQ3I_14thiserror_impl3ast5InputEBK_, symObjAddr: 0x1EEC, symBinAddr: 0x45AD0, symSize: 0x50 }
  - { offset: 0xE626D, size: 0x8, addend: 0x0, symName: __RINvNtCsaNl6UpbT7bw_4core3ptr13drop_in_placeNtNtCsfWotccrMQ3I_14thiserror_impl3ast6StructEBK_, symObjAddr: 0x1F3C, symBinAddr: 0x45B20, symSize: 0x8C }
  - { offset: 0xE629C, size: 0x8, addend: 0x0, symName: __RINvNtCsaNl6UpbT7bw_4core3ptr13drop_in_placeNtNtCsfWotccrMQ3I_14thiserror_impl3ast7VariantEBK_, symObjAddr: 0x1FC8, symBinAddr: 0x45BAC, symSize: 0x8C }
  - { offset: 0xE62CB, size: 0x8, addend: 0x0, symName: __RINvNtCsaNl6UpbT7bw_4core3ptr13drop_in_placeNtNtCsfWotccrMQ3I_14thiserror_impl3fmt12FmtArgumentsEBK_, symObjAddr: 0x2054, symBinAddr: 0x45C38, symSize: 0x5C }
  - { offset: 0xE62FA, size: 0x8, addend: 0x0, symName: __RINvNtCsaNl6UpbT7bw_4core3ptr13drop_in_placeNtNtCsfWotccrMQ3I_14thiserror_impl4attr3FmtEBK_, symObjAddr: 0x20B0, symBinAddr: 0x45C94, symSize: 0x24 }
  - { offset: 0xE6329, size: 0x8, addend: 0x0, symName: __RINvNtCsaNl6UpbT7bw_4core3ptr13drop_in_placeNtNtCsfWotccrMQ3I_14thiserror_impl4attr5AttrsEBK_, symObjAddr: 0x20D4, symBinAddr: 0x45CB8, symSize: 0x60 }
  - { offset: 0xE6358, size: 0x8, addend: 0x0, symName: __RINvNtCsaNl6UpbT7bw_4core3ptr13drop_in_placeNtNtCsfWotccrMQ3I_14thiserror_impl4attr7DisplayEBK_, symObjAddr: 0x2134, symBinAddr: 0x45D18, symSize: 0xBC }
  - { offset: 0xE6387, size: 0x8, addend: 0x0, symName: __RINvNtCsaNl6UpbT7bw_4core3ptr13drop_in_placeNtNtCsfWotccrMQ3I_14thiserror_impl5unraw10IdentUnrawEBK_, symObjAddr: 0x21F0, symBinAddr: 0x45DD4, symSize: 0x24 }
  - { offset: 0xE63B6, size: 0x8, addend: 0x0, symName: __RINvNtCsaNl6UpbT7bw_4core3ptr13drop_in_placeNtNtCsfWotccrMQ3I_14thiserror_impl5unraw11MemberUnrawEBK_, symObjAddr: 0x2214, symBinAddr: 0x45DF8, symSize: 0x48 }
  - { offset: 0xE63E5, size: 0x8, addend: 0x0, symName: __RINvNtCsaNl6UpbT7bw_4core3ptr13drop_in_placeNtNtCsfWotccrMQ3I_14thiserror_impl8generics13ParamsInScopeEBK_, symObjAddr: 0x225C, symBinAddr: 0x45E40, symSize: 0x24 }
  - { offset: 0xE6414, size: 0x8, addend: 0x0, symName: __RINvNtCsaNl6UpbT7bw_4core3ptr13drop_in_placeNtNtCsfWotccrMQ3I_14thiserror_impl8generics14InferredBoundsEBK_, symObjAddr: 0x2280, symBinAddr: 0x45E64, symSize: 0x5C }
  - { offset: 0xE6443, size: 0x8, addend: 0x0, symName: __RINvNtCsaNl6UpbT7bw_4core3ptr13drop_in_placeNtNtNtCs7yrEGia95Wz_10proc_macro6bridge3rpc12PanicMessageECsfWotccrMQ3I_14thiserror_impl, symObjAddr: 0x22DC, symBinAddr: 0x45EC0, symSize: 0x50 }
  - { offset: 0xE6472, size: 0x8, addend: 0x0, symName: __RINvNtCsaNl6UpbT7bw_4core3ptr13drop_in_placeNtNtNtCs7yrEGia95Wz_10proc_macro6bridge6buffer6BufferECsfWotccrMQ3I_14thiserror_impl, symObjAddr: 0x232C, symBinAddr: 0x45F10, symSize: 0x24 }
  - { offset: 0xE64A1, size: 0x8, addend: 0x0, symName: __RINvNtCsaNl6UpbT7bw_4core3ptr13drop_in_placeNtNtNtCs7yrEGia95Wz_10proc_macro6bridge6client6BridgeECsfWotccrMQ3I_14thiserror_impl, symObjAddr: 0x2350, symBinAddr: 0x45F34, symSize: 0x24 }
  - { offset: 0xE64D0, size: 0x8, addend: 0x0, symName: __RINvNtCsaNl6UpbT7bw_4core3ptr13drop_in_placeNtNtNtCsht3nMU9UgFu_3std2io5error5ErrorECsfWotccrMQ3I_14thiserror_impl, symObjAddr: 0x2374, symBinAddr: 0x45F58, symSize: 0x24 }
  - { offset: 0xE64FF, size: 0x8, addend: 0x0, symName: __RINvNtCsaNl6UpbT7bw_4core3ptr13drop_in_placeNtNtNtCsht3nMU9UgFu_3std2io5error6CustomECsfWotccrMQ3I_14thiserror_impl, symObjAddr: 0x2398, symBinAddr: 0x45F7C, symSize: 0x24 }
  - { offset: 0xE652E, size: 0x8, addend: 0x0, symName: __RINvNtCsaNl6UpbT7bw_4core3ptr13drop_in_placeNtNtNtNtCsht3nMU9UgFu_3std2io5error14repr_bitpacked4ReprECsfWotccrMQ3I_14thiserror_impl, symObjAddr: 0x23BC, symBinAddr: 0x45FA0, symSize: 0x24 }
  - { offset: 0xE655D, size: 0x8, addend: 0x0, symName: __RINvNtCsaNl6UpbT7bw_4core3ptr13drop_in_placeNtNvNtNtNtCs7yrEGia95Wz_10proc_macro6bridge6client5state3set13RestoreOnDropECsfWotccrMQ3I_14thiserror_impl, symObjAddr: 0x23E0, symBinAddr: 0x45FC4, symSize: 0x24 }
  - { offset: 0xE658C, size: 0x8, addend: 0x0, symName: __RINvNtCsaNl6UpbT7bw_4core3ptr13drop_in_placeNtNvNtNtNtCsiTraAjBDcu4_5alloc11collections5btree3mem7replace10PanicGuardECsfWotccrMQ3I_14thiserror_impl, symObjAddr: 0x2404, symBinAddr: 0x45FE8, symSize: 0x24 }
  - { offset: 0xE65BB, size: 0x8, addend: 0x0, symName: __RINvNtCsaNl6UpbT7bw_4core3ptr13drop_in_placeSNtCshnvkK9b4wzu_11proc_macro211TokenStreamECsfWotccrMQ3I_14thiserror_impl, symObjAddr: 0x2428, symBinAddr: 0x4600C, symSize: 0xB4 }
  - { offset: 0xE65EA, size: 0x8, addend: 0x0, symName: __RINvNtCsaNl6UpbT7bw_4core3ptr13drop_in_placeSNtNtCsfWotccrMQ3I_14thiserror_impl3ast5FieldEBL_, symObjAddr: 0x24DC, symBinAddr: 0x460C0, symSize: 0xC4 }
  - { offset: 0xE6619, size: 0x8, addend: 0x0, symName: __RINvNtCsaNl6UpbT7bw_4core3ptr13drop_in_placeSNtNtCsfWotccrMQ3I_14thiserror_impl3ast7VariantEBL_, symObjAddr: 0x25A0, symBinAddr: 0x46184, symSize: 0xC4 }
  - { offset: 0xE6648, size: 0x8, addend: 0x0, symName: __RINvNtCsaNl6UpbT7bw_4core3ptr13drop_in_placeSTNtCshnvkK9b4wzu_11proc_macro211TokenStreamNtNtCsc29TF2YcYso_3syn5token4PlusEECsfWotccrMQ3I_14thiserror_impl, symObjAddr: 0x2664, symBinAddr: 0x46248, symSize: 0xC4 }
  - { offset: 0xE6677, size: 0x8, addend: 0x0, symName: __RINvNtCsaNl6UpbT7bw_4core3ptr13drop_in_placeSTNtCshnvkK9b4wzu_11proc_macro25IdentNtBK_11TokenStreamEECsfWotccrMQ3I_14thiserror_impl, symObjAddr: 0x2728, symBinAddr: 0x4630C, symSize: 0xC4 }
  - { offset: 0xE66A6, size: 0x8, addend: 0x0, symName: __RINvNtCsaNl6UpbT7bw_4core3ptr13drop_in_placeTINtNtB4_6option6OptionINtNtB4_6result6ResultNtNtCsc29TF2YcYso_3syn4expr5IndexNtNtB1t_5error5ErrorEEBH_BH_EECsfWotccrMQ3I_14thiserror_impl, symObjAddr: 0x27EC, symBinAddr: 0x463D0, symSize: 0x90 }
  - { offset: 0xE66D5, size: 0x8, addend: 0x0, symName: __RINvNtCsaNl6UpbT7bw_4core3ptr13drop_in_placeTINtNtNtNtCsiTraAjBDcu4_5alloc11collections5btree3set8BTreeSetNtNtBQ_6string6StringEINtNtCsc29TF2YcYso_3syn10punctuated10PunctuatedNtCshnvkK9b4wzu_11proc_macro211TokenStreamNtNtB27_5token4PlusEEECsfWotccrMQ3I_14thiserror_impl, symObjAddr: 0x287C, symBinAddr: 0x46460, symSize: 0x60 }
  - { offset: 0xE6704, size: 0x8, addend: 0x0, symName: __RINvNtCsaNl6UpbT7bw_4core3ptr13drop_in_placeTNtCshnvkK9b4wzu_11proc_macro211TokenStreamNtNtCsc29TF2YcYso_3syn5token4PlusEECsfWotccrMQ3I_14thiserror_impl, symObjAddr: 0x28DC, symBinAddr: 0x464C0, symSize: 0x24 }
  - { offset: 0xE6733, size: 0x8, addend: 0x0, symName: __RINvNtCsaNl6UpbT7bw_4core3ptr13drop_in_placeTNtCshnvkK9b4wzu_11proc_macro25IdentNtBJ_11TokenStreamEECsfWotccrMQ3I_14thiserror_impl, symObjAddr: 0x2900, symBinAddr: 0x464E4, symSize: 0x60 }
  - { offset: 0xE6762, size: 0x8, addend: 0x0, symName: __RINvNtCsaNl6UpbT7bw_4core3ptr13drop_in_placeTNtNtCsfWotccrMQ3I_14thiserror_impl5unraw10IdentUnrawNtNtNtNtCsiTraAjBDcu4_5alloc11collections5btree7set_val9SetValZSTEEBL_, symObjAddr: 0x2960, symBinAddr: 0x46544, symSize: 0x24 }
  - { offset: 0xE6791, size: 0x8, addend: 0x0, symName: __RINvNtCsaNl6UpbT7bw_4core3ptr13drop_in_placeTNtNtCsiTraAjBDcu4_5alloc6string6StringNtNtNtNtBL_11collections5btree7set_val9SetValZSTEECsfWotccrMQ3I_14thiserror_impl, symObjAddr: 0x2984, symBinAddr: 0x46568, symSize: 0x24 }
  - { offset: 0xE67C0, size: 0x8, addend: 0x0, symName: __RINvNtCsaNl6UpbT7bw_4core3ptr13drop_in_placeTNtNtCsiTraAjBDcu4_5alloc6string6StringTINtNtNtNtBL_11collections5btree3set8BTreeSetBH_EINtNtCsc29TF2YcYso_3syn10punctuated10PunctuatedNtCshnvkK9b4wzu_11proc_macro211TokenStreamNtNtB2b_5token4PlusEEEECsfWotccrMQ3I_14thiserror_impl, symObjAddr: 0x29A8, symBinAddr: 0x4658C, symSize: 0x60 }
  - { offset: 0xE6869, size: 0x8, addend: 0x0, symName: __RNvYNtNtCsc29TF2YcYso_3syn6buffer6CursorNtNtCsaNl6UpbT7bw_4core3cmp10PartialOrd2ltCsfWotccrMQ3I_14thiserror_impl, symObjAddr: 0x441C, symBinAddr: 0x47FD8, symSize: 0x70 }
  - { offset: 0xEA71B, size: 0x8, addend: 0x0, symName: __RNvMNtCsaNl6UpbT7bw_4core5sliceSNtNtCsfWotccrMQ3I_14thiserror_impl3ast5Field4iterBy_, symObjAddr: 0x31C0, symBinAddr: 0x46D7C, symSize: 0x28 }
  - { offset: 0xEA752, size: 0x8, addend: 0x0, symName: __RNvMNtCsaNl6UpbT7bw_4core5sliceSNtNtCsfWotccrMQ3I_14thiserror_impl3ast7Variant4iterBy_, symObjAddr: 0x31E8, symBinAddr: 0x46DA4, symSize: 0x28 }
  - { offset: 0xEA836, size: 0x8, addend: 0x0, symName: __RNvXs_NtNtCsaNl6UpbT7bw_4core5slice4iterRSNtNtCsfWotccrMQ3I_14thiserror_impl3ast5FieldNtNtNtNtB8_4iter6traits7collect12IntoIterator9into_iterBI_, symObjAddr: 0x3B98, symBinAddr: 0x47754, symSize: 0x58 }
  - { offset: 0xEAB0D, size: 0x8, addend: 0x0, symName: __RNCINvNtNtNtCsaNl6UpbT7bw_4core4iter8adapters3map12map_try_foldRNtNtCsc29TF2YcYso_3syn4data7VariantINtNtBa_6result6ResultNtNtCsfWotccrMQ3I_14thiserror_impl3ast7VariantNtNtB14_5error5ErrorEuINtNtNtBa_3ops12control_flow11ControlFlowIB32_B1V_EENCNvMs0_B1X_NtB1X_4Enum8from_syn0NCINvXB6_INtB6_12GenericShuntINtB4_3MapINtNtB14_10punctuated4IterB10_EB3R_EIB1A_NtNtBa_7convert10InfallibleB2F_EENtNtNtB8_6traits8iterator8Iterator8try_folduNCINvNvB6d_12try_for_each4callB1V_B3G_NcNtB3G_5Break0E0B3G_E0E0B1Z_, symObjAddr: 0x2F08, symBinAddr: 0x46AC4, symSize: 0xA8 }
  - { offset: 0xEAB9F, size: 0x8, addend: 0x0, symName: __RNCINvNtNtNtCsaNl6UpbT7bw_4core4iter8adapters3map12map_try_foldTjRNtNtCsc29TF2YcYso_3syn4data5FieldEINtNtBa_6result6ResultNtNtCsfWotccrMQ3I_14thiserror_impl3ast5FieldNtNtB16_5error5ErrorEuINtNtNtBa_3ops12control_flow11ControlFlowIB31_B1W_EENCNvMs2_B1Y_B1W_17multiple_from_syn0NCINvXB6_INtB6_12GenericShuntINtB4_3MapINtNtB6_9enumerate9EnumerateINtNtB16_10punctuated4IterB12_EEB3Q_EIB1B_NtNtBa_7convert10InfallibleB2E_EENtNtNtB8_6traits8iterator8Iterator8try_folduNCINvNvB6I_12try_for_each4callB1W_B3F_NcNtB3F_5Break0E0B3F_E0E0B20_, symObjAddr: 0x2FB0, symBinAddr: 0x46B6C, symSize: 0xAC }
  - { offset: 0xEAC37, size: 0x8, addend: 0x0, symName: __RINvXs0_NtNtNtCsaNl6UpbT7bw_4core4iter8adapters3mapINtB6_3MapINtNtB8_9enumerate9EnumerateINtNtCsc29TF2YcYso_3syn10punctuated4IterNtNtB1u_4data5FieldEENCNvMs2_NtCsfWotccrMQ3I_14thiserror_impl3astNtB2w_5Field17multiple_from_syn0ENtNtNtBa_6traits8iterator8Iterator8try_folduNCINvXB8_INtB8_12GenericShuntBN_INtNtBc_6result6ResultNtNtBc_7convert10InfallibleNtNtB1u_5error5ErrorEEB3D_8try_folduNCINvNvB3D_12try_for_each4callB36_INtNtNtBc_3ops12control_flow11ControlFlowB36_ENcNtB6M_5Break0E0B6M_E0IB6N_B6M_EEB2y_, symObjAddr: 0x2BE8, symBinAddr: 0x467A4, symSize: 0x54 }
  - { offset: 0xEACDA, size: 0x8, addend: 0x0, symName: __RINvXs0_NtNtNtCsaNl6UpbT7bw_4core4iter8adapters3mapINtB6_3MapINtNtCsc29TF2YcYso_3syn10punctuated4IterNtNtB12_4data7VariantENCNvMs0_NtCsfWotccrMQ3I_14thiserror_impl3astNtB25_4Enum8from_syn0ENtNtNtBa_6traits8iterator8Iterator8try_folduNCINvXB8_INtB8_12GenericShuntBN_INtNtBc_6result6ResultNtNtBc_7convert10InfallibleNtNtB12_5error5ErrorEEB31_8try_folduNCINvNvB31_12try_for_each4callNtB25_7VariantINtNtNtBc_3ops12control_flow11ControlFlowB66_ENcNtB6k_5Break0E0B6k_E0IB6l_B6k_EEB27_, symObjAddr: 0x2C3C, symBinAddr: 0x467F8, symSize: 0x54 }
  - { offset: 0xEAD7D, size: 0x8, addend: 0x0, symName: __RINvXs0_NtNtNtCsaNl6UpbT7bw_4core4iter8adapters3mapINtB6_3MapINtNtNtBc_5slice4iter4IterNtNtCsfWotccrMQ3I_14thiserror_impl3ast7VariantENCNvNtB1r_6expand9impl_enums1_0ENtNtNtBa_6traits8iterator8Iterator4folduNCINvNvB2E_8for_each4callNtCshnvkK9b4wzu_11proc_macro211TokenStreamNCINvMsi_NtCsiTraAjBDcu4_5alloc3vecINtB4w_3VecB3H_E14extend_trustedBN_E0E0EB1r_, symObjAddr: 0x2C90, symBinAddr: 0x4684C, symSize: 0x58 }
  - { offset: 0xEAE16, size: 0x8, addend: 0x0, symName: __RNvXs0_NtNtNtCsaNl6UpbT7bw_4core4iter8adapters3mapINtB5_3MapINtNtB7_8peekable8PeekableIBN_INtNtNtBb_5slice4iter4IterNtNtCsfWotccrMQ3I_14thiserror_impl3ast5FieldENCNvNtB1U_6expand10fields_pat0EENCB2B_s_0ENtNtNtB9_6traits8iterator8Iterator4nextB1U_, symObjAddr: 0x3530, symBinAddr: 0x470EC, symSize: 0x94 }
  - { offset: 0xEAEAE, size: 0x8, addend: 0x0, symName: __RNvXs0_NtNtNtCsaNl6UpbT7bw_4core4iter8adapters3mapINtB5_3MapINtNtB7_9enumerate9EnumerateINtNtCsc29TF2YcYso_3syn10punctuated4IterNtNtB1t_4data5FieldEENCNvMs2_NtCsfWotccrMQ3I_14thiserror_impl3astNtB2v_5Field17multiple_from_syn0ENtNtNtB9_6traits8iterator8Iterator9size_hintB2x_, symObjAddr: 0x35C4, symBinAddr: 0x47180, symSize: 0x24 }
  - { offset: 0xEAEF5, size: 0x8, addend: 0x0, symName: __RNvXs0_NtNtNtCsaNl6UpbT7bw_4core4iter8adapters3mapINtB5_3MapINtNtCsc29TF2YcYso_3syn10punctuated4IterNtNtB11_4data7VariantENCNvMs0_NtCsfWotccrMQ3I_14thiserror_impl3astNtB24_4Enum8from_syn0ENtNtNtB9_6traits8iterator8Iterator9size_hintB26_, symObjAddr: 0x35E8, symBinAddr: 0x471A4, symSize: 0x24 }
  - { offset: 0xEAF3C, size: 0x8, addend: 0x0, symName: __RNvXs0_NtNtNtCsaNl6UpbT7bw_4core4iter8adapters3mapINtB5_3MapINtNtNtBb_3str4iter5SplitcEINvCsc29TF2YcYso_3syn9parse_strNtNtB1q_4expr5IndexEENtNtNtB9_6traits8iterator8Iterator4nextCsfWotccrMQ3I_14thiserror_impl, symObjAddr: 0x360C, symBinAddr: 0x471C8, symSize: 0xA4 }
  - { offset: 0xEAFD4, size: 0x8, addend: 0x0, symName: __RNvXs0_NtNtNtCsaNl6UpbT7bw_4core4iter8adapters3mapINtB5_3MapINtNtNtBb_5slice4iter4IterNtNtCsfWotccrMQ3I_14thiserror_impl3ast5FieldENCNCNvNtB1q_6expand9impl_enums1_00ENtNtNtB9_6traits8iterator8Iterator4nextB1q_, symObjAddr: 0x36B0, symBinAddr: 0x4726C, symSize: 0x94 }
  - { offset: 0xEB06C, size: 0x8, addend: 0x0, symName: __RNvXs0_NtNtNtCsaNl6UpbT7bw_4core4iter8adapters3mapINtB5_3MapINtNtNtBb_5slice4iter4IterNtNtCsfWotccrMQ3I_14thiserror_impl3ast5FieldENCNvNtB1q_6expand10fields_pat0ENtNtNtB9_6traits8iterator8Iterator4nextB1q_, symObjAddr: 0x3744, symBinAddr: 0x47300, symSize: 0x78 }
  - { offset: 0xEB104, size: 0x8, addend: 0x0, symName: __RNvXs0_NtNtNtCsaNl6UpbT7bw_4core4iter8adapters3mapINtB5_3MapINtNtNtBb_5slice4iter4IterNtNtCsfWotccrMQ3I_14thiserror_impl3ast7VariantENCNvNtB1q_6expand9impl_enum0ENtNtNtB9_6traits8iterator8Iterator4nextB1q_, symObjAddr: 0x37BC, symBinAddr: 0x47378, symSize: 0x94 }
  - { offset: 0xEB19C, size: 0x8, addend: 0x0, symName: __RNvXs0_NtNtNtCsaNl6UpbT7bw_4core4iter8adapters3mapINtB5_3MapINtNtNtBb_5slice4iter4IterNtNtCsfWotccrMQ3I_14thiserror_impl3ast7VariantENCNvNtB1q_6expand9impl_enums1_0ENtNtNtB9_6traits8iterator8Iterator9size_hintB1q_, symObjAddr: 0x3850, symBinAddr: 0x4740C, symSize: 0x24 }
  - { offset: 0xEB1E3, size: 0x8, addend: 0x0, symName: __RNvXs0_NtNtNtCsaNl6UpbT7bw_4core4iter8adapters3mapINtB5_3MapINtNtNtBb_5slice4iter4IterNtNtCsfWotccrMQ3I_14thiserror_impl3ast7VariantENCNvNtB1q_6expand9impl_enums_0ENtNtNtB9_6traits8iterator8Iterator4nextB1q_, symObjAddr: 0x3874, symBinAddr: 0x47430, symSize: 0x94 }
  - { offset: 0xEB27B, size: 0x8, addend: 0x0, symName: __RNvXs0_NtNtNtCsaNl6UpbT7bw_4core4iter8adapters3mapINtB5_3MapINtNtNtBb_5slice4iter4IterTNtCshnvkK9b4wzu_11proc_macro25IdentNtB1p_11TokenStreamEENCNvXNtCsfWotccrMQ3I_14thiserror_impl4attrNtB2m_7DisplayNtNtCs4EAaWzSXu1l_5quote9to_tokens8ToTokens9to_tokens0ENtNtNtB9_6traits8iterator8Iterator4nextB2o_, symObjAddr: 0x3908, symBinAddr: 0x474C4, symSize: 0x78 }
  - { offset: 0xEB313, size: 0x8, addend: 0x0, symName: __RNvXs0_NtNtNtCsaNl6UpbT7bw_4core4iter8adapters3mapINtB5_3MapINtNtNtBb_5slice4iter4IterTNtCshnvkK9b4wzu_11proc_macro25IdentNtB1p_11TokenStreamEENCNvXNtCsfWotccrMQ3I_14thiserror_impl4attrNtB2m_7DisplayNtNtCs4EAaWzSXu1l_5quote9to_tokens8ToTokens9to_tokenss_0ENtNtNtB9_6traits8iterator8Iterator4nextB2o_, symObjAddr: 0x3980, symBinAddr: 0x4753C, symSize: 0x78 }
  - { offset: 0xEB3AB, size: 0x8, addend: 0x0, symName: __RNvXs0_NtNtNtCsaNl6UpbT7bw_4core4iter8adapters3mapINtB5_3MapINtNtNtCsiTraAjBDcu4_5alloc3vec9into_iter8IntoIterRNtCshnvkK9b4wzu_11proc_macro25IdentENCINvMse_NtNtNtB13_11collections5btree3setINtB2u_8BTreeSetB1K_E16from_sorted_iterBW_E0ENtNtNtB9_6traits8iterator8Iterator4nextCsfWotccrMQ3I_14thiserror_impl, symObjAddr: 0x39F8, symBinAddr: 0x475B4, symSize: 0x78 }
  - { offset: 0xEB443, size: 0x8, addend: 0x0, symName: __RNvXs0_NtNtNtCsaNl6UpbT7bw_4core4iter8adapters3mapINtB5_3MapNtNtCsc29TF2YcYso_3syn8generics10TypeParamsNCNvMNtCsfWotccrMQ3I_14thiserror_impl8genericsNtB1I_13ParamsInScope3new0ENtNtNtB9_6traits8iterator8Iterator4nextB1K_, symObjAddr: 0x3A70, symBinAddr: 0x4762C, symSize: 0x78 }
  - { offset: 0xEB4DB, size: 0x8, addend: 0x0, symName: __RNvXs0_NtNtNtCsaNl6UpbT7bw_4core4iter8adapters3mapINtB5_3MapNtNtCsc29TF2YcYso_3syn8generics10TypeParamsNCNvMNtCsfWotccrMQ3I_14thiserror_impl8genericsNtB1I_13ParamsInScope3new0ENtNtNtB9_6traits8iterator8Iterator9size_hintB1K_, symObjAddr: 0x3AE8, symBinAddr: 0x476A4, symSize: 0x24 }
  - { offset: 0xEB5F7, size: 0x8, addend: 0x0, symName: __RNCINvNtNtNtCsaNl6UpbT7bw_4core4iter8adapters3map8map_foldRNtNtCsfWotccrMQ3I_14thiserror_impl3ast7VariantNtCshnvkK9b4wzu_11proc_macro211TokenStreamuNCNvNtBZ_6expand9impl_enums1_0NCINvNvNtNtNtB8_6traits8iterator8Iterator8for_each4callB1F_NCINvMsi_NtCsiTraAjBDcu4_5alloc3vecINtB3W_3VecB1F_E14extend_trustedINtB4_3MapINtNtNtBa_5slice4iter4IterBV_EB2m_EE0E0E0BZ_, symObjAddr: 0x305C, symBinAddr: 0x46C18, symSize: 0x8C }
  - { offset: 0xEBB1A, size: 0x8, addend: 0x0, symName: __RINvYINtNtNtNtCsaNl6UpbT7bw_4core4iter8adapters3map3MapINtNtB8_9enumerate9EnumerateINtNtCsc29TF2YcYso_3syn10punctuated4IterNtNtB1o_4data5FieldEENCNvMs2_NtCsfWotccrMQ3I_14thiserror_impl3astNtB2q_5Field17multiple_from_syn0ENtNtNtBa_6traits8iterator8Iterator7collectINtNtBc_6result6ResultINtNtCsiTraAjBDcu4_5alloc3vec3VecB30_ENtNtB1o_5error5ErrorEEB2s_, symObjAddr: 0x2CE8, symBinAddr: 0x468A4, symSize: 0x60 }
  - { offset: 0xEBBB0, size: 0x8, addend: 0x0, symName: __RINvYINtNtNtNtCsaNl6UpbT7bw_4core4iter8adapters3map3MapINtNtCsc29TF2YcYso_3syn10punctuated4IterNtNtBW_4data7VariantENCNvMs0_NtCsfWotccrMQ3I_14thiserror_impl3astNtB1Y_4Enum8from_syn0ENtNtNtBa_6traits8iterator8Iterator7collectINtNtBc_6result6ResultINtNtCsiTraAjBDcu4_5alloc3vec3VecNtB1Y_7VariantENtNtBW_5error5ErrorEEB20_, symObjAddr: 0x2D48, symBinAddr: 0x46904, symSize: 0x6C }
  - { offset: 0xEBC46, size: 0x8, addend: 0x0, symName: __RINvYINtNtNtNtCsaNl6UpbT7bw_4core4iter8adapters3map3MapINtNtNtBc_5slice4iter4IterNtNtCsfWotccrMQ3I_14thiserror_impl3ast7VariantENCNvNtB1l_6expand9impl_enums1_0ENtNtNtBa_6traits8iterator8Iterator7collectINtNtCsiTraAjBDcu4_5alloc3vec3VecNtCshnvkK9b4wzu_11proc_macro211TokenStreamEEB1l_, symObjAddr: 0x2DB4, symBinAddr: 0x46970, symSize: 0x68 }
  - { offset: 0xEBCDC, size: 0x8, addend: 0x0, symName: __RINvYINtNtNtNtCsaNl6UpbT7bw_4core4iter8adapters3map3MapINtNtNtBc_5slice4iter4IterNtNtCsfWotccrMQ3I_14thiserror_impl3ast7VariantENCNvNtB1l_6expand9impl_enums1_0ENtNtNtBa_6traits8iterator8Iterator8for_eachNCINvMsi_NtCsiTraAjBDcu4_5alloc3vecINtB3o_3VecNtCshnvkK9b4wzu_11proc_macro211TokenStreamE14extend_trustedB3_E0EB1l_, symObjAddr: 0x2E1C, symBinAddr: 0x469D8, symSize: 0x34 }
  - { offset: 0xEBD48, size: 0x8, addend: 0x0, symName: __RINvYINtNtNtNtCsaNl6UpbT7bw_4core4iter8adapters3map3MapNtNtCsc29TF2YcYso_3syn8generics10TypeParamsNCNvMNtCsfWotccrMQ3I_14thiserror_impl8genericsNtB1D_13ParamsInScope3new0ENtNtNtBa_6traits8iterator8Iterator7collectINtNtCsiTraAjBDcu4_5alloc3vec3VecRNtCshnvkK9b4wzu_11proc_macro25IdentEEB1F_, symObjAddr: 0x2E50, symBinAddr: 0x46A0C, symSize: 0x60 }
  - { offset: 0xEBDDD, size: 0x8, addend: 0x0, symName: __RINvYINtNtNtNtCsaNl6UpbT7bw_4core4iter8adapters3map3MapNtNtCsc29TF2YcYso_3syn8generics10TypeParamsNCNvMNtCsfWotccrMQ3I_14thiserror_impl8genericsNtB1D_13ParamsInScope3new0ENtNtNtBa_6traits8iterator8Iterator7collectINtNtNtNtCsiTraAjBDcu4_5alloc11collections5btree3set8BTreeSetRNtCshnvkK9b4wzu_11proc_macro25IdentEEB1F_, symObjAddr: 0x2EB0, symBinAddr: 0x46A6C, symSize: 0x58 }
  - { offset: 0xEBE72, size: 0x8, addend: 0x0, symName: __RNvYINtNtNtNtCsaNl6UpbT7bw_4core4iter8adapters3map3MapINtNtNtBb_5slice4iter4IterNtNtCsfWotccrMQ3I_14thiserror_impl3ast5FieldENCNvNtB1k_6expand10fields_pat0ENtNtNtB9_6traits8iterator8Iterator8peekableB1k_, symObjAddr: 0x3FA4, symBinAddr: 0x47B60, symSize: 0x3C }
  - { offset: 0xEBEBE, size: 0x8, addend: 0x0, symName: __RNvYINtNtNtNtCsaNl6UpbT7bw_4core4iter8adapters3map3MapINtNtNtCsiTraAjBDcu4_5alloc3vec9into_iter8IntoIterRNtCshnvkK9b4wzu_11proc_macro25IdentENCINvMse_NtNtNtBX_11collections5btree3setINtB2o_8BTreeSetB1E_E16from_sorted_iterBQ_E0ENtNtNtB9_6traits8iterator8Iterator8peekableCsfWotccrMQ3I_14thiserror_impl, symObjAddr: 0x4080, symBinAddr: 0x47C3C, symSize: 0x34 }
  - { offset: 0xEBF16, size: 0x8, addend: 0x0, symName: __RNvXNtNtNtCsaNl6UpbT7bw_4core4iter6traits7collectINtNtNtB6_8adapters3map3MapINtNtBQ_9enumerate9EnumerateINtNtCsc29TF2YcYso_3syn10punctuated4IterNtNtB1J_4data5FieldEENCNvMs2_NtCsfWotccrMQ3I_14thiserror_impl3astNtB2L_5Field17multiple_from_syn0ENtB2_12IntoIterator9into_iterB2N_, symObjAddr: 0x34A8, symBinAddr: 0x47064, symSize: 0x14 }
  - { offset: 0xEBF4D, size: 0x8, addend: 0x0, symName: __RNvXNtNtNtCsaNl6UpbT7bw_4core4iter6traits7collectINtNtNtB6_8adapters3map3MapINtNtCsc29TF2YcYso_3syn10punctuated4IterNtNtB1h_4data7VariantENCNvMs0_NtCsfWotccrMQ3I_14thiserror_impl3astNtB2k_4Enum8from_syn0ENtB2_12IntoIterator9into_iterB2m_, symObjAddr: 0x34BC, symBinAddr: 0x47078, symSize: 0x30 }
  - { offset: 0xEBF85, size: 0x8, addend: 0x0, symName: __RNvXNtNtNtCsaNl6UpbT7bw_4core4iter6traits7collectINtNtNtB6_8adapters3map3MapINtNtNtB8_5slice4iter4IterNtNtCsfWotccrMQ3I_14thiserror_impl3ast7VariantENCNvNtB1G_6expand9impl_enums1_0ENtB2_12IntoIterator9into_iterB1G_, symObjAddr: 0x34EC, symBinAddr: 0x470A8, symSize: 0x14 }
  - { offset: 0xEBFBC, size: 0x8, addend: 0x0, symName: __RNvXNtNtNtCsaNl6UpbT7bw_4core4iter6traits7collectINtNtNtB6_8adapters3map3MapINtNtNtCsiTraAjBDcu4_5alloc3vec9into_iter8IntoIterRNtCshnvkK9b4wzu_11proc_macro25IdentENCINvMse_NtNtNtB1j_11collections5btree3setINtB2K_8BTreeSetB20_E16from_sorted_iterB1c_E0ENtB2_12IntoIterator9into_iterCsfWotccrMQ3I_14thiserror_impl, symObjAddr: 0x3500, symBinAddr: 0x470BC, symSize: 0x14 }
  - { offset: 0xEBFF3, size: 0x8, addend: 0x0, symName: __RNvXNtNtNtCsaNl6UpbT7bw_4core4iter6traits7collectINtNtNtB6_8adapters3map3MapNtNtCsc29TF2YcYso_3syn8generics10TypeParamsNCNvMNtCsfWotccrMQ3I_14thiserror_impl8genericsNtB1Y_13ParamsInScope3new0ENtB2_12IntoIterator9into_iterB20_, symObjAddr: 0x3514, symBinAddr: 0x470D0, symSize: 0x1C }
  - { offset: 0xECA98, size: 0x8, addend: 0x0, symName: __RNSNvYNCINvMs6_NtCsg4dki62PTrg_9hashbrown3rawINtBd_8RawTableTRNtNtCsfWotccrMQ3I_14thiserror_impl5unraw11MemberUnrawjEE14reserve_rehashNCINvNtBf_3map11make_hasherBX_jNtNtNtCsht3nMU9UgFu_3std4hash6random11RandomStateE0E0INtNtNtCsaNl6UpbT7bw_4core3ops8function6FnOnceTQNtBd_13RawTableInnerjEE9call_once6vtableB12_, symObjAddr: 0x3118, symBinAddr: 0x46CD4, symSize: 0x38 }
  - { offset: 0xECADC, size: 0x8, addend: 0x0, symName: __RNSNvYNCINvMs6_NtCsg4dki62PTrg_9hashbrown3rawINtBd_8RawTableTRNtNtCsfWotccrMQ3I_14thiserror_impl5unraw11MemberUnrawjEE24find_or_find_insert_slotNCINvNtBf_3map14equivalent_keyBX_BX_jE0NCINvB2n_11make_hasherBX_jNtNtNtCsht3nMU9UgFu_3std4hash6random11RandomStateE0E0INtNtNtCsaNl6UpbT7bw_4core3ops8function6FnOnceTjEE9call_once6vtableB12_, symObjAddr: 0x3150, symBinAddr: 0x46D0C, symSize: 0x38 }
  - { offset: 0xECB20, size: 0x8, addend: 0x0, symName: __RNSNvYNCINvMs6_NtCsg4dki62PTrg_9hashbrown3rawINtBd_8RawTableTRNtNtCsfWotccrMQ3I_14thiserror_impl5unraw11MemberUnrawjEE4findNCINvNtBf_3map14equivalent_keyBY_BX_jE0E0INtNtNtCsaNl6UpbT7bw_4core3ops8function6FnOnceTjEE9call_once6vtableB12_, symObjAddr: 0x3188, symBinAddr: 0x46D44, symSize: 0x38 }
  - { offset: 0xECB64, size: 0x8, addend: 0x0, symName: __RNvYNCINvMs6_NtCsg4dki62PTrg_9hashbrown3rawINtBb_8RawTableTRNtNtCsfWotccrMQ3I_14thiserror_impl5unraw11MemberUnrawjEE14reserve_rehashNCINvNtBd_3map11make_hasherBV_jNtNtNtCsht3nMU9UgFu_3std4hash6random11RandomStateE0E0INtNtNtCsaNl6UpbT7bw_4core3ops8function6FnOnceTQNtBb_13RawTableInnerjEE9call_onceB10_, symObjAddr: 0x40E4, symBinAddr: 0x47CA0, symSize: 0x5C }
  - { offset: 0xECBA8, size: 0x8, addend: 0x0, symName: __RNvYNCINvMs6_NtCsg4dki62PTrg_9hashbrown3rawINtBb_8RawTableTRNtNtCsfWotccrMQ3I_14thiserror_impl5unraw11MemberUnrawjEE24find_or_find_insert_slotNCINvNtBd_3map14equivalent_keyBV_BV_jE0NCINvB2l_11make_hasherBV_jNtNtNtCsht3nMU9UgFu_3std4hash6random11RandomStateE0E0INtNtNtCsaNl6UpbT7bw_4core3ops8function6FnOnceTjEE9call_onceB10_, symObjAddr: 0x4140, symBinAddr: 0x47CFC, symSize: 0x58 }
  - { offset: 0xECBEC, size: 0x8, addend: 0x0, symName: __RNvYNCINvMs6_NtCsg4dki62PTrg_9hashbrown3rawINtBb_8RawTableTRNtNtCsfWotccrMQ3I_14thiserror_impl5unraw11MemberUnrawjEE4findNCINvNtBd_3map14equivalent_keyBW_BV_jE0E0INtNtNtCsaNl6UpbT7bw_4core3ops8function6FnOnceTjEE9call_onceB10_, symObjAddr: 0x4198, symBinAddr: 0x47D54, symSize: 0x58 }
  - { offset: 0xECC30, size: 0x8, addend: 0x0, symName: __RNvYNCNkNvNtNtNtCs7yrEGia95Wz_10proc_macro6bridge6client5state12BRIDGE_STATE0s_0INtNtNtCsaNl6UpbT7bw_4core3ops8function6FnOnceTINtNtB1n_6option6OptionQIB22_INtNtB1n_4cell4CellPuEEEEE9call_onceCsfWotccrMQ3I_14thiserror_impl, symObjAddr: 0x41F0, symBinAddr: 0x47DAC, symSize: 0x4C }
  - { offset: 0xECC74, size: 0x8, addend: 0x0, symName: __RNvYNCNkNvNvMNtNtCsht3nMU9UgFu_3std4hash6randomNtBb_11RandomState3new4KEYS0s_0INtNtNtCsaNl6UpbT7bw_4core3ops8function6FnOnceTINtNtB1l_6option6OptionQIB20_INtNtB1l_4cell4CellTyyEEEEEE9call_onceCsfWotccrMQ3I_14thiserror_impl, symObjAddr: 0x423C, symBinAddr: 0x47DF8, symSize: 0x4C }
  - { offset: 0xECCB8, size: 0x8, addend: 0x0, symName: __RNvYNCNvNtCsfWotccrMQ3I_14thiserror_impl4attr21parse_error_attribute0INtNtNtCsaNl6UpbT7bw_4core3ops8function6FnOnceTRNtNtCsc29TF2YcYso_3syn5parse11ParseBufferEE9call_onceB8_, symObjAddr: 0x4288, symBinAddr: 0x47E44, symSize: 0x40 }
  - { offset: 0xECCFD, size: 0x8, addend: 0x0, symName: __RNvYNcNtINtNtCsc29TF2YcYso_3syn10punctuated4PairRNtCshnvkK9b4wzu_11proc_macro211TokenStreamRNtNtBb_5token4PlusE3End0INtNtNtCsaNl6UpbT7bw_4core3ops8function6FnOnceTBK_EE9call_onceCsfWotccrMQ3I_14thiserror_impl, symObjAddr: 0x42C8, symBinAddr: 0x47E84, symSize: 0x24 }
  - { offset: 0xECD41, size: 0x8, addend: 0x0, symName: __RNvYNcNtNtNtCsfWotccrMQ3I_14thiserror_impl3ast5Input4Enum0INtNtNtCsaNl6UpbT7bw_4core3ops8function6FnOnceTNtB8_4EnumEE9call_onceBa_, symObjAddr: 0x438C, symBinAddr: 0x47F48, symSize: 0x48 }
  - { offset: 0xECD85, size: 0x8, addend: 0x0, symName: __RNvYNcNtNtNtCsfWotccrMQ3I_14thiserror_impl3ast5Input6Struct0INtNtNtCsaNl6UpbT7bw_4core3ops8function6FnOnceTNtB8_6StructEE9call_onceBa_, symObjAddr: 0x43D4, symBinAddr: 0x47F90, symSize: 0x48 }
  - { offset: 0xECDEC, size: 0x8, addend: 0x0, symName: __RNvYNvMNtCsfWotccrMQ3I_14thiserror_impl5unrawNtB5_10IdentUnraw3newINtNtNtCsaNl6UpbT7bw_4core3ops8function6FnOnceTNtCshnvkK9b4wzu_11proc_macro25IdentEE9call_onceB7_, symObjAddr: 0x44B4, symBinAddr: 0x48070, symSize: 0x34 }
  - { offset: 0xECE30, size: 0x8, addend: 0x0, symName: __RNvYNvNtCsfWotccrMQ3I_14thiserror_impl3fmt11is_syn_fullINtNtNtCsaNl6UpbT7bw_4core3ops8function6FnOnceuE9call_onceB6_, symObjAddr: 0x44E8, symBinAddr: 0x480A4, symSize: 0x1C }
  - { offset: 0xECE74, size: 0x8, addend: 0x0, symName: __RNvYNvNtCsfWotccrMQ3I_14thiserror_impl3fmt19explicit_named_argsINtNtNtCsaNl6UpbT7bw_4core3ops8function6FnOnceTRNtNtCsc29TF2YcYso_3syn5parse11ParseBufferEE9call_onceB6_, symObjAddr: 0x4504, symBinAddr: 0x480C0, symSize: 0x24 }
  - { offset: 0xECEB8, size: 0x8, addend: 0x0, symName: __RNvYNvNvNvMNtNtCsht3nMU9UgFu_3std4hash6randomNtB9_11RandomState3new4KEYS6___initINtNtNtCsaNl6UpbT7bw_4core3ops8function6FnOnceuE9call_onceCsfWotccrMQ3I_14thiserror_impl, symObjAddr: 0x4528, symBinAddr: 0x480E4, symSize: 0x1C }
  - { offset: 0xECEFC, size: 0x8, addend: 0x0, symName: __RNvYNvYINtNtCsiTraAjBDcu4_5alloc5boxed3BoxNtCshnvkK9b4wzu_11proc_macro211TokenStreamEINtNtCsaNl6UpbT7bw_4core7convert5AsRefBE_E6as_refINtNtNtB1q_3ops8function6FnOnceTRB5_EE9call_onceCsfWotccrMQ3I_14thiserror_impl, symObjAddr: 0x4544, symBinAddr: 0x48100, symSize: 0x24 }
  - { offset: 0xECF40, size: 0x8, addend: 0x0, symName: __RNvYNvYNtCshnvkK9b4wzu_11proc_macro25IdentNtNtCsc29TF2YcYso_3syn5parse5Parse5parseINtNtNtCsaNl6UpbT7bw_4core3ops8function6FnOnceTRNtBG_11ParseBufferEE9call_onceCsfWotccrMQ3I_14thiserror_impl, symObjAddr: 0x4568, symBinAddr: 0x48124, symSize: 0x24 }
  - { offset: 0xECF84, size: 0x8, addend: 0x0, symName: __RNvYNvYNtNtCsc29TF2YcYso_3syn4expr4ExprNtNtB9_5parse5Parse5parseINtNtNtCsaNl6UpbT7bw_4core3ops8function6FnOnceTRNtBD_11ParseBufferEE9call_onceCsfWotccrMQ3I_14thiserror_impl, symObjAddr: 0x458C, symBinAddr: 0x48148, symSize: 0x24 }
  - { offset: 0xECFC8, size: 0x8, addend: 0x0, symName: __RNvYNvYNtNtCsc29TF2YcYso_3syn6derive11DeriveInputNtNtB9_5parse5Parse5parseINtNtNtCsaNl6UpbT7bw_4core3ops8function6FnOnceTRNtBN_11ParseBufferEE9call_onceCsfWotccrMQ3I_14thiserror_impl, symObjAddr: 0x45B0, symBinAddr: 0x4816C, symSize: 0x24 }
  - { offset: 0xED00C, size: 0x8, addend: 0x0, symName: __RNvYNvYNtNtCsc29TF2YcYso_3syn8generics14WherePredicateNtNtB9_11parse_quote10ParseQuote5parseINtNtNtCsaNl6UpbT7bw_4core3ops8function6FnOnceTRNtNtB9_5parse11ParseBufferEE9call_onceCsfWotccrMQ3I_14thiserror_impl, symObjAddr: 0x45D4, symBinAddr: 0x48190, symSize: 0x24 }
  - { offset: 0xED2BA, size: 0x8, addend: 0x0, symName: __RNvYINvCsc29TF2YcYso_3syn9parse_strNtNtB5_4expr5IndexEINtNtNtCsaNl6UpbT7bw_4core3ops8function5FnMutTReEE8call_mutCsfWotccrMQ3I_14thiserror_impl, symObjAddr: 0x40B4, symBinAddr: 0x47C70, symSize: 0x30 }
  - { offset: 0xED2FE, size: 0x8, addend: 0x0, symName: __RNvYNcNtINtNtNtCsaNl6UpbT7bw_4core3ops12control_flow11ControlFlowNtNtCsfWotccrMQ3I_14thiserror_impl3ast5FieldE5Break0INtNtBb_8function5FnMutTB11_EE8call_mutB15_, symObjAddr: 0x42EC, symBinAddr: 0x47EA8, symSize: 0x50 }
  - { offset: 0xED342, size: 0x8, addend: 0x0, symName: __RNvYNcNtINtNtNtCsaNl6UpbT7bw_4core3ops12control_flow11ControlFlowNtNtCsfWotccrMQ3I_14thiserror_impl3ast7VariantE5Break0INtNtBb_8function5FnMutTB11_EE8call_mutB15_, symObjAddr: 0x433C, symBinAddr: 0x47EF8, symSize: 0x50 }
  - { offset: 0xED386, size: 0x8, addend: 0x0, symName: __RNvYNvYRNtCshnvkK9b4wzu_11proc_macro25IdentNtNtCsaNl6UpbT7bw_4core3cmp10PartialOrd2ltINtNtNtBJ_3ops8function5FnMutTRB5_B1P_EE8call_mutCsfWotccrMQ3I_14thiserror_impl, symObjAddr: 0x45F8, symBinAddr: 0x481B4, symSize: 0x30 }
  - { offset: 0xED3D0, size: 0x8, addend: 0x0, symName: __RNvYNvCsfWotccrMQ3I_14thiserror_impl12derive_errorINtNtNtCsaNl6UpbT7bw_4core3ops8function2FnTNtCs7yrEGia95Wz_10proc_macro11TokenStreamEE4callB4_, symObjAddr: 0x448C, symBinAddr: 0x48048, symSize: 0x28 }
  - { offset: 0xED634, size: 0x8, addend: 0x0, symName: __RNvYTNtCshnvkK9b4wzu_11proc_macro25IdentNtB5_11TokenStreamENtNtCsaNl6UpbT7bw_4core5clone5Clone5cloneCsfWotccrMQ3I_14thiserror_impl, symObjAddr: 0x4628, symBinAddr: 0x481E4, symSize: 0x68 }
  - { offset: 0xED665, size: 0x8, addend: 0x0, symName: __RNvYTjNtNtCsfWotccrMQ3I_14thiserror_impl4attr5TraitENtNtCsaNl6UpbT7bw_4core5clone5Clone5cloneB8_, symObjAddr: 0x4690, symBinAddr: 0x4824C, symSize: 0x60 }
  - { offset: 0xEDAE8, size: 0x8, addend: 0x0, symName: __RNCNvMs2_NtCsfWotccrMQ3I_14thiserror_impl3astNtB7_5Field17multiple_from_syn0B9_, symObjAddr: 0x565C, symBinAddr: 0x49218, symSize: 0x5C }
  - { offset: 0xEDC44, size: 0x8, addend: 0x0, symName: __RNCNvMs0_NtCsfWotccrMQ3I_14thiserror_impl3astNtB7_4Enum8from_syn0B9_, symObjAddr: 0x4FCC, symBinAddr: 0x48B88, symSize: 0x360 }
  - { offset: 0xEDD6C, size: 0x8, addend: 0x0, symName: __RNcNtNtNtCsfWotccrMQ3I_14thiserror_impl3ast5Input6Struct0B7_, symObjAddr: 0x46F0, symBinAddr: 0x482AC, symSize: 0x38 }
  - { offset: 0xEDD9B, size: 0x8, addend: 0x0, symName: __RNcNtNtNtCsfWotccrMQ3I_14thiserror_impl3ast5Input4Enum0B7_, symObjAddr: 0x4728, symBinAddr: 0x482E4, symSize: 0x3C }
  - { offset: 0xEDFBD, size: 0x8, addend: 0x0, symName: __RNvXs4_NtCsfWotccrMQ3I_14thiserror_impl3astNtB5_13ContainerKindNtNtCsaNl6UpbT7bw_4core3fmt7Display3fmt, symObjAddr: 0x5A28, symBinAddr: 0x495E4, symSize: 0x190 }
  - { offset: 0xEE518, size: 0x8, addend: 0x0, symName: __RINvCsc29TF2YcYso_3syn5parseNtNtB2_6derive11DeriveInputECsfWotccrMQ3I_14thiserror_impl, symObjAddr: 0x0, symBinAddr: 0x43C58, symSize: 0x30 }
  - { offset: 0xEE54F, size: 0x8, addend: 0x0, symName: __RINvCsc29TF2YcYso_3syn6parse2NtNtB2_4expr4ExprECsfWotccrMQ3I_14thiserror_impl, symObjAddr: 0x30, symBinAddr: 0x43C88, symSize: 0x24 }
  - { offset: 0xEE587, size: 0x8, addend: 0x0, symName: __RINvCsc29TF2YcYso_3syn9parse_strNtCshnvkK9b4wzu_11proc_macro25IdentECsfWotccrMQ3I_14thiserror_impl, symObjAddr: 0x54, symBinAddr: 0x43CAC, symSize: 0x38 }
  - { offset: 0xF35FE, size: 0x8, addend: 0x0, symName: __RINvNtCsc29TF2YcYso_3syn11parse_quote5parseNtNtB4_8generics14WherePredicateECsfWotccrMQ3I_14thiserror_impl, symObjAddr: 0x2A08, symBinAddr: 0x465EC, symSize: 0xD0 }
  - { offset: 0xF3663, size: 0x8, addend: 0x0, symName: __RINvNvNtCsc29TF2YcYso_3syn11parse_quote5parse18panic_cold_displayNtNtB6_5error5ErrorECsfWotccrMQ3I_14thiserror_impl, symObjAddr: 0x2BC0, symBinAddr: 0x1BA824, symSize: 0x28 }
  - { offset: 0xF36A0, size: 0x8, addend: 0x0, symName: __RNvXsh_NtCsc29TF2YcYso_3syn5parseNvYNtNtB7_8generics14WherePredicateNtNtB7_11parse_quote10ParseQuote5parseNtB5_6Parser6parse2CsfWotccrMQ3I_14thiserror_impl, symObjAddr: 0x3BF0, symBinAddr: 0x477AC, symSize: 0x364 }
  - { offset: 0xF662D, size: 0x8, addend: 0x0, symName: __RINvMNtCsc29TF2YcYso_3syn5errorNtB3_5Error11new_spannedRNtCshnvkK9b4wzu_11proc_macro211TokenStreamNtNtCsiTraAjBDcu4_5alloc6string6StringECsfWotccrMQ3I_14thiserror_impl, symObjAddr: 0x8C, symBinAddr: 0x43CE4, symSize: 0xD4 }
  - { offset: 0xF6B64, size: 0x8, addend: 0x0, symName: __RINvMNtCsc29TF2YcYso_3syn5errorNtB3_5Error11new_spannedRNtNtB5_4attr9AttributeReECsfWotccrMQ3I_14thiserror_impl, symObjAddr: 0x160, symBinAddr: 0x43DB8, symSize: 0xC4 }
  - { offset: 0xF6BB3, size: 0x8, addend: 0x0, symName: __RINvMNtCsc29TF2YcYso_3syn5errorNtB3_5Error11new_spannedRNtNtB5_4data7VariantReECsfWotccrMQ3I_14thiserror_impl, symObjAddr: 0x224, symBinAddr: 0x43E7C, symSize: 0xC4 }
  - { offset: 0xF6C02, size: 0x8, addend: 0x0, symName: __RINvMNtCsc29TF2YcYso_3syn5errorNtB3_5Error11new_spannedRNtNtB5_6derive11DeriveInputReECsfWotccrMQ3I_14thiserror_impl, symObjAddr: 0x2E8, symBinAddr: 0x43F40, symSize: 0xC4 }
  - { offset: 0xF6C51, size: 0x8, addend: 0x0, symName: __RINvMNtCsc29TF2YcYso_3syn5errorNtB3_5Error11new_spannedRRNtNtB5_4attr9AttributeReECsfWotccrMQ3I_14thiserror_impl, symObjAddr: 0x3AC, symBinAddr: 0x44004, symSize: 0xC4 }
  - { offset: 0xF6D28, size: 0x8, addend: 0x0, symName: __RINvMs3_NtNtCs7yrEGia95Wz_10proc_macro6bridge6bufferNtB6_6Buffer17extend_from_arrayKj4_ECsfWotccrMQ3I_14thiserror_impl, symObjAddr: 0x470, symBinAddr: 0x440C8, symSize: 0x16C }
  - { offset: 0xF6EB0, size: 0x8, addend: 0x0, symName: __RINvMs3_NtNtCs7yrEGia95Wz_10proc_macro6bridge6bufferNtB6_6Buffer17extend_from_arrayKj8_ECsfWotccrMQ3I_14thiserror_impl, symObjAddr: 0x5DC, symBinAddr: 0x44234, symSize: 0x16C }
  - { offset: 0xF75FA, size: 0x8, addend: 0x0, symName: __RNvMs3_NtNtCs7yrEGia95Wz_10proc_macro6bridge6bufferNtB5_6Buffer17extend_from_sliceCsfWotccrMQ3I_14thiserror_impl, symObjAddr: 0x3210, symBinAddr: 0x46DCC, symSize: 0x164 }
  - { offset: 0xF7778, size: 0x8, addend: 0x0, symName: __RNvMs3_NtNtCs7yrEGia95Wz_10proc_macro6bridge6bufferNtB5_6Buffer4pushCsfWotccrMQ3I_14thiserror_impl, symObjAddr: 0x3374, symBinAddr: 0x46F30, symSize: 0x134 }
  - { offset: 0xF7D93, size: 0x8, addend: 0x0, symName: __RNvYINtNtNtNtCsaNl6UpbT7bw_4core4iter8adapters3map3MapINtNtB7_8peekable8PeekableIB3_INtNtNtBb_5slice4iter4IterNtNtCsfWotccrMQ3I_14thiserror_impl3ast5FieldENCNvNtB1O_6expand10fields_pat0EENCB2v_s_0ENtNtNtCs4EAaWzSXu1l_5quote9___private3ext14RepIteratorExt15quote_into_iterB1O_, symObjAddr: 0x3F54, symBinAddr: 0x47B10, symSize: 0x24 }
  - { offset: 0xF7DC8, size: 0x8, addend: 0x0, symName: __RNvYINtNtNtNtCsaNl6UpbT7bw_4core4iter8adapters3map3MapINtNtNtBb_5slice4iter4IterNtNtCsfWotccrMQ3I_14thiserror_impl3ast5FieldENCNCNvNtB1k_6expand9impl_enums1_00ENtNtNtCs4EAaWzSXu1l_5quote9___private3ext14RepIteratorExt15quote_into_iterB1k_, symObjAddr: 0x3F78, symBinAddr: 0x47B34, symSize: 0x2C }
  - { offset: 0xF7DFD, size: 0x8, addend: 0x0, symName: __RNvYINtNtNtNtCsaNl6UpbT7bw_4core4iter8adapters3map3MapINtNtNtBb_5slice4iter4IterNtNtCsfWotccrMQ3I_14thiserror_impl3ast7VariantENCNvNtB1k_6expand9impl_enum0ENtNtNtCs4EAaWzSXu1l_5quote9___private3ext14RepIteratorExt15quote_into_iterB1k_, symObjAddr: 0x3FE0, symBinAddr: 0x47B9C, symSize: 0x24 }
  - { offset: 0xF7E32, size: 0x8, addend: 0x0, symName: __RNvYINtNtNtNtCsaNl6UpbT7bw_4core4iter8adapters3map3MapINtNtNtBb_5slice4iter4IterNtNtCsfWotccrMQ3I_14thiserror_impl3ast7VariantENCNvNtB1k_6expand9impl_enums_0ENtNtNtCs4EAaWzSXu1l_5quote9___private3ext14RepIteratorExt15quote_into_iterB1k_, symObjAddr: 0x4004, symBinAddr: 0x47BC0, symSize: 0x24 }
  - { offset: 0xF7E67, size: 0x8, addend: 0x0, symName: __RNvYINtNtNtNtCsaNl6UpbT7bw_4core4iter8adapters3map3MapINtNtNtBb_5slice4iter4IterTNtCshnvkK9b4wzu_11proc_macro25IdentNtB1j_11TokenStreamEENCNvXNtCsfWotccrMQ3I_14thiserror_impl4attrNtB2g_7DisplayNtNtCs4EAaWzSXu1l_5quote9to_tokens8ToTokens9to_tokens0ENtNtNtB39_9___private3ext14RepIteratorExt15quote_into_iterB2i_, symObjAddr: 0x4028, symBinAddr: 0x47BE4, symSize: 0x2C }
  - { offset: 0xF7E9C, size: 0x8, addend: 0x0, symName: __RNvYINtNtNtNtCsaNl6UpbT7bw_4core4iter8adapters3map3MapINtNtNtBb_5slice4iter4IterTNtCshnvkK9b4wzu_11proc_macro25IdentNtB1j_11TokenStreamEENCNvXNtCsfWotccrMQ3I_14thiserror_impl4attrNtB2g_7DisplayNtNtCs4EAaWzSXu1l_5quote9to_tokens8ToTokens9to_tokenss_0ENtNtNtB39_9___private3ext14RepIteratorExt15quote_into_iterB2i_, symObjAddr: 0x4054, symBinAddr: 0x47C10, symSize: 0x2C }
  - { offset: 0xF7FD2, size: 0x8, addend: 0x0, symName: __RNvMNtCsfWotccrMQ3I_14thiserror_impl3astNtB2_5Input8from_syn, symObjAddr: 0x4764, symBinAddr: 0x48320, symSize: 0x130 }
  - { offset: 0xF803B, size: 0x8, addend: 0x0, symName: __RNvMs_NtCsfWotccrMQ3I_14thiserror_impl3astNtB4_6Struct8from_syn, symObjAddr: 0x4894, symBinAddr: 0x48450, symSize: 0x3FC }
  - { offset: 0xF817B, size: 0x8, addend: 0x0, symName: __RNvMs0_NtCsfWotccrMQ3I_14thiserror_impl3astNtB5_4Enum8from_syn, symObjAddr: 0x4C90, symBinAddr: 0x4884C, symSize: 0x33C }
  - { offset: 0xF826D, size: 0x8, addend: 0x0, symName: __RNvMs1_NtCsfWotccrMQ3I_14thiserror_impl3astNtB5_7Variant8from_syn, symObjAddr: 0x532C, symBinAddr: 0x48EE8, symSize: 0x2C4 }
  - { offset: 0xF831A, size: 0x8, addend: 0x0, symName: __RNvMs2_NtCsfWotccrMQ3I_14thiserror_impl3astNtB5_5Field17multiple_from_syn, symObjAddr: 0x55F0, symBinAddr: 0x491AC, symSize: 0x6C }
  - { offset: 0xF834A, size: 0x8, addend: 0x0, symName: __RNvMs2_NtCsfWotccrMQ3I_14thiserror_impl3astNtB5_5Field8from_syn, symObjAddr: 0x56B8, symBinAddr: 0x49274, symSize: 0x244 }
  - { offset: 0xF83D9, size: 0x8, addend: 0x0, symName: __RNvMs3_NtCsfWotccrMQ3I_14thiserror_impl3astNtB5_13ContainerKind11from_struct, symObjAddr: 0x58FC, symBinAddr: 0x494B8, symSize: 0x94 }
  - { offset: 0xF83FB, size: 0x8, addend: 0x0, symName: __RNvMs3_NtCsfWotccrMQ3I_14thiserror_impl3astNtB5_13ContainerKind12from_variant, symObjAddr: 0x5990, symBinAddr: 0x4954C, symSize: 0x98 }
  - { offset: 0xF842A, size: 0x8, addend: 0x0, symName: __RNvMNtCsfWotccrMQ3I_14thiserror_impl4propNtNtB4_3ast6Struct10from_field, symObjAddr: 0x5BB8, symBinAddr: 0x49774, symSize: 0x38 }
  - { offset: 0xF844C, size: 0x8, addend: 0x0, symName: __RNvMNtCsfWotccrMQ3I_14thiserror_impl4propNtNtB4_3ast6Struct12source_field, symObjAddr: 0x5BF0, symBinAddr: 0x497AC, symSize: 0x38 }
  - { offset: 0xF846E, size: 0x8, addend: 0x0, symName: __RNvMNtCsfWotccrMQ3I_14thiserror_impl4propNtNtB4_3ast6Struct15backtrace_field, symObjAddr: 0x5C28, symBinAddr: 0x497E4, symSize: 0x38 }
  - { offset: 0xF8490, size: 0x8, addend: 0x0, symName: __RNvMNtCsfWotccrMQ3I_14thiserror_impl4propNtNtB4_3ast6Struct24distinct_backtrace_field, symObjAddr: 0x5C60, symBinAddr: 0x4981C, symSize: 0xA4 }
  - { offset: 0xF84F9, size: 0x8, addend: 0x0, symName: __RNvMs_NtCsfWotccrMQ3I_14thiserror_impl4propNtNtB6_3ast4Enum10has_source, symObjAddr: 0x5D04, symBinAddr: 0x498C0, symSize: 0x4C }
  - { offset: 0xF851B, size: 0x8, addend: 0x0, symName: __RNvMs_NtCsfWotccrMQ3I_14thiserror_impl4propNtNtB6_3ast4Enum13has_backtrace, symObjAddr: 0x5D50, symBinAddr: 0x4990C, symSize: 0x4C }
  - { offset: 0xF853D, size: 0x8, addend: 0x0, symName: __RNvMs_NtCsfWotccrMQ3I_14thiserror_impl4propNtNtB6_3ast4Enum11has_display, symObjAddr: 0x5D9C, symBinAddr: 0x49958, symSize: 0x12C }
  - { offset: 0xF855F, size: 0x8, addend: 0x0, symName: __RNvMs0_NtCsfWotccrMQ3I_14thiserror_impl4propNtNtB7_3ast7Variant10from_field, symObjAddr: 0x5EC8, symBinAddr: 0x49A84, symSize: 0x38 }
  - { offset: 0xF8581, size: 0x8, addend: 0x0, symName: __RNvMs0_NtCsfWotccrMQ3I_14thiserror_impl4propNtNtB7_3ast7Variant12source_field, symObjAddr: 0x5F00, symBinAddr: 0x49ABC, symSize: 0x38 }
  - { offset: 0xF85A3, size: 0x8, addend: 0x0, symName: __RNvMs0_NtCsfWotccrMQ3I_14thiserror_impl4propNtNtB7_3ast7Variant15backtrace_field, symObjAddr: 0x5F38, symBinAddr: 0x49AF4, symSize: 0x38 }
  - { offset: 0xF85C5, size: 0x8, addend: 0x0, symName: __RNvMs0_NtCsfWotccrMQ3I_14thiserror_impl4propNtNtB7_3ast7Variant24distinct_backtrace_field, symObjAddr: 0x5F70, symBinAddr: 0x49B2C, symSize: 0xA4 }
  - { offset: 0xF8621, size: 0x8, addend: 0x0, symName: __RNvMs1_NtCsfWotccrMQ3I_14thiserror_impl4propNtNtB7_3ast5Field12is_backtrace, symObjAddr: 0x6014, symBinAddr: 0x49BD0, symSize: 0x38 }
  - { offset: 0xF8643, size: 0x8, addend: 0x0, symName: __RNvMs1_NtCsfWotccrMQ3I_14thiserror_impl4propNtNtB7_3ast5Field11source_span, symObjAddr: 0x604C, symBinAddr: 0x49C08, symSize: 0xDC }
  - { offset: 0xF86A4, size: 0x8, addend: 0x0, symName: __RNvMNtCsfWotccrMQ3I_14thiserror_impl5validNtNtB4_3ast5Input8validate, symObjAddr: 0x6128, symBinAddr: 0x49CE4, symSize: 0x90 }
  - { offset: 0xF86F8, size: 0x8, addend: 0x0, symName: __RNvMs_NtCsfWotccrMQ3I_14thiserror_impl5validNtNtB6_3ast6Struct8validate, symObjAddr: 0x61B8, symBinAddr: 0x49D74, symSize: 0x3A4 }
  - { offset: 0xF87DF, size: 0x8, addend: 0x0, symName: __RNvMs0_NtCsfWotccrMQ3I_14thiserror_impl5validNtNtB7_3ast4Enum8validate, symObjAddr: 0x655C, symBinAddr: 0x4A118, symSize: 0x27C }
  - { offset: 0xF887D, size: 0x8, addend: 0x0, symName: __RNvMs1_NtCsfWotccrMQ3I_14thiserror_impl5validNtNtB7_3ast7Variant8validate, symObjAddr: 0x67D8, symBinAddr: 0x4A394, symSize: 0x318 }
  - { offset: 0xF8939, size: 0x8, addend: 0x0, symName: __RNvMs2_NtCsfWotccrMQ3I_14thiserror_impl5validNtNtB7_3ast5Field8validate, symObjAddr: 0x6AF0, symBinAddr: 0x4A6AC, symSize: 0x148 }
  - { offset: 0xF9E60, size: 0x8, addend: 0x0, symName: __RINvMs_NtNtCsaNl6UpbT7bw_4core3fmt2rtNtB7_9Arguments6new_v1Kj3_Kj2_ECsfWotccrMQ3I_14thiserror_impl, symObjAddr: 0x0, symBinAddr: 0x4A7F4, symSize: 0x54 }
  - { offset: 0xF9EBC, size: 0x8, addend: 0x0, symName: __RNvXsw_NtCsiTraAjBDcu4_5alloc6stringNtNtCsfWotccrMQ3I_14thiserror_impl5unraw10IdentUnrawNtB5_8ToString9to_stringBC_, symObjAddr: 0x296C, symBinAddr: 0x4D160, symSize: 0x24 }
  - { offset: 0xF9EF3, size: 0x8, addend: 0x0, symName: __RNvXsw_NtCsiTraAjBDcu4_5alloc6stringNtNtCsfWotccrMQ3I_14thiserror_impl5unraw11MemberUnrawNtB5_8ToString9to_stringBC_, symObjAddr: 0x2990, symBinAddr: 0x4D184, symSize: 0x24 }
  - { offset: 0xF9F30, size: 0x8, addend: 0x0, symName: __RNvXsx_NtCsiTraAjBDcu4_5alloc6stringNtNtCsfWotccrMQ3I_14thiserror_impl5unraw10IdentUnrawNtB5_12SpecToString14spec_to_stringBC_, symObjAddr: 0x29B4, symBinAddr: 0x4D1A8, symSize: 0xF4 }
  - { offset: 0xF9FFA, size: 0x8, addend: 0x0, symName: __RNvXsx_NtCsiTraAjBDcu4_5alloc6stringNtNtCsfWotccrMQ3I_14thiserror_impl5unraw11MemberUnrawNtB5_12SpecToString14spec_to_stringBC_, symObjAddr: 0x2AA8, symBinAddr: 0x4D29C, symSize: 0xF4 }
  - { offset: 0xFB70C, size: 0x8, addend: 0x0, symName: __RNCINvMsm_NtNtNtCsiTraAjBDcu4_5alloc11collections5btree8navigateINtNtBa_4node6HandleINtB13_7NodeRefNtNtB13_6marker5DyingNtNtBe_6string6StringNtNtBa_7set_val9SetValZSTNtB1B_4LeafENtB1B_4EdgeE27deallocating_next_uncheckedNtNtBe_5alloc6GlobalE0CsfWotccrMQ3I_14thiserror_impl, symObjAddr: 0x9C8, symBinAddr: 0x4B1BC, symSize: 0x58 }
  - { offset: 0xFB77C, size: 0x8, addend: 0x0, symName: __RNCINvMsm_NtNtNtCsiTraAjBDcu4_5alloc11collections5btree8navigateINtNtBa_4node6HandleINtB13_7NodeRefNtNtB13_6marker5DyingNtNtBe_6string6StringTINtNtBa_3set8BTreeSetB1U_EINtNtCsc29TF2YcYso_3syn10punctuated10PunctuatedNtCshnvkK9b4wzu_11proc_macro211TokenStreamNtNtB2L_5token4PlusEENtB1B_4LeafENtB1B_4EdgeE27deallocating_next_uncheckedNtNtBe_5alloc6GlobalE0CsfWotccrMQ3I_14thiserror_impl, symObjAddr: 0xA20, symBinAddr: 0x4B214, symSize: 0x58 }
  - { offset: 0xFB7EC, size: 0x8, addend: 0x0, symName: __RNCINvMsm_NtNtNtCsiTraAjBDcu4_5alloc11collections5btree8navigateINtNtBa_4node6HandleINtB13_7NodeRefNtNtB13_6marker5DyingNtNtCsfWotccrMQ3I_14thiserror_impl5unraw10IdentUnrawNtNtBa_7set_val9SetValZSTNtB1B_4LeafENtB1B_4EdgeE27deallocating_next_uncheckedNtNtBe_5alloc6GlobalE0B1Y_, symObjAddr: 0xA78, symBinAddr: 0x4B26C, symSize: 0x58 }
  - { offset: 0xFB85C, size: 0x8, addend: 0x0, symName: __RNCINvMsm_NtNtNtCsiTraAjBDcu4_5alloc11collections5btree8navigateINtNtBa_4node6HandleINtB13_7NodeRefNtNtB13_6marker5DyingRNtCshnvkK9b4wzu_11proc_macro25IdentNtNtBa_7set_val9SetValZSTNtB1B_4LeafENtB1B_4EdgeE27deallocating_next_uncheckedNtNtBe_5alloc6GlobalE0CsfWotccrMQ3I_14thiserror_impl, symObjAddr: 0xAD0, symBinAddr: 0x4B2C4, symSize: 0x58 }
  - { offset: 0xFB8CC, size: 0x8, addend: 0x0, symName: __RNCINvMsm_NtNtNtCsiTraAjBDcu4_5alloc11collections5btree8navigateINtNtBa_4node6HandleINtB13_7NodeRefNtNtB13_6marker5DyingTjNtNtCsfWotccrMQ3I_14thiserror_impl4attr5TraitENtNtBa_7set_val9SetValZSTNtB1B_4LeafENtB1B_4EdgeE27deallocating_next_uncheckedNtNtBe_5alloc6GlobalE0B20_, symObjAddr: 0xB28, symBinAddr: 0x4B31C, symSize: 0x58 }
  - { offset: 0xFD213, size: 0x8, addend: 0x0, symName: __RINvXsd_NtNtNtCsiTraAjBDcu4_5alloc11collections5btree3setINtB6_8BTreeSetRNtCshnvkK9b4wzu_11proc_macro25IdentEINtNtNtNtCsaNl6UpbT7bw_4core4iter6traits7collect12FromIteratorB18_E9from_iterINtNtNtB1Q_8adapters3map3MapNtNtCsc29TF2YcYso_3syn8generics10TypeParamsNCNvMNtCsfWotccrMQ3I_14thiserror_impl8genericsNtB4c_13ParamsInScope3new0EEB4e_, symObjAddr: 0x83C, symBinAddr: 0x4B030, symSize: 0x16C }
  - { offset: 0xFD3BD, size: 0x8, addend: 0x0, symName: __RNCINvMse_NtNtNtCsiTraAjBDcu4_5alloc11collections5btree3setINtB8_8BTreeSetRNtCshnvkK9b4wzu_11proc_macro25IdentE16from_sorted_iterINtNtNtBe_3vec9into_iter8IntoIterB1a_EE0CsfWotccrMQ3I_14thiserror_impl, symObjAddr: 0x9A8, symBinAddr: 0x4B19C, symSize: 0x20 }
  - { offset: 0xFD48D, size: 0x8, addend: 0x0, symName: __RNvXs3_NtNtNtCsiTraAjBDcu4_5alloc11collections5btree3setINtB5_8BTreeSetTjNtNtCsfWotccrMQ3I_14thiserror_impl4attr5TraitEENtNtCsaNl6UpbT7bw_4core5clone5Clone10clone_fromB1d_, symObjAddr: 0x23CC, symBinAddr: 0x4CBC0, symSize: 0x2C }
  - { offset: 0xFD4D5, size: 0x8, addend: 0x0, symName: __RNvXs3_NtNtNtCsiTraAjBDcu4_5alloc11collections5btree3setINtB5_8BTreeSetTjNtNtCsfWotccrMQ3I_14thiserror_impl4attr5TraitEENtNtCsaNl6UpbT7bw_4core5clone5Clone5cloneB1d_, symObjAddr: 0x23F8, symBinAddr: 0x4CBEC, symSize: 0x40 }
  - { offset: 0xFD519, size: 0x8, addend: 0x0, symName: __RNvXsg_NtNtNtCsiTraAjBDcu4_5alloc11collections5btree3setINtB5_8BTreeSetTjNtNtCsfWotccrMQ3I_14thiserror_impl4attr5TraitEENtNtNtNtCsaNl6UpbT7bw_4core4iter6traits7collect12IntoIterator9into_iterB1d_, symObjAddr: 0x28D8, symBinAddr: 0x4D0CC, symSize: 0x54 }
  - { offset: 0xFD560, size: 0x8, addend: 0x0, symName: __RNvXsn_NtNtNtCsiTraAjBDcu4_5alloc11collections5btree3setINtB5_8BTreeSetNtNtBb_6string6StringENtNtCsaNl6UpbT7bw_4core7default7Default7defaultCsfWotccrMQ3I_14thiserror_impl, symObjAddr: 0x292C, symBinAddr: 0x4D120, symSize: 0x40 }
  - { offset: 0xFD5C6, size: 0x8, addend: 0x0, symName: __RNvXsy_NtNtNtCsiTraAjBDcu4_5alloc11collections5btree3setINtB5_8IntoIterTjNtNtCsfWotccrMQ3I_14thiserror_impl4attr5TraitEENtNtNtNtCsaNl6UpbT7bw_4core4iter6traits8iterator8Iterator4nextB1d_, symObjAddr: 0x2B9C, symBinAddr: 0x4D390, symSize: 0x70 }
  - { offset: 0xFE4C8, size: 0x8, addend: 0x0, symName: __RNvXs7_NtNtCsaNl6UpbT7bw_4core3cmp5implsRNtNtCsfWotccrMQ3I_14thiserror_impl5unraw10IdentUnrawINtB7_9PartialEqReE2eqBH_, symObjAddr: 0x2690, symBinAddr: 0x4CE84, symSize: 0x3C }
  - { offset: 0xFE517, size: 0x8, addend: 0x0, symName: __RNvXs7_NtNtCsaNl6UpbT7bw_4core3cmp5implsRNtNtCsfWotccrMQ3I_14thiserror_impl5unraw10IdentUnrawNtB7_9PartialEq2eqBH_, symObjAddr: 0x26CC, symBinAddr: 0x4CEC0, symSize: 0x34 }
  - { offset: 0xFE566, size: 0x8, addend: 0x0, symName: __RNvXs7_NtNtCsaNl6UpbT7bw_4core3cmp5implsRNtNtCsfWotccrMQ3I_14thiserror_impl5unraw11MemberUnrawNtB7_9PartialEq2eqBH_, symObjAddr: 0x2700, symBinAddr: 0x4CEF4, symSize: 0x34 }
  - { offset: 0xFE5BC, size: 0x8, addend: 0x0, symName: __RNvYNtNtCsfWotccrMQ3I_14thiserror_impl5unraw11MemberUnrawNtNtCsaNl6UpbT7bw_4core3cmp9PartialEq2neB6_, symObjAddr: 0x2C28, symBinAddr: 0x4D41C, symSize: 0x30 }
  - { offset: 0x102164, size: 0x8, addend: 0x0, symName: __RINvXs3_NtNtCsaNl6UpbT7bw_4core4hash5implsRNtNtCsfWotccrMQ3I_14thiserror_impl5unraw11MemberUnrawNtB8_4Hash4hashNtNtNtCsht3nMU9UgFu_3std4hash6random13DefaultHasherEBJ_, symObjAddr: 0x7DC, symBinAddr: 0x4AFD0, symSize: 0x30 }
  - { offset: 0x1021AF, size: 0x8, addend: 0x0, symName: __RINvXs3_NtNtCsaNl6UpbT7bw_4core4hash5implsRRNtNtCsfWotccrMQ3I_14thiserror_impl5unraw11MemberUnrawNtB8_4Hash4hashNtNtNtCsht3nMU9UgFu_3std4hash6random13DefaultHasherEBK_, symObjAddr: 0x80C, symBinAddr: 0x4B000, symSize: 0x30 }
  - { offset: 0x1023C4, size: 0x8, addend: 0x0, symName: __RNvXs_NtNtCsaNl6UpbT7bw_4core5slice4iterRSTNtNtCsfWotccrMQ3I_14thiserror_impl9scan_expr5InputNtBH_6ActionENtNtNtNtB8_4iter6traits7collect12IntoIterator9into_iterBJ_, symObjAddr: 0x27F4, symBinAddr: 0x4CFE8, symSize: 0x58 }
  - { offset: 0x102AA1, size: 0x8, addend: 0x0, symName: __RNvXs1_NtNtNtCsaNl6UpbT7bw_4core5array4iter10iter_innerINtB5_15PolymorphicIterAINtNtNtBb_3mem12maybe_uninit11MaybeUninitjEj2_ENtNtNtBb_3ops4drop4Drop4dropCsfWotccrMQ3I_14thiserror_impl, symObjAddr: 0x2394, symBinAddr: 0x4CB88, symSize: 0x38 }
  - { offset: 0x102B21, size: 0x8, addend: 0x0, symName: __RNvMsl_NtCsaNl6UpbT7bw_4core5arrayATNtNtCsfWotccrMQ3I_14thiserror_impl9scan_expr5InputNtBA_6ActionEj1c_8as_sliceBC_, symObjAddr: 0x2130, symBinAddr: 0x4C924, symSize: 0x1C }
  - { offset: 0x102BB6, size: 0x8, addend: 0x0, symName: __RNvXNtCsaNl6UpbT7bw_4core6borrowNtNtCsfWotccrMQ3I_14thiserror_impl5unraw10IdentUnrawINtB2_6BorrowBu_E6borrowBy_, symObjAddr: 0x222C, symBinAddr: 0x4CA20, symSize: 0x14 }
  - { offset: 0x102BEB, size: 0x8, addend: 0x0, symName: __RNvXNtCsaNl6UpbT7bw_4core6borrowRNtNtCsfWotccrMQ3I_14thiserror_impl5unraw11MemberUnrawINtB2_6BorrowBu_E6borrowBz_, symObjAddr: 0x2240, symBinAddr: 0x4CA34, symSize: 0x14 }
  - { offset: 0x102C26, size: 0x8, addend: 0x0, symName: __RNvXs0_NtCsaNl6UpbT7bw_4core6borrowRNtNtCsfWotccrMQ3I_14thiserror_impl5unraw11MemberUnrawINtB5_6BorrowBy_E6borrowBC_, symObjAddr: 0x2254, symBinAddr: 0x4CA48, symSize: 0x18 }
  - { offset: 0x102C67, size: 0x8, addend: 0x0, symName: __RNvXsf_NtCsaNl6UpbT7bw_4core5tupleTINtNtNtNtCsiTraAjBDcu4_5alloc11collections5btree3set8BTreeSetNtNtBG_6string6StringEINtNtCsc29TF2YcYso_3syn10punctuated10PunctuatedNtCshnvkK9b4wzu_11proc_macro211TokenStreamNtNtB1X_5token4PlusEENtNtB7_7default7Default7defaultCsfWotccrMQ3I_14thiserror_impl, symObjAddr: 0x284C, symBinAddr: 0x4D040, symSize: 0x8C }
  - { offset: 0x102CFC, size: 0x8, addend: 0x0, symName: __RNvNtCsfWotccrMQ3I_14thiserror_impl9scan_expr4INIT, symObjAddr: 0x5378, symBinAddr: 0x25DB60, symSize: 0x0 }
  - { offset: 0x102F21, size: 0x8, addend: 0x0, symName: __RNvNtCsfWotccrMQ3I_14thiserror_impl9scan_expr7POSTFIX, symObjAddr: 0x58E8, symBinAddr: 0x25E0D0, symSize: 0x0 }
  - { offset: 0x102F3B, size: 0x8, addend: 0x0, symName: __RNvNtCsfWotccrMQ3I_14thiserror_impl9scan_expr5ASYNC, symObjAddr: 0x5AC8, symBinAddr: 0x25E2B0, symSize: 0x0 }
  - { offset: 0x102F55, size: 0x8, addend: 0x0, symName: __RNvNtCsfWotccrMQ3I_14thiserror_impl9scan_expr5BLOCK, symObjAddr: 0x5B58, symBinAddr: 0x25E340, symSize: 0x0 }
  - { offset: 0x102F6F, size: 0x8, addend: 0x0, symName: __RNvNtCsfWotccrMQ3I_14thiserror_impl9scan_expr11BREAK_LABEL, symObjAddr: 0x5B88, symBinAddr: 0x25E370, symSize: 0x0 }
  - { offset: 0x102F89, size: 0x8, addend: 0x0, symName: __RNvNtCsfWotccrMQ3I_14thiserror_impl9scan_expr11BREAK_VALUE, symObjAddr: 0x5BE8, symBinAddr: 0x25E3D0, symSize: 0x0 }
  - { offset: 0x102FA3, size: 0x8, addend: 0x0, symName: __RNvNtCsfWotccrMQ3I_14thiserror_impl9scan_expr7CLOSURE, symObjAddr: 0x5C78, symBinAddr: 0x25E460, symSize: 0x0 }
  - { offset: 0x102FBD, size: 0x8, addend: 0x0, symName: __RNvNtCsfWotccrMQ3I_14thiserror_impl9scan_expr12CLOSURE_ARGS, symObjAddr: 0x5D98, symBinAddr: 0x25E580, symSize: 0x0 }
  - { offset: 0x102FD7, size: 0x8, addend: 0x0, symName: __RNvNtCsfWotccrMQ3I_14thiserror_impl9scan_expr11CLOSURE_RET, symObjAddr: 0x5E28, symBinAddr: 0x25E610, symSize: 0x0 }
  - { offset: 0x102FF1, size: 0x8, addend: 0x0, symName: __RNvNtCsfWotccrMQ3I_14thiserror_impl9scan_expr5CONST, symObjAddr: 0x5E88, symBinAddr: 0x25E670, symSize: 0x0 }
  - { offset: 0x10300B, size: 0x8, addend: 0x0, symName: __RNvNtCsfWotccrMQ3I_14thiserror_impl9scan_expr8CONTINUE, symObjAddr: 0x5EE8, symBinAddr: 0x25E6D0, symSize: 0x0 }
  - { offset: 0x103025, size: 0x8, addend: 0x0, symName: __RNvNtCsfWotccrMQ3I_14thiserror_impl9scan_expr3DOT, symObjAddr: 0x5F48, symBinAddr: 0x25E730, symSize: 0x0 }
  - { offset: 0x10303F, size: 0x8, addend: 0x0, symName: __RNvNtCsfWotccrMQ3I_14thiserror_impl9scan_expr3FOR, symObjAddr: 0x5FD8, symBinAddr: 0x25E7C0, symSize: 0x0 }
  - { offset: 0x103059, size: 0x8, addend: 0x0, symName: __RNvNtCsfWotccrMQ3I_14thiserror_impl9scan_expr7IF_ELSE, symObjAddr: 0x6038, symBinAddr: 0x25E820, symSize: 0x0 }
  - { offset: 0x103073, size: 0x8, addend: 0x0, symName: __RNvNtCsfWotccrMQ3I_14thiserror_impl9scan_expr7IF_THEN, symObjAddr: 0x6098, symBinAddr: 0x25E880, symSize: 0x0 }
  - { offset: 0x10308D, size: 0x8, addend: 0x0, symName: __RNvNtCsfWotccrMQ3I_14thiserror_impl9scan_expr6METHOD, symObjAddr: 0x60F8, symBinAddr: 0x25E8E0, symSize: 0x0 }
  - { offset: 0x1030A7, size: 0x8, addend: 0x0, symName: __RNvNtCsfWotccrMQ3I_14thiserror_impl9scan_expr4PATH, symObjAddr: 0x6128, symBinAddr: 0x25E910, symSize: 0x0 }
  - { offset: 0x1030C1, size: 0x8, addend: 0x0, symName: __RNvNtCsfWotccrMQ3I_14thiserror_impl9scan_expr7PATTERN, symObjAddr: 0x61E8, symBinAddr: 0x25E9D0, symSize: 0x0 }
  - { offset: 0x1030DB, size: 0x8, addend: 0x0, symName: __RNvNtCsfWotccrMQ3I_14thiserror_impl9scan_expr5RANGE, symObjAddr: 0x64B8, symBinAddr: 0x25ECA0, symSize: 0x0 }
  - { offset: 0x1030F5, size: 0x8, addend: 0x0, symName: __RNvNtCsfWotccrMQ3I_14thiserror_impl9scan_expr3RAW, symObjAddr: 0x65D8, symBinAddr: 0x25EDC0, symSize: 0x0 }
  - { offset: 0x10310F, size: 0x8, addend: 0x0, symName: __RNvNtCsfWotccrMQ3I_14thiserror_impl9scan_expr9REFERENCE, symObjAddr: 0x6668, symBinAddr: 0x25EE50, symSize: 0x0 }
  - { offset: 0x103129, size: 0x8, addend: 0x0, symName: __RNvNtCsfWotccrMQ3I_14thiserror_impl9scan_expr6RETURN, symObjAddr: 0x66F8, symBinAddr: 0x25EEE0, symSize: 0x0 }
  - { offset: 0x103136, size: 0x8, addend: 0x0, symName: __RNvNtCsfWotccrMQ3I_14thiserror_impl9scan_expr9scan_expr, symObjAddr: 0x2C58, symBinAddr: 0x4D44C, symSize: 0xD78 }
  - { offset: 0x10349A, size: 0x8, addend: 0x0, symName: __RNCNvNtCsfWotccrMQ3I_14thiserror_impl9scan_expr9scan_expr0B5_, symObjAddr: 0x39D0, symBinAddr: 0x4E1C4, symSize: 0x1E8 }
  - { offset: 0x103522, size: 0x8, addend: 0x0, symName: __RNCNvNtCsfWotccrMQ3I_14thiserror_impl9scan_expr9scan_exprs_0B5_, symObjAddr: 0x3BB8, symBinAddr: 0x4E3AC, symSize: 0x2C8 }
  - { offset: 0x103640, size: 0x8, addend: 0x0, symName: __RNCNvNtCsfWotccrMQ3I_14thiserror_impl9scan_expr9scan_exprs0_0B5_, symObjAddr: 0x3E80, symBinAddr: 0x4E674, symSize: 0x108 }
  - { offset: 0x1036B3, size: 0x8, addend: 0x0, symName: __RNCNvNtCsfWotccrMQ3I_14thiserror_impl9scan_expr9scan_exprs1_0B5_, symObjAddr: 0x3F88, symBinAddr: 0x4E77C, symSize: 0x10C }
  - { offset: 0x10385C, size: 0x8, addend: 0x0, symName: __RNvXs_NtCsfWotccrMQ3I_14thiserror_impl5unrawNtB4_10IdentUnrawNtNtCsaNl6UpbT7bw_4core3fmt7Display3fmt, symObjAddr: 0x4420, symBinAddr: 0x4EC14, symSize: 0x8C }
  - { offset: 0x10389C, size: 0x8, addend: 0x0, symName: __RNvXs1_NtCsfWotccrMQ3I_14thiserror_impl5unrawNtB5_10IdentUnrawNtNtCsaNl6UpbT7bw_4core3cmp9PartialEq2eq, symObjAddr: 0x44AC, symBinAddr: 0x4ECA0, symSize: 0xC0 }
  - { offset: 0x1038DC, size: 0x8, addend: 0x0, symName: __RNvXs2_NtCsfWotccrMQ3I_14thiserror_impl5unrawNtB5_10IdentUnrawINtNtCsaNl6UpbT7bw_4core3cmp9PartialEqeE2eq, symObjAddr: 0x456C, symBinAddr: 0x4ED60, symSize: 0x44 }
  - { offset: 0x10391C, size: 0x8, addend: 0x0, symName: __RNvXs3_NtCsfWotccrMQ3I_14thiserror_impl5unrawNtB5_10IdentUnrawNtNtCsaNl6UpbT7bw_4core3cmp3Ord3cmp, symObjAddr: 0x45B0, symBinAddr: 0x4EDA4, symSize: 0xC0 }
  - { offset: 0x10395C, size: 0x8, addend: 0x0, symName: __RNvXs5_NtCsfWotccrMQ3I_14thiserror_impl5unrawNtB5_10IdentUnrawNtNtCsc29TF2YcYso_3syn5parse5Parse5parse, symObjAddr: 0x4670, symBinAddr: 0x4EE64, symSize: 0x54 }
  - { offset: 0x10398E, size: 0x8, addend: 0x0, symName: __RNvXs8_NtCsfWotccrMQ3I_14thiserror_impl5unrawNtB5_11MemberUnrawNtNtCsaNl6UpbT7bw_4core3fmt7Display3fmt, symObjAddr: 0x4758, symBinAddr: 0x4EF4C, symSize: 0xA8 }
  - { offset: 0x103A00, size: 0x8, addend: 0x0, symName: __RNvXsa_NtCsfWotccrMQ3I_14thiserror_impl5unrawNtB5_11MemberUnrawNtNtCsaNl6UpbT7bw_4core3cmp9PartialEq2eq, symObjAddr: 0x4800, symBinAddr: 0x4EFF4, symSize: 0x114 }
  - { offset: 0x103A98, size: 0x8, addend: 0x0, symName: __RNvXsb_NtCsfWotccrMQ3I_14thiserror_impl5unrawNtB5_11MemberUnrawINtNtCsaNl6UpbT7bw_4core3cmp9PartialEqeE2eq, symObjAddr: 0x4914, symBinAddr: 0x4F108, symSize: 0x94 }
  - { offset: 0x103AF5, size: 0x8, addend: 0x0, symName: __RINvXsc_NtCsfWotccrMQ3I_14thiserror_impl5unrawNtB6_11MemberUnrawNtNtCsaNl6UpbT7bw_4core4hash4Hash4hashNtNtNtCsht3nMU9UgFu_3std4hash6random13DefaultHasherEB8_, symObjAddr: 0x49A8, symBinAddr: 0x4F19C, symSize: 0xDC }
  - { offset: 0x103B6C, size: 0x8, addend: 0x0, symName: __RNvXsd_NtCsfWotccrMQ3I_14thiserror_impl5unrawNtB5_11MemberUnrawNtNtCs4EAaWzSXu1l_5quote9to_tokens8ToTokens9to_tokens, symObjAddr: 0x4A84, symBinAddr: 0x4F278, symSize: 0xDC }
  - { offset: 0x103BDA, size: 0x8, addend: 0x0, symName: __RNvXse_NtCsfWotccrMQ3I_14thiserror_impl5unrawNtB5_10IdentUnrawNtNtCsaNl6UpbT7bw_4core5clone5Clone5cloneB7_, symObjAddr: 0x4B60, symBinAddr: 0x4F354, symSize: 0x40 }
  - { offset: 0x104013, size: 0x8, addend: 0x0, symName: __RNvXs1J_NtCs7yrEGia95Wz_10proc_macro6bridgeINtB6_11ExpnGlobalsNtNtB6_6client4SpanEINtNtB6_3rpc9DecodeMutuE6decodeCsfWotccrMQ3I_14thiserror_impl, symObjAddr: 0x22E4, symBinAddr: 0x4CAD8, symSize: 0xB0 }
  - { offset: 0x10406A, size: 0x8, addend: 0x0, symName: __RNvXs9_NtNtCs7yrEGia95Wz_10proc_macro6bridge3rpcTINtB7_11ExpnGlobalsNtNtB7_6client4SpanENtB16_11TokenStreamEINtB5_9DecodeMutuE6decodeCsfWotccrMQ3I_14thiserror_impl, symObjAddr: 0x2734, symBinAddr: 0x4CF28, symSize: 0x84 }
  - { offset: 0x10485E, size: 0x8, addend: 0x0, symName: __RINvMs_NtNtCsaNl6UpbT7bw_4core3fmt2rtNtB7_9Arguments6new_v1Kj3_Kj2_ECsfWotccrMQ3I_14thiserror_impl, symObjAddr: 0x0, symBinAddr: 0x4A7F4, symSize: 0x54 }
  - { offset: 0x104918, size: 0x8, addend: 0x0, symName: __RINvMsb_NtNtNtCsiTraAjBDcu4_5alloc11collections5btree8navigateINtB6_13LazyLeafRangeNtNtNtB8_4node6marker5DyingNtNtBc_6string6StringNtNtB8_7set_val9SetValZSTE16deallocating_endNtNtBc_5alloc6GlobalECsfWotccrMQ3I_14thiserror_impl, symObjAddr: 0x54, symBinAddr: 0x4A848, symSize: 0x98 }
  - { offset: 0x104A15, size: 0x8, addend: 0x0, symName: __RINvMsb_NtNtNtCsiTraAjBDcu4_5alloc11collections5btree8navigateINtB6_13LazyLeafRangeNtNtNtB8_4node6marker5DyingNtNtBc_6string6StringNtNtB8_7set_val9SetValZSTE27deallocating_next_uncheckedNtNtBc_5alloc6GlobalECsfWotccrMQ3I_14thiserror_impl, symObjAddr: 0xEC, symBinAddr: 0x4A8E0, symSize: 0xA8 }
  - { offset: 0x10988A, size: 0x8, addend: 0x0, symName: __RNvXs0_NtCsc29TF2YcYso_3syn5dropsINtB5_6NoDropDINtNtB7_10punctuated9IterTraitNtNtB7_4data7VariantEp4ItemRB1d_EL_ENtNtNtCsaNl6UpbT7bw_4core3ops5deref8DerefMut9deref_mutCsfWotccrMQ3I_14thiserror_impl, symObjAddr: 0x226C, symBinAddr: 0x4CA60, symSize: 0x3C }
  - { offset: 0x1098BF, size: 0x8, addend: 0x0, symName: __RNvXs0_NtCsc29TF2YcYso_3syn5dropsINtB5_6NoDropDINtNtB7_10punctuated9IterTraitNtNtB7_4path15GenericArgumentEp4ItemRB1d_EL_ENtNtNtCsaNl6UpbT7bw_4core3ops5deref8DerefMut9deref_mutCsfWotccrMQ3I_14thiserror_impl, symObjAddr: 0x22A8, symBinAddr: 0x4CA9C, symSize: 0x3C }
  - { offset: 0x1098FA, size: 0x8, addend: 0x0, symName: __RNvXs_NtCsc29TF2YcYso_3syn5dropsINtB4_6NoDropDINtNtB6_10punctuated9IterTraitNtNtB6_4data7VariantEp4ItemRB1c_EL_ENtNtNtCsaNl6UpbT7bw_4core3ops5deref5Deref5derefCsfWotccrMQ3I_14thiserror_impl, symObjAddr: 0x27B8, symBinAddr: 0x4CFAC, symSize: 0x3C }
  - { offset: 0x109CDE, size: 0x8, addend: 0x0, symName: __RINvMsb_NtNtNtCsiTraAjBDcu4_5alloc11collections5btree8navigateINtB6_13LazyLeafRangeNtNtNtB8_4node6marker5DyingNtNtBc_6string6StringTINtNtB8_3set8BTreeSetB1K_EINtNtCsc29TF2YcYso_3syn10punctuated10PunctuatedNtCshnvkK9b4wzu_11proc_macro211TokenStreamNtNtB2B_5token4PlusEEE16deallocating_endNtNtBc_5alloc6GlobalECsfWotccrMQ3I_14thiserror_impl, symObjAddr: 0x194, symBinAddr: 0x4A988, symSize: 0x98 }
  - { offset: 0x109DB0, size: 0x8, addend: 0x0, symName: __RINvMsb_NtNtNtCsiTraAjBDcu4_5alloc11collections5btree8navigateINtB6_13LazyLeafRangeNtNtNtB8_4node6marker5DyingNtNtBc_6string6StringTINtNtB8_3set8BTreeSetB1K_EINtNtCsc29TF2YcYso_3syn10punctuated10PunctuatedNtCshnvkK9b4wzu_11proc_macro211TokenStreamNtNtB2B_5token4PlusEEE27deallocating_next_uncheckedNtNtBc_5alloc6GlobalECsfWotccrMQ3I_14thiserror_impl, symObjAddr: 0x22C, symBinAddr: 0x4AA20, symSize: 0xA8 }
  - { offset: 0x109E93, size: 0x8, addend: 0x0, symName: __RINvMsb_NtNtNtCsiTraAjBDcu4_5alloc11collections5btree8navigateINtB6_13LazyLeafRangeNtNtNtB8_4node6marker5DyingNtNtCsfWotccrMQ3I_14thiserror_impl5unraw10IdentUnrawNtNtB8_7set_val9SetValZSTE16deallocating_endNtNtBc_5alloc6GlobalEB1O_, symObjAddr: 0x2D4, symBinAddr: 0x4AAC8, symSize: 0x98 }
  - { offset: 0x109F65, size: 0x8, addend: 0x0, symName: __RINvMsb_NtNtNtCsiTraAjBDcu4_5alloc11collections5btree8navigateINtB6_13LazyLeafRangeNtNtNtB8_4node6marker5DyingNtNtCsfWotccrMQ3I_14thiserror_impl5unraw10IdentUnrawNtNtB8_7set_val9SetValZSTE27deallocating_next_uncheckedNtNtBc_5alloc6GlobalEB1O_, symObjAddr: 0x36C, symBinAddr: 0x4AB60, symSize: 0xA8 }
  - { offset: 0x10A055, size: 0x8, addend: 0x0, symName: __RINvMsb_NtNtNtCsiTraAjBDcu4_5alloc11collections5btree8navigateINtB6_13LazyLeafRangeNtNtNtB8_4node6marker5DyingRNtCshnvkK9b4wzu_11proc_macro25IdentNtNtB8_7set_val9SetValZSTE16deallocating_endNtNtBc_5alloc6GlobalECsfWotccrMQ3I_14thiserror_impl, symObjAddr: 0x414, symBinAddr: 0x4AC08, symSize: 0x98 }
  - { offset: 0x10A127, size: 0x8, addend: 0x0, symName: __RINvMsb_NtNtNtCsiTraAjBDcu4_5alloc11collections5btree8navigateINtB6_13LazyLeafRangeNtNtNtB8_4node6marker5DyingRNtCshnvkK9b4wzu_11proc_macro25IdentNtNtB8_7set_val9SetValZSTE27deallocating_next_uncheckedNtNtBc_5alloc6GlobalECsfWotccrMQ3I_14thiserror_impl, symObjAddr: 0x4AC, symBinAddr: 0x4ACA0, symSize: 0xA8 }
  - { offset: 0x10A228, size: 0x8, addend: 0x0, symName: __RINvMsb_NtNtNtCsiTraAjBDcu4_5alloc11collections5btree8navigateINtB6_13LazyLeafRangeNtNtNtB8_4node6marker5DyingTjNtNtCsfWotccrMQ3I_14thiserror_impl4attr5TraitENtNtB8_7set_val9SetValZSTE16deallocating_endNtNtBc_5alloc6GlobalEB1Q_, symObjAddr: 0x554, symBinAddr: 0x4AD48, symSize: 0x98 }
  - { offset: 0x10A2FA, size: 0x8, addend: 0x0, symName: __RINvMsb_NtNtNtCsiTraAjBDcu4_5alloc11collections5btree8navigateINtB6_13LazyLeafRangeNtNtNtB8_4node6marker5DyingTjNtNtCsfWotccrMQ3I_14thiserror_impl4attr5TraitENtNtB8_7set_val9SetValZSTE27deallocating_next_uncheckedNtNtBc_5alloc6GlobalEB1Q_, symObjAddr: 0x5EC, symBinAddr: 0x4ADE0, symSize: 0xA8 }
  - { offset: 0x10A467, size: 0x8, addend: 0x0, symName: __RINvMsc_NtNtNtCsiTraAjBDcu4_5alloc11collections5btree3setINtB6_8BTreeSetNtNtCsfWotccrMQ3I_14thiserror_impl5unraw10IdentUnrawE8containsB18_EB1c_, symObjAddr: 0x694, symBinAddr: 0x4AE88, symSize: 0x54 }
  - { offset: 0x10A59C, size: 0x8, addend: 0x0, symName: __RINvMsc_NtNtNtCsiTraAjBDcu4_5alloc11collections5btree3setINtB6_8BTreeSetRNtCshnvkK9b4wzu_11proc_macro25IdentE8containsB19_ECsfWotccrMQ3I_14thiserror_impl, symObjAddr: 0x6E8, symBinAddr: 0x4AEDC, symSize: 0x54 }
  - { offset: 0x10A63A, size: 0x8, addend: 0x0, symName: __RINvMse_NtNtNtCsiTraAjBDcu4_5alloc11collections5btree3setINtB6_8BTreeSetRNtCshnvkK9b4wzu_11proc_macro25IdentE16from_sorted_iterINtNtNtBc_3vec9into_iter8IntoIterB18_EECsfWotccrMQ3I_14thiserror_impl, symObjAddr: 0x73C, symBinAddr: 0x4AF30, symSize: 0x80 }
  - { offset: 0x10A6CE, size: 0x8, addend: 0x0, symName: __RINvNtCs4EAaWzSXu1l_5quote9___private8get_spanNtCshnvkK9b4wzu_11proc_macro24SpanECsfWotccrMQ3I_14thiserror_impl, symObjAddr: 0x7BC, symBinAddr: 0x4AFB0, symSize: 0x20 }
  - { offset: 0x10A7BF, size: 0x8, addend: 0x0, symName: __RNvXs5_NtCs4EAaWzSXu1l_5quote9___privateINtB5_9RepInterpNtCshnvkK9b4wzu_11proc_macro211TokenStreamENtNtB7_9to_tokens8ToTokens9to_tokensCsfWotccrMQ3I_14thiserror_impl, symObjAddr: 0x2438, symBinAddr: 0x4CC2C, symSize: 0x3C }
  - { offset: 0x10A7FE, size: 0x8, addend: 0x0, symName: __RNvXs5_NtCs4EAaWzSXu1l_5quote9___privateINtB5_9RepInterpNtCshnvkK9b4wzu_11proc_macro25IdentENtNtB7_9to_tokens8ToTokens9to_tokensCsfWotccrMQ3I_14thiserror_impl, symObjAddr: 0x2474, symBinAddr: 0x4CC68, symSize: 0x3C }
  - { offset: 0x10A83D, size: 0x8, addend: 0x0, symName: __RNvXs5_NtCs4EAaWzSXu1l_5quote9___privateINtB5_9RepInterpRNtCshnvkK9b4wzu_11proc_macro211TokenStreamENtNtB7_9to_tokens8ToTokens9to_tokensCsfWotccrMQ3I_14thiserror_impl, symObjAddr: 0x24B0, symBinAddr: 0x4CCA4, symSize: 0x3C }
  - { offset: 0x10A87C, size: 0x8, addend: 0x0, symName: __RNvXs5_NtCs4EAaWzSXu1l_5quote9___privateINtB5_9RepInterpRNtCshnvkK9b4wzu_11proc_macro25IdentENtNtB7_9to_tokens8ToTokens9to_tokensCsfWotccrMQ3I_14thiserror_impl, symObjAddr: 0x24EC, symBinAddr: 0x4CCE0, symSize: 0x3C }
  - { offset: 0x10A8BB, size: 0x8, addend: 0x0, symName: __RNvXs5_NtCs4EAaWzSXu1l_5quote9___privateINtB5_9RepInterpRNtNtCsfWotccrMQ3I_14thiserror_impl5unraw11MemberUnrawENtNtB7_9to_tokens8ToTokens9to_tokensBX_, symObjAddr: 0x2528, symBinAddr: 0x4CD1C, symSize: 0x3C }
  - { offset: 0x10A900, size: 0x8, addend: 0x0, symName: __RNvXs7_NtCs4EAaWzSXu1l_5quote9___privateINtB5_20IdentFragmentAdapterRNtNtCsc29TF2YcYso_3syn4expr5IndexENtNtCsaNl6UpbT7bw_4core3fmt7Display3fmtCsfWotccrMQ3I_14thiserror_impl, symObjAddr: 0x2564, symBinAddr: 0x4CD58, symSize: 0x3C }
  - { offset: 0x10A946, size: 0x8, addend: 0x0, symName: __RNvXs7_NtCs4EAaWzSXu1l_5quote9___privateINtB5_20IdentFragmentAdapterRNtNtCsiTraAjBDcu4_5alloc6string6StringENtNtCsaNl6UpbT7bw_4core3fmt7Display3fmtCsfWotccrMQ3I_14thiserror_impl, symObjAddr: 0x25A0, symBinAddr: 0x4CD94, symSize: 0x3C }
  - { offset: 0x10A98C, size: 0x8, addend: 0x0, symName: __RNvXs7_NtCs4EAaWzSXu1l_5quote9___privateINtB5_20IdentFragmentAdapterRRNtNtCsc29TF2YcYso_3syn4expr5IndexENtNtCsaNl6UpbT7bw_4core3fmt7Display3fmtCsfWotccrMQ3I_14thiserror_impl, symObjAddr: 0x25DC, symBinAddr: 0x4CDD0, symSize: 0x3C }
  - { offset: 0x10A9D2, size: 0x8, addend: 0x0, symName: __RNvXs7_NtCs4EAaWzSXu1l_5quote9___privateINtB5_20IdentFragmentAdapterRReENtNtCsaNl6UpbT7bw_4core3fmt7Display3fmtCsfWotccrMQ3I_14thiserror_impl, symObjAddr: 0x2618, symBinAddr: 0x4CE0C, symSize: 0x3C }
  - { offset: 0x10AA18, size: 0x8, addend: 0x0, symName: __RNvXs7_NtCs4EAaWzSXu1l_5quote9___privateINtB5_20IdentFragmentAdapterRmENtNtCsaNl6UpbT7bw_4core3fmt7Display3fmtCsfWotccrMQ3I_14thiserror_impl, symObjAddr: 0x2654, symBinAddr: 0x4CE48, symSize: 0x3C }
  - { offset: 0x10AA64, size: 0x8, addend: 0x0, symName: __RNvYINtNtCs4EAaWzSXu1l_5quote9___private11HasIteratorKb1_EINtB5_16CheckHasIteratorKBQ_E5checkCsfWotccrMQ3I_14thiserror_impl, symObjAddr: 0x2C0C, symBinAddr: 0x4D400, symSize: 0x1C }
  - { offset: 0x10ABDB, size: 0x8, addend: 0x0, symName: __RNvXNtCs4EAaWzSXu1l_5quote9to_tokensRNtNtCsfWotccrMQ3I_14thiserror_impl5unraw11MemberUnrawNtB2_8ToTokens9to_tokensBD_, symObjAddr: 0x21EC, symBinAddr: 0x4C9E0, symSize: 0x40 }
  - { offset: 0x10B401, size: 0x8, addend: 0x0, symName: __RNvMNtCsc29TF2YcYso_3syn5dropsINtB2_6NoDropINtNtB4_10punctuated11PrivateIterNtNtB4_4data7VariantNtNtB4_5token5CommaEE3newCsfWotccrMQ3I_14thiserror_impl, symObjAddr: 0xB80, symBinAddr: 0x4B374, symSize: 0x40 }
  - { offset: 0x10B48B, size: 0x8, addend: 0x0, symName: __RNvMNtCsc29TF2YcYso_3syn5dropsINtB2_6NoDropINtNtB4_10punctuated11PrivateIterNtNtB4_4path15GenericArgumentNtNtB4_5token5CommaEE3newCsfWotccrMQ3I_14thiserror_impl, symObjAddr: 0xBC0, symBinAddr: 0x4B3B4, symSize: 0x40 }
  - { offset: 0x10B4ED, size: 0x8, addend: 0x0, symName: __RNvMs6_NtCs4EAaWzSXu1l_5quote9___privateINtB5_20IdentFragmentAdapterRNtNtCsiTraAjBDcu4_5alloc6string6StringE4spanCsfWotccrMQ3I_14thiserror_impl, symObjAddr: 0xC00, symBinAddr: 0x4B3F4, symSize: 0x34 }
  - { offset: 0x10B540, size: 0x8, addend: 0x0, symName: __RNvMs6_NtCs4EAaWzSXu1l_5quote9___privateINtB5_20IdentFragmentAdapterRRNtNtCsc29TF2YcYso_3syn4expr5IndexE4spanCsfWotccrMQ3I_14thiserror_impl, symObjAddr: 0xC34, symBinAddr: 0x4B428, symSize: 0x34 }
  - { offset: 0x10B586, size: 0x8, addend: 0x0, symName: __RNvMs6_NtCs4EAaWzSXu1l_5quote9___privateINtB5_20IdentFragmentAdapterRReE4spanCsfWotccrMQ3I_14thiserror_impl, symObjAddr: 0xC68, symBinAddr: 0x4B45C, symSize: 0x34 }
  - { offset: 0x10B702, size: 0x8, addend: 0x0, symName: __RNvMs6_NtNtNtCsaNl6UpbT7bw_4core5array4iter10iter_innerINtB5_15PolymorphicIterSINtNtNtBb_3mem12maybe_uninit11MaybeUninitjEE4nextCsfWotccrMQ3I_14thiserror_impl, symObjAddr: 0xC9C, symBinAddr: 0x4B490, symSize: 0x190 }
  - { offset: 0x10B951, size: 0x8, addend: 0x0, symName: __RNvMsb_NtNtNtCsiTraAjBDcu4_5alloc11collections5btree3setINtB5_8BTreeSetNtNtCsfWotccrMQ3I_14thiserror_impl5unraw10IdentUnrawE3newB1b_, symObjAddr: 0xE2C, symBinAddr: 0x4B620, symSize: 0x40 }
  - { offset: 0x10B9C7, size: 0x8, addend: 0x0, symName: __RNvMsb_NtNtNtCsiTraAjBDcu4_5alloc11collections5btree3setINtB5_8BTreeSetTjNtNtCsfWotccrMQ3I_14thiserror_impl4attr5TraitEE3newB1d_, symObjAddr: 0xE6C, symBinAddr: 0x4B660, symSize: 0x40 }
  - { offset: 0x10BB8F, size: 0x8, addend: 0x0, symName: __RNvMsb_NtNtNtCsiTraAjBDcu4_5alloc11collections5btree8navigateINtB5_13LazyLeafRangeNtNtNtB7_4node6marker5DyingNtNtBb_6string6StringNtNtB7_7set_val9SetValZSTE10take_frontCsfWotccrMQ3I_14thiserror_impl, symObjAddr: 0xEAC, symBinAddr: 0x4B6A0, symSize: 0x1C4 }
  - { offset: 0x10BEFE, size: 0x8, addend: 0x0, symName: __RNvMsb_NtNtNtCsiTraAjBDcu4_5alloc11collections5btree8navigateINtB5_13LazyLeafRangeNtNtNtB7_4node6marker5DyingNtNtBb_6string6StringTINtNtB7_3set8BTreeSetB1J_EINtNtCsc29TF2YcYso_3syn10punctuated10PunctuatedNtCshnvkK9b4wzu_11proc_macro211TokenStreamNtNtB2A_5token4PlusEEE10take_frontCsfWotccrMQ3I_14thiserror_impl, symObjAddr: 0x1070, symBinAddr: 0x4B864, symSize: 0x1C4 }
  - { offset: 0x10C26D, size: 0x8, addend: 0x0, symName: __RNvMsb_NtNtNtCsiTraAjBDcu4_5alloc11collections5btree8navigateINtB5_13LazyLeafRangeNtNtNtB7_4node6marker5DyingNtNtCsfWotccrMQ3I_14thiserror_impl5unraw10IdentUnrawNtNtB7_7set_val9SetValZSTE10take_frontB1N_, symObjAddr: 0x1234, symBinAddr: 0x4BA28, symSize: 0x1C4 }
  - { offset: 0x10C5DC, size: 0x8, addend: 0x0, symName: __RNvMsb_NtNtNtCsiTraAjBDcu4_5alloc11collections5btree8navigateINtB5_13LazyLeafRangeNtNtNtB7_4node6marker5DyingRNtCshnvkK9b4wzu_11proc_macro25IdentNtNtB7_7set_val9SetValZSTE10take_frontCsfWotccrMQ3I_14thiserror_impl, symObjAddr: 0x13F8, symBinAddr: 0x4BBEC, symSize: 0x1C4 }
  - { offset: 0x10C94B, size: 0x8, addend: 0x0, symName: __RNvMsb_NtNtNtCsiTraAjBDcu4_5alloc11collections5btree8navigateINtB5_13LazyLeafRangeNtNtNtB7_4node6marker5DyingTjNtNtCsfWotccrMQ3I_14thiserror_impl4attr5TraitENtNtB7_7set_val9SetValZSTE10take_frontB1P_, symObjAddr: 0x15BC, symBinAddr: 0x4BDB0, symSize: 0x1C4 }
  - { offset: 0x10CB94, size: 0x8, addend: 0x0, symName: __RNvMsc_NtNtNtCsiTraAjBDcu4_5alloc11collections5btree3setINtB5_8BTreeSetNtNtBb_6string6StringE6insertCsfWotccrMQ3I_14thiserror_impl, symObjAddr: 0x1780, symBinAddr: 0x4BF74, symSize: 0x40 }
  - { offset: 0x10CC5A, size: 0x8, addend: 0x0, symName: __RNvMsc_NtNtNtCsiTraAjBDcu4_5alloc11collections5btree3setINtB5_8BTreeSetNtNtCsfWotccrMQ3I_14thiserror_impl5unraw10IdentUnrawE6insertB1b_, symObjAddr: 0x17C0, symBinAddr: 0x4BFB4, symSize: 0x40 }
  - { offset: 0x10CD20, size: 0x8, addend: 0x0, symName: __RNvMsc_NtNtNtCsiTraAjBDcu4_5alloc11collections5btree3setINtB5_8BTreeSetTjNtNtCsfWotccrMQ3I_14thiserror_impl4attr5TraitEE6insertB1d_, symObjAddr: 0x1800, symBinAddr: 0x4BFF4, symSize: 0x48 }
  - { offset: 0x10CEFC, size: 0x8, addend: 0x0, symName: __RNvMsc_NtNtNtCsiTraAjBDcu4_5alloc11collections5btree8navigateINtB5_13LazyLeafRangeNtNtNtB7_4node6marker5DyingNtNtBb_6string6StringNtNtB7_7set_val9SetValZSTE10init_frontCsfWotccrMQ3I_14thiserror_impl, symObjAddr: 0x1848, symBinAddr: 0x4C03C, symSize: 0x1C8 }
  - { offset: 0x10D1DE, size: 0x8, addend: 0x0, symName: __RNvMsc_NtNtNtCsiTraAjBDcu4_5alloc11collections5btree8navigateINtB5_13LazyLeafRangeNtNtNtB7_4node6marker5DyingNtNtBb_6string6StringTINtNtB7_3set8BTreeSetB1J_EINtNtCsc29TF2YcYso_3syn10punctuated10PunctuatedNtCshnvkK9b4wzu_11proc_macro211TokenStreamNtNtB2A_5token4PlusEEE10init_frontCsfWotccrMQ3I_14thiserror_impl, symObjAddr: 0x1A10, symBinAddr: 0x4C204, symSize: 0x1C8 }
  - { offset: 0x10D4C0, size: 0x8, addend: 0x0, symName: __RNvMsc_NtNtNtCsiTraAjBDcu4_5alloc11collections5btree8navigateINtB5_13LazyLeafRangeNtNtNtB7_4node6marker5DyingNtNtCsfWotccrMQ3I_14thiserror_impl5unraw10IdentUnrawNtNtB7_7set_val9SetValZSTE10init_frontB1N_, symObjAddr: 0x1BD8, symBinAddr: 0x4C3CC, symSize: 0x1C8 }
  - { offset: 0x10D7A2, size: 0x8, addend: 0x0, symName: __RNvMsc_NtNtNtCsiTraAjBDcu4_5alloc11collections5btree8navigateINtB5_13LazyLeafRangeNtNtNtB7_4node6marker5DyingRNtCshnvkK9b4wzu_11proc_macro25IdentNtNtB7_7set_val9SetValZSTE10init_frontCsfWotccrMQ3I_14thiserror_impl, symObjAddr: 0x1DA0, symBinAddr: 0x4C594, symSize: 0x1C8 }
  - { offset: 0x10DA84, size: 0x8, addend: 0x0, symName: __RNvMsc_NtNtNtCsiTraAjBDcu4_5alloc11collections5btree8navigateINtB5_13LazyLeafRangeNtNtNtB7_4node6marker5DyingTjNtNtCsfWotccrMQ3I_14thiserror_impl4attr5TraitENtNtB7_7set_val9SetValZSTE10init_frontB1P_, symObjAddr: 0x1F68, symBinAddr: 0x4C75C, symSize: 0x1C8 }
  - { offset: 0x10DC2E, size: 0x8, addend: 0x0, symName: __RNvXCsg4dki62PTrg_9hashbrownNtNtCsfWotccrMQ3I_14thiserror_impl5unraw11MemberUnrawINtB2_10EquivalentRBq_E10equivalentBu_, symObjAddr: 0x214C, symBinAddr: 0x4C940, symSize: 0x50 }
  - { offset: 0x10DC9F, size: 0x8, addend: 0x0, symName: __RNvXCsg4dki62PTrg_9hashbrownRNtNtCsfWotccrMQ3I_14thiserror_impl5unraw11MemberUnrawINtB2_10EquivalentBq_E10equivalentBv_, symObjAddr: 0x219C, symBinAddr: 0x4C990, symSize: 0x50 }
  - { offset: 0x10DEEF, size: 0x8, addend: 0x0, symName: __RNvMNtCsfWotccrMQ3I_14thiserror_impl5unrawNtB2_10IdentUnraw3new, symObjAddr: 0x4094, symBinAddr: 0x4E888, symSize: 0x28 }
  - { offset: 0x10DF11, size: 0x8, addend: 0x0, symName: __RNvMNtCsfWotccrMQ3I_14thiserror_impl5unrawNtB2_10IdentUnraw8to_local, symObjAddr: 0x40BC, symBinAddr: 0x4E8B0, symSize: 0x32C }
  - { offset: 0x10DF6C, size: 0x8, addend: 0x0, symName: __RNvMNtCsfWotccrMQ3I_14thiserror_impl5unrawNtB2_10IdentUnraw8set_span, symObjAddr: 0x43E8, symBinAddr: 0x4EBDC, symSize: 0x38 }
  - { offset: 0x10DF9C, size: 0x8, addend: 0x0, symName: __RNvMs7_NtCsfWotccrMQ3I_14thiserror_impl5unrawNtB5_11MemberUnraw4span, symObjAddr: 0x46C4, symBinAddr: 0x4EEB8, symSize: 0x94 }
  - { offset: 0x10E381, size: 0x8, addend: 0x0, symName: __RINvMs2_NtNtCsht3nMU9UgFu_3std6thread5localINtB6_8LocalKeyINtNtCsaNl6UpbT7bw_4core4cell4CellPuEE4withNCNvMs3_B6_BF_7replace0B1s_ECsfWotccrMQ3I_14thiserror_impl, symObjAddr: 0x0, symBinAddr: 0x4F394, symSize: 0x54 }
  - { offset: 0x10EAAC, size: 0x8, addend: 0x0, symName: __RINvXsa_NtCshnvkK9b4wzu_11proc_macro28fallbackNtB6_11TokenStreamINtNtNtNtCsaNl6UpbT7bw_4core4iter6traits7collect6ExtendNtB8_9TokenTreeE6extendNtB8_11TokenStreamECsfWotccrMQ3I_14thiserror_impl, symObjAddr: 0xFE4, symBinAddr: 0x50378, symSize: 0xC0 }
  - { offset: 0x10EB12, size: 0x8, addend: 0x0, symName: __RNCINvXsa_NtCshnvkK9b4wzu_11proc_macro28fallbackNtB8_11TokenStreamINtNtNtNtCsaNl6UpbT7bw_4core4iter6traits7collect6ExtendNtBa_9TokenTreeE6extendNtBa_11TokenStreamE0CsfWotccrMQ3I_14thiserror_impl, symObjAddr: 0x10A4, symBinAddr: 0x50438, symSize: 0xAC }
  - { offset: 0x10EB5F, size: 0x8, addend: 0x0, symName: __RNvXsA_NtCshnvkK9b4wzu_11proc_macro28fallbackNtB5_5IdentNtNtCsaNl6UpbT7bw_4core5clone5Clone5cloneCsfWotccrMQ3I_14thiserror_impl, symObjAddr: 0x2CC0, symBinAddr: 0x52054, symSize: 0x94 }
  - { offset: 0x10EB93, size: 0x8, addend: 0x0, symName: __RNvXss_NtCshnvkK9b4wzu_11proc_macro28fallbackNtB5_11TokenStreamNtNtCsaNl6UpbT7bw_4core5clone5Clone5cloneCsfWotccrMQ3I_14thiserror_impl, symObjAddr: 0x2E08, symBinAddr: 0x5219C, symSize: 0x24 }
  - { offset: 0x10EBC5, size: 0x8, addend: 0x0, symName: __RNvXsu_NtCshnvkK9b4wzu_11proc_macro28fallbackNtB5_4SpanNtNtCsaNl6UpbT7bw_4core5clone5Clone5cloneCsfWotccrMQ3I_14thiserror_impl, symObjAddr: 0x2E2C, symBinAddr: 0x521C0, symSize: 0x10 }
  - { offset: 0x11231F, size: 0x8, addend: 0x0, symName: __RINvXs9_NtNtCsaNl6UpbT7bw_4core4hash5implsmNtB8_4Hash4hashNtNtNtCsht3nMU9UgFu_3std4hash6random13DefaultHasherECsfWotccrMQ3I_14thiserror_impl, symObjAddr: 0xFAC, symBinAddr: 0x50340, symSize: 0x38 }
  - { offset: 0x11245A, size: 0x8, addend: 0x0, symName: __RNvMNtCsaNl6UpbT7bw_4core3stre16split_at_checkedCsfWotccrMQ3I_14thiserror_impl, symObjAddr: 0x1178, symBinAddr: 0x5050C, symSize: 0x100 }
  - { offset: 0x1124D3, size: 0x8, addend: 0x0, symName: __RNvMNtCsaNl6UpbT7bw_4core3stre3lenCsfWotccrMQ3I_14thiserror_impl, symObjAddr: 0x1278, symBinAddr: 0x5060C, symSize: 0x1C }
  - { offset: 0x1124FF, size: 0x8, addend: 0x0, symName: __RNvMNtCsaNl6UpbT7bw_4core3stre5charsCsfWotccrMQ3I_14thiserror_impl, symObjAddr: 0x1294, symBinAddr: 0x50628, symSize: 0x20 }
  - { offset: 0x11256D, size: 0x8, addend: 0x0, symName: __RNvMNtCsaNl6UpbT7bw_4core3stre8split_atCsfWotccrMQ3I_14thiserror_impl, symObjAddr: 0x12B4, symBinAddr: 0x50648, symSize: 0x84 }
  - { offset: 0x112709, size: 0x8, addend: 0x0, symName: __RNvNvNtCsaNl6UpbT7bw_4core9ub_checks23maybe_is_nonoverlapping7runtimeCsfWotccrMQ3I_14thiserror_impl, symObjAddr: 0x26E8, symBinAddr: 0x51A7C, symSize: 0xD8 }
  - { offset: 0x1128C1, size: 0x8, addend: 0x0, symName: __RNvXs4_NtNtCsaNl6UpbT7bw_4core5array4iterINtB5_8IntoIterjKj2_ENtNtNtB9_3ops4drop4Drop4dropCsfWotccrMQ3I_14thiserror_impl, symObjAddr: 0x2CB0, symBinAddr: 0x52044, symSize: 0x10 }
  - { offset: 0x11294F, size: 0x8, addend: 0x0, symName: __RNvYINtNtNtNtCsiTraAjBDcu4_5alloc11collections5btree3map8BTreeMapTjNtNtCsfWotccrMQ3I_14thiserror_impl4attr5TraitENtNtB7_7set_val9SetValZSTENtNtCsaNl6UpbT7bw_4core5clone5Clone10clone_fromB17_, symObjAddr: 0x398C, symBinAddr: 0x52D20, symSize: 0x84 }
  - { offset: 0x112A4E, size: 0x8, addend: 0x0, symName: __RNCNvMs3_NtNtCsht3nMU9UgFu_3std6thread5localINtB7_8LocalKeyINtNtCsaNl6UpbT7bw_4core4cell4CellPuEE7replace0CsfWotccrMQ3I_14thiserror_impl, symObjAddr: 0x1150, symBinAddr: 0x504E4, symSize: 0x28 }
  - { offset: 0x112C07, size: 0x8, addend: 0x0, symName: __RINvMs2_NtNtCsht3nMU9UgFu_3std6thread5localINtB6_8LocalKeyINtNtCsaNl6UpbT7bw_4core4cell4CellPuEE4withNCNvMs3_B6_BF_7replace0B1s_ECsfWotccrMQ3I_14thiserror_impl, symObjAddr: 0x0, symBinAddr: 0x4F394, symSize: 0x54 }
  - { offset: 0x112CC0, size: 0x8, addend: 0x0, symName: __RINvMs2_NtNtCsht3nMU9UgFu_3std6thread5localINtB6_8LocalKeyINtNtCsaNl6UpbT7bw_4core4cell4CellPuEE8try_withNCNvMs3_B6_BF_7replace0B1s_ECsfWotccrMQ3I_14thiserror_impl, symObjAddr: 0x54, symBinAddr: 0x4F3E8, symSize: 0xE4 }
  - { offset: 0x112E52, size: 0x8, addend: 0x0, symName: __RINvMs2_NtNtCsht3nMU9UgFu_3std6thread5localINtB6_8LocalKeyINtNtCsaNl6UpbT7bw_4core4cell4CellTyyEEE4withNCNvMNtNtBa_4hash6randomNtB1I_11RandomState3new0B21_ECsfWotccrMQ3I_14thiserror_impl, symObjAddr: 0x138, symBinAddr: 0x4F4CC, symSize: 0x50 }
  - { offset: 0x112F0B, size: 0x8, addend: 0x0, symName: __RINvMs2_NtNtCsht3nMU9UgFu_3std6thread5localINtB6_8LocalKeyINtNtCsaNl6UpbT7bw_4core4cell4CellTyyEEE8try_withNCNvMNtNtBa_4hash6randomNtB1M_11RandomState3new0B25_ECsfWotccrMQ3I_14thiserror_impl, symObjAddr: 0x188, symBinAddr: 0x4F51C, symSize: 0xE8 }
  - { offset: 0x1152AD, size: 0x8, addend: 0x0, symName: __RINvNvXs0_NtNtNtCsiTraAjBDcu4_5alloc11collections5btree3mapINtB8_8BTreeMappppENtNtCsaNl6UpbT7bw_4core5clone5Clone5clone13clone_subtreeTjNtNtCsfWotccrMQ3I_14thiserror_impl4attr5TraitENtNtBa_7set_val9SetValZSTNtNtBe_5alloc6GlobalEB2e_, symObjAddr: 0x680, symBinAddr: 0x4FA14, symSize: 0x92C }
  - { offset: 0x115980, size: 0x8, addend: 0x0, symName: __RNvXs0_NtNtNtCsiTraAjBDcu4_5alloc11collections5btree3mapINtB5_8BTreeMapTjNtNtCsfWotccrMQ3I_14thiserror_impl4attr5TraitENtNtB7_7set_val9SetValZSTENtNtCsaNl6UpbT7bw_4core5clone5Clone5cloneB1d_, symObjAddr: 0x2B30, symBinAddr: 0x51EC4, symSize: 0xF4 }
  - { offset: 0x1162EA, size: 0x8, addend: 0x0, symName: __RNvXNtNtNtCsiTraAjBDcu4_5alloc11collections5btree3mapINtB2_8BTreeMapNtNtB8_6string6StringNtNtB4_7set_val9SetValZSTENtNtNtCsaNl6UpbT7bw_4core3ops4drop4Drop4dropCsfWotccrMQ3I_14thiserror_impl, symObjAddr: 0x27C0, symBinAddr: 0x51B54, symSize: 0x4C }
  - { offset: 0x116367, size: 0x8, addend: 0x0, symName: __RNvXNtNtNtCsiTraAjBDcu4_5alloc11collections5btree3mapINtB2_8BTreeMapNtNtB8_6string6StringTINtNtB4_3set8BTreeSetB14_EINtNtCsc29TF2YcYso_3syn10punctuated10PunctuatedNtCshnvkK9b4wzu_11proc_macro211TokenStreamNtNtB1V_5token4PlusEEENtNtNtCsaNl6UpbT7bw_4core3ops4drop4Drop4dropCsfWotccrMQ3I_14thiserror_impl, symObjAddr: 0x280C, symBinAddr: 0x51BA0, symSize: 0x4C }
  - { offset: 0x1163E4, size: 0x8, addend: 0x0, symName: __RNvXNtNtNtCsiTraAjBDcu4_5alloc11collections5btree3mapINtB2_8BTreeMapNtNtCsfWotccrMQ3I_14thiserror_impl5unraw10IdentUnrawNtNtB4_7set_val9SetValZSTENtNtNtCsaNl6UpbT7bw_4core3ops4drop4Drop4dropB18_, symObjAddr: 0x2858, symBinAddr: 0x51BEC, symSize: 0x4C }
  - { offset: 0x116461, size: 0x8, addend: 0x0, symName: __RNvXNtNtNtCsiTraAjBDcu4_5alloc11collections5btree3mapINtB2_8BTreeMapRNtCshnvkK9b4wzu_11proc_macro25IdentNtNtB4_7set_val9SetValZSTENtNtNtCsaNl6UpbT7bw_4core3ops4drop4Drop4dropCsfWotccrMQ3I_14thiserror_impl, symObjAddr: 0x28A4, symBinAddr: 0x51C38, symSize: 0x4C }
  - { offset: 0x1164DE, size: 0x8, addend: 0x0, symName: __RNvXNtNtNtCsiTraAjBDcu4_5alloc11collections5btree3mapINtB2_8BTreeMapTjNtNtCsfWotccrMQ3I_14thiserror_impl4attr5TraitENtNtB4_7set_val9SetValZSTENtNtNtCsaNl6UpbT7bw_4core3ops4drop4Drop4dropB1a_, symObjAddr: 0x28F0, symBinAddr: 0x51C84, symSize: 0x4C }
  - { offset: 0x11656B, size: 0x8, addend: 0x0, symName: __RNvXNvXsw_NtNtNtCsiTraAjBDcu4_5alloc11collections5btree3mapINtB8_8IntoIterpppENtNtNtCsaNl6UpbT7bw_4core3ops4drop4Drop4dropINtB2_9DropGuardNtNtBe_6string6StringNtNtBa_7set_val9SetValZSTNtNtBe_5alloc6GlobalEB1e_4dropCsfWotccrMQ3I_14thiserror_impl, symObjAddr: 0x293C, symBinAddr: 0x51CD0, symSize: 0x64 }
  - { offset: 0x1165CE, size: 0x8, addend: 0x0, symName: __RNvXNvXsw_NtNtNtCsiTraAjBDcu4_5alloc11collections5btree3mapINtB8_8IntoIterpppENtNtNtCsaNl6UpbT7bw_4core3ops4drop4Drop4dropINtB2_9DropGuardNtNtBe_6string6StringTINtNtBa_3set8BTreeSetB2c_EINtNtCsc29TF2YcYso_3syn10punctuated10PunctuatedNtCshnvkK9b4wzu_11proc_macro211TokenStreamNtNtB33_5token4PlusEENtNtBe_5alloc6GlobalEB1e_4dropCsfWotccrMQ3I_14thiserror_impl, symObjAddr: 0x29A0, symBinAddr: 0x51D34, symSize: 0x64 }
  - { offset: 0x116631, size: 0x8, addend: 0x0, symName: __RNvXNvXsw_NtNtNtCsiTraAjBDcu4_5alloc11collections5btree3mapINtB8_8IntoIterpppENtNtNtCsaNl6UpbT7bw_4core3ops4drop4Drop4dropINtB2_9DropGuardNtNtCsfWotccrMQ3I_14thiserror_impl5unraw10IdentUnrawNtNtBa_7set_val9SetValZSTNtNtBe_5alloc6GlobalEB1e_4dropB2g_, symObjAddr: 0x2A04, symBinAddr: 0x51D98, symSize: 0x64 }
  - { offset: 0x116694, size: 0x8, addend: 0x0, symName: __RNvXNvXsw_NtNtNtCsiTraAjBDcu4_5alloc11collections5btree3mapINtB8_8IntoIterpppENtNtNtCsaNl6UpbT7bw_4core3ops4drop4Drop4dropINtB2_9DropGuardRNtCshnvkK9b4wzu_11proc_macro25IdentNtNtBa_7set_val9SetValZSTNtNtBe_5alloc6GlobalEB1e_4dropCsfWotccrMQ3I_14thiserror_impl, symObjAddr: 0x2A68, symBinAddr: 0x51DFC, symSize: 0x64 }
  - { offset: 0x1166F7, size: 0x8, addend: 0x0, symName: __RNvXNvXsw_NtNtNtCsiTraAjBDcu4_5alloc11collections5btree3mapINtB8_8IntoIterpppENtNtNtCsaNl6UpbT7bw_4core3ops4drop4Drop4dropINtB2_9DropGuardTjNtNtCsfWotccrMQ3I_14thiserror_impl4attr5TraitENtNtBa_7set_val9SetValZSTNtNtBe_5alloc6GlobalEB1e_4dropB2i_, symObjAddr: 0x2ACC, symBinAddr: 0x51E60, symSize: 0x64 }
  - { offset: 0x11684C, size: 0x8, addend: 0x0, symName: __RNvXsw_NtNtNtCsiTraAjBDcu4_5alloc11collections5btree3mapINtB5_8IntoIterNtNtBb_6string6StringNtNtB7_7set_val9SetValZSTENtNtNtCsaNl6UpbT7bw_4core3ops4drop4Drop4dropCsfWotccrMQ3I_14thiserror_impl, symObjAddr: 0x360C, symBinAddr: 0x529A0, symSize: 0x9C }
  - { offset: 0x1168BD, size: 0x8, addend: 0x0, symName: __RNvXsw_NtNtNtCsiTraAjBDcu4_5alloc11collections5btree3mapINtB5_8IntoIterNtNtBb_6string6StringTINtNtB7_3set8BTreeSetB17_EINtNtCsc29TF2YcYso_3syn10punctuated10PunctuatedNtCshnvkK9b4wzu_11proc_macro211TokenStreamNtNtB1Y_5token4PlusEEENtNtNtCsaNl6UpbT7bw_4core3ops4drop4Drop4dropCsfWotccrMQ3I_14thiserror_impl, symObjAddr: 0x36A8, symBinAddr: 0x52A3C, symSize: 0x9C }
  - { offset: 0x11692E, size: 0x8, addend: 0x0, symName: __RNvXsw_NtNtNtCsiTraAjBDcu4_5alloc11collections5btree3mapINtB5_8IntoIterNtNtCsfWotccrMQ3I_14thiserror_impl5unraw10IdentUnrawNtNtB7_7set_val9SetValZSTENtNtNtCsaNl6UpbT7bw_4core3ops4drop4Drop4dropB1b_, symObjAddr: 0x3744, symBinAddr: 0x52AD8, symSize: 0x9C }
  - { offset: 0x11699F, size: 0x8, addend: 0x0, symName: __RNvXsw_NtNtNtCsiTraAjBDcu4_5alloc11collections5btree3mapINtB5_8IntoIterRNtCshnvkK9b4wzu_11proc_macro25IdentNtNtB7_7set_val9SetValZSTENtNtNtCsaNl6UpbT7bw_4core3ops4drop4Drop4dropCsfWotccrMQ3I_14thiserror_impl, symObjAddr: 0x37E0, symBinAddr: 0x52B74, symSize: 0x9C }
  - { offset: 0x116A10, size: 0x8, addend: 0x0, symName: __RNvXsw_NtNtNtCsiTraAjBDcu4_5alloc11collections5btree3mapINtB5_8IntoIterTjNtNtCsfWotccrMQ3I_14thiserror_impl4attr5TraitENtNtB7_7set_val9SetValZSTENtNtNtCsaNl6UpbT7bw_4core3ops4drop4Drop4dropB1d_, symObjAddr: 0x387C, symBinAddr: 0x52C10, symSize: 0x9C }
  - { offset: 0x116A87, size: 0x8, addend: 0x0, symName: __RNvXs1q_NtNtNtCsiTraAjBDcu4_5alloc11collections5btree3mapINtB6_8BTreeMapNtNtBc_6string6StringTINtNtB8_3set8BTreeSetB18_EINtNtCsc29TF2YcYso_3syn10punctuated10PunctuatedNtCshnvkK9b4wzu_11proc_macro211TokenStreamNtNtB1Z_5token4PlusEEEINtNtNtCsaNl6UpbT7bw_4core3ops5index5IndexRB18_E5indexCsfWotccrMQ3I_14thiserror_impl, symObjAddr: 0x2C34, symBinAddr: 0x51FC8, symSize: 0x7C }
  - { offset: 0x116B0C, size: 0x8, addend: 0x0, symName: __RNvXsv_NtNtNtCsiTraAjBDcu4_5alloc11collections5btree3mapINtB5_8BTreeMapNtNtBb_6string6StringNtNtB7_7set_val9SetValZSTENtNtNtNtCsaNl6UpbT7bw_4core4iter6traits7collect12IntoIterator9into_iterCsfWotccrMQ3I_14thiserror_impl, symObjAddr: 0x2E3C, symBinAddr: 0x521D0, symSize: 0x190 }
  - { offset: 0x116C84, size: 0x8, addend: 0x0, symName: __RNvXsv_NtNtNtCsiTraAjBDcu4_5alloc11collections5btree3mapINtB5_8BTreeMapNtNtBb_6string6StringTINtNtB7_3set8BTreeSetB17_EINtNtCsc29TF2YcYso_3syn10punctuated10PunctuatedNtCshnvkK9b4wzu_11proc_macro211TokenStreamNtNtB1Y_5token4PlusEEENtNtNtNtCsaNl6UpbT7bw_4core4iter6traits7collect12IntoIterator9into_iterCsfWotccrMQ3I_14thiserror_impl, symObjAddr: 0x2FCC, symBinAddr: 0x52360, symSize: 0x190 }
  - { offset: 0x116DFC, size: 0x8, addend: 0x0, symName: __RNvXsv_NtNtNtCsiTraAjBDcu4_5alloc11collections5btree3mapINtB5_8BTreeMapNtNtCsfWotccrMQ3I_14thiserror_impl5unraw10IdentUnrawNtNtB7_7set_val9SetValZSTENtNtNtNtCsaNl6UpbT7bw_4core4iter6traits7collect12IntoIterator9into_iterB1b_, symObjAddr: 0x315C, symBinAddr: 0x524F0, symSize: 0x190 }
  - { offset: 0x116F74, size: 0x8, addend: 0x0, symName: __RNvXsv_NtNtNtCsiTraAjBDcu4_5alloc11collections5btree3mapINtB5_8BTreeMapRNtCshnvkK9b4wzu_11proc_macro25IdentNtNtB7_7set_val9SetValZSTENtNtNtNtCsaNl6UpbT7bw_4core4iter6traits7collect12IntoIterator9into_iterCsfWotccrMQ3I_14thiserror_impl, symObjAddr: 0x32EC, symBinAddr: 0x52680, symSize: 0x190 }
  - { offset: 0x1170EC, size: 0x8, addend: 0x0, symName: __RNvXsv_NtNtNtCsiTraAjBDcu4_5alloc11collections5btree3mapINtB5_8BTreeMapTjNtNtCsfWotccrMQ3I_14thiserror_impl4attr5TraitENtNtB7_7set_val9SetValZSTENtNtNtNtCsaNl6UpbT7bw_4core4iter6traits7collect12IntoIterator9into_iterB1d_, symObjAddr: 0x347C, symBinAddr: 0x52810, symSize: 0x190 }
  - { offset: 0x1172B0, size: 0x8, addend: 0x0, symName: __RNvXsy_NtNtNtCsiTraAjBDcu4_5alloc11collections5btree3mapINtB5_8IntoIterTjNtNtCsfWotccrMQ3I_14thiserror_impl4attr5TraitENtNtB7_7set_val9SetValZSTENtNtNtNtCsaNl6UpbT7bw_4core4iter6traits8iterator8Iterator4nextB1d_, symObjAddr: 0x3918, symBinAddr: 0x52CAC, symSize: 0x74 }
  - { offset: 0x117CD3, size: 0x8, addend: 0x0, symName: __RNvXs_NtCsiTraAjBDcu4_5alloc5allocNtB4_6GlobalNtNtCsaNl6UpbT7bw_4core5alloc9Allocator10deallocateCsfWotccrMQ3I_14thiserror_impl, symObjAddr: 0x2D54, symBinAddr: 0x520E8, symSize: 0x80 }
  - { offset: 0x117D9A, size: 0x8, addend: 0x0, symName: __RNvXs_NtCsiTraAjBDcu4_5alloc5allocNtB4_6GlobalNtNtCsaNl6UpbT7bw_4core5alloc9Allocator8allocateCsfWotccrMQ3I_14thiserror_impl, symObjAddr: 0x2DD4, symBinAddr: 0x52168, symSize: 0x34 }
  - { offset: 0x117DD5, size: 0x8, addend: 0x0, symName: __RNvNtCsiTraAjBDcu4_5alloc5alloc15exchange_mallocCsfWotccrMQ3I_14thiserror_impl, symObjAddr: 0x263C, symBinAddr: 0x519D0, symSize: 0xAC }
  - { offset: 0x117E71, size: 0x8, addend: 0x0, symName: __RNvXs1_NtCsiTraAjBDcu4_5alloc5allocNtB5_6GlobalNtNtCsaNl6UpbT7bw_4core5clone5Clone5cloneCsfWotccrMQ3I_14thiserror_impl, symObjAddr: 0x2C24, symBinAddr: 0x51FB8, symSize: 0x10 }
  - { offset: 0x1183A3, size: 0x8, addend: 0x0, symName: __RINvMsi_NtNtNtCsiTraAjBDcu4_5alloc11collections5btree3mapINtB6_8BTreeMapNtNtBc_6string6StringTINtNtB8_3set8BTreeSetB18_EINtNtCsc29TF2YcYso_3syn10punctuated10PunctuatedNtCshnvkK9b4wzu_11proc_macro211TokenStreamNtNtB1Z_5token4PlusEEE3getB18_ECsfWotccrMQ3I_14thiserror_impl, symObjAddr: 0x270, symBinAddr: 0x4F604, symSize: 0xD8 }
  - { offset: 0x1185E3, size: 0x8, addend: 0x0, symName: __RINvMsi_NtNtNtCsiTraAjBDcu4_5alloc11collections5btree3mapINtB6_8BTreeMapNtNtCsfWotccrMQ3I_14thiserror_impl5unraw10IdentUnrawNtNtB8_7set_val9SetValZSTE3getB18_EB1c_, symObjAddr: 0x348, symBinAddr: 0x4F6DC, symSize: 0xD8 }
  - { offset: 0x118841, size: 0x8, addend: 0x0, symName: __RINvMsi_NtNtNtCsiTraAjBDcu4_5alloc11collections5btree3mapINtB6_8BTreeMapRNtCshnvkK9b4wzu_11proc_macro25IdentNtNtB8_7set_val9SetValZSTE27bulk_build_from_sorted_iterINtNtNtNtCsaNl6UpbT7bw_4core4iter8adapters3map3MapINtNtNtBc_3vec9into_iter8IntoIterB18_ENCINvMse_NtB8_3setINtB4a_8BTreeSetB18_E16from_sorted_iterB3p_E0EECsfWotccrMQ3I_14thiserror_impl, symObjAddr: 0x420, symBinAddr: 0x4F7B4, symSize: 0x188 }
  - { offset: 0x1189A9, size: 0x8, addend: 0x0, symName: __RINvMsi_NtNtNtCsiTraAjBDcu4_5alloc11collections5btree3mapINtB6_8BTreeMapRNtCshnvkK9b4wzu_11proc_macro25IdentNtNtB8_7set_val9SetValZSTE3getB19_ECsfWotccrMQ3I_14thiserror_impl, symObjAddr: 0x5A8, symBinAddr: 0x4F93C, symSize: 0xD8 }
  - { offset: 0x1193B1, size: 0x8, addend: 0x0, symName: __RNvMNtCsiTraAjBDcu4_5alloc5allocNtB2_6Global10alloc_implCsfWotccrMQ3I_14thiserror_impl, symObjAddr: 0x1338, symBinAddr: 0x506CC, symSize: 0x204 }
  - { offset: 0x119737, size: 0x8, addend: 0x0, symName: __RNvMNtNtNtCsaNl6UpbT7bw_4core4iter8adapters7step_byINtB2_6StepByINtNtNtB8_3ops5range5RangejEE3newCsfWotccrMQ3I_14thiserror_impl, symObjAddr: 0x153C, symBinAddr: 0x508D0, symSize: 0xE0 }
  - { offset: 0x11978D, size: 0x8, addend: 0x0, symName: __RNvMsg_NtNtNtCsiTraAjBDcu4_5alloc11collections5btree3mapINtB5_8BTreeMapNtNtBb_6string6StringTINtNtB7_3set8BTreeSetB17_EINtNtCsc29TF2YcYso_3syn10punctuated10PunctuatedNtCshnvkK9b4wzu_11proc_macro211TokenStreamNtNtB1Y_5token4PlusEEE3newCsfWotccrMQ3I_14thiserror_impl, symObjAddr: 0x161C, symBinAddr: 0x509B0, symSize: 0x24 }
  - { offset: 0x11985B, size: 0x8, addend: 0x0, symName: __RNvMsi_NtNtNtCsiTraAjBDcu4_5alloc11collections5btree3mapINtB5_8BTreeMapNtNtBb_6string6StringNtNtB7_7set_val9SetValZSTE5entryCsfWotccrMQ3I_14thiserror_impl, symObjAddr: 0x1640, symBinAddr: 0x509D4, symSize: 0x27C }
  - { offset: 0x1199FC, size: 0x8, addend: 0x0, symName: __RNvMsi_NtNtNtCsiTraAjBDcu4_5alloc11collections5btree3mapINtB5_8BTreeMapNtNtBb_6string6StringNtNtB7_7set_val9SetValZSTE6insertCsfWotccrMQ3I_14thiserror_impl, symObjAddr: 0x18BC, symBinAddr: 0x50C50, symSize: 0x124 }
  - { offset: 0x119B51, size: 0x8, addend: 0x0, symName: __RNvMsi_NtNtNtCsiTraAjBDcu4_5alloc11collections5btree3mapINtB5_8BTreeMapNtNtBb_6string6StringTINtNtB7_3set8BTreeSetB17_EINtNtCsc29TF2YcYso_3syn10punctuated10PunctuatedNtCshnvkK9b4wzu_11proc_macro211TokenStreamNtNtB1Y_5token4PlusEEE5entryCsfWotccrMQ3I_14thiserror_impl, symObjAddr: 0x19E0, symBinAddr: 0x50D74, symSize: 0x27C }
  - { offset: 0x119D46, size: 0x8, addend: 0x0, symName: __RNvMsi_NtNtNtCsiTraAjBDcu4_5alloc11collections5btree3mapINtB5_8BTreeMapNtNtCsfWotccrMQ3I_14thiserror_impl5unraw10IdentUnrawNtNtB7_7set_val9SetValZSTE5entryB1b_, symObjAddr: 0x1C5C, symBinAddr: 0x50FF0, symSize: 0x27C }
  - { offset: 0x119EDA, size: 0x8, addend: 0x0, symName: __RNvMsi_NtNtNtCsiTraAjBDcu4_5alloc11collections5btree3mapINtB5_8BTreeMapNtNtCsfWotccrMQ3I_14thiserror_impl5unraw10IdentUnrawNtNtB7_7set_val9SetValZSTE6insertB1b_, symObjAddr: 0x1ED8, symBinAddr: 0x5126C, symSize: 0x11C }
  - { offset: 0x11A022, size: 0x8, addend: 0x0, symName: __RNvMsi_NtNtNtCsiTraAjBDcu4_5alloc11collections5btree3mapINtB5_8BTreeMapTjNtNtCsfWotccrMQ3I_14thiserror_impl4attr5TraitENtNtB7_7set_val9SetValZSTE5entryB1d_, symObjAddr: 0x1FF4, symBinAddr: 0x51388, symSize: 0x254 }
  - { offset: 0x11A1B5, size: 0x8, addend: 0x0, symName: __RNvMsi_NtNtNtCsiTraAjBDcu4_5alloc11collections5btree3mapINtB5_8BTreeMapTjNtNtCsfWotccrMQ3I_14thiserror_impl4attr5TraitENtNtB7_7set_val9SetValZSTE6insertB1d_, symObjAddr: 0x2248, symBinAddr: 0x515DC, symSize: 0x124 }
  - { offset: 0x11A2B7, size: 0x8, addend: 0x0, symName: __RNvMsx_NtNtNtCsiTraAjBDcu4_5alloc11collections5btree3mapINtB5_8IntoIterNtNtBb_6string6StringNtNtB7_7set_val9SetValZSTE10dying_nextCsfWotccrMQ3I_14thiserror_impl, symObjAddr: 0x236C, symBinAddr: 0x51700, symSize: 0x90 }
  - { offset: 0x11A302, size: 0x8, addend: 0x0, symName: __RNvMsx_NtNtNtCsiTraAjBDcu4_5alloc11collections5btree3mapINtB5_8IntoIterNtNtBb_6string6StringTINtNtB7_3set8BTreeSetB17_EINtNtCsc29TF2YcYso_3syn10punctuated10PunctuatedNtCshnvkK9b4wzu_11proc_macro211TokenStreamNtNtB1Y_5token4PlusEEE10dying_nextCsfWotccrMQ3I_14thiserror_impl, symObjAddr: 0x23FC, symBinAddr: 0x51790, symSize: 0x90 }
  - { offset: 0x11A34D, size: 0x8, addend: 0x0, symName: __RNvMsx_NtNtNtCsiTraAjBDcu4_5alloc11collections5btree3mapINtB5_8IntoIterNtNtCsfWotccrMQ3I_14thiserror_impl5unraw10IdentUnrawNtNtB7_7set_val9SetValZSTE10dying_nextB1b_, symObjAddr: 0x248C, symBinAddr: 0x51820, symSize: 0x90 }
  - { offset: 0x11A398, size: 0x8, addend: 0x0, symName: __RNvMsx_NtNtNtCsiTraAjBDcu4_5alloc11collections5btree3mapINtB5_8IntoIterRNtCshnvkK9b4wzu_11proc_macro25IdentNtNtB7_7set_val9SetValZSTE10dying_nextCsfWotccrMQ3I_14thiserror_impl, symObjAddr: 0x251C, symBinAddr: 0x518B0, symSize: 0x90 }
  - { offset: 0x11A3E3, size: 0x8, addend: 0x0, symName: __RNvMsx_NtNtNtCsiTraAjBDcu4_5alloc11collections5btree3mapINtB5_8IntoIterTjNtNtCsfWotccrMQ3I_14thiserror_impl4attr5TraitENtNtB7_7set_val9SetValZSTE10dying_nextB1d_, symObjAddr: 0x25AC, symBinAddr: 0x51940, symSize: 0x90 }
  - { offset: 0x11B68A, size: 0x8, addend: 0x0, symName: __RNvNtCsfWotccrMQ3I_14thiserror_impl8fallback6expand, symObjAddr: 0x2BAC, symBinAddr: 0x5580C, symSize: 0xA90 }
  - { offset: 0x11BA8F, size: 0x8, addend: 0x0, symName: __RINvNtNtNtCsaNl6UpbT7bw_4core5slice4sort6stable14driftsort_mainRNtCshnvkK9b4wzu_11proc_macro25IdentNvYBZ_NtNtB8_3cmp10PartialOrd2ltINtNtCsiTraAjBDcu4_5alloc3vec3VecBZ_EECsfWotccrMQ3I_14thiserror_impl, symObjAddr: 0x140, symBinAddr: 0x52DA4, symSize: 0x290 }
  - { offset: 0x11BCAA, size: 0x8, addend: 0x0, symName: __RINvNtNtNtNtCsaNl6UpbT7bw_4core5slice4sort6stable5drift10create_runRNtCshnvkK9b4wzu_11proc_macro25IdentNvYB13_NtNtBa_3cmp10PartialOrd2ltECsfWotccrMQ3I_14thiserror_impl, symObjAddr: 0xA9C, symBinAddr: 0x53700, symSize: 0x3A4 }
  - { offset: 0x11C0D2, size: 0x8, addend: 0x0, symName: __RINvNtNtNtNtCsaNl6UpbT7bw_4core5slice4sort6stable5drift16stable_quicksortRNtCshnvkK9b4wzu_11proc_macro25IdentNvYB19_NtNtBa_3cmp10PartialOrd2ltECsfWotccrMQ3I_14thiserror_impl, symObjAddr: 0xE40, symBinAddr: 0x53AA4, symSize: 0xB4 }
  - { offset: 0x11C2EF, size: 0x8, addend: 0x0, symName: __RINvNtNtNtNtCsaNl6UpbT7bw_4core5slice4sort6stable5drift4sortRNtCshnvkK9b4wzu_11proc_macro25IdentNvYBW_NtNtBa_3cmp10PartialOrd2ltECsfWotccrMQ3I_14thiserror_impl, symObjAddr: 0xEF4, symBinAddr: 0x53B58, symSize: 0x528 }
  - { offset: 0x11CA67, size: 0x8, addend: 0x0, symName: __RINvNtNtNtNtCsaNl6UpbT7bw_4core5slice4sort6stable9quicksort16stable_partitionRNtCshnvkK9b4wzu_11proc_macro25IdentNCINvB2_9quicksortB1d_NvYB1d_NtNtBa_3cmp10PartialOrd2ltE0ECsfWotccrMQ3I_14thiserror_impl, symObjAddr: 0x141C, symBinAddr: 0x54080, symSize: 0x560 }
  - { offset: 0x11CEE5, size: 0x8, addend: 0x0, symName: __RINvNtNtNtNtCsaNl6UpbT7bw_4core5slice4sort6stable9quicksort16stable_partitionRNtCshnvkK9b4wzu_11proc_macro25IdentNvYB1d_NtNtBa_3cmp10PartialOrd2ltECsfWotccrMQ3I_14thiserror_impl, symObjAddr: 0x197C, symBinAddr: 0x545E0, symSize: 0x560 }
  - { offset: 0x11D363, size: 0x8, addend: 0x0, symName: __RINvNtNtNtNtCsaNl6UpbT7bw_4core5slice4sort6stable9quicksort9quicksortRNtCshnvkK9b4wzu_11proc_macro25IdentNvYB15_NtNtBa_3cmp10PartialOrd2ltECsfWotccrMQ3I_14thiserror_impl, symObjAddr: 0x1EDC, symBinAddr: 0x54B40, symSize: 0x3A8 }
  - { offset: 0x11D5FB, size: 0x8, addend: 0x0, symName: __RNCINvNtNtNtNtCsaNl6UpbT7bw_4core5slice4sort6stable9quicksort9quicksortRNtCshnvkK9b4wzu_11proc_macro25IdentNvYB17_NtNtBc_3cmp10PartialOrd2ltE0CsfWotccrMQ3I_14thiserror_impl, symObjAddr: 0x2490, symBinAddr: 0x550F4, symSize: 0x48 }
  - { offset: 0x121AC6, size: 0x8, addend: 0x0, symName: __RNvXsF_NtNtCsaNl6UpbT7bw_4core4iter5rangejNtB5_4Step17forward_uncheckedCsfWotccrMQ3I_14thiserror_impl, symObjAddr: 0x2A54, symBinAddr: 0x556B4, symSize: 0x50 }
  - { offset: 0x121C06, size: 0x8, addend: 0x0, symName: __RNCINvNvNtNtNtNtCsaNl6UpbT7bw_4core4iter6traits8iterator8Iterator12try_for_each4callNtNtCsfWotccrMQ3I_14thiserror_impl3ast5FieldINtNtNtBe_3ops12control_flow11ControlFlowB1k_ENcNtB22_5Break0E0B1o_, symObjAddr: 0x24D8, symBinAddr: 0x5513C, symSize: 0x50 }
  - { offset: 0x121C6C, size: 0x8, addend: 0x0, symName: __RNCINvNvNtNtNtNtCsaNl6UpbT7bw_4core4iter6traits8iterator8Iterator12try_for_each4callNtNtCsfWotccrMQ3I_14thiserror_impl3ast7VariantINtNtNtBe_3ops12control_flow11ControlFlowB1k_ENcNtB24_5Break0E0B1o_, symObjAddr: 0x2528, symBinAddr: 0x5518C, symSize: 0x50 }
  - { offset: 0x121CDE, size: 0x8, addend: 0x0, symName: __RNCINvNvNtNtNtNtCsaNl6UpbT7bw_4core4iter6traits8iterator8Iterator8for_each4callNtCshnvkK9b4wzu_11proc_macro211TokenStreamNCINvMsi_NtCsiTraAjBDcu4_5alloc3vecINtB24_3VecB1f_E14extend_trustedINtNtNtBc_8adapters3map3MapINtNtNtBe_5slice4iter4IterNtNtCsfWotccrMQ3I_14thiserror_impl3ast7VariantENCNvNtB3V_6expand9impl_enums1_0EE0E0B3V_, symObjAddr: 0x2578, symBinAddr: 0x551DC, symSize: 0x3C }
  - { offset: 0x121D37, size: 0x8, addend: 0x0, symName: __RNCINvNvNtNtNtNtCsaNl6UpbT7bw_4core4iter6traits8iterator8Iterator8for_each4callNtCshnvkK9b4wzu_11proc_macro29TokenTreeNCINvXsa_NtB1h_8fallbackNtB21_11TokenStreamINtNtBa_7collect6ExtendB1f_E6extendNtB1h_11TokenStreamE0E0CsfWotccrMQ3I_14thiserror_impl, symObjAddr: 0x25B4, symBinAddr: 0x55218, symSize: 0x3C }
  - { offset: 0x121DA1, size: 0x8, addend: 0x0, symName: __RNCNvXs_NvNtNtNtNtCsaNl6UpbT7bw_4core4iter6traits8iterator8Iterator10advance_byINtNtCsc29TF2YcYso_3syn10punctuated11PrivateIterNtNtB1k_4data7VariantNtNtB1k_5token5CommaENtB6_13SpecAdvanceBy15spec_advance_by0CsfWotccrMQ3I_14thiserror_impl, symObjAddr: 0x2650, symBinAddr: 0x552B4, symSize: 0x20 }
  - { offset: 0x121DEE, size: 0x8, addend: 0x0, symName: __RNCNvXs_NvNtNtNtNtCsaNl6UpbT7bw_4core4iter6traits8iterator8Iterator10advance_byINtNtCsc29TF2YcYso_3syn10punctuated11PrivateIterNtNtB1k_4path15GenericArgumentNtNtB1k_5token5CommaENtB6_13SpecAdvanceBy15spec_advance_by0CsfWotccrMQ3I_14thiserror_impl, symObjAddr: 0x2670, symBinAddr: 0x552D4, symSize: 0x20 }
  - { offset: 0x121E96, size: 0x8, addend: 0x0, symName: __RINvYNtNtNtCsht3nMU9UgFu_3std4hash6random11RandomStateNtNtCsaNl6UpbT7bw_4core4hash11BuildHasher8hash_oneRNtNtCsfWotccrMQ3I_14thiserror_impl5unraw11MemberUnrawEB1J_, symObjAddr: 0x22C0, symBinAddr: 0x54F24, symSize: 0x84 }
  - { offset: 0x121EFB, size: 0x8, addend: 0x0, symName: __RINvYNtNtNtCsht3nMU9UgFu_3std4hash6random11RandomStateNtNtCsaNl6UpbT7bw_4core4hash11BuildHasher8hash_oneRRNtNtCsfWotccrMQ3I_14thiserror_impl5unraw11MemberUnrawEB1K_, symObjAddr: 0x2344, symBinAddr: 0x54FA8, symSize: 0x84 }
  - { offset: 0x1220CD, size: 0x8, addend: 0x0, symName: __RNvYNtNtNtCsht3nMU9UgFu_3std4hash6random13DefaultHasherNtNtCsaNl6UpbT7bw_4core4hash6Hasher9write_u32CsfWotccrMQ3I_14thiserror_impl, symObjAddr: 0x2B70, symBinAddr: 0x557D0, symSize: 0x3C }
  - { offset: 0x122D59, size: 0x8, addend: 0x0, symName: __RNvXs7_NtNtNtCsiTraAjBDcu4_5alloc11collections5btree7set_valNtB5_9SetValZSTNtNtCsaNl6UpbT7bw_4core5clone5Clone5cloneCsfWotccrMQ3I_14thiserror_impl, symObjAddr: 0x2A44, symBinAddr: 0x556A4, symSize: 0x10 }
  - { offset: 0x122D88, size: 0x8, addend: 0x0, symName: __RINvNtNtNtCsiTraAjBDcu4_5alloc11collections5btree3mem7replaceINtNtB4_4node6HandleINtB10_7NodeRefNtNtB10_6marker5DyingNtNtB8_6string6StringNtNtB4_7set_val9SetValZSTNtB1y_4LeafENtB1y_4EdgeEIBY_IB1i_B1w_B1R_B2c_NtB1y_14LeafOrInternalENtB1y_2KVENCINvMsm_NtB4_8navigateBX_27deallocating_next_uncheckedNtNtB8_5alloc6GlobalE0ECsfWotccrMQ3I_14thiserror_impl, symObjAddr: 0x3D0, symBinAddr: 0x53034, symSize: 0xCC }
  - { offset: 0x122E78, size: 0x8, addend: 0x0, symName: __RINvNtNtNtCsiTraAjBDcu4_5alloc11collections5btree3mem7replaceINtNtB4_4node6HandleINtB10_7NodeRefNtNtB10_6marker5DyingNtNtB8_6string6StringTINtNtB4_3set8BTreeSetB1R_EINtNtCsc29TF2YcYso_3syn10punctuated10PunctuatedNtCshnvkK9b4wzu_11proc_macro211TokenStreamNtNtB2I_5token4PlusEENtB1y_4LeafENtB1y_4EdgeEIBY_IB1i_B1w_B1R_B2c_NtB1y_14LeafOrInternalENtB1y_2KVENCINvMsm_NtB4_8navigateBX_27deallocating_next_uncheckedNtNtB8_5alloc6GlobalE0ECsfWotccrMQ3I_14thiserror_impl, symObjAddr: 0x49C, symBinAddr: 0x53100, symSize: 0xCC }
  - { offset: 0x122F68, size: 0x8, addend: 0x0, symName: __RINvNtNtNtCsiTraAjBDcu4_5alloc11collections5btree3mem7replaceINtNtB4_4node6HandleINtB10_7NodeRefNtNtB10_6marker5DyingNtNtCsfWotccrMQ3I_14thiserror_impl5unraw10IdentUnrawNtNtB4_7set_val9SetValZSTNtB1y_4LeafENtB1y_4EdgeEIBY_IB1i_B1w_B1R_B2H_NtB1y_14LeafOrInternalENtB1y_2KVENCINvMsm_NtB4_8navigateBX_27deallocating_next_uncheckedNtNtB8_5alloc6GlobalE0EB1V_, symObjAddr: 0x568, symBinAddr: 0x531CC, symSize: 0xCC }
  - { offset: 0x123058, size: 0x8, addend: 0x0, symName: __RINvNtNtNtCsiTraAjBDcu4_5alloc11collections5btree3mem7replaceINtNtB4_4node6HandleINtB10_7NodeRefNtNtB10_6marker5DyingRNtCshnvkK9b4wzu_11proc_macro25IdentNtNtB4_7set_val9SetValZSTNtB1y_4LeafENtB1y_4EdgeEIBY_IB1i_B1w_B1R_B2r_NtB1y_14LeafOrInternalENtB1y_2KVENCINvMsm_NtB4_8navigateBX_27deallocating_next_uncheckedNtNtB8_5alloc6GlobalE0ECsfWotccrMQ3I_14thiserror_impl, symObjAddr: 0x634, symBinAddr: 0x53298, symSize: 0xCC }
  - { offset: 0x123148, size: 0x8, addend: 0x0, symName: __RINvNtNtNtCsiTraAjBDcu4_5alloc11collections5btree3mem7replaceINtNtB4_4node6HandleINtB10_7NodeRefNtNtB10_6marker5DyingTjNtNtCsfWotccrMQ3I_14thiserror_impl4attr5TraitENtNtB4_7set_val9SetValZSTNtB1y_4LeafENtB1y_4EdgeEIBY_IB1i_B1w_B1R_B2D_NtB1y_14LeafOrInternalENtB1y_2KVENCINvMsm_NtB4_8navigateBX_27deallocating_next_uncheckedNtNtB8_5alloc6GlobalE0EB1X_, symObjAddr: 0x700, symBinAddr: 0x53364, symSize: 0xCC }
  - { offset: 0x123238, size: 0x8, addend: 0x0, symName: __RINvNtNtNtCsiTraAjBDcu4_5alloc11collections5btree3mem7replaceINtNtB4_4node7NodeRefNtNtB10_6marker5OwnedNtNtB8_6string6StringNtNtB4_7set_val9SetValZSTNtB1k_14LeafOrInternalEuNCINvB2_8take_mutBX_NCINvMss_B10_BX_19push_internal_levelNtNtB8_5alloc6GlobalE0E0ECsfWotccrMQ3I_14thiserror_impl, symObjAddr: 0x7CC, symBinAddr: 0x53430, symSize: 0x90 }
  - { offset: 0x123321, size: 0x8, addend: 0x0, symName: __RINvNtNtNtCsiTraAjBDcu4_5alloc11collections5btree3mem7replaceINtNtB4_4node7NodeRefNtNtB10_6marker5OwnedNtNtB8_6string6StringTINtNtB4_3set8BTreeSetB1D_EINtNtCsc29TF2YcYso_3syn10punctuated10PunctuatedNtCshnvkK9b4wzu_11proc_macro211TokenStreamNtNtB2u_5token4PlusEENtB1k_14LeafOrInternalEuNCINvB2_8take_mutBX_NCINvMss_B10_BX_19push_internal_levelNtNtB8_5alloc6GlobalE0E0ECsfWotccrMQ3I_14thiserror_impl, symObjAddr: 0x85C, symBinAddr: 0x534C0, symSize: 0x90 }
  - { offset: 0x12340A, size: 0x8, addend: 0x0, symName: __RINvNtNtNtCsiTraAjBDcu4_5alloc11collections5btree3mem7replaceINtNtB4_4node7NodeRefNtNtB10_6marker5OwnedNtNtCsfWotccrMQ3I_14thiserror_impl5unraw10IdentUnrawNtNtB4_7set_val9SetValZSTNtB1k_14LeafOrInternalEuNCINvB2_8take_mutBX_NCINvMss_B10_BX_19push_internal_levelNtNtB8_5alloc6GlobalE0E0EB1H_, symObjAddr: 0x8EC, symBinAddr: 0x53550, symSize: 0x90 }
  - { offset: 0x1234F3, size: 0x8, addend: 0x0, symName: __RINvNtNtNtCsiTraAjBDcu4_5alloc11collections5btree3mem7replaceINtNtB4_4node7NodeRefNtNtB10_6marker5OwnedRNtCshnvkK9b4wzu_11proc_macro25IdentNtNtB4_7set_val9SetValZSTNtB1k_14LeafOrInternalEuNCINvB2_8take_mutBX_NCINvMss_B10_BX_19push_internal_levelNtNtB8_5alloc6GlobalE0E0ECsfWotccrMQ3I_14thiserror_impl, symObjAddr: 0x97C, symBinAddr: 0x535E0, symSize: 0x90 }
  - { offset: 0x1235DC, size: 0x8, addend: 0x0, symName: __RINvNtNtNtCsiTraAjBDcu4_5alloc11collections5btree3mem7replaceINtNtB4_4node7NodeRefNtNtB10_6marker5OwnedTjNtNtCsfWotccrMQ3I_14thiserror_impl4attr5TraitENtNtB4_7set_val9SetValZSTNtB1k_14LeafOrInternalEuNCINvB2_8take_mutBX_NCINvMss_B10_BX_19push_internal_levelNtNtB8_5alloc6GlobalE0E0EB1J_, symObjAddr: 0xA0C, symBinAddr: 0x53670, symSize: 0x90 }
  - { offset: 0x1236CA, size: 0x8, addend: 0x0, symName: __RNCINvNtNtNtCsiTraAjBDcu4_5alloc11collections5btree3mem8take_mutINtNtB6_4node7NodeRefNtNtB13_6marker5OwnedNtNtBa_6string6StringNtNtB6_7set_val9SetValZSTNtB1n_14LeafOrInternalENCINvMss_B13_B10_19push_internal_levelNtNtBa_5alloc6GlobalE0E0CsfWotccrMQ3I_14thiserror_impl, symObjAddr: 0x23C8, symBinAddr: 0x5502C, symSize: 0x28 }
  - { offset: 0x123717, size: 0x8, addend: 0x0, symName: __RNCINvNtNtNtCsiTraAjBDcu4_5alloc11collections5btree3mem8take_mutINtNtB6_4node7NodeRefNtNtB13_6marker5OwnedNtNtBa_6string6StringTINtNtB6_3set8BTreeSetB1G_EINtNtCsc29TF2YcYso_3syn10punctuated10PunctuatedNtCshnvkK9b4wzu_11proc_macro211TokenStreamNtNtB2x_5token4PlusEENtB1n_14LeafOrInternalENCINvMss_B13_B10_19push_internal_levelNtNtBa_5alloc6GlobalE0E0CsfWotccrMQ3I_14thiserror_impl, symObjAddr: 0x23F0, symBinAddr: 0x55054, symSize: 0x28 }
  - { offset: 0x123764, size: 0x8, addend: 0x0, symName: __RNCINvNtNtNtCsiTraAjBDcu4_5alloc11collections5btree3mem8take_mutINtNtB6_4node7NodeRefNtNtB13_6marker5OwnedNtNtCsfWotccrMQ3I_14thiserror_impl5unraw10IdentUnrawNtNtB6_7set_val9SetValZSTNtB1n_14LeafOrInternalENCINvMss_B13_B10_19push_internal_levelNtNtBa_5alloc6GlobalE0E0B1K_, symObjAddr: 0x2418, symBinAddr: 0x5507C, symSize: 0x28 }
  - { offset: 0x1237B1, size: 0x8, addend: 0x0, symName: __RNCINvNtNtNtCsiTraAjBDcu4_5alloc11collections5btree3mem8take_mutINtNtB6_4node7NodeRefNtNtB13_6marker5OwnedRNtCshnvkK9b4wzu_11proc_macro25IdentNtNtB6_7set_val9SetValZSTNtB1n_14LeafOrInternalENCINvMss_B13_B10_19push_internal_levelNtNtBa_5alloc6GlobalE0E0CsfWotccrMQ3I_14thiserror_impl, symObjAddr: 0x2440, symBinAddr: 0x550A4, symSize: 0x28 }
  - { offset: 0x1237FE, size: 0x8, addend: 0x0, symName: __RNCINvNtNtNtCsiTraAjBDcu4_5alloc11collections5btree3mem8take_mutINtNtB6_4node7NodeRefNtNtB13_6marker5OwnedTjNtNtCsfWotccrMQ3I_14thiserror_impl4attr5TraitENtNtB6_7set_val9SetValZSTNtB1n_14LeafOrInternalENCINvMss_B13_B10_19push_internal_levelNtNtBa_5alloc6GlobalE0E0B1M_, symObjAddr: 0x2468, symBinAddr: 0x550CC, symSize: 0x28 }
  - { offset: 0x1254B3, size: 0x8, addend: 0x0, symName: __RINvXsa_NtCsc29TF2YcYso_3syn4exprNtB6_5IndexNtNtCsaNl6UpbT7bw_4core4hash4Hash4hashNtNtNtCsht3nMU9UgFu_3std4hash6random13DefaultHasherECsfWotccrMQ3I_14thiserror_impl, symObjAddr: 0x2284, symBinAddr: 0x54EE8, symSize: 0x3C }
  - { offset: 0x129EE2, size: 0x8, addend: 0x0, symName: __RNCNkNvNvMNtNtCsht3nMU9UgFu_3std4hash6randomNtB8_11RandomState3new4KEYS0s_0CsfWotccrMQ3I_14thiserror_impl, symObjAddr: 0x25F0, symBinAddr: 0x55254, symSize: 0x34 }
  - { offset: 0x129F20, size: 0x8, addend: 0x0, symName: __RNvNvNvMNtNtCsht3nMU9UgFu_3std4hash6randomNtB6_11RandomState3new4KEYS6___initCsfWotccrMQ3I_14thiserror_impl, symObjAddr: 0x2854, symBinAddr: 0x554B4, symSize: 0x24 }
  - { offset: 0x129F3E, size: 0x8, addend: 0x0, symName: __RNCNvMNtNtCsht3nMU9UgFu_3std4hash6randomNtB4_11RandomState3new0CsfWotccrMQ3I_14thiserror_impl, symObjAddr: 0x2624, symBinAddr: 0x55288, symSize: 0x2C }
  - { offset: 0x12A003, size: 0x8, addend: 0x0, symName: __RNvXs2_NtNtCsht3nMU9UgFu_3std4hash6randomNtB5_13DefaultHasherNtNtCsaNl6UpbT7bw_4core4hash6Hasher5writeCsfWotccrMQ3I_14thiserror_impl, symObjAddr: 0x29A8, symBinAddr: 0x55608, symSize: 0x38 }
  - { offset: 0x12A05E, size: 0x8, addend: 0x0, symName: __RNvXs2_NtNtCsht3nMU9UgFu_3std4hash6randomNtB5_13DefaultHasherNtNtCsaNl6UpbT7bw_4core4hash6Hasher6finishCsfWotccrMQ3I_14thiserror_impl, symObjAddr: 0x29E0, symBinAddr: 0x55640, symSize: 0x2C }
  - { offset: 0x12A0A7, size: 0x8, addend: 0x0, symName: __RNvXs2_NtNtCsht3nMU9UgFu_3std4hash6randomNtB5_13DefaultHasherNtNtCsaNl6UpbT7bw_4core4hash6Hasher9write_strCsfWotccrMQ3I_14thiserror_impl, symObjAddr: 0x2A0C, symBinAddr: 0x5566C, symSize: 0x38 }
  - { offset: 0x12A108, size: 0x8, addend: 0x0, symName: __RNvXs_NtNtCsht3nMU9UgFu_3std4hash6randomNtB4_11RandomStateNtNtCsaNl6UpbT7bw_4core4hash11BuildHasher12build_hasherCsfWotccrMQ3I_14thiserror_impl, symObjAddr: 0x2AA4, symBinAddr: 0x55704, symSize: 0xCC }
  - { offset: 0x12A2B7, size: 0x8, addend: 0x0, symName: __RNvMNtNtNtCsaNl6UpbT7bw_4core5slice4sort6stableINtB2_14AlignedStorageRNtCshnvkK9b4wzu_11proc_macro25IdentKj1000_E19as_uninit_slice_mutCsfWotccrMQ3I_14thiserror_impl, symObjAddr: 0x2690, symBinAddr: 0x552F4, symSize: 0x80 }
  - { offset: 0x12A36B, size: 0x8, addend: 0x0, symName: __RNvMNtNtNtNtCsaNl6UpbT7bw_4core5slice4sort6stable9quicksortINtB2_14PartitionStateRNtCshnvkK9b4wzu_11proc_macro25IdentE13partition_oneCsfWotccrMQ3I_14thiserror_impl, symObjAddr: 0x2710, symBinAddr: 0x55374, symSize: 0x140 }
  - { offset: 0x12A465, size: 0x8, addend: 0x0, symName: __RNvXNtCs4EAaWzSXu1l_5quote14ident_fragmentRNtNtCsc29TF2YcYso_3syn4expr5IndexNtB2_13IdentFragment3fmtCsfWotccrMQ3I_14thiserror_impl, symObjAddr: 0x2878, symBinAddr: 0x554D8, symSize: 0x40 }
  - { offset: 0x12A4A8, size: 0x8, addend: 0x0, symName: __RNvXNtCs4EAaWzSXu1l_5quote14ident_fragmentRNtNtCsc29TF2YcYso_3syn4expr5IndexNtB2_13IdentFragment4spanCsfWotccrMQ3I_14thiserror_impl, symObjAddr: 0x28B8, symBinAddr: 0x55518, symSize: 0x38 }
  - { offset: 0x12A4DD, size: 0x8, addend: 0x0, symName: __RNvXNtCs4EAaWzSXu1l_5quote14ident_fragmentRRNtNtCsc29TF2YcYso_3syn4expr5IndexNtB2_13IdentFragment3fmtCsfWotccrMQ3I_14thiserror_impl, symObjAddr: 0x28F0, symBinAddr: 0x55550, symSize: 0x40 }
  - { offset: 0x12A520, size: 0x8, addend: 0x0, symName: __RNvXNtCs4EAaWzSXu1l_5quote14ident_fragmentRRNtNtCsc29TF2YcYso_3syn4expr5IndexNtB2_13IdentFragment4spanCsfWotccrMQ3I_14thiserror_impl, symObjAddr: 0x2930, symBinAddr: 0x55590, symSize: 0x38 }
  - { offset: 0x12A561, size: 0x8, addend: 0x0, symName: __RNvXNtCs4EAaWzSXu1l_5quote9to_tokensRNtNtCsc29TF2YcYso_3syn4expr8ExprPathNtB2_8ToTokens9to_tokensCsfWotccrMQ3I_14thiserror_impl, symObjAddr: 0x2968, symBinAddr: 0x555C8, symSize: 0x40 }
  - { offset: 0x12ADF3, size: 0x8, addend: 0x0, symName: __RINvMsi_NtCsiTraAjBDcu4_5alloc3vecINtB6_3VecNtCshnvkK9b4wzu_11proc_macro211TokenStreamE14extend_trustedINtNtNtNtCsaNl6UpbT7bw_4core4iter8adapters3map3MapINtNtNtB1M_5slice4iter4IterNtNtCsfWotccrMQ3I_14thiserror_impl3ast7VariantENCNvNtB2W_6expand9impl_enums1_0EEB2W_, symObjAddr: 0x0, symBinAddr: 0x5629C, symSize: 0x178 }
  - { offset: 0x12B635, size: 0x8, addend: 0x0, symName: __RNvXs1_NtCshnvkK9b4wzu_11proc_macro26markerNtB5_19ProcMacroAutoTraitsNtNtCsaNl6UpbT7bw_4core5clone5Clone5cloneCsfWotccrMQ3I_14thiserror_impl, symObjAddr: 0x2010, symBinAddr: 0x582AC, symSize: 0x10 }
  - { offset: 0x12BADF, size: 0x8, addend: 0x0, symName: __RNCNvMs_NtCsfWotccrMQ3I_14thiserror_impl4propNtNtB8_3ast4Enum10has_source0B8_, symObjAddr: 0x30BC, symBinAddr: 0x59358, symSize: 0x94 }
  - { offset: 0x12BB22, size: 0x8, addend: 0x0, symName: __RNCNvMs_NtCsfWotccrMQ3I_14thiserror_impl4propNtNtB8_3ast4Enum13has_backtrace0B8_, symObjAddr: 0x3150, symBinAddr: 0x593EC, symSize: 0x50 }
  - { offset: 0x12BB65, size: 0x8, addend: 0x0, symName: __RNCNvMs_NtCsfWotccrMQ3I_14thiserror_impl4propNtNtB8_3ast4Enum11has_display0B8_, symObjAddr: 0x31A0, symBinAddr: 0x5943C, symSize: 0x80 }
  - { offset: 0x12BB9B, size: 0x8, addend: 0x0, symName: __RNCNvMs_NtCsfWotccrMQ3I_14thiserror_impl4propNtNtB8_3ast4Enum11has_displays_0B8_, symObjAddr: 0x3220, symBinAddr: 0x594BC, symSize: 0x38 }
  - { offset: 0x12BBE1, size: 0x8, addend: 0x0, symName: __RNvNtCsfWotccrMQ3I_14thiserror_impl4prop10from_field, symObjAddr: 0x3258, symBinAddr: 0x594F4, symSize: 0xCC }
  - { offset: 0x12BC37, size: 0x8, addend: 0x0, symName: __RNvNtCsfWotccrMQ3I_14thiserror_impl4prop12source_field, symObjAddr: 0x3324, symBinAddr: 0x595C0, symSize: 0x204 }
  - { offset: 0x12BCE5, size: 0x8, addend: 0x0, symName: __RNvNtCsfWotccrMQ3I_14thiserror_impl4prop15backtrace_field, symObjAddr: 0x3528, symBinAddr: 0x597C4, symSize: 0x164 }
  - { offset: 0x12BD66, size: 0x8, addend: 0x0, symName: __RNvNtCsfWotccrMQ3I_14thiserror_impl4prop24distinct_backtrace_field, symObjAddr: 0x368C, symBinAddr: 0x59928, symSize: 0x84 }
  - { offset: 0x12BDA5, size: 0x8, addend: 0x0, symName: __RNCNvNtCsfWotccrMQ3I_14thiserror_impl4prop24distinct_backtrace_field0B5_, symObjAddr: 0x3710, symBinAddr: 0x599AC, symSize: 0x40 }
  - { offset: 0x12BDE2, size: 0x8, addend: 0x0, symName: __RNvNtCsfWotccrMQ3I_14thiserror_impl4prop17type_is_backtrace, symObjAddr: 0x3750, symBinAddr: 0x599EC, symSize: 0x10C }
  - { offset: 0x12FEB0, size: 0x8, addend: 0x0, symName: __RNvMs9_NtCsaNl6UpbT7bw_4core3numj11checked_addCsfWotccrMQ3I_14thiserror_impl, symObjAddr: 0xB58, symBinAddr: 0x56DF4, symSize: 0x74 }
  - { offset: 0x12FFE2, size: 0x8, addend: 0x0, symName: __RNvNvMs9_NtCsaNl6UpbT7bw_4core3numj13unchecked_add18precondition_checkCsfWotccrMQ3I_14thiserror_impl, symObjAddr: 0x1680, symBinAddr: 0x5791C, symSize: 0xB0 }
  - { offset: 0x13011B, size: 0x8, addend: 0x0, symName: __RNvNvMs3_NtCsaNl6UpbT7bw_4core3numi13unchecked_neg18precondition_checkCsfWotccrMQ3I_14thiserror_impl, symObjAddr: 0x15C8, symBinAddr: 0x57864, symSize: 0xB8 }
  - { offset: 0x1303FC, size: 0x8, addend: 0x0, symName: __RNCINvNvXs_NtNtNtCsaNl6UpbT7bw_4core4iter8adapters9enumerateINtB9_9EnumeratepENtNtNtBd_6traits8iterator8Iterator8try_fold9enumerateRNtNtCsc29TF2YcYso_3syn4data5FielduINtNtNtBf_3ops12control_flow11ControlFlowIB2F_NtNtCsfWotccrMQ3I_14thiserror_impl3ast5FieldEENCINvNtBb_3map12map_try_foldTjB25_EINtNtBf_6result6ResultB3o_NtNtB2a_5error5ErrorEuB2E_NCNvMs2_B3q_B3o_17multiple_from_syn0NCINvXBb_INtBb_12GenericShuntINtB4d_3MapIBX_INtNtB2a_10punctuated4IterB26_EEB5x_EIB4I_NtNtBf_7convert10InfallibleB57_EEB1e_8try_folduNCINvNvB1e_12try_for_each4callB3o_B3j_NcNtB3j_5Break0E0B3j_E0E0E0B3s_, symObjAddr: 0x8A0, symBinAddr: 0x56B3C, symSize: 0xCC }
  - { offset: 0x130493, size: 0x8, addend: 0x0, symName: __RINvXs_NtNtNtCsaNl6UpbT7bw_4core4iter8adapters9enumerateINtB5_9EnumerateINtNtCsc29TF2YcYso_3syn10punctuated4IterNtNtB1d_4data5FieldEENtNtNtB9_6traits8iterator8Iterator8try_folduNCINvNtB7_3map12map_try_foldTjRB1M_EINtNtBb_6result6ResultNtNtCsfWotccrMQ3I_14thiserror_impl3ast5FieldNtNtB1d_5error5ErrorEuINtNtNtBb_3ops12control_flow11ControlFlowIB4Q_B3L_EENCNvMs2_B3N_B3L_17multiple_from_syn0NCINvXB7_INtB7_12GenericShuntINtB2U_3MapBS_B5F_EIB3q_NtNtBb_7convert10InfallibleB4t_EEB27_8try_folduNCINvNvB27_12try_for_each4callB3L_B5u_NcNtB5u_5Break0E0B5u_E0E0B4P_EB3P_, symObjAddr: 0x6FC, symBinAddr: 0x56998, symSize: 0x4C }
  - { offset: 0x130526, size: 0x8, addend: 0x0, symName: __RNvXs_NtNtNtCsaNl6UpbT7bw_4core4iter8adapters9enumerateINtB4_9EnumerateINtNtCsc29TF2YcYso_3syn10punctuated4IterNtNtB1c_4data5FieldEENtNtNtB8_6traits8iterator8Iterator9size_hintCsfWotccrMQ3I_14thiserror_impl, symObjAddr: 0x2570, symBinAddr: 0x5880C, symSize: 0x24 }
  - { offset: 0x13055B, size: 0x8, addend: 0x0, symName: __RNvXs_NtNtNtCsaNl6UpbT7bw_4core4iter8adapters9enumerateINtB4_9EnumerateINtNtNtBa_5slice4iter4IterNtNtCsfWotccrMQ3I_14thiserror_impl3ast5FieldEENtNtNtB8_6traits8iterator8Iterator4nextB1B_, symObjAddr: 0x2594, symBinAddr: 0x58830, symSize: 0xE0 }
  - { offset: 0x13063D, size: 0x8, addend: 0x0, symName: __RNvXs_NtNtNtCsaNl6UpbT7bw_4core4iter8adapters9enumerateINtB4_9EnumerateINtNtNtBa_5slice4iter4IterNtNtCsfWotccrMQ3I_14thiserror_impl5unraw10IdentUnrawEENtNtNtB8_6traits8iterator8Iterator4nextB1B_, symObjAddr: 0x2674, symBinAddr: 0x58910, symSize: 0xE0 }
  - { offset: 0x13071F, size: 0x8, addend: 0x0, symName: __RNvXs_NtNtNtCsaNl6UpbT7bw_4core4iter8adapters9enumerateINtB4_9EnumerateINtNtNtBa_5slice4iter4IterNtNtCsiTraAjBDcu4_5alloc6string6StringEENtNtNtB8_6traits8iterator8Iterator4nextCsfWotccrMQ3I_14thiserror_impl, symObjAddr: 0x2754, symBinAddr: 0x589F0, symSize: 0xE0 }
  - { offset: 0x130801, size: 0x8, addend: 0x0, symName: __RNvXs_NtNtNtCsaNl6UpbT7bw_4core4iter8adapters9enumerateINtB4_9EnumerateINtNtNtBa_5slice4iter4IterRNtCshnvkK9b4wzu_11proc_macro25IdentEENtNtNtB8_6traits8iterator8Iterator4nextCsfWotccrMQ3I_14thiserror_impl, symObjAddr: 0x2834, symBinAddr: 0x58AD0, symSize: 0xE0 }
  - { offset: 0x1308E3, size: 0x8, addend: 0x0, symName: __RNvXs_NtNtNtCsaNl6UpbT7bw_4core4iter8adapters9enumerateINtB4_9EnumerateINtNtNtBa_5slice4iter4IterTNtCshnvkK9b4wzu_11proc_macro25IdentNtB1A_11TokenStreamEEENtNtNtB8_6traits8iterator8Iterator4nextCsfWotccrMQ3I_14thiserror_impl, symObjAddr: 0x2914, symBinAddr: 0x58BB0, symSize: 0xE0 }
  - { offset: 0x1309C5, size: 0x8, addend: 0x0, symName: __RNvXs_NtNtNtCsaNl6UpbT7bw_4core4iter8adapters9enumerateINtB4_9EnumerateINtNtNtBa_5slice4iter4IterTjNtNtCsfWotccrMQ3I_14thiserror_impl4attr5TraitEEENtNtNtB8_6traits8iterator8Iterator4nextB1D_, symObjAddr: 0x29F4, symBinAddr: 0x58C90, symSize: 0xE0 }
  - { offset: 0x130C31, size: 0x8, addend: 0x0, symName: __RINvYINtNtNtNtCsaNl6UpbT7bw_4core4iter8adapters9enumerate9EnumerateINtNtCsc29TF2YcYso_3syn10punctuated4IterNtNtB18_4data5FieldEENtNtNtBa_6traits8iterator8Iterator3mapINtNtBc_6result6ResultNtNtCsfWotccrMQ3I_14thiserror_impl3ast5FieldNtNtB18_5error5ErrorENCNvMs2_B32_B30_17multiple_from_syn0EB34_, symObjAddr: 0x83C, symBinAddr: 0x56AD8, symSize: 0x28 }
  - { offset: 0x130CAA, size: 0x8, addend: 0x0, symName: __RNvXNtNtNtCsaNl6UpbT7bw_4core4iter6traits7collectINtNtNtB6_8adapters9enumerate9EnumerateINtNtNtB8_5slice4iter4IterNtNtCsfWotccrMQ3I_14thiserror_impl3ast5FieldEENtB2_12IntoIterator9into_iterB1S_, symObjAddr: 0x1FF8, symBinAddr: 0x58294, symSize: 0x18 }
  - { offset: 0x131BB0, size: 0x8, addend: 0x0, symName: __RNvNtNtNtNtCsaNl6UpbT7bw_4core9core_arch7aarch644neon9generated7vld1_u8CsfWotccrMQ3I_14thiserror_impl, symObjAddr: 0x1484, symBinAddr: 0x57720, symSize: 0x34 }
  - { offset: 0x131BDE, size: 0x8, addend: 0x0, symName: __RNvNtNtNtNtCsaNl6UpbT7bw_4core9core_arch7aarch644neon9generated7vst1_u8CsfWotccrMQ3I_14thiserror_impl, symObjAddr: 0x14B8, symBinAddr: 0x57754, symSize: 0x40 }
  - { offset: 0x131C18, size: 0x8, addend: 0x0, symName: __RNvNtNtNtNtCsaNl6UpbT7bw_4core9core_arch7aarch644neon9generated8vcgez_s8CsfWotccrMQ3I_14thiserror_impl, symObjAddr: 0x14F8, symBinAddr: 0x57794, symSize: 0x68 }
  - { offset: 0x131CBA, size: 0x8, addend: 0x0, symName: __RNvNtNtNtNtCsaNl6UpbT7bw_4core9core_arch7aarch644neon9generated8vcltz_s8CsfWotccrMQ3I_14thiserror_impl, symObjAddr: 0x1560, symBinAddr: 0x577FC, symSize: 0x68 }
  - { offset: 0x132ED9, size: 0x8, addend: 0x0, symName: __RNvXs1_NtCsiTraAjBDcu4_5alloc7raw_vecINtB5_6RawVecNtCshnvkK9b4wzu_11proc_macro211TokenStreamENtNtNtCsaNl6UpbT7bw_4core3ops4drop4Drop4dropCsfWotccrMQ3I_14thiserror_impl, symObjAddr: 0x2020, symBinAddr: 0x582BC, symSize: 0x34 }
  - { offset: 0x132F15, size: 0x8, addend: 0x0, symName: __RNvXs1_NtCsiTraAjBDcu4_5alloc7raw_vecINtB5_6RawVecNtNtCsfWotccrMQ3I_14thiserror_impl3ast5FieldENtNtNtCsaNl6UpbT7bw_4core3ops4drop4Drop4dropBQ_, symObjAddr: 0x2054, symBinAddr: 0x582F0, symSize: 0x34 }
  - { offset: 0x132F51, size: 0x8, addend: 0x0, symName: __RNvXs1_NtCsiTraAjBDcu4_5alloc7raw_vecINtB5_6RawVecNtNtCsfWotccrMQ3I_14thiserror_impl3ast7VariantENtNtNtCsaNl6UpbT7bw_4core3ops4drop4Drop4dropBQ_, symObjAddr: 0x2088, symBinAddr: 0x58324, symSize: 0x34 }
  - { offset: 0x132F8D, size: 0x8, addend: 0x0, symName: __RNvXs1_NtCsiTraAjBDcu4_5alloc7raw_vecINtB5_6RawVecRNtCshnvkK9b4wzu_11proc_macro25IdentENtNtNtCsaNl6UpbT7bw_4core3ops4drop4Drop4dropCsfWotccrMQ3I_14thiserror_impl, symObjAddr: 0x20BC, symBinAddr: 0x58358, symSize: 0x30 }
  - { offset: 0x132FC9, size: 0x8, addend: 0x0, symName: __RNvXs1_NtCsiTraAjBDcu4_5alloc7raw_vecINtB5_6RawVecTNtCshnvkK9b4wzu_11proc_macro211TokenStreamNtNtCsc29TF2YcYso_3syn5token4PlusEENtNtNtCsaNl6UpbT7bw_4core3ops4drop4Drop4dropCsfWotccrMQ3I_14thiserror_impl, symObjAddr: 0x20EC, symBinAddr: 0x58388, symSize: 0x34 }
  - { offset: 0x133005, size: 0x8, addend: 0x0, symName: __RNvXs1_NtCsiTraAjBDcu4_5alloc7raw_vecINtB5_6RawVecTNtCshnvkK9b4wzu_11proc_macro25IdentNtBP_11TokenStreamEENtNtNtCsaNl6UpbT7bw_4core3ops4drop4Drop4dropCsfWotccrMQ3I_14thiserror_impl, symObjAddr: 0x2120, symBinAddr: 0x583BC, symSize: 0x34 }
  - { offset: 0x1340D0, size: 0x8, addend: 0x0, symName: __RINvXsd_NtCsiTraAjBDcu4_5alloc3vecINtB6_3VecNtCshnvkK9b4wzu_11proc_macro211TokenStreamEINtNtNtNtCsaNl6UpbT7bw_4core4iter6traits7collect12FromIteratorBG_E9from_iterINtNtNtB1u_8adapters3map3MapINtNtNtB1w_5slice4iter4IterNtNtCsfWotccrMQ3I_14thiserror_impl3ast7VariantENCNvNtB3y_6expand9impl_enums1_0EEB3y_, symObjAddr: 0x748, symBinAddr: 0x569E4, symSize: 0x3C }
  - { offset: 0x134111, size: 0x8, addend: 0x0, symName: __RINvXsd_NtCsiTraAjBDcu4_5alloc3vecINtB6_3VecNtNtCsfWotccrMQ3I_14thiserror_impl3ast5FieldEINtNtNtNtCsaNl6UpbT7bw_4core4iter6traits7collect12FromIteratorBG_E9from_iterINtNtB1w_8adapters12GenericShuntINtNtB2G_3map3MapINtNtB2G_9enumerate9EnumerateINtNtCsc29TF2YcYso_3syn10punctuated4IterNtNtB3Y_4data5FieldEENCNvMs2_BI_BG_17multiple_from_syn0EINtNtB1y_6result6ResultNtNtB1y_7convert10InfallibleNtNtB3Y_5error5ErrorEEEBK_, symObjAddr: 0x784, symBinAddr: 0x56A20, symSize: 0x3C }
  - { offset: 0x134152, size: 0x8, addend: 0x0, symName: __RINvXsd_NtCsiTraAjBDcu4_5alloc3vecINtB6_3VecNtNtCsfWotccrMQ3I_14thiserror_impl3ast7VariantEINtNtNtNtCsaNl6UpbT7bw_4core4iter6traits7collect12FromIteratorBG_E9from_iterINtNtB1y_8adapters12GenericShuntINtNtB2I_3map3MapINtNtCsc29TF2YcYso_3syn10punctuated4IterNtNtB3x_4data7VariantENCNvMs0_BI_NtBI_4Enum8from_syn0EINtNtB1A_6result6ResultNtNtB1A_7convert10InfallibleNtNtB3x_5error5ErrorEEEBK_, symObjAddr: 0x7C0, symBinAddr: 0x56A5C, symSize: 0x3C }
  - { offset: 0x134193, size: 0x8, addend: 0x0, symName: __RINvXsd_NtCsiTraAjBDcu4_5alloc3vecINtB6_3VecRNtCshnvkK9b4wzu_11proc_macro25IdentEINtNtNtNtCsaNl6UpbT7bw_4core4iter6traits7collect12FromIteratorBG_E9from_iterINtNtNtB1o_8adapters3map3MapNtNtCsc29TF2YcYso_3syn8generics10TypeParamsNCNvMNtCsfWotccrMQ3I_14thiserror_impl8genericsNtB3J_13ParamsInScope3new0EEB3L_, symObjAddr: 0x7FC, symBinAddr: 0x56A98, symSize: 0x40 }
  - { offset: 0x1341DE, size: 0x8, addend: 0x0, symName: __RNCINvMsi_NtCsiTraAjBDcu4_5alloc3vecINtB8_3VecNtCshnvkK9b4wzu_11proc_macro211TokenStreamE14extend_trustedINtNtNtNtCsaNl6UpbT7bw_4core4iter8adapters3map3MapINtNtNtB1O_5slice4iter4IterNtNtCsfWotccrMQ3I_14thiserror_impl3ast7VariantENCNvNtB2Y_6expand9impl_enums1_0EE0B2Y_, symObjAddr: 0x864, symBinAddr: 0x56B00, symSize: 0x3C }
  - { offset: 0x13429F, size: 0x8, addend: 0x0, symName: __RNvXNtNtCsiTraAjBDcu4_5alloc3vec11spec_extendINtB4_3VecNtNtCsfWotccrMQ3I_14thiserror_impl3ast5FieldEINtB2_10SpecExtendBR_INtNtNtCsaNl6UpbT7bw_4core4iter8adapters12GenericShuntINtNtB1Y_3map3MapINtNtB1Y_9enumerate9EnumerateINtNtCsc29TF2YcYso_3syn10punctuated4IterNtNtB3C_4data5FieldEENCNvMs2_BT_BR_17multiple_from_syn0EINtNtB22_6result6ResultNtNtB22_7convert10InfallibleNtNtB3C_5error5ErrorEEE11spec_extendBV_, symObjAddr: 0x1874, symBinAddr: 0x57B10, symSize: 0x24 }
  - { offset: 0x1342F1, size: 0x8, addend: 0x0, symName: __RNvXNtNtCsiTraAjBDcu4_5alloc3vec11spec_extendINtB4_3VecNtNtCsfWotccrMQ3I_14thiserror_impl3ast7VariantEINtB2_10SpecExtendBR_INtNtNtCsaNl6UpbT7bw_4core4iter8adapters12GenericShuntINtNtB20_3map3MapINtNtCsc29TF2YcYso_3syn10punctuated4IterNtNtB3b_4data7VariantENCNvMs0_BT_NtBT_4Enum8from_syn0EINtNtB24_6result6ResultNtNtB24_7convert10InfallibleNtNtB3b_5error5ErrorEEE11spec_extendBV_, symObjAddr: 0x1898, symBinAddr: 0x57B34, symSize: 0x24 }
  - { offset: 0x134343, size: 0x8, addend: 0x0, symName: __RNvXNtNtCsiTraAjBDcu4_5alloc3vec11spec_extendINtB4_3VecRNtCshnvkK9b4wzu_11proc_macro25IdentEINtB2_10SpecExtendBR_INtNtNtNtCsaNl6UpbT7bw_4core4iter8adapters3map3MapNtNtCsc29TF2YcYso_3syn8generics10TypeParamsNCNvMNtCsfWotccrMQ3I_14thiserror_impl8genericsNtB3n_13ParamsInScope3new0EE11spec_extendB3p_, symObjAddr: 0x18BC, symBinAddr: 0x57B58, symSize: 0x34 }
  - { offset: 0x13439A, size: 0x8, addend: 0x0, symName: __RNvXs_NtNtCsiTraAjBDcu4_5alloc3vec11spec_extendINtB6_3VecNtCshnvkK9b4wzu_11proc_macro211TokenStreamEINtB4_10SpecExtendBT_INtNtNtNtCsaNl6UpbT7bw_4core4iter8adapters3map3MapINtNtNtB24_5slice4iter4IterNtNtCsfWotccrMQ3I_14thiserror_impl3ast7VariantENCNvNtB3e_6expand9impl_enums1_0EE11spec_extendB3e_, symObjAddr: 0x23E4, symBinAddr: 0x58680, symSize: 0x24 }
  - { offset: 0x1343F8, size: 0x8, addend: 0x0, symName: __RNvXNtNtCsiTraAjBDcu4_5alloc3vec14spec_from_iterINtB4_3VecNtCshnvkK9b4wzu_11proc_macro211TokenStreamEINtB2_12SpecFromIterBU_INtNtNtNtCsaNl6UpbT7bw_4core4iter8adapters3map3MapINtNtNtB27_5slice4iter4IterNtNtCsfWotccrMQ3I_14thiserror_impl3ast7VariantENCNvNtB3h_6expand9impl_enums1_0EE9from_iterB3h_, symObjAddr: 0x18F0, symBinAddr: 0x57B8C, symSize: 0x14 }
  - { offset: 0x134437, size: 0x8, addend: 0x0, symName: __RNvXNtNtCsiTraAjBDcu4_5alloc3vec14spec_from_iterINtB4_3VecNtNtCsfWotccrMQ3I_14thiserror_impl3ast5FieldEINtB2_12SpecFromIterBU_INtNtNtCsaNl6UpbT7bw_4core4iter8adapters12GenericShuntINtNtB23_3map3MapINtNtB23_9enumerate9EnumerateINtNtCsc29TF2YcYso_3syn10punctuated4IterNtNtB3H_4data5FieldEENCNvMs2_BW_BU_17multiple_from_syn0EINtNtB27_6result6ResultNtNtB27_7convert10InfallibleNtNtB3H_5error5ErrorEEE9from_iterBY_, symObjAddr: 0x1904, symBinAddr: 0x57BA0, symSize: 0x14 }
  - { offset: 0x134476, size: 0x8, addend: 0x0, symName: __RNvXNtNtCsiTraAjBDcu4_5alloc3vec14spec_from_iterINtB4_3VecNtNtCsfWotccrMQ3I_14thiserror_impl3ast7VariantEINtB2_12SpecFromIterBU_INtNtNtCsaNl6UpbT7bw_4core4iter8adapters12GenericShuntINtNtB25_3map3MapINtNtCsc29TF2YcYso_3syn10punctuated4IterNtNtB3g_4data7VariantENCNvMs0_BW_NtBW_4Enum8from_syn0EINtNtB29_6result6ResultNtNtB29_7convert10InfallibleNtNtB3g_5error5ErrorEEE9from_iterBY_, symObjAddr: 0x1918, symBinAddr: 0x57BB4, symSize: 0x14 }
  - { offset: 0x1344B5, size: 0x8, addend: 0x0, symName: __RNvXNtNtCsiTraAjBDcu4_5alloc3vec14spec_from_iterINtB4_3VecRNtCshnvkK9b4wzu_11proc_macro25IdentEINtB2_12SpecFromIterBU_INtNtNtNtCsaNl6UpbT7bw_4core4iter8adapters3map3MapNtNtCsc29TF2YcYso_3syn8generics10TypeParamsNCNvMNtCsfWotccrMQ3I_14thiserror_impl8genericsNtB3s_13ParamsInScope3new0EE9from_iterB3u_, symObjAddr: 0x192C, symBinAddr: 0x57BC8, symSize: 0x2C }
  - { offset: 0x1344FF, size: 0x8, addend: 0x0, symName: __RNvXNtNtCsiTraAjBDcu4_5alloc3vec21spec_from_iter_nestedINtB4_3VecNtNtCsfWotccrMQ3I_14thiserror_impl3ast5FieldEINtB2_18SpecFromIterNestedB11_INtNtNtCsaNl6UpbT7bw_4core4iter8adapters12GenericShuntINtNtB2h_3map3MapINtNtB2h_9enumerate9EnumerateINtNtCsc29TF2YcYso_3syn10punctuated4IterNtNtB3V_4data5FieldEENCNvMs2_B13_B11_17multiple_from_syn0EINtNtB2l_6result6ResultNtNtB2l_7convert10InfallibleNtNtB3V_5error5ErrorEEE9from_iterB15_, symObjAddr: 0x1958, symBinAddr: 0x57BF4, symSize: 0x24C }
  - { offset: 0x13471E, size: 0x8, addend: 0x0, symName: __RNvXNtNtCsiTraAjBDcu4_5alloc3vec21spec_from_iter_nestedINtB4_3VecNtNtCsfWotccrMQ3I_14thiserror_impl3ast7VariantEINtB2_18SpecFromIterNestedB11_INtNtNtCsaNl6UpbT7bw_4core4iter8adapters12GenericShuntINtNtB2j_3map3MapINtNtCsc29TF2YcYso_3syn10punctuated4IterNtNtB3u_4data7VariantENCNvMs0_B13_NtB13_4Enum8from_syn0EINtNtB2n_6result6ResultNtNtB2n_7convert10InfallibleNtNtB3u_5error5ErrorEEE9from_iterB15_, symObjAddr: 0x1BA4, symBinAddr: 0x57E40, symSize: 0x250 }
  - { offset: 0x13493D, size: 0x8, addend: 0x0, symName: __RNvXNtNtCsiTraAjBDcu4_5alloc3vec21spec_from_iter_nestedINtB4_3VecRNtCshnvkK9b4wzu_11proc_macro25IdentEINtB2_18SpecFromIterNestedB11_INtNtNtNtCsaNl6UpbT7bw_4core4iter8adapters3map3MapNtNtCsc29TF2YcYso_3syn8generics10TypeParamsNCNvMNtCsfWotccrMQ3I_14thiserror_impl8genericsNtB3G_13ParamsInScope3new0EE9from_iterB3I_, symObjAddr: 0x1DF4, symBinAddr: 0x58090, symSize: 0x204 }
  - { offset: 0x134B61, size: 0x8, addend: 0x0, symName: __RNvXs_NtNtCsiTraAjBDcu4_5alloc3vec21spec_from_iter_nestedINtB6_3VecNtCshnvkK9b4wzu_11proc_macro211TokenStreamEINtB4_18SpecFromIterNestedB13_INtNtNtNtCsaNl6UpbT7bw_4core4iter8adapters3map3MapINtNtNtB2n_5slice4iter4IterNtNtCsfWotccrMQ3I_14thiserror_impl3ast7VariantENCNvNtB3x_6expand9impl_enums1_0EE9from_iterB3x_, symObjAddr: 0x2408, symBinAddr: 0x586A4, symSize: 0x168 }
  - { offset: 0x134C3F, size: 0x8, addend: 0x0, symName: __RNvXs6_NtCsiTraAjBDcu4_5alloc3vecINtB5_3VecNtCshnvkK9b4wzu_11proc_macro211TokenStreamENtNtNtCsaNl6UpbT7bw_4core3ops5deref5Deref5derefCsfWotccrMQ3I_14thiserror_impl, symObjAddr: 0x218C, symBinAddr: 0x58428, symSize: 0x24 }
  - { offset: 0x134C7F, size: 0x8, addend: 0x0, symName: __RNvXs6_NtCsiTraAjBDcu4_5alloc3vecINtB5_3VecNtNtCsfWotccrMQ3I_14thiserror_impl3ast5FieldENtNtNtCsaNl6UpbT7bw_4core3ops5deref5Deref5derefBJ_, symObjAddr: 0x21B0, symBinAddr: 0x5844C, symSize: 0x24 }
  - { offset: 0x134CBF, size: 0x8, addend: 0x0, symName: __RNvXs6_NtCsiTraAjBDcu4_5alloc3vecINtB5_3VecNtNtCsfWotccrMQ3I_14thiserror_impl3ast7VariantENtNtNtCsaNl6UpbT7bw_4core3ops5deref5Deref5derefBJ_, symObjAddr: 0x21D4, symBinAddr: 0x58470, symSize: 0x24 }
  - { offset: 0x134CFF, size: 0x8, addend: 0x0, symName: __RNvXs6_NtCsiTraAjBDcu4_5alloc3vecINtB5_3VecTNtCshnvkK9b4wzu_11proc_macro211TokenStreamNtNtCsc29TF2YcYso_3syn5token4PlusEENtNtNtCsaNl6UpbT7bw_4core3ops5deref5Deref5derefCsfWotccrMQ3I_14thiserror_impl, symObjAddr: 0x21F8, symBinAddr: 0x58494, symSize: 0x24 }
  - { offset: 0x134D3F, size: 0x8, addend: 0x0, symName: __RNvXs6_NtCsiTraAjBDcu4_5alloc3vecINtB5_3VecTNtCshnvkK9b4wzu_11proc_macro25IdentNtBI_11TokenStreamEENtNtNtCsaNl6UpbT7bw_4core3ops5deref5Deref5derefCsfWotccrMQ3I_14thiserror_impl, symObjAddr: 0x221C, symBinAddr: 0x584B8, symSize: 0x24 }
  - { offset: 0x134EA5, size: 0x8, addend: 0x0, symName: __RNvXs9_NtCsiTraAjBDcu4_5alloc3vecINtB5_3VecTNtCshnvkK9b4wzu_11proc_macro25IdentNtBI_11TokenStreamEENtNtCsaNl6UpbT7bw_4core5clone5Clone5cloneCsfWotccrMQ3I_14thiserror_impl, symObjAddr: 0x2354, symBinAddr: 0x585F0, symSize: 0x90 }
  - { offset: 0x13507C, size: 0x8, addend: 0x0, symName: __RNvXsb_NtCsiTraAjBDcu4_5alloc3vecINtB5_3VecNtNtCsfWotccrMQ3I_14thiserror_impl3ast5FieldEINtNtNtCsaNl6UpbT7bw_4core3ops5index5IndexjE5indexBJ_, symObjAddr: 0x2AD4, symBinAddr: 0x58D70, symSize: 0x8C }
  - { offset: 0x1351FE, size: 0x8, addend: 0x0, symName: __RNvXsb_NtCsiTraAjBDcu4_5alloc3vecINtB5_3VecTNtNtCsc29TF2YcYso_3syn4path15GenericArgumentNtNtBK_5token5CommaEEINtNtNtCsaNl6UpbT7bw_4core3ops5index5IndexjE5indexCsfWotccrMQ3I_14thiserror_impl, symObjAddr: 0x2B60, symBinAddr: 0x58DFC, symSize: 0x8C }
  - { offset: 0x135386, size: 0x8, addend: 0x0, symName: __RNvXse_NtCsiTraAjBDcu4_5alloc3vecINtB5_3VecRNtCshnvkK9b4wzu_11proc_macro25IdentENtNtNtNtCsaNl6UpbT7bw_4core4iter6traits7collect12IntoIterator9into_iterCsfWotccrMQ3I_14thiserror_impl, symObjAddr: 0x2BEC, symBinAddr: 0x58E88, symSize: 0xDC }
  - { offset: 0x13561E, size: 0x8, addend: 0x0, symName: __RNvXsf_NtCsiTraAjBDcu4_5alloc3vecRINtB5_3VecNtCshnvkK9b4wzu_11proc_macro211TokenStreamENtNtNtNtCsaNl6UpbT7bw_4core4iter6traits7collect12IntoIterator9into_iterCsfWotccrMQ3I_14thiserror_impl, symObjAddr: 0x2CC8, symBinAddr: 0x58F64, symSize: 0xA4 }
  - { offset: 0x13585C, size: 0x8, addend: 0x0, symName: __RNvXsf_NtCsiTraAjBDcu4_5alloc3vecRINtB5_3VecNtNtCsfWotccrMQ3I_14thiserror_impl3ast5FieldENtNtNtNtCsaNl6UpbT7bw_4core4iter6traits7collect12IntoIterator9into_iterBK_, symObjAddr: 0x2D6C, symBinAddr: 0x59008, symSize: 0xAC }
  - { offset: 0x135A9A, size: 0x8, addend: 0x0, symName: __RNvXsf_NtCsiTraAjBDcu4_5alloc3vecRINtB5_3VecNtNtCsfWotccrMQ3I_14thiserror_impl3ast7VariantENtNtNtNtCsaNl6UpbT7bw_4core4iter6traits7collect12IntoIterator9into_iterBK_, symObjAddr: 0x2E18, symBinAddr: 0x590B4, symSize: 0xAC }
  - { offset: 0x135CDE, size: 0x8, addend: 0x0, symName: __RNvXsn_NtCsiTraAjBDcu4_5alloc3vecINtB5_3VecNtCshnvkK9b4wzu_11proc_macro211TokenStreamENtNtNtCsaNl6UpbT7bw_4core3ops4drop4Drop4dropCsfWotccrMQ3I_14thiserror_impl, symObjAddr: 0x2EC4, symBinAddr: 0x59160, symSize: 0x38 }
  - { offset: 0x135D8E, size: 0x8, addend: 0x0, symName: __RNvXsn_NtCsiTraAjBDcu4_5alloc3vecINtB5_3VecNtNtCsfWotccrMQ3I_14thiserror_impl3ast5FieldENtNtNtCsaNl6UpbT7bw_4core3ops4drop4Drop4dropBJ_, symObjAddr: 0x2EFC, symBinAddr: 0x59198, symSize: 0x38 }
  - { offset: 0x135E3E, size: 0x8, addend: 0x0, symName: __RNvXsn_NtCsiTraAjBDcu4_5alloc3vecINtB5_3VecNtNtCsfWotccrMQ3I_14thiserror_impl3ast7VariantENtNtNtCsaNl6UpbT7bw_4core3ops4drop4Drop4dropBJ_, symObjAddr: 0x2F34, symBinAddr: 0x591D0, symSize: 0x38 }
  - { offset: 0x135EEE, size: 0x8, addend: 0x0, symName: __RNvXsn_NtCsiTraAjBDcu4_5alloc3vecINtB5_3VecRNtCshnvkK9b4wzu_11proc_macro25IdentENtNtNtCsaNl6UpbT7bw_4core3ops4drop4Drop4dropCsfWotccrMQ3I_14thiserror_impl, symObjAddr: 0x2F6C, symBinAddr: 0x59208, symSize: 0x24 }
  - { offset: 0x135F9E, size: 0x8, addend: 0x0, symName: __RNvXsn_NtCsiTraAjBDcu4_5alloc3vecINtB5_3VecTNtCshnvkK9b4wzu_11proc_macro211TokenStreamNtNtCsc29TF2YcYso_3syn5token4PlusEENtNtNtCsaNl6UpbT7bw_4core3ops4drop4Drop4dropCsfWotccrMQ3I_14thiserror_impl, symObjAddr: 0x2F90, symBinAddr: 0x5922C, symSize: 0x38 }
  - { offset: 0x13604E, size: 0x8, addend: 0x0, symName: __RNvXsn_NtCsiTraAjBDcu4_5alloc3vecINtB5_3VecTNtCshnvkK9b4wzu_11proc_macro25IdentNtBI_11TokenStreamEENtNtNtCsaNl6UpbT7bw_4core3ops4drop4Drop4dropCsfWotccrMQ3I_14thiserror_impl, symObjAddr: 0x2FC8, symBinAddr: 0x59264, symSize: 0x38 }
  - { offset: 0x136871, size: 0x8, addend: 0x0, symName: __RNvXs8_NtCsiTraAjBDcu4_5alloc5sliceINtNtB7_3vec3VecRNtCshnvkK9b4wzu_11proc_macro25IdentEINtNtNtNtCsaNl6UpbT7bw_4core5slice4sort6stable8BufGuardBN_E13with_capacityCsfWotccrMQ3I_14thiserror_impl, symObjAddr: 0x2240, symBinAddr: 0x584DC, symSize: 0x48 }
  - { offset: 0x136912, size: 0x8, addend: 0x0, symName: __RNvXs8_NtCsiTraAjBDcu4_5alloc5sliceINtNtB7_3vec3VecRNtCshnvkK9b4wzu_11proc_macro25IdentEINtNtNtNtCsaNl6UpbT7bw_4core5slice4sort6stable8BufGuardBN_E19as_uninit_slice_mutCsfWotccrMQ3I_14thiserror_impl, symObjAddr: 0x2288, symBinAddr: 0x58524, symSize: 0xCC }
  - { offset: 0x13C0F8, size: 0x8, addend: 0x0, symName: __RINvMsi_NtCsiTraAjBDcu4_5alloc3vecINtB6_3VecNtCshnvkK9b4wzu_11proc_macro211TokenStreamE14extend_trustedINtNtNtNtCsaNl6UpbT7bw_4core4iter8adapters3map3MapINtNtNtB1M_5slice4iter4IterNtNtCsfWotccrMQ3I_14thiserror_impl3ast7VariantENCNvNtB2W_6expand9impl_enums1_0EEB2W_, symObjAddr: 0x0, symBinAddr: 0x5629C, symSize: 0x178 }
  - { offset: 0x13C568, size: 0x8, addend: 0x0, symName: __RINvMsi_NtCsiTraAjBDcu4_5alloc3vecINtB6_3VecNtNtCsfWotccrMQ3I_14thiserror_impl3ast5FieldE16extend_desugaredINtNtNtCsaNl6UpbT7bw_4core4iter8adapters12GenericShuntINtNtB1K_3map3MapINtNtB1K_9enumerate9EnumerateINtNtCsc29TF2YcYso_3syn10punctuated4IterNtNtB3o_4data5FieldEENCNvMs2_BI_BG_17multiple_from_syn0EINtNtB1O_6result6ResultNtNtB1O_7convert10InfallibleNtNtB3o_5error5ErrorEEEBK_, symObjAddr: 0x178, symBinAddr: 0x56414, symSize: 0x1FC }
  - { offset: 0x13C987, size: 0x8, addend: 0x0, symName: __RINvMsi_NtCsiTraAjBDcu4_5alloc3vecINtB6_3VecNtNtCsfWotccrMQ3I_14thiserror_impl3ast7VariantE16extend_desugaredINtNtNtCsaNl6UpbT7bw_4core4iter8adapters12GenericShuntINtNtB1M_3map3MapINtNtCsc29TF2YcYso_3syn10punctuated4IterNtNtB2X_4data7VariantENCNvMs0_BI_NtBI_4Enum8from_syn0EINtNtB1Q_6result6ResultNtNtB1Q_7convert10InfallibleNtNtB2X_5error5ErrorEEEBK_, symObjAddr: 0x374, symBinAddr: 0x56610, symSize: 0x1FC }
  - { offset: 0x13CD8C, size: 0x8, addend: 0x0, symName: __RINvMsi_NtCsiTraAjBDcu4_5alloc3vecINtB6_3VecRNtCshnvkK9b4wzu_11proc_macro25IdentE16extend_desugaredINtNtNtNtCsaNl6UpbT7bw_4core4iter8adapters3map3MapNtNtCsc29TF2YcYso_3syn8generics10TypeParamsNCNvMNtCsfWotccrMQ3I_14thiserror_impl8genericsNtB39_13ParamsInScope3new0EEB3b_, symObjAddr: 0x570, symBinAddr: 0x5680C, symSize: 0x18C }
  - { offset: 0x13D036, size: 0x8, addend: 0x0, symName: __RNvMNtCsiTraAjBDcu4_5alloc3vecINtB2_3VecNtCshnvkK9b4wzu_11proc_macro211TokenStreamE3newCsfWotccrMQ3I_14thiserror_impl, symObjAddr: 0x96C, symBinAddr: 0x56C08, symSize: 0x14 }
  - { offset: 0x13D053, size: 0x8, addend: 0x0, symName: __RNvMNtCsiTraAjBDcu4_5alloc3vecINtB2_3VecTNtCshnvkK9b4wzu_11proc_macro211TokenStreamNtNtCsc29TF2YcYso_3syn5token4PlusEE3newCsfWotccrMQ3I_14thiserror_impl, symObjAddr: 0x980, symBinAddr: 0x56C1C, symSize: 0x14 }
  - { offset: 0x13D070, size: 0x8, addend: 0x0, symName: __RNvMNtCsiTraAjBDcu4_5alloc3vecINtB2_3VecTNtCshnvkK9b4wzu_11proc_macro25IdentNtBF_11TokenStreamEE3newCsfWotccrMQ3I_14thiserror_impl, symObjAddr: 0x994, symBinAddr: 0x56C30, symSize: 0x14 }
  - { offset: 0x13D0DF, size: 0x8, addend: 0x0, symName: __RNvMs0_NtCsiTraAjBDcu4_5alloc7raw_vecINtB5_6RawVecNtCshnvkK9b4wzu_11proc_macro211TokenStreamE8grow_oneCsfWotccrMQ3I_14thiserror_impl, symObjAddr: 0x9A8, symBinAddr: 0x56C44, symSize: 0x90 }
  - { offset: 0x13D18D, size: 0x8, addend: 0x0, symName: __RNvMs0_NtCsiTraAjBDcu4_5alloc7raw_vecINtB5_6RawVecTNtCshnvkK9b4wzu_11proc_macro211TokenStreamNtNtCsc29TF2YcYso_3syn5token4PlusEE8grow_oneCsfWotccrMQ3I_14thiserror_impl, symObjAddr: 0xA38, symBinAddr: 0x56CD4, symSize: 0x90 }
  - { offset: 0x13D23B, size: 0x8, addend: 0x0, symName: __RNvMs0_NtCsiTraAjBDcu4_5alloc7raw_vecINtB5_6RawVecTNtCshnvkK9b4wzu_11proc_macro25IdentNtBP_11TokenStreamEE8grow_oneCsfWotccrMQ3I_14thiserror_impl, symObjAddr: 0xAC8, symBinAddr: 0x56D64, symSize: 0x90 }
  - { offset: 0x13D383, size: 0x8, addend: 0x0, symName: __RNvMs_NtCsiTraAjBDcu4_5alloc3vecINtB4_3VecNtCshnvkK9b4wzu_11proc_macro211TokenStreamE4pushCsfWotccrMQ3I_14thiserror_impl, symObjAddr: 0xBCC, symBinAddr: 0x56E68, symSize: 0x100 }
  - { offset: 0x13D64D, size: 0x8, addend: 0x0, symName: __RNvMs_NtCsiTraAjBDcu4_5alloc3vecINtB4_3VecNtCshnvkK9b4wzu_11proc_macro211TokenStreamE7reserveCsfWotccrMQ3I_14thiserror_impl, symObjAddr: 0xCCC, symBinAddr: 0x56F68, symSize: 0xC8 }
  - { offset: 0x13D858, size: 0x8, addend: 0x0, symName: __RNvMs_NtCsiTraAjBDcu4_5alloc3vecINtB4_3VecNtCshnvkK9b4wzu_11proc_macro211TokenStreamE8as_sliceCsfWotccrMQ3I_14thiserror_impl, symObjAddr: 0xD94, symBinAddr: 0x57030, symSize: 0x6C }
  - { offset: 0x13D912, size: 0x8, addend: 0x0, symName: __RNvMs_NtCsiTraAjBDcu4_5alloc3vecINtB4_3VecNtNtCsfWotccrMQ3I_14thiserror_impl3ast5FieldE3lenBI_, symObjAddr: 0xE00, symBinAddr: 0x5709C, symSize: 0x18 }
  - { offset: 0x13DA5D, size: 0x8, addend: 0x0, symName: __RNvMs_NtCsiTraAjBDcu4_5alloc3vecINtB4_3VecNtNtCsfWotccrMQ3I_14thiserror_impl3ast5FieldE7reserveBI_, symObjAddr: 0xE18, symBinAddr: 0x570B4, symSize: 0xC8 }
  - { offset: 0x13DC5B, size: 0x8, addend: 0x0, symName: __RNvMs_NtCsiTraAjBDcu4_5alloc3vecINtB4_3VecNtNtCsfWotccrMQ3I_14thiserror_impl3ast5FieldE8as_sliceBI_, symObjAddr: 0xEE0, symBinAddr: 0x5717C, symSize: 0x6C }
  - { offset: 0x13DE2B, size: 0x8, addend: 0x0, symName: __RNvMs_NtCsiTraAjBDcu4_5alloc3vecINtB4_3VecNtNtCsfWotccrMQ3I_14thiserror_impl3ast7VariantE7reserveBI_, symObjAddr: 0xF4C, symBinAddr: 0x571E8, symSize: 0xC8 }
  - { offset: 0x13E029, size: 0x8, addend: 0x0, symName: __RNvMs_NtCsiTraAjBDcu4_5alloc3vecINtB4_3VecNtNtCsfWotccrMQ3I_14thiserror_impl3ast7VariantE8as_sliceBI_, symObjAddr: 0x1014, symBinAddr: 0x572B0, symSize: 0x6C }
  - { offset: 0x13E108, size: 0x8, addend: 0x0, symName: __RNvMs_NtCsiTraAjBDcu4_5alloc3vecINtB4_3VecNtNtCsfWotccrMQ3I_14thiserror_impl3ast7VariantE8is_emptyBI_, symObjAddr: 0x1080, symBinAddr: 0x5731C, symSize: 0x20 }
  - { offset: 0x13E271, size: 0x8, addend: 0x0, symName: __RNvMs_NtCsiTraAjBDcu4_5alloc3vecINtB4_3VecRNtCshnvkK9b4wzu_11proc_macro25IdentE7reserveCsfWotccrMQ3I_14thiserror_impl, symObjAddr: 0x10A0, symBinAddr: 0x5733C, symSize: 0xBC }
  - { offset: 0x13E4EB, size: 0x8, addend: 0x0, symName: __RNvMs_NtCsiTraAjBDcu4_5alloc3vecINtB4_3VecTNtCshnvkK9b4wzu_11proc_macro211TokenStreamNtNtCsc29TF2YcYso_3syn5token4PlusEE4pushCsfWotccrMQ3I_14thiserror_impl, symObjAddr: 0x115C, symBinAddr: 0x573F8, symSize: 0x118 }
  - { offset: 0x13E744, size: 0x8, addend: 0x0, symName: __RNvMs_NtCsiTraAjBDcu4_5alloc3vecINtB4_3VecTNtCshnvkK9b4wzu_11proc_macro211TokenStreamNtNtCsc29TF2YcYso_3syn5token4PlusEE8as_sliceCsfWotccrMQ3I_14thiserror_impl, symObjAddr: 0x1274, symBinAddr: 0x57510, symSize: 0x6C }
  - { offset: 0x13E911, size: 0x8, addend: 0x0, symName: __RNvMs_NtCsiTraAjBDcu4_5alloc3vecINtB4_3VecTNtCshnvkK9b4wzu_11proc_macro25IdentNtBH_11TokenStreamEE4pushCsfWotccrMQ3I_14thiserror_impl, symObjAddr: 0x12E0, symBinAddr: 0x5757C, symSize: 0x118 }
  - { offset: 0x13EB6A, size: 0x8, addend: 0x0, symName: __RNvMs_NtCsiTraAjBDcu4_5alloc3vecINtB4_3VecTNtCshnvkK9b4wzu_11proc_macro25IdentNtBH_11TokenStreamEE8as_sliceCsfWotccrMQ3I_14thiserror_impl, symObjAddr: 0x13F8, symBinAddr: 0x57694, symSize: 0x6C }
  - { offset: 0x13EC49, size: 0x8, addend: 0x0, symName: __RNvMs_NtCsiTraAjBDcu4_5alloc3vecINtB4_3VecTNtCshnvkK9b4wzu_11proc_macro25IdentNtBH_11TokenStreamEE8is_emptyCsfWotccrMQ3I_14thiserror_impl, symObjAddr: 0x1464, symBinAddr: 0x57700, symSize: 0x20 }
  - { offset: 0x13ED85, size: 0x8, addend: 0x0, symName: __RNvXNtCs4EAaWzSXu1l_5quote14ident_fragmentRReNtB2_13IdentFragment3fmtCsfWotccrMQ3I_14thiserror_impl, symObjAddr: 0x1730, symBinAddr: 0x579CC, symSize: 0x40 }
  - { offset: 0x13EDC8, size: 0x8, addend: 0x0, symName: __RNvXNtCs4EAaWzSXu1l_5quote14ident_fragmentRReNtB2_13IdentFragment4spanCsfWotccrMQ3I_14thiserror_impl, symObjAddr: 0x1770, symBinAddr: 0x57A0C, symSize: 0x38 }
  - { offset: 0x13EDFD, size: 0x8, addend: 0x0, symName: __RNvXNtCs4EAaWzSXu1l_5quote14ident_fragmentReNtB2_13IdentFragment3fmtCsfWotccrMQ3I_14thiserror_impl, symObjAddr: 0x17A8, symBinAddr: 0x57A44, symSize: 0x4C }
  - { offset: 0x13EE40, size: 0x8, addend: 0x0, symName: __RNvXNtCs4EAaWzSXu1l_5quote14ident_fragmentReNtB2_13IdentFragment4spanCsfWotccrMQ3I_14thiserror_impl, symObjAddr: 0x17F4, symBinAddr: 0x57A90, symSize: 0x40 }
  - { offset: 0x13EE75, size: 0x8, addend: 0x0, symName: __RNvXNtCs4EAaWzSXu1l_5quote14ident_fragmentRmNtB2_13IdentFragment3fmtCsfWotccrMQ3I_14thiserror_impl, symObjAddr: 0x1834, symBinAddr: 0x57AD0, symSize: 0x40 }
  - { offset: 0x13EEBE, size: 0x8, addend: 0x0, symName: __RNvYeNtNtCs4EAaWzSXu1l_5quote14ident_fragment13IdentFragment4spanCsfWotccrMQ3I_14thiserror_impl, symObjAddr: 0x308C, symBinAddr: 0x59328, symSize: 0x30 }
  - { offset: 0x13EF04, size: 0x8, addend: 0x0, symName: __RNvXs4_NtNtCs4EAaWzSXu1l_5quote9___private3extINtNtCsiTraAjBDcu4_5alloc3vec3VecNtCshnvkK9b4wzu_11proc_macro211TokenStreamENtB5_16RepAsIteratorExt15quote_into_iterCsfWotccrMQ3I_14thiserror_impl, symObjAddr: 0x2154, symBinAddr: 0x583F0, symSize: 0x38 }
  - { offset: 0x13EF4E, size: 0x8, addend: 0x0, symName: __RNvYNtNtCsc29TF2YcYso_3syn5token8SelfTypeNtNtCs4EAaWzSXu1l_5quote9to_tokens8ToTokens15to_token_streamCsfWotccrMQ3I_14thiserror_impl, symObjAddr: 0x3000, symBinAddr: 0x5929C, symSize: 0x8C }
  - { offset: 0x140397, size: 0x8, addend: 0x0, symName: __RINvXNvMNtCsiTraAjBDcu4_5alloc5sliceSp9to_vec_inNtNtCsc29TF2YcYso_3syn4item11ForeignItemNtB3_10ConvertVec6to_vecNtNtB8_5alloc6GlobalEBO_, symObjAddr: 0x0, symBinAddr: 0x59B10, symSize: 0x374 }
  - { offset: 0x14190E, size: 0x8, addend: 0x0, symName: __RNvXNtNtCsc29TF2YcYso_3syn4item7parsingNtB4_4ItemNtNtB6_5parse5Parse5parse, symObjAddr: 0x35A4, symBinAddr: 0x5B548, symSize: 0x1B4 }
  - { offset: 0x1419B4, size: 0x8, addend: 0x0, symName: __RNvXs0_NtNtCsc29TF2YcYso_3syn4item7parsingNtB7_9ItemMacroNtNtB9_5parse5Parse5parse, symObjAddr: 0x3758, symBinAddr: 0x5B6FC, symSize: 0x628 }
  - { offset: 0x141B82, size: 0x8, addend: 0x0, symName: __RNvXs1_NtNtCsc29TF2YcYso_3syn4item7parsingNtB7_15ItemExternCrateNtNtB9_5parse5Parse5parse, symObjAddr: 0x3D80, symBinAddr: 0x5BD24, symSize: 0x93C }
  - { offset: 0x141D8C, size: 0x8, addend: 0x0, symName: __RNvXs3_NtNtCsc29TF2YcYso_3syn4item7parsingNtB7_7UseTreeNtNtB9_5parse5Parse5parse, symObjAddr: 0x4714, symBinAddr: 0x5C660, symSize: 0x58 }
  - { offset: 0x141DDE, size: 0x8, addend: 0x0, symName: __RNvXs6_NtNtCsc29TF2YcYso_3syn4item7parsingNtB7_9SignatureNtNtB9_5parse5Parse5parse, symObjAddr: 0x5C94, symBinAddr: 0x5C6B8, symSize: 0x60 }
  - { offset: 0x141E30, size: 0x8, addend: 0x0, symName: __RNvXs9_NtNtCsc29TF2YcYso_3syn4item7parsingNtB7_8ReceiverNtNtB9_5parse5Parse5parse, symObjAddr: 0x6324, symBinAddr: 0x5C718, symSize: 0x94C }
  - { offset: 0x142091, size: 0x8, addend: 0x0, symName: __RNvXsa_NtNtCsc29TF2YcYso_3syn4item7parsingNtB7_7ItemModNtNtB9_5parse5Parse5parse, symObjAddr: 0x6C70, symBinAddr: 0x5D064, symSize: 0xC34 }
  - { offset: 0x1422F4, size: 0x8, addend: 0x0, symName: __RNvXsb_NtNtCsc29TF2YcYso_3syn4item7parsingNtB7_14ItemForeignModNtNtB9_5parse5Parse5parse, symObjAddr: 0x78A4, symBinAddr: 0x5DC98, symSize: 0x610 }
  - { offset: 0x1424A5, size: 0x8, addend: 0x0, symName: __RNvXsc_NtNtCsc29TF2YcYso_3syn4item7parsingNtB7_11ForeignItemNtNtB9_5parse5Parse5parse, symObjAddr: 0x7EB4, symBinAddr: 0x5E2A8, symSize: 0x1D8C }
  - { offset: 0x142B15, size: 0x8, addend: 0x0, symName: __RNvXsg_NtNtCsc29TF2YcYso_3syn4item7parsingNtB7_16ForeignItemMacroNtNtB9_5parse5Parse5parse, symObjAddr: 0xAF68, symBinAddr: 0x60034, symSize: 0x32C }
  - { offset: 0x142C29, size: 0x8, addend: 0x0, symName: __RNvXsi_NtNtCsc29TF2YcYso_3syn4item7parsingNtB7_10ItemStructNtNtB9_5parse5Parse5parse, symObjAddr: 0xBC6C, symBinAddr: 0x60360, symSize: 0x638 }
  - { offset: 0x142E26, size: 0x8, addend: 0x0, symName: __RNvXsj_NtNtCsc29TF2YcYso_3syn4item7parsingNtB7_8ItemEnumNtNtB9_5parse5Parse5parse, symObjAddr: 0xC2A4, symBinAddr: 0x60998, symSize: 0x63C }
  - { offset: 0x143023, size: 0x8, addend: 0x0, symName: __RNvXsk_NtNtCsc29TF2YcYso_3syn4item7parsingNtB7_9ItemUnionNtNtB9_5parse5Parse5parse, symObjAddr: 0xC8E0, symBinAddr: 0x60FD4, symSize: 0x62C }
  - { offset: 0x14320F, size: 0x8, addend: 0x0, symName: __RNvXsl_NtNtCsc29TF2YcYso_3syn4item7parsingNtB7_9ItemTraitNtNtB9_5parse5Parse5parse, symObjAddr: 0xCF0C, symBinAddr: 0x61600, symSize: 0x634 }
  - { offset: 0x143416, size: 0x8, addend: 0x0, symName: __RNvXsn_NtNtCsc29TF2YcYso_3syn4item7parsingNtB7_9TraitItemNtNtB9_5parse5Parse5parse, symObjAddr: 0xD7B0, symBinAddr: 0x61C34, symSize: 0x1648 }
  - { offset: 0x14388A, size: 0x8, addend: 0x0, symName: __RNvXsp_NtNtCsc29TF2YcYso_3syn4item7parsingNtB7_11TraitItemFnNtNtB9_5parse5Parse5parse, symObjAddr: 0xF66C, symBinAddr: 0x6327C, symSize: 0x7DC }
  - { offset: 0x143A96, size: 0x8, addend: 0x0, symName: __RNvXsr_NtNtCsc29TF2YcYso_3syn4item7parsingNtB7_14TraitItemMacroNtNtB9_5parse5Parse5parse, symObjAddr: 0x1056C, symBinAddr: 0x63A58, symSize: 0x32C }
  - { offset: 0x143BAA, size: 0x8, addend: 0x0, symName: __RNvXst_NtNtCsc29TF2YcYso_3syn4item7parsingNtB7_8ImplItemNtNtB9_5parse5Parse5parse, symObjAddr: 0x108F8, symBinAddr: 0x63D84, symSize: 0x1A6C }
  - { offset: 0x1440D4, size: 0x8, addend: 0x0, symName: __RNvXsx_NtNtCsc29TF2YcYso_3syn4item7parsingNtB7_13ImplItemMacroNtNtB9_5parse5Parse5parse, symObjAddr: 0x135D4, symBinAddr: 0x657F0, symSize: 0x32C }
  - { offset: 0x1441E8, size: 0x8, addend: 0x0, symName: __RNvXsz_NtNtCsc29TF2YcYso_3syn4item7parsingNtB7_16StaticMutabilityNtNtB9_5parse5Parse5parse, symObjAddr: 0x13900, symBinAddr: 0x65B1C, symSize: 0xDC }
  - { offset: 0x14425E, size: 0x8, addend: 0x0, symName: __RNvXNtNtCsc29TF2YcYso_3syn4item8printingNtB4_15ItemExternCrateNtNtCs4EAaWzSXu1l_5quote9to_tokens8ToTokens9to_tokens, symObjAddr: 0x139DC, symBinAddr: 0x65BF8, symSize: 0x10C }
  - { offset: 0x1442CB, size: 0x8, addend: 0x0, symName: __RNvXs_NtNtCsc29TF2YcYso_3syn4item8printingNtB6_7ItemUseNtNtCs4EAaWzSXu1l_5quote9to_tokens8ToTokens9to_tokens, symObjAddr: 0x13AE8, symBinAddr: 0x65D04, symSize: 0xA4 }
  - { offset: 0x14430A, size: 0x8, addend: 0x0, symName: __RNvXs0_NtNtCsc29TF2YcYso_3syn4item8printingNtB7_10ItemStaticNtNtCs4EAaWzSXu1l_5quote9to_tokens8ToTokens9to_tokens, symObjAddr: 0x13B8C, symBinAddr: 0x65DA8, symSize: 0xE4 }
  - { offset: 0x144349, size: 0x8, addend: 0x0, symName: __RNvXs1_NtNtCsc29TF2YcYso_3syn4item8printingNtB7_9ItemConstNtNtCs4EAaWzSXu1l_5quote9to_tokens8ToTokens9to_tokens, symObjAddr: 0x13C70, symBinAddr: 0x65E8C, symSize: 0xD4 }
  - { offset: 0x144388, size: 0x8, addend: 0x0, symName: __RNvXs2_NtNtCsc29TF2YcYso_3syn4item8printingNtB7_6ItemFnNtNtCs4EAaWzSXu1l_5quote9to_tokens8ToTokens9to_tokens, symObjAddr: 0x13D44, symBinAddr: 0x65F60, symSize: 0xDC }
  - { offset: 0x1443C7, size: 0x8, addend: 0x0, symName: __RNvXs3_NtNtCsc29TF2YcYso_3syn4item8printingNtB7_7ItemModNtNtCs4EAaWzSXu1l_5quote9to_tokens8ToTokens9to_tokens, symObjAddr: 0x13E20, symBinAddr: 0x6603C, symSize: 0x10C }
  - { offset: 0x144434, size: 0x8, addend: 0x0, symName: __RNvXs4_NtNtCsc29TF2YcYso_3syn4item8printingNtB7_14ItemForeignModNtNtCs4EAaWzSXu1l_5quote9to_tokens8ToTokens9to_tokens, symObjAddr: 0x13F2C, symBinAddr: 0x66148, symSize: 0x88 }
  - { offset: 0x144473, size: 0x8, addend: 0x0, symName: __RNvXs5_NtNtCsc29TF2YcYso_3syn4item8printingNtB7_8ItemTypeNtNtCs4EAaWzSXu1l_5quote9to_tokens8ToTokens9to_tokens, symObjAddr: 0x13FB4, symBinAddr: 0x661D0, symSize: 0xD4 }
  - { offset: 0x1444B2, size: 0x8, addend: 0x0, symName: __RNvXs6_NtNtCsc29TF2YcYso_3syn4item8printingNtB7_8ItemEnumNtNtCs4EAaWzSXu1l_5quote9to_tokens8ToTokens9to_tokens, symObjAddr: 0x14088, symBinAddr: 0x662A4, symSize: 0xB8 }
  - { offset: 0x1444F1, size: 0x8, addend: 0x0, symName: __RNvXs7_NtNtCsc29TF2YcYso_3syn4item8printingNtB7_10ItemStructNtNtCs4EAaWzSXu1l_5quote9to_tokens8ToTokens9to_tokens, symObjAddr: 0x14140, symBinAddr: 0x6635C, symSize: 0x188 }
  - { offset: 0x14456C, size: 0x8, addend: 0x0, symName: __RNvXs8_NtNtCsc29TF2YcYso_3syn4item8printingNtB7_9ItemUnionNtNtCs4EAaWzSXu1l_5quote9to_tokens8ToTokens9to_tokens, symObjAddr: 0x142C8, symBinAddr: 0x664E4, symSize: 0xB4 }
  - { offset: 0x1445AB, size: 0x8, addend: 0x0, symName: __RNvXs9_NtNtCsc29TF2YcYso_3syn4item8printingNtB7_9ItemTraitNtNtCs4EAaWzSXu1l_5quote9to_tokens8ToTokens9to_tokens, symObjAddr: 0x1437C, symBinAddr: 0x66598, symSize: 0x130 }
  - { offset: 0x1445EA, size: 0x8, addend: 0x0, symName: __RNvXsa_NtNtCsc29TF2YcYso_3syn4item8printingNtB7_14ItemTraitAliasNtNtCs4EAaWzSXu1l_5quote9to_tokens8ToTokens9to_tokens, symObjAddr: 0x144AC, symBinAddr: 0x666C8, symSize: 0xD4 }
  - { offset: 0x144629, size: 0x8, addend: 0x0, symName: __RNvXsb_NtNtCsc29TF2YcYso_3syn4item8printingNtB7_8ItemImplNtNtCs4EAaWzSXu1l_5quote9to_tokens8ToTokens9to_tokens, symObjAddr: 0x14580, symBinAddr: 0x6679C, symSize: 0x148 }
  - { offset: 0x1446A6, size: 0x8, addend: 0x0, symName: __RNvXsc_NtNtCsc29TF2YcYso_3syn4item8printingNtB7_9ItemMacroNtNtCs4EAaWzSXu1l_5quote9to_tokens8ToTokens9to_tokens, symObjAddr: 0x146C8, symBinAddr: 0x668E4, symSize: 0x148 }
  - { offset: 0x144737, size: 0x8, addend: 0x0, symName: __RNvXsd_NtNtCsc29TF2YcYso_3syn4item8printingNtB7_7UsePathNtNtCs4EAaWzSXu1l_5quote9to_tokens8ToTokens9to_tokens, symObjAddr: 0x14810, symBinAddr: 0x66A2C, symSize: 0x60 }
  - { offset: 0x144776, size: 0x8, addend: 0x0, symName: __RNvXse_NtNtCsc29TF2YcYso_3syn4item8printingNtB7_7UseNameNtNtCs4EAaWzSXu1l_5quote9to_tokens8ToTokens9to_tokens, symObjAddr: 0x14870, symBinAddr: 0x66A8C, symSize: 0x3C }
  - { offset: 0x1447B5, size: 0x8, addend: 0x0, symName: __RNvXsf_NtNtCsc29TF2YcYso_3syn4item8printingNtB7_9UseRenameNtNtCs4EAaWzSXu1l_5quote9to_tokens8ToTokens9to_tokens, symObjAddr: 0x148AC, symBinAddr: 0x66AC8, symSize: 0x60 }
  - { offset: 0x1447F4, size: 0x8, addend: 0x0, symName: __RNvXsg_NtNtCsc29TF2YcYso_3syn4item8printingNtB7_7UseGlobNtNtCs4EAaWzSXu1l_5quote9to_tokens8ToTokens9to_tokens, symObjAddr: 0x1490C, symBinAddr: 0x66B28, symSize: 0x3C }
  - { offset: 0x144833, size: 0x8, addend: 0x0, symName: __RNvXsh_NtNtCsc29TF2YcYso_3syn4item8printingNtB7_8UseGroupNtNtCs4EAaWzSXu1l_5quote9to_tokens8ToTokens9to_tokens, symObjAddr: 0x14948, symBinAddr: 0x66B64, symSize: 0x44 }
  - { offset: 0x144872, size: 0x8, addend: 0x0, symName: __RNvXsi_NtNtCsc29TF2YcYso_3syn4item8printingNtB7_14TraitItemConstNtNtCs4EAaWzSXu1l_5quote9to_tokens8ToTokens9to_tokens, symObjAddr: 0x1498C, symBinAddr: 0x66BA8, symSize: 0x10C }
  - { offset: 0x1448DF, size: 0x8, addend: 0x0, symName: __RNvXsj_NtNtCsc29TF2YcYso_3syn4item8printingNtB7_11TraitItemFnNtNtCs4EAaWzSXu1l_5quote9to_tokens8ToTokens9to_tokens, symObjAddr: 0x14A98, symBinAddr: 0x66CB4, symSize: 0xD4 }
  - { offset: 0x14493C, size: 0x8, addend: 0x0, symName: __RNvXsk_NtNtCsc29TF2YcYso_3syn4item8printingNtB7_13TraitItemTypeNtNtCs4EAaWzSXu1l_5quote9to_tokens8ToTokens9to_tokens, symObjAddr: 0x14B6C, symBinAddr: 0x66D88, symSize: 0x164 }
  - { offset: 0x1449A9, size: 0x8, addend: 0x0, symName: __RNvXsl_NtNtCsc29TF2YcYso_3syn4item8printingNtB7_14TraitItemMacroNtNtCs4EAaWzSXu1l_5quote9to_tokens8ToTokens9to_tokens, symObjAddr: 0x14CD0, symBinAddr: 0x66EEC, symSize: 0x74 }
  - { offset: 0x1449E8, size: 0x8, addend: 0x0, symName: __RNvXsm_NtNtCsc29TF2YcYso_3syn4item8printingNtB7_13ImplItemConstNtNtCs4EAaWzSXu1l_5quote9to_tokens8ToTokens9to_tokens, symObjAddr: 0x14D44, symBinAddr: 0x66F60, symSize: 0xE4 }
  - { offset: 0x144A27, size: 0x8, addend: 0x0, symName: __RNvXsn_NtNtCsc29TF2YcYso_3syn4item8printingNtB7_10ImplItemFnNtNtCs4EAaWzSXu1l_5quote9to_tokens8ToTokens9to_tokens, symObjAddr: 0x14E28, symBinAddr: 0x67044, symSize: 0x98 }
  - { offset: 0x144A66, size: 0x8, addend: 0x0, symName: __RNvXso_NtNtCsc29TF2YcYso_3syn4item8printingNtB7_12ImplItemTypeNtNtCs4EAaWzSXu1l_5quote9to_tokens8ToTokens9to_tokens, symObjAddr: 0x14EC0, symBinAddr: 0x670DC, symSize: 0xE4 }
  - { offset: 0x144AA5, size: 0x8, addend: 0x0, symName: __RNvXsp_NtNtCsc29TF2YcYso_3syn4item8printingNtB7_13ImplItemMacroNtNtCs4EAaWzSXu1l_5quote9to_tokens8ToTokens9to_tokens, symObjAddr: 0x14FA4, symBinAddr: 0x671C0, symSize: 0x74 }
  - { offset: 0x144AE4, size: 0x8, addend: 0x0, symName: __RNvXsq_NtNtCsc29TF2YcYso_3syn4item8printingNtB7_13ForeignItemFnNtNtCs4EAaWzSXu1l_5quote9to_tokens8ToTokens9to_tokens, symObjAddr: 0x15018, symBinAddr: 0x67234, symSize: 0x84 }
  - { offset: 0x144B23, size: 0x8, addend: 0x0, symName: __RNvXsr_NtNtCsc29TF2YcYso_3syn4item8printingNtB7_17ForeignItemStaticNtNtCs4EAaWzSXu1l_5quote9to_tokens8ToTokens9to_tokens, symObjAddr: 0x1509C, symBinAddr: 0x672B8, symSize: 0xC4 }
  - { offset: 0x144B62, size: 0x8, addend: 0x0, symName: __RNvXss_NtNtCsc29TF2YcYso_3syn4item8printingNtB7_15ForeignItemTypeNtNtCs4EAaWzSXu1l_5quote9to_tokens8ToTokens9to_tokens, symObjAddr: 0x15160, symBinAddr: 0x6737C, symSize: 0xB4 }
  - { offset: 0x144BA1, size: 0x8, addend: 0x0, symName: __RNvXst_NtNtCsc29TF2YcYso_3syn4item8printingNtB7_16ForeignItemMacroNtNtCs4EAaWzSXu1l_5quote9to_tokens8ToTokens9to_tokens, symObjAddr: 0x15214, symBinAddr: 0x67430, symSize: 0x74 }
  - { offset: 0x144BE0, size: 0x8, addend: 0x0, symName: __RNvXsu_NtNtCsc29TF2YcYso_3syn4item8printingNtB7_9SignatureNtNtCs4EAaWzSXu1l_5quote9to_tokens8ToTokens9to_tokens, symObjAddr: 0x15288, symBinAddr: 0x674A4, symSize: 0xD4 }
  - { offset: 0x144C1F, size: 0x8, addend: 0x0, symName: __RNvXsv_NtNtCsc29TF2YcYso_3syn4item8printingNtB7_8ReceiverNtNtCs4EAaWzSXu1l_5quote9to_tokens8ToTokens9to_tokens, symObjAddr: 0x1535C, symBinAddr: 0x67578, symSize: 0x450 }
  - { offset: 0x144D17, size: 0x8, addend: 0x0, symName: __RNvXsw_NtNtCsc29TF2YcYso_3syn4item8printingNtB7_8VariadicNtNtCs4EAaWzSXu1l_5quote9to_tokens8ToTokens9to_tokens, symObjAddr: 0x157AC, symBinAddr: 0x679C8, symSize: 0xDC }
  - { offset: 0x144D84, size: 0x8, addend: 0x0, symName: __RNvXsx_NtNtCsc29TF2YcYso_3syn4item8printingNtB7_16StaticMutabilityNtNtCs4EAaWzSXu1l_5quote9to_tokens8ToTokens9to_tokens, symObjAddr: 0x15888, symBinAddr: 0x67AA4, symSize: 0x84 }
  - { offset: 0x144DE7, size: 0x8, addend: 0x0, symName: __RNcNtNtNtCsc29TF2YcYso_3syn4item4Item4Enum0B7_, symObjAddr: 0x1590C, symBinAddr: 0x67B28, symSize: 0x3C }
  - { offset: 0x144E16, size: 0x8, addend: 0x0, symName: __RNcNtNtNtCsc29TF2YcYso_3syn4item4Item11ExternCrate0B7_, symObjAddr: 0x15948, symBinAddr: 0x67B64, symSize: 0x3C }
  - { offset: 0x144E45, size: 0x8, addend: 0x0, symName: __RNcNtNtNtCsc29TF2YcYso_3syn4item4Item2Fn0B7_, symObjAddr: 0x15984, symBinAddr: 0x67BA0, symSize: 0x30 }
  - { offset: 0x144E74, size: 0x8, addend: 0x0, symName: __RNcNtNtNtCsc29TF2YcYso_3syn4item4Item10ForeignMod0B7_, symObjAddr: 0x159B4, symBinAddr: 0x67BD0, symSize: 0x3C }
  - { offset: 0x144EA3, size: 0x8, addend: 0x0, symName: __RNcNtNtNtCsc29TF2YcYso_3syn4item4Item5Macro0B7_, symObjAddr: 0x159F0, symBinAddr: 0x67C0C, symSize: 0x3C }
  - { offset: 0x144ED2, size: 0x8, addend: 0x0, symName: __RNcNtNtNtCsc29TF2YcYso_3syn4item4Item3Mod0B7_, symObjAddr: 0x15A2C, symBinAddr: 0x67C48, symSize: 0x3C }
  - { offset: 0x144F01, size: 0x8, addend: 0x0, symName: __RNcNtNtNtCsc29TF2YcYso_3syn4item4Item6Struct0B7_, symObjAddr: 0x15A68, symBinAddr: 0x67C84, symSize: 0x3C }
  - { offset: 0x144F30, size: 0x8, addend: 0x0, symName: __RNcNtNtNtCsc29TF2YcYso_3syn4item4Item5Trait0B7_, symObjAddr: 0x15AA4, symBinAddr: 0x67CC0, symSize: 0x3C }
  - { offset: 0x144F5F, size: 0x8, addend: 0x0, symName: __RNcNtNtNtCsc29TF2YcYso_3syn4item4Item10TraitAlias0B7_, symObjAddr: 0x15AE0, symBinAddr: 0x67CFC, symSize: 0x3C }
  - { offset: 0x144F8E, size: 0x8, addend: 0x0, symName: __RNcNtNtNtCsc29TF2YcYso_3syn4item4Item5Union0B7_, symObjAddr: 0x15B1C, symBinAddr: 0x67D38, symSize: 0x3C }
  - { offset: 0x144FBE, size: 0x8, addend: 0x0, symName: __RNvXsk_NtCsc29TF2YcYso_3syn4itemNtB5_4ItemNtNtCs4EAaWzSXu1l_5quote9to_tokens8ToTokens9to_tokens, symObjAddr: 0x15FC0, symBinAddr: 0x67D74, symSize: 0x230 }
  - { offset: 0x1451D0, size: 0x8, addend: 0x0, symName: __RNvXsq_NtCsc29TF2YcYso_3syn4itemNtB5_7UseTreeNtNtCs4EAaWzSXu1l_5quote9to_tokens8ToTokens9to_tokens, symObjAddr: 0x1633C, symBinAddr: 0x67FA4, symSize: 0x10C }
  - { offset: 0x1452A2, size: 0x8, addend: 0x0, symName: __RNcNtNtNtCsc29TF2YcYso_3syn4item11ForeignItem5Macro0B7_, symObjAddr: 0x16448, symBinAddr: 0x680B0, symSize: 0x3C }
  - { offset: 0x1452D4, size: 0x8, addend: 0x0, symName: __RNvXsv_NtCsc29TF2YcYso_3syn4itemNtB5_11ForeignItemNtNtCs4EAaWzSXu1l_5quote9to_tokens8ToTokens9to_tokens, symObjAddr: 0x165A8, symBinAddr: 0x680EC, symSize: 0x118 }
  - { offset: 0x1453A6, size: 0x8, addend: 0x0, symName: __RNcNtNtNtCsc29TF2YcYso_3syn4item9TraitItem2Fn0B7_, symObjAddr: 0x166C0, symBinAddr: 0x68204, symSize: 0x3C }
  - { offset: 0x1453D7, size: 0x8, addend: 0x0, symName: __RNcNtNtNtCsc29TF2YcYso_3syn4item9TraitItem5Macro0B7_, symObjAddr: 0x166FC, symBinAddr: 0x68240, symSize: 0x3C }
  - { offset: 0x145409, size: 0x8, addend: 0x0, symName: __RNvXsA_NtCsc29TF2YcYso_3syn4itemNtB5_9TraitItemNtNtCs4EAaWzSXu1l_5quote9to_tokens8ToTokens9to_tokens, symObjAddr: 0x1685C, symBinAddr: 0x6827C, symSize: 0x118 }
  - { offset: 0x1454DB, size: 0x8, addend: 0x0, symName: __RNcNtNtNtCsc29TF2YcYso_3syn4item8ImplItem5Macro0B7_, symObjAddr: 0x16974, symBinAddr: 0x68394, symSize: 0x3C }
  - { offset: 0x14550D, size: 0x8, addend: 0x0, symName: __RNvXsF_NtCsc29TF2YcYso_3syn4itemNtB5_8ImplItemNtNtCs4EAaWzSXu1l_5quote9to_tokens8ToTokens9to_tokens, symObjAddr: 0x16AD4, symBinAddr: 0x683D0, symSize: 0x118 }
  - { offset: 0x1455DA, size: 0x8, addend: 0x0, symName: __RNvXsI_NtCsc29TF2YcYso_3syn4itemNtB5_5FnArgNtNtCs4EAaWzSXu1l_5quote9to_tokens8ToTokens9to_tokens, symObjAddr: 0x16C78, symBinAddr: 0x684E8, symSize: 0x8C }
  - { offset: 0x145655, size: 0x8, addend: 0x0, symName: __RNcNtNtNtCsc29TF2YcYso_3syn4item16StaticMutability3Mut0B7_, symObjAddr: 0x16D04, symBinAddr: 0x68574, symSize: 0x20 }
  - { offset: 0x149103, size: 0x8, addend: 0x0, symName: __RNvXs16_NtNtCsc29TF2YcYso_3syn3gen5cloneNtNtBa_4item5FnArgNtNtCsaNl6UpbT7bw_4core5clone5Clone5clone, symObjAddr: 0x16D24, symBinAddr: 0x68594, symSize: 0xDC }
  - { offset: 0x14916B, size: 0x8, addend: 0x0, symName: __RNvXs17_NtNtCsc29TF2YcYso_3syn3gen5cloneNtNtBa_4item11ForeignItemNtNtCsaNl6UpbT7bw_4core5clone5Clone5clone, symObjAddr: 0x16E00, symBinAddr: 0x68670, symSize: 0x224 }
  - { offset: 0x14922D, size: 0x8, addend: 0x0, symName: __RNvXs18_NtNtCsc29TF2YcYso_3syn3gen5cloneNtNtBa_4item13ForeignItemFnNtNtCsaNl6UpbT7bw_4core5clone5Clone5clone, symObjAddr: 0x17024, symBinAddr: 0x68894, symSize: 0x13C }
  - { offset: 0x149261, size: 0x8, addend: 0x0, symName: __RNvXs19_NtNtCsc29TF2YcYso_3syn3gen5cloneNtNtBa_4item16ForeignItemMacroNtNtCsaNl6UpbT7bw_4core5clone5Clone5clone, symObjAddr: 0x17160, symBinAddr: 0x689D0, symSize: 0xF4 }
  - { offset: 0x149295, size: 0x8, addend: 0x0, symName: __RNvXs1a_NtNtCsc29TF2YcYso_3syn3gen5cloneNtNtBa_4item17ForeignItemStaticNtNtCsaNl6UpbT7bw_4core5clone5Clone5clone, symObjAddr: 0x17254, symBinAddr: 0x68AC4, symSize: 0x1DC }
  - { offset: 0x1492C9, size: 0x8, addend: 0x0, symName: __RNvXs1b_NtNtCsc29TF2YcYso_3syn3gen5cloneNtNtBa_4item15ForeignItemTypeNtNtCsaNl6UpbT7bw_4core5clone5Clone5clone, symObjAddr: 0x17430, symBinAddr: 0x68CA0, symSize: 0x198 }
  - { offset: 0x1492FD, size: 0x8, addend: 0x0, symName: __RNvXs1f_NtNtCsc29TF2YcYso_3syn3gen5cloneNtNtBa_4item8ImplItemNtNtCsaNl6UpbT7bw_4core5clone5Clone5clone, symObjAddr: 0x175C8, symBinAddr: 0x68E38, symSize: 0x21C }
  - { offset: 0x1493BF, size: 0x8, addend: 0x0, symName: __RNvXs1g_NtNtCsc29TF2YcYso_3syn3gen5cloneNtNtBa_4item13ImplItemConstNtNtCsaNl6UpbT7bw_4core5clone5Clone5clone, symObjAddr: 0x177E4, symBinAddr: 0x69054, symSize: 0x2AC }
  - { offset: 0x1493F3, size: 0x8, addend: 0x0, symName: __RNvXs1h_NtNtCsc29TF2YcYso_3syn3gen5cloneNtNtBa_4item10ImplItemFnNtNtCsaNl6UpbT7bw_4core5clone5Clone5clone, symObjAddr: 0x17A90, symBinAddr: 0x69300, symSize: 0x160 }
  - { offset: 0x149427, size: 0x8, addend: 0x0, symName: __RNvXs1i_NtNtCsc29TF2YcYso_3syn3gen5cloneNtNtBa_4item13ImplItemMacroNtNtCsaNl6UpbT7bw_4core5clone5Clone5clone, symObjAddr: 0x17BF0, symBinAddr: 0x69460, symSize: 0xF4 }
  - { offset: 0x14945B, size: 0x8, addend: 0x0, symName: __RNvXs1j_NtNtCsc29TF2YcYso_3syn3gen5cloneNtNtBa_4item12ImplItemTypeNtNtCsaNl6UpbT7bw_4core5clone5Clone5clone, symObjAddr: 0x17CE4, symBinAddr: 0x69554, symSize: 0x238 }
  - { offset: 0x14948F, size: 0x8, addend: 0x0, symName: __RNvXs1m_NtNtCsc29TF2YcYso_3syn3gen5cloneNtNtBa_4item4ItemNtNtCsaNl6UpbT7bw_4core5clone5Clone5clone, symObjAddr: 0x17F28, symBinAddr: 0x6978C, symSize: 0x5D0 }
  - { offset: 0x1496A6, size: 0x8, addend: 0x0, symName: __RNvXs1n_NtNtCsc29TF2YcYso_3syn3gen5cloneNtNtBa_4item9ItemConstNtNtCsaNl6UpbT7bw_4core5clone5Clone5clone, symObjAddr: 0x184F8, symBinAddr: 0x69D5C, symSize: 0x270 }
  - { offset: 0x1496DA, size: 0x8, addend: 0x0, symName: __RNvXs1o_NtNtCsc29TF2YcYso_3syn3gen5cloneNtNtBa_4item8ItemEnumNtNtCsaNl6UpbT7bw_4core5clone5Clone5clone, symObjAddr: 0x18768, symBinAddr: 0x69FCC, symSize: 0x1C0 }
  - { offset: 0x14970E, size: 0x8, addend: 0x0, symName: __RNvXs1p_NtNtCsc29TF2YcYso_3syn3gen5cloneNtNtBa_4item15ItemExternCrateNtNtCsaNl6UpbT7bw_4core5clone5Clone5clone, symObjAddr: 0x18928, symBinAddr: 0x6A18C, symSize: 0x1A4 }
  - { offset: 0x149742, size: 0x8, addend: 0x0, symName: __RNvXs1q_NtNtCsc29TF2YcYso_3syn3gen5cloneNtNtBa_4item6ItemFnNtNtCsaNl6UpbT7bw_4core5clone5Clone5clone, symObjAddr: 0x18ACC, symBinAddr: 0x6A330, symSize: 0x12C }
  - { offset: 0x149776, size: 0x8, addend: 0x0, symName: __RNvXs1r_NtNtCsc29TF2YcYso_3syn3gen5cloneNtNtBa_4item14ItemForeignModNtNtCsaNl6UpbT7bw_4core5clone5Clone5clone, symObjAddr: 0x18BF8, symBinAddr: 0x6A45C, symSize: 0x14C }
  - { offset: 0x1497AA, size: 0x8, addend: 0x0, symName: __RNvXs1s_NtNtCsc29TF2YcYso_3syn3gen5cloneNtNtBa_4item8ItemImplNtNtCsaNl6UpbT7bw_4core5clone5Clone5clone, symObjAddr: 0x18D44, symBinAddr: 0x6A5A8, symSize: 0x220 }
  - { offset: 0x1497DE, size: 0x8, addend: 0x0, symName: __RNvXs1t_NtNtCsc29TF2YcYso_3syn3gen5cloneNtNtBa_4item9ItemMacroNtNtCsaNl6UpbT7bw_4core5clone5Clone5clone, symObjAddr: 0x18F64, symBinAddr: 0x6A7C8, symSize: 0x134 }
  - { offset: 0x149812, size: 0x8, addend: 0x0, symName: __RNvXs1u_NtNtCsc29TF2YcYso_3syn3gen5cloneNtNtBa_4item7ItemModNtNtCsaNl6UpbT7bw_4core5clone5Clone5clone, symObjAddr: 0x19098, symBinAddr: 0x6A8FC, symSize: 0x1B8 }
  - { offset: 0x149846, size: 0x8, addend: 0x0, symName: __RNvXs1v_NtNtCsc29TF2YcYso_3syn3gen5cloneNtNtBa_4item10ItemStaticNtNtCsaNl6UpbT7bw_4core5clone5Clone5clone, symObjAddr: 0x19250, symBinAddr: 0x6AAB4, symSize: 0x248 }
  - { offset: 0x14987A, size: 0x8, addend: 0x0, symName: __RNvXs1w_NtNtCsc29TF2YcYso_3syn3gen5cloneNtNtBa_4item10ItemStructNtNtCsaNl6UpbT7bw_4core5clone5Clone5clone, symObjAddr: 0x19498, symBinAddr: 0x6ACFC, symSize: 0x1DC }
  - { offset: 0x1498AE, size: 0x8, addend: 0x0, symName: __RNvXs1x_NtNtCsc29TF2YcYso_3syn3gen5cloneNtNtBa_4item9ItemTraitNtNtCsaNl6UpbT7bw_4core5clone5Clone5clone, symObjAddr: 0x19674, symBinAddr: 0x6AED8, symSize: 0x288 }
  - { offset: 0x1498E2, size: 0x8, addend: 0x0, symName: __RNvXs1y_NtNtCsc29TF2YcYso_3syn3gen5cloneNtNtBa_4item14ItemTraitAliasNtNtCsaNl6UpbT7bw_4core5clone5Clone5clone, symObjAddr: 0x198FC, symBinAddr: 0x6B160, symSize: 0x204 }
  - { offset: 0x149916, size: 0x8, addend: 0x0, symName: __RNvXs1z_NtNtCsc29TF2YcYso_3syn3gen5cloneNtNtBa_4item8ItemTypeNtNtCsaNl6UpbT7bw_4core5clone5Clone5clone, symObjAddr: 0x19B00, symBinAddr: 0x6B364, symSize: 0x204 }
  - { offset: 0x14994A, size: 0x8, addend: 0x0, symName: __RNvXs1A_NtNtCsc29TF2YcYso_3syn3gen5cloneNtNtBa_4item9ItemUnionNtNtCsaNl6UpbT7bw_4core5clone5Clone5clone, symObjAddr: 0x19D04, symBinAddr: 0x6B568, symSize: 0x194 }
  - { offset: 0x14997E, size: 0x8, addend: 0x0, symName: __RNvXs1B_NtNtCsc29TF2YcYso_3syn3gen5cloneNtNtBa_4item7ItemUseNtNtCsaNl6UpbT7bw_4core5clone5Clone5clone, symObjAddr: 0x19E98, symBinAddr: 0x6B6FC, symSize: 0x174 }
  - { offset: 0x1499B2, size: 0x8, addend: 0x0, symName: __RNvXs2b_NtNtCsc29TF2YcYso_3syn3gen5cloneNtNtBa_4item8ReceiverNtNtCsaNl6UpbT7bw_4core5clone5Clone5clone, symObjAddr: 0x1A00C, symBinAddr: 0x6B870, symSize: 0x154 }
  - { offset: 0x1499E6, size: 0x8, addend: 0x0, symName: __RNvXs2d_NtNtCsc29TF2YcYso_3syn3gen5cloneNtNtBa_4item9SignatureNtNtCsaNl6UpbT7bw_4core5clone5Clone5clone, symObjAddr: 0x1A160, symBinAddr: 0x6B9C4, symSize: 0x278 }
  - { offset: 0x149A1A, size: 0x8, addend: 0x0, symName: __RNvXs2e_NtNtCsc29TF2YcYso_3syn3gen5cloneNtNtBa_4item16StaticMutabilityNtNtCsaNl6UpbT7bw_4core5clone5Clone5clone, symObjAddr: 0x1A3D8, symBinAddr: 0x6BC3C, symSize: 0x90 }
  - { offset: 0x149A6C, size: 0x8, addend: 0x0, symName: __RNvXs2k_NtNtCsc29TF2YcYso_3syn3gen5cloneNtNtBa_4item9TraitItemNtNtCsaNl6UpbT7bw_4core5clone5Clone5clone, symObjAddr: 0x1A468, symBinAddr: 0x6BCCC, symSize: 0x21C }
  - { offset: 0x149B2E, size: 0x8, addend: 0x0, symName: __RNvXs2l_NtNtCsc29TF2YcYso_3syn3gen5cloneNtNtBa_4item14TraitItemConstNtNtCsaNl6UpbT7bw_4core5clone5Clone5clone, symObjAddr: 0x1A684, symBinAddr: 0x6BEE8, symSize: 0x218 }
  - { offset: 0x149B62, size: 0x8, addend: 0x0, symName: __RNvXs2m_NtNtCsc29TF2YcYso_3syn3gen5cloneNtNtBa_4item11TraitItemFnNtNtCsaNl6UpbT7bw_4core5clone5Clone5clone, symObjAddr: 0x1A89C, symBinAddr: 0x6C100, symSize: 0x140 }
  - { offset: 0x149B96, size: 0x8, addend: 0x0, symName: __RNvXs2n_NtNtCsc29TF2YcYso_3syn3gen5cloneNtNtBa_4item14TraitItemMacroNtNtCsaNl6UpbT7bw_4core5clone5Clone5clone, symObjAddr: 0x1A9DC, symBinAddr: 0x6C240, symSize: 0xF4 }
  - { offset: 0x149BCA, size: 0x8, addend: 0x0, symName: __RNvXs2o_NtNtCsc29TF2YcYso_3syn3gen5cloneNtNtBa_4item13TraitItemTypeNtNtCsaNl6UpbT7bw_4core5clone5Clone5clone, symObjAddr: 0x1AAD0, symBinAddr: 0x6C334, symSize: 0x20C }
  - { offset: 0x149BFE, size: 0x8, addend: 0x0, symName: __RNvXs2I_NtNtCsc29TF2YcYso_3syn3gen5cloneNtNtBa_4item7UseGlobNtNtCsaNl6UpbT7bw_4core5clone5Clone5clone, symObjAddr: 0x1ACDC, symBinAddr: 0x6C540, symSize: 0x4C }
  - { offset: 0x149C32, size: 0x8, addend: 0x0, symName: __RNvXs2J_NtNtCsc29TF2YcYso_3syn3gen5cloneNtNtBa_4item8UseGroupNtNtCsaNl6UpbT7bw_4core5clone5Clone5clone, symObjAddr: 0x1AD28, symBinAddr: 0x6C58C, symSize: 0x70 }
  - { offset: 0x149C66, size: 0x8, addend: 0x0, symName: __RNvXs2K_NtNtCsc29TF2YcYso_3syn3gen5cloneNtNtBa_4item7UseNameNtNtCsaNl6UpbT7bw_4core5clone5Clone5clone, symObjAddr: 0x1AD98, symBinAddr: 0x6C5FC, symSize: 0x50 }
  - { offset: 0x149C9A, size: 0x8, addend: 0x0, symName: __RNvXs2L_NtNtCsc29TF2YcYso_3syn3gen5cloneNtNtBa_4item7UsePathNtNtCsaNl6UpbT7bw_4core5clone5Clone5clone, symObjAddr: 0x1ADE8, symBinAddr: 0x6C64C, symSize: 0xC0 }
  - { offset: 0x149CCE, size: 0x8, addend: 0x0, symName: __RNvXs2M_NtNtCsc29TF2YcYso_3syn3gen5cloneNtNtBa_4item9UseRenameNtNtCsaNl6UpbT7bw_4core5clone5Clone5clone, symObjAddr: 0x1AEA8, symBinAddr: 0x6C70C, symSize: 0xB8 }
  - { offset: 0x149D02, size: 0x8, addend: 0x0, symName: __RNvXs2N_NtNtCsc29TF2YcYso_3syn3gen5cloneNtNtBa_4item7UseTreeNtNtCsaNl6UpbT7bw_4core5clone5Clone5clone, symObjAddr: 0x1AF60, symBinAddr: 0x6C7C4, symSize: 0x20C }
  - { offset: 0x149DC5, size: 0x8, addend: 0x0, symName: __RNvXs2O_NtNtCsc29TF2YcYso_3syn3gen5cloneNtNtBa_4item8VariadicNtNtCsaNl6UpbT7bw_4core5clone5Clone5clone, symObjAddr: 0x1B16C, symBinAddr: 0x6C9D0, symSize: 0x108 }
  - { offset: 0x14B793, size: 0x8, addend: 0x0, symName: __RINvXNvMNtCsiTraAjBDcu4_5alloc5sliceSp9to_vec_inNtNtCsc29TF2YcYso_3syn4item11ForeignItemNtB3_10ConvertVec6to_vecNtNtB8_5alloc6GlobalEBO_, symObjAddr: 0x0, symBinAddr: 0x59B10, symSize: 0x374 }
  - { offset: 0x14BC48, size: 0x8, addend: 0x0, symName: __RINvXNvMNtCsiTraAjBDcu4_5alloc5sliceSp9to_vec_inNtNtCsc29TF2YcYso_3syn4item4ItemNtB3_10ConvertVec6to_vecNtNtB8_5alloc6GlobalEBO_, symObjAddr: 0x374, symBinAddr: 0x59E84, symSize: 0x374 }
  - { offset: 0x14C0FD, size: 0x8, addend: 0x0, symName: __RINvXNvMNtCsiTraAjBDcu4_5alloc5sliceSp9to_vec_inNtNtCsc29TF2YcYso_3syn4item8ImplItemNtB3_10ConvertVec6to_vecNtNtB8_5alloc6GlobalEBO_, symObjAddr: 0x6E8, symBinAddr: 0x5A1F8, symSize: 0x374 }
  - { offset: 0x14C5B2, size: 0x8, addend: 0x0, symName: __RINvXNvMNtCsiTraAjBDcu4_5alloc5sliceSp9to_vec_inNtNtCsc29TF2YcYso_3syn4item9TraitItemNtB3_10ConvertVec6to_vecNtNtB8_5alloc6GlobalEBO_, symObjAddr: 0xA5C, symBinAddr: 0x5A56C, symSize: 0x374 }
  - { offset: 0x14CA67, size: 0x8, addend: 0x0, symName: __RINvXNvMNtCsiTraAjBDcu4_5alloc5sliceSp9to_vec_inTNtNtCsc29TF2YcYso_3syn4item5FnArgNtNtBP_5token5CommaENtB3_10ConvertVec6to_vecNtNtB8_5alloc6GlobalEBP_, symObjAddr: 0xDD0, symBinAddr: 0x5A8E0, symSize: 0x370 }
  - { offset: 0x14CF1C, size: 0x8, addend: 0x0, symName: __RINvXNvMNtCsiTraAjBDcu4_5alloc5sliceSp9to_vec_inTNtNtCsc29TF2YcYso_3syn4item7UseTreeNtNtBP_5token5CommaENtB3_10ConvertVec6to_vecNtNtB8_5alloc6GlobalEBP_, symObjAddr: 0x1140, symBinAddr: 0x5AC50, symSize: 0x370 }
  - { offset: 0x15147F, size: 0x8, addend: 0x0, symName: __RNvMNtCsaNl6UpbT7bw_4core5sliceSTNtNtCsc29TF2YcYso_3syn4item5FnArgNtNtBz_5token5CommaE4iterBz_, symObjAddr: 0x14B0, symBinAddr: 0x5AFC0, symSize: 0x28 }
  - { offset: 0x1514B6, size: 0x8, addend: 0x0, symName: __RNvMNtCsaNl6UpbT7bw_4core5sliceSTNtNtCsc29TF2YcYso_3syn4item7UseTreeNtNtBz_5token5CommaE4iterBz_, symObjAddr: 0x14D8, symBinAddr: 0x5AFE8, symSize: 0x28 }
  - { offset: 0x151BA6, size: 0x8, addend: 0x0, symName: __RNvXNtNtCsaNl6UpbT7bw_4core5clone6uninitNtNtCsc29TF2YcYso_3syn4item5FnArgNtB2_8CopySpec9clone_oneBG_, symObjAddr: 0x1680, symBinAddr: 0x5B190, symSize: 0x48 }
  - { offset: 0x151C0A, size: 0x8, addend: 0x0, symName: __RNvXNtNtCsaNl6UpbT7bw_4core5clone6uninitNtNtCsc29TF2YcYso_3syn4item7UseTreeNtB2_8CopySpec9clone_oneBG_, symObjAddr: 0x16C8, symBinAddr: 0x5B1D8, symSize: 0x48 }
  - { offset: 0x1543F6, size: 0x8, addend: 0x0, symName: __RNvXNtCs4EAaWzSXu1l_5quote9to_tokensRNtNtCsc29TF2YcYso_3syn4item11ForeignItemNtB2_8ToTokens9to_tokensBD_, symObjAddr: 0x1500, symBinAddr: 0x5B010, symSize: 0x40 }
  - { offset: 0x154435, size: 0x8, addend: 0x0, symName: __RNvXNtCs4EAaWzSXu1l_5quote9to_tokensRNtNtCsc29TF2YcYso_3syn4item4ItemNtB2_8ToTokens9to_tokensBD_, symObjAddr: 0x1540, symBinAddr: 0x5B050, symSize: 0x40 }
  - { offset: 0x154474, size: 0x8, addend: 0x0, symName: __RNvXNtCs4EAaWzSXu1l_5quote9to_tokensRNtNtCsc29TF2YcYso_3syn4item5FnArgNtB2_8ToTokens9to_tokensBD_, symObjAddr: 0x1580, symBinAddr: 0x5B090, symSize: 0x40 }
  - { offset: 0x1544B3, size: 0x8, addend: 0x0, symName: __RNvXNtCs4EAaWzSXu1l_5quote9to_tokensRNtNtCsc29TF2YcYso_3syn4item7UseTreeNtB2_8ToTokens9to_tokensBD_, symObjAddr: 0x15C0, symBinAddr: 0x5B0D0, symSize: 0x40 }
  - { offset: 0x1544F2, size: 0x8, addend: 0x0, symName: __RNvXNtCs4EAaWzSXu1l_5quote9to_tokensRNtNtCsc29TF2YcYso_3syn4item8ImplItemNtB2_8ToTokens9to_tokensBD_, symObjAddr: 0x1600, symBinAddr: 0x5B110, symSize: 0x40 }
  - { offset: 0x154531, size: 0x8, addend: 0x0, symName: __RNvXNtCs4EAaWzSXu1l_5quote9to_tokensRNtNtCsc29TF2YcYso_3syn4item9TraitItemNtB2_8ToTokens9to_tokensBD_, symObjAddr: 0x1640, symBinAddr: 0x5B150, symSize: 0x40 }
  - { offset: 0x15458D, size: 0x8, addend: 0x0, symName: __RNvMNtCsc29TF2YcYso_3syn4itemNtB2_4Item13replace_attrs, symObjAddr: 0x2CE8, symBinAddr: 0x5B220, symSize: 0x328 }
  - { offset: 0x154B64, size: 0x8, addend: 0x0, symName: __RINvMs_NtCsiTraAjBDcu4_5alloc3vecINtB5_3VecReE10retain_mutNCNvMNtCsc29TF2YcYso_3syn9lookaheadNtBZ_10Lookahead15error0EB11_, symObjAddr: 0x0, symBinAddr: 0x6CAD8, symSize: 0xE4 }
  - { offset: 0x15CEAC, size: 0x8, addend: 0x0, symName: __RNvXs1_NtCsaNl6UpbT7bw_4core7convertINtNtCsiTraAjBDcu4_5alloc3vec3VechEINtB5_4IntoBy_E4intoCsc29TF2YcYso_3syn, symObjAddr: 0x6F84, symBinAddr: 0x71438, symSize: 0x18 }
  - { offset: 0x15D0E9, size: 0x8, addend: 0x0, symName: __RINvNvMs_NtCsiTraAjBDcu4_5alloc3vecINtB7_3VecppE10retain_mut12process_loopNCNvMNtCsc29TF2YcYso_3syn9lookaheadNtB1f_10Lookahead15error0ReNtNtB9_5alloc6GlobalKb0_EB1h_, symObjAddr: 0xC48, symBinAddr: 0x6D0AC, symSize: 0xCC }
  - { offset: 0x15D23D, size: 0x8, addend: 0x0, symName: __RINvNvMs_NtCsiTraAjBDcu4_5alloc3vecINtB7_3VecppE10retain_mut12process_loopNCNvMNtCsc29TF2YcYso_3syn9lookaheadNtB1f_10Lookahead15error0ReNtNtB9_5alloc6GlobalKb1_EB1h_, symObjAddr: 0xD14, symBinAddr: 0x6D178, symSize: 0x170 }
  - { offset: 0x15D433, size: 0x8, addend: 0x0, symName: __RNvXNvMs_NtCsiTraAjBDcu4_5alloc3vecINtB7_3VecppE10retain_mutINtB2_15BackshiftOnDropReNtNtB9_5alloc6GlobalENtNtNtCsaNl6UpbT7bw_4core3ops4drop4Drop4dropCsc29TF2YcYso_3syn, symObjAddr: 0x6B78, symBinAddr: 0x710F4, symSize: 0x12C }
  - { offset: 0x15FEA2, size: 0x8, addend: 0x0, symName: __RINvXsh_NtCsiTraAjBDcu4_5alloc3vecINtB6_3VecNtCshnvkK9b4wzu_11proc_macro29TokenTreeEINtNtNtNtCsaNl6UpbT7bw_4core4iter6traits7collect6ExtendBG_E6extendINtNtNtB1r_8adapters7flatten7FlattenINtNtB2t_3map3MapIB2Z_IB2Z_INtNtNtB1t_5slice4iter4IterNtNtCsc29TF2YcYso_3syn5error12ErrorMessageENvMs_B3S_B3Q_16to_compile_errorENCINvXs7_BI_NtBI_11TokenStreamINtB1n_12FromIteratorB5f_E9from_iterB3k_E0ENCINvXs6_NtBI_3impNtB6n_11TokenStreamIB5y_B6w_E9from_iterB3f_Es_0EEEB3U_, symObjAddr: 0xEC0, symBinAddr: 0x6D2E8, symSize: 0x48 }
  - { offset: 0x15FEF7, size: 0x8, addend: 0x0, symName: __RINvXsh_NtCsiTraAjBDcu4_5alloc3vecINtB6_3VecNtNtCsc29TF2YcYso_3syn4attr9AttributeEINtNtNtNtCsaNl6UpbT7bw_4core4iter6traits7collect6ExtendBG_E6extendBw_EBK_, symObjAddr: 0xF08, symBinAddr: 0x6D330, symSize: 0x48 }
  - { offset: 0x15FF4C, size: 0x8, addend: 0x0, symName: __RINvXsh_NtCsiTraAjBDcu4_5alloc3vecINtB6_3VecNtNtCsc29TF2YcYso_3syn8generics14TypeParamBoundEINtNtNtNtCsaNl6UpbT7bw_4core4iter6traits7collect6ExtendBG_E6extendINtNtB1B_6option6OptionBG_EEBK_, symObjAddr: 0x1078, symBinAddr: 0x6D378, symSize: 0x48 }
  - { offset: 0x15FFA1, size: 0x8, addend: 0x0, symName: __RINvXsh_NtCsiTraAjBDcu4_5alloc3vecINtB6_3VecNtNtCsc29TF2YcYso_3syn8generics14TypeParamBoundEINtNtNtNtCsaNl6UpbT7bw_4core4iter6traits7collect6ExtendBG_E6extendINtNtNtB1z_8adapters3map3MapINtNtB6_9into_iter8IntoIterTBG_NtNtBK_5token4PlusEENCNvXs8_NtBK_10punctuatedINtB3V_10PunctuatedBG_B3t_ENtB1v_12IntoIterator9into_iter0EEBK_, symObjAddr: 0x10C0, symBinAddr: 0x6D3C0, symSize: 0x48 }
  - { offset: 0x160001, size: 0x8, addend: 0x0, symName: __RNCINvMsi_NtCsiTraAjBDcu4_5alloc3vecINtB8_3VecNtNtCsc29TF2YcYso_3syn8generics14TypeParamBoundE14extend_trustedINtNtCsaNl6UpbT7bw_4core6option8IntoIterBI_EE0BM_, symObjAddr: 0x1204, symBinAddr: 0x6D408, symSize: 0x54 }
  - { offset: 0x1600BF, size: 0x8, addend: 0x0, symName: __RNCINvMsi_NtCsiTraAjBDcu4_5alloc3vecINtB8_3VecNtNtCsc29TF2YcYso_3syn8generics14TypeParamBoundE14extend_trustedINtNtNtNtCsaNl6UpbT7bw_4core4iter8adapters3map3MapINtNtB8_9into_iter8IntoIterTBI_NtNtBM_5token4PlusEENCNvXs8_NtBM_10punctuatedINtB3v_10PunctuatedBI_B33_ENtNtNtB1R_6traits7collect12IntoIterator9into_iter0EE0BM_, symObjAddr: 0x1258, symBinAddr: 0x6D45C, symSize: 0x54 }
  - { offset: 0x1605BF, size: 0x8, addend: 0x0, symName: __RNvXs6_NtCsiTraAjBDcu4_5alloc3vecINtB5_3VecNtNtCsc29TF2YcYso_3syn4attr9AttributeENtNtNtCsaNl6UpbT7bw_4core3ops5deref5Deref5derefBJ_, symObjAddr: 0x6F9C, symBinAddr: 0x71450, symSize: 0x24 }
  - { offset: 0x1605FF, size: 0x8, addend: 0x0, symName: __RNvXs6_NtCsiTraAjBDcu4_5alloc3vecINtB5_3VecNtNtCsc29TF2YcYso_3syn4expr3ArmENtNtNtCsaNl6UpbT7bw_4core3ops5deref5Deref5derefBJ_, symObjAddr: 0x6FC0, symBinAddr: 0x71474, symSize: 0x24 }
  - { offset: 0x16063F, size: 0x8, addend: 0x0, symName: __RNvXs6_NtCsiTraAjBDcu4_5alloc3vecINtB5_3VecNtNtCsc29TF2YcYso_3syn5error12ErrorMessageENtNtNtCsaNl6UpbT7bw_4core3ops5deref5Deref5derefBJ_, symObjAddr: 0x6FE4, symBinAddr: 0x71498, symSize: 0x24 }
  - { offset: 0x16067F, size: 0x8, addend: 0x0, symName: __RNvXs6_NtCsiTraAjBDcu4_5alloc3vecINtB5_3VecReENtNtNtCsaNl6UpbT7bw_4core3ops5deref5Deref5derefCsc29TF2YcYso_3syn, symObjAddr: 0x7008, symBinAddr: 0x714BC, symSize: 0x24 }
  - { offset: 0x1606BF, size: 0x8, addend: 0x0, symName: __RNvXs6_NtCsiTraAjBDcu4_5alloc3vecINtB5_3VecTNtNtCsc29TF2YcYso_3syn2ty4TypeNtNtBK_5token5CommaEENtNtNtCsaNl6UpbT7bw_4core3ops5deref5Deref5derefBK_, symObjAddr: 0x702C, symBinAddr: 0x714E0, symSize: 0x24 }
  - { offset: 0x1606FF, size: 0x8, addend: 0x0, symName: __RNvXs6_NtCsiTraAjBDcu4_5alloc3vecINtB5_3VecTNtNtCsc29TF2YcYso_3syn2ty9BareFnArgNtNtBK_5token5CommaEENtNtNtCsaNl6UpbT7bw_4core3ops5deref5Deref5derefBK_, symObjAddr: 0x7050, symBinAddr: 0x71504, symSize: 0x24 }
  - { offset: 0x16073F, size: 0x8, addend: 0x0, symName: __RNvXs6_NtCsiTraAjBDcu4_5alloc3vecINtB5_3VecTNtNtCsc29TF2YcYso_3syn3pat3PatNtNtBK_5token2OrEENtNtNtCsaNl6UpbT7bw_4core3ops5deref5Deref5derefBK_, symObjAddr: 0x7074, symBinAddr: 0x71528, symSize: 0x24 }
  - { offset: 0x16077F, size: 0x8, addend: 0x0, symName: __RNvXs6_NtCsiTraAjBDcu4_5alloc3vecINtB5_3VecTNtNtCsc29TF2YcYso_3syn3pat3PatNtNtBK_5token5CommaEENtNtNtCsaNl6UpbT7bw_4core3ops5deref5Deref5derefBK_, symObjAddr: 0x7098, symBinAddr: 0x7154C, symSize: 0x24 }
  - { offset: 0x1607BF, size: 0x8, addend: 0x0, symName: __RNvXs6_NtCsiTraAjBDcu4_5alloc3vecINtB5_3VecTNtNtCsc29TF2YcYso_3syn3pat8FieldPatNtNtBK_5token5CommaEENtNtNtCsaNl6UpbT7bw_4core3ops5deref5Deref5derefBK_, symObjAddr: 0x70BC, symBinAddr: 0x71570, symSize: 0x24 }
  - { offset: 0x1607FF, size: 0x8, addend: 0x0, symName: __RNvXs6_NtCsiTraAjBDcu4_5alloc3vecINtB5_3VecTNtNtCsc29TF2YcYso_3syn4data5FieldNtNtBK_5token5CommaEENtNtNtCsaNl6UpbT7bw_4core3ops5deref5Deref5derefBK_, symObjAddr: 0x70E0, symBinAddr: 0x71594, symSize: 0x24 }
  - { offset: 0x16083F, size: 0x8, addend: 0x0, symName: __RNvXs6_NtCsiTraAjBDcu4_5alloc3vecINtB5_3VecTNtNtCsc29TF2YcYso_3syn4data7VariantNtNtBK_5token5CommaEENtNtNtCsaNl6UpbT7bw_4core3ops5deref5Deref5derefBK_, symObjAddr: 0x7104, symBinAddr: 0x715B8, symSize: 0x24 }
  - { offset: 0x16087F, size: 0x8, addend: 0x0, symName: __RNvXs6_NtCsiTraAjBDcu4_5alloc3vecINtB5_3VecTNtNtCsc29TF2YcYso_3syn4expr10FieldValueNtNtBK_5token5CommaEENtNtNtCsaNl6UpbT7bw_4core3ops5deref5Deref5derefBK_, symObjAddr: 0x7128, symBinAddr: 0x715DC, symSize: 0x24 }
  - { offset: 0x1608BF, size: 0x8, addend: 0x0, symName: __RNvXs6_NtCsiTraAjBDcu4_5alloc3vecINtB5_3VecTNtNtCsc29TF2YcYso_3syn4expr4ExprNtNtBK_5token5CommaEENtNtNtCsaNl6UpbT7bw_4core3ops5deref5Deref5derefBK_, symObjAddr: 0x714C, symBinAddr: 0x71600, symSize: 0x24 }
  - { offset: 0x1608FF, size: 0x8, addend: 0x0, symName: __RNvXs6_NtCsiTraAjBDcu4_5alloc3vecINtB5_3VecTNtNtCsc29TF2YcYso_3syn4item5FnArgNtNtBK_5token5CommaEENtNtNtCsaNl6UpbT7bw_4core3ops5deref5Deref5derefBK_, symObjAddr: 0x7170, symBinAddr: 0x71624, symSize: 0x24 }
  - { offset: 0x16093F, size: 0x8, addend: 0x0, symName: __RNvXs6_NtCsiTraAjBDcu4_5alloc3vecINtB5_3VecTNtNtCsc29TF2YcYso_3syn4item7UseTreeNtNtBK_5token5CommaEENtNtNtCsaNl6UpbT7bw_4core3ops5deref5Deref5derefBK_, symObjAddr: 0x7194, symBinAddr: 0x71648, symSize: 0x24 }
  - { offset: 0x16097F, size: 0x8, addend: 0x0, symName: __RNvXs6_NtCsiTraAjBDcu4_5alloc3vecINtB5_3VecTNtNtCsc29TF2YcYso_3syn4path11PathSegmentNtNtBK_5token7PathSepEENtNtNtCsaNl6UpbT7bw_4core3ops5deref5Deref5derefBK_, symObjAddr: 0x71B8, symBinAddr: 0x7166C, symSize: 0x24 }
  - { offset: 0x1609BF, size: 0x8, addend: 0x0, symName: __RNvXs6_NtCsiTraAjBDcu4_5alloc3vecINtB5_3VecTNtNtCsc29TF2YcYso_3syn4path15GenericArgumentNtNtBK_5token5CommaEENtNtNtCsaNl6UpbT7bw_4core3ops5deref5Deref5derefBK_, symObjAddr: 0x71DC, symBinAddr: 0x71690, symSize: 0x24 }
  - { offset: 0x1609FF, size: 0x8, addend: 0x0, symName: __RNvXs6_NtCsiTraAjBDcu4_5alloc3vecINtB5_3VecTNtNtCsc29TF2YcYso_3syn8generics12GenericParamNtNtBK_5token5CommaEENtNtNtCsaNl6UpbT7bw_4core3ops5deref5Deref5derefBK_, symObjAddr: 0x7200, symBinAddr: 0x716B4, symSize: 0x24 }
  - { offset: 0x160A3F, size: 0x8, addend: 0x0, symName: __RNvXs6_NtCsiTraAjBDcu4_5alloc3vecINtB5_3VecTNtNtCsc29TF2YcYso_3syn8generics13CapturedParamNtNtBK_5token5CommaEENtNtNtCsaNl6UpbT7bw_4core3ops5deref5Deref5derefBK_, symObjAddr: 0x7224, symBinAddr: 0x716D8, symSize: 0x24 }
  - { offset: 0x160A7F, size: 0x8, addend: 0x0, symName: __RNvXs6_NtCsiTraAjBDcu4_5alloc3vecINtB5_3VecTNtNtCsc29TF2YcYso_3syn8generics14TypeParamBoundNtNtBK_5token4PlusEENtNtNtCsaNl6UpbT7bw_4core3ops5deref5Deref5derefBK_, symObjAddr: 0x7248, symBinAddr: 0x716FC, symSize: 0x24 }
  - { offset: 0x160ABF, size: 0x8, addend: 0x0, symName: __RNvXs6_NtCsiTraAjBDcu4_5alloc3vecINtB5_3VecTNtNtCsc29TF2YcYso_3syn8generics14WherePredicateNtNtBK_5token5CommaEENtNtNtCsaNl6UpbT7bw_4core3ops5deref5Deref5derefBK_, symObjAddr: 0x726C, symBinAddr: 0x71720, symSize: 0x24 }
  - { offset: 0x160AFF, size: 0x8, addend: 0x0, symName: __RNvXs6_NtCsiTraAjBDcu4_5alloc3vecINtB5_3VecTNtNtCsc29TF2YcYso_3syn8lifetime8LifetimeNtNtBK_5token4PlusEENtNtNtCsaNl6UpbT7bw_4core3ops5deref5Deref5derefBK_, symObjAddr: 0x7290, symBinAddr: 0x71744, symSize: 0x24 }
  - { offset: 0x160B3F, size: 0x8, addend: 0x0, symName: __RNvXs6_NtCsiTraAjBDcu4_5alloc3vecINtB5_3VechENtNtNtCsaNl6UpbT7bw_4core3ops5deref5Deref5derefCsc29TF2YcYso_3syn, symObjAddr: 0x72B4, symBinAddr: 0x71768, symSize: 0x24 }
  - { offset: 0x1612D5, size: 0x8, addend: 0x0, symName: __RNvXsb_NtCsiTraAjBDcu4_5alloc3vecINtB5_3VecNtNtCsc29TF2YcYso_3syn5error12ErrorMessageEINtNtNtCsaNl6UpbT7bw_4core3ops5index5IndexjE5indexBJ_, symObjAddr: 0x82B0, symBinAddr: 0x72620, symSize: 0x8C }
  - { offset: 0x161457, size: 0x8, addend: 0x0, symName: __RNvXsb_NtCsiTraAjBDcu4_5alloc3vecINtB5_3VecReEINtNtNtCsaNl6UpbT7bw_4core3ops5index5IndexjE5indexCsc29TF2YcYso_3syn, symObjAddr: 0x833C, symBinAddr: 0x726AC, symSize: 0x8C }
  - { offset: 0x1615D9, size: 0x8, addend: 0x0, symName: __RNvXsb_NtCsiTraAjBDcu4_5alloc3vecINtB5_3VecTNtNtCsc29TF2YcYso_3syn3pat3PatNtNtBK_5token5CommaEEINtNtNtCsaNl6UpbT7bw_4core3ops5index5IndexjE5indexBK_, symObjAddr: 0x83C8, symBinAddr: 0x72738, symSize: 0x8C }
  - { offset: 0x16175B, size: 0x8, addend: 0x0, symName: __RNvXsb_NtCsiTraAjBDcu4_5alloc3vecINtB5_3VecTNtNtCsc29TF2YcYso_3syn4path11PathSegmentNtNtBK_5token7PathSepEEINtNtNtCsaNl6UpbT7bw_4core3ops5index5IndexjE5indexBK_, symObjAddr: 0x8454, symBinAddr: 0x727C4, symSize: 0x8C }
  - { offset: 0x1618DD, size: 0x8, addend: 0x0, symName: __RNvXsb_NtCsiTraAjBDcu4_5alloc3vecINtB5_3VechEINtNtNtCsaNl6UpbT7bw_4core3ops5index5IndexINtNtBM_5range9RangeFromjEE5indexCsc29TF2YcYso_3syn, symObjAddr: 0x84E0, symBinAddr: 0x72850, symSize: 0x88 }
  - { offset: 0x161A5F, size: 0x8, addend: 0x0, symName: __RNvXsb_NtCsiTraAjBDcu4_5alloc3vecINtB5_3VechEINtNtNtCsaNl6UpbT7bw_4core3ops5index5IndexjE5indexCsc29TF2YcYso_3syn, symObjAddr: 0x8568, symBinAddr: 0x728D8, symSize: 0x88 }
  - { offset: 0x161BEC, size: 0x8, addend: 0x0, symName: __RNvXNtNtCsiTraAjBDcu4_5alloc3vec11spec_extendINtB4_3VecNtCshnvkK9b4wzu_11proc_macro29TokenTreeEINtB2_10SpecExtendBR_INtNtNtNtCsaNl6UpbT7bw_4core4iter8adapters7flatten7FlattenINtNtB1V_3map3MapIB2N_IB2N_INtNtNtB1Z_5slice4iter4IterNtNtCsc29TF2YcYso_3syn5error12ErrorMessageENvMs_B3G_B3E_16to_compile_errorENCINvXs7_BT_NtBT_11TokenStreamINtNtNtB1X_6traits7collect12FromIteratorB53_E9from_iterB38_E0ENCINvXs6_NtBT_3impNtB6u_11TokenStreamIB5m_B6D_E9from_iterB33_Es_0EEE11spec_extendB3I_, symObjAddr: 0x68EC, symBinAddr: 0x710D0, symSize: 0x24 }
  - { offset: 0x161C44, size: 0x8, addend: 0x0, symName: __RNvXs0_NtNtCsiTraAjBDcu4_5alloc3vec11spec_extendINtB7_3VecNtNtCsc29TF2YcYso_3syn4attr9AttributeEINtB5_10SpecExtendBU_INtNtB7_9into_iter8IntoIterBU_EE11spec_extendBY_, symObjAddr: 0x6E24, symBinAddr: 0x713A0, symSize: 0x98 }
  - { offset: 0x161CB0, size: 0x8, addend: 0x0, symName: __RNvXs_NtNtCsiTraAjBDcu4_5alloc3vec11spec_extendINtB6_3VecNtNtCsc29TF2YcYso_3syn8generics14TypeParamBoundEINtB4_10SpecExtendBT_INtNtCsaNl6UpbT7bw_4core6option8IntoIterBT_EE11spec_extendBX_, symObjAddr: 0x8268, symBinAddr: 0x725D8, symSize: 0x24 }
  - { offset: 0x161D02, size: 0x8, addend: 0x0, symName: __RNvXs_NtNtCsiTraAjBDcu4_5alloc3vec11spec_extendINtB6_3VecNtNtCsc29TF2YcYso_3syn8generics14TypeParamBoundEINtB4_10SpecExtendBT_INtNtNtNtCsaNl6UpbT7bw_4core4iter8adapters3map3MapINtNtB6_9into_iter8IntoIterTBT_NtNtBX_5token4PlusEENCNvXs8_NtBX_10punctuatedINtB3L_10PunctuatedBT_B3j_ENtNtNtB27_6traits7collect12IntoIterator9into_iter0EE11spec_extendBX_, symObjAddr: 0x828C, symBinAddr: 0x725FC, symSize: 0x24 }
  - { offset: 0x161D5B, size: 0x8, addend: 0x0, symName: __RNvXs7_NtCsiTraAjBDcu4_5alloc3vecINtB5_3VecTNtNtCsc29TF2YcYso_3syn4path11PathSegmentNtNtBK_5token7PathSepEENtNtNtCsaNl6UpbT7bw_4core3ops5deref8DerefMut9deref_mutBK_, symObjAddr: 0x72FC, symBinAddr: 0x7178C, symSize: 0x24 }
  - { offset: 0x161E31, size: 0x8, addend: 0x0, symName: __RNvXs9_NtCsiTraAjBDcu4_5alloc3vecINtB5_3VecNtNtCsc29TF2YcYso_3syn4attr9AttributeENtNtCsaNl6UpbT7bw_4core5clone5Clone5cloneBJ_, symObjAddr: 0x7344, symBinAddr: 0x717B0, symSize: 0x90 }
  - { offset: 0x162002, size: 0x8, addend: 0x0, symName: __RNvXs9_NtCsiTraAjBDcu4_5alloc3vecINtB5_3VecNtNtCsc29TF2YcYso_3syn4expr3ArmENtNtCsaNl6UpbT7bw_4core5clone5Clone5cloneBJ_, symObjAddr: 0x73D4, symBinAddr: 0x71840, symSize: 0x90 }
  - { offset: 0x1621D3, size: 0x8, addend: 0x0, symName: __RNvXs9_NtCsiTraAjBDcu4_5alloc3vecINtB5_3VecNtNtCsc29TF2YcYso_3syn4item11ForeignItemENtNtCsaNl6UpbT7bw_4core5clone5Clone5cloneBJ_, symObjAddr: 0x7464, symBinAddr: 0x718D0, symSize: 0x90 }
  - { offset: 0x1623A4, size: 0x8, addend: 0x0, symName: __RNvXs9_NtCsiTraAjBDcu4_5alloc3vecINtB5_3VecNtNtCsc29TF2YcYso_3syn4item4ItemENtNtCsaNl6UpbT7bw_4core5clone5Clone5cloneBJ_, symObjAddr: 0x74F4, symBinAddr: 0x71960, symSize: 0x90 }
  - { offset: 0x162575, size: 0x8, addend: 0x0, symName: __RNvXs9_NtCsiTraAjBDcu4_5alloc3vecINtB5_3VecNtNtCsc29TF2YcYso_3syn4item8ImplItemENtNtCsaNl6UpbT7bw_4core5clone5Clone5cloneBJ_, symObjAddr: 0x7584, symBinAddr: 0x719F0, symSize: 0x90 }
  - { offset: 0x162746, size: 0x8, addend: 0x0, symName: __RNvXs9_NtCsiTraAjBDcu4_5alloc3vecINtB5_3VecNtNtCsc29TF2YcYso_3syn4item9TraitItemENtNtCsaNl6UpbT7bw_4core5clone5Clone5cloneBJ_, symObjAddr: 0x7614, symBinAddr: 0x71A80, symSize: 0x90 }
  - { offset: 0x162917, size: 0x8, addend: 0x0, symName: __RNvXs9_NtCsiTraAjBDcu4_5alloc3vecINtB5_3VecNtNtCsc29TF2YcYso_3syn4stmt4StmtENtNtCsaNl6UpbT7bw_4core5clone5Clone5cloneBJ_, symObjAddr: 0x76A4, symBinAddr: 0x71B10, symSize: 0x90 }
  - { offset: 0x162AE8, size: 0x8, addend: 0x0, symName: __RNvXs9_NtCsiTraAjBDcu4_5alloc3vecINtB5_3VecTNtNtCsc29TF2YcYso_3syn2ty4TypeNtNtBK_5token5CommaEENtNtCsaNl6UpbT7bw_4core5clone5Clone5cloneBK_, symObjAddr: 0x77C4, symBinAddr: 0x71BA0, symSize: 0x90 }
  - { offset: 0x162CB9, size: 0x8, addend: 0x0, symName: __RNvXs9_NtCsiTraAjBDcu4_5alloc3vecINtB5_3VecTNtNtCsc29TF2YcYso_3syn2ty9BareFnArgNtNtBK_5token5CommaEENtNtCsaNl6UpbT7bw_4core5clone5Clone5cloneBK_, symObjAddr: 0x7854, symBinAddr: 0x71C30, symSize: 0x90 }
  - { offset: 0x162E8A, size: 0x8, addend: 0x0, symName: __RNvXs9_NtCsiTraAjBDcu4_5alloc3vecINtB5_3VecTNtNtCsc29TF2YcYso_3syn3pat3PatNtNtBK_5token2OrEENtNtCsaNl6UpbT7bw_4core5clone5Clone5cloneBK_, symObjAddr: 0x78E4, symBinAddr: 0x71CC0, symSize: 0x90 }
  - { offset: 0x16305B, size: 0x8, addend: 0x0, symName: __RNvXs9_NtCsiTraAjBDcu4_5alloc3vecINtB5_3VecTNtNtCsc29TF2YcYso_3syn3pat3PatNtNtBK_5token5CommaEENtNtCsaNl6UpbT7bw_4core5clone5Clone5cloneBK_, symObjAddr: 0x7974, symBinAddr: 0x71D50, symSize: 0x90 }
  - { offset: 0x16322C, size: 0x8, addend: 0x0, symName: __RNvXs9_NtCsiTraAjBDcu4_5alloc3vecINtB5_3VecTNtNtCsc29TF2YcYso_3syn3pat8FieldPatNtNtBK_5token5CommaEENtNtCsaNl6UpbT7bw_4core5clone5Clone5cloneBK_, symObjAddr: 0x7A04, symBinAddr: 0x71DE0, symSize: 0x90 }
  - { offset: 0x1633FD, size: 0x8, addend: 0x0, symName: __RNvXs9_NtCsiTraAjBDcu4_5alloc3vecINtB5_3VecTNtNtCsc29TF2YcYso_3syn4data5FieldNtNtBK_5token5CommaEENtNtCsaNl6UpbT7bw_4core5clone5Clone5cloneBK_, symObjAddr: 0x7A94, symBinAddr: 0x71E70, symSize: 0x90 }
  - { offset: 0x1635CE, size: 0x8, addend: 0x0, symName: __RNvXs9_NtCsiTraAjBDcu4_5alloc3vecINtB5_3VecTNtNtCsc29TF2YcYso_3syn4data7VariantNtNtBK_5token5CommaEENtNtCsaNl6UpbT7bw_4core5clone5Clone5cloneBK_, symObjAddr: 0x7B24, symBinAddr: 0x71F00, symSize: 0x90 }
  - { offset: 0x16379F, size: 0x8, addend: 0x0, symName: __RNvXs9_NtCsiTraAjBDcu4_5alloc3vecINtB5_3VecTNtNtCsc29TF2YcYso_3syn4expr10FieldValueNtNtBK_5token5CommaEENtNtCsaNl6UpbT7bw_4core5clone5Clone5cloneBK_, symObjAddr: 0x7BB4, symBinAddr: 0x71F90, symSize: 0x90 }
  - { offset: 0x163970, size: 0x8, addend: 0x0, symName: __RNvXs9_NtCsiTraAjBDcu4_5alloc3vecINtB5_3VecTNtNtCsc29TF2YcYso_3syn4expr4ExprNtNtBK_5token5CommaEENtNtCsaNl6UpbT7bw_4core5clone5Clone5cloneBK_, symObjAddr: 0x7C44, symBinAddr: 0x72020, symSize: 0x90 }
  - { offset: 0x163B41, size: 0x8, addend: 0x0, symName: __RNvXs9_NtCsiTraAjBDcu4_5alloc3vecINtB5_3VecTNtNtCsc29TF2YcYso_3syn4item5FnArgNtNtBK_5token5CommaEENtNtCsaNl6UpbT7bw_4core5clone5Clone5cloneBK_, symObjAddr: 0x7CD4, symBinAddr: 0x720B0, symSize: 0x90 }
  - { offset: 0x163D12, size: 0x8, addend: 0x0, symName: __RNvXs9_NtCsiTraAjBDcu4_5alloc3vecINtB5_3VecTNtNtCsc29TF2YcYso_3syn4item7UseTreeNtNtBK_5token5CommaEENtNtCsaNl6UpbT7bw_4core5clone5Clone5cloneBK_, symObjAddr: 0x7D64, symBinAddr: 0x72140, symSize: 0x90 }
  - { offset: 0x163EE3, size: 0x8, addend: 0x0, symName: __RNvXs9_NtCsiTraAjBDcu4_5alloc3vecINtB5_3VecTNtNtCsc29TF2YcYso_3syn4path11PathSegmentNtNtBK_5token7PathSepEENtNtCsaNl6UpbT7bw_4core5clone5Clone5cloneBK_, symObjAddr: 0x7DF4, symBinAddr: 0x721D0, symSize: 0x90 }
  - { offset: 0x1640B4, size: 0x8, addend: 0x0, symName: __RNvXs9_NtCsiTraAjBDcu4_5alloc3vecINtB5_3VecTNtNtCsc29TF2YcYso_3syn4path15GenericArgumentNtNtBK_5token5CommaEENtNtCsaNl6UpbT7bw_4core5clone5Clone5cloneBK_, symObjAddr: 0x7E84, symBinAddr: 0x72260, symSize: 0x90 }
  - { offset: 0x164285, size: 0x8, addend: 0x0, symName: __RNvXs9_NtCsiTraAjBDcu4_5alloc3vecINtB5_3VecTNtNtCsc29TF2YcYso_3syn8generics12GenericParamNtNtBK_5token5CommaEENtNtCsaNl6UpbT7bw_4core5clone5Clone5cloneBK_, symObjAddr: 0x7F14, symBinAddr: 0x722F0, symSize: 0x90 }
  - { offset: 0x164456, size: 0x8, addend: 0x0, symName: __RNvXs9_NtCsiTraAjBDcu4_5alloc3vecINtB5_3VecTNtNtCsc29TF2YcYso_3syn8generics13CapturedParamNtNtBK_5token5CommaEENtNtCsaNl6UpbT7bw_4core5clone5Clone5cloneBK_, symObjAddr: 0x7FA4, symBinAddr: 0x72380, symSize: 0x90 }
  - { offset: 0x164627, size: 0x8, addend: 0x0, symName: __RNvXs9_NtCsiTraAjBDcu4_5alloc3vecINtB5_3VecTNtNtCsc29TF2YcYso_3syn8generics14TypeParamBoundNtNtBK_5token4PlusEENtNtCsaNl6UpbT7bw_4core5clone5Clone5cloneBK_, symObjAddr: 0x8034, symBinAddr: 0x72410, symSize: 0x90 }
  - { offset: 0x1647F8, size: 0x8, addend: 0x0, symName: __RNvXs9_NtCsiTraAjBDcu4_5alloc3vecINtB5_3VecTNtNtCsc29TF2YcYso_3syn8generics14WherePredicateNtNtBK_5token5CommaEENtNtCsaNl6UpbT7bw_4core5clone5Clone5cloneBK_, symObjAddr: 0x80C4, symBinAddr: 0x724A0, symSize: 0x90 }
  - { offset: 0x1649C9, size: 0x8, addend: 0x0, symName: __RNvXs9_NtCsiTraAjBDcu4_5alloc3vecINtB5_3VecTNtNtCsc29TF2YcYso_3syn8lifetime8LifetimeNtNtBK_5token4PlusEENtNtCsaNl6UpbT7bw_4core5clone5Clone5cloneBK_, symObjAddr: 0x8154, symBinAddr: 0x72530, symSize: 0x90 }
  - { offset: 0x164BA0, size: 0x8, addend: 0x0, symName: __RNvXsc_NtCsiTraAjBDcu4_5alloc3vecINtB5_3VecNtNtCsc29TF2YcYso_3syn6buffer5EntryEINtNtNtCsaNl6UpbT7bw_4core3ops5index8IndexMutjE9index_mutBJ_, symObjAddr: 0x85F0, symBinAddr: 0x72960, symSize: 0x8C }
  - { offset: 0x164CF4, size: 0x8, addend: 0x0, symName: __RNvXsc_NtCsiTraAjBDcu4_5alloc3vecINtB5_3VechEINtNtNtCsaNl6UpbT7bw_4core3ops5index8IndexMutjE9index_mutCsc29TF2YcYso_3syn, symObjAddr: 0x867C, symBinAddr: 0x729EC, symSize: 0x88 }
  - { offset: 0x164E4E, size: 0x8, addend: 0x0, symName: __RNvXse_NtCsiTraAjBDcu4_5alloc3vecINtB5_3VecNtNtCsc29TF2YcYso_3syn4attr9AttributeENtNtNtNtCsaNl6UpbT7bw_4core4iter6traits7collect12IntoIterator9into_iterBJ_, symObjAddr: 0x8704, symBinAddr: 0x72A74, symSize: 0xDC }
  - { offset: 0x1650E0, size: 0x8, addend: 0x0, symName: __RNvXse_NtCsiTraAjBDcu4_5alloc3vecINtB5_3VecNtNtCsc29TF2YcYso_3syn8generics14TypeParamBoundENtNtNtNtCsaNl6UpbT7bw_4core4iter6traits7collect12IntoIterator9into_iterBJ_, symObjAddr: 0x89A8, symBinAddr: 0x72B50, symSize: 0xE4 }
  - { offset: 0x165372, size: 0x8, addend: 0x0, symName: __RNvXse_NtCsiTraAjBDcu4_5alloc3vecINtB5_3VecTNtNtCsc29TF2YcYso_3syn4path11PathSegmentNtNtBK_5token7PathSepEENtNtNtNtCsaNl6UpbT7bw_4core4iter6traits7collect12IntoIterator9into_iterBK_, symObjAddr: 0x8C54, symBinAddr: 0x72C34, symSize: 0xE4 }
  - { offset: 0x165604, size: 0x8, addend: 0x0, symName: __RNvXse_NtCsiTraAjBDcu4_5alloc3vecINtB5_3VecTNtNtCsc29TF2YcYso_3syn8generics14TypeParamBoundNtNtBK_5token4PlusEENtNtNtNtCsaNl6UpbT7bw_4core4iter6traits7collect12IntoIterator9into_iterBK_, symObjAddr: 0x8D38, symBinAddr: 0x72D18, symSize: 0xDC }
  - { offset: 0x16589C, size: 0x8, addend: 0x0, symName: __RNvXsf_NtCsiTraAjBDcu4_5alloc3vecRINtB5_3VecNtNtCsc29TF2YcYso_3syn4attr9AttributeENtNtNtNtCsaNl6UpbT7bw_4core4iter6traits7collect12IntoIterator9into_iterBK_, symObjAddr: 0x8E14, symBinAddr: 0x72DF4, symSize: 0xA4 }
  - { offset: 0x165ADA, size: 0x8, addend: 0x0, symName: __RNvXsf_NtCsiTraAjBDcu4_5alloc3vecRINtB5_3VecNtNtCsc29TF2YcYso_3syn4item11ForeignItemENtNtNtNtCsaNl6UpbT7bw_4core4iter6traits7collect12IntoIterator9into_iterBK_, symObjAddr: 0x8EB8, symBinAddr: 0x72E98, symSize: 0xAC }
  - { offset: 0x165D18, size: 0x8, addend: 0x0, symName: __RNvXsf_NtCsiTraAjBDcu4_5alloc3vecRINtB5_3VecNtNtCsc29TF2YcYso_3syn4item4ItemENtNtNtNtCsaNl6UpbT7bw_4core4iter6traits7collect12IntoIterator9into_iterBK_, symObjAddr: 0x8F64, symBinAddr: 0x72F44, symSize: 0xAC }
  - { offset: 0x165F56, size: 0x8, addend: 0x0, symName: __RNvXsf_NtCsiTraAjBDcu4_5alloc3vecRINtB5_3VecNtNtCsc29TF2YcYso_3syn4item8ImplItemENtNtNtNtCsaNl6UpbT7bw_4core4iter6traits7collect12IntoIterator9into_iterBK_, symObjAddr: 0x9010, symBinAddr: 0x72FF0, symSize: 0xAC }
  - { offset: 0x166194, size: 0x8, addend: 0x0, symName: __RNvXsf_NtCsiTraAjBDcu4_5alloc3vecRINtB5_3VecNtNtCsc29TF2YcYso_3syn4item9TraitItemENtNtNtNtCsaNl6UpbT7bw_4core4iter6traits7collect12IntoIterator9into_iterBK_, symObjAddr: 0x90BC, symBinAddr: 0x7309C, symSize: 0xAC }
  - { offset: 0x1663D2, size: 0x8, addend: 0x0, symName: __RNvXsf_NtCsiTraAjBDcu4_5alloc3vecRINtB5_3VecNtNtCsc29TF2YcYso_3syn4stmt4StmtENtNtNtNtCsaNl6UpbT7bw_4core4iter6traits7collect12IntoIterator9into_iterBK_, symObjAddr: 0x9168, symBinAddr: 0x73148, symSize: 0xAC }
  - { offset: 0x166616, size: 0x8, addend: 0x0, symName: __RNvXsg_NtCsiTraAjBDcu4_5alloc3vecQINtB5_3VechENtNtNtNtCsaNl6UpbT7bw_4core4iter6traits7collect12IntoIterator9into_iterCsc29TF2YcYso_3syn, symObjAddr: 0x9E24, symBinAddr: 0x731F4, symSize: 0xA0 }
  - { offset: 0x16682C, size: 0x8, addend: 0x0, symName: __RNvXsn_NtCsiTraAjBDcu4_5alloc3vecINtB5_3VecNtNtCsc29TF2YcYso_3syn4attr9AttributeENtNtNtCsaNl6UpbT7bw_4core3ops4drop4Drop4dropBJ_, symObjAddr: 0x9EC4, symBinAddr: 0x73294, symSize: 0x38 }
  - { offset: 0x1668DC, size: 0x8, addend: 0x0, symName: __RNvXsn_NtCsiTraAjBDcu4_5alloc3vecINtB5_3VecNtNtCsc29TF2YcYso_3syn4expr3ArmENtNtNtCsaNl6UpbT7bw_4core3ops4drop4Drop4dropBJ_, symObjAddr: 0x9F34, symBinAddr: 0x732CC, symSize: 0x38 }
  - { offset: 0x16698C, size: 0x8, addend: 0x0, symName: __RNvXsn_NtCsiTraAjBDcu4_5alloc3vecINtB5_3VecNtNtCsc29TF2YcYso_3syn4expr6ExprIfENtNtNtCsaNl6UpbT7bw_4core3ops4drop4Drop4dropBJ_, symObjAddr: 0x9F6C, symBinAddr: 0x73304, symSize: 0x38 }
  - { offset: 0x166A3C, size: 0x8, addend: 0x0, symName: __RNvXsn_NtCsiTraAjBDcu4_5alloc3vecINtB5_3VecNtNtCsc29TF2YcYso_3syn4item11ForeignItemENtNtNtCsaNl6UpbT7bw_4core3ops4drop4Drop4dropBJ_, symObjAddr: 0x9FA4, symBinAddr: 0x7333C, symSize: 0x38 }
  - { offset: 0x166AEC, size: 0x8, addend: 0x0, symName: __RNvXsn_NtCsiTraAjBDcu4_5alloc3vecINtB5_3VecNtNtCsc29TF2YcYso_3syn4item4ItemENtNtNtCsaNl6UpbT7bw_4core3ops4drop4Drop4dropBJ_, symObjAddr: 0x9FDC, symBinAddr: 0x73374, symSize: 0x38 }
  - { offset: 0x166B9C, size: 0x8, addend: 0x0, symName: __RNvXsn_NtCsiTraAjBDcu4_5alloc3vecINtB5_3VecNtNtCsc29TF2YcYso_3syn4item8ImplItemENtNtNtCsaNl6UpbT7bw_4core3ops4drop4Drop4dropBJ_, symObjAddr: 0xA014, symBinAddr: 0x733AC, symSize: 0x38 }
  - { offset: 0x166C4C, size: 0x8, addend: 0x0, symName: __RNvXsn_NtCsiTraAjBDcu4_5alloc3vecINtB5_3VecNtNtCsc29TF2YcYso_3syn4item9TraitItemENtNtNtCsaNl6UpbT7bw_4core3ops4drop4Drop4dropBJ_, symObjAddr: 0xA04C, symBinAddr: 0x733E4, symSize: 0x38 }
